		Time			Cycle	PC		Insn	Decoded instruction	Register and memory contents
          65000	         5	80000004	00000293	addi	x5,x0,0	  x0:0x00000000  x5=0x00000000
          75000	         6	80000008	00000313	addi	x6,x0,0	  x0:0x00000000  x6=0x00000000
          85000	         7	8000000c	00628263	beq	x5,x6,80000010	  x5:0x00000000  x6:0x00000000
          95000	         8	00000000	00000013	addi	x0,x0,0	  x0:0x00000000
         105000	         9	8000000c	00000013	addi	x0,x0,0	  x0:0x00000000
         115000	        10	80000010	00000d17	auipc	x26,0x0	 x26=0x8000000c
         125000	        11	80000014	00cd0d13	addi	x26,x26,12	 x26:0x8000000c x26=0x80000018
         135000	        12	80000018	000d0067	jalr	x0,x26,0	 x26:0x80000018
         145000	        13	00000000	00000013	addi	x0,x0,0	  x0:0x00000000
         155000	        14	80000018	00000013	addi	x0,x0,0	  x0:0x00000000
         165000	        15	8000001c	40000fb7	lui	x31,0x40000	 x31=0x40000000
         175000	        16	80000020	100f8f93	addi	x31,x31,256	 x31:0x40000000 x31=0x40000100
         185000	        17	80000024	00000013	addi	x0,x0,0	  x0:0x00000000
         195000	        18	80000028	0000a717	auipc	x14,0xa	 x14=0x8000a024
         205000	        19	8000002c	fa070713	addi	x14,x14,-96	 x14:0x8000a024 x14=0x80009fc4
         215000	        20	80000030	00003f97	auipc	x31,0x3	 x31=0x8000302c
         225000	        21	80000034	028f8f93	addi	x31,x31,40	 x31:0x8000302c x31=0x80003054
         235000	        22	80000038	000fef93	ori	x31,x31,0	 x31:0x80003054 x31=0x80003054
         245000	        23	8000003c	00000013	addi	x0,x0,0	  x0:0x00000000
         255000	        24	80000040	00000f97	auipc	x31,0x0	 x31=0x8000003c
         265000	        25	80000044	020f8f93	addi	x31,x31,32	 x31:0x8000003c x31=0x8000005c
         275000	        26	80000048	00000013	addi	x0,x0,0	  x0:0x00000000
         285000	        27	8000004c	00000013	addi	x0,x0,0	  x0:0x00000000
         295000	        28	80000050	00002fb7	lui	x31,0x2	 x31=0x00002000
         305000	        29	80000054	800f8f93	addi	x31,x31,-2048	 x31:0x00002000 x31=0x00001800
         315000	        30	80000058	00000013	addi	x0,x0,0	  x0:0x00000000
         325000	        31	8000005c	00000013	addi	x0,x0,0	  x0:0x00000000
         335000	        32	80000060	eec44037	lui	x0,0xeec44	
         345000	        33	80000064	d0100013	addi	x0,x0,-767	  x0:0x00000000
         355000	        34	80000068	f14300b7	lui	x1,0xf1430	  x1=0xf1430000
         365000	        35	8000006c	62208093	addi	x1,x1,1570	  x1:0xf1430000  x1=0xf1430622
         375000	        36	80000070	ff67f137	lui	x2,0xff67f	  x2=0xff67f000
         385000	        37	80000074	f7510113	addi	x2,x2,-139	  x2:0xff67f000  x2=0xff67ef75
         395000	        38	80000078	00000193	addi	x3,x0,0	  x0:0x00000000  x3=0x00000000
         405000	        39	8000007c	00000213	addi	x4,x0,0	  x0:0x00000000  x4=0x00000000
         415000	        40	80000080	800002b7	lui	x5,0x80000	  x5=0x80000000
         425000	        41	80000084	00000313	addi	x6,x0,0	  x0:0x00000000  x6=0x00000000
         435000	        42	80000088	00b00393	addi	x7,x0,11	  x0:0x00000000  x7=0x0000000b
         445000	        43	8000008c	365bb437	lui	x8,0x365bb	  x8=0x365bb000
         455000	        44	80000090	29e40413	addi	x8,x8,670	  x8:0x365bb000  x8=0x365bb29e
         465000	        45	80000094	800004b7	lui	x9,0x80000	  x9=0x80000000
         475000	        46	80000098	80000537	lui	x10,0x80000	 x10=0x80000000
         485000	        47	8000009c	800005b7	lui	x11,0x80000	 x11=0x80000000
         495000	        48	800000a0	772c5637	lui	x12,0x772c5	 x12=0x772c5000
         505000	        49	800000a4	42760613	addi	x12,x12,1063	 x12:0x772c5000 x12=0x772c5427
         515000	        50	800000a8	00d00693	addi	x13,x0,13	  x0:0x00000000 x13=0x0000000d
         525000	        51	800000ac	00800793	addi	x15,x0,8	  x0:0x00000000 x15=0x00000008
         535000	        52	800000b0	02953837	lui	x16,0x2953	 x16=0x02953000
         545000	        53	800000b4	44e80813	addi	x16,x16,1102	 x16:0x02953000 x16=0x0295344e
         555000	        54	800000b8	00000893	addi	x17,x0,0	  x0:0x00000000 x17=0x00000000
         565000	        55	800000bc	00000913	addi	x18,x0,0	  x0:0x00000000 x18=0x00000000
         575000	        56	800000c0	fa3259b7	lui	x19,0xfa325	 x19=0xfa325000
         585000	        57	800000c4	58698993	addi	x19,x19,1414	 x19:0xfa325000 x19=0xfa325586
         595000	        58	800000c8	00e00a13	addi	x20,x0,14	  x0:0x00000000 x20=0x0000000e
         605000	        59	800000cc	00000a93	addi	x21,x0,0	  x0:0x00000000 x21=0x00000000
         615000	        60	800000d0	80000b37	lui	x22,0x80000	 x22=0x80000000
         625000	        61	800000d4	00000b93	addi	x23,x0,0	  x0:0x00000000 x23=0x00000000
         635000	        62	800000d8	7e378c37	lui	x24,0x7e378	 x24=0x7e378000
         645000	        63	800000dc	668c0c13	addi	x24,x24,1640	 x24:0x7e378000 x24=0x7e378668
         655000	        64	800000e0	f3e69cb7	lui	x25,0xf3e69	 x25=0xf3e69000
         665000	        65	800000e4	05cc8c93	addi	x25,x25,92	 x25:0xf3e69000 x25=0xf3e6905c
         675000	        66	800000e8	00b00d13	addi	x26,x0,11	  x0:0x00000000 x26=0x0000000b
         685000	        67	800000ec	00000d93	addi	x27,x0,0	  x0:0x00000000 x27=0x00000000
         695000	        68	800000f0	fdf09e37	lui	x28,0xfdf09	 x28=0xfdf09000
         705000	        69	800000f4	0cce0e13	addi	x28,x28,204	 x28:0xfdf09000 x28=0xfdf090cc
         715000	        70	800000f8	f5f2feb7	lui	x29,0xf5f2f	 x29=0xf5f2f000
         725000	        71	800000fc	1fce8e93	addi	x29,x29,508	 x29:0xf5f2f000 x29=0xf5f2f1fc
         735000	        72	80000100	1ac56fb7	lui	x31,0x1ac56	 x31=0x1ac56000
         745000	        73	80000104	8e1f8f93	addi	x31,x31,-1823	 x31:0x1ac56000 x31=0x1ac558e1
         755000	        74	80000108	0000af17	auipc	x30,0xa	 x30=0x8000a104
         765000	        75	8000010c	e80f0f13	addi	x30,x30,-384	 x30:0x8000a104 x30=0x80009f84
         775000	        76	80000110	00300693	addi	x13,x0,3	  x0:0x00000000 x13=0x00000003
         785000	        77	80000114	dc071eb7	lui	x29,0xdc071	 x29=0xdc071000
         795000	        78	80000118	b4158593	addi	x11,x11,-1215	 x11:0x80000000 x11=0x7ffffb41
         805000	        79	8000011c	0d8aa393	slti	x7,x21,216	 x21:0x00000000  x7=0x00000001
         815000	        80	80000120	011c5833	srl	x16,x24,x17	 x24:0x7e378668 x17:0x00000000 x16=0x7e378668
         825000	        81	80000124	01c27833	and	x16,x4,x28	  x4:0x00000000 x28:0xfdf090cc x16=0x00000000
         835000	        82	80000128	ff500d93	addi	x27,x0,-11	  x0:0x00000000 x27=0xfffffff5
         845000	        83	8000012c	1b05f213	andi	x4,x11,432	 x11:0x7ffffb41  x4=0x00000100
         855000	        84	80000130	40185e33	sra	x28,x16,x1	 x16:0x00000000  x1:0xf1430622 x28=0x00000000
         865000	        85	80000134	ff968693	addi	x13,x13,-7	 x13:0x00000003 x13=0xfffffffc
         875000	        86	80000138	009b5a33	srl	x20,x22,x9	 x22:0x80000000  x9:0x80000000 x20=0x80000000
         885000	        87	8000013c	00061433	sll	x8,x12,x0	 x12:0x772c5427  x0:0x00000000  x8=0x772c5427
         895000	        88	80000140	01749cb3	sll	x25,x9,x23	  x9:0x80000000 x23:0x00000000 x25=0x80000000
         905000	        89	80000144	00755913	srli	x18,x10,0x7	 x10:0x80000000 x18=0x01000000
         915000	        90	80000148	00a588b3	add	x17,x11,x10	 x11:0x7ffffb41 x10:0x80000000 x17=0xfffffb41
         925000	        91	8000014c	0013e333	or	x6,x7,x1	  x7:0x00000001  x1:0xf1430622  x6=0xf1430623
         935000	        92	80000150	01c56133	or	x2,x10,x28	 x10:0x80000000 x28:0x00000000  x2=0x80000000
         945000	        93	80000154	00000013	addi	x0,x0,0	  x0:0x00000000
         955000	        94	80000158	fdb69ae3	bne	x13,x27,8000012c	 x13:0xfffffffc x27:0xfffffff5
         965000	        95	00000000	00000013	addi	x0,x0,0	  x0:0x00000000
         975000	        96	80000128	00000013	addi	x0,x0,0	  x0:0x00000000
         985000	        97	8000012c	1b05f213	andi	x4,x11,432	 x11:0x7ffffb41  x4=0x00000100
         995000	        98	80000130	40185e33	sra	x28,x16,x1	 x16:0x00000000  x1:0xf1430622 x28=0x00000000
        1005000	        99	80000134	ff968693	addi	x13,x13,-7	 x13:0xfffffffc x13=0xfffffff5
        1015000	       100	80000138	009b5a33	srl	x20,x22,x9	 x22:0x80000000  x9:0x80000000 x20=0x80000000
        1025000	       101	8000013c	00061433	sll	x8,x12,x0	 x12:0x772c5427  x0:0x00000000  x8=0x772c5427
        1035000	       102	80000140	01749cb3	sll	x25,x9,x23	  x9:0x80000000 x23:0x00000000 x25=0x80000000
        1045000	       103	80000144	00755913	srli	x18,x10,0x7	 x10:0x80000000 x18=0x01000000
        1055000	       104	80000148	00a588b3	add	x17,x11,x10	 x11:0x7ffffb41 x10:0x80000000 x17=0xfffffb41
        1065000	       105	8000014c	0013e333	or	x6,x7,x1	  x7:0x00000001  x1:0xf1430622  x6=0xf1430623
        1075000	       106	80000150	01c56133	or	x2,x10,x28	 x10:0x80000000 x28:0x00000000  x2=0x80000000
        1085000	       107	80000154	00000013	addi	x0,x0,0	  x0:0x00000000
        1095000	       108	80000158	fdb69ae3	bne	x13,x27,8000012c	 x13:0xfffffff5 x27:0xfffffff5
        1105000	       109	8000015c	00c00c33	add	x24,x0,x12	  x0:0x00000000 x12:0x772c5427 x24=0x772c5427
        1115000	       110	80000160	00600493	addi	x9,x0,6	  x0:0x00000000  x9=0x00000006
        1125000	       111	80000164	012d5db3	srl	x27,x26,x18	 x26:0x0000000b x18:0x01000000 x27=0x0000000b
        1135000	       112	80000168	00ec4eb3	xor	x29,x24,x14	 x24:0x772c5427 x14:0x80009fc4 x29=0xf72ccbe3
        1145000	       113	8000016c	01000293	addi	x5,x0,16	  x0:0x00000000  x5=0x00000010
        1155000	       114	80000170	00d37fb3	and	x31,x6,x13	  x6:0xf1430623 x13:0xfffffff5 x31=0xf1430621
        1165000	       115	80000174	01ac15b3	sll	x11,x24,x26	 x24:0x772c5427 x26:0x0000000b x11=0x62a13800
        1175000	       116	80000178	00aabdb3	sltu	x27,x21,x10	 x21:0x00000000 x10:0x80000000 x27=0x00000001
        1185000	       117	8000017c	7fefa013	slti	x0,x31,2046	 x31:0xf1430621
        1195000	       118	80000180	eed7f113	andi	x2,x15,-275	 x15:0x00000008  x2=0x00000008
        1205000	       119	80000184	8e333813	sltiu	x16,x6,-1821	  x6:0xf1430623 x16=0x00000001
        1215000	       120	80000188	00ab5513	srli	x10,x22,0xa	 x22:0x80000000 x10=0x00200000
        1225000	       121	8000018c	e8e32b13	slti	x22,x6,-370	  x6:0xf1430623 x22=0x00000001
        1235000	       122	80000190	00819893	slli	x17,x3,0x8	  x3:0x00000000 x17=0x00000000
        1245000	       123	80000194	00848493	addi	x9,x9,8	  x9:0x00000006  x9=0x0000000e
        1255000	       124	80000198	700bc093	xori	x1,x23,1792	 x23:0x00000000  x1=0x00000700
        1265000	       125	8000019c	202d0113	addi	x2,x26,514	 x26:0x0000000b  x2=0x0000020d
        1275000	       126	800001a0	fe54e6e3	bltu	x9,x5,8000018c	  x9:0x0000000e  x5:0x00000010
        1285000	       127	00000000	00000013	addi	x0,x0,0	  x0:0x00000000
        1295000	       128	80000188	00000013	addi	x0,x0,0	  x0:0x00000000
        1305000	       129	8000018c	e8e32b13	slti	x22,x6,-370	  x6:0xf1430623 x22=0x00000001
        1315000	       130	80000190	00819893	slli	x17,x3,0x8	  x3:0x00000000 x17=0x00000000
        1325000	       131	80000194	00848493	addi	x9,x9,8	  x9:0x0000000e  x9=0x00000016
        1335000	       132	80000198	700bc093	xori	x1,x23,1792	 x23:0x00000000  x1=0x00000700
        1345000	       133	8000019c	202d0113	addi	x2,x26,514	 x26:0x0000000b  x2=0x0000020d
        1355000	       134	800001a0	fe54e6e3	bltu	x9,x5,8000018c	  x9:0x00000016  x5:0x00000010
        1365000	       135	800001a4	84c70e93	addi	x29,x14,-1972	 x14:0x80009fc4 x29=0x80009810
        1375000	       136	800001a8	ffc00a93	addi	x21,x0,-4	  x0:0x00000000 x21=0xfffffffc
        1385000	       137	800001ac	5a477c93	andi	x25,x14,1444	 x14:0x80009fc4 x25=0x00000584
        1395000	       138	800001b0	401f0233	sub	x4,x30,x1	 x30:0x80009f84  x1:0x00000700  x4=0x80009884
        1405000	       139	800001b4	0bde0113	addi	x2,x28,189	 x28:0x00000000  x2=0x000000bd
        1415000	       140	800001b8	4177d693	srai	x13,x15,0x17	 x15:0x00000008 x13=0x00000000
        1425000	       141	800001bc	0b766eb7	lui	x29,0xb766	 x29=0x0b766000
        1435000	       142	800001c0	01050fb3	add	x31,x10,x16	 x10:0x00200000 x16:0x00000001 x31=0x00200001
        1445000	       143	800001c4	6ed87897	auipc	x17,0x6ed87	 x17=0xeed871c0
        1455000	       144	800001c8	016331b3	sltu	x3,x6,x22	  x6:0xf1430623 x22:0x00000001  x3=0x00000000
        1465000	       145	800001cc	41db06b3	sub	x13,x22,x29	 x22:0x00000001 x29:0x0b766000 x13=0xf489a001
        1475000	       146	800001d0	01919593	slli	x11,x3,0x19	  x3:0x00000000 x11=0x00000000
        1485000	       147	800001d4	182af093	andi	x1,x21,386	 x21:0xfffffffc  x1=0x00000180
        1495000	       148	800001d8	ff500a13	addi	x20,x0,-11	  x0:0x00000000 x20=0xfffffff5
        1505000	       149	800001dc	17be7b93	andi	x23,x28,379	 x28:0x00000000 x23=0x00000000
        1515000	       150	800001e0	38ac2e13	slti	x28,x24,906	 x24:0x772c5427 x28=0x00000000
        1525000	       151	800001e4	b2b88c93	addi	x25,x17,-1237	 x17:0xeed871c0 x25=0xeed86ceb
        1535000	       152	800001e8	405d8633	sub	x12,x27,x5	 x27:0x00000001  x5:0x00000010 x12=0xfffffff1
        1545000	       153	800001ec	01f690b3	sll	x1,x13,x31	 x13:0xf489a001 x31:0x00200001  x1=0xe9134002
        1555000	       154	800001f0	004d2133	slt	x2,x26,x4	 x26:0x0000000b  x4:0x80009884  x2=0x00000000
        1565000	       155	800001f4	00745bb3	srl	x23,x8,x7	  x8:0x772c5427  x7:0x00000001 x23=0x3b962a13
        1575000	       156	800001f8	e03b8537	lui	x10,0xe03b8	 x10=0xe03b8000
        1585000	       157	800001fc	ff9a8a93	addi	x21,x21,-7	 x21:0xfffffffc x21=0xfffffff5
        1595000	       158	80000200	41175833	sra	x16,x14,x17	 x14:0x80009fc4 x17:0xeed871c0 x16=0x80009fc4
        1605000	       159	80000204	210cf293	andi	x5,x25,528	 x25:0xeed86ceb  x5=0x00000000
        1615000	       160	80000208	00689293	slli	x5,x17,0x6	 x17:0xeed871c0  x5=0xb61c7000
        1625000	       161	8000020c	ff4a82e3	beq	x21,x20,800001f0	 x21:0xfffffff5 x20:0xfffffff5
        1635000	       162	00000000	00000013	addi	x0,x0,0	  x0:0x00000000
        1645000	       163	800001ec	00000013	addi	x0,x0,0	  x0:0x00000000
        1655000	       164	800001f0	004d2133	slt	x2,x26,x4	 x26:0x0000000b  x4:0x80009884  x2=0x00000000
        1665000	       165	800001f4	00745bb3	srl	x23,x8,x7	  x8:0x772c5427  x7:0x00000001 x23=0x3b962a13
        1675000	       166	800001f8	e03b8537	lui	x10,0xe03b8	 x10=0xe03b8000
        1685000	       167	800001fc	ff9a8a93	addi	x21,x21,-7	 x21:0xfffffff5 x21=0xffffffee
        1695000	       168	80000200	41175833	sra	x16,x14,x17	 x14:0x80009fc4 x17:0xeed871c0 x16=0x80009fc4
        1705000	       169	80000204	210cf293	andi	x5,x25,528	 x25:0xeed86ceb  x5=0x00000000
        1715000	       170	80000208	00689293	slli	x5,x17,0x6	 x17:0xeed871c0  x5=0xb61c7000
        1725000	       171	8000020c	ff4a82e3	beq	x21,x20,800001f0	 x21:0xffffffee x20:0xfffffff5
        1735000	       172	80000210	01fbe033	or	x0,x23,x31	 x23:0x3b962a13 x31:0x00200001
        1745000	       173	80000214	033c4463	blt	x24,x19,8000023c	 x24:0x772c5427 x19:0xfa325586
        1755000	       174	80000218	01ec76b3	and	x13,x24,x30	 x24:0x772c5427 x30:0x80009f84 x13=0x00001404
        1765000	       175	8000021c	40205333	sra	x6,x0,x2	  x0:0x00000000  x2:0x00000000  x6=0x00000000
        1775000	       176	80000220	416d8133	sub	x2,x27,x22	 x27:0x00000001 x22:0x00000001  x2=0x00000000
        1785000	       177	80000224	01e66ab3	or	x21,x12,x30	 x12:0xfffffff1 x30:0x80009f84 x21=0xfffffff5
        1795000	       178	80000228	40a3d633	sra	x12,x7,x10	  x7:0x00000001 x10:0xe03b8000 x12=0x00000001
        1805000	       179	8000022c	005413b3	sll	x7,x8,x5	  x8:0x772c5427  x5:0xb61c7000  x7=0x772c5427
        1815000	       180	80000230	7a088293	addi	x5,x17,1952	 x17:0xeed871c0  x5=0xeed87960
        1825000	       181	80000234	03736463	bltu	x6,x23,8000025c	  x6:0x00000000 x23:0x3b962a13
        1835000	       182	00000000	00000013	addi	x0,x0,0	  x0:0x00000000
        1845000	       183	80000258	00000013	addi	x0,x0,0	  x0:0x00000000
        1855000	       184	8000025c	418dd293	srai	x5,x27,0x18	 x27:0x00000001  x5=0x00000000
        1865000	       185	80000260	00cd3db3	sltu	x27,x26,x12	 x26:0x0000000b x12:0x00000001 x27=0x00000000
        1875000	       186	80000264	08068a63	beq	x13,x0,800002f8	 x13:0x00001404  x0:0x00000000
        1885000	       187	80000268	86766a93	ori	x21,x12,-1945	 x12:0x00000001 x21=0xfffff867
        1895000	       188	8000026c	08b8e863	bltu	x17,x11,800002fc	 x17:0xeed871c0 x11:0x00000000
        1905000	       189	80000270	40c7d693	srai	x13,x15,0xc	 x15:0x00000008 x13=0x00000000
        1915000	       190	80000274	b0a7b913	sltiu	x18,x15,-1270	 x15:0x00000008 x18=0x00000001
        1925000	       191	80000278	41038e33	sub	x28,x7,x16	  x7:0x772c5427 x16:0x80009fc4 x28=0xf72bb463
        1935000	       192	8000027c	00600e93	addi	x29,x0,6	  x0:0x00000000 x29=0x00000006
        1945000	       193	80000280	01ed58b3	srl	x17,x26,x30	 x26:0x0000000b x30:0x80009f84 x17=0x00000000
        1955000	       194	80000284	af2a0093	addi	x1,x20,-1294	 x20:0xfffffff5  x1=0xfffffae7
        1965000	       195	80000288	016868b3	or	x17,x16,x22	 x16:0x80009fc4 x22:0x00000001 x17=0x80009fc5
        1975000	       196	8000028c	00589d93	slli	x27,x17,0x5	 x17:0x80009fc5 x27=0x0013f8a0
        1985000	       197	80000290	4595a413	slti	x8,x11,1113	 x11:0x00000000  x8=0x00000001
        1995000	       198	80000294	17940593	addi	x11,x8,377	  x8:0x00000001 x11=0x0000017a
        2005000	       199	80000298	00ca1e13	slli	x28,x20,0xc	 x20:0xfffffff5 x28=0xffff5000
        2015000	       200	8000029c	000dcb33	xor	x22,x27,x0	 x27:0x0013f8a0  x0:0x00000000 x22=0x0013f8a0
        2025000	       201	800002a0	54fd2293	slti	x5,x26,1359	 x26:0x0000000b  x5=0x00000001
        2035000	       202	800002a4	00000013	addi	x0,x0,0	  x0:0x00000000
        2045000	       203	800002a8	ff500693	addi	x13,x0,-11	  x0:0x00000000 x13=0xfffffff5
        2055000	       204	800002ac	00b72cb3	slt	x25,x14,x11	 x14:0x80009fc4 x11:0x0000017a x25=0x00000001
        2065000	       205	800002b0	e7253893	sltiu	x17,x10,-398	 x10:0xe03b8000 x17=0x00000001
        2075000	       206	800002b4	41365c13	srai	x24,x12,0x13	 x12:0x00000001 x24=0x00000000
        2085000	       207	800002b8	01bb1013	slli	x0,x22,0x1b	 x22:0x0013f8a0
        2095000	       208	800002bc	ff9e8e93	addi	x29,x29,-7	 x29:0x00000006 x29=0xffffffff
        2105000	       209	800002c0	40785193	srai	x3,x16,0x7	 x16:0x80009fc4  x3=0xff00013f
        2115000	       210	800002c4	8a92a093	slti	x1,x5,-1879	  x5:0x00000001  x1=0x00000000
        2125000	       211	800002c8	79b5b093	sltiu	x1,x11,1947	 x11:0x0000017a  x1=0x00000001
        2135000	       212	800002cc	0158dab3	srl	x21,x17,x21	 x17:0x00000001 x21:0xfffff867 x21=0x00000000
        2145000	       213	800002d0	feded0e3	bge	x29,x13,800002b0	 x29:0xffffffff x13:0xfffffff5
        2155000	       214	00000000	00000013	addi	x0,x0,0	  x0:0x00000000
        2165000	       215	800002ac	00000013	addi	x0,x0,0	  x0:0x00000000
        2175000	       216	800002b0	e7253893	sltiu	x17,x10,-398	 x10:0xe03b8000 x17=0x00000001
        2185000	       217	800002b4	41365c13	srai	x24,x12,0x13	 x12:0x00000001 x24=0x00000000
        2195000	       218	800002b8	01bb1013	slli	x0,x22,0x1b	 x22:0x0013f8a0
        2205000	       219	800002bc	ff9e8e93	addi	x29,x29,-7	 x29:0xffffffff x29=0xfffffff8
        2215000	       220	800002c0	40785193	srai	x3,x16,0x7	 x16:0x80009fc4  x3=0xff00013f
        2225000	       221	800002c4	8a92a093	slti	x1,x5,-1879	  x5:0x00000001  x1=0x00000000
        2235000	       222	800002c8	79b5b093	sltiu	x1,x11,1947	 x11:0x0000017a  x1=0x00000001
        2245000	       223	800002cc	0158dab3	srl	x21,x17,x21	 x17:0x00000001 x21:0x00000000 x21=0x00000001
        2255000	       224	800002d0	feded0e3	bge	x29,x13,800002b0	 x29:0xfffffff8 x13:0xfffffff5
        2265000	       225	00000000	00000013	addi	x0,x0,0	  x0:0x00000000
        2275000	       226	800002ac	00000013	addi	x0,x0,0	  x0:0x00000000
        2285000	       227	800002b0	e7253893	sltiu	x17,x10,-398	 x10:0xe03b8000 x17=0x00000001
        2295000	       228	800002b4	41365c13	srai	x24,x12,0x13	 x12:0x00000001 x24=0x00000000
        2305000	       229	800002b8	01bb1013	slli	x0,x22,0x1b	 x22:0x0013f8a0
        2315000	       230	800002bc	ff9e8e93	addi	x29,x29,-7	 x29:0xfffffff8 x29=0xfffffff1
        2325000	       231	800002c0	40785193	srai	x3,x16,0x7	 x16:0x80009fc4  x3=0xff00013f
        2335000	       232	800002c4	8a92a093	slti	x1,x5,-1879	  x5:0x00000001  x1=0x00000000
        2345000	       233	800002c8	79b5b093	sltiu	x1,x11,1947	 x11:0x0000017a  x1=0x00000001
        2355000	       234	800002cc	0158dab3	srl	x21,x17,x21	 x17:0x00000001 x21:0x00000001 x21=0x00000000
        2365000	       235	800002d0	feded0e3	bge	x29,x13,800002b0	 x29:0xfffffff1 x13:0xfffffff5
        2375000	       236	800002d4	014767b3	or	x15,x14,x20	 x14:0x80009fc4 x20:0xfffffff5 x15=0xfffffff5
        2385000	       237	800002d8	007ba833	slt	x16,x23,x7	 x23:0x3b962a13  x7:0x772c5427 x16=0x00000001
        2395000	       238	800002dc	02130663	beq	x6,x1,80000308	  x6:0x00000000  x1:0x00000001
        2405000	       239	800002e0	9abd8797	auipc	x15,0x9abd8	 x15=0x1abd82dc
        2415000	       240	800002e4	191a6297	auipc	x5,0x191a6	  x5=0x991a62e0
        2425000	       241	800002e8	00327e63	bgeu	x4,x3,80000304	  x4:0x80009884  x3:0xff00013f
        2435000	       242	800002ec	01f20933	add	x18,x4,x31	  x4:0x80009884 x31:0x00200001 x18=0x80209885
        2445000	       243	800002f0	017c3ab3	sltu	x21,x24,x23	 x24:0x00000000 x23:0x3b962a13 x21=0x00000001
        2455000	       244	800002f4	4eb3b513	sltiu	x10,x7,1259	  x7:0x772c5427 x10=0x00000000
        2465000	       245	800002f8	009ec1b3	xor	x3,x29,x9	 x29:0xfffffff1  x9:0x00000016  x3=0xffffffe7
        2475000	       246	800002fc	016423b3	slt	x7,x8,x22	  x8:0x00000001 x22:0x0013f8a0  x7=0x00000001
        2485000	       247	80000300	01c15893	srli	x17,x2,0x1c	  x2:0x00000000 x17=0x00000000
        2495000	       248	80000304	03a0ea63	bltu	x1,x26,80000338	  x1:0x00000001 x26:0x0000000b
        2505000	       249	00000000	00000013	addi	x0,x0,0	  x0:0x00000000
        2515000	       250	80000334	00000013	addi	x0,x0,0	  x0:0x00000000
        2525000	       251	80000338	037f9063	bne	x31,x23,80000358	 x31:0x00200001 x23:0x3b962a13
        2535000	       252	00000000	00000013	addi	x0,x0,0	  x0:0x00000000
        2545000	       253	80000354	00000013	addi	x0,x0,0	  x0:0x00000000
        2555000	       254	80000358	40d0dc93	srai	x25,x1,0xd	  x1:0x00000001 x25=0x00000000
        2565000	       255	8000035c	05c64663	blt	x12,x28,800003a8	 x12:0x00000001 x28:0xffff5000
        2575000	       256	80000360	016a9c13	slli	x24,x21,0x16	 x21:0x00000001 x24=0x00400000
        2585000	       257	80000364	401385b3	sub	x11,x7,x1	  x7:0x00000001  x1:0x00000001 x11=0x00000000
        2595000	       258	80000368	ded76c93	ori	x25,x14,-531	 x14:0x80009fc4 x25=0xffffffed
        2605000	       259	8000036c	40d38b33	sub	x22,x7,x13	  x7:0x00000001 x13:0xfffffff5 x22=0x0000000c
        2615000	       260	80000370	dae93b93	sltiu	x23,x18,-594	 x18:0x80209885 x23=0x00000001
        2625000	       261	80000374	620171b7	lui	x3,0x62017	  x3=0x62017000
        2635000	       262	80000378	05d81463	bne	x16,x29,800003c0	 x16:0x00000001 x29:0xfffffff1
        2645000	       263	00000000	00000013	addi	x0,x0,0	  x0:0x00000000
        2655000	       264	800003bc	00000013	addi	x0,x0,0	  x0:0x00000000
        2665000	       265	800003c0	02090463	beq	x18,x0,800003e8	 x18:0x80209885  x0:0x00000000
        2675000	       266	800003c4	008e2233	slt	x4,x28,x8	 x28:0xffff5000  x8:0x00000001  x4=0x00000001
        2685000	       267	800003c8	00191cb3	sll	x25,x18,x1	 x18:0x80209885  x1:0x00000001 x25=0x0041310a
        2695000	       268	800003cc	048c7863	bgeu	x24,x8,8000041c	 x24:0x00400000  x8:0x00000001
        2705000	       269	00000000	00000013	addi	x0,x0,0	  x0:0x00000000
        2715000	       270	80000418	00000013	addi	x0,x0,0	  x0:0x00000000
        2725000	       271	8000041c	01bdc5b3	xor	x11,x27,x27	 x27:0x0013f8a0 x27:0x0013f8a0 x11=0x00000000
        2735000	       272	80000420	01ebdf93	srli	x31,x23,0x1e	 x23:0x00000001 x31=0x00000000
        2745000	       273	80000424	014da7b3	slt	x15,x27,x20	 x27:0x0013f8a0 x20:0xfffffff5 x15=0x00000000
        2755000	       274	80000428	047a1263	bne	x20,x7,8000046c	 x20:0xfffffff5  x7:0x00000001
        2765000	       275	00000000	00000013	addi	x0,x0,0	  x0:0x00000000
        2775000	       276	80000468	00000013	addi	x0,x0,0	  x0:0x00000000
        2785000	       277	8000046c	016c5a13	srli	x20,x24,0x16	 x24:0x00400000 x20=0x00000001
        2795000	       278	80000470	40ce0533	sub	x10,x28,x12	 x28:0xffff5000 x12:0x00000001 x10=0xffff4fff
        2805000	       279	80000474	03abde63	bge	x23,x26,800004b0	 x23:0x00000001 x26:0x0000000b
        2815000	       280	80000478	5bcc3913	sltiu	x18,x24,1468	 x24:0x00400000 x18=0x00000000
        2825000	       281	8000047c	0153d6b3	srl	x13,x7,x21	  x7:0x00000001 x21:0x00000001 x13=0x00000000
        2835000	       282	80000480	4d64b493	sltiu	x9,x9,1238	  x9:0x00000016  x9=0x00000001
        2845000	       283	80000484	015102b3	add	x5,x2,x21	  x2:0x00000000 x21:0x00000001  x5=0x00000001
        2855000	       284	80000488	00c408b3	add	x17,x8,x12	  x8:0x00000001 x12:0x00000001 x17=0x00000002
        2865000	       285	8000048c	1a525217	auipc	x4,0x1a525	  x4=0x9a525488
        2875000	       286	80000490	03ad6e63	bltu	x26,x26,800004cc	 x26:0x0000000b x26:0x0000000b
        2885000	       287	80000494	8e890d93	addi	x27,x18,-1816	 x18:0x00000000 x27=0xfffff8e8
        2895000	       288	80000498	0122d2b3	srl	x5,x5,x18	  x5:0x00000001 x18:0x00000000  x5=0x00000001
        2905000	       289	8000049c	40d55133	sra	x2,x10,x13	 x10:0xffff4fff x13:0x00000000  x2=0xffff4fff
        2915000	       290	800004a0	40cdd993	srai	x19,x27,0xc	 x27:0xfffff8e8 x19=0xffffffff
        2925000	       291	800004a4	014a67b3	or	x15,x20,x20	 x20:0x00000001 x20:0x00000001 x15=0x00000001
        2935000	       292	800004a8	419d03b3	sub	x7,x26,x25	 x26:0x0000000b x25:0x0041310a  x7=0xffbecf01
        2945000	       293	800004ac	8e3eac13	slti	x24,x29,-1821	 x29:0xfffffff1 x24=0x00000000
        2955000	       294	800004b0	40065c13	srai	x24,x12,0x0	 x12:0x00000001 x24=0x00000001
        2965000	       295	800004b4	02374463	blt	x14,x3,800004dc	 x14:0x80009fc4  x3:0x62017000
        2975000	       296	00000000	00000013	addi	x0,x0,0	  x0:0x00000000
        2985000	       297	800004d8	00000013	addi	x0,x0,0	  x0:0x00000000
        2995000	       298	800004dc	98030537	lui	x10,0x98030	 x10=0x98030000
        3005000	       299	800004e0	034b0a63	beq	x22,x20,80000514	 x22:0x0000000c x20:0x00000001
        3015000	       300	800004e4	4003d233	sra	x4,x7,x0	  x7:0xffbecf01  x0:0x00000000  x4=0xffbecf01
        3025000	       301	800004e8	4a18f793	andi	x15,x17,1185	 x17:0x00000002 x15=0x00000000
        3035000	       302	800004ec	015b6fb3	or	x31,x22,x21	 x22:0x0000000c x21:0x00000001 x31=0x0000000d
        3045000	       303	800004f0	417e8533	sub	x10,x29,x23	 x29:0xfffffff1 x23:0x00000001 x10=0xfffffff0
        3055000	       304	800004f4	002b9293	slli	x5,x23,0x2	 x23:0x00000001  x5=0x00000004
        3065000	       305	800004f8	002d8e33	add	x28,x27,x2	 x27:0xfffff8e8  x2:0xffff4fff x28=0xffff48e7
        3075000	       306	800004fc	c3ff2a93	slti	x21,x30,-961	 x30:0x80009f84 x21=0x00000001
        3085000	       307	80000500	41ff5233	sra	x4,x30,x31	 x30:0x80009f84 x31:0x0000000d  x4=0xfffc0004
        3095000	       308	80000504	a8d9f813	andi	x16,x19,-1395	 x19:0xffffffff x16=0xfffffa8d
        3105000	       309	80000508	09c07e93	andi	x29,x0,156	  x0:0x00000000 x29=0x00000000
        3115000	       310	8000050c	05806263	bltu	x0,x24,80000550	  x0:0x00000000 x24:0x00000001
        3125000	       311	00000000	00000013	addi	x0,x0,0	  x0:0x00000000
        3135000	       312	8000054c	00000013	addi	x0,x0,0	  x0:0x00000000
        3145000	       313	80000550	d489b093	sltiu	x1,x19,-696	 x19:0xffffffff  x1=0x00000000
        3155000	       314	80000554	07ac5a63	bge	x24,x26,800005c8	 x24:0x00000001 x26:0x0000000b
        3165000	       315	80000558	d3428813	addi	x16,x5,-716	  x5:0x00000004 x16=0xfffffd38
        3175000	       316	8000055c	693d0637	lui	x12,0x693d0	 x12=0x693d0000
        3185000	       317	80000560	04126863	bltu	x4,x1,800005b0	  x4:0xfffc0004  x1:0x00000000
        3195000	       318	80000564	01db5133	srl	x2,x22,x29	 x22:0x0000000c x29:0x00000000  x2=0x0000000c
        3205000	       319	80000568	41830db3	sub	x27,x6,x24	  x6:0x00000000 x24:0x00000001 x27=0xffffffff
        3215000	       320	8000056c	d00cce13	xori	x28,x25,-768	 x25:0x0041310a x28=0xffbecc0a
        3225000	       321	80000570	05e34463	blt	x6,x30,800005b8	  x6:0x00000000 x30:0x80009f84
        3235000	       322	80000574	ff8c24b7	lui	x9,0xff8c2	  x9=0xff8c2000
        3245000	       323	80000578	00000e17	auipc	x28,0x0	 x28=0x80000574
        3255000	       324	8000057c	5ace0e13	addi	x28,x28,1452	 x28:0x80000574 x28=0x80000b20
        3265000	       325	80000580	29cb2c17	auipc	x24,0x29cb2	 x24=0xa9cb257c
        3275000	       326	80000584	0feef097	auipc	x1,0xfeef	  x1=0x8feef580
        3285000	       327	80000588	172e0e13	addi	x28,x28,370	 x28:0x80000b20 x28=0x80000c92
        3295000	       328	8000058c	41bc5793	srai	x15,x24,0x1b	 x24:0xa9cb257c x15=0xfffffff5
        3305000	       329	80000590	419286b3	sub	x13,x5,x25	  x5:0x00000004 x25:0x0041310a x13=0xffbecefa
        3315000	       330	80000594	c7c616b7	lui	x13,0xc7c61	 x13=0xc7c61000
        3325000	       331	80000598	a6dec817	auipc	x16,0xa6dec	 x16=0x26dec594
        3335000	       332	8000059c	00b97b33	and	x22,x18,x11	 x18:0x00000000 x11:0x00000000 x22=0x00000000
        3345000	       333	800005a0	7146a113	slti	x2,x13,1812	 x13:0xc7c61000  x2=0x00000001
        3355000	       334	800005a4	0069d8b3	srl	x17,x19,x6	 x19:0xffffffff  x6:0x00000000 x17=0xffffffff
        3365000	       335	800005a8	e8fe05e7	jalr	x11,x28,-369	 x28:0x80000c92 x11=0x800005a8
        3375000	       336	00000000	00000013	addi	x0,x0,0	  x0:0x00000000
        3385000	       337	80000b20	00000013	addi	x0,x0,0	  x0:0x00000000
        3395000	       338	80000b24	383fc013	xori	x0,x31,899	 x31:0x0000000d
        3405000	       339	80000b28	8cd18213	addi	x4,x3,-1843	  x3:0x62017000  x4=0x620168cd
        3415000	       340	80000b2c	410caa93	slti	x21,x25,1040	 x25:0x0041310a x21=0x00000000
        3425000	       341	80000b30	15106037	lui	x0,0x15106	
        3435000	       342	80000b34	0071f463	bgeu	x3,x7,80000b3c	  x3:0x62017000  x7:0xffbecf01
        3445000	       343	80000b38	40cdcb13	xori	x22,x27,1036	 x27:0xffffffff x22=0xfffffbf3
        3455000	       344	80000b3c	ff4f0f13	addi	x30,x30,-12	 x30:0x80009f84 x30=0x80009f78
        3465000	       345	80000b40	010cda13	srli	x20,x25,0x10	 x25:0x0041310a x20=0x00000041
        3475000	       346	80000b44	00bf2223	sw	x11,4(x30)	 x30:0x80009f78 x11:0x800005a8 PA:0x80009f7c
        3485000	       347	80000b48	64be0413	addi	x8,x28,1611	 x28:0x80000c92  x8=0x800012dd
        3495000	       348	80000b4c	c5d4f193	andi	x3,x9,-931	  x9:0xff8c2000  x3=0xff8c2000
        3505000	       349	80000b50	00000e17	auipc	x28,0x0	 x28=0x80000b4c
        3515000	       350	80000b54	b08e0e13	addi	x28,x28,-1272	 x28:0x80000b4c x28=0x80000654
        3525000	       351	80000b58	403f8fb3	sub	x31,x31,x3	 x31:0x0000000d  x3:0xff8c2000 x31=0x0073e00d
        3535000	       352	80000b5c	00d1cfb3	xor	x31,x3,x13	  x3:0xff8c2000 x13:0xc7c61000 x31=0x384a3000
        3545000	       353	80000b60	125e0e13	addi	x28,x28,293	 x28:0x80000654 x28=0x80000779
        3555000	       354	80000b64	016ed833	srl	x16,x29,x22	 x29:0x00000000 x22:0xfffffbf3 x16=0x00000000
        3565000	       355	80000b68	016564b3	or	x9,x10,x22	 x10:0xfffffff0 x22:0xfffffbf3  x9=0xfffffff3
        3575000	       356	80000b6c	00dfc4b3	xor	x9,x31,x13	 x31:0x384a3000 x13:0xc7c61000  x9=0xff8c2000
        3585000	       357	80000b70	86242c13	slti	x24,x8,-1950	  x8:0x800012dd x24=0x00000001
        3595000	       358	80000b74	edce05e7	jalr	x11,x28,-292	 x28:0x80000779 x11=0x80000b74
        3605000	       359	00000000	00000013	addi	x0,x0,0	  x0:0x00000000
        3615000	       360	80000654	00000013	addi	x0,x0,0	  x0:0x00000000
        3625000	       361	80000658	fe8f0f13	addi	x30,x30,-24	 x30:0x80009f78 x30=0x80009f60
        3635000	       362	8000065c	00bf2223	sw	x11,4(x30)	 x30:0x80009f60 x11:0x80000b74 PA:0x80009f64
        3645000	       363	80000660	409b5993	srai	x19,x22,0x9	 x22:0xfffffbf3 x19=0xfffffffd
        3655000	       364	80000664	00000013	addi	x0,x0,0	  x0:0x00000000
        3665000	       365	80000668	40345493	srai	x9,x8,0x3	  x8:0x800012dd  x9=0xf000025b
        3675000	       366	8000066c	00001917	auipc	x18,0x1	 x18=0x80001668
        3685000	       367	80000670	37490913	addi	x18,x18,884	 x18:0x80001668 x18=0x800019dc
        3695000	       368	80000674	00000013	addi	x0,x0,0	  x0:0x00000000
        3705000	       369	80000678	00000013	addi	x0,x0,0	  x0:0x00000000
        3715000	       370	8000067c	014ca2b3	slt	x5,x25,x20	 x25:0x0041310a x20:0x00000041  x5=0x00000000
        3725000	       371	80000680	a5ff2c17	auipc	x24,0xa5ff2	 x24=0x25ff267c
        3735000	       372	80000684	0096f0b3	and	x1,x13,x9	 x13:0xc7c61000  x9:0xf000025b  x1=0xc0000000
        3745000	       373	80000688	f8490913	addi	x18,x18,-124	 x18:0x800019dc x18=0x80001960
        3755000	       374	8000068c	400c0033	sub	x0,x24,x0	 x24:0x25ff267c  x0:0x00000000
        3765000	       375	80000690	07c905e7	jalr	x11,x18,124	 x18:0x80001960 x11=0x80000690
        3775000	       376	00000000	00000013	addi	x0,x0,0	  x0:0x00000000
        3785000	       377	800019dc	00000013	addi	x0,x0,0	  x0:0x00000000
        3795000	       378	800019e0	008adc33	srl	x24,x21,x8	 x21:0x00000000  x8:0x800012dd x24=0x00000000
        3805000	       379	800019e4	ff0f0f13	addi	x30,x30,-16	 x30:0x80009f60 x30=0x80009f50
        3815000	       380	800019e8	0017b933	sltu	x18,x15,x1	 x15:0xfffffff5  x1:0xc0000000 x18=0x00000000
        3825000	       381	800019ec	f964b493	sltiu	x9,x9,-106	  x9:0xf000025b  x9=0x00000001
        3835000	       382	800019f0	2296f113	andi	x2,x13,553	 x13:0xc7c61000  x2=0x00000000
        3845000	       383	800019f4	00137c33	and	x24,x6,x1	  x6:0x00000000  x1:0xc0000000 x24=0x00000000
        3855000	       384	800019f8	f13c2d93	slti	x27,x24,-237	 x24:0x00000000 x27=0x00000000
        3865000	       385	800019fc	01db2633	slt	x12,x22,x29	 x22:0xfffffbf3 x29:0x00000000 x12=0x00000001
        3875000	       386	80001a00	0770b493	sltiu	x9,x1,119	  x1:0xc0000000  x9=0x00000000
        3885000	       387	80001a04	00bf2223	sw	x11,4(x30)	 x30:0x80009f50 x11:0x80000690 PA:0x80009f54
        3895000	       388	80001a08	01d0a7b3	slt	x15,x1,x29	  x1:0xc0000000 x29:0x00000000 x15=0x00000001
        3905000	       389	80001a0c	9e2b8313	addi	x6,x23,-1566	 x23:0x00000001  x6=0xfffff9e3
        3915000	       390	80001a10	01edcc63	blt	x27,x30,80001a28	 x27:0x00000000 x30:0x80009f50
        3925000	       391	80001a14	00979db3	sll	x27,x15,x9	 x15:0x00000001  x9:0x00000000 x27=0x00000001
        3935000	       392	80001a18	36100697	auipc	x13,0x36100	 x13=0xb6101a14
        3945000	       393	80001a1c	5c623617	auipc	x12,0x5c623	 x12=0xdc624a18
        3955000	       394	80001a20	00000013	addi	x0,x0,0	  x0:0x00000000
        3965000	       395	80001a24	41c757b3	sra	x15,x14,x28	 x14:0x80009fc4 x28:0x80000779 x15=0xffffffc0
        3975000	       396	80001a28	9a4ff5ef	jal	x11,80001a28	 x11=0x80001a28
        3985000	       397	00000000	00000013	addi	x0,x0,0	  x0:0x00000000
        3995000	       398	80000bc8	00000013	addi	x0,x0,0	  x0:0x00000000
        4005000	       399	80000bcc	fe4f0f13	addi	x30,x30,-28	 x30:0x80009f50 x30=0x80009f34
        4015000	       400	80000bd0	1af5eeb7	lui	x29,0x1af5e	 x29=0x1af5e000
        4025000	       401	80000bd4	00bf2223	sw	x11,4(x30)	 x30:0x80009f34 x11:0x80001a28 PA:0x80009f38
        4035000	       402	80000bd8	00759633	sll	x12,x11,x7	 x11:0x80001a28  x7:0xffbecf01 x12=0x00003450
        4045000	       403	80000bdc	011174b3	and	x9,x2,x17	  x2:0x00000000 x17:0xffffffff  x9=0x00000000
        4055000	       404	80000be0	013407b3	add	x15,x8,x19	  x8:0x800012dd x19:0xfffffffd x15=0x800012da
        4065000	       405	80000be4	015340b3	xor	x1,x6,x21	  x6:0xfffff9e3 x21:0x00000000  x1=0xfffff9e3
        4075000	       406	80000be8	01b4ebb3	or	x23,x9,x27	  x9:0x00000000 x27:0x00000001 x23=0x00000001
        4085000	       407	80000bec	798e3593	sltiu	x11,x28,1944	 x28:0x80000779 x11=0x00000000
        4095000	       408	80000bf0	9c70e093	ori	x1,x1,-1593	  x1:0xfffff9e3  x1=0xfffff9e7
        4105000	       409	80000bf4	00e556b3	srl	x13,x10,x14	 x10:0xfffffff0 x14:0x80009fc4 x13=0x0fffffff
        4115000	       410	80000bf8	950ca793	slti	x15,x25,-1712	 x25:0x0041310a x15=0x00000000
        4125000	       411	80000bfc	01a25033	srl	x0,x4,x26	  x4:0x620168cd x26:0x0000000b
        4135000	       412	80000c00	a8382937	lui	x18,0xa8382	 x18=0xa8382000
        4145000	       413	80000c04	3b688a13	addi	x20,x17,950	 x17:0xffffffff x20=0x000003b5
        4155000	       414	80000c08	d41ff5ef	jal	x11,80000c08	 x11=0x80000c08
        4165000	       415	00000000	00000013	addi	x0,x0,0	  x0:0x00000000
        4175000	       416	80000944	00000013	addi	x0,x0,0	  x0:0x00000000
        4185000	       417	80000948	018e7463	bgeu	x28,x24,80000950	 x28:0x80000779 x24:0x00000000
        4195000	       418	00000000	00000013	addi	x0,x0,0	  x0:0x00000000
        4205000	       419	8000094c	00000013	addi	x0,x0,0	  x0:0x00000000
        4215000	       420	80000950	fd4f0f13	addi	x30,x30,-44	 x30:0x80009f34 x30=0x80009f08
        4225000	       421	80000954	00bf2223	sw	x11,4(x30)	 x30:0x80009f08 x11:0x80000c08 PA:0x80009f0c
        4235000	       422	80000958	012e7433	and	x8,x28,x18	 x28:0x80000779 x18:0xa8382000  x8=0x80000000
        4245000	       423	8000095c	01fff0b3	and	x1,x31,x31	 x31:0x384a3000 x31:0x384a3000  x1=0x384a3000
        4255000	       424	80000960	00700c13	addi	x24,x0,7	  x0:0x00000000 x24=0x00000007
        4265000	       425	80000964	00669a13	slli	x20,x13,0x6	 x13:0x0fffffff x20=0xffffffc0
        4275000	       426	80000968	37f70693	addi	x13,x14,895	 x14:0x80009fc4 x13=0x8000a343
        4285000	       427	8000096c	9d224593	xori	x11,x4,-1582	  x4:0x620168cd x11=0x9dfe911f
        4295000	       428	80000970	00900413	addi	x8,x0,9	  x0:0x00000000  x8=0x00000009
        4305000	       429	80000974	011b3833	sltu	x16,x22,x17	 x22:0xfffffbf3 x17:0xffffffff x16=0x00000001
        4315000	       430	80000978	00373db3	sltu	x27,x14,x3	 x14:0x80009fc4  x3:0xff8c2000 x27=0x00000001
        4325000	       431	8000097c	00e35f93	srli	x31,x6,0xe	  x6:0xfffff9e3 x31=0x0003ffff
        4335000	       432	80000980	00b741b3	xor	x3,x14,x11	 x14:0x80009fc4 x11:0x9dfe911f  x3=0x1dfe0edb
        4345000	       433	80000984	40a7d1b3	sra	x3,x15,x10	 x15:0x00000000 x10:0xfffffff0  x3=0x00000000
        4355000	       434	80000988	004c0c13	addi	x24,x24,4	 x24:0x00000007 x24=0x0000000b
        4365000	       435	8000098c	00000013	addi	x0,x0,0	  x0:0x00000000
        4375000	       436	80000990	00a6eb33	or	x22,x13,x10	 x13:0x8000a343 x10:0xfffffff0 x22=0xfffffff3
        4385000	       437	80000994	fe8c40e3	blt	x24,x8,80000974	 x24:0x0000000b  x8:0x00000009
        4395000	       438	80000998	41a85213	srai	x4,x16,0x1a	 x16:0x00000001  x4=0x00000000
        4405000	       439	8000099c	01356633	or	x12,x10,x19	 x10:0xfffffff0 x19:0xfffffffd x12=0xfffffffd
        4415000	       440	800009a0	0001d463	bge	x3,x0,800009a8	  x3:0x00000000  x0:0x00000000
        4425000	       441	00000000	00000013	addi	x0,x0,0	  x0:0x00000000
        4435000	       442	800009a4	00000013	addi	x0,x0,0	  x0:0x00000000
        4445000	       443	800009a8	d0853693	sltiu	x13,x10,-760	 x10:0xfffffff0 x13=0x00000000
        4455000	       444	800009ac	40dc0a33	sub	x20,x24,x13	 x24:0x0000000b x13:0x00000000 x20=0x0000000b
        4465000	       445	800009b0	406b5bb3	sra	x23,x22,x6	 x22:0xfffffff3  x6:0xfffff9e3 x23=0xfffffffe
        4475000	       446	800009b4	001c04b3	add	x9,x24,x1	 x24:0x0000000b  x1:0x384a3000  x9=0x384a300b
        4485000	       447	800009b8	00811033	sll	x0,x2,x8	  x2:0x00000000  x8:0x00000009
        4495000	       448	800009bc	01102b33	slt	x22,x0,x17	  x0:0x00000000 x17:0xffffffff x22=0x00000000
        4505000	       449	800009c0	5b22f893	andi	x17,x5,1458	  x5:0x00000000 x17=0x00000000
        4515000	       450	800009c4	0f786193	ori	x3,x16,247	 x16:0x00000001  x3=0x000000f7
        4525000	       451	800009c8	801002b7	lui	x5,0x80100	  x5=0x80100000
        4535000	       452	800009cc	41335333	sra	x6,x6,x19	  x6:0xfffff9e3 x19:0xfffffffd  x6=0xffffffff
        4545000	       453	800009d0	0587d063	bge	x15,x24,80000a10	 x15:0x00000000 x24:0x0000000b
        4555000	       454	800009d4	00000013	addi	x0,x0,0	  x0:0x00000000
        4565000	       455	800009d8	0246d863	bge	x13,x4,80000a08	 x13:0x00000000  x4:0x00000000
        4575000	       456	00000000	00000013	addi	x0,x0,0	  x0:0x00000000
        4585000	       457	80000a04	00000013	addi	x0,x0,0	  x0:0x00000000
        4595000	       458	80000a08	4181d833	sra	x16,x3,x24	  x3:0x000000f7 x24:0x0000000b x16=0x00000000
        4605000	       459	80000a0c	414e5793	srai	x15,x28,0x14	 x28:0x80000779 x15=0xfffff800
        4615000	       460	80000a10	ed41b293	sltiu	x5,x3,-300	  x3:0x000000f7  x5=0x00000001
        4625000	       461	80000a14	feea2697	auipc	x13,0xfeea2	 x13=0x7eea2a10
        4635000	       462	80000a18	0384d463	bge	x9,x24,80000a40	  x9:0x384a300b x24:0x0000000b
        4645000	       463	00000000	00000013	addi	x0,x0,0	  x0:0x00000000
        4655000	       464	80000a3c	00000013	addi	x0,x0,0	  x0:0x00000000
        4665000	       465	80000a40	8c638493	addi	x9,x7,-1850	  x7:0xffbecf01  x9=0xffbec7c7
        4675000	       466	80000a44	058e1863	bne	x28,x24,80000a94	 x28:0x80000779 x24:0x0000000b
        4685000	       467	00000000	00000013	addi	x0,x0,0	  x0:0x00000000
        4695000	       468	80000a90	00000013	addi	x0,x0,0	  x0:0x00000000
        4705000	       469	80000a94	03dbf463	bgeu	x23,x29,80000abc	 x23:0xfffffffe x29:0x1af5e000
        4715000	       470	00000000	00000013	addi	x0,x0,0	  x0:0x00000000
        4725000	       471	80000ab8	00000013	addi	x0,x0,0	  x0:0x00000000
        4735000	       472	80000abc	99185697	auipc	x13,0x99185	 x13=0x19185ab8
        4745000	       473	80000ac0	0198e333	or	x6,x17,x25	 x17:0x00000000 x25:0x0041310a  x6=0x0041310a
        4755000	       474	80000ac4	01f560b3	or	x1,x10,x31	 x10:0xfffffff0 x31:0x0003ffff  x1=0xffffffff
        4765000	       475	80000ac8	004fc033	xor	x0,x31,x4	 x31:0x0003ffff  x4:0x00000000
        4775000	       476	80000acc	9f14cdb7	lui	x27,0x9f14c	 x27=0x9f14c000
        4785000	       477	80000ad0	003a6433	or	x8,x20,x3	 x20:0x0000000b  x3:0x000000f7  x8=0x000000ff
        4795000	       478	80000ad4	017e8833	add	x16,x29,x23	 x29:0x1af5e000 x23:0xfffffffe x16=0x1af5dffe
        4805000	       479	80000ad8	23f5f613	andi	x12,x11,575	 x11:0x9dfe911f x12=0x0000001f
        4815000	       480	80000adc	00479663	bne	x15,x4,80000ae8	 x15:0xfffff800  x4:0x00000000
        4825000	       481	00000000	00000013	addi	x0,x0,0	  x0:0x00000000
        4835000	       482	80000ae4	00000013	addi	x0,x0,0	  x0:0x00000000
        4845000	       483	80000ae8	4c98ec97	auipc	x25,0x4c98e	 x25=0xcc98eae4
        4855000	       484	80000aec	bdbc47b7	lui	x15,0xbdbc4	 x15=0xbdbc4000
        4865000	       485	80000af0	00339333	sll	x6,x7,x3	  x7:0xffbecf01  x3:0x000000f7  x6=0x80800000
        4875000	       486	80000af4	00cdf463	bgeu	x27,x12,80000afc	 x27:0x9f14c000 x12:0x0000001f
        4885000	       487	00000000	00000013	addi	x0,x0,0	  x0:0x00000000
        4895000	       488	80000af8	00000013	addi	x0,x0,0	  x0:0x00000000
        4905000	       489	80000afc	affd3193	sltiu	x3,x26,-1281	 x26:0x0000000b  x3=0x00000001
        4915000	       490	80000b00	01416a33	or	x20,x2,x20	  x2:0x00000000 x20:0x0000000b x20=0x0000000b
        4925000	       491	80000b04	00126633	or	x12,x4,x1	  x4:0x00000000  x1:0xffffffff x12=0xffffffff
        4935000	       492	80000b08	004f2583	lw	x11,4(x30)	 x30:0x80009f08 x11=0x80000c08 PA:0x80009f0c
        4945000	       493	80000b0c	a918e693	ori	x13,x17,-1391	 x17:0x00000000 x13=0xfffffa91
        4955000	       494	80000b10	02cf0f13	addi	x30,x30,44	 x30:0x80009f08 x30=0x80009f34
        4965000	       495	80000b14	012b6633	or	x12,x22,x18	 x22:0x00000000 x18:0xa8382000 x12=0xa8382000
        4975000	       496	80000b18	414a5e13	srai	x28,x20,0x14	 x20:0x0000000b x28=0x00000000
        4985000	       497	80000b1c	00158313	addi	x6,x11,1	 x11:0x80000c08  x6=0x80000c09
        4995000	       498	80000b20	00030367	jalr	x6,x6,0	  x6:0x80000c09  x6=0x80000b20
        5005000	       499	00000000	00000013	addi	x0,x0,0	  x0:0x00000000
        5015000	       500	80000c08	00000013	addi	x0,x0,0	  x0:0x00000000
        5025000	       501	80000c0c	00100593	addi	x11,x0,1	  x0:0x00000000 x11=0x00000001
        5035000	       502	80000c10	01000413	addi	x8,x0,16	  x0:0x00000000  x8=0x00000010
        5045000	       503	80000c14	41e38333	sub	x6,x7,x30	  x7:0xffbecf01 x30:0x80009f34  x6=0x7fbe2fcd
        5055000	       504	80000c18	41490cb3	sub	x25,x18,x20	 x18:0xa8382000 x20:0x0000000b x25=0xa8381ff5
        5065000	       505	80000c1c	01380eb3	add	x29,x16,x19	 x16:0x1af5dffe x19:0xfffffffd x29=0x1af5dffb
        5075000	       506	80000c20	00000013	addi	x0,x0,0	  x0:0x00000000
        5085000	       507	80000c24	00858593	addi	x11,x11,8	 x11:0x00000001 x11=0x00000009
        5095000	       508	80000c28	00d3d313	srli	x6,x7,0xd	  x7:0xffbecf01  x6=0x0007fdf6
        5105000	       509	80000c2c	00400e13	addi	x28,x0,4	  x0:0x00000000 x28=0x00000004
        5115000	       510	80000c30	005bc4b3	xor	x9,x23,x5	 x23:0xfffffffe  x5:0x00000001  x9=0xffffffff
        5125000	       511	80000c34	00300b13	addi	x22,x0,3	  x0:0x00000000 x22=0x00000003
        5135000	       512	80000c38	01cb7fb3	and	x31,x22,x28	 x22:0x00000003 x28:0x00000004 x31=0x00000000
        5145000	       513	80000c3c	01824833	xor	x16,x4,x24	  x4:0x00000000 x24:0x0000000b x16=0x0000000b
        5155000	       514	80000c40	40195bb3	sra	x23,x18,x1	 x18:0xa8382000  x1:0xffffffff x23=0xffffffff
        5165000	       515	80000c44	ffee0e13	addi	x28,x28,-2	 x28:0x00000004 x28=0x00000002
        5175000	       516	80000c48	8af6a013	slti	x0,x13,-1873	 x13:0xfffffa91
        5185000	       517	80000c4c	ff6e76e3	bgeu	x28,x22,80000c38	 x28:0x00000002 x22:0x00000003
        5195000	       518	80000c50	3bc6b793	sltiu	x15,x13,956	 x13:0xfffffa91 x15=0x00000000
        5205000	       519	80000c54	fc85c2e3	blt	x11,x8,80000c18	 x11:0x00000009  x8:0x00000010
        5215000	       520	00000000	00000013	addi	x0,x0,0	  x0:0x00000000
        5225000	       521	80000c14	00000013	addi	x0,x0,0	  x0:0x00000000
        5235000	       522	80000c18	41490cb3	sub	x25,x18,x20	 x18:0xa8382000 x20:0x0000000b x25=0xa8381ff5
        5245000	       523	80000c1c	01380eb3	add	x29,x16,x19	 x16:0x0000000b x19:0xfffffffd x29=0x00000008
        5255000	       524	80000c20	00000013	addi	x0,x0,0	  x0:0x00000000
        5265000	       525	80000c24	00858593	addi	x11,x11,8	 x11:0x00000009 x11=0x00000011
        5275000	       526	80000c28	00d3d313	srli	x6,x7,0xd	  x7:0xffbecf01  x6=0x0007fdf6
        5285000	       527	80000c2c	00400e13	addi	x28,x0,4	  x0:0x00000000 x28=0x00000004
        5295000	       528	80000c30	005bc4b3	xor	x9,x23,x5	 x23:0xffffffff  x5:0x00000001  x9=0xfffffffe
        5305000	       529	80000c34	00300b13	addi	x22,x0,3	  x0:0x00000000 x22=0x00000003
        5315000	       530	80000c38	01cb7fb3	and	x31,x22,x28	 x22:0x00000003 x28:0x00000004 x31=0x00000000
        5325000	       531	80000c3c	01824833	xor	x16,x4,x24	  x4:0x00000000 x24:0x0000000b x16=0x0000000b
        5335000	       532	80000c40	40195bb3	sra	x23,x18,x1	 x18:0xa8382000  x1:0xffffffff x23=0xffffffff
        5345000	       533	80000c44	ffee0e13	addi	x28,x28,-2	 x28:0x00000004 x28=0x00000002
        5355000	       534	80000c48	8af6a013	slti	x0,x13,-1873	 x13:0xfffffa91
        5365000	       535	80000c4c	ff6e76e3	bgeu	x28,x22,80000c38	 x28:0x00000002 x22:0x00000003
        5375000	       536	80000c50	3bc6b793	sltiu	x15,x13,956	 x13:0xfffffa91 x15=0x00000000
        5385000	       537	80000c54	fc85c2e3	blt	x11,x8,80000c18	 x11:0x00000011  x8:0x00000010
        5395000	       538	80000c58	0039a4b3	slt	x9,x19,x3	 x19:0xfffffffd  x3:0x00000001  x9=0x00000001
        5405000	       539	80000c5c	00a00413	addi	x8,x0,10	  x0:0x00000000  x8=0x0000000a
        5415000	       540	80000c60	39bcbc37	lui	x24,0x39bcb	 x24=0x39bcb000
        5425000	       541	80000c64	00b00593	addi	x11,x0,11	  x0:0x00000000 x11=0x0000000b
        5435000	       542	80000c68	ec5feb93	ori	x23,x31,-315	 x31:0x00000000 x23=0xfffffec5
        5445000	       543	80000c6c	0184c0b3	xor	x1,x9,x24	  x9:0x00000001 x24:0x39bcb000  x1=0x39bcb001
        5455000	       544	80000c70	17ed8493	addi	x9,x27,382	 x27:0x9f14c000  x9=0x9f14c17e
        5465000	       545	80000c74	0096d513	srli	x10,x13,0x9	 x13:0xfffffa91 x10=0x007ffffd
        5475000	       546	80000c78	00940413	addi	x8,x8,9	  x8:0x0000000a  x8=0x00000013
        5485000	       547	80000c7c	000ef333	and	x6,x29,x0	 x29:0x00000008  x0:0x00000000  x6=0x00000000
        5495000	       548	80000c80	005db0b3	sltu	x1,x27,x5	 x27:0x9f14c000  x5:0x00000001  x1=0x00000000
        5505000	       549	80000c84	ffd00e93	addi	x29,x0,-3	  x0:0x00000000 x29=0xfffffffd
        5515000	       550	80000c88	0eb32c13	slti	x24,x6,235	  x6:0x00000000 x24=0x00000001
        5525000	       551	80000c8c	ff100b13	addi	x22,x0,-15	  x0:0x00000000 x22=0xfffffff1
        5535000	       552	80000c90	2c30c213	xori	x4,x1,707	  x1:0x00000000  x4=0x000002c3
        5545000	       553	80000c94	40e00333	sub	x6,x0,x14	  x0:0x00000000 x14:0x80009fc4  x6=0x7fff603c
        5555000	       554	80000c98	ffde8e93	addi	x29,x29,-3	 x29:0xfffffffd x29=0xfffffffa
        5565000	       555	80000c9c	ea8080b7	lui	x1,0xea808	  x1=0xea808000
        5575000	       556	80000ca0	134bee13	ori	x28,x23,308	 x23:0xfffffec5 x28=0xfffffff5
        5585000	       557	80000ca4	ff6e96e3	bne	x29,x22,80000c90	 x29:0xfffffffa x22:0xfffffff1
        5595000	       558	00000000	00000013	addi	x0,x0,0	  x0:0x00000000
        5605000	       559	80000c8c	00000013	addi	x0,x0,0	  x0:0x00000000
        5615000	       560	80000c90	2c30c213	xori	x4,x1,707	  x1:0xea808000  x4=0xea8082c3
        5625000	       561	80000c94	40e00333	sub	x6,x0,x14	  x0:0x00000000 x14:0x80009fc4  x6=0x7fff603c
        5635000	       562	80000c98	ffde8e93	addi	x29,x29,-3	 x29:0xfffffffa x29=0xfffffff7
        5645000	       563	80000c9c	ea8080b7	lui	x1,0xea808	  x1=0xea808000
        5655000	       564	80000ca0	134bee13	ori	x28,x23,308	 x23:0xfffffec5 x28=0xfffffff5
        5665000	       565	80000ca4	ff6e96e3	bne	x29,x22,80000c90	 x29:0xfffffff7 x22:0xfffffff1
        5675000	       566	00000000	00000013	addi	x0,x0,0	  x0:0x00000000
        5685000	       567	80000c8c	00000013	addi	x0,x0,0	  x0:0x00000000
        5695000	       568	80000c90	2c30c213	xori	x4,x1,707	  x1:0xea808000  x4=0xea8082c3
        5705000	       569	80000c94	40e00333	sub	x6,x0,x14	  x0:0x00000000 x14:0x80009fc4  x6=0x7fff603c
        5715000	       570	80000c98	ffde8e93	addi	x29,x29,-3	 x29:0xfffffff7 x29=0xfffffff4
        5725000	       571	80000c9c	ea8080b7	lui	x1,0xea808	  x1=0xea808000
        5735000	       572	80000ca0	134bee13	ori	x28,x23,308	 x23:0xfffffec5 x28=0xfffffff5
        5745000	       573	80000ca4	ff6e96e3	bne	x29,x22,80000c90	 x29:0xfffffff4 x22:0xfffffff1
        5755000	       574	00000000	00000013	addi	x0,x0,0	  x0:0x00000000
        5765000	       575	80000c8c	00000013	addi	x0,x0,0	  x0:0x00000000
        5775000	       576	80000c90	2c30c213	xori	x4,x1,707	  x1:0xea808000  x4=0xea8082c3
        5785000	       577	80000c94	40e00333	sub	x6,x0,x14	  x0:0x00000000 x14:0x80009fc4  x6=0x7fff603c
        5795000	       578	80000c98	ffde8e93	addi	x29,x29,-3	 x29:0xfffffff4 x29=0xfffffff1
        5805000	       579	80000c9c	ea8080b7	lui	x1,0xea808	  x1=0xea808000
        5815000	       580	80000ca0	134bee13	ori	x28,x23,308	 x23:0xfffffec5 x28=0xfffffff5
        5825000	       581	80000ca4	ff6e96e3	bne	x29,x22,80000c90	 x29:0xfffffff1 x22:0xfffffff1
        5835000	       582	80000ca8	fcb442e3	blt	x8,x11,80000c6c	  x8:0x00000013 x11:0x0000000b
        5845000	       583	80000cac	76572213	slti	x4,x14,1893	 x14:0x80009fc4  x4=0x00000001
        5855000	       584	80000cb0	00700813	addi	x16,x0,7	  x0:0x00000000 x16=0x00000007
        5865000	       585	80000cb4	944df693	andi	x13,x27,-1724	 x27:0x9f14c000 x13=0x9f14c000
        5875000	       586	80000cb8	692c59b7	lui	x19,0x692c5	 x19=0x692c5000
        5885000	       587	80000cbc	40a00cb3	sub	x25,x0,x10	  x0:0x00000000 x10:0x007ffffd x25=0xff800003
        5895000	       588	80000cc0	08782893	slti	x17,x16,135	 x16:0x00000007 x17=0x00000001
        5905000	       589	80000cc4	43226537	lui	x10,0x43226	 x10=0x43226000
        5915000	       590	80000cc8	ff000213	addi	x4,x0,-16	  x0:0x00000000  x4=0xfffffff0
        5925000	       591	80000ccc	01ed9033	sll	x0,x27,x30	 x27:0x9f14c000 x30:0x80009f34
        5935000	       592	80000cd0	010fde33	srl	x28,x31,x16	 x31:0x00000000 x16:0x00000007 x28=0x00000000
        5945000	       593	80000cd4	40ad0e33	sub	x28,x26,x10	 x26:0x0000000b x10:0x43226000 x28=0xbcdda00b
        5955000	       594	80000cd8	ffa80813	addi	x16,x16,-6	 x16:0x00000007 x16=0x00000001
        5965000	       595	80000cdc	403901b3	sub	x3,x18,x3	 x18:0xa8382000  x3:0x00000001  x3=0xa8381fff
        5975000	       596	80000ce0	002fbeb3	sltu	x29,x31,x2	 x31:0x00000000  x2:0x00000000 x29=0x00000000
        5985000	       597	80000ce4	014c9533	sll	x10,x25,x20	 x25:0xff800003 x20:0x0000000b x10=0x00001800
        5995000	       598	80000ce8	013a8fb3	add	x31,x21,x19	 x21:0x00000000 x19:0x692c5000 x31=0x692c5000
        6005000	       599	80000cec	ff900d93	addi	x27,x0,-7	  x0:0x00000000 x27=0xfffffff9
        6015000	       600	80000cf0	018d9a93	slli	x21,x27,0x18	 x27:0xfffffff9 x21=0xf9000000
        6025000	       601	80000cf4	00d7f533	and	x10,x15,x13	 x15:0x00000000 x13:0x9f14c000 x10=0x00000000
        6035000	       602	80000cf8	00500413	addi	x8,x0,5	  x0:0x00000000  x8=0x00000005
        6045000	       603	80000cfc	4167dab3	sra	x21,x15,x22	 x15:0x00000000 x22:0xfffffff1 x21=0x00000000
        6055000	       604	80000d00	40685e93	srai	x29,x16,0x6	 x16:0x00000001 x29=0x00000000
        6065000	       605	80000d04	40e7d693	srai	x13,x15,0xe	 x15:0x00000000 x13=0x00000000
        6075000	       606	80000d08	8283a793	slti	x15,x7,-2008	  x7:0xffbecf01 x15=0x00000001
        6085000	       607	80000d0c	01305ab3	srl	x21,x0,x19	  x0:0x00000000 x19:0x692c5000 x21=0x00000000
        6095000	       608	80000d10	52ecb613	sltiu	x12,x25,1326	 x25:0xff800003 x12=0x00000000
        6105000	       609	80000d14	cc97b593	sltiu	x11,x15,-823	 x15:0x00000001 x11=0x00000001
        6115000	       610	80000d18	003d8d93	addi	x27,x27,3	 x27:0xfffffff9 x27=0xfffffffc
        6125000	       611	80000d1c	ebf8fc13	andi	x24,x17,-321	 x17:0x00000001 x24=0x00000001
        6135000	       612	80000d20	4091d033	sra	x0,x3,x9	  x3:0xa8381fff  x9:0x9f14c17e
        6145000	       613	80000d24	fe8d86e3	beq	x27,x8,80000d10	 x27:0xfffffffc  x8:0x00000005
        6155000	       614	80000d28	00f10b33	add	x22,x2,x15	  x2:0x00000000 x15:0x00000001 x22=0x00000001
        6165000	       615	80000d2c	41860333	sub	x6,x12,x24	 x12:0x00000000 x24:0x00000001  x6=0xffffffff
        6175000	       616	80000d30	fa4852e3	bge	x16,x4,80000cd4	 x16:0x00000001  x4:0xfffffff0
        6185000	       617	00000000	00000013	addi	x0,x0,0	  x0:0x00000000
        6195000	       618	80000cd0	00000013	addi	x0,x0,0	  x0:0x00000000
        6205000	       619	80000cd4	40ad0e33	sub	x28,x26,x10	 x26:0x0000000b x10:0x00000000 x28=0x0000000b
        6215000	       620	80000cd8	ffa80813	addi	x16,x16,-6	 x16:0x00000001 x16=0xfffffffb
        6225000	       621	80000cdc	403901b3	sub	x3,x18,x3	 x18:0xa8382000  x3:0xa8381fff  x3=0x00000001
        6235000	       622	80000ce0	002fbeb3	sltu	x29,x31,x2	 x31:0x692c5000  x2:0x00000000 x29=0x00000000
        6245000	       623	80000ce4	014c9533	sll	x10,x25,x20	 x25:0xff800003 x20:0x0000000b x10=0x00001800
        6255000	       624	80000ce8	013a8fb3	add	x31,x21,x19	 x21:0x00000000 x19:0x692c5000 x31=0x692c5000
        6265000	       625	80000cec	ff900d93	addi	x27,x0,-7	  x0:0x00000000 x27=0xfffffff9
        6275000	       626	80000cf0	018d9a93	slli	x21,x27,0x18	 x27:0xfffffff9 x21=0xf9000000
        6285000	       627	80000cf4	00d7f533	and	x10,x15,x13	 x15:0x00000001 x13:0x00000000 x10=0x00000000
        6295000	       628	80000cf8	00500413	addi	x8,x0,5	  x0:0x00000000  x8=0x00000005
        6305000	       629	80000cfc	4167dab3	sra	x21,x15,x22	 x15:0x00000001 x22:0x00000001 x21=0x00000000
        6315000	       630	80000d00	40685e93	srai	x29,x16,0x6	 x16:0xfffffffb x29=0xffffffff
        6325000	       631	80000d04	40e7d693	srai	x13,x15,0xe	 x15:0x00000001 x13=0x00000000
        6335000	       632	80000d08	8283a793	slti	x15,x7,-2008	  x7:0xffbecf01 x15=0x00000001
        6345000	       633	80000d0c	01305ab3	srl	x21,x0,x19	  x0:0x00000000 x19:0x692c5000 x21=0x00000000
        6355000	       634	80000d10	52ecb613	sltiu	x12,x25,1326	 x25:0xff800003 x12=0x00000000
        6365000	       635	80000d14	cc97b593	sltiu	x11,x15,-823	 x15:0x00000001 x11=0x00000001
        6375000	       636	80000d18	003d8d93	addi	x27,x27,3	 x27:0xfffffff9 x27=0xfffffffc
        6385000	       637	80000d1c	ebf8fc13	andi	x24,x17,-321	 x17:0x00000001 x24=0x00000001
        6395000	       638	80000d20	4091d033	sra	x0,x3,x9	  x3:0x00000001  x9:0x9f14c17e
        6405000	       639	80000d24	fe8d86e3	beq	x27,x8,80000d10	 x27:0xfffffffc  x8:0x00000005
        6415000	       640	80000d28	00f10b33	add	x22,x2,x15	  x2:0x00000000 x15:0x00000001 x22=0x00000001
        6425000	       641	80000d2c	41860333	sub	x6,x12,x24	 x12:0x00000000 x24:0x00000001  x6=0xffffffff
        6435000	       642	80000d30	fa4852e3	bge	x16,x4,80000cd4	 x16:0xfffffffb  x4:0xfffffff0
        6445000	       643	00000000	00000013	addi	x0,x0,0	  x0:0x00000000
        6455000	       644	80000cd0	00000013	addi	x0,x0,0	  x0:0x00000000
        6465000	       645	80000cd4	40ad0e33	sub	x28,x26,x10	 x26:0x0000000b x10:0x00000000 x28=0x0000000b
        6475000	       646	80000cd8	ffa80813	addi	x16,x16,-6	 x16:0xfffffffb x16=0xfffffff5
        6485000	       647	80000cdc	403901b3	sub	x3,x18,x3	 x18:0xa8382000  x3:0x00000001  x3=0xa8381fff
        6495000	       648	80000ce0	002fbeb3	sltu	x29,x31,x2	 x31:0x692c5000  x2:0x00000000 x29=0x00000000
        6505000	       649	80000ce4	014c9533	sll	x10,x25,x20	 x25:0xff800003 x20:0x0000000b x10=0x00001800
        6515000	       650	80000ce8	013a8fb3	add	x31,x21,x19	 x21:0x00000000 x19:0x692c5000 x31=0x692c5000
        6525000	       651	80000cec	ff900d93	addi	x27,x0,-7	  x0:0x00000000 x27=0xfffffff9
        6535000	       652	80000cf0	018d9a93	slli	x21,x27,0x18	 x27:0xfffffff9 x21=0xf9000000
        6545000	       653	80000cf4	00d7f533	and	x10,x15,x13	 x15:0x00000001 x13:0x00000000 x10=0x00000000
        6555000	       654	80000cf8	00500413	addi	x8,x0,5	  x0:0x00000000  x8=0x00000005
        6565000	       655	80000cfc	4167dab3	sra	x21,x15,x22	 x15:0x00000001 x22:0x00000001 x21=0x00000000
        6575000	       656	80000d00	40685e93	srai	x29,x16,0x6	 x16:0xfffffff5 x29=0xffffffff
        6585000	       657	80000d04	40e7d693	srai	x13,x15,0xe	 x15:0x00000001 x13=0x00000000
        6595000	       658	80000d08	8283a793	slti	x15,x7,-2008	  x7:0xffbecf01 x15=0x00000001
        6605000	       659	80000d0c	01305ab3	srl	x21,x0,x19	  x0:0x00000000 x19:0x692c5000 x21=0x00000000
        6615000	       660	80000d10	52ecb613	sltiu	x12,x25,1326	 x25:0xff800003 x12=0x00000000
        6625000	       661	80000d14	cc97b593	sltiu	x11,x15,-823	 x15:0x00000001 x11=0x00000001
        6635000	       662	80000d18	003d8d93	addi	x27,x27,3	 x27:0xfffffff9 x27=0xfffffffc
        6645000	       663	80000d1c	ebf8fc13	andi	x24,x17,-321	 x17:0x00000001 x24=0x00000001
        6655000	       664	80000d20	4091d033	sra	x0,x3,x9	  x3:0xa8381fff  x9:0x9f14c17e
        6665000	       665	80000d24	fe8d86e3	beq	x27,x8,80000d10	 x27:0xfffffffc  x8:0x00000005
        6675000	       666	80000d28	00f10b33	add	x22,x2,x15	  x2:0x00000000 x15:0x00000001 x22=0x00000001
        6685000	       667	80000d2c	41860333	sub	x6,x12,x24	 x12:0x00000000 x24:0x00000001  x6=0xffffffff
        6695000	       668	80000d30	fa4852e3	bge	x16,x4,80000cd4	 x16:0xfffffff5  x4:0xfffffff0
        6705000	       669	00000000	00000013	addi	x0,x0,0	  x0:0x00000000
        6715000	       670	80000cd0	00000013	addi	x0,x0,0	  x0:0x00000000
        6725000	       671	80000cd4	40ad0e33	sub	x28,x26,x10	 x26:0x0000000b x10:0x00000000 x28=0x0000000b
        6735000	       672	80000cd8	ffa80813	addi	x16,x16,-6	 x16:0xfffffff5 x16=0xffffffef
        6745000	       673	80000cdc	403901b3	sub	x3,x18,x3	 x18:0xa8382000  x3:0xa8381fff  x3=0x00000001
        6755000	       674	80000ce0	002fbeb3	sltu	x29,x31,x2	 x31:0x692c5000  x2:0x00000000 x29=0x00000000
        6765000	       675	80000ce4	014c9533	sll	x10,x25,x20	 x25:0xff800003 x20:0x0000000b x10=0x00001800
        6775000	       676	80000ce8	013a8fb3	add	x31,x21,x19	 x21:0x00000000 x19:0x692c5000 x31=0x692c5000
        6785000	       677	80000cec	ff900d93	addi	x27,x0,-7	  x0:0x00000000 x27=0xfffffff9
        6795000	       678	80000cf0	018d9a93	slli	x21,x27,0x18	 x27:0xfffffff9 x21=0xf9000000
        6805000	       679	80000cf4	00d7f533	and	x10,x15,x13	 x15:0x00000001 x13:0x00000000 x10=0x00000000
        6815000	       680	80000cf8	00500413	addi	x8,x0,5	  x0:0x00000000  x8=0x00000005
        6825000	       681	80000cfc	4167dab3	sra	x21,x15,x22	 x15:0x00000001 x22:0x00000001 x21=0x00000000
        6835000	       682	80000d00	40685e93	srai	x29,x16,0x6	 x16:0xffffffef x29=0xffffffff
        6845000	       683	80000d04	40e7d693	srai	x13,x15,0xe	 x15:0x00000001 x13=0x00000000
        6855000	       684	80000d08	8283a793	slti	x15,x7,-2008	  x7:0xffbecf01 x15=0x00000001
        6865000	       685	80000d0c	01305ab3	srl	x21,x0,x19	  x0:0x00000000 x19:0x692c5000 x21=0x00000000
        6875000	       686	80000d10	52ecb613	sltiu	x12,x25,1326	 x25:0xff800003 x12=0x00000000
        6885000	       687	80000d14	cc97b593	sltiu	x11,x15,-823	 x15:0x00000001 x11=0x00000001
        6895000	       688	80000d18	003d8d93	addi	x27,x27,3	 x27:0xfffffff9 x27=0xfffffffc
        6905000	       689	80000d1c	ebf8fc13	andi	x24,x17,-321	 x17:0x00000001 x24=0x00000001
        6915000	       690	80000d20	4091d033	sra	x0,x3,x9	  x3:0x00000001  x9:0x9f14c17e
        6925000	       691	80000d24	fe8d86e3	beq	x27,x8,80000d10	 x27:0xfffffffc  x8:0x00000005
        6935000	       692	80000d28	00f10b33	add	x22,x2,x15	  x2:0x00000000 x15:0x00000001 x22=0x00000001
        6945000	       693	80000d2c	41860333	sub	x6,x12,x24	 x12:0x00000000 x24:0x00000001  x6=0xffffffff
        6955000	       694	80000d30	fa4852e3	bge	x16,x4,80000cd4	 x16:0xffffffef  x4:0xfffffff0
        6965000	       695	80000d34	000934b3	sltu	x9,x18,x0	 x18:0xa8382000  x0:0x00000000  x9=0x00000000
        6975000	       696	80000d38	00800813	addi	x16,x0,8	  x0:0x00000000 x16=0x00000008
        6985000	       697	80000d3c	010478b3	and	x17,x8,x16	  x8:0x00000005 x16:0x00000008 x17=0x00000000
        6995000	       698	80000d40	0141f3b3	and	x7,x3,x20	  x3:0x00000001 x20:0x0000000b  x7=0x00000001
        7005000	       699	80000d44	0011f3b3	and	x7,x3,x1	  x3:0x00000001  x1:0xea808000  x7=0x00000000
        7015000	       700	80000d48	01000113	addi	x2,x0,16	  x0:0x00000000  x2=0x00000010
        7025000	       701	80000d4c	00000013	addi	x0,x0,0	  x0:0x00000000
        7035000	       702	80000d50	82b03393	sltiu	x7,x0,-2005	  x0:0x00000000  x7=0x00000001
        7045000	       703	80000d54	0081f7b3	and	x15,x3,x8	  x3:0x00000001  x8:0x00000005 x15=0x00000001
        7055000	       704	80000d58	d9afb413	sltiu	x8,x31,-614	 x31:0x692c5000  x8=0x00000001
        7065000	       705	80000d5c	c004c013	xori	x0,x9,-1024	  x9:0x00000000
        7075000	       706	80000d60	00354333	xor	x6,x10,x3	 x10:0x00000000  x3:0x00000001  x6=0x00000001
        7085000	       707	80000d64	9cbe8913	addi	x18,x29,-1589	 x29:0xffffffff x18=0xfffff9ca
        7095000	       708	80000d68	015214b3	sll	x9,x4,x21	  x4:0xfffffff0 x21:0x00000000  x9=0xfffffff0
        7105000	       709	80000d6c	00480813	addi	x16,x16,4	 x16:0x00000008 x16=0x0000000c
        7115000	       710	80000d70	b55289b7	lui	x19,0xb5528	 x19=0xb5528000
        7125000	       711	80000d74	400fd433	sra	x8,x31,x0	 x31:0x692c5000  x0:0x00000000  x8=0x692c5000
        7135000	       712	80000d78	00b71393	slli	x7,x14,0xb	 x14:0x80009fc4  x7=0x04fe2000
        7145000	       713	80000d7c	40d7d4b3	sra	x9,x15,x13	 x15:0x00000001 x13:0x00000000  x9=0x00000001
        7155000	       714	80000d80	00409293	slli	x5,x1,0x4	  x1:0xea808000  x5=0xa8080000
        7165000	       715	80000d84	0014acb3	slt	x25,x9,x1	  x9:0x00000001  x1:0xea808000 x25=0x00000000
        7175000	       716	80000d88	012267b3	or	x15,x4,x18	  x4:0xfffffff0 x18:0xfffff9ca x15=0xfffffffa
        7185000	       717	80000d8c	fc2816e3	bne	x16,x2,80000d58	 x16:0x0000000c  x2:0x00000010
        7195000	       718	00000000	00000013	addi	x0,x0,0	  x0:0x00000000
        7205000	       719	80000d54	00000013	addi	x0,x0,0	  x0:0x00000000
        7215000	       720	80000d58	d9afb413	sltiu	x8,x31,-614	 x31:0x692c5000  x8=0x00000001
        7225000	       721	80000d5c	c004c013	xori	x0,x9,-1024	  x9:0x00000001
        7235000	       722	80000d60	00354333	xor	x6,x10,x3	 x10:0x00000000  x3:0x00000001  x6=0x00000001
        7245000	       723	80000d64	9cbe8913	addi	x18,x29,-1589	 x29:0xffffffff x18=0xfffff9ca
        7255000	       724	80000d68	015214b3	sll	x9,x4,x21	  x4:0xfffffff0 x21:0x00000000  x9=0xfffffff0
        7265000	       725	80000d6c	00480813	addi	x16,x16,4	 x16:0x0000000c x16=0x00000010
        7275000	       726	80000d70	b55289b7	lui	x19,0xb5528	 x19=0xb5528000
        7285000	       727	80000d74	400fd433	sra	x8,x31,x0	 x31:0x692c5000  x0:0x00000000  x8=0x692c5000
        7295000	       728	80000d78	00b71393	slli	x7,x14,0xb	 x14:0x80009fc4  x7=0x04fe2000
        7305000	       729	80000d7c	40d7d4b3	sra	x9,x15,x13	 x15:0xfffffffa x13:0x00000000  x9=0xfffffffa
        7315000	       730	80000d80	00409293	slli	x5,x1,0x4	  x1:0xea808000  x5=0xa8080000
        7325000	       731	80000d84	0014acb3	slt	x25,x9,x1	  x9:0xfffffffa  x1:0xea808000 x25=0x00000000
        7335000	       732	80000d88	012267b3	or	x15,x4,x18	  x4:0xfffffff0 x18:0xfffff9ca x15=0xfffffffa
        7345000	       733	80000d8c	fc2816e3	bne	x16,x2,80000d58	 x16:0x00000010  x2:0x00000010
        7355000	       734	80000d90	0181aab3	slt	x21,x3,x24	  x3:0x00000001 x24:0x00000001 x21=0x00000000
        7365000	       735	80000d94	00600093	addi	x1,x0,6	  x0:0x00000000  x1=0x00000006
        7375000	       736	80000d98	01242333	slt	x6,x8,x18	  x8:0x692c5000 x18:0xfffff9ca  x6=0x00000000
        7385000	       737	80000d9c	01125193	srli	x3,x4,0x11	  x4:0xfffffff0  x3=0x00007fff
        7395000	       738	80000da0	017d1693	slli	x13,x26,0x17	 x26:0x0000000b x13=0x05800000
        7405000	       739	80000da4	00c09893	slli	x17,x1,0xc	  x1:0x00000006 x17=0x00006000
        7415000	       740	80000da8	71b8f693	andi	x13,x17,1819	 x17:0x00006000 x13=0x00000000
        7425000	       741	80000dac	a61c0193	addi	x3,x24,-1439	 x24:0x00000001  x3=0xfffffa62
        7435000	       742	80000db0	00000013	addi	x0,x0,0	  x0:0x00000000
        7445000	       743	80000db4	0041a833	slt	x16,x3,x4	  x3:0xfffffa62  x4:0xfffffff0 x16=0x00000001
        7455000	       744	80000db8	ff800113	addi	x2,x0,-8	  x0:0x00000000  x2=0xfffffff8
        7465000	       745	80000dbc	3d033613	sltiu	x12,x6,976	  x6:0x00000000 x12=0x00000001
        7475000	       746	80000dc0	ef246813	ori	x16,x8,-270	  x8:0x692c5000 x16=0xfffffef2
        7485000	       747	80000dc4	ffe08093	addi	x1,x1,-2	  x1:0x00000006  x1=0x00000004
        7495000	       748	80000dc8	414e5eb3	sra	x29,x28,x20	 x28:0x0000000b x20:0x0000000b x29=0x00000000
        7505000	       749	80000dcc	ab2d7a13	andi	x20,x26,-1358	 x26:0x0000000b x20=0x00000002
        7515000	       750	80000dd0	31654393	xori	x7,x10,790	 x10:0x00000000  x7=0x00000316
        7525000	       751	80000dd4	00a00413	addi	x8,x0,10	  x0:0x00000000  x8=0x0000000a
        7535000	       752	80000dd8	414f5193	srai	x3,x30,0x14	 x30:0x80009f34  x3=0xfffff800
        7545000	       753	80000ddc	00c31f93	slli	x31,x6,0xc	  x6:0x00000000 x31=0x00000000
        7555000	       754	80000de0	1f316393	ori	x7,x2,499	  x2:0xfffffff8  x7=0xfffffffb
        7565000	       755	80000de4	5ec67793	andi	x15,x12,1516	 x12:0x00000001 x15=0x00000000
        7575000	       756	80000de8	4079d8b3	sra	x17,x19,x7	 x19:0xb5528000  x7:0xfffffffb x17=0xfffffff6
        7585000	       757	80000dec	00800293	addi	x5,x0,8	  x0:0x00000000  x5=0x00000008
        7595000	       758	80000df0	41c2d833	sra	x16,x5,x28	  x5:0x00000008 x28:0x0000000b x16=0x00000000
        7605000	       759	80000df4	004c0033	add	x0,x24,x4	 x24:0x00000001  x4:0xfffffff0
        7615000	       760	80000df8	00dc9193	slli	x3,x25,0xd	 x25:0x00000000  x3=0x00000000
        7625000	       761	80000dfc	ff940413	addi	x8,x8,-7	  x8:0x0000000a  x8=0x00000003
        7635000	       762	80000e00	010b9f93	slli	x31,x23,0x10	 x23:0xfffffec5 x31=0xfec50000
        7645000	       763	80000e04	fe5478e3	bgeu	x8,x5,80000df4	  x8:0x00000003  x5:0x00000008
        7655000	       764	80000e08	099c1197	auipc	x3,0x99c1	  x3=0x899c1e04
        7665000	       765	80000e0c	fa20dae3	bge	x1,x2,80000dc0	  x1:0x00000004  x2:0xfffffff8
        7675000	       766	00000000	00000013	addi	x0,x0,0	  x0:0x00000000
        7685000	       767	80000dbc	00000013	addi	x0,x0,0	  x0:0x00000000
        7695000	       768	80000dc0	ef246813	ori	x16,x8,-270	  x8:0x00000003 x16=0xfffffef3
        7705000	       769	80000dc4	ffe08093	addi	x1,x1,-2	  x1:0x00000004  x1=0x00000002
        7715000	       770	80000dc8	414e5eb3	sra	x29,x28,x20	 x28:0x0000000b x20:0x00000002 x29=0x00000002
        7725000	       771	80000dcc	ab2d7a13	andi	x20,x26,-1358	 x26:0x0000000b x20=0x00000002
        7735000	       772	80000dd0	31654393	xori	x7,x10,790	 x10:0x00000000  x7=0x00000316
        7745000	       773	80000dd4	00a00413	addi	x8,x0,10	  x0:0x00000000  x8=0x0000000a
        7755000	       774	80000dd8	414f5193	srai	x3,x30,0x14	 x30:0x80009f34  x3=0xfffff800
        7765000	       775	80000ddc	00c31f93	slli	x31,x6,0xc	  x6:0x00000000 x31=0x00000000
        7775000	       776	80000de0	1f316393	ori	x7,x2,499	  x2:0xfffffff8  x7=0xfffffffb
        7785000	       777	80000de4	5ec67793	andi	x15,x12,1516	 x12:0x00000001 x15=0x00000000
        7795000	       778	80000de8	4079d8b3	sra	x17,x19,x7	 x19:0xb5528000  x7:0xfffffffb x17=0xfffffff6
        7805000	       779	80000dec	00800293	addi	x5,x0,8	  x0:0x00000000  x5=0x00000008
        7815000	       780	80000df0	41c2d833	sra	x16,x5,x28	  x5:0x00000008 x28:0x0000000b x16=0x00000000
        7825000	       781	80000df4	004c0033	add	x0,x24,x4	 x24:0x00000001  x4:0xfffffff0
        7835000	       782	80000df8	00dc9193	slli	x3,x25,0xd	 x25:0x00000000  x3=0x00000000
        7845000	       783	80000dfc	ff940413	addi	x8,x8,-7	  x8:0x0000000a  x8=0x00000003
        7855000	       784	80000e00	010b9f93	slli	x31,x23,0x10	 x23:0xfffffec5 x31=0xfec50000
        7865000	       785	80000e04	fe5478e3	bgeu	x8,x5,80000df4	  x8:0x00000003  x5:0x00000008
        7875000	       786	80000e08	099c1197	auipc	x3,0x99c1	  x3=0x899c1e04
        7885000	       787	80000e0c	fa20dae3	bge	x1,x2,80000dc0	  x1:0x00000002  x2:0xfffffff8
        7895000	       788	00000000	00000013	addi	x0,x0,0	  x0:0x00000000
        7905000	       789	80000dbc	00000013	addi	x0,x0,0	  x0:0x00000000
        7915000	       790	80000dc0	ef246813	ori	x16,x8,-270	  x8:0x00000003 x16=0xfffffef3
        7925000	       791	80000dc4	ffe08093	addi	x1,x1,-2	  x1:0x00000002  x1=0x00000000
        7935000	       792	80000dc8	414e5eb3	sra	x29,x28,x20	 x28:0x0000000b x20:0x00000002 x29=0x00000002
        7945000	       793	80000dcc	ab2d7a13	andi	x20,x26,-1358	 x26:0x0000000b x20=0x00000002
        7955000	       794	80000dd0	31654393	xori	x7,x10,790	 x10:0x00000000  x7=0x00000316
        7965000	       795	80000dd4	00a00413	addi	x8,x0,10	  x0:0x00000000  x8=0x0000000a
        7975000	       796	80000dd8	414f5193	srai	x3,x30,0x14	 x30:0x80009f34  x3=0xfffff800
        7985000	       797	80000ddc	00c31f93	slli	x31,x6,0xc	  x6:0x00000000 x31=0x00000000
        7995000	       798	80000de0	1f316393	ori	x7,x2,499	  x2:0xfffffff8  x7=0xfffffffb
        8005000	       799	80000de4	5ec67793	andi	x15,x12,1516	 x12:0x00000001 x15=0x00000000
        8015000	       800	80000de8	4079d8b3	sra	x17,x19,x7	 x19:0xb5528000  x7:0xfffffffb x17=0xfffffff6
        8025000	       801	80000dec	00800293	addi	x5,x0,8	  x0:0x00000000  x5=0x00000008
        8035000	       802	80000df0	41c2d833	sra	x16,x5,x28	  x5:0x00000008 x28:0x0000000b x16=0x00000000
        8045000	       803	80000df4	004c0033	add	x0,x24,x4	 x24:0x00000001  x4:0xfffffff0
        8055000	       804	80000df8	00dc9193	slli	x3,x25,0xd	 x25:0x00000000  x3=0x00000000
        8065000	       805	80000dfc	ff940413	addi	x8,x8,-7	  x8:0x0000000a  x8=0x00000003
        8075000	       806	80000e00	010b9f93	slli	x31,x23,0x10	 x23:0xfffffec5 x31=0xfec50000
        8085000	       807	80000e04	fe5478e3	bgeu	x8,x5,80000df4	  x8:0x00000003  x5:0x00000008
        8095000	       808	80000e08	099c1197	auipc	x3,0x99c1	  x3=0x899c1e04
        8105000	       809	80000e0c	fa20dae3	bge	x1,x2,80000dc0	  x1:0x00000000  x2:0xfffffff8
        8115000	       810	00000000	00000013	addi	x0,x0,0	  x0:0x00000000
        8125000	       811	80000dbc	00000013	addi	x0,x0,0	  x0:0x00000000
        8135000	       812	80000dc0	ef246813	ori	x16,x8,-270	  x8:0x00000003 x16=0xfffffef3
        8145000	       813	80000dc4	ffe08093	addi	x1,x1,-2	  x1:0x00000000  x1=0xfffffffe
        8155000	       814	80000dc8	414e5eb3	sra	x29,x28,x20	 x28:0x0000000b x20:0x00000002 x29=0x00000002
        8165000	       815	80000dcc	ab2d7a13	andi	x20,x26,-1358	 x26:0x0000000b x20=0x00000002
        8175000	       816	80000dd0	31654393	xori	x7,x10,790	 x10:0x00000000  x7=0x00000316
        8185000	       817	80000dd4	00a00413	addi	x8,x0,10	  x0:0x00000000  x8=0x0000000a
        8195000	       818	80000dd8	414f5193	srai	x3,x30,0x14	 x30:0x80009f34  x3=0xfffff800
        8205000	       819	80000ddc	00c31f93	slli	x31,x6,0xc	  x6:0x00000000 x31=0x00000000
        8215000	       820	80000de0	1f316393	ori	x7,x2,499	  x2:0xfffffff8  x7=0xfffffffb
        8225000	       821	80000de4	5ec67793	andi	x15,x12,1516	 x12:0x00000001 x15=0x00000000
        8235000	       822	80000de8	4079d8b3	sra	x17,x19,x7	 x19:0xb5528000  x7:0xfffffffb x17=0xfffffff6
        8245000	       823	80000dec	00800293	addi	x5,x0,8	  x0:0x00000000  x5=0x00000008
        8255000	       824	80000df0	41c2d833	sra	x16,x5,x28	  x5:0x00000008 x28:0x0000000b x16=0x00000000
        8265000	       825	80000df4	004c0033	add	x0,x24,x4	 x24:0x00000001  x4:0xfffffff0
        8275000	       826	80000df8	00dc9193	slli	x3,x25,0xd	 x25:0x00000000  x3=0x00000000
        8285000	       827	80000dfc	ff940413	addi	x8,x8,-7	  x8:0x0000000a  x8=0x00000003
        8295000	       828	80000e00	010b9f93	slli	x31,x23,0x10	 x23:0xfffffec5 x31=0xfec50000
        8305000	       829	80000e04	fe5478e3	bgeu	x8,x5,80000df4	  x8:0x00000003  x5:0x00000008
        8315000	       830	80000e08	099c1197	auipc	x3,0x99c1	  x3=0x899c1e04
        8325000	       831	80000e0c	fa20dae3	bge	x1,x2,80000dc0	  x1:0xfffffffe  x2:0xfffffff8
        8335000	       832	00000000	00000013	addi	x0,x0,0	  x0:0x00000000
        8345000	       833	80000dbc	00000013	addi	x0,x0,0	  x0:0x00000000
        8355000	       834	80000dc0	ef246813	ori	x16,x8,-270	  x8:0x00000003 x16=0xfffffef3
        8365000	       835	80000dc4	ffe08093	addi	x1,x1,-2	  x1:0xfffffffe  x1=0xfffffffc
        8375000	       836	80000dc8	414e5eb3	sra	x29,x28,x20	 x28:0x0000000b x20:0x00000002 x29=0x00000002
        8385000	       837	80000dcc	ab2d7a13	andi	x20,x26,-1358	 x26:0x0000000b x20=0x00000002
        8395000	       838	80000dd0	31654393	xori	x7,x10,790	 x10:0x00000000  x7=0x00000316
        8405000	       839	80000dd4	00a00413	addi	x8,x0,10	  x0:0x00000000  x8=0x0000000a
        8415000	       840	80000dd8	414f5193	srai	x3,x30,0x14	 x30:0x80009f34  x3=0xfffff800
        8425000	       841	80000ddc	00c31f93	slli	x31,x6,0xc	  x6:0x00000000 x31=0x00000000
        8435000	       842	80000de0	1f316393	ori	x7,x2,499	  x2:0xfffffff8  x7=0xfffffffb
        8445000	       843	80000de4	5ec67793	andi	x15,x12,1516	 x12:0x00000001 x15=0x00000000
        8455000	       844	80000de8	4079d8b3	sra	x17,x19,x7	 x19:0xb5528000  x7:0xfffffffb x17=0xfffffff6
        8465000	       845	80000dec	00800293	addi	x5,x0,8	  x0:0x00000000  x5=0x00000008
        8475000	       846	80000df0	41c2d833	sra	x16,x5,x28	  x5:0x00000008 x28:0x0000000b x16=0x00000000
        8485000	       847	80000df4	004c0033	add	x0,x24,x4	 x24:0x00000001  x4:0xfffffff0
        8495000	       848	80000df8	00dc9193	slli	x3,x25,0xd	 x25:0x00000000  x3=0x00000000
        8505000	       849	80000dfc	ff940413	addi	x8,x8,-7	  x8:0x0000000a  x8=0x00000003
        8515000	       850	80000e00	010b9f93	slli	x31,x23,0x10	 x23:0xfffffec5 x31=0xfec50000
        8525000	       851	80000e04	fe5478e3	bgeu	x8,x5,80000df4	  x8:0x00000003  x5:0x00000008
        8535000	       852	80000e08	099c1197	auipc	x3,0x99c1	  x3=0x899c1e04
        8545000	       853	80000e0c	fa20dae3	bge	x1,x2,80000dc0	  x1:0xfffffffc  x2:0xfffffff8
        8555000	       854	00000000	00000013	addi	x0,x0,0	  x0:0x00000000
        8565000	       855	80000dbc	00000013	addi	x0,x0,0	  x0:0x00000000
        8575000	       856	80000dc0	ef246813	ori	x16,x8,-270	  x8:0x00000003 x16=0xfffffef3
        8585000	       857	80000dc4	ffe08093	addi	x1,x1,-2	  x1:0xfffffffc  x1=0xfffffffa
        8595000	       858	80000dc8	414e5eb3	sra	x29,x28,x20	 x28:0x0000000b x20:0x00000002 x29=0x00000002
        8605000	       859	80000dcc	ab2d7a13	andi	x20,x26,-1358	 x26:0x0000000b x20=0x00000002
        8615000	       860	80000dd0	31654393	xori	x7,x10,790	 x10:0x00000000  x7=0x00000316
        8625000	       861	80000dd4	00a00413	addi	x8,x0,10	  x0:0x00000000  x8=0x0000000a
        8635000	       862	80000dd8	414f5193	srai	x3,x30,0x14	 x30:0x80009f34  x3=0xfffff800
        8645000	       863	80000ddc	00c31f93	slli	x31,x6,0xc	  x6:0x00000000 x31=0x00000000
        8655000	       864	80000de0	1f316393	ori	x7,x2,499	  x2:0xfffffff8  x7=0xfffffffb
        8665000	       865	80000de4	5ec67793	andi	x15,x12,1516	 x12:0x00000001 x15=0x00000000
        8675000	       866	80000de8	4079d8b3	sra	x17,x19,x7	 x19:0xb5528000  x7:0xfffffffb x17=0xfffffff6
        8685000	       867	80000dec	00800293	addi	x5,x0,8	  x0:0x00000000  x5=0x00000008
        8695000	       868	80000df0	41c2d833	sra	x16,x5,x28	  x5:0x00000008 x28:0x0000000b x16=0x00000000
        8705000	       869	80000df4	004c0033	add	x0,x24,x4	 x24:0x00000001  x4:0xfffffff0
        8715000	       870	80000df8	00dc9193	slli	x3,x25,0xd	 x25:0x00000000  x3=0x00000000
        8725000	       871	80000dfc	ff940413	addi	x8,x8,-7	  x8:0x0000000a  x8=0x00000003
        8735000	       872	80000e00	010b9f93	slli	x31,x23,0x10	 x23:0xfffffec5 x31=0xfec50000
        8745000	       873	80000e04	fe5478e3	bgeu	x8,x5,80000df4	  x8:0x00000003  x5:0x00000008
        8755000	       874	80000e08	099c1197	auipc	x3,0x99c1	  x3=0x899c1e04
        8765000	       875	80000e0c	fa20dae3	bge	x1,x2,80000dc0	  x1:0xfffffffa  x2:0xfffffff8
        8775000	       876	00000000	00000013	addi	x0,x0,0	  x0:0x00000000
        8785000	       877	80000dbc	00000013	addi	x0,x0,0	  x0:0x00000000
        8795000	       878	80000dc0	ef246813	ori	x16,x8,-270	  x8:0x00000003 x16=0xfffffef3
        8805000	       879	80000dc4	ffe08093	addi	x1,x1,-2	  x1:0xfffffffa  x1=0xfffffff8
        8815000	       880	80000dc8	414e5eb3	sra	x29,x28,x20	 x28:0x0000000b x20:0x00000002 x29=0x00000002
        8825000	       881	80000dcc	ab2d7a13	andi	x20,x26,-1358	 x26:0x0000000b x20=0x00000002
        8835000	       882	80000dd0	31654393	xori	x7,x10,790	 x10:0x00000000  x7=0x00000316
        8845000	       883	80000dd4	00a00413	addi	x8,x0,10	  x0:0x00000000  x8=0x0000000a
        8855000	       884	80000dd8	414f5193	srai	x3,x30,0x14	 x30:0x80009f34  x3=0xfffff800
        8865000	       885	80000ddc	00c31f93	slli	x31,x6,0xc	  x6:0x00000000 x31=0x00000000
        8875000	       886	80000de0	1f316393	ori	x7,x2,499	  x2:0xfffffff8  x7=0xfffffffb
        8885000	       887	80000de4	5ec67793	andi	x15,x12,1516	 x12:0x00000001 x15=0x00000000
        8895000	       888	80000de8	4079d8b3	sra	x17,x19,x7	 x19:0xb5528000  x7:0xfffffffb x17=0xfffffff6
        8905000	       889	80000dec	00800293	addi	x5,x0,8	  x0:0x00000000  x5=0x00000008
        8915000	       890	80000df0	41c2d833	sra	x16,x5,x28	  x5:0x00000008 x28:0x0000000b x16=0x00000000
        8925000	       891	80000df4	004c0033	add	x0,x24,x4	 x24:0x00000001  x4:0xfffffff0
        8935000	       892	80000df8	00dc9193	slli	x3,x25,0xd	 x25:0x00000000  x3=0x00000000
        8945000	       893	80000dfc	ff940413	addi	x8,x8,-7	  x8:0x0000000a  x8=0x00000003
        8955000	       894	80000e00	010b9f93	slli	x31,x23,0x10	 x23:0xfffffec5 x31=0xfec50000
        8965000	       895	80000e04	fe5478e3	bgeu	x8,x5,80000df4	  x8:0x00000003  x5:0x00000008
        8975000	       896	80000e08	099c1197	auipc	x3,0x99c1	  x3=0x899c1e04
        8985000	       897	80000e0c	fa20dae3	bge	x1,x2,80000dc0	  x1:0xfffffff8  x2:0xfffffff8
        8995000	       898	00000000	00000013	addi	x0,x0,0	  x0:0x00000000
        9005000	       899	80000dbc	00000013	addi	x0,x0,0	  x0:0x00000000
        9015000	       900	80000dc0	ef246813	ori	x16,x8,-270	  x8:0x00000003 x16=0xfffffef3
        9025000	       901	80000dc4	ffe08093	addi	x1,x1,-2	  x1:0xfffffff8  x1=0xfffffff6
        9035000	       902	80000dc8	414e5eb3	sra	x29,x28,x20	 x28:0x0000000b x20:0x00000002 x29=0x00000002
        9045000	       903	80000dcc	ab2d7a13	andi	x20,x26,-1358	 x26:0x0000000b x20=0x00000002
        9055000	       904	80000dd0	31654393	xori	x7,x10,790	 x10:0x00000000  x7=0x00000316
        9065000	       905	80000dd4	00a00413	addi	x8,x0,10	  x0:0x00000000  x8=0x0000000a
        9075000	       906	80000dd8	414f5193	srai	x3,x30,0x14	 x30:0x80009f34  x3=0xfffff800
        9085000	       907	80000ddc	00c31f93	slli	x31,x6,0xc	  x6:0x00000000 x31=0x00000000
        9095000	       908	80000de0	1f316393	ori	x7,x2,499	  x2:0xfffffff8  x7=0xfffffffb
        9105000	       909	80000de4	5ec67793	andi	x15,x12,1516	 x12:0x00000001 x15=0x00000000
        9115000	       910	80000de8	4079d8b3	sra	x17,x19,x7	 x19:0xb5528000  x7:0xfffffffb x17=0xfffffff6
        9125000	       911	80000dec	00800293	addi	x5,x0,8	  x0:0x00000000  x5=0x00000008
        9135000	       912	80000df0	41c2d833	sra	x16,x5,x28	  x5:0x00000008 x28:0x0000000b x16=0x00000000
        9145000	       913	80000df4	004c0033	add	x0,x24,x4	 x24:0x00000001  x4:0xfffffff0
        9155000	       914	80000df8	00dc9193	slli	x3,x25,0xd	 x25:0x00000000  x3=0x00000000
        9165000	       915	80000dfc	ff940413	addi	x8,x8,-7	  x8:0x0000000a  x8=0x00000003
        9175000	       916	80000e00	010b9f93	slli	x31,x23,0x10	 x23:0xfffffec5 x31=0xfec50000
        9185000	       917	80000e04	fe5478e3	bgeu	x8,x5,80000df4	  x8:0x00000003  x5:0x00000008
        9195000	       918	80000e08	099c1197	auipc	x3,0x99c1	  x3=0x899c1e04
        9205000	       919	80000e0c	fa20dae3	bge	x1,x2,80000dc0	  x1:0xfffffff6  x2:0xfffffff8
        9215000	       920	80000e10	00c98e33	add	x28,x19,x12	 x19:0xb5528000 x12:0x00000001 x28=0xb5528001
        9225000	       921	80000e14	ff800e13	addi	x28,x0,-8	  x0:0x00000000 x28=0xfffffff8
        9235000	       922	80000e18	01df58b3	srl	x17,x30,x29	 x30:0x80009f34 x29:0x00000002 x17=0x200027cd
        9245000	       923	80000e1c	01caa9b3	slt	x19,x21,x28	 x21:0x00000000 x28:0xfffffff8 x19=0x00000000
        9255000	       924	80000e20	0c982313	slti	x6,x16,201	 x16:0x00000000  x6=0x00000001
        9265000	       925	80000e24	00400c93	addi	x25,x0,4	  x0:0x00000000 x25=0x00000004
        9275000	       926	80000e28	003a11b3	sll	x3,x20,x3	 x20:0x00000002  x3:0x899c1e04  x3=0x00000020
        9285000	       927	80000e2c	4d18ff93	andi	x31,x17,1233	 x17:0x200027cd x31=0x000004c1
        9295000	       928	80000e30	dd43eb13	ori	x22,x7,-556	  x7:0xfffffffb x22=0xffffffff
        9305000	       929	80000e34	006e0e13	addi	x28,x28,6	 x28:0xfffffff8 x28=0xfffffffe
        9315000	       930	80000e38	01149a13	slli	x20,x9,0x11	  x9:0xfffffffa x20=0xfff40000
        9325000	       931	80000e3c	40a408b3	sub	x17,x8,x10	  x8:0x00000003 x10:0x00000000 x17=0x00000003
        9335000	       932	80000e40	00a00693	addi	x13,x0,10	  x0:0x00000000 x13=0x0000000a
        9345000	       933	80000e44	4129db13	srai	x22,x19,0x12	 x19:0x00000000 x22=0x00000000
        9355000	       934	80000e48	00a00e93	addi	x29,x0,10	  x0:0x00000000 x29=0x0000000a
        9365000	       935	80000e4c	00e825b3	slt	x11,x16,x14	 x16:0x00000000 x14:0x80009fc4 x11=0x00000000
        9375000	       936	80000e50	da924493	xori	x9,x4,-599	  x4:0xfffffff0  x9=0x00000259
        9385000	       937	80000e54	3d33b893	sltiu	x17,x7,979	  x7:0xfffffffb x17=0x00000000
        9395000	       938	80000e58	ffb68693	addi	x13,x13,-5	 x13:0x0000000a x13=0x00000005
        9405000	       939	80000e5c	009b9c13	slli	x24,x23,0x9	 x23:0xfffffec5 x24=0xfffd8a00
        9415000	       940	80000e60	4b37d637	lui	x12,0x4b37d	 x12=0x4b37d000
        9425000	       941	80000e64	01075133	srl	x2,x14,x16	 x14:0x80009fc4 x16:0x00000000  x2=0x80009fc4
        9435000	       942	80000e68	01627833	and	x16,x4,x22	  x4:0xfffffff0 x22:0x00000000 x16=0x00000000
        9445000	       943	80000e6c	ffd6f0e3	bgeu	x13,x29,80000e4c	 x13:0x00000005 x29:0x0000000a
        9455000	       944	80000e70	c928aa13	slti	x20,x17,-878	 x17:0x00000000 x20=0x00000000
        9465000	       945	80000e74	836fc193	xori	x3,x31,-1994	 x31:0x000004c1  x3=0xfffffcf7
        9475000	       946	80000e78	e231b213	sltiu	x4,x3,-477	  x3:0xfffffcf7  x4=0x00000001
        9485000	       947	80000e7c	01449093	slli	x1,x9,0x14	  x9:0x00000259  x1=0x25900000
        9495000	       948	80000e80	fb9e16e3	bne	x28,x25,80000e2c	 x28:0xfffffffe x25:0x00000004
        9505000	       949	00000000	00000013	addi	x0,x0,0	  x0:0x00000000
        9515000	       950	80000e28	00000013	addi	x0,x0,0	  x0:0x00000000
        9525000	       951	80000e2c	4d18ff93	andi	x31,x17,1233	 x17:0x00000000 x31=0x00000000
        9535000	       952	80000e30	dd43eb13	ori	x22,x7,-556	  x7:0xfffffffb x22=0xffffffff
        9545000	       953	80000e34	006e0e13	addi	x28,x28,6	 x28:0xfffffffe x28=0x00000004
        9555000	       954	80000e38	01149a13	slli	x20,x9,0x11	  x9:0x00000259 x20=0x04b20000
        9565000	       955	80000e3c	40a408b3	sub	x17,x8,x10	  x8:0x00000003 x10:0x00000000 x17=0x00000003
        9575000	       956	80000e40	00a00693	addi	x13,x0,10	  x0:0x00000000 x13=0x0000000a
        9585000	       957	80000e44	4129db13	srai	x22,x19,0x12	 x19:0x00000000 x22=0x00000000
        9595000	       958	80000e48	00a00e93	addi	x29,x0,10	  x0:0x00000000 x29=0x0000000a
        9605000	       959	80000e4c	00e825b3	slt	x11,x16,x14	 x16:0x00000000 x14:0x80009fc4 x11=0x00000000
        9615000	       960	80000e50	da924493	xori	x9,x4,-599	  x4:0x00000001  x9=0xfffffda8
        9625000	       961	80000e54	3d33b893	sltiu	x17,x7,979	  x7:0xfffffffb x17=0x00000000
        9635000	       962	80000e58	ffb68693	addi	x13,x13,-5	 x13:0x0000000a x13=0x00000005
        9645000	       963	80000e5c	009b9c13	slli	x24,x23,0x9	 x23:0xfffffec5 x24=0xfffd8a00
        9655000	       964	80000e60	4b37d637	lui	x12,0x4b37d	 x12=0x4b37d000
        9665000	       965	80000e64	01075133	srl	x2,x14,x16	 x14:0x80009fc4 x16:0x00000000  x2=0x80009fc4
        9675000	       966	80000e68	01627833	and	x16,x4,x22	  x4:0x00000001 x22:0x00000000 x16=0x00000000
        9685000	       967	80000e6c	ffd6f0e3	bgeu	x13,x29,80000e4c	 x13:0x00000005 x29:0x0000000a
        9695000	       968	80000e70	c928aa13	slti	x20,x17,-878	 x17:0x00000000 x20=0x00000000
        9705000	       969	80000e74	836fc193	xori	x3,x31,-1994	 x31:0x00000000  x3=0xfffff836
        9715000	       970	80000e78	e231b213	sltiu	x4,x3,-477	  x3:0xfffff836  x4=0x00000001
        9725000	       971	80000e7c	01449093	slli	x1,x9,0x14	  x9:0xfffffda8  x1=0xda800000
        9735000	       972	80000e80	fb9e16e3	bne	x28,x25,80000e2c	 x28:0x00000004 x25:0x00000004
        9745000	       973	80000e84	0048d5b3	srl	x11,x17,x4	 x17:0x00000000  x4:0x00000001 x11=0x00000000
        9755000	       974	80000e88	00300b93	addi	x23,x0,3	  x0:0x00000000 x23=0x00000003
        9765000	       975	80000e8c	414f0433	sub	x8,x30,x20	 x30:0x80009f34 x20:0x00000000  x8=0x80009f34
        9775000	       976	80000e90	00f00793	addi	x15,x0,15	  x0:0x00000000 x15=0x0000000f
        9785000	       977	80000e94	40c56e13	ori	x28,x10,1036	 x10:0x00000000 x28=0x0000040c
        9795000	       978	80000e98	00ab8b93	addi	x23,x23,10	 x23:0x00000003 x23=0x0000000d
        9805000	       979	80000e9c	ffc00813	addi	x16,x0,-4	  x0:0x00000000 x16=0xfffffffc
        9815000	       980	80000ea0	011b9fb3	sll	x31,x23,x17	 x23:0x0000000d x17:0x00000000 x31=0x0000000d
        9825000	       981	80000ea4	00300a93	addi	x21,x0,3	  x0:0x00000000 x21=0x00000003
        9835000	       982	80000ea8	c64c8a13	addi	x20,x25,-924	 x25:0x00000004 x20=0xfffffc68
        9845000	       983	80000eac	00780813	addi	x16,x16,7	 x16:0xfffffffc x16=0x00000003
        9855000	       984	80000eb0	ff586ce3	bltu	x16,x21,80000ea8	 x16:0x00000003 x21:0x00000003
        9865000	       985	80000eb4	fefbe0e3	bltu	x23,x15,80000e94	 x23:0x0000000d x15:0x0000000f
        9875000	       986	00000000	00000013	addi	x0,x0,0	  x0:0x00000000
        9885000	       987	80000e90	00000013	addi	x0,x0,0	  x0:0x00000000
        9895000	       988	80000e94	40c56e13	ori	x28,x10,1036	 x10:0x00000000 x28=0x0000040c
        9905000	       989	80000e98	00ab8b93	addi	x23,x23,10	 x23:0x0000000d x23=0x00000017
        9915000	       990	80000e9c	ffc00813	addi	x16,x0,-4	  x0:0x00000000 x16=0xfffffffc
        9925000	       991	80000ea0	011b9fb3	sll	x31,x23,x17	 x23:0x00000017 x17:0x00000000 x31=0x00000017
        9935000	       992	80000ea4	00300a93	addi	x21,x0,3	  x0:0x00000000 x21=0x00000003
        9945000	       993	80000ea8	c64c8a13	addi	x20,x25,-924	 x25:0x00000004 x20=0xfffffc68
        9955000	       994	80000eac	00780813	addi	x16,x16,7	 x16:0xfffffffc x16=0x00000003
        9965000	       995	80000eb0	ff586ce3	bltu	x16,x21,80000ea8	 x16:0x00000003 x21:0x00000003
        9975000	       996	80000eb4	fefbe0e3	bltu	x23,x15,80000e94	 x23:0x00000017 x15:0x0000000f
        9985000	       997	80000eb8	70fae537	lui	x10,0x70fae	 x10=0x70fae000
        9995000	       998	80000ebc	00600413	addi	x8,x0,6	  x0:0x00000000  x8=0x00000006
       10005000	       999	80000ec0	015f3e33	sltu	x28,x30,x21	 x30:0x80009f34 x21:0x00000003 x28=0x00000000
       10015000	      1000	80000ec4	00d00f93	addi	x31,x0,13	  x0:0x00000000 x31=0x0000000d
       10025000	      1001	80000ec8	00000013	addi	x0,x0,0	  x0:0x00000000
       10035000	      1002	80000ecc	00000013	addi	x0,x0,0	  x0:0x00000000
       10045000	      1003	80000ed0	02e60c93	addi	x25,x12,46	 x12:0x4b37d000 x25=0x4b37d02e
       10055000	      1004	80000ed4	00640413	addi	x8,x8,6	  x8:0x00000006  x8=0x0000000c
       10065000	      1005	80000ed8	010ca033	slt	x0,x25,x16	 x25:0x4b37d02e x16:0x00000003
       10075000	      1006	80000edc	00300913	addi	x18,x0,3	  x0:0x00000000 x18=0x00000003
       10085000	      1007	80000ee0	01831a33	sll	x20,x6,x24	  x6:0x00000001 x24:0xfffd8a00 x20=0x00000001
       10095000	      1008	80000ee4	00e00513	addi	x10,x0,14	  x0:0x00000000 x10=0x0000000e
       10105000	      1009	80000ee8	013fd333	srl	x6,x31,x19	 x31:0x0000000d x19:0x00000000  x6=0x0000000d
       10115000	      1010	80000eec	806cf593	andi	x11,x25,-2042	 x25:0x4b37d02e x11=0x4b37d006
       10125000	      1011	80000ef0	40270233	sub	x4,x14,x2	 x14:0x80009fc4  x2:0x80009fc4  x4=0x00000000
       10135000	      1012	80000ef4	38c00b93	addi	x23,x0,908	  x0:0x00000000 x23=0x0000038c
       10145000	      1013	80000ef8	00d62db3	slt	x27,x12,x13	 x12:0x4b37d000 x13:0x00000005 x27=0x00000000
       10155000	      1014	80000efc	00a90913	addi	x18,x18,10	 x18:0x00000003 x18=0x0000000d
       10165000	      1015	80000f00	00387cb3	and	x25,x16,x3	 x16:0x00000003  x3:0xfffff836 x25=0x00000002
       10175000	      1016	80000f04	fea946e3	blt	x18,x10,80000ef0	 x18:0x0000000d x10:0x0000000e
       10185000	      1017	00000000	00000013	addi	x0,x0,0	  x0:0x00000000
       10195000	      1018	80000eec	00000013	addi	x0,x0,0	  x0:0x00000000
       10205000	      1019	80000ef0	40270233	sub	x4,x14,x2	 x14:0x80009fc4  x2:0x80009fc4  x4=0x00000000
       10215000	      1020	80000ef4	38c00b93	addi	x23,x0,908	  x0:0x00000000 x23=0x0000038c
       10225000	      1021	80000ef8	00d62db3	slt	x27,x12,x13	 x12:0x4b37d000 x13:0x00000005 x27=0x00000000
       10235000	      1022	80000efc	00a90913	addi	x18,x18,10	 x18:0x0000000d x18=0x00000017
       10245000	      1023	80000f00	00387cb3	and	x25,x16,x3	 x16:0x00000003  x3:0xfffff836 x25=0x00000002
       10255000	      1024	80000f04	fea946e3	blt	x18,x10,80000ef0	 x18:0x00000017 x10:0x0000000e
       10265000	      1025	80000f08	fdf464e3	bltu	x8,x31,80000ed0	  x8:0x0000000c x31:0x0000000d
       10275000	      1026	00000000	00000013	addi	x0,x0,0	  x0:0x00000000
       10285000	      1027	80000ecc	00000013	addi	x0,x0,0	  x0:0x00000000
       10295000	      1028	80000ed0	02e60c93	addi	x25,x12,46	 x12:0x4b37d000 x25=0x4b37d02e
       10305000	      1029	80000ed4	00640413	addi	x8,x8,6	  x8:0x0000000c  x8=0x00000012
       10315000	      1030	80000ed8	010ca033	slt	x0,x25,x16	 x25:0x4b37d02e x16:0x00000003
       10325000	      1031	80000edc	00300913	addi	x18,x0,3	  x0:0x00000000 x18=0x00000003
       10335000	      1032	80000ee0	01831a33	sll	x20,x6,x24	  x6:0x0000000d x24:0xfffd8a00 x20=0x0000000d
       10345000	      1033	80000ee4	00e00513	addi	x10,x0,14	  x0:0x00000000 x10=0x0000000e
       10355000	      1034	80000ee8	013fd333	srl	x6,x31,x19	 x31:0x0000000d x19:0x00000000  x6=0x0000000d
       10365000	      1035	80000eec	806cf593	andi	x11,x25,-2042	 x25:0x4b37d02e x11=0x4b37d006
       10375000	      1036	80000ef0	40270233	sub	x4,x14,x2	 x14:0x80009fc4  x2:0x80009fc4  x4=0x00000000
       10385000	      1037	80000ef4	38c00b93	addi	x23,x0,908	  x0:0x00000000 x23=0x0000038c
       10395000	      1038	80000ef8	00d62db3	slt	x27,x12,x13	 x12:0x4b37d000 x13:0x00000005 x27=0x00000000
       10405000	      1039	80000efc	00a90913	addi	x18,x18,10	 x18:0x00000003 x18=0x0000000d
       10415000	      1040	80000f00	00387cb3	and	x25,x16,x3	 x16:0x00000003  x3:0xfffff836 x25=0x00000002
       10425000	      1041	80000f04	fea946e3	blt	x18,x10,80000ef0	 x18:0x0000000d x10:0x0000000e
       10435000	      1042	00000000	00000013	addi	x0,x0,0	  x0:0x00000000
       10445000	      1043	80000eec	00000013	addi	x0,x0,0	  x0:0x00000000
       10455000	      1044	80000ef0	40270233	sub	x4,x14,x2	 x14:0x80009fc4  x2:0x80009fc4  x4=0x00000000
       10465000	      1045	80000ef4	38c00b93	addi	x23,x0,908	  x0:0x00000000 x23=0x0000038c
       10475000	      1046	80000ef8	00d62db3	slt	x27,x12,x13	 x12:0x4b37d000 x13:0x00000005 x27=0x00000000
       10485000	      1047	80000efc	00a90913	addi	x18,x18,10	 x18:0x0000000d x18=0x00000017
       10495000	      1048	80000f00	00387cb3	and	x25,x16,x3	 x16:0x00000003  x3:0xfffff836 x25=0x00000002
       10505000	      1049	80000f04	fea946e3	blt	x18,x10,80000ef0	 x18:0x00000017 x10:0x0000000e
       10515000	      1050	80000f08	fdf464e3	bltu	x8,x31,80000ed0	  x8:0x00000012 x31:0x0000000d
       10525000	      1051	80000f0c	00000013	addi	x0,x0,0	  x0:0x00000000
       10535000	      1052	80000f10	01ce4333	xor	x6,x28,x28	 x28:0x00000000 x28:0x00000000  x6=0x00000000
       10545000	      1053	80000f14	405d80b3	sub	x1,x27,x5	 x27:0x00000000  x5:0x00000008  x1=0xfffffff8
       10555000	      1054	80000f18	6d50a593	slti	x11,x1,1749	  x1:0xfffffff8 x11=0x00000001
       10565000	      1055	80000f1c	02149e63	bne	x9,x1,80000f58	  x9:0xfffffda8  x1:0xfffffff8
       10575000	      1056	00000000	00000013	addi	x0,x0,0	  x0:0x00000000
       10585000	      1057	80000f54	00000013	addi	x0,x0,0	  x0:0x00000000
       10595000	      1058	80000f58	a30c2193	slti	x3,x24,-1488	 x24:0xfffd8a00  x3=0x00000001
       10605000	      1059	80000f5c	048b9463	bne	x23,x8,80000fa4	 x23:0x0000038c  x8:0x00000012
       10615000	      1060	00000000	00000013	addi	x0,x0,0	  x0:0x00000000
       10625000	      1061	80000fa0	00000013	addi	x0,x0,0	  x0:0x00000000
       10635000	      1062	80000fa4	01d25e63	bge	x4,x29,80000fc0	  x4:0x00000000 x29:0x0000000a
       10645000	      1063	80000fa8	05009863	bne	x1,x16,80000ff8	  x1:0xfffffff8 x16:0x00000003
       10655000	      1064	00000000	00000013	addi	x0,x0,0	  x0:0x00000000
       10665000	      1065	80000ff4	00000013	addi	x0,x0,0	  x0:0x00000000
       10675000	      1066	80000ff8	4182d6b3	sra	x13,x5,x24	  x5:0x00000008 x24:0xfffd8a00 x13=0x00000008
       10685000	      1067	80000ffc	20dc2e93	slti	x29,x24,525	 x24:0xfffd8a00 x29=0x00000001
       10695000	      1068	80001000	068eb193	sltiu	x3,x29,104	 x29:0x00000001  x3=0x00000001
       10705000	      1069	80001004	fab66793	ori	x15,x12,-85	 x12:0x4b37d000 x15=0xffffffab
       10715000	      1070	80001008	00000013	addi	x0,x0,0	  x0:0x00000000
       10725000	      1071	8000100c	02b5c263	blt	x11,x11,80001030	 x11:0x00000001 x11:0x00000001
       10735000	      1072	80001010	03c77a13	andi	x20,x14,60	 x14:0x80009fc4 x20=0x00000004
       10745000	      1073	80001014	3a16b593	sltiu	x11,x13,929	 x13:0x00000008 x11=0x00000001
       10755000	      1074	80001018	00282bb3	slt	x23,x16,x2	 x16:0x00000003  x2:0x80009fc4 x23=0x00000000
       10765000	      1075	8000101c	41455493	srai	x9,x10,0x14	 x10:0x0000000e  x9=0x00000000
       10775000	      1076	80001020	41758433	sub	x8,x11,x23	 x11:0x00000001 x23:0x00000000  x8=0x00000001
       10785000	      1077	80001024	000c9db3	sll	x27,x25,x0	 x25:0x00000002  x0:0x00000000 x27=0x00000002
       10795000	      1078	80001028	02ac0263	beq	x24,x10,8000104c	 x24:0xfffd8a00 x10:0x0000000e
       10805000	      1079	8000102c	0188cc33	xor	x24,x17,x24	 x17:0x00000000 x24:0xfffd8a00 x24=0xfffd8a00
       10815000	      1080	80001030	414fd4b3	sra	x9,x31,x20	 x31:0x0000000d x20:0x00000004  x9=0x00000000
       10825000	      1081	80001034	01856e63	bltu	x10,x24,80001050	 x10:0x0000000e x24:0xfffd8a00
       10835000	      1082	00000000	00000013	addi	x0,x0,0	  x0:0x00000000
       10845000	      1083	8000104c	00000013	addi	x0,x0,0	  x0:0x00000000
       10855000	      1084	80001050	dbb47e93	andi	x29,x8,-581	  x8:0x00000001 x29=0x00000001
       10865000	      1085	80001054	bbc17393	andi	x7,x2,-1092	  x2:0x80009fc4  x7=0x80009b84
       10875000	      1086	80001058	00dd3e33	sltu	x28,x26,x13	 x26:0x0000000b x13:0x00000008 x28=0x00000000
       10885000	      1087	8000105c	018c1a13	slli	x20,x24,0x18	 x24:0xfffd8a00 x20=0x00000000
       10895000	      1088	80001060	00c54863	blt	x10,x12,80001070	 x10:0x0000000e x12:0x4b37d000
       10905000	      1089	00000000	00000013	addi	x0,x0,0	  x0:0x00000000
       10915000	      1090	8000106c	00000013	addi	x0,x0,0	  x0:0x00000000
       10925000	      1091	80001070	007877b3	and	x15,x16,x7	 x16:0x00000003  x7:0x80009b84 x15=0x00000000
       10935000	      1092	80001074	010c6b33	or	x22,x24,x16	 x24:0xfffd8a00 x16:0x00000003 x22=0xfffd8a03
       10945000	      1093	80001078	01699e93	slli	x29,x19,0x16	 x19:0x00000000 x29=0x00000000
       10955000	      1094	8000107c	c9c82093	slti	x1,x16,-868	 x16:0x00000003  x1=0x00000000
       10965000	      1095	80001080	ce5d0a13	addi	x20,x26,-795	 x26:0x0000000b x20=0xfffffcf0
       10975000	      1096	80001084	00231bb3	sll	x23,x6,x2	  x6:0x00000000  x2:0x80009fc4 x23=0x00000000
       10985000	      1097	80001088	011c5b33	srl	x22,x24,x17	 x24:0xfffd8a00 x17:0x00000000 x22=0xfffd8a00
       10995000	      1098	8000108c	0068e663	bltu	x17,x6,80001098	 x17:0x00000000  x6:0x00000000
       11005000	      1099	80001090	05abd263	bge	x23,x26,800010d4	 x23:0x00000000 x26:0x0000000b
       11015000	      1100	80001094	05db4863	blt	x22,x29,800010e4	 x22:0xfffd8a00 x29:0x00000000
       11025000	      1101	00000000	00000013	addi	x0,x0,0	  x0:0x00000000
       11035000	      1102	800010e0	00000013	addi	x0,x0,0	  x0:0x00000000
       11045000	      1103	800010e4	79194517	auipc	x10,0x79194	 x10=0xf91950e0
       11055000	      1104	800010e8	01d05eb3	srl	x29,x0,x29	  x0:0x00000000 x29:0x00000000 x29=0x00000000
       11065000	      1105	800010ec	016bf133	and	x2,x23,x22	 x23:0x00000000 x22:0xfffd8a00  x2=0x00000000
       11075000	      1106	800010f0	015e3c33	sltu	x24,x28,x21	 x28:0x00000000 x21:0x00000003 x24=0x00000001
       11085000	      1107	800010f4	00b35793	srli	x15,x6,0xb	  x6:0x00000000 x15=0x00000000
       11095000	      1108	800010f8	009ddbb3	srl	x23,x27,x9	 x27:0x00000002  x9:0x00000000 x23=0x00000002
       11105000	      1109	800010fc	2e05e697	auipc	x13,0x2e05e	 x13=0xae05f0f8
       11115000	      1110	80001100	04fb5863	bge	x22,x15,80001150	 x22:0xfffd8a00 x15:0x00000000
       11125000	      1111	80001104	ad7f6f93	ori	x31,x30,-1321	 x30:0x80009f34 x31=0xfffffff7
       11135000	      1112	80001108	01cb2033	slt	x0,x22,x28	 x22:0xfffd8a00 x28:0x00000000
       11145000	      1113	8000110c	410edb33	sra	x22,x29,x16	 x29:0x00000000 x16:0x00000003 x22=0x00000000
       11155000	      1114	80001110	0286f663	bgeu	x13,x8,8000113c	 x13:0xae05f0f8  x8:0x00000001
       11165000	      1115	00000000	00000013	addi	x0,x0,0	  x0:0x00000000
       11175000	      1116	80001138	00000013	addi	x0,x0,0	  x0:0x00000000
       11185000	      1117	8000113c	40f1d013	srai	x0,x3,0xf	  x3:0x00000001
       11195000	      1118	80001140	049b6263	bltu	x22,x9,80001184	 x22:0x00000000  x9:0x00000000
       11205000	      1119	80001144	01232233	slt	x4,x6,x18	  x6:0x00000000 x18:0x00000017  x4=0x00000001
       11215000	      1120	80001148	ce484617	auipc	x12,0xce484	 x12=0x4e485144
       11225000	      1121	8000114c	02bf1e63	bne	x30,x11,80001188	 x30:0x80009f34 x11:0x00000001
       11235000	      1122	00000000	00000013	addi	x0,x0,0	  x0:0x00000000
       11245000	      1123	80001184	00000013	addi	x0,x0,0	  x0:0x00000000
       11255000	      1124	80001188	001e5e33	srl	x28,x28,x1	 x28:0x00000000  x1:0x00000000 x28=0x00000000
       11265000	      1125	8000118c	01d9d263	bge	x19,x29,80001190	 x19:0x00000000 x29:0x00000000
       11275000	      1126	00000000	00000013	addi	x0,x0,0	  x0:0x00000000
       11285000	      1127	8000118c	00000013	addi	x0,x0,0	  x0:0x00000000
       11295000	      1128	80001190	41225593	srai	x11,x4,0x12	  x4:0x00000001 x11=0x00000000
       11305000	      1129	80001194	0031ddb3	srl	x27,x3,x3	  x3:0x00000001  x3:0x00000001 x27=0x00000000
       11315000	      1130	80001198	02b58663	beq	x11,x11,800011c4	 x11:0x00000000 x11:0x00000000
       11325000	      1131	00000000	00000013	addi	x0,x0,0	  x0:0x00000000
       11335000	      1132	800011c0	00000013	addi	x0,x0,0	  x0:0x00000000
       11345000	      1133	800011c4	40905d93	srai	x27,x0,0x9	  x0:0x00000000 x27=0x00000000
       11355000	      1134	800011c8	0c3d0263	beq	x26,x3,8000128c	 x26:0x0000000b  x3:0x00000001
       11365000	      1135	800011cc	00000013	addi	x0,x0,0	  x0:0x00000000
       11375000	      1136	800011d0	41a78db3	sub	x27,x15,x26	 x15:0x00000000 x26:0x0000000b x27=0xfffffff5
       11385000	      1137	800011d4	411f5293	srai	x5,x30,0x11	 x30:0x80009f34  x5=0xffffc000
       11395000	      1138	800011d8	002ce333	or	x6,x25,x2	 x25:0x00000002  x2:0x00000000  x6=0x00000002
       11405000	      1139	800011dc	f6240137	lui	x2,0xf6240	  x2=0xf6240000
       11415000	      1140	800011e0	ae1f6593	ori	x11,x30,-1311	 x30:0x80009f34 x11=0xfffffff5
       11425000	      1141	800011e4	c93e4913	xori	x18,x28,-877	 x28:0x00000000 x18=0xfffffc93
       11435000	      1142	800011e8	11067613	andi	x12,x12,272	 x12:0x4e485144 x12=0x00000100
       11445000	      1143	800011ec	ffc7bf97	auipc	x31,0xffc7b	 x31=0x7fc7c1e8
       11455000	      1144	800011f0	00f211b3	sll	x3,x4,x15	  x4:0x00000001 x15:0x00000000  x3=0x00000001
       11465000	      1145	800011f4	00400193	addi	x3,x0,4	  x0:0x00000000  x3=0x00000004
       11475000	      1146	800011f8	01cd5e13	srli	x28,x26,0x1c	 x26:0x0000000b x28=0x00000000
       11485000	      1147	800011fc	8abb5f97	auipc	x31,0x8abb5	 x31=0x0abb61f8
       11495000	      1148	80001200	01cd9c33	sll	x24,x27,x28	 x27:0xfffffff5 x28:0x00000000 x24=0xfffffff5
       11505000	      1149	80001204	fee00693	addi	x13,x0,-18	  x0:0x00000000 x13=0xffffffee
       11515000	      1150	80001208	a982c493	xori	x9,x5,-1384	  x5:0xffffc000  x9=0x00003a98
       11525000	      1151	8000120c	178cfe13	andi	x28,x25,376	 x25:0x00000002 x28=0x00000000
       11535000	      1152	80001210	01a205b3	add	x11,x4,x26	  x4:0x00000001 x26:0x0000000b x11=0x0000000c
       11545000	      1153	80001214	4020d993	srai	x19,x1,0x2	  x1:0x00000000 x19=0x00000000
       11555000	      1154	80001218	0139a4b3	slt	x9,x19,x19	 x19:0x00000000 x19:0x00000000  x9=0x00000000
       11565000	      1155	8000121c	000be333	or	x6,x23,x0	 x23:0x00000002  x0:0x00000000  x6=0x00000002
       11575000	      1156	80001220	011d0933	add	x18,x26,x17	 x26:0x0000000b x17:0x00000000 x18=0x0000000b
       11585000	      1157	80001224	38e243b7	lui	x7,0x38e24	  x7=0x38e24000
       11595000	      1158	80001228	baf4b613	sltiu	x12,x9,-1105	  x9:0x00000000 x12=0x00000001
       11605000	      1159	8000122c	003a7ab3	and	x21,x20,x3	 x20:0xfffffcf0  x3:0x00000004 x21=0x00000000
       11615000	      1160	80001230	40505433	sra	x8,x0,x5	  x0:0x00000000  x5:0xffffc000  x8=0x00000000
       11625000	      1161	80001234	ff718193	addi	x3,x3,-9	  x3:0x00000004  x3=0xfffffffb
       11635000	      1162	80001238	00000013	addi	x0,x0,0	  x0:0x00000000
       11645000	      1163	8000123c	01c04933	xor	x18,x0,x28	  x0:0x00000000 x28:0x00000000 x18=0x00000000
       11655000	      1164	80001240	c0e7aa93	slti	x21,x15,-1010	 x15:0x00000000 x21=0x00000000
       11665000	      1165	80001244	01b39b13	slli	x22,x7,0x1b	  x7:0x38e24000 x22=0x00000000
       11675000	      1166	80001248	00000d93	addi	x27,x0,0	  x0:0x00000000 x27=0x00000000
       11685000	      1167	8000124c	013a5493	srli	x9,x20,0x13	 x20:0xfffffcf0  x9=0x00001fff
       11695000	      1168	80001250	00300293	addi	x5,x0,3	  x0:0x00000000  x5=0x00000003
       11705000	      1169	80001254	85d2ae13	slti	x28,x5,-1955	  x5:0x00000003 x28=0x00000000
       11715000	      1170	80001258	6b11eb93	ori	x23,x3,1713	  x3:0xfffffffb x23=0xfffffffb
       11725000	      1171	8000125c	003d8d93	addi	x27,x27,3	 x27:0x00000000 x27=0x00000003
       11735000	      1172	80001260	008df5b3	and	x11,x27,x8	 x27:0x00000003  x8:0x00000000 x11=0x00000000
       11745000	      1173	80001264	7dd08613	addi	x12,x1,2013	  x1:0x00000000 x12=0x000007dd
       11755000	      1174	80001268	fe5d86e3	beq	x27,x5,80001254	 x27:0x00000003  x5:0x00000003
       11765000	      1175	00000000	00000013	addi	x0,x0,0	  x0:0x00000000
       11775000	      1176	80001250	00000013	addi	x0,x0,0	  x0:0x00000000
       11785000	      1177	80001254	85d2ae13	slti	x28,x5,-1955	  x5:0x00000003 x28=0x00000000
       11795000	      1178	80001258	6b11eb93	ori	x23,x3,1713	  x3:0xfffffffb x23=0xfffffffb
       11805000	      1179	8000125c	003d8d93	addi	x27,x27,3	 x27:0x00000003 x27=0x00000006
       11815000	      1180	80001260	008df5b3	and	x11,x27,x8	 x27:0x00000006  x8:0x00000000 x11=0x00000000
       11825000	      1181	80001264	7dd08613	addi	x12,x1,2013	  x1:0x00000000 x12=0x000007dd
       11835000	      1182	80001268	fe5d86e3	beq	x27,x5,80001254	 x27:0x00000006  x5:0x00000003
       11845000	      1183	8000126c	fad1dae3	bge	x3,x13,80001220	  x3:0xfffffffb x13:0xffffffee
       11855000	      1184	00000000	00000013	addi	x0,x0,0	  x0:0x00000000
       11865000	      1185	8000121c	00000013	addi	x0,x0,0	  x0:0x00000000
       11875000	      1186	80001220	011d0933	add	x18,x26,x17	 x26:0x0000000b x17:0x00000000 x18=0x0000000b
       11885000	      1187	80001224	38e243b7	lui	x7,0x38e24	  x7=0x38e24000
       11895000	      1188	80001228	baf4b613	sltiu	x12,x9,-1105	  x9:0x00001fff x12=0x00000001
       11905000	      1189	8000122c	003a7ab3	and	x21,x20,x3	 x20:0xfffffcf0  x3:0xfffffffb x21=0xfffffcf0
       11915000	      1190	80001230	40505433	sra	x8,x0,x5	  x0:0x00000000  x5:0x00000003  x8=0x00000000
       11925000	      1191	80001234	ff718193	addi	x3,x3,-9	  x3:0xfffffffb  x3=0xfffffff2
       11935000	      1192	80001238	00000013	addi	x0,x0,0	  x0:0x00000000
       11945000	      1193	8000123c	01c04933	xor	x18,x0,x28	  x0:0x00000000 x28:0x00000000 x18=0x00000000
       11955000	      1194	80001240	c0e7aa93	slti	x21,x15,-1010	 x15:0x00000000 x21=0x00000000
       11965000	      1195	80001244	01b39b13	slli	x22,x7,0x1b	  x7:0x38e24000 x22=0x00000000
       11975000	      1196	80001248	00000d93	addi	x27,x0,0	  x0:0x00000000 x27=0x00000000
       11985000	      1197	8000124c	013a5493	srli	x9,x20,0x13	 x20:0xfffffcf0  x9=0x00001fff
       11995000	      1198	80001250	00300293	addi	x5,x0,3	  x0:0x00000000  x5=0x00000003
       12005000	      1199	80001254	85d2ae13	slti	x28,x5,-1955	  x5:0x00000003 x28=0x00000000
       12015000	      1200	80001258	6b11eb93	ori	x23,x3,1713	  x3:0xfffffff2 x23=0xfffffff3
       12025000	      1201	8000125c	003d8d93	addi	x27,x27,3	 x27:0x00000000 x27=0x00000003
       12035000	      1202	80001260	008df5b3	and	x11,x27,x8	 x27:0x00000003  x8:0x00000000 x11=0x00000000
       12045000	      1203	80001264	7dd08613	addi	x12,x1,2013	  x1:0x00000000 x12=0x000007dd
       12055000	      1204	80001268	fe5d86e3	beq	x27,x5,80001254	 x27:0x00000003  x5:0x00000003
       12065000	      1205	00000000	00000013	addi	x0,x0,0	  x0:0x00000000
       12075000	      1206	80001250	00000013	addi	x0,x0,0	  x0:0x00000000
       12085000	      1207	80001254	85d2ae13	slti	x28,x5,-1955	  x5:0x00000003 x28=0x00000000
       12095000	      1208	80001258	6b11eb93	ori	x23,x3,1713	  x3:0xfffffff2 x23=0xfffffff3
       12105000	      1209	8000125c	003d8d93	addi	x27,x27,3	 x27:0x00000003 x27=0x00000006
       12115000	      1210	80001260	008df5b3	and	x11,x27,x8	 x27:0x00000006  x8:0x00000000 x11=0x00000000
       12125000	      1211	80001264	7dd08613	addi	x12,x1,2013	  x1:0x00000000 x12=0x000007dd
       12135000	      1212	80001268	fe5d86e3	beq	x27,x5,80001254	 x27:0x00000006  x5:0x00000003
       12145000	      1213	8000126c	fad1dae3	bge	x3,x13,80001220	  x3:0xfffffff2 x13:0xffffffee
       12155000	      1214	00000000	00000013	addi	x0,x0,0	  x0:0x00000000
       12165000	      1215	8000121c	00000013	addi	x0,x0,0	  x0:0x00000000
       12175000	      1216	80001220	011d0933	add	x18,x26,x17	 x26:0x0000000b x17:0x00000000 x18=0x0000000b
       12185000	      1217	80001224	38e243b7	lui	x7,0x38e24	  x7=0x38e24000
       12195000	      1218	80001228	baf4b613	sltiu	x12,x9,-1105	  x9:0x00001fff x12=0x00000001
       12205000	      1219	8000122c	003a7ab3	and	x21,x20,x3	 x20:0xfffffcf0  x3:0xfffffff2 x21=0xfffffcf0
       12215000	      1220	80001230	40505433	sra	x8,x0,x5	  x0:0x00000000  x5:0x00000003  x8=0x00000000
       12225000	      1221	80001234	ff718193	addi	x3,x3,-9	  x3:0xfffffff2  x3=0xffffffe9
       12235000	      1222	80001238	00000013	addi	x0,x0,0	  x0:0x00000000
       12245000	      1223	8000123c	01c04933	xor	x18,x0,x28	  x0:0x00000000 x28:0x00000000 x18=0x00000000
       12255000	      1224	80001240	c0e7aa93	slti	x21,x15,-1010	 x15:0x00000000 x21=0x00000000
       12265000	      1225	80001244	01b39b13	slli	x22,x7,0x1b	  x7:0x38e24000 x22=0x00000000
       12275000	      1226	80001248	00000d93	addi	x27,x0,0	  x0:0x00000000 x27=0x00000000
       12285000	      1227	8000124c	013a5493	srli	x9,x20,0x13	 x20:0xfffffcf0  x9=0x00001fff
       12295000	      1228	80001250	00300293	addi	x5,x0,3	  x0:0x00000000  x5=0x00000003
       12305000	      1229	80001254	85d2ae13	slti	x28,x5,-1955	  x5:0x00000003 x28=0x00000000
       12315000	      1230	80001258	6b11eb93	ori	x23,x3,1713	  x3:0xffffffe9 x23=0xfffffff9
       12325000	      1231	8000125c	003d8d93	addi	x27,x27,3	 x27:0x00000000 x27=0x00000003
       12335000	      1232	80001260	008df5b3	and	x11,x27,x8	 x27:0x00000003  x8:0x00000000 x11=0x00000000
       12345000	      1233	80001264	7dd08613	addi	x12,x1,2013	  x1:0x00000000 x12=0x000007dd
       12355000	      1234	80001268	fe5d86e3	beq	x27,x5,80001254	 x27:0x00000003  x5:0x00000003
       12365000	      1235	00000000	00000013	addi	x0,x0,0	  x0:0x00000000
       12375000	      1236	80001250	00000013	addi	x0,x0,0	  x0:0x00000000
       12385000	      1237	80001254	85d2ae13	slti	x28,x5,-1955	  x5:0x00000003 x28=0x00000000
       12395000	      1238	80001258	6b11eb93	ori	x23,x3,1713	  x3:0xffffffe9 x23=0xfffffff9
       12405000	      1239	8000125c	003d8d93	addi	x27,x27,3	 x27:0x00000003 x27=0x00000006
       12415000	      1240	80001260	008df5b3	and	x11,x27,x8	 x27:0x00000006  x8:0x00000000 x11=0x00000000
       12425000	      1241	80001264	7dd08613	addi	x12,x1,2013	  x1:0x00000000 x12=0x000007dd
       12435000	      1242	80001268	fe5d86e3	beq	x27,x5,80001254	 x27:0x00000006  x5:0x00000003
       12445000	      1243	8000126c	fad1dae3	bge	x3,x13,80001220	  x3:0xffffffe9 x13:0xffffffee
       12455000	      1244	80001270	01137bb3	and	x23,x6,x17	  x6:0x00000002 x17:0x00000000 x23=0x00000000
       12465000	      1245	80001274	41ee5b13	srai	x22,x28,0x1e	 x28:0x00000000 x22=0x00000000
       12475000	      1246	80001278	9f524337	lui	x6,0x9f524	  x6=0x9f524000
       12485000	      1247	8000127c	4032d233	sra	x4,x5,x3	  x5:0x00000003  x3:0xffffffe9  x4=0x00000000
       12495000	      1248	80001280	0f995bb7	lui	x23,0xf995	 x23=0x0f995000
       12505000	      1249	80001284	6cf5be17	auipc	x28,0x6cf5b	 x28=0xecf5c280
       12515000	      1250	80001288	01d05e63	bge	x0,x29,800012a4	  x0:0x00000000 x29:0x00000000
       12525000	      1251	00000000	00000013	addi	x0,x0,0	  x0:0x00000000
       12535000	      1252	800012a0	00000013	addi	x0,x0,0	  x0:0x00000000
       12545000	      1253	800012a4	c4020a13	addi	x20,x4,-960	  x4:0x00000000 x20=0xfffffc40
       12555000	      1254	800012a8	001750b3	srl	x1,x14,x1	 x14:0x80009fc4  x1:0x00000000  x1=0x80009fc4
       12565000	      1255	800012ac	05b8d863	bge	x17,x27,800012fc	 x17:0x00000000 x27:0x00000006
       12575000	      1256	800012b0	500295b7	lui	x11,0x50029	 x11=0x50029000
       12585000	      1257	800012b4	bbc86693	ori	x13,x16,-1092	 x16:0x00000003 x13=0xfffffbbf
       12595000	      1258	800012b8	b70ff593	andi	x11,x31,-1168	 x31:0x0abb61f8 x11=0x0abb6170
       12605000	      1259	800012bc	01f3b1b3	sltu	x3,x7,x31	  x7:0x38e24000 x31:0x0abb61f8  x3=0x00000000
       12615000	      1260	800012c0	04b76063	bltu	x14,x11,80001300	 x14:0x80009fc4 x11:0x0abb6170
       12625000	      1261	800012c4	010cdb93	srli	x23,x25,0x10	 x25:0x00000002 x23=0x00000000
       12635000	      1262	800012c8	02a15263	bge	x2,x10,800012ec	  x2:0xf6240000 x10:0xf91950e0
       12645000	      1263	800012cc	003b1433	sll	x8,x22,x3	 x22:0x00000000  x3:0x00000000  x8=0x00000000
       12655000	      1264	800012d0	00d4bab3	sltu	x21,x9,x13	  x9:0x00001fff x13:0xfffffbbf x21=0x00000001
       12665000	      1265	800012d4	29350437	lui	x8,0x29350	  x8=0x29350000
       12675000	      1266	800012d8	0024c0b3	xor	x1,x9,x2	  x9:0x00001fff  x2:0xf6240000  x1=0xf6241fff
       12685000	      1267	800012dc	a060fab7	lui	x21,0xa060f	 x21=0xa060f000
       12695000	      1268	800012e0	e242b893	sltiu	x17,x5,-476	  x5:0x00000003 x17=0x00000001
       12705000	      1269	800012e4	0501f863	bgeu	x3,x16,80001334	  x3:0x00000000 x16:0x00000003
       12715000	      1270	800012e8	414e5913	srai	x18,x28,0x14	 x28:0xecf5c280 x18=0xfffffecf
       12725000	      1271	800012ec	0281c263	blt	x3,x8,80001310	  x3:0x00000000  x8:0x29350000
       12735000	      1272	00000000	00000013	addi	x0,x0,0	  x0:0x00000000
       12745000	      1273	8000130c	00000013	addi	x0,x0,0	  x0:0x00000000
       12755000	      1274	80001310	be70eab7	lui	x21,0xbe70e	 x21=0xbe70e000
       12765000	      1275	80001314	4e2a7213	andi	x4,x20,1250	 x20:0xfffffc40  x4=0x00000440
       12775000	      1276	80001318	02b34263	blt	x6,x11,8000133c	  x6:0x9f524000 x11:0x0abb6170
       12785000	      1277	00000000	00000013	addi	x0,x0,0	  x0:0x00000000
       12795000	      1278	80001338	00000013	addi	x0,x0,0	  x0:0x00000000
       12805000	      1279	8000133c	4188d233	sra	x4,x17,x24	 x17:0x00000001 x24:0xfffffff5  x4=0x00000000
       12815000	      1280	80001340	012729b3	slt	x19,x14,x18	 x14:0x80009fc4 x18:0xfffffecf x19=0x00000001
       12825000	      1281	80001344	0053ce63	blt	x7,x5,80001360	  x7:0x38e24000  x5:0x00000003
       12835000	      1282	80001348	0037c863	blt	x15,x3,80001358	 x15:0x00000000  x3:0x00000000
       12845000	      1283	8000134c	4115d693	srai	x13,x11,0x11	 x11:0x0abb6170 x13=0x0000055d
       12855000	      1284	80001350	622a4a93	xori	x21,x20,1570	 x20:0xfffffc40 x21=0xfffffa62
       12865000	      1285	80001354	00000013	addi	x0,x0,0	  x0:0x00000000
       12875000	      1286	80001358	400c5033	sra	x0,x24,x0	 x24:0xfffffff5  x0:0x00000000
       12885000	      1287	8000135c	00178b33	add	x22,x15,x1	 x15:0x00000000  x1:0xf6241fff x22=0xf6241fff
       12895000	      1288	80001360	015c1213	slli	x4,x24,0x15	 x24:0xfffffff5  x4=0xfea00000
       12905000	      1289	80001364	01a74933	xor	x18,x14,x26	 x14:0x80009fc4 x26:0x0000000b x18=0x80009fcf
       12915000	      1290	80001368	46e2a3b7	lui	x7,0x46e2a	  x7=0x46e2a000
       12925000	      1291	8000136c	00600b13	addi	x22,x0,6	  x0:0x00000000 x22=0x00000006
       12935000	      1292	80001370	ffe00293	addi	x5,x0,-2	  x0:0x00000000  x5=0xfffffffe
       12945000	      1293	80001374	019963b3	or	x7,x18,x25	 x18:0x80009fcf x25:0x00000002  x7=0x80009fcf
       12955000	      1294	80001378	11c50b93	addi	x23,x10,284	 x10:0xf91950e0 x23=0xf91951fc
       12965000	      1295	8000137c	ff8b0b13	addi	x22,x22,-8	 x22:0x00000006 x22=0xfffffffe
       12975000	      1296	80001380	00125e93	srli	x29,x4,0x1	  x4:0xfea00000 x29=0x7f500000
       12985000	      1297	80001384	ff700913	addi	x18,x0,-9	  x0:0x00000000 x18=0xfffffff7
       12995000	      1298	80001388	00800c93	addi	x25,x0,8	  x0:0x00000000 x25=0x00000008
       13005000	      1299	8000138c	4179cc13	xori	x24,x19,1047	 x19:0x00000001 x24=0x00000416
       13015000	      1300	80001390	9005ab93	slti	x23,x11,-1792	 x11:0x0abb6170 x23=0x00000000
       13025000	      1301	80001394	eea5a393	slti	x7,x11,-278	 x11:0x0abb6170  x7=0x00000000
       13035000	      1302	80001398	40b95133	sra	x2,x18,x11	 x18:0xfffffff7 x11:0x0abb6170  x2=0xffffffff
       13045000	      1303	8000139c	0180d093	srli	x1,x1,0x18	  x1:0xf6241fff  x1=0x000000f6
       13055000	      1304	800013a0	3d1bb793	sltiu	x15,x23,977	 x23:0x00000000 x15=0x00000001
       13065000	      1305	800013a4	00290913	addi	x18,x18,2	 x18:0xfffffff7 x18=0xfffffff9
       13075000	      1306	800013a8	40a0dab3	sra	x21,x1,x10	  x1:0x000000f6 x10:0xf91950e0 x21=0x000000f6
       13085000	      1307	800013ac	0a54a793	slti	x15,x9,165	  x9:0x00001fff x15=0x00000000
       13095000	      1308	800013b0	ff9948e3	blt	x18,x25,800013a0	 x18:0xfffffff9 x25:0x00000008
       13105000	      1309	00000000	00000013	addi	x0,x0,0	  x0:0x00000000
       13115000	      1310	8000139c	00000013	addi	x0,x0,0	  x0:0x00000000
       13125000	      1311	800013a0	3d1bb793	sltiu	x15,x23,977	 x23:0x00000000 x15=0x00000001
       13135000	      1312	800013a4	00290913	addi	x18,x18,2	 x18:0xfffffff9 x18=0xfffffffb
       13145000	      1313	800013a8	40a0dab3	sra	x21,x1,x10	  x1:0x000000f6 x10:0xf91950e0 x21=0x000000f6
       13155000	      1314	800013ac	0a54a793	slti	x15,x9,165	  x9:0x00001fff x15=0x00000000
       13165000	      1315	800013b0	ff9948e3	blt	x18,x25,800013a0	 x18:0xfffffffb x25:0x00000008
       13175000	      1316	00000000	00000013	addi	x0,x0,0	  x0:0x00000000
       13185000	      1317	8000139c	00000013	addi	x0,x0,0	  x0:0x00000000
       13195000	      1318	800013a0	3d1bb793	sltiu	x15,x23,977	 x23:0x00000000 x15=0x00000001
       13205000	      1319	800013a4	00290913	addi	x18,x18,2	 x18:0xfffffffb x18=0xfffffffd
       13215000	      1320	800013a8	40a0dab3	sra	x21,x1,x10	  x1:0x000000f6 x10:0xf91950e0 x21=0x000000f6
       13225000	      1321	800013ac	0a54a793	slti	x15,x9,165	  x9:0x00001fff x15=0x00000000
       13235000	      1322	800013b0	ff9948e3	blt	x18,x25,800013a0	 x18:0xfffffffd x25:0x00000008
       13245000	      1323	00000000	00000013	addi	x0,x0,0	  x0:0x00000000
       13255000	      1324	8000139c	00000013	addi	x0,x0,0	  x0:0x00000000
       13265000	      1325	800013a0	3d1bb793	sltiu	x15,x23,977	 x23:0x00000000 x15=0x00000001
       13275000	      1326	800013a4	00290913	addi	x18,x18,2	 x18:0xfffffffd x18=0xffffffff
       13285000	      1327	800013a8	40a0dab3	sra	x21,x1,x10	  x1:0x000000f6 x10:0xf91950e0 x21=0x000000f6
       13295000	      1328	800013ac	0a54a793	slti	x15,x9,165	  x9:0x00001fff x15=0x00000000
       13305000	      1329	800013b0	ff9948e3	blt	x18,x25,800013a0	 x18:0xffffffff x25:0x00000008
       13315000	      1330	00000000	00000013	addi	x0,x0,0	  x0:0x00000000
       13325000	      1331	8000139c	00000013	addi	x0,x0,0	  x0:0x00000000
       13335000	      1332	800013a0	3d1bb793	sltiu	x15,x23,977	 x23:0x00000000 x15=0x00000001
       13345000	      1333	800013a4	00290913	addi	x18,x18,2	 x18:0xffffffff x18=0x00000001
       13355000	      1334	800013a8	40a0dab3	sra	x21,x1,x10	  x1:0x000000f6 x10:0xf91950e0 x21=0x000000f6
       13365000	      1335	800013ac	0a54a793	slti	x15,x9,165	  x9:0x00001fff x15=0x00000000
       13375000	      1336	800013b0	ff9948e3	blt	x18,x25,800013a0	 x18:0x00000001 x25:0x00000008
       13385000	      1337	00000000	00000013	addi	x0,x0,0	  x0:0x00000000
       13395000	      1338	8000139c	00000013	addi	x0,x0,0	  x0:0x00000000
       13405000	      1339	800013a0	3d1bb793	sltiu	x15,x23,977	 x23:0x00000000 x15=0x00000001
       13415000	      1340	800013a4	00290913	addi	x18,x18,2	 x18:0x00000001 x18=0x00000003
       13425000	      1341	800013a8	40a0dab3	sra	x21,x1,x10	  x1:0x000000f6 x10:0xf91950e0 x21=0x000000f6
       13435000	      1342	800013ac	0a54a793	slti	x15,x9,165	  x9:0x00001fff x15=0x00000000
       13445000	      1343	800013b0	ff9948e3	blt	x18,x25,800013a0	 x18:0x00000003 x25:0x00000008
       13455000	      1344	00000000	00000013	addi	x0,x0,0	  x0:0x00000000
       13465000	      1345	8000139c	00000013	addi	x0,x0,0	  x0:0x00000000
       13475000	      1346	800013a0	3d1bb793	sltiu	x15,x23,977	 x23:0x00000000 x15=0x00000001
       13485000	      1347	800013a4	00290913	addi	x18,x18,2	 x18:0x00000003 x18=0x00000005
       13495000	      1348	800013a8	40a0dab3	sra	x21,x1,x10	  x1:0x000000f6 x10:0xf91950e0 x21=0x000000f6
       13505000	      1349	800013ac	0a54a793	slti	x15,x9,165	  x9:0x00001fff x15=0x00000000
       13515000	      1350	800013b0	ff9948e3	blt	x18,x25,800013a0	 x18:0x00000005 x25:0x00000008
       13525000	      1351	00000000	00000013	addi	x0,x0,0	  x0:0x00000000
       13535000	      1352	8000139c	00000013	addi	x0,x0,0	  x0:0x00000000
       13545000	      1353	800013a0	3d1bb793	sltiu	x15,x23,977	 x23:0x00000000 x15=0x00000001
       13555000	      1354	800013a4	00290913	addi	x18,x18,2	 x18:0x00000005 x18=0x00000007
       13565000	      1355	800013a8	40a0dab3	sra	x21,x1,x10	  x1:0x000000f6 x10:0xf91950e0 x21=0x000000f6
       13575000	      1356	800013ac	0a54a793	slti	x15,x9,165	  x9:0x00001fff x15=0x00000000
       13585000	      1357	800013b0	ff9948e3	blt	x18,x25,800013a0	 x18:0x00000007 x25:0x00000008
       13595000	      1358	00000000	00000013	addi	x0,x0,0	  x0:0x00000000
       13605000	      1359	8000139c	00000013	addi	x0,x0,0	  x0:0x00000000
       13615000	      1360	800013a0	3d1bb793	sltiu	x15,x23,977	 x23:0x00000000 x15=0x00000001
       13625000	      1361	800013a4	00290913	addi	x18,x18,2	 x18:0x00000007 x18=0x00000009
       13635000	      1362	800013a8	40a0dab3	sra	x21,x1,x10	  x1:0x000000f6 x10:0xf91950e0 x21=0x000000f6
       13645000	      1363	800013ac	0a54a793	slti	x15,x9,165	  x9:0x00001fff x15=0x00000000
       13655000	      1364	800013b0	ff9948e3	blt	x18,x25,800013a0	 x18:0x00000009 x25:0x00000008
       13665000	      1365	800013b4	005fdbb3	srl	x23,x31,x5	 x31:0x0abb61f8  x5:0xfffffffe x23=0x00000000
       13675000	      1366	800013b8	fc5b00e3	beq	x22,x5,80001378	 x22:0xfffffffe  x5:0xfffffffe
       13685000	      1367	00000000	00000013	addi	x0,x0,0	  x0:0x00000000
       13695000	      1368	80001374	00000013	addi	x0,x0,0	  x0:0x00000000
       13705000	      1369	80001378	11c50b93	addi	x23,x10,284	 x10:0xf91950e0 x23=0xf91951fc
       13715000	      1370	8000137c	ff8b0b13	addi	x22,x22,-8	 x22:0xfffffffe x22=0xfffffff6
       13725000	      1371	80001380	00125e93	srli	x29,x4,0x1	  x4:0xfea00000 x29=0x7f500000
       13735000	      1372	80001384	ff700913	addi	x18,x0,-9	  x0:0x00000000 x18=0xfffffff7
       13745000	      1373	80001388	00800c93	addi	x25,x0,8	  x0:0x00000000 x25=0x00000008
       13755000	      1374	8000138c	4179cc13	xori	x24,x19,1047	 x19:0x00000001 x24=0x00000416
       13765000	      1375	80001390	9005ab93	slti	x23,x11,-1792	 x11:0x0abb6170 x23=0x00000000
       13775000	      1376	80001394	eea5a393	slti	x7,x11,-278	 x11:0x0abb6170  x7=0x00000000
       13785000	      1377	80001398	40b95133	sra	x2,x18,x11	 x18:0xfffffff7 x11:0x0abb6170  x2=0xffffffff
       13795000	      1378	8000139c	0180d093	srli	x1,x1,0x18	  x1:0x000000f6  x1=0x00000000
       13805000	      1379	800013a0	3d1bb793	sltiu	x15,x23,977	 x23:0x00000000 x15=0x00000001
       13815000	      1380	800013a4	00290913	addi	x18,x18,2	 x18:0xfffffff7 x18=0xfffffff9
       13825000	      1381	800013a8	40a0dab3	sra	x21,x1,x10	  x1:0x00000000 x10:0xf91950e0 x21=0x00000000
       13835000	      1382	800013ac	0a54a793	slti	x15,x9,165	  x9:0x00001fff x15=0x00000000
       13845000	      1383	800013b0	ff9948e3	blt	x18,x25,800013a0	 x18:0xfffffff9 x25:0x00000008
       13855000	      1384	00000000	00000013	addi	x0,x0,0	  x0:0x00000000
       13865000	      1385	8000139c	00000013	addi	x0,x0,0	  x0:0x00000000
       13875000	      1386	800013a0	3d1bb793	sltiu	x15,x23,977	 x23:0x00000000 x15=0x00000001
       13885000	      1387	800013a4	00290913	addi	x18,x18,2	 x18:0xfffffff9 x18=0xfffffffb
       13895000	      1388	800013a8	40a0dab3	sra	x21,x1,x10	  x1:0x00000000 x10:0xf91950e0 x21=0x00000000
       13905000	      1389	800013ac	0a54a793	slti	x15,x9,165	  x9:0x00001fff x15=0x00000000
       13915000	      1390	800013b0	ff9948e3	blt	x18,x25,800013a0	 x18:0xfffffffb x25:0x00000008
       13925000	      1391	00000000	00000013	addi	x0,x0,0	  x0:0x00000000
       13935000	      1392	8000139c	00000013	addi	x0,x0,0	  x0:0x00000000
       13945000	      1393	800013a0	3d1bb793	sltiu	x15,x23,977	 x23:0x00000000 x15=0x00000001
       13955000	      1394	800013a4	00290913	addi	x18,x18,2	 x18:0xfffffffb x18=0xfffffffd
       13965000	      1395	800013a8	40a0dab3	sra	x21,x1,x10	  x1:0x00000000 x10:0xf91950e0 x21=0x00000000
       13975000	      1396	800013ac	0a54a793	slti	x15,x9,165	  x9:0x00001fff x15=0x00000000
       13985000	      1397	800013b0	ff9948e3	blt	x18,x25,800013a0	 x18:0xfffffffd x25:0x00000008
       13995000	      1398	00000000	00000013	addi	x0,x0,0	  x0:0x00000000
       14005000	      1399	8000139c	00000013	addi	x0,x0,0	  x0:0x00000000
       14015000	      1400	800013a0	3d1bb793	sltiu	x15,x23,977	 x23:0x00000000 x15=0x00000001
       14025000	      1401	800013a4	00290913	addi	x18,x18,2	 x18:0xfffffffd x18=0xffffffff
       14035000	      1402	800013a8	40a0dab3	sra	x21,x1,x10	  x1:0x00000000 x10:0xf91950e0 x21=0x00000000
       14045000	      1403	800013ac	0a54a793	slti	x15,x9,165	  x9:0x00001fff x15=0x00000000
       14055000	      1404	800013b0	ff9948e3	blt	x18,x25,800013a0	 x18:0xffffffff x25:0x00000008
       14065000	      1405	00000000	00000013	addi	x0,x0,0	  x0:0x00000000
       14075000	      1406	8000139c	00000013	addi	x0,x0,0	  x0:0x00000000
       14085000	      1407	800013a0	3d1bb793	sltiu	x15,x23,977	 x23:0x00000000 x15=0x00000001
       14095000	      1408	800013a4	00290913	addi	x18,x18,2	 x18:0xffffffff x18=0x00000001
       14105000	      1409	800013a8	40a0dab3	sra	x21,x1,x10	  x1:0x00000000 x10:0xf91950e0 x21=0x00000000
       14115000	      1410	800013ac	0a54a793	slti	x15,x9,165	  x9:0x00001fff x15=0x00000000
       14125000	      1411	800013b0	ff9948e3	blt	x18,x25,800013a0	 x18:0x00000001 x25:0x00000008
       14135000	      1412	00000000	00000013	addi	x0,x0,0	  x0:0x00000000
       14145000	      1413	8000139c	00000013	addi	x0,x0,0	  x0:0x00000000
       14155000	      1414	800013a0	3d1bb793	sltiu	x15,x23,977	 x23:0x00000000 x15=0x00000001
       14165000	      1415	800013a4	00290913	addi	x18,x18,2	 x18:0x00000001 x18=0x00000003
       14175000	      1416	800013a8	40a0dab3	sra	x21,x1,x10	  x1:0x00000000 x10:0xf91950e0 x21=0x00000000
       14185000	      1417	800013ac	0a54a793	slti	x15,x9,165	  x9:0x00001fff x15=0x00000000
       14195000	      1418	800013b0	ff9948e3	blt	x18,x25,800013a0	 x18:0x00000003 x25:0x00000008
       14205000	      1419	00000000	00000013	addi	x0,x0,0	  x0:0x00000000
       14215000	      1420	8000139c	00000013	addi	x0,x0,0	  x0:0x00000000
       14225000	      1421	800013a0	3d1bb793	sltiu	x15,x23,977	 x23:0x00000000 x15=0x00000001
       14235000	      1422	800013a4	00290913	addi	x18,x18,2	 x18:0x00000003 x18=0x00000005
       14245000	      1423	800013a8	40a0dab3	sra	x21,x1,x10	  x1:0x00000000 x10:0xf91950e0 x21=0x00000000
       14255000	      1424	800013ac	0a54a793	slti	x15,x9,165	  x9:0x00001fff x15=0x00000000
       14265000	      1425	800013b0	ff9948e3	blt	x18,x25,800013a0	 x18:0x00000005 x25:0x00000008
       14275000	      1426	00000000	00000013	addi	x0,x0,0	  x0:0x00000000
       14285000	      1427	8000139c	00000013	addi	x0,x0,0	  x0:0x00000000
       14295000	      1428	800013a0	3d1bb793	sltiu	x15,x23,977	 x23:0x00000000 x15=0x00000001
       14305000	      1429	800013a4	00290913	addi	x18,x18,2	 x18:0x00000005 x18=0x00000007
       14315000	      1430	800013a8	40a0dab3	sra	x21,x1,x10	  x1:0x00000000 x10:0xf91950e0 x21=0x00000000
       14325000	      1431	800013ac	0a54a793	slti	x15,x9,165	  x9:0x00001fff x15=0x00000000
       14335000	      1432	800013b0	ff9948e3	blt	x18,x25,800013a0	 x18:0x00000007 x25:0x00000008
       14345000	      1433	00000000	00000013	addi	x0,x0,0	  x0:0x00000000
       14355000	      1434	8000139c	00000013	addi	x0,x0,0	  x0:0x00000000
       14365000	      1435	800013a0	3d1bb793	sltiu	x15,x23,977	 x23:0x00000000 x15=0x00000001
       14375000	      1436	800013a4	00290913	addi	x18,x18,2	 x18:0x00000007 x18=0x00000009
       14385000	      1437	800013a8	40a0dab3	sra	x21,x1,x10	  x1:0x00000000 x10:0xf91950e0 x21=0x00000000
       14395000	      1438	800013ac	0a54a793	slti	x15,x9,165	  x9:0x00001fff x15=0x00000000
       14405000	      1439	800013b0	ff9948e3	blt	x18,x25,800013a0	 x18:0x00000009 x25:0x00000008
       14415000	      1440	800013b4	005fdbb3	srl	x23,x31,x5	 x31:0x0abb61f8  x5:0xfffffffe x23=0x00000000
       14425000	      1441	800013b8	fc5b00e3	beq	x22,x5,80001378	 x22:0xfffffff6  x5:0xfffffffe
       14435000	      1442	800013bc	4001d3b3	sra	x7,x3,x0	  x3:0x00000000  x0:0x00000000  x7=0x00000000
       14445000	      1443	800013c0	bc8df913	andi	x18,x27,-1080	 x27:0x00000006 x18=0x00000000
       14455000	      1444	800013c4	8ac48e13	addi	x28,x9,-1876	  x9:0x00001fff x28=0x000018ab
       14465000	      1445	800013c8	3cb77097	auipc	x1,0x3cb77	  x1=0xbcb783c4
       14475000	      1446	800013cc	41dd5593	srai	x11,x26,0x1d	 x26:0x0000000b x11=0x00000000
       14485000	      1447	800013d0	0077fc63	bgeu	x15,x7,800013e8	 x15:0x00000000  x7:0x00000000
       14495000	      1448	00000000	00000013	addi	x0,x0,0	  x0:0x00000000
       14505000	      1449	800013e4	00000013	addi	x0,x0,0	  x0:0x00000000
       14515000	      1450	800013e8	5b0be093	ori	x1,x23,1456	 x23:0x00000000  x1=0x000005b0
       14525000	      1451	800013ec	00eeeb33	or	x22,x29,x14	 x29:0x7f500000 x14:0x80009fc4 x22=0xff509fc4
       14535000	      1452	800013f0	a8bb2393	slti	x7,x22,-1397	 x22:0xff509fc4  x7=0x00000001
       14545000	      1453	800013f4	04517863	bgeu	x2,x5,80001444	  x2:0xffffffff  x5:0xfffffffe
       14555000	      1454	00000000	00000013	addi	x0,x0,0	  x0:0x00000000
       14565000	      1455	80001440	00000013	addi	x0,x0,0	  x0:0x00000000
       14575000	      1456	80001444	015bdb13	srli	x22,x23,0x15	 x23:0x00000000 x22=0x00000000
       14585000	      1457	80001448	405d8db3	sub	x27,x27,x5	 x27:0x00000006  x5:0xfffffffe x27=0x00000008
       14595000	      1458	8000144c	000d03b3	add	x7,x26,x0	 x26:0x0000000b  x0:0x00000000  x7=0x0000000b
       14605000	      1459	80001450	bb6bba13	sltiu	x20,x23,-1098	 x23:0x00000000 x20=0x00000001
       14615000	      1460	80001454	aec58d93	addi	x27,x11,-1300	 x11:0x00000000 x27=0xfffffaec
       14625000	      1461	80001458	7964ed93	ori	x27,x9,1942	  x9:0x00001fff x27=0x00001fff
       14635000	      1462	8000145c	05245063	bge	x8,x18,8000149c	  x8:0x29350000 x18:0x00000000
       14645000	      1463	00000000	00000013	addi	x0,x0,0	  x0:0x00000000
       14655000	      1464	80001498	00000013	addi	x0,x0,0	  x0:0x00000000
       14665000	      1465	8000149c	00000013	addi	x0,x0,0	  x0:0x00000000
       14675000	      1466	800014a0	002e7b33	and	x22,x28,x2	 x28:0x000018ab  x2:0xffffffff x22=0x000018ab
       14685000	      1467	800014a4	40908eb3	sub	x29,x1,x9	  x1:0x000005b0  x9:0x00001fff x29=0xffffe5b1
       14695000	      1468	800014a8	00000013	addi	x0,x0,0	  x0:0x00000000
       14705000	      1469	800014ac	237fd117	auipc	x2,0x237fd	  x2=0xa37fe4a8
       14715000	      1470	800014b0	859e0a97	auipc	x21,0x859e0	 x21=0x059e14ac
       14725000	      1471	800014b4	00075bb3	srl	x23,x14,x0	 x14:0x80009fc4  x0:0x00000000 x23=0x80009fc4
       14735000	      1472	800014b8	f90e7913	andi	x18,x28,-112	 x28:0x000018ab x18=0x00001880
       14745000	      1473	800014bc	83020893	addi	x17,x4,-2000	  x4:0xfea00000 x17=0xfe9ff830
       14755000	      1474	800014c0	005e5863	bge	x28,x5,800014d0	 x28:0x000018ab  x5:0xfffffffe
       14765000	      1475	00000000	00000013	addi	x0,x0,0	  x0:0x00000000
       14775000	      1476	800014cc	00000013	addi	x0,x0,0	  x0:0x00000000
       14785000	      1477	800014d0	ed314797	auipc	x15,0xed314	 x15=0x6d3154cc
       14795000	      1478	800014d4	01220fb3	add	x31,x4,x18	  x4:0xfea00000 x18:0x00001880 x31=0xfea01880
       14805000	      1479	800014d8	01155593	srli	x11,x10,0x11	 x10:0xf91950e0 x11=0x00007c8c
       14815000	      1480	800014dc	01e92c33	slt	x24,x18,x30	 x18:0x00001880 x30:0x80009f34 x24=0x00000000
       14825000	      1481	800014e0	80314db7	lui	x27,0x80314	 x27=0x80314000
       14835000	      1482	800014e4	029f5a63	bge	x30,x9,80001518	 x30:0x80009f34  x9:0x00001fff
       14845000	      1483	800014e8	00d037b3	sltu	x15,x0,x13	  x0:0x00000000 x13:0x0000055d x15=0x00000001
       14855000	      1484	800014ec	02764e63	blt	x12,x7,80001528	 x12:0x000007dd  x7:0x0000000b
       14865000	      1485	800014f0	008408b3	add	x17,x8,x8	  x8:0x29350000  x8:0x29350000 x17=0x526a0000
       14875000	      1486	800014f4	01a91413	slli	x8,x18,0x1a	 x18:0x00001880  x8=0x00000000
       14885000	      1487	800014f8	fbcc62b7	lui	x5,0xfbcc6	  x5=0xfbcc6000
       14895000	      1488	800014fc	d2436613	ori	x12,x6,-732	  x6:0x9f524000 x12=0xfffffd24
       14905000	      1489	80001500	01f5d413	srli	x8,x11,0x1f	 x11:0x00007c8c  x8=0x00000000
       14915000	      1490	80001504	002e9bb3	sll	x23,x29,x2	 x29:0xffffe5b1  x2:0xa37fe4a8 x23=0xffe5b100
       14925000	      1491	80001508	dc6f1197	auipc	x3,0xdc6f1	  x3=0x5c6f2504
       14935000	      1492	8000150c	00c0c433	xor	x8,x1,x12	  x1:0x000005b0 x12:0xfffffd24  x8=0xfffff894
       14945000	      1493	80001510	69842213	slti	x4,x8,1688	  x8:0xfffff894  x4=0x00000001
       14955000	      1494	80001514	01445bb3	srl	x23,x8,x20	  x8:0xfffff894 x20:0x00000001 x23=0x7ffffc4a
       14965000	      1495	80001518	5484e017	auipc	x0,0x5484e	
       14975000	      1496	8000151c	01d153b3	srl	x7,x2,x29	  x2:0xa37fe4a8 x29:0xffffe5b1  x7=0x000051bf
       14985000	      1497	80001520	01e14cb3	xor	x25,x2,x30	  x2:0xa37fe4a8 x30:0x80009f34 x25=0x237f7b9c
       14995000	      1498	80001524	40eadb33	sra	x22,x21,x14	 x21:0x059e14ac x14:0x80009fc4 x22=0x0059e14a
       15005000	      1499	80001528	0502f863	bgeu	x5,x16,80001578	  x5:0xfbcc6000 x16:0x00000003
       15015000	      1500	00000000	00000013	addi	x0,x0,0	  x0:0x00000000
       15025000	      1501	80001574	00000013	addi	x0,x0,0	  x0:0x00000000
       15035000	      1502	80001578	00cf1133	sll	x2,x30,x12	 x30:0x80009f34 x12:0xfffffd24  x2=0x0009f340
       15045000	      1503	8000157c	04691663	bne	x18,x6,800015c8	 x18:0x00001880  x6:0x9f524000
       15055000	      1504	00000000	00000013	addi	x0,x0,0	  x0:0x00000000
       15065000	      1505	800015c4	00000013	addi	x0,x0,0	  x0:0x00000000
       15075000	      1506	800015c8	401e0b33	sub	x22,x28,x1	 x28:0x000018ab  x1:0x000005b0 x22=0x000012fb
       15085000	      1507	800015cc	41bd0233	sub	x4,x26,x27	 x26:0x0000000b x27:0x80314000  x4=0x7fcec00b
       15095000	      1508	800015d0	557ea193	slti	x3,x29,1367	 x29:0xffffe5b1  x3=0x00000001
       15105000	      1509	800015d4	01effc63	bgeu	x31,x30,800015ec	 x31:0xfea01880 x30:0x80009f34
       15115000	      1510	00000000	00000013	addi	x0,x0,0	  x0:0x00000000
       15125000	      1511	800015e8	00000013	addi	x0,x0,0	  x0:0x00000000
       15135000	      1512	800015ec	00b25193	srli	x3,x4,0xb	  x4:0x7fcec00b  x3=0x000ff9d8
       15145000	      1513	800015f0	013cd493	srli	x9,x25,0x13	 x25:0x237f7b9c  x9=0x0000046f
       15155000	      1514	800015f4	014443b3	xor	x7,x8,x20	  x8:0xfffff894 x20:0x00000001  x7=0xfffff895
       15165000	      1515	800015f8	4b410093	addi	x1,x2,1204	  x2:0x0009f340  x1=0x0009f7f4
       15175000	      1516	800015fc	0225c263	blt	x11,x2,80001620	 x11:0x00007c8c  x2:0x0009f340
       15185000	      1517	00000000	00000013	addi	x0,x0,0	  x0:0x00000000
       15195000	      1518	8000161c	00000013	addi	x0,x0,0	  x0:0x00000000
       15205000	      1519	80001620	44788e93	addi	x29,x17,1095	 x17:0x526a0000 x29=0x526a0447
       15215000	      1520	80001624	0068c533	xor	x10,x17,x6	 x17:0x526a0000  x6:0x9f524000 x10=0xcd384000
       15225000	      1521	80001628	01e0a1b3	slt	x3,x1,x30	  x1:0x0009f7f4 x30:0x80009f34  x3=0x00000000
       15235000	      1522	8000162c	ff700f93	addi	x31,x0,-9	  x0:0x00000000 x31=0xfffffff7
       15245000	      1523	80001630	01701133	sll	x2,x0,x23	  x0:0x00000000 x23:0x7ffffc4a  x2=0x00000000
       15255000	      1524	80001634	ffb00613	addi	x12,x0,-5	  x0:0x00000000 x12=0xfffffffb
       15265000	      1525	80001638	45822513	slti	x10,x4,1112	  x4:0x7fcec00b x10=0x00000000
       15275000	      1526	8000163c	007419b3	sll	x19,x8,x7	  x8:0xfffff894  x7:0xfffff895 x19=0x12800000
       15285000	      1527	80001640	ab653913	sltiu	x18,x10,-1354	 x10:0x00000000 x18=0x00000001
       15295000	      1528	80001644	004f8f93	addi	x31,x31,4	 x31:0xfffffff7 x31=0xfffffffb
       15305000	      1529	80001648	00d5cb33	xor	x22,x11,x13	 x11:0x00007c8c x13:0x0000055d x22=0x000079d1
       15315000	      1530	8000164c	00800793	addi	x15,x0,8	  x0:0x00000000 x15=0x00000008
       15325000	      1531	80001650	ffd00d93	addi	x27,x0,-3	  x0:0x00000000 x27=0xfffffffd
       15335000	      1532	80001654	41dc0533	sub	x10,x24,x29	 x24:0x00000000 x29:0x526a0447 x10=0xad95fbb9
       15345000	      1533	80001658	40e1d013	srai	x0,x3,0xe	  x3:0x00000000
       15355000	      1534	8000165c	6ee4b893	sltiu	x17,x9,1774	  x9:0x0000046f x17=0x00000001
       15365000	      1535	80001660	ff978793	addi	x15,x15,-7	 x15:0x00000008 x15=0x00000001
       15375000	      1536	80001664	00000013	addi	x0,x0,0	  x0:0x00000000
       15385000	      1537	80001668	ffb7d6e3	bge	x15,x27,80001654	 x15:0x00000001 x27:0xfffffffd
       15395000	      1538	00000000	00000013	addi	x0,x0,0	  x0:0x00000000
       15405000	      1539	80001650	00000013	addi	x0,x0,0	  x0:0x00000000
       15415000	      1540	80001654	41dc0533	sub	x10,x24,x29	 x24:0x00000000 x29:0x526a0447 x10=0xad95fbb9
       15425000	      1541	80001658	40e1d013	srai	x0,x3,0xe	  x3:0x00000000
       15435000	      1542	8000165c	6ee4b893	sltiu	x17,x9,1774	  x9:0x0000046f x17=0x00000001
       15445000	      1543	80001660	ff978793	addi	x15,x15,-7	 x15:0x00000001 x15=0xfffffffa
       15455000	      1544	80001664	00000013	addi	x0,x0,0	  x0:0x00000000
       15465000	      1545	80001668	ffb7d6e3	bge	x15,x27,80001654	 x15:0xfffffffa x27:0xfffffffd
       15475000	      1546	8000166c	68573e97	auipc	x29,0x68573	 x29=0xe8574668
       15485000	      1547	80001670	40dd5bb3	sra	x23,x26,x13	 x26:0x0000000b x13:0x0000055d x23=0x00000000
       15495000	      1548	80001674	41b203b3	sub	x7,x4,x27	  x4:0x7fcec00b x27:0xfffffffd  x7=0x7fcec00e
       15505000	      1549	80001678	015d5513	srli	x10,x26,0x15	 x26:0x0000000b x10=0x00000000
       15515000	      1550	8000167c	3dc79317	auipc	x6,0x3dc79	  x6=0xbdc7a678
       15525000	      1551	80001680	00000013	addi	x0,x0,0	  x0:0x00000000
       15535000	      1552	80001684	b0bd1497	auipc	x9,0xb0bd1	  x9=0x30bd2680
       15545000	      1553	80001688	d00069b7	lui	x19,0xd0006	 x19=0xd0006000
       15555000	      1554	8000168c	011a9193	slli	x3,x21,0x11	 x21:0x059e14ac  x3=0x29580000
       15565000	      1555	80001690	0115a9b3	slt	x19,x11,x17	 x11:0x00007c8c x17:0x00000001 x19=0x00000000
       15575000	      1556	80001694	01d3a4b3	slt	x9,x7,x29	  x7:0x7fcec00e x29:0xe8574668  x9=0x00000000
       15585000	      1557	80001698	00ce1a13	slli	x20,x28,0xc	 x28:0x000018ab x20=0x018ab000
       15595000	      1558	8000169c	facf92e3	bne	x31,x12,80001640	 x31:0xfffffffb x12:0xfffffffb
       15605000	      1559	800016a0	00000013	addi	x0,x0,0	  x0:0x00000000
       15615000	      1560	800016a4	0184dc13	srli	x24,x9,0x18	  x9:0x00000000 x24=0x00000000
       15625000	      1561	800016a8	8fab8517	auipc	x10,0x8fab8	 x10=0x0fab96a4
       15635000	      1562	800016ac	4a7fcf93	xori	x31,x31,1191	 x31:0xfffffffb x31=0xfffffb5c
       15645000	      1563	800016b0	00000013	addi	x0,x0,0	  x0:0x00000000
       15655000	      1564	800016b4	01bf0463	beq	x30,x27,800016bc	 x30:0x80009f34 x27:0xfffffffd
       15665000	      1565	800016b8	015231b3	sltu	x3,x4,x21	  x4:0x7fcec00b x21:0x059e14ac  x3=0x00000000
       15675000	      1566	800016bc	d1330c13	addi	x24,x6,-749	  x6:0xbdc7a678 x24=0xbdc7a38b
       15685000	      1567	800016c0	01f8d6b3	srl	x13,x17,x31	 x17:0x00000001 x31:0xfffffb5c x13=0x00000000
       15695000	      1568	800016c4	006b52b3	srl	x5,x22,x6	 x22:0x000079d1  x6:0xbdc7a678  x5=0x00000000
       15705000	      1569	800016c8	edf78293	addi	x5,x15,-289	 x15:0xfffffffa  x5=0xfffffed9
       15715000	      1570	800016cc	019bfa63	bgeu	x23,x25,800016e0	 x23:0x00000000 x25:0x237f7b9c
       15725000	      1571	800016d0	29cff313	andi	x6,x31,668	 x31:0xfffffb5c  x6=0x0000021c
       15735000	      1572	800016d4	018adb93	srli	x23,x21,0x18	 x21:0x059e14ac x23=0x00000005
       15745000	      1573	800016d8	00000013	addi	x0,x0,0	  x0:0x00000000
       15755000	      1574	800016dc	00a29db3	sll	x27,x5,x10	  x5:0xfffffed9 x10:0x0fab96a4 x27=0xffffed90
       15765000	      1575	800016e0	b543f413	andi	x8,x7,-1196	  x7:0x7fcec00e  x8=0x7fcec004
       15775000	      1576	800016e4	00a50bb3	add	x23,x10,x10	 x10:0x0fab96a4 x10:0x0fab96a4 x23=0x1f572d48
       15785000	      1577	800016e8	0d462a93	slti	x21,x12,212	 x12:0xfffffffb x21=0x00000001
       15795000	      1578	800016ec	40ad0333	sub	x6,x26,x10	 x26:0x0000000b x10:0x0fab96a4  x6=0xf0546967
       15805000	      1579	800016f0	05624863	blt	x4,x22,80001740	  x4:0x7fcec00b x22:0x000079d1
       15815000	      1580	800016f4	418002b3	sub	x5,x0,x24	  x0:0x00000000 x24:0xbdc7a38b  x5=0x42385c75
       15825000	      1581	800016f8	40895e93	srai	x29,x18,0x8	 x18:0x00000001 x29=0x00000000
       15835000	      1582	800016fc	01b3f0b3	and	x1,x7,x27	  x7:0x7fcec00e x27:0xffffed90  x1=0x7fcec000
       15845000	      1583	80001700	532a6213	ori	x4,x20,1330	 x20:0x018ab000  x4=0x018ab532
       15855000	      1584	80001704	5120a693	slti	x13,x1,1298	  x1:0x7fcec000 x13=0x00000000
       15865000	      1585	80001708	03131663	bne	x6,x17,80001734	  x6:0xf0546967 x17:0x00000001
       15875000	      1586	00000000	00000013	addi	x0,x0,0	  x0:0x00000000
       15885000	      1587	80001730	00000013	addi	x0,x0,0	  x0:0x00000000
       15895000	      1588	80001734	410802b3	sub	x5,x16,x16	 x16:0x00000003 x16:0x00000003  x5=0x00000000
       15905000	      1589	80001738	9ba11397	auipc	x7,0x9ba11	  x7=0x1ba12734
       15915000	      1590	8000173c	003cc263	blt	x25,x3,80001740	 x25:0x237f7b9c  x3:0x00000000
       15925000	      1591	80001740	006cde33	srl	x28,x25,x6	 x25:0x237f7b9c  x6:0xf0546967 x28=0x0046fef7
       15935000	      1592	80001744	4162da13	srai	x20,x5,0x16	  x5:0x00000000 x20=0x00000000
       15945000	      1593	80001748	17700493	addi	x9,x0,375	  x0:0x00000000  x9=0x00000177
       15955000	      1594	8000174c	00d4cb33	xor	x22,x9,x13	  x9:0x00000177 x13:0x00000000 x22=0x00000177
       15965000	      1595	80001750	f0784593	xori	x11,x16,-249	 x16:0x00000003 x11=0xffffff04
       15975000	      1596	80001754	00ea5b33	srl	x22,x20,x14	 x20:0x00000000 x14:0x80009fc4 x22=0x00000000
       15985000	      1597	80001758	41168533	sub	x10,x13,x17	 x13:0x00000000 x17:0x00000001 x10=0xffffffff
       15995000	      1598	8000175c	f27b7137	lui	x2,0xf27b7	  x2=0xf27b7000
       16005000	      1599	80001760	009f9233	sll	x4,x31,x9	 x31:0xfffffb5c  x9:0x00000177  x4=0xae000000
       16015000	      1600	80001764	adf40d93	addi	x27,x8,-1313	  x8:0x7fcec004 x27=0x7fcebae3
       16025000	      1601	80001768	003a5db3	srl	x27,x20,x3	 x20:0x00000000  x3:0x00000000 x27=0x00000000
       16035000	      1602	8000176c	0061de93	srli	x29,x3,0x6	  x3:0x00000000 x29=0x00000000
       16045000	      1603	80001770	0086d493	srli	x9,x13,0x8	 x13:0x00000000  x9=0x00000000
       16055000	      1604	80001774	01ad3933	sltu	x18,x26,x26	 x26:0x0000000b x26:0x0000000b x18=0x00000000
       16065000	      1605	80001778	a08212b7	lui	x5,0xa0821	  x5=0xa0821000
       16075000	      1606	8000177c	df91e297	auipc	x5,0xdf91e	  x5=0x5f91f778
       16085000	      1607	80001780	40450bb3	sub	x23,x10,x4	 x10:0xffffffff  x4:0xae000000 x23=0x51ffffff
       16095000	      1608	80001784	004fb4b3	sltu	x9,x31,x4	 x31:0xfffffb5c  x4:0xae000000  x9=0x00000000
       16105000	      1609	80001788	003427b3	slt	x15,x8,x3	  x8:0x7fcec004  x3:0x00000000 x15=0x00000000
       16115000	      1610	8000178c	00b1dc13	srli	x24,x3,0xb	  x3:0x00000000 x24=0x00000000
       16125000	      1611	80001790	01d39913	slli	x18,x7,0x1d	  x7:0x1ba12734 x18=0x80000000
       16135000	      1612	80001794	00545193	srli	x3,x8,0x5	  x8:0x7fcec004  x3=0x03fe7600
       16145000	      1613	80001798	00418e33	add	x28,x3,x4	  x3:0x03fe7600  x4:0xae000000 x28=0xb1fe7600
       16155000	      1614	8000179c	3ab5f613	andi	x12,x11,939	 x11:0xffffff04 x12=0x00000300
       16165000	      1615	800017a0	0044d113	srli	x2,x9,0x4	  x9:0x00000000  x2=0x00000000
       16175000	      1616	800017a4	0172ea63	bltu	x5,x23,800017b8	  x5:0x5f91f778 x23:0x51ffffff
       16185000	      1617	800017a8	040ac063	blt	x21,x0,800017e8	 x21:0x00000001  x0:0x00000000
       16195000	      1618	800017ac	003f62b3	or	x5,x30,x3	 x30:0x80009f34  x3:0x03fe7600  x5=0x83feff34
       16205000	      1619	800017b0	0006d4b3	srl	x9,x13,x0	 x13:0x00000000  x0:0x00000000  x9=0x00000000
       16215000	      1620	800017b4	7ecf8413	addi	x8,x31,2028	 x31:0xfffffb5c  x8=0x00000348
       16225000	      1621	800017b8	002db4b3	sltu	x9,x27,x2	 x27:0x00000000  x2:0x00000000  x9=0x00000000
       16235000	      1622	800017bc	c3037393	andi	x7,x6,-976	  x6:0xf0546967  x7=0xf0546820
       16245000	      1623	800017c0	013a6263	bltu	x20,x19,800017c4	 x20:0x00000000 x19:0x00000000
       16255000	      1624	800017c4	0037d1b3	srl	x3,x15,x3	 x15:0x00000000  x3:0x03fe7600  x3=0x00000000
       16265000	      1625	800017c8	9a0aa113	slti	x2,x21,-1632	 x21:0x00000001  x2=0x00000000
       16275000	      1626	800017cc	92b46793	ori	x15,x8,-1749	  x8:0x00000348 x15=0xfffffb6b
       16285000	      1627	800017d0	00cc0033	add	x0,x24,x12	 x24:0x00000000 x12:0x00000300
       16295000	      1628	800017d4	01e29d93	slli	x27,x5,0x1e	  x5:0x83feff34 x27=0x00000000
       16305000	      1629	800017d8	00d599b3	sll	x19,x11,x13	 x11:0xffffff04 x13:0x00000000 x19=0xffffff04
       16315000	      1630	800017dc	01102633	slt	x12,x0,x17	  x0:0x00000000 x17:0x00000001 x12=0x00000001
       16325000	      1631	800017e0	01247433	and	x8,x8,x18	  x8:0x00000348 x18:0x80000000  x8=0x00000000
       16335000	      1632	800017e4	1ee4c613	xori	x12,x9,494	  x9:0x00000000 x12=0x000001ee
       16345000	      1633	800017e8	01135cb3	srl	x25,x6,x17	  x6:0xf0546967 x17:0x00000001 x25=0x782a34b3
       16355000	      1634	800017ec	00b32333	slt	x6,x6,x11	  x6:0xf0546967 x11:0xffffff04  x6=0x00000001
       16365000	      1635	800017f0	00d84133	xor	x2,x16,x13	 x16:0x00000003 x13:0x00000000  x2=0x00000003
       16375000	      1636	800017f4	05e8f263	bgeu	x17,x30,80001838	 x17:0x00000001 x30:0x80009f34
       16385000	      1637	800017f8	55daef93	ori	x31,x21,1373	 x21:0x00000001 x31=0x0000055d
       16395000	      1638	800017fc	0093d813	srli	x16,x7,0x9	  x7:0xf0546820 x16=0x00782a34
       16405000	      1639	80001800	00530833	add	x16,x6,x5	  x6:0x00000001  x5:0x83feff34 x16=0x83feff35
       16415000	      1640	80001804	40d486b3	sub	x13,x9,x13	  x9:0x00000000 x13:0x00000000 x13=0x00000000
       16425000	      1641	80001808	884dc497	auipc	x9,0x884dc	  x9=0x084dd804
       16435000	      1642	8000180c	01228333	add	x6,x5,x18	  x5:0x83feff34 x18:0x80000000  x6=0x03feff34
       16445000	      1643	80001810	416d8133	sub	x2,x27,x22	 x27:0x00000000 x22:0x00000000  x2=0x00000000
       16455000	      1644	80001814	02260263	beq	x12,x2,80001838	 x12:0x000001ee  x2:0x00000000
       16465000	      1645	80001818	f9fb8093	addi	x1,x23,-97	 x23:0x51ffffff  x1=0x51ffff9e
       16475000	      1646	8000181c	043ef463	bgeu	x29,x3,80001864	 x29:0x00000000  x3:0x00000000
       16485000	      1647	00000000	00000013	addi	x0,x0,0	  x0:0x00000000
       16495000	      1648	80001860	00000013	addi	x0,x0,0	  x0:0x00000000
       16505000	      1649	80001864	054de263	bltu	x27,x20,800018a8	 x27:0x00000000 x20:0x00000000
       16515000	      1650	80001868	41a25213	srai	x4,x4,0x1a	  x4:0xae000000  x4=0xffffffeb
       16525000	      1651	8000186c	04a65463	bge	x12,x10,800018b4	 x12:0x000001ee x10:0xffffffff
       16535000	      1652	00000000	00000013	addi	x0,x0,0	  x0:0x00000000
       16545000	      1653	800018b0	00000013	addi	x0,x0,0	  x0:0x00000000
       16555000	      1654	800018b4	00b85e93	srli	x29,x16,0xb	 x16:0x83feff35 x29=0x00107fdf
       16565000	      1655	800018b8	53d30393	addi	x7,x6,1341	  x6:0x03feff34  x7=0x03ff0471
       16575000	      1656	800018bc	9d2b4e93	xori	x29,x22,-1582	 x22:0x00000000 x29=0xfffff9d2
       16585000	      1657	800018c0	014d5b33	srl	x22,x26,x20	 x26:0x0000000b x20:0x00000000 x22=0x0000000b
       16595000	      1658	800018c4	ef057e93	andi	x29,x10,-272	 x10:0xffffffff x29=0xfffffef0
       16605000	      1659	800018c8	0575d863	bge	x11,x23,80001918	 x11:0xffffff04 x23:0x51ffffff
       16615000	      1660	800018cc	00000013	addi	x0,x0,0	  x0:0x00000000
       16625000	      1661	800018d0	416bd133	sra	x2,x23,x22	 x23:0x51ffffff x22:0x0000000b  x2=0x000a3fff
       16635000	      1662	800018d4	00624463	blt	x4,x6,800018dc	  x4:0xffffffeb  x6:0x03feff34
       16645000	      1663	00000000	00000013	addi	x0,x0,0	  x0:0x00000000
       16655000	      1664	800018d8	00000013	addi	x0,x0,0	  x0:0x00000000
       16665000	      1665	800018dc	036f9263	bne	x31,x22,80001900	 x31:0x0000055d x22:0x0000000b
       16675000	      1666	00000000	00000013	addi	x0,x0,0	  x0:0x00000000
       16685000	      1667	800018fc	00000013	addi	x0,x0,0	  x0:0x00000000
       16695000	      1668	80001900	004af263	bgeu	x21,x4,80001904	 x21:0x00000001  x4:0xffffffeb
       16705000	      1669	80001904	48796e93	ori	x29,x18,1159	 x18:0x80000000 x29=0x80000487
       16715000	      1670	80001908	02a67263	bgeu	x12,x10,8000192c	 x12:0x000001ee x10:0xffffffff
       16725000	      1671	8000190c	00e528b3	slt	x17,x10,x14	 x10:0xffffffff x14:0x80009fc4 x17=0x00000000
       16735000	      1672	80001910	008a9793	slli	x15,x21,0x8	 x21:0x00000001 x15=0x00000100
       16745000	      1673	80001914	053b7463	bgeu	x22,x19,8000195c	 x22:0x0000000b x19:0xffffff04
       16755000	      1674	80001918	053fd863	bge	x31,x19,80001968	 x31:0x0000055d x19:0xffffff04
       16765000	      1675	00000000	00000013	addi	x0,x0,0	  x0:0x00000000
       16775000	      1676	80001964	00000013	addi	x0,x0,0	  x0:0x00000000
       16785000	      1677	80001968	407b00b3	sub	x1,x22,x7	 x22:0x0000000b  x7:0x03ff0471  x1=0xfc00fb9a
       16795000	      1678	8000196c	00043233	sltu	x4,x8,x0	  x8:0x00000000  x0:0x00000000  x4=0x00000000
       16805000	      1679	80001970	01b28cb3	add	x25,x5,x27	  x5:0x83feff34 x27:0x00000000 x25=0x83feff34
       16815000	      1680	80001974	9b5c3117	auipc	x2,0x9b5c3	  x2=0x1b5c4970
       16825000	      1681	80001978	01a19533	sll	x10,x3,x26	  x3:0x00000000 x26:0x0000000b x10=0x00000000
       16835000	      1682	8000197c	181fe393	ori	x7,x31,385	 x31:0x0000055d  x7=0x000005dd
       16845000	      1683	80001980	2f0a8993	addi	x19,x21,752	 x21:0x00000001 x19=0x000002f1
       16855000	      1684	80001984	00d0ba33	sltu	x20,x1,x13	  x1:0xfc00fb9a x13:0x00000000 x20=0x00000000
       16865000	      1685	80001988	03cd7463	bgeu	x26,x28,800019b0	 x26:0x0000000b x28:0xb1fe7600
       16875000	      1686	8000198c	00a39a93	slli	x21,x7,0xa	  x7:0x000005dd x21=0x00177400
       16885000	      1687	80001990	49febe13	sltiu	x28,x29,1183	 x29:0x80000487 x28=0x00000000
       16895000	      1688	80001994	651bfb93	andi	x23,x23,1617	 x23:0x51ffffff x23=0x00000651
       16905000	      1689	80001998	d8f48313	addi	x6,x9,-625	  x9:0x084dd804  x6=0x084dd593
       16915000	      1690	8000199c	016de633	or	x12,x27,x22	 x27:0x00000000 x22:0x0000000b x12=0x0000000b
       16925000	      1691	800019a0	d065b393	sltiu	x7,x11,-762	 x11:0xffffff04  x7=0x00000000
       16935000	      1692	800019a4	017d1313	slli	x6,x26,0x17	 x26:0x0000000b  x6=0x05800000
       16945000	      1693	800019a8	009c4463	blt	x24,x9,800019b0	 x24:0x00000000  x9:0x084dd804
       16955000	      1694	00000000	00000013	addi	x0,x0,0	  x0:0x00000000
       16965000	      1695	800019ac	00000013	addi	x0,x0,0	  x0:0x00000000
       16975000	      1696	800019b0	004ee2b3	or	x5,x29,x4	 x29:0x80000487  x4:0x00000000  x5=0x80000487
       16985000	      1697	800019b4	004f2583	lw	x11,4(x30)	 x30:0x80009f34 x11=0x80001a28 PA:0x80009f38
       16995000	      1698	800019b8	011093b3	sll	x7,x1,x17	  x1:0xfc00fb9a x17:0x00000000  x7=0xfc00fb9a
       17005000	      1699	800019bc	00ba5e13	srli	x28,x20,0xb	 x20:0x00000000 x28=0x00000000
       17015000	      1700	800019c0	006e9393	slli	x7,x29,0x6	 x29:0x80000487  x7=0x000121c0
       17025000	      1701	800019c4	4032d1b3	sra	x3,x5,x3	  x5:0x80000487  x3:0x00000000  x3=0x80000487
       17035000	      1702	800019c8	00000013	addi	x0,x0,0	  x0:0x00000000
       17045000	      1703	800019cc	01cf0f13	addi	x30,x30,28	 x30:0x80009f34 x30=0x80009f50
       17055000	      1704	800019d0	a100b393	sltiu	x7,x1,-1520	  x1:0xfc00fb9a  x7=0x00000001
       17065000	      1705	800019d4	94522793	slti	x15,x4,-1723	  x4:0x00000000 x15=0x00000000
       17075000	      1706	800019d8	00058113	addi	x2,x11,0	 x11:0x80001a28  x2=0x80001a28
       17085000	      1707	800019dc	00010167	jalr	x2,x2,0	  x2:0x80001a28  x2=0x800019dc
       17095000	      1708	00000000	00000013	addi	x0,x0,0	  x0:0x00000000
       17105000	      1709	80001a28	00000013	addi	x0,x0,0	  x0:0x00000000
       17115000	      1710	80001a2c	ff600e93	addi	x29,x0,-10	  x0:0x00000000 x29=0xfffffff6
       17125000	      1711	80001a30	009ef433	and	x8,x29,x9	 x29:0xfffffff6  x9:0x084dd804  x8=0x084dd804
       17135000	      1712	80001a34	00300c13	addi	x24,x0,3	  x0:0x00000000 x24=0x00000003
       17145000	      1713	80001a38	01c62933	slt	x18,x12,x28	 x12:0x0000000b x28:0x00000000 x18=0x00000000
       17155000	      1714	80001a3c	00521693	slli	x13,x4,0x5	  x4:0x00000000 x13=0x00000000
       17165000	      1715	80001a40	9ccf8a93	addi	x21,x31,-1588	 x31:0x0000055d x21=0xffffff29
       17175000	      1716	80001a44	0174a0b3	slt	x1,x9,x23	  x9:0x084dd804 x23:0x00000651  x1=0x00000000
       17185000	      1717	80001a48	ee8a8f93	addi	x31,x21,-280	 x21:0xffffff29 x31=0xfffffe11
       17195000	      1718	80001a4c	008e8e93	addi	x29,x29,8	 x29:0xfffffff6 x29=0xfffffffe
       17205000	      1719	80001a50	013363b3	or	x7,x6,x19	  x6:0x05800000 x19:0x000002f1  x7=0x058002f1
       17215000	      1720	80001a54	00800793	addi	x15,x0,8	  x0:0x00000000 x15=0x00000008
       17225000	      1721	80001a58	00c166b3	or	x13,x2,x12	  x2:0x800019dc x12:0x0000000b x13=0x800019df
       17235000	      1722	80001a5c	00100893	addi	x17,x0,1	  x0:0x00000000 x17=0x00000001
       17245000	      1723	80001a60	018cce33	xor	x28,x25,x24	 x25:0x83feff34 x24:0x00000003 x28=0x83feff37
       17255000	      1724	80001a64	7af40c97	auipc	x25,0x7af40	 x25=0xfaf41a60
       17265000	      1725	80001a68	ffa78793	addi	x15,x15,-6	 x15:0x00000008 x15=0x00000002
       17275000	      1726	80001a6c	00376fb3	or	x31,x14,x3	 x14:0x80009fc4  x3:0x80000487 x31=0x80009fc7
       17285000	      1727	80001a70	00a4f3b3	and	x7,x9,x10	  x9:0x084dd804 x10:0x00000000  x7=0x00000000
       17295000	      1728	80001a74	ff17d8e3	bge	x15,x17,80001a64	 x15:0x00000002 x17:0x00000001
       17305000	      1729	00000000	00000013	addi	x0,x0,0	  x0:0x00000000
       17315000	      1730	80001a60	00000013	addi	x0,x0,0	  x0:0x00000000
       17325000	      1731	80001a64	7af40c97	auipc	x25,0x7af40	 x25=0xfaf41a60
       17335000	      1732	80001a68	ffa78793	addi	x15,x15,-6	 x15:0x00000002 x15=0xfffffffc
       17345000	      1733	80001a6c	00376fb3	or	x31,x14,x3	 x14:0x80009fc4  x3:0x80000487 x31=0x80009fc7
       17355000	      1734	80001a70	00a4f3b3	and	x7,x9,x10	  x9:0x084dd804 x10:0x00000000  x7=0x00000000
       17365000	      1735	80001a74	ff17d8e3	bge	x15,x17,80001a64	 x15:0xfffffffc x17:0x00000001
       17375000	      1736	80001a78	01bc36b3	sltu	x13,x24,x27	 x24:0x00000003 x27:0x00000000 x13=0x00000000
       17385000	      1737	80001a7c	fd8ec2e3	blt	x29,x24,80001a40	 x29:0xfffffffe x24:0x00000003
       17395000	      1738	00000000	00000013	addi	x0,x0,0	  x0:0x00000000
       17405000	      1739	80001a3c	00000013	addi	x0,x0,0	  x0:0x00000000
       17415000	      1740	80001a40	9ccf8a93	addi	x21,x31,-1588	 x31:0x80009fc7 x21=0x80009993
       17425000	      1741	80001a44	0174a0b3	slt	x1,x9,x23	  x9:0x084dd804 x23:0x00000651  x1=0x00000000
       17435000	      1742	80001a48	ee8a8f93	addi	x31,x21,-280	 x21:0x80009993 x31=0x8000987b
       17445000	      1743	80001a4c	008e8e93	addi	x29,x29,8	 x29:0xfffffffe x29=0x00000006
       17455000	      1744	80001a50	013363b3	or	x7,x6,x19	  x6:0x05800000 x19:0x000002f1  x7=0x058002f1
       17465000	      1745	80001a54	00800793	addi	x15,x0,8	  x0:0x00000000 x15=0x00000008
       17475000	      1746	80001a58	00c166b3	or	x13,x2,x12	  x2:0x800019dc x12:0x0000000b x13=0x800019df
       17485000	      1747	80001a5c	00100893	addi	x17,x0,1	  x0:0x00000000 x17=0x00000001
       17495000	      1748	80001a60	018cce33	xor	x28,x25,x24	 x25:0xfaf41a60 x24:0x00000003 x28=0xfaf41a63
       17505000	      1749	80001a64	7af40c97	auipc	x25,0x7af40	 x25=0xfaf41a60
       17515000	      1750	80001a68	ffa78793	addi	x15,x15,-6	 x15:0x00000008 x15=0x00000002
       17525000	      1751	80001a6c	00376fb3	or	x31,x14,x3	 x14:0x80009fc4  x3:0x80000487 x31=0x80009fc7
       17535000	      1752	80001a70	00a4f3b3	and	x7,x9,x10	  x9:0x084dd804 x10:0x00000000  x7=0x00000000
       17545000	      1753	80001a74	ff17d8e3	bge	x15,x17,80001a64	 x15:0x00000002 x17:0x00000001
       17555000	      1754	00000000	00000013	addi	x0,x0,0	  x0:0x00000000
       17565000	      1755	80001a60	00000013	addi	x0,x0,0	  x0:0x00000000
       17575000	      1756	80001a64	7af40c97	auipc	x25,0x7af40	 x25=0xfaf41a60
       17585000	      1757	80001a68	ffa78793	addi	x15,x15,-6	 x15:0x00000002 x15=0xfffffffc
       17595000	      1758	80001a6c	00376fb3	or	x31,x14,x3	 x14:0x80009fc4  x3:0x80000487 x31=0x80009fc7
       17605000	      1759	80001a70	00a4f3b3	and	x7,x9,x10	  x9:0x084dd804 x10:0x00000000  x7=0x00000000
       17615000	      1760	80001a74	ff17d8e3	bge	x15,x17,80001a64	 x15:0xfffffffc x17:0x00000001
       17625000	      1761	80001a78	01bc36b3	sltu	x13,x24,x27	 x24:0x00000003 x27:0x00000000 x13=0x00000000
       17635000	      1762	80001a7c	fd8ec2e3	blt	x29,x24,80001a40	 x29:0x00000006 x24:0x00000003
       17645000	      1763	80001a80	00d16cb3	or	x25,x2,x13	  x2:0x800019dc x13:0x00000000 x25=0x800019dc
       17655000	      1764	80001a84	ffa00c93	addi	x25,x0,-6	  x0:0x00000000 x25=0xfffffffa
       17665000	      1765	80001a88	fee00413	addi	x8,x0,-18	  x0:0x00000000  x8=0xffffffee
       17675000	      1766	80001a8c	00a3ae33	slt	x28,x7,x10	  x7:0x00000000 x10:0x00000000 x28=0x00000000
       17685000	      1767	80001a90	00b5adb3	slt	x27,x11,x11	 x11:0x80001a28 x11:0x80001a28 x27=0x00000000
       17695000	      1768	80001a94	ffdc8c93	addi	x25,x25,-3	 x25:0xfffffffa x25=0xfffffff7
       17705000	      1769	80001a98	012136b3	sltu	x13,x2,x18	  x2:0x800019dc x18:0x00000000 x13=0x00000000
       17715000	      1770	80001a9c	00200b13	addi	x22,x0,2	  x0:0x00000000 x22=0x00000002
       17725000	      1771	80001aa0	fed00613	addi	x12,x0,-19	  x0:0x00000000 x12=0xffffffed
       17735000	      1772	80001aa4	0ac33c13	sltiu	x24,x6,172	  x6:0x05800000 x24=0x00000000
       17745000	      1773	80001aa8	018f27b3	slt	x15,x30,x24	 x30:0x80009f50 x24:0x00000000 x15=0x00000001
       17755000	      1774	80001aac	9c52b093	sltiu	x1,x5,-1595	  x5:0x80000487  x1=0x00000001
       17765000	      1775	80001ab0	ff6b0b13	addi	x22,x22,-10	 x22:0x00000002 x22=0xfffffff8
       17775000	      1776	80001ab4	014b5513	srli	x10,x22,0x14	 x22:0xfffffff8 x10=0x00000fff
       17785000	      1777	80001ab8	3dfd5a37	lui	x20,0x3dfd5	 x20=0x3dfd5000
       17795000	      1778	80001abc	fecb58e3	bge	x22,x12,80001aac	 x22:0xfffffff8 x12:0xffffffed
       17805000	      1779	00000000	00000013	addi	x0,x0,0	  x0:0x00000000
       17815000	      1780	80001aa8	00000013	addi	x0,x0,0	  x0:0x00000000
       17825000	      1781	80001aac	9c52b093	sltiu	x1,x5,-1595	  x5:0x80000487  x1=0x00000001
       17835000	      1782	80001ab0	ff6b0b13	addi	x22,x22,-10	 x22:0xfffffff8 x22=0xffffffee
       17845000	      1783	80001ab4	014b5513	srli	x10,x22,0x14	 x22:0xffffffee x10=0x00000fff
       17855000	      1784	80001ab8	3dfd5a37	lui	x20,0x3dfd5	 x20=0x3dfd5000
       17865000	      1785	80001abc	fecb58e3	bge	x22,x12,80001aac	 x22:0xffffffee x12:0xffffffed
       17875000	      1786	00000000	00000013	addi	x0,x0,0	  x0:0x00000000
       17885000	      1787	80001aa8	00000013	addi	x0,x0,0	  x0:0x00000000
       17895000	      1788	80001aac	9c52b093	sltiu	x1,x5,-1595	  x5:0x80000487  x1=0x00000001
       17905000	      1789	80001ab0	ff6b0b13	addi	x22,x22,-10	 x22:0xffffffee x22=0xffffffe4
       17915000	      1790	80001ab4	014b5513	srli	x10,x22,0x14	 x22:0xffffffe4 x10=0x00000fff
       17925000	      1791	80001ab8	3dfd5a37	lui	x20,0x3dfd5	 x20=0x3dfd5000
       17935000	      1792	80001abc	fecb58e3	bge	x22,x12,80001aac	 x22:0xffffffe4 x12:0xffffffed
       17945000	      1793	80001ac0	e9da4493	xori	x9,x20,-355	 x20:0x3dfd5000  x9=0xc202ae9d
       17955000	      1794	80001ac4	fc8c96e3	bne	x25,x8,80001a90	 x25:0xfffffff7  x8:0xffffffee
       17965000	      1795	00000000	00000013	addi	x0,x0,0	  x0:0x00000000
       17975000	      1796	80001a8c	00000013	addi	x0,x0,0	  x0:0x00000000
       17985000	      1797	80001a90	00b5adb3	slt	x27,x11,x11	 x11:0x80001a28 x11:0x80001a28 x27=0x00000000
       17995000	      1798	80001a94	ffdc8c93	addi	x25,x25,-3	 x25:0xfffffff7 x25=0xfffffff4
       18005000	      1799	80001a98	012136b3	sltu	x13,x2,x18	  x2:0x800019dc x18:0x00000000 x13=0x00000000
       18015000	      1800	80001a9c	00200b13	addi	x22,x0,2	  x0:0x00000000 x22=0x00000002
       18025000	      1801	80001aa0	fed00613	addi	x12,x0,-19	  x0:0x00000000 x12=0xffffffed
       18035000	      1802	80001aa4	0ac33c13	sltiu	x24,x6,172	  x6:0x05800000 x24=0x00000000
       18045000	      1803	80001aa8	018f27b3	slt	x15,x30,x24	 x30:0x80009f50 x24:0x00000000 x15=0x00000001
       18055000	      1804	80001aac	9c52b093	sltiu	x1,x5,-1595	  x5:0x80000487  x1=0x00000001
       18065000	      1805	80001ab0	ff6b0b13	addi	x22,x22,-10	 x22:0x00000002 x22=0xfffffff8
       18075000	      1806	80001ab4	014b5513	srli	x10,x22,0x14	 x22:0xfffffff8 x10=0x00000fff
       18085000	      1807	80001ab8	3dfd5a37	lui	x20,0x3dfd5	 x20=0x3dfd5000
       18095000	      1808	80001abc	fecb58e3	bge	x22,x12,80001aac	 x22:0xfffffff8 x12:0xffffffed
       18105000	      1809	00000000	00000013	addi	x0,x0,0	  x0:0x00000000
       18115000	      1810	80001aa8	00000013	addi	x0,x0,0	  x0:0x00000000
       18125000	      1811	80001aac	9c52b093	sltiu	x1,x5,-1595	  x5:0x80000487  x1=0x00000001
       18135000	      1812	80001ab0	ff6b0b13	addi	x22,x22,-10	 x22:0xfffffff8 x22=0xffffffee
       18145000	      1813	80001ab4	014b5513	srli	x10,x22,0x14	 x22:0xffffffee x10=0x00000fff
       18155000	      1814	80001ab8	3dfd5a37	lui	x20,0x3dfd5	 x20=0x3dfd5000
       18165000	      1815	80001abc	fecb58e3	bge	x22,x12,80001aac	 x22:0xffffffee x12:0xffffffed
       18175000	      1816	00000000	00000013	addi	x0,x0,0	  x0:0x00000000
       18185000	      1817	80001aa8	00000013	addi	x0,x0,0	  x0:0x00000000
       18195000	      1818	80001aac	9c52b093	sltiu	x1,x5,-1595	  x5:0x80000487  x1=0x00000001
       18205000	      1819	80001ab0	ff6b0b13	addi	x22,x22,-10	 x22:0xffffffee x22=0xffffffe4
       18215000	      1820	80001ab4	014b5513	srli	x10,x22,0x14	 x22:0xffffffe4 x10=0x00000fff
       18225000	      1821	80001ab8	3dfd5a37	lui	x20,0x3dfd5	 x20=0x3dfd5000
       18235000	      1822	80001abc	fecb58e3	bge	x22,x12,80001aac	 x22:0xffffffe4 x12:0xffffffed
       18245000	      1823	80001ac0	e9da4493	xori	x9,x20,-355	 x20:0x3dfd5000  x9=0xc202ae9d
       18255000	      1824	80001ac4	fc8c96e3	bne	x25,x8,80001a90	 x25:0xfffffff4  x8:0xffffffee
       18265000	      1825	00000000	00000013	addi	x0,x0,0	  x0:0x00000000
       18275000	      1826	80001a8c	00000013	addi	x0,x0,0	  x0:0x00000000
       18285000	      1827	80001a90	00b5adb3	slt	x27,x11,x11	 x11:0x80001a28 x11:0x80001a28 x27=0x00000000
       18295000	      1828	80001a94	ffdc8c93	addi	x25,x25,-3	 x25:0xfffffff4 x25=0xfffffff1
       18305000	      1829	80001a98	012136b3	sltu	x13,x2,x18	  x2:0x800019dc x18:0x00000000 x13=0x00000000
       18315000	      1830	80001a9c	00200b13	addi	x22,x0,2	  x0:0x00000000 x22=0x00000002
       18325000	      1831	80001aa0	fed00613	addi	x12,x0,-19	  x0:0x00000000 x12=0xffffffed
       18335000	      1832	80001aa4	0ac33c13	sltiu	x24,x6,172	  x6:0x05800000 x24=0x00000000
       18345000	      1833	80001aa8	018f27b3	slt	x15,x30,x24	 x30:0x80009f50 x24:0x00000000 x15=0x00000001
       18355000	      1834	80001aac	9c52b093	sltiu	x1,x5,-1595	  x5:0x80000487  x1=0x00000001
       18365000	      1835	80001ab0	ff6b0b13	addi	x22,x22,-10	 x22:0x00000002 x22=0xfffffff8
       18375000	      1836	80001ab4	014b5513	srli	x10,x22,0x14	 x22:0xfffffff8 x10=0x00000fff
       18385000	      1837	80001ab8	3dfd5a37	lui	x20,0x3dfd5	 x20=0x3dfd5000
       18395000	      1838	80001abc	fecb58e3	bge	x22,x12,80001aac	 x22:0xfffffff8 x12:0xffffffed
       18405000	      1839	00000000	00000013	addi	x0,x0,0	  x0:0x00000000
       18415000	      1840	80001aa8	00000013	addi	x0,x0,0	  x0:0x00000000
       18425000	      1841	80001aac	9c52b093	sltiu	x1,x5,-1595	  x5:0x80000487  x1=0x00000001
       18435000	      1842	80001ab0	ff6b0b13	addi	x22,x22,-10	 x22:0xfffffff8 x22=0xffffffee
       18445000	      1843	80001ab4	014b5513	srli	x10,x22,0x14	 x22:0xffffffee x10=0x00000fff
       18455000	      1844	80001ab8	3dfd5a37	lui	x20,0x3dfd5	 x20=0x3dfd5000
       18465000	      1845	80001abc	fecb58e3	bge	x22,x12,80001aac	 x22:0xffffffee x12:0xffffffed
       18475000	      1846	00000000	00000013	addi	x0,x0,0	  x0:0x00000000
       18485000	      1847	80001aa8	00000013	addi	x0,x0,0	  x0:0x00000000
       18495000	      1848	80001aac	9c52b093	sltiu	x1,x5,-1595	  x5:0x80000487  x1=0x00000001
       18505000	      1849	80001ab0	ff6b0b13	addi	x22,x22,-10	 x22:0xffffffee x22=0xffffffe4
       18515000	      1850	80001ab4	014b5513	srli	x10,x22,0x14	 x22:0xffffffe4 x10=0x00000fff
       18525000	      1851	80001ab8	3dfd5a37	lui	x20,0x3dfd5	 x20=0x3dfd5000
       18535000	      1852	80001abc	fecb58e3	bge	x22,x12,80001aac	 x22:0xffffffe4 x12:0xffffffed
       18545000	      1853	80001ac0	e9da4493	xori	x9,x20,-355	 x20:0x3dfd5000  x9=0xc202ae9d
       18555000	      1854	80001ac4	fc8c96e3	bne	x25,x8,80001a90	 x25:0xfffffff1  x8:0xffffffee
       18565000	      1855	00000000	00000013	addi	x0,x0,0	  x0:0x00000000
       18575000	      1856	80001a8c	00000013	addi	x0,x0,0	  x0:0x00000000
       18585000	      1857	80001a90	00b5adb3	slt	x27,x11,x11	 x11:0x80001a28 x11:0x80001a28 x27=0x00000000
       18595000	      1858	80001a94	ffdc8c93	addi	x25,x25,-3	 x25:0xfffffff1 x25=0xffffffee
       18605000	      1859	80001a98	012136b3	sltu	x13,x2,x18	  x2:0x800019dc x18:0x00000000 x13=0x00000000
       18615000	      1860	80001a9c	00200b13	addi	x22,x0,2	  x0:0x00000000 x22=0x00000002
       18625000	      1861	80001aa0	fed00613	addi	x12,x0,-19	  x0:0x00000000 x12=0xffffffed
       18635000	      1862	80001aa4	0ac33c13	sltiu	x24,x6,172	  x6:0x05800000 x24=0x00000000
       18645000	      1863	80001aa8	018f27b3	slt	x15,x30,x24	 x30:0x80009f50 x24:0x00000000 x15=0x00000001
       18655000	      1864	80001aac	9c52b093	sltiu	x1,x5,-1595	  x5:0x80000487  x1=0x00000001
       18665000	      1865	80001ab0	ff6b0b13	addi	x22,x22,-10	 x22:0x00000002 x22=0xfffffff8
       18675000	      1866	80001ab4	014b5513	srli	x10,x22,0x14	 x22:0xfffffff8 x10=0x00000fff
       18685000	      1867	80001ab8	3dfd5a37	lui	x20,0x3dfd5	 x20=0x3dfd5000
       18695000	      1868	80001abc	fecb58e3	bge	x22,x12,80001aac	 x22:0xfffffff8 x12:0xffffffed
       18705000	      1869	00000000	00000013	addi	x0,x0,0	  x0:0x00000000
       18715000	      1870	80001aa8	00000013	addi	x0,x0,0	  x0:0x00000000
       18725000	      1871	80001aac	9c52b093	sltiu	x1,x5,-1595	  x5:0x80000487  x1=0x00000001
       18735000	      1872	80001ab0	ff6b0b13	addi	x22,x22,-10	 x22:0xfffffff8 x22=0xffffffee
       18745000	      1873	80001ab4	014b5513	srli	x10,x22,0x14	 x22:0xffffffee x10=0x00000fff
       18755000	      1874	80001ab8	3dfd5a37	lui	x20,0x3dfd5	 x20=0x3dfd5000
       18765000	      1875	80001abc	fecb58e3	bge	x22,x12,80001aac	 x22:0xffffffee x12:0xffffffed
       18775000	      1876	00000000	00000013	addi	x0,x0,0	  x0:0x00000000
       18785000	      1877	80001aa8	00000013	addi	x0,x0,0	  x0:0x00000000
       18795000	      1878	80001aac	9c52b093	sltiu	x1,x5,-1595	  x5:0x80000487  x1=0x00000001
       18805000	      1879	80001ab0	ff6b0b13	addi	x22,x22,-10	 x22:0xffffffee x22=0xffffffe4
       18815000	      1880	80001ab4	014b5513	srli	x10,x22,0x14	 x22:0xffffffe4 x10=0x00000fff
       18825000	      1881	80001ab8	3dfd5a37	lui	x20,0x3dfd5	 x20=0x3dfd5000
       18835000	      1882	80001abc	fecb58e3	bge	x22,x12,80001aac	 x22:0xffffffe4 x12:0xffffffed
       18845000	      1883	80001ac0	e9da4493	xori	x9,x20,-355	 x20:0x3dfd5000  x9=0xc202ae9d
       18855000	      1884	80001ac4	fc8c96e3	bne	x25,x8,80001a90	 x25:0xffffffee  x8:0xffffffee
       18865000	      1885	80001ac8	417a5993	srai	x19,x20,0x17	 x20:0x3dfd5000 x19=0x0000007b
       18875000	      1886	80001acc	ff600b13	addi	x22,x0,-10	  x0:0x00000000 x22=0xfffffff6
       18885000	      1887	80001ad0	40a70c33	sub	x24,x14,x10	 x14:0x80009fc4 x10:0x00000fff x24=0x80008fc5
       18895000	      1888	80001ad4	40850db3	sub	x27,x10,x8	 x10:0x00000fff  x8:0xffffffee x27=0x00001011
       18905000	      1889	80001ad8	317bf937	lui	x18,0x317bf	 x18=0x317bf000
       18915000	      1890	80001adc	00a61893	slli	x17,x12,0xa	 x12:0xffffffed x17=0xffffb400
       18925000	      1891	80001ae0	0084ca33	xor	x20,x9,x8	  x9:0xc202ae9d  x8:0xffffffee x20=0x3dfd5173
       18935000	      1892	80001ae4	47b13893	sltiu	x17,x2,1147	  x2:0x800019dc x17=0x00000000
       18945000	      1893	80001ae8	00c00313	addi	x6,x0,12	  x0:0x00000000  x6=0x0000000c
       18955000	      1894	80001aec	014665b3	or	x11,x12,x20	 x12:0xffffffed x20:0x3dfd5173 x11=0xffffffff
       18965000	      1895	80001af0	417a5093	srai	x1,x20,0x17	 x20:0x3dfd5173  x1=0x0000007b
       18975000	      1896	80001af4	00c778b3	and	x17,x14,x12	 x14:0x80009fc4 x12:0xffffffed x17=0x80009fc4
       18985000	      1897	80001af8	0146f4b3	and	x9,x13,x20	 x13:0x00000000 x20:0x3dfd5173  x9=0x00000000
       18995000	      1898	80001afc	019faab3	slt	x21,x31,x25	 x31:0x80009fc7 x25:0xffffffee x21=0x00000001
       19005000	      1899	80001b00	00ab0b13	addi	x22,x22,10	 x22:0xfffffff6 x22=0x00000000
       19015000	      1900	80001b04	fff00f93	addi	x31,x0,-1	  x0:0x00000000 x31=0xffffffff
       19025000	      1901	80001b08	0001d193	srli	x3,x3,0x0	  x3:0x80000487  x3=0x80000487
       19035000	      1902	80001b0c	00a00e13	addi	x28,x0,10	  x0:0x00000000 x28=0x0000000a
       19045000	      1903	80001b10	00693533	sltu	x10,x18,x6	 x18:0x317bf000  x6:0x0000000c x10=0x00000000
       19055000	      1904	80001b14	00000013	addi	x0,x0,0	  x0:0x00000000
       19065000	      1905	80001b18	001f8f93	addi	x31,x31,1	 x31:0xffffffff x31=0x00000000
       19075000	      1906	80001b1c	41c98c33	sub	x24,x19,x28	 x19:0x0000007b x28:0x0000000a x24=0x00000071
       19085000	      1907	80001b20	ffcfeae3	bltu	x31,x28,80001b14	 x31:0x00000000 x28:0x0000000a
       19095000	      1908	00000000	00000013	addi	x0,x0,0	  x0:0x00000000
       19105000	      1909	80001b10	00000013	addi	x0,x0,0	  x0:0x00000000
       19115000	      1910	80001b14	00000013	addi	x0,x0,0	  x0:0x00000000
       19125000	      1911	80001b18	001f8f93	addi	x31,x31,1	 x31:0x00000000 x31=0x00000001
       19135000	      1912	80001b1c	41c98c33	sub	x24,x19,x28	 x19:0x0000007b x28:0x0000000a x24=0x00000071
       19145000	      1913	80001b20	ffcfeae3	bltu	x31,x28,80001b14	 x31:0x00000001 x28:0x0000000a
       19155000	      1914	00000000	00000013	addi	x0,x0,0	  x0:0x00000000
       19165000	      1915	80001b10	00000013	addi	x0,x0,0	  x0:0x00000000
       19175000	      1916	80001b14	00000013	addi	x0,x0,0	  x0:0x00000000
       19185000	      1917	80001b18	001f8f93	addi	x31,x31,1	 x31:0x00000001 x31=0x00000002
       19195000	      1918	80001b1c	41c98c33	sub	x24,x19,x28	 x19:0x0000007b x28:0x0000000a x24=0x00000071
       19205000	      1919	80001b20	ffcfeae3	bltu	x31,x28,80001b14	 x31:0x00000002 x28:0x0000000a
       19215000	      1920	00000000	00000013	addi	x0,x0,0	  x0:0x00000000
       19225000	      1921	80001b10	00000013	addi	x0,x0,0	  x0:0x00000000
       19235000	      1922	80001b14	00000013	addi	x0,x0,0	  x0:0x00000000
       19245000	      1923	80001b18	001f8f93	addi	x31,x31,1	 x31:0x00000002 x31=0x00000003
       19255000	      1924	80001b1c	41c98c33	sub	x24,x19,x28	 x19:0x0000007b x28:0x0000000a x24=0x00000071
       19265000	      1925	80001b20	ffcfeae3	bltu	x31,x28,80001b14	 x31:0x00000003 x28:0x0000000a
       19275000	      1926	00000000	00000013	addi	x0,x0,0	  x0:0x00000000
       19285000	      1927	80001b10	00000013	addi	x0,x0,0	  x0:0x00000000
       19295000	      1928	80001b14	00000013	addi	x0,x0,0	  x0:0x00000000
       19305000	      1929	80001b18	001f8f93	addi	x31,x31,1	 x31:0x00000003 x31=0x00000004
       19315000	      1930	80001b1c	41c98c33	sub	x24,x19,x28	 x19:0x0000007b x28:0x0000000a x24=0x00000071
       19325000	      1931	80001b20	ffcfeae3	bltu	x31,x28,80001b14	 x31:0x00000004 x28:0x0000000a
       19335000	      1932	00000000	00000013	addi	x0,x0,0	  x0:0x00000000
       19345000	      1933	80001b10	00000013	addi	x0,x0,0	  x0:0x00000000
       19355000	      1934	80001b14	00000013	addi	x0,x0,0	  x0:0x00000000
       19365000	      1935	80001b18	001f8f93	addi	x31,x31,1	 x31:0x00000004 x31=0x00000005
       19375000	      1936	80001b1c	41c98c33	sub	x24,x19,x28	 x19:0x0000007b x28:0x0000000a x24=0x00000071
       19385000	      1937	80001b20	ffcfeae3	bltu	x31,x28,80001b14	 x31:0x00000005 x28:0x0000000a
       19395000	      1938	00000000	00000013	addi	x0,x0,0	  x0:0x00000000
       19405000	      1939	80001b10	00000013	addi	x0,x0,0	  x0:0x00000000
       19415000	      1940	80001b14	00000013	addi	x0,x0,0	  x0:0x00000000
       19425000	      1941	80001b18	001f8f93	addi	x31,x31,1	 x31:0x00000005 x31=0x00000006
       19435000	      1942	80001b1c	41c98c33	sub	x24,x19,x28	 x19:0x0000007b x28:0x0000000a x24=0x00000071
       19445000	      1943	80001b20	ffcfeae3	bltu	x31,x28,80001b14	 x31:0x00000006 x28:0x0000000a
       19455000	      1944	00000000	00000013	addi	x0,x0,0	  x0:0x00000000
       19465000	      1945	80001b10	00000013	addi	x0,x0,0	  x0:0x00000000
       19475000	      1946	80001b14	00000013	addi	x0,x0,0	  x0:0x00000000
       19485000	      1947	80001b18	001f8f93	addi	x31,x31,1	 x31:0x00000006 x31=0x00000007
       19495000	      1948	80001b1c	41c98c33	sub	x24,x19,x28	 x19:0x0000007b x28:0x0000000a x24=0x00000071
       19505000	      1949	80001b20	ffcfeae3	bltu	x31,x28,80001b14	 x31:0x00000007 x28:0x0000000a
       19515000	      1950	00000000	00000013	addi	x0,x0,0	  x0:0x00000000
       19525000	      1951	80001b10	00000013	addi	x0,x0,0	  x0:0x00000000
       19535000	      1952	80001b14	00000013	addi	x0,x0,0	  x0:0x00000000
       19545000	      1953	80001b18	001f8f93	addi	x31,x31,1	 x31:0x00000007 x31=0x00000008
       19555000	      1954	80001b1c	41c98c33	sub	x24,x19,x28	 x19:0x0000007b x28:0x0000000a x24=0x00000071
       19565000	      1955	80001b20	ffcfeae3	bltu	x31,x28,80001b14	 x31:0x00000008 x28:0x0000000a
       19575000	      1956	00000000	00000013	addi	x0,x0,0	  x0:0x00000000
       19585000	      1957	80001b10	00000013	addi	x0,x0,0	  x0:0x00000000
       19595000	      1958	80001b14	00000013	addi	x0,x0,0	  x0:0x00000000
       19605000	      1959	80001b18	001f8f93	addi	x31,x31,1	 x31:0x00000008 x31=0x00000009
       19615000	      1960	80001b1c	41c98c33	sub	x24,x19,x28	 x19:0x0000007b x28:0x0000000a x24=0x00000071
       19625000	      1961	80001b20	ffcfeae3	bltu	x31,x28,80001b14	 x31:0x00000009 x28:0x0000000a
       19635000	      1962	00000000	00000013	addi	x0,x0,0	  x0:0x00000000
       19645000	      1963	80001b10	00000013	addi	x0,x0,0	  x0:0x00000000
       19655000	      1964	80001b14	00000013	addi	x0,x0,0	  x0:0x00000000
       19665000	      1965	80001b18	001f8f93	addi	x31,x31,1	 x31:0x00000009 x31=0x0000000a
       19675000	      1966	80001b1c	41c98c33	sub	x24,x19,x28	 x19:0x0000007b x28:0x0000000a x24=0x00000071
       19685000	      1967	80001b20	ffcfeae3	bltu	x31,x28,80001b14	 x31:0x0000000a x28:0x0000000a
       19695000	      1968	80001b24	7c81b013	sltiu	x0,x3,1992	  x3:0x80000487
       19705000	      1969	80001b28	967fb213	sltiu	x4,x31,-1689	 x31:0x0000000a  x4=0x00000001
       19715000	      1970	80001b2c	fc6b46e3	blt	x22,x6,80001af8	 x22:0x00000000  x6:0x0000000c
       19725000	      1971	00000000	00000013	addi	x0,x0,0	  x0:0x00000000
       19735000	      1972	80001af4	00000013	addi	x0,x0,0	  x0:0x00000000
       19745000	      1973	80001af8	0146f4b3	and	x9,x13,x20	 x13:0x00000000 x20:0x3dfd5173  x9=0x00000000
       19755000	      1974	80001afc	019faab3	slt	x21,x31,x25	 x31:0x0000000a x25:0xffffffee x21=0x00000000
       19765000	      1975	80001b00	00ab0b13	addi	x22,x22,10	 x22:0x00000000 x22=0x0000000a
       19775000	      1976	80001b04	fff00f93	addi	x31,x0,-1	  x0:0x00000000 x31=0xffffffff
       19785000	      1977	80001b08	0001d193	srli	x3,x3,0x0	  x3:0x80000487  x3=0x80000487
       19795000	      1978	80001b0c	00a00e13	addi	x28,x0,10	  x0:0x00000000 x28=0x0000000a
       19805000	      1979	80001b10	00693533	sltu	x10,x18,x6	 x18:0x317bf000  x6:0x0000000c x10=0x00000000
       19815000	      1980	80001b14	00000013	addi	x0,x0,0	  x0:0x00000000
       19825000	      1981	80001b18	001f8f93	addi	x31,x31,1	 x31:0xffffffff x31=0x00000000
       19835000	      1982	80001b1c	41c98c33	sub	x24,x19,x28	 x19:0x0000007b x28:0x0000000a x24=0x00000071
       19845000	      1983	80001b20	ffcfeae3	bltu	x31,x28,80001b14	 x31:0x00000000 x28:0x0000000a
       19855000	      1984	00000000	00000013	addi	x0,x0,0	  x0:0x00000000
       19865000	      1985	80001b10	00000013	addi	x0,x0,0	  x0:0x00000000
       19875000	      1986	80001b14	00000013	addi	x0,x0,0	  x0:0x00000000
       19885000	      1987	80001b18	001f8f93	addi	x31,x31,1	 x31:0x00000000 x31=0x00000001
       19895000	      1988	80001b1c	41c98c33	sub	x24,x19,x28	 x19:0x0000007b x28:0x0000000a x24=0x00000071
       19905000	      1989	80001b20	ffcfeae3	bltu	x31,x28,80001b14	 x31:0x00000001 x28:0x0000000a
       19915000	      1990	00000000	00000013	addi	x0,x0,0	  x0:0x00000000
       19925000	      1991	80001b10	00000013	addi	x0,x0,0	  x0:0x00000000
       19935000	      1992	80001b14	00000013	addi	x0,x0,0	  x0:0x00000000
       19945000	      1993	80001b18	001f8f93	addi	x31,x31,1	 x31:0x00000001 x31=0x00000002
       19955000	      1994	80001b1c	41c98c33	sub	x24,x19,x28	 x19:0x0000007b x28:0x0000000a x24=0x00000071
       19965000	      1995	80001b20	ffcfeae3	bltu	x31,x28,80001b14	 x31:0x00000002 x28:0x0000000a
       19975000	      1996	00000000	00000013	addi	x0,x0,0	  x0:0x00000000
       19985000	      1997	80001b10	00000013	addi	x0,x0,0	  x0:0x00000000
       19995000	      1998	80001b14	00000013	addi	x0,x0,0	  x0:0x00000000
       20005000	      1999	80001b18	001f8f93	addi	x31,x31,1	 x31:0x00000002 x31=0x00000003
       20015000	      2000	80001b1c	41c98c33	sub	x24,x19,x28	 x19:0x0000007b x28:0x0000000a x24=0x00000071
       20025000	      2001	80001b20	ffcfeae3	bltu	x31,x28,80001b14	 x31:0x00000003 x28:0x0000000a
       20035000	      2002	00000000	00000013	addi	x0,x0,0	  x0:0x00000000
       20045000	      2003	80001b10	00000013	addi	x0,x0,0	  x0:0x00000000
       20055000	      2004	80001b14	00000013	addi	x0,x0,0	  x0:0x00000000
       20065000	      2005	80001b18	001f8f93	addi	x31,x31,1	 x31:0x00000003 x31=0x00000004
       20075000	      2006	80001b1c	41c98c33	sub	x24,x19,x28	 x19:0x0000007b x28:0x0000000a x24=0x00000071
       20085000	      2007	80001b20	ffcfeae3	bltu	x31,x28,80001b14	 x31:0x00000004 x28:0x0000000a
       20095000	      2008	00000000	00000013	addi	x0,x0,0	  x0:0x00000000
       20105000	      2009	80001b10	00000013	addi	x0,x0,0	  x0:0x00000000
       20115000	      2010	80001b14	00000013	addi	x0,x0,0	  x0:0x00000000
       20125000	      2011	80001b18	001f8f93	addi	x31,x31,1	 x31:0x00000004 x31=0x00000005
       20135000	      2012	80001b1c	41c98c33	sub	x24,x19,x28	 x19:0x0000007b x28:0x0000000a x24=0x00000071
       20145000	      2013	80001b20	ffcfeae3	bltu	x31,x28,80001b14	 x31:0x00000005 x28:0x0000000a
       20155000	      2014	00000000	00000013	addi	x0,x0,0	  x0:0x00000000
       20165000	      2015	80001b10	00000013	addi	x0,x0,0	  x0:0x00000000
       20175000	      2016	80001b14	00000013	addi	x0,x0,0	  x0:0x00000000
       20185000	      2017	80001b18	001f8f93	addi	x31,x31,1	 x31:0x00000005 x31=0x00000006
       20195000	      2018	80001b1c	41c98c33	sub	x24,x19,x28	 x19:0x0000007b x28:0x0000000a x24=0x00000071
       20205000	      2019	80001b20	ffcfeae3	bltu	x31,x28,80001b14	 x31:0x00000006 x28:0x0000000a
       20215000	      2020	00000000	00000013	addi	x0,x0,0	  x0:0x00000000
       20225000	      2021	80001b10	00000013	addi	x0,x0,0	  x0:0x00000000
       20235000	      2022	80001b14	00000013	addi	x0,x0,0	  x0:0x00000000
       20245000	      2023	80001b18	001f8f93	addi	x31,x31,1	 x31:0x00000006 x31=0x00000007
       20255000	      2024	80001b1c	41c98c33	sub	x24,x19,x28	 x19:0x0000007b x28:0x0000000a x24=0x00000071
       20265000	      2025	80001b20	ffcfeae3	bltu	x31,x28,80001b14	 x31:0x00000007 x28:0x0000000a
       20275000	      2026	00000000	00000013	addi	x0,x0,0	  x0:0x00000000
       20285000	      2027	80001b10	00000013	addi	x0,x0,0	  x0:0x00000000
       20295000	      2028	80001b14	00000013	addi	x0,x0,0	  x0:0x00000000
       20305000	      2029	80001b18	001f8f93	addi	x31,x31,1	 x31:0x00000007 x31=0x00000008
       20315000	      2030	80001b1c	41c98c33	sub	x24,x19,x28	 x19:0x0000007b x28:0x0000000a x24=0x00000071
       20325000	      2031	80001b20	ffcfeae3	bltu	x31,x28,80001b14	 x31:0x00000008 x28:0x0000000a
       20335000	      2032	00000000	00000013	addi	x0,x0,0	  x0:0x00000000
       20345000	      2033	80001b10	00000013	addi	x0,x0,0	  x0:0x00000000
       20355000	      2034	80001b14	00000013	addi	x0,x0,0	  x0:0x00000000
       20365000	      2035	80001b18	001f8f93	addi	x31,x31,1	 x31:0x00000008 x31=0x00000009
       20375000	      2036	80001b1c	41c98c33	sub	x24,x19,x28	 x19:0x0000007b x28:0x0000000a x24=0x00000071
       20385000	      2037	80001b20	ffcfeae3	bltu	x31,x28,80001b14	 x31:0x00000009 x28:0x0000000a
       20395000	      2038	00000000	00000013	addi	x0,x0,0	  x0:0x00000000
       20405000	      2039	80001b10	00000013	addi	x0,x0,0	  x0:0x00000000
       20415000	      2040	80001b14	00000013	addi	x0,x0,0	  x0:0x00000000
       20425000	      2041	80001b18	001f8f93	addi	x31,x31,1	 x31:0x00000009 x31=0x0000000a
       20435000	      2042	80001b1c	41c98c33	sub	x24,x19,x28	 x19:0x0000007b x28:0x0000000a x24=0x00000071
       20445000	      2043	80001b20	ffcfeae3	bltu	x31,x28,80001b14	 x31:0x0000000a x28:0x0000000a
       20455000	      2044	80001b24	7c81b013	sltiu	x0,x3,1992	  x3:0x80000487
       20465000	      2045	80001b28	967fb213	sltiu	x4,x31,-1689	 x31:0x0000000a  x4=0x00000001
       20475000	      2046	80001b2c	fc6b46e3	blt	x22,x6,80001af8	 x22:0x0000000a  x6:0x0000000c
       20485000	      2047	00000000	00000013	addi	x0,x0,0	  x0:0x00000000
       20495000	      2048	80001af4	00000013	addi	x0,x0,0	  x0:0x00000000
       20505000	      2049	80001af8	0146f4b3	and	x9,x13,x20	 x13:0x00000000 x20:0x3dfd5173  x9=0x00000000
       20515000	      2050	80001afc	019faab3	slt	x21,x31,x25	 x31:0x0000000a x25:0xffffffee x21=0x00000000
       20525000	      2051	80001b00	00ab0b13	addi	x22,x22,10	 x22:0x0000000a x22=0x00000014
       20535000	      2052	80001b04	fff00f93	addi	x31,x0,-1	  x0:0x00000000 x31=0xffffffff
       20545000	      2053	80001b08	0001d193	srli	x3,x3,0x0	  x3:0x80000487  x3=0x80000487
       20555000	      2054	80001b0c	00a00e13	addi	x28,x0,10	  x0:0x00000000 x28=0x0000000a
       20565000	      2055	80001b10	00693533	sltu	x10,x18,x6	 x18:0x317bf000  x6:0x0000000c x10=0x00000000
       20575000	      2056	80001b14	00000013	addi	x0,x0,0	  x0:0x00000000
       20585000	      2057	80001b18	001f8f93	addi	x31,x31,1	 x31:0xffffffff x31=0x00000000
       20595000	      2058	80001b1c	41c98c33	sub	x24,x19,x28	 x19:0x0000007b x28:0x0000000a x24=0x00000071
       20605000	      2059	80001b20	ffcfeae3	bltu	x31,x28,80001b14	 x31:0x00000000 x28:0x0000000a
       20615000	      2060	00000000	00000013	addi	x0,x0,0	  x0:0x00000000
       20625000	      2061	80001b10	00000013	addi	x0,x0,0	  x0:0x00000000
       20635000	      2062	80001b14	00000013	addi	x0,x0,0	  x0:0x00000000
       20645000	      2063	80001b18	001f8f93	addi	x31,x31,1	 x31:0x00000000 x31=0x00000001
       20655000	      2064	80001b1c	41c98c33	sub	x24,x19,x28	 x19:0x0000007b x28:0x0000000a x24=0x00000071
       20665000	      2065	80001b20	ffcfeae3	bltu	x31,x28,80001b14	 x31:0x00000001 x28:0x0000000a
       20675000	      2066	00000000	00000013	addi	x0,x0,0	  x0:0x00000000
       20685000	      2067	80001b10	00000013	addi	x0,x0,0	  x0:0x00000000
       20695000	      2068	80001b14	00000013	addi	x0,x0,0	  x0:0x00000000
       20705000	      2069	80001b18	001f8f93	addi	x31,x31,1	 x31:0x00000001 x31=0x00000002
       20715000	      2070	80001b1c	41c98c33	sub	x24,x19,x28	 x19:0x0000007b x28:0x0000000a x24=0x00000071
       20725000	      2071	80001b20	ffcfeae3	bltu	x31,x28,80001b14	 x31:0x00000002 x28:0x0000000a
       20735000	      2072	00000000	00000013	addi	x0,x0,0	  x0:0x00000000
       20745000	      2073	80001b10	00000013	addi	x0,x0,0	  x0:0x00000000
       20755000	      2074	80001b14	00000013	addi	x0,x0,0	  x0:0x00000000
       20765000	      2075	80001b18	001f8f93	addi	x31,x31,1	 x31:0x00000002 x31=0x00000003
       20775000	      2076	80001b1c	41c98c33	sub	x24,x19,x28	 x19:0x0000007b x28:0x0000000a x24=0x00000071
       20785000	      2077	80001b20	ffcfeae3	bltu	x31,x28,80001b14	 x31:0x00000003 x28:0x0000000a
       20795000	      2078	00000000	00000013	addi	x0,x0,0	  x0:0x00000000
       20805000	      2079	80001b10	00000013	addi	x0,x0,0	  x0:0x00000000
       20815000	      2080	80001b14	00000013	addi	x0,x0,0	  x0:0x00000000
       20825000	      2081	80001b18	001f8f93	addi	x31,x31,1	 x31:0x00000003 x31=0x00000004
       20835000	      2082	80001b1c	41c98c33	sub	x24,x19,x28	 x19:0x0000007b x28:0x0000000a x24=0x00000071
       20845000	      2083	80001b20	ffcfeae3	bltu	x31,x28,80001b14	 x31:0x00000004 x28:0x0000000a
       20855000	      2084	00000000	00000013	addi	x0,x0,0	  x0:0x00000000
       20865000	      2085	80001b10	00000013	addi	x0,x0,0	  x0:0x00000000
       20875000	      2086	80001b14	00000013	addi	x0,x0,0	  x0:0x00000000
       20885000	      2087	80001b18	001f8f93	addi	x31,x31,1	 x31:0x00000004 x31=0x00000005
       20895000	      2088	80001b1c	41c98c33	sub	x24,x19,x28	 x19:0x0000007b x28:0x0000000a x24=0x00000071
       20905000	      2089	80001b20	ffcfeae3	bltu	x31,x28,80001b14	 x31:0x00000005 x28:0x0000000a
       20915000	      2090	00000000	00000013	addi	x0,x0,0	  x0:0x00000000
       20925000	      2091	80001b10	00000013	addi	x0,x0,0	  x0:0x00000000
       20935000	      2092	80001b14	00000013	addi	x0,x0,0	  x0:0x00000000
       20945000	      2093	80001b18	001f8f93	addi	x31,x31,1	 x31:0x00000005 x31=0x00000006
       20955000	      2094	80001b1c	41c98c33	sub	x24,x19,x28	 x19:0x0000007b x28:0x0000000a x24=0x00000071
       20965000	      2095	80001b20	ffcfeae3	bltu	x31,x28,80001b14	 x31:0x00000006 x28:0x0000000a
       20975000	      2096	00000000	00000013	addi	x0,x0,0	  x0:0x00000000
       20985000	      2097	80001b10	00000013	addi	x0,x0,0	  x0:0x00000000
       20995000	      2098	80001b14	00000013	addi	x0,x0,0	  x0:0x00000000
       21005000	      2099	80001b18	001f8f93	addi	x31,x31,1	 x31:0x00000006 x31=0x00000007
       21015000	      2100	80001b1c	41c98c33	sub	x24,x19,x28	 x19:0x0000007b x28:0x0000000a x24=0x00000071
       21025000	      2101	80001b20	ffcfeae3	bltu	x31,x28,80001b14	 x31:0x00000007 x28:0x0000000a
       21035000	      2102	00000000	00000013	addi	x0,x0,0	  x0:0x00000000
       21045000	      2103	80001b10	00000013	addi	x0,x0,0	  x0:0x00000000
       21055000	      2104	80001b14	00000013	addi	x0,x0,0	  x0:0x00000000
       21065000	      2105	80001b18	001f8f93	addi	x31,x31,1	 x31:0x00000007 x31=0x00000008
       21075000	      2106	80001b1c	41c98c33	sub	x24,x19,x28	 x19:0x0000007b x28:0x0000000a x24=0x00000071
       21085000	      2107	80001b20	ffcfeae3	bltu	x31,x28,80001b14	 x31:0x00000008 x28:0x0000000a
       21095000	      2108	00000000	00000013	addi	x0,x0,0	  x0:0x00000000
       21105000	      2109	80001b10	00000013	addi	x0,x0,0	  x0:0x00000000
       21115000	      2110	80001b14	00000013	addi	x0,x0,0	  x0:0x00000000
       21125000	      2111	80001b18	001f8f93	addi	x31,x31,1	 x31:0x00000008 x31=0x00000009
       21135000	      2112	80001b1c	41c98c33	sub	x24,x19,x28	 x19:0x0000007b x28:0x0000000a x24=0x00000071
       21145000	      2113	80001b20	ffcfeae3	bltu	x31,x28,80001b14	 x31:0x00000009 x28:0x0000000a
       21155000	      2114	00000000	00000013	addi	x0,x0,0	  x0:0x00000000
       21165000	      2115	80001b10	00000013	addi	x0,x0,0	  x0:0x00000000
       21175000	      2116	80001b14	00000013	addi	x0,x0,0	  x0:0x00000000
       21185000	      2117	80001b18	001f8f93	addi	x31,x31,1	 x31:0x00000009 x31=0x0000000a
       21195000	      2118	80001b1c	41c98c33	sub	x24,x19,x28	 x19:0x0000007b x28:0x0000000a x24=0x00000071
       21205000	      2119	80001b20	ffcfeae3	bltu	x31,x28,80001b14	 x31:0x0000000a x28:0x0000000a
       21215000	      2120	80001b24	7c81b013	sltiu	x0,x3,1992	  x3:0x80000487
       21225000	      2121	80001b28	967fb213	sltiu	x4,x31,-1689	 x31:0x0000000a  x4=0x00000001
       21235000	      2122	80001b2c	fc6b46e3	blt	x22,x6,80001af8	 x22:0x00000014  x6:0x0000000c
       21245000	      2123	80001b30	73262113	slti	x2,x12,1842	 x12:0xffffffed  x2=0x00000001
       21255000	      2124	80001b34	00400193	addi	x3,x0,4	  x0:0x00000000  x3=0x00000004
       21265000	      2125	80001b38	01100f93	addi	x31,x0,17	  x0:0x00000000 x31=0x00000011
       21275000	      2126	80001b3c	362f6413	ori	x8,x30,866	 x30:0x80009f50  x8=0x80009f72
       21285000	      2127	80001b40	013734b3	sltu	x9,x14,x19	 x14:0x80009fc4 x19:0x0000007b  x9=0x00000000
       21295000	      2128	80001b44	015e5513	srli	x10,x28,0x15	 x28:0x0000000a x10=0x00000000
       21305000	      2129	80001b48	01c81b33	sll	x22,x16,x28	 x16:0x83feff35 x28:0x0000000a x22=0xfbfcd400
       21315000	      2130	80001b4c	6a15f693	andi	x13,x11,1697	 x11:0xffffffff x13=0x000006a1
       21325000	      2131	80001b50	84a46d93	ori	x27,x8,-1974	  x8:0x80009f72 x27=0xffffff7a
       21335000	      2132	80001b54	734bf0b7	lui	x1,0x734bf	  x1=0x734bf000
       21345000	      2133	80001b58	01a1b933	sltu	x18,x3,x26	  x3:0x00000004 x26:0x0000000b x18=0x00000001
       21355000	      2134	80001b5c	01e92ab3	slt	x21,x18,x30	 x18:0x00000001 x30:0x80009f50 x21=0x00000000
       21365000	      2135	80001b60	4064d913	srai	x18,x9,0x6	  x9:0x00000000 x18=0x00000000
       21375000	      2136	80001b64	f2e87213	andi	x4,x16,-210	 x16:0x83feff35  x4=0x83feff24
       21385000	      2137	80001b68	db150e93	addi	x29,x10,-591	 x10:0x00000000 x29=0xfffffdb1
       21395000	      2138	80001b6c	00718193	addi	x3,x3,7	  x3:0x00000004  x3=0x0000000b
       21405000	      2139	80001b70	01c44833	xor	x16,x8,x28	  x8:0x80009f72 x28:0x0000000a x16=0x80009f78
       21415000	      2140	80001b74	4367c013	xori	x0,x15,1078	 x15:0x00000001
       21425000	      2141	80001b78	937deb37	lui	x22,0x937de	 x22=0x937de000
       21435000	      2142	80001b7c	400b5c13	srai	x24,x22,0x0	 x22:0x937de000 x24=0x937de000
       21445000	      2143	80001b80	00000013	addi	x0,x0,0	  x0:0x00000000
       21455000	      2144	80001b84	9a434b17	auipc	x22,0x9a434	 x22=0x1a435b80
       21465000	      2145	80001b88	fbf1cce3	blt	x3,x31,80001b40	  x3:0x0000000b x31:0x00000011
       21475000	      2146	00000000	00000013	addi	x0,x0,0	  x0:0x00000000
       21485000	      2147	80001b3c	00000013	addi	x0,x0,0	  x0:0x00000000
       21495000	      2148	80001b40	013734b3	sltu	x9,x14,x19	 x14:0x80009fc4 x19:0x0000007b  x9=0x00000000
       21505000	      2149	80001b44	015e5513	srli	x10,x28,0x15	 x28:0x0000000a x10=0x00000000
       21515000	      2150	80001b48	01c81b33	sll	x22,x16,x28	 x16:0x80009f78 x28:0x0000000a x22=0x027de000
       21525000	      2151	80001b4c	6a15f693	andi	x13,x11,1697	 x11:0xffffffff x13=0x000006a1
       21535000	      2152	80001b50	84a46d93	ori	x27,x8,-1974	  x8:0x80009f72 x27=0xffffff7a
       21545000	      2153	80001b54	734bf0b7	lui	x1,0x734bf	  x1=0x734bf000
       21555000	      2154	80001b58	01a1b933	sltu	x18,x3,x26	  x3:0x0000000b x26:0x0000000b x18=0x00000000
       21565000	      2155	80001b5c	01e92ab3	slt	x21,x18,x30	 x18:0x00000000 x30:0x80009f50 x21=0x00000000
       21575000	      2156	80001b60	4064d913	srai	x18,x9,0x6	  x9:0x00000000 x18=0x00000000
       21585000	      2157	80001b64	f2e87213	andi	x4,x16,-210	 x16:0x80009f78  x4=0x80009f28
       21595000	      2158	80001b68	db150e93	addi	x29,x10,-591	 x10:0x00000000 x29=0xfffffdb1
       21605000	      2159	80001b6c	00718193	addi	x3,x3,7	  x3:0x0000000b  x3=0x00000012
       21615000	      2160	80001b70	01c44833	xor	x16,x8,x28	  x8:0x80009f72 x28:0x0000000a x16=0x80009f78
       21625000	      2161	80001b74	4367c013	xori	x0,x15,1078	 x15:0x00000001
       21635000	      2162	80001b78	937deb37	lui	x22,0x937de	 x22=0x937de000
       21645000	      2163	80001b7c	400b5c13	srai	x24,x22,0x0	 x22:0x937de000 x24=0x937de000
       21655000	      2164	80001b80	00000013	addi	x0,x0,0	  x0:0x00000000
       21665000	      2165	80001b84	9a434b17	auipc	x22,0x9a434	 x22=0x1a435b80
       21675000	      2166	80001b88	fbf1cce3	blt	x3,x31,80001b40	  x3:0x00000012 x31:0x00000011
       21685000	      2167	80001b8c	b8144993	xori	x19,x8,-1151	  x8:0x80009f72 x19=0x7fff64f3
       21695000	      2168	80001b90	ff600b93	addi	x23,x0,-10	  x0:0x00000000 x23=0xfffffff6
       21705000	      2169	80001b94	ffe00993	addi	x19,x0,-2	  x0:0x00000000 x19=0xfffffffe
       21715000	      2170	80001b98	80218113	addi	x2,x3,-2046	  x3:0x00000012  x2=0xfffff814
       21725000	      2171	80001b9c	52d74d93	xori	x27,x14,1325	 x14:0x80009fc4 x27=0x80009ae9
       21735000	      2172	80001ba0	2271c813	xori	x16,x3,551	  x3:0x00000012 x16=0x00000235
       21745000	      2173	80001ba4	1093a893	slti	x17,x7,265	  x7:0x00000000 x17=0x00000001
       21755000	      2174	80001ba8	dbff7893	andi	x17,x30,-577	 x30:0x80009f50 x17=0x80009d10
       21765000	      2175	80001bac	001b8b93	addi	x23,x23,1	 x23:0xfffffff6 x23=0xfffffff7
       21775000	      2176	80001bb0	ffb00793	addi	x15,x0,-5	  x0:0x00000000 x15=0xfffffffb
       21785000	      2177	80001bb4	00000013	addi	x0,x0,0	  x0:0x00000000
       21795000	      2178	80001bb8	01f1c5b3	xor	x11,x3,x31	  x3:0x00000012 x31:0x00000011 x11=0x00000003
       21805000	      2179	80001bbc	00d00513	addi	x10,x0,13	  x0:0x00000000 x10=0x0000000d
       21815000	      2180	80001bc0	58bfae13	slti	x28,x31,1419	 x31:0x00000011 x28=0x00000001
       21825000	      2181	80001bc4	00278793	addi	x15,x15,2	 x15:0xfffffffb x15=0xfffffffd
       21835000	      2182	80001bc8	00860b33	add	x22,x12,x8	 x12:0xffffffed  x8:0x80009f72 x22=0x80009f5f
       21845000	      2183	80001bcc	fea7eae3	bltu	x15,x10,80001bc0	 x15:0xfffffffd x10:0x0000000d
       21855000	      2184	80001bd0	daf0ba93	sltiu	x21,x1,-593	  x1:0x734bf000 x21=0x00000001
       21865000	      2185	80001bd4	fd3b94e3	bne	x23,x19,80001b9c	 x23:0xfffffff7 x19:0xfffffffe
       21875000	      2186	00000000	00000013	addi	x0,x0,0	  x0:0x00000000
       21885000	      2187	80001b98	00000013	addi	x0,x0,0	  x0:0x00000000
       21895000	      2188	80001b9c	52d74d93	xori	x27,x14,1325	 x14:0x80009fc4 x27=0x80009ae9
       21905000	      2189	80001ba0	2271c813	xori	x16,x3,551	  x3:0x00000012 x16=0x00000235
       21915000	      2190	80001ba4	1093a893	slti	x17,x7,265	  x7:0x00000000 x17=0x00000001
       21925000	      2191	80001ba8	dbff7893	andi	x17,x30,-577	 x30:0x80009f50 x17=0x80009d10
       21935000	      2192	80001bac	001b8b93	addi	x23,x23,1	 x23:0xfffffff7 x23=0xfffffff8
       21945000	      2193	80001bb0	ffb00793	addi	x15,x0,-5	  x0:0x00000000 x15=0xfffffffb
       21955000	      2194	80001bb4	00000013	addi	x0,x0,0	  x0:0x00000000
       21965000	      2195	80001bb8	01f1c5b3	xor	x11,x3,x31	  x3:0x00000012 x31:0x00000011 x11=0x00000003
       21975000	      2196	80001bbc	00d00513	addi	x10,x0,13	  x0:0x00000000 x10=0x0000000d
       21985000	      2197	80001bc0	58bfae13	slti	x28,x31,1419	 x31:0x00000011 x28=0x00000001
       21995000	      2198	80001bc4	00278793	addi	x15,x15,2	 x15:0xfffffffb x15=0xfffffffd
       22005000	      2199	80001bc8	00860b33	add	x22,x12,x8	 x12:0xffffffed  x8:0x80009f72 x22=0x80009f5f
       22015000	      2200	80001bcc	fea7eae3	bltu	x15,x10,80001bc0	 x15:0xfffffffd x10:0x0000000d
       22025000	      2201	80001bd0	daf0ba93	sltiu	x21,x1,-593	  x1:0x734bf000 x21=0x00000001
       22035000	      2202	80001bd4	fd3b94e3	bne	x23,x19,80001b9c	 x23:0xfffffff8 x19:0xfffffffe
       22045000	      2203	00000000	00000013	addi	x0,x0,0	  x0:0x00000000
       22055000	      2204	80001b98	00000013	addi	x0,x0,0	  x0:0x00000000
       22065000	      2205	80001b9c	52d74d93	xori	x27,x14,1325	 x14:0x80009fc4 x27=0x80009ae9
       22075000	      2206	80001ba0	2271c813	xori	x16,x3,551	  x3:0x00000012 x16=0x00000235
       22085000	      2207	80001ba4	1093a893	slti	x17,x7,265	  x7:0x00000000 x17=0x00000001
       22095000	      2208	80001ba8	dbff7893	andi	x17,x30,-577	 x30:0x80009f50 x17=0x80009d10
       22105000	      2209	80001bac	001b8b93	addi	x23,x23,1	 x23:0xfffffff8 x23=0xfffffff9
       22115000	      2210	80001bb0	ffb00793	addi	x15,x0,-5	  x0:0x00000000 x15=0xfffffffb
       22125000	      2211	80001bb4	00000013	addi	x0,x0,0	  x0:0x00000000
       22135000	      2212	80001bb8	01f1c5b3	xor	x11,x3,x31	  x3:0x00000012 x31:0x00000011 x11=0x00000003
       22145000	      2213	80001bbc	00d00513	addi	x10,x0,13	  x0:0x00000000 x10=0x0000000d
       22155000	      2214	80001bc0	58bfae13	slti	x28,x31,1419	 x31:0x00000011 x28=0x00000001
       22165000	      2215	80001bc4	00278793	addi	x15,x15,2	 x15:0xfffffffb x15=0xfffffffd
       22175000	      2216	80001bc8	00860b33	add	x22,x12,x8	 x12:0xffffffed  x8:0x80009f72 x22=0x80009f5f
       22185000	      2217	80001bcc	fea7eae3	bltu	x15,x10,80001bc0	 x15:0xfffffffd x10:0x0000000d
       22195000	      2218	80001bd0	daf0ba93	sltiu	x21,x1,-593	  x1:0x734bf000 x21=0x00000001
       22205000	      2219	80001bd4	fd3b94e3	bne	x23,x19,80001b9c	 x23:0xfffffff9 x19:0xfffffffe
       22215000	      2220	00000000	00000013	addi	x0,x0,0	  x0:0x00000000
       22225000	      2221	80001b98	00000013	addi	x0,x0,0	  x0:0x00000000
       22235000	      2222	80001b9c	52d74d93	xori	x27,x14,1325	 x14:0x80009fc4 x27=0x80009ae9
       22245000	      2223	80001ba0	2271c813	xori	x16,x3,551	  x3:0x00000012 x16=0x00000235
       22255000	      2224	80001ba4	1093a893	slti	x17,x7,265	  x7:0x00000000 x17=0x00000001
       22265000	      2225	80001ba8	dbff7893	andi	x17,x30,-577	 x30:0x80009f50 x17=0x80009d10
       22275000	      2226	80001bac	001b8b93	addi	x23,x23,1	 x23:0xfffffff9 x23=0xfffffffa
       22285000	      2227	80001bb0	ffb00793	addi	x15,x0,-5	  x0:0x00000000 x15=0xfffffffb
       22295000	      2228	80001bb4	00000013	addi	x0,x0,0	  x0:0x00000000
       22305000	      2229	80001bb8	01f1c5b3	xor	x11,x3,x31	  x3:0x00000012 x31:0x00000011 x11=0x00000003
       22315000	      2230	80001bbc	00d00513	addi	x10,x0,13	  x0:0x00000000 x10=0x0000000d
       22325000	      2231	80001bc0	58bfae13	slti	x28,x31,1419	 x31:0x00000011 x28=0x00000001
       22335000	      2232	80001bc4	00278793	addi	x15,x15,2	 x15:0xfffffffb x15=0xfffffffd
       22345000	      2233	80001bc8	00860b33	add	x22,x12,x8	 x12:0xffffffed  x8:0x80009f72 x22=0x80009f5f
       22355000	      2234	80001bcc	fea7eae3	bltu	x15,x10,80001bc0	 x15:0xfffffffd x10:0x0000000d
       22365000	      2235	80001bd0	daf0ba93	sltiu	x21,x1,-593	  x1:0x734bf000 x21=0x00000001
       22375000	      2236	80001bd4	fd3b94e3	bne	x23,x19,80001b9c	 x23:0xfffffffa x19:0xfffffffe
       22385000	      2237	00000000	00000013	addi	x0,x0,0	  x0:0x00000000
       22395000	      2238	80001b98	00000013	addi	x0,x0,0	  x0:0x00000000
       22405000	      2239	80001b9c	52d74d93	xori	x27,x14,1325	 x14:0x80009fc4 x27=0x80009ae9
       22415000	      2240	80001ba0	2271c813	xori	x16,x3,551	  x3:0x00000012 x16=0x00000235
       22425000	      2241	80001ba4	1093a893	slti	x17,x7,265	  x7:0x00000000 x17=0x00000001
       22435000	      2242	80001ba8	dbff7893	andi	x17,x30,-577	 x30:0x80009f50 x17=0x80009d10
       22445000	      2243	80001bac	001b8b93	addi	x23,x23,1	 x23:0xfffffffa x23=0xfffffffb
       22455000	      2244	80001bb0	ffb00793	addi	x15,x0,-5	  x0:0x00000000 x15=0xfffffffb
       22465000	      2245	80001bb4	00000013	addi	x0,x0,0	  x0:0x00000000
       22475000	      2246	80001bb8	01f1c5b3	xor	x11,x3,x31	  x3:0x00000012 x31:0x00000011 x11=0x00000003
       22485000	      2247	80001bbc	00d00513	addi	x10,x0,13	  x0:0x00000000 x10=0x0000000d
       22495000	      2248	80001bc0	58bfae13	slti	x28,x31,1419	 x31:0x00000011 x28=0x00000001
       22505000	      2249	80001bc4	00278793	addi	x15,x15,2	 x15:0xfffffffb x15=0xfffffffd
       22515000	      2250	80001bc8	00860b33	add	x22,x12,x8	 x12:0xffffffed  x8:0x80009f72 x22=0x80009f5f
       22525000	      2251	80001bcc	fea7eae3	bltu	x15,x10,80001bc0	 x15:0xfffffffd x10:0x0000000d
       22535000	      2252	80001bd0	daf0ba93	sltiu	x21,x1,-593	  x1:0x734bf000 x21=0x00000001
       22545000	      2253	80001bd4	fd3b94e3	bne	x23,x19,80001b9c	 x23:0xfffffffb x19:0xfffffffe
       22555000	      2254	00000000	00000013	addi	x0,x0,0	  x0:0x00000000
       22565000	      2255	80001b98	00000013	addi	x0,x0,0	  x0:0x00000000
       22575000	      2256	80001b9c	52d74d93	xori	x27,x14,1325	 x14:0x80009fc4 x27=0x80009ae9
       22585000	      2257	80001ba0	2271c813	xori	x16,x3,551	  x3:0x00000012 x16=0x00000235
       22595000	      2258	80001ba4	1093a893	slti	x17,x7,265	  x7:0x00000000 x17=0x00000001
       22605000	      2259	80001ba8	dbff7893	andi	x17,x30,-577	 x30:0x80009f50 x17=0x80009d10
       22615000	      2260	80001bac	001b8b93	addi	x23,x23,1	 x23:0xfffffffb x23=0xfffffffc
       22625000	      2261	80001bb0	ffb00793	addi	x15,x0,-5	  x0:0x00000000 x15=0xfffffffb
       22635000	      2262	80001bb4	00000013	addi	x0,x0,0	  x0:0x00000000
       22645000	      2263	80001bb8	01f1c5b3	xor	x11,x3,x31	  x3:0x00000012 x31:0x00000011 x11=0x00000003
       22655000	      2264	80001bbc	00d00513	addi	x10,x0,13	  x0:0x00000000 x10=0x0000000d
       22665000	      2265	80001bc0	58bfae13	slti	x28,x31,1419	 x31:0x00000011 x28=0x00000001
       22675000	      2266	80001bc4	00278793	addi	x15,x15,2	 x15:0xfffffffb x15=0xfffffffd
       22685000	      2267	80001bc8	00860b33	add	x22,x12,x8	 x12:0xffffffed  x8:0x80009f72 x22=0x80009f5f
       22695000	      2268	80001bcc	fea7eae3	bltu	x15,x10,80001bc0	 x15:0xfffffffd x10:0x0000000d
       22705000	      2269	80001bd0	daf0ba93	sltiu	x21,x1,-593	  x1:0x734bf000 x21=0x00000001
       22715000	      2270	80001bd4	fd3b94e3	bne	x23,x19,80001b9c	 x23:0xfffffffc x19:0xfffffffe
       22725000	      2271	00000000	00000013	addi	x0,x0,0	  x0:0x00000000
       22735000	      2272	80001b98	00000013	addi	x0,x0,0	  x0:0x00000000
       22745000	      2273	80001b9c	52d74d93	xori	x27,x14,1325	 x14:0x80009fc4 x27=0x80009ae9
       22755000	      2274	80001ba0	2271c813	xori	x16,x3,551	  x3:0x00000012 x16=0x00000235
       22765000	      2275	80001ba4	1093a893	slti	x17,x7,265	  x7:0x00000000 x17=0x00000001
       22775000	      2276	80001ba8	dbff7893	andi	x17,x30,-577	 x30:0x80009f50 x17=0x80009d10
       22785000	      2277	80001bac	001b8b93	addi	x23,x23,1	 x23:0xfffffffc x23=0xfffffffd
       22795000	      2278	80001bb0	ffb00793	addi	x15,x0,-5	  x0:0x00000000 x15=0xfffffffb
       22805000	      2279	80001bb4	00000013	addi	x0,x0,0	  x0:0x00000000
       22815000	      2280	80001bb8	01f1c5b3	xor	x11,x3,x31	  x3:0x00000012 x31:0x00000011 x11=0x00000003
       22825000	      2281	80001bbc	00d00513	addi	x10,x0,13	  x0:0x00000000 x10=0x0000000d
       22835000	      2282	80001bc0	58bfae13	slti	x28,x31,1419	 x31:0x00000011 x28=0x00000001
       22845000	      2283	80001bc4	00278793	addi	x15,x15,2	 x15:0xfffffffb x15=0xfffffffd
       22855000	      2284	80001bc8	00860b33	add	x22,x12,x8	 x12:0xffffffed  x8:0x80009f72 x22=0x80009f5f
       22865000	      2285	80001bcc	fea7eae3	bltu	x15,x10,80001bc0	 x15:0xfffffffd x10:0x0000000d
       22875000	      2286	80001bd0	daf0ba93	sltiu	x21,x1,-593	  x1:0x734bf000 x21=0x00000001
       22885000	      2287	80001bd4	fd3b94e3	bne	x23,x19,80001b9c	 x23:0xfffffffd x19:0xfffffffe
       22895000	      2288	00000000	00000013	addi	x0,x0,0	  x0:0x00000000
       22905000	      2289	80001b98	00000013	addi	x0,x0,0	  x0:0x00000000
       22915000	      2290	80001b9c	52d74d93	xori	x27,x14,1325	 x14:0x80009fc4 x27=0x80009ae9
       22925000	      2291	80001ba0	2271c813	xori	x16,x3,551	  x3:0x00000012 x16=0x00000235
       22935000	      2292	80001ba4	1093a893	slti	x17,x7,265	  x7:0x00000000 x17=0x00000001
       22945000	      2293	80001ba8	dbff7893	andi	x17,x30,-577	 x30:0x80009f50 x17=0x80009d10
       22955000	      2294	80001bac	001b8b93	addi	x23,x23,1	 x23:0xfffffffd x23=0xfffffffe
       22965000	      2295	80001bb0	ffb00793	addi	x15,x0,-5	  x0:0x00000000 x15=0xfffffffb
       22975000	      2296	80001bb4	00000013	addi	x0,x0,0	  x0:0x00000000
       22985000	      2297	80001bb8	01f1c5b3	xor	x11,x3,x31	  x3:0x00000012 x31:0x00000011 x11=0x00000003
       22995000	      2298	80001bbc	00d00513	addi	x10,x0,13	  x0:0x00000000 x10=0x0000000d
       23005000	      2299	80001bc0	58bfae13	slti	x28,x31,1419	 x31:0x00000011 x28=0x00000001
       23015000	      2300	80001bc4	00278793	addi	x15,x15,2	 x15:0xfffffffb x15=0xfffffffd
       23025000	      2301	80001bc8	00860b33	add	x22,x12,x8	 x12:0xffffffed  x8:0x80009f72 x22=0x80009f5f
       23035000	      2302	80001bcc	fea7eae3	bltu	x15,x10,80001bc0	 x15:0xfffffffd x10:0x0000000d
       23045000	      2303	80001bd0	daf0ba93	sltiu	x21,x1,-593	  x1:0x734bf000 x21=0x00000001
       23055000	      2304	80001bd4	fd3b94e3	bne	x23,x19,80001b9c	 x23:0xfffffffe x19:0xfffffffe
       23065000	      2305	80001bd8	014c4db3	xor	x27,x24,x20	 x24:0x937de000 x20:0x3dfd5173 x27=0xae80b173
       23075000	      2306	80001bdc	00700613	addi	x12,x0,7	  x0:0x00000000 x12=0x00000007
       23085000	      2307	80001be0	00f00c93	addi	x25,x0,15	  x0:0x00000000 x25=0x0000000f
       23095000	      2308	80001be4	41bad693	srai	x13,x21,0x1b	 x21:0x00000001 x13=0x00000000
       23105000	      2309	80001be8	0032d6b3	srl	x13,x5,x3	  x5:0x80000487  x3:0x00000012 x13=0x00002000
       23115000	      2310	80001bec	7ac20513	addi	x10,x4,1964	  x4:0x80009f28 x10=0x8000a6d4
       23125000	      2311	80001bf0	9211c593	xori	x11,x3,-1759	  x3:0x00000012 x11=0xfffff933
       23135000	      2312	80001bf4	7d93e993	ori	x19,x7,2009	  x7:0x00000000 x19=0x000007d9
       23145000	      2313	80001bf8	f337a393	slti	x7,x15,-205	 x15:0xfffffffd  x7=0x00000000
       23155000	      2314	80001bfc	01084433	xor	x8,x16,x16	 x16:0x00000235 x16:0x00000235  x8=0x00000000
       23165000	      2315	80001c00	17a5bd93	sltiu	x27,x11,378	 x11:0xfffff933 x27=0x00000000
       23175000	      2316	80001c04	00260613	addi	x12,x12,2	 x12:0x00000007 x12=0x00000009
       23185000	      2317	80001c08	00900a13	addi	x20,x0,9	  x0:0x00000000 x20=0x00000009
       23195000	      2318	80001c0c	00081793	slli	x15,x16,0x0	 x16:0x00000235 x15=0x00000235
       23205000	      2319	80001c10	00800213	addi	x4,x0,8	  x0:0x00000000  x4=0x00000008
       23215000	      2320	80001c14	01e5a333	slt	x6,x11,x30	 x11:0xfffff933 x30:0x80009f50  x6=0x00000000
       23225000	      2321	80001c18	ffda0a13	addi	x20,x20,-3	 x20:0x00000009 x20=0x00000006
       23235000	      2322	80001c1c	00d5f5b3	and	x11,x11,x13	 x11:0xfffff933 x13:0x00002000 x11=0x00002000
       23245000	      2323	80001c20	550a3113	sltiu	x2,x20,1360	 x20:0x00000006  x2=0x00000001
       23255000	      2324	80001c24	41a95b33	sra	x22,x18,x26	 x18:0x00000000 x26:0x0000000b x22=0x00000000
       23265000	      2325	80001c28	d4654e93	xori	x29,x10,-698	 x10:0x8000a6d4 x29=0x7fff5b92
       23275000	      2326	80001c2c	fe4a74e3	bgeu	x20,x4,80001c14	 x20:0x00000006  x4:0x00000008
       23285000	      2327	80001c30	fd9606e3	beq	x12,x25,80001bfc	 x12:0x00000009 x25:0x0000000f
       23295000	      2328	80001c34	4178d913	srai	x18,x17,0x17	 x17:0x80009d10 x18=0xffffff00
       23305000	      2329	80001c38	ffe00413	addi	x8,x0,-2	  x0:0x00000000  x8=0xfffffffe
       23315000	      2330	80001c3c	011c30b3	sltu	x1,x24,x17	 x24:0x937de000 x17:0x80009d10  x1=0x00000000
       23325000	      2331	80001c40	0038b333	sltu	x6,x17,x3	 x17:0x80009d10  x3:0x00000012  x6=0x00000000
       23335000	      2332	80001c44	575d0b93	addi	x23,x26,1397	 x26:0x0000000b x23=0x00000580
       23345000	      2333	80001c48	01ef62b3	or	x5,x30,x30	 x30:0x80009f50 x30:0x80009f50  x5=0x80009f50
       23355000	      2334	80001c4c	00dc5933	srl	x18,x24,x13	 x24:0x937de000 x13:0x00002000 x18=0x937de000
       23365000	      2335	80001c50	0087b133	sltu	x2,x15,x8	 x15:0x00000235  x8:0xfffffffe  x2=0x00000001
       23375000	      2336	80001c54	00600613	addi	x12,x0,6	  x0:0x00000000 x12=0x00000006
       23385000	      2337	80001c58	4120deb3	sra	x29,x1,x18	  x1:0x00000000 x18:0x937de000 x29=0x00000000
       23395000	      2338	80001c5c	7c0aa593	slti	x11,x21,1984	 x21:0x00000001 x11=0x00000001
       23405000	      2339	80001c60	000b0233	add	x4,x22,x0	 x22:0x00000000  x0:0x00000000  x4=0x00000000
       23415000	      2340	80001c64	0000d1b3	srl	x3,x1,x0	  x1:0x00000000  x0:0x00000000  x3=0x00000000
       23425000	      2341	80001c68	6e4ae537	lui	x10,0x6e4ae	 x10=0x6e4ae000
       23435000	      2342	80001c6c	008ca033	slt	x0,x25,x8	 x25:0x0000000f  x8:0xfffffffe
       23445000	      2343	80001c70	000f04b3	add	x9,x30,x0	 x30:0x80009f50  x0:0x00000000  x9=0x80009f50
       23455000	      2344	80001c74	009cd913	srli	x18,x25,0x9	 x25:0x0000000f x18=0x00000000
       23465000	      2345	80001c78	00000013	addi	x0,x0,0	  x0:0x00000000
       23475000	      2346	80001c7c	e3cd0d93	addi	x27,x26,-452	 x26:0x0000000b x27=0xfffffe47
       23485000	      2347	80001c80	00440413	addi	x8,x8,4	  x8:0xfffffffe  x8=0x00000002
       23495000	      2348	80001c84	970bab37	lui	x22,0x970ba	 x22=0x970ba000
       23505000	      2349	80001c88	019c11b3	sll	x3,x24,x25	 x24:0x937de000 x25:0x0000000f  x3=0xf0000000
       23515000	      2350	80001c8c	155f5897	auipc	x17,0x155f5	 x17=0x955f6c88
       23525000	      2351	80001c90	00afb7b3	sltu	x15,x31,x10	 x31:0x00000011 x10:0x6e4ae000 x15=0x00000001
       23535000	      2352	80001c94	fcc40ae3	beq	x8,x12,80001c68	  x8:0x00000002 x12:0x00000006
       23545000	      2353	80001c98	0010bcb3	sltu	x25,x1,x1	  x1:0x00000000  x1:0x00000000 x25=0x00000000
       23555000	      2354	80001c9c	00800913	addi	x18,x0,8	  x0:0x00000000 x18=0x00000008
       23565000	      2355	80001ca0	00c4c0b3	xor	x1,x9,x12	  x9:0x80009f50 x12:0x00000006  x1=0x80009f56
       23575000	      2356	80001ca4	000e5233	srl	x4,x28,x0	 x28:0x00000001  x0:0x00000000  x4=0x00000001
       23585000	      2357	80001ca8	40e05e33	sra	x28,x0,x14	  x0:0x00000000 x14:0x80009fc4 x28=0x00000000
       23595000	      2358	80001cac	01d3e9b3	or	x19,x7,x29	  x7:0x00000000 x29:0x00000000 x19=0x00000000
       23605000	      2359	80001cb0	00d17b13	andi	x22,x2,13	  x2:0x00000001 x22=0x00000001
       23615000	      2360	80001cb4	23f74993	xori	x19,x14,575	 x14:0x80009fc4 x19=0x80009dfb
       23625000	      2361	80001cb8	0138a533	slt	x10,x17,x19	 x17:0x955f6c88 x19:0x80009dfb x10=0x00000000
       23635000	      2362	80001cbc	414e2e93	slti	x29,x28,1044	 x28:0x00000000 x29=0x00000001
       23645000	      2363	80001cc0	003da233	slt	x4,x27,x3	 x27:0xfffffe47  x3:0xf0000000  x4=0x00000000
       23655000	      2364	80001cc4	5ea3c393	xori	x7,x7,1514	  x7:0x00000000  x7=0x000005ea
       23665000	      2365	80001cc8	01100b93	addi	x23,x0,17	  x0:0x00000000 x23=0x00000011
       23675000	      2366	80001ccc	0089e2b3	or	x5,x19,x8	 x19:0x80009dfb  x8:0x00000002  x5=0x80009dfb
       23685000	      2367	80001cd0	010da3b3	slt	x7,x27,x16	 x27:0xfffffe47 x16:0x00000235  x7=0x00000001
       23695000	      2368	80001cd4	00c1c7b3	xor	x15,x3,x12	  x3:0xf0000000 x12:0x00000006 x15=0xf0000006
       23705000	      2369	80001cd8	00990913	addi	x18,x18,9	 x18:0x00000008 x18=0x00000011
       23715000	      2370	80001cdc	60787213	andi	x4,x16,1543	 x16:0x00000235  x4=0x00000205
       23725000	      2371	80001ce0	4110d1b3	sra	x3,x1,x17	  x1:0x80009f56 x17:0x955f6c88  x3=0xff80009f
       23735000	      2372	80001ce4	008f1093	slli	x1,x30,0x8	 x30:0x80009f50  x1=0x009f5000
       23745000	      2373	80001ce8	018fe1b3	or	x3,x31,x24	 x31:0x00000011 x24:0x937de000  x3=0x937de011
       23755000	      2374	80001cec	01b9a133	slt	x2,x19,x27	 x19:0x80009dfb x27:0xfffffe47  x2=0x00000001
       23765000	      2375	80001cf0	ff7900e3	beq	x18,x23,80001cd0	 x18:0x00000011 x23:0x00000011
       23775000	      2376	00000000	00000013	addi	x0,x0,0	  x0:0x00000000
       23785000	      2377	80001ccc	00000013	addi	x0,x0,0	  x0:0x00000000
       23795000	      2378	80001cd0	010da3b3	slt	x7,x27,x16	 x27:0xfffffe47 x16:0x00000235  x7=0x00000001
       23805000	      2379	80001cd4	00c1c7b3	xor	x15,x3,x12	  x3:0x937de011 x12:0x00000006 x15=0x937de017
       23815000	      2380	80001cd8	00990913	addi	x18,x18,9	 x18:0x00000011 x18=0x0000001a
       23825000	      2381	80001cdc	60787213	andi	x4,x16,1543	 x16:0x00000235  x4=0x00000205
       23835000	      2382	80001ce0	4110d1b3	sra	x3,x1,x17	  x1:0x009f5000 x17:0x955f6c88  x3=0x00009f50
       23845000	      2383	80001ce4	008f1093	slli	x1,x30,0x8	 x30:0x80009f50  x1=0x009f5000
       23855000	      2384	80001ce8	018fe1b3	or	x3,x31,x24	 x31:0x00000011 x24:0x937de000  x3=0x937de011
       23865000	      2385	80001cec	01b9a133	slt	x2,x19,x27	 x19:0x80009dfb x27:0xfffffe47  x2=0x00000001
       23875000	      2386	80001cf0	ff7900e3	beq	x18,x23,80001cd0	 x18:0x0000001a x23:0x00000011
       23885000	      2387	80001cf4	15c8c797	auipc	x15,0x15c8c	 x15=0x95c8dcf0
       23895000	      2388	80001cf8	00000413	addi	x8,x0,0	  x0:0x00000000  x8=0x00000000
       23905000	      2389	80001cfc	38b6ec93	ori	x25,x13,907	 x13:0x00002000 x25=0x0000238b
       23915000	      2390	80001d00	4fa2f393	andi	x7,x5,1274	  x5:0x80009dfb  x7=0x000004fa
       23925000	      2391	80001d04	1d44fa13	andi	x20,x9,468	  x9:0x80009f50 x20=0x00000150
       23935000	      2392	80001d08	ff900f93	addi	x31,x0,-7	  x0:0x00000000 x31=0xfffffff9
       23945000	      2393	80001d0c	40e98bb3	sub	x23,x19,x14	 x19:0x80009dfb x14:0x80009fc4 x23=0xfffffe37
       23955000	      2394	80001d10	bebe1a37	lui	x20,0xbebe1	 x20=0xbebe1000
       23965000	      2395	80001d14	4737c393	xori	x7,x15,1139	 x15:0x95c8dcf0  x7=0x95c8d883
       23975000	      2396	80001d18	ff940413	addi	x8,x8,-7	  x8:0x00000000  x8=0xfffffff9
       23985000	      2397	80001d1c	6f25bc37	lui	x24,0x6f25b	 x24=0x6f25b000
       23995000	      2398	80001d20	9d164393	xori	x7,x12,-1583	 x12:0x00000006  x7=0xfffff9d7
       24005000	      2399	80001d24	7b12b893	sltiu	x17,x5,1969	  x5:0x80009dfb x17=0x00000000
       24015000	      2400	80001d28	00795533	srl	x10,x18,x7	 x18:0x0000001a  x7:0xfffff9d7 x10=0x00000000
       24025000	      2401	80001d2c	48622393	slti	x7,x4,1158	  x4:0x00000205  x7=0x00000001
       24035000	      2402	80001d30	01ca3a33	sltu	x20,x20,x28	 x20:0xbebe1000 x28:0x00000000 x20=0x00000000
       24045000	      2403	80001d34	013fa0b3	slt	x1,x31,x19	 x31:0xfffffff9 x19:0x80009dfb  x1=0x00000000
       24055000	      2404	80001d38	00000013	addi	x0,x0,0	  x0:0x00000000
       24065000	      2405	80001d3c	6de53613	sltiu	x12,x10,1758	 x10:0x00000000 x12=0x00000001
       24075000	      2406	80001d40	401ed793	srai	x15,x29,0x1	 x29:0x00000001 x15=0x00000000
       24085000	      2407	80001d44	4935da17	auipc	x20,0x4935d	 x20=0xc935ed40
       24095000	      2408	80001d48	00bb31b3	sltu	x3,x22,x11	 x22:0x00000001 x11:0x00000001  x3=0x00000000
       24105000	      2409	80001d4c	6f9fad93	slti	x27,x31,1785	 x31:0xfffffff9 x27=0x00000001
       24115000	      2410	80001d50	fdf400e3	beq	x8,x31,80001d10	  x8:0xfffffff9 x31:0xfffffff9
       24125000	      2411	00000000	00000013	addi	x0,x0,0	  x0:0x00000000
       24135000	      2412	80001d0c	00000013	addi	x0,x0,0	  x0:0x00000000
       24145000	      2413	80001d10	bebe1a37	lui	x20,0xbebe1	 x20=0xbebe1000
       24155000	      2414	80001d14	4737c393	xori	x7,x15,1139	 x15:0x00000000  x7=0x00000473
       24165000	      2415	80001d18	ff940413	addi	x8,x8,-7	  x8:0xfffffff9  x8=0xfffffff2
       24175000	      2416	80001d1c	6f25bc37	lui	x24,0x6f25b	 x24=0x6f25b000
       24185000	      2417	80001d20	9d164393	xori	x7,x12,-1583	 x12:0x00000001  x7=0xfffff9d0
       24195000	      2418	80001d24	7b12b893	sltiu	x17,x5,1969	  x5:0x80009dfb x17=0x00000000
       24205000	      2419	80001d28	00795533	srl	x10,x18,x7	 x18:0x0000001a  x7:0xfffff9d0 x10=0x00000000
       24215000	      2420	80001d2c	48622393	slti	x7,x4,1158	  x4:0x00000205  x7=0x00000001
       24225000	      2421	80001d30	01ca3a33	sltu	x20,x20,x28	 x20:0xbebe1000 x28:0x00000000 x20=0x00000000
       24235000	      2422	80001d34	013fa0b3	slt	x1,x31,x19	 x31:0xfffffff9 x19:0x80009dfb  x1=0x00000000
       24245000	      2423	80001d38	00000013	addi	x0,x0,0	  x0:0x00000000
       24255000	      2424	80001d3c	6de53613	sltiu	x12,x10,1758	 x10:0x00000000 x12=0x00000001
       24265000	      2425	80001d40	401ed793	srai	x15,x29,0x1	 x29:0x00000001 x15=0x00000000
       24275000	      2426	80001d44	4935da17	auipc	x20,0x4935d	 x20=0xc935ed40
       24285000	      2427	80001d48	00bb31b3	sltu	x3,x22,x11	 x22:0x00000001 x11:0x00000001  x3=0x00000000
       24295000	      2428	80001d4c	6f9fad93	slti	x27,x31,1785	 x31:0xfffffff9 x27=0x00000001
       24305000	      2429	80001d50	fdf400e3	beq	x8,x31,80001d10	  x8:0xfffffff2 x31:0xfffffff9
       24315000	      2430	80001d54	3ef1b013	sltiu	x0,x3,1007	  x3:0x00000000
       24325000	      2431	80001d58	00000813	addi	x16,x0,0	  x0:0x00000000 x16=0x00000000
       24335000	      2432	80001d5c	40415393	srai	x7,x2,0x4	  x2:0x00000001  x7=0x00000000
       24345000	      2433	80001d60	2d688e93	addi	x29,x17,726	 x17:0x00000000 x29=0x000002d6
       24355000	      2434	80001d64	ac810793	addi	x15,x2,-1336	  x2:0x00000001 x15=0xfffffac9
       24365000	      2435	80001d68	0135f8b3	and	x17,x11,x19	 x11:0x00000001 x19:0x80009dfb x17=0x00000001
       24375000	      2436	80001d6c	00f81bb3	sll	x23,x16,x15	 x16:0x00000000 x15:0xfffffac9 x23=0x00000000
       24385000	      2437	80001d70	01d82a33	slt	x20,x16,x29	 x16:0x00000000 x29:0x000002d6 x20=0x00000001
       24395000	      2438	80001d74	c6bdc913	xori	x18,x27,-917	 x27:0x00000001 x18=0xfffffc6a
       24405000	      2439	80001d78	00800693	addi	x13,x0,8	  x0:0x00000000 x13=0x00000008
       24415000	      2440	80001d7c	b8622397	auipc	x7,0xb8622	  x7=0x38623d78
       24425000	      2441	80001d80	0141d913	srli	x18,x3,0x14	  x3:0x00000000 x18=0x00000000
       24435000	      2442	80001d84	003cb7b3	sltu	x15,x25,x3	 x25:0x0000238b  x3:0x00000000 x15=0x00000000
       24445000	      2443	80001d88	01bc30b3	sltu	x1,x24,x27	 x24:0x6f25b000 x27:0x00000001  x1=0x00000000
       24455000	      2444	80001d8c	01c1bdb3	sltu	x27,x3,x28	  x3:0x00000000 x28:0x00000000 x27=0x00000000
       24465000	      2445	80001d90	00a80813	addi	x16,x16,10	 x16:0x00000000 x16=0x0000000a
       24475000	      2446	80001d94	638197b7	lui	x15,0x63819	 x15=0x63819000
       24485000	      2447	80001d98	4ef98393	addi	x7,x19,1263	 x19:0x80009dfb  x7=0x8000a2ea
       24495000	      2448	80001d9c	a460b093	sltiu	x1,x1,-1466	  x1:0x00000000  x1=0x00000001
       24505000	      2449	80001da0	fed864e3	bltu	x16,x13,80001d88	 x16:0x0000000a x13:0x00000008
       24515000	      2450	80001da4	009997b3	sll	x15,x19,x9	 x19:0x80009dfb  x9:0x80009f50 x15=0x9dfb0000
       24525000	      2451	80001da8	00300f93	addi	x31,x0,3	  x0:0x00000000 x31=0x00000003
       24535000	      2452	80001dac	ff900313	addi	x6,x0,-7	  x0:0x00000000  x6=0xfffffff9
       24545000	      2453	80001db0	5c2299b7	lui	x19,0x5c229	 x19=0x5c229000
       24555000	      2454	80001db4	004158b3	srl	x17,x2,x4	  x2:0x00000001  x4:0x00000205 x17=0x00000000
       24565000	      2455	80001db8	bf326113	ori	x2,x4,-1037	  x4:0x00000205  x2=0xfffffbf7
       24575000	      2456	80001dbc	ffbf8f93	addi	x31,x31,-5	 x31:0x00000003 x31=0xfffffffe
       24585000	      2457	80001dc0	00a00e93	addi	x29,x0,10	  x0:0x00000000 x29=0x0000000a
       24595000	      2458	80001dc4	00d8f133	and	x2,x17,x13	 x17:0x00000000 x13:0x00000008  x2=0x00000000
       24605000	      2459	80001dc8	00a00513	addi	x10,x0,10	  x0:0x00000000 x10=0x0000000a
       24615000	      2460	80001dcc	0031abb3	slt	x23,x3,x3	  x3:0x00000000  x3:0x00000000 x23=0x00000000
       24625000	      2461	80001dd0	408004b3	sub	x9,x0,x8	  x0:0x00000000  x8:0xfffffff2  x9=0x0000000e
       24635000	      2462	80001dd4	008badb3	slt	x27,x23,x8	 x23:0x00000000  x8:0xfffffff2 x27=0x00000000
       24645000	      2463	80001dd8	ffbe8e93	addi	x29,x29,-5	 x29:0x0000000a x29=0x00000005
       24655000	      2464	80001ddc	feaef8e3	bgeu	x29,x10,80001dcc	 x29:0x00000005 x10:0x0000000a
       24665000	      2465	80001de0	00264c33	xor	x24,x12,x2	 x12:0x00000001  x2:0x00000000 x24=0x00000001
       24675000	      2466	80001de4	fc6f86e3	beq	x31,x6,80001db0	 x31:0xfffffffe  x6:0xfffffff9
       24685000	      2467	80001de8	92524893	xori	x17,x4,-1755	  x4:0x00000205 x17=0xfffffb20
       24695000	      2468	80001dec	00500913	addi	x18,x0,5	  x0:0x00000000 x18=0x00000005
       24705000	      2469	80001df0	01dfc533	xor	x10,x31,x29	 x31:0xfffffffe x29:0x00000005 x10=0xfffffffb
       24715000	      2470	80001df4	00f00213	addi	x4,x0,15	  x0:0x00000000  x4=0x0000000f
       24725000	      2471	80001df8	b978e693	ori	x13,x17,-1129	 x17:0xfffffb20 x13=0xfffffbb7
       24735000	      2472	80001dfc	007982b3	add	x5,x19,x7	 x19:0x5c229000  x7:0x8000a2ea  x5=0xdc2332ea
       24745000	      2473	80001e00	cdd22093	slti	x1,x4,-803	  x4:0x0000000f  x1=0x00000000
       24755000	      2474	80001e04	00000013	addi	x0,x0,0	  x0:0x00000000
       24765000	      2475	80001e08	d4097113	andi	x2,x18,-704	 x18:0x00000005  x2=0x00000000
       24775000	      2476	80001e0c	01fe5db3	srl	x27,x28,x31	 x28:0x00000000 x31:0xfffffffe x27=0x00000000
       24785000	      2477	80001e10	95445fb7	lui	x31,0x95445	 x31=0x95445000
       24795000	      2478	80001e14	404d5433	sra	x8,x26,x4	 x26:0x0000000b  x4:0x0000000f  x8=0x00000000
       24805000	      2479	80001e18	01b25893	srli	x17,x4,0x1b	  x4:0x0000000f x17=0x00000000
       24815000	      2480	80001e1c	aac5ae93	slti	x29,x11,-1364	 x11:0x00000001 x29=0x00000000
       24825000	      2481	80001e20	00890913	addi	x18,x18,8	 x18:0x00000005 x18=0x0000000d
       24835000	      2482	80001e24	01b71b33	sll	x22,x14,x27	 x14:0x80009fc4 x27:0x00000000 x22=0x80009fc4
       24845000	      2483	80001e28	8e190193	addi	x3,x18,-1823	 x18:0x0000000d  x3=0xfffff8ee
       24855000	      2484	80001e2c	40825513	srai	x10,x4,0x8	  x4:0x0000000f x10=0x00000000
       24865000	      2485	80001e30	00000013	addi	x0,x0,0	  x0:0x00000000
       24875000	      2486	80001e34	5c430cb7	lui	x25,0x5c430	 x25=0x5c430000
       24885000	      2487	80001e38	41d107b3	sub	x15,x2,x29	  x2:0x00000000 x29:0x00000000 x15=0x00000000
       24895000	      2488	80001e3c	015daab3	slt	x21,x27,x21	 x27:0x00000000 x21:0x00000001 x21=0x00000001
       24905000	      2489	80001e40	20fc2a93	slti	x21,x24,527	 x24:0x00000001 x21=0x00000001
       24915000	      2490	80001e44	e0ab3513	sltiu	x10,x22,-502	 x22:0x80009fc4 x10=0x00000001
       24925000	      2491	80001e48	fc4940e3	blt	x18,x4,80001e08	 x18:0x0000000d  x4:0x0000000f
       24935000	      2492	00000000	00000013	addi	x0,x0,0	  x0:0x00000000
       24945000	      2493	80001e04	00000013	addi	x0,x0,0	  x0:0x00000000
       24955000	      2494	80001e08	d4097113	andi	x2,x18,-704	 x18:0x0000000d  x2=0x00000000
       24965000	      2495	80001e0c	01fe5db3	srl	x27,x28,x31	 x28:0x00000000 x31:0x95445000 x27=0x00000000
       24975000	      2496	80001e10	95445fb7	lui	x31,0x95445	 x31=0x95445000
       24985000	      2497	80001e14	404d5433	sra	x8,x26,x4	 x26:0x0000000b  x4:0x0000000f  x8=0x00000000
       24995000	      2498	80001e18	01b25893	srli	x17,x4,0x1b	  x4:0x0000000f x17=0x00000000
       25005000	      2499	80001e1c	aac5ae93	slti	x29,x11,-1364	 x11:0x00000001 x29=0x00000000
       25015000	      2500	80001e20	00890913	addi	x18,x18,8	 x18:0x0000000d x18=0x00000015
       25025000	      2501	80001e24	01b71b33	sll	x22,x14,x27	 x14:0x80009fc4 x27:0x00000000 x22=0x80009fc4
       25035000	      2502	80001e28	8e190193	addi	x3,x18,-1823	 x18:0x00000015  x3=0xfffff8f6
       25045000	      2503	80001e2c	40825513	srai	x10,x4,0x8	  x4:0x0000000f x10=0x00000000
       25055000	      2504	80001e30	00000013	addi	x0,x0,0	  x0:0x00000000
       25065000	      2505	80001e34	5c430cb7	lui	x25,0x5c430	 x25=0x5c430000
       25075000	      2506	80001e38	41d107b3	sub	x15,x2,x29	  x2:0x00000000 x29:0x00000000 x15=0x00000000
       25085000	      2507	80001e3c	015daab3	slt	x21,x27,x21	 x27:0x00000000 x21:0x00000001 x21=0x00000001
       25095000	      2508	80001e40	20fc2a93	slti	x21,x24,527	 x24:0x00000001 x21=0x00000001
       25105000	      2509	80001e44	e0ab3513	sltiu	x10,x22,-502	 x22:0x80009fc4 x10=0x00000001
       25115000	      2510	80001e48	fc4940e3	blt	x18,x4,80001e08	 x18:0x00000015  x4:0x0000000f
       25125000	      2511	80001e4c	00f53c33	sltu	x24,x10,x15	 x10:0x00000001 x15:0x00000000 x24=0x00000000
       25135000	      2512	80001e50	ffe00093	addi	x1,x0,-2	  x0:0x00000000  x1=0xfffffffe
       25145000	      2513	80001e54	00c00793	addi	x15,x0,12	  x0:0x00000000 x15=0x0000000c
       25155000	      2514	80001e58	c8c7b593	sltiu	x11,x15,-884	 x15:0x0000000c x11=0x00000001
       25165000	      2515	80001e5c	40e581b3	sub	x3,x11,x14	 x11:0x00000001 x14:0x80009fc4  x3=0x7fff603d
       25175000	      2516	80001e60	00208093	addi	x1,x1,2	  x1:0xfffffffe  x1=0x00000000
       25185000	      2517	80001e64	00100413	addi	x8,x0,1	  x0:0x00000000  x8=0x00000001
       25195000	      2518	80001e68	00700893	addi	x17,x0,7	  x0:0x00000000 x17=0x00000007
       25205000	      2519	80001e6c	f3102693	slti	x13,x0,-207	  x0:0x00000000 x13=0x00000000
       25215000	      2520	80001e70	7d5fc393	xori	x7,x31,2005	 x31:0x95445000  x7=0x954457d5
       25225000	      2521	80001e74	40795693	srai	x13,x18,0x7	 x18:0x00000015 x13=0x00000000
       25235000	      2522	80001e78	00640413	addi	x8,x8,6	  x8:0x00000001  x8=0x00000007
       25245000	      2523	80001e7c	011f6b33	or	x22,x30,x17	 x30:0x80009f50 x17:0x00000007 x22=0x80009f57
       25255000	      2524	80001e80	0068da13	srli	x20,x17,0x6	 x17:0x00000007 x20=0x00000000
       25265000	      2525	80001e84	7c2784b7	lui	x9,0x7c278	  x9=0x7c278000
       25275000	      2526	80001e88	ff1404e3	beq	x8,x17,80001e70	  x8:0x00000007 x17:0x00000007
       25285000	      2527	00000000	00000013	addi	x0,x0,0	  x0:0x00000000
       25295000	      2528	80001e6c	00000013	addi	x0,x0,0	  x0:0x00000000
       25305000	      2529	80001e70	7d5fc393	xori	x7,x31,2005	 x31:0x95445000  x7=0x954457d5
       25315000	      2530	80001e74	40795693	srai	x13,x18,0x7	 x18:0x00000015 x13=0x00000000
       25325000	      2531	80001e78	00640413	addi	x8,x8,6	  x8:0x00000007  x8=0x0000000d
       25335000	      2532	80001e7c	011f6b33	or	x22,x30,x17	 x30:0x80009f50 x17:0x00000007 x22=0x80009f57
       25345000	      2533	80001e80	0068da13	srli	x20,x17,0x6	 x17:0x00000007 x20=0x00000000
       25355000	      2534	80001e84	7c2784b7	lui	x9,0x7c278	  x9=0x7c278000
       25365000	      2535	80001e88	ff1404e3	beq	x8,x17,80001e70	  x8:0x0000000d x17:0x00000007
       25375000	      2536	80001e8c	fcf0c6e3	blt	x1,x15,80001e58	  x1:0x00000000 x15:0x0000000c
       25385000	      2537	00000000	00000013	addi	x0,x0,0	  x0:0x00000000
       25395000	      2538	80001e54	00000013	addi	x0,x0,0	  x0:0x00000000
       25405000	      2539	80001e58	c8c7b593	sltiu	x11,x15,-884	 x15:0x0000000c x11=0x00000001
       25415000	      2540	80001e5c	40e581b3	sub	x3,x11,x14	 x11:0x00000001 x14:0x80009fc4  x3=0x7fff603d
       25425000	      2541	80001e60	00208093	addi	x1,x1,2	  x1:0x00000000  x1=0x00000002
       25435000	      2542	80001e64	00100413	addi	x8,x0,1	  x0:0x00000000  x8=0x00000001
       25445000	      2543	80001e68	00700893	addi	x17,x0,7	  x0:0x00000000 x17=0x00000007
       25455000	      2544	80001e6c	f3102693	slti	x13,x0,-207	  x0:0x00000000 x13=0x00000000
       25465000	      2545	80001e70	7d5fc393	xori	x7,x31,2005	 x31:0x95445000  x7=0x954457d5
       25475000	      2546	80001e74	40795693	srai	x13,x18,0x7	 x18:0x00000015 x13=0x00000000
       25485000	      2547	80001e78	00640413	addi	x8,x8,6	  x8:0x00000001  x8=0x00000007
       25495000	      2548	80001e7c	011f6b33	or	x22,x30,x17	 x30:0x80009f50 x17:0x00000007 x22=0x80009f57
       25505000	      2549	80001e80	0068da13	srli	x20,x17,0x6	 x17:0x00000007 x20=0x00000000
       25515000	      2550	80001e84	7c2784b7	lui	x9,0x7c278	  x9=0x7c278000
       25525000	      2551	80001e88	ff1404e3	beq	x8,x17,80001e70	  x8:0x00000007 x17:0x00000007
       25535000	      2552	00000000	00000013	addi	x0,x0,0	  x0:0x00000000
       25545000	      2553	80001e6c	00000013	addi	x0,x0,0	  x0:0x00000000
       25555000	      2554	80001e70	7d5fc393	xori	x7,x31,2005	 x31:0x95445000  x7=0x954457d5
       25565000	      2555	80001e74	40795693	srai	x13,x18,0x7	 x18:0x00000015 x13=0x00000000
       25575000	      2556	80001e78	00640413	addi	x8,x8,6	  x8:0x00000007  x8=0x0000000d
       25585000	      2557	80001e7c	011f6b33	or	x22,x30,x17	 x30:0x80009f50 x17:0x00000007 x22=0x80009f57
       25595000	      2558	80001e80	0068da13	srli	x20,x17,0x6	 x17:0x00000007 x20=0x00000000
       25605000	      2559	80001e84	7c2784b7	lui	x9,0x7c278	  x9=0x7c278000
       25615000	      2560	80001e88	ff1404e3	beq	x8,x17,80001e70	  x8:0x0000000d x17:0x00000007
       25625000	      2561	80001e8c	fcf0c6e3	blt	x1,x15,80001e58	  x1:0x00000002 x15:0x0000000c
       25635000	      2562	00000000	00000013	addi	x0,x0,0	  x0:0x00000000
       25645000	      2563	80001e54	00000013	addi	x0,x0,0	  x0:0x00000000
       25655000	      2564	80001e58	c8c7b593	sltiu	x11,x15,-884	 x15:0x0000000c x11=0x00000001
       25665000	      2565	80001e5c	40e581b3	sub	x3,x11,x14	 x11:0x00000001 x14:0x80009fc4  x3=0x7fff603d
       25675000	      2566	80001e60	00208093	addi	x1,x1,2	  x1:0x00000002  x1=0x00000004
       25685000	      2567	80001e64	00100413	addi	x8,x0,1	  x0:0x00000000  x8=0x00000001
       25695000	      2568	80001e68	00700893	addi	x17,x0,7	  x0:0x00000000 x17=0x00000007
       25705000	      2569	80001e6c	f3102693	slti	x13,x0,-207	  x0:0x00000000 x13=0x00000000
       25715000	      2570	80001e70	7d5fc393	xori	x7,x31,2005	 x31:0x95445000  x7=0x954457d5
       25725000	      2571	80001e74	40795693	srai	x13,x18,0x7	 x18:0x00000015 x13=0x00000000
       25735000	      2572	80001e78	00640413	addi	x8,x8,6	  x8:0x00000001  x8=0x00000007
       25745000	      2573	80001e7c	011f6b33	or	x22,x30,x17	 x30:0x80009f50 x17:0x00000007 x22=0x80009f57
       25755000	      2574	80001e80	0068da13	srli	x20,x17,0x6	 x17:0x00000007 x20=0x00000000
       25765000	      2575	80001e84	7c2784b7	lui	x9,0x7c278	  x9=0x7c278000
       25775000	      2576	80001e88	ff1404e3	beq	x8,x17,80001e70	  x8:0x00000007 x17:0x00000007
       25785000	      2577	00000000	00000013	addi	x0,x0,0	  x0:0x00000000
       25795000	      2578	80001e6c	00000013	addi	x0,x0,0	  x0:0x00000000
       25805000	      2579	80001e70	7d5fc393	xori	x7,x31,2005	 x31:0x95445000  x7=0x954457d5
       25815000	      2580	80001e74	40795693	srai	x13,x18,0x7	 x18:0x00000015 x13=0x00000000
       25825000	      2581	80001e78	00640413	addi	x8,x8,6	  x8:0x00000007  x8=0x0000000d
       25835000	      2582	80001e7c	011f6b33	or	x22,x30,x17	 x30:0x80009f50 x17:0x00000007 x22=0x80009f57
       25845000	      2583	80001e80	0068da13	srli	x20,x17,0x6	 x17:0x00000007 x20=0x00000000
       25855000	      2584	80001e84	7c2784b7	lui	x9,0x7c278	  x9=0x7c278000
       25865000	      2585	80001e88	ff1404e3	beq	x8,x17,80001e70	  x8:0x0000000d x17:0x00000007
       25875000	      2586	80001e8c	fcf0c6e3	blt	x1,x15,80001e58	  x1:0x00000004 x15:0x0000000c
       25885000	      2587	00000000	00000013	addi	x0,x0,0	  x0:0x00000000
       25895000	      2588	80001e54	00000013	addi	x0,x0,0	  x0:0x00000000
       25905000	      2589	80001e58	c8c7b593	sltiu	x11,x15,-884	 x15:0x0000000c x11=0x00000001
       25915000	      2590	80001e5c	40e581b3	sub	x3,x11,x14	 x11:0x00000001 x14:0x80009fc4  x3=0x7fff603d
       25925000	      2591	80001e60	00208093	addi	x1,x1,2	  x1:0x00000004  x1=0x00000006
       25935000	      2592	80001e64	00100413	addi	x8,x0,1	  x0:0x00000000  x8=0x00000001
       25945000	      2593	80001e68	00700893	addi	x17,x0,7	  x0:0x00000000 x17=0x00000007
       25955000	      2594	80001e6c	f3102693	slti	x13,x0,-207	  x0:0x00000000 x13=0x00000000
       25965000	      2595	80001e70	7d5fc393	xori	x7,x31,2005	 x31:0x95445000  x7=0x954457d5
       25975000	      2596	80001e74	40795693	srai	x13,x18,0x7	 x18:0x00000015 x13=0x00000000
       25985000	      2597	80001e78	00640413	addi	x8,x8,6	  x8:0x00000001  x8=0x00000007
       25995000	      2598	80001e7c	011f6b33	or	x22,x30,x17	 x30:0x80009f50 x17:0x00000007 x22=0x80009f57
       26005000	      2599	80001e80	0068da13	srli	x20,x17,0x6	 x17:0x00000007 x20=0x00000000
       26015000	      2600	80001e84	7c2784b7	lui	x9,0x7c278	  x9=0x7c278000
       26025000	      2601	80001e88	ff1404e3	beq	x8,x17,80001e70	  x8:0x00000007 x17:0x00000007
       26035000	      2602	00000000	00000013	addi	x0,x0,0	  x0:0x00000000
       26045000	      2603	80001e6c	00000013	addi	x0,x0,0	  x0:0x00000000
       26055000	      2604	80001e70	7d5fc393	xori	x7,x31,2005	 x31:0x95445000  x7=0x954457d5
       26065000	      2605	80001e74	40795693	srai	x13,x18,0x7	 x18:0x00000015 x13=0x00000000
       26075000	      2606	80001e78	00640413	addi	x8,x8,6	  x8:0x00000007  x8=0x0000000d
       26085000	      2607	80001e7c	011f6b33	or	x22,x30,x17	 x30:0x80009f50 x17:0x00000007 x22=0x80009f57
       26095000	      2608	80001e80	0068da13	srli	x20,x17,0x6	 x17:0x00000007 x20=0x00000000
       26105000	      2609	80001e84	7c2784b7	lui	x9,0x7c278	  x9=0x7c278000
       26115000	      2610	80001e88	ff1404e3	beq	x8,x17,80001e70	  x8:0x0000000d x17:0x00000007
       26125000	      2611	80001e8c	fcf0c6e3	blt	x1,x15,80001e58	  x1:0x00000006 x15:0x0000000c
       26135000	      2612	00000000	00000013	addi	x0,x0,0	  x0:0x00000000
       26145000	      2613	80001e54	00000013	addi	x0,x0,0	  x0:0x00000000
       26155000	      2614	80001e58	c8c7b593	sltiu	x11,x15,-884	 x15:0x0000000c x11=0x00000001
       26165000	      2615	80001e5c	40e581b3	sub	x3,x11,x14	 x11:0x00000001 x14:0x80009fc4  x3=0x7fff603d
       26175000	      2616	80001e60	00208093	addi	x1,x1,2	  x1:0x00000006  x1=0x00000008
       26185000	      2617	80001e64	00100413	addi	x8,x0,1	  x0:0x00000000  x8=0x00000001
       26195000	      2618	80001e68	00700893	addi	x17,x0,7	  x0:0x00000000 x17=0x00000007
       26205000	      2619	80001e6c	f3102693	slti	x13,x0,-207	  x0:0x00000000 x13=0x00000000
       26215000	      2620	80001e70	7d5fc393	xori	x7,x31,2005	 x31:0x95445000  x7=0x954457d5
       26225000	      2621	80001e74	40795693	srai	x13,x18,0x7	 x18:0x00000015 x13=0x00000000
       26235000	      2622	80001e78	00640413	addi	x8,x8,6	  x8:0x00000001  x8=0x00000007
       26245000	      2623	80001e7c	011f6b33	or	x22,x30,x17	 x30:0x80009f50 x17:0x00000007 x22=0x80009f57
       26255000	      2624	80001e80	0068da13	srli	x20,x17,0x6	 x17:0x00000007 x20=0x00000000
       26265000	      2625	80001e84	7c2784b7	lui	x9,0x7c278	  x9=0x7c278000
       26275000	      2626	80001e88	ff1404e3	beq	x8,x17,80001e70	  x8:0x00000007 x17:0x00000007
       26285000	      2627	00000000	00000013	addi	x0,x0,0	  x0:0x00000000
       26295000	      2628	80001e6c	00000013	addi	x0,x0,0	  x0:0x00000000
       26305000	      2629	80001e70	7d5fc393	xori	x7,x31,2005	 x31:0x95445000  x7=0x954457d5
       26315000	      2630	80001e74	40795693	srai	x13,x18,0x7	 x18:0x00000015 x13=0x00000000
       26325000	      2631	80001e78	00640413	addi	x8,x8,6	  x8:0x00000007  x8=0x0000000d
       26335000	      2632	80001e7c	011f6b33	or	x22,x30,x17	 x30:0x80009f50 x17:0x00000007 x22=0x80009f57
       26345000	      2633	80001e80	0068da13	srli	x20,x17,0x6	 x17:0x00000007 x20=0x00000000
       26355000	      2634	80001e84	7c2784b7	lui	x9,0x7c278	  x9=0x7c278000
       26365000	      2635	80001e88	ff1404e3	beq	x8,x17,80001e70	  x8:0x0000000d x17:0x00000007
       26375000	      2636	80001e8c	fcf0c6e3	blt	x1,x15,80001e58	  x1:0x00000008 x15:0x0000000c
       26385000	      2637	00000000	00000013	addi	x0,x0,0	  x0:0x00000000
       26395000	      2638	80001e54	00000013	addi	x0,x0,0	  x0:0x00000000
       26405000	      2639	80001e58	c8c7b593	sltiu	x11,x15,-884	 x15:0x0000000c x11=0x00000001
       26415000	      2640	80001e5c	40e581b3	sub	x3,x11,x14	 x11:0x00000001 x14:0x80009fc4  x3=0x7fff603d
       26425000	      2641	80001e60	00208093	addi	x1,x1,2	  x1:0x00000008  x1=0x0000000a
       26435000	      2642	80001e64	00100413	addi	x8,x0,1	  x0:0x00000000  x8=0x00000001
       26445000	      2643	80001e68	00700893	addi	x17,x0,7	  x0:0x00000000 x17=0x00000007
       26455000	      2644	80001e6c	f3102693	slti	x13,x0,-207	  x0:0x00000000 x13=0x00000000
       26465000	      2645	80001e70	7d5fc393	xori	x7,x31,2005	 x31:0x95445000  x7=0x954457d5
       26475000	      2646	80001e74	40795693	srai	x13,x18,0x7	 x18:0x00000015 x13=0x00000000
       26485000	      2647	80001e78	00640413	addi	x8,x8,6	  x8:0x00000001  x8=0x00000007
       26495000	      2648	80001e7c	011f6b33	or	x22,x30,x17	 x30:0x80009f50 x17:0x00000007 x22=0x80009f57
       26505000	      2649	80001e80	0068da13	srli	x20,x17,0x6	 x17:0x00000007 x20=0x00000000
       26515000	      2650	80001e84	7c2784b7	lui	x9,0x7c278	  x9=0x7c278000
       26525000	      2651	80001e88	ff1404e3	beq	x8,x17,80001e70	  x8:0x00000007 x17:0x00000007
       26535000	      2652	00000000	00000013	addi	x0,x0,0	  x0:0x00000000
       26545000	      2653	80001e6c	00000013	addi	x0,x0,0	  x0:0x00000000
       26555000	      2654	80001e70	7d5fc393	xori	x7,x31,2005	 x31:0x95445000  x7=0x954457d5
       26565000	      2655	80001e74	40795693	srai	x13,x18,0x7	 x18:0x00000015 x13=0x00000000
       26575000	      2656	80001e78	00640413	addi	x8,x8,6	  x8:0x00000007  x8=0x0000000d
       26585000	      2657	80001e7c	011f6b33	or	x22,x30,x17	 x30:0x80009f50 x17:0x00000007 x22=0x80009f57
       26595000	      2658	80001e80	0068da13	srli	x20,x17,0x6	 x17:0x00000007 x20=0x00000000
       26605000	      2659	80001e84	7c2784b7	lui	x9,0x7c278	  x9=0x7c278000
       26615000	      2660	80001e88	ff1404e3	beq	x8,x17,80001e70	  x8:0x0000000d x17:0x00000007
       26625000	      2661	80001e8c	fcf0c6e3	blt	x1,x15,80001e58	  x1:0x0000000a x15:0x0000000c
       26635000	      2662	00000000	00000013	addi	x0,x0,0	  x0:0x00000000
       26645000	      2663	80001e54	00000013	addi	x0,x0,0	  x0:0x00000000
       26655000	      2664	80001e58	c8c7b593	sltiu	x11,x15,-884	 x15:0x0000000c x11=0x00000001
       26665000	      2665	80001e5c	40e581b3	sub	x3,x11,x14	 x11:0x00000001 x14:0x80009fc4  x3=0x7fff603d
       26675000	      2666	80001e60	00208093	addi	x1,x1,2	  x1:0x0000000a  x1=0x0000000c
       26685000	      2667	80001e64	00100413	addi	x8,x0,1	  x0:0x00000000  x8=0x00000001
       26695000	      2668	80001e68	00700893	addi	x17,x0,7	  x0:0x00000000 x17=0x00000007
       26705000	      2669	80001e6c	f3102693	slti	x13,x0,-207	  x0:0x00000000 x13=0x00000000
       26715000	      2670	80001e70	7d5fc393	xori	x7,x31,2005	 x31:0x95445000  x7=0x954457d5
       26725000	      2671	80001e74	40795693	srai	x13,x18,0x7	 x18:0x00000015 x13=0x00000000
       26735000	      2672	80001e78	00640413	addi	x8,x8,6	  x8:0x00000001  x8=0x00000007
       26745000	      2673	80001e7c	011f6b33	or	x22,x30,x17	 x30:0x80009f50 x17:0x00000007 x22=0x80009f57
       26755000	      2674	80001e80	0068da13	srli	x20,x17,0x6	 x17:0x00000007 x20=0x00000000
       26765000	      2675	80001e84	7c2784b7	lui	x9,0x7c278	  x9=0x7c278000
       26775000	      2676	80001e88	ff1404e3	beq	x8,x17,80001e70	  x8:0x00000007 x17:0x00000007
       26785000	      2677	00000000	00000013	addi	x0,x0,0	  x0:0x00000000
       26795000	      2678	80001e6c	00000013	addi	x0,x0,0	  x0:0x00000000
       26805000	      2679	80001e70	7d5fc393	xori	x7,x31,2005	 x31:0x95445000  x7=0x954457d5
       26815000	      2680	80001e74	40795693	srai	x13,x18,0x7	 x18:0x00000015 x13=0x00000000
       26825000	      2681	80001e78	00640413	addi	x8,x8,6	  x8:0x00000007  x8=0x0000000d
       26835000	      2682	80001e7c	011f6b33	or	x22,x30,x17	 x30:0x80009f50 x17:0x00000007 x22=0x80009f57
       26845000	      2683	80001e80	0068da13	srli	x20,x17,0x6	 x17:0x00000007 x20=0x00000000
       26855000	      2684	80001e84	7c2784b7	lui	x9,0x7c278	  x9=0x7c278000
       26865000	      2685	80001e88	ff1404e3	beq	x8,x17,80001e70	  x8:0x0000000d x17:0x00000007
       26875000	      2686	80001e8c	fcf0c6e3	blt	x1,x15,80001e58	  x1:0x0000000c x15:0x0000000c
       26885000	      2687	80001e90	020cae93	slti	x29,x25,32	 x25:0x5c430000 x29=0x00000000
       26895000	      2688	80001e94	ffc00c93	addi	x25,x0,-4	  x0:0x00000000 x25=0xfffffffc
       26905000	      2689	80001e98	005c71b3	and	x3,x24,x5	 x24:0x00000000  x5:0xdc2332ea  x3=0x00000000
       26915000	      2690	80001e9c	4a848113	addi	x2,x9,1192	  x9:0x7c278000  x2=0x7c2784a8
       26925000	      2691	80001ea0	41b35b13	srai	x22,x6,0x1b	  x6:0xfffffff9 x22=0xffffffff
       26935000	      2692	80001ea4	fd747913	andi	x18,x8,-41	  x8:0x0000000d x18=0x00000005
       26945000	      2693	80001ea8	d5533f93	sltiu	x31,x6,-683	  x6:0xfffffff9 x31=0x00000000
       26955000	      2694	80001eac	8a977493	andi	x9,x14,-1879	 x14:0x80009fc4  x9=0x80009880
       26965000	      2695	80001eb0	00700793	addi	x15,x0,7	  x0:0x00000000 x15=0x00000007
       26975000	      2696	80001eb4	00000013	addi	x0,x0,0	  x0:0x00000000
       26985000	      2697	80001eb8	3bbc7213	andi	x4,x24,955	 x24:0x00000000  x4=0x00000000
       26995000	      2698	80001ebc	001b25b3	slt	x11,x22,x1	 x22:0xffffffff  x1:0x0000000c x11=0x00000001
       27005000	      2699	80001ec0	0154e4b3	or	x9,x9,x21	  x9:0x80009880 x21:0x00000001  x9=0x80009881
       27015000	      2700	80001ec4	003c2333	slt	x6,x24,x3	 x24:0x00000000  x3:0x00000000  x6=0x00000000
       27025000	      2701	80001ec8	00000013	addi	x0,x0,0	  x0:0x00000000
       27035000	      2702	80001ecc	95a14013	xori	x0,x2,-1702	  x2:0x7c2784a8
       27045000	      2703	80001ed0	01993b33	sltu	x22,x18,x25	 x18:0x00000005 x25:0xfffffffc x22=0x00000001
       27055000	      2704	80001ed4	40dd5693	srai	x13,x26,0xd	 x26:0x0000000b x13=0x00000000
       27065000	      2705	80001ed8	004c8c93	addi	x25,x25,4	 x25:0xfffffffc x25=0x00000000
       27075000	      2706	80001edc	009781b3	add	x3,x15,x9	 x15:0x00000007  x9:0x80009881  x3=0x80009888
       27085000	      2707	80001ee0	58850c13	addi	x24,x10,1416	 x10:0x00000001 x24=0x00000589
       27095000	      2708	80001ee4	00d65533	srl	x10,x12,x13	 x12:0x00000001 x13:0x00000000 x10=0x00000001
       27105000	      2709	80001ee8	01d17a33	and	x20,x2,x29	  x2:0x7c2784a8 x29:0x00000000 x20=0x00000000
       27115000	      2710	80001eec	01283033	sltu	x0,x16,x18	 x16:0x0000000a x18:0x00000005
       27125000	      2711	80001ef0	00751c13	slli	x24,x10,0x7	 x10:0x00000001 x24=0x00000080
       27135000	      2712	80001ef4	00fce3b3	or	x7,x25,x15	 x25:0x00000000 x15:0x00000007  x7=0x00000007
       27145000	      2713	80001ef8	f692ce93	xori	x29,x5,-151	  x5:0xdc2332ea x29=0x23dccd83
       27155000	      2714	80001efc	41d1d493	srai	x9,x3,0x1d	  x3:0x80009888  x9=0xfffffffc
       27165000	      2715	80001f00	fcfce0e3	bltu	x25,x15,80001ec0	 x25:0x00000000 x15:0x00000007
       27175000	      2716	00000000	00000013	addi	x0,x0,0	  x0:0x00000000
       27185000	      2717	80001ebc	00000013	addi	x0,x0,0	  x0:0x00000000
       27195000	      2718	80001ec0	0154e4b3	or	x9,x9,x21	  x9:0xfffffffc x21:0x00000001  x9=0xfffffffd
       27205000	      2719	80001ec4	003c2333	slt	x6,x24,x3	 x24:0x00000080  x3:0x80009888  x6=0x00000000
       27215000	      2720	80001ec8	00000013	addi	x0,x0,0	  x0:0x00000000
       27225000	      2721	80001ecc	95a14013	xori	x0,x2,-1702	  x2:0x7c2784a8
       27235000	      2722	80001ed0	01993b33	sltu	x22,x18,x25	 x18:0x00000005 x25:0x00000000 x22=0x00000000
       27245000	      2723	80001ed4	40dd5693	srai	x13,x26,0xd	 x26:0x0000000b x13=0x00000000
       27255000	      2724	80001ed8	004c8c93	addi	x25,x25,4	 x25:0x00000000 x25=0x00000004
       27265000	      2725	80001edc	009781b3	add	x3,x15,x9	 x15:0x00000007  x9:0xfffffffd  x3=0x00000004
       27275000	      2726	80001ee0	58850c13	addi	x24,x10,1416	 x10:0x00000001 x24=0x00000589
       27285000	      2727	80001ee4	00d65533	srl	x10,x12,x13	 x12:0x00000001 x13:0x00000000 x10=0x00000001
       27295000	      2728	80001ee8	01d17a33	and	x20,x2,x29	  x2:0x7c2784a8 x29:0x23dccd83 x20=0x20048480
       27305000	      2729	80001eec	01283033	sltu	x0,x16,x18	 x16:0x0000000a x18:0x00000005
       27315000	      2730	80001ef0	00751c13	slli	x24,x10,0x7	 x10:0x00000001 x24=0x00000080
       27325000	      2731	80001ef4	00fce3b3	or	x7,x25,x15	 x25:0x00000004 x15:0x00000007  x7=0x00000007
       27335000	      2732	80001ef8	f692ce93	xori	x29,x5,-151	  x5:0xdc2332ea x29=0x23dccd83
       27345000	      2733	80001efc	41d1d493	srai	x9,x3,0x1d	  x3:0x00000004  x9=0x00000000
       27355000	      2734	80001f00	fcfce0e3	bltu	x25,x15,80001ec0	 x25:0x00000004 x15:0x00000007
       27365000	      2735	00000000	00000013	addi	x0,x0,0	  x0:0x00000000
       27375000	      2736	80001ebc	00000013	addi	x0,x0,0	  x0:0x00000000
       27385000	      2737	80001ec0	0154e4b3	or	x9,x9,x21	  x9:0x00000000 x21:0x00000001  x9=0x00000001
       27395000	      2738	80001ec4	003c2333	slt	x6,x24,x3	 x24:0x00000080  x3:0x00000004  x6=0x00000000
       27405000	      2739	80001ec8	00000013	addi	x0,x0,0	  x0:0x00000000
       27415000	      2740	80001ecc	95a14013	xori	x0,x2,-1702	  x2:0x7c2784a8
       27425000	      2741	80001ed0	01993b33	sltu	x22,x18,x25	 x18:0x00000005 x25:0x00000004 x22=0x00000000
       27435000	      2742	80001ed4	40dd5693	srai	x13,x26,0xd	 x26:0x0000000b x13=0x00000000
       27445000	      2743	80001ed8	004c8c93	addi	x25,x25,4	 x25:0x00000004 x25=0x00000008
       27455000	      2744	80001edc	009781b3	add	x3,x15,x9	 x15:0x00000007  x9:0x00000001  x3=0x00000008
       27465000	      2745	80001ee0	58850c13	addi	x24,x10,1416	 x10:0x00000001 x24=0x00000589
       27475000	      2746	80001ee4	00d65533	srl	x10,x12,x13	 x12:0x00000001 x13:0x00000000 x10=0x00000001
       27485000	      2747	80001ee8	01d17a33	and	x20,x2,x29	  x2:0x7c2784a8 x29:0x23dccd83 x20=0x20048480
       27495000	      2748	80001eec	01283033	sltu	x0,x16,x18	 x16:0x0000000a x18:0x00000005
       27505000	      2749	80001ef0	00751c13	slli	x24,x10,0x7	 x10:0x00000001 x24=0x00000080
       27515000	      2750	80001ef4	00fce3b3	or	x7,x25,x15	 x25:0x00000008 x15:0x00000007  x7=0x0000000f
       27525000	      2751	80001ef8	f692ce93	xori	x29,x5,-151	  x5:0xdc2332ea x29=0x23dccd83
       27535000	      2752	80001efc	41d1d493	srai	x9,x3,0x1d	  x3:0x00000008  x9=0x00000000
       27545000	      2753	80001f00	fcfce0e3	bltu	x25,x15,80001ec0	 x25:0x00000008 x15:0x00000007
       27555000	      2754	80001f04	898a7193	andi	x3,x20,-1896	 x20:0x20048480  x3=0x20048080
       27565000	      2755	80001f08	00800d93	addi	x27,x0,8	  x0:0x00000000 x27=0x00000008
       27575000	      2756	80001f0c	fff00f93	addi	x31,x0,-1	  x0:0x00000000 x31=0xffffffff
       27585000	      2757	80001f10	e0f6e113	ori	x2,x13,-497	 x13:0x00000000  x2=0xfffffe0f
       27595000	      2758	80001f14	fffd8d93	addi	x27,x27,-1	 x27:0x00000008 x27=0x00000007
       27605000	      2759	80001f18	00300393	addi	x7,x0,3	  x0:0x00000000  x7=0x00000003
       27615000	      2760	80001f1c	00100a93	addi	x21,x0,1	  x0:0x00000000 x21=0x00000001
       27625000	      2761	80001f20	01d7e933	or	x18,x15,x29	 x15:0x00000007 x29:0x23dccd83 x18=0x23dccd87
       27635000	      2762	80001f24	ffe38393	addi	x7,x7,-2	  x7:0x00000003  x7=0x00000001
       27645000	      2763	80001f28	00e11c93	slli	x25,x2,0xe	  x2:0xfffffe0f x25=0xff83c000
       27655000	      2764	80001f2c	ff53dae3	bge	x7,x21,80001f20	  x7:0x00000001 x21:0x00000001
       27665000	      2765	00000000	00000013	addi	x0,x0,0	  x0:0x00000000
       27675000	      2766	80001f1c	00000013	addi	x0,x0,0	  x0:0x00000000
       27685000	      2767	80001f20	01d7e933	or	x18,x15,x29	 x15:0x00000007 x29:0x23dccd83 x18=0x23dccd87
       27695000	      2768	80001f24	ffe38393	addi	x7,x7,-2	  x7:0x00000001  x7=0xffffffff
       27705000	      2769	80001f28	00e11c93	slli	x25,x2,0xe	  x2:0xfffffe0f x25=0xff83c000
       27715000	      2770	80001f2c	ff53dae3	bge	x7,x21,80001f20	  x7:0xffffffff x21:0x00000001
       27725000	      2771	80001f30	fffd80e3	beq	x27,x31,80001f10	 x27:0x00000007 x31:0xffffffff
       27735000	      2772	80001f34	40548eb3	sub	x29,x9,x5	  x9:0x00000000  x5:0xdc2332ea x29=0x23dccd16
       27745000	      2773	80001f38	ff900a93	addi	x21,x0,-7	  x0:0x00000000 x21=0xfffffff9
       27755000	      2774	80001f3c	008a12b3	sll	x5,x20,x8	 x20:0x20048480  x8:0x0000000d  x5=0x90900000
       27765000	      2775	80001f40	00797b33	and	x22,x18,x7	 x18:0x23dccd87  x7:0xffffffff x22=0x23dccd87
       27775000	      2776	80001f44	400cd513	srai	x10,x25,0x0	 x25:0xff83c000 x10=0xff83c000
       27785000	      2777	80001f48	ff200c93	addi	x25,x0,-14	  x0:0x00000000 x25=0xfffffff2
       27795000	      2778	80001f4c	00000013	addi	x0,x0,0	  x0:0x00000000
       27805000	      2779	80001f50	ff9a8a93	addi	x21,x21,-7	 x21:0xfffffff9 x21=0xfffffff2
       27815000	      2780	80001f54	bb883797	auipc	x15,0xbb883	 x15=0x3b884f50
       27825000	      2781	80001f58	00a00913	addi	x18,x0,10	  x0:0x00000000 x18=0x0000000a
       27835000	      2782	80001f5c	2f4d5c37	lui	x24,0x2f4d5	 x24=0x2f4d5000
       27845000	      2783	80001f60	017f9b13	slli	x22,x31,0x17	 x31:0xffffffff x22=0xff800000
       27855000	      2784	80001f64	01e060b3	or	x1,x0,x30	  x0:0x00000000 x30:0x80009f50  x1=0x80009f50
       27865000	      2785	80001f68	fec00993	addi	x19,x0,-20	  x0:0x00000000 x19=0xffffffec
       27875000	      2786	80001f6c	001d7bb3	and	x23,x26,x1	 x26:0x0000000b  x1:0x80009f50 x23=0x00000000
       27885000	      2787	80001f70	01fdec33	or	x24,x27,x31	 x27:0x00000007 x31:0xffffffff x24=0xffffffff
       27895000	      2788	80001f74	37040413	addi	x8,x8,880	  x8:0x0000000d  x8=0x0000037d
       27905000	      2789	80001f78	df987593	andi	x11,x16,-519	 x16:0x0000000a x11=0x00000008
       27915000	      2790	80001f7c	412383b3	sub	x7,x7,x18	  x7:0xffffffff x18:0x0000000a  x7=0xfffffff5
       27925000	      2791	80001f80	01562c33	slt	x24,x12,x21	 x12:0x00000001 x21:0xfffffff2 x24=0x00000000
       27935000	      2792	80001f84	686ce213	ori	x4,x25,1670	 x25:0xfffffff2  x4=0xfffffff6
       27945000	      2793	80001f88	40765293	srai	x5,x12,0x7	 x12:0x00000001  x5=0x00000000
       27955000	      2794	80001f8c	30758793	addi	x15,x11,775	 x11:0x00000008 x15=0x0000030f
       27965000	      2795	80001f90	9c6e7837	lui	x16,0x9c6e7	 x16=0x9c6e7000
       27975000	      2796	80001f94	01c11533	sll	x10,x2,x28	  x2:0xfffffe0f x28:0x00000000 x10=0xfffffe0f
       27985000	      2797	80001f98	3331b193	sltiu	x3,x3,819	  x3:0x20048080  x3=0x00000000
       27995000	      2798	80001f9c	001f2333	slt	x6,x30,x1	 x30:0x80009f50  x1:0x80009f50  x6=0x00000000
       28005000	      2799	80001fa0	fff90913	addi	x18,x18,-1	 x18:0x0000000a x18=0x00000009
       28015000	      2800	80001fa4	009fb633	sltu	x12,x31,x9	 x31:0xffffffff  x9:0x00000000 x12=0x00000000
       28025000	      2801	80001fa8	00a1d113	srli	x2,x3,0xa	  x3:0x00000000  x2=0x00000000
       28035000	      2802	80001fac	7b277893	andi	x17,x14,1970	 x14:0x80009fc4 x17=0x00000780
       28045000	      2803	80001fb0	ff3956e3	bge	x18,x19,80001f9c	 x18:0x00000009 x19:0xffffffec
       28055000	      2804	00000000	00000013	addi	x0,x0,0	  x0:0x00000000
       28065000	      2805	80001f98	00000013	addi	x0,x0,0	  x0:0x00000000
       28075000	      2806	80001f9c	001f2333	slt	x6,x30,x1	 x30:0x80009f50  x1:0x80009f50  x6=0x00000000
       28085000	      2807	80001fa0	fff90913	addi	x18,x18,-1	 x18:0x00000009 x18=0x00000008
       28095000	      2808	80001fa4	009fb633	sltu	x12,x31,x9	 x31:0xffffffff  x9:0x00000000 x12=0x00000000
       28105000	      2809	80001fa8	00a1d113	srli	x2,x3,0xa	  x3:0x00000000  x2=0x00000000
       28115000	      2810	80001fac	7b277893	andi	x17,x14,1970	 x14:0x80009fc4 x17=0x00000780
       28125000	      2811	80001fb0	ff3956e3	bge	x18,x19,80001f9c	 x18:0x00000008 x19:0xffffffec
       28135000	      2812	00000000	00000013	addi	x0,x0,0	  x0:0x00000000
       28145000	      2813	80001f98	00000013	addi	x0,x0,0	  x0:0x00000000
       28155000	      2814	80001f9c	001f2333	slt	x6,x30,x1	 x30:0x80009f50  x1:0x80009f50  x6=0x00000000
       28165000	      2815	80001fa0	fff90913	addi	x18,x18,-1	 x18:0x00000008 x18=0x00000007
       28175000	      2816	80001fa4	009fb633	sltu	x12,x31,x9	 x31:0xffffffff  x9:0x00000000 x12=0x00000000
       28185000	      2817	80001fa8	00a1d113	srli	x2,x3,0xa	  x3:0x00000000  x2=0x00000000
       28195000	      2818	80001fac	7b277893	andi	x17,x14,1970	 x14:0x80009fc4 x17=0x00000780
       28205000	      2819	80001fb0	ff3956e3	bge	x18,x19,80001f9c	 x18:0x00000007 x19:0xffffffec
       28215000	      2820	00000000	00000013	addi	x0,x0,0	  x0:0x00000000
       28225000	      2821	80001f98	00000013	addi	x0,x0,0	  x0:0x00000000
       28235000	      2822	80001f9c	001f2333	slt	x6,x30,x1	 x30:0x80009f50  x1:0x80009f50  x6=0x00000000
       28245000	      2823	80001fa0	fff90913	addi	x18,x18,-1	 x18:0x00000007 x18=0x00000006
       28255000	      2824	80001fa4	009fb633	sltu	x12,x31,x9	 x31:0xffffffff  x9:0x00000000 x12=0x00000000
       28265000	      2825	80001fa8	00a1d113	srli	x2,x3,0xa	  x3:0x00000000  x2=0x00000000
       28275000	      2826	80001fac	7b277893	andi	x17,x14,1970	 x14:0x80009fc4 x17=0x00000780
       28285000	      2827	80001fb0	ff3956e3	bge	x18,x19,80001f9c	 x18:0x00000006 x19:0xffffffec
       28295000	      2828	00000000	00000013	addi	x0,x0,0	  x0:0x00000000
       28305000	      2829	80001f98	00000013	addi	x0,x0,0	  x0:0x00000000
       28315000	      2830	80001f9c	001f2333	slt	x6,x30,x1	 x30:0x80009f50  x1:0x80009f50  x6=0x00000000
       28325000	      2831	80001fa0	fff90913	addi	x18,x18,-1	 x18:0x00000006 x18=0x00000005
       28335000	      2832	80001fa4	009fb633	sltu	x12,x31,x9	 x31:0xffffffff  x9:0x00000000 x12=0x00000000
       28345000	      2833	80001fa8	00a1d113	srli	x2,x3,0xa	  x3:0x00000000  x2=0x00000000
       28355000	      2834	80001fac	7b277893	andi	x17,x14,1970	 x14:0x80009fc4 x17=0x00000780
       28365000	      2835	80001fb0	ff3956e3	bge	x18,x19,80001f9c	 x18:0x00000005 x19:0xffffffec
       28375000	      2836	00000000	00000013	addi	x0,x0,0	  x0:0x00000000
       28385000	      2837	80001f98	00000013	addi	x0,x0,0	  x0:0x00000000
       28395000	      2838	80001f9c	001f2333	slt	x6,x30,x1	 x30:0x80009f50  x1:0x80009f50  x6=0x00000000
       28405000	      2839	80001fa0	fff90913	addi	x18,x18,-1	 x18:0x00000005 x18=0x00000004
       28415000	      2840	80001fa4	009fb633	sltu	x12,x31,x9	 x31:0xffffffff  x9:0x00000000 x12=0x00000000
       28425000	      2841	80001fa8	00a1d113	srli	x2,x3,0xa	  x3:0x00000000  x2=0x00000000
       28435000	      2842	80001fac	7b277893	andi	x17,x14,1970	 x14:0x80009fc4 x17=0x00000780
       28445000	      2843	80001fb0	ff3956e3	bge	x18,x19,80001f9c	 x18:0x00000004 x19:0xffffffec
       28455000	      2844	00000000	00000013	addi	x0,x0,0	  x0:0x00000000
       28465000	      2845	80001f98	00000013	addi	x0,x0,0	  x0:0x00000000
       28475000	      2846	80001f9c	001f2333	slt	x6,x30,x1	 x30:0x80009f50  x1:0x80009f50  x6=0x00000000
       28485000	      2847	80001fa0	fff90913	addi	x18,x18,-1	 x18:0x00000004 x18=0x00000003
       28495000	      2848	80001fa4	009fb633	sltu	x12,x31,x9	 x31:0xffffffff  x9:0x00000000 x12=0x00000000
       28505000	      2849	80001fa8	00a1d113	srli	x2,x3,0xa	  x3:0x00000000  x2=0x00000000
       28515000	      2850	80001fac	7b277893	andi	x17,x14,1970	 x14:0x80009fc4 x17=0x00000780
       28525000	      2851	80001fb0	ff3956e3	bge	x18,x19,80001f9c	 x18:0x00000003 x19:0xffffffec
       28535000	      2852	00000000	00000013	addi	x0,x0,0	  x0:0x00000000
       28545000	      2853	80001f98	00000013	addi	x0,x0,0	  x0:0x00000000
       28555000	      2854	80001f9c	001f2333	slt	x6,x30,x1	 x30:0x80009f50  x1:0x80009f50  x6=0x00000000
       28565000	      2855	80001fa0	fff90913	addi	x18,x18,-1	 x18:0x00000003 x18=0x00000002
       28575000	      2856	80001fa4	009fb633	sltu	x12,x31,x9	 x31:0xffffffff  x9:0x00000000 x12=0x00000000
       28585000	      2857	80001fa8	00a1d113	srli	x2,x3,0xa	  x3:0x00000000  x2=0x00000000
       28595000	      2858	80001fac	7b277893	andi	x17,x14,1970	 x14:0x80009fc4 x17=0x00000780
       28605000	      2859	80001fb0	ff3956e3	bge	x18,x19,80001f9c	 x18:0x00000002 x19:0xffffffec
       28615000	      2860	00000000	00000013	addi	x0,x0,0	  x0:0x00000000
       28625000	      2861	80001f98	00000013	addi	x0,x0,0	  x0:0x00000000
       28635000	      2862	80001f9c	001f2333	slt	x6,x30,x1	 x30:0x80009f50  x1:0x80009f50  x6=0x00000000
       28645000	      2863	80001fa0	fff90913	addi	x18,x18,-1	 x18:0x00000002 x18=0x00000001
       28655000	      2864	80001fa4	009fb633	sltu	x12,x31,x9	 x31:0xffffffff  x9:0x00000000 x12=0x00000000
       28665000	      2865	80001fa8	00a1d113	srli	x2,x3,0xa	  x3:0x00000000  x2=0x00000000
       28675000	      2866	80001fac	7b277893	andi	x17,x14,1970	 x14:0x80009fc4 x17=0x00000780
       28685000	      2867	80001fb0	ff3956e3	bge	x18,x19,80001f9c	 x18:0x00000001 x19:0xffffffec
       28695000	      2868	00000000	00000013	addi	x0,x0,0	  x0:0x00000000
       28705000	      2869	80001f98	00000013	addi	x0,x0,0	  x0:0x00000000
       28715000	      2870	80001f9c	001f2333	slt	x6,x30,x1	 x30:0x80009f50  x1:0x80009f50  x6=0x00000000
       28725000	      2871	80001fa0	fff90913	addi	x18,x18,-1	 x18:0x00000001 x18=0x00000000
       28735000	      2872	80001fa4	009fb633	sltu	x12,x31,x9	 x31:0xffffffff  x9:0x00000000 x12=0x00000000
       28745000	      2873	80001fa8	00a1d113	srli	x2,x3,0xa	  x3:0x00000000  x2=0x00000000
       28755000	      2874	80001fac	7b277893	andi	x17,x14,1970	 x14:0x80009fc4 x17=0x00000780
       28765000	      2875	80001fb0	ff3956e3	bge	x18,x19,80001f9c	 x18:0x00000000 x19:0xffffffec
       28775000	      2876	00000000	00000013	addi	x0,x0,0	  x0:0x00000000
       28785000	      2877	80001f98	00000013	addi	x0,x0,0	  x0:0x00000000
       28795000	      2878	80001f9c	001f2333	slt	x6,x30,x1	 x30:0x80009f50  x1:0x80009f50  x6=0x00000000
       28805000	      2879	80001fa0	fff90913	addi	x18,x18,-1	 x18:0x00000000 x18=0xffffffff
       28815000	      2880	80001fa4	009fb633	sltu	x12,x31,x9	 x31:0xffffffff  x9:0x00000000 x12=0x00000000
       28825000	      2881	80001fa8	00a1d113	srli	x2,x3,0xa	  x3:0x00000000  x2=0x00000000
       28835000	      2882	80001fac	7b277893	andi	x17,x14,1970	 x14:0x80009fc4 x17=0x00000780
       28845000	      2883	80001fb0	ff3956e3	bge	x18,x19,80001f9c	 x18:0xffffffff x19:0xffffffec
       28855000	      2884	00000000	00000013	addi	x0,x0,0	  x0:0x00000000
       28865000	      2885	80001f98	00000013	addi	x0,x0,0	  x0:0x00000000
       28875000	      2886	80001f9c	001f2333	slt	x6,x30,x1	 x30:0x80009f50  x1:0x80009f50  x6=0x00000000
       28885000	      2887	80001fa0	fff90913	addi	x18,x18,-1	 x18:0xffffffff x18=0xfffffffe
       28895000	      2888	80001fa4	009fb633	sltu	x12,x31,x9	 x31:0xffffffff  x9:0x00000000 x12=0x00000000
       28905000	      2889	80001fa8	00a1d113	srli	x2,x3,0xa	  x3:0x00000000  x2=0x00000000
       28915000	      2890	80001fac	7b277893	andi	x17,x14,1970	 x14:0x80009fc4 x17=0x00000780
       28925000	      2891	80001fb0	ff3956e3	bge	x18,x19,80001f9c	 x18:0xfffffffe x19:0xffffffec
       28935000	      2892	00000000	00000013	addi	x0,x0,0	  x0:0x00000000
       28945000	      2893	80001f98	00000013	addi	x0,x0,0	  x0:0x00000000
       28955000	      2894	80001f9c	001f2333	slt	x6,x30,x1	 x30:0x80009f50  x1:0x80009f50  x6=0x00000000
       28965000	      2895	80001fa0	fff90913	addi	x18,x18,-1	 x18:0xfffffffe x18=0xfffffffd
       28975000	      2896	80001fa4	009fb633	sltu	x12,x31,x9	 x31:0xffffffff  x9:0x00000000 x12=0x00000000
       28985000	      2897	80001fa8	00a1d113	srli	x2,x3,0xa	  x3:0x00000000  x2=0x00000000
       28995000	      2898	80001fac	7b277893	andi	x17,x14,1970	 x14:0x80009fc4 x17=0x00000780
       29005000	      2899	80001fb0	ff3956e3	bge	x18,x19,80001f9c	 x18:0xfffffffd x19:0xffffffec
       29015000	      2900	00000000	00000013	addi	x0,x0,0	  x0:0x00000000
       29025000	      2901	80001f98	00000013	addi	x0,x0,0	  x0:0x00000000
       29035000	      2902	80001f9c	001f2333	slt	x6,x30,x1	 x30:0x80009f50  x1:0x80009f50  x6=0x00000000
       29045000	      2903	80001fa0	fff90913	addi	x18,x18,-1	 x18:0xfffffffd x18=0xfffffffc
       29055000	      2904	80001fa4	009fb633	sltu	x12,x31,x9	 x31:0xffffffff  x9:0x00000000 x12=0x00000000
       29065000	      2905	80001fa8	00a1d113	srli	x2,x3,0xa	  x3:0x00000000  x2=0x00000000
       29075000	      2906	80001fac	7b277893	andi	x17,x14,1970	 x14:0x80009fc4 x17=0x00000780
       29085000	      2907	80001fb0	ff3956e3	bge	x18,x19,80001f9c	 x18:0xfffffffc x19:0xffffffec
       29095000	      2908	00000000	00000013	addi	x0,x0,0	  x0:0x00000000
       29105000	      2909	80001f98	00000013	addi	x0,x0,0	  x0:0x00000000
       29115000	      2910	80001f9c	001f2333	slt	x6,x30,x1	 x30:0x80009f50  x1:0x80009f50  x6=0x00000000
       29125000	      2911	80001fa0	fff90913	addi	x18,x18,-1	 x18:0xfffffffc x18=0xfffffffb
       29135000	      2912	80001fa4	009fb633	sltu	x12,x31,x9	 x31:0xffffffff  x9:0x00000000 x12=0x00000000
       29145000	      2913	80001fa8	00a1d113	srli	x2,x3,0xa	  x3:0x00000000  x2=0x00000000
       29155000	      2914	80001fac	7b277893	andi	x17,x14,1970	 x14:0x80009fc4 x17=0x00000780
       29165000	      2915	80001fb0	ff3956e3	bge	x18,x19,80001f9c	 x18:0xfffffffb x19:0xffffffec
       29175000	      2916	00000000	00000013	addi	x0,x0,0	  x0:0x00000000
       29185000	      2917	80001f98	00000013	addi	x0,x0,0	  x0:0x00000000
       29195000	      2918	80001f9c	001f2333	slt	x6,x30,x1	 x30:0x80009f50  x1:0x80009f50  x6=0x00000000
       29205000	      2919	80001fa0	fff90913	addi	x18,x18,-1	 x18:0xfffffffb x18=0xfffffffa
       29215000	      2920	80001fa4	009fb633	sltu	x12,x31,x9	 x31:0xffffffff  x9:0x00000000 x12=0x00000000
       29225000	      2921	80001fa8	00a1d113	srli	x2,x3,0xa	  x3:0x00000000  x2=0x00000000
       29235000	      2922	80001fac	7b277893	andi	x17,x14,1970	 x14:0x80009fc4 x17=0x00000780
       29245000	      2923	80001fb0	ff3956e3	bge	x18,x19,80001f9c	 x18:0xfffffffa x19:0xffffffec
       29255000	      2924	00000000	00000013	addi	x0,x0,0	  x0:0x00000000
       29265000	      2925	80001f98	00000013	addi	x0,x0,0	  x0:0x00000000
       29275000	      2926	80001f9c	001f2333	slt	x6,x30,x1	 x30:0x80009f50  x1:0x80009f50  x6=0x00000000
       29285000	      2927	80001fa0	fff90913	addi	x18,x18,-1	 x18:0xfffffffa x18=0xfffffff9
       29295000	      2928	80001fa4	009fb633	sltu	x12,x31,x9	 x31:0xffffffff  x9:0x00000000 x12=0x00000000
       29305000	      2929	80001fa8	00a1d113	srli	x2,x3,0xa	  x3:0x00000000  x2=0x00000000
       29315000	      2930	80001fac	7b277893	andi	x17,x14,1970	 x14:0x80009fc4 x17=0x00000780
       29325000	      2931	80001fb0	ff3956e3	bge	x18,x19,80001f9c	 x18:0xfffffff9 x19:0xffffffec
       29335000	      2932	00000000	00000013	addi	x0,x0,0	  x0:0x00000000
       29345000	      2933	80001f98	00000013	addi	x0,x0,0	  x0:0x00000000
       29355000	      2934	80001f9c	001f2333	slt	x6,x30,x1	 x30:0x80009f50  x1:0x80009f50  x6=0x00000000
       29365000	      2935	80001fa0	fff90913	addi	x18,x18,-1	 x18:0xfffffff9 x18=0xfffffff8
       29375000	      2936	80001fa4	009fb633	sltu	x12,x31,x9	 x31:0xffffffff  x9:0x00000000 x12=0x00000000
       29385000	      2937	80001fa8	00a1d113	srli	x2,x3,0xa	  x3:0x00000000  x2=0x00000000
       29395000	      2938	80001fac	7b277893	andi	x17,x14,1970	 x14:0x80009fc4 x17=0x00000780
       29405000	      2939	80001fb0	ff3956e3	bge	x18,x19,80001f9c	 x18:0xfffffff8 x19:0xffffffec
       29415000	      2940	00000000	00000013	addi	x0,x0,0	  x0:0x00000000
       29425000	      2941	80001f98	00000013	addi	x0,x0,0	  x0:0x00000000
       29435000	      2942	80001f9c	001f2333	slt	x6,x30,x1	 x30:0x80009f50  x1:0x80009f50  x6=0x00000000
       29445000	      2943	80001fa0	fff90913	addi	x18,x18,-1	 x18:0xfffffff8 x18=0xfffffff7
       29455000	      2944	80001fa4	009fb633	sltu	x12,x31,x9	 x31:0xffffffff  x9:0x00000000 x12=0x00000000
       29465000	      2945	80001fa8	00a1d113	srli	x2,x3,0xa	  x3:0x00000000  x2=0x00000000
       29475000	      2946	80001fac	7b277893	andi	x17,x14,1970	 x14:0x80009fc4 x17=0x00000780
       29485000	      2947	80001fb0	ff3956e3	bge	x18,x19,80001f9c	 x18:0xfffffff7 x19:0xffffffec
       29495000	      2948	00000000	00000013	addi	x0,x0,0	  x0:0x00000000
       29505000	      2949	80001f98	00000013	addi	x0,x0,0	  x0:0x00000000
       29515000	      2950	80001f9c	001f2333	slt	x6,x30,x1	 x30:0x80009f50  x1:0x80009f50  x6=0x00000000
       29525000	      2951	80001fa0	fff90913	addi	x18,x18,-1	 x18:0xfffffff7 x18=0xfffffff6
       29535000	      2952	80001fa4	009fb633	sltu	x12,x31,x9	 x31:0xffffffff  x9:0x00000000 x12=0x00000000
       29545000	      2953	80001fa8	00a1d113	srli	x2,x3,0xa	  x3:0x00000000  x2=0x00000000
       29555000	      2954	80001fac	7b277893	andi	x17,x14,1970	 x14:0x80009fc4 x17=0x00000780
       29565000	      2955	80001fb0	ff3956e3	bge	x18,x19,80001f9c	 x18:0xfffffff6 x19:0xffffffec
       29575000	      2956	00000000	00000013	addi	x0,x0,0	  x0:0x00000000
       29585000	      2957	80001f98	00000013	addi	x0,x0,0	  x0:0x00000000
       29595000	      2958	80001f9c	001f2333	slt	x6,x30,x1	 x30:0x80009f50  x1:0x80009f50  x6=0x00000000
       29605000	      2959	80001fa0	fff90913	addi	x18,x18,-1	 x18:0xfffffff6 x18=0xfffffff5
       29615000	      2960	80001fa4	009fb633	sltu	x12,x31,x9	 x31:0xffffffff  x9:0x00000000 x12=0x00000000
       29625000	      2961	80001fa8	00a1d113	srli	x2,x3,0xa	  x3:0x00000000  x2=0x00000000
       29635000	      2962	80001fac	7b277893	andi	x17,x14,1970	 x14:0x80009fc4 x17=0x00000780
       29645000	      2963	80001fb0	ff3956e3	bge	x18,x19,80001f9c	 x18:0xfffffff5 x19:0xffffffec
       29655000	      2964	00000000	00000013	addi	x0,x0,0	  x0:0x00000000
       29665000	      2965	80001f98	00000013	addi	x0,x0,0	  x0:0x00000000
       29675000	      2966	80001f9c	001f2333	slt	x6,x30,x1	 x30:0x80009f50  x1:0x80009f50  x6=0x00000000
       29685000	      2967	80001fa0	fff90913	addi	x18,x18,-1	 x18:0xfffffff5 x18=0xfffffff4
       29695000	      2968	80001fa4	009fb633	sltu	x12,x31,x9	 x31:0xffffffff  x9:0x00000000 x12=0x00000000
       29705000	      2969	80001fa8	00a1d113	srli	x2,x3,0xa	  x3:0x00000000  x2=0x00000000
       29715000	      2970	80001fac	7b277893	andi	x17,x14,1970	 x14:0x80009fc4 x17=0x00000780
       29725000	      2971	80001fb0	ff3956e3	bge	x18,x19,80001f9c	 x18:0xfffffff4 x19:0xffffffec
       29735000	      2972	00000000	00000013	addi	x0,x0,0	  x0:0x00000000
       29745000	      2973	80001f98	00000013	addi	x0,x0,0	  x0:0x00000000
       29755000	      2974	80001f9c	001f2333	slt	x6,x30,x1	 x30:0x80009f50  x1:0x80009f50  x6=0x00000000
       29765000	      2975	80001fa0	fff90913	addi	x18,x18,-1	 x18:0xfffffff4 x18=0xfffffff3
       29775000	      2976	80001fa4	009fb633	sltu	x12,x31,x9	 x31:0xffffffff  x9:0x00000000 x12=0x00000000
       29785000	      2977	80001fa8	00a1d113	srli	x2,x3,0xa	  x3:0x00000000  x2=0x00000000
       29795000	      2978	80001fac	7b277893	andi	x17,x14,1970	 x14:0x80009fc4 x17=0x00000780
       29805000	      2979	80001fb0	ff3956e3	bge	x18,x19,80001f9c	 x18:0xfffffff3 x19:0xffffffec
       29815000	      2980	00000000	00000013	addi	x0,x0,0	  x0:0x00000000
       29825000	      2981	80001f98	00000013	addi	x0,x0,0	  x0:0x00000000
       29835000	      2982	80001f9c	001f2333	slt	x6,x30,x1	 x30:0x80009f50  x1:0x80009f50  x6=0x00000000
       29845000	      2983	80001fa0	fff90913	addi	x18,x18,-1	 x18:0xfffffff3 x18=0xfffffff2
       29855000	      2984	80001fa4	009fb633	sltu	x12,x31,x9	 x31:0xffffffff  x9:0x00000000 x12=0x00000000
       29865000	      2985	80001fa8	00a1d113	srli	x2,x3,0xa	  x3:0x00000000  x2=0x00000000
       29875000	      2986	80001fac	7b277893	andi	x17,x14,1970	 x14:0x80009fc4 x17=0x00000780
       29885000	      2987	80001fb0	ff3956e3	bge	x18,x19,80001f9c	 x18:0xfffffff2 x19:0xffffffec
       29895000	      2988	00000000	00000013	addi	x0,x0,0	  x0:0x00000000
       29905000	      2989	80001f98	00000013	addi	x0,x0,0	  x0:0x00000000
       29915000	      2990	80001f9c	001f2333	slt	x6,x30,x1	 x30:0x80009f50  x1:0x80009f50  x6=0x00000000
       29925000	      2991	80001fa0	fff90913	addi	x18,x18,-1	 x18:0xfffffff2 x18=0xfffffff1
       29935000	      2992	80001fa4	009fb633	sltu	x12,x31,x9	 x31:0xffffffff  x9:0x00000000 x12=0x00000000
       29945000	      2993	80001fa8	00a1d113	srli	x2,x3,0xa	  x3:0x00000000  x2=0x00000000
       29955000	      2994	80001fac	7b277893	andi	x17,x14,1970	 x14:0x80009fc4 x17=0x00000780
       29965000	      2995	80001fb0	ff3956e3	bge	x18,x19,80001f9c	 x18:0xfffffff1 x19:0xffffffec
       29975000	      2996	00000000	00000013	addi	x0,x0,0	  x0:0x00000000
       29985000	      2997	80001f98	00000013	addi	x0,x0,0	  x0:0x00000000
       29995000	      2998	80001f9c	001f2333	slt	x6,x30,x1	 x30:0x80009f50  x1:0x80009f50  x6=0x00000000
       30005000	      2999	80001fa0	fff90913	addi	x18,x18,-1	 x18:0xfffffff1 x18=0xfffffff0
       30015000	      3000	80001fa4	009fb633	sltu	x12,x31,x9	 x31:0xffffffff  x9:0x00000000 x12=0x00000000
       30025000	      3001	80001fa8	00a1d113	srli	x2,x3,0xa	  x3:0x00000000  x2=0x00000000
       30035000	      3002	80001fac	7b277893	andi	x17,x14,1970	 x14:0x80009fc4 x17=0x00000780
       30045000	      3003	80001fb0	ff3956e3	bge	x18,x19,80001f9c	 x18:0xfffffff0 x19:0xffffffec
       30055000	      3004	00000000	00000013	addi	x0,x0,0	  x0:0x00000000
       30065000	      3005	80001f98	00000013	addi	x0,x0,0	  x0:0x00000000
       30075000	      3006	80001f9c	001f2333	slt	x6,x30,x1	 x30:0x80009f50  x1:0x80009f50  x6=0x00000000
       30085000	      3007	80001fa0	fff90913	addi	x18,x18,-1	 x18:0xfffffff0 x18=0xffffffef
       30095000	      3008	80001fa4	009fb633	sltu	x12,x31,x9	 x31:0xffffffff  x9:0x00000000 x12=0x00000000
       30105000	      3009	80001fa8	00a1d113	srli	x2,x3,0xa	  x3:0x00000000  x2=0x00000000
       30115000	      3010	80001fac	7b277893	andi	x17,x14,1970	 x14:0x80009fc4 x17=0x00000780
       30125000	      3011	80001fb0	ff3956e3	bge	x18,x19,80001f9c	 x18:0xffffffef x19:0xffffffec
       30135000	      3012	00000000	00000013	addi	x0,x0,0	  x0:0x00000000
       30145000	      3013	80001f98	00000013	addi	x0,x0,0	  x0:0x00000000
       30155000	      3014	80001f9c	001f2333	slt	x6,x30,x1	 x30:0x80009f50  x1:0x80009f50  x6=0x00000000
       30165000	      3015	80001fa0	fff90913	addi	x18,x18,-1	 x18:0xffffffef x18=0xffffffee
       30175000	      3016	80001fa4	009fb633	sltu	x12,x31,x9	 x31:0xffffffff  x9:0x00000000 x12=0x00000000
       30185000	      3017	80001fa8	00a1d113	srli	x2,x3,0xa	  x3:0x00000000  x2=0x00000000
       30195000	      3018	80001fac	7b277893	andi	x17,x14,1970	 x14:0x80009fc4 x17=0x00000780
       30205000	      3019	80001fb0	ff3956e3	bge	x18,x19,80001f9c	 x18:0xffffffee x19:0xffffffec
       30215000	      3020	00000000	00000013	addi	x0,x0,0	  x0:0x00000000
       30225000	      3021	80001f98	00000013	addi	x0,x0,0	  x0:0x00000000
       30235000	      3022	80001f9c	001f2333	slt	x6,x30,x1	 x30:0x80009f50  x1:0x80009f50  x6=0x00000000
       30245000	      3023	80001fa0	fff90913	addi	x18,x18,-1	 x18:0xffffffee x18=0xffffffed
       30255000	      3024	80001fa4	009fb633	sltu	x12,x31,x9	 x31:0xffffffff  x9:0x00000000 x12=0x00000000
       30265000	      3025	80001fa8	00a1d113	srli	x2,x3,0xa	  x3:0x00000000  x2=0x00000000
       30275000	      3026	80001fac	7b277893	andi	x17,x14,1970	 x14:0x80009fc4 x17=0x00000780
       30285000	      3027	80001fb0	ff3956e3	bge	x18,x19,80001f9c	 x18:0xffffffed x19:0xffffffec
       30295000	      3028	00000000	00000013	addi	x0,x0,0	  x0:0x00000000
       30305000	      3029	80001f98	00000013	addi	x0,x0,0	  x0:0x00000000
       30315000	      3030	80001f9c	001f2333	slt	x6,x30,x1	 x30:0x80009f50  x1:0x80009f50  x6=0x00000000
       30325000	      3031	80001fa0	fff90913	addi	x18,x18,-1	 x18:0xffffffed x18=0xffffffec
       30335000	      3032	80001fa4	009fb633	sltu	x12,x31,x9	 x31:0xffffffff  x9:0x00000000 x12=0x00000000
       30345000	      3033	80001fa8	00a1d113	srli	x2,x3,0xa	  x3:0x00000000  x2=0x00000000
       30355000	      3034	80001fac	7b277893	andi	x17,x14,1970	 x14:0x80009fc4 x17=0x00000780
       30365000	      3035	80001fb0	ff3956e3	bge	x18,x19,80001f9c	 x18:0xffffffec x19:0xffffffec
       30375000	      3036	00000000	00000013	addi	x0,x0,0	  x0:0x00000000
       30385000	      3037	80001f98	00000013	addi	x0,x0,0	  x0:0x00000000
       30395000	      3038	80001f9c	001f2333	slt	x6,x30,x1	 x30:0x80009f50  x1:0x80009f50  x6=0x00000000
       30405000	      3039	80001fa0	fff90913	addi	x18,x18,-1	 x18:0xffffffec x18=0xffffffeb
       30415000	      3040	80001fa4	009fb633	sltu	x12,x31,x9	 x31:0xffffffff  x9:0x00000000 x12=0x00000000
       30425000	      3041	80001fa8	00a1d113	srli	x2,x3,0xa	  x3:0x00000000  x2=0x00000000
       30435000	      3042	80001fac	7b277893	andi	x17,x14,1970	 x14:0x80009fc4 x17=0x00000780
       30445000	      3043	80001fb0	ff3956e3	bge	x18,x19,80001f9c	 x18:0xffffffeb x19:0xffffffec
       30455000	      3044	80001fb4	016ca4b3	slt	x9,x25,x22	 x25:0xfffffff2 x22:0xff800000  x9=0x00000000
       30465000	      3045	80001fb8	f99a9ae3	bne	x21,x25,80001f4c	 x21:0xfffffff2 x25:0xfffffff2
       30475000	      3046	80001fbc	00000013	addi	x0,x0,0	  x0:0x00000000
       30485000	      3047	80001fc0	ffe00093	addi	x1,x0,-2	  x0:0x00000000  x1=0xfffffffe
       30495000	      3048	80001fc4	80e24613	xori	x12,x4,-2034	  x4:0xfffffff6 x12=0x000007f8
       30505000	      3049	80001fc8	01be26b3	slt	x13,x28,x27	 x28:0x00000000 x27:0x00000007 x13=0x00000001
       30515000	      3050	80001fcc	31960013	addi	x0,x12,793	 x12:0x000007f8
       30525000	      3051	80001fd0	004f22b3	slt	x5,x30,x4	 x30:0x80009f50  x4:0xfffffff6  x5=0x00000001
       30535000	      3052	80001fd4	ec71b437	lui	x8,0xec71b	  x8=0xec71b000
       30545000	      3053	80001fd8	4108db13	srai	x22,x17,0x10	 x17:0x00000780 x22=0x00000000
       30555000	      3054	80001fdc	00000013	addi	x0,x0,0	  x0:0x00000000
       30565000	      3055	80001fe0	00500f93	addi	x31,x0,5	  x0:0x00000000 x31=0x00000005
       30575000	      3056	80001fe4	0115a1b3	slt	x3,x11,x17	 x11:0x00000008 x17:0x00000780  x3=0x00000001
       30585000	      3057	80001fe8	29bd2e13	slti	x28,x26,667	 x26:0x0000000b x28=0x00000001
       30595000	      3058	80001fec	a91c6913	ori	x18,x24,-1391	 x24:0x00000000 x18=0xfffffa91
       30605000	      3059	80001ff0	012786b3	add	x13,x15,x18	 x15:0x0000030f x18:0xfffffa91 x13=0xfffffda0
       30615000	      3060	80001ff4	007a1613	slli	x12,x20,0x7	 x20:0x20048480 x12=0x02424000
       30625000	      3061	80001ff8	2242b397	auipc	x7,0x2242b	  x7=0xa242cff4
       30635000	      3062	80001ffc	0e743337	lui	x6,0xe743	  x6=0x0e743000
       30645000	      3063	80002000	00708093	addi	x1,x1,7	  x1:0xfffffffe  x1=0x00000005
       30655000	      3064	80002004	009d9ab3	sll	x21,x27,x9	 x27:0x00000007  x9:0x00000000 x21=0x00000007
       30665000	      3065	80002008	d1adbc93	sltiu	x25,x27,-742	 x27:0x00000007 x25=0x00000001
       30675000	      3066	8000200c	00830133	add	x2,x6,x8	  x6:0x0e743000  x8:0xec71b000  x2=0xfae5e000
       30685000	      3067	80002010	0026eb33	or	x22,x13,x2	 x13:0xfffffda0  x2:0xfae5e000 x22=0xfffffda0
       30695000	      3068	80002014	0005f9b3	and	x19,x11,x0	 x11:0x00000008  x0:0x00000000 x19=0x00000000
       30705000	      3069	80002018	fff082e3	beq	x1,x31,80001ffc	  x1:0x00000005 x31:0x00000005
       30715000	      3070	00000000	00000013	addi	x0,x0,0	  x0:0x00000000
       30725000	      3071	80001ff8	00000013	addi	x0,x0,0	  x0:0x00000000
       30735000	      3072	80001ffc	0e743337	lui	x6,0xe743	  x6=0x0e743000
       30745000	      3073	80002000	00708093	addi	x1,x1,7	  x1:0x00000005  x1=0x0000000c
       30755000	      3074	80002004	009d9ab3	sll	x21,x27,x9	 x27:0x00000007  x9:0x00000000 x21=0x00000007
       30765000	      3075	80002008	d1adbc93	sltiu	x25,x27,-742	 x27:0x00000007 x25=0x00000001
       30775000	      3076	8000200c	00830133	add	x2,x6,x8	  x6:0x0e743000  x8:0xec71b000  x2=0xfae5e000
       30785000	      3077	80002010	0026eb33	or	x22,x13,x2	 x13:0xfffffda0  x2:0xfae5e000 x22=0xfffffda0
       30795000	      3078	80002014	0005f9b3	and	x19,x11,x0	 x11:0x00000008  x0:0x00000000 x19=0x00000000
       30805000	      3079	80002018	fff082e3	beq	x1,x31,80001ffc	  x1:0x0000000c x31:0x00000005
       30815000	      3080	8000201c	c4b4c213	xori	x4,x9,-949	  x9:0x00000000  x4=0xfffffc4b
       30825000	      3081	80002020	00200c93	addi	x25,x0,2	  x0:0x00000000 x25=0x00000002
       30835000	      3082	80002024	0c9197b7	lui	x15,0xc919	 x15=0x0c919000
       30845000	      3083	80002028	30027f93	andi	x31,x4,768	  x4:0xfffffc4b x31=0x00000000
       30855000	      3084	8000202c	2d6f2a13	slti	x20,x30,726	 x30:0x80009f50 x20=0x00000001
       30865000	      3085	80002030	01cb0a33	add	x20,x22,x28	 x22:0xfffffda0 x28:0x00000001 x20=0xfffffda1
       30875000	      3086	80002034	00600813	addi	x16,x0,6	  x0:0x00000000 x16=0x00000006
       30885000	      3087	80002038	00000013	addi	x0,x0,0	  x0:0x00000000
       30895000	      3088	8000203c	e1c06293	ori	x5,x0,-484	  x0:0x00000000  x5=0xfffffe1c
       30905000	      3089	80002040	00416233	or	x4,x2,x4	  x2:0xfae5e000  x4:0xfffffc4b  x4=0xfffffc4b
       30915000	      3090	80002044	001f61b3	or	x3,x30,x1	 x30:0x80009f50  x1:0x0000000c  x3=0x80009f5c
       30925000	      3091	80002048	25423493	sltiu	x9,x4,596	  x4:0xfffffc4b  x9=0x00000000
       30935000	      3092	8000204c	002c8c93	addi	x25,x25,2	 x25:0x00000002 x25=0x00000004
       30945000	      3093	80002050	01b9c3b3	xor	x7,x19,x27	 x19:0x00000000 x27:0x00000007  x7=0x00000007
       30955000	      3094	80002054	01461eb3	sll	x29,x12,x20	 x12:0x02424000 x20:0xfffffda1 x29=0x04848000
       30965000	      3095	80002058	ff700693	addi	x13,x0,-9	  x0:0x00000000 x13=0xfffffff7
       30975000	      3096	8000205c	ff200113	addi	x2,x0,-14	  x0:0x00000000  x2=0xfffffff2
       30985000	      3097	80002060	ec620997	auipc	x19,0xec620	 x19=0x6c62205c
       30995000	      3098	80002064	016dc4b3	xor	x9,x27,x22	 x27:0x00000007 x22:0xfffffda0  x9=0xfffffda7
       31005000	      3099	80002068	41855a93	srai	x21,x10,0x18	 x10:0xfffffe0f x21=0xffffffff
       31015000	      3100	8000206c	01c212b3	sll	x5,x4,x28	  x4:0xfffffc4b x28:0x00000001  x5=0xfffff896
       31025000	      3101	80002070	200e7893	andi	x17,x28,512	 x28:0x00000001 x17=0x00000000
       31035000	      3102	80002074	01887433	and	x8,x16,x24	 x16:0x00000006 x24:0x00000000  x8=0x00000000
       31045000	      3103	80002078	41d7dab3	sra	x21,x15,x29	 x15:0x0c919000 x29:0x04848000 x21=0x0c919000
       31055000	      3104	8000207c	404a8db3	sub	x27,x21,x4	 x21:0x0c919000  x4:0xfffffc4b x27=0x0c9193b5
       31065000	      3105	80002080	413ed613	srai	x12,x29,0x13	 x29:0x04848000 x12=0x00000090
       31075000	      3106	80002084	017bb0b3	sltu	x1,x23,x23	 x23:0x00000000 x23:0x00000000  x1=0x00000000
       31085000	      3107	80002088	0039fbb3	and	x23,x19,x3	 x19:0x6c62205c  x3:0x80009f5c x23=0x0000005c
       31095000	      3108	8000208c	ff668693	addi	x13,x13,-10	 x13:0xfffffff7 x13=0xffffffed
       31105000	      3109	80002090	fe26d2e3	bge	x13,x2,80002074	 x13:0xffffffed  x2:0xfffffff2
       31115000	      3110	80002094	9eb7f0b7	lui	x1,0x9eb7f	  x1=0x9eb7f000
       31125000	      3111	80002098	fb0c96e3	bne	x25,x16,80002044	 x25:0x00000004 x16:0x00000006
       31135000	      3112	00000000	00000013	addi	x0,x0,0	  x0:0x00000000
       31145000	      3113	80002040	00000013	addi	x0,x0,0	  x0:0x00000000
       31155000	      3114	80002044	001f61b3	or	x3,x30,x1	 x30:0x80009f50  x1:0x9eb7f000  x3=0x9eb7ff50
       31165000	      3115	80002048	25423493	sltiu	x9,x4,596	  x4:0xfffffc4b  x9=0x00000000
       31175000	      3116	8000204c	002c8c93	addi	x25,x25,2	 x25:0x00000004 x25=0x00000006
       31185000	      3117	80002050	01b9c3b3	xor	x7,x19,x27	 x19:0x6c62205c x27:0x0c9193b5  x7=0x60f3b3e9
       31195000	      3118	80002054	01461eb3	sll	x29,x12,x20	 x12:0x00000090 x20:0xfffffda1 x29=0x00000120
       31205000	      3119	80002058	ff700693	addi	x13,x0,-9	  x0:0x00000000 x13=0xfffffff7
       31215000	      3120	8000205c	ff200113	addi	x2,x0,-14	  x0:0x00000000  x2=0xfffffff2
       31225000	      3121	80002060	ec620997	auipc	x19,0xec620	 x19=0x6c62205c
       31235000	      3122	80002064	016dc4b3	xor	x9,x27,x22	 x27:0x0c9193b5 x22:0xfffffda0  x9=0xf36e6e15
       31245000	      3123	80002068	41855a93	srai	x21,x10,0x18	 x10:0xfffffe0f x21=0xffffffff
       31255000	      3124	8000206c	01c212b3	sll	x5,x4,x28	  x4:0xfffffc4b x28:0x00000001  x5=0xfffff896
       31265000	      3125	80002070	200e7893	andi	x17,x28,512	 x28:0x00000001 x17=0x00000000
       31275000	      3126	80002074	01887433	and	x8,x16,x24	 x16:0x00000006 x24:0x00000000  x8=0x00000000
       31285000	      3127	80002078	41d7dab3	sra	x21,x15,x29	 x15:0x0c919000 x29:0x00000120 x21=0x0c919000
       31295000	      3128	8000207c	404a8db3	sub	x27,x21,x4	 x21:0x0c919000  x4:0xfffffc4b x27=0x0c9193b5
       31305000	      3129	80002080	413ed613	srai	x12,x29,0x13	 x29:0x00000120 x12=0x00000000
       31315000	      3130	80002084	017bb0b3	sltu	x1,x23,x23	 x23:0x0000005c x23:0x0000005c  x1=0x00000000
       31325000	      3131	80002088	0039fbb3	and	x23,x19,x3	 x19:0x6c62205c  x3:0x9eb7ff50 x23=0x0c222050
       31335000	      3132	8000208c	ff668693	addi	x13,x13,-10	 x13:0xfffffff7 x13=0xffffffed
       31345000	      3133	80002090	fe26d2e3	bge	x13,x2,80002074	 x13:0xffffffed  x2:0xfffffff2
       31355000	      3134	80002094	9eb7f0b7	lui	x1,0x9eb7f	  x1=0x9eb7f000
       31365000	      3135	80002098	fb0c96e3	bne	x25,x16,80002044	 x25:0x00000006 x16:0x00000006
       31375000	      3136	8000209c	750c7413	andi	x8,x24,1872	 x24:0x00000000  x8=0x00000000
       31385000	      3137	800020a0	71953813	sltiu	x16,x10,1817	 x10:0xfffffe0f x16=0x00000000
       31395000	      3138	800020a4	0086f133	and	x2,x13,x8	 x13:0xffffffed  x8:0x00000000  x2=0x00000000
       31405000	      3139	800020a8	00c2d993	srli	x19,x5,0xc	  x5:0xfffff896 x19=0x000fffff
       31415000	      3140	800020ac	04c5e863	bltu	x11,x12,800020fc	 x11:0x00000008 x12:0x00000000
       31425000	      3141	800020b0	03929663	bne	x5,x25,800020dc	  x5:0xfffff896 x25:0x00000006
       31435000	      3142	00000000	00000013	addi	x0,x0,0	  x0:0x00000000
       31445000	      3143	800020d8	00000013	addi	x0,x0,0	  x0:0x00000000
       31455000	      3144	800020dc	010bd493	srli	x9,x23,0x10	 x23:0x0c222050  x9=0x00000c22
       31465000	      3145	800020e0	025cd263	bge	x25,x5,80002104	 x25:0x00000006  x5:0xfffff896
       31475000	      3146	00000000	00000013	addi	x0,x0,0	  x0:0x00000000
       31485000	      3147	80002100	00000013	addi	x0,x0,0	  x0:0x00000000
       31495000	      3148	80002104	00774a33	xor	x20,x14,x7	 x14:0x80009fc4  x7:0x60f3b3e9 x20=0xe0f32c2d
       31505000	      3149	80002108	03ea4a63	blt	x20,x30,8000213c	 x20:0xe0f32c2d x30:0x80009f50
       31515000	      3150	8000210c	01b02fb3	slt	x31,x0,x27	  x0:0x00000000 x27:0x0c9193b5 x31=0x00000001
       31525000	      3151	80002110	00700e93	addi	x29,x0,7	  x0:0x00000000 x29=0x00000007
       31535000	      3152	80002114	00500a13	addi	x20,x0,5	  x0:0x00000000 x20=0x00000005
       31545000	      3153	80002118	4775b493	sltiu	x9,x11,1143	 x11:0x00000008  x9=0x00000001
       31555000	      3154	8000211c	efc23313	sltiu	x6,x4,-260	  x4:0xfffffc4b  x6=0x00000001
       31565000	      3155	80002120	ffce8e93	addi	x29,x29,-4	 x29:0x00000007 x29=0x00000003
       31575000	      3156	80002124	01eb14b3	sll	x9,x22,x30	 x22:0xfffffda0 x30:0x80009f50  x9=0xfda00000
       31585000	      3157	80002128	00c6f933	and	x18,x13,x12	 x13:0xffffffed x12:0x00000000 x18=0x00000000
       31595000	      3158	8000212c	ff4ef6e3	bgeu	x29,x20,80002118	 x29:0x00000003 x20:0x00000005
       31605000	      3159	80002130	33106613	ori	x12,x0,817	  x0:0x00000000 x12=0x00000331
       31615000	      3160	80002134	016b55b3	srl	x11,x22,x22	 x22:0xfffffda0 x22:0xfffffda0 x11=0xfffffda0
       31625000	      3161	80002138	40240eb3	sub	x29,x8,x2	  x8:0x00000000  x2:0x00000000 x29=0x00000000
       31635000	      3162	8000213c	01775113	srli	x2,x14,0x17	 x14:0x80009fc4  x2=0x00000100
       31645000	      3163	80002140	006c1f93	slli	x31,x24,0x6	 x24:0x00000000 x31=0x00000000
       31655000	      3164	80002144	fe6ff817	auipc	x16,0xfe6ff	 x16=0x7e701140
       31665000	      3165	80002148	401ddcb3	sra	x25,x27,x1	 x27:0x0c9193b5  x1:0x9eb7f000 x25=0x0c9193b5
       31675000	      3166	8000214c	03a17263	bgeu	x2,x26,80002170	  x2:0x00000100 x26:0x0000000b
       31685000	      3167	00000000	00000013	addi	x0,x0,0	  x0:0x00000000
       31695000	      3168	8000216c	00000013	addi	x0,x0,0	  x0:0x00000000
       31705000	      3169	80002170	40505613	srai	x12,x0,0x5	  x0:0x00000000 x12=0x00000000
       31715000	      3170	80002174	00126bb3	or	x23,x4,x1	  x4:0xfffffc4b  x1:0x9eb7f000 x23=0xfffffc4b
       31725000	      3171	80002178	fc354b93	xori	x23,x10,-61	 x10:0xfffffe0f x23=0x000001cc
       31735000	      3172	8000217c	40195413	srai	x8,x18,0x1	 x18:0x00000000  x8=0x00000000
       31745000	      3173	80002180	03a3f463	bgeu	x7,x26,800021a8	  x7:0x60f3b3e9 x26:0x0000000b
       31755000	      3174	00000000	00000013	addi	x0,x0,0	  x0:0x00000000
       31765000	      3175	800021a4	00000013	addi	x0,x0,0	  x0:0x00000000
       31775000	      3176	800021a8	0042ba33	sltu	x20,x5,x4	  x5:0xfffff896  x4:0xfffffc4b x20=0x00000001
       31785000	      3177	800021ac	2ae6e8b7	lui	x17,0x2ae6e	 x17=0x2ae6e000
       31795000	      3178	800021b0	023f4863	blt	x30,x3,800021e0	 x30:0x80009f50  x3:0x9eb7ff50
       31805000	      3179	00000000	00000013	addi	x0,x0,0	  x0:0x00000000
       31815000	      3180	800021dc	00000013	addi	x0,x0,0	  x0:0x00000000
       31825000	      3181	800021e0	67690417	auipc	x8,0x67690	  x8=0xe76921dc
       31835000	      3182	800021e4	7e83b293	sltiu	x5,x7,2024	  x7:0x60f3b3e9  x5=0x00000000
       31845000	      3183	800021e8	998e7e13	andi	x28,x28,-1640	 x28:0x00000001 x28=0x00000000
       31855000	      3184	800021ec	554e8013	addi	x0,x29,1364	 x29:0x00000000
       31865000	      3185	800021f0	01798033	add	x0,x19,x23	 x19:0x000fffff x23:0x000001cc
       31875000	      3186	800021f4	59b10613	addi	x12,x2,1435	  x2:0x00000100 x12=0x0000069b
       31885000	      3187	800021f8	01c29c33	sll	x24,x5,x28	  x5:0x00000000 x28:0x00000000 x24=0x00000000
       31895000	      3188	800021fc	402a5213	srai	x4,x20,0x2	 x20:0x00000001  x4=0x00000000
       31905000	      3189	80002200	00539c63	bne	x7,x5,80002218	  x7:0x60f3b3e9  x5:0x00000000
       31915000	      3190	00000000	00000013	addi	x0,x0,0	  x0:0x00000000
       31925000	      3191	80002214	00000013	addi	x0,x0,0	  x0:0x00000000
       31935000	      3192	80002218	01f10a33	add	x20,x2,x31	  x2:0x00000100 x31:0x00000000 x20=0x00000100
       31945000	      3193	8000221c	00af09b3	add	x19,x30,x10	 x30:0x80009f50 x10:0xfffffe0f x19=0x80009d5f
       31955000	      3194	80002220	0e4e7c13	andi	x24,x28,228	 x28:0x00000000 x24=0x00000000
       31965000	      3195	80002224	003b2233	slt	x4,x22,x3	 x22:0xfffffda0  x3:0x9eb7ff50  x4=0x00000000
       31975000	      3196	80002228	00000013	addi	x0,x0,0	  x0:0x00000000
       31985000	      3197	8000222c	0114ca63	blt	x9,x17,80002240	  x9:0xfda00000 x17:0x2ae6e000
       31995000	      3198	00000000	00000013	addi	x0,x0,0	  x0:0x00000000
       32005000	      3199	8000223c	00000013	addi	x0,x0,0	  x0:0x00000000
       32015000	      3200	80002240	01f21c13	slli	x24,x4,0x1f	  x4:0x00000000 x24=0x00000000
       32025000	      3201	80002244	000d2cb3	slt	x25,x26,x0	 x26:0x0000000b  x0:0x00000000 x25=0x00000000
       32035000	      3202	80002248	a10a9297	auipc	x5,0xa10a9	  x5=0x210ab244
       32045000	      3203	8000224c	02fb0a63	beq	x22,x15,80002280	 x22:0xfffffda0 x15:0x0c919000
       32055000	      3204	80002250	0166ce33	xor	x28,x13,x22	 x13:0xffffffed x22:0xfffffda0 x28=0x0000024d
       32065000	      3205	80002254	055a9863	bne	x21,x21,800022a4	 x21:0x0c919000 x21:0x0c919000
       32075000	      3206	80002258	bcfac337	lui	x6,0xbcfac	  x6=0xbcfac000
       32085000	      3207	8000225c	eea1f813	andi	x16,x3,-278	  x3:0x9eb7ff50 x16=0x9eb7fe40
       32095000	      3208	80002260	002e3db3	sltu	x27,x28,x2	 x28:0x0000024d  x2:0x00000100 x27=0x00000000
       32105000	      3209	80002264	00259a63	bne	x11,x2,80002278	 x11:0xfffffda0  x2:0x00000100
       32115000	      3210	00000000	00000013	addi	x0,x0,0	  x0:0x00000000
       32125000	      3211	80002274	00000013	addi	x0,x0,0	  x0:0x00000000
       32135000	      3212	80002278	01c4ce33	xor	x28,x9,x28	  x9:0xfda00000 x28:0x0000024d x28=0xfda0024d
       32145000	      3213	8000227c	80ae7c13	andi	x24,x28,-2038	 x28:0xfda0024d x24=0xfda00008
       32155000	      3214	80002280	6bc5c313	xori	x6,x11,1724	 x11:0xfffffda0  x6=0xfffffb1c
       32165000	      3215	80002284	40f35613	srai	x12,x6,0xf	  x6:0xfffffb1c x12=0xffffffff
       32175000	      3216	80002288	01146c63	bltu	x8,x17,800022a0	  x8:0xe76921dc x17:0x2ae6e000
       32185000	      3217	8000228c	02e94863	blt	x18,x14,800022bc	 x18:0x00000000 x14:0x80009fc4
       32195000	      3218	80002290	00aa5c63	bge	x20,x10,800022a8	 x20:0x00000100 x10:0xfffffe0f
       32205000	      3219	00000000	00000013	addi	x0,x0,0	  x0:0x00000000
       32215000	      3220	800022a4	00000013	addi	x0,x0,0	  x0:0x00000000
       32225000	      3221	800022a8	01819b93	slli	x23,x3,0x18	  x3:0x9eb7ff50 x23=0x50000000
       32235000	      3222	800022ac	84504c13	xori	x24,x0,-1979	  x0:0x00000000 x24=0xfffff845
       32245000	      3223	800022b0	00000013	addi	x0,x0,0	  x0:0x00000000
       32255000	      3224	800022b4	03e6ce63	blt	x13,x30,800022f0	 x13:0xffffffed x30:0x80009f50
       32265000	      3225	800022b8	41a680b3	sub	x1,x13,x26	 x13:0xffffffed x26:0x0000000b  x1=0xffffffe2
       32275000	      3226	800022bc	00625fb3	srl	x31,x4,x6	  x4:0x00000000  x6:0xfffffb1c x31=0x00000000
       32285000	      3227	800022c0	01cfe6b3	or	x13,x31,x28	 x31:0x00000000 x28:0xfda0024d x13=0xfda0024d
       32295000	      3228	800022c4	01f0e133	or	x2,x1,x31	  x1:0xffffffe2 x31:0x00000000  x2=0xffffffe2
       32305000	      3229	800022c8	fbe53b93	sltiu	x23,x10,-66	 x10:0xfffffe0f x23=0x00000001
       32315000	      3230	800022cc	01c3aa33	slt	x20,x7,x28	  x7:0x60f3b3e9 x28:0xfda0024d x20=0x00000000
       32325000	      3231	800022d0	107ba293	slti	x5,x23,263	 x23:0x00000001  x5=0x00000001
       32335000	      3232	800022d4	485af497	auipc	x9,0x485af	  x9=0xc85b12d0
       32345000	      3233	800022d8	002d01b3	add	x3,x26,x2	 x26:0x0000000b  x2:0xffffffe2  x3=0xffffffed
       32355000	      3234	800022dc	bdb07593	andi	x11,x0,-1061	  x0:0x00000000 x11=0x00000000
       32365000	      3235	800022e0	25d2f193	andi	x3,x5,605	  x5:0x00000001  x3=0x00000001
       32375000	      3236	800022e4	00b2e5b3	or	x11,x5,x11	  x5:0x00000001 x11:0x00000000 x11=0x00000001
       32385000	      3237	800022e8	d8c77193	andi	x3,x14,-628	 x14:0x80009fc4  x3=0x80009d84
       32395000	      3238	800022ec	a94c4093	xori	x1,x24,-1388	 x24:0xfffff845  x1=0x000002d1
       32405000	      3239	800022f0	0102de13	srli	x28,x5,0x10	  x5:0x00000001 x28=0x00000000
       32415000	      3240	800022f4	9701f893	andi	x17,x3,-1680	  x3:0x80009d84 x17=0x80009900
       32425000	      3241	800022f8	01a60db3	add	x27,x12,x26	 x12:0xffffffff x26:0x0000000b x27=0x0000000a
       32435000	      3242	800022fc	011d5393	srli	x7,x26,0x11	 x26:0x0000000b  x7=0x00000000
       32445000	      3243	80002300	00000013	addi	x0,x0,0	  x0:0x00000000
       32455000	      3244	80002304	01bb53b3	srl	x7,x22,x27	 x22:0xfffffda0 x27:0x0000000a  x7=0x003fffff
       32465000	      3245	80002308	01f9ca63	blt	x19,x31,8000231c	 x19:0x80009d5f x31:0x00000000
       32475000	      3246	00000000	00000013	addi	x0,x0,0	  x0:0x00000000
       32485000	      3247	80002318	00000013	addi	x0,x0,0	  x0:0x00000000
       32495000	      3248	8000231c	00000013	addi	x0,x0,0	  x0:0x00000000
       32505000	      3249	80002320	019adc63	bge	x21,x25,80002338	 x21:0x0c919000 x25:0x00000000
       32515000	      3250	00000000	00000013	addi	x0,x0,0	  x0:0x00000000
       32525000	      3251	80002334	00000013	addi	x0,x0,0	  x0:0x00000000
       32535000	      3252	80002338	00799313	slli	x6,x19,0x7	 x19:0x80009d5f  x6=0x004eaf80
       32545000	      3253	8000233c	019a91b3	sll	x3,x21,x25	 x21:0x0c919000 x25:0x00000000  x3=0x0c919000
       32555000	      3254	80002340	000ddb33	srl	x22,x27,x0	 x27:0x0000000a  x0:0x00000000 x22=0x0000000a
       32565000	      3255	80002344	01394233	xor	x4,x18,x19	 x18:0x00000000 x19:0x80009d5f  x4=0x80009d5f
       32575000	      3256	80002348	01d2c533	xor	x10,x5,x29	  x5:0x00000001 x29:0x00000000 x10=0x00000001
       32585000	      3257	8000234c	0076f3b3	and	x7,x13,x7	 x13:0xfda0024d  x7:0x003fffff  x7=0x0020024d
       32595000	      3258	80002350	00076463	bltu	x14,x0,80002358	 x14:0x80009fc4  x0:0x00000000
       32605000	      3259	80002354	003b1313	slli	x6,x22,0x3	 x22:0x0000000a  x6=0x00000050
       32615000	      3260	80002358	0158da63	bge	x17,x21,8000236c	 x17:0x80009900 x21:0x0c919000
       32625000	      3261	8000235c	006dc1b3	xor	x3,x27,x6	 x27:0x0000000a  x6:0x00000050  x3=0x0000005a
       32635000	      3262	80002360	02d81c63	bne	x16,x13,80002398	 x16:0x9eb7fe40 x13:0xfda0024d
       32645000	      3263	00000000	00000013	addi	x0,x0,0	  x0:0x00000000
       32655000	      3264	80002394	00000013	addi	x0,x0,0	  x0:0x00000000
       32665000	      3265	80002398	018103b3	add	x7,x2,x24	  x2:0xffffffe2 x24:0xfffff845  x7=0xfffff827
       32675000	      3266	8000239c	01cc32b3	sltu	x5,x24,x28	 x24:0xfffff845 x28:0x00000000  x5=0x00000000
       32685000	      3267	800023a0	951eb397	auipc	x7,0x951eb	  x7=0x151ed39c
       32695000	      3268	800023a4	000f0c63	beq	x30,x0,800023bc	 x30:0x80009f50  x0:0x00000000
       32705000	      3269	800023a8	4059d993	srai	x19,x19,0x5	 x19:0x80009d5f x19=0xfc0004ea
       32715000	      3270	800023ac	0116c933	xor	x18,x13,x17	 x13:0xfda0024d x17:0x80009900 x18=0x7da09b4d
       32725000	      3271	800023b0	00b489b3	add	x19,x9,x11	  x9:0xc85b12d0 x11:0x00000001 x19=0xc85b12d1
       32735000	      3272	800023b4	2b4ec437	lui	x8,0x2b4ec	  x8=0x2b4ec000
       32745000	      3273	800023b8	0170aab3	slt	x21,x1,x23	  x1:0x000002d1 x23:0x00000001 x21=0x00000000
       32755000	      3274	800023bc	0f8bacb7	lui	x25,0xf8ba	 x25=0x0f8ba000
       32765000	      3275	800023c0	02350863	beq	x10,x3,800023f0	 x10:0x00000001  x3:0x0000005a
       32775000	      3276	800023c4	09577c93	andi	x25,x14,149	 x14:0x80009fc4 x25=0x00000084
       32785000	      3277	800023c8	fb61d537	lui	x10,0xfb61d	 x10=0xfb61d000
       32795000	      3278	800023cc	01f45033	srl	x0,x8,x31	  x8:0x2b4ec000 x31:0x00000000
       32805000	      3279	800023d0	002f9213	slli	x4,x31,0x2	 x31:0x00000000  x4=0x00000000
       32815000	      3280	800023d4	0009afb3	slt	x31,x19,x0	 x19:0xc85b12d1  x0:0x00000000 x31=0x00000001
       32825000	      3281	800023d8	00000013	addi	x0,x0,0	  x0:0x00000000
       32835000	      3282	800023dc	00000013	addi	x0,x0,0	  x0:0x00000000
       32845000	      3283	800023e0	b2383593	sltiu	x11,x16,-1245	 x16:0x9eb7fe40 x11=0x00000001
       32855000	      3284	800023e4	01f97a33	and	x20,x18,x31	 x18:0x7da09b4d x31:0x00000001 x20=0x00000001
       32865000	      3285	800023e8	00c243b3	xor	x7,x4,x12	  x4:0x00000000 x12:0xffffffff  x7=0xffffffff
       32875000	      3286	800023ec	00000013	addi	x0,x0,0	  x0:0x00000000
       32885000	      3287	800023f0	64db6893	ori	x17,x22,1613	 x22:0x0000000a x17=0x0000064f
       32895000	      3288	800023f4	413e01b3	sub	x3,x28,x19	 x28:0x00000000 x19:0xc85b12d1  x3=0x37a4ed2f
       32905000	      3289	800023f8	806a8193	addi	x3,x21,-2042	 x21:0x00000000  x3=0xfffff806
       32915000	      3290	800023fc	005b5e13	srli	x28,x22,0x5	 x22:0x0000000a x28=0x00000000
       32925000	      3291	80002400	00000013	addi	x0,x0,0	  x0:0x00000000
       32935000	      3292	80002404	d7112b13	slti	x22,x2,-655	  x2:0xffffffe2 x22=0x00000000
       32945000	      3293	80002408	01767c63	bgeu	x12,x23,80002420	 x12:0xffffffff x23:0x00000001
       32955000	      3294	00000000	00000013	addi	x0,x0,0	  x0:0x00000000
       32965000	      3295	8000241c	00000013	addi	x0,x0,0	  x0:0x00000000
       32975000	      3296	80002420	3ad32a13	slti	x20,x6,941	  x6:0x00000050 x20=0x00000001
       32985000	      3297	80002424	41648b33	sub	x22,x9,x22	  x9:0xc85b12d0 x22:0x00000000 x22=0xc85b12d0
       32995000	      3298	80002428	0160aa33	slt	x20,x1,x22	  x1:0x000002d1 x22:0xc85b12d0 x20=0x00000000
       33005000	      3299	8000242c	01033fb3	sltu	x31,x6,x16	  x6:0x00000050 x16:0x9eb7fe40 x31=0x00000001
       33015000	      3300	80002430	005e91b3	sll	x3,x29,x5	 x29:0x00000000  x5:0x00000000  x3=0x00000000
       33025000	      3301	80002434	7c519c97	auipc	x25,0x7c519	 x25=0xfc51b430
       33035000	      3302	80002438	003b58b3	srl	x17,x22,x3	 x22:0xc85b12d0  x3:0x00000000 x17=0xc85b12d0
       33045000	      3303	8000243c	00000013	addi	x0,x0,0	  x0:0x00000000
       33055000	      3304	80002440	41275293	srai	x5,x14,0x12	 x14:0x80009fc4  x5=0xffffe000
       33065000	      3305	80002444	01158e33	add	x28,x11,x17	 x11:0x00000001 x17:0xc85b12d0 x28=0xc85b12d1
       33075000	      3306	80002448	009810b3	sll	x1,x16,x9	 x16:0x9eb7fe40  x9:0xc85b12d0  x1=0xfe400000
       33085000	      3307	8000244c	0181a433	slt	x8,x3,x24	  x3:0x00000000 x24:0xfffff845  x8=0x00000000
       33095000	      3308	80002450	00ffb533	sltu	x10,x31,x15	 x31:0x00000001 x15:0x0c919000 x10=0x00000001
       33105000	      3309	80002454	e1d05517	auipc	x10,0xe1d05	 x10=0x61d07450
       33115000	      3310	80002458	00ef2db3	slt	x27,x30,x14	 x30:0x80009f50 x14:0x80009fc4 x27=0x00000001
       33125000	      3311	8000245c	6d5c6d93	ori	x27,x24,1749	 x24:0xfffff845 x27=0xfffffed5
       33135000	      3312	80002460	00047bb3	and	x23,x8,x0	  x8:0x00000000  x0:0x00000000 x23=0x00000000
       33145000	      3313	80002464	019b9413	slli	x8,x23,0x19	 x23:0x00000000  x8=0x00000000
       33155000	      3314	80002468	4006dc13	srai	x24,x13,0x0	 x13:0xfda0024d x24=0xfda0024d
       33165000	      3315	8000246c	0238c263	blt	x17,x3,80002490	 x17:0xc85b12d0  x3:0x00000000
       33175000	      3316	00000000	00000013	addi	x0,x0,0	  x0:0x00000000
       33185000	      3317	8000248c	00000013	addi	x0,x0,0	  x0:0x00000000
       33195000	      3318	80002490	01638863	beq	x7,x22,800024a0	  x7:0xffffffff x22:0xc85b12d0
       33205000	      3319	80002494	006502b3	add	x5,x10,x6	 x10:0x61d07450  x6:0x00000050  x5=0x61d074a0
       33215000	      3320	80002498	28f9a197	auipc	x3,0x28f9a	  x3=0xa8f9c494
       33225000	      3321	8000249c	405b8433	sub	x8,x23,x5	 x23:0x00000000  x5:0x61d074a0  x8=0x9e2f8b60
       33235000	      3322	800024a0	09363893	sltiu	x17,x12,147	 x12:0xffffffff x17=0x00000000
       33245000	      3323	800024a4	015a1013	slli	x0,x20,0x15	 x20:0x00000000
       33255000	      3324	800024a8	05010663	beq	x2,x16,800024f4	  x2:0xffffffe2 x16:0x9eb7fe40
       33265000	      3325	800024ac	00211f93	slli	x31,x2,0x2	  x2:0xffffffe2 x31=0xffffff88
       33275000	      3326	800024b0	01c42633	slt	x12,x8,x28	  x8:0x9e2f8b60 x28:0xc85b12d1 x12=0x00000001
       33285000	      3327	800024b4	00fdd913	srli	x18,x27,0xf	 x27:0xfffffed5 x18=0x0001ffff
       33295000	      3328	800024b8	00727bb3	and	x23,x4,x7	  x4:0x00000000  x7:0xffffffff x23=0x00000000
       33305000	      3329	800024bc	00ec46b3	xor	x13,x24,x14	 x24:0xfda0024d x14:0x80009fc4 x13=0x7da09d89
       33315000	      3330	800024c0	038cf863	bgeu	x25,x24,800024f0	 x25:0xfc51b430 x24:0xfda0024d
       33325000	      3331	800024c4	00625193	srli	x3,x4,0x6	  x4:0x00000000  x3=0x00000000
       33335000	      3332	800024c8	999bc793	xori	x15,x23,-1639	 x23:0x00000000 x15=0xfffff999
       33345000	      3333	800024cc	031d9463	bne	x27,x17,800024f4	 x27:0xfffffed5 x17:0x00000000
       33355000	      3334	00000000	00000013	addi	x0,x0,0	  x0:0x00000000
       33365000	      3335	800024f0	00000013	addi	x0,x0,0	  x0:0x00000000
       33375000	      3336	800024f4	00453ab3	sltu	x21,x10,x4	 x10:0x61d07450  x4:0x00000000 x21=0x00000000
       33385000	      3337	800024f8	418c5293	srai	x5,x24,0x18	 x24:0xfda0024d  x5=0xfffffffd
       33395000	      3338	800024fc	01e60233	add	x4,x12,x30	 x12:0x00000001 x30:0x80009f50  x4=0x80009f51
       33405000	      3339	80002500	00ff1bb3	sll	x23,x30,x15	 x30:0x80009f50 x15:0xfffff999 x23=0xa0000000
       33415000	      3340	80002504	a9604693	xori	x13,x0,-1386	  x0:0x00000000 x13=0xfffffa96
       33425000	      3341	80002508	01f23b33	sltu	x22,x4,x31	  x4:0x80009f51 x31:0xffffff88 x22=0x00000001
       33435000	      3342	8000250c	00c0feb3	and	x29,x1,x12	  x1:0xfe400000 x12:0x00000001 x29=0x00000000
       33445000	      3343	80002510	f5f8cf93	xori	x31,x17,-161	 x17:0x00000000 x31=0xffffff5f
       33455000	      3344	80002514	8fd38113	addi	x2,x7,-1795	  x7:0xffffffff  x2=0xfffff8fc
       33465000	      3345	80002518	005955b3	srl	x11,x18,x5	 x18:0x0001ffff  x5:0xfffffffd x11=0x00000000
       33475000	      3346	8000251c	40d95013	srai	x0,x18,0xd	 x18:0x0001ffff
       33485000	      3347	80002520	405e85b3	sub	x11,x29,x5	 x29:0x00000000  x5:0xfffffffd x11=0x00000003
       33495000	      3348	80002524	01051913	slli	x18,x10,0x10	 x10:0x61d07450 x18=0x74500000
       33505000	      3349	80002528	ea4fe5ef	jal	x11,80002528	 x11=0x80002528
       33515000	      3350	00000000	00000013	addi	x0,x0,0	  x0:0x00000000
       33525000	      3351	80000bc8	00000013	addi	x0,x0,0	  x0:0x00000000
       33535000	      3352	80000bcc	fe4f0f13	addi	x30,x30,-28	 x30:0x80009f50 x30=0x80009f34
       33545000	      3353	80000bd0	1af5eeb7	lui	x29,0x1af5e	 x29=0x1af5e000
       33555000	      3354	80000bd4	00bf2223	sw	x11,4(x30)	 x30:0x80009f34 x11:0x80002528 PA:0x80009f38
       33565000	      3355	80000bd8	00759633	sll	x12,x11,x7	 x11:0x80002528  x7:0xffffffff x12=0x00000000
       33575000	      3356	80000bdc	011174b3	and	x9,x2,x17	  x2:0xfffff8fc x17:0x00000000  x9=0x00000000
       33585000	      3357	80000be0	013407b3	add	x15,x8,x19	  x8:0x9e2f8b60 x19:0xc85b12d1 x15=0x668a9e31
       33595000	      3358	80000be4	015340b3	xor	x1,x6,x21	  x6:0x00000050 x21:0x00000000  x1=0x00000050
       33605000	      3359	80000be8	01b4ebb3	or	x23,x9,x27	  x9:0x00000000 x27:0xfffffed5 x23=0xfffffed5
       33615000	      3360	80000bec	798e3593	sltiu	x11,x28,1944	 x28:0xc85b12d1 x11=0x00000000
       33625000	      3361	80000bf0	9c70e093	ori	x1,x1,-1593	  x1:0x00000050  x1=0xfffff9d7
       33635000	      3362	80000bf4	00e556b3	srl	x13,x10,x14	 x10:0x61d07450 x14:0x80009fc4 x13=0x061d0745
       33645000	      3363	80000bf8	950ca793	slti	x15,x25,-1712	 x25:0xfc51b430 x15=0x00000001
       33655000	      3364	80000bfc	01a25033	srl	x0,x4,x26	  x4:0x80009f51 x26:0x0000000b
       33665000	      3365	80000c00	a8382937	lui	x18,0xa8382	 x18=0xa8382000
       33675000	      3366	80000c04	3b688a13	addi	x20,x17,950	 x17:0x00000000 x20=0x000003b6
       33685000	      3367	80000c08	d41ff5ef	jal	x11,80000c08	 x11=0x80000c08
       33695000	      3368	00000000	00000013	addi	x0,x0,0	  x0:0x00000000
       33705000	      3369	80000944	00000013	addi	x0,x0,0	  x0:0x00000000
       33715000	      3370	80000948	018e7463	bgeu	x28,x24,80000950	 x28:0xc85b12d1 x24:0xfda0024d
       33725000	      3371	8000094c	7e717213	andi	x4,x2,2023	  x2:0xfffff8fc  x4=0x000000e4
       33735000	      3372	80000950	fd4f0f13	addi	x30,x30,-44	 x30:0x80009f34 x30=0x80009f08
       33745000	      3373	80000954	00bf2223	sw	x11,4(x30)	 x30:0x80009f08 x11:0x80000c08 PA:0x80009f0c
       33755000	      3374	80000958	012e7433	and	x8,x28,x18	 x28:0xc85b12d1 x18:0xa8382000  x8=0x88180000
       33765000	      3375	8000095c	01fff0b3	and	x1,x31,x31	 x31:0xffffff5f x31:0xffffff5f  x1=0xffffff5f
       33775000	      3376	80000960	00700c13	addi	x24,x0,7	  x0:0x00000000 x24=0x00000007
       33785000	      3377	80000964	00669a13	slli	x20,x13,0x6	 x13:0x061d0745 x20=0x8741d140
       33795000	      3378	80000968	37f70693	addi	x13,x14,895	 x14:0x80009fc4 x13=0x8000a343
       33805000	      3379	8000096c	9d224593	xori	x11,x4,-1582	  x4:0x000000e4 x11=0xfffff936
       33815000	      3380	80000970	00900413	addi	x8,x0,9	  x0:0x00000000  x8=0x00000009
       33825000	      3381	80000974	011b3833	sltu	x16,x22,x17	 x22:0x00000001 x17:0x00000000 x16=0x00000000
       33835000	      3382	80000978	00373db3	sltu	x27,x14,x3	 x14:0x80009fc4  x3:0x00000000 x27=0x00000000
       33845000	      3383	8000097c	00e35f93	srli	x31,x6,0xe	  x6:0x00000050 x31=0x00000000
       33855000	      3384	80000980	00b741b3	xor	x3,x14,x11	 x14:0x80009fc4 x11:0xfffff936  x3=0x7fff66f2
       33865000	      3385	80000984	40a7d1b3	sra	x3,x15,x10	 x15:0x00000001 x10:0x61d07450  x3=0x00000000
       33875000	      3386	80000988	004c0c13	addi	x24,x24,4	 x24:0x00000007 x24=0x0000000b
       33885000	      3387	8000098c	00000013	addi	x0,x0,0	  x0:0x00000000
       33895000	      3388	80000990	00a6eb33	or	x22,x13,x10	 x13:0x8000a343 x10:0x61d07450 x22=0xe1d0f753
       33905000	      3389	80000994	fe8c40e3	blt	x24,x8,80000974	 x24:0x0000000b  x8:0x00000009
       33915000	      3390	80000998	41a85213	srai	x4,x16,0x1a	 x16:0x00000000  x4=0x00000000
       33925000	      3391	8000099c	01356633	or	x12,x10,x19	 x10:0x61d07450 x19:0xc85b12d1 x12=0xe9db76d1
       33935000	      3392	800009a0	0001d463	bge	x3,x0,800009a8	  x3:0x00000000  x0:0x00000000
       33945000	      3393	00000000	00000013	addi	x0,x0,0	  x0:0x00000000
       33955000	      3394	800009a4	00000013	addi	x0,x0,0	  x0:0x00000000
       33965000	      3395	800009a8	d0853693	sltiu	x13,x10,-760	 x10:0x61d07450 x13=0x00000001
       33975000	      3396	800009ac	40dc0a33	sub	x20,x24,x13	 x24:0x0000000b x13:0x00000001 x20=0x0000000a
       33985000	      3397	800009b0	406b5bb3	sra	x23,x22,x6	 x22:0xe1d0f753  x6:0x00000050 x23=0xffffe1d0
       33995000	      3398	800009b4	001c04b3	add	x9,x24,x1	 x24:0x0000000b  x1:0xffffff5f  x9=0xffffff6a
       34005000	      3399	800009b8	00811033	sll	x0,x2,x8	  x2:0xfffff8fc  x8:0x00000009
       34015000	      3400	800009bc	01102b33	slt	x22,x0,x17	  x0:0x00000000 x17:0x00000000 x22=0x00000000
       34025000	      3401	800009c0	5b22f893	andi	x17,x5,1458	  x5:0xfffffffd x17=0x000005b0
       34035000	      3402	800009c4	0f786193	ori	x3,x16,247	 x16:0x00000000  x3=0x000000f7
       34045000	      3403	800009c8	801002b7	lui	x5,0x80100	  x5=0x80100000
       34055000	      3404	800009cc	41335333	sra	x6,x6,x19	  x6:0x00000050 x19:0xc85b12d1  x6=0x00000000
       34065000	      3405	800009d0	0587d063	bge	x15,x24,80000a10	 x15:0x00000001 x24:0x0000000b
       34075000	      3406	800009d4	00000013	addi	x0,x0,0	  x0:0x00000000
       34085000	      3407	800009d8	0246d863	bge	x13,x4,80000a08	 x13:0x00000001  x4:0x00000000
       34095000	      3408	00000000	00000013	addi	x0,x0,0	  x0:0x00000000
       34105000	      3409	80000a04	00000013	addi	x0,x0,0	  x0:0x00000000
       34115000	      3410	80000a08	4181d833	sra	x16,x3,x24	  x3:0x000000f7 x24:0x0000000b x16=0x00000000
       34125000	      3411	80000a0c	414e5793	srai	x15,x28,0x14	 x28:0xc85b12d1 x15=0xfffffc85
       34135000	      3412	80000a10	ed41b293	sltiu	x5,x3,-300	  x3:0x000000f7  x5=0x00000001
       34145000	      3413	80000a14	feea2697	auipc	x13,0xfeea2	 x13=0x7eea2a10
       34155000	      3414	80000a18	0384d463	bge	x9,x24,80000a40	  x9:0xffffff6a x24:0x0000000b
       34165000	      3415	80000a1c	01cdfb33	and	x22,x27,x28	 x27:0x00000000 x28:0xc85b12d1 x22=0x00000000
       34175000	      3416	80000a20	91953c13	sltiu	x24,x10,-1767	 x10:0x61d07450 x24=0x00000001
       34185000	      3417	80000a24	05093593	sltiu	x11,x18,80	 x18:0xa8382000 x11=0x00000000
       34195000	      3418	80000a28	015b0233	add	x4,x22,x21	 x22:0x00000000 x21:0x00000000  x4=0x00000000
       34205000	      3419	80000a2c	41bf5e33	sra	x28,x30,x27	 x30:0x80009f08 x27:0x00000000 x28=0x80009f08
       34215000	      3420	80000a30	41eed433	sra	x8,x29,x30	 x29:0x1af5e000 x30:0x80009f08  x8=0x001af5e0
       34225000	      3421	80000a34	65f98393	addi	x7,x19,1631	 x19:0xc85b12d1  x7=0xc85b1930
       34235000	      3422	80000a38	9944f693	andi	x13,x9,-1644	  x9:0xffffff6a x13=0xfffff900
       34245000	      3423	80000a3c	01825813	srli	x16,x4,0x18	  x4:0x00000000 x16=0x00000000
       34255000	      3424	80000a40	8c638493	addi	x9,x7,-1850	  x7:0xc85b1930  x9=0xc85b11f6
       34265000	      3425	80000a44	058e1863	bne	x28,x24,80000a94	 x28:0x80009f08 x24:0x00000001
       34275000	      3426	00000000	00000013	addi	x0,x0,0	  x0:0x00000000
       34285000	      3427	80000a90	00000013	addi	x0,x0,0	  x0:0x00000000
       34295000	      3428	80000a94	03dbf463	bgeu	x23,x29,80000abc	 x23:0xffffe1d0 x29:0x1af5e000
       34305000	      3429	00000000	00000013	addi	x0,x0,0	  x0:0x00000000
       34315000	      3430	80000ab8	00000013	addi	x0,x0,0	  x0:0x00000000
       34325000	      3431	80000abc	99185697	auipc	x13,0x99185	 x13=0x19185ab8
       34335000	      3432	80000ac0	0198e333	or	x6,x17,x25	 x17:0x000005b0 x25:0xfc51b430  x6=0xfc51b5b0
       34345000	      3433	80000ac4	01f560b3	or	x1,x10,x31	 x10:0x61d07450 x31:0x00000000  x1=0x61d07450
       34355000	      3434	80000ac8	004fc033	xor	x0,x31,x4	 x31:0x00000000  x4:0x00000000
       34365000	      3435	80000acc	9f14cdb7	lui	x27,0x9f14c	 x27=0x9f14c000
       34375000	      3436	80000ad0	003a6433	or	x8,x20,x3	 x20:0x0000000a  x3:0x000000f7  x8=0x000000ff
       34385000	      3437	80000ad4	017e8833	add	x16,x29,x23	 x29:0x1af5e000 x23:0xffffe1d0 x16=0x1af5c1d0
       34395000	      3438	80000ad8	23f5f613	andi	x12,x11,575	 x11:0x00000000 x12=0x00000000
       34405000	      3439	80000adc	00479663	bne	x15,x4,80000ae8	 x15:0xfffffc85  x4:0x00000000
       34415000	      3440	00000000	00000013	addi	x0,x0,0	  x0:0x00000000
       34425000	      3441	80000ae4	00000013	addi	x0,x0,0	  x0:0x00000000
       34435000	      3442	80000ae8	4c98ec97	auipc	x25,0x4c98e	 x25=0xcc98eae4
       34445000	      3443	80000aec	bdbc47b7	lui	x15,0xbdbc4	 x15=0xbdbc4000
       34455000	      3444	80000af0	00339333	sll	x6,x7,x3	  x7:0xc85b1930  x3:0x000000f7  x6=0x98000000
       34465000	      3445	80000af4	00cdf463	bgeu	x27,x12,80000afc	 x27:0x9f14c000 x12:0x00000000
       34475000	      3446	00000000	00000013	addi	x0,x0,0	  x0:0x00000000
       34485000	      3447	80000af8	00000013	addi	x0,x0,0	  x0:0x00000000
       34495000	      3448	80000afc	affd3193	sltiu	x3,x26,-1281	 x26:0x0000000b  x3=0x00000001
       34505000	      3449	80000b00	01416a33	or	x20,x2,x20	  x2:0xfffff8fc x20:0x0000000a x20=0xfffff8fe
       34515000	      3450	80000b04	00126633	or	x12,x4,x1	  x4:0x00000000  x1:0x61d07450 x12=0x61d07450
       34525000	      3451	80000b08	004f2583	lw	x11,4(x30)	 x30:0x80009f08 x11=0x80000c08 PA:0x80009f0c
       34535000	      3452	80000b0c	a918e693	ori	x13,x17,-1391	 x17:0x000005b0 x13=0xffffffb1
       34545000	      3453	80000b10	02cf0f13	addi	x30,x30,44	 x30:0x80009f08 x30=0x80009f34
       34555000	      3454	80000b14	012b6633	or	x12,x22,x18	 x22:0x00000000 x18:0xa8382000 x12=0xa8382000
       34565000	      3455	80000b18	414a5e13	srai	x28,x20,0x14	 x20:0xfffff8fe x28=0xffffffff
       34575000	      3456	80000b1c	00158313	addi	x6,x11,1	 x11:0x80000c08  x6=0x80000c09
       34585000	      3457	80000b20	00030367	jalr	x6,x6,0	  x6:0x80000c09  x6=0x80000b20
       34595000	      3458	00000000	00000013	addi	x0,x0,0	  x0:0x00000000
       34605000	      3459	80000c08	00000013	addi	x0,x0,0	  x0:0x00000000
       34615000	      3460	80000c0c	00100593	addi	x11,x0,1	  x0:0x00000000 x11=0x00000001
       34625000	      3461	80000c10	01000413	addi	x8,x0,16	  x0:0x00000000  x8=0x00000010
       34635000	      3462	80000c14	41e38333	sub	x6,x7,x30	  x7:0xc85b1930 x30:0x80009f34  x6=0x485a79fc
       34645000	      3463	80000c18	41490cb3	sub	x25,x18,x20	 x18:0xa8382000 x20:0xfffff8fe x25=0xa8382702
       34655000	      3464	80000c1c	01380eb3	add	x29,x16,x19	 x16:0x1af5c1d0 x19:0xc85b12d1 x29=0xe350d4a1
       34665000	      3465	80000c20	00000013	addi	x0,x0,0	  x0:0x00000000
       34675000	      3466	80000c24	00858593	addi	x11,x11,8	 x11:0x00000001 x11=0x00000009
       34685000	      3467	80000c28	00d3d313	srli	x6,x7,0xd	  x7:0xc85b1930  x6=0x000642d8
       34695000	      3468	80000c2c	00400e13	addi	x28,x0,4	  x0:0x00000000 x28=0x00000004
       34705000	      3469	80000c30	005bc4b3	xor	x9,x23,x5	 x23:0xffffe1d0  x5:0x00000001  x9=0xffffe1d1
       34715000	      3470	80000c34	00300b13	addi	x22,x0,3	  x0:0x00000000 x22=0x00000003
       34725000	      3471	80000c38	01cb7fb3	and	x31,x22,x28	 x22:0x00000003 x28:0x00000004 x31=0x00000000
       34735000	      3472	80000c3c	01824833	xor	x16,x4,x24	  x4:0x00000000 x24:0x00000001 x16=0x00000001
       34745000	      3473	80000c40	40195bb3	sra	x23,x18,x1	 x18:0xa8382000  x1:0x61d07450 x23=0xffffa838
       34755000	      3474	80000c44	ffee0e13	addi	x28,x28,-2	 x28:0x00000004 x28=0x00000002
       34765000	      3475	80000c48	8af6a013	slti	x0,x13,-1873	 x13:0xffffffb1
       34775000	      3476	80000c4c	ff6e76e3	bgeu	x28,x22,80000c38	 x28:0x00000002 x22:0x00000003
       34785000	      3477	80000c50	3bc6b793	sltiu	x15,x13,956	 x13:0xffffffb1 x15=0x00000000
       34795000	      3478	80000c54	fc85c2e3	blt	x11,x8,80000c18	 x11:0x00000009  x8:0x00000010
       34805000	      3479	00000000	00000013	addi	x0,x0,0	  x0:0x00000000
       34815000	      3480	80000c14	00000013	addi	x0,x0,0	  x0:0x00000000
       34825000	      3481	80000c18	41490cb3	sub	x25,x18,x20	 x18:0xa8382000 x20:0xfffff8fe x25=0xa8382702
       34835000	      3482	80000c1c	01380eb3	add	x29,x16,x19	 x16:0x00000001 x19:0xc85b12d1 x29=0xc85b12d2
       34845000	      3483	80000c20	00000013	addi	x0,x0,0	  x0:0x00000000
       34855000	      3484	80000c24	00858593	addi	x11,x11,8	 x11:0x00000009 x11=0x00000011
       34865000	      3485	80000c28	00d3d313	srli	x6,x7,0xd	  x7:0xc85b1930  x6=0x000642d8
       34875000	      3486	80000c2c	00400e13	addi	x28,x0,4	  x0:0x00000000 x28=0x00000004
       34885000	      3487	80000c30	005bc4b3	xor	x9,x23,x5	 x23:0xffffa838  x5:0x00000001  x9=0xffffa839
       34895000	      3488	80000c34	00300b13	addi	x22,x0,3	  x0:0x00000000 x22=0x00000003
       34905000	      3489	80000c38	01cb7fb3	and	x31,x22,x28	 x22:0x00000003 x28:0x00000004 x31=0x00000000
       34915000	      3490	80000c3c	01824833	xor	x16,x4,x24	  x4:0x00000000 x24:0x00000001 x16=0x00000001
       34925000	      3491	80000c40	40195bb3	sra	x23,x18,x1	 x18:0xa8382000  x1:0x61d07450 x23=0xffffa838
       34935000	      3492	80000c44	ffee0e13	addi	x28,x28,-2	 x28:0x00000004 x28=0x00000002
       34945000	      3493	80000c48	8af6a013	slti	x0,x13,-1873	 x13:0xffffffb1
       34955000	      3494	80000c4c	ff6e76e3	bgeu	x28,x22,80000c38	 x28:0x00000002 x22:0x00000003
       34965000	      3495	80000c50	3bc6b793	sltiu	x15,x13,956	 x13:0xffffffb1 x15=0x00000000
       34975000	      3496	80000c54	fc85c2e3	blt	x11,x8,80000c18	 x11:0x00000011  x8:0x00000010
       34985000	      3497	80000c58	0039a4b3	slt	x9,x19,x3	 x19:0xc85b12d1  x3:0x00000001  x9=0x00000001
       34995000	      3498	80000c5c	00a00413	addi	x8,x0,10	  x0:0x00000000  x8=0x0000000a
       35005000	      3499	80000c60	39bcbc37	lui	x24,0x39bcb	 x24=0x39bcb000
       35015000	      3500	80000c64	00b00593	addi	x11,x0,11	  x0:0x00000000 x11=0x0000000b
       35025000	      3501	80000c68	ec5feb93	ori	x23,x31,-315	 x31:0x00000000 x23=0xfffffec5
       35035000	      3502	80000c6c	0184c0b3	xor	x1,x9,x24	  x9:0x00000001 x24:0x39bcb000  x1=0x39bcb001
       35045000	      3503	80000c70	17ed8493	addi	x9,x27,382	 x27:0x9f14c000  x9=0x9f14c17e
       35055000	      3504	80000c74	0096d513	srli	x10,x13,0x9	 x13:0xffffffb1 x10=0x007fffff
       35065000	      3505	80000c78	00940413	addi	x8,x8,9	  x8:0x0000000a  x8=0x00000013
       35075000	      3506	80000c7c	000ef333	and	x6,x29,x0	 x29:0xc85b12d2  x0:0x00000000  x6=0x00000000
       35085000	      3507	80000c80	005db0b3	sltu	x1,x27,x5	 x27:0x9f14c000  x5:0x00000001  x1=0x00000000
       35095000	      3508	80000c84	ffd00e93	addi	x29,x0,-3	  x0:0x00000000 x29=0xfffffffd
       35105000	      3509	80000c88	0eb32c13	slti	x24,x6,235	  x6:0x00000000 x24=0x00000001
       35115000	      3510	80000c8c	ff100b13	addi	x22,x0,-15	  x0:0x00000000 x22=0xfffffff1
       35125000	      3511	80000c90	2c30c213	xori	x4,x1,707	  x1:0x00000000  x4=0x000002c3
       35135000	      3512	80000c94	40e00333	sub	x6,x0,x14	  x0:0x00000000 x14:0x80009fc4  x6=0x7fff603c
       35145000	      3513	80000c98	ffde8e93	addi	x29,x29,-3	 x29:0xfffffffd x29=0xfffffffa
       35155000	      3514	80000c9c	ea8080b7	lui	x1,0xea808	  x1=0xea808000
       35165000	      3515	80000ca0	134bee13	ori	x28,x23,308	 x23:0xfffffec5 x28=0xfffffff5
       35175000	      3516	80000ca4	ff6e96e3	bne	x29,x22,80000c90	 x29:0xfffffffa x22:0xfffffff1
       35185000	      3517	00000000	00000013	addi	x0,x0,0	  x0:0x00000000
       35195000	      3518	80000c8c	00000013	addi	x0,x0,0	  x0:0x00000000
       35205000	      3519	80000c90	2c30c213	xori	x4,x1,707	  x1:0xea808000  x4=0xea8082c3
       35215000	      3520	80000c94	40e00333	sub	x6,x0,x14	  x0:0x00000000 x14:0x80009fc4  x6=0x7fff603c
       35225000	      3521	80000c98	ffde8e93	addi	x29,x29,-3	 x29:0xfffffffa x29=0xfffffff7
       35235000	      3522	80000c9c	ea8080b7	lui	x1,0xea808	  x1=0xea808000
       35245000	      3523	80000ca0	134bee13	ori	x28,x23,308	 x23:0xfffffec5 x28=0xfffffff5
       35255000	      3524	80000ca4	ff6e96e3	bne	x29,x22,80000c90	 x29:0xfffffff7 x22:0xfffffff1
       35265000	      3525	00000000	00000013	addi	x0,x0,0	  x0:0x00000000
       35275000	      3526	80000c8c	00000013	addi	x0,x0,0	  x0:0x00000000
       35285000	      3527	80000c90	2c30c213	xori	x4,x1,707	  x1:0xea808000  x4=0xea8082c3
       35295000	      3528	80000c94	40e00333	sub	x6,x0,x14	  x0:0x00000000 x14:0x80009fc4  x6=0x7fff603c
       35305000	      3529	80000c98	ffde8e93	addi	x29,x29,-3	 x29:0xfffffff7 x29=0xfffffff4
       35315000	      3530	80000c9c	ea8080b7	lui	x1,0xea808	  x1=0xea808000
       35325000	      3531	80000ca0	134bee13	ori	x28,x23,308	 x23:0xfffffec5 x28=0xfffffff5
       35335000	      3532	80000ca4	ff6e96e3	bne	x29,x22,80000c90	 x29:0xfffffff4 x22:0xfffffff1
       35345000	      3533	00000000	00000013	addi	x0,x0,0	  x0:0x00000000
       35355000	      3534	80000c8c	00000013	addi	x0,x0,0	  x0:0x00000000
       35365000	      3535	80000c90	2c30c213	xori	x4,x1,707	  x1:0xea808000  x4=0xea8082c3
       35375000	      3536	80000c94	40e00333	sub	x6,x0,x14	  x0:0x00000000 x14:0x80009fc4  x6=0x7fff603c
       35385000	      3537	80000c98	ffde8e93	addi	x29,x29,-3	 x29:0xfffffff4 x29=0xfffffff1
       35395000	      3538	80000c9c	ea8080b7	lui	x1,0xea808	  x1=0xea808000
       35405000	      3539	80000ca0	134bee13	ori	x28,x23,308	 x23:0xfffffec5 x28=0xfffffff5
       35415000	      3540	80000ca4	ff6e96e3	bne	x29,x22,80000c90	 x29:0xfffffff1 x22:0xfffffff1
       35425000	      3541	80000ca8	fcb442e3	blt	x8,x11,80000c6c	  x8:0x00000013 x11:0x0000000b
       35435000	      3542	80000cac	76572213	slti	x4,x14,1893	 x14:0x80009fc4  x4=0x00000001
       35445000	      3543	80000cb0	00700813	addi	x16,x0,7	  x0:0x00000000 x16=0x00000007
       35455000	      3544	80000cb4	944df693	andi	x13,x27,-1724	 x27:0x9f14c000 x13=0x9f14c000
       35465000	      3545	80000cb8	692c59b7	lui	x19,0x692c5	 x19=0x692c5000
       35475000	      3546	80000cbc	40a00cb3	sub	x25,x0,x10	  x0:0x00000000 x10:0x007fffff x25=0xff800001
       35485000	      3547	80000cc0	08782893	slti	x17,x16,135	 x16:0x00000007 x17=0x00000001
       35495000	      3548	80000cc4	43226537	lui	x10,0x43226	 x10=0x43226000
       35505000	      3549	80000cc8	ff000213	addi	x4,x0,-16	  x0:0x00000000  x4=0xfffffff0
       35515000	      3550	80000ccc	01ed9033	sll	x0,x27,x30	 x27:0x9f14c000 x30:0x80009f34
       35525000	      3551	80000cd0	010fde33	srl	x28,x31,x16	 x31:0x00000000 x16:0x00000007 x28=0x00000000
       35535000	      3552	80000cd4	40ad0e33	sub	x28,x26,x10	 x26:0x0000000b x10:0x43226000 x28=0xbcdda00b
       35545000	      3553	80000cd8	ffa80813	addi	x16,x16,-6	 x16:0x00000007 x16=0x00000001
       35555000	      3554	80000cdc	403901b3	sub	x3,x18,x3	 x18:0xa8382000  x3:0x00000001  x3=0xa8381fff
       35565000	      3555	80000ce0	002fbeb3	sltu	x29,x31,x2	 x31:0x00000000  x2:0xfffff8fc x29=0x00000001
       35575000	      3556	80000ce4	014c9533	sll	x10,x25,x20	 x25:0xff800001 x20:0xfffff8fe x10=0x40000000
       35585000	      3557	80000ce8	013a8fb3	add	x31,x21,x19	 x21:0x00000000 x19:0x692c5000 x31=0x692c5000
       35595000	      3558	80000cec	ff900d93	addi	x27,x0,-7	  x0:0x00000000 x27=0xfffffff9
       35605000	      3559	80000cf0	018d9a93	slli	x21,x27,0x18	 x27:0xfffffff9 x21=0xf9000000
       35615000	      3560	80000cf4	00d7f533	and	x10,x15,x13	 x15:0x00000000 x13:0x9f14c000 x10=0x00000000
       35625000	      3561	80000cf8	00500413	addi	x8,x0,5	  x0:0x00000000  x8=0x00000005
       35635000	      3562	80000cfc	4167dab3	sra	x21,x15,x22	 x15:0x00000000 x22:0xfffffff1 x21=0x00000000
       35645000	      3563	80000d00	40685e93	srai	x29,x16,0x6	 x16:0x00000001 x29=0x00000000
       35655000	      3564	80000d04	40e7d693	srai	x13,x15,0xe	 x15:0x00000000 x13=0x00000000
       35665000	      3565	80000d08	8283a793	slti	x15,x7,-2008	  x7:0xc85b1930 x15=0x00000001
       35675000	      3566	80000d0c	01305ab3	srl	x21,x0,x19	  x0:0x00000000 x19:0x692c5000 x21=0x00000000
       35685000	      3567	80000d10	52ecb613	sltiu	x12,x25,1326	 x25:0xff800001 x12=0x00000000
       35695000	      3568	80000d14	cc97b593	sltiu	x11,x15,-823	 x15:0x00000001 x11=0x00000001
       35705000	      3569	80000d18	003d8d93	addi	x27,x27,3	 x27:0xfffffff9 x27=0xfffffffc
       35715000	      3570	80000d1c	ebf8fc13	andi	x24,x17,-321	 x17:0x00000001 x24=0x00000001
       35725000	      3571	80000d20	4091d033	sra	x0,x3,x9	  x3:0xa8381fff  x9:0x9f14c17e
       35735000	      3572	80000d24	fe8d86e3	beq	x27,x8,80000d10	 x27:0xfffffffc  x8:0x00000005
       35745000	      3573	80000d28	00f10b33	add	x22,x2,x15	  x2:0xfffff8fc x15:0x00000001 x22=0xfffff8fd
       35755000	      3574	80000d2c	41860333	sub	x6,x12,x24	 x12:0x00000000 x24:0x00000001  x6=0xffffffff
       35765000	      3575	80000d30	fa4852e3	bge	x16,x4,80000cd4	 x16:0x00000001  x4:0xfffffff0
       35775000	      3576	00000000	00000013	addi	x0,x0,0	  x0:0x00000000
       35785000	      3577	80000cd0	00000013	addi	x0,x0,0	  x0:0x00000000
       35795000	      3578	80000cd4	40ad0e33	sub	x28,x26,x10	 x26:0x0000000b x10:0x00000000 x28=0x0000000b
       35805000	      3579	80000cd8	ffa80813	addi	x16,x16,-6	 x16:0x00000001 x16=0xfffffffb
       35815000	      3580	80000cdc	403901b3	sub	x3,x18,x3	 x18:0xa8382000  x3:0xa8381fff  x3=0x00000001
       35825000	      3581	80000ce0	002fbeb3	sltu	x29,x31,x2	 x31:0x692c5000  x2:0xfffff8fc x29=0x00000001
       35835000	      3582	80000ce4	014c9533	sll	x10,x25,x20	 x25:0xff800001 x20:0xfffff8fe x10=0x40000000
       35845000	      3583	80000ce8	013a8fb3	add	x31,x21,x19	 x21:0x00000000 x19:0x692c5000 x31=0x692c5000
       35855000	      3584	80000cec	ff900d93	addi	x27,x0,-7	  x0:0x00000000 x27=0xfffffff9
       35865000	      3585	80000cf0	018d9a93	slli	x21,x27,0x18	 x27:0xfffffff9 x21=0xf9000000
       35875000	      3586	80000cf4	00d7f533	and	x10,x15,x13	 x15:0x00000001 x13:0x00000000 x10=0x00000000
       35885000	      3587	80000cf8	00500413	addi	x8,x0,5	  x0:0x00000000  x8=0x00000005
       35895000	      3588	80000cfc	4167dab3	sra	x21,x15,x22	 x15:0x00000001 x22:0xfffff8fd x21=0x00000000
       35905000	      3589	80000d00	40685e93	srai	x29,x16,0x6	 x16:0xfffffffb x29=0xffffffff
       35915000	      3590	80000d04	40e7d693	srai	x13,x15,0xe	 x15:0x00000001 x13=0x00000000
       35925000	      3591	80000d08	8283a793	slti	x15,x7,-2008	  x7:0xc85b1930 x15=0x00000001
       35935000	      3592	80000d0c	01305ab3	srl	x21,x0,x19	  x0:0x00000000 x19:0x692c5000 x21=0x00000000
       35945000	      3593	80000d10	52ecb613	sltiu	x12,x25,1326	 x25:0xff800001 x12=0x00000000
       35955000	      3594	80000d14	cc97b593	sltiu	x11,x15,-823	 x15:0x00000001 x11=0x00000001
       35965000	      3595	80000d18	003d8d93	addi	x27,x27,3	 x27:0xfffffff9 x27=0xfffffffc
       35975000	      3596	80000d1c	ebf8fc13	andi	x24,x17,-321	 x17:0x00000001 x24=0x00000001
       35985000	      3597	80000d20	4091d033	sra	x0,x3,x9	  x3:0x00000001  x9:0x9f14c17e
       35995000	      3598	80000d24	fe8d86e3	beq	x27,x8,80000d10	 x27:0xfffffffc  x8:0x00000005
       36005000	      3599	80000d28	00f10b33	add	x22,x2,x15	  x2:0xfffff8fc x15:0x00000001 x22=0xfffff8fd
       36015000	      3600	80000d2c	41860333	sub	x6,x12,x24	 x12:0x00000000 x24:0x00000001  x6=0xffffffff
       36025000	      3601	80000d30	fa4852e3	bge	x16,x4,80000cd4	 x16:0xfffffffb  x4:0xfffffff0
       36035000	      3602	00000000	00000013	addi	x0,x0,0	  x0:0x00000000
       36045000	      3603	80000cd0	00000013	addi	x0,x0,0	  x0:0x00000000
       36055000	      3604	80000cd4	40ad0e33	sub	x28,x26,x10	 x26:0x0000000b x10:0x00000000 x28=0x0000000b
       36065000	      3605	80000cd8	ffa80813	addi	x16,x16,-6	 x16:0xfffffffb x16=0xfffffff5
       36075000	      3606	80000cdc	403901b3	sub	x3,x18,x3	 x18:0xa8382000  x3:0x00000001  x3=0xa8381fff
       36085000	      3607	80000ce0	002fbeb3	sltu	x29,x31,x2	 x31:0x692c5000  x2:0xfffff8fc x29=0x00000001
       36095000	      3608	80000ce4	014c9533	sll	x10,x25,x20	 x25:0xff800001 x20:0xfffff8fe x10=0x40000000
       36105000	      3609	80000ce8	013a8fb3	add	x31,x21,x19	 x21:0x00000000 x19:0x692c5000 x31=0x692c5000
       36115000	      3610	80000cec	ff900d93	addi	x27,x0,-7	  x0:0x00000000 x27=0xfffffff9
       36125000	      3611	80000cf0	018d9a93	slli	x21,x27,0x18	 x27:0xfffffff9 x21=0xf9000000
       36135000	      3612	80000cf4	00d7f533	and	x10,x15,x13	 x15:0x00000001 x13:0x00000000 x10=0x00000000
       36145000	      3613	80000cf8	00500413	addi	x8,x0,5	  x0:0x00000000  x8=0x00000005
       36155000	      3614	80000cfc	4167dab3	sra	x21,x15,x22	 x15:0x00000001 x22:0xfffff8fd x21=0x00000000
       36165000	      3615	80000d00	40685e93	srai	x29,x16,0x6	 x16:0xfffffff5 x29=0xffffffff
       36175000	      3616	80000d04	40e7d693	srai	x13,x15,0xe	 x15:0x00000001 x13=0x00000000
       36185000	      3617	80000d08	8283a793	slti	x15,x7,-2008	  x7:0xc85b1930 x15=0x00000001
       36195000	      3618	80000d0c	01305ab3	srl	x21,x0,x19	  x0:0x00000000 x19:0x692c5000 x21=0x00000000
       36205000	      3619	80000d10	52ecb613	sltiu	x12,x25,1326	 x25:0xff800001 x12=0x00000000
       36215000	      3620	80000d14	cc97b593	sltiu	x11,x15,-823	 x15:0x00000001 x11=0x00000001
       36225000	      3621	80000d18	003d8d93	addi	x27,x27,3	 x27:0xfffffff9 x27=0xfffffffc
       36235000	      3622	80000d1c	ebf8fc13	andi	x24,x17,-321	 x17:0x00000001 x24=0x00000001
       36245000	      3623	80000d20	4091d033	sra	x0,x3,x9	  x3:0xa8381fff  x9:0x9f14c17e
       36255000	      3624	80000d24	fe8d86e3	beq	x27,x8,80000d10	 x27:0xfffffffc  x8:0x00000005
       36265000	      3625	80000d28	00f10b33	add	x22,x2,x15	  x2:0xfffff8fc x15:0x00000001 x22=0xfffff8fd
       36275000	      3626	80000d2c	41860333	sub	x6,x12,x24	 x12:0x00000000 x24:0x00000001  x6=0xffffffff
       36285000	      3627	80000d30	fa4852e3	bge	x16,x4,80000cd4	 x16:0xfffffff5  x4:0xfffffff0
       36295000	      3628	00000000	00000013	addi	x0,x0,0	  x0:0x00000000
       36305000	      3629	80000cd0	00000013	addi	x0,x0,0	  x0:0x00000000
       36315000	      3630	80000cd4	40ad0e33	sub	x28,x26,x10	 x26:0x0000000b x10:0x00000000 x28=0x0000000b
       36325000	      3631	80000cd8	ffa80813	addi	x16,x16,-6	 x16:0xfffffff5 x16=0xffffffef
       36335000	      3632	80000cdc	403901b3	sub	x3,x18,x3	 x18:0xa8382000  x3:0xa8381fff  x3=0x00000001
       36345000	      3633	80000ce0	002fbeb3	sltu	x29,x31,x2	 x31:0x692c5000  x2:0xfffff8fc x29=0x00000001
       36355000	      3634	80000ce4	014c9533	sll	x10,x25,x20	 x25:0xff800001 x20:0xfffff8fe x10=0x40000000
       36365000	      3635	80000ce8	013a8fb3	add	x31,x21,x19	 x21:0x00000000 x19:0x692c5000 x31=0x692c5000
       36375000	      3636	80000cec	ff900d93	addi	x27,x0,-7	  x0:0x00000000 x27=0xfffffff9
       36385000	      3637	80000cf0	018d9a93	slli	x21,x27,0x18	 x27:0xfffffff9 x21=0xf9000000
       36395000	      3638	80000cf4	00d7f533	and	x10,x15,x13	 x15:0x00000001 x13:0x00000000 x10=0x00000000
       36405000	      3639	80000cf8	00500413	addi	x8,x0,5	  x0:0x00000000  x8=0x00000005
       36415000	      3640	80000cfc	4167dab3	sra	x21,x15,x22	 x15:0x00000001 x22:0xfffff8fd x21=0x00000000
       36425000	      3641	80000d00	40685e93	srai	x29,x16,0x6	 x16:0xffffffef x29=0xffffffff
       36435000	      3642	80000d04	40e7d693	srai	x13,x15,0xe	 x15:0x00000001 x13=0x00000000
       36445000	      3643	80000d08	8283a793	slti	x15,x7,-2008	  x7:0xc85b1930 x15=0x00000001
       36455000	      3644	80000d0c	01305ab3	srl	x21,x0,x19	  x0:0x00000000 x19:0x692c5000 x21=0x00000000
       36465000	      3645	80000d10	52ecb613	sltiu	x12,x25,1326	 x25:0xff800001 x12=0x00000000
       36475000	      3646	80000d14	cc97b593	sltiu	x11,x15,-823	 x15:0x00000001 x11=0x00000001
       36485000	      3647	80000d18	003d8d93	addi	x27,x27,3	 x27:0xfffffff9 x27=0xfffffffc
       36495000	      3648	80000d1c	ebf8fc13	andi	x24,x17,-321	 x17:0x00000001 x24=0x00000001
       36505000	      3649	80000d20	4091d033	sra	x0,x3,x9	  x3:0x00000001  x9:0x9f14c17e
       36515000	      3650	80000d24	fe8d86e3	beq	x27,x8,80000d10	 x27:0xfffffffc  x8:0x00000005
       36525000	      3651	80000d28	00f10b33	add	x22,x2,x15	  x2:0xfffff8fc x15:0x00000001 x22=0xfffff8fd
       36535000	      3652	80000d2c	41860333	sub	x6,x12,x24	 x12:0x00000000 x24:0x00000001  x6=0xffffffff
       36545000	      3653	80000d30	fa4852e3	bge	x16,x4,80000cd4	 x16:0xffffffef  x4:0xfffffff0
       36555000	      3654	80000d34	000934b3	sltu	x9,x18,x0	 x18:0xa8382000  x0:0x00000000  x9=0x00000000
       36565000	      3655	80000d38	00800813	addi	x16,x0,8	  x0:0x00000000 x16=0x00000008
       36575000	      3656	80000d3c	010478b3	and	x17,x8,x16	  x8:0x00000005 x16:0x00000008 x17=0x00000000
       36585000	      3657	80000d40	0141f3b3	and	x7,x3,x20	  x3:0x00000001 x20:0xfffff8fe  x7=0x00000000
       36595000	      3658	80000d44	0011f3b3	and	x7,x3,x1	  x3:0x00000001  x1:0xea808000  x7=0x00000000
       36605000	      3659	80000d48	01000113	addi	x2,x0,16	  x0:0x00000000  x2=0x00000010
       36615000	      3660	80000d4c	00000013	addi	x0,x0,0	  x0:0x00000000
       36625000	      3661	80000d50	82b03393	sltiu	x7,x0,-2005	  x0:0x00000000  x7=0x00000001
       36635000	      3662	80000d54	0081f7b3	and	x15,x3,x8	  x3:0x00000001  x8:0x00000005 x15=0x00000001
       36645000	      3663	80000d58	d9afb413	sltiu	x8,x31,-614	 x31:0x692c5000  x8=0x00000001
       36655000	      3664	80000d5c	c004c013	xori	x0,x9,-1024	  x9:0x00000000
       36665000	      3665	80000d60	00354333	xor	x6,x10,x3	 x10:0x00000000  x3:0x00000001  x6=0x00000001
       36675000	      3666	80000d64	9cbe8913	addi	x18,x29,-1589	 x29:0xffffffff x18=0xfffff9ca
       36685000	      3667	80000d68	015214b3	sll	x9,x4,x21	  x4:0xfffffff0 x21:0x00000000  x9=0xfffffff0
       36695000	      3668	80000d6c	00480813	addi	x16,x16,4	 x16:0x00000008 x16=0x0000000c
       36705000	      3669	80000d70	b55289b7	lui	x19,0xb5528	 x19=0xb5528000
       36715000	      3670	80000d74	400fd433	sra	x8,x31,x0	 x31:0x692c5000  x0:0x00000000  x8=0x692c5000
       36725000	      3671	80000d78	00b71393	slli	x7,x14,0xb	 x14:0x80009fc4  x7=0x04fe2000
       36735000	      3672	80000d7c	40d7d4b3	sra	x9,x15,x13	 x15:0x00000001 x13:0x00000000  x9=0x00000001
       36745000	      3673	80000d80	00409293	slli	x5,x1,0x4	  x1:0xea808000  x5=0xa8080000
       36755000	      3674	80000d84	0014acb3	slt	x25,x9,x1	  x9:0x00000001  x1:0xea808000 x25=0x00000000
       36765000	      3675	80000d88	012267b3	or	x15,x4,x18	  x4:0xfffffff0 x18:0xfffff9ca x15=0xfffffffa
       36775000	      3676	80000d8c	fc2816e3	bne	x16,x2,80000d58	 x16:0x0000000c  x2:0x00000010
       36785000	      3677	00000000	00000013	addi	x0,x0,0	  x0:0x00000000
       36795000	      3678	80000d54	00000013	addi	x0,x0,0	  x0:0x00000000
       36805000	      3679	80000d58	d9afb413	sltiu	x8,x31,-614	 x31:0x692c5000  x8=0x00000001
       36815000	      3680	80000d5c	c004c013	xori	x0,x9,-1024	  x9:0x00000001
       36825000	      3681	80000d60	00354333	xor	x6,x10,x3	 x10:0x00000000  x3:0x00000001  x6=0x00000001
       36835000	      3682	80000d64	9cbe8913	addi	x18,x29,-1589	 x29:0xffffffff x18=0xfffff9ca
       36845000	      3683	80000d68	015214b3	sll	x9,x4,x21	  x4:0xfffffff0 x21:0x00000000  x9=0xfffffff0
       36855000	      3684	80000d6c	00480813	addi	x16,x16,4	 x16:0x0000000c x16=0x00000010
       36865000	      3685	80000d70	b55289b7	lui	x19,0xb5528	 x19=0xb5528000
       36875000	      3686	80000d74	400fd433	sra	x8,x31,x0	 x31:0x692c5000  x0:0x00000000  x8=0x692c5000
       36885000	      3687	80000d78	00b71393	slli	x7,x14,0xb	 x14:0x80009fc4  x7=0x04fe2000
       36895000	      3688	80000d7c	40d7d4b3	sra	x9,x15,x13	 x15:0xfffffffa x13:0x00000000  x9=0xfffffffa
       36905000	      3689	80000d80	00409293	slli	x5,x1,0x4	  x1:0xea808000  x5=0xa8080000
       36915000	      3690	80000d84	0014acb3	slt	x25,x9,x1	  x9:0xfffffffa  x1:0xea808000 x25=0x00000000
       36925000	      3691	80000d88	012267b3	or	x15,x4,x18	  x4:0xfffffff0 x18:0xfffff9ca x15=0xfffffffa
       36935000	      3692	80000d8c	fc2816e3	bne	x16,x2,80000d58	 x16:0x00000010  x2:0x00000010
       36945000	      3693	80000d90	0181aab3	slt	x21,x3,x24	  x3:0x00000001 x24:0x00000001 x21=0x00000000
       36955000	      3694	80000d94	00600093	addi	x1,x0,6	  x0:0x00000000  x1=0x00000006
       36965000	      3695	80000d98	01242333	slt	x6,x8,x18	  x8:0x692c5000 x18:0xfffff9ca  x6=0x00000000
       36975000	      3696	80000d9c	01125193	srli	x3,x4,0x11	  x4:0xfffffff0  x3=0x00007fff
       36985000	      3697	80000da0	017d1693	slli	x13,x26,0x17	 x26:0x0000000b x13=0x05800000
       36995000	      3698	80000da4	00c09893	slli	x17,x1,0xc	  x1:0x00000006 x17=0x00006000
       37005000	      3699	80000da8	71b8f693	andi	x13,x17,1819	 x17:0x00006000 x13=0x00000000
       37015000	      3700	80000dac	a61c0193	addi	x3,x24,-1439	 x24:0x00000001  x3=0xfffffa62
       37025000	      3701	80000db0	00000013	addi	x0,x0,0	  x0:0x00000000
       37035000	      3702	80000db4	0041a833	slt	x16,x3,x4	  x3:0xfffffa62  x4:0xfffffff0 x16=0x00000001
       37045000	      3703	80000db8	ff800113	addi	x2,x0,-8	  x0:0x00000000  x2=0xfffffff8
       37055000	      3704	80000dbc	3d033613	sltiu	x12,x6,976	  x6:0x00000000 x12=0x00000001
       37065000	      3705	80000dc0	ef246813	ori	x16,x8,-270	  x8:0x692c5000 x16=0xfffffef2
       37075000	      3706	80000dc4	ffe08093	addi	x1,x1,-2	  x1:0x00000006  x1=0x00000004
       37085000	      3707	80000dc8	414e5eb3	sra	x29,x28,x20	 x28:0x0000000b x20:0xfffff8fe x29=0x00000000
       37095000	      3708	80000dcc	ab2d7a13	andi	x20,x26,-1358	 x26:0x0000000b x20=0x00000002
       37105000	      3709	80000dd0	31654393	xori	x7,x10,790	 x10:0x00000000  x7=0x00000316
       37115000	      3710	80000dd4	00a00413	addi	x8,x0,10	  x0:0x00000000  x8=0x0000000a
       37125000	      3711	80000dd8	414f5193	srai	x3,x30,0x14	 x30:0x80009f34  x3=0xfffff800
       37135000	      3712	80000ddc	00c31f93	slli	x31,x6,0xc	  x6:0x00000000 x31=0x00000000
       37145000	      3713	80000de0	1f316393	ori	x7,x2,499	  x2:0xfffffff8  x7=0xfffffffb
       37155000	      3714	80000de4	5ec67793	andi	x15,x12,1516	 x12:0x00000001 x15=0x00000000
       37165000	      3715	80000de8	4079d8b3	sra	x17,x19,x7	 x19:0xb5528000  x7:0xfffffffb x17=0xfffffff6
       37175000	      3716	80000dec	00800293	addi	x5,x0,8	  x0:0x00000000  x5=0x00000008
       37185000	      3717	80000df0	41c2d833	sra	x16,x5,x28	  x5:0x00000008 x28:0x0000000b x16=0x00000000
       37195000	      3718	80000df4	004c0033	add	x0,x24,x4	 x24:0x00000001  x4:0xfffffff0
       37205000	      3719	80000df8	00dc9193	slli	x3,x25,0xd	 x25:0x00000000  x3=0x00000000
       37215000	      3720	80000dfc	ff940413	addi	x8,x8,-7	  x8:0x0000000a  x8=0x00000003
       37225000	      3721	80000e00	010b9f93	slli	x31,x23,0x10	 x23:0xfffffec5 x31=0xfec50000
       37235000	      3722	80000e04	fe5478e3	bgeu	x8,x5,80000df4	  x8:0x00000003  x5:0x00000008
       37245000	      3723	80000e08	099c1197	auipc	x3,0x99c1	  x3=0x899c1e04
       37255000	      3724	80000e0c	fa20dae3	bge	x1,x2,80000dc0	  x1:0x00000004  x2:0xfffffff8
       37265000	      3725	00000000	00000013	addi	x0,x0,0	  x0:0x00000000
       37275000	      3726	80000dbc	00000013	addi	x0,x0,0	  x0:0x00000000
       37285000	      3727	80000dc0	ef246813	ori	x16,x8,-270	  x8:0x00000003 x16=0xfffffef3
       37295000	      3728	80000dc4	ffe08093	addi	x1,x1,-2	  x1:0x00000004  x1=0x00000002
       37305000	      3729	80000dc8	414e5eb3	sra	x29,x28,x20	 x28:0x0000000b x20:0x00000002 x29=0x00000002
       37315000	      3730	80000dcc	ab2d7a13	andi	x20,x26,-1358	 x26:0x0000000b x20=0x00000002
       37325000	      3731	80000dd0	31654393	xori	x7,x10,790	 x10:0x00000000  x7=0x00000316
       37335000	      3732	80000dd4	00a00413	addi	x8,x0,10	  x0:0x00000000  x8=0x0000000a
       37345000	      3733	80000dd8	414f5193	srai	x3,x30,0x14	 x30:0x80009f34  x3=0xfffff800
       37355000	      3734	80000ddc	00c31f93	slli	x31,x6,0xc	  x6:0x00000000 x31=0x00000000
       37365000	      3735	80000de0	1f316393	ori	x7,x2,499	  x2:0xfffffff8  x7=0xfffffffb
       37375000	      3736	80000de4	5ec67793	andi	x15,x12,1516	 x12:0x00000001 x15=0x00000000
       37385000	      3737	80000de8	4079d8b3	sra	x17,x19,x7	 x19:0xb5528000  x7:0xfffffffb x17=0xfffffff6
       37395000	      3738	80000dec	00800293	addi	x5,x0,8	  x0:0x00000000  x5=0x00000008
       37405000	      3739	80000df0	41c2d833	sra	x16,x5,x28	  x5:0x00000008 x28:0x0000000b x16=0x00000000
       37415000	      3740	80000df4	004c0033	add	x0,x24,x4	 x24:0x00000001  x4:0xfffffff0
       37425000	      3741	80000df8	00dc9193	slli	x3,x25,0xd	 x25:0x00000000  x3=0x00000000
       37435000	      3742	80000dfc	ff940413	addi	x8,x8,-7	  x8:0x0000000a  x8=0x00000003
       37445000	      3743	80000e00	010b9f93	slli	x31,x23,0x10	 x23:0xfffffec5 x31=0xfec50000
       37455000	      3744	80000e04	fe5478e3	bgeu	x8,x5,80000df4	  x8:0x00000003  x5:0x00000008
       37465000	      3745	80000e08	099c1197	auipc	x3,0x99c1	  x3=0x899c1e04
       37475000	      3746	80000e0c	fa20dae3	bge	x1,x2,80000dc0	  x1:0x00000002  x2:0xfffffff8
       37485000	      3747	00000000	00000013	addi	x0,x0,0	  x0:0x00000000
       37495000	      3748	80000dbc	00000013	addi	x0,x0,0	  x0:0x00000000
       37505000	      3749	80000dc0	ef246813	ori	x16,x8,-270	  x8:0x00000003 x16=0xfffffef3
       37515000	      3750	80000dc4	ffe08093	addi	x1,x1,-2	  x1:0x00000002  x1=0x00000000
       37525000	      3751	80000dc8	414e5eb3	sra	x29,x28,x20	 x28:0x0000000b x20:0x00000002 x29=0x00000002
       37535000	      3752	80000dcc	ab2d7a13	andi	x20,x26,-1358	 x26:0x0000000b x20=0x00000002
       37545000	      3753	80000dd0	31654393	xori	x7,x10,790	 x10:0x00000000  x7=0x00000316
       37555000	      3754	80000dd4	00a00413	addi	x8,x0,10	  x0:0x00000000  x8=0x0000000a
       37565000	      3755	80000dd8	414f5193	srai	x3,x30,0x14	 x30:0x80009f34  x3=0xfffff800
       37575000	      3756	80000ddc	00c31f93	slli	x31,x6,0xc	  x6:0x00000000 x31=0x00000000
       37585000	      3757	80000de0	1f316393	ori	x7,x2,499	  x2:0xfffffff8  x7=0xfffffffb
       37595000	      3758	80000de4	5ec67793	andi	x15,x12,1516	 x12:0x00000001 x15=0x00000000
       37605000	      3759	80000de8	4079d8b3	sra	x17,x19,x7	 x19:0xb5528000  x7:0xfffffffb x17=0xfffffff6
       37615000	      3760	80000dec	00800293	addi	x5,x0,8	  x0:0x00000000  x5=0x00000008
       37625000	      3761	80000df0	41c2d833	sra	x16,x5,x28	  x5:0x00000008 x28:0x0000000b x16=0x00000000
       37635000	      3762	80000df4	004c0033	add	x0,x24,x4	 x24:0x00000001  x4:0xfffffff0
       37645000	      3763	80000df8	00dc9193	slli	x3,x25,0xd	 x25:0x00000000  x3=0x00000000
       37655000	      3764	80000dfc	ff940413	addi	x8,x8,-7	  x8:0x0000000a  x8=0x00000003
       37665000	      3765	80000e00	010b9f93	slli	x31,x23,0x10	 x23:0xfffffec5 x31=0xfec50000
       37675000	      3766	80000e04	fe5478e3	bgeu	x8,x5,80000df4	  x8:0x00000003  x5:0x00000008
       37685000	      3767	80000e08	099c1197	auipc	x3,0x99c1	  x3=0x899c1e04
       37695000	      3768	80000e0c	fa20dae3	bge	x1,x2,80000dc0	  x1:0x00000000  x2:0xfffffff8
       37705000	      3769	00000000	00000013	addi	x0,x0,0	  x0:0x00000000
       37715000	      3770	80000dbc	00000013	addi	x0,x0,0	  x0:0x00000000
       37725000	      3771	80000dc0	ef246813	ori	x16,x8,-270	  x8:0x00000003 x16=0xfffffef3
       37735000	      3772	80000dc4	ffe08093	addi	x1,x1,-2	  x1:0x00000000  x1=0xfffffffe
       37745000	      3773	80000dc8	414e5eb3	sra	x29,x28,x20	 x28:0x0000000b x20:0x00000002 x29=0x00000002
       37755000	      3774	80000dcc	ab2d7a13	andi	x20,x26,-1358	 x26:0x0000000b x20=0x00000002
       37765000	      3775	80000dd0	31654393	xori	x7,x10,790	 x10:0x00000000  x7=0x00000316
       37775000	      3776	80000dd4	00a00413	addi	x8,x0,10	  x0:0x00000000  x8=0x0000000a
       37785000	      3777	80000dd8	414f5193	srai	x3,x30,0x14	 x30:0x80009f34  x3=0xfffff800
       37795000	      3778	80000ddc	00c31f93	slli	x31,x6,0xc	  x6:0x00000000 x31=0x00000000
       37805000	      3779	80000de0	1f316393	ori	x7,x2,499	  x2:0xfffffff8  x7=0xfffffffb
       37815000	      3780	80000de4	5ec67793	andi	x15,x12,1516	 x12:0x00000001 x15=0x00000000
       37825000	      3781	80000de8	4079d8b3	sra	x17,x19,x7	 x19:0xb5528000  x7:0xfffffffb x17=0xfffffff6
       37835000	      3782	80000dec	00800293	addi	x5,x0,8	  x0:0x00000000  x5=0x00000008
       37845000	      3783	80000df0	41c2d833	sra	x16,x5,x28	  x5:0x00000008 x28:0x0000000b x16=0x00000000
       37855000	      3784	80000df4	004c0033	add	x0,x24,x4	 x24:0x00000001  x4:0xfffffff0
       37865000	      3785	80000df8	00dc9193	slli	x3,x25,0xd	 x25:0x00000000  x3=0x00000000
       37875000	      3786	80000dfc	ff940413	addi	x8,x8,-7	  x8:0x0000000a  x8=0x00000003
       37885000	      3787	80000e00	010b9f93	slli	x31,x23,0x10	 x23:0xfffffec5 x31=0xfec50000
       37895000	      3788	80000e04	fe5478e3	bgeu	x8,x5,80000df4	  x8:0x00000003  x5:0x00000008
       37905000	      3789	80000e08	099c1197	auipc	x3,0x99c1	  x3=0x899c1e04
       37915000	      3790	80000e0c	fa20dae3	bge	x1,x2,80000dc0	  x1:0xfffffffe  x2:0xfffffff8
       37925000	      3791	00000000	00000013	addi	x0,x0,0	  x0:0x00000000
       37935000	      3792	80000dbc	00000013	addi	x0,x0,0	  x0:0x00000000
       37945000	      3793	80000dc0	ef246813	ori	x16,x8,-270	  x8:0x00000003 x16=0xfffffef3
       37955000	      3794	80000dc4	ffe08093	addi	x1,x1,-2	  x1:0xfffffffe  x1=0xfffffffc
       37965000	      3795	80000dc8	414e5eb3	sra	x29,x28,x20	 x28:0x0000000b x20:0x00000002 x29=0x00000002
       37975000	      3796	80000dcc	ab2d7a13	andi	x20,x26,-1358	 x26:0x0000000b x20=0x00000002
       37985000	      3797	80000dd0	31654393	xori	x7,x10,790	 x10:0x00000000  x7=0x00000316
       37995000	      3798	80000dd4	00a00413	addi	x8,x0,10	  x0:0x00000000  x8=0x0000000a
       38005000	      3799	80000dd8	414f5193	srai	x3,x30,0x14	 x30:0x80009f34  x3=0xfffff800
       38015000	      3800	80000ddc	00c31f93	slli	x31,x6,0xc	  x6:0x00000000 x31=0x00000000
       38025000	      3801	80000de0	1f316393	ori	x7,x2,499	  x2:0xfffffff8  x7=0xfffffffb
       38035000	      3802	80000de4	5ec67793	andi	x15,x12,1516	 x12:0x00000001 x15=0x00000000
       38045000	      3803	80000de8	4079d8b3	sra	x17,x19,x7	 x19:0xb5528000  x7:0xfffffffb x17=0xfffffff6
       38055000	      3804	80000dec	00800293	addi	x5,x0,8	  x0:0x00000000  x5=0x00000008
       38065000	      3805	80000df0	41c2d833	sra	x16,x5,x28	  x5:0x00000008 x28:0x0000000b x16=0x00000000
       38075000	      3806	80000df4	004c0033	add	x0,x24,x4	 x24:0x00000001  x4:0xfffffff0
       38085000	      3807	80000df8	00dc9193	slli	x3,x25,0xd	 x25:0x00000000  x3=0x00000000
       38095000	      3808	80000dfc	ff940413	addi	x8,x8,-7	  x8:0x0000000a  x8=0x00000003
       38105000	      3809	80000e00	010b9f93	slli	x31,x23,0x10	 x23:0xfffffec5 x31=0xfec50000
       38115000	      3810	80000e04	fe5478e3	bgeu	x8,x5,80000df4	  x8:0x00000003  x5:0x00000008
       38125000	      3811	80000e08	099c1197	auipc	x3,0x99c1	  x3=0x899c1e04
       38135000	      3812	80000e0c	fa20dae3	bge	x1,x2,80000dc0	  x1:0xfffffffc  x2:0xfffffff8
       38145000	      3813	00000000	00000013	addi	x0,x0,0	  x0:0x00000000
       38155000	      3814	80000dbc	00000013	addi	x0,x0,0	  x0:0x00000000
       38165000	      3815	80000dc0	ef246813	ori	x16,x8,-270	  x8:0x00000003 x16=0xfffffef3
       38175000	      3816	80000dc4	ffe08093	addi	x1,x1,-2	  x1:0xfffffffc  x1=0xfffffffa
       38185000	      3817	80000dc8	414e5eb3	sra	x29,x28,x20	 x28:0x0000000b x20:0x00000002 x29=0x00000002
       38195000	      3818	80000dcc	ab2d7a13	andi	x20,x26,-1358	 x26:0x0000000b x20=0x00000002
       38205000	      3819	80000dd0	31654393	xori	x7,x10,790	 x10:0x00000000  x7=0x00000316
       38215000	      3820	80000dd4	00a00413	addi	x8,x0,10	  x0:0x00000000  x8=0x0000000a
       38225000	      3821	80000dd8	414f5193	srai	x3,x30,0x14	 x30:0x80009f34  x3=0xfffff800
       38235000	      3822	80000ddc	00c31f93	slli	x31,x6,0xc	  x6:0x00000000 x31=0x00000000
       38245000	      3823	80000de0	1f316393	ori	x7,x2,499	  x2:0xfffffff8  x7=0xfffffffb
       38255000	      3824	80000de4	5ec67793	andi	x15,x12,1516	 x12:0x00000001 x15=0x00000000
       38265000	      3825	80000de8	4079d8b3	sra	x17,x19,x7	 x19:0xb5528000  x7:0xfffffffb x17=0xfffffff6
       38275000	      3826	80000dec	00800293	addi	x5,x0,8	  x0:0x00000000  x5=0x00000008
       38285000	      3827	80000df0	41c2d833	sra	x16,x5,x28	  x5:0x00000008 x28:0x0000000b x16=0x00000000
       38295000	      3828	80000df4	004c0033	add	x0,x24,x4	 x24:0x00000001  x4:0xfffffff0
       38305000	      3829	80000df8	00dc9193	slli	x3,x25,0xd	 x25:0x00000000  x3=0x00000000
       38315000	      3830	80000dfc	ff940413	addi	x8,x8,-7	  x8:0x0000000a  x8=0x00000003
       38325000	      3831	80000e00	010b9f93	slli	x31,x23,0x10	 x23:0xfffffec5 x31=0xfec50000
       38335000	      3832	80000e04	fe5478e3	bgeu	x8,x5,80000df4	  x8:0x00000003  x5:0x00000008
       38345000	      3833	80000e08	099c1197	auipc	x3,0x99c1	  x3=0x899c1e04
       38355000	      3834	80000e0c	fa20dae3	bge	x1,x2,80000dc0	  x1:0xfffffffa  x2:0xfffffff8
       38365000	      3835	00000000	00000013	addi	x0,x0,0	  x0:0x00000000
       38375000	      3836	80000dbc	00000013	addi	x0,x0,0	  x0:0x00000000
       38385000	      3837	80000dc0	ef246813	ori	x16,x8,-270	  x8:0x00000003 x16=0xfffffef3
       38395000	      3838	80000dc4	ffe08093	addi	x1,x1,-2	  x1:0xfffffffa  x1=0xfffffff8
       38405000	      3839	80000dc8	414e5eb3	sra	x29,x28,x20	 x28:0x0000000b x20:0x00000002 x29=0x00000002
       38415000	      3840	80000dcc	ab2d7a13	andi	x20,x26,-1358	 x26:0x0000000b x20=0x00000002
       38425000	      3841	80000dd0	31654393	xori	x7,x10,790	 x10:0x00000000  x7=0x00000316
       38435000	      3842	80000dd4	00a00413	addi	x8,x0,10	  x0:0x00000000  x8=0x0000000a
       38445000	      3843	80000dd8	414f5193	srai	x3,x30,0x14	 x30:0x80009f34  x3=0xfffff800
       38455000	      3844	80000ddc	00c31f93	slli	x31,x6,0xc	  x6:0x00000000 x31=0x00000000
       38465000	      3845	80000de0	1f316393	ori	x7,x2,499	  x2:0xfffffff8  x7=0xfffffffb
       38475000	      3846	80000de4	5ec67793	andi	x15,x12,1516	 x12:0x00000001 x15=0x00000000
       38485000	      3847	80000de8	4079d8b3	sra	x17,x19,x7	 x19:0xb5528000  x7:0xfffffffb x17=0xfffffff6
       38495000	      3848	80000dec	00800293	addi	x5,x0,8	  x0:0x00000000  x5=0x00000008
       38505000	      3849	80000df0	41c2d833	sra	x16,x5,x28	  x5:0x00000008 x28:0x0000000b x16=0x00000000
       38515000	      3850	80000df4	004c0033	add	x0,x24,x4	 x24:0x00000001  x4:0xfffffff0
       38525000	      3851	80000df8	00dc9193	slli	x3,x25,0xd	 x25:0x00000000  x3=0x00000000
       38535000	      3852	80000dfc	ff940413	addi	x8,x8,-7	  x8:0x0000000a  x8=0x00000003
       38545000	      3853	80000e00	010b9f93	slli	x31,x23,0x10	 x23:0xfffffec5 x31=0xfec50000
       38555000	      3854	80000e04	fe5478e3	bgeu	x8,x5,80000df4	  x8:0x00000003  x5:0x00000008
       38565000	      3855	80000e08	099c1197	auipc	x3,0x99c1	  x3=0x899c1e04
       38575000	      3856	80000e0c	fa20dae3	bge	x1,x2,80000dc0	  x1:0xfffffff8  x2:0xfffffff8
       38585000	      3857	00000000	00000013	addi	x0,x0,0	  x0:0x00000000
       38595000	      3858	80000dbc	00000013	addi	x0,x0,0	  x0:0x00000000
       38605000	      3859	80000dc0	ef246813	ori	x16,x8,-270	  x8:0x00000003 x16=0xfffffef3
       38615000	      3860	80000dc4	ffe08093	addi	x1,x1,-2	  x1:0xfffffff8  x1=0xfffffff6
       38625000	      3861	80000dc8	414e5eb3	sra	x29,x28,x20	 x28:0x0000000b x20:0x00000002 x29=0x00000002
       38635000	      3862	80000dcc	ab2d7a13	andi	x20,x26,-1358	 x26:0x0000000b x20=0x00000002
       38645000	      3863	80000dd0	31654393	xori	x7,x10,790	 x10:0x00000000  x7=0x00000316
       38655000	      3864	80000dd4	00a00413	addi	x8,x0,10	  x0:0x00000000  x8=0x0000000a
       38665000	      3865	80000dd8	414f5193	srai	x3,x30,0x14	 x30:0x80009f34  x3=0xfffff800
       38675000	      3866	80000ddc	00c31f93	slli	x31,x6,0xc	  x6:0x00000000 x31=0x00000000
       38685000	      3867	80000de0	1f316393	ori	x7,x2,499	  x2:0xfffffff8  x7=0xfffffffb
       38695000	      3868	80000de4	5ec67793	andi	x15,x12,1516	 x12:0x00000001 x15=0x00000000
       38705000	      3869	80000de8	4079d8b3	sra	x17,x19,x7	 x19:0xb5528000  x7:0xfffffffb x17=0xfffffff6
       38715000	      3870	80000dec	00800293	addi	x5,x0,8	  x0:0x00000000  x5=0x00000008
       38725000	      3871	80000df0	41c2d833	sra	x16,x5,x28	  x5:0x00000008 x28:0x0000000b x16=0x00000000
       38735000	      3872	80000df4	004c0033	add	x0,x24,x4	 x24:0x00000001  x4:0xfffffff0
       38745000	      3873	80000df8	00dc9193	slli	x3,x25,0xd	 x25:0x00000000  x3=0x00000000
       38755000	      3874	80000dfc	ff940413	addi	x8,x8,-7	  x8:0x0000000a  x8=0x00000003
       38765000	      3875	80000e00	010b9f93	slli	x31,x23,0x10	 x23:0xfffffec5 x31=0xfec50000
       38775000	      3876	80000e04	fe5478e3	bgeu	x8,x5,80000df4	  x8:0x00000003  x5:0x00000008
       38785000	      3877	80000e08	099c1197	auipc	x3,0x99c1	  x3=0x899c1e04
       38795000	      3878	80000e0c	fa20dae3	bge	x1,x2,80000dc0	  x1:0xfffffff6  x2:0xfffffff8
       38805000	      3879	80000e10	00c98e33	add	x28,x19,x12	 x19:0xb5528000 x12:0x00000001 x28=0xb5528001
       38815000	      3880	80000e14	ff800e13	addi	x28,x0,-8	  x0:0x00000000 x28=0xfffffff8
       38825000	      3881	80000e18	01df58b3	srl	x17,x30,x29	 x30:0x80009f34 x29:0x00000002 x17=0x200027cd
       38835000	      3882	80000e1c	01caa9b3	slt	x19,x21,x28	 x21:0x00000000 x28:0xfffffff8 x19=0x00000000
       38845000	      3883	80000e20	0c982313	slti	x6,x16,201	 x16:0x00000000  x6=0x00000001
       38855000	      3884	80000e24	00400c93	addi	x25,x0,4	  x0:0x00000000 x25=0x00000004
       38865000	      3885	80000e28	003a11b3	sll	x3,x20,x3	 x20:0x00000002  x3:0x899c1e04  x3=0x00000020
       38875000	      3886	80000e2c	4d18ff93	andi	x31,x17,1233	 x17:0x200027cd x31=0x000004c1
       38885000	      3887	80000e30	dd43eb13	ori	x22,x7,-556	  x7:0xfffffffb x22=0xffffffff
       38895000	      3888	80000e34	006e0e13	addi	x28,x28,6	 x28:0xfffffff8 x28=0xfffffffe
       38905000	      3889	80000e38	01149a13	slli	x20,x9,0x11	  x9:0xfffffffa x20=0xfff40000
       38915000	      3890	80000e3c	40a408b3	sub	x17,x8,x10	  x8:0x00000003 x10:0x00000000 x17=0x00000003
       38925000	      3891	80000e40	00a00693	addi	x13,x0,10	  x0:0x00000000 x13=0x0000000a
       38935000	      3892	80000e44	4129db13	srai	x22,x19,0x12	 x19:0x00000000 x22=0x00000000
       38945000	      3893	80000e48	00a00e93	addi	x29,x0,10	  x0:0x00000000 x29=0x0000000a
       38955000	      3894	80000e4c	00e825b3	slt	x11,x16,x14	 x16:0x00000000 x14:0x80009fc4 x11=0x00000000
       38965000	      3895	80000e50	da924493	xori	x9,x4,-599	  x4:0xfffffff0  x9=0x00000259
       38975000	      3896	80000e54	3d33b893	sltiu	x17,x7,979	  x7:0xfffffffb x17=0x00000000
       38985000	      3897	80000e58	ffb68693	addi	x13,x13,-5	 x13:0x0000000a x13=0x00000005
       38995000	      3898	80000e5c	009b9c13	slli	x24,x23,0x9	 x23:0xfffffec5 x24=0xfffd8a00
       39005000	      3899	80000e60	4b37d637	lui	x12,0x4b37d	 x12=0x4b37d000
       39015000	      3900	80000e64	01075133	srl	x2,x14,x16	 x14:0x80009fc4 x16:0x00000000  x2=0x80009fc4
       39025000	      3901	80000e68	01627833	and	x16,x4,x22	  x4:0xfffffff0 x22:0x00000000 x16=0x00000000
       39035000	      3902	80000e6c	ffd6f0e3	bgeu	x13,x29,80000e4c	 x13:0x00000005 x29:0x0000000a
       39045000	      3903	80000e70	c928aa13	slti	x20,x17,-878	 x17:0x00000000 x20=0x00000000
       39055000	      3904	80000e74	836fc193	xori	x3,x31,-1994	 x31:0x000004c1  x3=0xfffffcf7
       39065000	      3905	80000e78	e231b213	sltiu	x4,x3,-477	  x3:0xfffffcf7  x4=0x00000001
       39075000	      3906	80000e7c	01449093	slli	x1,x9,0x14	  x9:0x00000259  x1=0x25900000
       39085000	      3907	80000e80	fb9e16e3	bne	x28,x25,80000e2c	 x28:0xfffffffe x25:0x00000004
       39095000	      3908	00000000	00000013	addi	x0,x0,0	  x0:0x00000000
       39105000	      3909	80000e28	00000013	addi	x0,x0,0	  x0:0x00000000
       39115000	      3910	80000e2c	4d18ff93	andi	x31,x17,1233	 x17:0x00000000 x31=0x00000000
       39125000	      3911	80000e30	dd43eb13	ori	x22,x7,-556	  x7:0xfffffffb x22=0xffffffff
       39135000	      3912	80000e34	006e0e13	addi	x28,x28,6	 x28:0xfffffffe x28=0x00000004
       39145000	      3913	80000e38	01149a13	slli	x20,x9,0x11	  x9:0x00000259 x20=0x04b20000
       39155000	      3914	80000e3c	40a408b3	sub	x17,x8,x10	  x8:0x00000003 x10:0x00000000 x17=0x00000003
       39165000	      3915	80000e40	00a00693	addi	x13,x0,10	  x0:0x00000000 x13=0x0000000a
       39175000	      3916	80000e44	4129db13	srai	x22,x19,0x12	 x19:0x00000000 x22=0x00000000
       39185000	      3917	80000e48	00a00e93	addi	x29,x0,10	  x0:0x00000000 x29=0x0000000a
       39195000	      3918	80000e4c	00e825b3	slt	x11,x16,x14	 x16:0x00000000 x14:0x80009fc4 x11=0x00000000
       39205000	      3919	80000e50	da924493	xori	x9,x4,-599	  x4:0x00000001  x9=0xfffffda8
       39215000	      3920	80000e54	3d33b893	sltiu	x17,x7,979	  x7:0xfffffffb x17=0x00000000
       39225000	      3921	80000e58	ffb68693	addi	x13,x13,-5	 x13:0x0000000a x13=0x00000005
       39235000	      3922	80000e5c	009b9c13	slli	x24,x23,0x9	 x23:0xfffffec5 x24=0xfffd8a00
       39245000	      3923	80000e60	4b37d637	lui	x12,0x4b37d	 x12=0x4b37d000
       39255000	      3924	80000e64	01075133	srl	x2,x14,x16	 x14:0x80009fc4 x16:0x00000000  x2=0x80009fc4
       39265000	      3925	80000e68	01627833	and	x16,x4,x22	  x4:0x00000001 x22:0x00000000 x16=0x00000000
       39275000	      3926	80000e6c	ffd6f0e3	bgeu	x13,x29,80000e4c	 x13:0x00000005 x29:0x0000000a
       39285000	      3927	80000e70	c928aa13	slti	x20,x17,-878	 x17:0x00000000 x20=0x00000000
       39295000	      3928	80000e74	836fc193	xori	x3,x31,-1994	 x31:0x00000000  x3=0xfffff836
       39305000	      3929	80000e78	e231b213	sltiu	x4,x3,-477	  x3:0xfffff836  x4=0x00000001
       39315000	      3930	80000e7c	01449093	slli	x1,x9,0x14	  x9:0xfffffda8  x1=0xda800000
       39325000	      3931	80000e80	fb9e16e3	bne	x28,x25,80000e2c	 x28:0x00000004 x25:0x00000004
       39335000	      3932	80000e84	0048d5b3	srl	x11,x17,x4	 x17:0x00000000  x4:0x00000001 x11=0x00000000
       39345000	      3933	80000e88	00300b93	addi	x23,x0,3	  x0:0x00000000 x23=0x00000003
       39355000	      3934	80000e8c	414f0433	sub	x8,x30,x20	 x30:0x80009f34 x20:0x00000000  x8=0x80009f34
       39365000	      3935	80000e90	00f00793	addi	x15,x0,15	  x0:0x00000000 x15=0x0000000f
       39375000	      3936	80000e94	40c56e13	ori	x28,x10,1036	 x10:0x00000000 x28=0x0000040c
       39385000	      3937	80000e98	00ab8b93	addi	x23,x23,10	 x23:0x00000003 x23=0x0000000d
       39395000	      3938	80000e9c	ffc00813	addi	x16,x0,-4	  x0:0x00000000 x16=0xfffffffc
       39405000	      3939	80000ea0	011b9fb3	sll	x31,x23,x17	 x23:0x0000000d x17:0x00000000 x31=0x0000000d
       39415000	      3940	80000ea4	00300a93	addi	x21,x0,3	  x0:0x00000000 x21=0x00000003
       39425000	      3941	80000ea8	c64c8a13	addi	x20,x25,-924	 x25:0x00000004 x20=0xfffffc68
       39435000	      3942	80000eac	00780813	addi	x16,x16,7	 x16:0xfffffffc x16=0x00000003
       39445000	      3943	80000eb0	ff586ce3	bltu	x16,x21,80000ea8	 x16:0x00000003 x21:0x00000003
       39455000	      3944	80000eb4	fefbe0e3	bltu	x23,x15,80000e94	 x23:0x0000000d x15:0x0000000f
       39465000	      3945	00000000	00000013	addi	x0,x0,0	  x0:0x00000000
       39475000	      3946	80000e90	00000013	addi	x0,x0,0	  x0:0x00000000
       39485000	      3947	80000e94	40c56e13	ori	x28,x10,1036	 x10:0x00000000 x28=0x0000040c
       39495000	      3948	80000e98	00ab8b93	addi	x23,x23,10	 x23:0x0000000d x23=0x00000017
       39505000	      3949	80000e9c	ffc00813	addi	x16,x0,-4	  x0:0x00000000 x16=0xfffffffc
       39515000	      3950	80000ea0	011b9fb3	sll	x31,x23,x17	 x23:0x00000017 x17:0x00000000 x31=0x00000017
       39525000	      3951	80000ea4	00300a93	addi	x21,x0,3	  x0:0x00000000 x21=0x00000003
       39535000	      3952	80000ea8	c64c8a13	addi	x20,x25,-924	 x25:0x00000004 x20=0xfffffc68
       39545000	      3953	80000eac	00780813	addi	x16,x16,7	 x16:0xfffffffc x16=0x00000003
       39555000	      3954	80000eb0	ff586ce3	bltu	x16,x21,80000ea8	 x16:0x00000003 x21:0x00000003
       39565000	      3955	80000eb4	fefbe0e3	bltu	x23,x15,80000e94	 x23:0x00000017 x15:0x0000000f
       39575000	      3956	80000eb8	70fae537	lui	x10,0x70fae	 x10=0x70fae000
       39585000	      3957	80000ebc	00600413	addi	x8,x0,6	  x0:0x00000000  x8=0x00000006
       39595000	      3958	80000ec0	015f3e33	sltu	x28,x30,x21	 x30:0x80009f34 x21:0x00000003 x28=0x00000000
       39605000	      3959	80000ec4	00d00f93	addi	x31,x0,13	  x0:0x00000000 x31=0x0000000d
       39615000	      3960	80000ec8	00000013	addi	x0,x0,0	  x0:0x00000000
       39625000	      3961	80000ecc	00000013	addi	x0,x0,0	  x0:0x00000000
       39635000	      3962	80000ed0	02e60c93	addi	x25,x12,46	 x12:0x4b37d000 x25=0x4b37d02e
       39645000	      3963	80000ed4	00640413	addi	x8,x8,6	  x8:0x00000006  x8=0x0000000c
       39655000	      3964	80000ed8	010ca033	slt	x0,x25,x16	 x25:0x4b37d02e x16:0x00000003
       39665000	      3965	80000edc	00300913	addi	x18,x0,3	  x0:0x00000000 x18=0x00000003
       39675000	      3966	80000ee0	01831a33	sll	x20,x6,x24	  x6:0x00000001 x24:0xfffd8a00 x20=0x00000001
       39685000	      3967	80000ee4	00e00513	addi	x10,x0,14	  x0:0x00000000 x10=0x0000000e
       39695000	      3968	80000ee8	013fd333	srl	x6,x31,x19	 x31:0x0000000d x19:0x00000000  x6=0x0000000d
       39705000	      3969	80000eec	806cf593	andi	x11,x25,-2042	 x25:0x4b37d02e x11=0x4b37d006
       39715000	      3970	80000ef0	40270233	sub	x4,x14,x2	 x14:0x80009fc4  x2:0x80009fc4  x4=0x00000000
       39725000	      3971	80000ef4	38c00b93	addi	x23,x0,908	  x0:0x00000000 x23=0x0000038c
       39735000	      3972	80000ef8	00d62db3	slt	x27,x12,x13	 x12:0x4b37d000 x13:0x00000005 x27=0x00000000
       39745000	      3973	80000efc	00a90913	addi	x18,x18,10	 x18:0x00000003 x18=0x0000000d
       39755000	      3974	80000f00	00387cb3	and	x25,x16,x3	 x16:0x00000003  x3:0xfffff836 x25=0x00000002
       39765000	      3975	80000f04	fea946e3	blt	x18,x10,80000ef0	 x18:0x0000000d x10:0x0000000e
       39775000	      3976	00000000	00000013	addi	x0,x0,0	  x0:0x00000000
       39785000	      3977	80000eec	00000013	addi	x0,x0,0	  x0:0x00000000
       39795000	      3978	80000ef0	40270233	sub	x4,x14,x2	 x14:0x80009fc4  x2:0x80009fc4  x4=0x00000000
       39805000	      3979	80000ef4	38c00b93	addi	x23,x0,908	  x0:0x00000000 x23=0x0000038c
       39815000	      3980	80000ef8	00d62db3	slt	x27,x12,x13	 x12:0x4b37d000 x13:0x00000005 x27=0x00000000
       39825000	      3981	80000efc	00a90913	addi	x18,x18,10	 x18:0x0000000d x18=0x00000017
       39835000	      3982	80000f00	00387cb3	and	x25,x16,x3	 x16:0x00000003  x3:0xfffff836 x25=0x00000002
       39845000	      3983	80000f04	fea946e3	blt	x18,x10,80000ef0	 x18:0x00000017 x10:0x0000000e
       39855000	      3984	80000f08	fdf464e3	bltu	x8,x31,80000ed0	  x8:0x0000000c x31:0x0000000d
       39865000	      3985	00000000	00000013	addi	x0,x0,0	  x0:0x00000000
       39875000	      3986	80000ecc	00000013	addi	x0,x0,0	  x0:0x00000000
       39885000	      3987	80000ed0	02e60c93	addi	x25,x12,46	 x12:0x4b37d000 x25=0x4b37d02e
       39895000	      3988	80000ed4	00640413	addi	x8,x8,6	  x8:0x0000000c  x8=0x00000012
       39905000	      3989	80000ed8	010ca033	slt	x0,x25,x16	 x25:0x4b37d02e x16:0x00000003
       39915000	      3990	80000edc	00300913	addi	x18,x0,3	  x0:0x00000000 x18=0x00000003
       39925000	      3991	80000ee0	01831a33	sll	x20,x6,x24	  x6:0x0000000d x24:0xfffd8a00 x20=0x0000000d
       39935000	      3992	80000ee4	00e00513	addi	x10,x0,14	  x0:0x00000000 x10=0x0000000e
       39945000	      3993	80000ee8	013fd333	srl	x6,x31,x19	 x31:0x0000000d x19:0x00000000  x6=0x0000000d
       39955000	      3994	80000eec	806cf593	andi	x11,x25,-2042	 x25:0x4b37d02e x11=0x4b37d006
       39965000	      3995	80000ef0	40270233	sub	x4,x14,x2	 x14:0x80009fc4  x2:0x80009fc4  x4=0x00000000
       39975000	      3996	80000ef4	38c00b93	addi	x23,x0,908	  x0:0x00000000 x23=0x0000038c
       39985000	      3997	80000ef8	00d62db3	slt	x27,x12,x13	 x12:0x4b37d000 x13:0x00000005 x27=0x00000000
       39995000	      3998	80000efc	00a90913	addi	x18,x18,10	 x18:0x00000003 x18=0x0000000d
       40005000	      3999	80000f00	00387cb3	and	x25,x16,x3	 x16:0x00000003  x3:0xfffff836 x25=0x00000002
       40015000	      4000	80000f04	fea946e3	blt	x18,x10,80000ef0	 x18:0x0000000d x10:0x0000000e
       40025000	      4001	00000000	00000013	addi	x0,x0,0	  x0:0x00000000
       40035000	      4002	80000eec	00000013	addi	x0,x0,0	  x0:0x00000000
       40045000	      4003	80000ef0	40270233	sub	x4,x14,x2	 x14:0x80009fc4  x2:0x80009fc4  x4=0x00000000
       40055000	      4004	80000ef4	38c00b93	addi	x23,x0,908	  x0:0x00000000 x23=0x0000038c
       40065000	      4005	80000ef8	00d62db3	slt	x27,x12,x13	 x12:0x4b37d000 x13:0x00000005 x27=0x00000000
       40075000	      4006	80000efc	00a90913	addi	x18,x18,10	 x18:0x0000000d x18=0x00000017
       40085000	      4007	80000f00	00387cb3	and	x25,x16,x3	 x16:0x00000003  x3:0xfffff836 x25=0x00000002
       40095000	      4008	80000f04	fea946e3	blt	x18,x10,80000ef0	 x18:0x00000017 x10:0x0000000e
       40105000	      4009	80000f08	fdf464e3	bltu	x8,x31,80000ed0	  x8:0x00000012 x31:0x0000000d
       40115000	      4010	80000f0c	00000013	addi	x0,x0,0	  x0:0x00000000
       40125000	      4011	80000f10	01ce4333	xor	x6,x28,x28	 x28:0x00000000 x28:0x00000000  x6=0x00000000
       40135000	      4012	80000f14	405d80b3	sub	x1,x27,x5	 x27:0x00000000  x5:0x00000008  x1=0xfffffff8
       40145000	      4013	80000f18	6d50a593	slti	x11,x1,1749	  x1:0xfffffff8 x11=0x00000001
       40155000	      4014	80000f1c	02149e63	bne	x9,x1,80000f58	  x9:0xfffffda8  x1:0xfffffff8
       40165000	      4015	00000000	00000013	addi	x0,x0,0	  x0:0x00000000
       40175000	      4016	80000f54	00000013	addi	x0,x0,0	  x0:0x00000000
       40185000	      4017	80000f58	a30c2193	slti	x3,x24,-1488	 x24:0xfffd8a00  x3=0x00000001
       40195000	      4018	80000f5c	048b9463	bne	x23,x8,80000fa4	 x23:0x0000038c  x8:0x00000012
       40205000	      4019	00000000	00000013	addi	x0,x0,0	  x0:0x00000000
       40215000	      4020	80000fa0	00000013	addi	x0,x0,0	  x0:0x00000000
       40225000	      4021	80000fa4	01d25e63	bge	x4,x29,80000fc0	  x4:0x00000000 x29:0x0000000a
       40235000	      4022	80000fa8	05009863	bne	x1,x16,80000ff8	  x1:0xfffffff8 x16:0x00000003
       40245000	      4023	00000000	00000013	addi	x0,x0,0	  x0:0x00000000
       40255000	      4024	80000ff4	00000013	addi	x0,x0,0	  x0:0x00000000
       40265000	      4025	80000ff8	4182d6b3	sra	x13,x5,x24	  x5:0x00000008 x24:0xfffd8a00 x13=0x00000008
       40275000	      4026	80000ffc	20dc2e93	slti	x29,x24,525	 x24:0xfffd8a00 x29=0x00000001
       40285000	      4027	80001000	068eb193	sltiu	x3,x29,104	 x29:0x00000001  x3=0x00000001
       40295000	      4028	80001004	fab66793	ori	x15,x12,-85	 x12:0x4b37d000 x15=0xffffffab
       40305000	      4029	80001008	00000013	addi	x0,x0,0	  x0:0x00000000
       40315000	      4030	8000100c	02b5c263	blt	x11,x11,80001030	 x11:0x00000001 x11:0x00000001
       40325000	      4031	80001010	03c77a13	andi	x20,x14,60	 x14:0x80009fc4 x20=0x00000004
       40335000	      4032	80001014	3a16b593	sltiu	x11,x13,929	 x13:0x00000008 x11=0x00000001
       40345000	      4033	80001018	00282bb3	slt	x23,x16,x2	 x16:0x00000003  x2:0x80009fc4 x23=0x00000000
       40355000	      4034	8000101c	41455493	srai	x9,x10,0x14	 x10:0x0000000e  x9=0x00000000
       40365000	      4035	80001020	41758433	sub	x8,x11,x23	 x11:0x00000001 x23:0x00000000  x8=0x00000001
       40375000	      4036	80001024	000c9db3	sll	x27,x25,x0	 x25:0x00000002  x0:0x00000000 x27=0x00000002
       40385000	      4037	80001028	02ac0263	beq	x24,x10,8000104c	 x24:0xfffd8a00 x10:0x0000000e
       40395000	      4038	8000102c	0188cc33	xor	x24,x17,x24	 x17:0x00000000 x24:0xfffd8a00 x24=0xfffd8a00
       40405000	      4039	80001030	414fd4b3	sra	x9,x31,x20	 x31:0x0000000d x20:0x00000004  x9=0x00000000
       40415000	      4040	80001034	01856e63	bltu	x10,x24,80001050	 x10:0x0000000e x24:0xfffd8a00
       40425000	      4041	00000000	00000013	addi	x0,x0,0	  x0:0x00000000
       40435000	      4042	8000104c	00000013	addi	x0,x0,0	  x0:0x00000000
       40445000	      4043	80001050	dbb47e93	andi	x29,x8,-581	  x8:0x00000001 x29=0x00000001
       40455000	      4044	80001054	bbc17393	andi	x7,x2,-1092	  x2:0x80009fc4  x7=0x80009b84
       40465000	      4045	80001058	00dd3e33	sltu	x28,x26,x13	 x26:0x0000000b x13:0x00000008 x28=0x00000000
       40475000	      4046	8000105c	018c1a13	slli	x20,x24,0x18	 x24:0xfffd8a00 x20=0x00000000
       40485000	      4047	80001060	00c54863	blt	x10,x12,80001070	 x10:0x0000000e x12:0x4b37d000
       40495000	      4048	00000000	00000013	addi	x0,x0,0	  x0:0x00000000
       40505000	      4049	8000106c	00000013	addi	x0,x0,0	  x0:0x00000000
       40515000	      4050	80001070	007877b3	and	x15,x16,x7	 x16:0x00000003  x7:0x80009b84 x15=0x00000000
       40525000	      4051	80001074	010c6b33	or	x22,x24,x16	 x24:0xfffd8a00 x16:0x00000003 x22=0xfffd8a03
       40535000	      4052	80001078	01699e93	slli	x29,x19,0x16	 x19:0x00000000 x29=0x00000000
       40545000	      4053	8000107c	c9c82093	slti	x1,x16,-868	 x16:0x00000003  x1=0x00000000
       40555000	      4054	80001080	ce5d0a13	addi	x20,x26,-795	 x26:0x0000000b x20=0xfffffcf0
       40565000	      4055	80001084	00231bb3	sll	x23,x6,x2	  x6:0x00000000  x2:0x80009fc4 x23=0x00000000
       40575000	      4056	80001088	011c5b33	srl	x22,x24,x17	 x24:0xfffd8a00 x17:0x00000000 x22=0xfffd8a00
       40585000	      4057	8000108c	0068e663	bltu	x17,x6,80001098	 x17:0x00000000  x6:0x00000000
       40595000	      4058	80001090	05abd263	bge	x23,x26,800010d4	 x23:0x00000000 x26:0x0000000b
       40605000	      4059	80001094	05db4863	blt	x22,x29,800010e4	 x22:0xfffd8a00 x29:0x00000000
       40615000	      4060	00000000	00000013	addi	x0,x0,0	  x0:0x00000000
       40625000	      4061	800010e0	00000013	addi	x0,x0,0	  x0:0x00000000
       40635000	      4062	800010e4	79194517	auipc	x10,0x79194	 x10=0xf91950e0
       40645000	      4063	800010e8	01d05eb3	srl	x29,x0,x29	  x0:0x00000000 x29:0x00000000 x29=0x00000000
       40655000	      4064	800010ec	016bf133	and	x2,x23,x22	 x23:0x00000000 x22:0xfffd8a00  x2=0x00000000
       40665000	      4065	800010f0	015e3c33	sltu	x24,x28,x21	 x28:0x00000000 x21:0x00000003 x24=0x00000001
       40675000	      4066	800010f4	00b35793	srli	x15,x6,0xb	  x6:0x00000000 x15=0x00000000
       40685000	      4067	800010f8	009ddbb3	srl	x23,x27,x9	 x27:0x00000002  x9:0x00000000 x23=0x00000002
       40695000	      4068	800010fc	2e05e697	auipc	x13,0x2e05e	 x13=0xae05f0f8
       40705000	      4069	80001100	04fb5863	bge	x22,x15,80001150	 x22:0xfffd8a00 x15:0x00000000
       40715000	      4070	80001104	ad7f6f93	ori	x31,x30,-1321	 x30:0x80009f34 x31=0xfffffff7
       40725000	      4071	80001108	01cb2033	slt	x0,x22,x28	 x22:0xfffd8a00 x28:0x00000000
       40735000	      4072	8000110c	410edb33	sra	x22,x29,x16	 x29:0x00000000 x16:0x00000003 x22=0x00000000
       40745000	      4073	80001110	0286f663	bgeu	x13,x8,8000113c	 x13:0xae05f0f8  x8:0x00000001
       40755000	      4074	00000000	00000013	addi	x0,x0,0	  x0:0x00000000
       40765000	      4075	80001138	00000013	addi	x0,x0,0	  x0:0x00000000
       40775000	      4076	8000113c	40f1d013	srai	x0,x3,0xf	  x3:0x00000001
       40785000	      4077	80001140	049b6263	bltu	x22,x9,80001184	 x22:0x00000000  x9:0x00000000
       40795000	      4078	80001144	01232233	slt	x4,x6,x18	  x6:0x00000000 x18:0x00000017  x4=0x00000001
       40805000	      4079	80001148	ce484617	auipc	x12,0xce484	 x12=0x4e485144
       40815000	      4080	8000114c	02bf1e63	bne	x30,x11,80001188	 x30:0x80009f34 x11:0x00000001
       40825000	      4081	00000000	00000013	addi	x0,x0,0	  x0:0x00000000
       40835000	      4082	80001184	00000013	addi	x0,x0,0	  x0:0x00000000
       40845000	      4083	80001188	001e5e33	srl	x28,x28,x1	 x28:0x00000000  x1:0x00000000 x28=0x00000000
       40855000	      4084	8000118c	01d9d263	bge	x19,x29,80001190	 x19:0x00000000 x29:0x00000000
       40865000	      4085	00000000	00000013	addi	x0,x0,0	  x0:0x00000000
       40875000	      4086	8000118c	00000013	addi	x0,x0,0	  x0:0x00000000
       40885000	      4087	80001190	41225593	srai	x11,x4,0x12	  x4:0x00000001 x11=0x00000000
       40895000	      4088	80001194	0031ddb3	srl	x27,x3,x3	  x3:0x00000001  x3:0x00000001 x27=0x00000000
       40905000	      4089	80001198	02b58663	beq	x11,x11,800011c4	 x11:0x00000000 x11:0x00000000
       40915000	      4090	00000000	00000013	addi	x0,x0,0	  x0:0x00000000
       40925000	      4091	800011c0	00000013	addi	x0,x0,0	  x0:0x00000000
       40935000	      4092	800011c4	40905d93	srai	x27,x0,0x9	  x0:0x00000000 x27=0x00000000
       40945000	      4093	800011c8	0c3d0263	beq	x26,x3,8000128c	 x26:0x0000000b  x3:0x00000001
       40955000	      4094	800011cc	00000013	addi	x0,x0,0	  x0:0x00000000
       40965000	      4095	800011d0	41a78db3	sub	x27,x15,x26	 x15:0x00000000 x26:0x0000000b x27=0xfffffff5
       40975000	      4096	800011d4	411f5293	srai	x5,x30,0x11	 x30:0x80009f34  x5=0xffffc000
       40985000	      4097	800011d8	002ce333	or	x6,x25,x2	 x25:0x00000002  x2:0x00000000  x6=0x00000002
       40995000	      4098	800011dc	f6240137	lui	x2,0xf6240	  x2=0xf6240000
       41005000	      4099	800011e0	ae1f6593	ori	x11,x30,-1311	 x30:0x80009f34 x11=0xfffffff5
       41015000	      4100	800011e4	c93e4913	xori	x18,x28,-877	 x28:0x00000000 x18=0xfffffc93
       41025000	      4101	800011e8	11067613	andi	x12,x12,272	 x12:0x4e485144 x12=0x00000100
       41035000	      4102	800011ec	ffc7bf97	auipc	x31,0xffc7b	 x31=0x7fc7c1e8
       41045000	      4103	800011f0	00f211b3	sll	x3,x4,x15	  x4:0x00000001 x15:0x00000000  x3=0x00000001
       41055000	      4104	800011f4	00400193	addi	x3,x0,4	  x0:0x00000000  x3=0x00000004
       41065000	      4105	800011f8	01cd5e13	srli	x28,x26,0x1c	 x26:0x0000000b x28=0x00000000
       41075000	      4106	800011fc	8abb5f97	auipc	x31,0x8abb5	 x31=0x0abb61f8
       41085000	      4107	80001200	01cd9c33	sll	x24,x27,x28	 x27:0xfffffff5 x28:0x00000000 x24=0xfffffff5
       41095000	      4108	80001204	fee00693	addi	x13,x0,-18	  x0:0x00000000 x13=0xffffffee
       41105000	      4109	80001208	a982c493	xori	x9,x5,-1384	  x5:0xffffc000  x9=0x00003a98
       41115000	      4110	8000120c	178cfe13	andi	x28,x25,376	 x25:0x00000002 x28=0x00000000
       41125000	      4111	80001210	01a205b3	add	x11,x4,x26	  x4:0x00000001 x26:0x0000000b x11=0x0000000c
       41135000	      4112	80001214	4020d993	srai	x19,x1,0x2	  x1:0x00000000 x19=0x00000000
       41145000	      4113	80001218	0139a4b3	slt	x9,x19,x19	 x19:0x00000000 x19:0x00000000  x9=0x00000000
       41155000	      4114	8000121c	000be333	or	x6,x23,x0	 x23:0x00000002  x0:0x00000000  x6=0x00000002
       41165000	      4115	80001220	011d0933	add	x18,x26,x17	 x26:0x0000000b x17:0x00000000 x18=0x0000000b
       41175000	      4116	80001224	38e243b7	lui	x7,0x38e24	  x7=0x38e24000
       41185000	      4117	80001228	baf4b613	sltiu	x12,x9,-1105	  x9:0x00000000 x12=0x00000001
       41195000	      4118	8000122c	003a7ab3	and	x21,x20,x3	 x20:0xfffffcf0  x3:0x00000004 x21=0x00000000
       41205000	      4119	80001230	40505433	sra	x8,x0,x5	  x0:0x00000000  x5:0xffffc000  x8=0x00000000
       41215000	      4120	80001234	ff718193	addi	x3,x3,-9	  x3:0x00000004  x3=0xfffffffb
       41225000	      4121	80001238	00000013	addi	x0,x0,0	  x0:0x00000000
       41235000	      4122	8000123c	01c04933	xor	x18,x0,x28	  x0:0x00000000 x28:0x00000000 x18=0x00000000
       41245000	      4123	80001240	c0e7aa93	slti	x21,x15,-1010	 x15:0x00000000 x21=0x00000000
       41255000	      4124	80001244	01b39b13	slli	x22,x7,0x1b	  x7:0x38e24000 x22=0x00000000
       41265000	      4125	80001248	00000d93	addi	x27,x0,0	  x0:0x00000000 x27=0x00000000
       41275000	      4126	8000124c	013a5493	srli	x9,x20,0x13	 x20:0xfffffcf0  x9=0x00001fff
       41285000	      4127	80001250	00300293	addi	x5,x0,3	  x0:0x00000000  x5=0x00000003
       41295000	      4128	80001254	85d2ae13	slti	x28,x5,-1955	  x5:0x00000003 x28=0x00000000
       41305000	      4129	80001258	6b11eb93	ori	x23,x3,1713	  x3:0xfffffffb x23=0xfffffffb
       41315000	      4130	8000125c	003d8d93	addi	x27,x27,3	 x27:0x00000000 x27=0x00000003
       41325000	      4131	80001260	008df5b3	and	x11,x27,x8	 x27:0x00000003  x8:0x00000000 x11=0x00000000
       41335000	      4132	80001264	7dd08613	addi	x12,x1,2013	  x1:0x00000000 x12=0x000007dd
       41345000	      4133	80001268	fe5d86e3	beq	x27,x5,80001254	 x27:0x00000003  x5:0x00000003
       41355000	      4134	00000000	00000013	addi	x0,x0,0	  x0:0x00000000
       41365000	      4135	80001250	00000013	addi	x0,x0,0	  x0:0x00000000
       41375000	      4136	80001254	85d2ae13	slti	x28,x5,-1955	  x5:0x00000003 x28=0x00000000
       41385000	      4137	80001258	6b11eb93	ori	x23,x3,1713	  x3:0xfffffffb x23=0xfffffffb
       41395000	      4138	8000125c	003d8d93	addi	x27,x27,3	 x27:0x00000003 x27=0x00000006
       41405000	      4139	80001260	008df5b3	and	x11,x27,x8	 x27:0x00000006  x8:0x00000000 x11=0x00000000
       41415000	      4140	80001264	7dd08613	addi	x12,x1,2013	  x1:0x00000000 x12=0x000007dd
       41425000	      4141	80001268	fe5d86e3	beq	x27,x5,80001254	 x27:0x00000006  x5:0x00000003
       41435000	      4142	8000126c	fad1dae3	bge	x3,x13,80001220	  x3:0xfffffffb x13:0xffffffee
       41445000	      4143	00000000	00000013	addi	x0,x0,0	  x0:0x00000000
       41455000	      4144	8000121c	00000013	addi	x0,x0,0	  x0:0x00000000
       41465000	      4145	80001220	011d0933	add	x18,x26,x17	 x26:0x0000000b x17:0x00000000 x18=0x0000000b
       41475000	      4146	80001224	38e243b7	lui	x7,0x38e24	  x7=0x38e24000
       41485000	      4147	80001228	baf4b613	sltiu	x12,x9,-1105	  x9:0x00001fff x12=0x00000001
       41495000	      4148	8000122c	003a7ab3	and	x21,x20,x3	 x20:0xfffffcf0  x3:0xfffffffb x21=0xfffffcf0
       41505000	      4149	80001230	40505433	sra	x8,x0,x5	  x0:0x00000000  x5:0x00000003  x8=0x00000000
       41515000	      4150	80001234	ff718193	addi	x3,x3,-9	  x3:0xfffffffb  x3=0xfffffff2
       41525000	      4151	80001238	00000013	addi	x0,x0,0	  x0:0x00000000
       41535000	      4152	8000123c	01c04933	xor	x18,x0,x28	  x0:0x00000000 x28:0x00000000 x18=0x00000000
       41545000	      4153	80001240	c0e7aa93	slti	x21,x15,-1010	 x15:0x00000000 x21=0x00000000
       41555000	      4154	80001244	01b39b13	slli	x22,x7,0x1b	  x7:0x38e24000 x22=0x00000000
       41565000	      4155	80001248	00000d93	addi	x27,x0,0	  x0:0x00000000 x27=0x00000000
       41575000	      4156	8000124c	013a5493	srli	x9,x20,0x13	 x20:0xfffffcf0  x9=0x00001fff
       41585000	      4157	80001250	00300293	addi	x5,x0,3	  x0:0x00000000  x5=0x00000003
       41595000	      4158	80001254	85d2ae13	slti	x28,x5,-1955	  x5:0x00000003 x28=0x00000000
       41605000	      4159	80001258	6b11eb93	ori	x23,x3,1713	  x3:0xfffffff2 x23=0xfffffff3
       41615000	      4160	8000125c	003d8d93	addi	x27,x27,3	 x27:0x00000000 x27=0x00000003
       41625000	      4161	80001260	008df5b3	and	x11,x27,x8	 x27:0x00000003  x8:0x00000000 x11=0x00000000
       41635000	      4162	80001264	7dd08613	addi	x12,x1,2013	  x1:0x00000000 x12=0x000007dd
       41645000	      4163	80001268	fe5d86e3	beq	x27,x5,80001254	 x27:0x00000003  x5:0x00000003
       41655000	      4164	00000000	00000013	addi	x0,x0,0	  x0:0x00000000
       41665000	      4165	80001250	00000013	addi	x0,x0,0	  x0:0x00000000
       41675000	      4166	80001254	85d2ae13	slti	x28,x5,-1955	  x5:0x00000003 x28=0x00000000
       41685000	      4167	80001258	6b11eb93	ori	x23,x3,1713	  x3:0xfffffff2 x23=0xfffffff3
       41695000	      4168	8000125c	003d8d93	addi	x27,x27,3	 x27:0x00000003 x27=0x00000006
       41705000	      4169	80001260	008df5b3	and	x11,x27,x8	 x27:0x00000006  x8:0x00000000 x11=0x00000000
       41715000	      4170	80001264	7dd08613	addi	x12,x1,2013	  x1:0x00000000 x12=0x000007dd
       41725000	      4171	80001268	fe5d86e3	beq	x27,x5,80001254	 x27:0x00000006  x5:0x00000003
       41735000	      4172	8000126c	fad1dae3	bge	x3,x13,80001220	  x3:0xfffffff2 x13:0xffffffee
       41745000	      4173	00000000	00000013	addi	x0,x0,0	  x0:0x00000000
       41755000	      4174	8000121c	00000013	addi	x0,x0,0	  x0:0x00000000
       41765000	      4175	80001220	011d0933	add	x18,x26,x17	 x26:0x0000000b x17:0x00000000 x18=0x0000000b
       41775000	      4176	80001224	38e243b7	lui	x7,0x38e24	  x7=0x38e24000
       41785000	      4177	80001228	baf4b613	sltiu	x12,x9,-1105	  x9:0x00001fff x12=0x00000001
       41795000	      4178	8000122c	003a7ab3	and	x21,x20,x3	 x20:0xfffffcf0  x3:0xfffffff2 x21=0xfffffcf0
       41805000	      4179	80001230	40505433	sra	x8,x0,x5	  x0:0x00000000  x5:0x00000003  x8=0x00000000
       41815000	      4180	80001234	ff718193	addi	x3,x3,-9	  x3:0xfffffff2  x3=0xffffffe9
       41825000	      4181	80001238	00000013	addi	x0,x0,0	  x0:0x00000000
       41835000	      4182	8000123c	01c04933	xor	x18,x0,x28	  x0:0x00000000 x28:0x00000000 x18=0x00000000
       41845000	      4183	80001240	c0e7aa93	slti	x21,x15,-1010	 x15:0x00000000 x21=0x00000000
       41855000	      4184	80001244	01b39b13	slli	x22,x7,0x1b	  x7:0x38e24000 x22=0x00000000
       41865000	      4185	80001248	00000d93	addi	x27,x0,0	  x0:0x00000000 x27=0x00000000
       41875000	      4186	8000124c	013a5493	srli	x9,x20,0x13	 x20:0xfffffcf0  x9=0x00001fff
       41885000	      4187	80001250	00300293	addi	x5,x0,3	  x0:0x00000000  x5=0x00000003
       41895000	      4188	80001254	85d2ae13	slti	x28,x5,-1955	  x5:0x00000003 x28=0x00000000
       41905000	      4189	80001258	6b11eb93	ori	x23,x3,1713	  x3:0xffffffe9 x23=0xfffffff9
       41915000	      4190	8000125c	003d8d93	addi	x27,x27,3	 x27:0x00000000 x27=0x00000003
       41925000	      4191	80001260	008df5b3	and	x11,x27,x8	 x27:0x00000003  x8:0x00000000 x11=0x00000000
       41935000	      4192	80001264	7dd08613	addi	x12,x1,2013	  x1:0x00000000 x12=0x000007dd
       41945000	      4193	80001268	fe5d86e3	beq	x27,x5,80001254	 x27:0x00000003  x5:0x00000003
       41955000	      4194	00000000	00000013	addi	x0,x0,0	  x0:0x00000000
       41965000	      4195	80001250	00000013	addi	x0,x0,0	  x0:0x00000000
       41975000	      4196	80001254	85d2ae13	slti	x28,x5,-1955	  x5:0x00000003 x28=0x00000000
       41985000	      4197	80001258	6b11eb93	ori	x23,x3,1713	  x3:0xffffffe9 x23=0xfffffff9
       41995000	      4198	8000125c	003d8d93	addi	x27,x27,3	 x27:0x00000003 x27=0x00000006
       42005000	      4199	80001260	008df5b3	and	x11,x27,x8	 x27:0x00000006  x8:0x00000000 x11=0x00000000
       42015000	      4200	80001264	7dd08613	addi	x12,x1,2013	  x1:0x00000000 x12=0x000007dd
       42025000	      4201	80001268	fe5d86e3	beq	x27,x5,80001254	 x27:0x00000006  x5:0x00000003
       42035000	      4202	8000126c	fad1dae3	bge	x3,x13,80001220	  x3:0xffffffe9 x13:0xffffffee
       42045000	      4203	80001270	01137bb3	and	x23,x6,x17	  x6:0x00000002 x17:0x00000000 x23=0x00000000
       42055000	      4204	80001274	41ee5b13	srai	x22,x28,0x1e	 x28:0x00000000 x22=0x00000000
       42065000	      4205	80001278	9f524337	lui	x6,0x9f524	  x6=0x9f524000
       42075000	      4206	8000127c	4032d233	sra	x4,x5,x3	  x5:0x00000003  x3:0xffffffe9  x4=0x00000000
       42085000	      4207	80001280	0f995bb7	lui	x23,0xf995	 x23=0x0f995000
       42095000	      4208	80001284	6cf5be17	auipc	x28,0x6cf5b	 x28=0xecf5c280
       42105000	      4209	80001288	01d05e63	bge	x0,x29,800012a4	  x0:0x00000000 x29:0x00000000
       42115000	      4210	00000000	00000013	addi	x0,x0,0	  x0:0x00000000
       42125000	      4211	800012a0	00000013	addi	x0,x0,0	  x0:0x00000000
       42135000	      4212	800012a4	c4020a13	addi	x20,x4,-960	  x4:0x00000000 x20=0xfffffc40
       42145000	      4213	800012a8	001750b3	srl	x1,x14,x1	 x14:0x80009fc4  x1:0x00000000  x1=0x80009fc4
       42155000	      4214	800012ac	05b8d863	bge	x17,x27,800012fc	 x17:0x00000000 x27:0x00000006
       42165000	      4215	800012b0	500295b7	lui	x11,0x50029	 x11=0x50029000
       42175000	      4216	800012b4	bbc86693	ori	x13,x16,-1092	 x16:0x00000003 x13=0xfffffbbf
       42185000	      4217	800012b8	b70ff593	andi	x11,x31,-1168	 x31:0x0abb61f8 x11=0x0abb6170
       42195000	      4218	800012bc	01f3b1b3	sltu	x3,x7,x31	  x7:0x38e24000 x31:0x0abb61f8  x3=0x00000000
       42205000	      4219	800012c0	04b76063	bltu	x14,x11,80001300	 x14:0x80009fc4 x11:0x0abb6170
       42215000	      4220	800012c4	010cdb93	srli	x23,x25,0x10	 x25:0x00000002 x23=0x00000000
       42225000	      4221	800012c8	02a15263	bge	x2,x10,800012ec	  x2:0xf6240000 x10:0xf91950e0
       42235000	      4222	800012cc	003b1433	sll	x8,x22,x3	 x22:0x00000000  x3:0x00000000  x8=0x00000000
       42245000	      4223	800012d0	00d4bab3	sltu	x21,x9,x13	  x9:0x00001fff x13:0xfffffbbf x21=0x00000001
       42255000	      4224	800012d4	29350437	lui	x8,0x29350	  x8=0x29350000
       42265000	      4225	800012d8	0024c0b3	xor	x1,x9,x2	  x9:0x00001fff  x2:0xf6240000  x1=0xf6241fff
       42275000	      4226	800012dc	a060fab7	lui	x21,0xa060f	 x21=0xa060f000
       42285000	      4227	800012e0	e242b893	sltiu	x17,x5,-476	  x5:0x00000003 x17=0x00000001
       42295000	      4228	800012e4	0501f863	bgeu	x3,x16,80001334	  x3:0x00000000 x16:0x00000003
       42305000	      4229	800012e8	414e5913	srai	x18,x28,0x14	 x28:0xecf5c280 x18=0xfffffecf
       42315000	      4230	800012ec	0281c263	blt	x3,x8,80001310	  x3:0x00000000  x8:0x29350000
       42325000	      4231	00000000	00000013	addi	x0,x0,0	  x0:0x00000000
       42335000	      4232	8000130c	00000013	addi	x0,x0,0	  x0:0x00000000
       42345000	      4233	80001310	be70eab7	lui	x21,0xbe70e	 x21=0xbe70e000
       42355000	      4234	80001314	4e2a7213	andi	x4,x20,1250	 x20:0xfffffc40  x4=0x00000440
       42365000	      4235	80001318	02b34263	blt	x6,x11,8000133c	  x6:0x9f524000 x11:0x0abb6170
       42375000	      4236	00000000	00000013	addi	x0,x0,0	  x0:0x00000000
       42385000	      4237	80001338	00000013	addi	x0,x0,0	  x0:0x00000000
       42395000	      4238	8000133c	4188d233	sra	x4,x17,x24	 x17:0x00000001 x24:0xfffffff5  x4=0x00000000
       42405000	      4239	80001340	012729b3	slt	x19,x14,x18	 x14:0x80009fc4 x18:0xfffffecf x19=0x00000001
       42415000	      4240	80001344	0053ce63	blt	x7,x5,80001360	  x7:0x38e24000  x5:0x00000003
       42425000	      4241	80001348	0037c863	blt	x15,x3,80001358	 x15:0x00000000  x3:0x00000000
       42435000	      4242	8000134c	4115d693	srai	x13,x11,0x11	 x11:0x0abb6170 x13=0x0000055d
       42445000	      4243	80001350	622a4a93	xori	x21,x20,1570	 x20:0xfffffc40 x21=0xfffffa62
       42455000	      4244	80001354	00000013	addi	x0,x0,0	  x0:0x00000000
       42465000	      4245	80001358	400c5033	sra	x0,x24,x0	 x24:0xfffffff5  x0:0x00000000
       42475000	      4246	8000135c	00178b33	add	x22,x15,x1	 x15:0x00000000  x1:0xf6241fff x22=0xf6241fff
       42485000	      4247	80001360	015c1213	slli	x4,x24,0x15	 x24:0xfffffff5  x4=0xfea00000
       42495000	      4248	80001364	01a74933	xor	x18,x14,x26	 x14:0x80009fc4 x26:0x0000000b x18=0x80009fcf
       42505000	      4249	80001368	46e2a3b7	lui	x7,0x46e2a	  x7=0x46e2a000
       42515000	      4250	8000136c	00600b13	addi	x22,x0,6	  x0:0x00000000 x22=0x00000006
       42525000	      4251	80001370	ffe00293	addi	x5,x0,-2	  x0:0x00000000  x5=0xfffffffe
       42535000	      4252	80001374	019963b3	or	x7,x18,x25	 x18:0x80009fcf x25:0x00000002  x7=0x80009fcf
       42545000	      4253	80001378	11c50b93	addi	x23,x10,284	 x10:0xf91950e0 x23=0xf91951fc
       42555000	      4254	8000137c	ff8b0b13	addi	x22,x22,-8	 x22:0x00000006 x22=0xfffffffe
       42565000	      4255	80001380	00125e93	srli	x29,x4,0x1	  x4:0xfea00000 x29=0x7f500000
       42575000	      4256	80001384	ff700913	addi	x18,x0,-9	  x0:0x00000000 x18=0xfffffff7
       42585000	      4257	80001388	00800c93	addi	x25,x0,8	  x0:0x00000000 x25=0x00000008
       42595000	      4258	8000138c	4179cc13	xori	x24,x19,1047	 x19:0x00000001 x24=0x00000416
       42605000	      4259	80001390	9005ab93	slti	x23,x11,-1792	 x11:0x0abb6170 x23=0x00000000
       42615000	      4260	80001394	eea5a393	slti	x7,x11,-278	 x11:0x0abb6170  x7=0x00000000
       42625000	      4261	80001398	40b95133	sra	x2,x18,x11	 x18:0xfffffff7 x11:0x0abb6170  x2=0xffffffff
       42635000	      4262	8000139c	0180d093	srli	x1,x1,0x18	  x1:0xf6241fff  x1=0x000000f6
       42645000	      4263	800013a0	3d1bb793	sltiu	x15,x23,977	 x23:0x00000000 x15=0x00000001
       42655000	      4264	800013a4	00290913	addi	x18,x18,2	 x18:0xfffffff7 x18=0xfffffff9
       42665000	      4265	800013a8	40a0dab3	sra	x21,x1,x10	  x1:0x000000f6 x10:0xf91950e0 x21=0x000000f6
       42675000	      4266	800013ac	0a54a793	slti	x15,x9,165	  x9:0x00001fff x15=0x00000000
       42685000	      4267	800013b0	ff9948e3	blt	x18,x25,800013a0	 x18:0xfffffff9 x25:0x00000008
       42695000	      4268	00000000	00000013	addi	x0,x0,0	  x0:0x00000000
       42705000	      4269	8000139c	00000013	addi	x0,x0,0	  x0:0x00000000
       42715000	      4270	800013a0	3d1bb793	sltiu	x15,x23,977	 x23:0x00000000 x15=0x00000001
       42725000	      4271	800013a4	00290913	addi	x18,x18,2	 x18:0xfffffff9 x18=0xfffffffb
       42735000	      4272	800013a8	40a0dab3	sra	x21,x1,x10	  x1:0x000000f6 x10:0xf91950e0 x21=0x000000f6
       42745000	      4273	800013ac	0a54a793	slti	x15,x9,165	  x9:0x00001fff x15=0x00000000
       42755000	      4274	800013b0	ff9948e3	blt	x18,x25,800013a0	 x18:0xfffffffb x25:0x00000008
       42765000	      4275	00000000	00000013	addi	x0,x0,0	  x0:0x00000000
       42775000	      4276	8000139c	00000013	addi	x0,x0,0	  x0:0x00000000
       42785000	      4277	800013a0	3d1bb793	sltiu	x15,x23,977	 x23:0x00000000 x15=0x00000001
       42795000	      4278	800013a4	00290913	addi	x18,x18,2	 x18:0xfffffffb x18=0xfffffffd
       42805000	      4279	800013a8	40a0dab3	sra	x21,x1,x10	  x1:0x000000f6 x10:0xf91950e0 x21=0x000000f6
       42815000	      4280	800013ac	0a54a793	slti	x15,x9,165	  x9:0x00001fff x15=0x00000000
       42825000	      4281	800013b0	ff9948e3	blt	x18,x25,800013a0	 x18:0xfffffffd x25:0x00000008
       42835000	      4282	00000000	00000013	addi	x0,x0,0	  x0:0x00000000
       42845000	      4283	8000139c	00000013	addi	x0,x0,0	  x0:0x00000000
       42855000	      4284	800013a0	3d1bb793	sltiu	x15,x23,977	 x23:0x00000000 x15=0x00000001
       42865000	      4285	800013a4	00290913	addi	x18,x18,2	 x18:0xfffffffd x18=0xffffffff
       42875000	      4286	800013a8	40a0dab3	sra	x21,x1,x10	  x1:0x000000f6 x10:0xf91950e0 x21=0x000000f6
       42885000	      4287	800013ac	0a54a793	slti	x15,x9,165	  x9:0x00001fff x15=0x00000000
       42895000	      4288	800013b0	ff9948e3	blt	x18,x25,800013a0	 x18:0xffffffff x25:0x00000008
       42905000	      4289	00000000	00000013	addi	x0,x0,0	  x0:0x00000000
       42915000	      4290	8000139c	00000013	addi	x0,x0,0	  x0:0x00000000
       42925000	      4291	800013a0	3d1bb793	sltiu	x15,x23,977	 x23:0x00000000 x15=0x00000001
       42935000	      4292	800013a4	00290913	addi	x18,x18,2	 x18:0xffffffff x18=0x00000001
       42945000	      4293	800013a8	40a0dab3	sra	x21,x1,x10	  x1:0x000000f6 x10:0xf91950e0 x21=0x000000f6
       42955000	      4294	800013ac	0a54a793	slti	x15,x9,165	  x9:0x00001fff x15=0x00000000
       42965000	      4295	800013b0	ff9948e3	blt	x18,x25,800013a0	 x18:0x00000001 x25:0x00000008
       42975000	      4296	00000000	00000013	addi	x0,x0,0	  x0:0x00000000
       42985000	      4297	8000139c	00000013	addi	x0,x0,0	  x0:0x00000000
       42995000	      4298	800013a0	3d1bb793	sltiu	x15,x23,977	 x23:0x00000000 x15=0x00000001
       43005000	      4299	800013a4	00290913	addi	x18,x18,2	 x18:0x00000001 x18=0x00000003
       43015000	      4300	800013a8	40a0dab3	sra	x21,x1,x10	  x1:0x000000f6 x10:0xf91950e0 x21=0x000000f6
       43025000	      4301	800013ac	0a54a793	slti	x15,x9,165	  x9:0x00001fff x15=0x00000000
       43035000	      4302	800013b0	ff9948e3	blt	x18,x25,800013a0	 x18:0x00000003 x25:0x00000008
       43045000	      4303	00000000	00000013	addi	x0,x0,0	  x0:0x00000000
       43055000	      4304	8000139c	00000013	addi	x0,x0,0	  x0:0x00000000
       43065000	      4305	800013a0	3d1bb793	sltiu	x15,x23,977	 x23:0x00000000 x15=0x00000001
       43075000	      4306	800013a4	00290913	addi	x18,x18,2	 x18:0x00000003 x18=0x00000005
       43085000	      4307	800013a8	40a0dab3	sra	x21,x1,x10	  x1:0x000000f6 x10:0xf91950e0 x21=0x000000f6
       43095000	      4308	800013ac	0a54a793	slti	x15,x9,165	  x9:0x00001fff x15=0x00000000
       43105000	      4309	800013b0	ff9948e3	blt	x18,x25,800013a0	 x18:0x00000005 x25:0x00000008
       43115000	      4310	00000000	00000013	addi	x0,x0,0	  x0:0x00000000
       43125000	      4311	8000139c	00000013	addi	x0,x0,0	  x0:0x00000000
       43135000	      4312	800013a0	3d1bb793	sltiu	x15,x23,977	 x23:0x00000000 x15=0x00000001
       43145000	      4313	800013a4	00290913	addi	x18,x18,2	 x18:0x00000005 x18=0x00000007
       43155000	      4314	800013a8	40a0dab3	sra	x21,x1,x10	  x1:0x000000f6 x10:0xf91950e0 x21=0x000000f6
       43165000	      4315	800013ac	0a54a793	slti	x15,x9,165	  x9:0x00001fff x15=0x00000000
       43175000	      4316	800013b0	ff9948e3	blt	x18,x25,800013a0	 x18:0x00000007 x25:0x00000008
       43185000	      4317	00000000	00000013	addi	x0,x0,0	  x0:0x00000000
       43195000	      4318	8000139c	00000013	addi	x0,x0,0	  x0:0x00000000
       43205000	      4319	800013a0	3d1bb793	sltiu	x15,x23,977	 x23:0x00000000 x15=0x00000001
       43215000	      4320	800013a4	00290913	addi	x18,x18,2	 x18:0x00000007 x18=0x00000009
       43225000	      4321	800013a8	40a0dab3	sra	x21,x1,x10	  x1:0x000000f6 x10:0xf91950e0 x21=0x000000f6
       43235000	      4322	800013ac	0a54a793	slti	x15,x9,165	  x9:0x00001fff x15=0x00000000
       43245000	      4323	800013b0	ff9948e3	blt	x18,x25,800013a0	 x18:0x00000009 x25:0x00000008
       43255000	      4324	800013b4	005fdbb3	srl	x23,x31,x5	 x31:0x0abb61f8  x5:0xfffffffe x23=0x00000000
       43265000	      4325	800013b8	fc5b00e3	beq	x22,x5,80001378	 x22:0xfffffffe  x5:0xfffffffe
       43275000	      4326	00000000	00000013	addi	x0,x0,0	  x0:0x00000000
       43285000	      4327	80001374	00000013	addi	x0,x0,0	  x0:0x00000000
       43295000	      4328	80001378	11c50b93	addi	x23,x10,284	 x10:0xf91950e0 x23=0xf91951fc
       43305000	      4329	8000137c	ff8b0b13	addi	x22,x22,-8	 x22:0xfffffffe x22=0xfffffff6
       43315000	      4330	80001380	00125e93	srli	x29,x4,0x1	  x4:0xfea00000 x29=0x7f500000
       43325000	      4331	80001384	ff700913	addi	x18,x0,-9	  x0:0x00000000 x18=0xfffffff7
       43335000	      4332	80001388	00800c93	addi	x25,x0,8	  x0:0x00000000 x25=0x00000008
       43345000	      4333	8000138c	4179cc13	xori	x24,x19,1047	 x19:0x00000001 x24=0x00000416
       43355000	      4334	80001390	9005ab93	slti	x23,x11,-1792	 x11:0x0abb6170 x23=0x00000000
       43365000	      4335	80001394	eea5a393	slti	x7,x11,-278	 x11:0x0abb6170  x7=0x00000000
       43375000	      4336	80001398	40b95133	sra	x2,x18,x11	 x18:0xfffffff7 x11:0x0abb6170  x2=0xffffffff
       43385000	      4337	8000139c	0180d093	srli	x1,x1,0x18	  x1:0x000000f6  x1=0x00000000
       43395000	      4338	800013a0	3d1bb793	sltiu	x15,x23,977	 x23:0x00000000 x15=0x00000001
       43405000	      4339	800013a4	00290913	addi	x18,x18,2	 x18:0xfffffff7 x18=0xfffffff9
       43415000	      4340	800013a8	40a0dab3	sra	x21,x1,x10	  x1:0x00000000 x10:0xf91950e0 x21=0x00000000
       43425000	      4341	800013ac	0a54a793	slti	x15,x9,165	  x9:0x00001fff x15=0x00000000
       43435000	      4342	800013b0	ff9948e3	blt	x18,x25,800013a0	 x18:0xfffffff9 x25:0x00000008
       43445000	      4343	00000000	00000013	addi	x0,x0,0	  x0:0x00000000
       43455000	      4344	8000139c	00000013	addi	x0,x0,0	  x0:0x00000000
       43465000	      4345	800013a0	3d1bb793	sltiu	x15,x23,977	 x23:0x00000000 x15=0x00000001
       43475000	      4346	800013a4	00290913	addi	x18,x18,2	 x18:0xfffffff9 x18=0xfffffffb
       43485000	      4347	800013a8	40a0dab3	sra	x21,x1,x10	  x1:0x00000000 x10:0xf91950e0 x21=0x00000000
       43495000	      4348	800013ac	0a54a793	slti	x15,x9,165	  x9:0x00001fff x15=0x00000000
       43505000	      4349	800013b0	ff9948e3	blt	x18,x25,800013a0	 x18:0xfffffffb x25:0x00000008
       43515000	      4350	00000000	00000013	addi	x0,x0,0	  x0:0x00000000
       43525000	      4351	8000139c	00000013	addi	x0,x0,0	  x0:0x00000000
       43535000	      4352	800013a0	3d1bb793	sltiu	x15,x23,977	 x23:0x00000000 x15=0x00000001
       43545000	      4353	800013a4	00290913	addi	x18,x18,2	 x18:0xfffffffb x18=0xfffffffd
       43555000	      4354	800013a8	40a0dab3	sra	x21,x1,x10	  x1:0x00000000 x10:0xf91950e0 x21=0x00000000
       43565000	      4355	800013ac	0a54a793	slti	x15,x9,165	  x9:0x00001fff x15=0x00000000
       43575000	      4356	800013b0	ff9948e3	blt	x18,x25,800013a0	 x18:0xfffffffd x25:0x00000008
       43585000	      4357	00000000	00000013	addi	x0,x0,0	  x0:0x00000000
       43595000	      4358	8000139c	00000013	addi	x0,x0,0	  x0:0x00000000
       43605000	      4359	800013a0	3d1bb793	sltiu	x15,x23,977	 x23:0x00000000 x15=0x00000001
       43615000	      4360	800013a4	00290913	addi	x18,x18,2	 x18:0xfffffffd x18=0xffffffff
       43625000	      4361	800013a8	40a0dab3	sra	x21,x1,x10	  x1:0x00000000 x10:0xf91950e0 x21=0x00000000
       43635000	      4362	800013ac	0a54a793	slti	x15,x9,165	  x9:0x00001fff x15=0x00000000
       43645000	      4363	800013b0	ff9948e3	blt	x18,x25,800013a0	 x18:0xffffffff x25:0x00000008
       43655000	      4364	00000000	00000013	addi	x0,x0,0	  x0:0x00000000
       43665000	      4365	8000139c	00000013	addi	x0,x0,0	  x0:0x00000000
       43675000	      4366	800013a0	3d1bb793	sltiu	x15,x23,977	 x23:0x00000000 x15=0x00000001
       43685000	      4367	800013a4	00290913	addi	x18,x18,2	 x18:0xffffffff x18=0x00000001
       43695000	      4368	800013a8	40a0dab3	sra	x21,x1,x10	  x1:0x00000000 x10:0xf91950e0 x21=0x00000000
       43705000	      4369	800013ac	0a54a793	slti	x15,x9,165	  x9:0x00001fff x15=0x00000000
       43715000	      4370	800013b0	ff9948e3	blt	x18,x25,800013a0	 x18:0x00000001 x25:0x00000008
       43725000	      4371	00000000	00000013	addi	x0,x0,0	  x0:0x00000000
       43735000	      4372	8000139c	00000013	addi	x0,x0,0	  x0:0x00000000
       43745000	      4373	800013a0	3d1bb793	sltiu	x15,x23,977	 x23:0x00000000 x15=0x00000001
       43755000	      4374	800013a4	00290913	addi	x18,x18,2	 x18:0x00000001 x18=0x00000003
       43765000	      4375	800013a8	40a0dab3	sra	x21,x1,x10	  x1:0x00000000 x10:0xf91950e0 x21=0x00000000
       43775000	      4376	800013ac	0a54a793	slti	x15,x9,165	  x9:0x00001fff x15=0x00000000
       43785000	      4377	800013b0	ff9948e3	blt	x18,x25,800013a0	 x18:0x00000003 x25:0x00000008
       43795000	      4378	00000000	00000013	addi	x0,x0,0	  x0:0x00000000
       43805000	      4379	8000139c	00000013	addi	x0,x0,0	  x0:0x00000000
       43815000	      4380	800013a0	3d1bb793	sltiu	x15,x23,977	 x23:0x00000000 x15=0x00000001
       43825000	      4381	800013a4	00290913	addi	x18,x18,2	 x18:0x00000003 x18=0x00000005
       43835000	      4382	800013a8	40a0dab3	sra	x21,x1,x10	  x1:0x00000000 x10:0xf91950e0 x21=0x00000000
       43845000	      4383	800013ac	0a54a793	slti	x15,x9,165	  x9:0x00001fff x15=0x00000000
       43855000	      4384	800013b0	ff9948e3	blt	x18,x25,800013a0	 x18:0x00000005 x25:0x00000008
       43865000	      4385	00000000	00000013	addi	x0,x0,0	  x0:0x00000000
       43875000	      4386	8000139c	00000013	addi	x0,x0,0	  x0:0x00000000
       43885000	      4387	800013a0	3d1bb793	sltiu	x15,x23,977	 x23:0x00000000 x15=0x00000001
       43895000	      4388	800013a4	00290913	addi	x18,x18,2	 x18:0x00000005 x18=0x00000007
       43905000	      4389	800013a8	40a0dab3	sra	x21,x1,x10	  x1:0x00000000 x10:0xf91950e0 x21=0x00000000
       43915000	      4390	800013ac	0a54a793	slti	x15,x9,165	  x9:0x00001fff x15=0x00000000
       43925000	      4391	800013b0	ff9948e3	blt	x18,x25,800013a0	 x18:0x00000007 x25:0x00000008
       43935000	      4392	00000000	00000013	addi	x0,x0,0	  x0:0x00000000
       43945000	      4393	8000139c	00000013	addi	x0,x0,0	  x0:0x00000000
       43955000	      4394	800013a0	3d1bb793	sltiu	x15,x23,977	 x23:0x00000000 x15=0x00000001
       43965000	      4395	800013a4	00290913	addi	x18,x18,2	 x18:0x00000007 x18=0x00000009
       43975000	      4396	800013a8	40a0dab3	sra	x21,x1,x10	  x1:0x00000000 x10:0xf91950e0 x21=0x00000000
       43985000	      4397	800013ac	0a54a793	slti	x15,x9,165	  x9:0x00001fff x15=0x00000000
       43995000	      4398	800013b0	ff9948e3	blt	x18,x25,800013a0	 x18:0x00000009 x25:0x00000008
       44005000	      4399	800013b4	005fdbb3	srl	x23,x31,x5	 x31:0x0abb61f8  x5:0xfffffffe x23=0x00000000
       44015000	      4400	800013b8	fc5b00e3	beq	x22,x5,80001378	 x22:0xfffffff6  x5:0xfffffffe
       44025000	      4401	800013bc	4001d3b3	sra	x7,x3,x0	  x3:0x00000000  x0:0x00000000  x7=0x00000000
       44035000	      4402	800013c0	bc8df913	andi	x18,x27,-1080	 x27:0x00000006 x18=0x00000000
       44045000	      4403	800013c4	8ac48e13	addi	x28,x9,-1876	  x9:0x00001fff x28=0x000018ab
       44055000	      4404	800013c8	3cb77097	auipc	x1,0x3cb77	  x1=0xbcb783c4
       44065000	      4405	800013cc	41dd5593	srai	x11,x26,0x1d	 x26:0x0000000b x11=0x00000000
       44075000	      4406	800013d0	0077fc63	bgeu	x15,x7,800013e8	 x15:0x00000000  x7:0x00000000
       44085000	      4407	00000000	00000013	addi	x0,x0,0	  x0:0x00000000
       44095000	      4408	800013e4	00000013	addi	x0,x0,0	  x0:0x00000000
       44105000	      4409	800013e8	5b0be093	ori	x1,x23,1456	 x23:0x00000000  x1=0x000005b0
       44115000	      4410	800013ec	00eeeb33	or	x22,x29,x14	 x29:0x7f500000 x14:0x80009fc4 x22=0xff509fc4
       44125000	      4411	800013f0	a8bb2393	slti	x7,x22,-1397	 x22:0xff509fc4  x7=0x00000001
       44135000	      4412	800013f4	04517863	bgeu	x2,x5,80001444	  x2:0xffffffff  x5:0xfffffffe
       44145000	      4413	00000000	00000013	addi	x0,x0,0	  x0:0x00000000
       44155000	      4414	80001440	00000013	addi	x0,x0,0	  x0:0x00000000
       44165000	      4415	80001444	015bdb13	srli	x22,x23,0x15	 x23:0x00000000 x22=0x00000000
       44175000	      4416	80001448	405d8db3	sub	x27,x27,x5	 x27:0x00000006  x5:0xfffffffe x27=0x00000008
       44185000	      4417	8000144c	000d03b3	add	x7,x26,x0	 x26:0x0000000b  x0:0x00000000  x7=0x0000000b
       44195000	      4418	80001450	bb6bba13	sltiu	x20,x23,-1098	 x23:0x00000000 x20=0x00000001
       44205000	      4419	80001454	aec58d93	addi	x27,x11,-1300	 x11:0x00000000 x27=0xfffffaec
       44215000	      4420	80001458	7964ed93	ori	x27,x9,1942	  x9:0x00001fff x27=0x00001fff
       44225000	      4421	8000145c	05245063	bge	x8,x18,8000149c	  x8:0x29350000 x18:0x00000000
       44235000	      4422	00000000	00000013	addi	x0,x0,0	  x0:0x00000000
       44245000	      4423	80001498	00000013	addi	x0,x0,0	  x0:0x00000000
       44255000	      4424	8000149c	00000013	addi	x0,x0,0	  x0:0x00000000
       44265000	      4425	800014a0	002e7b33	and	x22,x28,x2	 x28:0x000018ab  x2:0xffffffff x22=0x000018ab
       44275000	      4426	800014a4	40908eb3	sub	x29,x1,x9	  x1:0x000005b0  x9:0x00001fff x29=0xffffe5b1
       44285000	      4427	800014a8	00000013	addi	x0,x0,0	  x0:0x00000000
       44295000	      4428	800014ac	237fd117	auipc	x2,0x237fd	  x2=0xa37fe4a8
       44305000	      4429	800014b0	859e0a97	auipc	x21,0x859e0	 x21=0x059e14ac
       44315000	      4430	800014b4	00075bb3	srl	x23,x14,x0	 x14:0x80009fc4  x0:0x00000000 x23=0x80009fc4
       44325000	      4431	800014b8	f90e7913	andi	x18,x28,-112	 x28:0x000018ab x18=0x00001880
       44335000	      4432	800014bc	83020893	addi	x17,x4,-2000	  x4:0xfea00000 x17=0xfe9ff830
       44345000	      4433	800014c0	005e5863	bge	x28,x5,800014d0	 x28:0x000018ab  x5:0xfffffffe
       44355000	      4434	00000000	00000013	addi	x0,x0,0	  x0:0x00000000
       44365000	      4435	800014cc	00000013	addi	x0,x0,0	  x0:0x00000000
       44375000	      4436	800014d0	ed314797	auipc	x15,0xed314	 x15=0x6d3154cc
       44385000	      4437	800014d4	01220fb3	add	x31,x4,x18	  x4:0xfea00000 x18:0x00001880 x31=0xfea01880
       44395000	      4438	800014d8	01155593	srli	x11,x10,0x11	 x10:0xf91950e0 x11=0x00007c8c
       44405000	      4439	800014dc	01e92c33	slt	x24,x18,x30	 x18:0x00001880 x30:0x80009f34 x24=0x00000000
       44415000	      4440	800014e0	80314db7	lui	x27,0x80314	 x27=0x80314000
       44425000	      4441	800014e4	029f5a63	bge	x30,x9,80001518	 x30:0x80009f34  x9:0x00001fff
       44435000	      4442	800014e8	00d037b3	sltu	x15,x0,x13	  x0:0x00000000 x13:0x0000055d x15=0x00000001
       44445000	      4443	800014ec	02764e63	blt	x12,x7,80001528	 x12:0x000007dd  x7:0x0000000b
       44455000	      4444	800014f0	008408b3	add	x17,x8,x8	  x8:0x29350000  x8:0x29350000 x17=0x526a0000
       44465000	      4445	800014f4	01a91413	slli	x8,x18,0x1a	 x18:0x00001880  x8=0x00000000
       44475000	      4446	800014f8	fbcc62b7	lui	x5,0xfbcc6	  x5=0xfbcc6000
       44485000	      4447	800014fc	d2436613	ori	x12,x6,-732	  x6:0x9f524000 x12=0xfffffd24
       44495000	      4448	80001500	01f5d413	srli	x8,x11,0x1f	 x11:0x00007c8c  x8=0x00000000
       44505000	      4449	80001504	002e9bb3	sll	x23,x29,x2	 x29:0xffffe5b1  x2:0xa37fe4a8 x23=0xffe5b100
       44515000	      4450	80001508	dc6f1197	auipc	x3,0xdc6f1	  x3=0x5c6f2504
       44525000	      4451	8000150c	00c0c433	xor	x8,x1,x12	  x1:0x000005b0 x12:0xfffffd24  x8=0xfffff894
       44535000	      4452	80001510	69842213	slti	x4,x8,1688	  x8:0xfffff894  x4=0x00000001
       44545000	      4453	80001514	01445bb3	srl	x23,x8,x20	  x8:0xfffff894 x20:0x00000001 x23=0x7ffffc4a
       44555000	      4454	80001518	5484e017	auipc	x0,0x5484e	
       44565000	      4455	8000151c	01d153b3	srl	x7,x2,x29	  x2:0xa37fe4a8 x29:0xffffe5b1  x7=0x000051bf
       44575000	      4456	80001520	01e14cb3	xor	x25,x2,x30	  x2:0xa37fe4a8 x30:0x80009f34 x25=0x237f7b9c
       44585000	      4457	80001524	40eadb33	sra	x22,x21,x14	 x21:0x059e14ac x14:0x80009fc4 x22=0x0059e14a
       44595000	      4458	80001528	0502f863	bgeu	x5,x16,80001578	  x5:0xfbcc6000 x16:0x00000003
       44605000	      4459	00000000	00000013	addi	x0,x0,0	  x0:0x00000000
       44615000	      4460	80001574	00000013	addi	x0,x0,0	  x0:0x00000000
       44625000	      4461	80001578	00cf1133	sll	x2,x30,x12	 x30:0x80009f34 x12:0xfffffd24  x2=0x0009f340
       44635000	      4462	8000157c	04691663	bne	x18,x6,800015c8	 x18:0x00001880  x6:0x9f524000
       44645000	      4463	00000000	00000013	addi	x0,x0,0	  x0:0x00000000
       44655000	      4464	800015c4	00000013	addi	x0,x0,0	  x0:0x00000000
       44665000	      4465	800015c8	401e0b33	sub	x22,x28,x1	 x28:0x000018ab  x1:0x000005b0 x22=0x000012fb
       44675000	      4466	800015cc	41bd0233	sub	x4,x26,x27	 x26:0x0000000b x27:0x80314000  x4=0x7fcec00b
       44685000	      4467	800015d0	557ea193	slti	x3,x29,1367	 x29:0xffffe5b1  x3=0x00000001
       44695000	      4468	800015d4	01effc63	bgeu	x31,x30,800015ec	 x31:0xfea01880 x30:0x80009f34
       44705000	      4469	00000000	00000013	addi	x0,x0,0	  x0:0x00000000
       44715000	      4470	800015e8	00000013	addi	x0,x0,0	  x0:0x00000000
       44725000	      4471	800015ec	00b25193	srli	x3,x4,0xb	  x4:0x7fcec00b  x3=0x000ff9d8
       44735000	      4472	800015f0	013cd493	srli	x9,x25,0x13	 x25:0x237f7b9c  x9=0x0000046f
       44745000	      4473	800015f4	014443b3	xor	x7,x8,x20	  x8:0xfffff894 x20:0x00000001  x7=0xfffff895
       44755000	      4474	800015f8	4b410093	addi	x1,x2,1204	  x2:0x0009f340  x1=0x0009f7f4
       44765000	      4475	800015fc	0225c263	blt	x11,x2,80001620	 x11:0x00007c8c  x2:0x0009f340
       44775000	      4476	00000000	00000013	addi	x0,x0,0	  x0:0x00000000
       44785000	      4477	8000161c	00000013	addi	x0,x0,0	  x0:0x00000000
       44795000	      4478	80001620	44788e93	addi	x29,x17,1095	 x17:0x526a0000 x29=0x526a0447
       44805000	      4479	80001624	0068c533	xor	x10,x17,x6	 x17:0x526a0000  x6:0x9f524000 x10=0xcd384000
       44815000	      4480	80001628	01e0a1b3	slt	x3,x1,x30	  x1:0x0009f7f4 x30:0x80009f34  x3=0x00000000
       44825000	      4481	8000162c	ff700f93	addi	x31,x0,-9	  x0:0x00000000 x31=0xfffffff7
       44835000	      4482	80001630	01701133	sll	x2,x0,x23	  x0:0x00000000 x23:0x7ffffc4a  x2=0x00000000
       44845000	      4483	80001634	ffb00613	addi	x12,x0,-5	  x0:0x00000000 x12=0xfffffffb
       44855000	      4484	80001638	45822513	slti	x10,x4,1112	  x4:0x7fcec00b x10=0x00000000
       44865000	      4485	8000163c	007419b3	sll	x19,x8,x7	  x8:0xfffff894  x7:0xfffff895 x19=0x12800000
       44875000	      4486	80001640	ab653913	sltiu	x18,x10,-1354	 x10:0x00000000 x18=0x00000001
       44885000	      4487	80001644	004f8f93	addi	x31,x31,4	 x31:0xfffffff7 x31=0xfffffffb
       44895000	      4488	80001648	00d5cb33	xor	x22,x11,x13	 x11:0x00007c8c x13:0x0000055d x22=0x000079d1
       44905000	      4489	8000164c	00800793	addi	x15,x0,8	  x0:0x00000000 x15=0x00000008
       44915000	      4490	80001650	ffd00d93	addi	x27,x0,-3	  x0:0x00000000 x27=0xfffffffd
       44925000	      4491	80001654	41dc0533	sub	x10,x24,x29	 x24:0x00000000 x29:0x526a0447 x10=0xad95fbb9
       44935000	      4492	80001658	40e1d013	srai	x0,x3,0xe	  x3:0x00000000
       44945000	      4493	8000165c	6ee4b893	sltiu	x17,x9,1774	  x9:0x0000046f x17=0x00000001
       44955000	      4494	80001660	ff978793	addi	x15,x15,-7	 x15:0x00000008 x15=0x00000001
       44965000	      4495	80001664	00000013	addi	x0,x0,0	  x0:0x00000000
       44975000	      4496	80001668	ffb7d6e3	bge	x15,x27,80001654	 x15:0x00000001 x27:0xfffffffd
       44985000	      4497	00000000	00000013	addi	x0,x0,0	  x0:0x00000000
       44995000	      4498	80001650	00000013	addi	x0,x0,0	  x0:0x00000000
       45005000	      4499	80001654	41dc0533	sub	x10,x24,x29	 x24:0x00000000 x29:0x526a0447 x10=0xad95fbb9
       45015000	      4500	80001658	40e1d013	srai	x0,x3,0xe	  x3:0x00000000
       45025000	      4501	8000165c	6ee4b893	sltiu	x17,x9,1774	  x9:0x0000046f x17=0x00000001
       45035000	      4502	80001660	ff978793	addi	x15,x15,-7	 x15:0x00000001 x15=0xfffffffa
       45045000	      4503	80001664	00000013	addi	x0,x0,0	  x0:0x00000000
       45055000	      4504	80001668	ffb7d6e3	bge	x15,x27,80001654	 x15:0xfffffffa x27:0xfffffffd
       45065000	      4505	8000166c	68573e97	auipc	x29,0x68573	 x29=0xe8574668
       45075000	      4506	80001670	40dd5bb3	sra	x23,x26,x13	 x26:0x0000000b x13:0x0000055d x23=0x00000000
       45085000	      4507	80001674	41b203b3	sub	x7,x4,x27	  x4:0x7fcec00b x27:0xfffffffd  x7=0x7fcec00e
       45095000	      4508	80001678	015d5513	srli	x10,x26,0x15	 x26:0x0000000b x10=0x00000000
       45105000	      4509	8000167c	3dc79317	auipc	x6,0x3dc79	  x6=0xbdc7a678
       45115000	      4510	80001680	00000013	addi	x0,x0,0	  x0:0x00000000
       45125000	      4511	80001684	b0bd1497	auipc	x9,0xb0bd1	  x9=0x30bd2680
       45135000	      4512	80001688	d00069b7	lui	x19,0xd0006	 x19=0xd0006000
       45145000	      4513	8000168c	011a9193	slli	x3,x21,0x11	 x21:0x059e14ac  x3=0x29580000
       45155000	      4514	80001690	0115a9b3	slt	x19,x11,x17	 x11:0x00007c8c x17:0x00000001 x19=0x00000000
       45165000	      4515	80001694	01d3a4b3	slt	x9,x7,x29	  x7:0x7fcec00e x29:0xe8574668  x9=0x00000000
       45175000	      4516	80001698	00ce1a13	slli	x20,x28,0xc	 x28:0x000018ab x20=0x018ab000
       45185000	      4517	8000169c	facf92e3	bne	x31,x12,80001640	 x31:0xfffffffb x12:0xfffffffb
       45195000	      4518	800016a0	00000013	addi	x0,x0,0	  x0:0x00000000
       45205000	      4519	800016a4	0184dc13	srli	x24,x9,0x18	  x9:0x00000000 x24=0x00000000
       45215000	      4520	800016a8	8fab8517	auipc	x10,0x8fab8	 x10=0x0fab96a4
       45225000	      4521	800016ac	4a7fcf93	xori	x31,x31,1191	 x31:0xfffffffb x31=0xfffffb5c
       45235000	      4522	800016b0	00000013	addi	x0,x0,0	  x0:0x00000000
       45245000	      4523	800016b4	01bf0463	beq	x30,x27,800016bc	 x30:0x80009f34 x27:0xfffffffd
       45255000	      4524	800016b8	015231b3	sltu	x3,x4,x21	  x4:0x7fcec00b x21:0x059e14ac  x3=0x00000000
       45265000	      4525	800016bc	d1330c13	addi	x24,x6,-749	  x6:0xbdc7a678 x24=0xbdc7a38b
       45275000	      4526	800016c0	01f8d6b3	srl	x13,x17,x31	 x17:0x00000001 x31:0xfffffb5c x13=0x00000000
       45285000	      4527	800016c4	006b52b3	srl	x5,x22,x6	 x22:0x000079d1  x6:0xbdc7a678  x5=0x00000000
       45295000	      4528	800016c8	edf78293	addi	x5,x15,-289	 x15:0xfffffffa  x5=0xfffffed9
       45305000	      4529	800016cc	019bfa63	bgeu	x23,x25,800016e0	 x23:0x00000000 x25:0x237f7b9c
       45315000	      4530	800016d0	29cff313	andi	x6,x31,668	 x31:0xfffffb5c  x6=0x0000021c
       45325000	      4531	800016d4	018adb93	srli	x23,x21,0x18	 x21:0x059e14ac x23=0x00000005
       45335000	      4532	800016d8	00000013	addi	x0,x0,0	  x0:0x00000000
       45345000	      4533	800016dc	00a29db3	sll	x27,x5,x10	  x5:0xfffffed9 x10:0x0fab96a4 x27=0xffffed90
       45355000	      4534	800016e0	b543f413	andi	x8,x7,-1196	  x7:0x7fcec00e  x8=0x7fcec004
       45365000	      4535	800016e4	00a50bb3	add	x23,x10,x10	 x10:0x0fab96a4 x10:0x0fab96a4 x23=0x1f572d48
       45375000	      4536	800016e8	0d462a93	slti	x21,x12,212	 x12:0xfffffffb x21=0x00000001
       45385000	      4537	800016ec	40ad0333	sub	x6,x26,x10	 x26:0x0000000b x10:0x0fab96a4  x6=0xf0546967
       45395000	      4538	800016f0	05624863	blt	x4,x22,80001740	  x4:0x7fcec00b x22:0x000079d1
       45405000	      4539	800016f4	418002b3	sub	x5,x0,x24	  x0:0x00000000 x24:0xbdc7a38b  x5=0x42385c75
       45415000	      4540	800016f8	40895e93	srai	x29,x18,0x8	 x18:0x00000001 x29=0x00000000
       45425000	      4541	800016fc	01b3f0b3	and	x1,x7,x27	  x7:0x7fcec00e x27:0xffffed90  x1=0x7fcec000
       45435000	      4542	80001700	532a6213	ori	x4,x20,1330	 x20:0x018ab000  x4=0x018ab532
       45445000	      4543	80001704	5120a693	slti	x13,x1,1298	  x1:0x7fcec000 x13=0x00000000
       45455000	      4544	80001708	03131663	bne	x6,x17,80001734	  x6:0xf0546967 x17:0x00000001
       45465000	      4545	00000000	00000013	addi	x0,x0,0	  x0:0x00000000
       45475000	      4546	80001730	00000013	addi	x0,x0,0	  x0:0x00000000
       45485000	      4547	80001734	410802b3	sub	x5,x16,x16	 x16:0x00000003 x16:0x00000003  x5=0x00000000
       45495000	      4548	80001738	9ba11397	auipc	x7,0x9ba11	  x7=0x1ba12734
       45505000	      4549	8000173c	003cc263	blt	x25,x3,80001740	 x25:0x237f7b9c  x3:0x00000000
       45515000	      4550	80001740	006cde33	srl	x28,x25,x6	 x25:0x237f7b9c  x6:0xf0546967 x28=0x0046fef7
       45525000	      4551	80001744	4162da13	srai	x20,x5,0x16	  x5:0x00000000 x20=0x00000000
       45535000	      4552	80001748	17700493	addi	x9,x0,375	  x0:0x00000000  x9=0x00000177
       45545000	      4553	8000174c	00d4cb33	xor	x22,x9,x13	  x9:0x00000177 x13:0x00000000 x22=0x00000177
       45555000	      4554	80001750	f0784593	xori	x11,x16,-249	 x16:0x00000003 x11=0xffffff04
       45565000	      4555	80001754	00ea5b33	srl	x22,x20,x14	 x20:0x00000000 x14:0x80009fc4 x22=0x00000000
       45575000	      4556	80001758	41168533	sub	x10,x13,x17	 x13:0x00000000 x17:0x00000001 x10=0xffffffff
       45585000	      4557	8000175c	f27b7137	lui	x2,0xf27b7	  x2=0xf27b7000
       45595000	      4558	80001760	009f9233	sll	x4,x31,x9	 x31:0xfffffb5c  x9:0x00000177  x4=0xae000000
       45605000	      4559	80001764	adf40d93	addi	x27,x8,-1313	  x8:0x7fcec004 x27=0x7fcebae3
       45615000	      4560	80001768	003a5db3	srl	x27,x20,x3	 x20:0x00000000  x3:0x00000000 x27=0x00000000
       45625000	      4561	8000176c	0061de93	srli	x29,x3,0x6	  x3:0x00000000 x29=0x00000000
       45635000	      4562	80001770	0086d493	srli	x9,x13,0x8	 x13:0x00000000  x9=0x00000000
       45645000	      4563	80001774	01ad3933	sltu	x18,x26,x26	 x26:0x0000000b x26:0x0000000b x18=0x00000000
       45655000	      4564	80001778	a08212b7	lui	x5,0xa0821	  x5=0xa0821000
       45665000	      4565	8000177c	df91e297	auipc	x5,0xdf91e	  x5=0x5f91f778
       45675000	      4566	80001780	40450bb3	sub	x23,x10,x4	 x10:0xffffffff  x4:0xae000000 x23=0x51ffffff
       45685000	      4567	80001784	004fb4b3	sltu	x9,x31,x4	 x31:0xfffffb5c  x4:0xae000000  x9=0x00000000
       45695000	      4568	80001788	003427b3	slt	x15,x8,x3	  x8:0x7fcec004  x3:0x00000000 x15=0x00000000
       45705000	      4569	8000178c	00b1dc13	srli	x24,x3,0xb	  x3:0x00000000 x24=0x00000000
       45715000	      4570	80001790	01d39913	slli	x18,x7,0x1d	  x7:0x1ba12734 x18=0x80000000
       45725000	      4571	80001794	00545193	srli	x3,x8,0x5	  x8:0x7fcec004  x3=0x03fe7600
       45735000	      4572	80001798	00418e33	add	x28,x3,x4	  x3:0x03fe7600  x4:0xae000000 x28=0xb1fe7600
       45745000	      4573	8000179c	3ab5f613	andi	x12,x11,939	 x11:0xffffff04 x12=0x00000300
       45755000	      4574	800017a0	0044d113	srli	x2,x9,0x4	  x9:0x00000000  x2=0x00000000
       45765000	      4575	800017a4	0172ea63	bltu	x5,x23,800017b8	  x5:0x5f91f778 x23:0x51ffffff
       45775000	      4576	800017a8	040ac063	blt	x21,x0,800017e8	 x21:0x00000001  x0:0x00000000
       45785000	      4577	800017ac	003f62b3	or	x5,x30,x3	 x30:0x80009f34  x3:0x03fe7600  x5=0x83feff34
       45795000	      4578	800017b0	0006d4b3	srl	x9,x13,x0	 x13:0x00000000  x0:0x00000000  x9=0x00000000
       45805000	      4579	800017b4	7ecf8413	addi	x8,x31,2028	 x31:0xfffffb5c  x8=0x00000348
       45815000	      4580	800017b8	002db4b3	sltu	x9,x27,x2	 x27:0x00000000  x2:0x00000000  x9=0x00000000
       45825000	      4581	800017bc	c3037393	andi	x7,x6,-976	  x6:0xf0546967  x7=0xf0546820
       45835000	      4582	800017c0	013a6263	bltu	x20,x19,800017c4	 x20:0x00000000 x19:0x00000000
       45845000	      4583	800017c4	0037d1b3	srl	x3,x15,x3	 x15:0x00000000  x3:0x03fe7600  x3=0x00000000
       45855000	      4584	800017c8	9a0aa113	slti	x2,x21,-1632	 x21:0x00000001  x2=0x00000000
       45865000	      4585	800017cc	92b46793	ori	x15,x8,-1749	  x8:0x00000348 x15=0xfffffb6b
       45875000	      4586	800017d0	00cc0033	add	x0,x24,x12	 x24:0x00000000 x12:0x00000300
       45885000	      4587	800017d4	01e29d93	slli	x27,x5,0x1e	  x5:0x83feff34 x27=0x00000000
       45895000	      4588	800017d8	00d599b3	sll	x19,x11,x13	 x11:0xffffff04 x13:0x00000000 x19=0xffffff04
       45905000	      4589	800017dc	01102633	slt	x12,x0,x17	  x0:0x00000000 x17:0x00000001 x12=0x00000001
       45915000	      4590	800017e0	01247433	and	x8,x8,x18	  x8:0x00000348 x18:0x80000000  x8=0x00000000
       45925000	      4591	800017e4	1ee4c613	xori	x12,x9,494	  x9:0x00000000 x12=0x000001ee
       45935000	      4592	800017e8	01135cb3	srl	x25,x6,x17	  x6:0xf0546967 x17:0x00000001 x25=0x782a34b3
       45945000	      4593	800017ec	00b32333	slt	x6,x6,x11	  x6:0xf0546967 x11:0xffffff04  x6=0x00000001
       45955000	      4594	800017f0	00d84133	xor	x2,x16,x13	 x16:0x00000003 x13:0x00000000  x2=0x00000003
       45965000	      4595	800017f4	05e8f263	bgeu	x17,x30,80001838	 x17:0x00000001 x30:0x80009f34
       45975000	      4596	800017f8	55daef93	ori	x31,x21,1373	 x21:0x00000001 x31=0x0000055d
       45985000	      4597	800017fc	0093d813	srli	x16,x7,0x9	  x7:0xf0546820 x16=0x00782a34
       45995000	      4598	80001800	00530833	add	x16,x6,x5	  x6:0x00000001  x5:0x83feff34 x16=0x83feff35
       46005000	      4599	80001804	40d486b3	sub	x13,x9,x13	  x9:0x00000000 x13:0x00000000 x13=0x00000000
       46015000	      4600	80001808	884dc497	auipc	x9,0x884dc	  x9=0x084dd804
       46025000	      4601	8000180c	01228333	add	x6,x5,x18	  x5:0x83feff34 x18:0x80000000  x6=0x03feff34
       46035000	      4602	80001810	416d8133	sub	x2,x27,x22	 x27:0x00000000 x22:0x00000000  x2=0x00000000
       46045000	      4603	80001814	02260263	beq	x12,x2,80001838	 x12:0x000001ee  x2:0x00000000
       46055000	      4604	80001818	f9fb8093	addi	x1,x23,-97	 x23:0x51ffffff  x1=0x51ffff9e
       46065000	      4605	8000181c	043ef463	bgeu	x29,x3,80001864	 x29:0x00000000  x3:0x00000000
       46075000	      4606	00000000	00000013	addi	x0,x0,0	  x0:0x00000000
       46085000	      4607	80001860	00000013	addi	x0,x0,0	  x0:0x00000000
       46095000	      4608	80001864	054de263	bltu	x27,x20,800018a8	 x27:0x00000000 x20:0x00000000
       46105000	      4609	80001868	41a25213	srai	x4,x4,0x1a	  x4:0xae000000  x4=0xffffffeb
       46115000	      4610	8000186c	04a65463	bge	x12,x10,800018b4	 x12:0x000001ee x10:0xffffffff
       46125000	      4611	00000000	00000013	addi	x0,x0,0	  x0:0x00000000
       46135000	      4612	800018b0	00000013	addi	x0,x0,0	  x0:0x00000000
       46145000	      4613	800018b4	00b85e93	srli	x29,x16,0xb	 x16:0x83feff35 x29=0x00107fdf
       46155000	      4614	800018b8	53d30393	addi	x7,x6,1341	  x6:0x03feff34  x7=0x03ff0471
       46165000	      4615	800018bc	9d2b4e93	xori	x29,x22,-1582	 x22:0x00000000 x29=0xfffff9d2
       46175000	      4616	800018c0	014d5b33	srl	x22,x26,x20	 x26:0x0000000b x20:0x00000000 x22=0x0000000b
       46185000	      4617	800018c4	ef057e93	andi	x29,x10,-272	 x10:0xffffffff x29=0xfffffef0
       46195000	      4618	800018c8	0575d863	bge	x11,x23,80001918	 x11:0xffffff04 x23:0x51ffffff
       46205000	      4619	800018cc	00000013	addi	x0,x0,0	  x0:0x00000000
       46215000	      4620	800018d0	416bd133	sra	x2,x23,x22	 x23:0x51ffffff x22:0x0000000b  x2=0x000a3fff
       46225000	      4621	800018d4	00624463	blt	x4,x6,800018dc	  x4:0xffffffeb  x6:0x03feff34
       46235000	      4622	00000000	00000013	addi	x0,x0,0	  x0:0x00000000
       46245000	      4623	800018d8	00000013	addi	x0,x0,0	  x0:0x00000000
       46255000	      4624	800018dc	036f9263	bne	x31,x22,80001900	 x31:0x0000055d x22:0x0000000b
       46265000	      4625	00000000	00000013	addi	x0,x0,0	  x0:0x00000000
       46275000	      4626	800018fc	00000013	addi	x0,x0,0	  x0:0x00000000
       46285000	      4627	80001900	004af263	bgeu	x21,x4,80001904	 x21:0x00000001  x4:0xffffffeb
       46295000	      4628	80001904	48796e93	ori	x29,x18,1159	 x18:0x80000000 x29=0x80000487
       46305000	      4629	80001908	02a67263	bgeu	x12,x10,8000192c	 x12:0x000001ee x10:0xffffffff
       46315000	      4630	8000190c	00e528b3	slt	x17,x10,x14	 x10:0xffffffff x14:0x80009fc4 x17=0x00000000
       46325000	      4631	80001910	008a9793	slli	x15,x21,0x8	 x21:0x00000001 x15=0x00000100
       46335000	      4632	80001914	053b7463	bgeu	x22,x19,8000195c	 x22:0x0000000b x19:0xffffff04
       46345000	      4633	80001918	053fd863	bge	x31,x19,80001968	 x31:0x0000055d x19:0xffffff04
       46355000	      4634	00000000	00000013	addi	x0,x0,0	  x0:0x00000000
       46365000	      4635	80001964	00000013	addi	x0,x0,0	  x0:0x00000000
       46375000	      4636	80001968	407b00b3	sub	x1,x22,x7	 x22:0x0000000b  x7:0x03ff0471  x1=0xfc00fb9a
       46385000	      4637	8000196c	00043233	sltu	x4,x8,x0	  x8:0x00000000  x0:0x00000000  x4=0x00000000
       46395000	      4638	80001970	01b28cb3	add	x25,x5,x27	  x5:0x83feff34 x27:0x00000000 x25=0x83feff34
       46405000	      4639	80001974	9b5c3117	auipc	x2,0x9b5c3	  x2=0x1b5c4970
       46415000	      4640	80001978	01a19533	sll	x10,x3,x26	  x3:0x00000000 x26:0x0000000b x10=0x00000000
       46425000	      4641	8000197c	181fe393	ori	x7,x31,385	 x31:0x0000055d  x7=0x000005dd
       46435000	      4642	80001980	2f0a8993	addi	x19,x21,752	 x21:0x00000001 x19=0x000002f1
       46445000	      4643	80001984	00d0ba33	sltu	x20,x1,x13	  x1:0xfc00fb9a x13:0x00000000 x20=0x00000000
       46455000	      4644	80001988	03cd7463	bgeu	x26,x28,800019b0	 x26:0x0000000b x28:0xb1fe7600
       46465000	      4645	8000198c	00a39a93	slli	x21,x7,0xa	  x7:0x000005dd x21=0x00177400
       46475000	      4646	80001990	49febe13	sltiu	x28,x29,1183	 x29:0x80000487 x28=0x00000000
       46485000	      4647	80001994	651bfb93	andi	x23,x23,1617	 x23:0x51ffffff x23=0x00000651
       46495000	      4648	80001998	d8f48313	addi	x6,x9,-625	  x9:0x084dd804  x6=0x084dd593
       46505000	      4649	8000199c	016de633	or	x12,x27,x22	 x27:0x00000000 x22:0x0000000b x12=0x0000000b
       46515000	      4650	800019a0	d065b393	sltiu	x7,x11,-762	 x11:0xffffff04  x7=0x00000000
       46525000	      4651	800019a4	017d1313	slli	x6,x26,0x17	 x26:0x0000000b  x6=0x05800000
       46535000	      4652	800019a8	009c4463	blt	x24,x9,800019b0	 x24:0x00000000  x9:0x084dd804
       46545000	      4653	00000000	00000013	addi	x0,x0,0	  x0:0x00000000
       46555000	      4654	800019ac	00000013	addi	x0,x0,0	  x0:0x00000000
       46565000	      4655	800019b0	004ee2b3	or	x5,x29,x4	 x29:0x80000487  x4:0x00000000  x5=0x80000487
       46575000	      4656	800019b4	004f2583	lw	x11,4(x30)	 x30:0x80009f34 x11=0x80002528 PA:0x80009f38
       46585000	      4657	800019b8	011093b3	sll	x7,x1,x17	  x1:0xfc00fb9a x17:0x00000000  x7=0xfc00fb9a
       46595000	      4658	800019bc	00ba5e13	srli	x28,x20,0xb	 x20:0x00000000 x28=0x00000000
       46605000	      4659	800019c0	006e9393	slli	x7,x29,0x6	 x29:0x80000487  x7=0x000121c0
       46615000	      4660	800019c4	4032d1b3	sra	x3,x5,x3	  x5:0x80000487  x3:0x00000000  x3=0x80000487
       46625000	      4661	800019c8	00000013	addi	x0,x0,0	  x0:0x00000000
       46635000	      4662	800019cc	01cf0f13	addi	x30,x30,28	 x30:0x80009f34 x30=0x80009f50
       46645000	      4663	800019d0	a100b393	sltiu	x7,x1,-1520	  x1:0xfc00fb9a  x7=0x00000001
       46655000	      4664	800019d4	94522793	slti	x15,x4,-1723	  x4:0x00000000 x15=0x00000000
       46665000	      4665	800019d8	00058113	addi	x2,x11,0	 x11:0x80002528  x2=0x80002528
       46675000	      4666	800019dc	00010167	jalr	x2,x2,0	  x2:0x80002528  x2=0x800019dc
       46685000	      4667	00000000	00000013	addi	x0,x0,0	  x0:0x00000000
       46695000	      4668	80002528	00000013	addi	x0,x0,0	  x0:0x00000000
       46705000	      4669	8000252c	40b7d5b3	sra	x11,x15,x11	 x15:0x00000000 x11:0x80002528 x11=0x00000000
       46715000	      4670	80002530	00e85113	srli	x2,x16,0xe	 x16:0x83feff35  x2=0x00020ffb
       46725000	      4671	80002534	83b77193	andi	x3,x14,-1989	 x14:0x80009fc4  x3=0x80009800
       46735000	      4672	80002538	40085933	sra	x18,x16,x0	 x16:0x83feff35  x0:0x00000000 x18=0x83feff35
       46745000	      4673	8000253c	01d1da63	bge	x3,x29,80002550	  x3:0x80009800 x29:0x80000487
       46755000	      4674	00000000	00000013	addi	x0,x0,0	  x0:0x00000000
       46765000	      4675	8000254c	00000013	addi	x0,x0,0	  x0:0x00000000
       46775000	      4676	80002550	004d6c63	bltu	x26,x4,80002568	 x26:0x0000000b  x4:0x00000000
       46785000	      4677	80002554	04369863	bne	x13,x3,800025a4	 x13:0x00000000  x3:0x80009800
       46795000	      4678	00000000	00000013	addi	x0,x0,0	  x0:0x00000000
       46805000	      4679	800025a0	00000013	addi	x0,x0,0	  x0:0x00000000
       46815000	      4680	800025a4	41efd593	srai	x11,x31,0x1e	 x31:0x0000055d x11=0x00000000
       46825000	      4681	800025a8	10718d93	addi	x27,x3,263	  x3:0x80009800 x27=0x80009907
       46835000	      4682	800025ac	b918c9b7	lui	x19,0xb918c	 x19=0xb918c000
       46845000	      4683	800025b0	0456d263	bge	x13,x5,800025f4	 x13:0x00000000  x5:0x80000487
       46855000	      4684	00000000	00000013	addi	x0,x0,0	  x0:0x00000000
       46865000	      4685	800025f0	00000013	addi	x0,x0,0	  x0:0x00000000
       46875000	      4686	800025f4	01f0bab3	sltu	x21,x1,x31	  x1:0xfc00fb9a x31:0x0000055d x21=0x00000000
       46885000	      4687	800025f8	00a68c33	add	x24,x13,x10	 x13:0x00000000 x10:0x00000000 x24=0x00000000
       46895000	      4688	800025fc	411b50b3	sra	x1,x22,x17	 x22:0x0000000b x17:0x00000000  x1=0x0000000b
       46905000	      4689	80002600	00678e33	add	x28,x15,x6	 x15:0x00000000  x6:0x05800000 x28=0x05800000
       46915000	      4690	80002604	0096de13	srli	x28,x13,0x9	 x13:0x00000000 x28=0x00000000
       46925000	      4691	80002608	03877a63	bgeu	x14,x24,8000263c	 x14:0x80009fc4 x24:0x00000000
       46935000	      4692	00000000	00000013	addi	x0,x0,0	  x0:0x00000000
       46945000	      4693	80002638	00000013	addi	x0,x0,0	  x0:0x00000000
       46955000	      4694	8000263c	00daf463	bgeu	x21,x13,80002644	 x21:0x00000000 x13:0x00000000
       46965000	      4695	00000000	00000013	addi	x0,x0,0	  x0:0x00000000
       46975000	      4696	80002640	00000013	addi	x0,x0,0	  x0:0x00000000
       46985000	      4697	80002644	00af00b3	add	x1,x30,x10	 x30:0x80009f50 x10:0x00000000  x1=0x80009f50
       46995000	      4698	80002648	41bf5d93	srai	x27,x30,0x1b	 x30:0x80009f50 x27=0xfffffff0
       47005000	      4699	8000264c	01ce19b3	sll	x19,x28,x28	 x28:0x00000000 x28:0x00000000 x19=0x00000000
       47015000	      4700	80002650	01153ab3	sltu	x21,x10,x17	 x10:0x00000000 x17:0x00000000 x21=0x00000000
       47025000	      4701	80002654	0064dc13	srli	x24,x9,0x6	  x9:0x084dd804 x24=0x00213760
       47035000	      4702	80002658	052fc863	blt	x31,x18,800026a8	 x31:0x0000055d x18:0x83feff35
       47045000	      4703	8000265c	16f3ec93	ori	x25,x7,367	  x7:0x00000001 x25=0x0000016f
       47055000	      4704	80002660	4025d2b3	sra	x5,x11,x2	 x11:0x00000000  x2:0x00020ffb  x5=0x00000000
       47065000	      4705	80002664	14e2a317	auipc	x6,0x14e2a	  x6=0x94e2c660
       47075000	      4706	80002668	4105d113	srai	x2,x11,0x10	 x11:0x00000000  x2=0x00000000
       47085000	      4707	8000266c	04f56263	bltu	x10,x15,800026b0	 x10:0x00000000 x15:0x00000000
       47095000	      4708	80002670	00d24c63	blt	x4,x13,80002688	  x4:0x00000000 x13:0x00000000
       47105000	      4709	80002674	540dc213	xori	x4,x27,1344	 x27:0xfffffff0  x4=0xfffffab0
       47115000	      4710	80002678	01da9db3	sll	x27,x21,x29	 x21:0x00000000 x29:0x80000487 x27=0x00000000
       47125000	      4711	8000267c	00165c13	srli	x24,x12,0x1	 x12:0x0000000b x24=0x00000005
       47135000	      4712	80002680	ee32e613	ori	x12,x5,-285	  x5:0x00000000 x12=0xfffffee3
       47145000	      4713	80002684	020fe863	bltu	x31,x0,800026b4	 x31:0x0000055d  x0:0x00000000
       47155000	      4714	80002688	00563533	sltu	x10,x12,x5	 x12:0xfffffee3  x5:0x00000000 x10=0x00000000
       47165000	      4715	8000268c	0038d193	srli	x3,x17,0x3	 x17:0x00000000  x3=0x00000000
       47175000	      4716	80002690	01a5ba33	sltu	x20,x11,x26	 x11:0x00000000 x26:0x0000000b x20=0x00000001
       47185000	      4717	80002694	01eddc63	bge	x27,x30,800026ac	 x27:0x00000000 x30:0x80009f50
       47195000	      4718	00000000	00000013	addi	x0,x0,0	  x0:0x00000000
       47205000	      4719	800026a8	00000013	addi	x0,x0,0	  x0:0x00000000
       47215000	      4720	800026ac	002a4863	blt	x20,x2,800026bc	 x20:0x00000001  x2:0x00000000
       47225000	      4721	800026b0	03897263	bgeu	x18,x24,800026d4	 x18:0x83feff35 x24:0x00000005
       47235000	      4722	00000000	00000013	addi	x0,x0,0	  x0:0x00000000
       47245000	      4723	800026d0	00000013	addi	x0,x0,0	  x0:0x00000000
       47255000	      4724	800026d4	e8a42937	lui	x18,0xe8a42	 x18=0xe8a42000
       47265000	      4725	800026d8	248be593	ori	x11,x23,584	 x23:0x00000651 x11=0x00000659
       47275000	      4726	800026dc	01c6dd93	srli	x27,x13,0x1c	 x13:0x00000000 x27=0x00000000
       47285000	      4727	800026e0	012494b3	sll	x9,x9,x18	  x9:0x084dd804 x18:0xe8a42000  x9=0x084dd804
       47295000	      4728	800026e4	01237b33	and	x22,x6,x18	  x6:0x94e2c660 x18:0xe8a42000 x22=0x80a00000
       47305000	      4729	800026e8	03268863	beq	x13,x18,80002718	 x13:0x00000000 x18:0xe8a42000
       47315000	      4730	800026ec	dcb47593	andi	x11,x8,-565	  x8:0x00000000 x11=0x00000000
       47325000	      4731	800026f0	dc023813	sltiu	x16,x4,-576	  x4:0xfffffab0 x16=0x00000001
       47335000	      4732	800026f4	02d14c63	blt	x2,x13,8000272c	  x2:0x00000000 x13:0x00000000
       47345000	      4733	800026f8	01c89793	slli	x15,x17,0x1c	 x17:0x00000000 x15=0x00000000
       47355000	      4734	800026fc	41050333	sub	x6,x10,x16	 x10:0x00000000 x16:0x00000001  x6=0xffffffff
       47365000	      4735	80002700	00b4d663	bge	x9,x11,8000270c	  x9:0x084dd804 x11:0x00000000
       47375000	      4736	00000000	00000013	addi	x0,x0,0	  x0:0x00000000
       47385000	      4737	80002708	00000013	addi	x0,x0,0	  x0:0x00000000
       47395000	      4738	8000270c	00600cb3	add	x25,x0,x6	  x0:0x00000000  x6:0xffffffff x25=0xffffffff
       47405000	      4739	80002710	2eb741b7	lui	x3,0x2eb74	  x3=0x2eb74000
       47415000	      4740	80002714	0200e263	bltu	x1,x0,80002738	  x1:0x80009f50  x0:0x00000000
       47425000	      4741	80002718	01f61a13	slli	x20,x12,0x1f	 x12:0xfffffee3 x20=0x80000000
       47435000	      4742	8000271c	00eca7b3	slt	x15,x25,x14	 x25:0xffffffff x14:0x80009fc4 x15=0x00000000
       47445000	      4743	80002720	014a9793	slli	x15,x21,0x14	 x21:0x00000000 x15=0x00000000
       47455000	      4744	80002724	b8ffa013	slti	x0,x31,-1137	 x31:0x0000055d
       47465000	      4745	80002728	00eacc63	blt	x21,x14,80002740	 x21:0x00000000 x14:0x80009fc4
       47475000	      4746	8000272c	00d81293	slli	x5,x16,0xd	 x16:0x00000001  x5=0x00002000
       47485000	      4747	80002730	7088f893	andi	x17,x17,1800	 x17:0x00000000 x17=0x00000000
       47495000	      4748	80002734	01dae0b3	or	x1,x21,x29	 x21:0x00000000 x29:0x80000487  x1=0x80000487
       47505000	      4749	80002738	01a80433	add	x8,x16,x26	 x16:0x00000001 x26:0x0000000b  x8=0x0000000c
       47515000	      4750	8000273c	00ed54b3	srl	x9,x26,x14	 x26:0x0000000b x14:0x80009fc4  x9=0x00000000
       47525000	      4751	80002740	01be9133	sll	x2,x29,x27	 x29:0x80000487 x27:0x00000000  x2=0x80000487
       47535000	      4752	80002744	00000013	addi	x0,x0,0	  x0:0x00000000
       47545000	      4753	80002748	000e9a63	bne	x29,x0,8000275c	 x29:0x80000487  x0:0x00000000
       47555000	      4754	00000000	00000013	addi	x0,x0,0	  x0:0x00000000
       47565000	      4755	80002758	00000013	addi	x0,x0,0	  x0:0x00000000
       47575000	      4756	8000275c	016aab33	slt	x22,x21,x22	 x21:0x00000000 x22:0x80a00000 x22=0x00000000
       47585000	      4757	80002760	0064b033	sltu	x0,x9,x6	  x9:0x00000000  x6:0xffffffff
       47595000	      4758	80002764	8790b813	sltiu	x16,x1,-1927	  x1:0x80000487 x16=0x00000001
       47605000	      4759	80002768	c066aa93	slti	x21,x13,-1018	 x13:0x00000000 x21=0x00000000
       47615000	      4760	8000276c	01375613	srli	x12,x14,0x13	 x14:0x80009fc4 x12=0x00001000
       47625000	      4761	80002770	018d7bb3	and	x23,x26,x24	 x26:0x0000000b x24:0x00000005 x23=0x00000001
       47635000	      4762	80002774	914ba893	slti	x17,x23,-1772	 x23:0x00000001 x17=0x00000000
       47645000	      4763	80002778	038dc463	blt	x27,x24,800027a0	 x27:0x00000000 x24:0x00000005
       47655000	      4764	00000000	00000013	addi	x0,x0,0	  x0:0x00000000
       47665000	      4765	8000279c	00000013	addi	x0,x0,0	  x0:0x00000000
       47675000	      4766	800027a0	008effb3	and	x31,x29,x8	 x29:0x80000487  x8:0x0000000c x31=0x00000004
       47685000	      4767	800027a4	4053d033	sra	x0,x7,x5	  x7:0x00000001  x5:0x00002000
       47695000	      4768	800027a8	010bf7b3	and	x15,x23,x16	 x23:0x00000001 x16:0x00000001 x15=0x00000001
       47705000	      4769	800027ac	00000013	addi	x0,x0,0	  x0:0x00000000
       47715000	      4770	800027b0	723e8113	addi	x2,x29,1827	 x29:0x80000487  x2=0x80000baa
       47725000	      4771	800027b4	010c4a33	xor	x20,x24,x16	 x24:0x00000005 x16:0x00000001 x20=0x00000004
       47735000	      4772	800027b8	01e36033	or	x0,x6,x30	  x6:0xffffffff x30:0x80009f50
       47745000	      4773	800027bc	01224c63	blt	x4,x18,800027d4	  x4:0xfffffab0 x18:0xe8a42000
       47755000	      4774	800027c0	004032b3	sltu	x5,x0,x4	  x0:0x00000000  x4:0xfffffab0  x5=0x00000001
       47765000	      4775	800027c4	00cd5cb3	srl	x25,x26,x12	 x26:0x0000000b x12:0x00001000 x25=0x0000000b
       47775000	      4776	800027c8	40408233	sub	x4,x1,x4	  x1:0x80000487  x4:0xfffffab0  x4=0x800009d7
       47785000	      4777	800027cc	0539cb13	xori	x22,x19,83	 x19:0x00000000 x22=0x00000053
       47795000	      4778	800027d0	00b8dc63	bge	x17,x11,800027e8	 x17:0x00000000 x11:0x00000000
       47805000	      4779	00000000	00000013	addi	x0,x0,0	  x0:0x00000000
       47815000	      4780	800027e4	00000013	addi	x0,x0,0	  x0:0x00000000
       47825000	      4781	800027e8	01ab04b3	add	x9,x22,x26	 x22:0x00000053 x26:0x0000000b  x9=0x0000005e
       47835000	      4782	800027ec	058f6863	bltu	x30,x24,8000283c	 x30:0x80009f50 x24:0x00000005
       47845000	      4783	800027f0	41b6d7b3	sra	x15,x13,x27	 x13:0x00000000 x27:0x00000000 x15=0x00000000
       47855000	      4784	800027f4	00169bb3	sll	x23,x13,x1	 x13:0x00000000  x1:0x80000487 x23=0x00000000
       47865000	      4785	800027f8	4131d213	srai	x4,x3,0x13	  x3:0x2eb74000  x4=0x000005d6
       47875000	      4786	800027fc	134e2a13	slti	x20,x28,308	 x28:0x00000000 x20=0x00000001
       47885000	      4787	80002800	004cccb3	xor	x25,x25,x4	 x25:0x0000000b  x4:0x000005d6 x25=0x000005dd
       47895000	      4788	80002804	016e03b3	add	x7,x28,x22	 x28:0x00000000 x22:0x00000053  x7=0x00000053
       47905000	      4789	80002808	01f59b93	slli	x23,x11,0x1f	 x11:0x00000000 x23=0x00000000
       47915000	      4790	8000280c	047af863	bgeu	x21,x7,8000285c	 x21:0x00000000  x7:0x00000053
       47925000	      4791	80002810	00f1d233	srl	x4,x3,x15	  x3:0x2eb74000 x15:0x00000000  x4=0x2eb74000
       47935000	      4792	80002814	00f48fb3	add	x31,x9,x15	  x9:0x0000005e x15:0x00000000 x31=0x0000005e
       47945000	      4793	80002818	40850933	sub	x18,x10,x8	 x10:0x00000000  x8:0x0000000c x18=0xfffffff4
       47955000	      4794	8000281c	4f4e2e17	auipc	x28,0x4f4e2	 x28=0xcf4e4818
       47965000	      4795	80002820	6f2b50b7	lui	x1,0x6f2b5	  x1=0x6f2b5000
       47975000	      4796	80002824	c5c40813	addi	x16,x8,-932	  x8:0x0000000c x16=0xfffffc68
       47985000	      4797	80002828	017b5433	srl	x8,x22,x23	 x22:0x00000053 x23:0x00000000  x8=0x00000053
       47995000	      4798	8000282c	00270a63	beq	x14,x2,80002840	 x14:0x80009fc4  x2:0x80000baa
       48005000	      4799	80002830	01447a33	and	x20,x8,x20	  x8:0x00000053 x20:0x00000001 x20=0x00000001
       48015000	      4800	80002834	248bc593	xori	x11,x23,584	 x23:0x00000000 x11=0x00000248
       48025000	      4801	80002838	00000013	addi	x0,x0,0	  x0:0x00000000
       48035000	      4802	8000283c	b37a4513	xori	x10,x20,-1225	 x20:0x00000001 x10=0xfffffb36
       48045000	      4803	80002840	016bcc63	blt	x23,x22,80002858	 x23:0x00000000 x22:0x00000053
       48055000	      4804	00000000	00000013	addi	x0,x0,0	  x0:0x00000000
       48065000	      4805	80002854	00000013	addi	x0,x0,0	  x0:0x00000000
       48075000	      4806	80002858	01077c63	bgeu	x14,x16,80002870	 x14:0x80009fc4 x16:0xfffffc68
       48085000	      4807	8000285c	00540863	beq	x8,x5,8000286c	  x8:0x00000053  x5:0x00000001
       48095000	      4808	80002860	00d34ab3	xor	x21,x6,x13	  x6:0xffffffff x13:0x00000000 x21=0xffffffff
       48105000	      4809	80002864	d0d13213	sltiu	x4,x2,-755	  x2:0x80000baa  x4=0x00000001
       48115000	      4810	80002868	def92213	slti	x4,x18,-529	 x18:0xfffffff4  x4=0x00000000
       48125000	      4811	8000286c	2f7c2a13	slti	x20,x24,759	 x24:0x00000005 x20=0x00000001
       48135000	      4812	80002870	4fc63393	sltiu	x7,x12,1276	 x12:0x00001000  x7=0x00000000
       48145000	      4813	80002874	7fa39db7	lui	x27,0x7fa39	 x27=0x7fa39000
       48155000	      4814	80002878	00246333	or	x6,x8,x2	  x8:0x00000053  x2:0x80000baa  x6=0x80000bfb
       48165000	      4815	8000287c	40ee0fb3	sub	x31,x28,x14	 x28:0xcf4e4818 x14:0x80009fc4 x31=0x4f4da854
       48175000	      4816	80002880	00000013	addi	x0,x0,0	  x0:0x00000000
       48185000	      4817	80002884	00000013	addi	x0,x0,0	  x0:0x00000000
       48195000	      4818	80002888	01327b33	and	x22,x4,x19	  x4:0x00000000 x19:0x00000000 x22=0x00000000
       48205000	      4819	8000288c	12c8cd93	xori	x27,x17,300	 x17:0x00000000 x27=0x0000012c
       48215000	      4820	80002890	bdc3f217	auipc	x4,0xbdc3f	  x4=0x3dc4188c
       48225000	      4821	80002894	017a6333	or	x6,x20,x23	 x20:0x00000001 x23:0x00000000  x6=0x00000001
       48235000	      4822	80002898	4057d113	srai	x2,x15,0x5	 x15:0x00000000  x2=0x00000000
       48245000	      4823	8000289c	002f4c63	blt	x30,x2,800028b4	 x30:0x80009f50  x2:0x00000000
       48255000	      4824	00000000	00000013	addi	x0,x0,0	  x0:0x00000000
       48265000	      4825	800028b0	00000013	addi	x0,x0,0	  x0:0x00000000
       48275000	      4826	800028b4	ff493b13	sltiu	x22,x18,-12	 x18:0xfffffff4 x22=0x00000000
       48285000	      4827	800028b8	018ef333	and	x6,x29,x24	 x29:0x80000487 x24:0x00000005  x6=0x00000005
       48295000	      4828	800028bc	00295093	srli	x1,x18,0x2	 x18:0xfffffff4  x1=0x3ffffffd
       48305000	      4829	800028c0	419ad133	sra	x2,x21,x25	 x21:0xffffffff x25:0x000005dd  x2=0xffffffff
       48315000	      4830	800028c4	01a5d693	srli	x13,x11,0x1a	 x11:0x00000248 x13=0x00000000
       48325000	      4831	800028c8	57532593	slti	x11,x6,1397	  x6:0x00000005 x11=0x00000001
       48335000	      4832	800028cc	01dbdc13	srli	x24,x23,0x1d	 x23:0x00000000 x24=0x00000000
       48345000	      4833	800028d0	410d5c33	sra	x24,x26,x16	 x26:0x0000000b x16:0xfffffc68 x24=0x00000000
       48355000	      4834	800028d4	c471ec97	auipc	x25,0xc471e	 x25=0x447208d0
       48365000	      4835	800028d8	41db5693	srai	x13,x22,0x1d	 x22:0x00000000 x13=0x00000000
       48375000	      4836	800028dc	01494c33	xor	x24,x18,x20	 x18:0xfffffff4 x20:0x00000001 x24=0xfffffff5
       48385000	      4837	800028e0	2025ce93	xori	x29,x11,514	 x11:0x00000001 x29=0x00000203
       48395000	      4838	800028e4	001a9e93	slli	x29,x21,0x1	 x21:0xffffffff x29=0xfffffffe
       48405000	      4839	800028e8	05b25663	bge	x4,x27,80002934	  x4:0x3dc4188c x27:0x0000012c
       48415000	      4840	00000000	00000013	addi	x0,x0,0	  x0:0x00000000
       48425000	      4841	80002930	00000013	addi	x0,x0,0	  x0:0x00000000
       48435000	      4842	80002934	00579eb3	sll	x29,x15,x5	 x15:0x00000000  x5:0x00000001 x29=0x00000000
       48445000	      4843	80002938	0117c433	xor	x8,x15,x17	 x15:0x00000000 x17:0x00000000  x8=0x00000000
       48455000	      4844	8000293c	f474e413	ori	x8,x9,-185	  x9:0x0000005e  x8=0xffffff5f
       48465000	      4845	80002940	8ecb6e13	ori	x28,x22,-1812	 x22:0x00000000 x28=0xfffff8ec
       48475000	      4846	80002944	00b39db3	sll	x27,x7,x11	  x7:0x00000000 x11:0x00000001 x27=0x00000000
       48485000	      4847	80002948	00010b33	add	x22,x2,x0	  x2:0xffffffff  x0:0x00000000 x22=0xffffffff
       48495000	      4848	8000294c	00000013	addi	x0,x0,0	  x0:0x00000000
       48505000	      4849	80002950	411c5cb3	sra	x25,x24,x17	 x24:0xfffffff5 x17:0x00000000 x25=0xfffffff5
       48515000	      4850	80002954	03124863	blt	x4,x17,80002984	  x4:0x3dc4188c x17:0x00000000
       48525000	      4851	80002958	01b4f533	and	x10,x9,x27	  x9:0x0000005e x27:0x00000000 x10=0x00000000
       48535000	      4852	8000295c	670e0e93	addi	x29,x28,1648	 x28:0xfffff8ec x29=0xffffff5c
       48545000	      4853	80002960	0422d863	bge	x5,x2,800029b0	  x5:0x00000001  x2:0xffffffff
       48555000	      4854	00000000	00000013	addi	x0,x0,0	  x0:0x00000000
       48565000	      4855	800029ac	00000013	addi	x0,x0,0	  x0:0x00000000
       48575000	      4856	800029b0	0594e263	bltu	x9,x25,800029f4	  x9:0x0000005e x25:0xfffffff5
       48585000	      4857	00000000	00000013	addi	x0,x0,0	  x0:0x00000000
       48595000	      4858	800029f0	00000013	addi	x0,x0,0	  x0:0x00000000
       48605000	      4859	800029f4	00000013	addi	x0,x0,0	  x0:0x00000000
       48615000	      4860	800029f8	c33c0a93	addi	x21,x24,-973	 x24:0xfffffff5 x21=0xfffffc28
       48625000	      4861	800029fc	015861b3	or	x3,x16,x21	 x16:0xfffffc68 x21:0xfffffc28  x3=0xfffffc68
       48635000	      4862	80002a00	0107b033	sltu	x0,x15,x16	 x15:0x00000000 x16:0xfffffc68
       48645000	      4863	80002a04	b8aab2b7	lui	x5,0xb8aab	  x5=0xb8aab000
       48655000	      4864	80002a08	00000013	addi	x0,x0,0	  x0:0x00000000
       48665000	      4865	80002a0c	0009eab3	or	x21,x19,x0	 x19:0x00000000  x0:0x00000000 x21=0x00000000
       48675000	      4866	80002a10	03d59863	bne	x11,x29,80002a40	 x11:0x00000001 x29:0xffffff5c
       48685000	      4867	00000000	00000013	addi	x0,x0,0	  x0:0x00000000
       48695000	      4868	80002a3c	00000013	addi	x0,x0,0	  x0:0x00000000
       48705000	      4869	80002a40	407b85b3	sub	x11,x23,x7	 x23:0x00000000  x7:0x00000000 x11=0x00000000
       48715000	      4870	80002a44	010496b3	sll	x13,x9,x16	  x9:0x0000005e x16:0xfffffc68 x13=0x00005e00
       48725000	      4871	80002a48	01ad00b3	add	x1,x26,x26	 x26:0x0000000b x26:0x0000000b  x1=0x00000016
       48735000	      4872	80002a4c	98f3fa13	andi	x20,x7,-1649	  x7:0x00000000 x20=0x00000000
       48745000	      4873	80002a50	415b8933	sub	x18,x23,x21	 x23:0x00000000 x21:0x00000000 x18=0x00000000
       48755000	      4874	80002a54	02d5ca63	blt	x11,x13,80002a88	 x11:0x00000000 x13:0x00005e00
       48765000	      4875	00000000	00000013	addi	x0,x0,0	  x0:0x00000000
       48775000	      4876	80002a84	00000013	addi	x0,x0,0	  x0:0x00000000
       48785000	      4877	80002a88	0002c663	blt	x5,x0,80002a94	  x5:0xb8aab000  x0:0x00000000
       48795000	      4878	00000000	00000013	addi	x0,x0,0	  x0:0x00000000
       48805000	      4879	80002a90	00000013	addi	x0,x0,0	  x0:0x00000000
       48815000	      4880	80002a94	007926b3	slt	x13,x18,x7	 x18:0x00000000  x7:0x00000000 x13=0x00000000
       48825000	      4881	80002a98	009cdc63	bge	x25,x9,80002ab0	 x25:0xfffffff5  x9:0x0000005e
       48835000	      4882	80002a9c	00545233	srl	x4,x8,x5	  x8:0xffffff5f  x5:0xb8aab000  x4=0xffffff5f
       48845000	      4883	80002aa0	84bbe313	ori	x6,x23,-1973	 x23:0x00000000  x6=0xfffff84b
       48855000	      4884	80002aa4	2f94f613	andi	x12,x9,761	  x9:0x0000005e x12=0x00000058
       48865000	      4885	80002aa8	018e1a13	slli	x20,x28,0x18	 x28:0xfffff8ec x20=0xec000000
       48875000	      4886	80002aac	40600333	sub	x6,x0,x6	  x0:0x00000000  x6:0xfffff84b  x6=0x000007b5
       48885000	      4887	80002ab0	f9930813	addi	x16,x6,-103	  x6:0x000007b5 x16=0x0000074e
       48895000	      4888	80002ab4	4074d793	srai	x15,x9,0x7	  x9:0x0000005e x15=0x00000000
       48905000	      4889	80002ab8	001797b3	sll	x15,x15,x1	 x15:0x00000000  x1:0x00000016 x15=0x00000000
       48915000	      4890	80002abc	0349da63	bge	x19,x20,80002af0	 x19:0x00000000 x20:0xec000000
       48925000	      4891	00000000	00000013	addi	x0,x0,0	  x0:0x00000000
       48935000	      4892	80002aec	00000013	addi	x0,x0,0	  x0:0x00000000
       48945000	      4893	80002af0	b7d0ae93	slti	x29,x1,-1155	  x1:0x00000016 x29=0x00000000
       48955000	      4894	80002af4	014ba2b3	slt	x5,x23,x20	 x23:0x00000000 x20:0xec000000  x5=0x00000000
       48965000	      4895	80002af8	417c5033	sra	x0,x24,x23	 x24:0xfffffff5 x23:0x00000000
       48975000	      4896	80002afc	021cc863	blt	x25,x1,80002b2c	 x25:0xfffffff5  x1:0x00000016
       48985000	      4897	00000000	00000013	addi	x0,x0,0	  x0:0x00000000
       48995000	      4898	80002b28	00000013	addi	x0,x0,0	  x0:0x00000000
       49005000	      4899	80002b2c	00d38fb3	add	x31,x7,x13	  x7:0x00000000 x13:0x00000000 x31=0x00000000
       49015000	      4900	80002b30	015f77b3	and	x15,x30,x21	 x30:0x80009f50 x21:0x00000000 x15=0x00000000
       49025000	      4901	80002b34	02edc263	blt	x27,x14,80002b58	 x27:0x00000000 x14:0x80009fc4
       49035000	      4902	80002b38	000e1c93	slli	x25,x28,0x0	 x28:0xfffff8ec x25=0xfffff8ec
       49045000	      4903	80002b3c	000f9833	sll	x16,x31,x0	 x31:0x00000000  x0:0x00000000 x16=0x00000000
       49055000	      4904	80002b40	408c0e33	sub	x28,x24,x8	 x24:0xfffffff5  x8:0xffffff5f x28=0x00000096
       49065000	      4905	80002b44	1172e637	lui	x12,0x1172e	 x12=0x1172e000
       49075000	      4906	80002b48	43a32d97	auipc	x27,0x43a32	 x27=0xc3a34b44
       49085000	      4907	80002b4c	4062dc33	sra	x24,x5,x6	  x5:0x00000000  x6:0x000007b5 x24=0x00000000
       49095000	      4908	80002b50	90800113	addi	x2,x0,-1784	  x0:0x00000000  x2=0xfffff908
       49105000	      4909	80002b54	02515863	bge	x2,x5,80002b84	  x2:0xfffff908  x5:0x00000000
       49115000	      4910	80002b58	50e2b293	sltiu	x5,x5,1294	  x5:0x00000000  x5=0x00000001
       49125000	      4911	80002b5c	0019dc13	srli	x24,x19,0x1	 x19:0x00000000 x24=0x00000000
       49135000	      4912	80002b60	010c8c63	beq	x25,x16,80002b78	 x25:0xfffff8ec x16:0x00000000
       49145000	      4913	80002b64	001449b3	xor	x19,x8,x1	  x8:0xffffff5f  x1:0x00000016 x19=0xffffff49
       49155000	      4914	80002b68	00587a63	bgeu	x16,x5,80002b7c	 x16:0x00000000  x5:0x00000001
       49165000	      4915	80002b6c	01308333	add	x6,x1,x19	  x1:0x00000016 x19:0xffffff49  x6=0xffffff5f
       49175000	      4916	80002b70	01c8e9b3	or	x19,x17,x28	 x17:0x00000000 x28:0x00000096 x19=0x00000096
       49185000	      4917	80002b74	41c2d493	srai	x9,x5,0x1c	  x5:0x00000001  x9=0x00000000
       49195000	      4918	80002b78	8325a293	slti	x5,x11,-1998	 x11:0x00000000  x5=0x00000000
       49205000	      4919	80002b7c	00000013	addi	x0,x0,0	  x0:0x00000000
       49215000	      4920	80002b80	00b4f0b3	and	x1,x9,x11	  x9:0x00000000 x11:0x00000000  x1=0x00000000
       49225000	      4921	80002b84	6a74f193	andi	x3,x9,1703	  x9:0x00000000  x3=0x00000000
       49235000	      4922	80002b88	00824c63	blt	x4,x8,80002ba0	  x4:0xffffff5f  x8:0xffffff5f
       49245000	      4923	80002b8c	6c6f0313	addi	x6,x30,1734	 x30:0x80009f50  x6=0x8000a616
       49255000	      4924	80002b90	001f7ab3	and	x21,x30,x1	 x30:0x80009f50  x1:0x00000000 x21=0x00000000
       49265000	      4925	80002b94	f0dd2993	slti	x19,x26,-243	 x26:0x0000000b x19=0x00000000
       49275000	      4926	80002b98	41905a13	srai	x20,x0,0x19	  x0:0x00000000 x20=0x00000000
       49285000	      4927	80002b9c	e0ac8613	addi	x12,x25,-502	 x25:0xfffff8ec x12=0xfffff6f6
       49295000	      4928	80002ba0	22516b93	ori	x23,x2,549	  x2:0xfffff908 x23=0xfffffb2d
       49305000	      4929	80002ba4	5119a213	slti	x4,x19,1297	 x19:0x00000000  x4=0x00000001
       49315000	      4930	80002ba8	02f60863	beq	x12,x15,80002bd8	 x12:0xfffff6f6 x15:0x00000000
       49325000	      4931	80002bac	d6df8b93	addi	x23,x31,-659	 x31:0x00000000 x23=0xfffffd6d
       49335000	      4932	80002bb0	00d61433	sll	x8,x12,x13	 x12:0xfffff6f6 x13:0x00000000  x8=0xfffff6f6
       49345000	      4933	80002bb4	1ec80113	addi	x2,x16,492	 x16:0x00000000  x2=0x000001ec
       49355000	      4934	80002bb8	25f9b2b7	lui	x5,0x25f9b	  x5=0x25f9b000
       49365000	      4935	80002bbc	61230913	addi	x18,x6,1554	  x6:0x8000a616 x18=0x8000ac28
       49375000	      4936	80002bc0	00d49c63	bne	x9,x13,80002bd8	  x9:0x00000000 x13:0x00000000
       49385000	      4937	80002bc4	eeec3b13	sltiu	x22,x24,-274	 x24:0x00000000 x22=0x00000001
       49395000	      4938	80002bc8	4b4ec493	xori	x9,x29,1204	 x29:0x00000000  x9=0x000004b4
       49405000	      4939	80002bcc	40789797	auipc	x15,0x40789	 x15=0xc078bbc8
       49415000	      4940	80002bd0	00b627b3	slt	x15,x12,x11	 x12:0xfffff6f6 x11:0x00000000 x15=0x00000001
       49425000	      4941	80002bd4	00ea95b3	sll	x11,x21,x14	 x21:0x00000000 x14:0x80009fc4 x11=0x00000000
       49435000	      4942	80002bd8	009aec33	or	x24,x21,x9	 x21:0x00000000  x9:0x000004b4 x24=0x000004b4
       49445000	      4943	80002bdc	01e59e33	sll	x28,x11,x30	 x11:0x00000000 x30:0x80009f50 x28=0x00000000
       49455000	      4944	80002be0	00000013	addi	x0,x0,0	  x0:0x00000000
       49465000	      4945	80002be4	003f37b3	sltu	x15,x30,x3	 x30:0x80009f50  x3:0x00000000 x15=0x00000000
       49475000	      4946	80002be8	c2713213	sltiu	x4,x2,-985	  x2:0x000001ec  x4=0x00000001
       49485000	      4947	80002bec	0177e2b3	or	x5,x15,x23	 x15:0x00000000 x23:0xfffffd6d  x5=0xfffffd6d
       49495000	      4948	80002bf0	02418c63	beq	x3,x4,80002c28	  x3:0x00000000  x4:0x00000001
       49505000	      4949	80002bf4	40add513	srai	x10,x27,0xa	 x27:0xc3a34b44 x10=0xfff0e8d2
       49515000	      4950	80002bf8	0024a033	slt	x0,x9,x2	  x9:0x000004b4  x2:0x000001ec
       49525000	      4951	80002bfc	332d5317	auipc	x6,0x332d5	  x6=0xb32d7bf8
       49535000	      4952	80002c00	3cdd7593	andi	x11,x26,973	 x26:0x0000000b x11=0x00000009
       49545000	      4953	80002c04	0ed22b13	slti	x22,x4,237	  x4:0x00000001 x22=0x00000001
       49555000	      4954	80002c08	00bfd033	srl	x0,x31,x11	 x31:0x00000000 x11:0x00000009
       49565000	      4955	80002c0c	00350fb3	add	x31,x10,x3	 x10:0xfff0e8d2  x3:0x00000000 x31=0xfff0e8d2
       49575000	      4956	80002c10	407e51b3	sra	x3,x28,x7	 x28:0x00000000  x7:0x00000000  x3=0x00000000
       49585000	      4957	80002c14	00000013	addi	x0,x0,0	  x0:0x00000000
       49595000	      4958	80002c18	9c487a17	auipc	x20,0x9c487	 x20=0x1c489c14
       49605000	      4959	80002c1c	00ac5833	srl	x16,x24,x10	 x24:0x000004b4 x10:0xfff0e8d2 x16=0x00000000
       49615000	      4960	80002c20	94380193	addi	x3,x16,-1725	 x16:0x00000000  x3=0xfffff943
       49625000	      4961	80002c24	01d9d433	srl	x8,x19,x29	 x19:0x00000000 x29:0x00000000  x8=0x00000000
       49635000	      4962	80002c28	05d4d663	bge	x9,x29,80002c74	  x9:0x000004b4 x29:0x00000000
       49645000	      4963	00000000	00000013	addi	x0,x0,0	  x0:0x00000000
       49655000	      4964	80002c70	00000013	addi	x0,x0,0	  x0:0x00000000
       49665000	      4965	80002c74	00a1b333	sltu	x6,x3,x10	  x3:0xfffff943 x10:0xfff0e8d2  x6=0x00000000
       49675000	      4966	80002c78	013cadb3	slt	x27,x25,x19	 x25:0xfffff8ec x19:0x00000000 x27=0x00000001
       49685000	      4967	80002c7c	010f8433	add	x8,x31,x16	 x31:0xfff0e8d2 x16:0x00000000  x8=0xfff0e8d2
       49695000	      4968	80002c80	32ac6493	ori	x9,x24,810	 x24:0x000004b4  x9=0x000007be
       49705000	      4969	80002c84	40cf5633	sra	x12,x30,x12	 x30:0x80009f50 x12:0xfffff6f6 x12=0xfffffe00
       49715000	      4970	80002c88	00bede63	bge	x29,x11,80002ca4	 x29:0x00000000 x11:0x00000009
       49725000	      4971	80002c8c	40b4d333	sra	x6,x9,x11	  x9:0x000007be x11:0x00000009  x6=0x00000003
       49735000	      4972	80002c90	aa80a693	slti	x13,x1,-1368	  x1:0x00000000 x13=0x00000000
       49745000	      4973	80002c94	00f69533	sll	x10,x13,x15	 x13:0x00000000 x15:0x00000000 x10=0x00000000
       49755000	      4974	80002c98	00b72433	slt	x8,x14,x11	 x14:0x80009fc4 x11:0x00000009  x8=0x00000001
       49765000	      4975	80002c9c	4019d6b3	sra	x13,x19,x1	 x19:0x00000000  x1:0x00000000 x13=0x00000000
       49775000	      4976	80002ca0	01f242b3	xor	x5,x4,x31	  x4:0x00000001 x31:0xfff0e8d2  x5=0xfff0e8d3
       49785000	      4977	80002ca4	ebdd8513	addi	x10,x27,-323	 x27:0x00000001 x10=0xfffffebe
       49795000	      4978	80002ca8	00000013	addi	x0,x0,0	  x0:0x00000000
       49805000	      4979	80002cac	026e2193	slti	x3,x28,38	 x28:0x00000000  x3=0x00000001
       49815000	      4980	80002cb0	009b1863	bne	x22,x9,80002cc0	 x22:0x00000001  x9:0x000007be
       49825000	      4981	00000000	00000013	addi	x0,x0,0	  x0:0x00000000
       49835000	      4982	80002cbc	00000013	addi	x0,x0,0	  x0:0x00000000
       49845000	      4983	80002cc0	00515113	srli	x2,x2,0x5	  x2:0x000001ec  x2=0x0000000f
       49855000	      4984	80002cc4	00425db3	srl	x27,x4,x4	  x4:0x00000001  x4:0x00000001 x27=0x00000000
       49865000	      4985	80002cc8	036f6263	bltu	x30,x22,80002cec	 x30:0x80009f50 x22:0x00000001
       49875000	      4986	80002ccc	005d8133	add	x2,x27,x5	 x27:0x00000000  x5:0xfff0e8d3  x2=0xfff0e8d3
       49885000	      4987	80002cd0	00175613	srli	x12,x14,0x1	 x14:0x80009fc4 x12=0x40004fe2
       49895000	      4988	80002cd4	01dfd863	bge	x31,x29,80002ce4	 x31:0xfff0e8d2 x29:0x00000000
       49905000	      4989	80002cd8	03927863	bgeu	x4,x25,80002d08	  x4:0x00000001 x25:0xfffff8ec
       49915000	      4990	80002cdc	008cd9b3	srl	x19,x25,x8	 x25:0xfffff8ec  x8:0x00000001 x19=0x7ffffc76
       49925000	      4991	80002ce0	02ef5863	bge	x30,x14,80002d10	 x30:0x80009f50 x14:0x80009fc4
       49935000	      4992	80002ce4	009969b3	or	x19,x18,x9	 x18:0x8000ac28  x9:0x000007be x19=0x8000afbe
       49945000	      4993	80002ce8	00000013	addi	x0,x0,0	  x0:0x00000000
       49955000	      4994	80002cec	1b957293	andi	x5,x10,441	 x10:0xfffffebe  x5=0x000000b8
       49965000	      4995	80002cf0	02c24a63	blt	x4,x12,80002d24	  x4:0x00000001 x12:0x40004fe2
       49975000	      4996	00000000	00000013	addi	x0,x0,0	  x0:0x00000000
       49985000	      4997	80002d20	00000013	addi	x0,x0,0	  x0:0x00000000
       49995000	      4998	80002d24	00ef0c63	beq	x30,x14,80002d3c	 x30:0x80009f50 x14:0x80009fc4
       50005000	      4999	80002d28	006c9e93	slli	x29,x25,0x6	 x25:0xfffff8ec x29=0xfffe3b00
       50015000	      5000	80002d2c	002e03b3	add	x7,x28,x2	 x28:0x00000000  x2:0xfff0e8d3  x7=0xfff0e8d3
       50025000	      5001	80002d30	017e9233	sll	x4,x29,x23	 x29:0xfffe3b00 x23:0xfffffd6d  x4=0xc7600000
       50035000	      5002	80002d34	e31d3a93	sltiu	x21,x26,-463	 x26:0x0000000b x21=0x00000001
       50045000	      5003	80002d38	00aa0cb3	add	x25,x20,x10	 x20:0x1c489c14 x10:0xfffffebe x25=0x1c489ad2
       50055000	      5004	80002d3c	40065493	srai	x9,x12,0x0	 x12:0x40004fe2  x9=0x40004fe2
       50065000	      5005	80002d40	a55be493	ori	x9,x23,-1451	 x23:0xfffffd6d  x9=0xffffff7d
       50075000	      5006	80002d44	00959c93	slli	x25,x11,0x9	 x11:0x00000009 x25=0x00001200
       50085000	      5007	80002d48	b773c0b7	lui	x1,0xb773c	  x1=0xb773c000
       50095000	      5008	80002d4c	015276b3	and	x13,x4,x21	  x4:0xc7600000 x21:0x00000001 x13=0x00000000
       50105000	      5009	80002d50	01cb4c63	blt	x22,x28,80002d68	 x22:0x00000001 x28:0x00000000
       50115000	      5010	80002d54	01ecd863	bge	x25,x30,80002d64	 x25:0x00001200 x30:0x80009f50
       50125000	      5011	00000000	00000013	addi	x0,x0,0	  x0:0x00000000
       50135000	      5012	80002d60	00000013	addi	x0,x0,0	  x0:0x00000000
       50145000	      5013	80002d64	02921c63	bne	x4,x9,80002d9c	  x4:0xc7600000  x9:0xffffff7d
       50155000	      5014	00000000	00000013	addi	x0,x0,0	  x0:0x00000000
       50165000	      5015	80002d98	00000013	addi	x0,x0,0	  x0:0x00000000
       50175000	      5016	80002d9c	00094a63	blt	x18,x0,80002db0	 x18:0x8000ac28  x0:0x00000000
       50185000	      5017	00000000	00000013	addi	x0,x0,0	  x0:0x00000000
       50195000	      5018	80002dac	00000013	addi	x0,x0,0	  x0:0x00000000
       50205000	      5019	80002db0	004da6b3	slt	x13,x27,x4	 x27:0x00000000  x4:0xc7600000 x13=0x00000000
       50215000	      5020	80002db4	00c61663	bne	x12,x12,80002dc0	 x12:0x40004fe2 x12:0x40004fe2
       50225000	      5021	80002db8	40265633	sra	x12,x12,x2	 x12:0x40004fe2  x2:0xfff0e8d3 x12=0x00000800
       50235000	      5022	80002dbc	00b28db3	add	x27,x5,x11	  x5:0x000000b8 x11:0x00000009 x27=0x000000c1
       50245000	      5023	80002dc0	0516f863	bgeu	x13,x17,80002e10	 x13:0x00000000 x17:0x00000000
       50255000	      5024	00000000	00000013	addi	x0,x0,0	  x0:0x00000000
       50265000	      5025	80002e0c	00000013	addi	x0,x0,0	  x0:0x00000000
       50275000	      5026	80002e10	01dca4b3	slt	x9,x25,x29	 x25:0x00001200 x29:0xfffe3b00  x9=0x00000000
       50285000	      5027	80002e14	3e224313	xori	x6,x4,994	  x4:0xc7600000  x6=0xc76003e2
       50295000	      5028	80002e18	407d8c33	sub	x24,x27,x7	 x27:0x000000c1  x7:0xfff0e8d3 x24=0x000f17ee
       50305000	      5029	80002e1c	875da917	auipc	x18,0x875da	 x18=0x075dce18
       50315000	      5030	80002e20	03638c63	beq	x7,x22,80002e58	  x7:0xfff0e8d3 x22:0x00000001
       50325000	      5031	80002e24	0002b0b3	sltu	x1,x5,x0	  x5:0x000000b8  x0:0x00000000  x1=0x00000000
       50335000	      5032	80002e28	5da7aa93	slti	x21,x15,1498	 x15:0x00000000 x21=0x00000001
       50345000	      5033	80002e2c	02c4e463	bltu	x9,x12,80002e54	  x9:0x00000000 x12:0x00000800
       50355000	      5034	00000000	00000013	addi	x0,x0,0	  x0:0x00000000
       50365000	      5035	80002e50	00000013	addi	x0,x0,0	  x0:0x00000000
       50375000	      5036	80002e54	65924893	xori	x17,x4,1625	  x4:0xc7600000 x17=0xc7600659
       50385000	      5037	80002e58	0159d1b3	srl	x3,x19,x21	 x19:0x8000afbe x21:0x00000001  x3=0x400057df
       50395000	      5038	80002e5c	00330863	beq	x6,x3,80002e6c	  x6:0xc76003e2  x3:0x400057df
       50405000	      5039	80002e60	4d7b3993	sltiu	x19,x22,1239	 x22:0x00000001 x19=0x00000001
       50415000	      5040	80002e64	4002d6b3	sra	x13,x5,x0	  x5:0x000000b8  x0:0x00000000 x13=0x000000b8
       50425000	      5041	80002e68	0274c463	blt	x9,x7,80002e90	  x9:0x00000000  x7:0xfff0e8d3
       50435000	      5042	80002e6c	2e03aa17	auipc	x20,0x2e03a	 x20=0xae03ce68
       50445000	      5043	80002e70	036dc863	blt	x27,x22,80002ea0	 x27:0x000000c1 x22:0x00000001
       50455000	      5044	80002e74	41f10eb3	sub	x29,x2,x31	  x2:0xfff0e8d3 x31:0xfff0e8d2 x29=0x00000001
       50465000	      5045	80002e78	413f56b3	sra	x13,x30,x19	 x30:0x80009f50 x19:0x00000001 x13=0xc0004fa8
       50475000	      5046	80002e7c	01b3c833	xor	x16,x7,x27	  x7:0xfff0e8d3 x27:0x000000c1 x16=0xfff0e812
       50485000	      5047	80002e80	e5f9a797	auipc	x15,0xe5f9a	 x15=0x65f9ce7c
       50495000	      5048	80002e84	cf158893	addi	x17,x11,-783	 x11:0x00000009 x17=0xfffffcfa
       50505000	      5049	80002e88	01eda8b3	slt	x17,x27,x30	 x27:0x000000c1 x30:0x80009f50 x17=0x00000000
       50515000	      5050	80002e8c	81c30c17	auipc	x24,0x81c30	 x24=0x01c32e88
       50525000	      5051	80002e90	007122b3	slt	x5,x2,x7	  x2:0xfff0e8d3  x7:0xfff0e8d3  x5=0x00000000
       50535000	      5052	80002e94	46a54c17	auipc	x24,0x46a54	 x24=0xc6a56e90
       50545000	      5053	80002e98	01d9b233	sltu	x4,x19,x29	 x19:0x00000001 x29:0x00000001  x4=0x00000000
       50555000	      5054	80002e9c	4057d033	sra	x0,x15,x5	 x15:0x65f9ce7c  x5:0x00000000
       50565000	      5055	80002ea0	2585bd93	sltiu	x27,x11,600	 x11:0x00000009 x27=0x00000001
       50575000	      5056	80002ea4	00000013	addi	x0,x0,0	  x0:0x00000000
       50585000	      5057	80002ea8	0146d863	bge	x13,x20,80002eb8	 x13:0xc0004fa8 x20:0xae03ce68
       50595000	      5058	00000000	00000013	addi	x0,x0,0	  x0:0x00000000
       50605000	      5059	80002eb4	00000013	addi	x0,x0,0	  x0:0x00000000
       50615000	      5060	80002eb8	01f3cc63	blt	x7,x31,80002ed0	  x7:0xfff0e8d3 x31:0xfff0e8d2
       50625000	      5061	80002ebc	415fd313	srai	x6,x31,0x15	 x31:0xfff0e8d2  x6=0xffffffff
       50635000	      5062	80002ec0	4ead0397	auipc	x7,0x4ead0	  x7=0xcead2ebc
       50645000	      5063	80002ec4	032f1c63	bne	x30,x18,80002efc	 x30:0x80009f50 x18:0x075dce18
       50655000	      5064	00000000	00000013	addi	x0,x0,0	  x0:0x00000000
       50665000	      5065	80002ef8	00000013	addi	x0,x0,0	  x0:0x00000000
       50675000	      5066	80002efc	d38c3293	sltiu	x5,x24,-712	 x24:0xc6a56e90  x5=0x00000001
       50685000	      5067	80002f00	00dc20b3	slt	x1,x24,x13	 x24:0xc6a56e90 x13:0xc0004fa8  x1=0x00000000
       50695000	      5068	80002f04	00af9b93	slli	x23,x31,0xa	 x31:0xfff0e8d2 x23=0xc3a34800
       50705000	      5069	80002f08	019d70b3	and	x1,x26,x25	 x26:0x0000000b x25:0x00001200  x1=0x00000000
       50715000	      5070	80002f0c	012992b3	sll	x5,x19,x18	 x19:0x00000001 x18:0x075dce18  x5=0x01000000
       50725000	      5071	80002f10	01acf5b3	and	x11,x25,x26	 x25:0x00001200 x26:0x0000000b x11=0x00000000
       50735000	      5072	80002f14	63872d93	slti	x27,x14,1592	 x14:0x80009fc4 x27=0x00000001
       50745000	      5073	80002f18	28f18013	addi	x0,x3,655	  x3:0x400057df
       50755000	      5074	80002f1c	0069fdb3	and	x27,x19,x6	 x19:0x00000001  x6:0xffffffff x27=0x00000001
       50765000	      5075	80002f20	009bb933	sltu	x18,x23,x9	 x23:0xc3a34800  x9:0x00000000 x18=0x00000000
       50775000	      5076	80002f24	40625db3	sra	x27,x4,x6	  x4:0x00000000  x6:0xffffffff x27=0x00000000
       50785000	      5077	80002f28	d0a0ce13	xori	x28,x1,-758	  x1:0x00000000 x28=0xfffffd0a
       50795000	      5078	80002f2c	00334c63	blt	x6,x3,80002f44	  x6:0xffffffff  x3:0x400057df
       50805000	      5079	00000000	00000013	addi	x0,x0,0	  x0:0x00000000
       50815000	      5080	80002f40	00000013	addi	x0,x0,0	  x0:0x00000000
       50825000	      5081	80002f44	a9024fb7	lui	x31,0xa9024	 x31=0xa9024000
       50835000	      5082	80002f48	008fca63	blt	x31,x8,80002f5c	 x31:0xa9024000  x8:0x00000001
       50845000	      5083	00000000	00000013	addi	x0,x0,0	  x0:0x00000000
       50855000	      5084	80002f58	00000013	addi	x0,x0,0	  x0:0x00000000
       50865000	      5085	80002f5c	60574213	xori	x4,x14,1541	 x14:0x80009fc4  x4=0x800099c1
       50875000	      5086	80002f60	ed272393	slti	x7,x14,-302	 x14:0x80009fc4  x7=0x00000001
       50885000	      5087	80002f64	c85fe293	ori	x5,x31,-891	 x31:0xa9024000  x5=0xfffffc85
       50895000	      5088	80002f68	008d3fb3	sltu	x31,x26,x8	 x26:0x0000000b  x8:0x00000001 x31=0x00000000
       50905000	      5089	80002f6c	05561663	bne	x12,x21,80002fb8	 x12:0x00000800 x21:0x00000001
       50915000	      5090	00000000	00000013	addi	x0,x0,0	  x0:0x00000000
       50925000	      5091	80002fb4	00000013	addi	x0,x0,0	  x0:0x00000000
       50935000	      5092	80002fb8	5ed0ad93	slti	x27,x1,1517	  x1:0x00000000 x27=0x00000001
       50945000	      5093	80002fbc	00bb8033	add	x0,x23,x11	 x23:0xc3a34800 x11:0x00000000
       50955000	      5094	80002fc0	41cd89b3	sub	x19,x27,x28	 x27:0x00000001 x28:0xfffffd0a x19=0x000002f7
       50965000	      5095	80002fc4	40205b33	sra	x22,x0,x2	  x0:0x00000000  x2:0xfff0e8d3 x22=0x00000000
       50975000	      5096	80002fc8	01be3c33	sltu	x24,x28,x27	 x28:0xfffffd0a x27:0x00000001 x24=0x00000000
       50985000	      5097	80002fcc	00b563b3	or	x7,x10,x11	 x10:0xfffffebe x11:0x00000000  x7=0xfffffebe
       50995000	      5098	80002fd0	05f87263	bgeu	x16,x31,80003014	 x16:0xfff0e812 x31:0x00000000
       51005000	      5099	00000000	00000013	addi	x0,x0,0	  x0:0x00000000
       51015000	      5100	80003010	00000013	addi	x0,x0,0	  x0:0x00000000
       51025000	      5101	80003014	00ecb633	sltu	x12,x25,x14	 x25:0x00001200 x14:0x80009fc4 x12=0x00000001
       51035000	      5102	80003018	408adc33	sra	x24,x21,x8	 x21:0x00000001  x8:0x00000001 x24=0x00000000
       51045000	      5103	8000301c	00c19e13	slli	x28,x3,0xc	  x3:0x400057df x28=0x057df000
       51055000	      5104	80003020	4b8d0e37	lui	x28,0x4b8d0	 x28=0x4b8d0000
       51065000	      5105	80003024	27b18517	auipc	x10,0x27b18	 x10=0xa7b1b020
       51075000	      5106	80003028	4f5ab693	sltiu	x13,x21,1269	 x21:0x00000001 x13=0x00000001
       51085000	      5107	8000302c	004f2583	lw	x11,4(x30)	 x30:0x80009f50 x11=0x80000690 PA:0x80009f54
       51095000	      5108	80003030	010f0f13	addi	x30,x30,16	 x30:0x80009f50 x30=0x80009f60
       51105000	      5109	80003034	41d7fb93	andi	x23,x15,1053	 x15:0x65f9ce7c x23=0x0000041c
       51115000	      5110	80003038	01cf7533	and	x10,x30,x28	 x30:0x80009f60 x28:0x4b8d0000 x10=0x00000000
       51125000	      5111	8000303c	b0063913	sltiu	x18,x12,-1280	 x12:0x00000001 x18=0x00000001
       51135000	      5112	80003040	00158613	addi	x12,x11,1	 x11:0x80000690 x12=0x80000691
       51145000	      5113	80003044	00060667	jalr	x12,x12,0	 x12:0x80000691 x12=0x80003044
       51155000	      5114	00000000	00000013	addi	x0,x0,0	  x0:0x00000000
       51165000	      5115	80000690	00000013	addi	x0,x0,0	  x0:0x00000000
       51175000	      5116	80000694	00500193	addi	x3,x0,5	  x0:0x00000000  x3=0x00000005
       51185000	      5117	80000698	000d2e33	slt	x28,x26,x0	 x26:0x0000000b  x0:0x00000000 x28=0x00000000
       51195000	      5118	8000069c	00e1a433	slt	x8,x3,x14	  x3:0x00000005 x14:0x80009fc4  x8=0x00000000
       51205000	      5119	800006a0	d3ac2913	slti	x18,x24,-710	 x24:0x00000000 x18=0x00000000
       51215000	      5120	800006a4	ff100d93	addi	x27,x0,-15	  x0:0x00000000 x27=0xfffffff1
       51225000	      5121	800006a8	00000013	addi	x0,x0,0	  x0:0x00000000
       51235000	      5122	800006ac	016346b3	xor	x13,x6,x22	  x6:0xffffffff x22:0x00000000 x13=0xffffffff
       51245000	      5123	800006b0	016dd593	srli	x11,x27,0x16	 x27:0xfffffff1 x11=0x000003ff
       51255000	      5124	800006b4	6e589097	auipc	x1,0x6e589	  x1=0xee5896b0
       51265000	      5125	800006b8	7bac7c13	andi	x24,x24,1978	 x24:0x00000000 x24=0x00000000
       51275000	      5126	800006bc	2c6c6f93	ori	x31,x24,710	 x24:0x00000000 x31=0x000002c6
       51285000	      5127	800006c0	ffb18193	addi	x3,x3,-5	  x3:0x00000005  x3=0x00000000
       51295000	      5128	800006c4	40a2d6b3	sra	x13,x5,x10	  x5:0xfffffc85 x10:0x00000000 x13=0xfffffc85
       51305000	      5129	800006c8	01e6a133	slt	x2,x13,x30	 x13:0xfffffc85 x30:0x80009f60  x2=0x00000000
       51315000	      5130	800006cc	ffb180e3	beq	x3,x27,800006ac	  x3:0x00000000 x27:0xfffffff1
       51325000	      5131	800006d0	008f9b13	slli	x22,x31,0x8	 x31:0x000002c6 x22=0x0002c600
       51335000	      5132	800006d4	ff800893	addi	x17,x0,-8	  x0:0x00000000 x17=0xfffffff8
       51345000	      5133	800006d8	01bd6fb3	or	x31,x26,x27	 x26:0x0000000b x27:0xfffffff1 x31=0xfffffffb
       51355000	      5134	800006dc	ab81b593	sltiu	x11,x3,-1352	  x3:0x00000000 x11=0x00000001
       51365000	      5135	800006e0	0f48fb93	andi	x23,x17,244	 x17:0xfffffff8 x23=0x000000f0
       51375000	      5136	800006e4	01515fb3	srl	x31,x2,x21	  x2:0x00000000 x21:0x00000001 x31=0x00000000
       51385000	      5137	800006e8	019cd093	srli	x1,x25,0x19	 x25:0x00001200  x1=0x00000000
       51395000	      5138	800006ec	005fc033	xor	x0,x31,x5	 x31:0x00000000  x5:0xfffffc85
       51405000	      5139	800006f0	f2d94193	xori	x3,x18,-211	 x18:0x00000000  x3=0xffffff2d
       51415000	      5140	800006f4	00a317b3	sll	x15,x6,x10	  x6:0xffffffff x10:0x00000000 x15=0xffffffff
       51425000	      5141	800006f8	00de9c33	sll	x24,x29,x13	 x29:0x00000001 x13:0xfffffc85 x24=0x00000020
       51435000	      5142	800006fc	41ca0833	sub	x16,x20,x28	 x20:0xae03ce68 x28:0x00000000 x16=0xae03ce68
       51445000	      5143	80000700	01345633	srl	x12,x8,x19	  x8:0x00000000 x19:0x000002f7 x12=0x00000000
       51455000	      5144	80000704	01e263b3	or	x7,x4,x30	  x4:0x800099c1 x30:0x80009f60  x7=0x80009fe1
       51465000	      5145	80000708	24a3e093	ori	x1,x7,586	  x7:0x80009fe1  x1=0x80009feb
       51475000	      5146	8000070c	0033fa33	and	x20,x7,x3	  x7:0x80009fe1  x3:0xffffff2d x20=0x80009f21
       51485000	      5147	80000710	6201ba37	lui	x20,0x6201b	 x20=0x6201b000
       51495000	      5148	80000714	401203b3	sub	x7,x4,x1	  x4:0x800099c1  x1:0x80009feb  x7=0xfffff9d6
       51505000	      5149	80000718	00d00313	addi	x6,x0,13	  x0:0x00000000  x6=0x0000000d
       51515000	      5150	8000071c	2c43e193	ori	x3,x7,708	  x7:0xfffff9d6  x3=0xfffffbd6
       51525000	      5151	80000720	234f3b97	auipc	x23,0x234f3	 x23=0xa34f371c
       51535000	      5152	80000724	bdca8493	addi	x9,x21,-1060	 x21:0x00000001  x9=0xfffffbdd
       51545000	      5153	80000728	01e01693	slli	x13,x0,0x1e	  x0:0x00000000 x13=0x00000000
       51555000	      5154	8000072c	40b38a33	sub	x20,x7,x11	  x7:0xfffff9d6 x11:0x00000001 x20=0xfffff9d5
       51565000	      5155	80000730	418a8eb3	sub	x29,x21,x24	 x21:0x00000001 x24:0x00000020 x29=0xffffffe1
       51575000	      5156	80000734	00988893	addi	x17,x17,9	 x17:0xfffffff8 x17=0x00000001
       51585000	      5157	80000738	408a5493	srai	x9,x20,0x8	 x20:0xfffff9d5  x9=0xfffffff9
       51595000	      5158	8000073c	fe68c2e3	blt	x17,x6,80000720	 x17:0x00000001  x6:0x0000000d
       51605000	      5159	00000000	00000013	addi	x0,x0,0	  x0:0x00000000
       51615000	      5160	8000071c	00000013	addi	x0,x0,0	  x0:0x00000000
       51625000	      5161	80000720	234f3b97	auipc	x23,0x234f3	 x23=0xa34f371c
       51635000	      5162	80000724	bdca8493	addi	x9,x21,-1060	 x21:0x00000001  x9=0xfffffbdd
       51645000	      5163	80000728	01e01693	slli	x13,x0,0x1e	  x0:0x00000000 x13=0x00000000
       51655000	      5164	8000072c	40b38a33	sub	x20,x7,x11	  x7:0xfffff9d6 x11:0x00000001 x20=0xfffff9d5
       51665000	      5165	80000730	418a8eb3	sub	x29,x21,x24	 x21:0x00000001 x24:0x00000020 x29=0xffffffe1
       51675000	      5166	80000734	00988893	addi	x17,x17,9	 x17:0x00000001 x17=0x0000000a
       51685000	      5167	80000738	408a5493	srai	x9,x20,0x8	 x20:0xfffff9d5  x9=0xfffffff9
       51695000	      5168	8000073c	fe68c2e3	blt	x17,x6,80000720	 x17:0x0000000a  x6:0x0000000d
       51705000	      5169	00000000	00000013	addi	x0,x0,0	  x0:0x00000000
       51715000	      5170	8000071c	00000013	addi	x0,x0,0	  x0:0x00000000
       51725000	      5171	80000720	234f3b97	auipc	x23,0x234f3	 x23=0xa34f371c
       51735000	      5172	80000724	bdca8493	addi	x9,x21,-1060	 x21:0x00000001  x9=0xfffffbdd
       51745000	      5173	80000728	01e01693	slli	x13,x0,0x1e	  x0:0x00000000 x13=0x00000000
       51755000	      5174	8000072c	40b38a33	sub	x20,x7,x11	  x7:0xfffff9d6 x11:0x00000001 x20=0xfffff9d5
       51765000	      5175	80000730	418a8eb3	sub	x29,x21,x24	 x21:0x00000001 x24:0x00000020 x29=0xffffffe1
       51775000	      5176	80000734	00988893	addi	x17,x17,9	 x17:0x0000000a x17=0x00000013
       51785000	      5177	80000738	408a5493	srai	x9,x20,0x8	 x20:0xfffff9d5  x9=0xfffffff9
       51795000	      5178	8000073c	fe68c2e3	blt	x17,x6,80000720	 x17:0x00000013  x6:0x0000000d
       51805000	      5179	80000740	b5a0c213	xori	x4,x1,-1190	  x1:0x80009feb  x4=0x7fff64b1
       51815000	      5180	80000744	000a5533	srl	x10,x20,x0	 x20:0xfffff9d5  x0:0x00000000 x10=0xfffff9d5
       51825000	      5181	80000748	00097333	and	x6,x18,x0	 x18:0x00000000  x0:0x00000000  x6=0x00000000
       51835000	      5182	8000074c	00d51c93	slli	x25,x10,0xd	 x10:0xfffff9d5 x25=0xff3aa000
       51845000	      5183	80000750	03c96863	bltu	x18,x28,80000780	 x18:0x00000000 x28:0x00000000
       51855000	      5184	80000754	02e04e63	blt	x0,x14,80000790	  x0:0x00000000 x14:0x80009fc4
       51865000	      5185	80000758	00e49eb3	sll	x29,x9,x14	  x9:0xfffffff9 x14:0x80009fc4 x29=0xffffff90
       51875000	      5186	8000075c	035c4c63	blt	x24,x21,80000794	 x24:0x00000020 x21:0x00000001
       51885000	      5187	80000760	e118bd93	sltiu	x27,x17,-495	 x17:0x00000013 x27=0x00000001
       51895000	      5188	80000764	003d9813	slli	x16,x27,0x3	 x27:0x00000001 x16=0x00000008
       51905000	      5189	80000768	030b9463	bne	x23,x16,80000790	 x23:0xa34f371c x16:0x00000008
       51915000	      5190	00000000	00000013	addi	x0,x0,0	  x0:0x00000000
       51925000	      5191	8000078c	00000013	addi	x0,x0,0	  x0:0x00000000
       51935000	      5192	80000790	00284a33	xor	x20,x16,x2	 x16:0x00000008  x2:0x00000000 x20=0x00000008
       51945000	      5193	80000794	05658663	beq	x11,x22,800007e0	 x11:0x00000001 x22:0x0002c600
       51955000	      5194	80000798	b27af9b7	lui	x19,0xb27af	 x19=0xb27af000
       51965000	      5195	8000079c	00000013	addi	x0,x0,0	  x0:0x00000000
       51975000	      5196	800007a0	4072d893	srai	x17,x5,0x7	  x5:0xfffffc85 x17=0xfffffff9
       51985000	      5197	800007a4	000ff6b3	and	x13,x31,x0	 x31:0x00000000  x0:0x00000000 x13=0x00000000
       51995000	      5198	800007a8	00dece63	blt	x29,x13,800007c4	 x29:0xffffff90 x13:0x00000000
       52005000	      5199	00000000	00000013	addi	x0,x0,0	  x0:0x00000000
       52015000	      5200	800007c0	00000013	addi	x0,x0,0	  x0:0x00000000
       52025000	      5201	800007c4	00d7d0b3	srl	x1,x15,x13	 x15:0xffffffff x13:0x00000000  x1=0xffffffff
       52035000	      5202	800007c8	006da5b3	slt	x11,x27,x6	 x27:0x00000001  x6:0x00000000 x11=0x00000000
       52045000	      5203	800007cc	00bb8bb3	add	x23,x23,x11	 x23:0xa34f371c x11:0x00000000 x23=0xa34f371c
       52055000	      5204	800007d0	015f1033	sll	x0,x30,x21	 x30:0x80009f60 x21:0x00000001
       52065000	      5205	800007d4	00651813	slli	x16,x10,0x6	 x10:0xfffff9d5 x16=0xfffe7540
       52075000	      5206	800007d8	41d35693	srai	x13,x6,0x1d	  x6:0x00000000 x13=0x00000000
       52085000	      5207	800007dc	05535863	bge	x6,x21,8000082c	  x6:0x00000000 x21:0x00000001
       52095000	      5208	800007e0	01545e93	srli	x29,x8,0x15	  x8:0x00000000 x29=0x00000000
       52105000	      5209	800007e4	9772fe93	andi	x29,x5,-1673	  x5:0xfffffc85 x29=0xfffff805
       52115000	      5210	800007e8	01503cb3	sltu	x25,x0,x21	  x0:0x00000000 x21:0x00000001 x25=0x00000001
       52125000	      5211	800007ec	609ae413	ori	x8,x21,1545	 x21:0x00000001  x8=0x00000609
       52135000	      5212	800007f0	def9aa37	lui	x20,0xdef9a	 x20=0xdef9a000
       52145000	      5213	800007f4	3a417613	andi	x12,x2,932	  x2:0x00000000 x12=0x00000000
       52155000	      5214	800007f8	ddf24217	auipc	x4,0xddf24	  x4=0x5df247f4
       52165000	      5215	800007fc	60cd0113	addi	x2,x26,1548	 x26:0x0000000b  x2=0x00000617
       52175000	      5216	80000800	40e68db3	sub	x27,x13,x14	 x13:0x00000000 x14:0x80009fc4 x27=0x7fff603c
       52185000	      5217	80000804	8d732313	slti	x6,x6,-1833	  x6:0x00000000  x6=0x00000000
       52195000	      5218	80000808	0045d463	bge	x11,x4,80000810	 x11:0x00000000  x4:0x5df247f4
       52205000	      5219	8000080c	0104a133	slt	x2,x9,x16	  x9:0xfffffff9 x16:0xfffe7540  x2=0x00000000
       52215000	      5220	80000810	dd39bd93	sltiu	x27,x19,-557	 x19:0xb27af000 x27=0x00000001
       52225000	      5221	80000814	05b68463	beq	x13,x27,8000085c	 x13:0x00000000 x27:0x00000001
       52235000	      5222	80000818	01f3d2b3	srl	x5,x7,x31	  x7:0xfffff9d6 x31:0x00000000  x5=0xfffff9d6
       52245000	      5223	8000081c	d0f64213	xori	x4,x12,-753	 x12:0x00000000  x4=0xfffffd0f
       52255000	      5224	80000820	01ab9593	slli	x11,x23,0x1a	 x23:0xa34f371c x11=0x70000000
       52265000	      5225	80000824	00e103b3	add	x7,x2,x14	  x2:0x00000000 x14:0x80009fc4  x7=0x80009fc4
       52275000	      5226	80000828	0053efb3	or	x31,x7,x5	  x7:0x80009fc4  x5:0xfffff9d6 x31=0xffffffd6
       52285000	      5227	8000082c	02490a63	beq	x18,x4,80000860	 x18:0x00000000  x4:0xfffffd0f
       52295000	      5228	80000830	2dc06b93	ori	x23,x0,732	  x0:0x00000000 x23=0x000002dc
       52305000	      5229	80000834	893f7b13	andi	x22,x30,-1901	 x30:0x80009f60 x22=0x80009800
       52315000	      5230	80000838	037b1c63	bne	x22,x23,80000870	 x22:0x80009800 x23:0x000002dc
       52325000	      5231	00000000	00000013	addi	x0,x0,0	  x0:0x00000000
       52335000	      5232	8000086c	00000013	addi	x0,x0,0	  x0:0x00000000
       52345000	      5233	80000870	41595b13	srai	x22,x18,0x15	 x18:0x00000000 x22=0x00000000
       52355000	      5234	80000874	01d09933	sll	x18,x1,x29	  x1:0xffffffff x29:0xfffff805 x18=0xffffffe0
       52365000	      5235	80000878	000110b3	sll	x1,x2,x0	  x2:0x00000000  x0:0x00000000  x1=0x00000000
       52375000	      5236	8000087c	009e9eb3	sll	x29,x29,x9	 x29:0xfffff805  x9:0xfffffff9 x29=0x0a000000
       52385000	      5237	80000880	403a8933	sub	x18,x21,x3	 x21:0x00000001  x3:0xfffffbd6 x18=0x0000042b
       52395000	      5238	80000884	00a54a63	blt	x10,x10,80000898	 x10:0xfffff9d5 x10:0xfffff9d5
       52405000	      5239	80000888	013adcb3	srl	x25,x21,x19	 x21:0x00000001 x19:0xb27af000 x25=0x00000001
       52415000	      5240	8000088c	4161d393	srai	x7,x3,0x16	  x3:0xfffffbd6  x7=0xffffffff
       52425000	      5241	80000890	2b9e0893	addi	x17,x28,697	 x28:0x00000000 x17=0x000002b9
       52435000	      5242	80000894	0194fc63	bgeu	x9,x25,800008ac	  x9:0xfffffff9 x25:0x00000001
       52445000	      5243	00000000	00000013	addi	x0,x0,0	  x0:0x00000000
       52455000	      5244	800008a8	00000013	addi	x0,x0,0	  x0:0x00000000
       52465000	      5245	800008ac	419fd213	srai	x4,x31,0x19	 x31:0xffffffd6  x4=0xffffffff
       52475000	      5246	800008b0	035bf663	bgeu	x23,x21,800008dc	 x23:0x000002dc x21:0x00000001
       52485000	      5247	00000000	00000013	addi	x0,x0,0	  x0:0x00000000
       52495000	      5248	800008d8	00000013	addi	x0,x0,0	  x0:0x00000000
       52505000	      5249	800008dc	00000013	addi	x0,x0,0	  x0:0x00000000
       52515000	      5250	800008e0	e2058b13	addi	x22,x11,-480	 x11:0x70000000 x22=0x6ffffe20
       52525000	      5251	800008e4	01feec33	or	x24,x29,x31	 x29:0x0a000000 x31:0xffffffd6 x24=0xffffffd6
       52535000	      5252	800008e8	003b7e63	bgeu	x22,x3,80000904	 x22:0x6ffffe20  x3:0xfffffbd6
       52545000	      5253	800008ec	40cb5eb3	sra	x29,x22,x12	 x22:0x6ffffe20 x12:0x00000000 x29=0x6ffffe20
       52555000	      5254	800008f0	870c3a17	auipc	x20,0x870c3	 x20=0x070c38ec
       52565000	      5255	800008f4	ec2a6a93	ori	x21,x20,-318	 x20:0x070c38ec x21=0xfffffeee
       52575000	      5256	800008f8	00000013	addi	x0,x0,0	  x0:0x00000000
       52585000	      5257	800008fc	015a3833	sltu	x16,x20,x21	 x20:0x070c38ec x21:0xfffffeee x16=0x00000001
       52595000	      5258	80000900	01b35cb3	srl	x25,x6,x27	  x6:0x00000000 x27:0x00000001 x25=0x00000000
       52605000	      5259	80000904	0dc015ef	jal	x11,80000904	 x11=0x80000904
       52615000	      5260	00000000	00000013	addi	x0,x0,0	  x0:0x00000000
       52625000	      5261	800019dc	00000013	addi	x0,x0,0	  x0:0x00000000
       52635000	      5262	800019e0	008adc33	srl	x24,x21,x8	 x21:0xfffffeee  x8:0x00000609 x24=0x007fffff
       52645000	      5263	800019e4	ff0f0f13	addi	x30,x30,-16	 x30:0x80009f60 x30=0x80009f50
       52655000	      5264	800019e8	0017b933	sltu	x18,x15,x1	 x15:0xffffffff  x1:0x00000000 x18=0x00000000
       52665000	      5265	800019ec	f964b493	sltiu	x9,x9,-106	  x9:0xfffffff9  x9=0x00000000
       52675000	      5266	800019f0	2296f113	andi	x2,x13,553	 x13:0x00000000  x2=0x00000000
       52685000	      5267	800019f4	00137c33	and	x24,x6,x1	  x6:0x00000000  x1:0x00000000 x24=0x00000000
       52695000	      5268	800019f8	f13c2d93	slti	x27,x24,-237	 x24:0x00000000 x27=0x00000000
       52705000	      5269	800019fc	01db2633	slt	x12,x22,x29	 x22:0x6ffffe20 x29:0x6ffffe20 x12=0x00000000
       52715000	      5270	80001a00	0770b493	sltiu	x9,x1,119	  x1:0x00000000  x9=0x00000001
       52725000	      5271	80001a04	00bf2223	sw	x11,4(x30)	 x30:0x80009f50 x11:0x80000904 PA:0x80009f54
       52735000	      5272	80001a08	01d0a7b3	slt	x15,x1,x29	  x1:0x00000000 x29:0x6ffffe20 x15=0x00000001
       52745000	      5273	80001a0c	9e2b8313	addi	x6,x23,-1566	 x23:0x000002dc  x6=0xfffffcbe
       52755000	      5274	80001a10	01edcc63	blt	x27,x30,80001a28	 x27:0x00000000 x30:0x80009f50
       52765000	      5275	80001a14	00979db3	sll	x27,x15,x9	 x15:0x00000001  x9:0x00000001 x27=0x00000002
       52775000	      5276	80001a18	36100697	auipc	x13,0x36100	 x13=0xb6101a14
       52785000	      5277	80001a1c	5c623617	auipc	x12,0x5c623	 x12=0xdc624a18
       52795000	      5278	80001a20	00000013	addi	x0,x0,0	  x0:0x00000000
       52805000	      5279	80001a24	41c757b3	sra	x15,x14,x28	 x14:0x80009fc4 x28:0x00000000 x15=0x80009fc4
       52815000	      5280	80001a28	9a4ff5ef	jal	x11,80001a28	 x11=0x80001a28
       52825000	      5281	00000000	00000013	addi	x0,x0,0	  x0:0x00000000
       52835000	      5282	80000bc8	00000013	addi	x0,x0,0	  x0:0x00000000
       52845000	      5283	80000bcc	fe4f0f13	addi	x30,x30,-28	 x30:0x80009f50 x30=0x80009f34
       52855000	      5284	80000bd0	1af5eeb7	lui	x29,0x1af5e	 x29=0x1af5e000
       52865000	      5285	80000bd4	00bf2223	sw	x11,4(x30)	 x30:0x80009f34 x11:0x80001a28 PA:0x80009f38
       52875000	      5286	80000bd8	00759633	sll	x12,x11,x7	 x11:0x80001a28  x7:0xffffffff x12=0x00000000
       52885000	      5287	80000bdc	011174b3	and	x9,x2,x17	  x2:0x00000000 x17:0x000002b9  x9=0x00000000
       52895000	      5288	80000be0	013407b3	add	x15,x8,x19	  x8:0x00000609 x19:0xb27af000 x15=0xb27af609
       52905000	      5289	80000be4	015340b3	xor	x1,x6,x21	  x6:0xfffffcbe x21:0xfffffeee  x1=0x00000250
       52915000	      5290	80000be8	01b4ebb3	or	x23,x9,x27	  x9:0x00000000 x27:0x00000002 x23=0x00000002
       52925000	      5291	80000bec	798e3593	sltiu	x11,x28,1944	 x28:0x00000000 x11=0x00000001
       52935000	      5292	80000bf0	9c70e093	ori	x1,x1,-1593	  x1:0x00000250  x1=0xfffffbd7
       52945000	      5293	80000bf4	00e556b3	srl	x13,x10,x14	 x10:0xfffff9d5 x14:0x80009fc4 x13=0x0fffff9d
       52955000	      5294	80000bf8	950ca793	slti	x15,x25,-1712	 x25:0x00000000 x15=0x00000000
       52965000	      5295	80000bfc	01a25033	srl	x0,x4,x26	  x4:0xffffffff x26:0x0000000b
       52975000	      5296	80000c00	a8382937	lui	x18,0xa8382	 x18=0xa8382000
       52985000	      5297	80000c04	3b688a13	addi	x20,x17,950	 x17:0x000002b9 x20=0x0000066f
       52995000	      5298	80000c08	d41ff5ef	jal	x11,80000c08	 x11=0x80000c08
       53005000	      5299	00000000	00000013	addi	x0,x0,0	  x0:0x00000000
       53015000	      5300	80000944	00000013	addi	x0,x0,0	  x0:0x00000000
       53025000	      5301	80000948	018e7463	bgeu	x28,x24,80000950	 x28:0x00000000 x24:0x00000000
       53035000	      5302	00000000	00000013	addi	x0,x0,0	  x0:0x00000000
       53045000	      5303	8000094c	00000013	addi	x0,x0,0	  x0:0x00000000
       53055000	      5304	80000950	fd4f0f13	addi	x30,x30,-44	 x30:0x80009f34 x30=0x80009f08
       53065000	      5305	80000954	00bf2223	sw	x11,4(x30)	 x30:0x80009f08 x11:0x80000c08 PA:0x80009f0c
       53075000	      5306	80000958	012e7433	and	x8,x28,x18	 x28:0x00000000 x18:0xa8382000  x8=0x00000000
       53085000	      5307	8000095c	01fff0b3	and	x1,x31,x31	 x31:0xffffffd6 x31:0xffffffd6  x1=0xffffffd6
       53095000	      5308	80000960	00700c13	addi	x24,x0,7	  x0:0x00000000 x24=0x00000007
       53105000	      5309	80000964	00669a13	slli	x20,x13,0x6	 x13:0x0fffff9d x20=0xffffe740
       53115000	      5310	80000968	37f70693	addi	x13,x14,895	 x14:0x80009fc4 x13=0x8000a343
       53125000	      5311	8000096c	9d224593	xori	x11,x4,-1582	  x4:0xffffffff x11=0x0000062d
       53135000	      5312	80000970	00900413	addi	x8,x0,9	  x0:0x00000000  x8=0x00000009
       53145000	      5313	80000974	011b3833	sltu	x16,x22,x17	 x22:0x6ffffe20 x17:0x000002b9 x16=0x00000000
       53155000	      5314	80000978	00373db3	sltu	x27,x14,x3	 x14:0x80009fc4  x3:0xfffffbd6 x27=0x00000001
       53165000	      5315	8000097c	00e35f93	srli	x31,x6,0xe	  x6:0xfffffcbe x31=0x0003ffff
       53175000	      5316	80000980	00b741b3	xor	x3,x14,x11	 x14:0x80009fc4 x11:0x0000062d  x3=0x800099e9
       53185000	      5317	80000984	40a7d1b3	sra	x3,x15,x10	 x15:0x00000000 x10:0xfffff9d5  x3=0x00000000
       53195000	      5318	80000988	004c0c13	addi	x24,x24,4	 x24:0x00000007 x24=0x0000000b
       53205000	      5319	8000098c	00000013	addi	x0,x0,0	  x0:0x00000000
       53215000	      5320	80000990	00a6eb33	or	x22,x13,x10	 x13:0x8000a343 x10:0xfffff9d5 x22=0xfffffbd7
       53225000	      5321	80000994	fe8c40e3	blt	x24,x8,80000974	 x24:0x0000000b  x8:0x00000009
       53235000	      5322	80000998	41a85213	srai	x4,x16,0x1a	 x16:0x00000000  x4=0x00000000
       53245000	      5323	8000099c	01356633	or	x12,x10,x19	 x10:0xfffff9d5 x19:0xb27af000 x12=0xfffff9d5
       53255000	      5324	800009a0	0001d463	bge	x3,x0,800009a8	  x3:0x00000000  x0:0x00000000
       53265000	      5325	00000000	00000013	addi	x0,x0,0	  x0:0x00000000
       53275000	      5326	800009a4	00000013	addi	x0,x0,0	  x0:0x00000000
       53285000	      5327	800009a8	d0853693	sltiu	x13,x10,-760	 x10:0xfffff9d5 x13=0x00000001
       53295000	      5328	800009ac	40dc0a33	sub	x20,x24,x13	 x24:0x0000000b x13:0x00000001 x20=0x0000000a
       53305000	      5329	800009b0	406b5bb3	sra	x23,x22,x6	 x22:0xfffffbd7  x6:0xfffffcbe x23=0xffffffff
       53315000	      5330	800009b4	001c04b3	add	x9,x24,x1	 x24:0x0000000b  x1:0xffffffd6  x9=0xffffffe1
       53325000	      5331	800009b8	00811033	sll	x0,x2,x8	  x2:0x00000000  x8:0x00000009
       53335000	      5332	800009bc	01102b33	slt	x22,x0,x17	  x0:0x00000000 x17:0x000002b9 x22=0x00000001
       53345000	      5333	800009c0	5b22f893	andi	x17,x5,1458	  x5:0xfffff9d6 x17=0x00000192
       53355000	      5334	800009c4	0f786193	ori	x3,x16,247	 x16:0x00000000  x3=0x000000f7
       53365000	      5335	800009c8	801002b7	lui	x5,0x80100	  x5=0x80100000
       53375000	      5336	800009cc	41335333	sra	x6,x6,x19	  x6:0xfffffcbe x19:0xb27af000  x6=0xfffffcbe
       53385000	      5337	800009d0	0587d063	bge	x15,x24,80000a10	 x15:0x00000000 x24:0x0000000b
       53395000	      5338	800009d4	00000013	addi	x0,x0,0	  x0:0x00000000
       53405000	      5339	800009d8	0246d863	bge	x13,x4,80000a08	 x13:0x00000001  x4:0x00000000
       53415000	      5340	00000000	00000013	addi	x0,x0,0	  x0:0x00000000
       53425000	      5341	80000a04	00000013	addi	x0,x0,0	  x0:0x00000000
       53435000	      5342	80000a08	4181d833	sra	x16,x3,x24	  x3:0x000000f7 x24:0x0000000b x16=0x00000000
       53445000	      5343	80000a0c	414e5793	srai	x15,x28,0x14	 x28:0x00000000 x15=0x00000000
       53455000	      5344	80000a10	ed41b293	sltiu	x5,x3,-300	  x3:0x000000f7  x5=0x00000001
       53465000	      5345	80000a14	feea2697	auipc	x13,0xfeea2	 x13=0x7eea2a10
       53475000	      5346	80000a18	0384d463	bge	x9,x24,80000a40	  x9:0xffffffe1 x24:0x0000000b
       53485000	      5347	80000a1c	01cdfb33	and	x22,x27,x28	 x27:0x00000001 x28:0x00000000 x22=0x00000000
       53495000	      5348	80000a20	91953c13	sltiu	x24,x10,-1767	 x10:0xfffff9d5 x24=0x00000000
       53505000	      5349	80000a24	05093593	sltiu	x11,x18,80	 x18:0xa8382000 x11=0x00000000
       53515000	      5350	80000a28	015b0233	add	x4,x22,x21	 x22:0x00000000 x21:0xfffffeee  x4=0xfffffeee
       53525000	      5351	80000a2c	41bf5e33	sra	x28,x30,x27	 x30:0x80009f08 x27:0x00000001 x28=0xc0004f84
       53535000	      5352	80000a30	41eed433	sra	x8,x29,x30	 x29:0x1af5e000 x30:0x80009f08  x8=0x001af5e0
       53545000	      5353	80000a34	65f98393	addi	x7,x19,1631	 x19:0xb27af000  x7=0xb27af65f
       53555000	      5354	80000a38	9944f693	andi	x13,x9,-1644	  x9:0xffffffe1 x13=0xfffff980
       53565000	      5355	80000a3c	01825813	srli	x16,x4,0x18	  x4:0xfffffeee x16=0x000000ff
       53575000	      5356	80000a40	8c638493	addi	x9,x7,-1850	  x7:0xb27af65f  x9=0xb27aef25
       53585000	      5357	80000a44	058e1863	bne	x28,x24,80000a94	 x28:0xc0004f84 x24:0x00000000
       53595000	      5358	00000000	00000013	addi	x0,x0,0	  x0:0x00000000
       53605000	      5359	80000a90	00000013	addi	x0,x0,0	  x0:0x00000000
       53615000	      5360	80000a94	03dbf463	bgeu	x23,x29,80000abc	 x23:0xffffffff x29:0x1af5e000
       53625000	      5361	00000000	00000013	addi	x0,x0,0	  x0:0x00000000
       53635000	      5362	80000ab8	00000013	addi	x0,x0,0	  x0:0x00000000
       53645000	      5363	80000abc	99185697	auipc	x13,0x99185	 x13=0x19185ab8
       53655000	      5364	80000ac0	0198e333	or	x6,x17,x25	 x17:0x00000192 x25:0x00000000  x6=0x00000192
       53665000	      5365	80000ac4	01f560b3	or	x1,x10,x31	 x10:0xfffff9d5 x31:0x0003ffff  x1=0xffffffff
       53675000	      5366	80000ac8	004fc033	xor	x0,x31,x4	 x31:0x0003ffff  x4:0xfffffeee
       53685000	      5367	80000acc	9f14cdb7	lui	x27,0x9f14c	 x27=0x9f14c000
       53695000	      5368	80000ad0	003a6433	or	x8,x20,x3	 x20:0x0000000a  x3:0x000000f7  x8=0x000000ff
       53705000	      5369	80000ad4	017e8833	add	x16,x29,x23	 x29:0x1af5e000 x23:0xffffffff x16=0x1af5dfff
       53715000	      5370	80000ad8	23f5f613	andi	x12,x11,575	 x11:0x00000000 x12=0x00000000
       53725000	      5371	80000adc	00479663	bne	x15,x4,80000ae8	 x15:0x00000000  x4:0xfffffeee
       53735000	      5372	00000000	00000013	addi	x0,x0,0	  x0:0x00000000
       53745000	      5373	80000ae4	00000013	addi	x0,x0,0	  x0:0x00000000
       53755000	      5374	80000ae8	4c98ec97	auipc	x25,0x4c98e	 x25=0xcc98eae4
       53765000	      5375	80000aec	bdbc47b7	lui	x15,0xbdbc4	 x15=0xbdbc4000
       53775000	      5376	80000af0	00339333	sll	x6,x7,x3	  x7:0xb27af65f  x3:0x000000f7  x6=0x2f800000
       53785000	      5377	80000af4	00cdf463	bgeu	x27,x12,80000afc	 x27:0x9f14c000 x12:0x00000000
       53795000	      5378	00000000	00000013	addi	x0,x0,0	  x0:0x00000000
       53805000	      5379	80000af8	00000013	addi	x0,x0,0	  x0:0x00000000
       53815000	      5380	80000afc	affd3193	sltiu	x3,x26,-1281	 x26:0x0000000b  x3=0x00000001
       53825000	      5381	80000b00	01416a33	or	x20,x2,x20	  x2:0x00000000 x20:0x0000000a x20=0x0000000a
       53835000	      5382	80000b04	00126633	or	x12,x4,x1	  x4:0xfffffeee  x1:0xffffffff x12=0xffffffff
       53845000	      5383	80000b08	004f2583	lw	x11,4(x30)	 x30:0x80009f08 x11=0x80000c08 PA:0x80009f0c
       53855000	      5384	80000b0c	a918e693	ori	x13,x17,-1391	 x17:0x00000192 x13=0xfffffb93
       53865000	      5385	80000b10	02cf0f13	addi	x30,x30,44	 x30:0x80009f08 x30=0x80009f34
       53875000	      5386	80000b14	012b6633	or	x12,x22,x18	 x22:0x00000000 x18:0xa8382000 x12=0xa8382000
       53885000	      5387	80000b18	414a5e13	srai	x28,x20,0x14	 x20:0x0000000a x28=0x00000000
       53895000	      5388	80000b1c	00158313	addi	x6,x11,1	 x11:0x80000c08  x6=0x80000c09
       53905000	      5389	80000b20	00030367	jalr	x6,x6,0	  x6:0x80000c09  x6=0x80000b20
       53915000	      5390	00000000	00000013	addi	x0,x0,0	  x0:0x00000000
       53925000	      5391	80000c08	00000013	addi	x0,x0,0	  x0:0x00000000
       53935000	      5392	80000c0c	00100593	addi	x11,x0,1	  x0:0x00000000 x11=0x00000001
       53945000	      5393	80000c10	01000413	addi	x8,x0,16	  x0:0x00000000  x8=0x00000010
       53955000	      5394	80000c14	41e38333	sub	x6,x7,x30	  x7:0xb27af65f x30:0x80009f34  x6=0x327a572b
       53965000	      5395	80000c18	41490cb3	sub	x25,x18,x20	 x18:0xa8382000 x20:0x0000000a x25=0xa8381ff6
       53975000	      5396	80000c1c	01380eb3	add	x29,x16,x19	 x16:0x1af5dfff x19:0xb27af000 x29=0xcd70cfff
       53985000	      5397	80000c20	00000013	addi	x0,x0,0	  x0:0x00000000
       53995000	      5398	80000c24	00858593	addi	x11,x11,8	 x11:0x00000001 x11=0x00000009
       54005000	      5399	80000c28	00d3d313	srli	x6,x7,0xd	  x7:0xb27af65f  x6=0x000593d7
       54015000	      5400	80000c2c	00400e13	addi	x28,x0,4	  x0:0x00000000 x28=0x00000004
       54025000	      5401	80000c30	005bc4b3	xor	x9,x23,x5	 x23:0xffffffff  x5:0x00000001  x9=0xfffffffe
       54035000	      5402	80000c34	00300b13	addi	x22,x0,3	  x0:0x00000000 x22=0x00000003
       54045000	      5403	80000c38	01cb7fb3	and	x31,x22,x28	 x22:0x00000003 x28:0x00000004 x31=0x00000000
       54055000	      5404	80000c3c	01824833	xor	x16,x4,x24	  x4:0xfffffeee x24:0x00000000 x16=0xfffffeee
       54065000	      5405	80000c40	40195bb3	sra	x23,x18,x1	 x18:0xa8382000  x1:0xffffffff x23=0xffffffff
       54075000	      5406	80000c44	ffee0e13	addi	x28,x28,-2	 x28:0x00000004 x28=0x00000002
       54085000	      5407	80000c48	8af6a013	slti	x0,x13,-1873	 x13:0xfffffb93
       54095000	      5408	80000c4c	ff6e76e3	bgeu	x28,x22,80000c38	 x28:0x00000002 x22:0x00000003
       54105000	      5409	80000c50	3bc6b793	sltiu	x15,x13,956	 x13:0xfffffb93 x15=0x00000000
       54115000	      5410	80000c54	fc85c2e3	blt	x11,x8,80000c18	 x11:0x00000009  x8:0x00000010
       54125000	      5411	00000000	00000013	addi	x0,x0,0	  x0:0x00000000
       54135000	      5412	80000c14	00000013	addi	x0,x0,0	  x0:0x00000000
       54145000	      5413	80000c18	41490cb3	sub	x25,x18,x20	 x18:0xa8382000 x20:0x0000000a x25=0xa8381ff6
       54155000	      5414	80000c1c	01380eb3	add	x29,x16,x19	 x16:0xfffffeee x19:0xb27af000 x29=0xb27aeeee
       54165000	      5415	80000c20	00000013	addi	x0,x0,0	  x0:0x00000000
       54175000	      5416	80000c24	00858593	addi	x11,x11,8	 x11:0x00000009 x11=0x00000011
       54185000	      5417	80000c28	00d3d313	srli	x6,x7,0xd	  x7:0xb27af65f  x6=0x000593d7
       54195000	      5418	80000c2c	00400e13	addi	x28,x0,4	  x0:0x00000000 x28=0x00000004
       54205000	      5419	80000c30	005bc4b3	xor	x9,x23,x5	 x23:0xffffffff  x5:0x00000001  x9=0xfffffffe
       54215000	      5420	80000c34	00300b13	addi	x22,x0,3	  x0:0x00000000 x22=0x00000003
       54225000	      5421	80000c38	01cb7fb3	and	x31,x22,x28	 x22:0x00000003 x28:0x00000004 x31=0x00000000
       54235000	      5422	80000c3c	01824833	xor	x16,x4,x24	  x4:0xfffffeee x24:0x00000000 x16=0xfffffeee
       54245000	      5423	80000c40	40195bb3	sra	x23,x18,x1	 x18:0xa8382000  x1:0xffffffff x23=0xffffffff
       54255000	      5424	80000c44	ffee0e13	addi	x28,x28,-2	 x28:0x00000004 x28=0x00000002
       54265000	      5425	80000c48	8af6a013	slti	x0,x13,-1873	 x13:0xfffffb93
       54275000	      5426	80000c4c	ff6e76e3	bgeu	x28,x22,80000c38	 x28:0x00000002 x22:0x00000003
       54285000	      5427	80000c50	3bc6b793	sltiu	x15,x13,956	 x13:0xfffffb93 x15=0x00000000
       54295000	      5428	80000c54	fc85c2e3	blt	x11,x8,80000c18	 x11:0x00000011  x8:0x00000010
       54305000	      5429	80000c58	0039a4b3	slt	x9,x19,x3	 x19:0xb27af000  x3:0x00000001  x9=0x00000001
       54315000	      5430	80000c5c	00a00413	addi	x8,x0,10	  x0:0x00000000  x8=0x0000000a
       54325000	      5431	80000c60	39bcbc37	lui	x24,0x39bcb	 x24=0x39bcb000
       54335000	      5432	80000c64	00b00593	addi	x11,x0,11	  x0:0x00000000 x11=0x0000000b
       54345000	      5433	80000c68	ec5feb93	ori	x23,x31,-315	 x31:0x00000000 x23=0xfffffec5
       54355000	      5434	80000c6c	0184c0b3	xor	x1,x9,x24	  x9:0x00000001 x24:0x39bcb000  x1=0x39bcb001
       54365000	      5435	80000c70	17ed8493	addi	x9,x27,382	 x27:0x9f14c000  x9=0x9f14c17e
       54375000	      5436	80000c74	0096d513	srli	x10,x13,0x9	 x13:0xfffffb93 x10=0x007ffffd
       54385000	      5437	80000c78	00940413	addi	x8,x8,9	  x8:0x0000000a  x8=0x00000013
       54395000	      5438	80000c7c	000ef333	and	x6,x29,x0	 x29:0xb27aeeee  x0:0x00000000  x6=0x00000000
       54405000	      5439	80000c80	005db0b3	sltu	x1,x27,x5	 x27:0x9f14c000  x5:0x00000001  x1=0x00000000
       54415000	      5440	80000c84	ffd00e93	addi	x29,x0,-3	  x0:0x00000000 x29=0xfffffffd
       54425000	      5441	80000c88	0eb32c13	slti	x24,x6,235	  x6:0x00000000 x24=0x00000001
       54435000	      5442	80000c8c	ff100b13	addi	x22,x0,-15	  x0:0x00000000 x22=0xfffffff1
       54445000	      5443	80000c90	2c30c213	xori	x4,x1,707	  x1:0x00000000  x4=0x000002c3
       54455000	      5444	80000c94	40e00333	sub	x6,x0,x14	  x0:0x00000000 x14:0x80009fc4  x6=0x7fff603c
       54465000	      5445	80000c98	ffde8e93	addi	x29,x29,-3	 x29:0xfffffffd x29=0xfffffffa
       54475000	      5446	80000c9c	ea8080b7	lui	x1,0xea808	  x1=0xea808000
       54485000	      5447	80000ca0	134bee13	ori	x28,x23,308	 x23:0xfffffec5 x28=0xfffffff5
       54495000	      5448	80000ca4	ff6e96e3	bne	x29,x22,80000c90	 x29:0xfffffffa x22:0xfffffff1
       54505000	      5449	00000000	00000013	addi	x0,x0,0	  x0:0x00000000
       54515000	      5450	80000c8c	00000013	addi	x0,x0,0	  x0:0x00000000
       54525000	      5451	80000c90	2c30c213	xori	x4,x1,707	  x1:0xea808000  x4=0xea8082c3
       54535000	      5452	80000c94	40e00333	sub	x6,x0,x14	  x0:0x00000000 x14:0x80009fc4  x6=0x7fff603c
       54545000	      5453	80000c98	ffde8e93	addi	x29,x29,-3	 x29:0xfffffffa x29=0xfffffff7
       54555000	      5454	80000c9c	ea8080b7	lui	x1,0xea808	  x1=0xea808000
       54565000	      5455	80000ca0	134bee13	ori	x28,x23,308	 x23:0xfffffec5 x28=0xfffffff5
       54575000	      5456	80000ca4	ff6e96e3	bne	x29,x22,80000c90	 x29:0xfffffff7 x22:0xfffffff1
       54585000	      5457	00000000	00000013	addi	x0,x0,0	  x0:0x00000000
       54595000	      5458	80000c8c	00000013	addi	x0,x0,0	  x0:0x00000000
       54605000	      5459	80000c90	2c30c213	xori	x4,x1,707	  x1:0xea808000  x4=0xea8082c3
       54615000	      5460	80000c94	40e00333	sub	x6,x0,x14	  x0:0x00000000 x14:0x80009fc4  x6=0x7fff603c
       54625000	      5461	80000c98	ffde8e93	addi	x29,x29,-3	 x29:0xfffffff7 x29=0xfffffff4
       54635000	      5462	80000c9c	ea8080b7	lui	x1,0xea808	  x1=0xea808000
       54645000	      5463	80000ca0	134bee13	ori	x28,x23,308	 x23:0xfffffec5 x28=0xfffffff5
       54655000	      5464	80000ca4	ff6e96e3	bne	x29,x22,80000c90	 x29:0xfffffff4 x22:0xfffffff1
       54665000	      5465	00000000	00000013	addi	x0,x0,0	  x0:0x00000000
       54675000	      5466	80000c8c	00000013	addi	x0,x0,0	  x0:0x00000000
       54685000	      5467	80000c90	2c30c213	xori	x4,x1,707	  x1:0xea808000  x4=0xea8082c3
       54695000	      5468	80000c94	40e00333	sub	x6,x0,x14	  x0:0x00000000 x14:0x80009fc4  x6=0x7fff603c
       54705000	      5469	80000c98	ffde8e93	addi	x29,x29,-3	 x29:0xfffffff4 x29=0xfffffff1
       54715000	      5470	80000c9c	ea8080b7	lui	x1,0xea808	  x1=0xea808000
       54725000	      5471	80000ca0	134bee13	ori	x28,x23,308	 x23:0xfffffec5 x28=0xfffffff5
       54735000	      5472	80000ca4	ff6e96e3	bne	x29,x22,80000c90	 x29:0xfffffff1 x22:0xfffffff1
       54745000	      5473	80000ca8	fcb442e3	blt	x8,x11,80000c6c	  x8:0x00000013 x11:0x0000000b
       54755000	      5474	80000cac	76572213	slti	x4,x14,1893	 x14:0x80009fc4  x4=0x00000001
       54765000	      5475	80000cb0	00700813	addi	x16,x0,7	  x0:0x00000000 x16=0x00000007
       54775000	      5476	80000cb4	944df693	andi	x13,x27,-1724	 x27:0x9f14c000 x13=0x9f14c000
       54785000	      5477	80000cb8	692c59b7	lui	x19,0x692c5	 x19=0x692c5000
       54795000	      5478	80000cbc	40a00cb3	sub	x25,x0,x10	  x0:0x00000000 x10:0x007ffffd x25=0xff800003
       54805000	      5479	80000cc0	08782893	slti	x17,x16,135	 x16:0x00000007 x17=0x00000001
       54815000	      5480	80000cc4	43226537	lui	x10,0x43226	 x10=0x43226000
       54825000	      5481	80000cc8	ff000213	addi	x4,x0,-16	  x0:0x00000000  x4=0xfffffff0
       54835000	      5482	80000ccc	01ed9033	sll	x0,x27,x30	 x27:0x9f14c000 x30:0x80009f34
       54845000	      5483	80000cd0	010fde33	srl	x28,x31,x16	 x31:0x00000000 x16:0x00000007 x28=0x00000000
       54855000	      5484	80000cd4	40ad0e33	sub	x28,x26,x10	 x26:0x0000000b x10:0x43226000 x28=0xbcdda00b
       54865000	      5485	80000cd8	ffa80813	addi	x16,x16,-6	 x16:0x00000007 x16=0x00000001
       54875000	      5486	80000cdc	403901b3	sub	x3,x18,x3	 x18:0xa8382000  x3:0x00000001  x3=0xa8381fff
       54885000	      5487	80000ce0	002fbeb3	sltu	x29,x31,x2	 x31:0x00000000  x2:0x00000000 x29=0x00000000
       54895000	      5488	80000ce4	014c9533	sll	x10,x25,x20	 x25:0xff800003 x20:0x0000000a x10=0x00000c00
       54905000	      5489	80000ce8	013a8fb3	add	x31,x21,x19	 x21:0xfffffeee x19:0x692c5000 x31=0x692c4eee
       54915000	      5490	80000cec	ff900d93	addi	x27,x0,-7	  x0:0x00000000 x27=0xfffffff9
       54925000	      5491	80000cf0	018d9a93	slli	x21,x27,0x18	 x27:0xfffffff9 x21=0xf9000000
       54935000	      5492	80000cf4	00d7f533	and	x10,x15,x13	 x15:0x00000000 x13:0x9f14c000 x10=0x00000000
       54945000	      5493	80000cf8	00500413	addi	x8,x0,5	  x0:0x00000000  x8=0x00000005
       54955000	      5494	80000cfc	4167dab3	sra	x21,x15,x22	 x15:0x00000000 x22:0xfffffff1 x21=0x00000000
       54965000	      5495	80000d00	40685e93	srai	x29,x16,0x6	 x16:0x00000001 x29=0x00000000
       54975000	      5496	80000d04	40e7d693	srai	x13,x15,0xe	 x15:0x00000000 x13=0x00000000
       54985000	      5497	80000d08	8283a793	slti	x15,x7,-2008	  x7:0xb27af65f x15=0x00000001
       54995000	      5498	80000d0c	01305ab3	srl	x21,x0,x19	  x0:0x00000000 x19:0x692c5000 x21=0x00000000
       55005000	      5499	80000d10	52ecb613	sltiu	x12,x25,1326	 x25:0xff800003 x12=0x00000000
       55015000	      5500	80000d14	cc97b593	sltiu	x11,x15,-823	 x15:0x00000001 x11=0x00000001
       55025000	      5501	80000d18	003d8d93	addi	x27,x27,3	 x27:0xfffffff9 x27=0xfffffffc
       55035000	      5502	80000d1c	ebf8fc13	andi	x24,x17,-321	 x17:0x00000001 x24=0x00000001
       55045000	      5503	80000d20	4091d033	sra	x0,x3,x9	  x3:0xa8381fff  x9:0x9f14c17e
       55055000	      5504	80000d24	fe8d86e3	beq	x27,x8,80000d10	 x27:0xfffffffc  x8:0x00000005
       55065000	      5505	80000d28	00f10b33	add	x22,x2,x15	  x2:0x00000000 x15:0x00000001 x22=0x00000001
       55075000	      5506	80000d2c	41860333	sub	x6,x12,x24	 x12:0x00000000 x24:0x00000001  x6=0xffffffff
       55085000	      5507	80000d30	fa4852e3	bge	x16,x4,80000cd4	 x16:0x00000001  x4:0xfffffff0
       55095000	      5508	00000000	00000013	addi	x0,x0,0	  x0:0x00000000
       55105000	      5509	80000cd0	00000013	addi	x0,x0,0	  x0:0x00000000
       55115000	      5510	80000cd4	40ad0e33	sub	x28,x26,x10	 x26:0x0000000b x10:0x00000000 x28=0x0000000b
       55125000	      5511	80000cd8	ffa80813	addi	x16,x16,-6	 x16:0x00000001 x16=0xfffffffb
       55135000	      5512	80000cdc	403901b3	sub	x3,x18,x3	 x18:0xa8382000  x3:0xa8381fff  x3=0x00000001
       55145000	      5513	80000ce0	002fbeb3	sltu	x29,x31,x2	 x31:0x692c4eee  x2:0x00000000 x29=0x00000000
       55155000	      5514	80000ce4	014c9533	sll	x10,x25,x20	 x25:0xff800003 x20:0x0000000a x10=0x00000c00
       55165000	      5515	80000ce8	013a8fb3	add	x31,x21,x19	 x21:0x00000000 x19:0x692c5000 x31=0x692c5000
       55175000	      5516	80000cec	ff900d93	addi	x27,x0,-7	  x0:0x00000000 x27=0xfffffff9
       55185000	      5517	80000cf0	018d9a93	slli	x21,x27,0x18	 x27:0xfffffff9 x21=0xf9000000
       55195000	      5518	80000cf4	00d7f533	and	x10,x15,x13	 x15:0x00000001 x13:0x00000000 x10=0x00000000
       55205000	      5519	80000cf8	00500413	addi	x8,x0,5	  x0:0x00000000  x8=0x00000005
       55215000	      5520	80000cfc	4167dab3	sra	x21,x15,x22	 x15:0x00000001 x22:0x00000001 x21=0x00000000
       55225000	      5521	80000d00	40685e93	srai	x29,x16,0x6	 x16:0xfffffffb x29=0xffffffff
       55235000	      5522	80000d04	40e7d693	srai	x13,x15,0xe	 x15:0x00000001 x13=0x00000000
       55245000	      5523	80000d08	8283a793	slti	x15,x7,-2008	  x7:0xb27af65f x15=0x00000001
       55255000	      5524	80000d0c	01305ab3	srl	x21,x0,x19	  x0:0x00000000 x19:0x692c5000 x21=0x00000000
       55265000	      5525	80000d10	52ecb613	sltiu	x12,x25,1326	 x25:0xff800003 x12=0x00000000
       55275000	      5526	80000d14	cc97b593	sltiu	x11,x15,-823	 x15:0x00000001 x11=0x00000001
       55285000	      5527	80000d18	003d8d93	addi	x27,x27,3	 x27:0xfffffff9 x27=0xfffffffc
       55295000	      5528	80000d1c	ebf8fc13	andi	x24,x17,-321	 x17:0x00000001 x24=0x00000001
       55305000	      5529	80000d20	4091d033	sra	x0,x3,x9	  x3:0x00000001  x9:0x9f14c17e
       55315000	      5530	80000d24	fe8d86e3	beq	x27,x8,80000d10	 x27:0xfffffffc  x8:0x00000005
       55325000	      5531	80000d28	00f10b33	add	x22,x2,x15	  x2:0x00000000 x15:0x00000001 x22=0x00000001
       55335000	      5532	80000d2c	41860333	sub	x6,x12,x24	 x12:0x00000000 x24:0x00000001  x6=0xffffffff
       55345000	      5533	80000d30	fa4852e3	bge	x16,x4,80000cd4	 x16:0xfffffffb  x4:0xfffffff0
       55355000	      5534	00000000	00000013	addi	x0,x0,0	  x0:0x00000000
       55365000	      5535	80000cd0	00000013	addi	x0,x0,0	  x0:0x00000000
       55375000	      5536	80000cd4	40ad0e33	sub	x28,x26,x10	 x26:0x0000000b x10:0x00000000 x28=0x0000000b
       55385000	      5537	80000cd8	ffa80813	addi	x16,x16,-6	 x16:0xfffffffb x16=0xfffffff5
       55395000	      5538	80000cdc	403901b3	sub	x3,x18,x3	 x18:0xa8382000  x3:0x00000001  x3=0xa8381fff
       55405000	      5539	80000ce0	002fbeb3	sltu	x29,x31,x2	 x31:0x692c5000  x2:0x00000000 x29=0x00000000
       55415000	      5540	80000ce4	014c9533	sll	x10,x25,x20	 x25:0xff800003 x20:0x0000000a x10=0x00000c00
       55425000	      5541	80000ce8	013a8fb3	add	x31,x21,x19	 x21:0x00000000 x19:0x692c5000 x31=0x692c5000
       55435000	      5542	80000cec	ff900d93	addi	x27,x0,-7	  x0:0x00000000 x27=0xfffffff9
       55445000	      5543	80000cf0	018d9a93	slli	x21,x27,0x18	 x27:0xfffffff9 x21=0xf9000000
       55455000	      5544	80000cf4	00d7f533	and	x10,x15,x13	 x15:0x00000001 x13:0x00000000 x10=0x00000000
       55465000	      5545	80000cf8	00500413	addi	x8,x0,5	  x0:0x00000000  x8=0x00000005
       55475000	      5546	80000cfc	4167dab3	sra	x21,x15,x22	 x15:0x00000001 x22:0x00000001 x21=0x00000000
       55485000	      5547	80000d00	40685e93	srai	x29,x16,0x6	 x16:0xfffffff5 x29=0xffffffff
       55495000	      5548	80000d04	40e7d693	srai	x13,x15,0xe	 x15:0x00000001 x13=0x00000000
       55505000	      5549	80000d08	8283a793	slti	x15,x7,-2008	  x7:0xb27af65f x15=0x00000001
       55515000	      5550	80000d0c	01305ab3	srl	x21,x0,x19	  x0:0x00000000 x19:0x692c5000 x21=0x00000000
       55525000	      5551	80000d10	52ecb613	sltiu	x12,x25,1326	 x25:0xff800003 x12=0x00000000
       55535000	      5552	80000d14	cc97b593	sltiu	x11,x15,-823	 x15:0x00000001 x11=0x00000001
       55545000	      5553	80000d18	003d8d93	addi	x27,x27,3	 x27:0xfffffff9 x27=0xfffffffc
       55555000	      5554	80000d1c	ebf8fc13	andi	x24,x17,-321	 x17:0x00000001 x24=0x00000001
       55565000	      5555	80000d20	4091d033	sra	x0,x3,x9	  x3:0xa8381fff  x9:0x9f14c17e
       55575000	      5556	80000d24	fe8d86e3	beq	x27,x8,80000d10	 x27:0xfffffffc  x8:0x00000005
       55585000	      5557	80000d28	00f10b33	add	x22,x2,x15	  x2:0x00000000 x15:0x00000001 x22=0x00000001
       55595000	      5558	80000d2c	41860333	sub	x6,x12,x24	 x12:0x00000000 x24:0x00000001  x6=0xffffffff
       55605000	      5559	80000d30	fa4852e3	bge	x16,x4,80000cd4	 x16:0xfffffff5  x4:0xfffffff0
       55615000	      5560	00000000	00000013	addi	x0,x0,0	  x0:0x00000000
       55625000	      5561	80000cd0	00000013	addi	x0,x0,0	  x0:0x00000000
       55635000	      5562	80000cd4	40ad0e33	sub	x28,x26,x10	 x26:0x0000000b x10:0x00000000 x28=0x0000000b
       55645000	      5563	80000cd8	ffa80813	addi	x16,x16,-6	 x16:0xfffffff5 x16=0xffffffef
       55655000	      5564	80000cdc	403901b3	sub	x3,x18,x3	 x18:0xa8382000  x3:0xa8381fff  x3=0x00000001
       55665000	      5565	80000ce0	002fbeb3	sltu	x29,x31,x2	 x31:0x692c5000  x2:0x00000000 x29=0x00000000
       55675000	      5566	80000ce4	014c9533	sll	x10,x25,x20	 x25:0xff800003 x20:0x0000000a x10=0x00000c00
       55685000	      5567	80000ce8	013a8fb3	add	x31,x21,x19	 x21:0x00000000 x19:0x692c5000 x31=0x692c5000
       55695000	      5568	80000cec	ff900d93	addi	x27,x0,-7	  x0:0x00000000 x27=0xfffffff9
       55705000	      5569	80000cf0	018d9a93	slli	x21,x27,0x18	 x27:0xfffffff9 x21=0xf9000000
       55715000	      5570	80000cf4	00d7f533	and	x10,x15,x13	 x15:0x00000001 x13:0x00000000 x10=0x00000000
       55725000	      5571	80000cf8	00500413	addi	x8,x0,5	  x0:0x00000000  x8=0x00000005
       55735000	      5572	80000cfc	4167dab3	sra	x21,x15,x22	 x15:0x00000001 x22:0x00000001 x21=0x00000000
       55745000	      5573	80000d00	40685e93	srai	x29,x16,0x6	 x16:0xffffffef x29=0xffffffff
       55755000	      5574	80000d04	40e7d693	srai	x13,x15,0xe	 x15:0x00000001 x13=0x00000000
       55765000	      5575	80000d08	8283a793	slti	x15,x7,-2008	  x7:0xb27af65f x15=0x00000001
       55775000	      5576	80000d0c	01305ab3	srl	x21,x0,x19	  x0:0x00000000 x19:0x692c5000 x21=0x00000000
       55785000	      5577	80000d10	52ecb613	sltiu	x12,x25,1326	 x25:0xff800003 x12=0x00000000
       55795000	      5578	80000d14	cc97b593	sltiu	x11,x15,-823	 x15:0x00000001 x11=0x00000001
       55805000	      5579	80000d18	003d8d93	addi	x27,x27,3	 x27:0xfffffff9 x27=0xfffffffc
       55815000	      5580	80000d1c	ebf8fc13	andi	x24,x17,-321	 x17:0x00000001 x24=0x00000001
       55825000	      5581	80000d20	4091d033	sra	x0,x3,x9	  x3:0x00000001  x9:0x9f14c17e
       55835000	      5582	80000d24	fe8d86e3	beq	x27,x8,80000d10	 x27:0xfffffffc  x8:0x00000005
       55845000	      5583	80000d28	00f10b33	add	x22,x2,x15	  x2:0x00000000 x15:0x00000001 x22=0x00000001
       55855000	      5584	80000d2c	41860333	sub	x6,x12,x24	 x12:0x00000000 x24:0x00000001  x6=0xffffffff
       55865000	      5585	80000d30	fa4852e3	bge	x16,x4,80000cd4	 x16:0xffffffef  x4:0xfffffff0
       55875000	      5586	80000d34	000934b3	sltu	x9,x18,x0	 x18:0xa8382000  x0:0x00000000  x9=0x00000000
       55885000	      5587	80000d38	00800813	addi	x16,x0,8	  x0:0x00000000 x16=0x00000008
       55895000	      5588	80000d3c	010478b3	and	x17,x8,x16	  x8:0x00000005 x16:0x00000008 x17=0x00000000
       55905000	      5589	80000d40	0141f3b3	and	x7,x3,x20	  x3:0x00000001 x20:0x0000000a  x7=0x00000000
       55915000	      5590	80000d44	0011f3b3	and	x7,x3,x1	  x3:0x00000001  x1:0xea808000  x7=0x00000000
       55925000	      5591	80000d48	01000113	addi	x2,x0,16	  x0:0x00000000  x2=0x00000010
       55935000	      5592	80000d4c	00000013	addi	x0,x0,0	  x0:0x00000000
       55945000	      5593	80000d50	82b03393	sltiu	x7,x0,-2005	  x0:0x00000000  x7=0x00000001
       55955000	      5594	80000d54	0081f7b3	and	x15,x3,x8	  x3:0x00000001  x8:0x00000005 x15=0x00000001
       55965000	      5595	80000d58	d9afb413	sltiu	x8,x31,-614	 x31:0x692c5000  x8=0x00000001
       55975000	      5596	80000d5c	c004c013	xori	x0,x9,-1024	  x9:0x00000000
       55985000	      5597	80000d60	00354333	xor	x6,x10,x3	 x10:0x00000000  x3:0x00000001  x6=0x00000001
       55995000	      5598	80000d64	9cbe8913	addi	x18,x29,-1589	 x29:0xffffffff x18=0xfffff9ca
       56005000	      5599	80000d68	015214b3	sll	x9,x4,x21	  x4:0xfffffff0 x21:0x00000000  x9=0xfffffff0
       56015000	      5600	80000d6c	00480813	addi	x16,x16,4	 x16:0x00000008 x16=0x0000000c
       56025000	      5601	80000d70	b55289b7	lui	x19,0xb5528	 x19=0xb5528000
       56035000	      5602	80000d74	400fd433	sra	x8,x31,x0	 x31:0x692c5000  x0:0x00000000  x8=0x692c5000
       56045000	      5603	80000d78	00b71393	slli	x7,x14,0xb	 x14:0x80009fc4  x7=0x04fe2000
       56055000	      5604	80000d7c	40d7d4b3	sra	x9,x15,x13	 x15:0x00000001 x13:0x00000000  x9=0x00000001
       56065000	      5605	80000d80	00409293	slli	x5,x1,0x4	  x1:0xea808000  x5=0xa8080000
       56075000	      5606	80000d84	0014acb3	slt	x25,x9,x1	  x9:0x00000001  x1:0xea808000 x25=0x00000000
       56085000	      5607	80000d88	012267b3	or	x15,x4,x18	  x4:0xfffffff0 x18:0xfffff9ca x15=0xfffffffa
       56095000	      5608	80000d8c	fc2816e3	bne	x16,x2,80000d58	 x16:0x0000000c  x2:0x00000010
       56105000	      5609	00000000	00000013	addi	x0,x0,0	  x0:0x00000000
       56115000	      5610	80000d54	00000013	addi	x0,x0,0	  x0:0x00000000
       56125000	      5611	80000d58	d9afb413	sltiu	x8,x31,-614	 x31:0x692c5000  x8=0x00000001
       56135000	      5612	80000d5c	c004c013	xori	x0,x9,-1024	  x9:0x00000001
       56145000	      5613	80000d60	00354333	xor	x6,x10,x3	 x10:0x00000000  x3:0x00000001  x6=0x00000001
       56155000	      5614	80000d64	9cbe8913	addi	x18,x29,-1589	 x29:0xffffffff x18=0xfffff9ca
       56165000	      5615	80000d68	015214b3	sll	x9,x4,x21	  x4:0xfffffff0 x21:0x00000000  x9=0xfffffff0
       56175000	      5616	80000d6c	00480813	addi	x16,x16,4	 x16:0x0000000c x16=0x00000010
       56185000	      5617	80000d70	b55289b7	lui	x19,0xb5528	 x19=0xb5528000
       56195000	      5618	80000d74	400fd433	sra	x8,x31,x0	 x31:0x692c5000  x0:0x00000000  x8=0x692c5000
       56205000	      5619	80000d78	00b71393	slli	x7,x14,0xb	 x14:0x80009fc4  x7=0x04fe2000
       56215000	      5620	80000d7c	40d7d4b3	sra	x9,x15,x13	 x15:0xfffffffa x13:0x00000000  x9=0xfffffffa
       56225000	      5621	80000d80	00409293	slli	x5,x1,0x4	  x1:0xea808000  x5=0xa8080000
       56235000	      5622	80000d84	0014acb3	slt	x25,x9,x1	  x9:0xfffffffa  x1:0xea808000 x25=0x00000000
       56245000	      5623	80000d88	012267b3	or	x15,x4,x18	  x4:0xfffffff0 x18:0xfffff9ca x15=0xfffffffa
       56255000	      5624	80000d8c	fc2816e3	bne	x16,x2,80000d58	 x16:0x00000010  x2:0x00000010
       56265000	      5625	80000d90	0181aab3	slt	x21,x3,x24	  x3:0x00000001 x24:0x00000001 x21=0x00000000
       56275000	      5626	80000d94	00600093	addi	x1,x0,6	  x0:0x00000000  x1=0x00000006
       56285000	      5627	80000d98	01242333	slt	x6,x8,x18	  x8:0x692c5000 x18:0xfffff9ca  x6=0x00000000
       56295000	      5628	80000d9c	01125193	srli	x3,x4,0x11	  x4:0xfffffff0  x3=0x00007fff
       56305000	      5629	80000da0	017d1693	slli	x13,x26,0x17	 x26:0x0000000b x13=0x05800000
       56315000	      5630	80000da4	00c09893	slli	x17,x1,0xc	  x1:0x00000006 x17=0x00006000
       56325000	      5631	80000da8	71b8f693	andi	x13,x17,1819	 x17:0x00006000 x13=0x00000000
       56335000	      5632	80000dac	a61c0193	addi	x3,x24,-1439	 x24:0x00000001  x3=0xfffffa62
       56345000	      5633	80000db0	00000013	addi	x0,x0,0	  x0:0x00000000
       56355000	      5634	80000db4	0041a833	slt	x16,x3,x4	  x3:0xfffffa62  x4:0xfffffff0 x16=0x00000001
       56365000	      5635	80000db8	ff800113	addi	x2,x0,-8	  x0:0x00000000  x2=0xfffffff8
       56375000	      5636	80000dbc	3d033613	sltiu	x12,x6,976	  x6:0x00000000 x12=0x00000001
       56385000	      5637	80000dc0	ef246813	ori	x16,x8,-270	  x8:0x692c5000 x16=0xfffffef2
       56395000	      5638	80000dc4	ffe08093	addi	x1,x1,-2	  x1:0x00000006  x1=0x00000004
       56405000	      5639	80000dc8	414e5eb3	sra	x29,x28,x20	 x28:0x0000000b x20:0x0000000a x29=0x00000000
       56415000	      5640	80000dcc	ab2d7a13	andi	x20,x26,-1358	 x26:0x0000000b x20=0x00000002
       56425000	      5641	80000dd0	31654393	xori	x7,x10,790	 x10:0x00000000  x7=0x00000316
       56435000	      5642	80000dd4	00a00413	addi	x8,x0,10	  x0:0x00000000  x8=0x0000000a
       56445000	      5643	80000dd8	414f5193	srai	x3,x30,0x14	 x30:0x80009f34  x3=0xfffff800
       56455000	      5644	80000ddc	00c31f93	slli	x31,x6,0xc	  x6:0x00000000 x31=0x00000000
       56465000	      5645	80000de0	1f316393	ori	x7,x2,499	  x2:0xfffffff8  x7=0xfffffffb
       56475000	      5646	80000de4	5ec67793	andi	x15,x12,1516	 x12:0x00000001 x15=0x00000000
       56485000	      5647	80000de8	4079d8b3	sra	x17,x19,x7	 x19:0xb5528000  x7:0xfffffffb x17=0xfffffff6
       56495000	      5648	80000dec	00800293	addi	x5,x0,8	  x0:0x00000000  x5=0x00000008
       56505000	      5649	80000df0	41c2d833	sra	x16,x5,x28	  x5:0x00000008 x28:0x0000000b x16=0x00000000
       56515000	      5650	80000df4	004c0033	add	x0,x24,x4	 x24:0x00000001  x4:0xfffffff0
       56525000	      5651	80000df8	00dc9193	slli	x3,x25,0xd	 x25:0x00000000  x3=0x00000000
       56535000	      5652	80000dfc	ff940413	addi	x8,x8,-7	  x8:0x0000000a  x8=0x00000003
       56545000	      5653	80000e00	010b9f93	slli	x31,x23,0x10	 x23:0xfffffec5 x31=0xfec50000
       56555000	      5654	80000e04	fe5478e3	bgeu	x8,x5,80000df4	  x8:0x00000003  x5:0x00000008
       56565000	      5655	80000e08	099c1197	auipc	x3,0x99c1	  x3=0x899c1e04
       56575000	      5656	80000e0c	fa20dae3	bge	x1,x2,80000dc0	  x1:0x00000004  x2:0xfffffff8
       56585000	      5657	00000000	00000013	addi	x0,x0,0	  x0:0x00000000
       56595000	      5658	80000dbc	00000013	addi	x0,x0,0	  x0:0x00000000
       56605000	      5659	80000dc0	ef246813	ori	x16,x8,-270	  x8:0x00000003 x16=0xfffffef3
       56615000	      5660	80000dc4	ffe08093	addi	x1,x1,-2	  x1:0x00000004  x1=0x00000002
       56625000	      5661	80000dc8	414e5eb3	sra	x29,x28,x20	 x28:0x0000000b x20:0x00000002 x29=0x00000002
       56635000	      5662	80000dcc	ab2d7a13	andi	x20,x26,-1358	 x26:0x0000000b x20=0x00000002
       56645000	      5663	80000dd0	31654393	xori	x7,x10,790	 x10:0x00000000  x7=0x00000316
       56655000	      5664	80000dd4	00a00413	addi	x8,x0,10	  x0:0x00000000  x8=0x0000000a
       56665000	      5665	80000dd8	414f5193	srai	x3,x30,0x14	 x30:0x80009f34  x3=0xfffff800
       56675000	      5666	80000ddc	00c31f93	slli	x31,x6,0xc	  x6:0x00000000 x31=0x00000000
       56685000	      5667	80000de0	1f316393	ori	x7,x2,499	  x2:0xfffffff8  x7=0xfffffffb
       56695000	      5668	80000de4	5ec67793	andi	x15,x12,1516	 x12:0x00000001 x15=0x00000000
       56705000	      5669	80000de8	4079d8b3	sra	x17,x19,x7	 x19:0xb5528000  x7:0xfffffffb x17=0xfffffff6
       56715000	      5670	80000dec	00800293	addi	x5,x0,8	  x0:0x00000000  x5=0x00000008
       56725000	      5671	80000df0	41c2d833	sra	x16,x5,x28	  x5:0x00000008 x28:0x0000000b x16=0x00000000
       56735000	      5672	80000df4	004c0033	add	x0,x24,x4	 x24:0x00000001  x4:0xfffffff0
       56745000	      5673	80000df8	00dc9193	slli	x3,x25,0xd	 x25:0x00000000  x3=0x00000000
       56755000	      5674	80000dfc	ff940413	addi	x8,x8,-7	  x8:0x0000000a  x8=0x00000003
       56765000	      5675	80000e00	010b9f93	slli	x31,x23,0x10	 x23:0xfffffec5 x31=0xfec50000
       56775000	      5676	80000e04	fe5478e3	bgeu	x8,x5,80000df4	  x8:0x00000003  x5:0x00000008
       56785000	      5677	80000e08	099c1197	auipc	x3,0x99c1	  x3=0x899c1e04
       56795000	      5678	80000e0c	fa20dae3	bge	x1,x2,80000dc0	  x1:0x00000002  x2:0xfffffff8
       56805000	      5679	00000000	00000013	addi	x0,x0,0	  x0:0x00000000
       56815000	      5680	80000dbc	00000013	addi	x0,x0,0	  x0:0x00000000
       56825000	      5681	80000dc0	ef246813	ori	x16,x8,-270	  x8:0x00000003 x16=0xfffffef3
       56835000	      5682	80000dc4	ffe08093	addi	x1,x1,-2	  x1:0x00000002  x1=0x00000000
       56845000	      5683	80000dc8	414e5eb3	sra	x29,x28,x20	 x28:0x0000000b x20:0x00000002 x29=0x00000002
       56855000	      5684	80000dcc	ab2d7a13	andi	x20,x26,-1358	 x26:0x0000000b x20=0x00000002
       56865000	      5685	80000dd0	31654393	xori	x7,x10,790	 x10:0x00000000  x7=0x00000316
       56875000	      5686	80000dd4	00a00413	addi	x8,x0,10	  x0:0x00000000  x8=0x0000000a
       56885000	      5687	80000dd8	414f5193	srai	x3,x30,0x14	 x30:0x80009f34  x3=0xfffff800
       56895000	      5688	80000ddc	00c31f93	slli	x31,x6,0xc	  x6:0x00000000 x31=0x00000000
       56905000	      5689	80000de0	1f316393	ori	x7,x2,499	  x2:0xfffffff8  x7=0xfffffffb
       56915000	      5690	80000de4	5ec67793	andi	x15,x12,1516	 x12:0x00000001 x15=0x00000000
       56925000	      5691	80000de8	4079d8b3	sra	x17,x19,x7	 x19:0xb5528000  x7:0xfffffffb x17=0xfffffff6
       56935000	      5692	80000dec	00800293	addi	x5,x0,8	  x0:0x00000000  x5=0x00000008
       56945000	      5693	80000df0	41c2d833	sra	x16,x5,x28	  x5:0x00000008 x28:0x0000000b x16=0x00000000
       56955000	      5694	80000df4	004c0033	add	x0,x24,x4	 x24:0x00000001  x4:0xfffffff0
       56965000	      5695	80000df8	00dc9193	slli	x3,x25,0xd	 x25:0x00000000  x3=0x00000000
       56975000	      5696	80000dfc	ff940413	addi	x8,x8,-7	  x8:0x0000000a  x8=0x00000003
       56985000	      5697	80000e00	010b9f93	slli	x31,x23,0x10	 x23:0xfffffec5 x31=0xfec50000
       56995000	      5698	80000e04	fe5478e3	bgeu	x8,x5,80000df4	  x8:0x00000003  x5:0x00000008
       57005000	      5699	80000e08	099c1197	auipc	x3,0x99c1	  x3=0x899c1e04
       57015000	      5700	80000e0c	fa20dae3	bge	x1,x2,80000dc0	  x1:0x00000000  x2:0xfffffff8
       57025000	      5701	00000000	00000013	addi	x0,x0,0	  x0:0x00000000
       57035000	      5702	80000dbc	00000013	addi	x0,x0,0	  x0:0x00000000
       57045000	      5703	80000dc0	ef246813	ori	x16,x8,-270	  x8:0x00000003 x16=0xfffffef3
       57055000	      5704	80000dc4	ffe08093	addi	x1,x1,-2	  x1:0x00000000  x1=0xfffffffe
       57065000	      5705	80000dc8	414e5eb3	sra	x29,x28,x20	 x28:0x0000000b x20:0x00000002 x29=0x00000002
       57075000	      5706	80000dcc	ab2d7a13	andi	x20,x26,-1358	 x26:0x0000000b x20=0x00000002
       57085000	      5707	80000dd0	31654393	xori	x7,x10,790	 x10:0x00000000  x7=0x00000316
       57095000	      5708	80000dd4	00a00413	addi	x8,x0,10	  x0:0x00000000  x8=0x0000000a
       57105000	      5709	80000dd8	414f5193	srai	x3,x30,0x14	 x30:0x80009f34  x3=0xfffff800
       57115000	      5710	80000ddc	00c31f93	slli	x31,x6,0xc	  x6:0x00000000 x31=0x00000000
       57125000	      5711	80000de0	1f316393	ori	x7,x2,499	  x2:0xfffffff8  x7=0xfffffffb
       57135000	      5712	80000de4	5ec67793	andi	x15,x12,1516	 x12:0x00000001 x15=0x00000000
       57145000	      5713	80000de8	4079d8b3	sra	x17,x19,x7	 x19:0xb5528000  x7:0xfffffffb x17=0xfffffff6
       57155000	      5714	80000dec	00800293	addi	x5,x0,8	  x0:0x00000000  x5=0x00000008
       57165000	      5715	80000df0	41c2d833	sra	x16,x5,x28	  x5:0x00000008 x28:0x0000000b x16=0x00000000
       57175000	      5716	80000df4	004c0033	add	x0,x24,x4	 x24:0x00000001  x4:0xfffffff0
       57185000	      5717	80000df8	00dc9193	slli	x3,x25,0xd	 x25:0x00000000  x3=0x00000000
       57195000	      5718	80000dfc	ff940413	addi	x8,x8,-7	  x8:0x0000000a  x8=0x00000003
       57205000	      5719	80000e00	010b9f93	slli	x31,x23,0x10	 x23:0xfffffec5 x31=0xfec50000
       57215000	      5720	80000e04	fe5478e3	bgeu	x8,x5,80000df4	  x8:0x00000003  x5:0x00000008
       57225000	      5721	80000e08	099c1197	auipc	x3,0x99c1	  x3=0x899c1e04
       57235000	      5722	80000e0c	fa20dae3	bge	x1,x2,80000dc0	  x1:0xfffffffe  x2:0xfffffff8
       57245000	      5723	00000000	00000013	addi	x0,x0,0	  x0:0x00000000
       57255000	      5724	80000dbc	00000013	addi	x0,x0,0	  x0:0x00000000
       57265000	      5725	80000dc0	ef246813	ori	x16,x8,-270	  x8:0x00000003 x16=0xfffffef3
       57275000	      5726	80000dc4	ffe08093	addi	x1,x1,-2	  x1:0xfffffffe  x1=0xfffffffc
       57285000	      5727	80000dc8	414e5eb3	sra	x29,x28,x20	 x28:0x0000000b x20:0x00000002 x29=0x00000002
       57295000	      5728	80000dcc	ab2d7a13	andi	x20,x26,-1358	 x26:0x0000000b x20=0x00000002
       57305000	      5729	80000dd0	31654393	xori	x7,x10,790	 x10:0x00000000  x7=0x00000316
       57315000	      5730	80000dd4	00a00413	addi	x8,x0,10	  x0:0x00000000  x8=0x0000000a
       57325000	      5731	80000dd8	414f5193	srai	x3,x30,0x14	 x30:0x80009f34  x3=0xfffff800
       57335000	      5732	80000ddc	00c31f93	slli	x31,x6,0xc	  x6:0x00000000 x31=0x00000000
       57345000	      5733	80000de0	1f316393	ori	x7,x2,499	  x2:0xfffffff8  x7=0xfffffffb
       57355000	      5734	80000de4	5ec67793	andi	x15,x12,1516	 x12:0x00000001 x15=0x00000000
       57365000	      5735	80000de8	4079d8b3	sra	x17,x19,x7	 x19:0xb5528000  x7:0xfffffffb x17=0xfffffff6
       57375000	      5736	80000dec	00800293	addi	x5,x0,8	  x0:0x00000000  x5=0x00000008
       57385000	      5737	80000df0	41c2d833	sra	x16,x5,x28	  x5:0x00000008 x28:0x0000000b x16=0x00000000
       57395000	      5738	80000df4	004c0033	add	x0,x24,x4	 x24:0x00000001  x4:0xfffffff0
       57405000	      5739	80000df8	00dc9193	slli	x3,x25,0xd	 x25:0x00000000  x3=0x00000000
       57415000	      5740	80000dfc	ff940413	addi	x8,x8,-7	  x8:0x0000000a  x8=0x00000003
       57425000	      5741	80000e00	010b9f93	slli	x31,x23,0x10	 x23:0xfffffec5 x31=0xfec50000
       57435000	      5742	80000e04	fe5478e3	bgeu	x8,x5,80000df4	  x8:0x00000003  x5:0x00000008
       57445000	      5743	80000e08	099c1197	auipc	x3,0x99c1	  x3=0x899c1e04
       57455000	      5744	80000e0c	fa20dae3	bge	x1,x2,80000dc0	  x1:0xfffffffc  x2:0xfffffff8
       57465000	      5745	00000000	00000013	addi	x0,x0,0	  x0:0x00000000
       57475000	      5746	80000dbc	00000013	addi	x0,x0,0	  x0:0x00000000
       57485000	      5747	80000dc0	ef246813	ori	x16,x8,-270	  x8:0x00000003 x16=0xfffffef3
       57495000	      5748	80000dc4	ffe08093	addi	x1,x1,-2	  x1:0xfffffffc  x1=0xfffffffa
       57505000	      5749	80000dc8	414e5eb3	sra	x29,x28,x20	 x28:0x0000000b x20:0x00000002 x29=0x00000002
       57515000	      5750	80000dcc	ab2d7a13	andi	x20,x26,-1358	 x26:0x0000000b x20=0x00000002
       57525000	      5751	80000dd0	31654393	xori	x7,x10,790	 x10:0x00000000  x7=0x00000316
       57535000	      5752	80000dd4	00a00413	addi	x8,x0,10	  x0:0x00000000  x8=0x0000000a
       57545000	      5753	80000dd8	414f5193	srai	x3,x30,0x14	 x30:0x80009f34  x3=0xfffff800
       57555000	      5754	80000ddc	00c31f93	slli	x31,x6,0xc	  x6:0x00000000 x31=0x00000000
       57565000	      5755	80000de0	1f316393	ori	x7,x2,499	  x2:0xfffffff8  x7=0xfffffffb
       57575000	      5756	80000de4	5ec67793	andi	x15,x12,1516	 x12:0x00000001 x15=0x00000000
       57585000	      5757	80000de8	4079d8b3	sra	x17,x19,x7	 x19:0xb5528000  x7:0xfffffffb x17=0xfffffff6
       57595000	      5758	80000dec	00800293	addi	x5,x0,8	  x0:0x00000000  x5=0x00000008
       57605000	      5759	80000df0	41c2d833	sra	x16,x5,x28	  x5:0x00000008 x28:0x0000000b x16=0x00000000
       57615000	      5760	80000df4	004c0033	add	x0,x24,x4	 x24:0x00000001  x4:0xfffffff0
       57625000	      5761	80000df8	00dc9193	slli	x3,x25,0xd	 x25:0x00000000  x3=0x00000000
       57635000	      5762	80000dfc	ff940413	addi	x8,x8,-7	  x8:0x0000000a  x8=0x00000003
       57645000	      5763	80000e00	010b9f93	slli	x31,x23,0x10	 x23:0xfffffec5 x31=0xfec50000
       57655000	      5764	80000e04	fe5478e3	bgeu	x8,x5,80000df4	  x8:0x00000003  x5:0x00000008
       57665000	      5765	80000e08	099c1197	auipc	x3,0x99c1	  x3=0x899c1e04
       57675000	      5766	80000e0c	fa20dae3	bge	x1,x2,80000dc0	  x1:0xfffffffa  x2:0xfffffff8
       57685000	      5767	00000000	00000013	addi	x0,x0,0	  x0:0x00000000
       57695000	      5768	80000dbc	00000013	addi	x0,x0,0	  x0:0x00000000
       57705000	      5769	80000dc0	ef246813	ori	x16,x8,-270	  x8:0x00000003 x16=0xfffffef3
       57715000	      5770	80000dc4	ffe08093	addi	x1,x1,-2	  x1:0xfffffffa  x1=0xfffffff8
       57725000	      5771	80000dc8	414e5eb3	sra	x29,x28,x20	 x28:0x0000000b x20:0x00000002 x29=0x00000002
       57735000	      5772	80000dcc	ab2d7a13	andi	x20,x26,-1358	 x26:0x0000000b x20=0x00000002
       57745000	      5773	80000dd0	31654393	xori	x7,x10,790	 x10:0x00000000  x7=0x00000316
       57755000	      5774	80000dd4	00a00413	addi	x8,x0,10	  x0:0x00000000  x8=0x0000000a
       57765000	      5775	80000dd8	414f5193	srai	x3,x30,0x14	 x30:0x80009f34  x3=0xfffff800
       57775000	      5776	80000ddc	00c31f93	slli	x31,x6,0xc	  x6:0x00000000 x31=0x00000000
       57785000	      5777	80000de0	1f316393	ori	x7,x2,499	  x2:0xfffffff8  x7=0xfffffffb
       57795000	      5778	80000de4	5ec67793	andi	x15,x12,1516	 x12:0x00000001 x15=0x00000000
       57805000	      5779	80000de8	4079d8b3	sra	x17,x19,x7	 x19:0xb5528000  x7:0xfffffffb x17=0xfffffff6
       57815000	      5780	80000dec	00800293	addi	x5,x0,8	  x0:0x00000000  x5=0x00000008
       57825000	      5781	80000df0	41c2d833	sra	x16,x5,x28	  x5:0x00000008 x28:0x0000000b x16=0x00000000
       57835000	      5782	80000df4	004c0033	add	x0,x24,x4	 x24:0x00000001  x4:0xfffffff0
       57845000	      5783	80000df8	00dc9193	slli	x3,x25,0xd	 x25:0x00000000  x3=0x00000000
       57855000	      5784	80000dfc	ff940413	addi	x8,x8,-7	  x8:0x0000000a  x8=0x00000003
       57865000	      5785	80000e00	010b9f93	slli	x31,x23,0x10	 x23:0xfffffec5 x31=0xfec50000
       57875000	      5786	80000e04	fe5478e3	bgeu	x8,x5,80000df4	  x8:0x00000003  x5:0x00000008
       57885000	      5787	80000e08	099c1197	auipc	x3,0x99c1	  x3=0x899c1e04
       57895000	      5788	80000e0c	fa20dae3	bge	x1,x2,80000dc0	  x1:0xfffffff8  x2:0xfffffff8
       57905000	      5789	00000000	00000013	addi	x0,x0,0	  x0:0x00000000
       57915000	      5790	80000dbc	00000013	addi	x0,x0,0	  x0:0x00000000
       57925000	      5791	80000dc0	ef246813	ori	x16,x8,-270	  x8:0x00000003 x16=0xfffffef3
       57935000	      5792	80000dc4	ffe08093	addi	x1,x1,-2	  x1:0xfffffff8  x1=0xfffffff6
       57945000	      5793	80000dc8	414e5eb3	sra	x29,x28,x20	 x28:0x0000000b x20:0x00000002 x29=0x00000002
       57955000	      5794	80000dcc	ab2d7a13	andi	x20,x26,-1358	 x26:0x0000000b x20=0x00000002
       57965000	      5795	80000dd0	31654393	xori	x7,x10,790	 x10:0x00000000  x7=0x00000316
       57975000	      5796	80000dd4	00a00413	addi	x8,x0,10	  x0:0x00000000  x8=0x0000000a
       57985000	      5797	80000dd8	414f5193	srai	x3,x30,0x14	 x30:0x80009f34  x3=0xfffff800
       57995000	      5798	80000ddc	00c31f93	slli	x31,x6,0xc	  x6:0x00000000 x31=0x00000000
       58005000	      5799	80000de0	1f316393	ori	x7,x2,499	  x2:0xfffffff8  x7=0xfffffffb
       58015000	      5800	80000de4	5ec67793	andi	x15,x12,1516	 x12:0x00000001 x15=0x00000000
       58025000	      5801	80000de8	4079d8b3	sra	x17,x19,x7	 x19:0xb5528000  x7:0xfffffffb x17=0xfffffff6
       58035000	      5802	80000dec	00800293	addi	x5,x0,8	  x0:0x00000000  x5=0x00000008
       58045000	      5803	80000df0	41c2d833	sra	x16,x5,x28	  x5:0x00000008 x28:0x0000000b x16=0x00000000
       58055000	      5804	80000df4	004c0033	add	x0,x24,x4	 x24:0x00000001  x4:0xfffffff0
       58065000	      5805	80000df8	00dc9193	slli	x3,x25,0xd	 x25:0x00000000  x3=0x00000000
       58075000	      5806	80000dfc	ff940413	addi	x8,x8,-7	  x8:0x0000000a  x8=0x00000003
       58085000	      5807	80000e00	010b9f93	slli	x31,x23,0x10	 x23:0xfffffec5 x31=0xfec50000
       58095000	      5808	80000e04	fe5478e3	bgeu	x8,x5,80000df4	  x8:0x00000003  x5:0x00000008
       58105000	      5809	80000e08	099c1197	auipc	x3,0x99c1	  x3=0x899c1e04
       58115000	      5810	80000e0c	fa20dae3	bge	x1,x2,80000dc0	  x1:0xfffffff6  x2:0xfffffff8
       58125000	      5811	80000e10	00c98e33	add	x28,x19,x12	 x19:0xb5528000 x12:0x00000001 x28=0xb5528001
       58135000	      5812	80000e14	ff800e13	addi	x28,x0,-8	  x0:0x00000000 x28=0xfffffff8
       58145000	      5813	80000e18	01df58b3	srl	x17,x30,x29	 x30:0x80009f34 x29:0x00000002 x17=0x200027cd
       58155000	      5814	80000e1c	01caa9b3	slt	x19,x21,x28	 x21:0x00000000 x28:0xfffffff8 x19=0x00000000
       58165000	      5815	80000e20	0c982313	slti	x6,x16,201	 x16:0x00000000  x6=0x00000001
       58175000	      5816	80000e24	00400c93	addi	x25,x0,4	  x0:0x00000000 x25=0x00000004
       58185000	      5817	80000e28	003a11b3	sll	x3,x20,x3	 x20:0x00000002  x3:0x899c1e04  x3=0x00000020
       58195000	      5818	80000e2c	4d18ff93	andi	x31,x17,1233	 x17:0x200027cd x31=0x000004c1
       58205000	      5819	80000e30	dd43eb13	ori	x22,x7,-556	  x7:0xfffffffb x22=0xffffffff
       58215000	      5820	80000e34	006e0e13	addi	x28,x28,6	 x28:0xfffffff8 x28=0xfffffffe
       58225000	      5821	80000e38	01149a13	slli	x20,x9,0x11	  x9:0xfffffffa x20=0xfff40000
       58235000	      5822	80000e3c	40a408b3	sub	x17,x8,x10	  x8:0x00000003 x10:0x00000000 x17=0x00000003
       58245000	      5823	80000e40	00a00693	addi	x13,x0,10	  x0:0x00000000 x13=0x0000000a
       58255000	      5824	80000e44	4129db13	srai	x22,x19,0x12	 x19:0x00000000 x22=0x00000000
       58265000	      5825	80000e48	00a00e93	addi	x29,x0,10	  x0:0x00000000 x29=0x0000000a
       58275000	      5826	80000e4c	00e825b3	slt	x11,x16,x14	 x16:0x00000000 x14:0x80009fc4 x11=0x00000000
       58285000	      5827	80000e50	da924493	xori	x9,x4,-599	  x4:0xfffffff0  x9=0x00000259
       58295000	      5828	80000e54	3d33b893	sltiu	x17,x7,979	  x7:0xfffffffb x17=0x00000000
       58305000	      5829	80000e58	ffb68693	addi	x13,x13,-5	 x13:0x0000000a x13=0x00000005
       58315000	      5830	80000e5c	009b9c13	slli	x24,x23,0x9	 x23:0xfffffec5 x24=0xfffd8a00
       58325000	      5831	80000e60	4b37d637	lui	x12,0x4b37d	 x12=0x4b37d000
       58335000	      5832	80000e64	01075133	srl	x2,x14,x16	 x14:0x80009fc4 x16:0x00000000  x2=0x80009fc4
       58345000	      5833	80000e68	01627833	and	x16,x4,x22	  x4:0xfffffff0 x22:0x00000000 x16=0x00000000
       58355000	      5834	80000e6c	ffd6f0e3	bgeu	x13,x29,80000e4c	 x13:0x00000005 x29:0x0000000a
       58365000	      5835	80000e70	c928aa13	slti	x20,x17,-878	 x17:0x00000000 x20=0x00000000
       58375000	      5836	80000e74	836fc193	xori	x3,x31,-1994	 x31:0x000004c1  x3=0xfffffcf7
       58385000	      5837	80000e78	e231b213	sltiu	x4,x3,-477	  x3:0xfffffcf7  x4=0x00000001
       58395000	      5838	80000e7c	01449093	slli	x1,x9,0x14	  x9:0x00000259  x1=0x25900000
       58405000	      5839	80000e80	fb9e16e3	bne	x28,x25,80000e2c	 x28:0xfffffffe x25:0x00000004
       58415000	      5840	00000000	00000013	addi	x0,x0,0	  x0:0x00000000
       58425000	      5841	80000e28	00000013	addi	x0,x0,0	  x0:0x00000000
       58435000	      5842	80000e2c	4d18ff93	andi	x31,x17,1233	 x17:0x00000000 x31=0x00000000
       58445000	      5843	80000e30	dd43eb13	ori	x22,x7,-556	  x7:0xfffffffb x22=0xffffffff
       58455000	      5844	80000e34	006e0e13	addi	x28,x28,6	 x28:0xfffffffe x28=0x00000004
       58465000	      5845	80000e38	01149a13	slli	x20,x9,0x11	  x9:0x00000259 x20=0x04b20000
       58475000	      5846	80000e3c	40a408b3	sub	x17,x8,x10	  x8:0x00000003 x10:0x00000000 x17=0x00000003
       58485000	      5847	80000e40	00a00693	addi	x13,x0,10	  x0:0x00000000 x13=0x0000000a
       58495000	      5848	80000e44	4129db13	srai	x22,x19,0x12	 x19:0x00000000 x22=0x00000000
       58505000	      5849	80000e48	00a00e93	addi	x29,x0,10	  x0:0x00000000 x29=0x0000000a
       58515000	      5850	80000e4c	00e825b3	slt	x11,x16,x14	 x16:0x00000000 x14:0x80009fc4 x11=0x00000000
       58525000	      5851	80000e50	da924493	xori	x9,x4,-599	  x4:0x00000001  x9=0xfffffda8
       58535000	      5852	80000e54	3d33b893	sltiu	x17,x7,979	  x7:0xfffffffb x17=0x00000000
       58545000	      5853	80000e58	ffb68693	addi	x13,x13,-5	 x13:0x0000000a x13=0x00000005
       58555000	      5854	80000e5c	009b9c13	slli	x24,x23,0x9	 x23:0xfffffec5 x24=0xfffd8a00
       58565000	      5855	80000e60	4b37d637	lui	x12,0x4b37d	 x12=0x4b37d000
       58575000	      5856	80000e64	01075133	srl	x2,x14,x16	 x14:0x80009fc4 x16:0x00000000  x2=0x80009fc4
       58585000	      5857	80000e68	01627833	and	x16,x4,x22	  x4:0x00000001 x22:0x00000000 x16=0x00000000
       58595000	      5858	80000e6c	ffd6f0e3	bgeu	x13,x29,80000e4c	 x13:0x00000005 x29:0x0000000a
       58605000	      5859	80000e70	c928aa13	slti	x20,x17,-878	 x17:0x00000000 x20=0x00000000
       58615000	      5860	80000e74	836fc193	xori	x3,x31,-1994	 x31:0x00000000  x3=0xfffff836
       58625000	      5861	80000e78	e231b213	sltiu	x4,x3,-477	  x3:0xfffff836  x4=0x00000001
       58635000	      5862	80000e7c	01449093	slli	x1,x9,0x14	  x9:0xfffffda8  x1=0xda800000
       58645000	      5863	80000e80	fb9e16e3	bne	x28,x25,80000e2c	 x28:0x00000004 x25:0x00000004
       58655000	      5864	80000e84	0048d5b3	srl	x11,x17,x4	 x17:0x00000000  x4:0x00000001 x11=0x00000000
       58665000	      5865	80000e88	00300b93	addi	x23,x0,3	  x0:0x00000000 x23=0x00000003
       58675000	      5866	80000e8c	414f0433	sub	x8,x30,x20	 x30:0x80009f34 x20:0x00000000  x8=0x80009f34
       58685000	      5867	80000e90	00f00793	addi	x15,x0,15	  x0:0x00000000 x15=0x0000000f
       58695000	      5868	80000e94	40c56e13	ori	x28,x10,1036	 x10:0x00000000 x28=0x0000040c
       58705000	      5869	80000e98	00ab8b93	addi	x23,x23,10	 x23:0x00000003 x23=0x0000000d
       58715000	      5870	80000e9c	ffc00813	addi	x16,x0,-4	  x0:0x00000000 x16=0xfffffffc
       58725000	      5871	80000ea0	011b9fb3	sll	x31,x23,x17	 x23:0x0000000d x17:0x00000000 x31=0x0000000d
       58735000	      5872	80000ea4	00300a93	addi	x21,x0,3	  x0:0x00000000 x21=0x00000003
       58745000	      5873	80000ea8	c64c8a13	addi	x20,x25,-924	 x25:0x00000004 x20=0xfffffc68
       58755000	      5874	80000eac	00780813	addi	x16,x16,7	 x16:0xfffffffc x16=0x00000003
       58765000	      5875	80000eb0	ff586ce3	bltu	x16,x21,80000ea8	 x16:0x00000003 x21:0x00000003
       58775000	      5876	80000eb4	fefbe0e3	bltu	x23,x15,80000e94	 x23:0x0000000d x15:0x0000000f
       58785000	      5877	00000000	00000013	addi	x0,x0,0	  x0:0x00000000
       58795000	      5878	80000e90	00000013	addi	x0,x0,0	  x0:0x00000000
       58805000	      5879	80000e94	40c56e13	ori	x28,x10,1036	 x10:0x00000000 x28=0x0000040c
       58815000	      5880	80000e98	00ab8b93	addi	x23,x23,10	 x23:0x0000000d x23=0x00000017
       58825000	      5881	80000e9c	ffc00813	addi	x16,x0,-4	  x0:0x00000000 x16=0xfffffffc
       58835000	      5882	80000ea0	011b9fb3	sll	x31,x23,x17	 x23:0x00000017 x17:0x00000000 x31=0x00000017
       58845000	      5883	80000ea4	00300a93	addi	x21,x0,3	  x0:0x00000000 x21=0x00000003
       58855000	      5884	80000ea8	c64c8a13	addi	x20,x25,-924	 x25:0x00000004 x20=0xfffffc68
       58865000	      5885	80000eac	00780813	addi	x16,x16,7	 x16:0xfffffffc x16=0x00000003
       58875000	      5886	80000eb0	ff586ce3	bltu	x16,x21,80000ea8	 x16:0x00000003 x21:0x00000003
       58885000	      5887	80000eb4	fefbe0e3	bltu	x23,x15,80000e94	 x23:0x00000017 x15:0x0000000f
       58895000	      5888	80000eb8	70fae537	lui	x10,0x70fae	 x10=0x70fae000
       58905000	      5889	80000ebc	00600413	addi	x8,x0,6	  x0:0x00000000  x8=0x00000006
       58915000	      5890	80000ec0	015f3e33	sltu	x28,x30,x21	 x30:0x80009f34 x21:0x00000003 x28=0x00000000
       58925000	      5891	80000ec4	00d00f93	addi	x31,x0,13	  x0:0x00000000 x31=0x0000000d
       58935000	      5892	80000ec8	00000013	addi	x0,x0,0	  x0:0x00000000
       58945000	      5893	80000ecc	00000013	addi	x0,x0,0	  x0:0x00000000
       58955000	      5894	80000ed0	02e60c93	addi	x25,x12,46	 x12:0x4b37d000 x25=0x4b37d02e
       58965000	      5895	80000ed4	00640413	addi	x8,x8,6	  x8:0x00000006  x8=0x0000000c
       58975000	      5896	80000ed8	010ca033	slt	x0,x25,x16	 x25:0x4b37d02e x16:0x00000003
       58985000	      5897	80000edc	00300913	addi	x18,x0,3	  x0:0x00000000 x18=0x00000003
       58995000	      5898	80000ee0	01831a33	sll	x20,x6,x24	  x6:0x00000001 x24:0xfffd8a00 x20=0x00000001
       59005000	      5899	80000ee4	00e00513	addi	x10,x0,14	  x0:0x00000000 x10=0x0000000e
       59015000	      5900	80000ee8	013fd333	srl	x6,x31,x19	 x31:0x0000000d x19:0x00000000  x6=0x0000000d
       59025000	      5901	80000eec	806cf593	andi	x11,x25,-2042	 x25:0x4b37d02e x11=0x4b37d006
       59035000	      5902	80000ef0	40270233	sub	x4,x14,x2	 x14:0x80009fc4  x2:0x80009fc4  x4=0x00000000
       59045000	      5903	80000ef4	38c00b93	addi	x23,x0,908	  x0:0x00000000 x23=0x0000038c
       59055000	      5904	80000ef8	00d62db3	slt	x27,x12,x13	 x12:0x4b37d000 x13:0x00000005 x27=0x00000000
       59065000	      5905	80000efc	00a90913	addi	x18,x18,10	 x18:0x00000003 x18=0x0000000d
       59075000	      5906	80000f00	00387cb3	and	x25,x16,x3	 x16:0x00000003  x3:0xfffff836 x25=0x00000002
       59085000	      5907	80000f04	fea946e3	blt	x18,x10,80000ef0	 x18:0x0000000d x10:0x0000000e
       59095000	      5908	00000000	00000013	addi	x0,x0,0	  x0:0x00000000
       59105000	      5909	80000eec	00000013	addi	x0,x0,0	  x0:0x00000000
       59115000	      5910	80000ef0	40270233	sub	x4,x14,x2	 x14:0x80009fc4  x2:0x80009fc4  x4=0x00000000
       59125000	      5911	80000ef4	38c00b93	addi	x23,x0,908	  x0:0x00000000 x23=0x0000038c
       59135000	      5912	80000ef8	00d62db3	slt	x27,x12,x13	 x12:0x4b37d000 x13:0x00000005 x27=0x00000000
       59145000	      5913	80000efc	00a90913	addi	x18,x18,10	 x18:0x0000000d x18=0x00000017
       59155000	      5914	80000f00	00387cb3	and	x25,x16,x3	 x16:0x00000003  x3:0xfffff836 x25=0x00000002
       59165000	      5915	80000f04	fea946e3	blt	x18,x10,80000ef0	 x18:0x00000017 x10:0x0000000e
       59175000	      5916	80000f08	fdf464e3	bltu	x8,x31,80000ed0	  x8:0x0000000c x31:0x0000000d
       59185000	      5917	00000000	00000013	addi	x0,x0,0	  x0:0x00000000
       59195000	      5918	80000ecc	00000013	addi	x0,x0,0	  x0:0x00000000
       59205000	      5919	80000ed0	02e60c93	addi	x25,x12,46	 x12:0x4b37d000 x25=0x4b37d02e
       59215000	      5920	80000ed4	00640413	addi	x8,x8,6	  x8:0x0000000c  x8=0x00000012
       59225000	      5921	80000ed8	010ca033	slt	x0,x25,x16	 x25:0x4b37d02e x16:0x00000003
       59235000	      5922	80000edc	00300913	addi	x18,x0,3	  x0:0x00000000 x18=0x00000003
       59245000	      5923	80000ee0	01831a33	sll	x20,x6,x24	  x6:0x0000000d x24:0xfffd8a00 x20=0x0000000d
       59255000	      5924	80000ee4	00e00513	addi	x10,x0,14	  x0:0x00000000 x10=0x0000000e
       59265000	      5925	80000ee8	013fd333	srl	x6,x31,x19	 x31:0x0000000d x19:0x00000000  x6=0x0000000d
       59275000	      5926	80000eec	806cf593	andi	x11,x25,-2042	 x25:0x4b37d02e x11=0x4b37d006
       59285000	      5927	80000ef0	40270233	sub	x4,x14,x2	 x14:0x80009fc4  x2:0x80009fc4  x4=0x00000000
       59295000	      5928	80000ef4	38c00b93	addi	x23,x0,908	  x0:0x00000000 x23=0x0000038c
       59305000	      5929	80000ef8	00d62db3	slt	x27,x12,x13	 x12:0x4b37d000 x13:0x00000005 x27=0x00000000
       59315000	      5930	80000efc	00a90913	addi	x18,x18,10	 x18:0x00000003 x18=0x0000000d
       59325000	      5931	80000f00	00387cb3	and	x25,x16,x3	 x16:0x00000003  x3:0xfffff836 x25=0x00000002
       59335000	      5932	80000f04	fea946e3	blt	x18,x10,80000ef0	 x18:0x0000000d x10:0x0000000e
       59345000	      5933	00000000	00000013	addi	x0,x0,0	  x0:0x00000000
       59355000	      5934	80000eec	00000013	addi	x0,x0,0	  x0:0x00000000
       59365000	      5935	80000ef0	40270233	sub	x4,x14,x2	 x14:0x80009fc4  x2:0x80009fc4  x4=0x00000000
       59375000	      5936	80000ef4	38c00b93	addi	x23,x0,908	  x0:0x00000000 x23=0x0000038c
       59385000	      5937	80000ef8	00d62db3	slt	x27,x12,x13	 x12:0x4b37d000 x13:0x00000005 x27=0x00000000
       59395000	      5938	80000efc	00a90913	addi	x18,x18,10	 x18:0x0000000d x18=0x00000017
       59405000	      5939	80000f00	00387cb3	and	x25,x16,x3	 x16:0x00000003  x3:0xfffff836 x25=0x00000002
       59415000	      5940	80000f04	fea946e3	blt	x18,x10,80000ef0	 x18:0x00000017 x10:0x0000000e
       59425000	      5941	80000f08	fdf464e3	bltu	x8,x31,80000ed0	  x8:0x00000012 x31:0x0000000d
       59435000	      5942	80000f0c	00000013	addi	x0,x0,0	  x0:0x00000000
       59445000	      5943	80000f10	01ce4333	xor	x6,x28,x28	 x28:0x00000000 x28:0x00000000  x6=0x00000000
       59455000	      5944	80000f14	405d80b3	sub	x1,x27,x5	 x27:0x00000000  x5:0x00000008  x1=0xfffffff8
       59465000	      5945	80000f18	6d50a593	slti	x11,x1,1749	  x1:0xfffffff8 x11=0x00000001
       59475000	      5946	80000f1c	02149e63	bne	x9,x1,80000f58	  x9:0xfffffda8  x1:0xfffffff8
       59485000	      5947	00000000	00000013	addi	x0,x0,0	  x0:0x00000000
       59495000	      5948	80000f54	00000013	addi	x0,x0,0	  x0:0x00000000
       59505000	      5949	80000f58	a30c2193	slti	x3,x24,-1488	 x24:0xfffd8a00  x3=0x00000001
       59515000	      5950	80000f5c	048b9463	bne	x23,x8,80000fa4	 x23:0x0000038c  x8:0x00000012
       59525000	      5951	00000000	00000013	addi	x0,x0,0	  x0:0x00000000
       59535000	      5952	80000fa0	00000013	addi	x0,x0,0	  x0:0x00000000
       59545000	      5953	80000fa4	01d25e63	bge	x4,x29,80000fc0	  x4:0x00000000 x29:0x0000000a
       59555000	      5954	80000fa8	05009863	bne	x1,x16,80000ff8	  x1:0xfffffff8 x16:0x00000003
       59565000	      5955	00000000	00000013	addi	x0,x0,0	  x0:0x00000000
       59575000	      5956	80000ff4	00000013	addi	x0,x0,0	  x0:0x00000000
       59585000	      5957	80000ff8	4182d6b3	sra	x13,x5,x24	  x5:0x00000008 x24:0xfffd8a00 x13=0x00000008
       59595000	      5958	80000ffc	20dc2e93	slti	x29,x24,525	 x24:0xfffd8a00 x29=0x00000001
       59605000	      5959	80001000	068eb193	sltiu	x3,x29,104	 x29:0x00000001  x3=0x00000001
       59615000	      5960	80001004	fab66793	ori	x15,x12,-85	 x12:0x4b37d000 x15=0xffffffab
       59625000	      5961	80001008	00000013	addi	x0,x0,0	  x0:0x00000000
       59635000	      5962	8000100c	02b5c263	blt	x11,x11,80001030	 x11:0x00000001 x11:0x00000001
       59645000	      5963	80001010	03c77a13	andi	x20,x14,60	 x14:0x80009fc4 x20=0x00000004
       59655000	      5964	80001014	3a16b593	sltiu	x11,x13,929	 x13:0x00000008 x11=0x00000001
       59665000	      5965	80001018	00282bb3	slt	x23,x16,x2	 x16:0x00000003  x2:0x80009fc4 x23=0x00000000
       59675000	      5966	8000101c	41455493	srai	x9,x10,0x14	 x10:0x0000000e  x9=0x00000000
       59685000	      5967	80001020	41758433	sub	x8,x11,x23	 x11:0x00000001 x23:0x00000000  x8=0x00000001
       59695000	      5968	80001024	000c9db3	sll	x27,x25,x0	 x25:0x00000002  x0:0x00000000 x27=0x00000002
       59705000	      5969	80001028	02ac0263	beq	x24,x10,8000104c	 x24:0xfffd8a00 x10:0x0000000e
       59715000	      5970	8000102c	0188cc33	xor	x24,x17,x24	 x17:0x00000000 x24:0xfffd8a00 x24=0xfffd8a00
       59725000	      5971	80001030	414fd4b3	sra	x9,x31,x20	 x31:0x0000000d x20:0x00000004  x9=0x00000000
       59735000	      5972	80001034	01856e63	bltu	x10,x24,80001050	 x10:0x0000000e x24:0xfffd8a00
       59745000	      5973	00000000	00000013	addi	x0,x0,0	  x0:0x00000000
       59755000	      5974	8000104c	00000013	addi	x0,x0,0	  x0:0x00000000
       59765000	      5975	80001050	dbb47e93	andi	x29,x8,-581	  x8:0x00000001 x29=0x00000001
       59775000	      5976	80001054	bbc17393	andi	x7,x2,-1092	  x2:0x80009fc4  x7=0x80009b84
       59785000	      5977	80001058	00dd3e33	sltu	x28,x26,x13	 x26:0x0000000b x13:0x00000008 x28=0x00000000
       59795000	      5978	8000105c	018c1a13	slli	x20,x24,0x18	 x24:0xfffd8a00 x20=0x00000000
       59805000	      5979	80001060	00c54863	blt	x10,x12,80001070	 x10:0x0000000e x12:0x4b37d000
       59815000	      5980	00000000	00000013	addi	x0,x0,0	  x0:0x00000000
       59825000	      5981	8000106c	00000013	addi	x0,x0,0	  x0:0x00000000
       59835000	      5982	80001070	007877b3	and	x15,x16,x7	 x16:0x00000003  x7:0x80009b84 x15=0x00000000
       59845000	      5983	80001074	010c6b33	or	x22,x24,x16	 x24:0xfffd8a00 x16:0x00000003 x22=0xfffd8a03
       59855000	      5984	80001078	01699e93	slli	x29,x19,0x16	 x19:0x00000000 x29=0x00000000
       59865000	      5985	8000107c	c9c82093	slti	x1,x16,-868	 x16:0x00000003  x1=0x00000000
       59875000	      5986	80001080	ce5d0a13	addi	x20,x26,-795	 x26:0x0000000b x20=0xfffffcf0
       59885000	      5987	80001084	00231bb3	sll	x23,x6,x2	  x6:0x00000000  x2:0x80009fc4 x23=0x00000000
       59895000	      5988	80001088	011c5b33	srl	x22,x24,x17	 x24:0xfffd8a00 x17:0x00000000 x22=0xfffd8a00
       59905000	      5989	8000108c	0068e663	bltu	x17,x6,80001098	 x17:0x00000000  x6:0x00000000
       59915000	      5990	80001090	05abd263	bge	x23,x26,800010d4	 x23:0x00000000 x26:0x0000000b
       59925000	      5991	80001094	05db4863	blt	x22,x29,800010e4	 x22:0xfffd8a00 x29:0x00000000
       59935000	      5992	00000000	00000013	addi	x0,x0,0	  x0:0x00000000
       59945000	      5993	800010e0	00000013	addi	x0,x0,0	  x0:0x00000000
       59955000	      5994	800010e4	79194517	auipc	x10,0x79194	 x10=0xf91950e0
       59965000	      5995	800010e8	01d05eb3	srl	x29,x0,x29	  x0:0x00000000 x29:0x00000000 x29=0x00000000
       59975000	      5996	800010ec	016bf133	and	x2,x23,x22	 x23:0x00000000 x22:0xfffd8a00  x2=0x00000000
       59985000	      5997	800010f0	015e3c33	sltu	x24,x28,x21	 x28:0x00000000 x21:0x00000003 x24=0x00000001
       59995000	      5998	800010f4	00b35793	srli	x15,x6,0xb	  x6:0x00000000 x15=0x00000000
       60005000	      5999	800010f8	009ddbb3	srl	x23,x27,x9	 x27:0x00000002  x9:0x00000000 x23=0x00000002
       60015000	      6000	800010fc	2e05e697	auipc	x13,0x2e05e	 x13=0xae05f0f8
       60025000	      6001	80001100	04fb5863	bge	x22,x15,80001150	 x22:0xfffd8a00 x15:0x00000000
       60035000	      6002	80001104	ad7f6f93	ori	x31,x30,-1321	 x30:0x80009f34 x31=0xfffffff7
       60045000	      6003	80001108	01cb2033	slt	x0,x22,x28	 x22:0xfffd8a00 x28:0x00000000
       60055000	      6004	8000110c	410edb33	sra	x22,x29,x16	 x29:0x00000000 x16:0x00000003 x22=0x00000000
       60065000	      6005	80001110	0286f663	bgeu	x13,x8,8000113c	 x13:0xae05f0f8  x8:0x00000001
       60075000	      6006	00000000	00000013	addi	x0,x0,0	  x0:0x00000000
       60085000	      6007	80001138	00000013	addi	x0,x0,0	  x0:0x00000000
       60095000	      6008	8000113c	40f1d013	srai	x0,x3,0xf	  x3:0x00000001
       60105000	      6009	80001140	049b6263	bltu	x22,x9,80001184	 x22:0x00000000  x9:0x00000000
       60115000	      6010	80001144	01232233	slt	x4,x6,x18	  x6:0x00000000 x18:0x00000017  x4=0x00000001
       60125000	      6011	80001148	ce484617	auipc	x12,0xce484	 x12=0x4e485144
       60135000	      6012	8000114c	02bf1e63	bne	x30,x11,80001188	 x30:0x80009f34 x11:0x00000001
       60145000	      6013	00000000	00000013	addi	x0,x0,0	  x0:0x00000000
       60155000	      6014	80001184	00000013	addi	x0,x0,0	  x0:0x00000000
       60165000	      6015	80001188	001e5e33	srl	x28,x28,x1	 x28:0x00000000  x1:0x00000000 x28=0x00000000
       60175000	      6016	8000118c	01d9d263	bge	x19,x29,80001190	 x19:0x00000000 x29:0x00000000
       60185000	      6017	00000000	00000013	addi	x0,x0,0	  x0:0x00000000
       60195000	      6018	8000118c	00000013	addi	x0,x0,0	  x0:0x00000000
       60205000	      6019	80001190	41225593	srai	x11,x4,0x12	  x4:0x00000001 x11=0x00000000
       60215000	      6020	80001194	0031ddb3	srl	x27,x3,x3	  x3:0x00000001  x3:0x00000001 x27=0x00000000
       60225000	      6021	80001198	02b58663	beq	x11,x11,800011c4	 x11:0x00000000 x11:0x00000000
       60235000	      6022	00000000	00000013	addi	x0,x0,0	  x0:0x00000000
       60245000	      6023	800011c0	00000013	addi	x0,x0,0	  x0:0x00000000
       60255000	      6024	800011c4	40905d93	srai	x27,x0,0x9	  x0:0x00000000 x27=0x00000000
       60265000	      6025	800011c8	0c3d0263	beq	x26,x3,8000128c	 x26:0x0000000b  x3:0x00000001
       60275000	      6026	800011cc	00000013	addi	x0,x0,0	  x0:0x00000000
       60285000	      6027	800011d0	41a78db3	sub	x27,x15,x26	 x15:0x00000000 x26:0x0000000b x27=0xfffffff5
       60295000	      6028	800011d4	411f5293	srai	x5,x30,0x11	 x30:0x80009f34  x5=0xffffc000
       60305000	      6029	800011d8	002ce333	or	x6,x25,x2	 x25:0x00000002  x2:0x00000000  x6=0x00000002
       60315000	      6030	800011dc	f6240137	lui	x2,0xf6240	  x2=0xf6240000
       60325000	      6031	800011e0	ae1f6593	ori	x11,x30,-1311	 x30:0x80009f34 x11=0xfffffff5
       60335000	      6032	800011e4	c93e4913	xori	x18,x28,-877	 x28:0x00000000 x18=0xfffffc93
       60345000	      6033	800011e8	11067613	andi	x12,x12,272	 x12:0x4e485144 x12=0x00000100
       60355000	      6034	800011ec	ffc7bf97	auipc	x31,0xffc7b	 x31=0x7fc7c1e8
       60365000	      6035	800011f0	00f211b3	sll	x3,x4,x15	  x4:0x00000001 x15:0x00000000  x3=0x00000001
       60375000	      6036	800011f4	00400193	addi	x3,x0,4	  x0:0x00000000  x3=0x00000004
       60385000	      6037	800011f8	01cd5e13	srli	x28,x26,0x1c	 x26:0x0000000b x28=0x00000000
       60395000	      6038	800011fc	8abb5f97	auipc	x31,0x8abb5	 x31=0x0abb61f8
       60405000	      6039	80001200	01cd9c33	sll	x24,x27,x28	 x27:0xfffffff5 x28:0x00000000 x24=0xfffffff5
       60415000	      6040	80001204	fee00693	addi	x13,x0,-18	  x0:0x00000000 x13=0xffffffee
       60425000	      6041	80001208	a982c493	xori	x9,x5,-1384	  x5:0xffffc000  x9=0x00003a98
       60435000	      6042	8000120c	178cfe13	andi	x28,x25,376	 x25:0x00000002 x28=0x00000000
       60445000	      6043	80001210	01a205b3	add	x11,x4,x26	  x4:0x00000001 x26:0x0000000b x11=0x0000000c
       60455000	      6044	80001214	4020d993	srai	x19,x1,0x2	  x1:0x00000000 x19=0x00000000
       60465000	      6045	80001218	0139a4b3	slt	x9,x19,x19	 x19:0x00000000 x19:0x00000000  x9=0x00000000
       60475000	      6046	8000121c	000be333	or	x6,x23,x0	 x23:0x00000002  x0:0x00000000  x6=0x00000002
       60485000	      6047	80001220	011d0933	add	x18,x26,x17	 x26:0x0000000b x17:0x00000000 x18=0x0000000b
       60495000	      6048	80001224	38e243b7	lui	x7,0x38e24	  x7=0x38e24000
       60505000	      6049	80001228	baf4b613	sltiu	x12,x9,-1105	  x9:0x00000000 x12=0x00000001
       60515000	      6050	8000122c	003a7ab3	and	x21,x20,x3	 x20:0xfffffcf0  x3:0x00000004 x21=0x00000000
       60525000	      6051	80001230	40505433	sra	x8,x0,x5	  x0:0x00000000  x5:0xffffc000  x8=0x00000000
       60535000	      6052	80001234	ff718193	addi	x3,x3,-9	  x3:0x00000004  x3=0xfffffffb
       60545000	      6053	80001238	00000013	addi	x0,x0,0	  x0:0x00000000
       60555000	      6054	8000123c	01c04933	xor	x18,x0,x28	  x0:0x00000000 x28:0x00000000 x18=0x00000000
       60565000	      6055	80001240	c0e7aa93	slti	x21,x15,-1010	 x15:0x00000000 x21=0x00000000
       60575000	      6056	80001244	01b39b13	slli	x22,x7,0x1b	  x7:0x38e24000 x22=0x00000000
       60585000	      6057	80001248	00000d93	addi	x27,x0,0	  x0:0x00000000 x27=0x00000000
       60595000	      6058	8000124c	013a5493	srli	x9,x20,0x13	 x20:0xfffffcf0  x9=0x00001fff
       60605000	      6059	80001250	00300293	addi	x5,x0,3	  x0:0x00000000  x5=0x00000003
       60615000	      6060	80001254	85d2ae13	slti	x28,x5,-1955	  x5:0x00000003 x28=0x00000000
       60625000	      6061	80001258	6b11eb93	ori	x23,x3,1713	  x3:0xfffffffb x23=0xfffffffb
       60635000	      6062	8000125c	003d8d93	addi	x27,x27,3	 x27:0x00000000 x27=0x00000003
       60645000	      6063	80001260	008df5b3	and	x11,x27,x8	 x27:0x00000003  x8:0x00000000 x11=0x00000000
       60655000	      6064	80001264	7dd08613	addi	x12,x1,2013	  x1:0x00000000 x12=0x000007dd
       60665000	      6065	80001268	fe5d86e3	beq	x27,x5,80001254	 x27:0x00000003  x5:0x00000003
       60675000	      6066	00000000	00000013	addi	x0,x0,0	  x0:0x00000000
       60685000	      6067	80001250	00000013	addi	x0,x0,0	  x0:0x00000000
       60695000	      6068	80001254	85d2ae13	slti	x28,x5,-1955	  x5:0x00000003 x28=0x00000000
       60705000	      6069	80001258	6b11eb93	ori	x23,x3,1713	  x3:0xfffffffb x23=0xfffffffb
       60715000	      6070	8000125c	003d8d93	addi	x27,x27,3	 x27:0x00000003 x27=0x00000006
       60725000	      6071	80001260	008df5b3	and	x11,x27,x8	 x27:0x00000006  x8:0x00000000 x11=0x00000000
       60735000	      6072	80001264	7dd08613	addi	x12,x1,2013	  x1:0x00000000 x12=0x000007dd
       60745000	      6073	80001268	fe5d86e3	beq	x27,x5,80001254	 x27:0x00000006  x5:0x00000003
       60755000	      6074	8000126c	fad1dae3	bge	x3,x13,80001220	  x3:0xfffffffb x13:0xffffffee
       60765000	      6075	00000000	00000013	addi	x0,x0,0	  x0:0x00000000
       60775000	      6076	8000121c	00000013	addi	x0,x0,0	  x0:0x00000000
       60785000	      6077	80001220	011d0933	add	x18,x26,x17	 x26:0x0000000b x17:0x00000000 x18=0x0000000b
       60795000	      6078	80001224	38e243b7	lui	x7,0x38e24	  x7=0x38e24000
       60805000	      6079	80001228	baf4b613	sltiu	x12,x9,-1105	  x9:0x00001fff x12=0x00000001
       60815000	      6080	8000122c	003a7ab3	and	x21,x20,x3	 x20:0xfffffcf0  x3:0xfffffffb x21=0xfffffcf0
       60825000	      6081	80001230	40505433	sra	x8,x0,x5	  x0:0x00000000  x5:0x00000003  x8=0x00000000
       60835000	      6082	80001234	ff718193	addi	x3,x3,-9	  x3:0xfffffffb  x3=0xfffffff2
       60845000	      6083	80001238	00000013	addi	x0,x0,0	  x0:0x00000000
       60855000	      6084	8000123c	01c04933	xor	x18,x0,x28	  x0:0x00000000 x28:0x00000000 x18=0x00000000
       60865000	      6085	80001240	c0e7aa93	slti	x21,x15,-1010	 x15:0x00000000 x21=0x00000000
       60875000	      6086	80001244	01b39b13	slli	x22,x7,0x1b	  x7:0x38e24000 x22=0x00000000
       60885000	      6087	80001248	00000d93	addi	x27,x0,0	  x0:0x00000000 x27=0x00000000
       60895000	      6088	8000124c	013a5493	srli	x9,x20,0x13	 x20:0xfffffcf0  x9=0x00001fff
       60905000	      6089	80001250	00300293	addi	x5,x0,3	  x0:0x00000000  x5=0x00000003
       60915000	      6090	80001254	85d2ae13	slti	x28,x5,-1955	  x5:0x00000003 x28=0x00000000
       60925000	      6091	80001258	6b11eb93	ori	x23,x3,1713	  x3:0xfffffff2 x23=0xfffffff3
       60935000	      6092	8000125c	003d8d93	addi	x27,x27,3	 x27:0x00000000 x27=0x00000003
       60945000	      6093	80001260	008df5b3	and	x11,x27,x8	 x27:0x00000003  x8:0x00000000 x11=0x00000000
       60955000	      6094	80001264	7dd08613	addi	x12,x1,2013	  x1:0x00000000 x12=0x000007dd
       60965000	      6095	80001268	fe5d86e3	beq	x27,x5,80001254	 x27:0x00000003  x5:0x00000003
       60975000	      6096	00000000	00000013	addi	x0,x0,0	  x0:0x00000000
       60985000	      6097	80001250	00000013	addi	x0,x0,0	  x0:0x00000000
       60995000	      6098	80001254	85d2ae13	slti	x28,x5,-1955	  x5:0x00000003 x28=0x00000000
       61005000	      6099	80001258	6b11eb93	ori	x23,x3,1713	  x3:0xfffffff2 x23=0xfffffff3
       61015000	      6100	8000125c	003d8d93	addi	x27,x27,3	 x27:0x00000003 x27=0x00000006
       61025000	      6101	80001260	008df5b3	and	x11,x27,x8	 x27:0x00000006  x8:0x00000000 x11=0x00000000
       61035000	      6102	80001264	7dd08613	addi	x12,x1,2013	  x1:0x00000000 x12=0x000007dd
       61045000	      6103	80001268	fe5d86e3	beq	x27,x5,80001254	 x27:0x00000006  x5:0x00000003
       61055000	      6104	8000126c	fad1dae3	bge	x3,x13,80001220	  x3:0xfffffff2 x13:0xffffffee
       61065000	      6105	00000000	00000013	addi	x0,x0,0	  x0:0x00000000
       61075000	      6106	8000121c	00000013	addi	x0,x0,0	  x0:0x00000000
       61085000	      6107	80001220	011d0933	add	x18,x26,x17	 x26:0x0000000b x17:0x00000000 x18=0x0000000b
       61095000	      6108	80001224	38e243b7	lui	x7,0x38e24	  x7=0x38e24000
       61105000	      6109	80001228	baf4b613	sltiu	x12,x9,-1105	  x9:0x00001fff x12=0x00000001
       61115000	      6110	8000122c	003a7ab3	and	x21,x20,x3	 x20:0xfffffcf0  x3:0xfffffff2 x21=0xfffffcf0
       61125000	      6111	80001230	40505433	sra	x8,x0,x5	  x0:0x00000000  x5:0x00000003  x8=0x00000000
       61135000	      6112	80001234	ff718193	addi	x3,x3,-9	  x3:0xfffffff2  x3=0xffffffe9
       61145000	      6113	80001238	00000013	addi	x0,x0,0	  x0:0x00000000
       61155000	      6114	8000123c	01c04933	xor	x18,x0,x28	  x0:0x00000000 x28:0x00000000 x18=0x00000000
       61165000	      6115	80001240	c0e7aa93	slti	x21,x15,-1010	 x15:0x00000000 x21=0x00000000
       61175000	      6116	80001244	01b39b13	slli	x22,x7,0x1b	  x7:0x38e24000 x22=0x00000000
       61185000	      6117	80001248	00000d93	addi	x27,x0,0	  x0:0x00000000 x27=0x00000000
       61195000	      6118	8000124c	013a5493	srli	x9,x20,0x13	 x20:0xfffffcf0  x9=0x00001fff
       61205000	      6119	80001250	00300293	addi	x5,x0,3	  x0:0x00000000  x5=0x00000003
       61215000	      6120	80001254	85d2ae13	slti	x28,x5,-1955	  x5:0x00000003 x28=0x00000000
       61225000	      6121	80001258	6b11eb93	ori	x23,x3,1713	  x3:0xffffffe9 x23=0xfffffff9
       61235000	      6122	8000125c	003d8d93	addi	x27,x27,3	 x27:0x00000000 x27=0x00000003
       61245000	      6123	80001260	008df5b3	and	x11,x27,x8	 x27:0x00000003  x8:0x00000000 x11=0x00000000
       61255000	      6124	80001264	7dd08613	addi	x12,x1,2013	  x1:0x00000000 x12=0x000007dd
       61265000	      6125	80001268	fe5d86e3	beq	x27,x5,80001254	 x27:0x00000003  x5:0x00000003
       61275000	      6126	00000000	00000013	addi	x0,x0,0	  x0:0x00000000
       61285000	      6127	80001250	00000013	addi	x0,x0,0	  x0:0x00000000
       61295000	      6128	80001254	85d2ae13	slti	x28,x5,-1955	  x5:0x00000003 x28=0x00000000
       61305000	      6129	80001258	6b11eb93	ori	x23,x3,1713	  x3:0xffffffe9 x23=0xfffffff9
       61315000	      6130	8000125c	003d8d93	addi	x27,x27,3	 x27:0x00000003 x27=0x00000006
       61325000	      6131	80001260	008df5b3	and	x11,x27,x8	 x27:0x00000006  x8:0x00000000 x11=0x00000000
       61335000	      6132	80001264	7dd08613	addi	x12,x1,2013	  x1:0x00000000 x12=0x000007dd
       61345000	      6133	80001268	fe5d86e3	beq	x27,x5,80001254	 x27:0x00000006  x5:0x00000003
       61355000	      6134	8000126c	fad1dae3	bge	x3,x13,80001220	  x3:0xffffffe9 x13:0xffffffee
       61365000	      6135	80001270	01137bb3	and	x23,x6,x17	  x6:0x00000002 x17:0x00000000 x23=0x00000000
       61375000	      6136	80001274	41ee5b13	srai	x22,x28,0x1e	 x28:0x00000000 x22=0x00000000
       61385000	      6137	80001278	9f524337	lui	x6,0x9f524	  x6=0x9f524000
       61395000	      6138	8000127c	4032d233	sra	x4,x5,x3	  x5:0x00000003  x3:0xffffffe9  x4=0x00000000
       61405000	      6139	80001280	0f995bb7	lui	x23,0xf995	 x23=0x0f995000
       61415000	      6140	80001284	6cf5be17	auipc	x28,0x6cf5b	 x28=0xecf5c280
       61425000	      6141	80001288	01d05e63	bge	x0,x29,800012a4	  x0:0x00000000 x29:0x00000000
       61435000	      6142	00000000	00000013	addi	x0,x0,0	  x0:0x00000000
       61445000	      6143	800012a0	00000013	addi	x0,x0,0	  x0:0x00000000
       61455000	      6144	800012a4	c4020a13	addi	x20,x4,-960	  x4:0x00000000 x20=0xfffffc40
       61465000	      6145	800012a8	001750b3	srl	x1,x14,x1	 x14:0x80009fc4  x1:0x00000000  x1=0x80009fc4
       61475000	      6146	800012ac	05b8d863	bge	x17,x27,800012fc	 x17:0x00000000 x27:0x00000006
       61485000	      6147	800012b0	500295b7	lui	x11,0x50029	 x11=0x50029000
       61495000	      6148	800012b4	bbc86693	ori	x13,x16,-1092	 x16:0x00000003 x13=0xfffffbbf
       61505000	      6149	800012b8	b70ff593	andi	x11,x31,-1168	 x31:0x0abb61f8 x11=0x0abb6170
       61515000	      6150	800012bc	01f3b1b3	sltu	x3,x7,x31	  x7:0x38e24000 x31:0x0abb61f8  x3=0x00000000
       61525000	      6151	800012c0	04b76063	bltu	x14,x11,80001300	 x14:0x80009fc4 x11:0x0abb6170
       61535000	      6152	800012c4	010cdb93	srli	x23,x25,0x10	 x25:0x00000002 x23=0x00000000
       61545000	      6153	800012c8	02a15263	bge	x2,x10,800012ec	  x2:0xf6240000 x10:0xf91950e0
       61555000	      6154	800012cc	003b1433	sll	x8,x22,x3	 x22:0x00000000  x3:0x00000000  x8=0x00000000
       61565000	      6155	800012d0	00d4bab3	sltu	x21,x9,x13	  x9:0x00001fff x13:0xfffffbbf x21=0x00000001
       61575000	      6156	800012d4	29350437	lui	x8,0x29350	  x8=0x29350000
       61585000	      6157	800012d8	0024c0b3	xor	x1,x9,x2	  x9:0x00001fff  x2:0xf6240000  x1=0xf6241fff
       61595000	      6158	800012dc	a060fab7	lui	x21,0xa060f	 x21=0xa060f000
       61605000	      6159	800012e0	e242b893	sltiu	x17,x5,-476	  x5:0x00000003 x17=0x00000001
       61615000	      6160	800012e4	0501f863	bgeu	x3,x16,80001334	  x3:0x00000000 x16:0x00000003
       61625000	      6161	800012e8	414e5913	srai	x18,x28,0x14	 x28:0xecf5c280 x18=0xfffffecf
       61635000	      6162	800012ec	0281c263	blt	x3,x8,80001310	  x3:0x00000000  x8:0x29350000
       61645000	      6163	00000000	00000013	addi	x0,x0,0	  x0:0x00000000
       61655000	      6164	8000130c	00000013	addi	x0,x0,0	  x0:0x00000000
       61665000	      6165	80001310	be70eab7	lui	x21,0xbe70e	 x21=0xbe70e000
       61675000	      6166	80001314	4e2a7213	andi	x4,x20,1250	 x20:0xfffffc40  x4=0x00000440
       61685000	      6167	80001318	02b34263	blt	x6,x11,8000133c	  x6:0x9f524000 x11:0x0abb6170
       61695000	      6168	00000000	00000013	addi	x0,x0,0	  x0:0x00000000
       61705000	      6169	80001338	00000013	addi	x0,x0,0	  x0:0x00000000
       61715000	      6170	8000133c	4188d233	sra	x4,x17,x24	 x17:0x00000001 x24:0xfffffff5  x4=0x00000000
       61725000	      6171	80001340	012729b3	slt	x19,x14,x18	 x14:0x80009fc4 x18:0xfffffecf x19=0x00000001
       61735000	      6172	80001344	0053ce63	blt	x7,x5,80001360	  x7:0x38e24000  x5:0x00000003
       61745000	      6173	80001348	0037c863	blt	x15,x3,80001358	 x15:0x00000000  x3:0x00000000
       61755000	      6174	8000134c	4115d693	srai	x13,x11,0x11	 x11:0x0abb6170 x13=0x0000055d
       61765000	      6175	80001350	622a4a93	xori	x21,x20,1570	 x20:0xfffffc40 x21=0xfffffa62
       61775000	      6176	80001354	00000013	addi	x0,x0,0	  x0:0x00000000
       61785000	      6177	80001358	400c5033	sra	x0,x24,x0	 x24:0xfffffff5  x0:0x00000000
       61795000	      6178	8000135c	00178b33	add	x22,x15,x1	 x15:0x00000000  x1:0xf6241fff x22=0xf6241fff
       61805000	      6179	80001360	015c1213	slli	x4,x24,0x15	 x24:0xfffffff5  x4=0xfea00000
       61815000	      6180	80001364	01a74933	xor	x18,x14,x26	 x14:0x80009fc4 x26:0x0000000b x18=0x80009fcf
       61825000	      6181	80001368	46e2a3b7	lui	x7,0x46e2a	  x7=0x46e2a000
       61835000	      6182	8000136c	00600b13	addi	x22,x0,6	  x0:0x00000000 x22=0x00000006
       61845000	      6183	80001370	ffe00293	addi	x5,x0,-2	  x0:0x00000000  x5=0xfffffffe
       61855000	      6184	80001374	019963b3	or	x7,x18,x25	 x18:0x80009fcf x25:0x00000002  x7=0x80009fcf
       61865000	      6185	80001378	11c50b93	addi	x23,x10,284	 x10:0xf91950e0 x23=0xf91951fc
       61875000	      6186	8000137c	ff8b0b13	addi	x22,x22,-8	 x22:0x00000006 x22=0xfffffffe
       61885000	      6187	80001380	00125e93	srli	x29,x4,0x1	  x4:0xfea00000 x29=0x7f500000
       61895000	      6188	80001384	ff700913	addi	x18,x0,-9	  x0:0x00000000 x18=0xfffffff7
       61905000	      6189	80001388	00800c93	addi	x25,x0,8	  x0:0x00000000 x25=0x00000008
       61915000	      6190	8000138c	4179cc13	xori	x24,x19,1047	 x19:0x00000001 x24=0x00000416
       61925000	      6191	80001390	9005ab93	slti	x23,x11,-1792	 x11:0x0abb6170 x23=0x00000000
       61935000	      6192	80001394	eea5a393	slti	x7,x11,-278	 x11:0x0abb6170  x7=0x00000000
       61945000	      6193	80001398	40b95133	sra	x2,x18,x11	 x18:0xfffffff7 x11:0x0abb6170  x2=0xffffffff
       61955000	      6194	8000139c	0180d093	srli	x1,x1,0x18	  x1:0xf6241fff  x1=0x000000f6
       61965000	      6195	800013a0	3d1bb793	sltiu	x15,x23,977	 x23:0x00000000 x15=0x00000001
       61975000	      6196	800013a4	00290913	addi	x18,x18,2	 x18:0xfffffff7 x18=0xfffffff9
       61985000	      6197	800013a8	40a0dab3	sra	x21,x1,x10	  x1:0x000000f6 x10:0xf91950e0 x21=0x000000f6
       61995000	      6198	800013ac	0a54a793	slti	x15,x9,165	  x9:0x00001fff x15=0x00000000
       62005000	      6199	800013b0	ff9948e3	blt	x18,x25,800013a0	 x18:0xfffffff9 x25:0x00000008
       62015000	      6200	00000000	00000013	addi	x0,x0,0	  x0:0x00000000
       62025000	      6201	8000139c	00000013	addi	x0,x0,0	  x0:0x00000000
       62035000	      6202	800013a0	3d1bb793	sltiu	x15,x23,977	 x23:0x00000000 x15=0x00000001
       62045000	      6203	800013a4	00290913	addi	x18,x18,2	 x18:0xfffffff9 x18=0xfffffffb
       62055000	      6204	800013a8	40a0dab3	sra	x21,x1,x10	  x1:0x000000f6 x10:0xf91950e0 x21=0x000000f6
       62065000	      6205	800013ac	0a54a793	slti	x15,x9,165	  x9:0x00001fff x15=0x00000000
       62075000	      6206	800013b0	ff9948e3	blt	x18,x25,800013a0	 x18:0xfffffffb x25:0x00000008
       62085000	      6207	00000000	00000013	addi	x0,x0,0	  x0:0x00000000
       62095000	      6208	8000139c	00000013	addi	x0,x0,0	  x0:0x00000000
       62105000	      6209	800013a0	3d1bb793	sltiu	x15,x23,977	 x23:0x00000000 x15=0x00000001
       62115000	      6210	800013a4	00290913	addi	x18,x18,2	 x18:0xfffffffb x18=0xfffffffd
       62125000	      6211	800013a8	40a0dab3	sra	x21,x1,x10	  x1:0x000000f6 x10:0xf91950e0 x21=0x000000f6
       62135000	      6212	800013ac	0a54a793	slti	x15,x9,165	  x9:0x00001fff x15=0x00000000
       62145000	      6213	800013b0	ff9948e3	blt	x18,x25,800013a0	 x18:0xfffffffd x25:0x00000008
       62155000	      6214	00000000	00000013	addi	x0,x0,0	  x0:0x00000000
       62165000	      6215	8000139c	00000013	addi	x0,x0,0	  x0:0x00000000
       62175000	      6216	800013a0	3d1bb793	sltiu	x15,x23,977	 x23:0x00000000 x15=0x00000001
       62185000	      6217	800013a4	00290913	addi	x18,x18,2	 x18:0xfffffffd x18=0xffffffff
       62195000	      6218	800013a8	40a0dab3	sra	x21,x1,x10	  x1:0x000000f6 x10:0xf91950e0 x21=0x000000f6
       62205000	      6219	800013ac	0a54a793	slti	x15,x9,165	  x9:0x00001fff x15=0x00000000
       62215000	      6220	800013b0	ff9948e3	blt	x18,x25,800013a0	 x18:0xffffffff x25:0x00000008
       62225000	      6221	00000000	00000013	addi	x0,x0,0	  x0:0x00000000
       62235000	      6222	8000139c	00000013	addi	x0,x0,0	  x0:0x00000000
       62245000	      6223	800013a0	3d1bb793	sltiu	x15,x23,977	 x23:0x00000000 x15=0x00000001
       62255000	      6224	800013a4	00290913	addi	x18,x18,2	 x18:0xffffffff x18=0x00000001
       62265000	      6225	800013a8	40a0dab3	sra	x21,x1,x10	  x1:0x000000f6 x10:0xf91950e0 x21=0x000000f6
       62275000	      6226	800013ac	0a54a793	slti	x15,x9,165	  x9:0x00001fff x15=0x00000000
       62285000	      6227	800013b0	ff9948e3	blt	x18,x25,800013a0	 x18:0x00000001 x25:0x00000008
       62295000	      6228	00000000	00000013	addi	x0,x0,0	  x0:0x00000000
       62305000	      6229	8000139c	00000013	addi	x0,x0,0	  x0:0x00000000
       62315000	      6230	800013a0	3d1bb793	sltiu	x15,x23,977	 x23:0x00000000 x15=0x00000001
       62325000	      6231	800013a4	00290913	addi	x18,x18,2	 x18:0x00000001 x18=0x00000003
       62335000	      6232	800013a8	40a0dab3	sra	x21,x1,x10	  x1:0x000000f6 x10:0xf91950e0 x21=0x000000f6
       62345000	      6233	800013ac	0a54a793	slti	x15,x9,165	  x9:0x00001fff x15=0x00000000
       62355000	      6234	800013b0	ff9948e3	blt	x18,x25,800013a0	 x18:0x00000003 x25:0x00000008
       62365000	      6235	00000000	00000013	addi	x0,x0,0	  x0:0x00000000
       62375000	      6236	8000139c	00000013	addi	x0,x0,0	  x0:0x00000000
       62385000	      6237	800013a0	3d1bb793	sltiu	x15,x23,977	 x23:0x00000000 x15=0x00000001
       62395000	      6238	800013a4	00290913	addi	x18,x18,2	 x18:0x00000003 x18=0x00000005
       62405000	      6239	800013a8	40a0dab3	sra	x21,x1,x10	  x1:0x000000f6 x10:0xf91950e0 x21=0x000000f6
       62415000	      6240	800013ac	0a54a793	slti	x15,x9,165	  x9:0x00001fff x15=0x00000000
       62425000	      6241	800013b0	ff9948e3	blt	x18,x25,800013a0	 x18:0x00000005 x25:0x00000008
       62435000	      6242	00000000	00000013	addi	x0,x0,0	  x0:0x00000000
       62445000	      6243	8000139c	00000013	addi	x0,x0,0	  x0:0x00000000
       62455000	      6244	800013a0	3d1bb793	sltiu	x15,x23,977	 x23:0x00000000 x15=0x00000001
       62465000	      6245	800013a4	00290913	addi	x18,x18,2	 x18:0x00000005 x18=0x00000007
       62475000	      6246	800013a8	40a0dab3	sra	x21,x1,x10	  x1:0x000000f6 x10:0xf91950e0 x21=0x000000f6
       62485000	      6247	800013ac	0a54a793	slti	x15,x9,165	  x9:0x00001fff x15=0x00000000
       62495000	      6248	800013b0	ff9948e3	blt	x18,x25,800013a0	 x18:0x00000007 x25:0x00000008
       62505000	      6249	00000000	00000013	addi	x0,x0,0	  x0:0x00000000
       62515000	      6250	8000139c	00000013	addi	x0,x0,0	  x0:0x00000000
       62525000	      6251	800013a0	3d1bb793	sltiu	x15,x23,977	 x23:0x00000000 x15=0x00000001
       62535000	      6252	800013a4	00290913	addi	x18,x18,2	 x18:0x00000007 x18=0x00000009
       62545000	      6253	800013a8	40a0dab3	sra	x21,x1,x10	  x1:0x000000f6 x10:0xf91950e0 x21=0x000000f6
       62555000	      6254	800013ac	0a54a793	slti	x15,x9,165	  x9:0x00001fff x15=0x00000000
       62565000	      6255	800013b0	ff9948e3	blt	x18,x25,800013a0	 x18:0x00000009 x25:0x00000008
       62575000	      6256	800013b4	005fdbb3	srl	x23,x31,x5	 x31:0x0abb61f8  x5:0xfffffffe x23=0x00000000
       62585000	      6257	800013b8	fc5b00e3	beq	x22,x5,80001378	 x22:0xfffffffe  x5:0xfffffffe
       62595000	      6258	00000000	00000013	addi	x0,x0,0	  x0:0x00000000
       62605000	      6259	80001374	00000013	addi	x0,x0,0	  x0:0x00000000
       62615000	      6260	80001378	11c50b93	addi	x23,x10,284	 x10:0xf91950e0 x23=0xf91951fc
       62625000	      6261	8000137c	ff8b0b13	addi	x22,x22,-8	 x22:0xfffffffe x22=0xfffffff6
       62635000	      6262	80001380	00125e93	srli	x29,x4,0x1	  x4:0xfea00000 x29=0x7f500000
       62645000	      6263	80001384	ff700913	addi	x18,x0,-9	  x0:0x00000000 x18=0xfffffff7
       62655000	      6264	80001388	00800c93	addi	x25,x0,8	  x0:0x00000000 x25=0x00000008
       62665000	      6265	8000138c	4179cc13	xori	x24,x19,1047	 x19:0x00000001 x24=0x00000416
       62675000	      6266	80001390	9005ab93	slti	x23,x11,-1792	 x11:0x0abb6170 x23=0x00000000
       62685000	      6267	80001394	eea5a393	slti	x7,x11,-278	 x11:0x0abb6170  x7=0x00000000
       62695000	      6268	80001398	40b95133	sra	x2,x18,x11	 x18:0xfffffff7 x11:0x0abb6170  x2=0xffffffff
       62705000	      6269	8000139c	0180d093	srli	x1,x1,0x18	  x1:0x000000f6  x1=0x00000000
       62715000	      6270	800013a0	3d1bb793	sltiu	x15,x23,977	 x23:0x00000000 x15=0x00000001
       62725000	      6271	800013a4	00290913	addi	x18,x18,2	 x18:0xfffffff7 x18=0xfffffff9
       62735000	      6272	800013a8	40a0dab3	sra	x21,x1,x10	  x1:0x00000000 x10:0xf91950e0 x21=0x00000000
       62745000	      6273	800013ac	0a54a793	slti	x15,x9,165	  x9:0x00001fff x15=0x00000000
       62755000	      6274	800013b0	ff9948e3	blt	x18,x25,800013a0	 x18:0xfffffff9 x25:0x00000008
       62765000	      6275	00000000	00000013	addi	x0,x0,0	  x0:0x00000000
       62775000	      6276	8000139c	00000013	addi	x0,x0,0	  x0:0x00000000
       62785000	      6277	800013a0	3d1bb793	sltiu	x15,x23,977	 x23:0x00000000 x15=0x00000001
       62795000	      6278	800013a4	00290913	addi	x18,x18,2	 x18:0xfffffff9 x18=0xfffffffb
       62805000	      6279	800013a8	40a0dab3	sra	x21,x1,x10	  x1:0x00000000 x10:0xf91950e0 x21=0x00000000
       62815000	      6280	800013ac	0a54a793	slti	x15,x9,165	  x9:0x00001fff x15=0x00000000
       62825000	      6281	800013b0	ff9948e3	blt	x18,x25,800013a0	 x18:0xfffffffb x25:0x00000008
       62835000	      6282	00000000	00000013	addi	x0,x0,0	  x0:0x00000000
       62845000	      6283	8000139c	00000013	addi	x0,x0,0	  x0:0x00000000
       62855000	      6284	800013a0	3d1bb793	sltiu	x15,x23,977	 x23:0x00000000 x15=0x00000001
       62865000	      6285	800013a4	00290913	addi	x18,x18,2	 x18:0xfffffffb x18=0xfffffffd
       62875000	      6286	800013a8	40a0dab3	sra	x21,x1,x10	  x1:0x00000000 x10:0xf91950e0 x21=0x00000000
       62885000	      6287	800013ac	0a54a793	slti	x15,x9,165	  x9:0x00001fff x15=0x00000000
       62895000	      6288	800013b0	ff9948e3	blt	x18,x25,800013a0	 x18:0xfffffffd x25:0x00000008
       62905000	      6289	00000000	00000013	addi	x0,x0,0	  x0:0x00000000
       62915000	      6290	8000139c	00000013	addi	x0,x0,0	  x0:0x00000000
       62925000	      6291	800013a0	3d1bb793	sltiu	x15,x23,977	 x23:0x00000000 x15=0x00000001
       62935000	      6292	800013a4	00290913	addi	x18,x18,2	 x18:0xfffffffd x18=0xffffffff
       62945000	      6293	800013a8	40a0dab3	sra	x21,x1,x10	  x1:0x00000000 x10:0xf91950e0 x21=0x00000000
       62955000	      6294	800013ac	0a54a793	slti	x15,x9,165	  x9:0x00001fff x15=0x00000000
       62965000	      6295	800013b0	ff9948e3	blt	x18,x25,800013a0	 x18:0xffffffff x25:0x00000008
       62975000	      6296	00000000	00000013	addi	x0,x0,0	  x0:0x00000000
       62985000	      6297	8000139c	00000013	addi	x0,x0,0	  x0:0x00000000
       62995000	      6298	800013a0	3d1bb793	sltiu	x15,x23,977	 x23:0x00000000 x15=0x00000001
       63005000	      6299	800013a4	00290913	addi	x18,x18,2	 x18:0xffffffff x18=0x00000001
       63015000	      6300	800013a8	40a0dab3	sra	x21,x1,x10	  x1:0x00000000 x10:0xf91950e0 x21=0x00000000
       63025000	      6301	800013ac	0a54a793	slti	x15,x9,165	  x9:0x00001fff x15=0x00000000
       63035000	      6302	800013b0	ff9948e3	blt	x18,x25,800013a0	 x18:0x00000001 x25:0x00000008
       63045000	      6303	00000000	00000013	addi	x0,x0,0	  x0:0x00000000
       63055000	      6304	8000139c	00000013	addi	x0,x0,0	  x0:0x00000000
       63065000	      6305	800013a0	3d1bb793	sltiu	x15,x23,977	 x23:0x00000000 x15=0x00000001
       63075000	      6306	800013a4	00290913	addi	x18,x18,2	 x18:0x00000001 x18=0x00000003
       63085000	      6307	800013a8	40a0dab3	sra	x21,x1,x10	  x1:0x00000000 x10:0xf91950e0 x21=0x00000000
       63095000	      6308	800013ac	0a54a793	slti	x15,x9,165	  x9:0x00001fff x15=0x00000000
       63105000	      6309	800013b0	ff9948e3	blt	x18,x25,800013a0	 x18:0x00000003 x25:0x00000008
       63115000	      6310	00000000	00000013	addi	x0,x0,0	  x0:0x00000000
       63125000	      6311	8000139c	00000013	addi	x0,x0,0	  x0:0x00000000
       63135000	      6312	800013a0	3d1bb793	sltiu	x15,x23,977	 x23:0x00000000 x15=0x00000001
       63145000	      6313	800013a4	00290913	addi	x18,x18,2	 x18:0x00000003 x18=0x00000005
       63155000	      6314	800013a8	40a0dab3	sra	x21,x1,x10	  x1:0x00000000 x10:0xf91950e0 x21=0x00000000
       63165000	      6315	800013ac	0a54a793	slti	x15,x9,165	  x9:0x00001fff x15=0x00000000
       63175000	      6316	800013b0	ff9948e3	blt	x18,x25,800013a0	 x18:0x00000005 x25:0x00000008
       63185000	      6317	00000000	00000013	addi	x0,x0,0	  x0:0x00000000
       63195000	      6318	8000139c	00000013	addi	x0,x0,0	  x0:0x00000000
       63205000	      6319	800013a0	3d1bb793	sltiu	x15,x23,977	 x23:0x00000000 x15=0x00000001
       63215000	      6320	800013a4	00290913	addi	x18,x18,2	 x18:0x00000005 x18=0x00000007
       63225000	      6321	800013a8	40a0dab3	sra	x21,x1,x10	  x1:0x00000000 x10:0xf91950e0 x21=0x00000000
       63235000	      6322	800013ac	0a54a793	slti	x15,x9,165	  x9:0x00001fff x15=0x00000000
       63245000	      6323	800013b0	ff9948e3	blt	x18,x25,800013a0	 x18:0x00000007 x25:0x00000008
       63255000	      6324	00000000	00000013	addi	x0,x0,0	  x0:0x00000000
       63265000	      6325	8000139c	00000013	addi	x0,x0,0	  x0:0x00000000
       63275000	      6326	800013a0	3d1bb793	sltiu	x15,x23,977	 x23:0x00000000 x15=0x00000001
       63285000	      6327	800013a4	00290913	addi	x18,x18,2	 x18:0x00000007 x18=0x00000009
       63295000	      6328	800013a8	40a0dab3	sra	x21,x1,x10	  x1:0x00000000 x10:0xf91950e0 x21=0x00000000
       63305000	      6329	800013ac	0a54a793	slti	x15,x9,165	  x9:0x00001fff x15=0x00000000
       63315000	      6330	800013b0	ff9948e3	blt	x18,x25,800013a0	 x18:0x00000009 x25:0x00000008
       63325000	      6331	800013b4	005fdbb3	srl	x23,x31,x5	 x31:0x0abb61f8  x5:0xfffffffe x23=0x00000000
       63335000	      6332	800013b8	fc5b00e3	beq	x22,x5,80001378	 x22:0xfffffff6  x5:0xfffffffe
       63345000	      6333	800013bc	4001d3b3	sra	x7,x3,x0	  x3:0x00000000  x0:0x00000000  x7=0x00000000
       63355000	      6334	800013c0	bc8df913	andi	x18,x27,-1080	 x27:0x00000006 x18=0x00000000
       63365000	      6335	800013c4	8ac48e13	addi	x28,x9,-1876	  x9:0x00001fff x28=0x000018ab
       63375000	      6336	800013c8	3cb77097	auipc	x1,0x3cb77	  x1=0xbcb783c4
       63385000	      6337	800013cc	41dd5593	srai	x11,x26,0x1d	 x26:0x0000000b x11=0x00000000
       63395000	      6338	800013d0	0077fc63	bgeu	x15,x7,800013e8	 x15:0x00000000  x7:0x00000000
       63405000	      6339	00000000	00000013	addi	x0,x0,0	  x0:0x00000000
       63415000	      6340	800013e4	00000013	addi	x0,x0,0	  x0:0x00000000
       63425000	      6341	800013e8	5b0be093	ori	x1,x23,1456	 x23:0x00000000  x1=0x000005b0
       63435000	      6342	800013ec	00eeeb33	or	x22,x29,x14	 x29:0x7f500000 x14:0x80009fc4 x22=0xff509fc4
       63445000	      6343	800013f0	a8bb2393	slti	x7,x22,-1397	 x22:0xff509fc4  x7=0x00000001
       63455000	      6344	800013f4	04517863	bgeu	x2,x5,80001444	  x2:0xffffffff  x5:0xfffffffe
       63465000	      6345	00000000	00000013	addi	x0,x0,0	  x0:0x00000000
       63475000	      6346	80001440	00000013	addi	x0,x0,0	  x0:0x00000000
       63485000	      6347	80001444	015bdb13	srli	x22,x23,0x15	 x23:0x00000000 x22=0x00000000
       63495000	      6348	80001448	405d8db3	sub	x27,x27,x5	 x27:0x00000006  x5:0xfffffffe x27=0x00000008
       63505000	      6349	8000144c	000d03b3	add	x7,x26,x0	 x26:0x0000000b  x0:0x00000000  x7=0x0000000b
       63515000	      6350	80001450	bb6bba13	sltiu	x20,x23,-1098	 x23:0x00000000 x20=0x00000001
       63525000	      6351	80001454	aec58d93	addi	x27,x11,-1300	 x11:0x00000000 x27=0xfffffaec
       63535000	      6352	80001458	7964ed93	ori	x27,x9,1942	  x9:0x00001fff x27=0x00001fff
       63545000	      6353	8000145c	05245063	bge	x8,x18,8000149c	  x8:0x29350000 x18:0x00000000
       63555000	      6354	00000000	00000013	addi	x0,x0,0	  x0:0x00000000
       63565000	      6355	80001498	00000013	addi	x0,x0,0	  x0:0x00000000
       63575000	      6356	8000149c	00000013	addi	x0,x0,0	  x0:0x00000000
       63585000	      6357	800014a0	002e7b33	and	x22,x28,x2	 x28:0x000018ab  x2:0xffffffff x22=0x000018ab
       63595000	      6358	800014a4	40908eb3	sub	x29,x1,x9	  x1:0x000005b0  x9:0x00001fff x29=0xffffe5b1
       63605000	      6359	800014a8	00000013	addi	x0,x0,0	  x0:0x00000000
       63615000	      6360	800014ac	237fd117	auipc	x2,0x237fd	  x2=0xa37fe4a8
       63625000	      6361	800014b0	859e0a97	auipc	x21,0x859e0	 x21=0x059e14ac
       63635000	      6362	800014b4	00075bb3	srl	x23,x14,x0	 x14:0x80009fc4  x0:0x00000000 x23=0x80009fc4
       63645000	      6363	800014b8	f90e7913	andi	x18,x28,-112	 x28:0x000018ab x18=0x00001880
       63655000	      6364	800014bc	83020893	addi	x17,x4,-2000	  x4:0xfea00000 x17=0xfe9ff830
       63665000	      6365	800014c0	005e5863	bge	x28,x5,800014d0	 x28:0x000018ab  x5:0xfffffffe
       63675000	      6366	00000000	00000013	addi	x0,x0,0	  x0:0x00000000
       63685000	      6367	800014cc	00000013	addi	x0,x0,0	  x0:0x00000000
       63695000	      6368	800014d0	ed314797	auipc	x15,0xed314	 x15=0x6d3154cc
       63705000	      6369	800014d4	01220fb3	add	x31,x4,x18	  x4:0xfea00000 x18:0x00001880 x31=0xfea01880
       63715000	      6370	800014d8	01155593	srli	x11,x10,0x11	 x10:0xf91950e0 x11=0x00007c8c
       63725000	      6371	800014dc	01e92c33	slt	x24,x18,x30	 x18:0x00001880 x30:0x80009f34 x24=0x00000000
       63735000	      6372	800014e0	80314db7	lui	x27,0x80314	 x27=0x80314000
       63745000	      6373	800014e4	029f5a63	bge	x30,x9,80001518	 x30:0x80009f34  x9:0x00001fff
       63755000	      6374	800014e8	00d037b3	sltu	x15,x0,x13	  x0:0x00000000 x13:0x0000055d x15=0x00000001
       63765000	      6375	800014ec	02764e63	blt	x12,x7,80001528	 x12:0x000007dd  x7:0x0000000b
       63775000	      6376	800014f0	008408b3	add	x17,x8,x8	  x8:0x29350000  x8:0x29350000 x17=0x526a0000
       63785000	      6377	800014f4	01a91413	slli	x8,x18,0x1a	 x18:0x00001880  x8=0x00000000
       63795000	      6378	800014f8	fbcc62b7	lui	x5,0xfbcc6	  x5=0xfbcc6000
       63805000	      6379	800014fc	d2436613	ori	x12,x6,-732	  x6:0x9f524000 x12=0xfffffd24
       63815000	      6380	80001500	01f5d413	srli	x8,x11,0x1f	 x11:0x00007c8c  x8=0x00000000
       63825000	      6381	80001504	002e9bb3	sll	x23,x29,x2	 x29:0xffffe5b1  x2:0xa37fe4a8 x23=0xffe5b100
       63835000	      6382	80001508	dc6f1197	auipc	x3,0xdc6f1	  x3=0x5c6f2504
       63845000	      6383	8000150c	00c0c433	xor	x8,x1,x12	  x1:0x000005b0 x12:0xfffffd24  x8=0xfffff894
       63855000	      6384	80001510	69842213	slti	x4,x8,1688	  x8:0xfffff894  x4=0x00000001
       63865000	      6385	80001514	01445bb3	srl	x23,x8,x20	  x8:0xfffff894 x20:0x00000001 x23=0x7ffffc4a
       63875000	      6386	80001518	5484e017	auipc	x0,0x5484e	
       63885000	      6387	8000151c	01d153b3	srl	x7,x2,x29	  x2:0xa37fe4a8 x29:0xffffe5b1  x7=0x000051bf
       63895000	      6388	80001520	01e14cb3	xor	x25,x2,x30	  x2:0xa37fe4a8 x30:0x80009f34 x25=0x237f7b9c
       63905000	      6389	80001524	40eadb33	sra	x22,x21,x14	 x21:0x059e14ac x14:0x80009fc4 x22=0x0059e14a
       63915000	      6390	80001528	0502f863	bgeu	x5,x16,80001578	  x5:0xfbcc6000 x16:0x00000003
       63925000	      6391	00000000	00000013	addi	x0,x0,0	  x0:0x00000000
       63935000	      6392	80001574	00000013	addi	x0,x0,0	  x0:0x00000000
       63945000	      6393	80001578	00cf1133	sll	x2,x30,x12	 x30:0x80009f34 x12:0xfffffd24  x2=0x0009f340
       63955000	      6394	8000157c	04691663	bne	x18,x6,800015c8	 x18:0x00001880  x6:0x9f524000
       63965000	      6395	00000000	00000013	addi	x0,x0,0	  x0:0x00000000
       63975000	      6396	800015c4	00000013	addi	x0,x0,0	  x0:0x00000000
       63985000	      6397	800015c8	401e0b33	sub	x22,x28,x1	 x28:0x000018ab  x1:0x000005b0 x22=0x000012fb
       63995000	      6398	800015cc	41bd0233	sub	x4,x26,x27	 x26:0x0000000b x27:0x80314000  x4=0x7fcec00b
       64005000	      6399	800015d0	557ea193	slti	x3,x29,1367	 x29:0xffffe5b1  x3=0x00000001
       64015000	      6400	800015d4	01effc63	bgeu	x31,x30,800015ec	 x31:0xfea01880 x30:0x80009f34
       64025000	      6401	00000000	00000013	addi	x0,x0,0	  x0:0x00000000
       64035000	      6402	800015e8	00000013	addi	x0,x0,0	  x0:0x00000000
       64045000	      6403	800015ec	00b25193	srli	x3,x4,0xb	  x4:0x7fcec00b  x3=0x000ff9d8
       64055000	      6404	800015f0	013cd493	srli	x9,x25,0x13	 x25:0x237f7b9c  x9=0x0000046f
       64065000	      6405	800015f4	014443b3	xor	x7,x8,x20	  x8:0xfffff894 x20:0x00000001  x7=0xfffff895
       64075000	      6406	800015f8	4b410093	addi	x1,x2,1204	  x2:0x0009f340  x1=0x0009f7f4
       64085000	      6407	800015fc	0225c263	blt	x11,x2,80001620	 x11:0x00007c8c  x2:0x0009f340
       64095000	      6408	00000000	00000013	addi	x0,x0,0	  x0:0x00000000
       64105000	      6409	8000161c	00000013	addi	x0,x0,0	  x0:0x00000000
       64115000	      6410	80001620	44788e93	addi	x29,x17,1095	 x17:0x526a0000 x29=0x526a0447
       64125000	      6411	80001624	0068c533	xor	x10,x17,x6	 x17:0x526a0000  x6:0x9f524000 x10=0xcd384000
       64135000	      6412	80001628	01e0a1b3	slt	x3,x1,x30	  x1:0x0009f7f4 x30:0x80009f34  x3=0x00000000
       64145000	      6413	8000162c	ff700f93	addi	x31,x0,-9	  x0:0x00000000 x31=0xfffffff7
       64155000	      6414	80001630	01701133	sll	x2,x0,x23	  x0:0x00000000 x23:0x7ffffc4a  x2=0x00000000
       64165000	      6415	80001634	ffb00613	addi	x12,x0,-5	  x0:0x00000000 x12=0xfffffffb
       64175000	      6416	80001638	45822513	slti	x10,x4,1112	  x4:0x7fcec00b x10=0x00000000
       64185000	      6417	8000163c	007419b3	sll	x19,x8,x7	  x8:0xfffff894  x7:0xfffff895 x19=0x12800000
       64195000	      6418	80001640	ab653913	sltiu	x18,x10,-1354	 x10:0x00000000 x18=0x00000001
       64205000	      6419	80001644	004f8f93	addi	x31,x31,4	 x31:0xfffffff7 x31=0xfffffffb
       64215000	      6420	80001648	00d5cb33	xor	x22,x11,x13	 x11:0x00007c8c x13:0x0000055d x22=0x000079d1
       64225000	      6421	8000164c	00800793	addi	x15,x0,8	  x0:0x00000000 x15=0x00000008
       64235000	      6422	80001650	ffd00d93	addi	x27,x0,-3	  x0:0x00000000 x27=0xfffffffd
       64245000	      6423	80001654	41dc0533	sub	x10,x24,x29	 x24:0x00000000 x29:0x526a0447 x10=0xad95fbb9
       64255000	      6424	80001658	40e1d013	srai	x0,x3,0xe	  x3:0x00000000
       64265000	      6425	8000165c	6ee4b893	sltiu	x17,x9,1774	  x9:0x0000046f x17=0x00000001
       64275000	      6426	80001660	ff978793	addi	x15,x15,-7	 x15:0x00000008 x15=0x00000001
       64285000	      6427	80001664	00000013	addi	x0,x0,0	  x0:0x00000000
       64295000	      6428	80001668	ffb7d6e3	bge	x15,x27,80001654	 x15:0x00000001 x27:0xfffffffd
       64305000	      6429	00000000	00000013	addi	x0,x0,0	  x0:0x00000000
       64315000	      6430	80001650	00000013	addi	x0,x0,0	  x0:0x00000000
       64325000	      6431	80001654	41dc0533	sub	x10,x24,x29	 x24:0x00000000 x29:0x526a0447 x10=0xad95fbb9
       64335000	      6432	80001658	40e1d013	srai	x0,x3,0xe	  x3:0x00000000
       64345000	      6433	8000165c	6ee4b893	sltiu	x17,x9,1774	  x9:0x0000046f x17=0x00000001
       64355000	      6434	80001660	ff978793	addi	x15,x15,-7	 x15:0x00000001 x15=0xfffffffa
       64365000	      6435	80001664	00000013	addi	x0,x0,0	  x0:0x00000000
       64375000	      6436	80001668	ffb7d6e3	bge	x15,x27,80001654	 x15:0xfffffffa x27:0xfffffffd
       64385000	      6437	8000166c	68573e97	auipc	x29,0x68573	 x29=0xe8574668
       64395000	      6438	80001670	40dd5bb3	sra	x23,x26,x13	 x26:0x0000000b x13:0x0000055d x23=0x00000000
       64405000	      6439	80001674	41b203b3	sub	x7,x4,x27	  x4:0x7fcec00b x27:0xfffffffd  x7=0x7fcec00e
       64415000	      6440	80001678	015d5513	srli	x10,x26,0x15	 x26:0x0000000b x10=0x00000000
       64425000	      6441	8000167c	3dc79317	auipc	x6,0x3dc79	  x6=0xbdc7a678
       64435000	      6442	80001680	00000013	addi	x0,x0,0	  x0:0x00000000
       64445000	      6443	80001684	b0bd1497	auipc	x9,0xb0bd1	  x9=0x30bd2680
       64455000	      6444	80001688	d00069b7	lui	x19,0xd0006	 x19=0xd0006000
       64465000	      6445	8000168c	011a9193	slli	x3,x21,0x11	 x21:0x059e14ac  x3=0x29580000
       64475000	      6446	80001690	0115a9b3	slt	x19,x11,x17	 x11:0x00007c8c x17:0x00000001 x19=0x00000000
       64485000	      6447	80001694	01d3a4b3	slt	x9,x7,x29	  x7:0x7fcec00e x29:0xe8574668  x9=0x00000000
       64495000	      6448	80001698	00ce1a13	slli	x20,x28,0xc	 x28:0x000018ab x20=0x018ab000
       64505000	      6449	8000169c	facf92e3	bne	x31,x12,80001640	 x31:0xfffffffb x12:0xfffffffb
       64515000	      6450	800016a0	00000013	addi	x0,x0,0	  x0:0x00000000
       64525000	      6451	800016a4	0184dc13	srli	x24,x9,0x18	  x9:0x00000000 x24=0x00000000
       64535000	      6452	800016a8	8fab8517	auipc	x10,0x8fab8	 x10=0x0fab96a4
       64545000	      6453	800016ac	4a7fcf93	xori	x31,x31,1191	 x31:0xfffffffb x31=0xfffffb5c
       64555000	      6454	800016b0	00000013	addi	x0,x0,0	  x0:0x00000000
       64565000	      6455	800016b4	01bf0463	beq	x30,x27,800016bc	 x30:0x80009f34 x27:0xfffffffd
       64575000	      6456	800016b8	015231b3	sltu	x3,x4,x21	  x4:0x7fcec00b x21:0x059e14ac  x3=0x00000000
       64585000	      6457	800016bc	d1330c13	addi	x24,x6,-749	  x6:0xbdc7a678 x24=0xbdc7a38b
       64595000	      6458	800016c0	01f8d6b3	srl	x13,x17,x31	 x17:0x00000001 x31:0xfffffb5c x13=0x00000000
       64605000	      6459	800016c4	006b52b3	srl	x5,x22,x6	 x22:0x000079d1  x6:0xbdc7a678  x5=0x00000000
       64615000	      6460	800016c8	edf78293	addi	x5,x15,-289	 x15:0xfffffffa  x5=0xfffffed9
       64625000	      6461	800016cc	019bfa63	bgeu	x23,x25,800016e0	 x23:0x00000000 x25:0x237f7b9c
       64635000	      6462	800016d0	29cff313	andi	x6,x31,668	 x31:0xfffffb5c  x6=0x0000021c
       64645000	      6463	800016d4	018adb93	srli	x23,x21,0x18	 x21:0x059e14ac x23=0x00000005
       64655000	      6464	800016d8	00000013	addi	x0,x0,0	  x0:0x00000000
       64665000	      6465	800016dc	00a29db3	sll	x27,x5,x10	  x5:0xfffffed9 x10:0x0fab96a4 x27=0xffffed90
       64675000	      6466	800016e0	b543f413	andi	x8,x7,-1196	  x7:0x7fcec00e  x8=0x7fcec004
       64685000	      6467	800016e4	00a50bb3	add	x23,x10,x10	 x10:0x0fab96a4 x10:0x0fab96a4 x23=0x1f572d48
       64695000	      6468	800016e8	0d462a93	slti	x21,x12,212	 x12:0xfffffffb x21=0x00000001
       64705000	      6469	800016ec	40ad0333	sub	x6,x26,x10	 x26:0x0000000b x10:0x0fab96a4  x6=0xf0546967
       64715000	      6470	800016f0	05624863	blt	x4,x22,80001740	  x4:0x7fcec00b x22:0x000079d1
       64725000	      6471	800016f4	418002b3	sub	x5,x0,x24	  x0:0x00000000 x24:0xbdc7a38b  x5=0x42385c75
       64735000	      6472	800016f8	40895e93	srai	x29,x18,0x8	 x18:0x00000001 x29=0x00000000
       64745000	      6473	800016fc	01b3f0b3	and	x1,x7,x27	  x7:0x7fcec00e x27:0xffffed90  x1=0x7fcec000
       64755000	      6474	80001700	532a6213	ori	x4,x20,1330	 x20:0x018ab000  x4=0x018ab532
       64765000	      6475	80001704	5120a693	slti	x13,x1,1298	  x1:0x7fcec000 x13=0x00000000
       64775000	      6476	80001708	03131663	bne	x6,x17,80001734	  x6:0xf0546967 x17:0x00000001
       64785000	      6477	00000000	00000013	addi	x0,x0,0	  x0:0x00000000
       64795000	      6478	80001730	00000013	addi	x0,x0,0	  x0:0x00000000
       64805000	      6479	80001734	410802b3	sub	x5,x16,x16	 x16:0x00000003 x16:0x00000003  x5=0x00000000
       64815000	      6480	80001738	9ba11397	auipc	x7,0x9ba11	  x7=0x1ba12734
       64825000	      6481	8000173c	003cc263	blt	x25,x3,80001740	 x25:0x237f7b9c  x3:0x00000000
       64835000	      6482	80001740	006cde33	srl	x28,x25,x6	 x25:0x237f7b9c  x6:0xf0546967 x28=0x0046fef7
       64845000	      6483	80001744	4162da13	srai	x20,x5,0x16	  x5:0x00000000 x20=0x00000000
       64855000	      6484	80001748	17700493	addi	x9,x0,375	  x0:0x00000000  x9=0x00000177
       64865000	      6485	8000174c	00d4cb33	xor	x22,x9,x13	  x9:0x00000177 x13:0x00000000 x22=0x00000177
       64875000	      6486	80001750	f0784593	xori	x11,x16,-249	 x16:0x00000003 x11=0xffffff04
       64885000	      6487	80001754	00ea5b33	srl	x22,x20,x14	 x20:0x00000000 x14:0x80009fc4 x22=0x00000000
       64895000	      6488	80001758	41168533	sub	x10,x13,x17	 x13:0x00000000 x17:0x00000001 x10=0xffffffff
       64905000	      6489	8000175c	f27b7137	lui	x2,0xf27b7	  x2=0xf27b7000
       64915000	      6490	80001760	009f9233	sll	x4,x31,x9	 x31:0xfffffb5c  x9:0x00000177  x4=0xae000000
       64925000	      6491	80001764	adf40d93	addi	x27,x8,-1313	  x8:0x7fcec004 x27=0x7fcebae3
       64935000	      6492	80001768	003a5db3	srl	x27,x20,x3	 x20:0x00000000  x3:0x00000000 x27=0x00000000
       64945000	      6493	8000176c	0061de93	srli	x29,x3,0x6	  x3:0x00000000 x29=0x00000000
       64955000	      6494	80001770	0086d493	srli	x9,x13,0x8	 x13:0x00000000  x9=0x00000000
       64965000	      6495	80001774	01ad3933	sltu	x18,x26,x26	 x26:0x0000000b x26:0x0000000b x18=0x00000000
       64975000	      6496	80001778	a08212b7	lui	x5,0xa0821	  x5=0xa0821000
       64985000	      6497	8000177c	df91e297	auipc	x5,0xdf91e	  x5=0x5f91f778
       64995000	      6498	80001780	40450bb3	sub	x23,x10,x4	 x10:0xffffffff  x4:0xae000000 x23=0x51ffffff
       65005000	      6499	80001784	004fb4b3	sltu	x9,x31,x4	 x31:0xfffffb5c  x4:0xae000000  x9=0x00000000
       65015000	      6500	80001788	003427b3	slt	x15,x8,x3	  x8:0x7fcec004  x3:0x00000000 x15=0x00000000
       65025000	      6501	8000178c	00b1dc13	srli	x24,x3,0xb	  x3:0x00000000 x24=0x00000000
       65035000	      6502	80001790	01d39913	slli	x18,x7,0x1d	  x7:0x1ba12734 x18=0x80000000
       65045000	      6503	80001794	00545193	srli	x3,x8,0x5	  x8:0x7fcec004  x3=0x03fe7600
       65055000	      6504	80001798	00418e33	add	x28,x3,x4	  x3:0x03fe7600  x4:0xae000000 x28=0xb1fe7600
       65065000	      6505	8000179c	3ab5f613	andi	x12,x11,939	 x11:0xffffff04 x12=0x00000300
       65075000	      6506	800017a0	0044d113	srli	x2,x9,0x4	  x9:0x00000000  x2=0x00000000
       65085000	      6507	800017a4	0172ea63	bltu	x5,x23,800017b8	  x5:0x5f91f778 x23:0x51ffffff
       65095000	      6508	800017a8	040ac063	blt	x21,x0,800017e8	 x21:0x00000001  x0:0x00000000
       65105000	      6509	800017ac	003f62b3	or	x5,x30,x3	 x30:0x80009f34  x3:0x03fe7600  x5=0x83feff34
       65115000	      6510	800017b0	0006d4b3	srl	x9,x13,x0	 x13:0x00000000  x0:0x00000000  x9=0x00000000
       65125000	      6511	800017b4	7ecf8413	addi	x8,x31,2028	 x31:0xfffffb5c  x8=0x00000348
       65135000	      6512	800017b8	002db4b3	sltu	x9,x27,x2	 x27:0x00000000  x2:0x00000000  x9=0x00000000
       65145000	      6513	800017bc	c3037393	andi	x7,x6,-976	  x6:0xf0546967  x7=0xf0546820
       65155000	      6514	800017c0	013a6263	bltu	x20,x19,800017c4	 x20:0x00000000 x19:0x00000000
       65165000	      6515	800017c4	0037d1b3	srl	x3,x15,x3	 x15:0x00000000  x3:0x03fe7600  x3=0x00000000
       65175000	      6516	800017c8	9a0aa113	slti	x2,x21,-1632	 x21:0x00000001  x2=0x00000000
       65185000	      6517	800017cc	92b46793	ori	x15,x8,-1749	  x8:0x00000348 x15=0xfffffb6b
       65195000	      6518	800017d0	00cc0033	add	x0,x24,x12	 x24:0x00000000 x12:0x00000300
       65205000	      6519	800017d4	01e29d93	slli	x27,x5,0x1e	  x5:0x83feff34 x27=0x00000000
       65215000	      6520	800017d8	00d599b3	sll	x19,x11,x13	 x11:0xffffff04 x13:0x00000000 x19=0xffffff04
       65225000	      6521	800017dc	01102633	slt	x12,x0,x17	  x0:0x00000000 x17:0x00000001 x12=0x00000001
       65235000	      6522	800017e0	01247433	and	x8,x8,x18	  x8:0x00000348 x18:0x80000000  x8=0x00000000
       65245000	      6523	800017e4	1ee4c613	xori	x12,x9,494	  x9:0x00000000 x12=0x000001ee
       65255000	      6524	800017e8	01135cb3	srl	x25,x6,x17	  x6:0xf0546967 x17:0x00000001 x25=0x782a34b3
       65265000	      6525	800017ec	00b32333	slt	x6,x6,x11	  x6:0xf0546967 x11:0xffffff04  x6=0x00000001
       65275000	      6526	800017f0	00d84133	xor	x2,x16,x13	 x16:0x00000003 x13:0x00000000  x2=0x00000003
       65285000	      6527	800017f4	05e8f263	bgeu	x17,x30,80001838	 x17:0x00000001 x30:0x80009f34
       65295000	      6528	800017f8	55daef93	ori	x31,x21,1373	 x21:0x00000001 x31=0x0000055d
       65305000	      6529	800017fc	0093d813	srli	x16,x7,0x9	  x7:0xf0546820 x16=0x00782a34
       65315000	      6530	80001800	00530833	add	x16,x6,x5	  x6:0x00000001  x5:0x83feff34 x16=0x83feff35
       65325000	      6531	80001804	40d486b3	sub	x13,x9,x13	  x9:0x00000000 x13:0x00000000 x13=0x00000000
       65335000	      6532	80001808	884dc497	auipc	x9,0x884dc	  x9=0x084dd804
       65345000	      6533	8000180c	01228333	add	x6,x5,x18	  x5:0x83feff34 x18:0x80000000  x6=0x03feff34
       65355000	      6534	80001810	416d8133	sub	x2,x27,x22	 x27:0x00000000 x22:0x00000000  x2=0x00000000
       65365000	      6535	80001814	02260263	beq	x12,x2,80001838	 x12:0x000001ee  x2:0x00000000
       65375000	      6536	80001818	f9fb8093	addi	x1,x23,-97	 x23:0x51ffffff  x1=0x51ffff9e
       65385000	      6537	8000181c	043ef463	bgeu	x29,x3,80001864	 x29:0x00000000  x3:0x00000000
       65395000	      6538	00000000	00000013	addi	x0,x0,0	  x0:0x00000000
       65405000	      6539	80001860	00000013	addi	x0,x0,0	  x0:0x00000000
       65415000	      6540	80001864	054de263	bltu	x27,x20,800018a8	 x27:0x00000000 x20:0x00000000
       65425000	      6541	80001868	41a25213	srai	x4,x4,0x1a	  x4:0xae000000  x4=0xffffffeb
       65435000	      6542	8000186c	04a65463	bge	x12,x10,800018b4	 x12:0x000001ee x10:0xffffffff
       65445000	      6543	00000000	00000013	addi	x0,x0,0	  x0:0x00000000
       65455000	      6544	800018b0	00000013	addi	x0,x0,0	  x0:0x00000000
       65465000	      6545	800018b4	00b85e93	srli	x29,x16,0xb	 x16:0x83feff35 x29=0x00107fdf
       65475000	      6546	800018b8	53d30393	addi	x7,x6,1341	  x6:0x03feff34  x7=0x03ff0471
       65485000	      6547	800018bc	9d2b4e93	xori	x29,x22,-1582	 x22:0x00000000 x29=0xfffff9d2
       65495000	      6548	800018c0	014d5b33	srl	x22,x26,x20	 x26:0x0000000b x20:0x00000000 x22=0x0000000b
       65505000	      6549	800018c4	ef057e93	andi	x29,x10,-272	 x10:0xffffffff x29=0xfffffef0
       65515000	      6550	800018c8	0575d863	bge	x11,x23,80001918	 x11:0xffffff04 x23:0x51ffffff
       65525000	      6551	800018cc	00000013	addi	x0,x0,0	  x0:0x00000000
       65535000	      6552	800018d0	416bd133	sra	x2,x23,x22	 x23:0x51ffffff x22:0x0000000b  x2=0x000a3fff
       65545000	      6553	800018d4	00624463	blt	x4,x6,800018dc	  x4:0xffffffeb  x6:0x03feff34
       65555000	      6554	00000000	00000013	addi	x0,x0,0	  x0:0x00000000
       65565000	      6555	800018d8	00000013	addi	x0,x0,0	  x0:0x00000000
       65575000	      6556	800018dc	036f9263	bne	x31,x22,80001900	 x31:0x0000055d x22:0x0000000b
       65585000	      6557	00000000	00000013	addi	x0,x0,0	  x0:0x00000000
       65595000	      6558	800018fc	00000013	addi	x0,x0,0	  x0:0x00000000
       65605000	      6559	80001900	004af263	bgeu	x21,x4,80001904	 x21:0x00000001  x4:0xffffffeb
       65615000	      6560	80001904	48796e93	ori	x29,x18,1159	 x18:0x80000000 x29=0x80000487
       65625000	      6561	80001908	02a67263	bgeu	x12,x10,8000192c	 x12:0x000001ee x10:0xffffffff
       65635000	      6562	8000190c	00e528b3	slt	x17,x10,x14	 x10:0xffffffff x14:0x80009fc4 x17=0x00000000
       65645000	      6563	80001910	008a9793	slli	x15,x21,0x8	 x21:0x00000001 x15=0x00000100
       65655000	      6564	80001914	053b7463	bgeu	x22,x19,8000195c	 x22:0x0000000b x19:0xffffff04
       65665000	      6565	80001918	053fd863	bge	x31,x19,80001968	 x31:0x0000055d x19:0xffffff04
       65675000	      6566	00000000	00000013	addi	x0,x0,0	  x0:0x00000000
       65685000	      6567	80001964	00000013	addi	x0,x0,0	  x0:0x00000000
       65695000	      6568	80001968	407b00b3	sub	x1,x22,x7	 x22:0x0000000b  x7:0x03ff0471  x1=0xfc00fb9a
       65705000	      6569	8000196c	00043233	sltu	x4,x8,x0	  x8:0x00000000  x0:0x00000000  x4=0x00000000
       65715000	      6570	80001970	01b28cb3	add	x25,x5,x27	  x5:0x83feff34 x27:0x00000000 x25=0x83feff34
       65725000	      6571	80001974	9b5c3117	auipc	x2,0x9b5c3	  x2=0x1b5c4970
       65735000	      6572	80001978	01a19533	sll	x10,x3,x26	  x3:0x00000000 x26:0x0000000b x10=0x00000000
       65745000	      6573	8000197c	181fe393	ori	x7,x31,385	 x31:0x0000055d  x7=0x000005dd
       65755000	      6574	80001980	2f0a8993	addi	x19,x21,752	 x21:0x00000001 x19=0x000002f1
       65765000	      6575	80001984	00d0ba33	sltu	x20,x1,x13	  x1:0xfc00fb9a x13:0x00000000 x20=0x00000000
       65775000	      6576	80001988	03cd7463	bgeu	x26,x28,800019b0	 x26:0x0000000b x28:0xb1fe7600
       65785000	      6577	8000198c	00a39a93	slli	x21,x7,0xa	  x7:0x000005dd x21=0x00177400
       65795000	      6578	80001990	49febe13	sltiu	x28,x29,1183	 x29:0x80000487 x28=0x00000000
       65805000	      6579	80001994	651bfb93	andi	x23,x23,1617	 x23:0x51ffffff x23=0x00000651
       65815000	      6580	80001998	d8f48313	addi	x6,x9,-625	  x9:0x084dd804  x6=0x084dd593
       65825000	      6581	8000199c	016de633	or	x12,x27,x22	 x27:0x00000000 x22:0x0000000b x12=0x0000000b
       65835000	      6582	800019a0	d065b393	sltiu	x7,x11,-762	 x11:0xffffff04  x7=0x00000000
       65845000	      6583	800019a4	017d1313	slli	x6,x26,0x17	 x26:0x0000000b  x6=0x05800000
       65855000	      6584	800019a8	009c4463	blt	x24,x9,800019b0	 x24:0x00000000  x9:0x084dd804
       65865000	      6585	00000000	00000013	addi	x0,x0,0	  x0:0x00000000
       65875000	      6586	800019ac	00000013	addi	x0,x0,0	  x0:0x00000000
       65885000	      6587	800019b0	004ee2b3	or	x5,x29,x4	 x29:0x80000487  x4:0x00000000  x5=0x80000487
       65895000	      6588	800019b4	004f2583	lw	x11,4(x30)	 x30:0x80009f34 x11=0x80001a28 PA:0x80009f38
       65905000	      6589	800019b8	011093b3	sll	x7,x1,x17	  x1:0xfc00fb9a x17:0x00000000  x7=0xfc00fb9a
       65915000	      6590	800019bc	00ba5e13	srli	x28,x20,0xb	 x20:0x00000000 x28=0x00000000
       65925000	      6591	800019c0	006e9393	slli	x7,x29,0x6	 x29:0x80000487  x7=0x000121c0
       65935000	      6592	800019c4	4032d1b3	sra	x3,x5,x3	  x5:0x80000487  x3:0x00000000  x3=0x80000487
       65945000	      6593	800019c8	00000013	addi	x0,x0,0	  x0:0x00000000
       65955000	      6594	800019cc	01cf0f13	addi	x30,x30,28	 x30:0x80009f34 x30=0x80009f50
       65965000	      6595	800019d0	a100b393	sltiu	x7,x1,-1520	  x1:0xfc00fb9a  x7=0x00000001
       65975000	      6596	800019d4	94522793	slti	x15,x4,-1723	  x4:0x00000000 x15=0x00000000
       65985000	      6597	800019d8	00058113	addi	x2,x11,0	 x11:0x80001a28  x2=0x80001a28
       65995000	      6598	800019dc	00010167	jalr	x2,x2,0	  x2:0x80001a28  x2=0x800019dc
       66005000	      6599	00000000	00000013	addi	x0,x0,0	  x0:0x00000000
       66015000	      6600	80001a28	00000013	addi	x0,x0,0	  x0:0x00000000
       66025000	      6601	80001a2c	ff600e93	addi	x29,x0,-10	  x0:0x00000000 x29=0xfffffff6
       66035000	      6602	80001a30	009ef433	and	x8,x29,x9	 x29:0xfffffff6  x9:0x084dd804  x8=0x084dd804
       66045000	      6603	80001a34	00300c13	addi	x24,x0,3	  x0:0x00000000 x24=0x00000003
       66055000	      6604	80001a38	01c62933	slt	x18,x12,x28	 x12:0x0000000b x28:0x00000000 x18=0x00000000
       66065000	      6605	80001a3c	00521693	slli	x13,x4,0x5	  x4:0x00000000 x13=0x00000000
       66075000	      6606	80001a40	9ccf8a93	addi	x21,x31,-1588	 x31:0x0000055d x21=0xffffff29
       66085000	      6607	80001a44	0174a0b3	slt	x1,x9,x23	  x9:0x084dd804 x23:0x00000651  x1=0x00000000
       66095000	      6608	80001a48	ee8a8f93	addi	x31,x21,-280	 x21:0xffffff29 x31=0xfffffe11
       66105000	      6609	80001a4c	008e8e93	addi	x29,x29,8	 x29:0xfffffff6 x29=0xfffffffe
       66115000	      6610	80001a50	013363b3	or	x7,x6,x19	  x6:0x05800000 x19:0x000002f1  x7=0x058002f1
       66125000	      6611	80001a54	00800793	addi	x15,x0,8	  x0:0x00000000 x15=0x00000008
       66135000	      6612	80001a58	00c166b3	or	x13,x2,x12	  x2:0x800019dc x12:0x0000000b x13=0x800019df
       66145000	      6613	80001a5c	00100893	addi	x17,x0,1	  x0:0x00000000 x17=0x00000001
       66155000	      6614	80001a60	018cce33	xor	x28,x25,x24	 x25:0x83feff34 x24:0x00000003 x28=0x83feff37
       66165000	      6615	80001a64	7af40c97	auipc	x25,0x7af40	 x25=0xfaf41a60
       66175000	      6616	80001a68	ffa78793	addi	x15,x15,-6	 x15:0x00000008 x15=0x00000002
       66185000	      6617	80001a6c	00376fb3	or	x31,x14,x3	 x14:0x80009fc4  x3:0x80000487 x31=0x80009fc7
       66195000	      6618	80001a70	00a4f3b3	and	x7,x9,x10	  x9:0x084dd804 x10:0x00000000  x7=0x00000000
       66205000	      6619	80001a74	ff17d8e3	bge	x15,x17,80001a64	 x15:0x00000002 x17:0x00000001
       66215000	      6620	00000000	00000013	addi	x0,x0,0	  x0:0x00000000
       66225000	      6621	80001a60	00000013	addi	x0,x0,0	  x0:0x00000000
       66235000	      6622	80001a64	7af40c97	auipc	x25,0x7af40	 x25=0xfaf41a60
       66245000	      6623	80001a68	ffa78793	addi	x15,x15,-6	 x15:0x00000002 x15=0xfffffffc
       66255000	      6624	80001a6c	00376fb3	or	x31,x14,x3	 x14:0x80009fc4  x3:0x80000487 x31=0x80009fc7
       66265000	      6625	80001a70	00a4f3b3	and	x7,x9,x10	  x9:0x084dd804 x10:0x00000000  x7=0x00000000
       66275000	      6626	80001a74	ff17d8e3	bge	x15,x17,80001a64	 x15:0xfffffffc x17:0x00000001
       66285000	      6627	80001a78	01bc36b3	sltu	x13,x24,x27	 x24:0x00000003 x27:0x00000000 x13=0x00000000
       66295000	      6628	80001a7c	fd8ec2e3	blt	x29,x24,80001a40	 x29:0xfffffffe x24:0x00000003
       66305000	      6629	00000000	00000013	addi	x0,x0,0	  x0:0x00000000
       66315000	      6630	80001a3c	00000013	addi	x0,x0,0	  x0:0x00000000
       66325000	      6631	80001a40	9ccf8a93	addi	x21,x31,-1588	 x31:0x80009fc7 x21=0x80009993
       66335000	      6632	80001a44	0174a0b3	slt	x1,x9,x23	  x9:0x084dd804 x23:0x00000651  x1=0x00000000
       66345000	      6633	80001a48	ee8a8f93	addi	x31,x21,-280	 x21:0x80009993 x31=0x8000987b
       66355000	      6634	80001a4c	008e8e93	addi	x29,x29,8	 x29:0xfffffffe x29=0x00000006
       66365000	      6635	80001a50	013363b3	or	x7,x6,x19	  x6:0x05800000 x19:0x000002f1  x7=0x058002f1
       66375000	      6636	80001a54	00800793	addi	x15,x0,8	  x0:0x00000000 x15=0x00000008
       66385000	      6637	80001a58	00c166b3	or	x13,x2,x12	  x2:0x800019dc x12:0x0000000b x13=0x800019df
       66395000	      6638	80001a5c	00100893	addi	x17,x0,1	  x0:0x00000000 x17=0x00000001
       66405000	      6639	80001a60	018cce33	xor	x28,x25,x24	 x25:0xfaf41a60 x24:0x00000003 x28=0xfaf41a63
       66415000	      6640	80001a64	7af40c97	auipc	x25,0x7af40	 x25=0xfaf41a60
       66425000	      6641	80001a68	ffa78793	addi	x15,x15,-6	 x15:0x00000008 x15=0x00000002
       66435000	      6642	80001a6c	00376fb3	or	x31,x14,x3	 x14:0x80009fc4  x3:0x80000487 x31=0x80009fc7
       66445000	      6643	80001a70	00a4f3b3	and	x7,x9,x10	  x9:0x084dd804 x10:0x00000000  x7=0x00000000
       66455000	      6644	80001a74	ff17d8e3	bge	x15,x17,80001a64	 x15:0x00000002 x17:0x00000001
       66465000	      6645	00000000	00000013	addi	x0,x0,0	  x0:0x00000000
       66475000	      6646	80001a60	00000013	addi	x0,x0,0	  x0:0x00000000
       66485000	      6647	80001a64	7af40c97	auipc	x25,0x7af40	 x25=0xfaf41a60
       66495000	      6648	80001a68	ffa78793	addi	x15,x15,-6	 x15:0x00000002 x15=0xfffffffc
       66505000	      6649	80001a6c	00376fb3	or	x31,x14,x3	 x14:0x80009fc4  x3:0x80000487 x31=0x80009fc7
       66515000	      6650	80001a70	00a4f3b3	and	x7,x9,x10	  x9:0x084dd804 x10:0x00000000  x7=0x00000000
       66525000	      6651	80001a74	ff17d8e3	bge	x15,x17,80001a64	 x15:0xfffffffc x17:0x00000001
       66535000	      6652	80001a78	01bc36b3	sltu	x13,x24,x27	 x24:0x00000003 x27:0x00000000 x13=0x00000000
       66545000	      6653	80001a7c	fd8ec2e3	blt	x29,x24,80001a40	 x29:0x00000006 x24:0x00000003
       66555000	      6654	80001a80	00d16cb3	or	x25,x2,x13	  x2:0x800019dc x13:0x00000000 x25=0x800019dc
       66565000	      6655	80001a84	ffa00c93	addi	x25,x0,-6	  x0:0x00000000 x25=0xfffffffa
       66575000	      6656	80001a88	fee00413	addi	x8,x0,-18	  x0:0x00000000  x8=0xffffffee
       66585000	      6657	80001a8c	00a3ae33	slt	x28,x7,x10	  x7:0x00000000 x10:0x00000000 x28=0x00000000
       66595000	      6658	80001a90	00b5adb3	slt	x27,x11,x11	 x11:0x80001a28 x11:0x80001a28 x27=0x00000000
       66605000	      6659	80001a94	ffdc8c93	addi	x25,x25,-3	 x25:0xfffffffa x25=0xfffffff7
       66615000	      6660	80001a98	012136b3	sltu	x13,x2,x18	  x2:0x800019dc x18:0x00000000 x13=0x00000000
       66625000	      6661	80001a9c	00200b13	addi	x22,x0,2	  x0:0x00000000 x22=0x00000002
       66635000	      6662	80001aa0	fed00613	addi	x12,x0,-19	  x0:0x00000000 x12=0xffffffed
       66645000	      6663	80001aa4	0ac33c13	sltiu	x24,x6,172	  x6:0x05800000 x24=0x00000000
       66655000	      6664	80001aa8	018f27b3	slt	x15,x30,x24	 x30:0x80009f50 x24:0x00000000 x15=0x00000001
       66665000	      6665	80001aac	9c52b093	sltiu	x1,x5,-1595	  x5:0x80000487  x1=0x00000001
       66675000	      6666	80001ab0	ff6b0b13	addi	x22,x22,-10	 x22:0x00000002 x22=0xfffffff8
       66685000	      6667	80001ab4	014b5513	srli	x10,x22,0x14	 x22:0xfffffff8 x10=0x00000fff
       66695000	      6668	80001ab8	3dfd5a37	lui	x20,0x3dfd5	 x20=0x3dfd5000
       66705000	      6669	80001abc	fecb58e3	bge	x22,x12,80001aac	 x22:0xfffffff8 x12:0xffffffed
       66715000	      6670	00000000	00000013	addi	x0,x0,0	  x0:0x00000000
       66725000	      6671	80001aa8	00000013	addi	x0,x0,0	  x0:0x00000000
       66735000	      6672	80001aac	9c52b093	sltiu	x1,x5,-1595	  x5:0x80000487  x1=0x00000001
       66745000	      6673	80001ab0	ff6b0b13	addi	x22,x22,-10	 x22:0xfffffff8 x22=0xffffffee
       66755000	      6674	80001ab4	014b5513	srli	x10,x22,0x14	 x22:0xffffffee x10=0x00000fff
       66765000	      6675	80001ab8	3dfd5a37	lui	x20,0x3dfd5	 x20=0x3dfd5000
       66775000	      6676	80001abc	fecb58e3	bge	x22,x12,80001aac	 x22:0xffffffee x12:0xffffffed
       66785000	      6677	00000000	00000013	addi	x0,x0,0	  x0:0x00000000
       66795000	      6678	80001aa8	00000013	addi	x0,x0,0	  x0:0x00000000
       66805000	      6679	80001aac	9c52b093	sltiu	x1,x5,-1595	  x5:0x80000487  x1=0x00000001
       66815000	      6680	80001ab0	ff6b0b13	addi	x22,x22,-10	 x22:0xffffffee x22=0xffffffe4
       66825000	      6681	80001ab4	014b5513	srli	x10,x22,0x14	 x22:0xffffffe4 x10=0x00000fff
       66835000	      6682	80001ab8	3dfd5a37	lui	x20,0x3dfd5	 x20=0x3dfd5000
       66845000	      6683	80001abc	fecb58e3	bge	x22,x12,80001aac	 x22:0xffffffe4 x12:0xffffffed
       66855000	      6684	80001ac0	e9da4493	xori	x9,x20,-355	 x20:0x3dfd5000  x9=0xc202ae9d
       66865000	      6685	80001ac4	fc8c96e3	bne	x25,x8,80001a90	 x25:0xfffffff7  x8:0xffffffee
       66875000	      6686	00000000	00000013	addi	x0,x0,0	  x0:0x00000000
       66885000	      6687	80001a8c	00000013	addi	x0,x0,0	  x0:0x00000000
       66895000	      6688	80001a90	00b5adb3	slt	x27,x11,x11	 x11:0x80001a28 x11:0x80001a28 x27=0x00000000
       66905000	      6689	80001a94	ffdc8c93	addi	x25,x25,-3	 x25:0xfffffff7 x25=0xfffffff4
       66915000	      6690	80001a98	012136b3	sltu	x13,x2,x18	  x2:0x800019dc x18:0x00000000 x13=0x00000000
       66925000	      6691	80001a9c	00200b13	addi	x22,x0,2	  x0:0x00000000 x22=0x00000002
       66935000	      6692	80001aa0	fed00613	addi	x12,x0,-19	  x0:0x00000000 x12=0xffffffed
       66945000	      6693	80001aa4	0ac33c13	sltiu	x24,x6,172	  x6:0x05800000 x24=0x00000000
       66955000	      6694	80001aa8	018f27b3	slt	x15,x30,x24	 x30:0x80009f50 x24:0x00000000 x15=0x00000001
       66965000	      6695	80001aac	9c52b093	sltiu	x1,x5,-1595	  x5:0x80000487  x1=0x00000001
       66975000	      6696	80001ab0	ff6b0b13	addi	x22,x22,-10	 x22:0x00000002 x22=0xfffffff8
       66985000	      6697	80001ab4	014b5513	srli	x10,x22,0x14	 x22:0xfffffff8 x10=0x00000fff
       66995000	      6698	80001ab8	3dfd5a37	lui	x20,0x3dfd5	 x20=0x3dfd5000
       67005000	      6699	80001abc	fecb58e3	bge	x22,x12,80001aac	 x22:0xfffffff8 x12:0xffffffed
       67015000	      6700	00000000	00000013	addi	x0,x0,0	  x0:0x00000000
       67025000	      6701	80001aa8	00000013	addi	x0,x0,0	  x0:0x00000000
       67035000	      6702	80001aac	9c52b093	sltiu	x1,x5,-1595	  x5:0x80000487  x1=0x00000001
       67045000	      6703	80001ab0	ff6b0b13	addi	x22,x22,-10	 x22:0xfffffff8 x22=0xffffffee
       67055000	      6704	80001ab4	014b5513	srli	x10,x22,0x14	 x22:0xffffffee x10=0x00000fff
       67065000	      6705	80001ab8	3dfd5a37	lui	x20,0x3dfd5	 x20=0x3dfd5000
       67075000	      6706	80001abc	fecb58e3	bge	x22,x12,80001aac	 x22:0xffffffee x12:0xffffffed
       67085000	      6707	00000000	00000013	addi	x0,x0,0	  x0:0x00000000
       67095000	      6708	80001aa8	00000013	addi	x0,x0,0	  x0:0x00000000
       67105000	      6709	80001aac	9c52b093	sltiu	x1,x5,-1595	  x5:0x80000487  x1=0x00000001
       67115000	      6710	80001ab0	ff6b0b13	addi	x22,x22,-10	 x22:0xffffffee x22=0xffffffe4
       67125000	      6711	80001ab4	014b5513	srli	x10,x22,0x14	 x22:0xffffffe4 x10=0x00000fff
       67135000	      6712	80001ab8	3dfd5a37	lui	x20,0x3dfd5	 x20=0x3dfd5000
       67145000	      6713	80001abc	fecb58e3	bge	x22,x12,80001aac	 x22:0xffffffe4 x12:0xffffffed
       67155000	      6714	80001ac0	e9da4493	xori	x9,x20,-355	 x20:0x3dfd5000  x9=0xc202ae9d
       67165000	      6715	80001ac4	fc8c96e3	bne	x25,x8,80001a90	 x25:0xfffffff4  x8:0xffffffee
       67175000	      6716	00000000	00000013	addi	x0,x0,0	  x0:0x00000000
       67185000	      6717	80001a8c	00000013	addi	x0,x0,0	  x0:0x00000000
       67195000	      6718	80001a90	00b5adb3	slt	x27,x11,x11	 x11:0x80001a28 x11:0x80001a28 x27=0x00000000
       67205000	      6719	80001a94	ffdc8c93	addi	x25,x25,-3	 x25:0xfffffff4 x25=0xfffffff1
       67215000	      6720	80001a98	012136b3	sltu	x13,x2,x18	  x2:0x800019dc x18:0x00000000 x13=0x00000000
       67225000	      6721	80001a9c	00200b13	addi	x22,x0,2	  x0:0x00000000 x22=0x00000002
       67235000	      6722	80001aa0	fed00613	addi	x12,x0,-19	  x0:0x00000000 x12=0xffffffed
       67245000	      6723	80001aa4	0ac33c13	sltiu	x24,x6,172	  x6:0x05800000 x24=0x00000000
       67255000	      6724	80001aa8	018f27b3	slt	x15,x30,x24	 x30:0x80009f50 x24:0x00000000 x15=0x00000001
       67265000	      6725	80001aac	9c52b093	sltiu	x1,x5,-1595	  x5:0x80000487  x1=0x00000001
       67275000	      6726	80001ab0	ff6b0b13	addi	x22,x22,-10	 x22:0x00000002 x22=0xfffffff8
       67285000	      6727	80001ab4	014b5513	srli	x10,x22,0x14	 x22:0xfffffff8 x10=0x00000fff
       67295000	      6728	80001ab8	3dfd5a37	lui	x20,0x3dfd5	 x20=0x3dfd5000
       67305000	      6729	80001abc	fecb58e3	bge	x22,x12,80001aac	 x22:0xfffffff8 x12:0xffffffed
       67315000	      6730	00000000	00000013	addi	x0,x0,0	  x0:0x00000000
       67325000	      6731	80001aa8	00000013	addi	x0,x0,0	  x0:0x00000000
       67335000	      6732	80001aac	9c52b093	sltiu	x1,x5,-1595	  x5:0x80000487  x1=0x00000001
       67345000	      6733	80001ab0	ff6b0b13	addi	x22,x22,-10	 x22:0xfffffff8 x22=0xffffffee
       67355000	      6734	80001ab4	014b5513	srli	x10,x22,0x14	 x22:0xffffffee x10=0x00000fff
       67365000	      6735	80001ab8	3dfd5a37	lui	x20,0x3dfd5	 x20=0x3dfd5000
       67375000	      6736	80001abc	fecb58e3	bge	x22,x12,80001aac	 x22:0xffffffee x12:0xffffffed
       67385000	      6737	00000000	00000013	addi	x0,x0,0	  x0:0x00000000
       67395000	      6738	80001aa8	00000013	addi	x0,x0,0	  x0:0x00000000
       67405000	      6739	80001aac	9c52b093	sltiu	x1,x5,-1595	  x5:0x80000487  x1=0x00000001
       67415000	      6740	80001ab0	ff6b0b13	addi	x22,x22,-10	 x22:0xffffffee x22=0xffffffe4
       67425000	      6741	80001ab4	014b5513	srli	x10,x22,0x14	 x22:0xffffffe4 x10=0x00000fff
       67435000	      6742	80001ab8	3dfd5a37	lui	x20,0x3dfd5	 x20=0x3dfd5000
       67445000	      6743	80001abc	fecb58e3	bge	x22,x12,80001aac	 x22:0xffffffe4 x12:0xffffffed
       67455000	      6744	80001ac0	e9da4493	xori	x9,x20,-355	 x20:0x3dfd5000  x9=0xc202ae9d
       67465000	      6745	80001ac4	fc8c96e3	bne	x25,x8,80001a90	 x25:0xfffffff1  x8:0xffffffee
       67475000	      6746	00000000	00000013	addi	x0,x0,0	  x0:0x00000000
       67485000	      6747	80001a8c	00000013	addi	x0,x0,0	  x0:0x00000000
       67495000	      6748	80001a90	00b5adb3	slt	x27,x11,x11	 x11:0x80001a28 x11:0x80001a28 x27=0x00000000
       67505000	      6749	80001a94	ffdc8c93	addi	x25,x25,-3	 x25:0xfffffff1 x25=0xffffffee
       67515000	      6750	80001a98	012136b3	sltu	x13,x2,x18	  x2:0x800019dc x18:0x00000000 x13=0x00000000
       67525000	      6751	80001a9c	00200b13	addi	x22,x0,2	  x0:0x00000000 x22=0x00000002
       67535000	      6752	80001aa0	fed00613	addi	x12,x0,-19	  x0:0x00000000 x12=0xffffffed
       67545000	      6753	80001aa4	0ac33c13	sltiu	x24,x6,172	  x6:0x05800000 x24=0x00000000
       67555000	      6754	80001aa8	018f27b3	slt	x15,x30,x24	 x30:0x80009f50 x24:0x00000000 x15=0x00000001
       67565000	      6755	80001aac	9c52b093	sltiu	x1,x5,-1595	  x5:0x80000487  x1=0x00000001
       67575000	      6756	80001ab0	ff6b0b13	addi	x22,x22,-10	 x22:0x00000002 x22=0xfffffff8
       67585000	      6757	80001ab4	014b5513	srli	x10,x22,0x14	 x22:0xfffffff8 x10=0x00000fff
       67595000	      6758	80001ab8	3dfd5a37	lui	x20,0x3dfd5	 x20=0x3dfd5000
       67605000	      6759	80001abc	fecb58e3	bge	x22,x12,80001aac	 x22:0xfffffff8 x12:0xffffffed
       67615000	      6760	00000000	00000013	addi	x0,x0,0	  x0:0x00000000
       67625000	      6761	80001aa8	00000013	addi	x0,x0,0	  x0:0x00000000
       67635000	      6762	80001aac	9c52b093	sltiu	x1,x5,-1595	  x5:0x80000487  x1=0x00000001
       67645000	      6763	80001ab0	ff6b0b13	addi	x22,x22,-10	 x22:0xfffffff8 x22=0xffffffee
       67655000	      6764	80001ab4	014b5513	srli	x10,x22,0x14	 x22:0xffffffee x10=0x00000fff
       67665000	      6765	80001ab8	3dfd5a37	lui	x20,0x3dfd5	 x20=0x3dfd5000
       67675000	      6766	80001abc	fecb58e3	bge	x22,x12,80001aac	 x22:0xffffffee x12:0xffffffed
       67685000	      6767	00000000	00000013	addi	x0,x0,0	  x0:0x00000000
       67695000	      6768	80001aa8	00000013	addi	x0,x0,0	  x0:0x00000000
       67705000	      6769	80001aac	9c52b093	sltiu	x1,x5,-1595	  x5:0x80000487  x1=0x00000001
       67715000	      6770	80001ab0	ff6b0b13	addi	x22,x22,-10	 x22:0xffffffee x22=0xffffffe4
       67725000	      6771	80001ab4	014b5513	srli	x10,x22,0x14	 x22:0xffffffe4 x10=0x00000fff
       67735000	      6772	80001ab8	3dfd5a37	lui	x20,0x3dfd5	 x20=0x3dfd5000
       67745000	      6773	80001abc	fecb58e3	bge	x22,x12,80001aac	 x22:0xffffffe4 x12:0xffffffed
       67755000	      6774	80001ac0	e9da4493	xori	x9,x20,-355	 x20:0x3dfd5000  x9=0xc202ae9d
       67765000	      6775	80001ac4	fc8c96e3	bne	x25,x8,80001a90	 x25:0xffffffee  x8:0xffffffee
       67775000	      6776	80001ac8	417a5993	srai	x19,x20,0x17	 x20:0x3dfd5000 x19=0x0000007b
       67785000	      6777	80001acc	ff600b13	addi	x22,x0,-10	  x0:0x00000000 x22=0xfffffff6
       67795000	      6778	80001ad0	40a70c33	sub	x24,x14,x10	 x14:0x80009fc4 x10:0x00000fff x24=0x80008fc5
       67805000	      6779	80001ad4	40850db3	sub	x27,x10,x8	 x10:0x00000fff  x8:0xffffffee x27=0x00001011
       67815000	      6780	80001ad8	317bf937	lui	x18,0x317bf	 x18=0x317bf000
       67825000	      6781	80001adc	00a61893	slli	x17,x12,0xa	 x12:0xffffffed x17=0xffffb400
       67835000	      6782	80001ae0	0084ca33	xor	x20,x9,x8	  x9:0xc202ae9d  x8:0xffffffee x20=0x3dfd5173
       67845000	      6783	80001ae4	47b13893	sltiu	x17,x2,1147	  x2:0x800019dc x17=0x00000000
       67855000	      6784	80001ae8	00c00313	addi	x6,x0,12	  x0:0x00000000  x6=0x0000000c
       67865000	      6785	80001aec	014665b3	or	x11,x12,x20	 x12:0xffffffed x20:0x3dfd5173 x11=0xffffffff
       67875000	      6786	80001af0	417a5093	srai	x1,x20,0x17	 x20:0x3dfd5173  x1=0x0000007b
       67885000	      6787	80001af4	00c778b3	and	x17,x14,x12	 x14:0x80009fc4 x12:0xffffffed x17=0x80009fc4
       67895000	      6788	80001af8	0146f4b3	and	x9,x13,x20	 x13:0x00000000 x20:0x3dfd5173  x9=0x00000000
       67905000	      6789	80001afc	019faab3	slt	x21,x31,x25	 x31:0x80009fc7 x25:0xffffffee x21=0x00000001
       67915000	      6790	80001b00	00ab0b13	addi	x22,x22,10	 x22:0xfffffff6 x22=0x00000000
       67925000	      6791	80001b04	fff00f93	addi	x31,x0,-1	  x0:0x00000000 x31=0xffffffff
       67935000	      6792	80001b08	0001d193	srli	x3,x3,0x0	  x3:0x80000487  x3=0x80000487
       67945000	      6793	80001b0c	00a00e13	addi	x28,x0,10	  x0:0x00000000 x28=0x0000000a
       67955000	      6794	80001b10	00693533	sltu	x10,x18,x6	 x18:0x317bf000  x6:0x0000000c x10=0x00000000
       67965000	      6795	80001b14	00000013	addi	x0,x0,0	  x0:0x00000000
       67975000	      6796	80001b18	001f8f93	addi	x31,x31,1	 x31:0xffffffff x31=0x00000000
       67985000	      6797	80001b1c	41c98c33	sub	x24,x19,x28	 x19:0x0000007b x28:0x0000000a x24=0x00000071
       67995000	      6798	80001b20	ffcfeae3	bltu	x31,x28,80001b14	 x31:0x00000000 x28:0x0000000a
       68005000	      6799	00000000	00000013	addi	x0,x0,0	  x0:0x00000000
       68015000	      6800	80001b10	00000013	addi	x0,x0,0	  x0:0x00000000
       68025000	      6801	80001b14	00000013	addi	x0,x0,0	  x0:0x00000000
       68035000	      6802	80001b18	001f8f93	addi	x31,x31,1	 x31:0x00000000 x31=0x00000001
       68045000	      6803	80001b1c	41c98c33	sub	x24,x19,x28	 x19:0x0000007b x28:0x0000000a x24=0x00000071
       68055000	      6804	80001b20	ffcfeae3	bltu	x31,x28,80001b14	 x31:0x00000001 x28:0x0000000a
       68065000	      6805	00000000	00000013	addi	x0,x0,0	  x0:0x00000000
       68075000	      6806	80001b10	00000013	addi	x0,x0,0	  x0:0x00000000
       68085000	      6807	80001b14	00000013	addi	x0,x0,0	  x0:0x00000000
       68095000	      6808	80001b18	001f8f93	addi	x31,x31,1	 x31:0x00000001 x31=0x00000002
       68105000	      6809	80001b1c	41c98c33	sub	x24,x19,x28	 x19:0x0000007b x28:0x0000000a x24=0x00000071
       68115000	      6810	80001b20	ffcfeae3	bltu	x31,x28,80001b14	 x31:0x00000002 x28:0x0000000a
       68125000	      6811	00000000	00000013	addi	x0,x0,0	  x0:0x00000000
       68135000	      6812	80001b10	00000013	addi	x0,x0,0	  x0:0x00000000
       68145000	      6813	80001b14	00000013	addi	x0,x0,0	  x0:0x00000000
       68155000	      6814	80001b18	001f8f93	addi	x31,x31,1	 x31:0x00000002 x31=0x00000003
       68165000	      6815	80001b1c	41c98c33	sub	x24,x19,x28	 x19:0x0000007b x28:0x0000000a x24=0x00000071
       68175000	      6816	80001b20	ffcfeae3	bltu	x31,x28,80001b14	 x31:0x00000003 x28:0x0000000a
       68185000	      6817	00000000	00000013	addi	x0,x0,0	  x0:0x00000000
       68195000	      6818	80001b10	00000013	addi	x0,x0,0	  x0:0x00000000
       68205000	      6819	80001b14	00000013	addi	x0,x0,0	  x0:0x00000000
       68215000	      6820	80001b18	001f8f93	addi	x31,x31,1	 x31:0x00000003 x31=0x00000004
       68225000	      6821	80001b1c	41c98c33	sub	x24,x19,x28	 x19:0x0000007b x28:0x0000000a x24=0x00000071
       68235000	      6822	80001b20	ffcfeae3	bltu	x31,x28,80001b14	 x31:0x00000004 x28:0x0000000a
       68245000	      6823	00000000	00000013	addi	x0,x0,0	  x0:0x00000000
       68255000	      6824	80001b10	00000013	addi	x0,x0,0	  x0:0x00000000
       68265000	      6825	80001b14	00000013	addi	x0,x0,0	  x0:0x00000000
       68275000	      6826	80001b18	001f8f93	addi	x31,x31,1	 x31:0x00000004 x31=0x00000005
       68285000	      6827	80001b1c	41c98c33	sub	x24,x19,x28	 x19:0x0000007b x28:0x0000000a x24=0x00000071
       68295000	      6828	80001b20	ffcfeae3	bltu	x31,x28,80001b14	 x31:0x00000005 x28:0x0000000a
       68305000	      6829	00000000	00000013	addi	x0,x0,0	  x0:0x00000000
       68315000	      6830	80001b10	00000013	addi	x0,x0,0	  x0:0x00000000
       68325000	      6831	80001b14	00000013	addi	x0,x0,0	  x0:0x00000000
       68335000	      6832	80001b18	001f8f93	addi	x31,x31,1	 x31:0x00000005 x31=0x00000006
       68345000	      6833	80001b1c	41c98c33	sub	x24,x19,x28	 x19:0x0000007b x28:0x0000000a x24=0x00000071
       68355000	      6834	80001b20	ffcfeae3	bltu	x31,x28,80001b14	 x31:0x00000006 x28:0x0000000a
       68365000	      6835	00000000	00000013	addi	x0,x0,0	  x0:0x00000000
       68375000	      6836	80001b10	00000013	addi	x0,x0,0	  x0:0x00000000
       68385000	      6837	80001b14	00000013	addi	x0,x0,0	  x0:0x00000000
       68395000	      6838	80001b18	001f8f93	addi	x31,x31,1	 x31:0x00000006 x31=0x00000007
       68405000	      6839	80001b1c	41c98c33	sub	x24,x19,x28	 x19:0x0000007b x28:0x0000000a x24=0x00000071
       68415000	      6840	80001b20	ffcfeae3	bltu	x31,x28,80001b14	 x31:0x00000007 x28:0x0000000a
       68425000	      6841	00000000	00000013	addi	x0,x0,0	  x0:0x00000000
       68435000	      6842	80001b10	00000013	addi	x0,x0,0	  x0:0x00000000
       68445000	      6843	80001b14	00000013	addi	x0,x0,0	  x0:0x00000000
       68455000	      6844	80001b18	001f8f93	addi	x31,x31,1	 x31:0x00000007 x31=0x00000008
       68465000	      6845	80001b1c	41c98c33	sub	x24,x19,x28	 x19:0x0000007b x28:0x0000000a x24=0x00000071
       68475000	      6846	80001b20	ffcfeae3	bltu	x31,x28,80001b14	 x31:0x00000008 x28:0x0000000a
       68485000	      6847	00000000	00000013	addi	x0,x0,0	  x0:0x00000000
       68495000	      6848	80001b10	00000013	addi	x0,x0,0	  x0:0x00000000
       68505000	      6849	80001b14	00000013	addi	x0,x0,0	  x0:0x00000000
       68515000	      6850	80001b18	001f8f93	addi	x31,x31,1	 x31:0x00000008 x31=0x00000009
       68525000	      6851	80001b1c	41c98c33	sub	x24,x19,x28	 x19:0x0000007b x28:0x0000000a x24=0x00000071
       68535000	      6852	80001b20	ffcfeae3	bltu	x31,x28,80001b14	 x31:0x00000009 x28:0x0000000a
       68545000	      6853	00000000	00000013	addi	x0,x0,0	  x0:0x00000000
       68555000	      6854	80001b10	00000013	addi	x0,x0,0	  x0:0x00000000
       68565000	      6855	80001b14	00000013	addi	x0,x0,0	  x0:0x00000000
       68575000	      6856	80001b18	001f8f93	addi	x31,x31,1	 x31:0x00000009 x31=0x0000000a
       68585000	      6857	80001b1c	41c98c33	sub	x24,x19,x28	 x19:0x0000007b x28:0x0000000a x24=0x00000071
       68595000	      6858	80001b20	ffcfeae3	bltu	x31,x28,80001b14	 x31:0x0000000a x28:0x0000000a
       68605000	      6859	80001b24	7c81b013	sltiu	x0,x3,1992	  x3:0x80000487
       68615000	      6860	80001b28	967fb213	sltiu	x4,x31,-1689	 x31:0x0000000a  x4=0x00000001
       68625000	      6861	80001b2c	fc6b46e3	blt	x22,x6,80001af8	 x22:0x00000000  x6:0x0000000c
       68635000	      6862	00000000	00000013	addi	x0,x0,0	  x0:0x00000000
       68645000	      6863	80001af4	00000013	addi	x0,x0,0	  x0:0x00000000
       68655000	      6864	80001af8	0146f4b3	and	x9,x13,x20	 x13:0x00000000 x20:0x3dfd5173  x9=0x00000000
       68665000	      6865	80001afc	019faab3	slt	x21,x31,x25	 x31:0x0000000a x25:0xffffffee x21=0x00000000
       68675000	      6866	80001b00	00ab0b13	addi	x22,x22,10	 x22:0x00000000 x22=0x0000000a
       68685000	      6867	80001b04	fff00f93	addi	x31,x0,-1	  x0:0x00000000 x31=0xffffffff
       68695000	      6868	80001b08	0001d193	srli	x3,x3,0x0	  x3:0x80000487  x3=0x80000487
       68705000	      6869	80001b0c	00a00e13	addi	x28,x0,10	  x0:0x00000000 x28=0x0000000a
       68715000	      6870	80001b10	00693533	sltu	x10,x18,x6	 x18:0x317bf000  x6:0x0000000c x10=0x00000000
       68725000	      6871	80001b14	00000013	addi	x0,x0,0	  x0:0x00000000
       68735000	      6872	80001b18	001f8f93	addi	x31,x31,1	 x31:0xffffffff x31=0x00000000
       68745000	      6873	80001b1c	41c98c33	sub	x24,x19,x28	 x19:0x0000007b x28:0x0000000a x24=0x00000071
       68755000	      6874	80001b20	ffcfeae3	bltu	x31,x28,80001b14	 x31:0x00000000 x28:0x0000000a
       68765000	      6875	00000000	00000013	addi	x0,x0,0	  x0:0x00000000
       68775000	      6876	80001b10	00000013	addi	x0,x0,0	  x0:0x00000000
       68785000	      6877	80001b14	00000013	addi	x0,x0,0	  x0:0x00000000
       68795000	      6878	80001b18	001f8f93	addi	x31,x31,1	 x31:0x00000000 x31=0x00000001
       68805000	      6879	80001b1c	41c98c33	sub	x24,x19,x28	 x19:0x0000007b x28:0x0000000a x24=0x00000071
       68815000	      6880	80001b20	ffcfeae3	bltu	x31,x28,80001b14	 x31:0x00000001 x28:0x0000000a
       68825000	      6881	00000000	00000013	addi	x0,x0,0	  x0:0x00000000
       68835000	      6882	80001b10	00000013	addi	x0,x0,0	  x0:0x00000000
       68845000	      6883	80001b14	00000013	addi	x0,x0,0	  x0:0x00000000
       68855000	      6884	80001b18	001f8f93	addi	x31,x31,1	 x31:0x00000001 x31=0x00000002
       68865000	      6885	80001b1c	41c98c33	sub	x24,x19,x28	 x19:0x0000007b x28:0x0000000a x24=0x00000071
       68875000	      6886	80001b20	ffcfeae3	bltu	x31,x28,80001b14	 x31:0x00000002 x28:0x0000000a
       68885000	      6887	00000000	00000013	addi	x0,x0,0	  x0:0x00000000
       68895000	      6888	80001b10	00000013	addi	x0,x0,0	  x0:0x00000000
       68905000	      6889	80001b14	00000013	addi	x0,x0,0	  x0:0x00000000
       68915000	      6890	80001b18	001f8f93	addi	x31,x31,1	 x31:0x00000002 x31=0x00000003
       68925000	      6891	80001b1c	41c98c33	sub	x24,x19,x28	 x19:0x0000007b x28:0x0000000a x24=0x00000071
       68935000	      6892	80001b20	ffcfeae3	bltu	x31,x28,80001b14	 x31:0x00000003 x28:0x0000000a
       68945000	      6893	00000000	00000013	addi	x0,x0,0	  x0:0x00000000
       68955000	      6894	80001b10	00000013	addi	x0,x0,0	  x0:0x00000000
       68965000	      6895	80001b14	00000013	addi	x0,x0,0	  x0:0x00000000
       68975000	      6896	80001b18	001f8f93	addi	x31,x31,1	 x31:0x00000003 x31=0x00000004
       68985000	      6897	80001b1c	41c98c33	sub	x24,x19,x28	 x19:0x0000007b x28:0x0000000a x24=0x00000071
       68995000	      6898	80001b20	ffcfeae3	bltu	x31,x28,80001b14	 x31:0x00000004 x28:0x0000000a
       69005000	      6899	00000000	00000013	addi	x0,x0,0	  x0:0x00000000
       69015000	      6900	80001b10	00000013	addi	x0,x0,0	  x0:0x00000000
       69025000	      6901	80001b14	00000013	addi	x0,x0,0	  x0:0x00000000
       69035000	      6902	80001b18	001f8f93	addi	x31,x31,1	 x31:0x00000004 x31=0x00000005
       69045000	      6903	80001b1c	41c98c33	sub	x24,x19,x28	 x19:0x0000007b x28:0x0000000a x24=0x00000071
       69055000	      6904	80001b20	ffcfeae3	bltu	x31,x28,80001b14	 x31:0x00000005 x28:0x0000000a
       69065000	      6905	00000000	00000013	addi	x0,x0,0	  x0:0x00000000
       69075000	      6906	80001b10	00000013	addi	x0,x0,0	  x0:0x00000000
       69085000	      6907	80001b14	00000013	addi	x0,x0,0	  x0:0x00000000
       69095000	      6908	80001b18	001f8f93	addi	x31,x31,1	 x31:0x00000005 x31=0x00000006
       69105000	      6909	80001b1c	41c98c33	sub	x24,x19,x28	 x19:0x0000007b x28:0x0000000a x24=0x00000071
       69115000	      6910	80001b20	ffcfeae3	bltu	x31,x28,80001b14	 x31:0x00000006 x28:0x0000000a
       69125000	      6911	00000000	00000013	addi	x0,x0,0	  x0:0x00000000
       69135000	      6912	80001b10	00000013	addi	x0,x0,0	  x0:0x00000000
       69145000	      6913	80001b14	00000013	addi	x0,x0,0	  x0:0x00000000
       69155000	      6914	80001b18	001f8f93	addi	x31,x31,1	 x31:0x00000006 x31=0x00000007
       69165000	      6915	80001b1c	41c98c33	sub	x24,x19,x28	 x19:0x0000007b x28:0x0000000a x24=0x00000071
       69175000	      6916	80001b20	ffcfeae3	bltu	x31,x28,80001b14	 x31:0x00000007 x28:0x0000000a
       69185000	      6917	00000000	00000013	addi	x0,x0,0	  x0:0x00000000
       69195000	      6918	80001b10	00000013	addi	x0,x0,0	  x0:0x00000000
       69205000	      6919	80001b14	00000013	addi	x0,x0,0	  x0:0x00000000
       69215000	      6920	80001b18	001f8f93	addi	x31,x31,1	 x31:0x00000007 x31=0x00000008
       69225000	      6921	80001b1c	41c98c33	sub	x24,x19,x28	 x19:0x0000007b x28:0x0000000a x24=0x00000071
       69235000	      6922	80001b20	ffcfeae3	bltu	x31,x28,80001b14	 x31:0x00000008 x28:0x0000000a
       69245000	      6923	00000000	00000013	addi	x0,x0,0	  x0:0x00000000
       69255000	      6924	80001b10	00000013	addi	x0,x0,0	  x0:0x00000000
       69265000	      6925	80001b14	00000013	addi	x0,x0,0	  x0:0x00000000
       69275000	      6926	80001b18	001f8f93	addi	x31,x31,1	 x31:0x00000008 x31=0x00000009
       69285000	      6927	80001b1c	41c98c33	sub	x24,x19,x28	 x19:0x0000007b x28:0x0000000a x24=0x00000071
       69295000	      6928	80001b20	ffcfeae3	bltu	x31,x28,80001b14	 x31:0x00000009 x28:0x0000000a
       69305000	      6929	00000000	00000013	addi	x0,x0,0	  x0:0x00000000
       69315000	      6930	80001b10	00000013	addi	x0,x0,0	  x0:0x00000000
       69325000	      6931	80001b14	00000013	addi	x0,x0,0	  x0:0x00000000
       69335000	      6932	80001b18	001f8f93	addi	x31,x31,1	 x31:0x00000009 x31=0x0000000a
       69345000	      6933	80001b1c	41c98c33	sub	x24,x19,x28	 x19:0x0000007b x28:0x0000000a x24=0x00000071
       69355000	      6934	80001b20	ffcfeae3	bltu	x31,x28,80001b14	 x31:0x0000000a x28:0x0000000a
       69365000	      6935	80001b24	7c81b013	sltiu	x0,x3,1992	  x3:0x80000487
       69375000	      6936	80001b28	967fb213	sltiu	x4,x31,-1689	 x31:0x0000000a  x4=0x00000001
       69385000	      6937	80001b2c	fc6b46e3	blt	x22,x6,80001af8	 x22:0x0000000a  x6:0x0000000c
       69395000	      6938	00000000	00000013	addi	x0,x0,0	  x0:0x00000000
       69405000	      6939	80001af4	00000013	addi	x0,x0,0	  x0:0x00000000
       69415000	      6940	80001af8	0146f4b3	and	x9,x13,x20	 x13:0x00000000 x20:0x3dfd5173  x9=0x00000000
       69425000	      6941	80001afc	019faab3	slt	x21,x31,x25	 x31:0x0000000a x25:0xffffffee x21=0x00000000
       69435000	      6942	80001b00	00ab0b13	addi	x22,x22,10	 x22:0x0000000a x22=0x00000014
       69445000	      6943	80001b04	fff00f93	addi	x31,x0,-1	  x0:0x00000000 x31=0xffffffff
       69455000	      6944	80001b08	0001d193	srli	x3,x3,0x0	  x3:0x80000487  x3=0x80000487
       69465000	      6945	80001b0c	00a00e13	addi	x28,x0,10	  x0:0x00000000 x28=0x0000000a
       69475000	      6946	80001b10	00693533	sltu	x10,x18,x6	 x18:0x317bf000  x6:0x0000000c x10=0x00000000
       69485000	      6947	80001b14	00000013	addi	x0,x0,0	  x0:0x00000000
       69495000	      6948	80001b18	001f8f93	addi	x31,x31,1	 x31:0xffffffff x31=0x00000000
       69505000	      6949	80001b1c	41c98c33	sub	x24,x19,x28	 x19:0x0000007b x28:0x0000000a x24=0x00000071
       69515000	      6950	80001b20	ffcfeae3	bltu	x31,x28,80001b14	 x31:0x00000000 x28:0x0000000a
       69525000	      6951	00000000	00000013	addi	x0,x0,0	  x0:0x00000000
       69535000	      6952	80001b10	00000013	addi	x0,x0,0	  x0:0x00000000
       69545000	      6953	80001b14	00000013	addi	x0,x0,0	  x0:0x00000000
       69555000	      6954	80001b18	001f8f93	addi	x31,x31,1	 x31:0x00000000 x31=0x00000001
       69565000	      6955	80001b1c	41c98c33	sub	x24,x19,x28	 x19:0x0000007b x28:0x0000000a x24=0x00000071
       69575000	      6956	80001b20	ffcfeae3	bltu	x31,x28,80001b14	 x31:0x00000001 x28:0x0000000a
       69585000	      6957	00000000	00000013	addi	x0,x0,0	  x0:0x00000000
       69595000	      6958	80001b10	00000013	addi	x0,x0,0	  x0:0x00000000
       69605000	      6959	80001b14	00000013	addi	x0,x0,0	  x0:0x00000000
       69615000	      6960	80001b18	001f8f93	addi	x31,x31,1	 x31:0x00000001 x31=0x00000002
       69625000	      6961	80001b1c	41c98c33	sub	x24,x19,x28	 x19:0x0000007b x28:0x0000000a x24=0x00000071
       69635000	      6962	80001b20	ffcfeae3	bltu	x31,x28,80001b14	 x31:0x00000002 x28:0x0000000a
       69645000	      6963	00000000	00000013	addi	x0,x0,0	  x0:0x00000000
       69655000	      6964	80001b10	00000013	addi	x0,x0,0	  x0:0x00000000
       69665000	      6965	80001b14	00000013	addi	x0,x0,0	  x0:0x00000000
       69675000	      6966	80001b18	001f8f93	addi	x31,x31,1	 x31:0x00000002 x31=0x00000003
       69685000	      6967	80001b1c	41c98c33	sub	x24,x19,x28	 x19:0x0000007b x28:0x0000000a x24=0x00000071
       69695000	      6968	80001b20	ffcfeae3	bltu	x31,x28,80001b14	 x31:0x00000003 x28:0x0000000a
       69705000	      6969	00000000	00000013	addi	x0,x0,0	  x0:0x00000000
       69715000	      6970	80001b10	00000013	addi	x0,x0,0	  x0:0x00000000
       69725000	      6971	80001b14	00000013	addi	x0,x0,0	  x0:0x00000000
       69735000	      6972	80001b18	001f8f93	addi	x31,x31,1	 x31:0x00000003 x31=0x00000004
       69745000	      6973	80001b1c	41c98c33	sub	x24,x19,x28	 x19:0x0000007b x28:0x0000000a x24=0x00000071
       69755000	      6974	80001b20	ffcfeae3	bltu	x31,x28,80001b14	 x31:0x00000004 x28:0x0000000a
       69765000	      6975	00000000	00000013	addi	x0,x0,0	  x0:0x00000000
       69775000	      6976	80001b10	00000013	addi	x0,x0,0	  x0:0x00000000
       69785000	      6977	80001b14	00000013	addi	x0,x0,0	  x0:0x00000000
       69795000	      6978	80001b18	001f8f93	addi	x31,x31,1	 x31:0x00000004 x31=0x00000005
       69805000	      6979	80001b1c	41c98c33	sub	x24,x19,x28	 x19:0x0000007b x28:0x0000000a x24=0x00000071
       69815000	      6980	80001b20	ffcfeae3	bltu	x31,x28,80001b14	 x31:0x00000005 x28:0x0000000a
       69825000	      6981	00000000	00000013	addi	x0,x0,0	  x0:0x00000000
       69835000	      6982	80001b10	00000013	addi	x0,x0,0	  x0:0x00000000
       69845000	      6983	80001b14	00000013	addi	x0,x0,0	  x0:0x00000000
       69855000	      6984	80001b18	001f8f93	addi	x31,x31,1	 x31:0x00000005 x31=0x00000006
       69865000	      6985	80001b1c	41c98c33	sub	x24,x19,x28	 x19:0x0000007b x28:0x0000000a x24=0x00000071
       69875000	      6986	80001b20	ffcfeae3	bltu	x31,x28,80001b14	 x31:0x00000006 x28:0x0000000a
       69885000	      6987	00000000	00000013	addi	x0,x0,0	  x0:0x00000000
       69895000	      6988	80001b10	00000013	addi	x0,x0,0	  x0:0x00000000
       69905000	      6989	80001b14	00000013	addi	x0,x0,0	  x0:0x00000000
       69915000	      6990	80001b18	001f8f93	addi	x31,x31,1	 x31:0x00000006 x31=0x00000007
       69925000	      6991	80001b1c	41c98c33	sub	x24,x19,x28	 x19:0x0000007b x28:0x0000000a x24=0x00000071
       69935000	      6992	80001b20	ffcfeae3	bltu	x31,x28,80001b14	 x31:0x00000007 x28:0x0000000a
       69945000	      6993	00000000	00000013	addi	x0,x0,0	  x0:0x00000000
       69955000	      6994	80001b10	00000013	addi	x0,x0,0	  x0:0x00000000
       69965000	      6995	80001b14	00000013	addi	x0,x0,0	  x0:0x00000000
       69975000	      6996	80001b18	001f8f93	addi	x31,x31,1	 x31:0x00000007 x31=0x00000008
       69985000	      6997	80001b1c	41c98c33	sub	x24,x19,x28	 x19:0x0000007b x28:0x0000000a x24=0x00000071
       69995000	      6998	80001b20	ffcfeae3	bltu	x31,x28,80001b14	 x31:0x00000008 x28:0x0000000a
       70005000	      6999	00000000	00000013	addi	x0,x0,0	  x0:0x00000000
       70015000	      7000	80001b10	00000013	addi	x0,x0,0	  x0:0x00000000
       70025000	      7001	80001b14	00000013	addi	x0,x0,0	  x0:0x00000000
       70035000	      7002	80001b18	001f8f93	addi	x31,x31,1	 x31:0x00000008 x31=0x00000009
       70045000	      7003	80001b1c	41c98c33	sub	x24,x19,x28	 x19:0x0000007b x28:0x0000000a x24=0x00000071
       70055000	      7004	80001b20	ffcfeae3	bltu	x31,x28,80001b14	 x31:0x00000009 x28:0x0000000a
       70065000	      7005	00000000	00000013	addi	x0,x0,0	  x0:0x00000000
       70075000	      7006	80001b10	00000013	addi	x0,x0,0	  x0:0x00000000
       70085000	      7007	80001b14	00000013	addi	x0,x0,0	  x0:0x00000000
       70095000	      7008	80001b18	001f8f93	addi	x31,x31,1	 x31:0x00000009 x31=0x0000000a
       70105000	      7009	80001b1c	41c98c33	sub	x24,x19,x28	 x19:0x0000007b x28:0x0000000a x24=0x00000071
       70115000	      7010	80001b20	ffcfeae3	bltu	x31,x28,80001b14	 x31:0x0000000a x28:0x0000000a
       70125000	      7011	80001b24	7c81b013	sltiu	x0,x3,1992	  x3:0x80000487
       70135000	      7012	80001b28	967fb213	sltiu	x4,x31,-1689	 x31:0x0000000a  x4=0x00000001
       70145000	      7013	80001b2c	fc6b46e3	blt	x22,x6,80001af8	 x22:0x00000014  x6:0x0000000c
       70155000	      7014	80001b30	73262113	slti	x2,x12,1842	 x12:0xffffffed  x2=0x00000001
       70165000	      7015	80001b34	00400193	addi	x3,x0,4	  x0:0x00000000  x3=0x00000004
       70175000	      7016	80001b38	01100f93	addi	x31,x0,17	  x0:0x00000000 x31=0x00000011
       70185000	      7017	80001b3c	362f6413	ori	x8,x30,866	 x30:0x80009f50  x8=0x80009f72
       70195000	      7018	80001b40	013734b3	sltu	x9,x14,x19	 x14:0x80009fc4 x19:0x0000007b  x9=0x00000000
       70205000	      7019	80001b44	015e5513	srli	x10,x28,0x15	 x28:0x0000000a x10=0x00000000
       70215000	      7020	80001b48	01c81b33	sll	x22,x16,x28	 x16:0x83feff35 x28:0x0000000a x22=0xfbfcd400
       70225000	      7021	80001b4c	6a15f693	andi	x13,x11,1697	 x11:0xffffffff x13=0x000006a1
       70235000	      7022	80001b50	84a46d93	ori	x27,x8,-1974	  x8:0x80009f72 x27=0xffffff7a
       70245000	      7023	80001b54	734bf0b7	lui	x1,0x734bf	  x1=0x734bf000
       70255000	      7024	80001b58	01a1b933	sltu	x18,x3,x26	  x3:0x00000004 x26:0x0000000b x18=0x00000001
       70265000	      7025	80001b5c	01e92ab3	slt	x21,x18,x30	 x18:0x00000001 x30:0x80009f50 x21=0x00000000
       70275000	      7026	80001b60	4064d913	srai	x18,x9,0x6	  x9:0x00000000 x18=0x00000000
       70285000	      7027	80001b64	f2e87213	andi	x4,x16,-210	 x16:0x83feff35  x4=0x83feff24
       70295000	      7028	80001b68	db150e93	addi	x29,x10,-591	 x10:0x00000000 x29=0xfffffdb1
       70305000	      7029	80001b6c	00718193	addi	x3,x3,7	  x3:0x00000004  x3=0x0000000b
       70315000	      7030	80001b70	01c44833	xor	x16,x8,x28	  x8:0x80009f72 x28:0x0000000a x16=0x80009f78
       70325000	      7031	80001b74	4367c013	xori	x0,x15,1078	 x15:0x00000001
       70335000	      7032	80001b78	937deb37	lui	x22,0x937de	 x22=0x937de000
       70345000	      7033	80001b7c	400b5c13	srai	x24,x22,0x0	 x22:0x937de000 x24=0x937de000
       70355000	      7034	80001b80	00000013	addi	x0,x0,0	  x0:0x00000000
       70365000	      7035	80001b84	9a434b17	auipc	x22,0x9a434	 x22=0x1a435b80
       70375000	      7036	80001b88	fbf1cce3	blt	x3,x31,80001b40	  x3:0x0000000b x31:0x00000011
       70385000	      7037	00000000	00000013	addi	x0,x0,0	  x0:0x00000000
       70395000	      7038	80001b3c	00000013	addi	x0,x0,0	  x0:0x00000000
       70405000	      7039	80001b40	013734b3	sltu	x9,x14,x19	 x14:0x80009fc4 x19:0x0000007b  x9=0x00000000
       70415000	      7040	80001b44	015e5513	srli	x10,x28,0x15	 x28:0x0000000a x10=0x00000000
       70425000	      7041	80001b48	01c81b33	sll	x22,x16,x28	 x16:0x80009f78 x28:0x0000000a x22=0x027de000
       70435000	      7042	80001b4c	6a15f693	andi	x13,x11,1697	 x11:0xffffffff x13=0x000006a1
       70445000	      7043	80001b50	84a46d93	ori	x27,x8,-1974	  x8:0x80009f72 x27=0xffffff7a
       70455000	      7044	80001b54	734bf0b7	lui	x1,0x734bf	  x1=0x734bf000
       70465000	      7045	80001b58	01a1b933	sltu	x18,x3,x26	  x3:0x0000000b x26:0x0000000b x18=0x00000000
       70475000	      7046	80001b5c	01e92ab3	slt	x21,x18,x30	 x18:0x00000000 x30:0x80009f50 x21=0x00000000
       70485000	      7047	80001b60	4064d913	srai	x18,x9,0x6	  x9:0x00000000 x18=0x00000000
       70495000	      7048	80001b64	f2e87213	andi	x4,x16,-210	 x16:0x80009f78  x4=0x80009f28
       70505000	      7049	80001b68	db150e93	addi	x29,x10,-591	 x10:0x00000000 x29=0xfffffdb1
       70515000	      7050	80001b6c	00718193	addi	x3,x3,7	  x3:0x0000000b  x3=0x00000012
       70525000	      7051	80001b70	01c44833	xor	x16,x8,x28	  x8:0x80009f72 x28:0x0000000a x16=0x80009f78
       70535000	      7052	80001b74	4367c013	xori	x0,x15,1078	 x15:0x00000001
       70545000	      7053	80001b78	937deb37	lui	x22,0x937de	 x22=0x937de000
       70555000	      7054	80001b7c	400b5c13	srai	x24,x22,0x0	 x22:0x937de000 x24=0x937de000
       70565000	      7055	80001b80	00000013	addi	x0,x0,0	  x0:0x00000000
       70575000	      7056	80001b84	9a434b17	auipc	x22,0x9a434	 x22=0x1a435b80
       70585000	      7057	80001b88	fbf1cce3	blt	x3,x31,80001b40	  x3:0x00000012 x31:0x00000011
       70595000	      7058	80001b8c	b8144993	xori	x19,x8,-1151	  x8:0x80009f72 x19=0x7fff64f3
       70605000	      7059	80001b90	ff600b93	addi	x23,x0,-10	  x0:0x00000000 x23=0xfffffff6
       70615000	      7060	80001b94	ffe00993	addi	x19,x0,-2	  x0:0x00000000 x19=0xfffffffe
       70625000	      7061	80001b98	80218113	addi	x2,x3,-2046	  x3:0x00000012  x2=0xfffff814
       70635000	      7062	80001b9c	52d74d93	xori	x27,x14,1325	 x14:0x80009fc4 x27=0x80009ae9
       70645000	      7063	80001ba0	2271c813	xori	x16,x3,551	  x3:0x00000012 x16=0x00000235
       70655000	      7064	80001ba4	1093a893	slti	x17,x7,265	  x7:0x00000000 x17=0x00000001
       70665000	      7065	80001ba8	dbff7893	andi	x17,x30,-577	 x30:0x80009f50 x17=0x80009d10
       70675000	      7066	80001bac	001b8b93	addi	x23,x23,1	 x23:0xfffffff6 x23=0xfffffff7
       70685000	      7067	80001bb0	ffb00793	addi	x15,x0,-5	  x0:0x00000000 x15=0xfffffffb
       70695000	      7068	80001bb4	00000013	addi	x0,x0,0	  x0:0x00000000
       70705000	      7069	80001bb8	01f1c5b3	xor	x11,x3,x31	  x3:0x00000012 x31:0x00000011 x11=0x00000003
       70715000	      7070	80001bbc	00d00513	addi	x10,x0,13	  x0:0x00000000 x10=0x0000000d
       70725000	      7071	80001bc0	58bfae13	slti	x28,x31,1419	 x31:0x00000011 x28=0x00000001
       70735000	      7072	80001bc4	00278793	addi	x15,x15,2	 x15:0xfffffffb x15=0xfffffffd
       70745000	      7073	80001bc8	00860b33	add	x22,x12,x8	 x12:0xffffffed  x8:0x80009f72 x22=0x80009f5f
       70755000	      7074	80001bcc	fea7eae3	bltu	x15,x10,80001bc0	 x15:0xfffffffd x10:0x0000000d
       70765000	      7075	80001bd0	daf0ba93	sltiu	x21,x1,-593	  x1:0x734bf000 x21=0x00000001
       70775000	      7076	80001bd4	fd3b94e3	bne	x23,x19,80001b9c	 x23:0xfffffff7 x19:0xfffffffe
       70785000	      7077	00000000	00000013	addi	x0,x0,0	  x0:0x00000000
       70795000	      7078	80001b98	00000013	addi	x0,x0,0	  x0:0x00000000
       70805000	      7079	80001b9c	52d74d93	xori	x27,x14,1325	 x14:0x80009fc4 x27=0x80009ae9
       70815000	      7080	80001ba0	2271c813	xori	x16,x3,551	  x3:0x00000012 x16=0x00000235
       70825000	      7081	80001ba4	1093a893	slti	x17,x7,265	  x7:0x00000000 x17=0x00000001
       70835000	      7082	80001ba8	dbff7893	andi	x17,x30,-577	 x30:0x80009f50 x17=0x80009d10
       70845000	      7083	80001bac	001b8b93	addi	x23,x23,1	 x23:0xfffffff7 x23=0xfffffff8
       70855000	      7084	80001bb0	ffb00793	addi	x15,x0,-5	  x0:0x00000000 x15=0xfffffffb
       70865000	      7085	80001bb4	00000013	addi	x0,x0,0	  x0:0x00000000
       70875000	      7086	80001bb8	01f1c5b3	xor	x11,x3,x31	  x3:0x00000012 x31:0x00000011 x11=0x00000003
       70885000	      7087	80001bbc	00d00513	addi	x10,x0,13	  x0:0x00000000 x10=0x0000000d
       70895000	      7088	80001bc0	58bfae13	slti	x28,x31,1419	 x31:0x00000011 x28=0x00000001
       70905000	      7089	80001bc4	00278793	addi	x15,x15,2	 x15:0xfffffffb x15=0xfffffffd
       70915000	      7090	80001bc8	00860b33	add	x22,x12,x8	 x12:0xffffffed  x8:0x80009f72 x22=0x80009f5f
       70925000	      7091	80001bcc	fea7eae3	bltu	x15,x10,80001bc0	 x15:0xfffffffd x10:0x0000000d
       70935000	      7092	80001bd0	daf0ba93	sltiu	x21,x1,-593	  x1:0x734bf000 x21=0x00000001
       70945000	      7093	80001bd4	fd3b94e3	bne	x23,x19,80001b9c	 x23:0xfffffff8 x19:0xfffffffe
       70955000	      7094	00000000	00000013	addi	x0,x0,0	  x0:0x00000000
       70965000	      7095	80001b98	00000013	addi	x0,x0,0	  x0:0x00000000
       70975000	      7096	80001b9c	52d74d93	xori	x27,x14,1325	 x14:0x80009fc4 x27=0x80009ae9
       70985000	      7097	80001ba0	2271c813	xori	x16,x3,551	  x3:0x00000012 x16=0x00000235
       70995000	      7098	80001ba4	1093a893	slti	x17,x7,265	  x7:0x00000000 x17=0x00000001
       71005000	      7099	80001ba8	dbff7893	andi	x17,x30,-577	 x30:0x80009f50 x17=0x80009d10
       71015000	      7100	80001bac	001b8b93	addi	x23,x23,1	 x23:0xfffffff8 x23=0xfffffff9
       71025000	      7101	80001bb0	ffb00793	addi	x15,x0,-5	  x0:0x00000000 x15=0xfffffffb
       71035000	      7102	80001bb4	00000013	addi	x0,x0,0	  x0:0x00000000
       71045000	      7103	80001bb8	01f1c5b3	xor	x11,x3,x31	  x3:0x00000012 x31:0x00000011 x11=0x00000003
       71055000	      7104	80001bbc	00d00513	addi	x10,x0,13	  x0:0x00000000 x10=0x0000000d
       71065000	      7105	80001bc0	58bfae13	slti	x28,x31,1419	 x31:0x00000011 x28=0x00000001
       71075000	      7106	80001bc4	00278793	addi	x15,x15,2	 x15:0xfffffffb x15=0xfffffffd
       71085000	      7107	80001bc8	00860b33	add	x22,x12,x8	 x12:0xffffffed  x8:0x80009f72 x22=0x80009f5f
       71095000	      7108	80001bcc	fea7eae3	bltu	x15,x10,80001bc0	 x15:0xfffffffd x10:0x0000000d
       71105000	      7109	80001bd0	daf0ba93	sltiu	x21,x1,-593	  x1:0x734bf000 x21=0x00000001
       71115000	      7110	80001bd4	fd3b94e3	bne	x23,x19,80001b9c	 x23:0xfffffff9 x19:0xfffffffe
       71125000	      7111	00000000	00000013	addi	x0,x0,0	  x0:0x00000000
       71135000	      7112	80001b98	00000013	addi	x0,x0,0	  x0:0x00000000
       71145000	      7113	80001b9c	52d74d93	xori	x27,x14,1325	 x14:0x80009fc4 x27=0x80009ae9
       71155000	      7114	80001ba0	2271c813	xori	x16,x3,551	  x3:0x00000012 x16=0x00000235
       71165000	      7115	80001ba4	1093a893	slti	x17,x7,265	  x7:0x00000000 x17=0x00000001
       71175000	      7116	80001ba8	dbff7893	andi	x17,x30,-577	 x30:0x80009f50 x17=0x80009d10
       71185000	      7117	80001bac	001b8b93	addi	x23,x23,1	 x23:0xfffffff9 x23=0xfffffffa
       71195000	      7118	80001bb0	ffb00793	addi	x15,x0,-5	  x0:0x00000000 x15=0xfffffffb
       71205000	      7119	80001bb4	00000013	addi	x0,x0,0	  x0:0x00000000
       71215000	      7120	80001bb8	01f1c5b3	xor	x11,x3,x31	  x3:0x00000012 x31:0x00000011 x11=0x00000003
       71225000	      7121	80001bbc	00d00513	addi	x10,x0,13	  x0:0x00000000 x10=0x0000000d
       71235000	      7122	80001bc0	58bfae13	slti	x28,x31,1419	 x31:0x00000011 x28=0x00000001
       71245000	      7123	80001bc4	00278793	addi	x15,x15,2	 x15:0xfffffffb x15=0xfffffffd
       71255000	      7124	80001bc8	00860b33	add	x22,x12,x8	 x12:0xffffffed  x8:0x80009f72 x22=0x80009f5f
       71265000	      7125	80001bcc	fea7eae3	bltu	x15,x10,80001bc0	 x15:0xfffffffd x10:0x0000000d
       71275000	      7126	80001bd0	daf0ba93	sltiu	x21,x1,-593	  x1:0x734bf000 x21=0x00000001
       71285000	      7127	80001bd4	fd3b94e3	bne	x23,x19,80001b9c	 x23:0xfffffffa x19:0xfffffffe
       71295000	      7128	00000000	00000013	addi	x0,x0,0	  x0:0x00000000
       71305000	      7129	80001b98	00000013	addi	x0,x0,0	  x0:0x00000000
       71315000	      7130	80001b9c	52d74d93	xori	x27,x14,1325	 x14:0x80009fc4 x27=0x80009ae9
       71325000	      7131	80001ba0	2271c813	xori	x16,x3,551	  x3:0x00000012 x16=0x00000235
       71335000	      7132	80001ba4	1093a893	slti	x17,x7,265	  x7:0x00000000 x17=0x00000001
       71345000	      7133	80001ba8	dbff7893	andi	x17,x30,-577	 x30:0x80009f50 x17=0x80009d10
       71355000	      7134	80001bac	001b8b93	addi	x23,x23,1	 x23:0xfffffffa x23=0xfffffffb
       71365000	      7135	80001bb0	ffb00793	addi	x15,x0,-5	  x0:0x00000000 x15=0xfffffffb
       71375000	      7136	80001bb4	00000013	addi	x0,x0,0	  x0:0x00000000
       71385000	      7137	80001bb8	01f1c5b3	xor	x11,x3,x31	  x3:0x00000012 x31:0x00000011 x11=0x00000003
       71395000	      7138	80001bbc	00d00513	addi	x10,x0,13	  x0:0x00000000 x10=0x0000000d
       71405000	      7139	80001bc0	58bfae13	slti	x28,x31,1419	 x31:0x00000011 x28=0x00000001
       71415000	      7140	80001bc4	00278793	addi	x15,x15,2	 x15:0xfffffffb x15=0xfffffffd
       71425000	      7141	80001bc8	00860b33	add	x22,x12,x8	 x12:0xffffffed  x8:0x80009f72 x22=0x80009f5f
       71435000	      7142	80001bcc	fea7eae3	bltu	x15,x10,80001bc0	 x15:0xfffffffd x10:0x0000000d
       71445000	      7143	80001bd0	daf0ba93	sltiu	x21,x1,-593	  x1:0x734bf000 x21=0x00000001
       71455000	      7144	80001bd4	fd3b94e3	bne	x23,x19,80001b9c	 x23:0xfffffffb x19:0xfffffffe
       71465000	      7145	00000000	00000013	addi	x0,x0,0	  x0:0x00000000
       71475000	      7146	80001b98	00000013	addi	x0,x0,0	  x0:0x00000000
       71485000	      7147	80001b9c	52d74d93	xori	x27,x14,1325	 x14:0x80009fc4 x27=0x80009ae9
       71495000	      7148	80001ba0	2271c813	xori	x16,x3,551	  x3:0x00000012 x16=0x00000235
       71505000	      7149	80001ba4	1093a893	slti	x17,x7,265	  x7:0x00000000 x17=0x00000001
       71515000	      7150	80001ba8	dbff7893	andi	x17,x30,-577	 x30:0x80009f50 x17=0x80009d10
       71525000	      7151	80001bac	001b8b93	addi	x23,x23,1	 x23:0xfffffffb x23=0xfffffffc
       71535000	      7152	80001bb0	ffb00793	addi	x15,x0,-5	  x0:0x00000000 x15=0xfffffffb
       71545000	      7153	80001bb4	00000013	addi	x0,x0,0	  x0:0x00000000
       71555000	      7154	80001bb8	01f1c5b3	xor	x11,x3,x31	  x3:0x00000012 x31:0x00000011 x11=0x00000003
       71565000	      7155	80001bbc	00d00513	addi	x10,x0,13	  x0:0x00000000 x10=0x0000000d
       71575000	      7156	80001bc0	58bfae13	slti	x28,x31,1419	 x31:0x00000011 x28=0x00000001
       71585000	      7157	80001bc4	00278793	addi	x15,x15,2	 x15:0xfffffffb x15=0xfffffffd
       71595000	      7158	80001bc8	00860b33	add	x22,x12,x8	 x12:0xffffffed  x8:0x80009f72 x22=0x80009f5f
       71605000	      7159	80001bcc	fea7eae3	bltu	x15,x10,80001bc0	 x15:0xfffffffd x10:0x0000000d
       71615000	      7160	80001bd0	daf0ba93	sltiu	x21,x1,-593	  x1:0x734bf000 x21=0x00000001
       71625000	      7161	80001bd4	fd3b94e3	bne	x23,x19,80001b9c	 x23:0xfffffffc x19:0xfffffffe
       71635000	      7162	00000000	00000013	addi	x0,x0,0	  x0:0x00000000
       71645000	      7163	80001b98	00000013	addi	x0,x0,0	  x0:0x00000000
       71655000	      7164	80001b9c	52d74d93	xori	x27,x14,1325	 x14:0x80009fc4 x27=0x80009ae9
       71665000	      7165	80001ba0	2271c813	xori	x16,x3,551	  x3:0x00000012 x16=0x00000235
       71675000	      7166	80001ba4	1093a893	slti	x17,x7,265	  x7:0x00000000 x17=0x00000001
       71685000	      7167	80001ba8	dbff7893	andi	x17,x30,-577	 x30:0x80009f50 x17=0x80009d10
       71695000	      7168	80001bac	001b8b93	addi	x23,x23,1	 x23:0xfffffffc x23=0xfffffffd
       71705000	      7169	80001bb0	ffb00793	addi	x15,x0,-5	  x0:0x00000000 x15=0xfffffffb
       71715000	      7170	80001bb4	00000013	addi	x0,x0,0	  x0:0x00000000
       71725000	      7171	80001bb8	01f1c5b3	xor	x11,x3,x31	  x3:0x00000012 x31:0x00000011 x11=0x00000003
       71735000	      7172	80001bbc	00d00513	addi	x10,x0,13	  x0:0x00000000 x10=0x0000000d
       71745000	      7173	80001bc0	58bfae13	slti	x28,x31,1419	 x31:0x00000011 x28=0x00000001
       71755000	      7174	80001bc4	00278793	addi	x15,x15,2	 x15:0xfffffffb x15=0xfffffffd
       71765000	      7175	80001bc8	00860b33	add	x22,x12,x8	 x12:0xffffffed  x8:0x80009f72 x22=0x80009f5f
       71775000	      7176	80001bcc	fea7eae3	bltu	x15,x10,80001bc0	 x15:0xfffffffd x10:0x0000000d
       71785000	      7177	80001bd0	daf0ba93	sltiu	x21,x1,-593	  x1:0x734bf000 x21=0x00000001
       71795000	      7178	80001bd4	fd3b94e3	bne	x23,x19,80001b9c	 x23:0xfffffffd x19:0xfffffffe
       71805000	      7179	00000000	00000013	addi	x0,x0,0	  x0:0x00000000
       71815000	      7180	80001b98	00000013	addi	x0,x0,0	  x0:0x00000000
       71825000	      7181	80001b9c	52d74d93	xori	x27,x14,1325	 x14:0x80009fc4 x27=0x80009ae9
       71835000	      7182	80001ba0	2271c813	xori	x16,x3,551	  x3:0x00000012 x16=0x00000235
       71845000	      7183	80001ba4	1093a893	slti	x17,x7,265	  x7:0x00000000 x17=0x00000001
       71855000	      7184	80001ba8	dbff7893	andi	x17,x30,-577	 x30:0x80009f50 x17=0x80009d10
       71865000	      7185	80001bac	001b8b93	addi	x23,x23,1	 x23:0xfffffffd x23=0xfffffffe
       71875000	      7186	80001bb0	ffb00793	addi	x15,x0,-5	  x0:0x00000000 x15=0xfffffffb
       71885000	      7187	80001bb4	00000013	addi	x0,x0,0	  x0:0x00000000
       71895000	      7188	80001bb8	01f1c5b3	xor	x11,x3,x31	  x3:0x00000012 x31:0x00000011 x11=0x00000003
       71905000	      7189	80001bbc	00d00513	addi	x10,x0,13	  x0:0x00000000 x10=0x0000000d
       71915000	      7190	80001bc0	58bfae13	slti	x28,x31,1419	 x31:0x00000011 x28=0x00000001
       71925000	      7191	80001bc4	00278793	addi	x15,x15,2	 x15:0xfffffffb x15=0xfffffffd
       71935000	      7192	80001bc8	00860b33	add	x22,x12,x8	 x12:0xffffffed  x8:0x80009f72 x22=0x80009f5f
       71945000	      7193	80001bcc	fea7eae3	bltu	x15,x10,80001bc0	 x15:0xfffffffd x10:0x0000000d
       71955000	      7194	80001bd0	daf0ba93	sltiu	x21,x1,-593	  x1:0x734bf000 x21=0x00000001
       71965000	      7195	80001bd4	fd3b94e3	bne	x23,x19,80001b9c	 x23:0xfffffffe x19:0xfffffffe
       71975000	      7196	80001bd8	014c4db3	xor	x27,x24,x20	 x24:0x937de000 x20:0x3dfd5173 x27=0xae80b173
       71985000	      7197	80001bdc	00700613	addi	x12,x0,7	  x0:0x00000000 x12=0x00000007
       71995000	      7198	80001be0	00f00c93	addi	x25,x0,15	  x0:0x00000000 x25=0x0000000f
       72005000	      7199	80001be4	41bad693	srai	x13,x21,0x1b	 x21:0x00000001 x13=0x00000000
       72015000	      7200	80001be8	0032d6b3	srl	x13,x5,x3	  x5:0x80000487  x3:0x00000012 x13=0x00002000
       72025000	      7201	80001bec	7ac20513	addi	x10,x4,1964	  x4:0x80009f28 x10=0x8000a6d4
       72035000	      7202	80001bf0	9211c593	xori	x11,x3,-1759	  x3:0x00000012 x11=0xfffff933
       72045000	      7203	80001bf4	7d93e993	ori	x19,x7,2009	  x7:0x00000000 x19=0x000007d9
       72055000	      7204	80001bf8	f337a393	slti	x7,x15,-205	 x15:0xfffffffd  x7=0x00000000
       72065000	      7205	80001bfc	01084433	xor	x8,x16,x16	 x16:0x00000235 x16:0x00000235  x8=0x00000000
       72075000	      7206	80001c00	17a5bd93	sltiu	x27,x11,378	 x11:0xfffff933 x27=0x00000000
       72085000	      7207	80001c04	00260613	addi	x12,x12,2	 x12:0x00000007 x12=0x00000009
       72095000	      7208	80001c08	00900a13	addi	x20,x0,9	  x0:0x00000000 x20=0x00000009
       72105000	      7209	80001c0c	00081793	slli	x15,x16,0x0	 x16:0x00000235 x15=0x00000235
       72115000	      7210	80001c10	00800213	addi	x4,x0,8	  x0:0x00000000  x4=0x00000008
       72125000	      7211	80001c14	01e5a333	slt	x6,x11,x30	 x11:0xfffff933 x30:0x80009f50  x6=0x00000000
       72135000	      7212	80001c18	ffda0a13	addi	x20,x20,-3	 x20:0x00000009 x20=0x00000006
       72145000	      7213	80001c1c	00d5f5b3	and	x11,x11,x13	 x11:0xfffff933 x13:0x00002000 x11=0x00002000
       72155000	      7214	80001c20	550a3113	sltiu	x2,x20,1360	 x20:0x00000006  x2=0x00000001
       72165000	      7215	80001c24	41a95b33	sra	x22,x18,x26	 x18:0x00000000 x26:0x0000000b x22=0x00000000
       72175000	      7216	80001c28	d4654e93	xori	x29,x10,-698	 x10:0x8000a6d4 x29=0x7fff5b92
       72185000	      7217	80001c2c	fe4a74e3	bgeu	x20,x4,80001c14	 x20:0x00000006  x4:0x00000008
       72195000	      7218	80001c30	fd9606e3	beq	x12,x25,80001bfc	 x12:0x00000009 x25:0x0000000f
       72205000	      7219	80001c34	4178d913	srai	x18,x17,0x17	 x17:0x80009d10 x18=0xffffff00
       72215000	      7220	80001c38	ffe00413	addi	x8,x0,-2	  x0:0x00000000  x8=0xfffffffe
       72225000	      7221	80001c3c	011c30b3	sltu	x1,x24,x17	 x24:0x937de000 x17:0x80009d10  x1=0x00000000
       72235000	      7222	80001c40	0038b333	sltu	x6,x17,x3	 x17:0x80009d10  x3:0x00000012  x6=0x00000000
       72245000	      7223	80001c44	575d0b93	addi	x23,x26,1397	 x26:0x0000000b x23=0x00000580
       72255000	      7224	80001c48	01ef62b3	or	x5,x30,x30	 x30:0x80009f50 x30:0x80009f50  x5=0x80009f50
       72265000	      7225	80001c4c	00dc5933	srl	x18,x24,x13	 x24:0x937de000 x13:0x00002000 x18=0x937de000
       72275000	      7226	80001c50	0087b133	sltu	x2,x15,x8	 x15:0x00000235  x8:0xfffffffe  x2=0x00000001
       72285000	      7227	80001c54	00600613	addi	x12,x0,6	  x0:0x00000000 x12=0x00000006
       72295000	      7228	80001c58	4120deb3	sra	x29,x1,x18	  x1:0x00000000 x18:0x937de000 x29=0x00000000
       72305000	      7229	80001c5c	7c0aa593	slti	x11,x21,1984	 x21:0x00000001 x11=0x00000001
       72315000	      7230	80001c60	000b0233	add	x4,x22,x0	 x22:0x00000000  x0:0x00000000  x4=0x00000000
       72325000	      7231	80001c64	0000d1b3	srl	x3,x1,x0	  x1:0x00000000  x0:0x00000000  x3=0x00000000
       72335000	      7232	80001c68	6e4ae537	lui	x10,0x6e4ae	 x10=0x6e4ae000
       72345000	      7233	80001c6c	008ca033	slt	x0,x25,x8	 x25:0x0000000f  x8:0xfffffffe
       72355000	      7234	80001c70	000f04b3	add	x9,x30,x0	 x30:0x80009f50  x0:0x00000000  x9=0x80009f50
       72365000	      7235	80001c74	009cd913	srli	x18,x25,0x9	 x25:0x0000000f x18=0x00000000
       72375000	      7236	80001c78	00000013	addi	x0,x0,0	  x0:0x00000000
       72385000	      7237	80001c7c	e3cd0d93	addi	x27,x26,-452	 x26:0x0000000b x27=0xfffffe47
       72395000	      7238	80001c80	00440413	addi	x8,x8,4	  x8:0xfffffffe  x8=0x00000002
       72405000	      7239	80001c84	970bab37	lui	x22,0x970ba	 x22=0x970ba000
       72415000	      7240	80001c88	019c11b3	sll	x3,x24,x25	 x24:0x937de000 x25:0x0000000f  x3=0xf0000000
       72425000	      7241	80001c8c	155f5897	auipc	x17,0x155f5	 x17=0x955f6c88
       72435000	      7242	80001c90	00afb7b3	sltu	x15,x31,x10	 x31:0x00000011 x10:0x6e4ae000 x15=0x00000001
       72445000	      7243	80001c94	fcc40ae3	beq	x8,x12,80001c68	  x8:0x00000002 x12:0x00000006
       72455000	      7244	80001c98	0010bcb3	sltu	x25,x1,x1	  x1:0x00000000  x1:0x00000000 x25=0x00000000
       72465000	      7245	80001c9c	00800913	addi	x18,x0,8	  x0:0x00000000 x18=0x00000008
       72475000	      7246	80001ca0	00c4c0b3	xor	x1,x9,x12	  x9:0x80009f50 x12:0x00000006  x1=0x80009f56
       72485000	      7247	80001ca4	000e5233	srl	x4,x28,x0	 x28:0x00000001  x0:0x00000000  x4=0x00000001
       72495000	      7248	80001ca8	40e05e33	sra	x28,x0,x14	  x0:0x00000000 x14:0x80009fc4 x28=0x00000000
       72505000	      7249	80001cac	01d3e9b3	or	x19,x7,x29	  x7:0x00000000 x29:0x00000000 x19=0x00000000
       72515000	      7250	80001cb0	00d17b13	andi	x22,x2,13	  x2:0x00000001 x22=0x00000001
       72525000	      7251	80001cb4	23f74993	xori	x19,x14,575	 x14:0x80009fc4 x19=0x80009dfb
       72535000	      7252	80001cb8	0138a533	slt	x10,x17,x19	 x17:0x955f6c88 x19:0x80009dfb x10=0x00000000
       72545000	      7253	80001cbc	414e2e93	slti	x29,x28,1044	 x28:0x00000000 x29=0x00000001
       72555000	      7254	80001cc0	003da233	slt	x4,x27,x3	 x27:0xfffffe47  x3:0xf0000000  x4=0x00000000
       72565000	      7255	80001cc4	5ea3c393	xori	x7,x7,1514	  x7:0x00000000  x7=0x000005ea
       72575000	      7256	80001cc8	01100b93	addi	x23,x0,17	  x0:0x00000000 x23=0x00000011
       72585000	      7257	80001ccc	0089e2b3	or	x5,x19,x8	 x19:0x80009dfb  x8:0x00000002  x5=0x80009dfb
       72595000	      7258	80001cd0	010da3b3	slt	x7,x27,x16	 x27:0xfffffe47 x16:0x00000235  x7=0x00000001
       72605000	      7259	80001cd4	00c1c7b3	xor	x15,x3,x12	  x3:0xf0000000 x12:0x00000006 x15=0xf0000006
       72615000	      7260	80001cd8	00990913	addi	x18,x18,9	 x18:0x00000008 x18=0x00000011
       72625000	      7261	80001cdc	60787213	andi	x4,x16,1543	 x16:0x00000235  x4=0x00000205
       72635000	      7262	80001ce0	4110d1b3	sra	x3,x1,x17	  x1:0x80009f56 x17:0x955f6c88  x3=0xff80009f
       72645000	      7263	80001ce4	008f1093	slli	x1,x30,0x8	 x30:0x80009f50  x1=0x009f5000
       72655000	      7264	80001ce8	018fe1b3	or	x3,x31,x24	 x31:0x00000011 x24:0x937de000  x3=0x937de011
       72665000	      7265	80001cec	01b9a133	slt	x2,x19,x27	 x19:0x80009dfb x27:0xfffffe47  x2=0x00000001
       72675000	      7266	80001cf0	ff7900e3	beq	x18,x23,80001cd0	 x18:0x00000011 x23:0x00000011
       72685000	      7267	00000000	00000013	addi	x0,x0,0	  x0:0x00000000
       72695000	      7268	80001ccc	00000013	addi	x0,x0,0	  x0:0x00000000
       72705000	      7269	80001cd0	010da3b3	slt	x7,x27,x16	 x27:0xfffffe47 x16:0x00000235  x7=0x00000001
       72715000	      7270	80001cd4	00c1c7b3	xor	x15,x3,x12	  x3:0x937de011 x12:0x00000006 x15=0x937de017
       72725000	      7271	80001cd8	00990913	addi	x18,x18,9	 x18:0x00000011 x18=0x0000001a
       72735000	      7272	80001cdc	60787213	andi	x4,x16,1543	 x16:0x00000235  x4=0x00000205
       72745000	      7273	80001ce0	4110d1b3	sra	x3,x1,x17	  x1:0x009f5000 x17:0x955f6c88  x3=0x00009f50
       72755000	      7274	80001ce4	008f1093	slli	x1,x30,0x8	 x30:0x80009f50  x1=0x009f5000
       72765000	      7275	80001ce8	018fe1b3	or	x3,x31,x24	 x31:0x00000011 x24:0x937de000  x3=0x937de011
       72775000	      7276	80001cec	01b9a133	slt	x2,x19,x27	 x19:0x80009dfb x27:0xfffffe47  x2=0x00000001
       72785000	      7277	80001cf0	ff7900e3	beq	x18,x23,80001cd0	 x18:0x0000001a x23:0x00000011
       72795000	      7278	80001cf4	15c8c797	auipc	x15,0x15c8c	 x15=0x95c8dcf0
       72805000	      7279	80001cf8	00000413	addi	x8,x0,0	  x0:0x00000000  x8=0x00000000
       72815000	      7280	80001cfc	38b6ec93	ori	x25,x13,907	 x13:0x00002000 x25=0x0000238b
       72825000	      7281	80001d00	4fa2f393	andi	x7,x5,1274	  x5:0x80009dfb  x7=0x000004fa
       72835000	      7282	80001d04	1d44fa13	andi	x20,x9,468	  x9:0x80009f50 x20=0x00000150
       72845000	      7283	80001d08	ff900f93	addi	x31,x0,-7	  x0:0x00000000 x31=0xfffffff9
       72855000	      7284	80001d0c	40e98bb3	sub	x23,x19,x14	 x19:0x80009dfb x14:0x80009fc4 x23=0xfffffe37
       72865000	      7285	80001d10	bebe1a37	lui	x20,0xbebe1	 x20=0xbebe1000
       72875000	      7286	80001d14	4737c393	xori	x7,x15,1139	 x15:0x95c8dcf0  x7=0x95c8d883
       72885000	      7287	80001d18	ff940413	addi	x8,x8,-7	  x8:0x00000000  x8=0xfffffff9
       72895000	      7288	80001d1c	6f25bc37	lui	x24,0x6f25b	 x24=0x6f25b000
       72905000	      7289	80001d20	9d164393	xori	x7,x12,-1583	 x12:0x00000006  x7=0xfffff9d7
       72915000	      7290	80001d24	7b12b893	sltiu	x17,x5,1969	  x5:0x80009dfb x17=0x00000000
       72925000	      7291	80001d28	00795533	srl	x10,x18,x7	 x18:0x0000001a  x7:0xfffff9d7 x10=0x00000000
       72935000	      7292	80001d2c	48622393	slti	x7,x4,1158	  x4:0x00000205  x7=0x00000001
       72945000	      7293	80001d30	01ca3a33	sltu	x20,x20,x28	 x20:0xbebe1000 x28:0x00000000 x20=0x00000000
       72955000	      7294	80001d34	013fa0b3	slt	x1,x31,x19	 x31:0xfffffff9 x19:0x80009dfb  x1=0x00000000
       72965000	      7295	80001d38	00000013	addi	x0,x0,0	  x0:0x00000000
       72975000	      7296	80001d3c	6de53613	sltiu	x12,x10,1758	 x10:0x00000000 x12=0x00000001
       72985000	      7297	80001d40	401ed793	srai	x15,x29,0x1	 x29:0x00000001 x15=0x00000000
       72995000	      7298	80001d44	4935da17	auipc	x20,0x4935d	 x20=0xc935ed40
       73005000	      7299	80001d48	00bb31b3	sltu	x3,x22,x11	 x22:0x00000001 x11:0x00000001  x3=0x00000000
       73015000	      7300	80001d4c	6f9fad93	slti	x27,x31,1785	 x31:0xfffffff9 x27=0x00000001
       73025000	      7301	80001d50	fdf400e3	beq	x8,x31,80001d10	  x8:0xfffffff9 x31:0xfffffff9
       73035000	      7302	00000000	00000013	addi	x0,x0,0	  x0:0x00000000
       73045000	      7303	80001d0c	00000013	addi	x0,x0,0	  x0:0x00000000
       73055000	      7304	80001d10	bebe1a37	lui	x20,0xbebe1	 x20=0xbebe1000
       73065000	      7305	80001d14	4737c393	xori	x7,x15,1139	 x15:0x00000000  x7=0x00000473
       73075000	      7306	80001d18	ff940413	addi	x8,x8,-7	  x8:0xfffffff9  x8=0xfffffff2
       73085000	      7307	80001d1c	6f25bc37	lui	x24,0x6f25b	 x24=0x6f25b000
       73095000	      7308	80001d20	9d164393	xori	x7,x12,-1583	 x12:0x00000001  x7=0xfffff9d0
       73105000	      7309	80001d24	7b12b893	sltiu	x17,x5,1969	  x5:0x80009dfb x17=0x00000000
       73115000	      7310	80001d28	00795533	srl	x10,x18,x7	 x18:0x0000001a  x7:0xfffff9d0 x10=0x00000000
       73125000	      7311	80001d2c	48622393	slti	x7,x4,1158	  x4:0x00000205  x7=0x00000001
       73135000	      7312	80001d30	01ca3a33	sltu	x20,x20,x28	 x20:0xbebe1000 x28:0x00000000 x20=0x00000000
       73145000	      7313	80001d34	013fa0b3	slt	x1,x31,x19	 x31:0xfffffff9 x19:0x80009dfb  x1=0x00000000
       73155000	      7314	80001d38	00000013	addi	x0,x0,0	  x0:0x00000000
       73165000	      7315	80001d3c	6de53613	sltiu	x12,x10,1758	 x10:0x00000000 x12=0x00000001
       73175000	      7316	80001d40	401ed793	srai	x15,x29,0x1	 x29:0x00000001 x15=0x00000000
       73185000	      7317	80001d44	4935da17	auipc	x20,0x4935d	 x20=0xc935ed40
       73195000	      7318	80001d48	00bb31b3	sltu	x3,x22,x11	 x22:0x00000001 x11:0x00000001  x3=0x00000000
       73205000	      7319	80001d4c	6f9fad93	slti	x27,x31,1785	 x31:0xfffffff9 x27=0x00000001
       73215000	      7320	80001d50	fdf400e3	beq	x8,x31,80001d10	  x8:0xfffffff2 x31:0xfffffff9
       73225000	      7321	80001d54	3ef1b013	sltiu	x0,x3,1007	  x3:0x00000000
       73235000	      7322	80001d58	00000813	addi	x16,x0,0	  x0:0x00000000 x16=0x00000000
       73245000	      7323	80001d5c	40415393	srai	x7,x2,0x4	  x2:0x00000001  x7=0x00000000
       73255000	      7324	80001d60	2d688e93	addi	x29,x17,726	 x17:0x00000000 x29=0x000002d6
       73265000	      7325	80001d64	ac810793	addi	x15,x2,-1336	  x2:0x00000001 x15=0xfffffac9
       73275000	      7326	80001d68	0135f8b3	and	x17,x11,x19	 x11:0x00000001 x19:0x80009dfb x17=0x00000001
       73285000	      7327	80001d6c	00f81bb3	sll	x23,x16,x15	 x16:0x00000000 x15:0xfffffac9 x23=0x00000000
       73295000	      7328	80001d70	01d82a33	slt	x20,x16,x29	 x16:0x00000000 x29:0x000002d6 x20=0x00000001
       73305000	      7329	80001d74	c6bdc913	xori	x18,x27,-917	 x27:0x00000001 x18=0xfffffc6a
       73315000	      7330	80001d78	00800693	addi	x13,x0,8	  x0:0x00000000 x13=0x00000008
       73325000	      7331	80001d7c	b8622397	auipc	x7,0xb8622	  x7=0x38623d78
       73335000	      7332	80001d80	0141d913	srli	x18,x3,0x14	  x3:0x00000000 x18=0x00000000
       73345000	      7333	80001d84	003cb7b3	sltu	x15,x25,x3	 x25:0x0000238b  x3:0x00000000 x15=0x00000000
       73355000	      7334	80001d88	01bc30b3	sltu	x1,x24,x27	 x24:0x6f25b000 x27:0x00000001  x1=0x00000000
       73365000	      7335	80001d8c	01c1bdb3	sltu	x27,x3,x28	  x3:0x00000000 x28:0x00000000 x27=0x00000000
       73375000	      7336	80001d90	00a80813	addi	x16,x16,10	 x16:0x00000000 x16=0x0000000a
       73385000	      7337	80001d94	638197b7	lui	x15,0x63819	 x15=0x63819000
       73395000	      7338	80001d98	4ef98393	addi	x7,x19,1263	 x19:0x80009dfb  x7=0x8000a2ea
       73405000	      7339	80001d9c	a460b093	sltiu	x1,x1,-1466	  x1:0x00000000  x1=0x00000001
       73415000	      7340	80001da0	fed864e3	bltu	x16,x13,80001d88	 x16:0x0000000a x13:0x00000008
       73425000	      7341	80001da4	009997b3	sll	x15,x19,x9	 x19:0x80009dfb  x9:0x80009f50 x15=0x9dfb0000
       73435000	      7342	80001da8	00300f93	addi	x31,x0,3	  x0:0x00000000 x31=0x00000003
       73445000	      7343	80001dac	ff900313	addi	x6,x0,-7	  x0:0x00000000  x6=0xfffffff9
       73455000	      7344	80001db0	5c2299b7	lui	x19,0x5c229	 x19=0x5c229000
       73465000	      7345	80001db4	004158b3	srl	x17,x2,x4	  x2:0x00000001  x4:0x00000205 x17=0x00000000
       73475000	      7346	80001db8	bf326113	ori	x2,x4,-1037	  x4:0x00000205  x2=0xfffffbf7
       73485000	      7347	80001dbc	ffbf8f93	addi	x31,x31,-5	 x31:0x00000003 x31=0xfffffffe
       73495000	      7348	80001dc0	00a00e93	addi	x29,x0,10	  x0:0x00000000 x29=0x0000000a
       73505000	      7349	80001dc4	00d8f133	and	x2,x17,x13	 x17:0x00000000 x13:0x00000008  x2=0x00000000
       73515000	      7350	80001dc8	00a00513	addi	x10,x0,10	  x0:0x00000000 x10=0x0000000a
       73525000	      7351	80001dcc	0031abb3	slt	x23,x3,x3	  x3:0x00000000  x3:0x00000000 x23=0x00000000
       73535000	      7352	80001dd0	408004b3	sub	x9,x0,x8	  x0:0x00000000  x8:0xfffffff2  x9=0x0000000e
       73545000	      7353	80001dd4	008badb3	slt	x27,x23,x8	 x23:0x00000000  x8:0xfffffff2 x27=0x00000000
       73555000	      7354	80001dd8	ffbe8e93	addi	x29,x29,-5	 x29:0x0000000a x29=0x00000005
       73565000	      7355	80001ddc	feaef8e3	bgeu	x29,x10,80001dcc	 x29:0x00000005 x10:0x0000000a
       73575000	      7356	80001de0	00264c33	xor	x24,x12,x2	 x12:0x00000001  x2:0x00000000 x24=0x00000001
       73585000	      7357	80001de4	fc6f86e3	beq	x31,x6,80001db0	 x31:0xfffffffe  x6:0xfffffff9
       73595000	      7358	80001de8	92524893	xori	x17,x4,-1755	  x4:0x00000205 x17=0xfffffb20
       73605000	      7359	80001dec	00500913	addi	x18,x0,5	  x0:0x00000000 x18=0x00000005
       73615000	      7360	80001df0	01dfc533	xor	x10,x31,x29	 x31:0xfffffffe x29:0x00000005 x10=0xfffffffb
       73625000	      7361	80001df4	00f00213	addi	x4,x0,15	  x0:0x00000000  x4=0x0000000f
       73635000	      7362	80001df8	b978e693	ori	x13,x17,-1129	 x17:0xfffffb20 x13=0xfffffbb7
       73645000	      7363	80001dfc	007982b3	add	x5,x19,x7	 x19:0x5c229000  x7:0x8000a2ea  x5=0xdc2332ea
       73655000	      7364	80001e00	cdd22093	slti	x1,x4,-803	  x4:0x0000000f  x1=0x00000000
       73665000	      7365	80001e04	00000013	addi	x0,x0,0	  x0:0x00000000
       73675000	      7366	80001e08	d4097113	andi	x2,x18,-704	 x18:0x00000005  x2=0x00000000
       73685000	      7367	80001e0c	01fe5db3	srl	x27,x28,x31	 x28:0x00000000 x31:0xfffffffe x27=0x00000000
       73695000	      7368	80001e10	95445fb7	lui	x31,0x95445	 x31=0x95445000
       73705000	      7369	80001e14	404d5433	sra	x8,x26,x4	 x26:0x0000000b  x4:0x0000000f  x8=0x00000000
       73715000	      7370	80001e18	01b25893	srli	x17,x4,0x1b	  x4:0x0000000f x17=0x00000000
       73725000	      7371	80001e1c	aac5ae93	slti	x29,x11,-1364	 x11:0x00000001 x29=0x00000000
       73735000	      7372	80001e20	00890913	addi	x18,x18,8	 x18:0x00000005 x18=0x0000000d
       73745000	      7373	80001e24	01b71b33	sll	x22,x14,x27	 x14:0x80009fc4 x27:0x00000000 x22=0x80009fc4
       73755000	      7374	80001e28	8e190193	addi	x3,x18,-1823	 x18:0x0000000d  x3=0xfffff8ee
       73765000	      7375	80001e2c	40825513	srai	x10,x4,0x8	  x4:0x0000000f x10=0x00000000
       73775000	      7376	80001e30	00000013	addi	x0,x0,0	  x0:0x00000000
       73785000	      7377	80001e34	5c430cb7	lui	x25,0x5c430	 x25=0x5c430000
       73795000	      7378	80001e38	41d107b3	sub	x15,x2,x29	  x2:0x00000000 x29:0x00000000 x15=0x00000000
       73805000	      7379	80001e3c	015daab3	slt	x21,x27,x21	 x27:0x00000000 x21:0x00000001 x21=0x00000001
       73815000	      7380	80001e40	20fc2a93	slti	x21,x24,527	 x24:0x00000001 x21=0x00000001
       73825000	      7381	80001e44	e0ab3513	sltiu	x10,x22,-502	 x22:0x80009fc4 x10=0x00000001
       73835000	      7382	80001e48	fc4940e3	blt	x18,x4,80001e08	 x18:0x0000000d  x4:0x0000000f
       73845000	      7383	00000000	00000013	addi	x0,x0,0	  x0:0x00000000
       73855000	      7384	80001e04	00000013	addi	x0,x0,0	  x0:0x00000000
       73865000	      7385	80001e08	d4097113	andi	x2,x18,-704	 x18:0x0000000d  x2=0x00000000
       73875000	      7386	80001e0c	01fe5db3	srl	x27,x28,x31	 x28:0x00000000 x31:0x95445000 x27=0x00000000
       73885000	      7387	80001e10	95445fb7	lui	x31,0x95445	 x31=0x95445000
       73895000	      7388	80001e14	404d5433	sra	x8,x26,x4	 x26:0x0000000b  x4:0x0000000f  x8=0x00000000
       73905000	      7389	80001e18	01b25893	srli	x17,x4,0x1b	  x4:0x0000000f x17=0x00000000
       73915000	      7390	80001e1c	aac5ae93	slti	x29,x11,-1364	 x11:0x00000001 x29=0x00000000
       73925000	      7391	80001e20	00890913	addi	x18,x18,8	 x18:0x0000000d x18=0x00000015
       73935000	      7392	80001e24	01b71b33	sll	x22,x14,x27	 x14:0x80009fc4 x27:0x00000000 x22=0x80009fc4
       73945000	      7393	80001e28	8e190193	addi	x3,x18,-1823	 x18:0x00000015  x3=0xfffff8f6
       73955000	      7394	80001e2c	40825513	srai	x10,x4,0x8	  x4:0x0000000f x10=0x00000000
       73965000	      7395	80001e30	00000013	addi	x0,x0,0	  x0:0x00000000
       73975000	      7396	80001e34	5c430cb7	lui	x25,0x5c430	 x25=0x5c430000
       73985000	      7397	80001e38	41d107b3	sub	x15,x2,x29	  x2:0x00000000 x29:0x00000000 x15=0x00000000
       73995000	      7398	80001e3c	015daab3	slt	x21,x27,x21	 x27:0x00000000 x21:0x00000001 x21=0x00000001
       74005000	      7399	80001e40	20fc2a93	slti	x21,x24,527	 x24:0x00000001 x21=0x00000001
       74015000	      7400	80001e44	e0ab3513	sltiu	x10,x22,-502	 x22:0x80009fc4 x10=0x00000001
       74025000	      7401	80001e48	fc4940e3	blt	x18,x4,80001e08	 x18:0x00000015  x4:0x0000000f
       74035000	      7402	80001e4c	00f53c33	sltu	x24,x10,x15	 x10:0x00000001 x15:0x00000000 x24=0x00000000
       74045000	      7403	80001e50	ffe00093	addi	x1,x0,-2	  x0:0x00000000  x1=0xfffffffe
       74055000	      7404	80001e54	00c00793	addi	x15,x0,12	  x0:0x00000000 x15=0x0000000c
       74065000	      7405	80001e58	c8c7b593	sltiu	x11,x15,-884	 x15:0x0000000c x11=0x00000001
       74075000	      7406	80001e5c	40e581b3	sub	x3,x11,x14	 x11:0x00000001 x14:0x80009fc4  x3=0x7fff603d
       74085000	      7407	80001e60	00208093	addi	x1,x1,2	  x1:0xfffffffe  x1=0x00000000
       74095000	      7408	80001e64	00100413	addi	x8,x0,1	  x0:0x00000000  x8=0x00000001
       74105000	      7409	80001e68	00700893	addi	x17,x0,7	  x0:0x00000000 x17=0x00000007
       74115000	      7410	80001e6c	f3102693	slti	x13,x0,-207	  x0:0x00000000 x13=0x00000000
       74125000	      7411	80001e70	7d5fc393	xori	x7,x31,2005	 x31:0x95445000  x7=0x954457d5
       74135000	      7412	80001e74	40795693	srai	x13,x18,0x7	 x18:0x00000015 x13=0x00000000
       74145000	      7413	80001e78	00640413	addi	x8,x8,6	  x8:0x00000001  x8=0x00000007
       74155000	      7414	80001e7c	011f6b33	or	x22,x30,x17	 x30:0x80009f50 x17:0x00000007 x22=0x80009f57
       74165000	      7415	80001e80	0068da13	srli	x20,x17,0x6	 x17:0x00000007 x20=0x00000000
       74175000	      7416	80001e84	7c2784b7	lui	x9,0x7c278	  x9=0x7c278000
       74185000	      7417	80001e88	ff1404e3	beq	x8,x17,80001e70	  x8:0x00000007 x17:0x00000007
       74195000	      7418	00000000	00000013	addi	x0,x0,0	  x0:0x00000000
       74205000	      7419	80001e6c	00000013	addi	x0,x0,0	  x0:0x00000000
       74215000	      7420	80001e70	7d5fc393	xori	x7,x31,2005	 x31:0x95445000  x7=0x954457d5
       74225000	      7421	80001e74	40795693	srai	x13,x18,0x7	 x18:0x00000015 x13=0x00000000
       74235000	      7422	80001e78	00640413	addi	x8,x8,6	  x8:0x00000007  x8=0x0000000d
       74245000	      7423	80001e7c	011f6b33	or	x22,x30,x17	 x30:0x80009f50 x17:0x00000007 x22=0x80009f57
       74255000	      7424	80001e80	0068da13	srli	x20,x17,0x6	 x17:0x00000007 x20=0x00000000
       74265000	      7425	80001e84	7c2784b7	lui	x9,0x7c278	  x9=0x7c278000
       74275000	      7426	80001e88	ff1404e3	beq	x8,x17,80001e70	  x8:0x0000000d x17:0x00000007
       74285000	      7427	80001e8c	fcf0c6e3	blt	x1,x15,80001e58	  x1:0x00000000 x15:0x0000000c
       74295000	      7428	00000000	00000013	addi	x0,x0,0	  x0:0x00000000
       74305000	      7429	80001e54	00000013	addi	x0,x0,0	  x0:0x00000000
       74315000	      7430	80001e58	c8c7b593	sltiu	x11,x15,-884	 x15:0x0000000c x11=0x00000001
       74325000	      7431	80001e5c	40e581b3	sub	x3,x11,x14	 x11:0x00000001 x14:0x80009fc4  x3=0x7fff603d
       74335000	      7432	80001e60	00208093	addi	x1,x1,2	  x1:0x00000000  x1=0x00000002
       74345000	      7433	80001e64	00100413	addi	x8,x0,1	  x0:0x00000000  x8=0x00000001
       74355000	      7434	80001e68	00700893	addi	x17,x0,7	  x0:0x00000000 x17=0x00000007
       74365000	      7435	80001e6c	f3102693	slti	x13,x0,-207	  x0:0x00000000 x13=0x00000000
       74375000	      7436	80001e70	7d5fc393	xori	x7,x31,2005	 x31:0x95445000  x7=0x954457d5
       74385000	      7437	80001e74	40795693	srai	x13,x18,0x7	 x18:0x00000015 x13=0x00000000
       74395000	      7438	80001e78	00640413	addi	x8,x8,6	  x8:0x00000001  x8=0x00000007
       74405000	      7439	80001e7c	011f6b33	or	x22,x30,x17	 x30:0x80009f50 x17:0x00000007 x22=0x80009f57
       74415000	      7440	80001e80	0068da13	srli	x20,x17,0x6	 x17:0x00000007 x20=0x00000000
       74425000	      7441	80001e84	7c2784b7	lui	x9,0x7c278	  x9=0x7c278000
       74435000	      7442	80001e88	ff1404e3	beq	x8,x17,80001e70	  x8:0x00000007 x17:0x00000007
       74445000	      7443	00000000	00000013	addi	x0,x0,0	  x0:0x00000000
       74455000	      7444	80001e6c	00000013	addi	x0,x0,0	  x0:0x00000000
       74465000	      7445	80001e70	7d5fc393	xori	x7,x31,2005	 x31:0x95445000  x7=0x954457d5
       74475000	      7446	80001e74	40795693	srai	x13,x18,0x7	 x18:0x00000015 x13=0x00000000
       74485000	      7447	80001e78	00640413	addi	x8,x8,6	  x8:0x00000007  x8=0x0000000d
       74495000	      7448	80001e7c	011f6b33	or	x22,x30,x17	 x30:0x80009f50 x17:0x00000007 x22=0x80009f57
       74505000	      7449	80001e80	0068da13	srli	x20,x17,0x6	 x17:0x00000007 x20=0x00000000
       74515000	      7450	80001e84	7c2784b7	lui	x9,0x7c278	  x9=0x7c278000
       74525000	      7451	80001e88	ff1404e3	beq	x8,x17,80001e70	  x8:0x0000000d x17:0x00000007
       74535000	      7452	80001e8c	fcf0c6e3	blt	x1,x15,80001e58	  x1:0x00000002 x15:0x0000000c
       74545000	      7453	00000000	00000013	addi	x0,x0,0	  x0:0x00000000
       74555000	      7454	80001e54	00000013	addi	x0,x0,0	  x0:0x00000000
       74565000	      7455	80001e58	c8c7b593	sltiu	x11,x15,-884	 x15:0x0000000c x11=0x00000001
       74575000	      7456	80001e5c	40e581b3	sub	x3,x11,x14	 x11:0x00000001 x14:0x80009fc4  x3=0x7fff603d
       74585000	      7457	80001e60	00208093	addi	x1,x1,2	  x1:0x00000002  x1=0x00000004
       74595000	      7458	80001e64	00100413	addi	x8,x0,1	  x0:0x00000000  x8=0x00000001
       74605000	      7459	80001e68	00700893	addi	x17,x0,7	  x0:0x00000000 x17=0x00000007
       74615000	      7460	80001e6c	f3102693	slti	x13,x0,-207	  x0:0x00000000 x13=0x00000000
       74625000	      7461	80001e70	7d5fc393	xori	x7,x31,2005	 x31:0x95445000  x7=0x954457d5
       74635000	      7462	80001e74	40795693	srai	x13,x18,0x7	 x18:0x00000015 x13=0x00000000
       74645000	      7463	80001e78	00640413	addi	x8,x8,6	  x8:0x00000001  x8=0x00000007
       74655000	      7464	80001e7c	011f6b33	or	x22,x30,x17	 x30:0x80009f50 x17:0x00000007 x22=0x80009f57
       74665000	      7465	80001e80	0068da13	srli	x20,x17,0x6	 x17:0x00000007 x20=0x00000000
       74675000	      7466	80001e84	7c2784b7	lui	x9,0x7c278	  x9=0x7c278000
       74685000	      7467	80001e88	ff1404e3	beq	x8,x17,80001e70	  x8:0x00000007 x17:0x00000007
       74695000	      7468	00000000	00000013	addi	x0,x0,0	  x0:0x00000000
       74705000	      7469	80001e6c	00000013	addi	x0,x0,0	  x0:0x00000000
       74715000	      7470	80001e70	7d5fc393	xori	x7,x31,2005	 x31:0x95445000  x7=0x954457d5
       74725000	      7471	80001e74	40795693	srai	x13,x18,0x7	 x18:0x00000015 x13=0x00000000
       74735000	      7472	80001e78	00640413	addi	x8,x8,6	  x8:0x00000007  x8=0x0000000d
       74745000	      7473	80001e7c	011f6b33	or	x22,x30,x17	 x30:0x80009f50 x17:0x00000007 x22=0x80009f57
       74755000	      7474	80001e80	0068da13	srli	x20,x17,0x6	 x17:0x00000007 x20=0x00000000
       74765000	      7475	80001e84	7c2784b7	lui	x9,0x7c278	  x9=0x7c278000
       74775000	      7476	80001e88	ff1404e3	beq	x8,x17,80001e70	  x8:0x0000000d x17:0x00000007
       74785000	      7477	80001e8c	fcf0c6e3	blt	x1,x15,80001e58	  x1:0x00000004 x15:0x0000000c
       74795000	      7478	00000000	00000013	addi	x0,x0,0	  x0:0x00000000
       74805000	      7479	80001e54	00000013	addi	x0,x0,0	  x0:0x00000000
       74815000	      7480	80001e58	c8c7b593	sltiu	x11,x15,-884	 x15:0x0000000c x11=0x00000001
       74825000	      7481	80001e5c	40e581b3	sub	x3,x11,x14	 x11:0x00000001 x14:0x80009fc4  x3=0x7fff603d
       74835000	      7482	80001e60	00208093	addi	x1,x1,2	  x1:0x00000004  x1=0x00000006
       74845000	      7483	80001e64	00100413	addi	x8,x0,1	  x0:0x00000000  x8=0x00000001
       74855000	      7484	80001e68	00700893	addi	x17,x0,7	  x0:0x00000000 x17=0x00000007
       74865000	      7485	80001e6c	f3102693	slti	x13,x0,-207	  x0:0x00000000 x13=0x00000000
       74875000	      7486	80001e70	7d5fc393	xori	x7,x31,2005	 x31:0x95445000  x7=0x954457d5
       74885000	      7487	80001e74	40795693	srai	x13,x18,0x7	 x18:0x00000015 x13=0x00000000
       74895000	      7488	80001e78	00640413	addi	x8,x8,6	  x8:0x00000001  x8=0x00000007
       74905000	      7489	80001e7c	011f6b33	or	x22,x30,x17	 x30:0x80009f50 x17:0x00000007 x22=0x80009f57
       74915000	      7490	80001e80	0068da13	srli	x20,x17,0x6	 x17:0x00000007 x20=0x00000000
       74925000	      7491	80001e84	7c2784b7	lui	x9,0x7c278	  x9=0x7c278000
       74935000	      7492	80001e88	ff1404e3	beq	x8,x17,80001e70	  x8:0x00000007 x17:0x00000007
       74945000	      7493	00000000	00000013	addi	x0,x0,0	  x0:0x00000000
       74955000	      7494	80001e6c	00000013	addi	x0,x0,0	  x0:0x00000000
       74965000	      7495	80001e70	7d5fc393	xori	x7,x31,2005	 x31:0x95445000  x7=0x954457d5
       74975000	      7496	80001e74	40795693	srai	x13,x18,0x7	 x18:0x00000015 x13=0x00000000
       74985000	      7497	80001e78	00640413	addi	x8,x8,6	  x8:0x00000007  x8=0x0000000d
       74995000	      7498	80001e7c	011f6b33	or	x22,x30,x17	 x30:0x80009f50 x17:0x00000007 x22=0x80009f57
       75005000	      7499	80001e80	0068da13	srli	x20,x17,0x6	 x17:0x00000007 x20=0x00000000
       75015000	      7500	80001e84	7c2784b7	lui	x9,0x7c278	  x9=0x7c278000
       75025000	      7501	80001e88	ff1404e3	beq	x8,x17,80001e70	  x8:0x0000000d x17:0x00000007
       75035000	      7502	80001e8c	fcf0c6e3	blt	x1,x15,80001e58	  x1:0x00000006 x15:0x0000000c
       75045000	      7503	00000000	00000013	addi	x0,x0,0	  x0:0x00000000
       75055000	      7504	80001e54	00000013	addi	x0,x0,0	  x0:0x00000000
       75065000	      7505	80001e58	c8c7b593	sltiu	x11,x15,-884	 x15:0x0000000c x11=0x00000001
       75075000	      7506	80001e5c	40e581b3	sub	x3,x11,x14	 x11:0x00000001 x14:0x80009fc4  x3=0x7fff603d
       75085000	      7507	80001e60	00208093	addi	x1,x1,2	  x1:0x00000006  x1=0x00000008
       75095000	      7508	80001e64	00100413	addi	x8,x0,1	  x0:0x00000000  x8=0x00000001
       75105000	      7509	80001e68	00700893	addi	x17,x0,7	  x0:0x00000000 x17=0x00000007
       75115000	      7510	80001e6c	f3102693	slti	x13,x0,-207	  x0:0x00000000 x13=0x00000000
       75125000	      7511	80001e70	7d5fc393	xori	x7,x31,2005	 x31:0x95445000  x7=0x954457d5
       75135000	      7512	80001e74	40795693	srai	x13,x18,0x7	 x18:0x00000015 x13=0x00000000
       75145000	      7513	80001e78	00640413	addi	x8,x8,6	  x8:0x00000001  x8=0x00000007
       75155000	      7514	80001e7c	011f6b33	or	x22,x30,x17	 x30:0x80009f50 x17:0x00000007 x22=0x80009f57
       75165000	      7515	80001e80	0068da13	srli	x20,x17,0x6	 x17:0x00000007 x20=0x00000000
       75175000	      7516	80001e84	7c2784b7	lui	x9,0x7c278	  x9=0x7c278000
       75185000	      7517	80001e88	ff1404e3	beq	x8,x17,80001e70	  x8:0x00000007 x17:0x00000007
       75195000	      7518	00000000	00000013	addi	x0,x0,0	  x0:0x00000000
       75205000	      7519	80001e6c	00000013	addi	x0,x0,0	  x0:0x00000000
       75215000	      7520	80001e70	7d5fc393	xori	x7,x31,2005	 x31:0x95445000  x7=0x954457d5
       75225000	      7521	80001e74	40795693	srai	x13,x18,0x7	 x18:0x00000015 x13=0x00000000
       75235000	      7522	80001e78	00640413	addi	x8,x8,6	  x8:0x00000007  x8=0x0000000d
       75245000	      7523	80001e7c	011f6b33	or	x22,x30,x17	 x30:0x80009f50 x17:0x00000007 x22=0x80009f57
       75255000	      7524	80001e80	0068da13	srli	x20,x17,0x6	 x17:0x00000007 x20=0x00000000
       75265000	      7525	80001e84	7c2784b7	lui	x9,0x7c278	  x9=0x7c278000
       75275000	      7526	80001e88	ff1404e3	beq	x8,x17,80001e70	  x8:0x0000000d x17:0x00000007
       75285000	      7527	80001e8c	fcf0c6e3	blt	x1,x15,80001e58	  x1:0x00000008 x15:0x0000000c
       75295000	      7528	00000000	00000013	addi	x0,x0,0	  x0:0x00000000
       75305000	      7529	80001e54	00000013	addi	x0,x0,0	  x0:0x00000000
       75315000	      7530	80001e58	c8c7b593	sltiu	x11,x15,-884	 x15:0x0000000c x11=0x00000001
       75325000	      7531	80001e5c	40e581b3	sub	x3,x11,x14	 x11:0x00000001 x14:0x80009fc4  x3=0x7fff603d
       75335000	      7532	80001e60	00208093	addi	x1,x1,2	  x1:0x00000008  x1=0x0000000a
       75345000	      7533	80001e64	00100413	addi	x8,x0,1	  x0:0x00000000  x8=0x00000001
       75355000	      7534	80001e68	00700893	addi	x17,x0,7	  x0:0x00000000 x17=0x00000007
       75365000	      7535	80001e6c	f3102693	slti	x13,x0,-207	  x0:0x00000000 x13=0x00000000
       75375000	      7536	80001e70	7d5fc393	xori	x7,x31,2005	 x31:0x95445000  x7=0x954457d5
       75385000	      7537	80001e74	40795693	srai	x13,x18,0x7	 x18:0x00000015 x13=0x00000000
       75395000	      7538	80001e78	00640413	addi	x8,x8,6	  x8:0x00000001  x8=0x00000007
       75405000	      7539	80001e7c	011f6b33	or	x22,x30,x17	 x30:0x80009f50 x17:0x00000007 x22=0x80009f57
       75415000	      7540	80001e80	0068da13	srli	x20,x17,0x6	 x17:0x00000007 x20=0x00000000
       75425000	      7541	80001e84	7c2784b7	lui	x9,0x7c278	  x9=0x7c278000
       75435000	      7542	80001e88	ff1404e3	beq	x8,x17,80001e70	  x8:0x00000007 x17:0x00000007
       75445000	      7543	00000000	00000013	addi	x0,x0,0	  x0:0x00000000
       75455000	      7544	80001e6c	00000013	addi	x0,x0,0	  x0:0x00000000
       75465000	      7545	80001e70	7d5fc393	xori	x7,x31,2005	 x31:0x95445000  x7=0x954457d5
       75475000	      7546	80001e74	40795693	srai	x13,x18,0x7	 x18:0x00000015 x13=0x00000000
       75485000	      7547	80001e78	00640413	addi	x8,x8,6	  x8:0x00000007  x8=0x0000000d
       75495000	      7548	80001e7c	011f6b33	or	x22,x30,x17	 x30:0x80009f50 x17:0x00000007 x22=0x80009f57
       75505000	      7549	80001e80	0068da13	srli	x20,x17,0x6	 x17:0x00000007 x20=0x00000000
       75515000	      7550	80001e84	7c2784b7	lui	x9,0x7c278	  x9=0x7c278000
       75525000	      7551	80001e88	ff1404e3	beq	x8,x17,80001e70	  x8:0x0000000d x17:0x00000007
       75535000	      7552	80001e8c	fcf0c6e3	blt	x1,x15,80001e58	  x1:0x0000000a x15:0x0000000c
       75545000	      7553	00000000	00000013	addi	x0,x0,0	  x0:0x00000000
       75555000	      7554	80001e54	00000013	addi	x0,x0,0	  x0:0x00000000
       75565000	      7555	80001e58	c8c7b593	sltiu	x11,x15,-884	 x15:0x0000000c x11=0x00000001
       75575000	      7556	80001e5c	40e581b3	sub	x3,x11,x14	 x11:0x00000001 x14:0x80009fc4  x3=0x7fff603d
       75585000	      7557	80001e60	00208093	addi	x1,x1,2	  x1:0x0000000a  x1=0x0000000c
       75595000	      7558	80001e64	00100413	addi	x8,x0,1	  x0:0x00000000  x8=0x00000001
       75605000	      7559	80001e68	00700893	addi	x17,x0,7	  x0:0x00000000 x17=0x00000007
       75615000	      7560	80001e6c	f3102693	slti	x13,x0,-207	  x0:0x00000000 x13=0x00000000
       75625000	      7561	80001e70	7d5fc393	xori	x7,x31,2005	 x31:0x95445000  x7=0x954457d5
       75635000	      7562	80001e74	40795693	srai	x13,x18,0x7	 x18:0x00000015 x13=0x00000000
       75645000	      7563	80001e78	00640413	addi	x8,x8,6	  x8:0x00000001  x8=0x00000007
       75655000	      7564	80001e7c	011f6b33	or	x22,x30,x17	 x30:0x80009f50 x17:0x00000007 x22=0x80009f57
       75665000	      7565	80001e80	0068da13	srli	x20,x17,0x6	 x17:0x00000007 x20=0x00000000
       75675000	      7566	80001e84	7c2784b7	lui	x9,0x7c278	  x9=0x7c278000
       75685000	      7567	80001e88	ff1404e3	beq	x8,x17,80001e70	  x8:0x00000007 x17:0x00000007
       75695000	      7568	00000000	00000013	addi	x0,x0,0	  x0:0x00000000
       75705000	      7569	80001e6c	00000013	addi	x0,x0,0	  x0:0x00000000
       75715000	      7570	80001e70	7d5fc393	xori	x7,x31,2005	 x31:0x95445000  x7=0x954457d5
       75725000	      7571	80001e74	40795693	srai	x13,x18,0x7	 x18:0x00000015 x13=0x00000000
       75735000	      7572	80001e78	00640413	addi	x8,x8,6	  x8:0x00000007  x8=0x0000000d
       75745000	      7573	80001e7c	011f6b33	or	x22,x30,x17	 x30:0x80009f50 x17:0x00000007 x22=0x80009f57
       75755000	      7574	80001e80	0068da13	srli	x20,x17,0x6	 x17:0x00000007 x20=0x00000000
       75765000	      7575	80001e84	7c2784b7	lui	x9,0x7c278	  x9=0x7c278000
       75775000	      7576	80001e88	ff1404e3	beq	x8,x17,80001e70	  x8:0x0000000d x17:0x00000007
       75785000	      7577	80001e8c	fcf0c6e3	blt	x1,x15,80001e58	  x1:0x0000000c x15:0x0000000c
       75795000	      7578	80001e90	020cae93	slti	x29,x25,32	 x25:0x5c430000 x29=0x00000000
       75805000	      7579	80001e94	ffc00c93	addi	x25,x0,-4	  x0:0x00000000 x25=0xfffffffc
       75815000	      7580	80001e98	005c71b3	and	x3,x24,x5	 x24:0x00000000  x5:0xdc2332ea  x3=0x00000000
       75825000	      7581	80001e9c	4a848113	addi	x2,x9,1192	  x9:0x7c278000  x2=0x7c2784a8
       75835000	      7582	80001ea0	41b35b13	srai	x22,x6,0x1b	  x6:0xfffffff9 x22=0xffffffff
       75845000	      7583	80001ea4	fd747913	andi	x18,x8,-41	  x8:0x0000000d x18=0x00000005
       75855000	      7584	80001ea8	d5533f93	sltiu	x31,x6,-683	  x6:0xfffffff9 x31=0x00000000
       75865000	      7585	80001eac	8a977493	andi	x9,x14,-1879	 x14:0x80009fc4  x9=0x80009880
       75875000	      7586	80001eb0	00700793	addi	x15,x0,7	  x0:0x00000000 x15=0x00000007
       75885000	      7587	80001eb4	00000013	addi	x0,x0,0	  x0:0x00000000
       75895000	      7588	80001eb8	3bbc7213	andi	x4,x24,955	 x24:0x00000000  x4=0x00000000
       75905000	      7589	80001ebc	001b25b3	slt	x11,x22,x1	 x22:0xffffffff  x1:0x0000000c x11=0x00000001
       75915000	      7590	80001ec0	0154e4b3	or	x9,x9,x21	  x9:0x80009880 x21:0x00000001  x9=0x80009881
       75925000	      7591	80001ec4	003c2333	slt	x6,x24,x3	 x24:0x00000000  x3:0x00000000  x6=0x00000000
       75935000	      7592	80001ec8	00000013	addi	x0,x0,0	  x0:0x00000000
       75945000	      7593	80001ecc	95a14013	xori	x0,x2,-1702	  x2:0x7c2784a8
       75955000	      7594	80001ed0	01993b33	sltu	x22,x18,x25	 x18:0x00000005 x25:0xfffffffc x22=0x00000001
       75965000	      7595	80001ed4	40dd5693	srai	x13,x26,0xd	 x26:0x0000000b x13=0x00000000
       75975000	      7596	80001ed8	004c8c93	addi	x25,x25,4	 x25:0xfffffffc x25=0x00000000
       75985000	      7597	80001edc	009781b3	add	x3,x15,x9	 x15:0x00000007  x9:0x80009881  x3=0x80009888
       75995000	      7598	80001ee0	58850c13	addi	x24,x10,1416	 x10:0x00000001 x24=0x00000589
       76005000	      7599	80001ee4	00d65533	srl	x10,x12,x13	 x12:0x00000001 x13:0x00000000 x10=0x00000001
       76015000	      7600	80001ee8	01d17a33	and	x20,x2,x29	  x2:0x7c2784a8 x29:0x00000000 x20=0x00000000
       76025000	      7601	80001eec	01283033	sltu	x0,x16,x18	 x16:0x0000000a x18:0x00000005
       76035000	      7602	80001ef0	00751c13	slli	x24,x10,0x7	 x10:0x00000001 x24=0x00000080
       76045000	      7603	80001ef4	00fce3b3	or	x7,x25,x15	 x25:0x00000000 x15:0x00000007  x7=0x00000007
       76055000	      7604	80001ef8	f692ce93	xori	x29,x5,-151	  x5:0xdc2332ea x29=0x23dccd83
       76065000	      7605	80001efc	41d1d493	srai	x9,x3,0x1d	  x3:0x80009888  x9=0xfffffffc
       76075000	      7606	80001f00	fcfce0e3	bltu	x25,x15,80001ec0	 x25:0x00000000 x15:0x00000007
       76085000	      7607	00000000	00000013	addi	x0,x0,0	  x0:0x00000000
       76095000	      7608	80001ebc	00000013	addi	x0,x0,0	  x0:0x00000000
       76105000	      7609	80001ec0	0154e4b3	or	x9,x9,x21	  x9:0xfffffffc x21:0x00000001  x9=0xfffffffd
       76115000	      7610	80001ec4	003c2333	slt	x6,x24,x3	 x24:0x00000080  x3:0x80009888  x6=0x00000000
       76125000	      7611	80001ec8	00000013	addi	x0,x0,0	  x0:0x00000000
       76135000	      7612	80001ecc	95a14013	xori	x0,x2,-1702	  x2:0x7c2784a8
       76145000	      7613	80001ed0	01993b33	sltu	x22,x18,x25	 x18:0x00000005 x25:0x00000000 x22=0x00000000
       76155000	      7614	80001ed4	40dd5693	srai	x13,x26,0xd	 x26:0x0000000b x13=0x00000000
       76165000	      7615	80001ed8	004c8c93	addi	x25,x25,4	 x25:0x00000000 x25=0x00000004
       76175000	      7616	80001edc	009781b3	add	x3,x15,x9	 x15:0x00000007  x9:0xfffffffd  x3=0x00000004
       76185000	      7617	80001ee0	58850c13	addi	x24,x10,1416	 x10:0x00000001 x24=0x00000589
       76195000	      7618	80001ee4	00d65533	srl	x10,x12,x13	 x12:0x00000001 x13:0x00000000 x10=0x00000001
       76205000	      7619	80001ee8	01d17a33	and	x20,x2,x29	  x2:0x7c2784a8 x29:0x23dccd83 x20=0x20048480
       76215000	      7620	80001eec	01283033	sltu	x0,x16,x18	 x16:0x0000000a x18:0x00000005
       76225000	      7621	80001ef0	00751c13	slli	x24,x10,0x7	 x10:0x00000001 x24=0x00000080
       76235000	      7622	80001ef4	00fce3b3	or	x7,x25,x15	 x25:0x00000004 x15:0x00000007  x7=0x00000007
       76245000	      7623	80001ef8	f692ce93	xori	x29,x5,-151	  x5:0xdc2332ea x29=0x23dccd83
       76255000	      7624	80001efc	41d1d493	srai	x9,x3,0x1d	  x3:0x00000004  x9=0x00000000
       76265000	      7625	80001f00	fcfce0e3	bltu	x25,x15,80001ec0	 x25:0x00000004 x15:0x00000007
       76275000	      7626	00000000	00000013	addi	x0,x0,0	  x0:0x00000000
       76285000	      7627	80001ebc	00000013	addi	x0,x0,0	  x0:0x00000000
       76295000	      7628	80001ec0	0154e4b3	or	x9,x9,x21	  x9:0x00000000 x21:0x00000001  x9=0x00000001
       76305000	      7629	80001ec4	003c2333	slt	x6,x24,x3	 x24:0x00000080  x3:0x00000004  x6=0x00000000
       76315000	      7630	80001ec8	00000013	addi	x0,x0,0	  x0:0x00000000
       76325000	      7631	80001ecc	95a14013	xori	x0,x2,-1702	  x2:0x7c2784a8
       76335000	      7632	80001ed0	01993b33	sltu	x22,x18,x25	 x18:0x00000005 x25:0x00000004 x22=0x00000000
       76345000	      7633	80001ed4	40dd5693	srai	x13,x26,0xd	 x26:0x0000000b x13=0x00000000
       76355000	      7634	80001ed8	004c8c93	addi	x25,x25,4	 x25:0x00000004 x25=0x00000008
       76365000	      7635	80001edc	009781b3	add	x3,x15,x9	 x15:0x00000007  x9:0x00000001  x3=0x00000008
       76375000	      7636	80001ee0	58850c13	addi	x24,x10,1416	 x10:0x00000001 x24=0x00000589
       76385000	      7637	80001ee4	00d65533	srl	x10,x12,x13	 x12:0x00000001 x13:0x00000000 x10=0x00000001
       76395000	      7638	80001ee8	01d17a33	and	x20,x2,x29	  x2:0x7c2784a8 x29:0x23dccd83 x20=0x20048480
       76405000	      7639	80001eec	01283033	sltu	x0,x16,x18	 x16:0x0000000a x18:0x00000005
       76415000	      7640	80001ef0	00751c13	slli	x24,x10,0x7	 x10:0x00000001 x24=0x00000080
       76425000	      7641	80001ef4	00fce3b3	or	x7,x25,x15	 x25:0x00000008 x15:0x00000007  x7=0x0000000f
       76435000	      7642	80001ef8	f692ce93	xori	x29,x5,-151	  x5:0xdc2332ea x29=0x23dccd83
       76445000	      7643	80001efc	41d1d493	srai	x9,x3,0x1d	  x3:0x00000008  x9=0x00000000
       76455000	      7644	80001f00	fcfce0e3	bltu	x25,x15,80001ec0	 x25:0x00000008 x15:0x00000007
       76465000	      7645	80001f04	898a7193	andi	x3,x20,-1896	 x20:0x20048480  x3=0x20048080
       76475000	      7646	80001f08	00800d93	addi	x27,x0,8	  x0:0x00000000 x27=0x00000008
       76485000	      7647	80001f0c	fff00f93	addi	x31,x0,-1	  x0:0x00000000 x31=0xffffffff
       76495000	      7648	80001f10	e0f6e113	ori	x2,x13,-497	 x13:0x00000000  x2=0xfffffe0f
       76505000	      7649	80001f14	fffd8d93	addi	x27,x27,-1	 x27:0x00000008 x27=0x00000007
       76515000	      7650	80001f18	00300393	addi	x7,x0,3	  x0:0x00000000  x7=0x00000003
       76525000	      7651	80001f1c	00100a93	addi	x21,x0,1	  x0:0x00000000 x21=0x00000001
       76535000	      7652	80001f20	01d7e933	or	x18,x15,x29	 x15:0x00000007 x29:0x23dccd83 x18=0x23dccd87
       76545000	      7653	80001f24	ffe38393	addi	x7,x7,-2	  x7:0x00000003  x7=0x00000001
       76555000	      7654	80001f28	00e11c93	slli	x25,x2,0xe	  x2:0xfffffe0f x25=0xff83c000
       76565000	      7655	80001f2c	ff53dae3	bge	x7,x21,80001f20	  x7:0x00000001 x21:0x00000001
       76575000	      7656	00000000	00000013	addi	x0,x0,0	  x0:0x00000000
       76585000	      7657	80001f1c	00000013	addi	x0,x0,0	  x0:0x00000000
       76595000	      7658	80001f20	01d7e933	or	x18,x15,x29	 x15:0x00000007 x29:0x23dccd83 x18=0x23dccd87
       76605000	      7659	80001f24	ffe38393	addi	x7,x7,-2	  x7:0x00000001  x7=0xffffffff
       76615000	      7660	80001f28	00e11c93	slli	x25,x2,0xe	  x2:0xfffffe0f x25=0xff83c000
       76625000	      7661	80001f2c	ff53dae3	bge	x7,x21,80001f20	  x7:0xffffffff x21:0x00000001
       76635000	      7662	80001f30	fffd80e3	beq	x27,x31,80001f10	 x27:0x00000007 x31:0xffffffff
       76645000	      7663	80001f34	40548eb3	sub	x29,x9,x5	  x9:0x00000000  x5:0xdc2332ea x29=0x23dccd16
       76655000	      7664	80001f38	ff900a93	addi	x21,x0,-7	  x0:0x00000000 x21=0xfffffff9
       76665000	      7665	80001f3c	008a12b3	sll	x5,x20,x8	 x20:0x20048480  x8:0x0000000d  x5=0x90900000
       76675000	      7666	80001f40	00797b33	and	x22,x18,x7	 x18:0x23dccd87  x7:0xffffffff x22=0x23dccd87
       76685000	      7667	80001f44	400cd513	srai	x10,x25,0x0	 x25:0xff83c000 x10=0xff83c000
       76695000	      7668	80001f48	ff200c93	addi	x25,x0,-14	  x0:0x00000000 x25=0xfffffff2
       76705000	      7669	80001f4c	00000013	addi	x0,x0,0	  x0:0x00000000
       76715000	      7670	80001f50	ff9a8a93	addi	x21,x21,-7	 x21:0xfffffff9 x21=0xfffffff2
       76725000	      7671	80001f54	bb883797	auipc	x15,0xbb883	 x15=0x3b884f50
       76735000	      7672	80001f58	00a00913	addi	x18,x0,10	  x0:0x00000000 x18=0x0000000a
       76745000	      7673	80001f5c	2f4d5c37	lui	x24,0x2f4d5	 x24=0x2f4d5000
       76755000	      7674	80001f60	017f9b13	slli	x22,x31,0x17	 x31:0xffffffff x22=0xff800000
       76765000	      7675	80001f64	01e060b3	or	x1,x0,x30	  x0:0x00000000 x30:0x80009f50  x1=0x80009f50
       76775000	      7676	80001f68	fec00993	addi	x19,x0,-20	  x0:0x00000000 x19=0xffffffec
       76785000	      7677	80001f6c	001d7bb3	and	x23,x26,x1	 x26:0x0000000b  x1:0x80009f50 x23=0x00000000
       76795000	      7678	80001f70	01fdec33	or	x24,x27,x31	 x27:0x00000007 x31:0xffffffff x24=0xffffffff
       76805000	      7679	80001f74	37040413	addi	x8,x8,880	  x8:0x0000000d  x8=0x0000037d
       76815000	      7680	80001f78	df987593	andi	x11,x16,-519	 x16:0x0000000a x11=0x00000008
       76825000	      7681	80001f7c	412383b3	sub	x7,x7,x18	  x7:0xffffffff x18:0x0000000a  x7=0xfffffff5
       76835000	      7682	80001f80	01562c33	slt	x24,x12,x21	 x12:0x00000001 x21:0xfffffff2 x24=0x00000000
       76845000	      7683	80001f84	686ce213	ori	x4,x25,1670	 x25:0xfffffff2  x4=0xfffffff6
       76855000	      7684	80001f88	40765293	srai	x5,x12,0x7	 x12:0x00000001  x5=0x00000000
       76865000	      7685	80001f8c	30758793	addi	x15,x11,775	 x11:0x00000008 x15=0x0000030f
       76875000	      7686	80001f90	9c6e7837	lui	x16,0x9c6e7	 x16=0x9c6e7000
       76885000	      7687	80001f94	01c11533	sll	x10,x2,x28	  x2:0xfffffe0f x28:0x00000000 x10=0xfffffe0f
       76895000	      7688	80001f98	3331b193	sltiu	x3,x3,819	  x3:0x20048080  x3=0x00000000
       76905000	      7689	80001f9c	001f2333	slt	x6,x30,x1	 x30:0x80009f50  x1:0x80009f50  x6=0x00000000
       76915000	      7690	80001fa0	fff90913	addi	x18,x18,-1	 x18:0x0000000a x18=0x00000009
       76925000	      7691	80001fa4	009fb633	sltu	x12,x31,x9	 x31:0xffffffff  x9:0x00000000 x12=0x00000000
       76935000	      7692	80001fa8	00a1d113	srli	x2,x3,0xa	  x3:0x00000000  x2=0x00000000
       76945000	      7693	80001fac	7b277893	andi	x17,x14,1970	 x14:0x80009fc4 x17=0x00000780
       76955000	      7694	80001fb0	ff3956e3	bge	x18,x19,80001f9c	 x18:0x00000009 x19:0xffffffec
       76965000	      7695	00000000	00000013	addi	x0,x0,0	  x0:0x00000000
       76975000	      7696	80001f98	00000013	addi	x0,x0,0	  x0:0x00000000
       76985000	      7697	80001f9c	001f2333	slt	x6,x30,x1	 x30:0x80009f50  x1:0x80009f50  x6=0x00000000
       76995000	      7698	80001fa0	fff90913	addi	x18,x18,-1	 x18:0x00000009 x18=0x00000008
       77005000	      7699	80001fa4	009fb633	sltu	x12,x31,x9	 x31:0xffffffff  x9:0x00000000 x12=0x00000000
       77015000	      7700	80001fa8	00a1d113	srli	x2,x3,0xa	  x3:0x00000000  x2=0x00000000
       77025000	      7701	80001fac	7b277893	andi	x17,x14,1970	 x14:0x80009fc4 x17=0x00000780
       77035000	      7702	80001fb0	ff3956e3	bge	x18,x19,80001f9c	 x18:0x00000008 x19:0xffffffec
       77045000	      7703	00000000	00000013	addi	x0,x0,0	  x0:0x00000000
       77055000	      7704	80001f98	00000013	addi	x0,x0,0	  x0:0x00000000
       77065000	      7705	80001f9c	001f2333	slt	x6,x30,x1	 x30:0x80009f50  x1:0x80009f50  x6=0x00000000
       77075000	      7706	80001fa0	fff90913	addi	x18,x18,-1	 x18:0x00000008 x18=0x00000007
       77085000	      7707	80001fa4	009fb633	sltu	x12,x31,x9	 x31:0xffffffff  x9:0x00000000 x12=0x00000000
       77095000	      7708	80001fa8	00a1d113	srli	x2,x3,0xa	  x3:0x00000000  x2=0x00000000
       77105000	      7709	80001fac	7b277893	andi	x17,x14,1970	 x14:0x80009fc4 x17=0x00000780
       77115000	      7710	80001fb0	ff3956e3	bge	x18,x19,80001f9c	 x18:0x00000007 x19:0xffffffec
       77125000	      7711	00000000	00000013	addi	x0,x0,0	  x0:0x00000000
       77135000	      7712	80001f98	00000013	addi	x0,x0,0	  x0:0x00000000
       77145000	      7713	80001f9c	001f2333	slt	x6,x30,x1	 x30:0x80009f50  x1:0x80009f50  x6=0x00000000
       77155000	      7714	80001fa0	fff90913	addi	x18,x18,-1	 x18:0x00000007 x18=0x00000006
       77165000	      7715	80001fa4	009fb633	sltu	x12,x31,x9	 x31:0xffffffff  x9:0x00000000 x12=0x00000000
       77175000	      7716	80001fa8	00a1d113	srli	x2,x3,0xa	  x3:0x00000000  x2=0x00000000
       77185000	      7717	80001fac	7b277893	andi	x17,x14,1970	 x14:0x80009fc4 x17=0x00000780
       77195000	      7718	80001fb0	ff3956e3	bge	x18,x19,80001f9c	 x18:0x00000006 x19:0xffffffec
       77205000	      7719	00000000	00000013	addi	x0,x0,0	  x0:0x00000000
       77215000	      7720	80001f98	00000013	addi	x0,x0,0	  x0:0x00000000
       77225000	      7721	80001f9c	001f2333	slt	x6,x30,x1	 x30:0x80009f50  x1:0x80009f50  x6=0x00000000
       77235000	      7722	80001fa0	fff90913	addi	x18,x18,-1	 x18:0x00000006 x18=0x00000005
       77245000	      7723	80001fa4	009fb633	sltu	x12,x31,x9	 x31:0xffffffff  x9:0x00000000 x12=0x00000000
       77255000	      7724	80001fa8	00a1d113	srli	x2,x3,0xa	  x3:0x00000000  x2=0x00000000
       77265000	      7725	80001fac	7b277893	andi	x17,x14,1970	 x14:0x80009fc4 x17=0x00000780
       77275000	      7726	80001fb0	ff3956e3	bge	x18,x19,80001f9c	 x18:0x00000005 x19:0xffffffec
       77285000	      7727	00000000	00000013	addi	x0,x0,0	  x0:0x00000000
       77295000	      7728	80001f98	00000013	addi	x0,x0,0	  x0:0x00000000
       77305000	      7729	80001f9c	001f2333	slt	x6,x30,x1	 x30:0x80009f50  x1:0x80009f50  x6=0x00000000
       77315000	      7730	80001fa0	fff90913	addi	x18,x18,-1	 x18:0x00000005 x18=0x00000004
       77325000	      7731	80001fa4	009fb633	sltu	x12,x31,x9	 x31:0xffffffff  x9:0x00000000 x12=0x00000000
       77335000	      7732	80001fa8	00a1d113	srli	x2,x3,0xa	  x3:0x00000000  x2=0x00000000
       77345000	      7733	80001fac	7b277893	andi	x17,x14,1970	 x14:0x80009fc4 x17=0x00000780
       77355000	      7734	80001fb0	ff3956e3	bge	x18,x19,80001f9c	 x18:0x00000004 x19:0xffffffec
       77365000	      7735	00000000	00000013	addi	x0,x0,0	  x0:0x00000000
       77375000	      7736	80001f98	00000013	addi	x0,x0,0	  x0:0x00000000
       77385000	      7737	80001f9c	001f2333	slt	x6,x30,x1	 x30:0x80009f50  x1:0x80009f50  x6=0x00000000
       77395000	      7738	80001fa0	fff90913	addi	x18,x18,-1	 x18:0x00000004 x18=0x00000003
       77405000	      7739	80001fa4	009fb633	sltu	x12,x31,x9	 x31:0xffffffff  x9:0x00000000 x12=0x00000000
       77415000	      7740	80001fa8	00a1d113	srli	x2,x3,0xa	  x3:0x00000000  x2=0x00000000
       77425000	      7741	80001fac	7b277893	andi	x17,x14,1970	 x14:0x80009fc4 x17=0x00000780
       77435000	      7742	80001fb0	ff3956e3	bge	x18,x19,80001f9c	 x18:0x00000003 x19:0xffffffec
       77445000	      7743	00000000	00000013	addi	x0,x0,0	  x0:0x00000000
       77455000	      7744	80001f98	00000013	addi	x0,x0,0	  x0:0x00000000
       77465000	      7745	80001f9c	001f2333	slt	x6,x30,x1	 x30:0x80009f50  x1:0x80009f50  x6=0x00000000
       77475000	      7746	80001fa0	fff90913	addi	x18,x18,-1	 x18:0x00000003 x18=0x00000002
       77485000	      7747	80001fa4	009fb633	sltu	x12,x31,x9	 x31:0xffffffff  x9:0x00000000 x12=0x00000000
       77495000	      7748	80001fa8	00a1d113	srli	x2,x3,0xa	  x3:0x00000000  x2=0x00000000
       77505000	      7749	80001fac	7b277893	andi	x17,x14,1970	 x14:0x80009fc4 x17=0x00000780
       77515000	      7750	80001fb0	ff3956e3	bge	x18,x19,80001f9c	 x18:0x00000002 x19:0xffffffec
       77525000	      7751	00000000	00000013	addi	x0,x0,0	  x0:0x00000000
       77535000	      7752	80001f98	00000013	addi	x0,x0,0	  x0:0x00000000
       77545000	      7753	80001f9c	001f2333	slt	x6,x30,x1	 x30:0x80009f50  x1:0x80009f50  x6=0x00000000
       77555000	      7754	80001fa0	fff90913	addi	x18,x18,-1	 x18:0x00000002 x18=0x00000001
       77565000	      7755	80001fa4	009fb633	sltu	x12,x31,x9	 x31:0xffffffff  x9:0x00000000 x12=0x00000000
       77575000	      7756	80001fa8	00a1d113	srli	x2,x3,0xa	  x3:0x00000000  x2=0x00000000
       77585000	      7757	80001fac	7b277893	andi	x17,x14,1970	 x14:0x80009fc4 x17=0x00000780
       77595000	      7758	80001fb0	ff3956e3	bge	x18,x19,80001f9c	 x18:0x00000001 x19:0xffffffec
       77605000	      7759	00000000	00000013	addi	x0,x0,0	  x0:0x00000000
       77615000	      7760	80001f98	00000013	addi	x0,x0,0	  x0:0x00000000
       77625000	      7761	80001f9c	001f2333	slt	x6,x30,x1	 x30:0x80009f50  x1:0x80009f50  x6=0x00000000
       77635000	      7762	80001fa0	fff90913	addi	x18,x18,-1	 x18:0x00000001 x18=0x00000000
       77645000	      7763	80001fa4	009fb633	sltu	x12,x31,x9	 x31:0xffffffff  x9:0x00000000 x12=0x00000000
       77655000	      7764	80001fa8	00a1d113	srli	x2,x3,0xa	  x3:0x00000000  x2=0x00000000
       77665000	      7765	80001fac	7b277893	andi	x17,x14,1970	 x14:0x80009fc4 x17=0x00000780
       77675000	      7766	80001fb0	ff3956e3	bge	x18,x19,80001f9c	 x18:0x00000000 x19:0xffffffec
       77685000	      7767	00000000	00000013	addi	x0,x0,0	  x0:0x00000000
       77695000	      7768	80001f98	00000013	addi	x0,x0,0	  x0:0x00000000
       77705000	      7769	80001f9c	001f2333	slt	x6,x30,x1	 x30:0x80009f50  x1:0x80009f50  x6=0x00000000
       77715000	      7770	80001fa0	fff90913	addi	x18,x18,-1	 x18:0x00000000 x18=0xffffffff
       77725000	      7771	80001fa4	009fb633	sltu	x12,x31,x9	 x31:0xffffffff  x9:0x00000000 x12=0x00000000
       77735000	      7772	80001fa8	00a1d113	srli	x2,x3,0xa	  x3:0x00000000  x2=0x00000000
       77745000	      7773	80001fac	7b277893	andi	x17,x14,1970	 x14:0x80009fc4 x17=0x00000780
       77755000	      7774	80001fb0	ff3956e3	bge	x18,x19,80001f9c	 x18:0xffffffff x19:0xffffffec
       77765000	      7775	00000000	00000013	addi	x0,x0,0	  x0:0x00000000
       77775000	      7776	80001f98	00000013	addi	x0,x0,0	  x0:0x00000000
       77785000	      7777	80001f9c	001f2333	slt	x6,x30,x1	 x30:0x80009f50  x1:0x80009f50  x6=0x00000000
       77795000	      7778	80001fa0	fff90913	addi	x18,x18,-1	 x18:0xffffffff x18=0xfffffffe
       77805000	      7779	80001fa4	009fb633	sltu	x12,x31,x9	 x31:0xffffffff  x9:0x00000000 x12=0x00000000
       77815000	      7780	80001fa8	00a1d113	srli	x2,x3,0xa	  x3:0x00000000  x2=0x00000000
       77825000	      7781	80001fac	7b277893	andi	x17,x14,1970	 x14:0x80009fc4 x17=0x00000780
       77835000	      7782	80001fb0	ff3956e3	bge	x18,x19,80001f9c	 x18:0xfffffffe x19:0xffffffec
       77845000	      7783	00000000	00000013	addi	x0,x0,0	  x0:0x00000000
       77855000	      7784	80001f98	00000013	addi	x0,x0,0	  x0:0x00000000
       77865000	      7785	80001f9c	001f2333	slt	x6,x30,x1	 x30:0x80009f50  x1:0x80009f50  x6=0x00000000
       77875000	      7786	80001fa0	fff90913	addi	x18,x18,-1	 x18:0xfffffffe x18=0xfffffffd
       77885000	      7787	80001fa4	009fb633	sltu	x12,x31,x9	 x31:0xffffffff  x9:0x00000000 x12=0x00000000
       77895000	      7788	80001fa8	00a1d113	srli	x2,x3,0xa	  x3:0x00000000  x2=0x00000000
       77905000	      7789	80001fac	7b277893	andi	x17,x14,1970	 x14:0x80009fc4 x17=0x00000780
       77915000	      7790	80001fb0	ff3956e3	bge	x18,x19,80001f9c	 x18:0xfffffffd x19:0xffffffec
       77925000	      7791	00000000	00000013	addi	x0,x0,0	  x0:0x00000000
       77935000	      7792	80001f98	00000013	addi	x0,x0,0	  x0:0x00000000
       77945000	      7793	80001f9c	001f2333	slt	x6,x30,x1	 x30:0x80009f50  x1:0x80009f50  x6=0x00000000
       77955000	      7794	80001fa0	fff90913	addi	x18,x18,-1	 x18:0xfffffffd x18=0xfffffffc
       77965000	      7795	80001fa4	009fb633	sltu	x12,x31,x9	 x31:0xffffffff  x9:0x00000000 x12=0x00000000
       77975000	      7796	80001fa8	00a1d113	srli	x2,x3,0xa	  x3:0x00000000  x2=0x00000000
       77985000	      7797	80001fac	7b277893	andi	x17,x14,1970	 x14:0x80009fc4 x17=0x00000780
       77995000	      7798	80001fb0	ff3956e3	bge	x18,x19,80001f9c	 x18:0xfffffffc x19:0xffffffec
       78005000	      7799	00000000	00000013	addi	x0,x0,0	  x0:0x00000000
       78015000	      7800	80001f98	00000013	addi	x0,x0,0	  x0:0x00000000
       78025000	      7801	80001f9c	001f2333	slt	x6,x30,x1	 x30:0x80009f50  x1:0x80009f50  x6=0x00000000
       78035000	      7802	80001fa0	fff90913	addi	x18,x18,-1	 x18:0xfffffffc x18=0xfffffffb
       78045000	      7803	80001fa4	009fb633	sltu	x12,x31,x9	 x31:0xffffffff  x9:0x00000000 x12=0x00000000
       78055000	      7804	80001fa8	00a1d113	srli	x2,x3,0xa	  x3:0x00000000  x2=0x00000000
       78065000	      7805	80001fac	7b277893	andi	x17,x14,1970	 x14:0x80009fc4 x17=0x00000780
       78075000	      7806	80001fb0	ff3956e3	bge	x18,x19,80001f9c	 x18:0xfffffffb x19:0xffffffec
       78085000	      7807	00000000	00000013	addi	x0,x0,0	  x0:0x00000000
       78095000	      7808	80001f98	00000013	addi	x0,x0,0	  x0:0x00000000
       78105000	      7809	80001f9c	001f2333	slt	x6,x30,x1	 x30:0x80009f50  x1:0x80009f50  x6=0x00000000
       78115000	      7810	80001fa0	fff90913	addi	x18,x18,-1	 x18:0xfffffffb x18=0xfffffffa
       78125000	      7811	80001fa4	009fb633	sltu	x12,x31,x9	 x31:0xffffffff  x9:0x00000000 x12=0x00000000
       78135000	      7812	80001fa8	00a1d113	srli	x2,x3,0xa	  x3:0x00000000  x2=0x00000000
       78145000	      7813	80001fac	7b277893	andi	x17,x14,1970	 x14:0x80009fc4 x17=0x00000780
       78155000	      7814	80001fb0	ff3956e3	bge	x18,x19,80001f9c	 x18:0xfffffffa x19:0xffffffec
       78165000	      7815	00000000	00000013	addi	x0,x0,0	  x0:0x00000000
       78175000	      7816	80001f98	00000013	addi	x0,x0,0	  x0:0x00000000
       78185000	      7817	80001f9c	001f2333	slt	x6,x30,x1	 x30:0x80009f50  x1:0x80009f50  x6=0x00000000
       78195000	      7818	80001fa0	fff90913	addi	x18,x18,-1	 x18:0xfffffffa x18=0xfffffff9
       78205000	      7819	80001fa4	009fb633	sltu	x12,x31,x9	 x31:0xffffffff  x9:0x00000000 x12=0x00000000
       78215000	      7820	80001fa8	00a1d113	srli	x2,x3,0xa	  x3:0x00000000  x2=0x00000000
       78225000	      7821	80001fac	7b277893	andi	x17,x14,1970	 x14:0x80009fc4 x17=0x00000780
       78235000	      7822	80001fb0	ff3956e3	bge	x18,x19,80001f9c	 x18:0xfffffff9 x19:0xffffffec
       78245000	      7823	00000000	00000013	addi	x0,x0,0	  x0:0x00000000
       78255000	      7824	80001f98	00000013	addi	x0,x0,0	  x0:0x00000000
       78265000	      7825	80001f9c	001f2333	slt	x6,x30,x1	 x30:0x80009f50  x1:0x80009f50  x6=0x00000000
       78275000	      7826	80001fa0	fff90913	addi	x18,x18,-1	 x18:0xfffffff9 x18=0xfffffff8
       78285000	      7827	80001fa4	009fb633	sltu	x12,x31,x9	 x31:0xffffffff  x9:0x00000000 x12=0x00000000
       78295000	      7828	80001fa8	00a1d113	srli	x2,x3,0xa	  x3:0x00000000  x2=0x00000000
       78305000	      7829	80001fac	7b277893	andi	x17,x14,1970	 x14:0x80009fc4 x17=0x00000780
       78315000	      7830	80001fb0	ff3956e3	bge	x18,x19,80001f9c	 x18:0xfffffff8 x19:0xffffffec
       78325000	      7831	00000000	00000013	addi	x0,x0,0	  x0:0x00000000
       78335000	      7832	80001f98	00000013	addi	x0,x0,0	  x0:0x00000000
       78345000	      7833	80001f9c	001f2333	slt	x6,x30,x1	 x30:0x80009f50  x1:0x80009f50  x6=0x00000000
       78355000	      7834	80001fa0	fff90913	addi	x18,x18,-1	 x18:0xfffffff8 x18=0xfffffff7
       78365000	      7835	80001fa4	009fb633	sltu	x12,x31,x9	 x31:0xffffffff  x9:0x00000000 x12=0x00000000
       78375000	      7836	80001fa8	00a1d113	srli	x2,x3,0xa	  x3:0x00000000  x2=0x00000000
       78385000	      7837	80001fac	7b277893	andi	x17,x14,1970	 x14:0x80009fc4 x17=0x00000780
       78395000	      7838	80001fb0	ff3956e3	bge	x18,x19,80001f9c	 x18:0xfffffff7 x19:0xffffffec
       78405000	      7839	00000000	00000013	addi	x0,x0,0	  x0:0x00000000
       78415000	      7840	80001f98	00000013	addi	x0,x0,0	  x0:0x00000000
       78425000	      7841	80001f9c	001f2333	slt	x6,x30,x1	 x30:0x80009f50  x1:0x80009f50  x6=0x00000000
       78435000	      7842	80001fa0	fff90913	addi	x18,x18,-1	 x18:0xfffffff7 x18=0xfffffff6
       78445000	      7843	80001fa4	009fb633	sltu	x12,x31,x9	 x31:0xffffffff  x9:0x00000000 x12=0x00000000
       78455000	      7844	80001fa8	00a1d113	srli	x2,x3,0xa	  x3:0x00000000  x2=0x00000000
       78465000	      7845	80001fac	7b277893	andi	x17,x14,1970	 x14:0x80009fc4 x17=0x00000780
       78475000	      7846	80001fb0	ff3956e3	bge	x18,x19,80001f9c	 x18:0xfffffff6 x19:0xffffffec
       78485000	      7847	00000000	00000013	addi	x0,x0,0	  x0:0x00000000
       78495000	      7848	80001f98	00000013	addi	x0,x0,0	  x0:0x00000000
       78505000	      7849	80001f9c	001f2333	slt	x6,x30,x1	 x30:0x80009f50  x1:0x80009f50  x6=0x00000000
       78515000	      7850	80001fa0	fff90913	addi	x18,x18,-1	 x18:0xfffffff6 x18=0xfffffff5
       78525000	      7851	80001fa4	009fb633	sltu	x12,x31,x9	 x31:0xffffffff  x9:0x00000000 x12=0x00000000
       78535000	      7852	80001fa8	00a1d113	srli	x2,x3,0xa	  x3:0x00000000  x2=0x00000000
       78545000	      7853	80001fac	7b277893	andi	x17,x14,1970	 x14:0x80009fc4 x17=0x00000780
       78555000	      7854	80001fb0	ff3956e3	bge	x18,x19,80001f9c	 x18:0xfffffff5 x19:0xffffffec
       78565000	      7855	00000000	00000013	addi	x0,x0,0	  x0:0x00000000
       78575000	      7856	80001f98	00000013	addi	x0,x0,0	  x0:0x00000000
       78585000	      7857	80001f9c	001f2333	slt	x6,x30,x1	 x30:0x80009f50  x1:0x80009f50  x6=0x00000000
       78595000	      7858	80001fa0	fff90913	addi	x18,x18,-1	 x18:0xfffffff5 x18=0xfffffff4
       78605000	      7859	80001fa4	009fb633	sltu	x12,x31,x9	 x31:0xffffffff  x9:0x00000000 x12=0x00000000
       78615000	      7860	80001fa8	00a1d113	srli	x2,x3,0xa	  x3:0x00000000  x2=0x00000000
       78625000	      7861	80001fac	7b277893	andi	x17,x14,1970	 x14:0x80009fc4 x17=0x00000780
       78635000	      7862	80001fb0	ff3956e3	bge	x18,x19,80001f9c	 x18:0xfffffff4 x19:0xffffffec
       78645000	      7863	00000000	00000013	addi	x0,x0,0	  x0:0x00000000
       78655000	      7864	80001f98	00000013	addi	x0,x0,0	  x0:0x00000000
       78665000	      7865	80001f9c	001f2333	slt	x6,x30,x1	 x30:0x80009f50  x1:0x80009f50  x6=0x00000000
       78675000	      7866	80001fa0	fff90913	addi	x18,x18,-1	 x18:0xfffffff4 x18=0xfffffff3
       78685000	      7867	80001fa4	009fb633	sltu	x12,x31,x9	 x31:0xffffffff  x9:0x00000000 x12=0x00000000
       78695000	      7868	80001fa8	00a1d113	srli	x2,x3,0xa	  x3:0x00000000  x2=0x00000000
       78705000	      7869	80001fac	7b277893	andi	x17,x14,1970	 x14:0x80009fc4 x17=0x00000780
       78715000	      7870	80001fb0	ff3956e3	bge	x18,x19,80001f9c	 x18:0xfffffff3 x19:0xffffffec
       78725000	      7871	00000000	00000013	addi	x0,x0,0	  x0:0x00000000
       78735000	      7872	80001f98	00000013	addi	x0,x0,0	  x0:0x00000000
       78745000	      7873	80001f9c	001f2333	slt	x6,x30,x1	 x30:0x80009f50  x1:0x80009f50  x6=0x00000000
       78755000	      7874	80001fa0	fff90913	addi	x18,x18,-1	 x18:0xfffffff3 x18=0xfffffff2
       78765000	      7875	80001fa4	009fb633	sltu	x12,x31,x9	 x31:0xffffffff  x9:0x00000000 x12=0x00000000
       78775000	      7876	80001fa8	00a1d113	srli	x2,x3,0xa	  x3:0x00000000  x2=0x00000000
       78785000	      7877	80001fac	7b277893	andi	x17,x14,1970	 x14:0x80009fc4 x17=0x00000780
       78795000	      7878	80001fb0	ff3956e3	bge	x18,x19,80001f9c	 x18:0xfffffff2 x19:0xffffffec
       78805000	      7879	00000000	00000013	addi	x0,x0,0	  x0:0x00000000
       78815000	      7880	80001f98	00000013	addi	x0,x0,0	  x0:0x00000000
       78825000	      7881	80001f9c	001f2333	slt	x6,x30,x1	 x30:0x80009f50  x1:0x80009f50  x6=0x00000000
       78835000	      7882	80001fa0	fff90913	addi	x18,x18,-1	 x18:0xfffffff2 x18=0xfffffff1
       78845000	      7883	80001fa4	009fb633	sltu	x12,x31,x9	 x31:0xffffffff  x9:0x00000000 x12=0x00000000
       78855000	      7884	80001fa8	00a1d113	srli	x2,x3,0xa	  x3:0x00000000  x2=0x00000000
       78865000	      7885	80001fac	7b277893	andi	x17,x14,1970	 x14:0x80009fc4 x17=0x00000780
       78875000	      7886	80001fb0	ff3956e3	bge	x18,x19,80001f9c	 x18:0xfffffff1 x19:0xffffffec
       78885000	      7887	00000000	00000013	addi	x0,x0,0	  x0:0x00000000
       78895000	      7888	80001f98	00000013	addi	x0,x0,0	  x0:0x00000000
       78905000	      7889	80001f9c	001f2333	slt	x6,x30,x1	 x30:0x80009f50  x1:0x80009f50  x6=0x00000000
       78915000	      7890	80001fa0	fff90913	addi	x18,x18,-1	 x18:0xfffffff1 x18=0xfffffff0
       78925000	      7891	80001fa4	009fb633	sltu	x12,x31,x9	 x31:0xffffffff  x9:0x00000000 x12=0x00000000
       78935000	      7892	80001fa8	00a1d113	srli	x2,x3,0xa	  x3:0x00000000  x2=0x00000000
       78945000	      7893	80001fac	7b277893	andi	x17,x14,1970	 x14:0x80009fc4 x17=0x00000780
       78955000	      7894	80001fb0	ff3956e3	bge	x18,x19,80001f9c	 x18:0xfffffff0 x19:0xffffffec
       78965000	      7895	00000000	00000013	addi	x0,x0,0	  x0:0x00000000
       78975000	      7896	80001f98	00000013	addi	x0,x0,0	  x0:0x00000000
       78985000	      7897	80001f9c	001f2333	slt	x6,x30,x1	 x30:0x80009f50  x1:0x80009f50  x6=0x00000000
       78995000	      7898	80001fa0	fff90913	addi	x18,x18,-1	 x18:0xfffffff0 x18=0xffffffef
       79005000	      7899	80001fa4	009fb633	sltu	x12,x31,x9	 x31:0xffffffff  x9:0x00000000 x12=0x00000000
       79015000	      7900	80001fa8	00a1d113	srli	x2,x3,0xa	  x3:0x00000000  x2=0x00000000
       79025000	      7901	80001fac	7b277893	andi	x17,x14,1970	 x14:0x80009fc4 x17=0x00000780
       79035000	      7902	80001fb0	ff3956e3	bge	x18,x19,80001f9c	 x18:0xffffffef x19:0xffffffec
       79045000	      7903	00000000	00000013	addi	x0,x0,0	  x0:0x00000000
       79055000	      7904	80001f98	00000013	addi	x0,x0,0	  x0:0x00000000
       79065000	      7905	80001f9c	001f2333	slt	x6,x30,x1	 x30:0x80009f50  x1:0x80009f50  x6=0x00000000
       79075000	      7906	80001fa0	fff90913	addi	x18,x18,-1	 x18:0xffffffef x18=0xffffffee
       79085000	      7907	80001fa4	009fb633	sltu	x12,x31,x9	 x31:0xffffffff  x9:0x00000000 x12=0x00000000
       79095000	      7908	80001fa8	00a1d113	srli	x2,x3,0xa	  x3:0x00000000  x2=0x00000000
       79105000	      7909	80001fac	7b277893	andi	x17,x14,1970	 x14:0x80009fc4 x17=0x00000780
       79115000	      7910	80001fb0	ff3956e3	bge	x18,x19,80001f9c	 x18:0xffffffee x19:0xffffffec
       79125000	      7911	00000000	00000013	addi	x0,x0,0	  x0:0x00000000
       79135000	      7912	80001f98	00000013	addi	x0,x0,0	  x0:0x00000000
       79145000	      7913	80001f9c	001f2333	slt	x6,x30,x1	 x30:0x80009f50  x1:0x80009f50  x6=0x00000000
       79155000	      7914	80001fa0	fff90913	addi	x18,x18,-1	 x18:0xffffffee x18=0xffffffed
       79165000	      7915	80001fa4	009fb633	sltu	x12,x31,x9	 x31:0xffffffff  x9:0x00000000 x12=0x00000000
       79175000	      7916	80001fa8	00a1d113	srli	x2,x3,0xa	  x3:0x00000000  x2=0x00000000
       79185000	      7917	80001fac	7b277893	andi	x17,x14,1970	 x14:0x80009fc4 x17=0x00000780
       79195000	      7918	80001fb0	ff3956e3	bge	x18,x19,80001f9c	 x18:0xffffffed x19:0xffffffec
       79205000	      7919	00000000	00000013	addi	x0,x0,0	  x0:0x00000000
       79215000	      7920	80001f98	00000013	addi	x0,x0,0	  x0:0x00000000
       79225000	      7921	80001f9c	001f2333	slt	x6,x30,x1	 x30:0x80009f50  x1:0x80009f50  x6=0x00000000
       79235000	      7922	80001fa0	fff90913	addi	x18,x18,-1	 x18:0xffffffed x18=0xffffffec
       79245000	      7923	80001fa4	009fb633	sltu	x12,x31,x9	 x31:0xffffffff  x9:0x00000000 x12=0x00000000
       79255000	      7924	80001fa8	00a1d113	srli	x2,x3,0xa	  x3:0x00000000  x2=0x00000000
       79265000	      7925	80001fac	7b277893	andi	x17,x14,1970	 x14:0x80009fc4 x17=0x00000780
       79275000	      7926	80001fb0	ff3956e3	bge	x18,x19,80001f9c	 x18:0xffffffec x19:0xffffffec
       79285000	      7927	00000000	00000013	addi	x0,x0,0	  x0:0x00000000
       79295000	      7928	80001f98	00000013	addi	x0,x0,0	  x0:0x00000000
       79305000	      7929	80001f9c	001f2333	slt	x6,x30,x1	 x30:0x80009f50  x1:0x80009f50  x6=0x00000000
       79315000	      7930	80001fa0	fff90913	addi	x18,x18,-1	 x18:0xffffffec x18=0xffffffeb
       79325000	      7931	80001fa4	009fb633	sltu	x12,x31,x9	 x31:0xffffffff  x9:0x00000000 x12=0x00000000
       79335000	      7932	80001fa8	00a1d113	srli	x2,x3,0xa	  x3:0x00000000  x2=0x00000000
       79345000	      7933	80001fac	7b277893	andi	x17,x14,1970	 x14:0x80009fc4 x17=0x00000780
       79355000	      7934	80001fb0	ff3956e3	bge	x18,x19,80001f9c	 x18:0xffffffeb x19:0xffffffec
       79365000	      7935	80001fb4	016ca4b3	slt	x9,x25,x22	 x25:0xfffffff2 x22:0xff800000  x9=0x00000000
       79375000	      7936	80001fb8	f99a9ae3	bne	x21,x25,80001f4c	 x21:0xfffffff2 x25:0xfffffff2
       79385000	      7937	80001fbc	00000013	addi	x0,x0,0	  x0:0x00000000
       79395000	      7938	80001fc0	ffe00093	addi	x1,x0,-2	  x0:0x00000000  x1=0xfffffffe
       79405000	      7939	80001fc4	80e24613	xori	x12,x4,-2034	  x4:0xfffffff6 x12=0x000007f8
       79415000	      7940	80001fc8	01be26b3	slt	x13,x28,x27	 x28:0x00000000 x27:0x00000007 x13=0x00000001
       79425000	      7941	80001fcc	31960013	addi	x0,x12,793	 x12:0x000007f8
       79435000	      7942	80001fd0	004f22b3	slt	x5,x30,x4	 x30:0x80009f50  x4:0xfffffff6  x5=0x00000001
       79445000	      7943	80001fd4	ec71b437	lui	x8,0xec71b	  x8=0xec71b000
       79455000	      7944	80001fd8	4108db13	srai	x22,x17,0x10	 x17:0x00000780 x22=0x00000000
       79465000	      7945	80001fdc	00000013	addi	x0,x0,0	  x0:0x00000000
       79475000	      7946	80001fe0	00500f93	addi	x31,x0,5	  x0:0x00000000 x31=0x00000005
       79485000	      7947	80001fe4	0115a1b3	slt	x3,x11,x17	 x11:0x00000008 x17:0x00000780  x3=0x00000001
       79495000	      7948	80001fe8	29bd2e13	slti	x28,x26,667	 x26:0x0000000b x28=0x00000001
       79505000	      7949	80001fec	a91c6913	ori	x18,x24,-1391	 x24:0x00000000 x18=0xfffffa91
       79515000	      7950	80001ff0	012786b3	add	x13,x15,x18	 x15:0x0000030f x18:0xfffffa91 x13=0xfffffda0
       79525000	      7951	80001ff4	007a1613	slli	x12,x20,0x7	 x20:0x20048480 x12=0x02424000
       79535000	      7952	80001ff8	2242b397	auipc	x7,0x2242b	  x7=0xa242cff4
       79545000	      7953	80001ffc	0e743337	lui	x6,0xe743	  x6=0x0e743000
       79555000	      7954	80002000	00708093	addi	x1,x1,7	  x1:0xfffffffe  x1=0x00000005
       79565000	      7955	80002004	009d9ab3	sll	x21,x27,x9	 x27:0x00000007  x9:0x00000000 x21=0x00000007
       79575000	      7956	80002008	d1adbc93	sltiu	x25,x27,-742	 x27:0x00000007 x25=0x00000001
       79585000	      7957	8000200c	00830133	add	x2,x6,x8	  x6:0x0e743000  x8:0xec71b000  x2=0xfae5e000
       79595000	      7958	80002010	0026eb33	or	x22,x13,x2	 x13:0xfffffda0  x2:0xfae5e000 x22=0xfffffda0
       79605000	      7959	80002014	0005f9b3	and	x19,x11,x0	 x11:0x00000008  x0:0x00000000 x19=0x00000000
       79615000	      7960	80002018	fff082e3	beq	x1,x31,80001ffc	  x1:0x00000005 x31:0x00000005
       79625000	      7961	00000000	00000013	addi	x0,x0,0	  x0:0x00000000
       79635000	      7962	80001ff8	00000013	addi	x0,x0,0	  x0:0x00000000
       79645000	      7963	80001ffc	0e743337	lui	x6,0xe743	  x6=0x0e743000
       79655000	      7964	80002000	00708093	addi	x1,x1,7	  x1:0x00000005  x1=0x0000000c
       79665000	      7965	80002004	009d9ab3	sll	x21,x27,x9	 x27:0x00000007  x9:0x00000000 x21=0x00000007
       79675000	      7966	80002008	d1adbc93	sltiu	x25,x27,-742	 x27:0x00000007 x25=0x00000001
       79685000	      7967	8000200c	00830133	add	x2,x6,x8	  x6:0x0e743000  x8:0xec71b000  x2=0xfae5e000
       79695000	      7968	80002010	0026eb33	or	x22,x13,x2	 x13:0xfffffda0  x2:0xfae5e000 x22=0xfffffda0
       79705000	      7969	80002014	0005f9b3	and	x19,x11,x0	 x11:0x00000008  x0:0x00000000 x19=0x00000000
       79715000	      7970	80002018	fff082e3	beq	x1,x31,80001ffc	  x1:0x0000000c x31:0x00000005
       79725000	      7971	8000201c	c4b4c213	xori	x4,x9,-949	  x9:0x00000000  x4=0xfffffc4b
       79735000	      7972	80002020	00200c93	addi	x25,x0,2	  x0:0x00000000 x25=0x00000002
       79745000	      7973	80002024	0c9197b7	lui	x15,0xc919	 x15=0x0c919000
       79755000	      7974	80002028	30027f93	andi	x31,x4,768	  x4:0xfffffc4b x31=0x00000000
       79765000	      7975	8000202c	2d6f2a13	slti	x20,x30,726	 x30:0x80009f50 x20=0x00000001
       79775000	      7976	80002030	01cb0a33	add	x20,x22,x28	 x22:0xfffffda0 x28:0x00000001 x20=0xfffffda1
       79785000	      7977	80002034	00600813	addi	x16,x0,6	  x0:0x00000000 x16=0x00000006
       79795000	      7978	80002038	00000013	addi	x0,x0,0	  x0:0x00000000
       79805000	      7979	8000203c	e1c06293	ori	x5,x0,-484	  x0:0x00000000  x5=0xfffffe1c
       79815000	      7980	80002040	00416233	or	x4,x2,x4	  x2:0xfae5e000  x4:0xfffffc4b  x4=0xfffffc4b
       79825000	      7981	80002044	001f61b3	or	x3,x30,x1	 x30:0x80009f50  x1:0x0000000c  x3=0x80009f5c
       79835000	      7982	80002048	25423493	sltiu	x9,x4,596	  x4:0xfffffc4b  x9=0x00000000
       79845000	      7983	8000204c	002c8c93	addi	x25,x25,2	 x25:0x00000002 x25=0x00000004
       79855000	      7984	80002050	01b9c3b3	xor	x7,x19,x27	 x19:0x00000000 x27:0x00000007  x7=0x00000007
       79865000	      7985	80002054	01461eb3	sll	x29,x12,x20	 x12:0x02424000 x20:0xfffffda1 x29=0x04848000
       79875000	      7986	80002058	ff700693	addi	x13,x0,-9	  x0:0x00000000 x13=0xfffffff7
       79885000	      7987	8000205c	ff200113	addi	x2,x0,-14	  x0:0x00000000  x2=0xfffffff2
       79895000	      7988	80002060	ec620997	auipc	x19,0xec620	 x19=0x6c62205c
       79905000	      7989	80002064	016dc4b3	xor	x9,x27,x22	 x27:0x00000007 x22:0xfffffda0  x9=0xfffffda7
       79915000	      7990	80002068	41855a93	srai	x21,x10,0x18	 x10:0xfffffe0f x21=0xffffffff
       79925000	      7991	8000206c	01c212b3	sll	x5,x4,x28	  x4:0xfffffc4b x28:0x00000001  x5=0xfffff896
       79935000	      7992	80002070	200e7893	andi	x17,x28,512	 x28:0x00000001 x17=0x00000000
       79945000	      7993	80002074	01887433	and	x8,x16,x24	 x16:0x00000006 x24:0x00000000  x8=0x00000000
       79955000	      7994	80002078	41d7dab3	sra	x21,x15,x29	 x15:0x0c919000 x29:0x04848000 x21=0x0c919000
       79965000	      7995	8000207c	404a8db3	sub	x27,x21,x4	 x21:0x0c919000  x4:0xfffffc4b x27=0x0c9193b5
       79975000	      7996	80002080	413ed613	srai	x12,x29,0x13	 x29:0x04848000 x12=0x00000090
       79985000	      7997	80002084	017bb0b3	sltu	x1,x23,x23	 x23:0x00000000 x23:0x00000000  x1=0x00000000
       79995000	      7998	80002088	0039fbb3	and	x23,x19,x3	 x19:0x6c62205c  x3:0x80009f5c x23=0x0000005c
       80005000	      7999	8000208c	ff668693	addi	x13,x13,-10	 x13:0xfffffff7 x13=0xffffffed
       80015000	      8000	80002090	fe26d2e3	bge	x13,x2,80002074	 x13:0xffffffed  x2:0xfffffff2
       80025000	      8001	80002094	9eb7f0b7	lui	x1,0x9eb7f	  x1=0x9eb7f000
       80035000	      8002	80002098	fb0c96e3	bne	x25,x16,80002044	 x25:0x00000004 x16:0x00000006
       80045000	      8003	00000000	00000013	addi	x0,x0,0	  x0:0x00000000
       80055000	      8004	80002040	00000013	addi	x0,x0,0	  x0:0x00000000
       80065000	      8005	80002044	001f61b3	or	x3,x30,x1	 x30:0x80009f50  x1:0x9eb7f000  x3=0x9eb7ff50
       80075000	      8006	80002048	25423493	sltiu	x9,x4,596	  x4:0xfffffc4b  x9=0x00000000
       80085000	      8007	8000204c	002c8c93	addi	x25,x25,2	 x25:0x00000004 x25=0x00000006
       80095000	      8008	80002050	01b9c3b3	xor	x7,x19,x27	 x19:0x6c62205c x27:0x0c9193b5  x7=0x60f3b3e9
       80105000	      8009	80002054	01461eb3	sll	x29,x12,x20	 x12:0x00000090 x20:0xfffffda1 x29=0x00000120
       80115000	      8010	80002058	ff700693	addi	x13,x0,-9	  x0:0x00000000 x13=0xfffffff7
       80125000	      8011	8000205c	ff200113	addi	x2,x0,-14	  x0:0x00000000  x2=0xfffffff2
       80135000	      8012	80002060	ec620997	auipc	x19,0xec620	 x19=0x6c62205c
       80145000	      8013	80002064	016dc4b3	xor	x9,x27,x22	 x27:0x0c9193b5 x22:0xfffffda0  x9=0xf36e6e15
       80155000	      8014	80002068	41855a93	srai	x21,x10,0x18	 x10:0xfffffe0f x21=0xffffffff
       80165000	      8015	8000206c	01c212b3	sll	x5,x4,x28	  x4:0xfffffc4b x28:0x00000001  x5=0xfffff896
       80175000	      8016	80002070	200e7893	andi	x17,x28,512	 x28:0x00000001 x17=0x00000000
       80185000	      8017	80002074	01887433	and	x8,x16,x24	 x16:0x00000006 x24:0x00000000  x8=0x00000000
       80195000	      8018	80002078	41d7dab3	sra	x21,x15,x29	 x15:0x0c919000 x29:0x00000120 x21=0x0c919000
       80205000	      8019	8000207c	404a8db3	sub	x27,x21,x4	 x21:0x0c919000  x4:0xfffffc4b x27=0x0c9193b5
       80215000	      8020	80002080	413ed613	srai	x12,x29,0x13	 x29:0x00000120 x12=0x00000000
       80225000	      8021	80002084	017bb0b3	sltu	x1,x23,x23	 x23:0x0000005c x23:0x0000005c  x1=0x00000000
       80235000	      8022	80002088	0039fbb3	and	x23,x19,x3	 x19:0x6c62205c  x3:0x9eb7ff50 x23=0x0c222050
       80245000	      8023	8000208c	ff668693	addi	x13,x13,-10	 x13:0xfffffff7 x13=0xffffffed
       80255000	      8024	80002090	fe26d2e3	bge	x13,x2,80002074	 x13:0xffffffed  x2:0xfffffff2
       80265000	      8025	80002094	9eb7f0b7	lui	x1,0x9eb7f	  x1=0x9eb7f000
       80275000	      8026	80002098	fb0c96e3	bne	x25,x16,80002044	 x25:0x00000006 x16:0x00000006
       80285000	      8027	8000209c	750c7413	andi	x8,x24,1872	 x24:0x00000000  x8=0x00000000
       80295000	      8028	800020a0	71953813	sltiu	x16,x10,1817	 x10:0xfffffe0f x16=0x00000000
       80305000	      8029	800020a4	0086f133	and	x2,x13,x8	 x13:0xffffffed  x8:0x00000000  x2=0x00000000
       80315000	      8030	800020a8	00c2d993	srli	x19,x5,0xc	  x5:0xfffff896 x19=0x000fffff
       80325000	      8031	800020ac	04c5e863	bltu	x11,x12,800020fc	 x11:0x00000008 x12:0x00000000
       80335000	      8032	800020b0	03929663	bne	x5,x25,800020dc	  x5:0xfffff896 x25:0x00000006
       80345000	      8033	00000000	00000013	addi	x0,x0,0	  x0:0x00000000
       80355000	      8034	800020d8	00000013	addi	x0,x0,0	  x0:0x00000000
       80365000	      8035	800020dc	010bd493	srli	x9,x23,0x10	 x23:0x0c222050  x9=0x00000c22
       80375000	      8036	800020e0	025cd263	bge	x25,x5,80002104	 x25:0x00000006  x5:0xfffff896
       80385000	      8037	00000000	00000013	addi	x0,x0,0	  x0:0x00000000
       80395000	      8038	80002100	00000013	addi	x0,x0,0	  x0:0x00000000
       80405000	      8039	80002104	00774a33	xor	x20,x14,x7	 x14:0x80009fc4  x7:0x60f3b3e9 x20=0xe0f32c2d
       80415000	      8040	80002108	03ea4a63	blt	x20,x30,8000213c	 x20:0xe0f32c2d x30:0x80009f50
       80425000	      8041	8000210c	01b02fb3	slt	x31,x0,x27	  x0:0x00000000 x27:0x0c9193b5 x31=0x00000001
       80435000	      8042	80002110	00700e93	addi	x29,x0,7	  x0:0x00000000 x29=0x00000007
       80445000	      8043	80002114	00500a13	addi	x20,x0,5	  x0:0x00000000 x20=0x00000005
       80455000	      8044	80002118	4775b493	sltiu	x9,x11,1143	 x11:0x00000008  x9=0x00000001
       80465000	      8045	8000211c	efc23313	sltiu	x6,x4,-260	  x4:0xfffffc4b  x6=0x00000001
       80475000	      8046	80002120	ffce8e93	addi	x29,x29,-4	 x29:0x00000007 x29=0x00000003
       80485000	      8047	80002124	01eb14b3	sll	x9,x22,x30	 x22:0xfffffda0 x30:0x80009f50  x9=0xfda00000
       80495000	      8048	80002128	00c6f933	and	x18,x13,x12	 x13:0xffffffed x12:0x00000000 x18=0x00000000
       80505000	      8049	8000212c	ff4ef6e3	bgeu	x29,x20,80002118	 x29:0x00000003 x20:0x00000005
       80515000	      8050	80002130	33106613	ori	x12,x0,817	  x0:0x00000000 x12=0x00000331
       80525000	      8051	80002134	016b55b3	srl	x11,x22,x22	 x22:0xfffffda0 x22:0xfffffda0 x11=0xfffffda0
       80535000	      8052	80002138	40240eb3	sub	x29,x8,x2	  x8:0x00000000  x2:0x00000000 x29=0x00000000
       80545000	      8053	8000213c	01775113	srli	x2,x14,0x17	 x14:0x80009fc4  x2=0x00000100
       80555000	      8054	80002140	006c1f93	slli	x31,x24,0x6	 x24:0x00000000 x31=0x00000000
       80565000	      8055	80002144	fe6ff817	auipc	x16,0xfe6ff	 x16=0x7e701140
       80575000	      8056	80002148	401ddcb3	sra	x25,x27,x1	 x27:0x0c9193b5  x1:0x9eb7f000 x25=0x0c9193b5
       80585000	      8057	8000214c	03a17263	bgeu	x2,x26,80002170	  x2:0x00000100 x26:0x0000000b
       80595000	      8058	00000000	00000013	addi	x0,x0,0	  x0:0x00000000
       80605000	      8059	8000216c	00000013	addi	x0,x0,0	  x0:0x00000000
       80615000	      8060	80002170	40505613	srai	x12,x0,0x5	  x0:0x00000000 x12=0x00000000
       80625000	      8061	80002174	00126bb3	or	x23,x4,x1	  x4:0xfffffc4b  x1:0x9eb7f000 x23=0xfffffc4b
       80635000	      8062	80002178	fc354b93	xori	x23,x10,-61	 x10:0xfffffe0f x23=0x000001cc
       80645000	      8063	8000217c	40195413	srai	x8,x18,0x1	 x18:0x00000000  x8=0x00000000
       80655000	      8064	80002180	03a3f463	bgeu	x7,x26,800021a8	  x7:0x60f3b3e9 x26:0x0000000b
       80665000	      8065	00000000	00000013	addi	x0,x0,0	  x0:0x00000000
       80675000	      8066	800021a4	00000013	addi	x0,x0,0	  x0:0x00000000
       80685000	      8067	800021a8	0042ba33	sltu	x20,x5,x4	  x5:0xfffff896  x4:0xfffffc4b x20=0x00000001
       80695000	      8068	800021ac	2ae6e8b7	lui	x17,0x2ae6e	 x17=0x2ae6e000
       80705000	      8069	800021b0	023f4863	blt	x30,x3,800021e0	 x30:0x80009f50  x3:0x9eb7ff50
       80715000	      8070	00000000	00000013	addi	x0,x0,0	  x0:0x00000000
       80725000	      8071	800021dc	00000013	addi	x0,x0,0	  x0:0x00000000
       80735000	      8072	800021e0	67690417	auipc	x8,0x67690	  x8=0xe76921dc
       80745000	      8073	800021e4	7e83b293	sltiu	x5,x7,2024	  x7:0x60f3b3e9  x5=0x00000000
       80755000	      8074	800021e8	998e7e13	andi	x28,x28,-1640	 x28:0x00000001 x28=0x00000000
       80765000	      8075	800021ec	554e8013	addi	x0,x29,1364	 x29:0x00000000
       80775000	      8076	800021f0	01798033	add	x0,x19,x23	 x19:0x000fffff x23:0x000001cc
       80785000	      8077	800021f4	59b10613	addi	x12,x2,1435	  x2:0x00000100 x12=0x0000069b
       80795000	      8078	800021f8	01c29c33	sll	x24,x5,x28	  x5:0x00000000 x28:0x00000000 x24=0x00000000
       80805000	      8079	800021fc	402a5213	srai	x4,x20,0x2	 x20:0x00000001  x4=0x00000000
       80815000	      8080	80002200	00539c63	bne	x7,x5,80002218	  x7:0x60f3b3e9  x5:0x00000000
       80825000	      8081	00000000	00000013	addi	x0,x0,0	  x0:0x00000000
       80835000	      8082	80002214	00000013	addi	x0,x0,0	  x0:0x00000000
       80845000	      8083	80002218	01f10a33	add	x20,x2,x31	  x2:0x00000100 x31:0x00000000 x20=0x00000100
       80855000	      8084	8000221c	00af09b3	add	x19,x30,x10	 x30:0x80009f50 x10:0xfffffe0f x19=0x80009d5f
       80865000	      8085	80002220	0e4e7c13	andi	x24,x28,228	 x28:0x00000000 x24=0x00000000
       80875000	      8086	80002224	003b2233	slt	x4,x22,x3	 x22:0xfffffda0  x3:0x9eb7ff50  x4=0x00000000
       80885000	      8087	80002228	00000013	addi	x0,x0,0	  x0:0x00000000
       80895000	      8088	8000222c	0114ca63	blt	x9,x17,80002240	  x9:0xfda00000 x17:0x2ae6e000
       80905000	      8089	00000000	00000013	addi	x0,x0,0	  x0:0x00000000
       80915000	      8090	8000223c	00000013	addi	x0,x0,0	  x0:0x00000000
       80925000	      8091	80002240	01f21c13	slli	x24,x4,0x1f	  x4:0x00000000 x24=0x00000000
       80935000	      8092	80002244	000d2cb3	slt	x25,x26,x0	 x26:0x0000000b  x0:0x00000000 x25=0x00000000
       80945000	      8093	80002248	a10a9297	auipc	x5,0xa10a9	  x5=0x210ab244
       80955000	      8094	8000224c	02fb0a63	beq	x22,x15,80002280	 x22:0xfffffda0 x15:0x0c919000
       80965000	      8095	80002250	0166ce33	xor	x28,x13,x22	 x13:0xffffffed x22:0xfffffda0 x28=0x0000024d
       80975000	      8096	80002254	055a9863	bne	x21,x21,800022a4	 x21:0x0c919000 x21:0x0c919000
       80985000	      8097	80002258	bcfac337	lui	x6,0xbcfac	  x6=0xbcfac000
       80995000	      8098	8000225c	eea1f813	andi	x16,x3,-278	  x3:0x9eb7ff50 x16=0x9eb7fe40
       81005000	      8099	80002260	002e3db3	sltu	x27,x28,x2	 x28:0x0000024d  x2:0x00000100 x27=0x00000000
       81015000	      8100	80002264	00259a63	bne	x11,x2,80002278	 x11:0xfffffda0  x2:0x00000100
       81025000	      8101	00000000	00000013	addi	x0,x0,0	  x0:0x00000000
       81035000	      8102	80002274	00000013	addi	x0,x0,0	  x0:0x00000000
       81045000	      8103	80002278	01c4ce33	xor	x28,x9,x28	  x9:0xfda00000 x28:0x0000024d x28=0xfda0024d
       81055000	      8104	8000227c	80ae7c13	andi	x24,x28,-2038	 x28:0xfda0024d x24=0xfda00008
       81065000	      8105	80002280	6bc5c313	xori	x6,x11,1724	 x11:0xfffffda0  x6=0xfffffb1c
       81075000	      8106	80002284	40f35613	srai	x12,x6,0xf	  x6:0xfffffb1c x12=0xffffffff
       81085000	      8107	80002288	01146c63	bltu	x8,x17,800022a0	  x8:0xe76921dc x17:0x2ae6e000
       81095000	      8108	8000228c	02e94863	blt	x18,x14,800022bc	 x18:0x00000000 x14:0x80009fc4
       81105000	      8109	80002290	00aa5c63	bge	x20,x10,800022a8	 x20:0x00000100 x10:0xfffffe0f
       81115000	      8110	00000000	00000013	addi	x0,x0,0	  x0:0x00000000
       81125000	      8111	800022a4	00000013	addi	x0,x0,0	  x0:0x00000000
       81135000	      8112	800022a8	01819b93	slli	x23,x3,0x18	  x3:0x9eb7ff50 x23=0x50000000
       81145000	      8113	800022ac	84504c13	xori	x24,x0,-1979	  x0:0x00000000 x24=0xfffff845
       81155000	      8114	800022b0	00000013	addi	x0,x0,0	  x0:0x00000000
       81165000	      8115	800022b4	03e6ce63	blt	x13,x30,800022f0	 x13:0xffffffed x30:0x80009f50
       81175000	      8116	800022b8	41a680b3	sub	x1,x13,x26	 x13:0xffffffed x26:0x0000000b  x1=0xffffffe2
       81185000	      8117	800022bc	00625fb3	srl	x31,x4,x6	  x4:0x00000000  x6:0xfffffb1c x31=0x00000000
       81195000	      8118	800022c0	01cfe6b3	or	x13,x31,x28	 x31:0x00000000 x28:0xfda0024d x13=0xfda0024d
       81205000	      8119	800022c4	01f0e133	or	x2,x1,x31	  x1:0xffffffe2 x31:0x00000000  x2=0xffffffe2
       81215000	      8120	800022c8	fbe53b93	sltiu	x23,x10,-66	 x10:0xfffffe0f x23=0x00000001
       81225000	      8121	800022cc	01c3aa33	slt	x20,x7,x28	  x7:0x60f3b3e9 x28:0xfda0024d x20=0x00000000
       81235000	      8122	800022d0	107ba293	slti	x5,x23,263	 x23:0x00000001  x5=0x00000001
       81245000	      8123	800022d4	485af497	auipc	x9,0x485af	  x9=0xc85b12d0
       81255000	      8124	800022d8	002d01b3	add	x3,x26,x2	 x26:0x0000000b  x2:0xffffffe2  x3=0xffffffed
       81265000	      8125	800022dc	bdb07593	andi	x11,x0,-1061	  x0:0x00000000 x11=0x00000000
       81275000	      8126	800022e0	25d2f193	andi	x3,x5,605	  x5:0x00000001  x3=0x00000001
       81285000	      8127	800022e4	00b2e5b3	or	x11,x5,x11	  x5:0x00000001 x11:0x00000000 x11=0x00000001
       81295000	      8128	800022e8	d8c77193	andi	x3,x14,-628	 x14:0x80009fc4  x3=0x80009d84
       81305000	      8129	800022ec	a94c4093	xori	x1,x24,-1388	 x24:0xfffff845  x1=0x000002d1
       81315000	      8130	800022f0	0102de13	srli	x28,x5,0x10	  x5:0x00000001 x28=0x00000000
       81325000	      8131	800022f4	9701f893	andi	x17,x3,-1680	  x3:0x80009d84 x17=0x80009900
       81335000	      8132	800022f8	01a60db3	add	x27,x12,x26	 x12:0xffffffff x26:0x0000000b x27=0x0000000a
       81345000	      8133	800022fc	011d5393	srli	x7,x26,0x11	 x26:0x0000000b  x7=0x00000000
       81355000	      8134	80002300	00000013	addi	x0,x0,0	  x0:0x00000000
       81365000	      8135	80002304	01bb53b3	srl	x7,x22,x27	 x22:0xfffffda0 x27:0x0000000a  x7=0x003fffff
       81375000	      8136	80002308	01f9ca63	blt	x19,x31,8000231c	 x19:0x80009d5f x31:0x00000000
       81385000	      8137	00000000	00000013	addi	x0,x0,0	  x0:0x00000000
       81395000	      8138	80002318	00000013	addi	x0,x0,0	  x0:0x00000000
       81405000	      8139	8000231c	00000013	addi	x0,x0,0	  x0:0x00000000
       81415000	      8140	80002320	019adc63	bge	x21,x25,80002338	 x21:0x0c919000 x25:0x00000000
       81425000	      8141	00000000	00000013	addi	x0,x0,0	  x0:0x00000000
       81435000	      8142	80002334	00000013	addi	x0,x0,0	  x0:0x00000000
       81445000	      8143	80002338	00799313	slli	x6,x19,0x7	 x19:0x80009d5f  x6=0x004eaf80
       81455000	      8144	8000233c	019a91b3	sll	x3,x21,x25	 x21:0x0c919000 x25:0x00000000  x3=0x0c919000
       81465000	      8145	80002340	000ddb33	srl	x22,x27,x0	 x27:0x0000000a  x0:0x00000000 x22=0x0000000a
       81475000	      8146	80002344	01394233	xor	x4,x18,x19	 x18:0x00000000 x19:0x80009d5f  x4=0x80009d5f
       81485000	      8147	80002348	01d2c533	xor	x10,x5,x29	  x5:0x00000001 x29:0x00000000 x10=0x00000001
       81495000	      8148	8000234c	0076f3b3	and	x7,x13,x7	 x13:0xfda0024d  x7:0x003fffff  x7=0x0020024d
       81505000	      8149	80002350	00076463	bltu	x14,x0,80002358	 x14:0x80009fc4  x0:0x00000000
       81515000	      8150	80002354	003b1313	slli	x6,x22,0x3	 x22:0x0000000a  x6=0x00000050
       81525000	      8151	80002358	0158da63	bge	x17,x21,8000236c	 x17:0x80009900 x21:0x0c919000
       81535000	      8152	8000235c	006dc1b3	xor	x3,x27,x6	 x27:0x0000000a  x6:0x00000050  x3=0x0000005a
       81545000	      8153	80002360	02d81c63	bne	x16,x13,80002398	 x16:0x9eb7fe40 x13:0xfda0024d
       81555000	      8154	00000000	00000013	addi	x0,x0,0	  x0:0x00000000
       81565000	      8155	80002394	00000013	addi	x0,x0,0	  x0:0x00000000
       81575000	      8156	80002398	018103b3	add	x7,x2,x24	  x2:0xffffffe2 x24:0xfffff845  x7=0xfffff827
       81585000	      8157	8000239c	01cc32b3	sltu	x5,x24,x28	 x24:0xfffff845 x28:0x00000000  x5=0x00000000
       81595000	      8158	800023a0	951eb397	auipc	x7,0x951eb	  x7=0x151ed39c
       81605000	      8159	800023a4	000f0c63	beq	x30,x0,800023bc	 x30:0x80009f50  x0:0x00000000
       81615000	      8160	800023a8	4059d993	srai	x19,x19,0x5	 x19:0x80009d5f x19=0xfc0004ea
       81625000	      8161	800023ac	0116c933	xor	x18,x13,x17	 x13:0xfda0024d x17:0x80009900 x18=0x7da09b4d
       81635000	      8162	800023b0	00b489b3	add	x19,x9,x11	  x9:0xc85b12d0 x11:0x00000001 x19=0xc85b12d1
       81645000	      8163	800023b4	2b4ec437	lui	x8,0x2b4ec	  x8=0x2b4ec000
       81655000	      8164	800023b8	0170aab3	slt	x21,x1,x23	  x1:0x000002d1 x23:0x00000001 x21=0x00000000
       81665000	      8165	800023bc	0f8bacb7	lui	x25,0xf8ba	 x25=0x0f8ba000
       81675000	      8166	800023c0	02350863	beq	x10,x3,800023f0	 x10:0x00000001  x3:0x0000005a
       81685000	      8167	800023c4	09577c93	andi	x25,x14,149	 x14:0x80009fc4 x25=0x00000084
       81695000	      8168	800023c8	fb61d537	lui	x10,0xfb61d	 x10=0xfb61d000
       81705000	      8169	800023cc	01f45033	srl	x0,x8,x31	  x8:0x2b4ec000 x31:0x00000000
       81715000	      8170	800023d0	002f9213	slli	x4,x31,0x2	 x31:0x00000000  x4=0x00000000
       81725000	      8171	800023d4	0009afb3	slt	x31,x19,x0	 x19:0xc85b12d1  x0:0x00000000 x31=0x00000001
       81735000	      8172	800023d8	00000013	addi	x0,x0,0	  x0:0x00000000
       81745000	      8173	800023dc	00000013	addi	x0,x0,0	  x0:0x00000000
       81755000	      8174	800023e0	b2383593	sltiu	x11,x16,-1245	 x16:0x9eb7fe40 x11=0x00000001
       81765000	      8175	800023e4	01f97a33	and	x20,x18,x31	 x18:0x7da09b4d x31:0x00000001 x20=0x00000001
       81775000	      8176	800023e8	00c243b3	xor	x7,x4,x12	  x4:0x00000000 x12:0xffffffff  x7=0xffffffff
       81785000	      8177	800023ec	00000013	addi	x0,x0,0	  x0:0x00000000
       81795000	      8178	800023f0	64db6893	ori	x17,x22,1613	 x22:0x0000000a x17=0x0000064f
       81805000	      8179	800023f4	413e01b3	sub	x3,x28,x19	 x28:0x00000000 x19:0xc85b12d1  x3=0x37a4ed2f
       81815000	      8180	800023f8	806a8193	addi	x3,x21,-2042	 x21:0x00000000  x3=0xfffff806
       81825000	      8181	800023fc	005b5e13	srli	x28,x22,0x5	 x22:0x0000000a x28=0x00000000
       81835000	      8182	80002400	00000013	addi	x0,x0,0	  x0:0x00000000
       81845000	      8183	80002404	d7112b13	slti	x22,x2,-655	  x2:0xffffffe2 x22=0x00000000
       81855000	      8184	80002408	01767c63	bgeu	x12,x23,80002420	 x12:0xffffffff x23:0x00000001
       81865000	      8185	00000000	00000013	addi	x0,x0,0	  x0:0x00000000
       81875000	      8186	8000241c	00000013	addi	x0,x0,0	  x0:0x00000000
       81885000	      8187	80002420	3ad32a13	slti	x20,x6,941	  x6:0x00000050 x20=0x00000001
       81895000	      8188	80002424	41648b33	sub	x22,x9,x22	  x9:0xc85b12d0 x22:0x00000000 x22=0xc85b12d0
       81905000	      8189	80002428	0160aa33	slt	x20,x1,x22	  x1:0x000002d1 x22:0xc85b12d0 x20=0x00000000
       81915000	      8190	8000242c	01033fb3	sltu	x31,x6,x16	  x6:0x00000050 x16:0x9eb7fe40 x31=0x00000001
       81925000	      8191	80002430	005e91b3	sll	x3,x29,x5	 x29:0x00000000  x5:0x00000000  x3=0x00000000
       81935000	      8192	80002434	7c519c97	auipc	x25,0x7c519	 x25=0xfc51b430
       81945000	      8193	80002438	003b58b3	srl	x17,x22,x3	 x22:0xc85b12d0  x3:0x00000000 x17=0xc85b12d0
       81955000	      8194	8000243c	00000013	addi	x0,x0,0	  x0:0x00000000
       81965000	      8195	80002440	41275293	srai	x5,x14,0x12	 x14:0x80009fc4  x5=0xffffe000
       81975000	      8196	80002444	01158e33	add	x28,x11,x17	 x11:0x00000001 x17:0xc85b12d0 x28=0xc85b12d1
       81985000	      8197	80002448	009810b3	sll	x1,x16,x9	 x16:0x9eb7fe40  x9:0xc85b12d0  x1=0xfe400000
       81995000	      8198	8000244c	0181a433	slt	x8,x3,x24	  x3:0x00000000 x24:0xfffff845  x8=0x00000000
       82005000	      8199	80002450	00ffb533	sltu	x10,x31,x15	 x31:0x00000001 x15:0x0c919000 x10=0x00000001
       82015000	      8200	80002454	e1d05517	auipc	x10,0xe1d05	 x10=0x61d07450
       82025000	      8201	80002458	00ef2db3	slt	x27,x30,x14	 x30:0x80009f50 x14:0x80009fc4 x27=0x00000001
       82035000	      8202	8000245c	6d5c6d93	ori	x27,x24,1749	 x24:0xfffff845 x27=0xfffffed5
       82045000	      8203	80002460	00047bb3	and	x23,x8,x0	  x8:0x00000000  x0:0x00000000 x23=0x00000000
       82055000	      8204	80002464	019b9413	slli	x8,x23,0x19	 x23:0x00000000  x8=0x00000000
       82065000	      8205	80002468	4006dc13	srai	x24,x13,0x0	 x13:0xfda0024d x24=0xfda0024d
       82075000	      8206	8000246c	0238c263	blt	x17,x3,80002490	 x17:0xc85b12d0  x3:0x00000000
       82085000	      8207	00000000	00000013	addi	x0,x0,0	  x0:0x00000000
       82095000	      8208	8000248c	00000013	addi	x0,x0,0	  x0:0x00000000
       82105000	      8209	80002490	01638863	beq	x7,x22,800024a0	  x7:0xffffffff x22:0xc85b12d0
       82115000	      8210	80002494	006502b3	add	x5,x10,x6	 x10:0x61d07450  x6:0x00000050  x5=0x61d074a0
       82125000	      8211	80002498	28f9a197	auipc	x3,0x28f9a	  x3=0xa8f9c494
       82135000	      8212	8000249c	405b8433	sub	x8,x23,x5	 x23:0x00000000  x5:0x61d074a0  x8=0x9e2f8b60
       82145000	      8213	800024a0	09363893	sltiu	x17,x12,147	 x12:0xffffffff x17=0x00000000
       82155000	      8214	800024a4	015a1013	slli	x0,x20,0x15	 x20:0x00000000
       82165000	      8215	800024a8	05010663	beq	x2,x16,800024f4	  x2:0xffffffe2 x16:0x9eb7fe40
       82175000	      8216	800024ac	00211f93	slli	x31,x2,0x2	  x2:0xffffffe2 x31=0xffffff88
       82185000	      8217	800024b0	01c42633	slt	x12,x8,x28	  x8:0x9e2f8b60 x28:0xc85b12d1 x12=0x00000001
       82195000	      8218	800024b4	00fdd913	srli	x18,x27,0xf	 x27:0xfffffed5 x18=0x0001ffff
       82205000	      8219	800024b8	00727bb3	and	x23,x4,x7	  x4:0x00000000  x7:0xffffffff x23=0x00000000
       82215000	      8220	800024bc	00ec46b3	xor	x13,x24,x14	 x24:0xfda0024d x14:0x80009fc4 x13=0x7da09d89
       82225000	      8221	800024c0	038cf863	bgeu	x25,x24,800024f0	 x25:0xfc51b430 x24:0xfda0024d
       82235000	      8222	800024c4	00625193	srli	x3,x4,0x6	  x4:0x00000000  x3=0x00000000
       82245000	      8223	800024c8	999bc793	xori	x15,x23,-1639	 x23:0x00000000 x15=0xfffff999
       82255000	      8224	800024cc	031d9463	bne	x27,x17,800024f4	 x27:0xfffffed5 x17:0x00000000
       82265000	      8225	00000000	00000013	addi	x0,x0,0	  x0:0x00000000
       82275000	      8226	800024f0	00000013	addi	x0,x0,0	  x0:0x00000000
       82285000	      8227	800024f4	00453ab3	sltu	x21,x10,x4	 x10:0x61d07450  x4:0x00000000 x21=0x00000000
       82295000	      8228	800024f8	418c5293	srai	x5,x24,0x18	 x24:0xfda0024d  x5=0xfffffffd
       82305000	      8229	800024fc	01e60233	add	x4,x12,x30	 x12:0x00000001 x30:0x80009f50  x4=0x80009f51
       82315000	      8230	80002500	00ff1bb3	sll	x23,x30,x15	 x30:0x80009f50 x15:0xfffff999 x23=0xa0000000
       82325000	      8231	80002504	a9604693	xori	x13,x0,-1386	  x0:0x00000000 x13=0xfffffa96
       82335000	      8232	80002508	01f23b33	sltu	x22,x4,x31	  x4:0x80009f51 x31:0xffffff88 x22=0x00000001
       82345000	      8233	8000250c	00c0feb3	and	x29,x1,x12	  x1:0xfe400000 x12:0x00000001 x29=0x00000000
       82355000	      8234	80002510	f5f8cf93	xori	x31,x17,-161	 x17:0x00000000 x31=0xffffff5f
       82365000	      8235	80002514	8fd38113	addi	x2,x7,-1795	  x7:0xffffffff  x2=0xfffff8fc
       82375000	      8236	80002518	005955b3	srl	x11,x18,x5	 x18:0x0001ffff  x5:0xfffffffd x11=0x00000000
       82385000	      8237	8000251c	40d95013	srai	x0,x18,0xd	 x18:0x0001ffff
       82395000	      8238	80002520	405e85b3	sub	x11,x29,x5	 x29:0x00000000  x5:0xfffffffd x11=0x00000003
       82405000	      8239	80002524	01051913	slli	x18,x10,0x10	 x10:0x61d07450 x18=0x74500000
       82415000	      8240	80002528	ea4fe5ef	jal	x11,80002528	 x11=0x80002528
       82425000	      8241	00000000	00000013	addi	x0,x0,0	  x0:0x00000000
       82435000	      8242	80000bc8	00000013	addi	x0,x0,0	  x0:0x00000000
       82445000	      8243	80000bcc	fe4f0f13	addi	x30,x30,-28	 x30:0x80009f50 x30=0x80009f34
       82455000	      8244	80000bd0	1af5eeb7	lui	x29,0x1af5e	 x29=0x1af5e000
       82465000	      8245	80000bd4	00bf2223	sw	x11,4(x30)	 x30:0x80009f34 x11:0x80002528 PA:0x80009f38
       82475000	      8246	80000bd8	00759633	sll	x12,x11,x7	 x11:0x80002528  x7:0xffffffff x12=0x00000000
       82485000	      8247	80000bdc	011174b3	and	x9,x2,x17	  x2:0xfffff8fc x17:0x00000000  x9=0x00000000
       82495000	      8248	80000be0	013407b3	add	x15,x8,x19	  x8:0x9e2f8b60 x19:0xc85b12d1 x15=0x668a9e31
       82505000	      8249	80000be4	015340b3	xor	x1,x6,x21	  x6:0x00000050 x21:0x00000000  x1=0x00000050
       82515000	      8250	80000be8	01b4ebb3	or	x23,x9,x27	  x9:0x00000000 x27:0xfffffed5 x23=0xfffffed5
       82525000	      8251	80000bec	798e3593	sltiu	x11,x28,1944	 x28:0xc85b12d1 x11=0x00000000
       82535000	      8252	80000bf0	9c70e093	ori	x1,x1,-1593	  x1:0x00000050  x1=0xfffff9d7
       82545000	      8253	80000bf4	00e556b3	srl	x13,x10,x14	 x10:0x61d07450 x14:0x80009fc4 x13=0x061d0745
       82555000	      8254	80000bf8	950ca793	slti	x15,x25,-1712	 x25:0xfc51b430 x15=0x00000001
       82565000	      8255	80000bfc	01a25033	srl	x0,x4,x26	  x4:0x80009f51 x26:0x0000000b
       82575000	      8256	80000c00	a8382937	lui	x18,0xa8382	 x18=0xa8382000
       82585000	      8257	80000c04	3b688a13	addi	x20,x17,950	 x17:0x00000000 x20=0x000003b6
       82595000	      8258	80000c08	d41ff5ef	jal	x11,80000c08	 x11=0x80000c08
       82605000	      8259	00000000	00000013	addi	x0,x0,0	  x0:0x00000000
       82615000	      8260	80000944	00000013	addi	x0,x0,0	  x0:0x00000000
       82625000	      8261	80000948	018e7463	bgeu	x28,x24,80000950	 x28:0xc85b12d1 x24:0xfda0024d
       82635000	      8262	8000094c	7e717213	andi	x4,x2,2023	  x2:0xfffff8fc  x4=0x000000e4
       82645000	      8263	80000950	fd4f0f13	addi	x30,x30,-44	 x30:0x80009f34 x30=0x80009f08
       82655000	      8264	80000954	00bf2223	sw	x11,4(x30)	 x30:0x80009f08 x11:0x80000c08 PA:0x80009f0c
       82665000	      8265	80000958	012e7433	and	x8,x28,x18	 x28:0xc85b12d1 x18:0xa8382000  x8=0x88180000
       82675000	      8266	8000095c	01fff0b3	and	x1,x31,x31	 x31:0xffffff5f x31:0xffffff5f  x1=0xffffff5f
       82685000	      8267	80000960	00700c13	addi	x24,x0,7	  x0:0x00000000 x24=0x00000007
       82695000	      8268	80000964	00669a13	slli	x20,x13,0x6	 x13:0x061d0745 x20=0x8741d140
       82705000	      8269	80000968	37f70693	addi	x13,x14,895	 x14:0x80009fc4 x13=0x8000a343
       82715000	      8270	8000096c	9d224593	xori	x11,x4,-1582	  x4:0x000000e4 x11=0xfffff936
       82725000	      8271	80000970	00900413	addi	x8,x0,9	  x0:0x00000000  x8=0x00000009
       82735000	      8272	80000974	011b3833	sltu	x16,x22,x17	 x22:0x00000001 x17:0x00000000 x16=0x00000000
       82745000	      8273	80000978	00373db3	sltu	x27,x14,x3	 x14:0x80009fc4  x3:0x00000000 x27=0x00000000
       82755000	      8274	8000097c	00e35f93	srli	x31,x6,0xe	  x6:0x00000050 x31=0x00000000
       82765000	      8275	80000980	00b741b3	xor	x3,x14,x11	 x14:0x80009fc4 x11:0xfffff936  x3=0x7fff66f2
       82775000	      8276	80000984	40a7d1b3	sra	x3,x15,x10	 x15:0x00000001 x10:0x61d07450  x3=0x00000000
       82785000	      8277	80000988	004c0c13	addi	x24,x24,4	 x24:0x00000007 x24=0x0000000b
       82795000	      8278	8000098c	00000013	addi	x0,x0,0	  x0:0x00000000
       82805000	      8279	80000990	00a6eb33	or	x22,x13,x10	 x13:0x8000a343 x10:0x61d07450 x22=0xe1d0f753
       82815000	      8280	80000994	fe8c40e3	blt	x24,x8,80000974	 x24:0x0000000b  x8:0x00000009
       82825000	      8281	80000998	41a85213	srai	x4,x16,0x1a	 x16:0x00000000  x4=0x00000000
       82835000	      8282	8000099c	01356633	or	x12,x10,x19	 x10:0x61d07450 x19:0xc85b12d1 x12=0xe9db76d1
       82845000	      8283	800009a0	0001d463	bge	x3,x0,800009a8	  x3:0x00000000  x0:0x00000000
       82855000	      8284	00000000	00000013	addi	x0,x0,0	  x0:0x00000000
       82865000	      8285	800009a4	00000013	addi	x0,x0,0	  x0:0x00000000
       82875000	      8286	800009a8	d0853693	sltiu	x13,x10,-760	 x10:0x61d07450 x13=0x00000001
       82885000	      8287	800009ac	40dc0a33	sub	x20,x24,x13	 x24:0x0000000b x13:0x00000001 x20=0x0000000a
       82895000	      8288	800009b0	406b5bb3	sra	x23,x22,x6	 x22:0xe1d0f753  x6:0x00000050 x23=0xffffe1d0
       82905000	      8289	800009b4	001c04b3	add	x9,x24,x1	 x24:0x0000000b  x1:0xffffff5f  x9=0xffffff6a
       82915000	      8290	800009b8	00811033	sll	x0,x2,x8	  x2:0xfffff8fc  x8:0x00000009
       82925000	      8291	800009bc	01102b33	slt	x22,x0,x17	  x0:0x00000000 x17:0x00000000 x22=0x00000000
       82935000	      8292	800009c0	5b22f893	andi	x17,x5,1458	  x5:0xfffffffd x17=0x000005b0
       82945000	      8293	800009c4	0f786193	ori	x3,x16,247	 x16:0x00000000  x3=0x000000f7
       82955000	      8294	800009c8	801002b7	lui	x5,0x80100	  x5=0x80100000
       82965000	      8295	800009cc	41335333	sra	x6,x6,x19	  x6:0x00000050 x19:0xc85b12d1  x6=0x00000000
       82975000	      8296	800009d0	0587d063	bge	x15,x24,80000a10	 x15:0x00000001 x24:0x0000000b
       82985000	      8297	800009d4	00000013	addi	x0,x0,0	  x0:0x00000000
       82995000	      8298	800009d8	0246d863	bge	x13,x4,80000a08	 x13:0x00000001  x4:0x00000000
       83005000	      8299	00000000	00000013	addi	x0,x0,0	  x0:0x00000000
       83015000	      8300	80000a04	00000013	addi	x0,x0,0	  x0:0x00000000
       83025000	      8301	80000a08	4181d833	sra	x16,x3,x24	  x3:0x000000f7 x24:0x0000000b x16=0x00000000
       83035000	      8302	80000a0c	414e5793	srai	x15,x28,0x14	 x28:0xc85b12d1 x15=0xfffffc85
       83045000	      8303	80000a10	ed41b293	sltiu	x5,x3,-300	  x3:0x000000f7  x5=0x00000001
       83055000	      8304	80000a14	feea2697	auipc	x13,0xfeea2	 x13=0x7eea2a10
       83065000	      8305	80000a18	0384d463	bge	x9,x24,80000a40	  x9:0xffffff6a x24:0x0000000b
       83075000	      8306	80000a1c	01cdfb33	and	x22,x27,x28	 x27:0x00000000 x28:0xc85b12d1 x22=0x00000000
       83085000	      8307	80000a20	91953c13	sltiu	x24,x10,-1767	 x10:0x61d07450 x24=0x00000001
       83095000	      8308	80000a24	05093593	sltiu	x11,x18,80	 x18:0xa8382000 x11=0x00000000
       83105000	      8309	80000a28	015b0233	add	x4,x22,x21	 x22:0x00000000 x21:0x00000000  x4=0x00000000
       83115000	      8310	80000a2c	41bf5e33	sra	x28,x30,x27	 x30:0x80009f08 x27:0x00000000 x28=0x80009f08
       83125000	      8311	80000a30	41eed433	sra	x8,x29,x30	 x29:0x1af5e000 x30:0x80009f08  x8=0x001af5e0
       83135000	      8312	80000a34	65f98393	addi	x7,x19,1631	 x19:0xc85b12d1  x7=0xc85b1930
       83145000	      8313	80000a38	9944f693	andi	x13,x9,-1644	  x9:0xffffff6a x13=0xfffff900
       83155000	      8314	80000a3c	01825813	srli	x16,x4,0x18	  x4:0x00000000 x16=0x00000000
       83165000	      8315	80000a40	8c638493	addi	x9,x7,-1850	  x7:0xc85b1930  x9=0xc85b11f6
       83175000	      8316	80000a44	058e1863	bne	x28,x24,80000a94	 x28:0x80009f08 x24:0x00000001
       83185000	      8317	00000000	00000013	addi	x0,x0,0	  x0:0x00000000
       83195000	      8318	80000a90	00000013	addi	x0,x0,0	  x0:0x00000000
       83205000	      8319	80000a94	03dbf463	bgeu	x23,x29,80000abc	 x23:0xffffe1d0 x29:0x1af5e000
       83215000	      8320	00000000	00000013	addi	x0,x0,0	  x0:0x00000000
       83225000	      8321	80000ab8	00000013	addi	x0,x0,0	  x0:0x00000000
       83235000	      8322	80000abc	99185697	auipc	x13,0x99185	 x13=0x19185ab8
       83245000	      8323	80000ac0	0198e333	or	x6,x17,x25	 x17:0x000005b0 x25:0xfc51b430  x6=0xfc51b5b0
       83255000	      8324	80000ac4	01f560b3	or	x1,x10,x31	 x10:0x61d07450 x31:0x00000000  x1=0x61d07450
       83265000	      8325	80000ac8	004fc033	xor	x0,x31,x4	 x31:0x00000000  x4:0x00000000
       83275000	      8326	80000acc	9f14cdb7	lui	x27,0x9f14c	 x27=0x9f14c000
       83285000	      8327	80000ad0	003a6433	or	x8,x20,x3	 x20:0x0000000a  x3:0x000000f7  x8=0x000000ff
       83295000	      8328	80000ad4	017e8833	add	x16,x29,x23	 x29:0x1af5e000 x23:0xffffe1d0 x16=0x1af5c1d0
       83305000	      8329	80000ad8	23f5f613	andi	x12,x11,575	 x11:0x00000000 x12=0x00000000
       83315000	      8330	80000adc	00479663	bne	x15,x4,80000ae8	 x15:0xfffffc85  x4:0x00000000
       83325000	      8331	00000000	00000013	addi	x0,x0,0	  x0:0x00000000
       83335000	      8332	80000ae4	00000013	addi	x0,x0,0	  x0:0x00000000
       83345000	      8333	80000ae8	4c98ec97	auipc	x25,0x4c98e	 x25=0xcc98eae4
       83355000	      8334	80000aec	bdbc47b7	lui	x15,0xbdbc4	 x15=0xbdbc4000
       83365000	      8335	80000af0	00339333	sll	x6,x7,x3	  x7:0xc85b1930  x3:0x000000f7  x6=0x98000000
       83375000	      8336	80000af4	00cdf463	bgeu	x27,x12,80000afc	 x27:0x9f14c000 x12:0x00000000
       83385000	      8337	00000000	00000013	addi	x0,x0,0	  x0:0x00000000
       83395000	      8338	80000af8	00000013	addi	x0,x0,0	  x0:0x00000000
       83405000	      8339	80000afc	affd3193	sltiu	x3,x26,-1281	 x26:0x0000000b  x3=0x00000001
       83415000	      8340	80000b00	01416a33	or	x20,x2,x20	  x2:0xfffff8fc x20:0x0000000a x20=0xfffff8fe
       83425000	      8341	80000b04	00126633	or	x12,x4,x1	  x4:0x00000000  x1:0x61d07450 x12=0x61d07450
       83435000	      8342	80000b08	004f2583	lw	x11,4(x30)	 x30:0x80009f08 x11=0x80000c08 PA:0x80009f0c
       83445000	      8343	80000b0c	a918e693	ori	x13,x17,-1391	 x17:0x000005b0 x13=0xffffffb1
       83455000	      8344	80000b10	02cf0f13	addi	x30,x30,44	 x30:0x80009f08 x30=0x80009f34
       83465000	      8345	80000b14	012b6633	or	x12,x22,x18	 x22:0x00000000 x18:0xa8382000 x12=0xa8382000
       83475000	      8346	80000b18	414a5e13	srai	x28,x20,0x14	 x20:0xfffff8fe x28=0xffffffff
       83485000	      8347	80000b1c	00158313	addi	x6,x11,1	 x11:0x80000c08  x6=0x80000c09
       83495000	      8348	80000b20	00030367	jalr	x6,x6,0	  x6:0x80000c09  x6=0x80000b20
       83505000	      8349	00000000	00000013	addi	x0,x0,0	  x0:0x00000000
       83515000	      8350	80000c08	00000013	addi	x0,x0,0	  x0:0x00000000
       83525000	      8351	80000c0c	00100593	addi	x11,x0,1	  x0:0x00000000 x11=0x00000001
       83535000	      8352	80000c10	01000413	addi	x8,x0,16	  x0:0x00000000  x8=0x00000010
       83545000	      8353	80000c14	41e38333	sub	x6,x7,x30	  x7:0xc85b1930 x30:0x80009f34  x6=0x485a79fc
       83555000	      8354	80000c18	41490cb3	sub	x25,x18,x20	 x18:0xa8382000 x20:0xfffff8fe x25=0xa8382702
       83565000	      8355	80000c1c	01380eb3	add	x29,x16,x19	 x16:0x1af5c1d0 x19:0xc85b12d1 x29=0xe350d4a1
       83575000	      8356	80000c20	00000013	addi	x0,x0,0	  x0:0x00000000
       83585000	      8357	80000c24	00858593	addi	x11,x11,8	 x11:0x00000001 x11=0x00000009
       83595000	      8358	80000c28	00d3d313	srli	x6,x7,0xd	  x7:0xc85b1930  x6=0x000642d8
       83605000	      8359	80000c2c	00400e13	addi	x28,x0,4	  x0:0x00000000 x28=0x00000004
       83615000	      8360	80000c30	005bc4b3	xor	x9,x23,x5	 x23:0xffffe1d0  x5:0x00000001  x9=0xffffe1d1
       83625000	      8361	80000c34	00300b13	addi	x22,x0,3	  x0:0x00000000 x22=0x00000003
       83635000	      8362	80000c38	01cb7fb3	and	x31,x22,x28	 x22:0x00000003 x28:0x00000004 x31=0x00000000
       83645000	      8363	80000c3c	01824833	xor	x16,x4,x24	  x4:0x00000000 x24:0x00000001 x16=0x00000001
       83655000	      8364	80000c40	40195bb3	sra	x23,x18,x1	 x18:0xa8382000  x1:0x61d07450 x23=0xffffa838
       83665000	      8365	80000c44	ffee0e13	addi	x28,x28,-2	 x28:0x00000004 x28=0x00000002
       83675000	      8366	80000c48	8af6a013	slti	x0,x13,-1873	 x13:0xffffffb1
       83685000	      8367	80000c4c	ff6e76e3	bgeu	x28,x22,80000c38	 x28:0x00000002 x22:0x00000003
       83695000	      8368	80000c50	3bc6b793	sltiu	x15,x13,956	 x13:0xffffffb1 x15=0x00000000
       83705000	      8369	80000c54	fc85c2e3	blt	x11,x8,80000c18	 x11:0x00000009  x8:0x00000010
       83715000	      8370	00000000	00000013	addi	x0,x0,0	  x0:0x00000000
       83725000	      8371	80000c14	00000013	addi	x0,x0,0	  x0:0x00000000
       83735000	      8372	80000c18	41490cb3	sub	x25,x18,x20	 x18:0xa8382000 x20:0xfffff8fe x25=0xa8382702
       83745000	      8373	80000c1c	01380eb3	add	x29,x16,x19	 x16:0x00000001 x19:0xc85b12d1 x29=0xc85b12d2
       83755000	      8374	80000c20	00000013	addi	x0,x0,0	  x0:0x00000000
       83765000	      8375	80000c24	00858593	addi	x11,x11,8	 x11:0x00000009 x11=0x00000011
       83775000	      8376	80000c28	00d3d313	srli	x6,x7,0xd	  x7:0xc85b1930  x6=0x000642d8
       83785000	      8377	80000c2c	00400e13	addi	x28,x0,4	  x0:0x00000000 x28=0x00000004
       83795000	      8378	80000c30	005bc4b3	xor	x9,x23,x5	 x23:0xffffa838  x5:0x00000001  x9=0xffffa839
       83805000	      8379	80000c34	00300b13	addi	x22,x0,3	  x0:0x00000000 x22=0x00000003
       83815000	      8380	80000c38	01cb7fb3	and	x31,x22,x28	 x22:0x00000003 x28:0x00000004 x31=0x00000000
       83825000	      8381	80000c3c	01824833	xor	x16,x4,x24	  x4:0x00000000 x24:0x00000001 x16=0x00000001
       83835000	      8382	80000c40	40195bb3	sra	x23,x18,x1	 x18:0xa8382000  x1:0x61d07450 x23=0xffffa838
       83845000	      8383	80000c44	ffee0e13	addi	x28,x28,-2	 x28:0x00000004 x28=0x00000002
       83855000	      8384	80000c48	8af6a013	slti	x0,x13,-1873	 x13:0xffffffb1
       83865000	      8385	80000c4c	ff6e76e3	bgeu	x28,x22,80000c38	 x28:0x00000002 x22:0x00000003
       83875000	      8386	80000c50	3bc6b793	sltiu	x15,x13,956	 x13:0xffffffb1 x15=0x00000000
       83885000	      8387	80000c54	fc85c2e3	blt	x11,x8,80000c18	 x11:0x00000011  x8:0x00000010
       83895000	      8388	80000c58	0039a4b3	slt	x9,x19,x3	 x19:0xc85b12d1  x3:0x00000001  x9=0x00000001
       83905000	      8389	80000c5c	00a00413	addi	x8,x0,10	  x0:0x00000000  x8=0x0000000a
       83915000	      8390	80000c60	39bcbc37	lui	x24,0x39bcb	 x24=0x39bcb000
       83925000	      8391	80000c64	00b00593	addi	x11,x0,11	  x0:0x00000000 x11=0x0000000b
       83935000	      8392	80000c68	ec5feb93	ori	x23,x31,-315	 x31:0x00000000 x23=0xfffffec5
       83945000	      8393	80000c6c	0184c0b3	xor	x1,x9,x24	  x9:0x00000001 x24:0x39bcb000  x1=0x39bcb001
       83955000	      8394	80000c70	17ed8493	addi	x9,x27,382	 x27:0x9f14c000  x9=0x9f14c17e
       83965000	      8395	80000c74	0096d513	srli	x10,x13,0x9	 x13:0xffffffb1 x10=0x007fffff
       83975000	      8396	80000c78	00940413	addi	x8,x8,9	  x8:0x0000000a  x8=0x00000013
       83985000	      8397	80000c7c	000ef333	and	x6,x29,x0	 x29:0xc85b12d2  x0:0x00000000  x6=0x00000000
       83995000	      8398	80000c80	005db0b3	sltu	x1,x27,x5	 x27:0x9f14c000  x5:0x00000001  x1=0x00000000
       84005000	      8399	80000c84	ffd00e93	addi	x29,x0,-3	  x0:0x00000000 x29=0xfffffffd
       84015000	      8400	80000c88	0eb32c13	slti	x24,x6,235	  x6:0x00000000 x24=0x00000001
       84025000	      8401	80000c8c	ff100b13	addi	x22,x0,-15	  x0:0x00000000 x22=0xfffffff1
       84035000	      8402	80000c90	2c30c213	xori	x4,x1,707	  x1:0x00000000  x4=0x000002c3
       84045000	      8403	80000c94	40e00333	sub	x6,x0,x14	  x0:0x00000000 x14:0x80009fc4  x6=0x7fff603c
       84055000	      8404	80000c98	ffde8e93	addi	x29,x29,-3	 x29:0xfffffffd x29=0xfffffffa
       84065000	      8405	80000c9c	ea8080b7	lui	x1,0xea808	  x1=0xea808000
       84075000	      8406	80000ca0	134bee13	ori	x28,x23,308	 x23:0xfffffec5 x28=0xfffffff5
       84085000	      8407	80000ca4	ff6e96e3	bne	x29,x22,80000c90	 x29:0xfffffffa x22:0xfffffff1
       84095000	      8408	00000000	00000013	addi	x0,x0,0	  x0:0x00000000
       84105000	      8409	80000c8c	00000013	addi	x0,x0,0	  x0:0x00000000
       84115000	      8410	80000c90	2c30c213	xori	x4,x1,707	  x1:0xea808000  x4=0xea8082c3
       84125000	      8411	80000c94	40e00333	sub	x6,x0,x14	  x0:0x00000000 x14:0x80009fc4  x6=0x7fff603c
       84135000	      8412	80000c98	ffde8e93	addi	x29,x29,-3	 x29:0xfffffffa x29=0xfffffff7
       84145000	      8413	80000c9c	ea8080b7	lui	x1,0xea808	  x1=0xea808000
       84155000	      8414	80000ca0	134bee13	ori	x28,x23,308	 x23:0xfffffec5 x28=0xfffffff5
       84165000	      8415	80000ca4	ff6e96e3	bne	x29,x22,80000c90	 x29:0xfffffff7 x22:0xfffffff1
       84175000	      8416	00000000	00000013	addi	x0,x0,0	  x0:0x00000000
       84185000	      8417	80000c8c	00000013	addi	x0,x0,0	  x0:0x00000000
       84195000	      8418	80000c90	2c30c213	xori	x4,x1,707	  x1:0xea808000  x4=0xea8082c3
       84205000	      8419	80000c94	40e00333	sub	x6,x0,x14	  x0:0x00000000 x14:0x80009fc4  x6=0x7fff603c
       84215000	      8420	80000c98	ffde8e93	addi	x29,x29,-3	 x29:0xfffffff7 x29=0xfffffff4
       84225000	      8421	80000c9c	ea8080b7	lui	x1,0xea808	  x1=0xea808000
       84235000	      8422	80000ca0	134bee13	ori	x28,x23,308	 x23:0xfffffec5 x28=0xfffffff5
       84245000	      8423	80000ca4	ff6e96e3	bne	x29,x22,80000c90	 x29:0xfffffff4 x22:0xfffffff1
       84255000	      8424	00000000	00000013	addi	x0,x0,0	  x0:0x00000000
       84265000	      8425	80000c8c	00000013	addi	x0,x0,0	  x0:0x00000000
       84275000	      8426	80000c90	2c30c213	xori	x4,x1,707	  x1:0xea808000  x4=0xea8082c3
       84285000	      8427	80000c94	40e00333	sub	x6,x0,x14	  x0:0x00000000 x14:0x80009fc4  x6=0x7fff603c
       84295000	      8428	80000c98	ffde8e93	addi	x29,x29,-3	 x29:0xfffffff4 x29=0xfffffff1
       84305000	      8429	80000c9c	ea8080b7	lui	x1,0xea808	  x1=0xea808000
       84315000	      8430	80000ca0	134bee13	ori	x28,x23,308	 x23:0xfffffec5 x28=0xfffffff5
       84325000	      8431	80000ca4	ff6e96e3	bne	x29,x22,80000c90	 x29:0xfffffff1 x22:0xfffffff1
       84335000	      8432	80000ca8	fcb442e3	blt	x8,x11,80000c6c	  x8:0x00000013 x11:0x0000000b
       84345000	      8433	80000cac	76572213	slti	x4,x14,1893	 x14:0x80009fc4  x4=0x00000001
       84355000	      8434	80000cb0	00700813	addi	x16,x0,7	  x0:0x00000000 x16=0x00000007
       84365000	      8435	80000cb4	944df693	andi	x13,x27,-1724	 x27:0x9f14c000 x13=0x9f14c000
       84375000	      8436	80000cb8	692c59b7	lui	x19,0x692c5	 x19=0x692c5000
       84385000	      8437	80000cbc	40a00cb3	sub	x25,x0,x10	  x0:0x00000000 x10:0x007fffff x25=0xff800001
       84395000	      8438	80000cc0	08782893	slti	x17,x16,135	 x16:0x00000007 x17=0x00000001
       84405000	      8439	80000cc4	43226537	lui	x10,0x43226	 x10=0x43226000
       84415000	      8440	80000cc8	ff000213	addi	x4,x0,-16	  x0:0x00000000  x4=0xfffffff0
       84425000	      8441	80000ccc	01ed9033	sll	x0,x27,x30	 x27:0x9f14c000 x30:0x80009f34
       84435000	      8442	80000cd0	010fde33	srl	x28,x31,x16	 x31:0x00000000 x16:0x00000007 x28=0x00000000
       84445000	      8443	80000cd4	40ad0e33	sub	x28,x26,x10	 x26:0x0000000b x10:0x43226000 x28=0xbcdda00b
       84455000	      8444	80000cd8	ffa80813	addi	x16,x16,-6	 x16:0x00000007 x16=0x00000001
       84465000	      8445	80000cdc	403901b3	sub	x3,x18,x3	 x18:0xa8382000  x3:0x00000001  x3=0xa8381fff
       84475000	      8446	80000ce0	002fbeb3	sltu	x29,x31,x2	 x31:0x00000000  x2:0xfffff8fc x29=0x00000001
       84485000	      8447	80000ce4	014c9533	sll	x10,x25,x20	 x25:0xff800001 x20:0xfffff8fe x10=0x40000000
       84495000	      8448	80000ce8	013a8fb3	add	x31,x21,x19	 x21:0x00000000 x19:0x692c5000 x31=0x692c5000
       84505000	      8449	80000cec	ff900d93	addi	x27,x0,-7	  x0:0x00000000 x27=0xfffffff9
       84515000	      8450	80000cf0	018d9a93	slli	x21,x27,0x18	 x27:0xfffffff9 x21=0xf9000000
       84525000	      8451	80000cf4	00d7f533	and	x10,x15,x13	 x15:0x00000000 x13:0x9f14c000 x10=0x00000000
       84535000	      8452	80000cf8	00500413	addi	x8,x0,5	  x0:0x00000000  x8=0x00000005
       84545000	      8453	80000cfc	4167dab3	sra	x21,x15,x22	 x15:0x00000000 x22:0xfffffff1 x21=0x00000000
       84555000	      8454	80000d00	40685e93	srai	x29,x16,0x6	 x16:0x00000001 x29=0x00000000
       84565000	      8455	80000d04	40e7d693	srai	x13,x15,0xe	 x15:0x00000000 x13=0x00000000
       84575000	      8456	80000d08	8283a793	slti	x15,x7,-2008	  x7:0xc85b1930 x15=0x00000001
       84585000	      8457	80000d0c	01305ab3	srl	x21,x0,x19	  x0:0x00000000 x19:0x692c5000 x21=0x00000000
       84595000	      8458	80000d10	52ecb613	sltiu	x12,x25,1326	 x25:0xff800001 x12=0x00000000
       84605000	      8459	80000d14	cc97b593	sltiu	x11,x15,-823	 x15:0x00000001 x11=0x00000001
       84615000	      8460	80000d18	003d8d93	addi	x27,x27,3	 x27:0xfffffff9 x27=0xfffffffc
       84625000	      8461	80000d1c	ebf8fc13	andi	x24,x17,-321	 x17:0x00000001 x24=0x00000001
       84635000	      8462	80000d20	4091d033	sra	x0,x3,x9	  x3:0xa8381fff  x9:0x9f14c17e
       84645000	      8463	80000d24	fe8d86e3	beq	x27,x8,80000d10	 x27:0xfffffffc  x8:0x00000005
       84655000	      8464	80000d28	00f10b33	add	x22,x2,x15	  x2:0xfffff8fc x15:0x00000001 x22=0xfffff8fd
       84665000	      8465	80000d2c	41860333	sub	x6,x12,x24	 x12:0x00000000 x24:0x00000001  x6=0xffffffff
       84675000	      8466	80000d30	fa4852e3	bge	x16,x4,80000cd4	 x16:0x00000001  x4:0xfffffff0
       84685000	      8467	00000000	00000013	addi	x0,x0,0	  x0:0x00000000
       84695000	      8468	80000cd0	00000013	addi	x0,x0,0	  x0:0x00000000
       84705000	      8469	80000cd4	40ad0e33	sub	x28,x26,x10	 x26:0x0000000b x10:0x00000000 x28=0x0000000b
       84715000	      8470	80000cd8	ffa80813	addi	x16,x16,-6	 x16:0x00000001 x16=0xfffffffb
       84725000	      8471	80000cdc	403901b3	sub	x3,x18,x3	 x18:0xa8382000  x3:0xa8381fff  x3=0x00000001
       84735000	      8472	80000ce0	002fbeb3	sltu	x29,x31,x2	 x31:0x692c5000  x2:0xfffff8fc x29=0x00000001
       84745000	      8473	80000ce4	014c9533	sll	x10,x25,x20	 x25:0xff800001 x20:0xfffff8fe x10=0x40000000
       84755000	      8474	80000ce8	013a8fb3	add	x31,x21,x19	 x21:0x00000000 x19:0x692c5000 x31=0x692c5000
       84765000	      8475	80000cec	ff900d93	addi	x27,x0,-7	  x0:0x00000000 x27=0xfffffff9
       84775000	      8476	80000cf0	018d9a93	slli	x21,x27,0x18	 x27:0xfffffff9 x21=0xf9000000
       84785000	      8477	80000cf4	00d7f533	and	x10,x15,x13	 x15:0x00000001 x13:0x00000000 x10=0x00000000
       84795000	      8478	80000cf8	00500413	addi	x8,x0,5	  x0:0x00000000  x8=0x00000005
       84805000	      8479	80000cfc	4167dab3	sra	x21,x15,x22	 x15:0x00000001 x22:0xfffff8fd x21=0x00000000
       84815000	      8480	80000d00	40685e93	srai	x29,x16,0x6	 x16:0xfffffffb x29=0xffffffff
       84825000	      8481	80000d04	40e7d693	srai	x13,x15,0xe	 x15:0x00000001 x13=0x00000000
       84835000	      8482	80000d08	8283a793	slti	x15,x7,-2008	  x7:0xc85b1930 x15=0x00000001
       84845000	      8483	80000d0c	01305ab3	srl	x21,x0,x19	  x0:0x00000000 x19:0x692c5000 x21=0x00000000
       84855000	      8484	80000d10	52ecb613	sltiu	x12,x25,1326	 x25:0xff800001 x12=0x00000000
       84865000	      8485	80000d14	cc97b593	sltiu	x11,x15,-823	 x15:0x00000001 x11=0x00000001
       84875000	      8486	80000d18	003d8d93	addi	x27,x27,3	 x27:0xfffffff9 x27=0xfffffffc
       84885000	      8487	80000d1c	ebf8fc13	andi	x24,x17,-321	 x17:0x00000001 x24=0x00000001
       84895000	      8488	80000d20	4091d033	sra	x0,x3,x9	  x3:0x00000001  x9:0x9f14c17e
       84905000	      8489	80000d24	fe8d86e3	beq	x27,x8,80000d10	 x27:0xfffffffc  x8:0x00000005
       84915000	      8490	80000d28	00f10b33	add	x22,x2,x15	  x2:0xfffff8fc x15:0x00000001 x22=0xfffff8fd
       84925000	      8491	80000d2c	41860333	sub	x6,x12,x24	 x12:0x00000000 x24:0x00000001  x6=0xffffffff
       84935000	      8492	80000d30	fa4852e3	bge	x16,x4,80000cd4	 x16:0xfffffffb  x4:0xfffffff0
       84945000	      8493	00000000	00000013	addi	x0,x0,0	  x0:0x00000000
       84955000	      8494	80000cd0	00000013	addi	x0,x0,0	  x0:0x00000000
       84965000	      8495	80000cd4	40ad0e33	sub	x28,x26,x10	 x26:0x0000000b x10:0x00000000 x28=0x0000000b
       84975000	      8496	80000cd8	ffa80813	addi	x16,x16,-6	 x16:0xfffffffb x16=0xfffffff5
       84985000	      8497	80000cdc	403901b3	sub	x3,x18,x3	 x18:0xa8382000  x3:0x00000001  x3=0xa8381fff
       84995000	      8498	80000ce0	002fbeb3	sltu	x29,x31,x2	 x31:0x692c5000  x2:0xfffff8fc x29=0x00000001
       85005000	      8499	80000ce4	014c9533	sll	x10,x25,x20	 x25:0xff800001 x20:0xfffff8fe x10=0x40000000
       85015000	      8500	80000ce8	013a8fb3	add	x31,x21,x19	 x21:0x00000000 x19:0x692c5000 x31=0x692c5000
       85025000	      8501	80000cec	ff900d93	addi	x27,x0,-7	  x0:0x00000000 x27=0xfffffff9
       85035000	      8502	80000cf0	018d9a93	slli	x21,x27,0x18	 x27:0xfffffff9 x21=0xf9000000
       85045000	      8503	80000cf4	00d7f533	and	x10,x15,x13	 x15:0x00000001 x13:0x00000000 x10=0x00000000
       85055000	      8504	80000cf8	00500413	addi	x8,x0,5	  x0:0x00000000  x8=0x00000005
       85065000	      8505	80000cfc	4167dab3	sra	x21,x15,x22	 x15:0x00000001 x22:0xfffff8fd x21=0x00000000
       85075000	      8506	80000d00	40685e93	srai	x29,x16,0x6	 x16:0xfffffff5 x29=0xffffffff
       85085000	      8507	80000d04	40e7d693	srai	x13,x15,0xe	 x15:0x00000001 x13=0x00000000
       85095000	      8508	80000d08	8283a793	slti	x15,x7,-2008	  x7:0xc85b1930 x15=0x00000001
       85105000	      8509	80000d0c	01305ab3	srl	x21,x0,x19	  x0:0x00000000 x19:0x692c5000 x21=0x00000000
       85115000	      8510	80000d10	52ecb613	sltiu	x12,x25,1326	 x25:0xff800001 x12=0x00000000
       85125000	      8511	80000d14	cc97b593	sltiu	x11,x15,-823	 x15:0x00000001 x11=0x00000001
       85135000	      8512	80000d18	003d8d93	addi	x27,x27,3	 x27:0xfffffff9 x27=0xfffffffc
       85145000	      8513	80000d1c	ebf8fc13	andi	x24,x17,-321	 x17:0x00000001 x24=0x00000001
       85155000	      8514	80000d20	4091d033	sra	x0,x3,x9	  x3:0xa8381fff  x9:0x9f14c17e
       85165000	      8515	80000d24	fe8d86e3	beq	x27,x8,80000d10	 x27:0xfffffffc  x8:0x00000005
       85175000	      8516	80000d28	00f10b33	add	x22,x2,x15	  x2:0xfffff8fc x15:0x00000001 x22=0xfffff8fd
       85185000	      8517	80000d2c	41860333	sub	x6,x12,x24	 x12:0x00000000 x24:0x00000001  x6=0xffffffff
       85195000	      8518	80000d30	fa4852e3	bge	x16,x4,80000cd4	 x16:0xfffffff5  x4:0xfffffff0
       85205000	      8519	00000000	00000013	addi	x0,x0,0	  x0:0x00000000
       85215000	      8520	80000cd0	00000013	addi	x0,x0,0	  x0:0x00000000
       85225000	      8521	80000cd4	40ad0e33	sub	x28,x26,x10	 x26:0x0000000b x10:0x00000000 x28=0x0000000b
       85235000	      8522	80000cd8	ffa80813	addi	x16,x16,-6	 x16:0xfffffff5 x16=0xffffffef
       85245000	      8523	80000cdc	403901b3	sub	x3,x18,x3	 x18:0xa8382000  x3:0xa8381fff  x3=0x00000001
       85255000	      8524	80000ce0	002fbeb3	sltu	x29,x31,x2	 x31:0x692c5000  x2:0xfffff8fc x29=0x00000001
       85265000	      8525	80000ce4	014c9533	sll	x10,x25,x20	 x25:0xff800001 x20:0xfffff8fe x10=0x40000000
       85275000	      8526	80000ce8	013a8fb3	add	x31,x21,x19	 x21:0x00000000 x19:0x692c5000 x31=0x692c5000
       85285000	      8527	80000cec	ff900d93	addi	x27,x0,-7	  x0:0x00000000 x27=0xfffffff9
       85295000	      8528	80000cf0	018d9a93	slli	x21,x27,0x18	 x27:0xfffffff9 x21=0xf9000000
       85305000	      8529	80000cf4	00d7f533	and	x10,x15,x13	 x15:0x00000001 x13:0x00000000 x10=0x00000000
       85315000	      8530	80000cf8	00500413	addi	x8,x0,5	  x0:0x00000000  x8=0x00000005
       85325000	      8531	80000cfc	4167dab3	sra	x21,x15,x22	 x15:0x00000001 x22:0xfffff8fd x21=0x00000000
       85335000	      8532	80000d00	40685e93	srai	x29,x16,0x6	 x16:0xffffffef x29=0xffffffff
       85345000	      8533	80000d04	40e7d693	srai	x13,x15,0xe	 x15:0x00000001 x13=0x00000000
       85355000	      8534	80000d08	8283a793	slti	x15,x7,-2008	  x7:0xc85b1930 x15=0x00000001
       85365000	      8535	80000d0c	01305ab3	srl	x21,x0,x19	  x0:0x00000000 x19:0x692c5000 x21=0x00000000
       85375000	      8536	80000d10	52ecb613	sltiu	x12,x25,1326	 x25:0xff800001 x12=0x00000000
       85385000	      8537	80000d14	cc97b593	sltiu	x11,x15,-823	 x15:0x00000001 x11=0x00000001
       85395000	      8538	80000d18	003d8d93	addi	x27,x27,3	 x27:0xfffffff9 x27=0xfffffffc
       85405000	      8539	80000d1c	ebf8fc13	andi	x24,x17,-321	 x17:0x00000001 x24=0x00000001
       85415000	      8540	80000d20	4091d033	sra	x0,x3,x9	  x3:0x00000001  x9:0x9f14c17e
       85425000	      8541	80000d24	fe8d86e3	beq	x27,x8,80000d10	 x27:0xfffffffc  x8:0x00000005
       85435000	      8542	80000d28	00f10b33	add	x22,x2,x15	  x2:0xfffff8fc x15:0x00000001 x22=0xfffff8fd
       85445000	      8543	80000d2c	41860333	sub	x6,x12,x24	 x12:0x00000000 x24:0x00000001  x6=0xffffffff
       85455000	      8544	80000d30	fa4852e3	bge	x16,x4,80000cd4	 x16:0xffffffef  x4:0xfffffff0
       85465000	      8545	80000d34	000934b3	sltu	x9,x18,x0	 x18:0xa8382000  x0:0x00000000  x9=0x00000000
       85475000	      8546	80000d38	00800813	addi	x16,x0,8	  x0:0x00000000 x16=0x00000008
       85485000	      8547	80000d3c	010478b3	and	x17,x8,x16	  x8:0x00000005 x16:0x00000008 x17=0x00000000
       85495000	      8548	80000d40	0141f3b3	and	x7,x3,x20	  x3:0x00000001 x20:0xfffff8fe  x7=0x00000000
       85505000	      8549	80000d44	0011f3b3	and	x7,x3,x1	  x3:0x00000001  x1:0xea808000  x7=0x00000000
       85515000	      8550	80000d48	01000113	addi	x2,x0,16	  x0:0x00000000  x2=0x00000010
       85525000	      8551	80000d4c	00000013	addi	x0,x0,0	  x0:0x00000000
       85535000	      8552	80000d50	82b03393	sltiu	x7,x0,-2005	  x0:0x00000000  x7=0x00000001
       85545000	      8553	80000d54	0081f7b3	and	x15,x3,x8	  x3:0x00000001  x8:0x00000005 x15=0x00000001
       85555000	      8554	80000d58	d9afb413	sltiu	x8,x31,-614	 x31:0x692c5000  x8=0x00000001
       85565000	      8555	80000d5c	c004c013	xori	x0,x9,-1024	  x9:0x00000000
       85575000	      8556	80000d60	00354333	xor	x6,x10,x3	 x10:0x00000000  x3:0x00000001  x6=0x00000001
       85585000	      8557	80000d64	9cbe8913	addi	x18,x29,-1589	 x29:0xffffffff x18=0xfffff9ca
       85595000	      8558	80000d68	015214b3	sll	x9,x4,x21	  x4:0xfffffff0 x21:0x00000000  x9=0xfffffff0
       85605000	      8559	80000d6c	00480813	addi	x16,x16,4	 x16:0x00000008 x16=0x0000000c
       85615000	      8560	80000d70	b55289b7	lui	x19,0xb5528	 x19=0xb5528000
       85625000	      8561	80000d74	400fd433	sra	x8,x31,x0	 x31:0x692c5000  x0:0x00000000  x8=0x692c5000
       85635000	      8562	80000d78	00b71393	slli	x7,x14,0xb	 x14:0x80009fc4  x7=0x04fe2000
       85645000	      8563	80000d7c	40d7d4b3	sra	x9,x15,x13	 x15:0x00000001 x13:0x00000000  x9=0x00000001
       85655000	      8564	80000d80	00409293	slli	x5,x1,0x4	  x1:0xea808000  x5=0xa8080000
       85665000	      8565	80000d84	0014acb3	slt	x25,x9,x1	  x9:0x00000001  x1:0xea808000 x25=0x00000000
       85675000	      8566	80000d88	012267b3	or	x15,x4,x18	  x4:0xfffffff0 x18:0xfffff9ca x15=0xfffffffa
       85685000	      8567	80000d8c	fc2816e3	bne	x16,x2,80000d58	 x16:0x0000000c  x2:0x00000010
       85695000	      8568	00000000	00000013	addi	x0,x0,0	  x0:0x00000000
       85705000	      8569	80000d54	00000013	addi	x0,x0,0	  x0:0x00000000
       85715000	      8570	80000d58	d9afb413	sltiu	x8,x31,-614	 x31:0x692c5000  x8=0x00000001
       85725000	      8571	80000d5c	c004c013	xori	x0,x9,-1024	  x9:0x00000001
       85735000	      8572	80000d60	00354333	xor	x6,x10,x3	 x10:0x00000000  x3:0x00000001  x6=0x00000001
       85745000	      8573	80000d64	9cbe8913	addi	x18,x29,-1589	 x29:0xffffffff x18=0xfffff9ca
       85755000	      8574	80000d68	015214b3	sll	x9,x4,x21	  x4:0xfffffff0 x21:0x00000000  x9=0xfffffff0
       85765000	      8575	80000d6c	00480813	addi	x16,x16,4	 x16:0x0000000c x16=0x00000010
       85775000	      8576	80000d70	b55289b7	lui	x19,0xb5528	 x19=0xb5528000
       85785000	      8577	80000d74	400fd433	sra	x8,x31,x0	 x31:0x692c5000  x0:0x00000000  x8=0x692c5000
       85795000	      8578	80000d78	00b71393	slli	x7,x14,0xb	 x14:0x80009fc4  x7=0x04fe2000
       85805000	      8579	80000d7c	40d7d4b3	sra	x9,x15,x13	 x15:0xfffffffa x13:0x00000000  x9=0xfffffffa
       85815000	      8580	80000d80	00409293	slli	x5,x1,0x4	  x1:0xea808000  x5=0xa8080000
       85825000	      8581	80000d84	0014acb3	slt	x25,x9,x1	  x9:0xfffffffa  x1:0xea808000 x25=0x00000000
       85835000	      8582	80000d88	012267b3	or	x15,x4,x18	  x4:0xfffffff0 x18:0xfffff9ca x15=0xfffffffa
       85845000	      8583	80000d8c	fc2816e3	bne	x16,x2,80000d58	 x16:0x00000010  x2:0x00000010
       85855000	      8584	80000d90	0181aab3	slt	x21,x3,x24	  x3:0x00000001 x24:0x00000001 x21=0x00000000
       85865000	      8585	80000d94	00600093	addi	x1,x0,6	  x0:0x00000000  x1=0x00000006
       85875000	      8586	80000d98	01242333	slt	x6,x8,x18	  x8:0x692c5000 x18:0xfffff9ca  x6=0x00000000
       85885000	      8587	80000d9c	01125193	srli	x3,x4,0x11	  x4:0xfffffff0  x3=0x00007fff
       85895000	      8588	80000da0	017d1693	slli	x13,x26,0x17	 x26:0x0000000b x13=0x05800000
       85905000	      8589	80000da4	00c09893	slli	x17,x1,0xc	  x1:0x00000006 x17=0x00006000
       85915000	      8590	80000da8	71b8f693	andi	x13,x17,1819	 x17:0x00006000 x13=0x00000000
       85925000	      8591	80000dac	a61c0193	addi	x3,x24,-1439	 x24:0x00000001  x3=0xfffffa62
       85935000	      8592	80000db0	00000013	addi	x0,x0,0	  x0:0x00000000
       85945000	      8593	80000db4	0041a833	slt	x16,x3,x4	  x3:0xfffffa62  x4:0xfffffff0 x16=0x00000001
       85955000	      8594	80000db8	ff800113	addi	x2,x0,-8	  x0:0x00000000  x2=0xfffffff8
       85965000	      8595	80000dbc	3d033613	sltiu	x12,x6,976	  x6:0x00000000 x12=0x00000001
       85975000	      8596	80000dc0	ef246813	ori	x16,x8,-270	  x8:0x692c5000 x16=0xfffffef2
       85985000	      8597	80000dc4	ffe08093	addi	x1,x1,-2	  x1:0x00000006  x1=0x00000004
       85995000	      8598	80000dc8	414e5eb3	sra	x29,x28,x20	 x28:0x0000000b x20:0xfffff8fe x29=0x00000000
       86005000	      8599	80000dcc	ab2d7a13	andi	x20,x26,-1358	 x26:0x0000000b x20=0x00000002
       86015000	      8600	80000dd0	31654393	xori	x7,x10,790	 x10:0x00000000  x7=0x00000316
       86025000	      8601	80000dd4	00a00413	addi	x8,x0,10	  x0:0x00000000  x8=0x0000000a
       86035000	      8602	80000dd8	414f5193	srai	x3,x30,0x14	 x30:0x80009f34  x3=0xfffff800
       86045000	      8603	80000ddc	00c31f93	slli	x31,x6,0xc	  x6:0x00000000 x31=0x00000000
       86055000	      8604	80000de0	1f316393	ori	x7,x2,499	  x2:0xfffffff8  x7=0xfffffffb
       86065000	      8605	80000de4	5ec67793	andi	x15,x12,1516	 x12:0x00000001 x15=0x00000000
       86075000	      8606	80000de8	4079d8b3	sra	x17,x19,x7	 x19:0xb5528000  x7:0xfffffffb x17=0xfffffff6
       86085000	      8607	80000dec	00800293	addi	x5,x0,8	  x0:0x00000000  x5=0x00000008
       86095000	      8608	80000df0	41c2d833	sra	x16,x5,x28	  x5:0x00000008 x28:0x0000000b x16=0x00000000
       86105000	      8609	80000df4	004c0033	add	x0,x24,x4	 x24:0x00000001  x4:0xfffffff0
       86115000	      8610	80000df8	00dc9193	slli	x3,x25,0xd	 x25:0x00000000  x3=0x00000000
       86125000	      8611	80000dfc	ff940413	addi	x8,x8,-7	  x8:0x0000000a  x8=0x00000003
       86135000	      8612	80000e00	010b9f93	slli	x31,x23,0x10	 x23:0xfffffec5 x31=0xfec50000
       86145000	      8613	80000e04	fe5478e3	bgeu	x8,x5,80000df4	  x8:0x00000003  x5:0x00000008
       86155000	      8614	80000e08	099c1197	auipc	x3,0x99c1	  x3=0x899c1e04
       86165000	      8615	80000e0c	fa20dae3	bge	x1,x2,80000dc0	  x1:0x00000004  x2:0xfffffff8
       86175000	      8616	00000000	00000013	addi	x0,x0,0	  x0:0x00000000
       86185000	      8617	80000dbc	00000013	addi	x0,x0,0	  x0:0x00000000
       86195000	      8618	80000dc0	ef246813	ori	x16,x8,-270	  x8:0x00000003 x16=0xfffffef3
       86205000	      8619	80000dc4	ffe08093	addi	x1,x1,-2	  x1:0x00000004  x1=0x00000002
       86215000	      8620	80000dc8	414e5eb3	sra	x29,x28,x20	 x28:0x0000000b x20:0x00000002 x29=0x00000002
       86225000	      8621	80000dcc	ab2d7a13	andi	x20,x26,-1358	 x26:0x0000000b x20=0x00000002
       86235000	      8622	80000dd0	31654393	xori	x7,x10,790	 x10:0x00000000  x7=0x00000316
       86245000	      8623	80000dd4	00a00413	addi	x8,x0,10	  x0:0x00000000  x8=0x0000000a
       86255000	      8624	80000dd8	414f5193	srai	x3,x30,0x14	 x30:0x80009f34  x3=0xfffff800
       86265000	      8625	80000ddc	00c31f93	slli	x31,x6,0xc	  x6:0x00000000 x31=0x00000000
       86275000	      8626	80000de0	1f316393	ori	x7,x2,499	  x2:0xfffffff8  x7=0xfffffffb
       86285000	      8627	80000de4	5ec67793	andi	x15,x12,1516	 x12:0x00000001 x15=0x00000000
       86295000	      8628	80000de8	4079d8b3	sra	x17,x19,x7	 x19:0xb5528000  x7:0xfffffffb x17=0xfffffff6
       86305000	      8629	80000dec	00800293	addi	x5,x0,8	  x0:0x00000000  x5=0x00000008
       86315000	      8630	80000df0	41c2d833	sra	x16,x5,x28	  x5:0x00000008 x28:0x0000000b x16=0x00000000
       86325000	      8631	80000df4	004c0033	add	x0,x24,x4	 x24:0x00000001  x4:0xfffffff0
       86335000	      8632	80000df8	00dc9193	slli	x3,x25,0xd	 x25:0x00000000  x3=0x00000000
       86345000	      8633	80000dfc	ff940413	addi	x8,x8,-7	  x8:0x0000000a  x8=0x00000003
       86355000	      8634	80000e00	010b9f93	slli	x31,x23,0x10	 x23:0xfffffec5 x31=0xfec50000
       86365000	      8635	80000e04	fe5478e3	bgeu	x8,x5,80000df4	  x8:0x00000003  x5:0x00000008
       86375000	      8636	80000e08	099c1197	auipc	x3,0x99c1	  x3=0x899c1e04
       86385000	      8637	80000e0c	fa20dae3	bge	x1,x2,80000dc0	  x1:0x00000002  x2:0xfffffff8
       86395000	      8638	00000000	00000013	addi	x0,x0,0	  x0:0x00000000
       86405000	      8639	80000dbc	00000013	addi	x0,x0,0	  x0:0x00000000
       86415000	      8640	80000dc0	ef246813	ori	x16,x8,-270	  x8:0x00000003 x16=0xfffffef3
       86425000	      8641	80000dc4	ffe08093	addi	x1,x1,-2	  x1:0x00000002  x1=0x00000000
       86435000	      8642	80000dc8	414e5eb3	sra	x29,x28,x20	 x28:0x0000000b x20:0x00000002 x29=0x00000002
       86445000	      8643	80000dcc	ab2d7a13	andi	x20,x26,-1358	 x26:0x0000000b x20=0x00000002
       86455000	      8644	80000dd0	31654393	xori	x7,x10,790	 x10:0x00000000  x7=0x00000316
       86465000	      8645	80000dd4	00a00413	addi	x8,x0,10	  x0:0x00000000  x8=0x0000000a
       86475000	      8646	80000dd8	414f5193	srai	x3,x30,0x14	 x30:0x80009f34  x3=0xfffff800
       86485000	      8647	80000ddc	00c31f93	slli	x31,x6,0xc	  x6:0x00000000 x31=0x00000000
       86495000	      8648	80000de0	1f316393	ori	x7,x2,499	  x2:0xfffffff8  x7=0xfffffffb
       86505000	      8649	80000de4	5ec67793	andi	x15,x12,1516	 x12:0x00000001 x15=0x00000000
       86515000	      8650	80000de8	4079d8b3	sra	x17,x19,x7	 x19:0xb5528000  x7:0xfffffffb x17=0xfffffff6
       86525000	      8651	80000dec	00800293	addi	x5,x0,8	  x0:0x00000000  x5=0x00000008
       86535000	      8652	80000df0	41c2d833	sra	x16,x5,x28	  x5:0x00000008 x28:0x0000000b x16=0x00000000
       86545000	      8653	80000df4	004c0033	add	x0,x24,x4	 x24:0x00000001  x4:0xfffffff0
       86555000	      8654	80000df8	00dc9193	slli	x3,x25,0xd	 x25:0x00000000  x3=0x00000000
       86565000	      8655	80000dfc	ff940413	addi	x8,x8,-7	  x8:0x0000000a  x8=0x00000003
       86575000	      8656	80000e00	010b9f93	slli	x31,x23,0x10	 x23:0xfffffec5 x31=0xfec50000
       86585000	      8657	80000e04	fe5478e3	bgeu	x8,x5,80000df4	  x8:0x00000003  x5:0x00000008
       86595000	      8658	80000e08	099c1197	auipc	x3,0x99c1	  x3=0x899c1e04
       86605000	      8659	80000e0c	fa20dae3	bge	x1,x2,80000dc0	  x1:0x00000000  x2:0xfffffff8
       86615000	      8660	00000000	00000013	addi	x0,x0,0	  x0:0x00000000
       86625000	      8661	80000dbc	00000013	addi	x0,x0,0	  x0:0x00000000
       86635000	      8662	80000dc0	ef246813	ori	x16,x8,-270	  x8:0x00000003 x16=0xfffffef3
       86645000	      8663	80000dc4	ffe08093	addi	x1,x1,-2	  x1:0x00000000  x1=0xfffffffe
       86655000	      8664	80000dc8	414e5eb3	sra	x29,x28,x20	 x28:0x0000000b x20:0x00000002 x29=0x00000002
       86665000	      8665	80000dcc	ab2d7a13	andi	x20,x26,-1358	 x26:0x0000000b x20=0x00000002
       86675000	      8666	80000dd0	31654393	xori	x7,x10,790	 x10:0x00000000  x7=0x00000316
       86685000	      8667	80000dd4	00a00413	addi	x8,x0,10	  x0:0x00000000  x8=0x0000000a
       86695000	      8668	80000dd8	414f5193	srai	x3,x30,0x14	 x30:0x80009f34  x3=0xfffff800
       86705000	      8669	80000ddc	00c31f93	slli	x31,x6,0xc	  x6:0x00000000 x31=0x00000000
       86715000	      8670	80000de0	1f316393	ori	x7,x2,499	  x2:0xfffffff8  x7=0xfffffffb
       86725000	      8671	80000de4	5ec67793	andi	x15,x12,1516	 x12:0x00000001 x15=0x00000000
       86735000	      8672	80000de8	4079d8b3	sra	x17,x19,x7	 x19:0xb5528000  x7:0xfffffffb x17=0xfffffff6
       86745000	      8673	80000dec	00800293	addi	x5,x0,8	  x0:0x00000000  x5=0x00000008
       86755000	      8674	80000df0	41c2d833	sra	x16,x5,x28	  x5:0x00000008 x28:0x0000000b x16=0x00000000
       86765000	      8675	80000df4	004c0033	add	x0,x24,x4	 x24:0x00000001  x4:0xfffffff0
       86775000	      8676	80000df8	00dc9193	slli	x3,x25,0xd	 x25:0x00000000  x3=0x00000000
       86785000	      8677	80000dfc	ff940413	addi	x8,x8,-7	  x8:0x0000000a  x8=0x00000003
       86795000	      8678	80000e00	010b9f93	slli	x31,x23,0x10	 x23:0xfffffec5 x31=0xfec50000
       86805000	      8679	80000e04	fe5478e3	bgeu	x8,x5,80000df4	  x8:0x00000003  x5:0x00000008
       86815000	      8680	80000e08	099c1197	auipc	x3,0x99c1	  x3=0x899c1e04
       86825000	      8681	80000e0c	fa20dae3	bge	x1,x2,80000dc0	  x1:0xfffffffe  x2:0xfffffff8
       86835000	      8682	00000000	00000013	addi	x0,x0,0	  x0:0x00000000
       86845000	      8683	80000dbc	00000013	addi	x0,x0,0	  x0:0x00000000
       86855000	      8684	80000dc0	ef246813	ori	x16,x8,-270	  x8:0x00000003 x16=0xfffffef3
       86865000	      8685	80000dc4	ffe08093	addi	x1,x1,-2	  x1:0xfffffffe  x1=0xfffffffc
       86875000	      8686	80000dc8	414e5eb3	sra	x29,x28,x20	 x28:0x0000000b x20:0x00000002 x29=0x00000002
       86885000	      8687	80000dcc	ab2d7a13	andi	x20,x26,-1358	 x26:0x0000000b x20=0x00000002
       86895000	      8688	80000dd0	31654393	xori	x7,x10,790	 x10:0x00000000  x7=0x00000316
       86905000	      8689	80000dd4	00a00413	addi	x8,x0,10	  x0:0x00000000  x8=0x0000000a
       86915000	      8690	80000dd8	414f5193	srai	x3,x30,0x14	 x30:0x80009f34  x3=0xfffff800
       86925000	      8691	80000ddc	00c31f93	slli	x31,x6,0xc	  x6:0x00000000 x31=0x00000000
       86935000	      8692	80000de0	1f316393	ori	x7,x2,499	  x2:0xfffffff8  x7=0xfffffffb
       86945000	      8693	80000de4	5ec67793	andi	x15,x12,1516	 x12:0x00000001 x15=0x00000000
       86955000	      8694	80000de8	4079d8b3	sra	x17,x19,x7	 x19:0xb5528000  x7:0xfffffffb x17=0xfffffff6
       86965000	      8695	80000dec	00800293	addi	x5,x0,8	  x0:0x00000000  x5=0x00000008
       86975000	      8696	80000df0	41c2d833	sra	x16,x5,x28	  x5:0x00000008 x28:0x0000000b x16=0x00000000
       86985000	      8697	80000df4	004c0033	add	x0,x24,x4	 x24:0x00000001  x4:0xfffffff0
       86995000	      8698	80000df8	00dc9193	slli	x3,x25,0xd	 x25:0x00000000  x3=0x00000000
       87005000	      8699	80000dfc	ff940413	addi	x8,x8,-7	  x8:0x0000000a  x8=0x00000003
       87015000	      8700	80000e00	010b9f93	slli	x31,x23,0x10	 x23:0xfffffec5 x31=0xfec50000
       87025000	      8701	80000e04	fe5478e3	bgeu	x8,x5,80000df4	  x8:0x00000003  x5:0x00000008
       87035000	      8702	80000e08	099c1197	auipc	x3,0x99c1	  x3=0x899c1e04
       87045000	      8703	80000e0c	fa20dae3	bge	x1,x2,80000dc0	  x1:0xfffffffc  x2:0xfffffff8
       87055000	      8704	00000000	00000013	addi	x0,x0,0	  x0:0x00000000
       87065000	      8705	80000dbc	00000013	addi	x0,x0,0	  x0:0x00000000
       87075000	      8706	80000dc0	ef246813	ori	x16,x8,-270	  x8:0x00000003 x16=0xfffffef3
       87085000	      8707	80000dc4	ffe08093	addi	x1,x1,-2	  x1:0xfffffffc  x1=0xfffffffa
       87095000	      8708	80000dc8	414e5eb3	sra	x29,x28,x20	 x28:0x0000000b x20:0x00000002 x29=0x00000002
       87105000	      8709	80000dcc	ab2d7a13	andi	x20,x26,-1358	 x26:0x0000000b x20=0x00000002
       87115000	      8710	80000dd0	31654393	xori	x7,x10,790	 x10:0x00000000  x7=0x00000316
       87125000	      8711	80000dd4	00a00413	addi	x8,x0,10	  x0:0x00000000  x8=0x0000000a
       87135000	      8712	80000dd8	414f5193	srai	x3,x30,0x14	 x30:0x80009f34  x3=0xfffff800
       87145000	      8713	80000ddc	00c31f93	slli	x31,x6,0xc	  x6:0x00000000 x31=0x00000000
       87155000	      8714	80000de0	1f316393	ori	x7,x2,499	  x2:0xfffffff8  x7=0xfffffffb
       87165000	      8715	80000de4	5ec67793	andi	x15,x12,1516	 x12:0x00000001 x15=0x00000000
       87175000	      8716	80000de8	4079d8b3	sra	x17,x19,x7	 x19:0xb5528000  x7:0xfffffffb x17=0xfffffff6
       87185000	      8717	80000dec	00800293	addi	x5,x0,8	  x0:0x00000000  x5=0x00000008
       87195000	      8718	80000df0	41c2d833	sra	x16,x5,x28	  x5:0x00000008 x28:0x0000000b x16=0x00000000
       87205000	      8719	80000df4	004c0033	add	x0,x24,x4	 x24:0x00000001  x4:0xfffffff0
       87215000	      8720	80000df8	00dc9193	slli	x3,x25,0xd	 x25:0x00000000  x3=0x00000000
       87225000	      8721	80000dfc	ff940413	addi	x8,x8,-7	  x8:0x0000000a  x8=0x00000003
       87235000	      8722	80000e00	010b9f93	slli	x31,x23,0x10	 x23:0xfffffec5 x31=0xfec50000
       87245000	      8723	80000e04	fe5478e3	bgeu	x8,x5,80000df4	  x8:0x00000003  x5:0x00000008
       87255000	      8724	80000e08	099c1197	auipc	x3,0x99c1	  x3=0x899c1e04
       87265000	      8725	80000e0c	fa20dae3	bge	x1,x2,80000dc0	  x1:0xfffffffa  x2:0xfffffff8
       87275000	      8726	00000000	00000013	addi	x0,x0,0	  x0:0x00000000
       87285000	      8727	80000dbc	00000013	addi	x0,x0,0	  x0:0x00000000
       87295000	      8728	80000dc0	ef246813	ori	x16,x8,-270	  x8:0x00000003 x16=0xfffffef3
       87305000	      8729	80000dc4	ffe08093	addi	x1,x1,-2	  x1:0xfffffffa  x1=0xfffffff8
       87315000	      8730	80000dc8	414e5eb3	sra	x29,x28,x20	 x28:0x0000000b x20:0x00000002 x29=0x00000002
       87325000	      8731	80000dcc	ab2d7a13	andi	x20,x26,-1358	 x26:0x0000000b x20=0x00000002
       87335000	      8732	80000dd0	31654393	xori	x7,x10,790	 x10:0x00000000  x7=0x00000316
       87345000	      8733	80000dd4	00a00413	addi	x8,x0,10	  x0:0x00000000  x8=0x0000000a
       87355000	      8734	80000dd8	414f5193	srai	x3,x30,0x14	 x30:0x80009f34  x3=0xfffff800
       87365000	      8735	80000ddc	00c31f93	slli	x31,x6,0xc	  x6:0x00000000 x31=0x00000000
       87375000	      8736	80000de0	1f316393	ori	x7,x2,499	  x2:0xfffffff8  x7=0xfffffffb
       87385000	      8737	80000de4	5ec67793	andi	x15,x12,1516	 x12:0x00000001 x15=0x00000000
       87395000	      8738	80000de8	4079d8b3	sra	x17,x19,x7	 x19:0xb5528000  x7:0xfffffffb x17=0xfffffff6
       87405000	      8739	80000dec	00800293	addi	x5,x0,8	  x0:0x00000000  x5=0x00000008
       87415000	      8740	80000df0	41c2d833	sra	x16,x5,x28	  x5:0x00000008 x28:0x0000000b x16=0x00000000
       87425000	      8741	80000df4	004c0033	add	x0,x24,x4	 x24:0x00000001  x4:0xfffffff0
       87435000	      8742	80000df8	00dc9193	slli	x3,x25,0xd	 x25:0x00000000  x3=0x00000000
       87445000	      8743	80000dfc	ff940413	addi	x8,x8,-7	  x8:0x0000000a  x8=0x00000003
       87455000	      8744	80000e00	010b9f93	slli	x31,x23,0x10	 x23:0xfffffec5 x31=0xfec50000
       87465000	      8745	80000e04	fe5478e3	bgeu	x8,x5,80000df4	  x8:0x00000003  x5:0x00000008
       87475000	      8746	80000e08	099c1197	auipc	x3,0x99c1	  x3=0x899c1e04
       87485000	      8747	80000e0c	fa20dae3	bge	x1,x2,80000dc0	  x1:0xfffffff8  x2:0xfffffff8
       87495000	      8748	00000000	00000013	addi	x0,x0,0	  x0:0x00000000
       87505000	      8749	80000dbc	00000013	addi	x0,x0,0	  x0:0x00000000
       87515000	      8750	80000dc0	ef246813	ori	x16,x8,-270	  x8:0x00000003 x16=0xfffffef3
       87525000	      8751	80000dc4	ffe08093	addi	x1,x1,-2	  x1:0xfffffff8  x1=0xfffffff6
       87535000	      8752	80000dc8	414e5eb3	sra	x29,x28,x20	 x28:0x0000000b x20:0x00000002 x29=0x00000002
       87545000	      8753	80000dcc	ab2d7a13	andi	x20,x26,-1358	 x26:0x0000000b x20=0x00000002
       87555000	      8754	80000dd0	31654393	xori	x7,x10,790	 x10:0x00000000  x7=0x00000316
       87565000	      8755	80000dd4	00a00413	addi	x8,x0,10	  x0:0x00000000  x8=0x0000000a
       87575000	      8756	80000dd8	414f5193	srai	x3,x30,0x14	 x30:0x80009f34  x3=0xfffff800
       87585000	      8757	80000ddc	00c31f93	slli	x31,x6,0xc	  x6:0x00000000 x31=0x00000000
       87595000	      8758	80000de0	1f316393	ori	x7,x2,499	  x2:0xfffffff8  x7=0xfffffffb
       87605000	      8759	80000de4	5ec67793	andi	x15,x12,1516	 x12:0x00000001 x15=0x00000000
       87615000	      8760	80000de8	4079d8b3	sra	x17,x19,x7	 x19:0xb5528000  x7:0xfffffffb x17=0xfffffff6
       87625000	      8761	80000dec	00800293	addi	x5,x0,8	  x0:0x00000000  x5=0x00000008
       87635000	      8762	80000df0	41c2d833	sra	x16,x5,x28	  x5:0x00000008 x28:0x0000000b x16=0x00000000
       87645000	      8763	80000df4	004c0033	add	x0,x24,x4	 x24:0x00000001  x4:0xfffffff0
       87655000	      8764	80000df8	00dc9193	slli	x3,x25,0xd	 x25:0x00000000  x3=0x00000000
       87665000	      8765	80000dfc	ff940413	addi	x8,x8,-7	  x8:0x0000000a  x8=0x00000003
       87675000	      8766	80000e00	010b9f93	slli	x31,x23,0x10	 x23:0xfffffec5 x31=0xfec50000
       87685000	      8767	80000e04	fe5478e3	bgeu	x8,x5,80000df4	  x8:0x00000003  x5:0x00000008
       87695000	      8768	80000e08	099c1197	auipc	x3,0x99c1	  x3=0x899c1e04
       87705000	      8769	80000e0c	fa20dae3	bge	x1,x2,80000dc0	  x1:0xfffffff6  x2:0xfffffff8
       87715000	      8770	80000e10	00c98e33	add	x28,x19,x12	 x19:0xb5528000 x12:0x00000001 x28=0xb5528001
       87725000	      8771	80000e14	ff800e13	addi	x28,x0,-8	  x0:0x00000000 x28=0xfffffff8
       87735000	      8772	80000e18	01df58b3	srl	x17,x30,x29	 x30:0x80009f34 x29:0x00000002 x17=0x200027cd
       87745000	      8773	80000e1c	01caa9b3	slt	x19,x21,x28	 x21:0x00000000 x28:0xfffffff8 x19=0x00000000
       87755000	      8774	80000e20	0c982313	slti	x6,x16,201	 x16:0x00000000  x6=0x00000001
       87765000	      8775	80000e24	00400c93	addi	x25,x0,4	  x0:0x00000000 x25=0x00000004
       87775000	      8776	80000e28	003a11b3	sll	x3,x20,x3	 x20:0x00000002  x3:0x899c1e04  x3=0x00000020
       87785000	      8777	80000e2c	4d18ff93	andi	x31,x17,1233	 x17:0x200027cd x31=0x000004c1
       87795000	      8778	80000e30	dd43eb13	ori	x22,x7,-556	  x7:0xfffffffb x22=0xffffffff
       87805000	      8779	80000e34	006e0e13	addi	x28,x28,6	 x28:0xfffffff8 x28=0xfffffffe
       87815000	      8780	80000e38	01149a13	slli	x20,x9,0x11	  x9:0xfffffffa x20=0xfff40000
       87825000	      8781	80000e3c	40a408b3	sub	x17,x8,x10	  x8:0x00000003 x10:0x00000000 x17=0x00000003
       87835000	      8782	80000e40	00a00693	addi	x13,x0,10	  x0:0x00000000 x13=0x0000000a
       87845000	      8783	80000e44	4129db13	srai	x22,x19,0x12	 x19:0x00000000 x22=0x00000000
       87855000	      8784	80000e48	00a00e93	addi	x29,x0,10	  x0:0x00000000 x29=0x0000000a
       87865000	      8785	80000e4c	00e825b3	slt	x11,x16,x14	 x16:0x00000000 x14:0x80009fc4 x11=0x00000000
       87875000	      8786	80000e50	da924493	xori	x9,x4,-599	  x4:0xfffffff0  x9=0x00000259
       87885000	      8787	80000e54	3d33b893	sltiu	x17,x7,979	  x7:0xfffffffb x17=0x00000000
       87895000	      8788	80000e58	ffb68693	addi	x13,x13,-5	 x13:0x0000000a x13=0x00000005
       87905000	      8789	80000e5c	009b9c13	slli	x24,x23,0x9	 x23:0xfffffec5 x24=0xfffd8a00
       87915000	      8790	80000e60	4b37d637	lui	x12,0x4b37d	 x12=0x4b37d000
       87925000	      8791	80000e64	01075133	srl	x2,x14,x16	 x14:0x80009fc4 x16:0x00000000  x2=0x80009fc4
       87935000	      8792	80000e68	01627833	and	x16,x4,x22	  x4:0xfffffff0 x22:0x00000000 x16=0x00000000
       87945000	      8793	80000e6c	ffd6f0e3	bgeu	x13,x29,80000e4c	 x13:0x00000005 x29:0x0000000a
       87955000	      8794	80000e70	c928aa13	slti	x20,x17,-878	 x17:0x00000000 x20=0x00000000
       87965000	      8795	80000e74	836fc193	xori	x3,x31,-1994	 x31:0x000004c1  x3=0xfffffcf7
       87975000	      8796	80000e78	e231b213	sltiu	x4,x3,-477	  x3:0xfffffcf7  x4=0x00000001
       87985000	      8797	80000e7c	01449093	slli	x1,x9,0x14	  x9:0x00000259  x1=0x25900000
       87995000	      8798	80000e80	fb9e16e3	bne	x28,x25,80000e2c	 x28:0xfffffffe x25:0x00000004
       88005000	      8799	00000000	00000013	addi	x0,x0,0	  x0:0x00000000
       88015000	      8800	80000e28	00000013	addi	x0,x0,0	  x0:0x00000000
       88025000	      8801	80000e2c	4d18ff93	andi	x31,x17,1233	 x17:0x00000000 x31=0x00000000
       88035000	      8802	80000e30	dd43eb13	ori	x22,x7,-556	  x7:0xfffffffb x22=0xffffffff
       88045000	      8803	80000e34	006e0e13	addi	x28,x28,6	 x28:0xfffffffe x28=0x00000004
       88055000	      8804	80000e38	01149a13	slli	x20,x9,0x11	  x9:0x00000259 x20=0x04b20000
       88065000	      8805	80000e3c	40a408b3	sub	x17,x8,x10	  x8:0x00000003 x10:0x00000000 x17=0x00000003
       88075000	      8806	80000e40	00a00693	addi	x13,x0,10	  x0:0x00000000 x13=0x0000000a
       88085000	      8807	80000e44	4129db13	srai	x22,x19,0x12	 x19:0x00000000 x22=0x00000000
       88095000	      8808	80000e48	00a00e93	addi	x29,x0,10	  x0:0x00000000 x29=0x0000000a
       88105000	      8809	80000e4c	00e825b3	slt	x11,x16,x14	 x16:0x00000000 x14:0x80009fc4 x11=0x00000000
       88115000	      8810	80000e50	da924493	xori	x9,x4,-599	  x4:0x00000001  x9=0xfffffda8
       88125000	      8811	80000e54	3d33b893	sltiu	x17,x7,979	  x7:0xfffffffb x17=0x00000000
       88135000	      8812	80000e58	ffb68693	addi	x13,x13,-5	 x13:0x0000000a x13=0x00000005
       88145000	      8813	80000e5c	009b9c13	slli	x24,x23,0x9	 x23:0xfffffec5 x24=0xfffd8a00
       88155000	      8814	80000e60	4b37d637	lui	x12,0x4b37d	 x12=0x4b37d000
       88165000	      8815	80000e64	01075133	srl	x2,x14,x16	 x14:0x80009fc4 x16:0x00000000  x2=0x80009fc4
       88175000	      8816	80000e68	01627833	and	x16,x4,x22	  x4:0x00000001 x22:0x00000000 x16=0x00000000
       88185000	      8817	80000e6c	ffd6f0e3	bgeu	x13,x29,80000e4c	 x13:0x00000005 x29:0x0000000a
       88195000	      8818	80000e70	c928aa13	slti	x20,x17,-878	 x17:0x00000000 x20=0x00000000
       88205000	      8819	80000e74	836fc193	xori	x3,x31,-1994	 x31:0x00000000  x3=0xfffff836
       88215000	      8820	80000e78	e231b213	sltiu	x4,x3,-477	  x3:0xfffff836  x4=0x00000001
       88225000	      8821	80000e7c	01449093	slli	x1,x9,0x14	  x9:0xfffffda8  x1=0xda800000
       88235000	      8822	80000e80	fb9e16e3	bne	x28,x25,80000e2c	 x28:0x00000004 x25:0x00000004
       88245000	      8823	80000e84	0048d5b3	srl	x11,x17,x4	 x17:0x00000000  x4:0x00000001 x11=0x00000000
       88255000	      8824	80000e88	00300b93	addi	x23,x0,3	  x0:0x00000000 x23=0x00000003
       88265000	      8825	80000e8c	414f0433	sub	x8,x30,x20	 x30:0x80009f34 x20:0x00000000  x8=0x80009f34
       88275000	      8826	80000e90	00f00793	addi	x15,x0,15	  x0:0x00000000 x15=0x0000000f
       88285000	      8827	80000e94	40c56e13	ori	x28,x10,1036	 x10:0x00000000 x28=0x0000040c
       88295000	      8828	80000e98	00ab8b93	addi	x23,x23,10	 x23:0x00000003 x23=0x0000000d
       88305000	      8829	80000e9c	ffc00813	addi	x16,x0,-4	  x0:0x00000000 x16=0xfffffffc
       88315000	      8830	80000ea0	011b9fb3	sll	x31,x23,x17	 x23:0x0000000d x17:0x00000000 x31=0x0000000d
       88325000	      8831	80000ea4	00300a93	addi	x21,x0,3	  x0:0x00000000 x21=0x00000003
       88335000	      8832	80000ea8	c64c8a13	addi	x20,x25,-924	 x25:0x00000004 x20=0xfffffc68
       88345000	      8833	80000eac	00780813	addi	x16,x16,7	 x16:0xfffffffc x16=0x00000003
       88355000	      8834	80000eb0	ff586ce3	bltu	x16,x21,80000ea8	 x16:0x00000003 x21:0x00000003
       88365000	      8835	80000eb4	fefbe0e3	bltu	x23,x15,80000e94	 x23:0x0000000d x15:0x0000000f
       88375000	      8836	00000000	00000013	addi	x0,x0,0	  x0:0x00000000
       88385000	      8837	80000e90	00000013	addi	x0,x0,0	  x0:0x00000000
       88395000	      8838	80000e94	40c56e13	ori	x28,x10,1036	 x10:0x00000000 x28=0x0000040c
       88405000	      8839	80000e98	00ab8b93	addi	x23,x23,10	 x23:0x0000000d x23=0x00000017
       88415000	      8840	80000e9c	ffc00813	addi	x16,x0,-4	  x0:0x00000000 x16=0xfffffffc
       88425000	      8841	80000ea0	011b9fb3	sll	x31,x23,x17	 x23:0x00000017 x17:0x00000000 x31=0x00000017
       88435000	      8842	80000ea4	00300a93	addi	x21,x0,3	  x0:0x00000000 x21=0x00000003
       88445000	      8843	80000ea8	c64c8a13	addi	x20,x25,-924	 x25:0x00000004 x20=0xfffffc68
       88455000	      8844	80000eac	00780813	addi	x16,x16,7	 x16:0xfffffffc x16=0x00000003
       88465000	      8845	80000eb0	ff586ce3	bltu	x16,x21,80000ea8	 x16:0x00000003 x21:0x00000003
       88475000	      8846	80000eb4	fefbe0e3	bltu	x23,x15,80000e94	 x23:0x00000017 x15:0x0000000f
       88485000	      8847	80000eb8	70fae537	lui	x10,0x70fae	 x10=0x70fae000
       88495000	      8848	80000ebc	00600413	addi	x8,x0,6	  x0:0x00000000  x8=0x00000006
       88505000	      8849	80000ec0	015f3e33	sltu	x28,x30,x21	 x30:0x80009f34 x21:0x00000003 x28=0x00000000
       88515000	      8850	80000ec4	00d00f93	addi	x31,x0,13	  x0:0x00000000 x31=0x0000000d
       88525000	      8851	80000ec8	00000013	addi	x0,x0,0	  x0:0x00000000
       88535000	      8852	80000ecc	00000013	addi	x0,x0,0	  x0:0x00000000
       88545000	      8853	80000ed0	02e60c93	addi	x25,x12,46	 x12:0x4b37d000 x25=0x4b37d02e
       88555000	      8854	80000ed4	00640413	addi	x8,x8,6	  x8:0x00000006  x8=0x0000000c
       88565000	      8855	80000ed8	010ca033	slt	x0,x25,x16	 x25:0x4b37d02e x16:0x00000003
       88575000	      8856	80000edc	00300913	addi	x18,x0,3	  x0:0x00000000 x18=0x00000003
       88585000	      8857	80000ee0	01831a33	sll	x20,x6,x24	  x6:0x00000001 x24:0xfffd8a00 x20=0x00000001
       88595000	      8858	80000ee4	00e00513	addi	x10,x0,14	  x0:0x00000000 x10=0x0000000e
       88605000	      8859	80000ee8	013fd333	srl	x6,x31,x19	 x31:0x0000000d x19:0x00000000  x6=0x0000000d
       88615000	      8860	80000eec	806cf593	andi	x11,x25,-2042	 x25:0x4b37d02e x11=0x4b37d006
       88625000	      8861	80000ef0	40270233	sub	x4,x14,x2	 x14:0x80009fc4  x2:0x80009fc4  x4=0x00000000
       88635000	      8862	80000ef4	38c00b93	addi	x23,x0,908	  x0:0x00000000 x23=0x0000038c
       88645000	      8863	80000ef8	00d62db3	slt	x27,x12,x13	 x12:0x4b37d000 x13:0x00000005 x27=0x00000000
       88655000	      8864	80000efc	00a90913	addi	x18,x18,10	 x18:0x00000003 x18=0x0000000d
       88665000	      8865	80000f00	00387cb3	and	x25,x16,x3	 x16:0x00000003  x3:0xfffff836 x25=0x00000002
       88675000	      8866	80000f04	fea946e3	blt	x18,x10,80000ef0	 x18:0x0000000d x10:0x0000000e
       88685000	      8867	00000000	00000013	addi	x0,x0,0	  x0:0x00000000
       88695000	      8868	80000eec	00000013	addi	x0,x0,0	  x0:0x00000000
       88705000	      8869	80000ef0	40270233	sub	x4,x14,x2	 x14:0x80009fc4  x2:0x80009fc4  x4=0x00000000
       88715000	      8870	80000ef4	38c00b93	addi	x23,x0,908	  x0:0x00000000 x23=0x0000038c
       88725000	      8871	80000ef8	00d62db3	slt	x27,x12,x13	 x12:0x4b37d000 x13:0x00000005 x27=0x00000000
       88735000	      8872	80000efc	00a90913	addi	x18,x18,10	 x18:0x0000000d x18=0x00000017
       88745000	      8873	80000f00	00387cb3	and	x25,x16,x3	 x16:0x00000003  x3:0xfffff836 x25=0x00000002
       88755000	      8874	80000f04	fea946e3	blt	x18,x10,80000ef0	 x18:0x00000017 x10:0x0000000e
       88765000	      8875	80000f08	fdf464e3	bltu	x8,x31,80000ed0	  x8:0x0000000c x31:0x0000000d
       88775000	      8876	00000000	00000013	addi	x0,x0,0	  x0:0x00000000
       88785000	      8877	80000ecc	00000013	addi	x0,x0,0	  x0:0x00000000
       88795000	      8878	80000ed0	02e60c93	addi	x25,x12,46	 x12:0x4b37d000 x25=0x4b37d02e
       88805000	      8879	80000ed4	00640413	addi	x8,x8,6	  x8:0x0000000c  x8=0x00000012
       88815000	      8880	80000ed8	010ca033	slt	x0,x25,x16	 x25:0x4b37d02e x16:0x00000003
       88825000	      8881	80000edc	00300913	addi	x18,x0,3	  x0:0x00000000 x18=0x00000003
       88835000	      8882	80000ee0	01831a33	sll	x20,x6,x24	  x6:0x0000000d x24:0xfffd8a00 x20=0x0000000d
       88845000	      8883	80000ee4	00e00513	addi	x10,x0,14	  x0:0x00000000 x10=0x0000000e
       88855000	      8884	80000ee8	013fd333	srl	x6,x31,x19	 x31:0x0000000d x19:0x00000000  x6=0x0000000d
       88865000	      8885	80000eec	806cf593	andi	x11,x25,-2042	 x25:0x4b37d02e x11=0x4b37d006
       88875000	      8886	80000ef0	40270233	sub	x4,x14,x2	 x14:0x80009fc4  x2:0x80009fc4  x4=0x00000000
       88885000	      8887	80000ef4	38c00b93	addi	x23,x0,908	  x0:0x00000000 x23=0x0000038c
       88895000	      8888	80000ef8	00d62db3	slt	x27,x12,x13	 x12:0x4b37d000 x13:0x00000005 x27=0x00000000
       88905000	      8889	80000efc	00a90913	addi	x18,x18,10	 x18:0x00000003 x18=0x0000000d
       88915000	      8890	80000f00	00387cb3	and	x25,x16,x3	 x16:0x00000003  x3:0xfffff836 x25=0x00000002
       88925000	      8891	80000f04	fea946e3	blt	x18,x10,80000ef0	 x18:0x0000000d x10:0x0000000e
       88935000	      8892	00000000	00000013	addi	x0,x0,0	  x0:0x00000000
       88945000	      8893	80000eec	00000013	addi	x0,x0,0	  x0:0x00000000
       88955000	      8894	80000ef0	40270233	sub	x4,x14,x2	 x14:0x80009fc4  x2:0x80009fc4  x4=0x00000000
       88965000	      8895	80000ef4	38c00b93	addi	x23,x0,908	  x0:0x00000000 x23=0x0000038c
       88975000	      8896	80000ef8	00d62db3	slt	x27,x12,x13	 x12:0x4b37d000 x13:0x00000005 x27=0x00000000
       88985000	      8897	80000efc	00a90913	addi	x18,x18,10	 x18:0x0000000d x18=0x00000017
       88995000	      8898	80000f00	00387cb3	and	x25,x16,x3	 x16:0x00000003  x3:0xfffff836 x25=0x00000002
       89005000	      8899	80000f04	fea946e3	blt	x18,x10,80000ef0	 x18:0x00000017 x10:0x0000000e
       89015000	      8900	80000f08	fdf464e3	bltu	x8,x31,80000ed0	  x8:0x00000012 x31:0x0000000d
       89025000	      8901	80000f0c	00000013	addi	x0,x0,0	  x0:0x00000000
       89035000	      8902	80000f10	01ce4333	xor	x6,x28,x28	 x28:0x00000000 x28:0x00000000  x6=0x00000000
       89045000	      8903	80000f14	405d80b3	sub	x1,x27,x5	 x27:0x00000000  x5:0x00000008  x1=0xfffffff8
       89055000	      8904	80000f18	6d50a593	slti	x11,x1,1749	  x1:0xfffffff8 x11=0x00000001
       89065000	      8905	80000f1c	02149e63	bne	x9,x1,80000f58	  x9:0xfffffda8  x1:0xfffffff8
       89075000	      8906	00000000	00000013	addi	x0,x0,0	  x0:0x00000000
       89085000	      8907	80000f54	00000013	addi	x0,x0,0	  x0:0x00000000
       89095000	      8908	80000f58	a30c2193	slti	x3,x24,-1488	 x24:0xfffd8a00  x3=0x00000001
       89105000	      8909	80000f5c	048b9463	bne	x23,x8,80000fa4	 x23:0x0000038c  x8:0x00000012
       89115000	      8910	00000000	00000013	addi	x0,x0,0	  x0:0x00000000
       89125000	      8911	80000fa0	00000013	addi	x0,x0,0	  x0:0x00000000
       89135000	      8912	80000fa4	01d25e63	bge	x4,x29,80000fc0	  x4:0x00000000 x29:0x0000000a
       89145000	      8913	80000fa8	05009863	bne	x1,x16,80000ff8	  x1:0xfffffff8 x16:0x00000003
       89155000	      8914	00000000	00000013	addi	x0,x0,0	  x0:0x00000000
       89165000	      8915	80000ff4	00000013	addi	x0,x0,0	  x0:0x00000000
       89175000	      8916	80000ff8	4182d6b3	sra	x13,x5,x24	  x5:0x00000008 x24:0xfffd8a00 x13=0x00000008
       89185000	      8917	80000ffc	20dc2e93	slti	x29,x24,525	 x24:0xfffd8a00 x29=0x00000001
       89195000	      8918	80001000	068eb193	sltiu	x3,x29,104	 x29:0x00000001  x3=0x00000001
       89205000	      8919	80001004	fab66793	ori	x15,x12,-85	 x12:0x4b37d000 x15=0xffffffab
       89215000	      8920	80001008	00000013	addi	x0,x0,0	  x0:0x00000000
       89225000	      8921	8000100c	02b5c263	blt	x11,x11,80001030	 x11:0x00000001 x11:0x00000001
       89235000	      8922	80001010	03c77a13	andi	x20,x14,60	 x14:0x80009fc4 x20=0x00000004
       89245000	      8923	80001014	3a16b593	sltiu	x11,x13,929	 x13:0x00000008 x11=0x00000001
       89255000	      8924	80001018	00282bb3	slt	x23,x16,x2	 x16:0x00000003  x2:0x80009fc4 x23=0x00000000
       89265000	      8925	8000101c	41455493	srai	x9,x10,0x14	 x10:0x0000000e  x9=0x00000000
       89275000	      8926	80001020	41758433	sub	x8,x11,x23	 x11:0x00000001 x23:0x00000000  x8=0x00000001
       89285000	      8927	80001024	000c9db3	sll	x27,x25,x0	 x25:0x00000002  x0:0x00000000 x27=0x00000002
       89295000	      8928	80001028	02ac0263	beq	x24,x10,8000104c	 x24:0xfffd8a00 x10:0x0000000e
       89305000	      8929	8000102c	0188cc33	xor	x24,x17,x24	 x17:0x00000000 x24:0xfffd8a00 x24=0xfffd8a00
       89315000	      8930	80001030	414fd4b3	sra	x9,x31,x20	 x31:0x0000000d x20:0x00000004  x9=0x00000000
       89325000	      8931	80001034	01856e63	bltu	x10,x24,80001050	 x10:0x0000000e x24:0xfffd8a00
       89335000	      8932	00000000	00000013	addi	x0,x0,0	  x0:0x00000000
       89345000	      8933	8000104c	00000013	addi	x0,x0,0	  x0:0x00000000
       89355000	      8934	80001050	dbb47e93	andi	x29,x8,-581	  x8:0x00000001 x29=0x00000001
       89365000	      8935	80001054	bbc17393	andi	x7,x2,-1092	  x2:0x80009fc4  x7=0x80009b84
       89375000	      8936	80001058	00dd3e33	sltu	x28,x26,x13	 x26:0x0000000b x13:0x00000008 x28=0x00000000
       89385000	      8937	8000105c	018c1a13	slli	x20,x24,0x18	 x24:0xfffd8a00 x20=0x00000000
       89395000	      8938	80001060	00c54863	blt	x10,x12,80001070	 x10:0x0000000e x12:0x4b37d000
       89405000	      8939	00000000	00000013	addi	x0,x0,0	  x0:0x00000000
       89415000	      8940	8000106c	00000013	addi	x0,x0,0	  x0:0x00000000
       89425000	      8941	80001070	007877b3	and	x15,x16,x7	 x16:0x00000003  x7:0x80009b84 x15=0x00000000
       89435000	      8942	80001074	010c6b33	or	x22,x24,x16	 x24:0xfffd8a00 x16:0x00000003 x22=0xfffd8a03
       89445000	      8943	80001078	01699e93	slli	x29,x19,0x16	 x19:0x00000000 x29=0x00000000
       89455000	      8944	8000107c	c9c82093	slti	x1,x16,-868	 x16:0x00000003  x1=0x00000000
       89465000	      8945	80001080	ce5d0a13	addi	x20,x26,-795	 x26:0x0000000b x20=0xfffffcf0
       89475000	      8946	80001084	00231bb3	sll	x23,x6,x2	  x6:0x00000000  x2:0x80009fc4 x23=0x00000000
       89485000	      8947	80001088	011c5b33	srl	x22,x24,x17	 x24:0xfffd8a00 x17:0x00000000 x22=0xfffd8a00
       89495000	      8948	8000108c	0068e663	bltu	x17,x6,80001098	 x17:0x00000000  x6:0x00000000
       89505000	      8949	80001090	05abd263	bge	x23,x26,800010d4	 x23:0x00000000 x26:0x0000000b
       89515000	      8950	80001094	05db4863	blt	x22,x29,800010e4	 x22:0xfffd8a00 x29:0x00000000
       89525000	      8951	00000000	00000013	addi	x0,x0,0	  x0:0x00000000
       89535000	      8952	800010e0	00000013	addi	x0,x0,0	  x0:0x00000000
       89545000	      8953	800010e4	79194517	auipc	x10,0x79194	 x10=0xf91950e0
       89555000	      8954	800010e8	01d05eb3	srl	x29,x0,x29	  x0:0x00000000 x29:0x00000000 x29=0x00000000
       89565000	      8955	800010ec	016bf133	and	x2,x23,x22	 x23:0x00000000 x22:0xfffd8a00  x2=0x00000000
       89575000	      8956	800010f0	015e3c33	sltu	x24,x28,x21	 x28:0x00000000 x21:0x00000003 x24=0x00000001
       89585000	      8957	800010f4	00b35793	srli	x15,x6,0xb	  x6:0x00000000 x15=0x00000000
       89595000	      8958	800010f8	009ddbb3	srl	x23,x27,x9	 x27:0x00000002  x9:0x00000000 x23=0x00000002
       89605000	      8959	800010fc	2e05e697	auipc	x13,0x2e05e	 x13=0xae05f0f8
       89615000	      8960	80001100	04fb5863	bge	x22,x15,80001150	 x22:0xfffd8a00 x15:0x00000000
       89625000	      8961	80001104	ad7f6f93	ori	x31,x30,-1321	 x30:0x80009f34 x31=0xfffffff7
       89635000	      8962	80001108	01cb2033	slt	x0,x22,x28	 x22:0xfffd8a00 x28:0x00000000
       89645000	      8963	8000110c	410edb33	sra	x22,x29,x16	 x29:0x00000000 x16:0x00000003 x22=0x00000000
       89655000	      8964	80001110	0286f663	bgeu	x13,x8,8000113c	 x13:0xae05f0f8  x8:0x00000001
       89665000	      8965	00000000	00000013	addi	x0,x0,0	  x0:0x00000000
       89675000	      8966	80001138	00000013	addi	x0,x0,0	  x0:0x00000000
       89685000	      8967	8000113c	40f1d013	srai	x0,x3,0xf	  x3:0x00000001
       89695000	      8968	80001140	049b6263	bltu	x22,x9,80001184	 x22:0x00000000  x9:0x00000000
       89705000	      8969	80001144	01232233	slt	x4,x6,x18	  x6:0x00000000 x18:0x00000017  x4=0x00000001
       89715000	      8970	80001148	ce484617	auipc	x12,0xce484	 x12=0x4e485144
       89725000	      8971	8000114c	02bf1e63	bne	x30,x11,80001188	 x30:0x80009f34 x11:0x00000001
       89735000	      8972	00000000	00000013	addi	x0,x0,0	  x0:0x00000000
       89745000	      8973	80001184	00000013	addi	x0,x0,0	  x0:0x00000000
       89755000	      8974	80001188	001e5e33	srl	x28,x28,x1	 x28:0x00000000  x1:0x00000000 x28=0x00000000
       89765000	      8975	8000118c	01d9d263	bge	x19,x29,80001190	 x19:0x00000000 x29:0x00000000
       89775000	      8976	00000000	00000013	addi	x0,x0,0	  x0:0x00000000
       89785000	      8977	8000118c	00000013	addi	x0,x0,0	  x0:0x00000000
       89795000	      8978	80001190	41225593	srai	x11,x4,0x12	  x4:0x00000001 x11=0x00000000
       89805000	      8979	80001194	0031ddb3	srl	x27,x3,x3	  x3:0x00000001  x3:0x00000001 x27=0x00000000
       89815000	      8980	80001198	02b58663	beq	x11,x11,800011c4	 x11:0x00000000 x11:0x00000000
       89825000	      8981	00000000	00000013	addi	x0,x0,0	  x0:0x00000000
       89835000	      8982	800011c0	00000013	addi	x0,x0,0	  x0:0x00000000
       89845000	      8983	800011c4	40905d93	srai	x27,x0,0x9	  x0:0x00000000 x27=0x00000000
       89855000	      8984	800011c8	0c3d0263	beq	x26,x3,8000128c	 x26:0x0000000b  x3:0x00000001
       89865000	      8985	800011cc	00000013	addi	x0,x0,0	  x0:0x00000000
       89875000	      8986	800011d0	41a78db3	sub	x27,x15,x26	 x15:0x00000000 x26:0x0000000b x27=0xfffffff5
       89885000	      8987	800011d4	411f5293	srai	x5,x30,0x11	 x30:0x80009f34  x5=0xffffc000
       89895000	      8988	800011d8	002ce333	or	x6,x25,x2	 x25:0x00000002  x2:0x00000000  x6=0x00000002
       89905000	      8989	800011dc	f6240137	lui	x2,0xf6240	  x2=0xf6240000
       89915000	      8990	800011e0	ae1f6593	ori	x11,x30,-1311	 x30:0x80009f34 x11=0xfffffff5
       89925000	      8991	800011e4	c93e4913	xori	x18,x28,-877	 x28:0x00000000 x18=0xfffffc93
       89935000	      8992	800011e8	11067613	andi	x12,x12,272	 x12:0x4e485144 x12=0x00000100
       89945000	      8993	800011ec	ffc7bf97	auipc	x31,0xffc7b	 x31=0x7fc7c1e8
       89955000	      8994	800011f0	00f211b3	sll	x3,x4,x15	  x4:0x00000001 x15:0x00000000  x3=0x00000001
       89965000	      8995	800011f4	00400193	addi	x3,x0,4	  x0:0x00000000  x3=0x00000004
       89975000	      8996	800011f8	01cd5e13	srli	x28,x26,0x1c	 x26:0x0000000b x28=0x00000000
       89985000	      8997	800011fc	8abb5f97	auipc	x31,0x8abb5	 x31=0x0abb61f8
       89995000	      8998	80001200	01cd9c33	sll	x24,x27,x28	 x27:0xfffffff5 x28:0x00000000 x24=0xfffffff5
       90005000	      8999	80001204	fee00693	addi	x13,x0,-18	  x0:0x00000000 x13=0xffffffee
       90015000	      9000	80001208	a982c493	xori	x9,x5,-1384	  x5:0xffffc000  x9=0x00003a98
       90025000	      9001	8000120c	178cfe13	andi	x28,x25,376	 x25:0x00000002 x28=0x00000000
       90035000	      9002	80001210	01a205b3	add	x11,x4,x26	  x4:0x00000001 x26:0x0000000b x11=0x0000000c
       90045000	      9003	80001214	4020d993	srai	x19,x1,0x2	  x1:0x00000000 x19=0x00000000
       90055000	      9004	80001218	0139a4b3	slt	x9,x19,x19	 x19:0x00000000 x19:0x00000000  x9=0x00000000
       90065000	      9005	8000121c	000be333	or	x6,x23,x0	 x23:0x00000002  x0:0x00000000  x6=0x00000002
       90075000	      9006	80001220	011d0933	add	x18,x26,x17	 x26:0x0000000b x17:0x00000000 x18=0x0000000b
       90085000	      9007	80001224	38e243b7	lui	x7,0x38e24	  x7=0x38e24000
       90095000	      9008	80001228	baf4b613	sltiu	x12,x9,-1105	  x9:0x00000000 x12=0x00000001
       90105000	      9009	8000122c	003a7ab3	and	x21,x20,x3	 x20:0xfffffcf0  x3:0x00000004 x21=0x00000000
       90115000	      9010	80001230	40505433	sra	x8,x0,x5	  x0:0x00000000  x5:0xffffc000  x8=0x00000000
       90125000	      9011	80001234	ff718193	addi	x3,x3,-9	  x3:0x00000004  x3=0xfffffffb
       90135000	      9012	80001238	00000013	addi	x0,x0,0	  x0:0x00000000
       90145000	      9013	8000123c	01c04933	xor	x18,x0,x28	  x0:0x00000000 x28:0x00000000 x18=0x00000000
       90155000	      9014	80001240	c0e7aa93	slti	x21,x15,-1010	 x15:0x00000000 x21=0x00000000
       90165000	      9015	80001244	01b39b13	slli	x22,x7,0x1b	  x7:0x38e24000 x22=0x00000000
       90175000	      9016	80001248	00000d93	addi	x27,x0,0	  x0:0x00000000 x27=0x00000000
       90185000	      9017	8000124c	013a5493	srli	x9,x20,0x13	 x20:0xfffffcf0  x9=0x00001fff
       90195000	      9018	80001250	00300293	addi	x5,x0,3	  x0:0x00000000  x5=0x00000003
       90205000	      9019	80001254	85d2ae13	slti	x28,x5,-1955	  x5:0x00000003 x28=0x00000000
       90215000	      9020	80001258	6b11eb93	ori	x23,x3,1713	  x3:0xfffffffb x23=0xfffffffb
       90225000	      9021	8000125c	003d8d93	addi	x27,x27,3	 x27:0x00000000 x27=0x00000003
       90235000	      9022	80001260	008df5b3	and	x11,x27,x8	 x27:0x00000003  x8:0x00000000 x11=0x00000000
       90245000	      9023	80001264	7dd08613	addi	x12,x1,2013	  x1:0x00000000 x12=0x000007dd
       90255000	      9024	80001268	fe5d86e3	beq	x27,x5,80001254	 x27:0x00000003  x5:0x00000003
       90265000	      9025	00000000	00000013	addi	x0,x0,0	  x0:0x00000000
       90275000	      9026	80001250	00000013	addi	x0,x0,0	  x0:0x00000000
       90285000	      9027	80001254	85d2ae13	slti	x28,x5,-1955	  x5:0x00000003 x28=0x00000000
       90295000	      9028	80001258	6b11eb93	ori	x23,x3,1713	  x3:0xfffffffb x23=0xfffffffb
       90305000	      9029	8000125c	003d8d93	addi	x27,x27,3	 x27:0x00000003 x27=0x00000006
       90315000	      9030	80001260	008df5b3	and	x11,x27,x8	 x27:0x00000006  x8:0x00000000 x11=0x00000000
       90325000	      9031	80001264	7dd08613	addi	x12,x1,2013	  x1:0x00000000 x12=0x000007dd
       90335000	      9032	80001268	fe5d86e3	beq	x27,x5,80001254	 x27:0x00000006  x5:0x00000003
       90345000	      9033	8000126c	fad1dae3	bge	x3,x13,80001220	  x3:0xfffffffb x13:0xffffffee
       90355000	      9034	00000000	00000013	addi	x0,x0,0	  x0:0x00000000
       90365000	      9035	8000121c	00000013	addi	x0,x0,0	  x0:0x00000000
       90375000	      9036	80001220	011d0933	add	x18,x26,x17	 x26:0x0000000b x17:0x00000000 x18=0x0000000b
       90385000	      9037	80001224	38e243b7	lui	x7,0x38e24	  x7=0x38e24000
       90395000	      9038	80001228	baf4b613	sltiu	x12,x9,-1105	  x9:0x00001fff x12=0x00000001
       90405000	      9039	8000122c	003a7ab3	and	x21,x20,x3	 x20:0xfffffcf0  x3:0xfffffffb x21=0xfffffcf0
       90415000	      9040	80001230	40505433	sra	x8,x0,x5	  x0:0x00000000  x5:0x00000003  x8=0x00000000
       90425000	      9041	80001234	ff718193	addi	x3,x3,-9	  x3:0xfffffffb  x3=0xfffffff2
       90435000	      9042	80001238	00000013	addi	x0,x0,0	  x0:0x00000000
       90445000	      9043	8000123c	01c04933	xor	x18,x0,x28	  x0:0x00000000 x28:0x00000000 x18=0x00000000
       90455000	      9044	80001240	c0e7aa93	slti	x21,x15,-1010	 x15:0x00000000 x21=0x00000000
       90465000	      9045	80001244	01b39b13	slli	x22,x7,0x1b	  x7:0x38e24000 x22=0x00000000
       90475000	      9046	80001248	00000d93	addi	x27,x0,0	  x0:0x00000000 x27=0x00000000
       90485000	      9047	8000124c	013a5493	srli	x9,x20,0x13	 x20:0xfffffcf0  x9=0x00001fff
       90495000	      9048	80001250	00300293	addi	x5,x0,3	  x0:0x00000000  x5=0x00000003
       90505000	      9049	80001254	85d2ae13	slti	x28,x5,-1955	  x5:0x00000003 x28=0x00000000
       90515000	      9050	80001258	6b11eb93	ori	x23,x3,1713	  x3:0xfffffff2 x23=0xfffffff3
       90525000	      9051	8000125c	003d8d93	addi	x27,x27,3	 x27:0x00000000 x27=0x00000003
       90535000	      9052	80001260	008df5b3	and	x11,x27,x8	 x27:0x00000003  x8:0x00000000 x11=0x00000000
       90545000	      9053	80001264	7dd08613	addi	x12,x1,2013	  x1:0x00000000 x12=0x000007dd
       90555000	      9054	80001268	fe5d86e3	beq	x27,x5,80001254	 x27:0x00000003  x5:0x00000003
       90565000	      9055	00000000	00000013	addi	x0,x0,0	  x0:0x00000000
       90575000	      9056	80001250	00000013	addi	x0,x0,0	  x0:0x00000000
       90585000	      9057	80001254	85d2ae13	slti	x28,x5,-1955	  x5:0x00000003 x28=0x00000000
       90595000	      9058	80001258	6b11eb93	ori	x23,x3,1713	  x3:0xfffffff2 x23=0xfffffff3
       90605000	      9059	8000125c	003d8d93	addi	x27,x27,3	 x27:0x00000003 x27=0x00000006
       90615000	      9060	80001260	008df5b3	and	x11,x27,x8	 x27:0x00000006  x8:0x00000000 x11=0x00000000
       90625000	      9061	80001264	7dd08613	addi	x12,x1,2013	  x1:0x00000000 x12=0x000007dd
       90635000	      9062	80001268	fe5d86e3	beq	x27,x5,80001254	 x27:0x00000006  x5:0x00000003
       90645000	      9063	8000126c	fad1dae3	bge	x3,x13,80001220	  x3:0xfffffff2 x13:0xffffffee
       90655000	      9064	00000000	00000013	addi	x0,x0,0	  x0:0x00000000
       90665000	      9065	8000121c	00000013	addi	x0,x0,0	  x0:0x00000000
       90675000	      9066	80001220	011d0933	add	x18,x26,x17	 x26:0x0000000b x17:0x00000000 x18=0x0000000b
       90685000	      9067	80001224	38e243b7	lui	x7,0x38e24	  x7=0x38e24000
       90695000	      9068	80001228	baf4b613	sltiu	x12,x9,-1105	  x9:0x00001fff x12=0x00000001
       90705000	      9069	8000122c	003a7ab3	and	x21,x20,x3	 x20:0xfffffcf0  x3:0xfffffff2 x21=0xfffffcf0
       90715000	      9070	80001230	40505433	sra	x8,x0,x5	  x0:0x00000000  x5:0x00000003  x8=0x00000000
       90725000	      9071	80001234	ff718193	addi	x3,x3,-9	  x3:0xfffffff2  x3=0xffffffe9
       90735000	      9072	80001238	00000013	addi	x0,x0,0	  x0:0x00000000
       90745000	      9073	8000123c	01c04933	xor	x18,x0,x28	  x0:0x00000000 x28:0x00000000 x18=0x00000000
       90755000	      9074	80001240	c0e7aa93	slti	x21,x15,-1010	 x15:0x00000000 x21=0x00000000
       90765000	      9075	80001244	01b39b13	slli	x22,x7,0x1b	  x7:0x38e24000 x22=0x00000000
       90775000	      9076	80001248	00000d93	addi	x27,x0,0	  x0:0x00000000 x27=0x00000000
       90785000	      9077	8000124c	013a5493	srli	x9,x20,0x13	 x20:0xfffffcf0  x9=0x00001fff
       90795000	      9078	80001250	00300293	addi	x5,x0,3	  x0:0x00000000  x5=0x00000003
       90805000	      9079	80001254	85d2ae13	slti	x28,x5,-1955	  x5:0x00000003 x28=0x00000000
       90815000	      9080	80001258	6b11eb93	ori	x23,x3,1713	  x3:0xffffffe9 x23=0xfffffff9
       90825000	      9081	8000125c	003d8d93	addi	x27,x27,3	 x27:0x00000000 x27=0x00000003
       90835000	      9082	80001260	008df5b3	and	x11,x27,x8	 x27:0x00000003  x8:0x00000000 x11=0x00000000
       90845000	      9083	80001264	7dd08613	addi	x12,x1,2013	  x1:0x00000000 x12=0x000007dd
       90855000	      9084	80001268	fe5d86e3	beq	x27,x5,80001254	 x27:0x00000003  x5:0x00000003
       90865000	      9085	00000000	00000013	addi	x0,x0,0	  x0:0x00000000
       90875000	      9086	80001250	00000013	addi	x0,x0,0	  x0:0x00000000
       90885000	      9087	80001254	85d2ae13	slti	x28,x5,-1955	  x5:0x00000003 x28=0x00000000
       90895000	      9088	80001258	6b11eb93	ori	x23,x3,1713	  x3:0xffffffe9 x23=0xfffffff9
       90905000	      9089	8000125c	003d8d93	addi	x27,x27,3	 x27:0x00000003 x27=0x00000006
       90915000	      9090	80001260	008df5b3	and	x11,x27,x8	 x27:0x00000006  x8:0x00000000 x11=0x00000000
       90925000	      9091	80001264	7dd08613	addi	x12,x1,2013	  x1:0x00000000 x12=0x000007dd
       90935000	      9092	80001268	fe5d86e3	beq	x27,x5,80001254	 x27:0x00000006  x5:0x00000003
       90945000	      9093	8000126c	fad1dae3	bge	x3,x13,80001220	  x3:0xffffffe9 x13:0xffffffee
       90955000	      9094	80001270	01137bb3	and	x23,x6,x17	  x6:0x00000002 x17:0x00000000 x23=0x00000000
       90965000	      9095	80001274	41ee5b13	srai	x22,x28,0x1e	 x28:0x00000000 x22=0x00000000
       90975000	      9096	80001278	9f524337	lui	x6,0x9f524	  x6=0x9f524000
       90985000	      9097	8000127c	4032d233	sra	x4,x5,x3	  x5:0x00000003  x3:0xffffffe9  x4=0x00000000
       90995000	      9098	80001280	0f995bb7	lui	x23,0xf995	 x23=0x0f995000
       91005000	      9099	80001284	6cf5be17	auipc	x28,0x6cf5b	 x28=0xecf5c280
       91015000	      9100	80001288	01d05e63	bge	x0,x29,800012a4	  x0:0x00000000 x29:0x00000000
       91025000	      9101	00000000	00000013	addi	x0,x0,0	  x0:0x00000000
       91035000	      9102	800012a0	00000013	addi	x0,x0,0	  x0:0x00000000
       91045000	      9103	800012a4	c4020a13	addi	x20,x4,-960	  x4:0x00000000 x20=0xfffffc40
       91055000	      9104	800012a8	001750b3	srl	x1,x14,x1	 x14:0x80009fc4  x1:0x00000000  x1=0x80009fc4
       91065000	      9105	800012ac	05b8d863	bge	x17,x27,800012fc	 x17:0x00000000 x27:0x00000006
       91075000	      9106	800012b0	500295b7	lui	x11,0x50029	 x11=0x50029000
       91085000	      9107	800012b4	bbc86693	ori	x13,x16,-1092	 x16:0x00000003 x13=0xfffffbbf
       91095000	      9108	800012b8	b70ff593	andi	x11,x31,-1168	 x31:0x0abb61f8 x11=0x0abb6170
       91105000	      9109	800012bc	01f3b1b3	sltu	x3,x7,x31	  x7:0x38e24000 x31:0x0abb61f8  x3=0x00000000
       91115000	      9110	800012c0	04b76063	bltu	x14,x11,80001300	 x14:0x80009fc4 x11:0x0abb6170
       91125000	      9111	800012c4	010cdb93	srli	x23,x25,0x10	 x25:0x00000002 x23=0x00000000
       91135000	      9112	800012c8	02a15263	bge	x2,x10,800012ec	  x2:0xf6240000 x10:0xf91950e0
       91145000	      9113	800012cc	003b1433	sll	x8,x22,x3	 x22:0x00000000  x3:0x00000000  x8=0x00000000
       91155000	      9114	800012d0	00d4bab3	sltu	x21,x9,x13	  x9:0x00001fff x13:0xfffffbbf x21=0x00000001
       91165000	      9115	800012d4	29350437	lui	x8,0x29350	  x8=0x29350000
       91175000	      9116	800012d8	0024c0b3	xor	x1,x9,x2	  x9:0x00001fff  x2:0xf6240000  x1=0xf6241fff
       91185000	      9117	800012dc	a060fab7	lui	x21,0xa060f	 x21=0xa060f000
       91195000	      9118	800012e0	e242b893	sltiu	x17,x5,-476	  x5:0x00000003 x17=0x00000001
       91205000	      9119	800012e4	0501f863	bgeu	x3,x16,80001334	  x3:0x00000000 x16:0x00000003
       91215000	      9120	800012e8	414e5913	srai	x18,x28,0x14	 x28:0xecf5c280 x18=0xfffffecf
       91225000	      9121	800012ec	0281c263	blt	x3,x8,80001310	  x3:0x00000000  x8:0x29350000
       91235000	      9122	00000000	00000013	addi	x0,x0,0	  x0:0x00000000
       91245000	      9123	8000130c	00000013	addi	x0,x0,0	  x0:0x00000000
       91255000	      9124	80001310	be70eab7	lui	x21,0xbe70e	 x21=0xbe70e000
       91265000	      9125	80001314	4e2a7213	andi	x4,x20,1250	 x20:0xfffffc40  x4=0x00000440
       91275000	      9126	80001318	02b34263	blt	x6,x11,8000133c	  x6:0x9f524000 x11:0x0abb6170
       91285000	      9127	00000000	00000013	addi	x0,x0,0	  x0:0x00000000
       91295000	      9128	80001338	00000013	addi	x0,x0,0	  x0:0x00000000
       91305000	      9129	8000133c	4188d233	sra	x4,x17,x24	 x17:0x00000001 x24:0xfffffff5  x4=0x00000000
       91315000	      9130	80001340	012729b3	slt	x19,x14,x18	 x14:0x80009fc4 x18:0xfffffecf x19=0x00000001
       91325000	      9131	80001344	0053ce63	blt	x7,x5,80001360	  x7:0x38e24000  x5:0x00000003
       91335000	      9132	80001348	0037c863	blt	x15,x3,80001358	 x15:0x00000000  x3:0x00000000
       91345000	      9133	8000134c	4115d693	srai	x13,x11,0x11	 x11:0x0abb6170 x13=0x0000055d
       91355000	      9134	80001350	622a4a93	xori	x21,x20,1570	 x20:0xfffffc40 x21=0xfffffa62
       91365000	      9135	80001354	00000013	addi	x0,x0,0	  x0:0x00000000
       91375000	      9136	80001358	400c5033	sra	x0,x24,x0	 x24:0xfffffff5  x0:0x00000000
       91385000	      9137	8000135c	00178b33	add	x22,x15,x1	 x15:0x00000000  x1:0xf6241fff x22=0xf6241fff
       91395000	      9138	80001360	015c1213	slli	x4,x24,0x15	 x24:0xfffffff5  x4=0xfea00000
       91405000	      9139	80001364	01a74933	xor	x18,x14,x26	 x14:0x80009fc4 x26:0x0000000b x18=0x80009fcf
       91415000	      9140	80001368	46e2a3b7	lui	x7,0x46e2a	  x7=0x46e2a000
       91425000	      9141	8000136c	00600b13	addi	x22,x0,6	  x0:0x00000000 x22=0x00000006
       91435000	      9142	80001370	ffe00293	addi	x5,x0,-2	  x0:0x00000000  x5=0xfffffffe
       91445000	      9143	80001374	019963b3	or	x7,x18,x25	 x18:0x80009fcf x25:0x00000002  x7=0x80009fcf
       91455000	      9144	80001378	11c50b93	addi	x23,x10,284	 x10:0xf91950e0 x23=0xf91951fc
       91465000	      9145	8000137c	ff8b0b13	addi	x22,x22,-8	 x22:0x00000006 x22=0xfffffffe
       91475000	      9146	80001380	00125e93	srli	x29,x4,0x1	  x4:0xfea00000 x29=0x7f500000
       91485000	      9147	80001384	ff700913	addi	x18,x0,-9	  x0:0x00000000 x18=0xfffffff7
       91495000	      9148	80001388	00800c93	addi	x25,x0,8	  x0:0x00000000 x25=0x00000008
       91505000	      9149	8000138c	4179cc13	xori	x24,x19,1047	 x19:0x00000001 x24=0x00000416
       91515000	      9150	80001390	9005ab93	slti	x23,x11,-1792	 x11:0x0abb6170 x23=0x00000000
       91525000	      9151	80001394	eea5a393	slti	x7,x11,-278	 x11:0x0abb6170  x7=0x00000000
       91535000	      9152	80001398	40b95133	sra	x2,x18,x11	 x18:0xfffffff7 x11:0x0abb6170  x2=0xffffffff
       91545000	      9153	8000139c	0180d093	srli	x1,x1,0x18	  x1:0xf6241fff  x1=0x000000f6
       91555000	      9154	800013a0	3d1bb793	sltiu	x15,x23,977	 x23:0x00000000 x15=0x00000001
       91565000	      9155	800013a4	00290913	addi	x18,x18,2	 x18:0xfffffff7 x18=0xfffffff9
       91575000	      9156	800013a8	40a0dab3	sra	x21,x1,x10	  x1:0x000000f6 x10:0xf91950e0 x21=0x000000f6
       91585000	      9157	800013ac	0a54a793	slti	x15,x9,165	  x9:0x00001fff x15=0x00000000
       91595000	      9158	800013b0	ff9948e3	blt	x18,x25,800013a0	 x18:0xfffffff9 x25:0x00000008
       91605000	      9159	00000000	00000013	addi	x0,x0,0	  x0:0x00000000
       91615000	      9160	8000139c	00000013	addi	x0,x0,0	  x0:0x00000000
       91625000	      9161	800013a0	3d1bb793	sltiu	x15,x23,977	 x23:0x00000000 x15=0x00000001
       91635000	      9162	800013a4	00290913	addi	x18,x18,2	 x18:0xfffffff9 x18=0xfffffffb
       91645000	      9163	800013a8	40a0dab3	sra	x21,x1,x10	  x1:0x000000f6 x10:0xf91950e0 x21=0x000000f6
       91655000	      9164	800013ac	0a54a793	slti	x15,x9,165	  x9:0x00001fff x15=0x00000000
       91665000	      9165	800013b0	ff9948e3	blt	x18,x25,800013a0	 x18:0xfffffffb x25:0x00000008
       91675000	      9166	00000000	00000013	addi	x0,x0,0	  x0:0x00000000
       91685000	      9167	8000139c	00000013	addi	x0,x0,0	  x0:0x00000000
       91695000	      9168	800013a0	3d1bb793	sltiu	x15,x23,977	 x23:0x00000000 x15=0x00000001
       91705000	      9169	800013a4	00290913	addi	x18,x18,2	 x18:0xfffffffb x18=0xfffffffd
       91715000	      9170	800013a8	40a0dab3	sra	x21,x1,x10	  x1:0x000000f6 x10:0xf91950e0 x21=0x000000f6
       91725000	      9171	800013ac	0a54a793	slti	x15,x9,165	  x9:0x00001fff x15=0x00000000
       91735000	      9172	800013b0	ff9948e3	blt	x18,x25,800013a0	 x18:0xfffffffd x25:0x00000008
       91745000	      9173	00000000	00000013	addi	x0,x0,0	  x0:0x00000000
       91755000	      9174	8000139c	00000013	addi	x0,x0,0	  x0:0x00000000
       91765000	      9175	800013a0	3d1bb793	sltiu	x15,x23,977	 x23:0x00000000 x15=0x00000001
       91775000	      9176	800013a4	00290913	addi	x18,x18,2	 x18:0xfffffffd x18=0xffffffff
       91785000	      9177	800013a8	40a0dab3	sra	x21,x1,x10	  x1:0x000000f6 x10:0xf91950e0 x21=0x000000f6
       91795000	      9178	800013ac	0a54a793	slti	x15,x9,165	  x9:0x00001fff x15=0x00000000
       91805000	      9179	800013b0	ff9948e3	blt	x18,x25,800013a0	 x18:0xffffffff x25:0x00000008
       91815000	      9180	00000000	00000013	addi	x0,x0,0	  x0:0x00000000
       91825000	      9181	8000139c	00000013	addi	x0,x0,0	  x0:0x00000000
       91835000	      9182	800013a0	3d1bb793	sltiu	x15,x23,977	 x23:0x00000000 x15=0x00000001
       91845000	      9183	800013a4	00290913	addi	x18,x18,2	 x18:0xffffffff x18=0x00000001
       91855000	      9184	800013a8	40a0dab3	sra	x21,x1,x10	  x1:0x000000f6 x10:0xf91950e0 x21=0x000000f6
       91865000	      9185	800013ac	0a54a793	slti	x15,x9,165	  x9:0x00001fff x15=0x00000000
       91875000	      9186	800013b0	ff9948e3	blt	x18,x25,800013a0	 x18:0x00000001 x25:0x00000008
       91885000	      9187	00000000	00000013	addi	x0,x0,0	  x0:0x00000000
       91895000	      9188	8000139c	00000013	addi	x0,x0,0	  x0:0x00000000
       91905000	      9189	800013a0	3d1bb793	sltiu	x15,x23,977	 x23:0x00000000 x15=0x00000001
       91915000	      9190	800013a4	00290913	addi	x18,x18,2	 x18:0x00000001 x18=0x00000003
       91925000	      9191	800013a8	40a0dab3	sra	x21,x1,x10	  x1:0x000000f6 x10:0xf91950e0 x21=0x000000f6
       91935000	      9192	800013ac	0a54a793	slti	x15,x9,165	  x9:0x00001fff x15=0x00000000
       91945000	      9193	800013b0	ff9948e3	blt	x18,x25,800013a0	 x18:0x00000003 x25:0x00000008
       91955000	      9194	00000000	00000013	addi	x0,x0,0	  x0:0x00000000
       91965000	      9195	8000139c	00000013	addi	x0,x0,0	  x0:0x00000000
       91975000	      9196	800013a0	3d1bb793	sltiu	x15,x23,977	 x23:0x00000000 x15=0x00000001
       91985000	      9197	800013a4	00290913	addi	x18,x18,2	 x18:0x00000003 x18=0x00000005
       91995000	      9198	800013a8	40a0dab3	sra	x21,x1,x10	  x1:0x000000f6 x10:0xf91950e0 x21=0x000000f6
       92005000	      9199	800013ac	0a54a793	slti	x15,x9,165	  x9:0x00001fff x15=0x00000000
       92015000	      9200	800013b0	ff9948e3	blt	x18,x25,800013a0	 x18:0x00000005 x25:0x00000008
       92025000	      9201	00000000	00000013	addi	x0,x0,0	  x0:0x00000000
       92035000	      9202	8000139c	00000013	addi	x0,x0,0	  x0:0x00000000
       92045000	      9203	800013a0	3d1bb793	sltiu	x15,x23,977	 x23:0x00000000 x15=0x00000001
       92055000	      9204	800013a4	00290913	addi	x18,x18,2	 x18:0x00000005 x18=0x00000007
       92065000	      9205	800013a8	40a0dab3	sra	x21,x1,x10	  x1:0x000000f6 x10:0xf91950e0 x21=0x000000f6
       92075000	      9206	800013ac	0a54a793	slti	x15,x9,165	  x9:0x00001fff x15=0x00000000
       92085000	      9207	800013b0	ff9948e3	blt	x18,x25,800013a0	 x18:0x00000007 x25:0x00000008
       92095000	      9208	00000000	00000013	addi	x0,x0,0	  x0:0x00000000
       92105000	      9209	8000139c	00000013	addi	x0,x0,0	  x0:0x00000000
       92115000	      9210	800013a0	3d1bb793	sltiu	x15,x23,977	 x23:0x00000000 x15=0x00000001
       92125000	      9211	800013a4	00290913	addi	x18,x18,2	 x18:0x00000007 x18=0x00000009
       92135000	      9212	800013a8	40a0dab3	sra	x21,x1,x10	  x1:0x000000f6 x10:0xf91950e0 x21=0x000000f6
       92145000	      9213	800013ac	0a54a793	slti	x15,x9,165	  x9:0x00001fff x15=0x00000000
       92155000	      9214	800013b0	ff9948e3	blt	x18,x25,800013a0	 x18:0x00000009 x25:0x00000008
       92165000	      9215	800013b4	005fdbb3	srl	x23,x31,x5	 x31:0x0abb61f8  x5:0xfffffffe x23=0x00000000
       92175000	      9216	800013b8	fc5b00e3	beq	x22,x5,80001378	 x22:0xfffffffe  x5:0xfffffffe
       92185000	      9217	00000000	00000013	addi	x0,x0,0	  x0:0x00000000
       92195000	      9218	80001374	00000013	addi	x0,x0,0	  x0:0x00000000
       92205000	      9219	80001378	11c50b93	addi	x23,x10,284	 x10:0xf91950e0 x23=0xf91951fc
       92215000	      9220	8000137c	ff8b0b13	addi	x22,x22,-8	 x22:0xfffffffe x22=0xfffffff6
       92225000	      9221	80001380	00125e93	srli	x29,x4,0x1	  x4:0xfea00000 x29=0x7f500000
       92235000	      9222	80001384	ff700913	addi	x18,x0,-9	  x0:0x00000000 x18=0xfffffff7
       92245000	      9223	80001388	00800c93	addi	x25,x0,8	  x0:0x00000000 x25=0x00000008
       92255000	      9224	8000138c	4179cc13	xori	x24,x19,1047	 x19:0x00000001 x24=0x00000416
       92265000	      9225	80001390	9005ab93	slti	x23,x11,-1792	 x11:0x0abb6170 x23=0x00000000
       92275000	      9226	80001394	eea5a393	slti	x7,x11,-278	 x11:0x0abb6170  x7=0x00000000
       92285000	      9227	80001398	40b95133	sra	x2,x18,x11	 x18:0xfffffff7 x11:0x0abb6170  x2=0xffffffff
       92295000	      9228	8000139c	0180d093	srli	x1,x1,0x18	  x1:0x000000f6  x1=0x00000000
       92305000	      9229	800013a0	3d1bb793	sltiu	x15,x23,977	 x23:0x00000000 x15=0x00000001
       92315000	      9230	800013a4	00290913	addi	x18,x18,2	 x18:0xfffffff7 x18=0xfffffff9
       92325000	      9231	800013a8	40a0dab3	sra	x21,x1,x10	  x1:0x00000000 x10:0xf91950e0 x21=0x00000000
       92335000	      9232	800013ac	0a54a793	slti	x15,x9,165	  x9:0x00001fff x15=0x00000000
       92345000	      9233	800013b0	ff9948e3	blt	x18,x25,800013a0	 x18:0xfffffff9 x25:0x00000008
       92355000	      9234	00000000	00000013	addi	x0,x0,0	  x0:0x00000000
       92365000	      9235	8000139c	00000013	addi	x0,x0,0	  x0:0x00000000
       92375000	      9236	800013a0	3d1bb793	sltiu	x15,x23,977	 x23:0x00000000 x15=0x00000001
       92385000	      9237	800013a4	00290913	addi	x18,x18,2	 x18:0xfffffff9 x18=0xfffffffb
       92395000	      9238	800013a8	40a0dab3	sra	x21,x1,x10	  x1:0x00000000 x10:0xf91950e0 x21=0x00000000
       92405000	      9239	800013ac	0a54a793	slti	x15,x9,165	  x9:0x00001fff x15=0x00000000
       92415000	      9240	800013b0	ff9948e3	blt	x18,x25,800013a0	 x18:0xfffffffb x25:0x00000008
       92425000	      9241	00000000	00000013	addi	x0,x0,0	  x0:0x00000000
       92435000	      9242	8000139c	00000013	addi	x0,x0,0	  x0:0x00000000
       92445000	      9243	800013a0	3d1bb793	sltiu	x15,x23,977	 x23:0x00000000 x15=0x00000001
       92455000	      9244	800013a4	00290913	addi	x18,x18,2	 x18:0xfffffffb x18=0xfffffffd
       92465000	      9245	800013a8	40a0dab3	sra	x21,x1,x10	  x1:0x00000000 x10:0xf91950e0 x21=0x00000000
       92475000	      9246	800013ac	0a54a793	slti	x15,x9,165	  x9:0x00001fff x15=0x00000000
       92485000	      9247	800013b0	ff9948e3	blt	x18,x25,800013a0	 x18:0xfffffffd x25:0x00000008
       92495000	      9248	00000000	00000013	addi	x0,x0,0	  x0:0x00000000
       92505000	      9249	8000139c	00000013	addi	x0,x0,0	  x0:0x00000000
       92515000	      9250	800013a0	3d1bb793	sltiu	x15,x23,977	 x23:0x00000000 x15=0x00000001
       92525000	      9251	800013a4	00290913	addi	x18,x18,2	 x18:0xfffffffd x18=0xffffffff
       92535000	      9252	800013a8	40a0dab3	sra	x21,x1,x10	  x1:0x00000000 x10:0xf91950e0 x21=0x00000000
       92545000	      9253	800013ac	0a54a793	slti	x15,x9,165	  x9:0x00001fff x15=0x00000000
       92555000	      9254	800013b0	ff9948e3	blt	x18,x25,800013a0	 x18:0xffffffff x25:0x00000008
       92565000	      9255	00000000	00000013	addi	x0,x0,0	  x0:0x00000000
       92575000	      9256	8000139c	00000013	addi	x0,x0,0	  x0:0x00000000
       92585000	      9257	800013a0	3d1bb793	sltiu	x15,x23,977	 x23:0x00000000 x15=0x00000001
       92595000	      9258	800013a4	00290913	addi	x18,x18,2	 x18:0xffffffff x18=0x00000001
       92605000	      9259	800013a8	40a0dab3	sra	x21,x1,x10	  x1:0x00000000 x10:0xf91950e0 x21=0x00000000
       92615000	      9260	800013ac	0a54a793	slti	x15,x9,165	  x9:0x00001fff x15=0x00000000
       92625000	      9261	800013b0	ff9948e3	blt	x18,x25,800013a0	 x18:0x00000001 x25:0x00000008
       92635000	      9262	00000000	00000013	addi	x0,x0,0	  x0:0x00000000
       92645000	      9263	8000139c	00000013	addi	x0,x0,0	  x0:0x00000000
       92655000	      9264	800013a0	3d1bb793	sltiu	x15,x23,977	 x23:0x00000000 x15=0x00000001
       92665000	      9265	800013a4	00290913	addi	x18,x18,2	 x18:0x00000001 x18=0x00000003
       92675000	      9266	800013a8	40a0dab3	sra	x21,x1,x10	  x1:0x00000000 x10:0xf91950e0 x21=0x00000000
       92685000	      9267	800013ac	0a54a793	slti	x15,x9,165	  x9:0x00001fff x15=0x00000000
       92695000	      9268	800013b0	ff9948e3	blt	x18,x25,800013a0	 x18:0x00000003 x25:0x00000008
       92705000	      9269	00000000	00000013	addi	x0,x0,0	  x0:0x00000000
       92715000	      9270	8000139c	00000013	addi	x0,x0,0	  x0:0x00000000
       92725000	      9271	800013a0	3d1bb793	sltiu	x15,x23,977	 x23:0x00000000 x15=0x00000001
       92735000	      9272	800013a4	00290913	addi	x18,x18,2	 x18:0x00000003 x18=0x00000005
       92745000	      9273	800013a8	40a0dab3	sra	x21,x1,x10	  x1:0x00000000 x10:0xf91950e0 x21=0x00000000
       92755000	      9274	800013ac	0a54a793	slti	x15,x9,165	  x9:0x00001fff x15=0x00000000
       92765000	      9275	800013b0	ff9948e3	blt	x18,x25,800013a0	 x18:0x00000005 x25:0x00000008
       92775000	      9276	00000000	00000013	addi	x0,x0,0	  x0:0x00000000
       92785000	      9277	8000139c	00000013	addi	x0,x0,0	  x0:0x00000000
       92795000	      9278	800013a0	3d1bb793	sltiu	x15,x23,977	 x23:0x00000000 x15=0x00000001
       92805000	      9279	800013a4	00290913	addi	x18,x18,2	 x18:0x00000005 x18=0x00000007
       92815000	      9280	800013a8	40a0dab3	sra	x21,x1,x10	  x1:0x00000000 x10:0xf91950e0 x21=0x00000000
       92825000	      9281	800013ac	0a54a793	slti	x15,x9,165	  x9:0x00001fff x15=0x00000000
       92835000	      9282	800013b0	ff9948e3	blt	x18,x25,800013a0	 x18:0x00000007 x25:0x00000008
       92845000	      9283	00000000	00000013	addi	x0,x0,0	  x0:0x00000000
       92855000	      9284	8000139c	00000013	addi	x0,x0,0	  x0:0x00000000
       92865000	      9285	800013a0	3d1bb793	sltiu	x15,x23,977	 x23:0x00000000 x15=0x00000001
       92875000	      9286	800013a4	00290913	addi	x18,x18,2	 x18:0x00000007 x18=0x00000009
       92885000	      9287	800013a8	40a0dab3	sra	x21,x1,x10	  x1:0x00000000 x10:0xf91950e0 x21=0x00000000
       92895000	      9288	800013ac	0a54a793	slti	x15,x9,165	  x9:0x00001fff x15=0x00000000
       92905000	      9289	800013b0	ff9948e3	blt	x18,x25,800013a0	 x18:0x00000009 x25:0x00000008
       92915000	      9290	800013b4	005fdbb3	srl	x23,x31,x5	 x31:0x0abb61f8  x5:0xfffffffe x23=0x00000000
       92925000	      9291	800013b8	fc5b00e3	beq	x22,x5,80001378	 x22:0xfffffff6  x5:0xfffffffe
       92935000	      9292	800013bc	4001d3b3	sra	x7,x3,x0	  x3:0x00000000  x0:0x00000000  x7=0x00000000
       92945000	      9293	800013c0	bc8df913	andi	x18,x27,-1080	 x27:0x00000006 x18=0x00000000
       92955000	      9294	800013c4	8ac48e13	addi	x28,x9,-1876	  x9:0x00001fff x28=0x000018ab
       92965000	      9295	800013c8	3cb77097	auipc	x1,0x3cb77	  x1=0xbcb783c4
       92975000	      9296	800013cc	41dd5593	srai	x11,x26,0x1d	 x26:0x0000000b x11=0x00000000
       92985000	      9297	800013d0	0077fc63	bgeu	x15,x7,800013e8	 x15:0x00000000  x7:0x00000000
       92995000	      9298	00000000	00000013	addi	x0,x0,0	  x0:0x00000000
       93005000	      9299	800013e4	00000013	addi	x0,x0,0	  x0:0x00000000
       93015000	      9300	800013e8	5b0be093	ori	x1,x23,1456	 x23:0x00000000  x1=0x000005b0
       93025000	      9301	800013ec	00eeeb33	or	x22,x29,x14	 x29:0x7f500000 x14:0x80009fc4 x22=0xff509fc4
       93035000	      9302	800013f0	a8bb2393	slti	x7,x22,-1397	 x22:0xff509fc4  x7=0x00000001
       93045000	      9303	800013f4	04517863	bgeu	x2,x5,80001444	  x2:0xffffffff  x5:0xfffffffe
       93055000	      9304	00000000	00000013	addi	x0,x0,0	  x0:0x00000000
       93065000	      9305	80001440	00000013	addi	x0,x0,0	  x0:0x00000000
       93075000	      9306	80001444	015bdb13	srli	x22,x23,0x15	 x23:0x00000000 x22=0x00000000
       93085000	      9307	80001448	405d8db3	sub	x27,x27,x5	 x27:0x00000006  x5:0xfffffffe x27=0x00000008
       93095000	      9308	8000144c	000d03b3	add	x7,x26,x0	 x26:0x0000000b  x0:0x00000000  x7=0x0000000b
       93105000	      9309	80001450	bb6bba13	sltiu	x20,x23,-1098	 x23:0x00000000 x20=0x00000001
       93115000	      9310	80001454	aec58d93	addi	x27,x11,-1300	 x11:0x00000000 x27=0xfffffaec
       93125000	      9311	80001458	7964ed93	ori	x27,x9,1942	  x9:0x00001fff x27=0x00001fff
       93135000	      9312	8000145c	05245063	bge	x8,x18,8000149c	  x8:0x29350000 x18:0x00000000
       93145000	      9313	00000000	00000013	addi	x0,x0,0	  x0:0x00000000
       93155000	      9314	80001498	00000013	addi	x0,x0,0	  x0:0x00000000
       93165000	      9315	8000149c	00000013	addi	x0,x0,0	  x0:0x00000000
       93175000	      9316	800014a0	002e7b33	and	x22,x28,x2	 x28:0x000018ab  x2:0xffffffff x22=0x000018ab
       93185000	      9317	800014a4	40908eb3	sub	x29,x1,x9	  x1:0x000005b0  x9:0x00001fff x29=0xffffe5b1
       93195000	      9318	800014a8	00000013	addi	x0,x0,0	  x0:0x00000000
       93205000	      9319	800014ac	237fd117	auipc	x2,0x237fd	  x2=0xa37fe4a8
       93215000	      9320	800014b0	859e0a97	auipc	x21,0x859e0	 x21=0x059e14ac
       93225000	      9321	800014b4	00075bb3	srl	x23,x14,x0	 x14:0x80009fc4  x0:0x00000000 x23=0x80009fc4
       93235000	      9322	800014b8	f90e7913	andi	x18,x28,-112	 x28:0x000018ab x18=0x00001880
       93245000	      9323	800014bc	83020893	addi	x17,x4,-2000	  x4:0xfea00000 x17=0xfe9ff830
       93255000	      9324	800014c0	005e5863	bge	x28,x5,800014d0	 x28:0x000018ab  x5:0xfffffffe
       93265000	      9325	00000000	00000013	addi	x0,x0,0	  x0:0x00000000
       93275000	      9326	800014cc	00000013	addi	x0,x0,0	  x0:0x00000000
       93285000	      9327	800014d0	ed314797	auipc	x15,0xed314	 x15=0x6d3154cc
       93295000	      9328	800014d4	01220fb3	add	x31,x4,x18	  x4:0xfea00000 x18:0x00001880 x31=0xfea01880
       93305000	      9329	800014d8	01155593	srli	x11,x10,0x11	 x10:0xf91950e0 x11=0x00007c8c
       93315000	      9330	800014dc	01e92c33	slt	x24,x18,x30	 x18:0x00001880 x30:0x80009f34 x24=0x00000000
       93325000	      9331	800014e0	80314db7	lui	x27,0x80314	 x27=0x80314000
       93335000	      9332	800014e4	029f5a63	bge	x30,x9,80001518	 x30:0x80009f34  x9:0x00001fff
       93345000	      9333	800014e8	00d037b3	sltu	x15,x0,x13	  x0:0x00000000 x13:0x0000055d x15=0x00000001
       93355000	      9334	800014ec	02764e63	blt	x12,x7,80001528	 x12:0x000007dd  x7:0x0000000b
       93365000	      9335	800014f0	008408b3	add	x17,x8,x8	  x8:0x29350000  x8:0x29350000 x17=0x526a0000
       93375000	      9336	800014f4	01a91413	slli	x8,x18,0x1a	 x18:0x00001880  x8=0x00000000
       93385000	      9337	800014f8	fbcc62b7	lui	x5,0xfbcc6	  x5=0xfbcc6000
       93395000	      9338	800014fc	d2436613	ori	x12,x6,-732	  x6:0x9f524000 x12=0xfffffd24
       93405000	      9339	80001500	01f5d413	srli	x8,x11,0x1f	 x11:0x00007c8c  x8=0x00000000
       93415000	      9340	80001504	002e9bb3	sll	x23,x29,x2	 x29:0xffffe5b1  x2:0xa37fe4a8 x23=0xffe5b100
       93425000	      9341	80001508	dc6f1197	auipc	x3,0xdc6f1	  x3=0x5c6f2504
       93435000	      9342	8000150c	00c0c433	xor	x8,x1,x12	  x1:0x000005b0 x12:0xfffffd24  x8=0xfffff894
       93445000	      9343	80001510	69842213	slti	x4,x8,1688	  x8:0xfffff894  x4=0x00000001
       93455000	      9344	80001514	01445bb3	srl	x23,x8,x20	  x8:0xfffff894 x20:0x00000001 x23=0x7ffffc4a
       93465000	      9345	80001518	5484e017	auipc	x0,0x5484e	
       93475000	      9346	8000151c	01d153b3	srl	x7,x2,x29	  x2:0xa37fe4a8 x29:0xffffe5b1  x7=0x000051bf
       93485000	      9347	80001520	01e14cb3	xor	x25,x2,x30	  x2:0xa37fe4a8 x30:0x80009f34 x25=0x237f7b9c
       93495000	      9348	80001524	40eadb33	sra	x22,x21,x14	 x21:0x059e14ac x14:0x80009fc4 x22=0x0059e14a
       93505000	      9349	80001528	0502f863	bgeu	x5,x16,80001578	  x5:0xfbcc6000 x16:0x00000003
       93515000	      9350	00000000	00000013	addi	x0,x0,0	  x0:0x00000000
       93525000	      9351	80001574	00000013	addi	x0,x0,0	  x0:0x00000000
       93535000	      9352	80001578	00cf1133	sll	x2,x30,x12	 x30:0x80009f34 x12:0xfffffd24  x2=0x0009f340
       93545000	      9353	8000157c	04691663	bne	x18,x6,800015c8	 x18:0x00001880  x6:0x9f524000
       93555000	      9354	00000000	00000013	addi	x0,x0,0	  x0:0x00000000
       93565000	      9355	800015c4	00000013	addi	x0,x0,0	  x0:0x00000000
       93575000	      9356	800015c8	401e0b33	sub	x22,x28,x1	 x28:0x000018ab  x1:0x000005b0 x22=0x000012fb
       93585000	      9357	800015cc	41bd0233	sub	x4,x26,x27	 x26:0x0000000b x27:0x80314000  x4=0x7fcec00b
       93595000	      9358	800015d0	557ea193	slti	x3,x29,1367	 x29:0xffffe5b1  x3=0x00000001
       93605000	      9359	800015d4	01effc63	bgeu	x31,x30,800015ec	 x31:0xfea01880 x30:0x80009f34
       93615000	      9360	00000000	00000013	addi	x0,x0,0	  x0:0x00000000
       93625000	      9361	800015e8	00000013	addi	x0,x0,0	  x0:0x00000000
       93635000	      9362	800015ec	00b25193	srli	x3,x4,0xb	  x4:0x7fcec00b  x3=0x000ff9d8
       93645000	      9363	800015f0	013cd493	srli	x9,x25,0x13	 x25:0x237f7b9c  x9=0x0000046f
       93655000	      9364	800015f4	014443b3	xor	x7,x8,x20	  x8:0xfffff894 x20:0x00000001  x7=0xfffff895
       93665000	      9365	800015f8	4b410093	addi	x1,x2,1204	  x2:0x0009f340  x1=0x0009f7f4
       93675000	      9366	800015fc	0225c263	blt	x11,x2,80001620	 x11:0x00007c8c  x2:0x0009f340
       93685000	      9367	00000000	00000013	addi	x0,x0,0	  x0:0x00000000
       93695000	      9368	8000161c	00000013	addi	x0,x0,0	  x0:0x00000000
       93705000	      9369	80001620	44788e93	addi	x29,x17,1095	 x17:0x526a0000 x29=0x526a0447
       93715000	      9370	80001624	0068c533	xor	x10,x17,x6	 x17:0x526a0000  x6:0x9f524000 x10=0xcd384000
       93725000	      9371	80001628	01e0a1b3	slt	x3,x1,x30	  x1:0x0009f7f4 x30:0x80009f34  x3=0x00000000
       93735000	      9372	8000162c	ff700f93	addi	x31,x0,-9	  x0:0x00000000 x31=0xfffffff7
       93745000	      9373	80001630	01701133	sll	x2,x0,x23	  x0:0x00000000 x23:0x7ffffc4a  x2=0x00000000
       93755000	      9374	80001634	ffb00613	addi	x12,x0,-5	  x0:0x00000000 x12=0xfffffffb
       93765000	      9375	80001638	45822513	slti	x10,x4,1112	  x4:0x7fcec00b x10=0x00000000
       93775000	      9376	8000163c	007419b3	sll	x19,x8,x7	  x8:0xfffff894  x7:0xfffff895 x19=0x12800000
       93785000	      9377	80001640	ab653913	sltiu	x18,x10,-1354	 x10:0x00000000 x18=0x00000001
       93795000	      9378	80001644	004f8f93	addi	x31,x31,4	 x31:0xfffffff7 x31=0xfffffffb
       93805000	      9379	80001648	00d5cb33	xor	x22,x11,x13	 x11:0x00007c8c x13:0x0000055d x22=0x000079d1
       93815000	      9380	8000164c	00800793	addi	x15,x0,8	  x0:0x00000000 x15=0x00000008
       93825000	      9381	80001650	ffd00d93	addi	x27,x0,-3	  x0:0x00000000 x27=0xfffffffd
       93835000	      9382	80001654	41dc0533	sub	x10,x24,x29	 x24:0x00000000 x29:0x526a0447 x10=0xad95fbb9
       93845000	      9383	80001658	40e1d013	srai	x0,x3,0xe	  x3:0x00000000
       93855000	      9384	8000165c	6ee4b893	sltiu	x17,x9,1774	  x9:0x0000046f x17=0x00000001
       93865000	      9385	80001660	ff978793	addi	x15,x15,-7	 x15:0x00000008 x15=0x00000001
       93875000	      9386	80001664	00000013	addi	x0,x0,0	  x0:0x00000000
       93885000	      9387	80001668	ffb7d6e3	bge	x15,x27,80001654	 x15:0x00000001 x27:0xfffffffd
       93895000	      9388	00000000	00000013	addi	x0,x0,0	  x0:0x00000000
       93905000	      9389	80001650	00000013	addi	x0,x0,0	  x0:0x00000000
       93915000	      9390	80001654	41dc0533	sub	x10,x24,x29	 x24:0x00000000 x29:0x526a0447 x10=0xad95fbb9
       93925000	      9391	80001658	40e1d013	srai	x0,x3,0xe	  x3:0x00000000
       93935000	      9392	8000165c	6ee4b893	sltiu	x17,x9,1774	  x9:0x0000046f x17=0x00000001
       93945000	      9393	80001660	ff978793	addi	x15,x15,-7	 x15:0x00000001 x15=0xfffffffa
       93955000	      9394	80001664	00000013	addi	x0,x0,0	  x0:0x00000000
       93965000	      9395	80001668	ffb7d6e3	bge	x15,x27,80001654	 x15:0xfffffffa x27:0xfffffffd
       93975000	      9396	8000166c	68573e97	auipc	x29,0x68573	 x29=0xe8574668
       93985000	      9397	80001670	40dd5bb3	sra	x23,x26,x13	 x26:0x0000000b x13:0x0000055d x23=0x00000000
       93995000	      9398	80001674	41b203b3	sub	x7,x4,x27	  x4:0x7fcec00b x27:0xfffffffd  x7=0x7fcec00e
       94005000	      9399	80001678	015d5513	srli	x10,x26,0x15	 x26:0x0000000b x10=0x00000000
       94015000	      9400	8000167c	3dc79317	auipc	x6,0x3dc79	  x6=0xbdc7a678
       94025000	      9401	80001680	00000013	addi	x0,x0,0	  x0:0x00000000
       94035000	      9402	80001684	b0bd1497	auipc	x9,0xb0bd1	  x9=0x30bd2680
       94045000	      9403	80001688	d00069b7	lui	x19,0xd0006	 x19=0xd0006000
       94055000	      9404	8000168c	011a9193	slli	x3,x21,0x11	 x21:0x059e14ac  x3=0x29580000
       94065000	      9405	80001690	0115a9b3	slt	x19,x11,x17	 x11:0x00007c8c x17:0x00000001 x19=0x00000000
       94075000	      9406	80001694	01d3a4b3	slt	x9,x7,x29	  x7:0x7fcec00e x29:0xe8574668  x9=0x00000000
       94085000	      9407	80001698	00ce1a13	slli	x20,x28,0xc	 x28:0x000018ab x20=0x018ab000
       94095000	      9408	8000169c	facf92e3	bne	x31,x12,80001640	 x31:0xfffffffb x12:0xfffffffb
       94105000	      9409	800016a0	00000013	addi	x0,x0,0	  x0:0x00000000
       94115000	      9410	800016a4	0184dc13	srli	x24,x9,0x18	  x9:0x00000000 x24=0x00000000
       94125000	      9411	800016a8	8fab8517	auipc	x10,0x8fab8	 x10=0x0fab96a4
       94135000	      9412	800016ac	4a7fcf93	xori	x31,x31,1191	 x31:0xfffffffb x31=0xfffffb5c
       94145000	      9413	800016b0	00000013	addi	x0,x0,0	  x0:0x00000000
       94155000	      9414	800016b4	01bf0463	beq	x30,x27,800016bc	 x30:0x80009f34 x27:0xfffffffd
       94165000	      9415	800016b8	015231b3	sltu	x3,x4,x21	  x4:0x7fcec00b x21:0x059e14ac  x3=0x00000000
       94175000	      9416	800016bc	d1330c13	addi	x24,x6,-749	  x6:0xbdc7a678 x24=0xbdc7a38b
       94185000	      9417	800016c0	01f8d6b3	srl	x13,x17,x31	 x17:0x00000001 x31:0xfffffb5c x13=0x00000000
       94195000	      9418	800016c4	006b52b3	srl	x5,x22,x6	 x22:0x000079d1  x6:0xbdc7a678  x5=0x00000000
       94205000	      9419	800016c8	edf78293	addi	x5,x15,-289	 x15:0xfffffffa  x5=0xfffffed9
       94215000	      9420	800016cc	019bfa63	bgeu	x23,x25,800016e0	 x23:0x00000000 x25:0x237f7b9c
       94225000	      9421	800016d0	29cff313	andi	x6,x31,668	 x31:0xfffffb5c  x6=0x0000021c
       94235000	      9422	800016d4	018adb93	srli	x23,x21,0x18	 x21:0x059e14ac x23=0x00000005
       94245000	      9423	800016d8	00000013	addi	x0,x0,0	  x0:0x00000000
       94255000	      9424	800016dc	00a29db3	sll	x27,x5,x10	  x5:0xfffffed9 x10:0x0fab96a4 x27=0xffffed90
       94265000	      9425	800016e0	b543f413	andi	x8,x7,-1196	  x7:0x7fcec00e  x8=0x7fcec004
       94275000	      9426	800016e4	00a50bb3	add	x23,x10,x10	 x10:0x0fab96a4 x10:0x0fab96a4 x23=0x1f572d48
       94285000	      9427	800016e8	0d462a93	slti	x21,x12,212	 x12:0xfffffffb x21=0x00000001
       94295000	      9428	800016ec	40ad0333	sub	x6,x26,x10	 x26:0x0000000b x10:0x0fab96a4  x6=0xf0546967
       94305000	      9429	800016f0	05624863	blt	x4,x22,80001740	  x4:0x7fcec00b x22:0x000079d1
       94315000	      9430	800016f4	418002b3	sub	x5,x0,x24	  x0:0x00000000 x24:0xbdc7a38b  x5=0x42385c75
       94325000	      9431	800016f8	40895e93	srai	x29,x18,0x8	 x18:0x00000001 x29=0x00000000
       94335000	      9432	800016fc	01b3f0b3	and	x1,x7,x27	  x7:0x7fcec00e x27:0xffffed90  x1=0x7fcec000
       94345000	      9433	80001700	532a6213	ori	x4,x20,1330	 x20:0x018ab000  x4=0x018ab532
       94355000	      9434	80001704	5120a693	slti	x13,x1,1298	  x1:0x7fcec000 x13=0x00000000
       94365000	      9435	80001708	03131663	bne	x6,x17,80001734	  x6:0xf0546967 x17:0x00000001
       94375000	      9436	00000000	00000013	addi	x0,x0,0	  x0:0x00000000
       94385000	      9437	80001730	00000013	addi	x0,x0,0	  x0:0x00000000
       94395000	      9438	80001734	410802b3	sub	x5,x16,x16	 x16:0x00000003 x16:0x00000003  x5=0x00000000
       94405000	      9439	80001738	9ba11397	auipc	x7,0x9ba11	  x7=0x1ba12734
       94415000	      9440	8000173c	003cc263	blt	x25,x3,80001740	 x25:0x237f7b9c  x3:0x00000000
       94425000	      9441	80001740	006cde33	srl	x28,x25,x6	 x25:0x237f7b9c  x6:0xf0546967 x28=0x0046fef7
       94435000	      9442	80001744	4162da13	srai	x20,x5,0x16	  x5:0x00000000 x20=0x00000000
       94445000	      9443	80001748	17700493	addi	x9,x0,375	  x0:0x00000000  x9=0x00000177
       94455000	      9444	8000174c	00d4cb33	xor	x22,x9,x13	  x9:0x00000177 x13:0x00000000 x22=0x00000177
       94465000	      9445	80001750	f0784593	xori	x11,x16,-249	 x16:0x00000003 x11=0xffffff04
       94475000	      9446	80001754	00ea5b33	srl	x22,x20,x14	 x20:0x00000000 x14:0x80009fc4 x22=0x00000000
       94485000	      9447	80001758	41168533	sub	x10,x13,x17	 x13:0x00000000 x17:0x00000001 x10=0xffffffff
       94495000	      9448	8000175c	f27b7137	lui	x2,0xf27b7	  x2=0xf27b7000
       94505000	      9449	80001760	009f9233	sll	x4,x31,x9	 x31:0xfffffb5c  x9:0x00000177  x4=0xae000000
       94515000	      9450	80001764	adf40d93	addi	x27,x8,-1313	  x8:0x7fcec004 x27=0x7fcebae3
       94525000	      9451	80001768	003a5db3	srl	x27,x20,x3	 x20:0x00000000  x3:0x00000000 x27=0x00000000
       94535000	      9452	8000176c	0061de93	srli	x29,x3,0x6	  x3:0x00000000 x29=0x00000000
       94545000	      9453	80001770	0086d493	srli	x9,x13,0x8	 x13:0x00000000  x9=0x00000000
       94555000	      9454	80001774	01ad3933	sltu	x18,x26,x26	 x26:0x0000000b x26:0x0000000b x18=0x00000000
       94565000	      9455	80001778	a08212b7	lui	x5,0xa0821	  x5=0xa0821000
       94575000	      9456	8000177c	df91e297	auipc	x5,0xdf91e	  x5=0x5f91f778
       94585000	      9457	80001780	40450bb3	sub	x23,x10,x4	 x10:0xffffffff  x4:0xae000000 x23=0x51ffffff
       94595000	      9458	80001784	004fb4b3	sltu	x9,x31,x4	 x31:0xfffffb5c  x4:0xae000000  x9=0x00000000
       94605000	      9459	80001788	003427b3	slt	x15,x8,x3	  x8:0x7fcec004  x3:0x00000000 x15=0x00000000
       94615000	      9460	8000178c	00b1dc13	srli	x24,x3,0xb	  x3:0x00000000 x24=0x00000000
       94625000	      9461	80001790	01d39913	slli	x18,x7,0x1d	  x7:0x1ba12734 x18=0x80000000
       94635000	      9462	80001794	00545193	srli	x3,x8,0x5	  x8:0x7fcec004  x3=0x03fe7600
       94645000	      9463	80001798	00418e33	add	x28,x3,x4	  x3:0x03fe7600  x4:0xae000000 x28=0xb1fe7600
       94655000	      9464	8000179c	3ab5f613	andi	x12,x11,939	 x11:0xffffff04 x12=0x00000300
       94665000	      9465	800017a0	0044d113	srli	x2,x9,0x4	  x9:0x00000000  x2=0x00000000
       94675000	      9466	800017a4	0172ea63	bltu	x5,x23,800017b8	  x5:0x5f91f778 x23:0x51ffffff
       94685000	      9467	800017a8	040ac063	blt	x21,x0,800017e8	 x21:0x00000001  x0:0x00000000
       94695000	      9468	800017ac	003f62b3	or	x5,x30,x3	 x30:0x80009f34  x3:0x03fe7600  x5=0x83feff34
       94705000	      9469	800017b0	0006d4b3	srl	x9,x13,x0	 x13:0x00000000  x0:0x00000000  x9=0x00000000
       94715000	      9470	800017b4	7ecf8413	addi	x8,x31,2028	 x31:0xfffffb5c  x8=0x00000348
       94725000	      9471	800017b8	002db4b3	sltu	x9,x27,x2	 x27:0x00000000  x2:0x00000000  x9=0x00000000
       94735000	      9472	800017bc	c3037393	andi	x7,x6,-976	  x6:0xf0546967  x7=0xf0546820
       94745000	      9473	800017c0	013a6263	bltu	x20,x19,800017c4	 x20:0x00000000 x19:0x00000000
       94755000	      9474	800017c4	0037d1b3	srl	x3,x15,x3	 x15:0x00000000  x3:0x03fe7600  x3=0x00000000
       94765000	      9475	800017c8	9a0aa113	slti	x2,x21,-1632	 x21:0x00000001  x2=0x00000000
       94775000	      9476	800017cc	92b46793	ori	x15,x8,-1749	  x8:0x00000348 x15=0xfffffb6b
       94785000	      9477	800017d0	00cc0033	add	x0,x24,x12	 x24:0x00000000 x12:0x00000300
       94795000	      9478	800017d4	01e29d93	slli	x27,x5,0x1e	  x5:0x83feff34 x27=0x00000000
       94805000	      9479	800017d8	00d599b3	sll	x19,x11,x13	 x11:0xffffff04 x13:0x00000000 x19=0xffffff04
       94815000	      9480	800017dc	01102633	slt	x12,x0,x17	  x0:0x00000000 x17:0x00000001 x12=0x00000001
       94825000	      9481	800017e0	01247433	and	x8,x8,x18	  x8:0x00000348 x18:0x80000000  x8=0x00000000
       94835000	      9482	800017e4	1ee4c613	xori	x12,x9,494	  x9:0x00000000 x12=0x000001ee
       94845000	      9483	800017e8	01135cb3	srl	x25,x6,x17	  x6:0xf0546967 x17:0x00000001 x25=0x782a34b3
       94855000	      9484	800017ec	00b32333	slt	x6,x6,x11	  x6:0xf0546967 x11:0xffffff04  x6=0x00000001
       94865000	      9485	800017f0	00d84133	xor	x2,x16,x13	 x16:0x00000003 x13:0x00000000  x2=0x00000003
       94875000	      9486	800017f4	05e8f263	bgeu	x17,x30,80001838	 x17:0x00000001 x30:0x80009f34
       94885000	      9487	800017f8	55daef93	ori	x31,x21,1373	 x21:0x00000001 x31=0x0000055d
       94895000	      9488	800017fc	0093d813	srli	x16,x7,0x9	  x7:0xf0546820 x16=0x00782a34
       94905000	      9489	80001800	00530833	add	x16,x6,x5	  x6:0x00000001  x5:0x83feff34 x16=0x83feff35
       94915000	      9490	80001804	40d486b3	sub	x13,x9,x13	  x9:0x00000000 x13:0x00000000 x13=0x00000000
       94925000	      9491	80001808	884dc497	auipc	x9,0x884dc	  x9=0x084dd804
       94935000	      9492	8000180c	01228333	add	x6,x5,x18	  x5:0x83feff34 x18:0x80000000  x6=0x03feff34
       94945000	      9493	80001810	416d8133	sub	x2,x27,x22	 x27:0x00000000 x22:0x00000000  x2=0x00000000
       94955000	      9494	80001814	02260263	beq	x12,x2,80001838	 x12:0x000001ee  x2:0x00000000
       94965000	      9495	80001818	f9fb8093	addi	x1,x23,-97	 x23:0x51ffffff  x1=0x51ffff9e
       94975000	      9496	8000181c	043ef463	bgeu	x29,x3,80001864	 x29:0x00000000  x3:0x00000000
       94985000	      9497	00000000	00000013	addi	x0,x0,0	  x0:0x00000000
       94995000	      9498	80001860	00000013	addi	x0,x0,0	  x0:0x00000000
       95005000	      9499	80001864	054de263	bltu	x27,x20,800018a8	 x27:0x00000000 x20:0x00000000
       95015000	      9500	80001868	41a25213	srai	x4,x4,0x1a	  x4:0xae000000  x4=0xffffffeb
       95025000	      9501	8000186c	04a65463	bge	x12,x10,800018b4	 x12:0x000001ee x10:0xffffffff
       95035000	      9502	00000000	00000013	addi	x0,x0,0	  x0:0x00000000
       95045000	      9503	800018b0	00000013	addi	x0,x0,0	  x0:0x00000000
       95055000	      9504	800018b4	00b85e93	srli	x29,x16,0xb	 x16:0x83feff35 x29=0x00107fdf
       95065000	      9505	800018b8	53d30393	addi	x7,x6,1341	  x6:0x03feff34  x7=0x03ff0471
       95075000	      9506	800018bc	9d2b4e93	xori	x29,x22,-1582	 x22:0x00000000 x29=0xfffff9d2
       95085000	      9507	800018c0	014d5b33	srl	x22,x26,x20	 x26:0x0000000b x20:0x00000000 x22=0x0000000b
       95095000	      9508	800018c4	ef057e93	andi	x29,x10,-272	 x10:0xffffffff x29=0xfffffef0
       95105000	      9509	800018c8	0575d863	bge	x11,x23,80001918	 x11:0xffffff04 x23:0x51ffffff
       95115000	      9510	800018cc	00000013	addi	x0,x0,0	  x0:0x00000000
       95125000	      9511	800018d0	416bd133	sra	x2,x23,x22	 x23:0x51ffffff x22:0x0000000b  x2=0x000a3fff
       95135000	      9512	800018d4	00624463	blt	x4,x6,800018dc	  x4:0xffffffeb  x6:0x03feff34
       95145000	      9513	00000000	00000013	addi	x0,x0,0	  x0:0x00000000
       95155000	      9514	800018d8	00000013	addi	x0,x0,0	  x0:0x00000000
       95165000	      9515	800018dc	036f9263	bne	x31,x22,80001900	 x31:0x0000055d x22:0x0000000b
       95175000	      9516	00000000	00000013	addi	x0,x0,0	  x0:0x00000000
       95185000	      9517	800018fc	00000013	addi	x0,x0,0	  x0:0x00000000
       95195000	      9518	80001900	004af263	bgeu	x21,x4,80001904	 x21:0x00000001  x4:0xffffffeb
       95205000	      9519	80001904	48796e93	ori	x29,x18,1159	 x18:0x80000000 x29=0x80000487
       95215000	      9520	80001908	02a67263	bgeu	x12,x10,8000192c	 x12:0x000001ee x10:0xffffffff
       95225000	      9521	8000190c	00e528b3	slt	x17,x10,x14	 x10:0xffffffff x14:0x80009fc4 x17=0x00000000
       95235000	      9522	80001910	008a9793	slli	x15,x21,0x8	 x21:0x00000001 x15=0x00000100
       95245000	      9523	80001914	053b7463	bgeu	x22,x19,8000195c	 x22:0x0000000b x19:0xffffff04
       95255000	      9524	80001918	053fd863	bge	x31,x19,80001968	 x31:0x0000055d x19:0xffffff04
       95265000	      9525	00000000	00000013	addi	x0,x0,0	  x0:0x00000000
       95275000	      9526	80001964	00000013	addi	x0,x0,0	  x0:0x00000000
       95285000	      9527	80001968	407b00b3	sub	x1,x22,x7	 x22:0x0000000b  x7:0x03ff0471  x1=0xfc00fb9a
       95295000	      9528	8000196c	00043233	sltu	x4,x8,x0	  x8:0x00000000  x0:0x00000000  x4=0x00000000
       95305000	      9529	80001970	01b28cb3	add	x25,x5,x27	  x5:0x83feff34 x27:0x00000000 x25=0x83feff34
       95315000	      9530	80001974	9b5c3117	auipc	x2,0x9b5c3	  x2=0x1b5c4970
       95325000	      9531	80001978	01a19533	sll	x10,x3,x26	  x3:0x00000000 x26:0x0000000b x10=0x00000000
       95335000	      9532	8000197c	181fe393	ori	x7,x31,385	 x31:0x0000055d  x7=0x000005dd
       95345000	      9533	80001980	2f0a8993	addi	x19,x21,752	 x21:0x00000001 x19=0x000002f1
       95355000	      9534	80001984	00d0ba33	sltu	x20,x1,x13	  x1:0xfc00fb9a x13:0x00000000 x20=0x00000000
       95365000	      9535	80001988	03cd7463	bgeu	x26,x28,800019b0	 x26:0x0000000b x28:0xb1fe7600
       95375000	      9536	8000198c	00a39a93	slli	x21,x7,0xa	  x7:0x000005dd x21=0x00177400
       95385000	      9537	80001990	49febe13	sltiu	x28,x29,1183	 x29:0x80000487 x28=0x00000000
       95395000	      9538	80001994	651bfb93	andi	x23,x23,1617	 x23:0x51ffffff x23=0x00000651
       95405000	      9539	80001998	d8f48313	addi	x6,x9,-625	  x9:0x084dd804  x6=0x084dd593
       95415000	      9540	8000199c	016de633	or	x12,x27,x22	 x27:0x00000000 x22:0x0000000b x12=0x0000000b
       95425000	      9541	800019a0	d065b393	sltiu	x7,x11,-762	 x11:0xffffff04  x7=0x00000000
       95435000	      9542	800019a4	017d1313	slli	x6,x26,0x17	 x26:0x0000000b  x6=0x05800000
       95445000	      9543	800019a8	009c4463	blt	x24,x9,800019b0	 x24:0x00000000  x9:0x084dd804
       95455000	      9544	00000000	00000013	addi	x0,x0,0	  x0:0x00000000
       95465000	      9545	800019ac	00000013	addi	x0,x0,0	  x0:0x00000000
       95475000	      9546	800019b0	004ee2b3	or	x5,x29,x4	 x29:0x80000487  x4:0x00000000  x5=0x80000487
       95485000	      9547	800019b4	004f2583	lw	x11,4(x30)	 x30:0x80009f34 x11=0x80002528 PA:0x80009f38
       95495000	      9548	800019b8	011093b3	sll	x7,x1,x17	  x1:0xfc00fb9a x17:0x00000000  x7=0xfc00fb9a
       95505000	      9549	800019bc	00ba5e13	srli	x28,x20,0xb	 x20:0x00000000 x28=0x00000000
       95515000	      9550	800019c0	006e9393	slli	x7,x29,0x6	 x29:0x80000487  x7=0x000121c0
       95525000	      9551	800019c4	4032d1b3	sra	x3,x5,x3	  x5:0x80000487  x3:0x00000000  x3=0x80000487
       95535000	      9552	800019c8	00000013	addi	x0,x0,0	  x0:0x00000000
       95545000	      9553	800019cc	01cf0f13	addi	x30,x30,28	 x30:0x80009f34 x30=0x80009f50
       95555000	      9554	800019d0	a100b393	sltiu	x7,x1,-1520	  x1:0xfc00fb9a  x7=0x00000001
       95565000	      9555	800019d4	94522793	slti	x15,x4,-1723	  x4:0x00000000 x15=0x00000000
       95575000	      9556	800019d8	00058113	addi	x2,x11,0	 x11:0x80002528  x2=0x80002528
       95585000	      9557	800019dc	00010167	jalr	x2,x2,0	  x2:0x80002528  x2=0x800019dc
       95595000	      9558	00000000	00000013	addi	x0,x0,0	  x0:0x00000000
       95605000	      9559	80002528	00000013	addi	x0,x0,0	  x0:0x00000000
       95615000	      9560	8000252c	40b7d5b3	sra	x11,x15,x11	 x15:0x00000000 x11:0x80002528 x11=0x00000000
       95625000	      9561	80002530	00e85113	srli	x2,x16,0xe	 x16:0x83feff35  x2=0x00020ffb
       95635000	      9562	80002534	83b77193	andi	x3,x14,-1989	 x14:0x80009fc4  x3=0x80009800
       95645000	      9563	80002538	40085933	sra	x18,x16,x0	 x16:0x83feff35  x0:0x00000000 x18=0x83feff35
       95655000	      9564	8000253c	01d1da63	bge	x3,x29,80002550	  x3:0x80009800 x29:0x80000487
       95665000	      9565	00000000	00000013	addi	x0,x0,0	  x0:0x00000000
       95675000	      9566	8000254c	00000013	addi	x0,x0,0	  x0:0x00000000
       95685000	      9567	80002550	004d6c63	bltu	x26,x4,80002568	 x26:0x0000000b  x4:0x00000000
       95695000	      9568	80002554	04369863	bne	x13,x3,800025a4	 x13:0x00000000  x3:0x80009800
       95705000	      9569	00000000	00000013	addi	x0,x0,0	  x0:0x00000000
       95715000	      9570	800025a0	00000013	addi	x0,x0,0	  x0:0x00000000
       95725000	      9571	800025a4	41efd593	srai	x11,x31,0x1e	 x31:0x0000055d x11=0x00000000
       95735000	      9572	800025a8	10718d93	addi	x27,x3,263	  x3:0x80009800 x27=0x80009907
       95745000	      9573	800025ac	b918c9b7	lui	x19,0xb918c	 x19=0xb918c000
       95755000	      9574	800025b0	0456d263	bge	x13,x5,800025f4	 x13:0x00000000  x5:0x80000487
       95765000	      9575	00000000	00000013	addi	x0,x0,0	  x0:0x00000000
       95775000	      9576	800025f0	00000013	addi	x0,x0,0	  x0:0x00000000
       95785000	      9577	800025f4	01f0bab3	sltu	x21,x1,x31	  x1:0xfc00fb9a x31:0x0000055d x21=0x00000000
       95795000	      9578	800025f8	00a68c33	add	x24,x13,x10	 x13:0x00000000 x10:0x00000000 x24=0x00000000
       95805000	      9579	800025fc	411b50b3	sra	x1,x22,x17	 x22:0x0000000b x17:0x00000000  x1=0x0000000b
       95815000	      9580	80002600	00678e33	add	x28,x15,x6	 x15:0x00000000  x6:0x05800000 x28=0x05800000
       95825000	      9581	80002604	0096de13	srli	x28,x13,0x9	 x13:0x00000000 x28=0x00000000
       95835000	      9582	80002608	03877a63	bgeu	x14,x24,8000263c	 x14:0x80009fc4 x24:0x00000000
       95845000	      9583	00000000	00000013	addi	x0,x0,0	  x0:0x00000000
       95855000	      9584	80002638	00000013	addi	x0,x0,0	  x0:0x00000000
       95865000	      9585	8000263c	00daf463	bgeu	x21,x13,80002644	 x21:0x00000000 x13:0x00000000
       95875000	      9586	00000000	00000013	addi	x0,x0,0	  x0:0x00000000
       95885000	      9587	80002640	00000013	addi	x0,x0,0	  x0:0x00000000
       95895000	      9588	80002644	00af00b3	add	x1,x30,x10	 x30:0x80009f50 x10:0x00000000  x1=0x80009f50
       95905000	      9589	80002648	41bf5d93	srai	x27,x30,0x1b	 x30:0x80009f50 x27=0xfffffff0
       95915000	      9590	8000264c	01ce19b3	sll	x19,x28,x28	 x28:0x00000000 x28:0x00000000 x19=0x00000000
       95925000	      9591	80002650	01153ab3	sltu	x21,x10,x17	 x10:0x00000000 x17:0x00000000 x21=0x00000000
       95935000	      9592	80002654	0064dc13	srli	x24,x9,0x6	  x9:0x084dd804 x24=0x00213760
       95945000	      9593	80002658	052fc863	blt	x31,x18,800026a8	 x31:0x0000055d x18:0x83feff35
       95955000	      9594	8000265c	16f3ec93	ori	x25,x7,367	  x7:0x00000001 x25=0x0000016f
       95965000	      9595	80002660	4025d2b3	sra	x5,x11,x2	 x11:0x00000000  x2:0x00020ffb  x5=0x00000000
       95975000	      9596	80002664	14e2a317	auipc	x6,0x14e2a	  x6=0x94e2c660
       95985000	      9597	80002668	4105d113	srai	x2,x11,0x10	 x11:0x00000000  x2=0x00000000
       95995000	      9598	8000266c	04f56263	bltu	x10,x15,800026b0	 x10:0x00000000 x15:0x00000000
       96005000	      9599	80002670	00d24c63	blt	x4,x13,80002688	  x4:0x00000000 x13:0x00000000
       96015000	      9600	80002674	540dc213	xori	x4,x27,1344	 x27:0xfffffff0  x4=0xfffffab0
       96025000	      9601	80002678	01da9db3	sll	x27,x21,x29	 x21:0x00000000 x29:0x80000487 x27=0x00000000
       96035000	      9602	8000267c	00165c13	srli	x24,x12,0x1	 x12:0x0000000b x24=0x00000005
       96045000	      9603	80002680	ee32e613	ori	x12,x5,-285	  x5:0x00000000 x12=0xfffffee3
       96055000	      9604	80002684	020fe863	bltu	x31,x0,800026b4	 x31:0x0000055d  x0:0x00000000
       96065000	      9605	80002688	00563533	sltu	x10,x12,x5	 x12:0xfffffee3  x5:0x00000000 x10=0x00000000
       96075000	      9606	8000268c	0038d193	srli	x3,x17,0x3	 x17:0x00000000  x3=0x00000000
       96085000	      9607	80002690	01a5ba33	sltu	x20,x11,x26	 x11:0x00000000 x26:0x0000000b x20=0x00000001
       96095000	      9608	80002694	01eddc63	bge	x27,x30,800026ac	 x27:0x00000000 x30:0x80009f50
       96105000	      9609	00000000	00000013	addi	x0,x0,0	  x0:0x00000000
       96115000	      9610	800026a8	00000013	addi	x0,x0,0	  x0:0x00000000
       96125000	      9611	800026ac	002a4863	blt	x20,x2,800026bc	 x20:0x00000001  x2:0x00000000
       96135000	      9612	800026b0	03897263	bgeu	x18,x24,800026d4	 x18:0x83feff35 x24:0x00000005
       96145000	      9613	00000000	00000013	addi	x0,x0,0	  x0:0x00000000
       96155000	      9614	800026d0	00000013	addi	x0,x0,0	  x0:0x00000000
       96165000	      9615	800026d4	e8a42937	lui	x18,0xe8a42	 x18=0xe8a42000
       96175000	      9616	800026d8	248be593	ori	x11,x23,584	 x23:0x00000651 x11=0x00000659
       96185000	      9617	800026dc	01c6dd93	srli	x27,x13,0x1c	 x13:0x00000000 x27=0x00000000
       96195000	      9618	800026e0	012494b3	sll	x9,x9,x18	  x9:0x084dd804 x18:0xe8a42000  x9=0x084dd804
       96205000	      9619	800026e4	01237b33	and	x22,x6,x18	  x6:0x94e2c660 x18:0xe8a42000 x22=0x80a00000
       96215000	      9620	800026e8	03268863	beq	x13,x18,80002718	 x13:0x00000000 x18:0xe8a42000
       96225000	      9621	800026ec	dcb47593	andi	x11,x8,-565	  x8:0x00000000 x11=0x00000000
       96235000	      9622	800026f0	dc023813	sltiu	x16,x4,-576	  x4:0xfffffab0 x16=0x00000001
       96245000	      9623	800026f4	02d14c63	blt	x2,x13,8000272c	  x2:0x00000000 x13:0x00000000
       96255000	      9624	800026f8	01c89793	slli	x15,x17,0x1c	 x17:0x00000000 x15=0x00000000
       96265000	      9625	800026fc	41050333	sub	x6,x10,x16	 x10:0x00000000 x16:0x00000001  x6=0xffffffff
       96275000	      9626	80002700	00b4d663	bge	x9,x11,8000270c	  x9:0x084dd804 x11:0x00000000
       96285000	      9627	00000000	00000013	addi	x0,x0,0	  x0:0x00000000
       96295000	      9628	80002708	00000013	addi	x0,x0,0	  x0:0x00000000
       96305000	      9629	8000270c	00600cb3	add	x25,x0,x6	  x0:0x00000000  x6:0xffffffff x25=0xffffffff
       96315000	      9630	80002710	2eb741b7	lui	x3,0x2eb74	  x3=0x2eb74000
       96325000	      9631	80002714	0200e263	bltu	x1,x0,80002738	  x1:0x80009f50  x0:0x00000000
       96335000	      9632	80002718	01f61a13	slli	x20,x12,0x1f	 x12:0xfffffee3 x20=0x80000000
       96345000	      9633	8000271c	00eca7b3	slt	x15,x25,x14	 x25:0xffffffff x14:0x80009fc4 x15=0x00000000
       96355000	      9634	80002720	014a9793	slli	x15,x21,0x14	 x21:0x00000000 x15=0x00000000
       96365000	      9635	80002724	b8ffa013	slti	x0,x31,-1137	 x31:0x0000055d
       96375000	      9636	80002728	00eacc63	blt	x21,x14,80002740	 x21:0x00000000 x14:0x80009fc4
       96385000	      9637	8000272c	00d81293	slli	x5,x16,0xd	 x16:0x00000001  x5=0x00002000
       96395000	      9638	80002730	7088f893	andi	x17,x17,1800	 x17:0x00000000 x17=0x00000000
       96405000	      9639	80002734	01dae0b3	or	x1,x21,x29	 x21:0x00000000 x29:0x80000487  x1=0x80000487
       96415000	      9640	80002738	01a80433	add	x8,x16,x26	 x16:0x00000001 x26:0x0000000b  x8=0x0000000c
       96425000	      9641	8000273c	00ed54b3	srl	x9,x26,x14	 x26:0x0000000b x14:0x80009fc4  x9=0x00000000
       96435000	      9642	80002740	01be9133	sll	x2,x29,x27	 x29:0x80000487 x27:0x00000000  x2=0x80000487
       96445000	      9643	80002744	00000013	addi	x0,x0,0	  x0:0x00000000
       96455000	      9644	80002748	000e9a63	bne	x29,x0,8000275c	 x29:0x80000487  x0:0x00000000
       96465000	      9645	00000000	00000013	addi	x0,x0,0	  x0:0x00000000
       96475000	      9646	80002758	00000013	addi	x0,x0,0	  x0:0x00000000
       96485000	      9647	8000275c	016aab33	slt	x22,x21,x22	 x21:0x00000000 x22:0x80a00000 x22=0x00000000
       96495000	      9648	80002760	0064b033	sltu	x0,x9,x6	  x9:0x00000000  x6:0xffffffff
       96505000	      9649	80002764	8790b813	sltiu	x16,x1,-1927	  x1:0x80000487 x16=0x00000001
       96515000	      9650	80002768	c066aa93	slti	x21,x13,-1018	 x13:0x00000000 x21=0x00000000
       96525000	      9651	8000276c	01375613	srli	x12,x14,0x13	 x14:0x80009fc4 x12=0x00001000
       96535000	      9652	80002770	018d7bb3	and	x23,x26,x24	 x26:0x0000000b x24:0x00000005 x23=0x00000001
       96545000	      9653	80002774	914ba893	slti	x17,x23,-1772	 x23:0x00000001 x17=0x00000000
       96555000	      9654	80002778	038dc463	blt	x27,x24,800027a0	 x27:0x00000000 x24:0x00000005
       96565000	      9655	00000000	00000013	addi	x0,x0,0	  x0:0x00000000
       96575000	      9656	8000279c	00000013	addi	x0,x0,0	  x0:0x00000000
       96585000	      9657	800027a0	008effb3	and	x31,x29,x8	 x29:0x80000487  x8:0x0000000c x31=0x00000004
       96595000	      9658	800027a4	4053d033	sra	x0,x7,x5	  x7:0x00000001  x5:0x00002000
       96605000	      9659	800027a8	010bf7b3	and	x15,x23,x16	 x23:0x00000001 x16:0x00000001 x15=0x00000001
       96615000	      9660	800027ac	00000013	addi	x0,x0,0	  x0:0x00000000
       96625000	      9661	800027b0	723e8113	addi	x2,x29,1827	 x29:0x80000487  x2=0x80000baa
       96635000	      9662	800027b4	010c4a33	xor	x20,x24,x16	 x24:0x00000005 x16:0x00000001 x20=0x00000004
       96645000	      9663	800027b8	01e36033	or	x0,x6,x30	  x6:0xffffffff x30:0x80009f50
       96655000	      9664	800027bc	01224c63	blt	x4,x18,800027d4	  x4:0xfffffab0 x18:0xe8a42000
       96665000	      9665	800027c0	004032b3	sltu	x5,x0,x4	  x0:0x00000000  x4:0xfffffab0  x5=0x00000001
       96675000	      9666	800027c4	00cd5cb3	srl	x25,x26,x12	 x26:0x0000000b x12:0x00001000 x25=0x0000000b
       96685000	      9667	800027c8	40408233	sub	x4,x1,x4	  x1:0x80000487  x4:0xfffffab0  x4=0x800009d7
       96695000	      9668	800027cc	0539cb13	xori	x22,x19,83	 x19:0x00000000 x22=0x00000053
       96705000	      9669	800027d0	00b8dc63	bge	x17,x11,800027e8	 x17:0x00000000 x11:0x00000000
       96715000	      9670	00000000	00000013	addi	x0,x0,0	  x0:0x00000000
       96725000	      9671	800027e4	00000013	addi	x0,x0,0	  x0:0x00000000
       96735000	      9672	800027e8	01ab04b3	add	x9,x22,x26	 x22:0x00000053 x26:0x0000000b  x9=0x0000005e
       96745000	      9673	800027ec	058f6863	bltu	x30,x24,8000283c	 x30:0x80009f50 x24:0x00000005
       96755000	      9674	800027f0	41b6d7b3	sra	x15,x13,x27	 x13:0x00000000 x27:0x00000000 x15=0x00000000
       96765000	      9675	800027f4	00169bb3	sll	x23,x13,x1	 x13:0x00000000  x1:0x80000487 x23=0x00000000
       96775000	      9676	800027f8	4131d213	srai	x4,x3,0x13	  x3:0x2eb74000  x4=0x000005d6
       96785000	      9677	800027fc	134e2a13	slti	x20,x28,308	 x28:0x00000000 x20=0x00000001
       96795000	      9678	80002800	004cccb3	xor	x25,x25,x4	 x25:0x0000000b  x4:0x000005d6 x25=0x000005dd
       96805000	      9679	80002804	016e03b3	add	x7,x28,x22	 x28:0x00000000 x22:0x00000053  x7=0x00000053
       96815000	      9680	80002808	01f59b93	slli	x23,x11,0x1f	 x11:0x00000000 x23=0x00000000
       96825000	      9681	8000280c	047af863	bgeu	x21,x7,8000285c	 x21:0x00000000  x7:0x00000053
       96835000	      9682	80002810	00f1d233	srl	x4,x3,x15	  x3:0x2eb74000 x15:0x00000000  x4=0x2eb74000
       96845000	      9683	80002814	00f48fb3	add	x31,x9,x15	  x9:0x0000005e x15:0x00000000 x31=0x0000005e
       96855000	      9684	80002818	40850933	sub	x18,x10,x8	 x10:0x00000000  x8:0x0000000c x18=0xfffffff4
       96865000	      9685	8000281c	4f4e2e17	auipc	x28,0x4f4e2	 x28=0xcf4e4818
       96875000	      9686	80002820	6f2b50b7	lui	x1,0x6f2b5	  x1=0x6f2b5000
       96885000	      9687	80002824	c5c40813	addi	x16,x8,-932	  x8:0x0000000c x16=0xfffffc68
       96895000	      9688	80002828	017b5433	srl	x8,x22,x23	 x22:0x00000053 x23:0x00000000  x8=0x00000053
       96905000	      9689	8000282c	00270a63	beq	x14,x2,80002840	 x14:0x80009fc4  x2:0x80000baa
       96915000	      9690	80002830	01447a33	and	x20,x8,x20	  x8:0x00000053 x20:0x00000001 x20=0x00000001
       96925000	      9691	80002834	248bc593	xori	x11,x23,584	 x23:0x00000000 x11=0x00000248
       96935000	      9692	80002838	00000013	addi	x0,x0,0	  x0:0x00000000
       96945000	      9693	8000283c	b37a4513	xori	x10,x20,-1225	 x20:0x00000001 x10=0xfffffb36
       96955000	      9694	80002840	016bcc63	blt	x23,x22,80002858	 x23:0x00000000 x22:0x00000053
       96965000	      9695	00000000	00000013	addi	x0,x0,0	  x0:0x00000000
       96975000	      9696	80002854	00000013	addi	x0,x0,0	  x0:0x00000000
       96985000	      9697	80002858	01077c63	bgeu	x14,x16,80002870	 x14:0x80009fc4 x16:0xfffffc68
       96995000	      9698	8000285c	00540863	beq	x8,x5,8000286c	  x8:0x00000053  x5:0x00000001
       97005000	      9699	80002860	00d34ab3	xor	x21,x6,x13	  x6:0xffffffff x13:0x00000000 x21=0xffffffff
       97015000	      9700	80002864	d0d13213	sltiu	x4,x2,-755	  x2:0x80000baa  x4=0x00000001
       97025000	      9701	80002868	def92213	slti	x4,x18,-529	 x18:0xfffffff4  x4=0x00000000
       97035000	      9702	8000286c	2f7c2a13	slti	x20,x24,759	 x24:0x00000005 x20=0x00000001
       97045000	      9703	80002870	4fc63393	sltiu	x7,x12,1276	 x12:0x00001000  x7=0x00000000
       97055000	      9704	80002874	7fa39db7	lui	x27,0x7fa39	 x27=0x7fa39000
       97065000	      9705	80002878	00246333	or	x6,x8,x2	  x8:0x00000053  x2:0x80000baa  x6=0x80000bfb
       97075000	      9706	8000287c	40ee0fb3	sub	x31,x28,x14	 x28:0xcf4e4818 x14:0x80009fc4 x31=0x4f4da854
       97085000	      9707	80002880	00000013	addi	x0,x0,0	  x0:0x00000000
       97095000	      9708	80002884	00000013	addi	x0,x0,0	  x0:0x00000000
       97105000	      9709	80002888	01327b33	and	x22,x4,x19	  x4:0x00000000 x19:0x00000000 x22=0x00000000
       97115000	      9710	8000288c	12c8cd93	xori	x27,x17,300	 x17:0x00000000 x27=0x0000012c
       97125000	      9711	80002890	bdc3f217	auipc	x4,0xbdc3f	  x4=0x3dc4188c
       97135000	      9712	80002894	017a6333	or	x6,x20,x23	 x20:0x00000001 x23:0x00000000  x6=0x00000001
       97145000	      9713	80002898	4057d113	srai	x2,x15,0x5	 x15:0x00000000  x2=0x00000000
       97155000	      9714	8000289c	002f4c63	blt	x30,x2,800028b4	 x30:0x80009f50  x2:0x00000000
       97165000	      9715	00000000	00000013	addi	x0,x0,0	  x0:0x00000000
       97175000	      9716	800028b0	00000013	addi	x0,x0,0	  x0:0x00000000
       97185000	      9717	800028b4	ff493b13	sltiu	x22,x18,-12	 x18:0xfffffff4 x22=0x00000000
       97195000	      9718	800028b8	018ef333	and	x6,x29,x24	 x29:0x80000487 x24:0x00000005  x6=0x00000005
       97205000	      9719	800028bc	00295093	srli	x1,x18,0x2	 x18:0xfffffff4  x1=0x3ffffffd
       97215000	      9720	800028c0	419ad133	sra	x2,x21,x25	 x21:0xffffffff x25:0x000005dd  x2=0xffffffff
       97225000	      9721	800028c4	01a5d693	srli	x13,x11,0x1a	 x11:0x00000248 x13=0x00000000
       97235000	      9722	800028c8	57532593	slti	x11,x6,1397	  x6:0x00000005 x11=0x00000001
       97245000	      9723	800028cc	01dbdc13	srli	x24,x23,0x1d	 x23:0x00000000 x24=0x00000000
       97255000	      9724	800028d0	410d5c33	sra	x24,x26,x16	 x26:0x0000000b x16:0xfffffc68 x24=0x00000000
       97265000	      9725	800028d4	c471ec97	auipc	x25,0xc471e	 x25=0x447208d0
       97275000	      9726	800028d8	41db5693	srai	x13,x22,0x1d	 x22:0x00000000 x13=0x00000000
       97285000	      9727	800028dc	01494c33	xor	x24,x18,x20	 x18:0xfffffff4 x20:0x00000001 x24=0xfffffff5
       97295000	      9728	800028e0	2025ce93	xori	x29,x11,514	 x11:0x00000001 x29=0x00000203
       97305000	      9729	800028e4	001a9e93	slli	x29,x21,0x1	 x21:0xffffffff x29=0xfffffffe
       97315000	      9730	800028e8	05b25663	bge	x4,x27,80002934	  x4:0x3dc4188c x27:0x0000012c
       97325000	      9731	00000000	00000013	addi	x0,x0,0	  x0:0x00000000
       97335000	      9732	80002930	00000013	addi	x0,x0,0	  x0:0x00000000
       97345000	      9733	80002934	00579eb3	sll	x29,x15,x5	 x15:0x00000000  x5:0x00000001 x29=0x00000000
       97355000	      9734	80002938	0117c433	xor	x8,x15,x17	 x15:0x00000000 x17:0x00000000  x8=0x00000000
       97365000	      9735	8000293c	f474e413	ori	x8,x9,-185	  x9:0x0000005e  x8=0xffffff5f
       97375000	      9736	80002940	8ecb6e13	ori	x28,x22,-1812	 x22:0x00000000 x28=0xfffff8ec
       97385000	      9737	80002944	00b39db3	sll	x27,x7,x11	  x7:0x00000000 x11:0x00000001 x27=0x00000000
       97395000	      9738	80002948	00010b33	add	x22,x2,x0	  x2:0xffffffff  x0:0x00000000 x22=0xffffffff
       97405000	      9739	8000294c	00000013	addi	x0,x0,0	  x0:0x00000000
       97415000	      9740	80002950	411c5cb3	sra	x25,x24,x17	 x24:0xfffffff5 x17:0x00000000 x25=0xfffffff5
       97425000	      9741	80002954	03124863	blt	x4,x17,80002984	  x4:0x3dc4188c x17:0x00000000
       97435000	      9742	80002958	01b4f533	and	x10,x9,x27	  x9:0x0000005e x27:0x00000000 x10=0x00000000
       97445000	      9743	8000295c	670e0e93	addi	x29,x28,1648	 x28:0xfffff8ec x29=0xffffff5c
       97455000	      9744	80002960	0422d863	bge	x5,x2,800029b0	  x5:0x00000001  x2:0xffffffff
       97465000	      9745	00000000	00000013	addi	x0,x0,0	  x0:0x00000000
       97475000	      9746	800029ac	00000013	addi	x0,x0,0	  x0:0x00000000
       97485000	      9747	800029b0	0594e263	bltu	x9,x25,800029f4	  x9:0x0000005e x25:0xfffffff5
       97495000	      9748	00000000	00000013	addi	x0,x0,0	  x0:0x00000000
       97505000	      9749	800029f0	00000013	addi	x0,x0,0	  x0:0x00000000
       97515000	      9750	800029f4	00000013	addi	x0,x0,0	  x0:0x00000000
       97525000	      9751	800029f8	c33c0a93	addi	x21,x24,-973	 x24:0xfffffff5 x21=0xfffffc28
       97535000	      9752	800029fc	015861b3	or	x3,x16,x21	 x16:0xfffffc68 x21:0xfffffc28  x3=0xfffffc68
       97545000	      9753	80002a00	0107b033	sltu	x0,x15,x16	 x15:0x00000000 x16:0xfffffc68
       97555000	      9754	80002a04	b8aab2b7	lui	x5,0xb8aab	  x5=0xb8aab000
       97565000	      9755	80002a08	00000013	addi	x0,x0,0	  x0:0x00000000
       97575000	      9756	80002a0c	0009eab3	or	x21,x19,x0	 x19:0x00000000  x0:0x00000000 x21=0x00000000
       97585000	      9757	80002a10	03d59863	bne	x11,x29,80002a40	 x11:0x00000001 x29:0xffffff5c
       97595000	      9758	00000000	00000013	addi	x0,x0,0	  x0:0x00000000
       97605000	      9759	80002a3c	00000013	addi	x0,x0,0	  x0:0x00000000
       97615000	      9760	80002a40	407b85b3	sub	x11,x23,x7	 x23:0x00000000  x7:0x00000000 x11=0x00000000
       97625000	      9761	80002a44	010496b3	sll	x13,x9,x16	  x9:0x0000005e x16:0xfffffc68 x13=0x00005e00
       97635000	      9762	80002a48	01ad00b3	add	x1,x26,x26	 x26:0x0000000b x26:0x0000000b  x1=0x00000016
       97645000	      9763	80002a4c	98f3fa13	andi	x20,x7,-1649	  x7:0x00000000 x20=0x00000000
       97655000	      9764	80002a50	415b8933	sub	x18,x23,x21	 x23:0x00000000 x21:0x00000000 x18=0x00000000
       97665000	      9765	80002a54	02d5ca63	blt	x11,x13,80002a88	 x11:0x00000000 x13:0x00005e00
       97675000	      9766	00000000	00000013	addi	x0,x0,0	  x0:0x00000000
       97685000	      9767	80002a84	00000013	addi	x0,x0,0	  x0:0x00000000
       97695000	      9768	80002a88	0002c663	blt	x5,x0,80002a94	  x5:0xb8aab000  x0:0x00000000
       97705000	      9769	00000000	00000013	addi	x0,x0,0	  x0:0x00000000
       97715000	      9770	80002a90	00000013	addi	x0,x0,0	  x0:0x00000000
       97725000	      9771	80002a94	007926b3	slt	x13,x18,x7	 x18:0x00000000  x7:0x00000000 x13=0x00000000
       97735000	      9772	80002a98	009cdc63	bge	x25,x9,80002ab0	 x25:0xfffffff5  x9:0x0000005e
       97745000	      9773	80002a9c	00545233	srl	x4,x8,x5	  x8:0xffffff5f  x5:0xb8aab000  x4=0xffffff5f
       97755000	      9774	80002aa0	84bbe313	ori	x6,x23,-1973	 x23:0x00000000  x6=0xfffff84b
       97765000	      9775	80002aa4	2f94f613	andi	x12,x9,761	  x9:0x0000005e x12=0x00000058
       97775000	      9776	80002aa8	018e1a13	slli	x20,x28,0x18	 x28:0xfffff8ec x20=0xec000000
       97785000	      9777	80002aac	40600333	sub	x6,x0,x6	  x0:0x00000000  x6:0xfffff84b  x6=0x000007b5
       97795000	      9778	80002ab0	f9930813	addi	x16,x6,-103	  x6:0x000007b5 x16=0x0000074e
       97805000	      9779	80002ab4	4074d793	srai	x15,x9,0x7	  x9:0x0000005e x15=0x00000000
       97815000	      9780	80002ab8	001797b3	sll	x15,x15,x1	 x15:0x00000000  x1:0x00000016 x15=0x00000000
       97825000	      9781	80002abc	0349da63	bge	x19,x20,80002af0	 x19:0x00000000 x20:0xec000000
       97835000	      9782	00000000	00000013	addi	x0,x0,0	  x0:0x00000000
       97845000	      9783	80002aec	00000013	addi	x0,x0,0	  x0:0x00000000
       97855000	      9784	80002af0	b7d0ae93	slti	x29,x1,-1155	  x1:0x00000016 x29=0x00000000
       97865000	      9785	80002af4	014ba2b3	slt	x5,x23,x20	 x23:0x00000000 x20:0xec000000  x5=0x00000000
       97875000	      9786	80002af8	417c5033	sra	x0,x24,x23	 x24:0xfffffff5 x23:0x00000000
       97885000	      9787	80002afc	021cc863	blt	x25,x1,80002b2c	 x25:0xfffffff5  x1:0x00000016
       97895000	      9788	00000000	00000013	addi	x0,x0,0	  x0:0x00000000
       97905000	      9789	80002b28	00000013	addi	x0,x0,0	  x0:0x00000000
       97915000	      9790	80002b2c	00d38fb3	add	x31,x7,x13	  x7:0x00000000 x13:0x00000000 x31=0x00000000
       97925000	      9791	80002b30	015f77b3	and	x15,x30,x21	 x30:0x80009f50 x21:0x00000000 x15=0x00000000
       97935000	      9792	80002b34	02edc263	blt	x27,x14,80002b58	 x27:0x00000000 x14:0x80009fc4
       97945000	      9793	80002b38	000e1c93	slli	x25,x28,0x0	 x28:0xfffff8ec x25=0xfffff8ec
       97955000	      9794	80002b3c	000f9833	sll	x16,x31,x0	 x31:0x00000000  x0:0x00000000 x16=0x00000000
       97965000	      9795	80002b40	408c0e33	sub	x28,x24,x8	 x24:0xfffffff5  x8:0xffffff5f x28=0x00000096
       97975000	      9796	80002b44	1172e637	lui	x12,0x1172e	 x12=0x1172e000
       97985000	      9797	80002b48	43a32d97	auipc	x27,0x43a32	 x27=0xc3a34b44
       97995000	      9798	80002b4c	4062dc33	sra	x24,x5,x6	  x5:0x00000000  x6:0x000007b5 x24=0x00000000
       98005000	      9799	80002b50	90800113	addi	x2,x0,-1784	  x0:0x00000000  x2=0xfffff908
       98015000	      9800	80002b54	02515863	bge	x2,x5,80002b84	  x2:0xfffff908  x5:0x00000000
       98025000	      9801	80002b58	50e2b293	sltiu	x5,x5,1294	  x5:0x00000000  x5=0x00000001
       98035000	      9802	80002b5c	0019dc13	srli	x24,x19,0x1	 x19:0x00000000 x24=0x00000000
       98045000	      9803	80002b60	010c8c63	beq	x25,x16,80002b78	 x25:0xfffff8ec x16:0x00000000
       98055000	      9804	80002b64	001449b3	xor	x19,x8,x1	  x8:0xffffff5f  x1:0x00000016 x19=0xffffff49
       98065000	      9805	80002b68	00587a63	bgeu	x16,x5,80002b7c	 x16:0x00000000  x5:0x00000001
       98075000	      9806	80002b6c	01308333	add	x6,x1,x19	  x1:0x00000016 x19:0xffffff49  x6=0xffffff5f
       98085000	      9807	80002b70	01c8e9b3	or	x19,x17,x28	 x17:0x00000000 x28:0x00000096 x19=0x00000096
       98095000	      9808	80002b74	41c2d493	srai	x9,x5,0x1c	  x5:0x00000001  x9=0x00000000
       98105000	      9809	80002b78	8325a293	slti	x5,x11,-1998	 x11:0x00000000  x5=0x00000000
       98115000	      9810	80002b7c	00000013	addi	x0,x0,0	  x0:0x00000000
       98125000	      9811	80002b80	00b4f0b3	and	x1,x9,x11	  x9:0x00000000 x11:0x00000000  x1=0x00000000
       98135000	      9812	80002b84	6a74f193	andi	x3,x9,1703	  x9:0x00000000  x3=0x00000000
       98145000	      9813	80002b88	00824c63	blt	x4,x8,80002ba0	  x4:0xffffff5f  x8:0xffffff5f
       98155000	      9814	80002b8c	6c6f0313	addi	x6,x30,1734	 x30:0x80009f50  x6=0x8000a616
       98165000	      9815	80002b90	001f7ab3	and	x21,x30,x1	 x30:0x80009f50  x1:0x00000000 x21=0x00000000
       98175000	      9816	80002b94	f0dd2993	slti	x19,x26,-243	 x26:0x0000000b x19=0x00000000
       98185000	      9817	80002b98	41905a13	srai	x20,x0,0x19	  x0:0x00000000 x20=0x00000000
       98195000	      9818	80002b9c	e0ac8613	addi	x12,x25,-502	 x25:0xfffff8ec x12=0xfffff6f6
       98205000	      9819	80002ba0	22516b93	ori	x23,x2,549	  x2:0xfffff908 x23=0xfffffb2d
       98215000	      9820	80002ba4	5119a213	slti	x4,x19,1297	 x19:0x00000000  x4=0x00000001
       98225000	      9821	80002ba8	02f60863	beq	x12,x15,80002bd8	 x12:0xfffff6f6 x15:0x00000000
       98235000	      9822	80002bac	d6df8b93	addi	x23,x31,-659	 x31:0x00000000 x23=0xfffffd6d
       98245000	      9823	80002bb0	00d61433	sll	x8,x12,x13	 x12:0xfffff6f6 x13:0x00000000  x8=0xfffff6f6
       98255000	      9824	80002bb4	1ec80113	addi	x2,x16,492	 x16:0x00000000  x2=0x000001ec
       98265000	      9825	80002bb8	25f9b2b7	lui	x5,0x25f9b	  x5=0x25f9b000
       98275000	      9826	80002bbc	61230913	addi	x18,x6,1554	  x6:0x8000a616 x18=0x8000ac28
       98285000	      9827	80002bc0	00d49c63	bne	x9,x13,80002bd8	  x9:0x00000000 x13:0x00000000
       98295000	      9828	80002bc4	eeec3b13	sltiu	x22,x24,-274	 x24:0x00000000 x22=0x00000001
       98305000	      9829	80002bc8	4b4ec493	xori	x9,x29,1204	 x29:0x00000000  x9=0x000004b4
       98315000	      9830	80002bcc	40789797	auipc	x15,0x40789	 x15=0xc078bbc8
       98325000	      9831	80002bd0	00b627b3	slt	x15,x12,x11	 x12:0xfffff6f6 x11:0x00000000 x15=0x00000001
       98335000	      9832	80002bd4	00ea95b3	sll	x11,x21,x14	 x21:0x00000000 x14:0x80009fc4 x11=0x00000000
       98345000	      9833	80002bd8	009aec33	or	x24,x21,x9	 x21:0x00000000  x9:0x000004b4 x24=0x000004b4
       98355000	      9834	80002bdc	01e59e33	sll	x28,x11,x30	 x11:0x00000000 x30:0x80009f50 x28=0x00000000
       98365000	      9835	80002be0	00000013	addi	x0,x0,0	  x0:0x00000000
       98375000	      9836	80002be4	003f37b3	sltu	x15,x30,x3	 x30:0x80009f50  x3:0x00000000 x15=0x00000000
       98385000	      9837	80002be8	c2713213	sltiu	x4,x2,-985	  x2:0x000001ec  x4=0x00000001
       98395000	      9838	80002bec	0177e2b3	or	x5,x15,x23	 x15:0x00000000 x23:0xfffffd6d  x5=0xfffffd6d
       98405000	      9839	80002bf0	02418c63	beq	x3,x4,80002c28	  x3:0x00000000  x4:0x00000001
       98415000	      9840	80002bf4	40add513	srai	x10,x27,0xa	 x27:0xc3a34b44 x10=0xfff0e8d2
       98425000	      9841	80002bf8	0024a033	slt	x0,x9,x2	  x9:0x000004b4  x2:0x000001ec
       98435000	      9842	80002bfc	332d5317	auipc	x6,0x332d5	  x6=0xb32d7bf8
       98445000	      9843	80002c00	3cdd7593	andi	x11,x26,973	 x26:0x0000000b x11=0x00000009
       98455000	      9844	80002c04	0ed22b13	slti	x22,x4,237	  x4:0x00000001 x22=0x00000001
       98465000	      9845	80002c08	00bfd033	srl	x0,x31,x11	 x31:0x00000000 x11:0x00000009
       98475000	      9846	80002c0c	00350fb3	add	x31,x10,x3	 x10:0xfff0e8d2  x3:0x00000000 x31=0xfff0e8d2
       98485000	      9847	80002c10	407e51b3	sra	x3,x28,x7	 x28:0x00000000  x7:0x00000000  x3=0x00000000
       98495000	      9848	80002c14	00000013	addi	x0,x0,0	  x0:0x00000000
       98505000	      9849	80002c18	9c487a17	auipc	x20,0x9c487	 x20=0x1c489c14
       98515000	      9850	80002c1c	00ac5833	srl	x16,x24,x10	 x24:0x000004b4 x10:0xfff0e8d2 x16=0x00000000
       98525000	      9851	80002c20	94380193	addi	x3,x16,-1725	 x16:0x00000000  x3=0xfffff943
       98535000	      9852	80002c24	01d9d433	srl	x8,x19,x29	 x19:0x00000000 x29:0x00000000  x8=0x00000000
       98545000	      9853	80002c28	05d4d663	bge	x9,x29,80002c74	  x9:0x000004b4 x29:0x00000000
       98555000	      9854	00000000	00000013	addi	x0,x0,0	  x0:0x00000000
       98565000	      9855	80002c70	00000013	addi	x0,x0,0	  x0:0x00000000
       98575000	      9856	80002c74	00a1b333	sltu	x6,x3,x10	  x3:0xfffff943 x10:0xfff0e8d2  x6=0x00000000
       98585000	      9857	80002c78	013cadb3	slt	x27,x25,x19	 x25:0xfffff8ec x19:0x00000000 x27=0x00000001
       98595000	      9858	80002c7c	010f8433	add	x8,x31,x16	 x31:0xfff0e8d2 x16:0x00000000  x8=0xfff0e8d2
       98605000	      9859	80002c80	32ac6493	ori	x9,x24,810	 x24:0x000004b4  x9=0x000007be
       98615000	      9860	80002c84	40cf5633	sra	x12,x30,x12	 x30:0x80009f50 x12:0xfffff6f6 x12=0xfffffe00
       98625000	      9861	80002c88	00bede63	bge	x29,x11,80002ca4	 x29:0x00000000 x11:0x00000009
       98635000	      9862	80002c8c	40b4d333	sra	x6,x9,x11	  x9:0x000007be x11:0x00000009  x6=0x00000003
       98645000	      9863	80002c90	aa80a693	slti	x13,x1,-1368	  x1:0x00000000 x13=0x00000000
       98655000	      9864	80002c94	00f69533	sll	x10,x13,x15	 x13:0x00000000 x15:0x00000000 x10=0x00000000
       98665000	      9865	80002c98	00b72433	slt	x8,x14,x11	 x14:0x80009fc4 x11:0x00000009  x8=0x00000001
       98675000	      9866	80002c9c	4019d6b3	sra	x13,x19,x1	 x19:0x00000000  x1:0x00000000 x13=0x00000000
       98685000	      9867	80002ca0	01f242b3	xor	x5,x4,x31	  x4:0x00000001 x31:0xfff0e8d2  x5=0xfff0e8d3
       98695000	      9868	80002ca4	ebdd8513	addi	x10,x27,-323	 x27:0x00000001 x10=0xfffffebe
       98705000	      9869	80002ca8	00000013	addi	x0,x0,0	  x0:0x00000000
       98715000	      9870	80002cac	026e2193	slti	x3,x28,38	 x28:0x00000000  x3=0x00000001
       98725000	      9871	80002cb0	009b1863	bne	x22,x9,80002cc0	 x22:0x00000001  x9:0x000007be
       98735000	      9872	00000000	00000013	addi	x0,x0,0	  x0:0x00000000
       98745000	      9873	80002cbc	00000013	addi	x0,x0,0	  x0:0x00000000
       98755000	      9874	80002cc0	00515113	srli	x2,x2,0x5	  x2:0x000001ec  x2=0x0000000f
       98765000	      9875	80002cc4	00425db3	srl	x27,x4,x4	  x4:0x00000001  x4:0x00000001 x27=0x00000000
       98775000	      9876	80002cc8	036f6263	bltu	x30,x22,80002cec	 x30:0x80009f50 x22:0x00000001
       98785000	      9877	80002ccc	005d8133	add	x2,x27,x5	 x27:0x00000000  x5:0xfff0e8d3  x2=0xfff0e8d3
       98795000	      9878	80002cd0	00175613	srli	x12,x14,0x1	 x14:0x80009fc4 x12=0x40004fe2
       98805000	      9879	80002cd4	01dfd863	bge	x31,x29,80002ce4	 x31:0xfff0e8d2 x29:0x00000000
       98815000	      9880	80002cd8	03927863	bgeu	x4,x25,80002d08	  x4:0x00000001 x25:0xfffff8ec
       98825000	      9881	80002cdc	008cd9b3	srl	x19,x25,x8	 x25:0xfffff8ec  x8:0x00000001 x19=0x7ffffc76
       98835000	      9882	80002ce0	02ef5863	bge	x30,x14,80002d10	 x30:0x80009f50 x14:0x80009fc4
       98845000	      9883	80002ce4	009969b3	or	x19,x18,x9	 x18:0x8000ac28  x9:0x000007be x19=0x8000afbe
       98855000	      9884	80002ce8	00000013	addi	x0,x0,0	  x0:0x00000000
       98865000	      9885	80002cec	1b957293	andi	x5,x10,441	 x10:0xfffffebe  x5=0x000000b8
       98875000	      9886	80002cf0	02c24a63	blt	x4,x12,80002d24	  x4:0x00000001 x12:0x40004fe2
       98885000	      9887	00000000	00000013	addi	x0,x0,0	  x0:0x00000000
       98895000	      9888	80002d20	00000013	addi	x0,x0,0	  x0:0x00000000
       98905000	      9889	80002d24	00ef0c63	beq	x30,x14,80002d3c	 x30:0x80009f50 x14:0x80009fc4
       98915000	      9890	80002d28	006c9e93	slli	x29,x25,0x6	 x25:0xfffff8ec x29=0xfffe3b00
       98925000	      9891	80002d2c	002e03b3	add	x7,x28,x2	 x28:0x00000000  x2:0xfff0e8d3  x7=0xfff0e8d3
       98935000	      9892	80002d30	017e9233	sll	x4,x29,x23	 x29:0xfffe3b00 x23:0xfffffd6d  x4=0xc7600000
       98945000	      9893	80002d34	e31d3a93	sltiu	x21,x26,-463	 x26:0x0000000b x21=0x00000001
       98955000	      9894	80002d38	00aa0cb3	add	x25,x20,x10	 x20:0x1c489c14 x10:0xfffffebe x25=0x1c489ad2
       98965000	      9895	80002d3c	40065493	srai	x9,x12,0x0	 x12:0x40004fe2  x9=0x40004fe2
       98975000	      9896	80002d40	a55be493	ori	x9,x23,-1451	 x23:0xfffffd6d  x9=0xffffff7d
       98985000	      9897	80002d44	00959c93	slli	x25,x11,0x9	 x11:0x00000009 x25=0x00001200
       98995000	      9898	80002d48	b773c0b7	lui	x1,0xb773c	  x1=0xb773c000
       99005000	      9899	80002d4c	015276b3	and	x13,x4,x21	  x4:0xc7600000 x21:0x00000001 x13=0x00000000
       99015000	      9900	80002d50	01cb4c63	blt	x22,x28,80002d68	 x22:0x00000001 x28:0x00000000
       99025000	      9901	80002d54	01ecd863	bge	x25,x30,80002d64	 x25:0x00001200 x30:0x80009f50
       99035000	      9902	00000000	00000013	addi	x0,x0,0	  x0:0x00000000
       99045000	      9903	80002d60	00000013	addi	x0,x0,0	  x0:0x00000000
       99055000	      9904	80002d64	02921c63	bne	x4,x9,80002d9c	  x4:0xc7600000  x9:0xffffff7d
       99065000	      9905	00000000	00000013	addi	x0,x0,0	  x0:0x00000000
       99075000	      9906	80002d98	00000013	addi	x0,x0,0	  x0:0x00000000
       99085000	      9907	80002d9c	00094a63	blt	x18,x0,80002db0	 x18:0x8000ac28  x0:0x00000000
       99095000	      9908	00000000	00000013	addi	x0,x0,0	  x0:0x00000000
       99105000	      9909	80002dac	00000013	addi	x0,x0,0	  x0:0x00000000
       99115000	      9910	80002db0	004da6b3	slt	x13,x27,x4	 x27:0x00000000  x4:0xc7600000 x13=0x00000000
       99125000	      9911	80002db4	00c61663	bne	x12,x12,80002dc0	 x12:0x40004fe2 x12:0x40004fe2
       99135000	      9912	80002db8	40265633	sra	x12,x12,x2	 x12:0x40004fe2  x2:0xfff0e8d3 x12=0x00000800
       99145000	      9913	80002dbc	00b28db3	add	x27,x5,x11	  x5:0x000000b8 x11:0x00000009 x27=0x000000c1
       99155000	      9914	80002dc0	0516f863	bgeu	x13,x17,80002e10	 x13:0x00000000 x17:0x00000000
       99165000	      9915	00000000	00000013	addi	x0,x0,0	  x0:0x00000000
       99175000	      9916	80002e0c	00000013	addi	x0,x0,0	  x0:0x00000000
       99185000	      9917	80002e10	01dca4b3	slt	x9,x25,x29	 x25:0x00001200 x29:0xfffe3b00  x9=0x00000000
       99195000	      9918	80002e14	3e224313	xori	x6,x4,994	  x4:0xc7600000  x6=0xc76003e2
       99205000	      9919	80002e18	407d8c33	sub	x24,x27,x7	 x27:0x000000c1  x7:0xfff0e8d3 x24=0x000f17ee
       99215000	      9920	80002e1c	875da917	auipc	x18,0x875da	 x18=0x075dce18
       99225000	      9921	80002e20	03638c63	beq	x7,x22,80002e58	  x7:0xfff0e8d3 x22:0x00000001
       99235000	      9922	80002e24	0002b0b3	sltu	x1,x5,x0	  x5:0x000000b8  x0:0x00000000  x1=0x00000000
       99245000	      9923	80002e28	5da7aa93	slti	x21,x15,1498	 x15:0x00000000 x21=0x00000001
       99255000	      9924	80002e2c	02c4e463	bltu	x9,x12,80002e54	  x9:0x00000000 x12:0x00000800
       99265000	      9925	00000000	00000013	addi	x0,x0,0	  x0:0x00000000
       99275000	      9926	80002e50	00000013	addi	x0,x0,0	  x0:0x00000000
       99285000	      9927	80002e54	65924893	xori	x17,x4,1625	  x4:0xc7600000 x17=0xc7600659
       99295000	      9928	80002e58	0159d1b3	srl	x3,x19,x21	 x19:0x8000afbe x21:0x00000001  x3=0x400057df
       99305000	      9929	80002e5c	00330863	beq	x6,x3,80002e6c	  x6:0xc76003e2  x3:0x400057df
       99315000	      9930	80002e60	4d7b3993	sltiu	x19,x22,1239	 x22:0x00000001 x19=0x00000001
       99325000	      9931	80002e64	4002d6b3	sra	x13,x5,x0	  x5:0x000000b8  x0:0x00000000 x13=0x000000b8
       99335000	      9932	80002e68	0274c463	blt	x9,x7,80002e90	  x9:0x00000000  x7:0xfff0e8d3
       99345000	      9933	80002e6c	2e03aa17	auipc	x20,0x2e03a	 x20=0xae03ce68
       99355000	      9934	80002e70	036dc863	blt	x27,x22,80002ea0	 x27:0x000000c1 x22:0x00000001
       99365000	      9935	80002e74	41f10eb3	sub	x29,x2,x31	  x2:0xfff0e8d3 x31:0xfff0e8d2 x29=0x00000001
       99375000	      9936	80002e78	413f56b3	sra	x13,x30,x19	 x30:0x80009f50 x19:0x00000001 x13=0xc0004fa8
       99385000	      9937	80002e7c	01b3c833	xor	x16,x7,x27	  x7:0xfff0e8d3 x27:0x000000c1 x16=0xfff0e812
       99395000	      9938	80002e80	e5f9a797	auipc	x15,0xe5f9a	 x15=0x65f9ce7c
       99405000	      9939	80002e84	cf158893	addi	x17,x11,-783	 x11:0x00000009 x17=0xfffffcfa
       99415000	      9940	80002e88	01eda8b3	slt	x17,x27,x30	 x27:0x000000c1 x30:0x80009f50 x17=0x00000000
       99425000	      9941	80002e8c	81c30c17	auipc	x24,0x81c30	 x24=0x01c32e88
       99435000	      9942	80002e90	007122b3	slt	x5,x2,x7	  x2:0xfff0e8d3  x7:0xfff0e8d3  x5=0x00000000
       99445000	      9943	80002e94	46a54c17	auipc	x24,0x46a54	 x24=0xc6a56e90
       99455000	      9944	80002e98	01d9b233	sltu	x4,x19,x29	 x19:0x00000001 x29:0x00000001  x4=0x00000000
       99465000	      9945	80002e9c	4057d033	sra	x0,x15,x5	 x15:0x65f9ce7c  x5:0x00000000
       99475000	      9946	80002ea0	2585bd93	sltiu	x27,x11,600	 x11:0x00000009 x27=0x00000001
       99485000	      9947	80002ea4	00000013	addi	x0,x0,0	  x0:0x00000000
       99495000	      9948	80002ea8	0146d863	bge	x13,x20,80002eb8	 x13:0xc0004fa8 x20:0xae03ce68
       99505000	      9949	00000000	00000013	addi	x0,x0,0	  x0:0x00000000
       99515000	      9950	80002eb4	00000013	addi	x0,x0,0	  x0:0x00000000
       99525000	      9951	80002eb8	01f3cc63	blt	x7,x31,80002ed0	  x7:0xfff0e8d3 x31:0xfff0e8d2
       99535000	      9952	80002ebc	415fd313	srai	x6,x31,0x15	 x31:0xfff0e8d2  x6=0xffffffff
       99545000	      9953	80002ec0	4ead0397	auipc	x7,0x4ead0	  x7=0xcead2ebc
       99555000	      9954	80002ec4	032f1c63	bne	x30,x18,80002efc	 x30:0x80009f50 x18:0x075dce18
       99565000	      9955	00000000	00000013	addi	x0,x0,0	  x0:0x00000000
       99575000	      9956	80002ef8	00000013	addi	x0,x0,0	  x0:0x00000000
       99585000	      9957	80002efc	d38c3293	sltiu	x5,x24,-712	 x24:0xc6a56e90  x5=0x00000001
       99595000	      9958	80002f00	00dc20b3	slt	x1,x24,x13	 x24:0xc6a56e90 x13:0xc0004fa8  x1=0x00000000
       99605000	      9959	80002f04	00af9b93	slli	x23,x31,0xa	 x31:0xfff0e8d2 x23=0xc3a34800
       99615000	      9960	80002f08	019d70b3	and	x1,x26,x25	 x26:0x0000000b x25:0x00001200  x1=0x00000000
       99625000	      9961	80002f0c	012992b3	sll	x5,x19,x18	 x19:0x00000001 x18:0x075dce18  x5=0x01000000
       99635000	      9962	80002f10	01acf5b3	and	x11,x25,x26	 x25:0x00001200 x26:0x0000000b x11=0x00000000
       99645000	      9963	80002f14	63872d93	slti	x27,x14,1592	 x14:0x80009fc4 x27=0x00000001
       99655000	      9964	80002f18	28f18013	addi	x0,x3,655	  x3:0x400057df
       99665000	      9965	80002f1c	0069fdb3	and	x27,x19,x6	 x19:0x00000001  x6:0xffffffff x27=0x00000001
       99675000	      9966	80002f20	009bb933	sltu	x18,x23,x9	 x23:0xc3a34800  x9:0x00000000 x18=0x00000000
       99685000	      9967	80002f24	40625db3	sra	x27,x4,x6	  x4:0x00000000  x6:0xffffffff x27=0x00000000
       99695000	      9968	80002f28	d0a0ce13	xori	x28,x1,-758	  x1:0x00000000 x28=0xfffffd0a
       99705000	      9969	80002f2c	00334c63	blt	x6,x3,80002f44	  x6:0xffffffff  x3:0x400057df
       99715000	      9970	00000000	00000013	addi	x0,x0,0	  x0:0x00000000
       99725000	      9971	80002f40	00000013	addi	x0,x0,0	  x0:0x00000000
       99735000	      9972	80002f44	a9024fb7	lui	x31,0xa9024	 x31=0xa9024000
       99745000	      9973	80002f48	008fca63	blt	x31,x8,80002f5c	 x31:0xa9024000  x8:0x00000001
       99755000	      9974	00000000	00000013	addi	x0,x0,0	  x0:0x00000000
       99765000	      9975	80002f58	00000013	addi	x0,x0,0	  x0:0x00000000
       99775000	      9976	80002f5c	60574213	xori	x4,x14,1541	 x14:0x80009fc4  x4=0x800099c1
       99785000	      9977	80002f60	ed272393	slti	x7,x14,-302	 x14:0x80009fc4  x7=0x00000001
       99795000	      9978	80002f64	c85fe293	ori	x5,x31,-891	 x31:0xa9024000  x5=0xfffffc85
       99805000	      9979	80002f68	008d3fb3	sltu	x31,x26,x8	 x26:0x0000000b  x8:0x00000001 x31=0x00000000
       99815000	      9980	80002f6c	05561663	bne	x12,x21,80002fb8	 x12:0x00000800 x21:0x00000001
       99825000	      9981	00000000	00000013	addi	x0,x0,0	  x0:0x00000000
       99835000	      9982	80002fb4	00000013	addi	x0,x0,0	  x0:0x00000000
       99845000	      9983	80002fb8	5ed0ad93	slti	x27,x1,1517	  x1:0x00000000 x27=0x00000001
       99855000	      9984	80002fbc	00bb8033	add	x0,x23,x11	 x23:0xc3a34800 x11:0x00000000
       99865000	      9985	80002fc0	41cd89b3	sub	x19,x27,x28	 x27:0x00000001 x28:0xfffffd0a x19=0x000002f7
       99875000	      9986	80002fc4	40205b33	sra	x22,x0,x2	  x0:0x00000000  x2:0xfff0e8d3 x22=0x00000000
       99885000	      9987	80002fc8	01be3c33	sltu	x24,x28,x27	 x28:0xfffffd0a x27:0x00000001 x24=0x00000000
       99895000	      9988	80002fcc	00b563b3	or	x7,x10,x11	 x10:0xfffffebe x11:0x00000000  x7=0xfffffebe
       99905000	      9989	80002fd0	05f87263	bgeu	x16,x31,80003014	 x16:0xfff0e812 x31:0x00000000
       99915000	      9990	00000000	00000013	addi	x0,x0,0	  x0:0x00000000
       99925000	      9991	80003010	00000013	addi	x0,x0,0	  x0:0x00000000
       99935000	      9992	80003014	00ecb633	sltu	x12,x25,x14	 x25:0x00001200 x14:0x80009fc4 x12=0x00000001
       99945000	      9993	80003018	408adc33	sra	x24,x21,x8	 x21:0x00000001  x8:0x00000001 x24=0x00000000
       99955000	      9994	8000301c	00c19e13	slli	x28,x3,0xc	  x3:0x400057df x28=0x057df000
       99965000	      9995	80003020	4b8d0e37	lui	x28,0x4b8d0	 x28=0x4b8d0000
       99975000	      9996	80003024	27b18517	auipc	x10,0x27b18	 x10=0xa7b1b020
       99985000	      9997	80003028	4f5ab693	sltiu	x13,x21,1269	 x21:0x00000001 x13=0x00000001
       99995000	      9998	8000302c	004f2583	lw	x11,4(x30)	 x30:0x80009f50 x11=0x80000904 PA:0x80009f54
      100005000	      9999	80003030	010f0f13	addi	x30,x30,16	 x30:0x80009f50 x30=0x80009f60
      100015000	     10000	80003034	41d7fb93	andi	x23,x15,1053	 x15:0x65f9ce7c x23=0x0000041c
      100025000	     10001	80003038	01cf7533	and	x10,x30,x28	 x30:0x80009f60 x28:0x4b8d0000 x10=0x00000000
      100035000	     10002	8000303c	b0063913	sltiu	x18,x12,-1280	 x12:0x00000001 x18=0x00000001
      100045000	     10003	80003040	00158613	addi	x12,x11,1	 x11:0x80000904 x12=0x80000905
      100055000	     10004	80003044	00060667	jalr	x12,x12,0	 x12:0x80000905 x12=0x80003044
      100065000	     10005	00000000	00000013	addi	x0,x0,0	  x0:0x00000000
      100075000	     10006	80000904	00000013	addi	x0,x0,0	  x0:0x00000000
      100085000	     10007	80000908	00524663	blt	x4,x5,80000914	  x4:0x800099c1  x5:0xfffffc85
      100095000	     10008	00000000	00000013	addi	x0,x0,0	  x0:0x00000000
      100105000	     10009	80000910	00000013	addi	x0,x0,0	  x0:0x00000000
      100115000	     10010	80000914	57720f93	addi	x31,x4,1399	  x4:0x800099c1 x31=0x80009f38
      100125000	     10011	80000918	015f9d93	slli	x27,x31,0x15	 x31:0x80009f38 x27=0xe7000000
      100135000	     10012	8000091c	01a776b3	and	x13,x14,x26	 x14:0x80009fc4 x26:0x0000000b x13=0x00000000
      100145000	     10013	80000920	0048aeb3	slt	x29,x17,x4	 x17:0x00000000  x4:0x800099c1 x29=0x00000000
      100155000	     10014	80000924	00328bb3	add	x23,x5,x3	  x5:0xfffffc85  x3:0x400057df x23=0x40005464
      100165000	     10015	80000928	0284fe13	andi	x28,x9,40	  x9:0x00000000 x28=0x00000000
      100175000	     10016	8000092c	76c3a813	slti	x16,x7,1900	  x7:0xfffffebe x16=0x00000001
      100185000	     10017	80000930	195c4813	xori	x16,x24,405	 x24:0x00000000 x16=0x00000195
      100195000	     10018	80000934	004f2583	lw	x11,4(x30)	 x30:0x80009f60 x11=0x80000b74 PA:0x80009f64
      100205000	     10019	80000938	018f0f13	addi	x30,x30,24	 x30:0x80009f60 x30=0x80009f78
      100215000	     10020	8000093c	2d560e93	addi	x29,x12,725	 x12:0x80003044 x29=0x80003319
      100225000	     10021	80000940	00158b93	addi	x23,x11,1	 x11:0x80000b74 x23=0x80000b75
      100235000	     10022	80000944	000b8be7	jalr	x23,x23,0	 x23:0x80000b75 x23=0x80000944
      100245000	     10023	00000000	00000013	addi	x0,x0,0	  x0:0x00000000
      100255000	     10024	80000b74	00000013	addi	x0,x0,0	  x0:0x00000000
      100265000	     10025	80000b78	00e0cc63	blt	x1,x14,80000b90	  x1:0x00000000 x14:0x80009fc4
      100275000	     10026	80000b7c	00504c63	blt	x0,x5,80000b94	  x0:0x00000000  x5:0xfffffc85
      100285000	     10027	80000b80	413e0633	sub	x12,x28,x19	 x28:0x00000000 x19:0x000002f7 x12=0xfffffd09
      100295000	     10028	80000b84	01f8e1b3	or	x3,x17,x31	 x17:0x00000000 x31:0x80009f38  x3=0x80009f38
      100305000	     10029	80000b88	00e8a5b3	slt	x11,x17,x14	 x17:0x00000000 x14:0x80009fc4 x11=0x00000000
      100315000	     10030	80000b8c	01892cb3	slt	x25,x18,x24	 x18:0x00000001 x24:0x00000000 x25=0x00000000
      100325000	     10031	80000b90	00108c63	beq	x1,x1,80000ba8	  x1:0x00000000  x1:0x00000000
      100335000	     10032	00000000	00000013	addi	x0,x0,0	  x0:0x00000000
      100345000	     10033	80000ba4	00000013	addi	x0,x0,0	  x0:0x00000000
      100355000	     10034	80000ba8	91cf8a13	addi	x20,x31,-1764	 x31:0x80009f38 x20=0x80009854
      100365000	     10035	80000bac	004f2583	lw	x11,4(x30)	 x30:0x80009f78 x11=0x800005a8 PA:0x80009f7c
      100375000	     10036	80000bb0	00cf0f13	addi	x30,x30,12	 x30:0x80009f78 x30=0x80009f84
      100385000	     10037	80000bb4	ab87ee13	ori	x28,x15,-1352	 x15:0x65f9ce7c x28=0xfffffefc
      100395000	     10038	80000bb8	0034ddb3	srl	x27,x9,x3	  x9:0x00000000  x3:0x80009f38 x27=0x00000000
      100405000	     10039	80000bbc	0004aa33	slt	x20,x9,x0	  x9:0x00000000  x0:0x00000000 x20=0x00000000
      100415000	     10040	80000bc0	230eec93	ori	x25,x29,560	 x29:0x80003319 x25=0x80003339
      100425000	     10041	80000bc4	00158813	addi	x16,x11,1	 x11:0x800005a8 x16=0x800005a9
      100435000	     10042	80000bc8	00080867	jalr	x16,x16,0	 x16:0x800005a9 x16=0x80000bc8
      100445000	     10043	00000000	00000013	addi	x0,x0,0	  x0:0x00000000
      100455000	     10044	800005a8	00000013	addi	x0,x0,0	  x0:0x00000000
      100465000	     10045	800005ac	006a23b3	slt	x7,x20,x6	 x20:0x00000000  x6:0xffffffff  x7=0x00000000
      100475000	     10046	800005b0	fdaf3613	sltiu	x12,x30,-38	 x30:0x80009f84 x12=0x00000001
      100485000	     10047	800005b4	011457b3	srl	x15,x8,x17	  x8:0x00000001 x17:0x00000000 x15=0x00000001
      100495000	     10048	800005b8	0058f6b3	and	x13,x17,x5	 x17:0x00000000  x5:0xfffffc85 x13=0x00000000
      100505000	     10049	800005bc	011f9f93	slli	x31,x31,0x11	 x31:0x80009f38 x31=0x3e700000
      100515000	     10050	800005c0	01669413	slli	x8,x13,0x16	 x13:0x00000000  x8=0x00000000
      100525000	     10051	800005c4	014336b3	sltu	x13,x6,x20	  x6:0xffffffff x20:0x00000000 x13=0x00000000
      100535000	     10052	800005c8	005e8b33	add	x22,x29,x5	 x29:0x80003319  x5:0xfffffc85 x22=0x80002f9e
      100545000	     10053	800005cc	d15c0c13	addi	x24,x24,-747	 x24:0x00000000 x24=0xfffffd15
      100555000	     10054	800005d0	3510bb17	auipc	x22,0x3510b	 x22=0xb510b5cc
      100565000	     10055	800005d4	01662b33	slt	x22,x12,x22	 x12:0x00000001 x22:0xb510b5cc x22=0x00000000
      100575000	     10056	800005d8	689ec637	lui	x12,0x689ec	 x12=0x689ec000
      100585000	     10057	800005dc	41a953b3	sra	x7,x18,x26	 x18:0x00000001 x26:0x0000000b  x7=0x00000000
      100595000	     10058	800005e0	00a5ec63	bltu	x11,x10,800005f8	 x11:0x800005a8 x10:0x00000000
      100605000	     10059	800005e4	659ac213	xori	x4,x21,1625	 x21:0x00000001  x4=0x00000658
      100615000	     10060	800005e8	cb4de893	ori	x17,x27,-844	 x27:0x00000000 x17=0xfffffcb4
      100625000	     10061	800005ec	4056d3b3	sra	x7,x13,x5	 x13:0x00000000  x5:0xfffffc85  x7=0x00000000
      100635000	     10062	800005f0	01de0f97	auipc	x31,0x1de0	 x31=0x81de05ec
      100645000	     10063	800005f4	48a07d93	andi	x27,x0,1162	  x0:0x00000000 x27=0x00000000
      100655000	     10064	800005f8	00000013	addi	x0,x0,0	  x0:0x00000000
      100665000	     10065	800005fc	01c0acb3	slt	x25,x1,x28	  x1:0x00000000 x28:0xfffffefc x25=0x00000000
      100675000	     10066	80000600	41daddb3	sra	x27,x21,x29	 x21:0x00000001 x29:0x80003319 x27=0x00000000
      100685000	     10067	80000604	00856e63	bltu	x10,x8,80000620	 x10:0x00000000  x8:0x00000000
      100695000	     10068	80000608	018e5993	srli	x19,x28,0x18	 x28:0xfffffefc x19=0x000000ff
      100705000	     10069	8000060c	01ecde13	srli	x28,x25,0x1e	 x25:0x00000000 x28=0x00000000
      100715000	     10070	80000610	01d101b3	add	x3,x2,x29	  x2:0xfff0e8d3 x29:0x80003319  x3=0x7ff11bec
      100725000	     10071	80000614	0081abb3	slt	x23,x3,x8	  x3:0x7ff11bec  x8:0x00000000 x23=0x00000000
      100735000	     10072	80000618	00d7ba33	sltu	x20,x15,x13	 x15:0x00000001 x13:0x00000000 x20=0x00000000
      100745000	     10073	8000061c	01872eb3	slt	x29,x14,x24	 x14:0x80009fc4 x24:0xfffffd15 x29=0x00000001
      100755000	     10074	80000620	01c34233	xor	x4,x6,x28	  x6:0xffffffff x28:0x00000000  x4=0xffffffff
      100765000	     10075	80000624	01598e63	beq	x19,x21,80000640	 x19:0x000000ff x21:0x00000001
      100775000	     10076	80000628	008b5c63	bge	x22,x8,80000640	 x22:0x00000000  x8:0x00000000
      100785000	     10077	00000000	00000013	addi	x0,x0,0	  x0:0x00000000
      100795000	     10078	8000063c	00000013	addi	x0,x0,0	  x0:0x00000000
      100805000	     10079	80000640	00831233	sll	x4,x6,x8	  x6:0xffffffff  x8:0x00000000  x4=0xffffffff
      100815000	     10080	80000644	00000d17	auipc	x26,0x0	 x26=0x80000640
      100825000	     10081	80000648	00cd0d13	addi	x26,x26,12	 x26:0x80000640 x26=0x8000064c
      100835000	     10082	8000064c	000d0067	jalr	x0,x26,0	 x26:0x8000064c
      100845000	     10083	00000000	00000013	addi	x0,x0,0	  x0:0x00000000
      100855000	     10084	8000064c	00000013	addi	x0,x0,0	  x0:0x00000000
      100865000	     10085	80000650	00100193	addi	x3,x0,1	  x0:0x00000000  x3=0x00000001
      100875000	     10086	80000654	00000073	ecall	
      100885000	     10087	80000658	fe8f0f13	addi	x30,x30,-24	 x30:0x80009f84 x30=0x80009f6c
