		Time			Cycle	PC		Insn	Decoded instruction	Register and memory contents
          65000	         5	80000004	00000293	addi	x5,x0,0	  x0:0x00000000  x5=0x00000000
          75000	         6	80000008	00000313	addi	x6,x0,0	  x0:0x00000000  x6=0x00000000
          85000	         7	8000000c	00628263	beq	x5,x6,80000010	  x5:0x00000000  x6:0x00000000
          95000	         8	00000000	00000013	addi	x0,x0,0	  x0:0x00000000
         105000	         9	8000000c	00000013	addi	x0,x0,0	  x0:0x00000000
         115000	        10	80000010	00000617	auipc	x12,0x0	 x12=0x8000000c
         125000	        11	80000014	00c60613	addi	x12,x12,12	 x12:0x8000000c x12=0x80000018
         135000	        12	80000018	00060067	jalr	x0,x12,0	 x12:0x80000018
         145000	        13	00000000	00000013	addi	x0,x0,0	  x0:0x00000000
         155000	        14	80000018	00000013	addi	x0,x0,0	  x0:0x00000000
         165000	        15	8000001c	400007b7	lui	x15,0x40000	 x15=0x40000000
         175000	        16	80000020	10078793	addi	x15,x15,256	 x15:0x40000000 x15=0x40000100
         185000	        17	80000024	00000013	addi	x0,x0,0	  x0:0x00000000
         195000	        18	80000028	0000a817	auipc	x16,0xa	 x16=0x8000a024
         205000	        19	8000002c	fa080813	addi	x16,x16,-96	 x16:0x8000a024 x16=0x80009fc4
         215000	        20	80000030	00002797	auipc	x15,0x2	 x15=0x8000202c
         225000	        21	80000034	e2478793	addi	x15,x15,-476	 x15:0x8000202c x15=0x80001e50
         235000	        22	80000038	0007e793	ori	x15,x15,0	 x15:0x80001e50 x15=0x80001e50
         245000	        23	8000003c	00000013	addi	x0,x0,0	  x0:0x00000000
         255000	        24	80000040	00000797	auipc	x15,0x0	 x15=0x8000003c
         265000	        25	80000044	02078793	addi	x15,x15,32	 x15:0x8000003c x15=0x8000005c
         275000	        26	80000048	00000013	addi	x0,x0,0	  x0:0x00000000
         285000	        27	8000004c	00000013	addi	x0,x0,0	  x0:0x00000000
         295000	        28	80000050	000027b7	lui	x15,0x2	 x15=0x00002000
         305000	        29	80000054	80078793	addi	x15,x15,-2048	 x15:0x00002000 x15=0x00001800
         315000	        30	80000058	00000013	addi	x0,x0,0	  x0:0x00000000
         325000	        31	8000005c	00000013	addi	x0,x0,0	  x0:0x00000000
         335000	        32	80000060	fde96037	lui	x0,0xfde96	
         345000	        33	80000064	48f00013	addi	x0,x0,1167	  x0:0x00000000
         355000	        34	80000068	1daea0b7	lui	x1,0x1daea	  x1=0x1daea000
         365000	        35	8000006c	23008093	addi	x1,x1,560	  x1:0x1daea000  x1=0x1daea230
         375000	        36	80000070	00000113	addi	x2,x0,0	  x0:0x00000000  x2=0x00000000
         385000	        37	80000074	800001b7	lui	x3,0x80000	  x3=0x80000000
         395000	        38	80000078	f2547237	lui	x4,0xf2547	  x4=0xf2547000
         405000	        39	8000007c	44120213	addi	x4,x4,1089	  x4:0xf2547000  x4=0xf2547441
         415000	        40	80000080	00000293	addi	x5,x0,0	  x0:0x00000000  x5=0x00000000
         425000	        41	80000084	1a5bf337	lui	x6,0x1a5bf	  x6=0x1a5bf000
         435000	        42	80000088	d9330313	addi	x6,x6,-621	  x6:0x1a5bf000  x6=0x1a5bed93
         445000	        43	8000008c	00000393	addi	x7,x0,0	  x0:0x00000000  x7=0x00000000
         455000	        44	80000090	00200493	addi	x9,x0,2	  x0:0x00000000  x9=0x00000002
         465000	        45	80000094	80000537	lui	x10,0x80000	 x10=0x80000000
         475000	        46	80000098	00d00593	addi	x11,x0,13	  x0:0x00000000 x11=0x0000000d
         485000	        47	8000009c	ffc2c637	lui	x12,0xffc2c	 x12=0xffc2c000
         495000	        48	800000a0	c9960613	addi	x12,x12,-871	 x12:0xffc2c000 x12=0xffc2bc99
         505000	        49	800000a4	800006b7	lui	x13,0x80000	 x13=0x80000000
         515000	        50	800000a8	80000737	lui	x14,0x80000	 x14=0x80000000
         525000	        51	800000ac	800007b7	lui	x15,0x80000	 x15=0x80000000
         535000	        52	800000b0	f720d8b7	lui	x17,0xf720d	 x17=0xf720d000
         545000	        53	800000b4	57988893	addi	x17,x17,1401	 x17:0xf720d000 x17=0xf720d579
         555000	        54	800000b8	f49fa937	lui	x18,0xf49fa	 x18=0xf49fa000
         565000	        55	800000bc	f5890913	addi	x18,x18,-168	 x18:0xf49fa000 x18=0xf49f9f58
         575000	        56	800000c0	fb7459b7	lui	x19,0xfb745	 x19=0xfb745000
         585000	        57	800000c4	04d98993	addi	x19,x19,77	 x19:0xfb745000 x19=0xfb74504d
         595000	        58	800000c8	00100a13	addi	x20,x0,1	  x0:0x00000000 x20=0x00000001
         605000	        59	800000cc	80000ab7	lui	x21,0x80000	 x21=0x80000000
         615000	        60	800000d0	00200b13	addi	x22,x0,2	  x0:0x00000000 x22=0x00000002
         625000	        61	800000d4	00400b93	addi	x23,x0,4	  x0:0x00000000 x23=0x00000004
         635000	        62	800000d8	00400c13	addi	x24,x0,4	  x0:0x00000000 x24=0x00000004
         645000	        63	800000dc	80000cb7	lui	x25,0x80000	 x25=0x80000000
         655000	        64	800000e0	80000d37	lui	x26,0x80000	 x26=0x80000000
         665000	        65	800000e4	00000d93	addi	x27,x0,0	  x0:0x00000000 x27=0x00000000
         675000	        66	800000e8	fbd14e37	lui	x28,0xfbd14	 x28=0xfbd14000
         685000	        67	800000ec	7eee0e13	addi	x28,x28,2030	 x28:0xfbd14000 x28=0xfbd147ee
         695000	        68	800000f0	00200e93	addi	x29,x0,2	  x0:0x00000000 x29=0x00000002
         705000	        69	800000f4	847fff37	lui	x30,0x847ff	 x30=0x847ff000
         715000	        70	800000f8	c15f0f13	addi	x30,x30,-1003	 x30:0x847ff000 x30=0x847fec15
         725000	        71	800000fc	00000f93	addi	x31,x0,0	  x0:0x00000000 x31=0x00000000
         735000	        72	80000100	0000a417	auipc	x8,0xa	  x8=0x8000a0fc
         745000	        73	80000104	e8840413	addi	x8,x8,-376	  x8:0x8000a0fc  x8=0x80009f84
         755000	        74	80000108	00008c17	auipc	x24,0x8	 x24=0x80008104
         765000	        75	8000010c	416c0c13	addi	x24,x24,1046	 x24:0x80008104 x24=0x8000851a
         775000	        76	80000110	00008717	auipc	x14,0x8	 x14=0x8000810c
         785000	        77	80000114	15f70713	addi	x14,x14,351	 x14:0x8000810c x14=0x8000826b
         795000	        78	80000118	013c1923	sh	x19,18(x24)	 x24:0x8000851a x19:0xfb74504d PA:0x8000852c
         805000	        79	8000011c	00008117	auipc	x2,0x8	  x2=0x80008118
         815000	        80	80000120	68e10113	addi	x2,x2,1678	  x2:0x80008118  x2=0x800087a6
         825000	        81	80000124	fee70923	sb	x14,-14(x14)	 x14:0x8000826b x14:0x8000826b PA:0x8000825d
         835000	        82	80000128	058c5f03	lhu	x30,88(x24)	 x24:0x8000851a x30=0x00002829 PA:0x80008572
         845000	        83	8000012c	ff774e03	lbu	x28,-9(x14)	 x14:0x8000826b x28=0x00000019 PA:0x80008262
         855000	        84	80000130	052c01a3	sb	x18,67(x24)	 x24:0x8000851a x18:0xf49f9f58 PA:0x8000855d
         865000	        85	80000134	ff514a83	lbu	x21,-11(x2)	  x2:0x800087a6 x21=0x00000050 PA:0x8000879b
         875000	        86	80000138	ff314e03	lbu	x28,-13(x2)	  x2:0x800087a6 x28=0x00000052 PA:0x80008799
         885000	        87	8000013c	ff770a83	lb	x21,-9(x14)	 x14:0x8000826b x21=0x00000019 PA:0x80008262
         895000	        88	80000140	f1fc0a83	lb	x21,-225(x24)	 x24:0x8000851a x21=0xfffffff2 PA:0x80008439
         905000	        89	80000144	00174c83	lbu	x25,1(x14)	 x14:0x8000826b x25=0x00000027 PA:0x8000826c
         915000	        90	80000148	00710083	lb	x1,7(x2)	  x2:0x800087a6  x1=0x00000066 PA:0x800087ad
         925000	        91	8000014c	000c09a3	sb	x0,19(x24)	 x24:0x8000851a  x0:0x00000000 PA:0x8000852d
         935000	        92	80000150	076c1083	lh	x1,118(x24)	 x24:0x8000851a  x1=0x00004a4b PA:0x80008590
         945000	        93	80000154	0e7c4303	lbu	x6,231(x24)	 x24:0x8000851a  x6=0x000000ba PA:0x80008601
         955000	        94	80000158	ffb70d23	sb	x27,-6(x14)	 x14:0x8000826b x27:0x00000000 PA:0x80008265
         965000	        95	8000015c	00310623	sb	x3,12(x2)	  x2:0x800087a6  x3:0x80000000 PA:0x800087b2
         975000	        96	80000160	00b71283	lh	x5,11(x14)	 x14:0x8000826b  x5=0x00002c2d PA:0x80008276
         985000	        97	80000164	f90c1723	sh	x16,-114(x24)	 x24:0x8000851a x16:0x80009fc4 PA:0x800084a8
         995000	        98	80000168	ffe70b23	sb	x30,-10(x14)	 x14:0x8000826b x30:0x00002829 PA:0x80008261
        1005000	        99	8000016c	ffc14e03	lbu	x28,-4(x2)	  x2:0x800087a6 x28=0x00000059 PA:0x800087a2
        1015000	       100	80000170	00008e97	auipc	x29,0x8	 x29=0x8000816c
        1025000	       101	80000174	33ee8e93	addi	x29,x29,830	 x29:0x8000816c x29=0x800084aa
        1035000	       102	80000178	fc8e8003	lb	x0,-56(x29)	 x29:0x800084aa PA:0x80008472
        1045000	       103	8000017c	3edeff13	andi	x30,x29,1005	 x29:0x800084aa x30=0x000000a8
        1055000	       104	80000180	fcfe8d83	lb	x27,-49(x29)	 x29:0x800084aa x27=0x00000032 PA:0x80008479
        1065000	       105	80000184	fcce9103	lh	x2,-52(x29)	 x29:0x800084aa  x2=0x00002c2d PA:0x80008476
        1075000	       106	80000188	ff8eca03	lbu	x20,-8(x29)	 x29:0x800084aa x20=0x00000059 PA:0x800084a2
        1085000	       107	8000018c	00ae8aa3	sb	x10,21(x29)	 x29:0x800084aa x10:0x80000000 PA:0x800084bf
        1095000	       108	80000190	01dec683	lbu	x13,29(x29)	 x29:0x800084aa x13=0x0000007c PA:0x800084c7
        1105000	       109	80000194	0003cf33	xor	x30,x7,x0	  x7:0x00000000  x0:0x00000000 x30=0x00000000
        1115000	       110	80000198	032ec203	lbu	x4,50(x29)	 x29:0x800084aa  x4=0x00000097 PA:0x800084dc
        1125000	       111	8000019c	fcae9e03	lh	x28,-54(x29)	 x29:0x800084aa x28=0x00002e2f PA:0x80008474
        1135000	       112	800001a0	00979193	slli	x3,x15,0x9	 x15:0x80000000  x3=0x00000000
        1145000	       113	800001a4	fdce82a3	sb	x28,-59(x29)	 x29:0x800084aa x28:0x00002e2f PA:0x8000846f
        1155000	       114	800001a8	03bec983	lbu	x19,59(x29)	 x29:0x800084aa x19=0x0000009e PA:0x800084e5
        1165000	       115	800001ac	002e9883	lh	x17,2(x29)	 x29:0x800084aa x17=0x00006667 PA:0x800084ac
        1175000	       116	800001b0	027ec383	lbu	x7,39(x29)	 x29:0x800084aa  x7=0x0000008a PA:0x800084d1
        1185000	       117	800001b4	004fb3b3	sltu	x7,x31,x4	 x31:0x00000000  x4:0x00000097  x7=0x00000001
        1195000	       118	800001b8	e9f93913	sltiu	x18,x18,-353	 x18:0xf49f9f58 x18=0x00000001
        1205000	       119	800001bc	59138d93	addi	x27,x7,1425	  x7:0x00000001 x27=0x00000592
        1215000	       120	800001c0	4104d7b3	sra	x15,x9,x16	  x9:0x00000002 x16:0x80009fc4 x15=0x00000000
        1225000	       121	800001c4	fd3ecb03	lbu	x22,-45(x29)	 x29:0x800084aa x22=0x00000036 PA:0x8000847d
        1235000	       122	800001c8	753da013	slti	x0,x27,1875	 x27:0x00000592
        1245000	       123	800001cc	fe7e9123	sh	x7,-30(x29)	 x29:0x800084aa  x7:0x00000001 PA:0x8000848c
        1255000	       124	800001d0	027eab23	sw	x7,54(x29)	 x29:0x800084aa  x7:0x00000001 PA:0x800084e0
        1265000	       125	800001d4	fe7e8283	lb	x5,-25(x29)	 x29:0x800084aa  x5=0x0000004a PA:0x80008491
        1275000	       126	800001d8	013e8583	lb	x11,19(x29)	 x29:0x800084aa x11=0x00000076 PA:0x800084bd
        1285000	       127	800001dc	fcee8923	sb	x14,-46(x29)	 x29:0x800084aa x14:0x8000826b PA:0x8000847c
        1295000	       128	800001e0	3a0a0f97	auipc	x31,0x3a0a0	 x31=0xba0a01dc
        1305000	       129	800001e4	fc5e8003	lb	x0,-59(x29)	 x29:0x800084aa PA:0x8000846f
        1315000	       130	800001e8	ffbec983	lbu	x19,-5(x29)	 x29:0x800084aa x19=0x0000005e PA:0x800084a5
        1325000	       131	800001ec	01404533	xor	x10,x0,x20	  x0:0x00000000 x20:0x00000059 x10=0x00000059
        1335000	       132	800001f0	41785d93	srai	x27,x16,0x17	 x16:0x80009fc4 x27=0xffffff00
        1345000	       133	800001f4	fe6eaf23	sw	x6,-2(x29)	 x29:0x800084aa  x6:0x000000ba PA:0x800084a8
        1355000	       134	800001f8	fcbec103	lbu	x2,-53(x29)	 x29:0x800084aa  x2=0x0000002e PA:0x80008475
        1365000	       135	800001fc	ff0ecf03	lbu	x30,-16(x29)	 x29:0x800084aa x30=0x00000051 PA:0x8000849a
        1375000	       136	80000200	9800e713	ori	x14,x1,-1664	  x1:0x00004a4b x14=0xfffffbcb
        1385000	       137	80000204	40280933	sub	x18,x16,x2	 x16:0x80009fc4  x2:0x0000002e x18=0x80009f96
        1395000	       138	80000208	01ab77b3	and	x15,x22,x26	 x22:0x00000036 x26:0x80000000 x15=0x00000000
        1405000	       139	8000020c	08b43393	sltiu	x7,x8,139	  x8:0x80009f84  x7=0x00000000
        1415000	       140	80000210	168c6b93	ori	x23,x24,360	 x24:0x8000851a x23=0x8000857a
        1425000	       141	80000214	08f37463	bgeu	x6,x15,8000029c	  x6:0x000000ba x15:0x00000000
        1435000	       142	00000000	00000013	addi	x0,x0,0	  x0:0x00000000
        1445000	       143	80000298	00000013	addi	x0,x0,0	  x0:0x00000000
        1455000	       144	8000029c	00000013	addi	x0,x0,0	  x0:0x00000000
        1465000	       145	800002a0	f7ce4b93	xori	x23,x28,-132	 x28:0x00002e2f x23=0xffffd153
        1475000	       146	800002a4	4130e113	ori	x2,x1,1043	  x1:0x00004a4b  x2=0x00004e5b
        1485000	       147	800002a8	40a35233	sra	x4,x6,x10	  x6:0x000000ba x10:0x00000059  x4=0x00000000
        1495000	       148	800002ac	21fc4a13	xori	x20,x24,543	 x24:0x8000851a x20=0x80008705
        1505000	       149	800002b0	bdd9cf93	xori	x31,x19,-1059	 x19:0x0000005e x31=0xfffffb83
        1515000	       150	800002b4	a00e2793	slti	x15,x28,-1536	 x28:0x00002e2f x15=0x00000000
        1525000	       151	800002b8	00001897	auipc	x17,0x1	 x17=0x800012b4
        1535000	       152	800002bc	06088893	addi	x17,x17,96	 x17:0x800012b4 x17=0x80001314
        1545000	       153	800002c0	fbbac113	xori	x2,x21,-69	 x21:0xfffffff2  x2=0x00000049
        1555000	       154	800002c4	d89cc193	xori	x3,x25,-631	 x25:0x00000027  x3=0xfffffdae
        1565000	       155	800002c8	16888893	addi	x17,x17,360	 x17:0x80001314 x17=0x8000147c
        1575000	       156	800002cc	01c3dd33	srl	x26,x7,x28	  x7:0x00000000 x28:0x00002e2f x26=0x00000000
        1585000	       157	800002d0	e9988367	jalr	x6,x17,-359	 x17:0x8000147c  x6=0x800002d0
        1595000	       158	00000000	00000013	addi	x0,x0,0	  x0:0x00000000
        1605000	       159	80001314	00000013	addi	x0,x0,0	  x0:0x00000000
        1615000	       160	80001318	cc447893	andi	x17,x8,-828	  x8:0x80009f84 x17=0x80009c84
        1625000	       161	8000131c	6f9c8093	addi	x1,x25,1785	 x25:0x00000027  x1=0x00000720
        1635000	       162	80001320	0069d2b3	srl	x5,x19,x6	 x19:0x0000005e  x6:0x800002d0  x5=0x00000000
        1645000	       163	80001324	4415ab93	slti	x23,x11,1089	 x11:0x00000076 x23=0x00000001
        1655000	       164	80001328	00c91bb3	sll	x23,x18,x12	 x18:0x80009f96 x12:0xffc2bc99 x23=0x2c000000
        1665000	       165	8000132c	009dd263	bge	x27,x9,80001330	 x27:0xffffff00  x9:0x00000002
        1675000	       166	80001330	fe840413	addi	x8,x8,-24	  x8:0x80009f84  x8=0x80009f6c
        1685000	       167	80001334	5a06af13	slti	x30,x13,1440	 x13:0x0000007c x30=0x00000001
        1695000	       168	80001338	00642223	sw	x6,4(x8)	  x8:0x80009f6c  x6:0x800002d0 PA:0x80009f70
        1705000	       169	8000133c	b190f7b7	lui	x15,0xb190f	 x15=0xb190f000
        1715000	       170	80001340	018df5b3	and	x11,x27,x24	 x27:0xffffff00 x24:0x8000851a x11=0x80008500
        1725000	       171	80001344	008d66b3	or	x13,x26,x8	 x26:0x00000000  x8:0x80009f6c x13=0x80009f6c
        1735000	       172	80001348	fffffb97	auipc	x23,0xfffff	 x23=0x80000344
        1745000	       173	8000134c	174b8b93	addi	x23,x23,372	 x23:0x80000344 x23=0x800004b8
        1755000	       174	80001350	00000013	addi	x0,x0,0	  x0:0x00000000
        1765000	       175	80001354	1d0b8b93	addi	x23,x23,464	 x23:0x800004b8 x23=0x80000688
        1775000	       176	80001358	008a4b33	xor	x22,x20,x8	 x20:0x80008705  x8:0x80009f6c x22=0x00001869
        1785000	       177	8000135c	000ba733	slt	x14,x23,x0	 x23:0x80000688  x0:0x00000000 x14=0x00000001
        1795000	       178	80001360	90264313	xori	x6,x12,-1790	 x12:0xffc2bc99  x6=0x003d459b
        1805000	       179	80001364	00000013	addi	x0,x0,0	  x0:0x00000000
        1815000	       180	80001368	01baf033	and	x0,x21,x27	 x21:0xfffffff2 x27:0xffffff00
        1825000	       181	8000136c	01dff663	bgeu	x31,x29,80001378	 x31:0xfffffb83 x29:0x800084aa
        1835000	       182	00000000	00000013	addi	x0,x0,0	  x0:0x00000000
        1845000	       183	80001374	00000013	addi	x0,x0,0	  x0:0x00000000
        1855000	       184	80001378	e30b8367	jalr	x6,x23,-464	 x23:0x80000688  x6=0x80001378
        1865000	       185	00000000	00000013	addi	x0,x0,0	  x0:0x00000000
        1875000	       186	800004b8	00000013	addi	x0,x0,0	  x0:0x00000000
        1885000	       187	800004bc	ff840413	addi	x8,x8,-8	  x8:0x80009f6c  x8=0x80009f64
        1895000	       188	800004c0	0a941c17	auipc	x24,0xa941	 x24=0x8a9414bc
        1905000	       189	800004c4	00642223	sw	x6,4(x8)	  x8:0x80009f64  x6:0x80001378 PA:0x80009f68
        1915000	       190	800004c8	3a7b1b37	lui	x22,0x3a7b1	 x22=0x3a7b1000
        1925000	       191	800004cc	4071d4b3	sra	x9,x3,x7	  x3:0xfffffdae  x7:0x00000000  x9=0xfffffdae
        1935000	       192	800004d0	00008797	auipc	x15,0x8	 x15=0x800084cc
        1945000	       193	800004d4	d2578793	addi	x15,x15,-731	 x15:0x800084cc x15=0x800081f1
        1955000	       194	800004d8	00f7d583	lhu	x11,15(x15)	 x15:0x800081f1 x11=0x0000babb PA:0x80008200
        1965000	       195	800004dc	00f7a083	lw	x1,15(x15)	 x15:0x800081f1  x1=0xb8b9babb PA:0x80008200
        1975000	       196	800004e0	00f7aa03	lw	x20,15(x15)	 x15:0x800081f1 x20=0xb8b9babb PA:0x80008200
        1985000	       197	800004e4	00f7cc83	lbu	x25,15(x15)	 x15:0x800081f1 x25=0x000000bb PA:0x80008200
        1995000	       198	800004e8	00b797a3	sh	x11,15(x15)	 x15:0x800081f1 x11:0x0000babb PA:0x80008200
        2005000	       199	800004ec	002787a3	sb	x2,15(x15)	 x15:0x800081f1  x2:0x00000049 PA:0x80008200
        2015000	       200	800004f0	00f7cd83	lbu	x27,15(x15)	 x15:0x800081f1 x27=0x00000049 PA:0x80008200
        2025000	       201	800004f4	00f7dd83	lhu	x27,15(x15)	 x15:0x800081f1 x27=0x0000ba49 PA:0x80008200
        2035000	       202	800004f8	00f7d483	lhu	x9,15(x15)	 x15:0x800081f1  x9=0x0000ba49 PA:0x80008200
        2045000	       203	800004fc	00f7d383	lhu	x7,15(x15)	 x15:0x800081f1  x7=0x0000ba49 PA:0x80008200
        2055000	       204	80000500	0177a7a3	sw	x23,15(x15)	 x15:0x800081f1 x23:0x80000688 PA:0x80008200
        2065000	       205	80000504	00000013	addi	x0,x0,0	  x0:0x00000000
        2075000	       206	80000508	00f79883	lh	x17,15(x15)	 x15:0x800081f1 x17=0x00000688 PA:0x80008200
        2085000	       207	8000050c	00f78203	lb	x4,15(x15)	 x15:0x800081f1  x4=0xffffff88 PA:0x80008200
        2095000	       208	80000510	3fa9b213	sltiu	x4,x19,1018	 x19:0x0000005e  x4=0x00000001
        2105000	       209	80000514	001787a3	sb	x1,15(x15)	 x15:0x800081f1  x1:0xb8b9babb PA:0x80008200
        2115000	       210	80000518	007797a3	sh	x7,15(x15)	 x15:0x800081f1  x7:0x0000ba49 PA:0x80008200
        2125000	       211	8000051c	00008117	auipc	x2,0x8	  x2=0x80008518
        2135000	       212	80000520	35010113	addi	x2,x2,848	  x2:0x80008518  x2=0x80008868
        2145000	       213	80000524	ffd14d83	lbu	x27,-3(x2)	  x2:0x80008868 x27=0x0000004e PA:0x80008865
        2155000	       214	80000528	ff310283	lb	x5,-13(x2)	  x2:0x80008868  x5=0x00000040 PA:0x8000885b
        2165000	       215	8000052c	013101a3	sb	x19,3(x2)	  x2:0x80008868 x19:0x0000005e PA:0x8000886b
        2175000	       216	80000530	005d5093	srli	x1,x26,0x5	 x26:0x00000000  x1=0x00000000
        2185000	       217	80000534	01090cb3	add	x25,x18,x16	 x18:0x80009f96 x16:0x80009fc4 x25=0x00013f5a
        2195000	       218	80000538	ff710683	lb	x13,-9(x2)	  x2:0x80008868 x13=0x00000044 PA:0x8000885f
        2205000	       219	8000053c	ff910ba3	sb	x25,-9(x2)	  x2:0x80008868 x25:0x00013f5a PA:0x8000885f
        2215000	       220	80000540	ff010c23	sb	x16,-8(x2)	  x2:0x80008868 x16:0x80009fc4 PA:0x80008860
        2225000	       221	80000544	ff811683	lh	x13,-8(x2)	  x2:0x80008868 x13=0x00004ac4 PA:0x80008860
        2235000	       222	80000548	ff711c23	sh	x23,-8(x2)	  x2:0x80008868 x23:0x80000688 PA:0x80008860
        2245000	       223	8000054c	ff811e83	lh	x29,-8(x2)	  x2:0x80008868 x29=0x00000688 PA:0x80008860
        2255000	       224	80000550	1b94eb93	ori	x23,x9,441	  x9:0x0000ba49 x23=0x0000bbf9
        2265000	       225	80000554	00d14e03	lbu	x28,13(x2)	  x2:0x80008868 x28=0x0000005e PA:0x80008875
        2275000	       226	80000558	00008c17	auipc	x24,0x8	 x24=0x80008554
        2285000	       227	8000055c	7dac0c13	addi	x24,x24,2010	 x24:0x80008554 x24=0x80008d2e
        2295000	       228	80000560	be7c3d13	sltiu	x26,x24,-1049	 x24:0x80008d2e x26=0x00000001
        2305000	       229	80000564	fb9c0f03	lb	x30,-71(x24)	 x24:0x80008d2e x30=0xffffffcc PA:0x80008ce7
        2315000	       230	80000568	00fc0203	lb	x4,15(x24)	 x24:0x80008d2e  x4=0x00000026 PA:0x80008d3d
        2325000	       231	8000056c	00fc0203	lb	x4,15(x24)	 x24:0x80008d2e  x4=0x00000026 PA:0x80008d3d
        2335000	       232	80000570	018b90b3	sll	x1,x23,x24	 x23:0x0000bbf9 x24:0x80008d2e  x1=0x2efe4000
        2345000	       233	80000574	06fc0883	lb	x17,111(x24)	 x24:0x80008d2e x17=0xffffff86 PA:0x80008d9d
        2355000	       234	80000578	00000013	addi	x0,x0,0	  x0:0x00000000
        2365000	       235	8000057c	00f2dd93	srli	x27,x5,0xf	  x5:0x00000040 x27=0x00000000
        2375000	       236	80000580	0e4c0d83	lb	x27,228(x24)	 x24:0x80008d2e x27=0xfffffff9 PA:0x80008e12
        2385000	       237	80000584	00000013	addi	x0,x0,0	  x0:0x00000000
        2395000	       238	80000588	0cec1703	lh	x14,206(x24)	 x24:0x80008d2e x14=0xffffe6e7 PA:0x80008dfc
        2405000	       239	8000058c	f69c4303	lbu	x6,-151(x24)	 x24:0x80008d2e  x6=0x0000007c PA:0x80008c97
        2415000	       240	80000590	f69c4003	lbu	x0,-151(x24)	 x24:0x80008d2e PA:0x80008c97
        2425000	       241	80000594	f66c04a3	sb	x6,-151(x24)	 x24:0x80008d2e  x6:0x0000007c PA:0x80008c97
        2435000	       242	80000598	f30c1483	lh	x9,-208(x24)	 x24:0x80008d2e  x9=0x00004445 PA:0x80008c5e
        2445000	       243	8000059c	f27c0823	sb	x7,-208(x24)	 x24:0x80008d2e  x7:0x0000ba49 PA:0x80008c5e
        2455000	       244	800005a0	8dfa4c93	xori	x25,x20,-1825	 x20:0xb8b9babb x25=0x47464264
        2465000	       245	800005a4	051c0223	sb	x17,68(x24)	 x24:0x80008d2e x17:0xffffff86 PA:0x80008d72
        2475000	       246	800005a8	04cc0ea3	sb	x12,93(x24)	 x24:0x80008d2e x12:0xffc2bc99 PA:0x80008d8b
        2485000	       247	800005ac	05dc0b03	lb	x22,93(x24)	 x24:0x80008d2e x22=0xffffff99 PA:0x80008d8b
        2495000	       248	800005b0	00008a17	auipc	x20,0x8	 x20=0x800085ac
        2505000	       249	800005b4	410a0a13	addi	x20,x20,1040	 x20:0x800085ac x20=0x800089bc
        2515000	       250	800005b8	00008997	auipc	x19,0x8	 x19=0x800085b4
        2525000	       251	800005bc	2a798993	addi	x19,x19,679	 x19:0x800085b4 x19=0x8000885b
        2535000	       252	800005c0	00008917	auipc	x18,0x8	 x18=0x800085bc
        2545000	       253	800005c4	3a290913	addi	x18,x18,930	 x18:0x800085bc x18=0x8000895e
        2555000	       254	800005c8	0319df03	lhu	x30,49(x19)	 x19:0x8000885b x30=0x00007677 PA:0x8000888c
        2565000	       255	800005cc	f97a4483	lbu	x9,-105(x20)	 x20:0x800089bc  x9=0x00000038 PA:0x80008953
        2575000	       256	800005d0	f50a1683	lh	x13,-176(x20)	 x20:0x800089bc x13=0xfffff6f7 PA:0x8000890c
        2585000	       257	800005d4	0e298e03	lb	x28,226(x19)	 x19:0x8000885b x28=0x00000026 PA:0x8000893d
        2595000	       258	800005d8	05ba0083	lb	x1,91(x20)	 x20:0x800089bc  x1=0xfffffffc PA:0x80008a17
        2605000	       259	800005dc	ff39d083	lhu	x1,-13(x19)	 x19:0x8000885b  x1=0x00003435 PA:0x8000884e
        2615000	       260	800005e0	0d49cc83	lbu	x25,212(x19)	 x19:0x8000885b x25=0x00000014 PA:0x8000892f
        2625000	       261	800005e4	01a92123	sw	x26,2(x18)	 x18:0x8000895e x26:0x00000001 PA:0x80008960
        2635000	       262	800005e8	0dba06a3	sb	x27,205(x20)	 x20:0x800089bc x27:0xfffffff9 PA:0x80008a89
        2645000	       263	800005ec	fd59cd83	lbu	x27,-43(x19)	 x19:0x8000885b x27=0x0000001b PA:0x80008830
        2655000	       264	00000000	00000013	addi	x0,x0,0	  x0:0x00000000
        2665000	       265	800005f0	f1ba0f03	lb	x30,-229(x20)	 x20:0x800089bc x30=0xffffffbc PA:0x800088d7
        2675000	       266	800005f4	0e2a5183	lhu	x3,226(x20)	 x20:0x800089bc  x3=0x00008485 PA:0x80008a9e
        2685000	       267	800005f8	0ff98723	sb	x31,238(x19)	 x19:0x8000885b x31:0xfffffb83 PA:0x80008949
        2695000	       268	800005fc	0309c883	lbu	x17,48(x19)	 x19:0x8000885b x17=0x00000070 PA:0x8000888b
        2705000	       269	80000600	ff3909a3	sb	x19,-13(x18)	 x18:0x8000895e x19:0x8000885b PA:0x80008951
        2715000	       270	80000604	08f99703	lh	x14,143(x19)	 x19:0x8000885b x14=0xffffd0d1 PA:0x800088ea
        2725000	       271	80000608	00d94d03	lbu	x26,13(x18)	 x18:0x8000895e x26=0x00000050 PA:0x8000896b
        2735000	       272	8000060c	00a94783	lbu	x15,10(x18)	 x18:0x8000895e x15=0x00000053 PA:0x80008968
        2745000	       273	80000610	0b4a2023	sw	x20,160(x20)	 x20:0x800089bc x20:0x800089bc PA:0x80008a5c
        2755000	       274	80000614	0639d383	lhu	x7,99(x19)	 x19:0x8000885b  x7=0x0000a4a5 PA:0x800088be
        2765000	       275	80000618	02fa0b03	lb	x22,47(x20)	 x20:0x800089bc x22=0xffffffd0 PA:0x800089eb
        2775000	       276	8000061c	fe7a0183	lb	x3,-25(x20)	 x20:0x800089bc  x3=0xffffff88 PA:0x800089a3
        2785000	       277	80000620	00690483	lb	x9,6(x18)	 x18:0x8000895e  x9=0x0000004f PA:0x80008964
        2795000	       278	80000624	ff1a4e83	lbu	x29,-15(x20)	 x20:0x800089bc x29=0x00000096 PA:0x800089ad
        2805000	       279	00000000	00000013	addi	x0,x0,0	  x0:0x00000000
        2815000	       280	80000628	0dd98a23	sb	x29,212(x19)	 x19:0x8000885b x29:0x00000096 PA:0x8000892f
        2825000	       281	8000062c	00790d83	lb	x27,7(x18)	 x18:0x8000895e x27=0x0000004e PA:0x80008965
        2835000	       282	80000630	00009097	auipc	x1,0x9	  x1=0x8000962c
        2845000	       283	80000634	97508093	addi	x1,x1,-1675	  x1:0x8000962c  x1=0x80008fa1
        2855000	       284	80000638	f1808da3	sb	x24,-229(x1)	  x1:0x80008fa1 x24:0x80008d2e PA:0x80008ebc
        2865000	       285	8000063c	402655b3	sra	x11,x12,x2	 x12:0xffc2bc99  x2:0x80008868 x11=0xffffc2bc
        2875000	       286	80000640	00afd293	srli	x5,x31,0xa	 x31:0xfffffb83  x5=0x003ffffe
        2885000	       287	80000644	01659993	slli	x19,x11,0x16	 x11:0xffffc2bc x19=0xaf000000
        2895000	       288	80000648	40b4d333	sra	x6,x9,x11	  x9:0x0000004f x11:0xffffc2bc  x6=0x00000000
        2905000	       289	8000064c	023086a3	sb	x3,45(x1)	  x1:0x80008fa1  x3:0xffffff88 PA:0x80008fce
        2915000	       290	80000650	f7a08923	sb	x26,-142(x1)	  x1:0x80008fa1 x26:0x00000050 PA:0x80008f13
        2925000	       291	80000654	f0a08323	sb	x10,-250(x1)	  x1:0x80008fa1 x10:0x00000059 PA:0x80008ea7
        2935000	       292	80000658	f8f0a903	lw	x18,-113(x1)	  x1:0x80008fa1 x18=0x18191a1b PA:0x80008f30
        2945000	       293	8000065c	9af58c93	addi	x25,x11,-1617	 x11:0xffffc2bc x25=0xffffbc6b
        2955000	       294	80000660	91493b93	sltiu	x23,x18,-1772	 x18:0x18191a1b x23=0x00000001
        2965000	       295	80000664	6ae02913	slti	x18,x0,1710	  x0:0x00000000 x18=0x00000001
        2975000	       296	80000668	fc40c703	lbu	x14,-60(x1)	  x1:0x80008fa1 x14=0x0000004e PA:0x80008f65
        2985000	       297	8000066c	00dd2e33	slt	x28,x26,x13	 x26:0x00000050 x13:0xfffff6f7 x28=0x00000000
        2995000	       298	80000670	f0a086a3	sb	x10,-243(x1)	  x1:0x80008fa1 x10:0x00000059 PA:0x80008eae
        3005000	       299	80000674	05f091a3	sh	x31,67(x1)	  x1:0x80008fa1 x31:0xfffffb83 PA:0x80008fe4
        3015000	       300	80000678	008e0bb3	add	x23,x28,x8	 x28:0x00000000  x8:0x80009f64 x23=0x80009f64
        3025000	       301	8000067c	00d08203	lb	x4,13(x1)	  x1:0x80008fa1  x4=0xffffff95 PA:0x80008fae
        3035000	       302	00000000	00000013	addi	x0,x0,0	  x0:0x00000000
        3045000	       303	80000680	fa4c9f97	auipc	x31,0xfa4c9	 x31=0x7a4c967c
        3055000	       304	80000684	f6108823	sb	x1,-144(x1)	  x1:0x80008fa1  x1:0x80008fa1 PA:0x80008f11
        3065000	       305	80000688	f4908583	lb	x11,-183(x1)	  x1:0x80008fa1 x11=0xffffffd1 PA:0x80008eea
        3075000	       306	8000068c	01ad6333	or	x6,x26,x26	 x26:0x00000050 x26:0x00000050  x6=0x00000050
        3085000	       307	80000690	f0908783	lb	x15,-247(x1)	  x1:0x80008fa1 x15=0xffffff91 PA:0x80008eaa
        3095000	       308	80000694	fdd08983	lb	x19,-35(x1)	  x1:0x80008fa1 x19=0x00000065 PA:0x80008f7e
        3105000	       309	80000698	f9808883	lb	x17,-104(x1)	  x1:0x80008fa1 x17=0x00000022 PA:0x80008f39
        3115000	       310	8000069c	f41080a3	sb	x1,-191(x1)	  x1:0x80008fa1  x1:0x80008fa1 PA:0x80008ee2
        3125000	       311	800006a0	4077d893	srai	x17,x15,0x7	 x15:0xffffff91 x17=0xffffffff
        3135000	       312	800006a4	41b6d733	sra	x14,x13,x27	 x13:0xfffff6f7 x27:0x0000004e x14=0xffffffff
        3145000	       313	800006a8	f2909e83	lh	x29,-215(x1)	  x1:0x80008fa1 x29=0xffffb0b1 PA:0x80008eca
        3155000	       314	800006ac	f2b0af83	lw	x31,-213(x1)	  x1:0x80008fa1 x31=0xb4b5b6b7 PA:0x80008ecc
        3165000	       315	800006b0	40440e33	sub	x28,x8,x4	  x8:0x80009f64  x4:0xffffff95 x28=0x80009fcf
        3175000	       316	800006b4	f7908aa3	sb	x25,-139(x1)	  x1:0x80008fa1 x25:0xffffbc6b PA:0x80008f16
        3185000	       317	800006b8	03808c03	lb	x24,56(x1)	  x1:0x80008fa1 x24=0xffffffc2 PA:0x80008fd9
        3195000	       318	800006bc	009a99b3	sll	x19,x21,x9	 x21:0xfffffff2  x9:0x0000004f x19=0xfff90000
        3205000	       319	800006c0	f4709303	lh	x6,-185(x1)	  x1:0x80008fa1  x6=0xffffd2d3 PA:0x80008ee8
        3215000	       320	800006c4	f0e092a3	sh	x14,-251(x1)	  x1:0x80008fa1 x14:0xffffffff PA:0x80008ea6
        3225000	       321	800006c8	00008197	auipc	x3,0x8	  x3=0x800086c4
        3235000	       322	800006cc	ea818193	addi	x3,x3,-344	  x3:0x800086c4  x3=0x8000856c
        3245000	       323	800006d0	00008997	auipc	x19,0x8	 x19=0x800086cc
        3255000	       324	800006d4	0c298993	addi	x19,x19,194	 x19:0x800086cc x19=0x8000878e
        3265000	       325	800006d8	00008c97	auipc	x25,0x8	 x25=0x800086d4
        3275000	       326	800006dc	fc2c8c93	addi	x25,x25,-62	 x25:0x800086d4 x25=0x80008696
        3285000	       327	800006e0	ff2c9b23	sh	x18,-10(x25)	 x25:0x80008696 x18:0x00000001 PA:0x8000868c
        3295000	       328	800006e4	00008217	auipc	x4,0x8	  x4=0x800086e0
        3305000	       329	800006e8	e7f20213	addi	x4,x4,-385	  x4:0x800086e0  x4=0x8000855f
        3315000	       330	800006ec	03d1a223	sw	x29,36(x3)	  x3:0x8000856c x29:0xffffb0b1 PA:0x80008590
        3325000	       331	800006f0	00ec80a3	sb	x14,1(x25)	 x25:0x80008696 x14:0xffffffff PA:0x80008697
        3335000	       332	800006f4	00008c17	auipc	x24,0x8	 x24=0x800086f0
        3345000	       333	800006f8	983c0c13	addi	x24,x24,-1661	 x24:0x800086f0 x24=0x80008073
        3355000	       334	800006fc	471c2903	lw	x18,1137(x24)	 x24:0x80008073 x18=0x9c9d9e9f PA:0x800084e4
        3365000	       335	80000700	0031cd83	lbu	x27,3(x3)	  x3:0x8000856c x27=0x00000024 PA:0x8000856f
        3375000	       336	80000704	ff098823	sb	x16,-16(x19)	 x19:0x8000878e x16:0x80009fc4 PA:0x8000877e
        3385000	       337	80000708	00f98883	lb	x17,15(x19)	 x19:0x8000878e x17=0x00000056 PA:0x8000879d
        3395000	       338	8000070c	006caa83	lw	x21,6(x25)	 x25:0x80008696 x21=0x54555657 PA:0x8000869c
        3405000	       339	80000710	f6121fa3	sh	x1,-129(x4)	  x4:0x8000855f  x1:0x80008fa1 PA:0x800084de
        3415000	       340	80000714	febc8fa3	sb	x11,-1(x25)	 x25:0x80008696 x11:0xffffffd1 PA:0x80008695
        3425000	       341	80000718	00d18e03	lb	x28,13(x3)	  x3:0x8000856c x28=0x00000032 PA:0x80008579
        3435000	       342	8000071c	07325383	lhu	x7,115(x4)	  x4:0x8000855f  x7=0x00008889 PA:0x800085d2
        3445000	       343	80000720	635c1083	lh	x1,1589(x24)	 x24:0x80008073  x1=0x00006263 PA:0x800086a8
        3455000	       344	80000724	ff3ccd83	lbu	x27,-13(x25)	 x25:0x80008696 x27=0x00000042 PA:0x80008689
        3465000	       345	80000728	3c1c5903	lhu	x18,961(x24)	 x24:0x80008073 x18=0x0000eeef PA:0x80008434
        3475000	       346	8000072c	ffd98083	lb	x1,-3(x19)	 x19:0x8000878e  x1=0x00000040 PA:0x8000878b
        3485000	       347	80000730	0ad24303	lbu	x6,173(x4)	  x4:0x8000855f  x6=0x000000c7 PA:0x8000860c
        3495000	       348	80000734	02118b03	lb	x22,33(x3)	  x3:0x8000856c x22=0x00000046 PA:0x8000858d
        3505000	       349	80000738	190c4783	lbu	x15,400(x24)	 x24:0x80008073 x15=0x00000080 PA:0x80008203
        3515000	       350	8000073c	ff4ccd03	lbu	x26,-12(x25)	 x25:0x80008696 x26=0x00000041 PA:0x8000868a
        3525000	       351	80000740	f8122d03	lw	x26,-127(x4)	  x4:0x8000855f x26=0x00000001 PA:0x800084e0
        3535000	       352	80000744	f7324b03	lbu	x22,-141(x4)	  x4:0x8000855f x22=0x00000089 PA:0x800084d2
        3545000	       353	80000748	695c17a3	sh	x21,1679(x24)	 x24:0x80008073 x21:0x54555657 PA:0x80008702
        3555000	       354	8000074c	02019423	sh	x0,40(x3)	  x3:0x8000856c  x0:0x00000000 PA:0x80008594
        3565000	       355	80000750	520c0f23	sb	x0,1342(x24)	 x24:0x80008073  x0:0x00000000 PA:0x800085b1
        3575000	       356	80000754	086c0283	lb	x5,134(x24)	 x24:0x80008073  x5=0xffffffb2 PA:0x800080f9
        3585000	       357	80000758	02718223	sb	x7,36(x3)	  x3:0x8000856c  x7:0x00008889 PA:0x80008590
        3595000	       358	8000075c	f7d20b83	lb	x23,-131(x4)	  x4:0x8000855f x23=0xffffff97 PA:0x800084dc
        3605000	       359	80000760	0069dd83	lhu	x27,6(x19)	 x19:0x8000878e x27=0x00004e4f PA:0x80008794
        3615000	       360	80000764	00dc8383	lb	x7,13(x25)	 x25:0x80008696  x7=0x00000058 PA:0x800086a3
        3625000	       361	80000768	ff4cdf03	lhu	x30,-12(x25)	 x25:0x80008696 x30=0x00004041 PA:0x8000868a
        3635000	       362	8000076c	fcb181a3	sb	x11,-61(x3)	  x3:0x8000856c x11:0xffffffd1 PA:0x8000852f
        3645000	       363	80000770	0a420703	lb	x14,164(x4)	  x4:0x8000855f x14=0xffffffb8 PA:0x80008603
        3655000	       364	80000774	553c4383	lbu	x7,1363(x24)	 x24:0x80008073  x7=0x0000007d PA:0x800085c6
        3665000	       365	80000778	734c0783	lb	x15,1844(x24)	 x24:0x80008073 x15=0x0000005c PA:0x800087a7
        3675000	       366	8000077c	06320a23	sb	x3,116(x4)	  x4:0x8000855f  x3:0x8000856c PA:0x800085d3
        3685000	       367	80000780	ff91cb83	lbu	x23,-7(x3)	  x3:0x8000856c x23=0x0000001e PA:0x80008565
        3695000	       368	80000784	ffd9ca03	lbu	x20,-3(x19)	 x19:0x8000878e x20=0x00000040 PA:0x8000878b
        3705000	       369	80000788	00008d17	auipc	x26,0x8	 x26=0x80008784
        3715000	       370	8000078c	700d0d13	addi	x26,x26,1792	 x26:0x80008784 x26=0x80008e84
        3725000	       371	80000790	ff8d2883	lw	x17,-8(x26)	 x26:0x80008e84 x17=0x64656667 PA:0x80008e7c
        3735000	       372	80000794	00008c97	auipc	x25,0x8	 x25=0x80008790
        3745000	       373	80000798	3c1c8c93	addi	x25,x25,961	 x25:0x80008790 x25=0x80008b51
        3755000	       374	8000079c	00008b97	auipc	x23,0x8	 x23=0x80008798
        3765000	       375	800007a0	3bcb8b93	addi	x23,x23,956	 x23:0x80008798 x23=0x80008b54
        3775000	       376	800007a4	00008697	auipc	x13,0x8	 x13=0x800087a0
        3785000	       377	800007a8	43968693	addi	x13,x13,1081	 x13:0x800087a0 x13=0x80008bd9
        3795000	       378	800007ac	00ad0483	lb	x9,10(x26)	 x26:0x80008e84  x9=0x00000075 PA:0x80008e8e
        3805000	       379	800007b0	0bbbc703	lbu	x14,187(x23)	 x23:0x80008b54 x14=0x000000f4 PA:0x80008c0f
        3815000	       380	800007b4	311b8d23	sb	x17,794(x23)	 x23:0x80008b54 x17:0x64656667 PA:0x80008e6e
        3825000	       381	800007b8	0296d883	lhu	x17,41(x13)	 x13:0x80008bd9 x17=0x0000e8e9 PA:0x80008c02
        3835000	       382	800007bc	febd0b23	sb	x11,-10(x26)	 x26:0x80008e84 x11:0xffffffd1 PA:0x80008e7a
        3845000	       383	800007c0	fdfca7a3	sw	x31,-49(x25)	 x25:0x80008b51 x31:0xb4b5b6b7 PA:0x80008b20
        3855000	       384	800007c4	01568903	lb	x18,21(x13)	 x13:0x80008bd9 x18=0xffffffd5 PA:0x80008bee
        3865000	       385	800007c8	1c8b87a3	sb	x8,463(x23)	 x23:0x80008b54  x8:0x80009f64 PA:0x80008d23
        3875000	       386	800007cc	021cda03	lhu	x20,33(x25)	 x25:0x80008b51 x20=0x00005859 PA:0x80008b72
        3885000	       387	800007d0	208bd783	lhu	x15,520(x23)	 x23:0x80008b54 x15=0x00004647 PA:0x80008d5c
        3895000	       388	800007d4	010d4983	lbu	x19,16(x26)	 x26:0x80008e84 x19=0x0000007f PA:0x80008e94
        3905000	       389	800007d8	00008117	auipc	x2,0x8	  x2=0x800087d4
        3915000	       390	800007dc	72b10113	addi	x2,x2,1835	  x2:0x800087d4  x2=0x80008eff
        3925000	       391	800007e0	fc7c9203	lh	x4,-57(x25)	 x25:0x80008b51  x4=0x00000203 PA:0x80008b18
        3935000	       392	800007e4	29db8903	lb	x18,669(x23)	 x23:0x80008b54 x18=0xffffffda PA:0x80008df1
        3945000	       393	800007e8	00614f83	lbu	x31,6(x2)	  x2:0x80008eff x31=0x000000ee PA:0x80008f05
        3955000	       394	800007ec	ff3c8983	lb	x19,-13(x25)	 x25:0x80008b51 x19=0x0000002f PA:0x80008b44
        3965000	       395	800007f0	016d1023	sh	x22,0(x26)	 x26:0x80008e84 x22:0x00000089 PA:0x80008e84
        3975000	       396	800007f4	ff414083	lbu	x1,-12(x2)	  x2:0x80008eff  x1=0x000000d8 PA:0x80008ef3
        3985000	       397	800007f8	fd168303	lb	x6,-47(x13)	 x13:0x80008bd9  x6=0xffffff91 PA:0x80008baa
        3995000	       398	800007fc	fe268923	sb	x2,-14(x13)	 x13:0x80008bd9  x2:0x80008eff PA:0x80008bcb
        4005000	       399	80000800	202bd503	lhu	x10,514(x23)	 x23:0x80008b54 x10=0x00003c3d PA:0x80008d56
        4015000	       400	00000000	00000013	addi	x0,x0,0	  x0:0x00000000
        4025000	       401	80000804	42abde83	lhu	x29,1066(x23)	 x23:0x80008b54 x29=0x00006465 PA:0x80008f7e
        4035000	       402	80000808	fc16dd83	lhu	x27,-63(x13)	 x13:0x80008bd9 x27=0x00008081 PA:0x80008b9a
        4045000	       403	8000080c	fc3c9183	lh	x3,-61(x25)	 x25:0x80008b51  x3=0xfffffeff PA:0x80008b14
        4055000	       404	80000810	ff8d5203	lhu	x4,-8(x26)	 x26:0x80008e84  x4=0x00006667 PA:0x80008e7c
        4065000	       405	80000814	000d06a3	sb	x0,13(x26)	 x26:0x80008e84  x0:0x00000000 PA:0x80008e91
        4075000	       406	80000818	ff410983	lb	x19,-12(x2)	  x2:0x80008eff x19=0xffffffd8 PA:0x80008ef3
        4085000	       407	8000081c	fe76af03	lw	x30,-25(x13)	 x13:0x80008bd9 x30=0xa8a9aaab PA:0x80008bc0
        4095000	       408	80000820	463bce03	lbu	x28,1123(x23)	 x23:0x80008b54 x28=0x0000009c PA:0x80008fb7
        4105000	       409	80000824	ffa10483	lb	x9,-6(x2)	  x2:0x80008eff  x9=0xffffffe2 PA:0x80008ef9
        4115000	       410	80000828	ffad0283	lb	x5,-6(x26)	 x26:0x80008e84  x5=0x00000065 PA:0x80008e7e
        4125000	       411	8000082c	06fb8ca3	sb	x15,121(x23)	 x23:0x80008b54 x15:0x00004647 PA:0x80008bcd
        4135000	       412	80000830	feb10a23	sb	x11,-12(x2)	  x2:0x80008eff x11:0xffffffd1 PA:0x80008ef3
        4145000	       413	80000834	fe9d0da3	sb	x9,-5(x26)	 x26:0x80008e84  x9:0xffffffe2 PA:0x80008e7f
        4155000	       414	80000838	017c8083	lb	x1,23(x25)	 x25:0x80008b51  x1=0x00000053 PA:0x80008b68
        4165000	       415	8000083c	012c8283	lb	x5,18(x25)	 x25:0x80008b51  x5=0x00000048 PA:0x80008b63
        4175000	       416	80000840	0b4b9d23	sh	x20,186(x23)	 x23:0x80008b54 x20:0x00005859 PA:0x80008c0e
        4185000	       417	80000844	0396cf03	lbu	x30,57(x13)	 x13:0x80008bd9 x30=0x000000f9 PA:0x80008c12
        4195000	       418	80000848	00e6c903	lbu	x18,14(x13)	 x13:0x80008bd9 x18=0x000000cc PA:0x80008be7
        4205000	       419	00000000	00000013	addi	x0,x0,0	  x0:0x00000000
        4215000	       420	8000084c	ff2d0ba3	sb	x18,-9(x26)	 x26:0x80008e84 x18:0x000000cc PA:0x80008e7b
        4225000	       421	80000850	00008d97	auipc	x27,0x8	 x27=0x8000884c
        4235000	       422	80000854	b0ad8d93	addi	x27,x27,-1270	 x27:0x8000884c x27=0x80008356
        4245000	       423	80000858	febd8d23	sb	x11,-6(x27)	 x27:0x80008356 x11:0xffffffd1 PA:0x80008350
        4255000	       424	8000085c	003d8223	sb	x3,4(x27)	 x27:0x80008356  x3:0xfffffeff PA:0x8000835a
        4265000	       425	80000860	40ca83b3	sub	x7,x21,x12	 x21:0x54555657 x12:0xffc2bc99  x7=0x549299be
        4275000	       426	80000864	007d8483	lb	x9,7(x27)	 x27:0x80008356  x9=0x00000016 PA:0x8000835d
        4285000	       427	80000868	1b6207b7	lui	x15,0x1b620	 x15=0x1b620000
        4295000	       428	8000086c	cc5df213	andi	x4,x27,-827	 x27:0x80008356  x4=0x80008044
        4305000	       429	80000870	ffbd8823	sb	x27,-16(x27)	 x27:0x80008356 x27:0x80008356 PA:0x80008346
        4315000	       430	80000874	ff5d8983	lb	x19,-11(x27)	 x27:0x80008356 x19=0x00000000 PA:0x8000834b
        4325000	       431	80000878	008d9e83	lh	x29,8(x27)	 x27:0x80008356 x29=0x00001415 PA:0x8000835e
        4335000	       432	8000087c	01f46233	or	x4,x8,x31	  x8:0x80009f64 x31:0x000000ee  x4=0x80009fee
        4345000	       433	80000880	ff6dc503	lbu	x10,-10(x27)	 x27:0x80008356 x10=0x00000007 PA:0x8000834c
        4355000	       434	80000884	ff9d8683	lb	x13,-7(x27)	 x27:0x80008356 x13=0x00000004 PA:0x8000834f
        4365000	       435	80000888	40c1dab3	sra	x21,x3,x12	  x3:0xfffffeff x12:0xffc2bc99 x21=0xffffffff
        4375000	       436	8000088c	ff4d8e83	lb	x29,-12(x27)	 x27:0x80008356 x29=0x00000001 PA:0x8000834a
        4385000	       437	80000890	ff9d8903	lb	x18,-7(x27)	 x27:0x80008356 x18=0x00000004 PA:0x8000834f
        4395000	       438	80000894	00ddcf83	lbu	x31,13(x27)	 x27:0x80008356 x31=0x00000018 PA:0x80008363
        4405000	       439	00000000	00000013	addi	x0,x0,0	  x0:0x00000000
        4415000	       440	80000898	fffd8103	lb	x2,-1(x27)	 x27:0x80008356  x2=0x0000000e PA:0x80008355
        4425000	       441	8000089c	007dce83	lbu	x29,7(x27)	 x27:0x80008356 x29=0x00000016 PA:0x8000835d
        4435000	       442	800008a0	00795b13	srli	x22,x18,0x7	 x18:0x00000004 x22=0x00000000
        4445000	       443	800008a4	ff4d9983	lh	x19,-12(x27)	 x27:0x80008356 x19=0x00000001 PA:0x8000834a
        4455000	       444	800008a8	ff4dc903	lbu	x18,-12(x27)	 x27:0x80008356 x18=0x00000001 PA:0x8000834a
        4465000	       445	800008ac	fe6d8ea3	sb	x6,-3(x27)	 x27:0x80008356  x6:0xffffff91 PA:0x80008353
        4475000	       446	800008b0	00854ab3	xor	x21,x10,x8	 x10:0x00000007  x8:0x80009f64 x21=0x80009f63
        4485000	       447	800008b4	013da523	sw	x19,10(x27)	 x27:0x80008356 x19:0x00000001 PA:0x80008360
        4495000	       448	800008b8	016d9023	sh	x22,0(x27)	 x27:0x80008356 x22:0x00000000 PA:0x80008356
        4505000	       449	800008bc	ff2d8903	lb	x18,-14(x27)	 x27:0x80008356 x18=0x00000003 PA:0x80008348
        4515000	       450	800008c0	ff9dc303	lbu	x6,-7(x27)	 x27:0x80008356  x6=0x00000004 PA:0x8000834f
        4525000	       451	800008c4	ff6da383	lw	x7,-10(x27)	 x27:0x80008356  x7=0x04050607 PA:0x8000834c
        4535000	       452	800008c8	40005cb3	sra	x25,x0,x0	  x0:0x00000000  x0:0x00000000 x25=0x00000000
        4545000	       453	800008cc	6508af13	slti	x30,x17,1616	 x17:0x0000e8e9 x30=0x00000000
        4555000	       454	800008d0	009d8223	sb	x9,4(x27)	 x27:0x80008356  x9:0x00000016 PA:0x8000835a
        4565000	       455	800008d4	011d8623	sb	x17,12(x27)	 x27:0x80008356 x17:0x0000e8e9 PA:0x80008362
        4575000	       456	800008d8	c8b5e513	ori	x10,x11,-885	 x11:0xffffffd1 x10=0xffffffdb
        4585000	       457	800008dc	000923b3	slt	x7,x18,x0	 x18:0x00000003  x0:0x00000000  x7=0x00000000
        4595000	       458	800008e0	004dd303	lhu	x6,4(x27)	 x27:0x80008356  x6=0x00001016 PA:0x8000835a
        4605000	       459	800008e4	408cd3b3	sra	x7,x25,x8	 x25:0x00000000  x8:0x80009f64  x7=0x00000000
        4615000	       460	800008e8	010512b3	sll	x5,x10,x16	 x10:0xffffffdb x16:0x80009fc4  x5=0xfffffdb0
        4625000	       461	800008ec	00af5113	srli	x2,x30,0xa	 x30:0x00000000  x2=0x00000000
        4635000	       462	800008f0	00d44fb3	xor	x31,x8,x13	  x8:0x80009f64 x13:0x00000004 x31=0x80009f60
        4645000	       463	800008f4	00fdc303	lbu	x6,15(x27)	 x27:0x80008356  x6=0x0000001e PA:0x80008365
        4655000	       464	800008f8	00cd9b03	lh	x22,12(x27)	 x27:0x80008356 x22=0x000000e9 PA:0x80008362
        4665000	       465	800008fc	00008117	auipc	x2,0x8	  x2=0x800088f8
        4675000	       466	80000900	94110113	addi	x2,x2,-1727	  x2:0x800088f8  x2=0x80008239
        4685000	       467	80000904	fd814d03	lbu	x26,-40(x2)	  x2:0x80008239 x26=0x000000ca PA:0x80008211
        4695000	       468	80000908	0b510503	lb	x10,181(x2)	  x2:0x80008239 x10=0xffffffa5 PA:0x800082ee
        4705000	       469	8000090c	40cb5e33	sra	x28,x22,x12	 x22:0x000000e9 x12:0xffc2bc99 x28=0x00000000
        4715000	       470	80000910	00a10d33	add	x26,x2,x10	  x2:0x80008239 x10:0xffffffa5 x26=0x800081de
        4725000	       471	80000914	5cd24893	xori	x17,x4,1485	  x4:0x80009fee x17=0x80009a23
        4735000	       472	80000918	01a10b23	sb	x26,22(x2)	  x2:0x80008239 x26:0x800081de PA:0x8000824f
        4745000	       473	8000091c	f8111383	lh	x7,-127(x2)	  x2:0x80008239  x7=0x00007071 PA:0x800081ba
        4755000	       474	80000920	f2f12c03	lw	x24,-209(x2)	  x2:0x80008239 x24=0x20212223 PA:0x80008168
        4765000	       475	80000924	0199d593	srli	x11,x19,0x19	 x19:0x00000001 x11=0x00000000
        4775000	       476	80000928	f9e10703	lb	x14,-98(x2)	  x2:0x80008239 x14=0xffffff8c PA:0x800081d7
        4785000	       477	8000092c	01ae77b3	and	x15,x28,x26	 x28:0x00000000 x26:0x800081de x15=0x00000000
        4795000	       478	80000930	eec77fb7	lui	x31,0xeec77	 x31=0xeec77000
        4805000	       479	80000934	f58117a3	sh	x24,-177(x2)	  x2:0x80008239 x24:0x20212223 PA:0x80008188
        4815000	       480	80000938	50147193	andi	x3,x8,1281	  x8:0x80009f64  x3=0x00000500
        4825000	       481	8000093c	f5112fa3	sw	x17,-161(x2)	  x2:0x80008239 x17:0x80009a23 PA:0x80008198
        4835000	       482	80000940	00c10123	sb	x12,2(x2)	  x2:0x80008239 x12:0xffc2bc99 PA:0x8000823b
        4845000	       483	80000944	01d1a9b3	slt	x19,x3,x29	  x3:0x00000500 x29:0x00000016 x19=0x00000000
        4855000	       484	80000948	f5811fa3	sh	x24,-161(x2)	  x2:0x80008239 x24:0x20212223 PA:0x80008198
        4865000	       485	8000094c	060103a3	sb	x0,103(x2)	  x2:0x80008239  x0:0x00000000 PA:0x800082a0
        4875000	       486	80000950	006ae9b3	or	x19,x21,x6	 x21:0x80009f63  x6:0x0000001e x19=0x80009f7f
        4885000	       487	80000954	f1d10583	lb	x11,-227(x2)	  x2:0x80008239 x11=0x0000000d PA:0x80008156
        4895000	       488	00000000	00000013	addi	x0,x0,0	  x0:0x00000000
        4905000	       489	80000958	88bcbf17	auipc	x30,0x88bcb	 x30=0x08bcb954
        4915000	       490	8000095c	005b84b3	add	x9,x23,x5	 x23:0x80008b54  x5:0xfffffdb0  x9=0x80008904
        4925000	       491	80000960	006ac9b3	xor	x19,x21,x6	 x21:0x80009f63  x6:0x0000001e x19=0x80009f7d
        4935000	       492	80000964	07614583	lbu	x11,118(x2)	  x2:0x80008239 x11=0x00000064 PA:0x800082af
        4945000	       493	80000968	00000013	addi	x0,x0,0	  x0:0x00000000
        4955000	       494	8000096c	00c91213	slli	x4,x18,0xc	 x18:0x00000003  x4=0x00003000
        4965000	       495	80000970	07a10a23	sb	x26,116(x2)	  x2:0x80008239 x26:0x800081de PA:0x800082ad
        4975000	       496	80000974	f2014303	lbu	x6,-224(x2)	  x2:0x80008239  x6=0x00000012 PA:0x80008159
        4985000	       497	80000978	0147a5b3	slt	x11,x15,x20	 x15:0x00000000 x20:0x00005859 x11=0x00000001
        4995000	       498	8000097c	664b7793	andi	x15,x22,1636	 x22:0x000000e9 x15=0x00000060
        5005000	       499	80000980	01d911b3	sll	x3,x18,x29	 x18:0x00000003 x29:0x00000016  x3=0x00c00000
        5015000	       500	80000984	0de12da3	sw	x30,219(x2)	  x2:0x80008239 x30:0x08bcb954 PA:0x80008314
        5025000	       501	80000988	008c49b3	xor	x19,x24,x8	 x24:0x20212223  x8:0x80009f64 x19=0xa021bd47
        5035000	       502	8000098c	f3410a03	lb	x20,-204(x2)	  x2:0x80008239 x20=0x00000026 PA:0x8000816d
        5045000	       503	80000990	61b4fe13	andi	x28,x9,1563	  x9:0x80008904 x28=0x00000000
        5055000	       504	80000994	f183b293	sltiu	x5,x7,-232	  x7:0x00007071  x5=0x00000001
        5065000	       505	80000998	00539393	slli	x7,x7,0x5	  x7:0x00007071  x7=0x000e0e20
        5075000	       506	8000099c	006f7c33	and	x24,x30,x6	 x30:0x08bcb954  x6:0x00000012 x24=0x00000010
        5085000	       507	800009a0	00a14b03	lbu	x22,10(x2)	  x2:0x80008239 x22=0x000000f8 PA:0x80008243
        5095000	       508	800009a4	011dabb3	slt	x23,x27,x17	 x27:0x80008356 x17:0x80009a23 x23=0x00000001
        5105000	       509	800009a8	015edb33	srl	x22,x29,x21	 x29:0x00000016 x21:0x80009f63 x22=0x00000002
        5115000	       510	800009ac	b6056f13	ori	x30,x10,-1184	 x10:0xffffffa5 x30=0xffffffe5
        5125000	       511	800009b0	00e14903	lbu	x18,14(x2)	  x2:0x80008239 x18=0x000000fc PA:0x80008247
        5135000	       512	800009b4	1d8d7913	andi	x18,x26,472	 x26:0x800081de x18=0x000001d8
        5145000	       513	800009b8	fb910623	sb	x25,-84(x2)	  x2:0x80008239 x25:0x00000000 PA:0x800081e5
        5155000	       514	800009bc	40e18db3	sub	x27,x3,x14	  x3:0x00c00000 x14:0xffffff8c x27=0x00c00074
        5165000	       515	800009c0	f6b74513	xori	x10,x14,-149	 x14:0xffffff8c x10=0x000000e7
        5175000	       516	800009c4	f2b15983	lhu	x19,-213(x2)	  x2:0x80008239 x19=0x00001e1f PA:0x80008164
        5185000	       517	800009c8	00c84cb3	xor	x25,x16,x12	 x16:0x80009fc4 x12:0xffc2bc99 x25=0x7fc2235d
        5195000	       518	800009cc	03110423	sb	x17,40(x2)	  x2:0x80008239 x17:0x80009a23 PA:0x80008261
        5205000	       519	800009d0	bf90fa93	andi	x21,x1,-1031	  x1:0x00000053 x21=0x00000051
        5215000	       520	800009d4	f0714f83	lbu	x31,-249(x2)	  x2:0x80008239 x31=0x000000fb PA:0x80008140
        5225000	       521	800009d8	09a10283	lb	x5,154(x2)	  x2:0x80008239  x5=0xffffff88 PA:0x800082d3
        5235000	       522	800009dc	f78103a3	sb	x24,-153(x2)	  x2:0x80008239 x24:0x00000010 PA:0x800081a0
        5245000	       523	800009e0	02a10923	sb	x10,50(x2)	  x2:0x80008239 x10:0x000000e7 PA:0x8000826b
        5255000	       524	800009e4	00008597	auipc	x11,0x8	 x11=0x800089e0
        5265000	       525	800009e8	20a58593	addi	x11,x11,522	 x11:0x800089e0 x11=0x80008bea
        5275000	       526	800009ec	e975c703	lbu	x14,-361(x11)	 x11:0x80008bea x14=0x0000006a PA:0x80008a81
        5285000	       527	800009f0	e0b5c103	lbu	x2,-501(x11)	 x11:0x80008bea  x2=0x000000de PA:0x800089f5
        5295000	       528	800009f4	d795ce83	lbu	x29,-647(x11)	 x11:0x80008bea x29=0x00000000 PA:0x80008963
        5305000	       529	800009f8	2375c283	lbu	x5,567(x11)	 x11:0x80008bea  x5=0x0000000a PA:0x80008e21
        5315000	       530	800009fc	2b059903	lh	x18,688(x11)	 x11:0x80008bea x18=0xffff8081 PA:0x80008e9a
        5325000	       531	80000a00	d4adab93	slti	x23,x27,-694	 x27:0x00c00074 x23=0x00000000
        5335000	       532	80000a04	dd558703	lb	x14,-555(x11)	 x11:0x80008bea x14=0xffffffa4 PA:0x800089bf
        5345000	       533	80000a08	2c859a03	lh	x20,712(x11)	 x11:0x80008bea x20=0xffff9899 PA:0x80008eb2
        5355000	       534	80000a0c	00763533	sltu	x10,x12,x7	 x12:0xffc2bc99  x7:0x000e0e20 x10=0x00000000
        5365000	       535	80000a10	002d5e93	srli	x29,x26,0x2	 x26:0x800081de x29=0x20002077
        5375000	       536	80000a14	0182f033	and	x0,x5,x24	  x5:0x0000000a x24:0x00000010
        5385000	       537	80000a18	5ae75397	auipc	x7,0x5ae75	  x7=0xdae75a14
        5395000	       538	80000a1c	01200933	add	x18,x0,x18	  x0:0x00000000 x18:0xffff8081 x18=0xffff8081
        5405000	       539	80000a20	29b58e23	sb	x27,668(x11)	 x11:0x80008bea x27:0x00c00074 PA:0x80008e86
        5415000	       540	80000a24	00000013	addi	x0,x0,0	  x0:0x00000000
        5425000	       541	80000a28	01632cb3	slt	x25,x6,x22	  x6:0x00000012 x22:0x00000002 x25=0x00000000
        5435000	       542	80000a2c	34d2ca13	xori	x20,x5,845	  x5:0x0000000a x20=0x00000347
        5445000	       543	80000a30	01d7f533	and	x10,x15,x29	 x15:0x00000060 x29:0x20002077 x10=0x00000060
        5455000	       544	80000a34	c4d5ab23	sw	x13,-938(x11)	 x11:0x80008bea x13:0x00000004 PA:0x80008840
        5465000	       545	80000a38	dd75c503	lbu	x10,-553(x11)	 x11:0x80008bea x10=0x000000aa PA:0x800089c1
        5475000	       546	80000a3c	31cfe493	ori	x9,x31,796	 x31:0x000000fb  x9=0x000003ff
        5485000	       547	80000a40	2ea58fa3	sb	x10,767(x11)	 x11:0x80008bea x10:0x000000aa PA:0x80008ee9
        5495000	       548	80000a44	00008117	auipc	x2,0x8	  x2=0x80008a40
        5505000	       549	80000a48	c7f10113	addi	x2,x2,-897	  x2:0x80008a40  x2=0x800086bf
        5515000	       550	80000a4c	fb112183	lw	x3,-79(x2)	  x2:0x800086bf  x3=0x28292a2b PA:0x80008670
        5525000	       551	80000a50	fb112583	lw	x11,-79(x2)	  x2:0x800086bf x11=0x28292a2b PA:0x80008670
        5535000	       552	80000a54	f1414883	lbu	x17,-236(x2)	  x2:0x800086bf x17=0x0000006c PA:0x800085d3
        5545000	       553	80000a58	01c2c6b3	xor	x13,x5,x28	  x5:0x0000000a x28:0x00000000 x13=0x0000000a
        5555000	       554	80000a5c	f1a10a23	sb	x26,-236(x2)	  x2:0x800086bf x26:0x800081de PA:0x800085d3
        5565000	       555	80000a60	f1414303	lbu	x6,-236(x2)	  x2:0x800086bf  x6=0x000000de PA:0x800085d3
        5575000	       556	80000a64	f1410983	lb	x19,-236(x2)	  x2:0x800086bf x19=0xffffffde PA:0x800085d3
        5585000	       557	80000a68	41bc0b33	sub	x22,x24,x27	 x24:0x00000010 x27:0x00c00074 x22=0xff3fff9c
        5595000	       558	80000a6c	f3115a03	lhu	x20,-207(x2)	  x2:0x800086bf x20=0x0000aaab PA:0x800085f0
        5605000	       559	80000a70	f3110583	lb	x11,-207(x2)	  x2:0x800086bf x11=0xffffffab PA:0x800085f0
        5615000	       560	80000a74	f3111003	lh	x0,-207(x2)	  x2:0x800086bf PA:0x800085f0
        5625000	       561	80000a78	f3110483	lb	x9,-207(x2)	  x2:0x800086bf  x9=0xffffffab PA:0x800085f0
        5635000	       562	80000a7c	f23128a3	sw	x3,-207(x2)	  x2:0x800086bf  x3:0x28292a2b PA:0x800085f0
        5645000	       563	80000a80	f39128a3	sw	x25,-207(x2)	  x2:0x800086bf x25:0x00000000 PA:0x800085f0
        5655000	       564	80000a84	f25108a3	sb	x5,-207(x2)	  x2:0x800086bf  x5:0x0000000a PA:0x800085f0
        5665000	       565	80000a88	01395693	srli	x13,x18,0x13	 x18:0xffff8081 x13=0x00001fff
        5675000	       566	80000a8c	f3111483	lh	x9,-207(x2)	  x2:0x800086bf  x9=0x0000000a PA:0x800085f0
        5685000	       567	80000a90	f3110e03	lb	x28,-207(x2)	  x2:0x800086bf x28=0x0000000a PA:0x800085f0
        5695000	       568	80000a94	f3111083	lh	x1,-207(x2)	  x2:0x800086bf  x1=0x0000000a PA:0x800085f0
        5705000	       569	80000a98	f3111703	lh	x14,-207(x2)	  x2:0x800086bf x14=0x0000000a PA:0x800085f0
        5715000	       570	80000a9c	03618263	beq	x3,x22,80000ac0	  x3:0x28292a2b x22:0xff3fff9c
        5725000	       571	80000aa0	00995013	srli	x0,x18,0x9	 x18:0xffff8081
        5735000	       572	80000aa4	bacce713	ori	x14,x25,-1108	 x25:0x00000000 x14=0xfffffbac
        5745000	       573	80000aa8	bd460213	addi	x4,x12,-1068	 x12:0xffc2bc99  x4=0xffc2b86d
        5755000	       574	80000aac	02b21263	bne	x4,x11,80000ad0	  x4:0xffc2b86d x11:0xffffffab
        5765000	       575	00000000	00000013	addi	x0,x0,0	  x0:0x00000000
        5775000	       576	80000acc	00000013	addi	x0,x0,0	  x0:0x00000000
        5785000	       577	80000ad0	0ca71663	bne	x14,x10,80000b9c	 x14:0xfffffbac x10:0x000000aa
        5795000	       578	00000000	00000013	addi	x0,x0,0	  x0:0x00000000
        5805000	       579	80000b98	00000013	addi	x0,x0,0	  x0:0x00000000
        5815000	       580	80000b9c	425d8197	auipc	x3,0x425d8	  x3=0xc25d8b98
        5825000	       581	80000ba0	00d444b3	xor	x9,x8,x13	  x8:0x80009f64 x13:0x00001fff  x9=0x8000809b
        5835000	       582	80000ba4	00000013	addi	x0,x0,0	  x0:0x00000000
        5845000	       583	80000ba8	01771263	bne	x14,x23,80000bac	 x14:0xfffffbac x23:0x00000000
        5855000	       584	00000000	00000013	addi	x0,x0,0	  x0:0x00000000
        5865000	       585	80000ba8	00000013	addi	x0,x0,0	  x0:0x00000000
        5875000	       586	80000bac	00d6e663	bltu	x13,x13,80000bb8	 x13:0x00001fff x13:0x00001fff
        5885000	       587	80000bb0	03af7863	bgeu	x30,x26,80000be0	 x30:0xffffffe5 x26:0x800081de
        5895000	       588	00000000	00000013	addi	x0,x0,0	  x0:0x00000000
        5905000	       589	80000bdc	00000013	addi	x0,x0,0	  x0:0x00000000
        5915000	       590	80000be0	496bc037	lui	x0,0x496bc	
        5925000	       591	80000be4	4166d793	srai	x15,x13,0x16	 x13:0x00001fff x15=0x00000000
        5935000	       592	80000be8	01efe733	or	x14,x31,x30	 x31:0x000000fb x30:0xffffffe5 x14=0xffffffff
        5945000	       593	80000bec	84aace13	xori	x28,x21,-1974	 x21:0x00000051 x28=0xfffff81b
        5955000	       594	80000bf0	014c1933	sll	x18,x24,x20	 x24:0x00000010 x20:0x0000aaab x18=0x00008000
        5965000	       595	80000bf4	00372e33	slt	x28,x14,x3	 x14:0xffffffff  x3:0xc25d8b98 x28=0x00000000
        5975000	       596	80000bf8	0051fc63	bgeu	x3,x5,80000c10	  x3:0xc25d8b98  x5:0x0000000a
        5985000	       597	00000000	00000013	addi	x0,x0,0	  x0:0x00000000
        5995000	       598	80000c0c	00000013	addi	x0,x0,0	  x0:0x00000000
        6005000	       599	80000c10	03525e63	bge	x4,x21,80000c4c	  x4:0xffc2b86d x21:0x00000051
        6015000	       600	80000c14	e3902593	slti	x11,x0,-455	  x0:0x00000000 x11=0x00000000
        6025000	       601	80000c18	59a7ba37	lui	x20,0x59a7b	 x20=0x59a7b000
        6035000	       602	80000c1c	00356f33	or	x30,x10,x3	 x10:0x000000aa  x3:0xc25d8b98 x30=0xc25d8bba
        6045000	       603	80000c20	005d9e93	slli	x29,x27,0x5	 x27:0x00c00074 x29=0x18000e80
        6055000	       604	80000c24	006708b3	add	x17,x14,x6	 x14:0xffffffff  x6:0x000000de x17=0x000000dd
        6065000	       605	80000c28	5a657313	andi	x6,x10,1446	 x10:0x000000aa  x6=0x000000a2
        6075000	       606	80000c2c	2f430213	addi	x4,x6,756	  x6:0x000000a2  x4=0x00000396
        6085000	       607	80000c30	00000013	addi	x0,x0,0	  x0:0x00000000
        6095000	       608	80000c34	01bbc2b3	xor	x5,x23,x27	 x23:0x00000000 x27:0x00c00074  x5=0x00c00074
        6105000	       609	80000c38	00bf95b3	sll	x11,x31,x11	 x31:0x000000fb x11:0x00000000 x11=0x000000fb
        6115000	       610	80000c3c	00461f93	slli	x31,x12,0x4	 x12:0xffc2bc99 x31=0xfc2bc990
        6125000	       611	80000c40	04a37663	bgeu	x6,x10,80000c8c	  x6:0x000000a2 x10:0x000000aa
        6135000	       612	80000c44	03817a63	bgeu	x2,x24,80000c78	  x2:0x800086bf x24:0x00000010
        6145000	       613	00000000	00000013	addi	x0,x0,0	  x0:0x00000000
        6155000	       614	80000c74	00000013	addi	x0,x0,0	  x0:0x00000000
        6165000	       615	80000c78	01b7c233	xor	x4,x15,x27	 x15:0x00000000 x27:0x00c00074  x4=0x00c00074
        6175000	       616	80000c7c	2a55da17	auipc	x20,0x2a55d	 x20=0xaa55dc78
        6185000	       617	80000c80	7fdf3c93	sltiu	x25,x30,2045	 x30:0xc25d8bba x25=0x00000000
        6195000	       618	80000c84	01927733	and	x14,x4,x25	  x4:0x00c00074 x25:0x00000000 x14=0x00000000
        6205000	       619	80000c88	01d15a13	srli	x20,x2,0x1d	  x2:0x800086bf x20=0x00000004
        6215000	       620	80000c8c	00000013	addi	x0,x0,0	  x0:0x00000000
        6225000	       621	80000c90	009794b3	sll	x9,x15,x9	 x15:0x00000000  x9:0x8000809b  x9=0x00000000
        6235000	       622	80000c94	407c0eb3	sub	x29,x24,x7	 x24:0x00000010  x7:0xdae75a14 x29=0x2518a5fc
        6245000	       623	80000c98	40b70333	sub	x6,x14,x11	 x14:0x00000000 x11:0x000000fb  x6=0xffffff05
        6255000	       624	80000c9c	007d47b3	xor	x15,x26,x7	 x26:0x800081de  x7:0xdae75a14 x15=0x5ae7dbca
        6265000	       625	80000ca0	409201b3	sub	x3,x4,x9	  x4:0x00c00074  x9:0x00000000  x3=0x00c00074
        6275000	       626	80000ca4	0040ff33	and	x30,x1,x4	  x1:0x0000000a  x4:0x00c00074 x30=0x00000000
        6285000	       627	80000ca8	00fa6ab3	or	x21,x20,x15	 x20:0x00000004 x15:0x5ae7dbca x21=0x5ae7dbce
        6295000	       628	80000cac	02b0ce63	blt	x1,x11,80000ce8	  x1:0x0000000a x11:0x000000fb
        6305000	       629	00000000	00000013	addi	x0,x0,0	  x0:0x00000000
        6315000	       630	80000ce4	00000013	addi	x0,x0,0	  x0:0x00000000
        6325000	       631	80000ce8	01e63533	sltu	x10,x12,x30	 x12:0xffc2bc99 x30:0x00000000 x10=0x00000000
        6335000	       632	80000cec	007102b3	add	x5,x2,x7	  x2:0x800086bf  x7:0xdae75a14  x5=0x5ae7e0d3
        6345000	       633	80000cf0	84a86493	ori	x9,x16,-1974	 x16:0x80009fc4  x9=0xffffffce
        6355000	       634	80000cf4	00670463	beq	x14,x6,80000cfc	 x14:0x00000000  x6:0xffffff05
        6365000	       635	80000cf8	02ef5e63	bge	x30,x14,80000d34	 x30:0x00000000 x14:0x00000000
        6375000	       636	00000000	00000013	addi	x0,x0,0	  x0:0x00000000
        6385000	       637	80000d30	00000013	addi	x0,x0,0	  x0:0x00000000
        6395000	       638	80000d34	00131d13	slli	x26,x6,0x1	  x6:0xffffff05 x26=0xfffffe0a
        6405000	       639	80000d38	e4a7f113	andi	x2,x15,-438	 x15:0x5ae7dbca  x2=0x5ae7da4a
        6415000	       640	80000d3c	03026863	bltu	x4,x16,80000d6c	  x4:0x00c00074 x16:0x80009fc4
        6425000	       641	00000000	00000013	addi	x0,x0,0	  x0:0x00000000
        6435000	       642	80000d68	00000013	addi	x0,x0,0	  x0:0x00000000
        6445000	       643	80000d6c	01d9af33	slt	x30,x19,x29	 x19:0xffffffde x29:0x2518a5fc x30=0x00000001
        6455000	       644	80000d70	40405d33	sra	x26,x0,x4	  x0:0x00000000  x4:0x00c00074 x26=0x00000000
        6465000	       645	80000d74	00be5d13	srli	x26,x28,0xb	 x28:0x00000000 x26=0x00000000
        6475000	       646	80000d78	0076ecb3	or	x25,x13,x7	 x13:0x00001fff  x7:0xdae75a14 x25=0xdae75fff
        6485000	       647	80000d7c	cb286213	ori	x4,x16,-846	 x16:0x80009fc4  x4=0xfffffff6
        6495000	       648	80000d80	00ee5863	bge	x28,x14,80000d90	 x28:0x00000000 x14:0x00000000
        6505000	       649	00000000	00000013	addi	x0,x0,0	  x0:0x00000000
        6515000	       650	80000d8c	00000013	addi	x0,x0,0	  x0:0x00000000
        6525000	       651	80000d90	d466a8b7	lui	x17,0xd466a	 x17=0xd466a000
        6535000	       652	80000d94	0169f5b3	and	x11,x19,x22	 x19:0xffffffde x22:0xff3fff9c x11=0xff3fff9c
        6545000	       653	80000d98	40ced133	sra	x2,x29,x12	 x29:0x2518a5fc x12:0xffc2bc99  x2=0x00000012
        6555000	       654	80000d9c	0143db33	srl	x22,x7,x20	  x7:0xdae75a14 x20:0x00000004 x22=0x0dae75a1
        6565000	       655	80000da0	01d8b0b3	sltu	x1,x17,x29	 x17:0xd466a000 x29:0x2518a5fc  x1=0x00000000
        6575000	       656	80000da4	414481b3	sub	x3,x9,x20	  x9:0xffffffce x20:0x00000004  x3=0xffffffca
        6585000	       657	80000da8	5f652117	auipc	x2,0x5f652	  x2=0xdf652da4
        6595000	       658	80000dac	04ba6863	bltu	x20,x11,80000dfc	 x20:0x00000004 x11:0xff3fff9c
        6605000	       659	00000000	00000013	addi	x0,x0,0	  x0:0x00000000
        6615000	       660	80000df8	00000013	addi	x0,x0,0	  x0:0x00000000
        6625000	       661	80000dfc	a62abd97	auipc	x27,0xa62ab	 x27=0x262abdf8
        6635000	       662	80000e00	01914db3	xor	x27,x2,x25	  x2:0xdf652da4 x25:0xdae75fff x27=0x0582725b
        6645000	       663	80000e04	01640663	beq	x8,x22,80000e10	  x8:0x80009f64 x22:0x0dae75a1
        6655000	       664	80000e08	6e202217	auipc	x4,0x6e202	  x4=0xee202e04
        6665000	       665	80000e0c	030dfe63	bgeu	x27,x16,80000e48	 x27:0x0582725b x16:0x80009fc4
        6675000	       666	80000e10	00908db3	add	x27,x1,x9	  x1:0x00000000  x9:0xffffffce x27=0xffffffce
        6685000	       667	80000e14	d9230493	addi	x9,x6,-622	  x6:0xffffff05  x9=0xfffffc97
        6695000	       668	80000e18	004cf0b3	and	x1,x25,x4	 x25:0xdae75fff  x4:0xee202e04  x1=0xca200e04
        6705000	       669	80000e1c	b8807b13	andi	x22,x0,-1144	  x0:0x00000000 x22=0x00000000
        6715000	       670	80000e20	eeac2e17	auipc	x28,0xeeac2	 x28=0x6eac2e1c
        6725000	       671	80000e24	000a5313	srli	x6,x20,0x0	 x20:0x00000004  x6=0x00000004
        6735000	       672	80000e28	757efbb7	lui	x23,0x757ef	 x23=0x757ef000
        6745000	       673	80000e2c	004e98b3	sll	x17,x29,x4	 x29:0x2518a5fc  x4:0xee202e04 x17=0x518a5fc0
        6755000	       674	80000e30	8d330397	auipc	x7,0x8d330	  x7=0x0d330e2c
        6765000	       675	80000e34	004850b3	srl	x1,x16,x4	 x16:0x80009fc4  x4:0xee202e04  x1=0x080009fc
        6775000	       676	80000e38	40755033	sra	x0,x10,x7	 x10:0x00000000  x7:0x0d330e2c
        6785000	       677	80000e3c	41b3d733	sra	x14,x7,x27	  x7:0x0d330e2c x27:0xffffffce x14=0x000034cc
        6795000	       678	80000e40	00579c33	sll	x24,x15,x5	 x15:0x5ae7dbca  x5:0x5ae7e0d3 x24=0xde500000
        6805000	       679	80000e44	c5d12213	slti	x4,x2,-931	  x2:0xdf652da4  x4=0x00000001
        6815000	       680	80000e48	03e47a63	bgeu	x8,x30,80000e7c	  x8:0x80009f64 x30:0x00000001
        6825000	       681	00000000	00000013	addi	x0,x0,0	  x0:0x00000000
        6835000	       682	80000e78	00000013	addi	x0,x0,0	  x0:0x00000000
        6845000	       683	80000e7c	008307b3	add	x15,x6,x8	  x6:0x00000004  x8:0x80009f64 x15=0x80009f68
        6855000	       684	80000e80	25b3cc13	xori	x24,x7,603	  x7:0x0d330e2c x24=0x0d330c77
        6865000	       685	80000e84	01398db3	add	x27,x19,x19	 x19:0xffffffde x19:0xffffffde x27=0xffffffbc
        6875000	       686	80000e88	00407ab3	and	x21,x0,x4	  x0:0x00000000  x4:0x00000001 x21=0x00000000
        6885000	       687	80000e8c	03df8863	beq	x31,x29,80000ebc	 x31:0xfc2bc990 x29:0x2518a5fc
        6895000	       688	80000e90	ffba3f13	sltiu	x30,x20,-5	 x20:0x00000004 x30=0x00000001
        6905000	       689	80000e94	f81d6393	ori	x7,x26,-127	 x26:0x00000000  x7=0xffffff81
        6915000	       690	80000e98	00571333	sll	x6,x14,x5	 x14:0x000034cc  x5:0x5ae7e0d3  x6=0xa6600000
        6925000	       691	80000e9c	002fb8b3	sltu	x17,x31,x2	 x31:0xfc2bc990  x2:0xdf652da4 x17=0x00000000
        6935000	       692	80000ea0	00de7133	and	x2,x28,x13	 x28:0x6eac2e1c x13:0x00001fff  x2=0x00000e1c
        6945000	       693	80000ea4	00e5d313	srli	x6,x11,0xe	 x11:0xff3fff9c  x6=0x0003fcff
        6955000	       694	80000ea8	02bef263	bgeu	x29,x11,80000ecc	 x29:0x2518a5fc x11:0xff3fff9c
        6965000	       695	80000eac	011e3233	sltu	x4,x28,x17	 x28:0x6eac2e1c x17:0x00000000  x4=0x00000000
        6975000	       696	80000eb0	000f7733	and	x14,x30,x0	 x30:0x00000001  x0:0x00000000 x14=0x00000000
        6985000	       697	80000eb4	ff1cc993	xori	x19,x25,-15	 x25:0xdae75fff x19=0x2518a00e
        6995000	       698	80000eb8	04051863	bne	x10,x0,80000f08	 x10:0x00000000  x0:0x00000000
        7005000	       699	80000ebc	dc5fb313	sltiu	x6,x31,-571	 x31:0xfc2bc990  x6=0x00000001
        7015000	       700	80000ec0	030f9e63	bne	x31,x16,80000efc	 x31:0xfc2bc990 x16:0x80009fc4
        7025000	       701	00000000	00000013	addi	x0,x0,0	  x0:0x00000000
        7035000	       702	80000ef8	00000013	addi	x0,x0,0	  x0:0x00000000
        7045000	       703	80000efc	01d51f93	slli	x31,x10,0x1d	 x10:0x00000000 x31=0x00000000
        7055000	       704	80000f00	01c194b3	sll	x9,x3,x28	  x3:0xffffffca x28:0x6eac2e1c  x9=0xa0000000
        7065000	       705	80000f04	014266b3	or	x13,x4,x20	  x4:0x00000000 x20:0x00000004 x13=0x00000004
        7075000	       706	80000f08	01ce5b33	srl	x22,x28,x28	 x28:0x6eac2e1c x28:0x6eac2e1c x22=0x00000006
        7085000	       707	80000f0c	948337b7	lui	x15,0x94833	 x15=0x94833000
        7095000	       708	80000f10	0030ca33	xor	x20,x1,x3	  x1:0x080009fc  x3:0xffffffca x20=0xf7fff636
        7105000	       709	80000f14	6ded7697	auipc	x13,0x6ded7	 x13=0xeded7f10
        7115000	       710	80000f18	01c28d33	add	x26,x5,x28	  x5:0x5ae7e0d3 x28:0x6eac2e1c x26=0xc9940eef
        7125000	       711	80000f1c	03210e63	beq	x2,x18,80000f58	  x2:0x00000e1c x18:0x00008000
        7135000	       712	80000f20	01057cb3	and	x25,x10,x16	 x10:0x00000000 x16:0x80009fc4 x25=0x00000000
        7145000	       713	80000f24	1206aa13	slti	x20,x13,288	 x13:0xeded7f10 x20=0x00000001
        7155000	       714	80000f28	032c1e63	bne	x24,x18,80000f64	 x24:0x0d330c77 x18:0x00008000
        7165000	       715	00000000	00000013	addi	x0,x0,0	  x0:0x00000000
        7175000	       716	80000f60	00000013	addi	x0,x0,0	  x0:0x00000000
        7185000	       717	80000f64	0362d463	bge	x5,x22,80000f8c	  x5:0x5ae7e0d3 x22:0x00000006
        7195000	       718	00000000	00000013	addi	x0,x0,0	  x0:0x00000000
        7205000	       719	80000f88	00000013	addi	x0,x0,0	  x0:0x00000000
        7215000	       720	80000f8c	0010aa33	slt	x20,x1,x1	  x1:0x080009fc  x1:0x080009fc x20=0x00000000
        7225000	       721	80000f90	6fadf493	andi	x9,x27,1786	 x27:0xffffffbc  x9=0x000006b8
        7235000	       722	80000f94	004d5193	srli	x3,x26,0x4	 x26:0xc9940eef  x3=0x0c9940ee
        7245000	       723	80000f98	02fa0e63	beq	x20,x15,80000fd4	 x20:0x00000000 x15:0x94833000
        7255000	       724	80000f9c	749e79b7	lui	x19,0x749e7	 x19=0x749e7000
        7265000	       725	80000fa0	010b4e33	xor	x28,x22,x16	 x22:0x00000006 x16:0x80009fc4 x28=0x80009fc2
        7275000	       726	80000fa4	f71a6b17	auipc	x22,0xf71a6	 x22=0x771a6fa0
        7285000	       727	80000fa8	01d61293	slli	x5,x12,0x1d	 x12:0xffc2bc99  x5=0x20000000
        7295000	       728	80000fac	662dbb13	sltiu	x22,x27,1634	 x27:0xffffffbc x22=0x00000000
        7305000	       729	80000fb0	00614eb3	xor	x29,x2,x6	  x2:0x00000e1c  x6:0x00000001 x29=0x00000e1d
        7315000	       730	80000fb4	41db01b3	sub	x3,x22,x29	 x22:0x00000000 x29:0x00000e1d  x3=0xfffff1e3
        7325000	       731	80000fb8	cf310f13	addi	x30,x2,-781	  x2:0x00000e1c x30=0x00000b0f
        7335000	       732	80000fbc	41080033	sub	x0,x16,x16	 x16:0x80009fc4 x16:0x80009fc4
        7345000	       733	80000fc0	e320a393	slti	x7,x1,-462	  x1:0x080009fc  x7=0x00000000
        7355000	       734	80000fc4	40acd493	srai	x9,x25,0xa	 x25:0x00000000  x9=0x00000000
        7365000	       735	80000fc8	19683b13	sltiu	x22,x16,406	 x16:0x80009fc4 x22=0x00000000
        7375000	       736	80000fcc	54103b93	sltiu	x23,x0,1345	  x0:0x00000000 x23=0x00000001
        7385000	       737	80000fd0	04f36663	bltu	x6,x15,8000101c	  x6:0x00000001 x15:0x94833000
        7395000	       738	00000000	00000013	addi	x0,x0,0	  x0:0x00000000
        7405000	       739	80001018	00000013	addi	x0,x0,0	  x0:0x00000000
        7415000	       740	8000101c	40f98f33	sub	x30,x19,x15	 x19:0x749e7000 x15:0x94833000 x30=0xe01b4000
        7425000	       741	80001020	00000013	addi	x0,x0,0	  x0:0x00000000
        7435000	       742	80001024	78483d13	sltiu	x26,x16,1924	 x16:0x80009fc4 x26=0x00000000
        7445000	       743	80001028	016f17b3	sll	x15,x30,x22	 x30:0xe01b4000 x22:0x00000000 x15=0xe01b4000
        7455000	       744	8000102c	68b1a197	auipc	x3,0x68b1a	  x3=0xe8b1b028
        7465000	       745	80001030	20da3393	sltiu	x7,x20,525	 x20:0x00000000  x7=0x00000001
        7475000	       746	80001034	8e01b493	sltiu	x9,x3,-1824	  x3:0xe8b1b028  x9=0x00000001
        7485000	       747	80001038	c0800e13	addi	x28,x0,-1016	  x0:0x00000000 x28=0xfffffc08
        7495000	       748	8000103c	0151e733	or	x14,x3,x21	  x3:0xe8b1b028 x21:0x00000000 x14=0xe8b1b028
        7505000	       749	80001040	02b21463	bne	x4,x11,80001068	  x4:0x00000000 x11:0xff3fff9c
        7515000	       750	00000000	00000013	addi	x0,x0,0	  x0:0x00000000
        7525000	       751	80001064	00000013	addi	x0,x0,0	  x0:0x00000000
        7535000	       752	80001068	001f1663	bne	x30,x1,80001074	 x30:0xe01b4000  x1:0x080009fc
        7545000	       753	00000000	00000013	addi	x0,x0,0	  x0:0x00000000
        7555000	       754	80001070	00000013	addi	x0,x0,0	  x0:0x00000000
        7565000	       755	80001074	011f6bb3	or	x23,x30,x17	 x30:0xe01b4000 x17:0x00000000 x23=0xe01b4000
        7575000	       756	80001078	5ecaf193	andi	x3,x21,1516	 x21:0x00000000  x3=0x00000000
        7585000	       757	8000107c	01e19693	slli	x13,x3,0x1e	  x3:0x00000000 x13=0x00000000
        7595000	       758	80001080	cb7ae193	ori	x3,x21,-841	 x21:0x00000000  x3=0xfffffcb7
        7605000	       759	80001084	01a93233	sltu	x4,x18,x26	 x18:0x00008000 x26:0x00000000  x4=0x00000000
        7615000	       760	80001088	008b4f33	xor	x30,x22,x8	 x22:0x00000000  x8:0x80009f64 x30=0x80009f64
        7625000	       761	8000108c	01309463	bne	x1,x19,80001094	  x1:0x080009fc x19:0x749e7000
        7635000	       762	00000000	00000013	addi	x0,x0,0	  x0:0x00000000
        7645000	       763	80001090	00000013	addi	x0,x0,0	  x0:0x00000000
        7655000	       764	80001094	0062da33	srl	x20,x5,x6	  x5:0x20000000  x6:0x00000001 x20=0x10000000
        7665000	       765	80001098	7aca7a93	andi	x21,x20,1964	 x20:0x10000000 x21=0x00000000
        7675000	       766	8000109c	404ad6b3	sra	x13,x21,x4	 x21:0x00000000  x4:0x00000000 x13=0x00000000
        7685000	       767	800010a0	fedc7913	andi	x18,x24,-19	 x24:0x0d330c77 x18=0x0d330c65
        7695000	       768	800010a4	02047263	bgeu	x8,x0,800010c8	  x8:0x80009f64  x0:0x00000000
        7705000	       769	00000000	00000013	addi	x0,x0,0	  x0:0x00000000
        7715000	       770	800010c4	00000013	addi	x0,x0,0	  x0:0x00000000
        7725000	       771	800010c8	00009213	slli	x4,x1,0x0	  x1:0x080009fc  x4=0x080009fc
        7735000	       772	800010cc	54fe0a13	addi	x20,x28,1359	 x28:0xfffffc08 x20=0x00000157
        7745000	       773	800010d0	00056663	bltu	x10,x0,800010dc	 x10:0x00000000  x0:0x00000000
        7755000	       774	800010d4	00aab333	sltu	x6,x21,x10	 x21:0x00000000 x10:0x00000000  x6=0x00000000
        7765000	       775	800010d8	00dffc63	bgeu	x31,x13,800010f0	 x31:0x00000000 x13:0x00000000
        7775000	       776	00000000	00000013	addi	x0,x0,0	  x0:0x00000000
        7785000	       777	800010ec	00000013	addi	x0,x0,0	  x0:0x00000000
        7795000	       778	800010f0	8fface93	xori	x29,x21,-1793	 x21:0x00000000 x29=0xfffff8ff
        7805000	       779	800010f4	03d84e63	blt	x16,x29,80001130	 x16:0x80009fc4 x29:0xfffff8ff
        7815000	       780	00000000	00000013	addi	x0,x0,0	  x0:0x00000000
        7825000	       781	8000112c	00000013	addi	x0,x0,0	  x0:0x00000000
        7835000	       782	80001130	00231fb3	sll	x31,x6,x2	  x6:0x00000000  x2:0x00000e1c x31=0x00000000
        7845000	       783	80001134	03d6de63	bge	x13,x29,80001170	 x13:0x00000000 x29:0xfffff8ff
        7855000	       784	00000000	00000013	addi	x0,x0,0	  x0:0x00000000
        7865000	       785	8000116c	00000013	addi	x0,x0,0	  x0:0x00000000
        7875000	       786	80001170	0035b2b3	sltu	x5,x11,x3	 x11:0xff3fff9c  x3:0xfffffcb7  x5=0x00000001
        7885000	       787	80001174	475b7713	andi	x14,x22,1141	 x22:0x00000000 x14=0x00000000
        7895000	       788	80001178	1fdd0693	addi	x13,x26,509	 x26:0x00000000 x13=0x000001fd
        7905000	       789	8000117c	0088a033	slt	x0,x17,x8	 x17:0x00000000  x8:0x80009f64
        7915000	       790	80001180	03429e63	bne	x5,x20,800011bc	  x5:0x00000001 x20:0x00000157
        7925000	       791	00000000	00000013	addi	x0,x0,0	  x0:0x00000000
        7935000	       792	800011b8	00000013	addi	x0,x0,0	  x0:0x00000000
        7945000	       793	800011bc	013c7d33	and	x26,x24,x19	 x24:0x0d330c77 x19:0x749e7000 x26=0x04120000
        7955000	       794	800011c0	01e907b3	add	x15,x18,x30	 x18:0x0d330c65 x30:0x80009f64 x15=0x8d33abc9
        7965000	       795	800011c4	bdec4a37	lui	x20,0xbdec4	 x20=0xbdec4000
        7975000	       796	800011c8	00636c63	bltu	x6,x6,800011e0	  x6:0x00000000  x6:0x00000000
        7985000	       797	800011cc	019cd293	srli	x5,x25,0x19	 x25:0x00000000  x5=0x00000000
        7995000	       798	800011d0	01717d33	and	x26,x2,x23	  x2:0x00000e1c x23:0xe01b4000 x26=0x00000000
        8005000	       799	800011d4	57cfd1b7	lui	x3,0x57cfd	  x3=0x57cfd000
        8015000	       800	800011d8	00882ab3	slt	x21,x16,x8	 x16:0x80009fc4  x8:0x80009f64 x21=0x00000000
        8025000	       801	800011dc	022b0863	beq	x22,x2,8000120c	 x22:0x00000000  x2:0x00000e1c
        8035000	       802	800011e0	26397513	andi	x10,x18,611	 x18:0x0d330c65 x10=0x00000061
        8045000	       803	800011e4	4f7d6717	auipc	x14,0x4f7d6	 x14=0xcf7d71e0
        8055000	       804	800011e8	000ff233	and	x4,x31,x0	 x31:0x00000000  x0:0x00000000  x4=0x00000000
        8065000	       805	800011ec	01931b93	slli	x23,x6,0x19	  x6:0x00000000 x23=0x00000000
        8075000	       806	800011f0	008e40b3	xor	x1,x28,x8	 x28:0xfffffc08  x8:0x80009f64  x1=0x7fff636c
        8085000	       807	800011f4	00000013	addi	x0,x0,0	  x0:0x00000000
        8095000	       808	800011f8	00597cb3	and	x25,x18,x5	 x18:0x0d330c65  x5:0x00000000 x25=0x00000000
        8105000	       809	800011fc	dfd8f593	andi	x11,x17,-515	 x17:0x00000000 x11=0x00000000
        8115000	       810	80001200	00411db3	sll	x27,x2,x4	  x2:0x00000e1c  x4:0x00000000 x27=0x00000e1c
        8125000	       811	80001204	00aa08b3	add	x17,x20,x10	 x20:0xbdec4000 x10:0x00000061 x17=0xbdec4061
        8135000	       812	80001208	00265eb3	srl	x29,x12,x2	 x12:0xffc2bc99  x2:0x00000e1c x29=0x0000000f
        8145000	       813	8000120c	0011fab3	and	x21,x3,x1	  x3:0x57cfd000  x1:0x7fff636c x21=0x57cf4000
        8155000	       814	80001210	03d2d863	bge	x5,x29,80001240	  x5:0x00000000 x29:0x0000000f
        8165000	       815	80001214	01d2e3b3	or	x7,x5,x29	  x5:0x00000000 x29:0x0000000f  x7=0x0000000f
        8175000	       816	80001218	02486e63	bltu	x16,x4,80001254	 x16:0x80009fc4  x4:0x00000000
        8185000	       817	8000121c	842d2993	slti	x19,x26,-1982	 x26:0x00000000 x19=0x00000000
        8195000	       818	80001220	cd938393	addi	x7,x7,-807	  x7:0x0000000f  x7=0xfffffce8
        8205000	       819	80001224	0164ce33	xor	x28,x9,x22	  x9:0x00000001 x22:0x00000000 x28=0x00000001
        8215000	       820	80001228	2b774013	xori	x0,x14,695	 x14:0xcf7d71e0
        8225000	       821	8000122c	4179d0b3	sra	x1,x19,x23	 x19:0x00000000 x23:0x00000000  x1=0x00000000
        8235000	       822	80001230	24386493	ori	x9,x16,579	 x16:0x80009fc4  x9=0x80009fc7
        8245000	       823	80001234	40470d33	sub	x26,x14,x4	 x14:0xcf7d71e0  x4:0x00000000 x26=0xcf7d71e0
        8255000	       824	80001238	009c0333	add	x6,x24,x9	 x24:0x0d330c77  x9:0x80009fc7  x6=0x8d33ac3e
        8265000	       825	8000123c	01ba4263	blt	x20,x27,80001240	 x20:0xbdec4000 x27:0x00000e1c
        8275000	       826	00000000	00000013	addi	x0,x0,0	  x0:0x00000000
        8285000	       827	8000123c	00000013	addi	x0,x0,0	  x0:0x00000000
        8295000	       828	80001240	9b8ce913	ori	x18,x25,-1608	 x25:0x00000000 x18=0xfffff9b8
        8305000	       829	80001244	b4d58893	addi	x17,x11,-1203	 x11:0x00000000 x17=0xfffffb4d
        8315000	       830	80001248	d9044a13	xori	x20,x8,-624	  x8:0x80009f64 x20=0x7fff62f4
        8325000	       831	8000124c	40f75d33	sra	x26,x14,x15	 x14:0xcf7d71e0 x15:0x8d33abc9 x26=0xffe7beb8
        8335000	       832	80001250	0036ff33	and	x30,x13,x3	 x13:0x000001fd  x3:0x57cfd000 x30=0x00000000
        8345000	       833	80001254	00310db3	add	x27,x2,x3	  x2:0x00000e1c  x3:0x57cfd000 x27=0x57cfde1c
        8355000	       834	80001258	004362b3	or	x5,x6,x4	  x6:0x8d33ac3e  x4:0x00000000  x5=0x8d33ac3e
        8365000	       835	8000125c	01a45493	srli	x9,x8,0x1a	  x8:0x80009f64  x9=0x00000020
        8375000	       836	80001260	02a9de63	bge	x19,x10,8000129c	 x19:0x00000000 x10:0x00000061
        8385000	       837	80001264	595a4593	xori	x11,x20,1429	 x20:0x7fff62f4 x11=0x7fff6761
        8395000	       838	80001268	02cf9a63	bne	x31,x12,8000129c	 x31:0x00000000 x12:0xffc2bc99
        8405000	       839	00000000	00000013	addi	x0,x0,0	  x0:0x00000000
        8415000	       840	80001298	00000013	addi	x0,x0,0	  x0:0x00000000
        8425000	       841	8000129c	02147863	bgeu	x8,x1,800012cc	  x8:0x80009f64  x1:0x00000000
        8435000	       842	00000000	00000013	addi	x0,x0,0	  x0:0x00000000
        8445000	       843	800012c8	00000013	addi	x0,x0,0	  x0:0x00000000
        8455000	       844	800012cc	01e08463	beq	x1,x30,800012d4	  x1:0x00000000 x30:0x00000000
        8465000	       845	00000000	00000013	addi	x0,x0,0	  x0:0x00000000
        8475000	       846	800012d0	00000013	addi	x0,x0,0	  x0:0x00000000
        8485000	       847	800012d4	005b8d33	add	x26,x23,x5	 x23:0x00000000  x5:0x8d33ac3e x26=0x8d33ac3e
        8495000	       848	800012d8	01014b33	xor	x22,x2,x16	  x2:0x00000e1c x16:0x80009fc4 x22=0x800091d8
        8505000	       849	800012dc	40215b13	srai	x22,x2,0x2	  x2:0x00000e1c x22=0x00000387
        8515000	       850	800012e0	0187efb3	or	x31,x15,x24	 x15:0x8d33abc9 x24:0x0d330c77 x31=0x8d33afff
        8525000	       851	800012e4	01a77663	bgeu	x14,x26,800012f0	 x14:0xcf7d71e0 x26:0x8d33ac3e
        8535000	       852	00000000	00000013	addi	x0,x0,0	  x0:0x00000000
        8545000	       853	800012ec	00000013	addi	x0,x0,0	  x0:0x00000000
        8555000	       854	800012f0	32464e93	xori	x29,x12,804	 x12:0xffc2bc99 x29=0xffc2bfbd
        8565000	       855	800012f4	ace88f13	addi	x30,x17,-1330	 x17:0xfffffb4d x30=0xfffff61b
        8575000	       856	800012f8	00546ab3	or	x21,x8,x5	  x8:0x80009f64  x5:0x8d33ac3e x21=0x8d33bf7e
        8585000	       857	800012fc	019783b3	add	x7,x15,x25	 x15:0x8d33abc9 x25:0x00000000  x7=0x8d33abc9
        8595000	       858	80001300	00ebb1b3	sltu	x3,x23,x14	 x23:0x00000000 x14:0xcf7d71e0  x3=0x00000001
        8605000	       859	80001304	00442303	lw	x6,4(x8)	  x8:0x80009f64  x6=0x80001378 PA:0x80009f68
        8615000	       860	80001308	00840413	addi	x8,x8,8	  x8:0x80009f64  x8=0x80009f6c
        8625000	       861	8000130c	0011ac33	slt	x24,x3,x1	  x3:0x00000001  x1:0x00000000 x24=0x00000000
        8635000	       862	80001310	00130793	addi	x15,x6,1	  x6:0x80001378 x15=0x80001379
        8645000	       863	80001314	000787e7	jalr	x15,x15,0	 x15:0x80001379 x15=0x80001314
        8655000	       864	00000000	00000013	addi	x0,x0,0	  x0:0x00000000
        8665000	       865	80001378	00000013	addi	x0,x0,0	  x0:0x00000000
        8675000	       866	8000137c	00007d17	auipc	x26,0x7	 x26=0x80008378
        8685000	       867	80001380	655d0d13	addi	x26,x26,1621	 x26:0x80008378 x26=0x800089cd
        8695000	       868	80001384	aa3a2c13	slti	x24,x20,-1373	 x20:0x7fff62f4 x24=0x00000000
        8705000	       869	80001388	005c06b3	add	x13,x24,x5	 x24:0x00000000  x5:0x8d33ac3e x13=0x8d33ac3e
        8715000	       870	8000138c	fefd1aa3	sh	x15,-11(x26)	 x26:0x800089cd x15:0x80001314 PA:0x800089c2
        8725000	       871	80001390	3b7fa917	auipc	x18,0x3b7fa	 x18=0xbb7fb38c
        8735000	       872	80001394	ffad0583	lb	x11,-6(x26)	 x26:0x800089cd x11=0xffffffac PA:0x800089c7
        8745000	       873	80001398	01d978b3	and	x17,x18,x29	 x18:0xbb7fb38c x29:0xffc2bfbd x17=0xbb42b38c
        8755000	       874	8000139c	00392fb3	slt	x31,x18,x3	 x18:0xbb7fb38c  x3:0x00000001 x31=0x00000001
        8765000	       875	800013a0	a26b0c13	addi	x24,x22,-1498	 x22:0x00000387 x24=0xfffffdad
        8775000	       876	800013a4	1005d117	auipc	x2,0x1005d	  x2=0x9005e3a0
        8785000	       877	800013a8	00000013	addi	x0,x0,0	  x0:0x00000000
        8795000	       878	800013ac	007823b3	slt	x7,x16,x7	 x16:0x80009fc4  x7:0x8d33abc9  x7=0x00000001
        8805000	       879	800013b0	fe5d19a3	sh	x5,-13(x26)	 x26:0x800089cd  x5:0x8d33ac3e PA:0x800089c0
        8815000	       880	800013b4	66bf2593	slti	x11,x30,1643	 x30:0xfffff61b x11=0x00000001
        8825000	       881	800013b8	5f933f93	sltiu	x31,x6,1529	  x6:0x80001378 x31=0x00000000
        8835000	       882	800013bc	aaebfb93	andi	x23,x23,-1362	 x23:0x00000000 x23=0x00000000
        8845000	       883	800013c0	00000013	addi	x0,x0,0	  x0:0x00000000
        8855000	       884	800013c4	01b45f93	srli	x31,x8,0x1b	  x8:0x80009f6c x31=0x00000010
        8865000	       885	800013c8	01899793	slli	x15,x19,0x18	 x19:0x00000000 x15=0x00000000
        8875000	       886	800013cc	019d0423	sb	x25,8(x26)	 x26:0x800089cd x25:0x00000000 PA:0x800089d5
        8885000	       887	800013d0	005e5f93	srli	x31,x28,0x5	 x28:0x00000001 x31=0x00000000
        8895000	       888	800013d4	ff3d1583	lh	x11,-13(x26)	 x26:0x800089cd x11=0xffffac3e PA:0x800089c0
        8905000	       889	00000000	00000013	addi	x0,x0,0	  x0:0x00000000
        8915000	       890	800013d8	00b754b3	srl	x9,x14,x11	 x14:0xcf7d71e0 x11:0xffffac3e  x9=0x00000003
        8925000	       891	800013dc	403bd013	srai	x0,x23,0x3	 x23:0x00000000
        8935000	       892	800013e0	006d0483	lb	x9,6(x26)	 x26:0x800089cd  x9=0xffffffb8 PA:0x800089d3
        8945000	       893	800013e4	017d0323	sb	x23,6(x26)	 x26:0x800089cd x23:0x00000000 PA:0x800089d3
        8955000	       894	800013e8	00000013	addi	x0,x0,0	  x0:0x00000000
        8965000	       895	800013ec	01171b13	slli	x22,x14,0x11	 x14:0xcf7d71e0 x22=0xe3c00000
        8975000	       896	800013f0	762a3b93	sltiu	x23,x20,1890	 x20:0x7fff62f4 x23=0x00000000
        8985000	       897	800013f4	ffdd5683	lhu	x13,-3(x26)	 x26:0x800089cd x13=0x0000b0b1 PA:0x800089ca
        8995000	       898	800013f8	00e59493	slli	x9,x11,0xe	 x11:0xffffac3e  x9=0xeb0f8000
        9005000	       899	800013fc	00000013	addi	x0,x0,0	  x0:0x00000000
        9015000	       900	80001400	017d0023	sb	x23,0(x26)	 x26:0x800089cd x23:0x00000000 PA:0x800089cd
        9025000	       901	80001404	ff9d0ba3	sb	x25,-9(x26)	 x26:0x800089cd x25:0x00000000 PA:0x800089c4
        9035000	       902	80001408	739710b7	lui	x1,0x73971	  x1=0x73971000
        9045000	       903	8000140c	5d27f393	andi	x7,x15,1490	 x15:0x00000000  x7=0x00000000
        9055000	       904	80001410	00fd1f03	lh	x30,15(x26)	 x26:0x800089cd x30=0xffffc6c7 PA:0x800089dc
        9065000	       905	80001414	00fd5103	lhu	x2,15(x26)	 x26:0x800089cd  x2=0x0000c6c7 PA:0x800089dc
        9075000	       906	80001418	005d0823	sb	x5,16(x26)	 x26:0x800089cd  x5:0x8d33ac3e PA:0x800089dd
        9085000	       907	8000141c	00007117	auipc	x2,0x7	  x2=0x80008418
        9095000	       908	80001420	13710113	addi	x2,x2,311	  x2:0x80008418  x2=0x8000854f
        9105000	       909	80001424	01204933	xor	x18,x0,x18	  x0:0x00000000 x18:0xbb7fb38c x18=0xbb7fb38c
        9115000	       910	80001428	50f56e13	ori	x28,x10,1295	 x10:0x00000061 x28=0x0000056f
        9125000	       911	8000142c	fd710483	lb	x9,-41(x2)	  x2:0x8000854f  x9=0xffffffdd PA:0x80008526
        9135000	       912	80001430	40b8d193	srai	x3,x17,0xb	 x17:0xbb42b38c  x3=0xfff76856
        9145000	       913	80001434	00d10b23	sb	x13,22(x2)	  x2:0x8000854f x13:0x0000b0b1 PA:0x80008565
        9155000	       914	80001438	000112a3	sh	x0,5(x2)	  x2:0x8000854f  x0:0x00000000 PA:0x80008554
        9165000	       915	8000143c	02814983	lbu	x19,40(x2)	  x2:0x8000854f x19=0x0000002c PA:0x80008577
        9175000	       916	80001440	a8709a97	auipc	x21,0xa8709	 x21=0x2870a43c
        9185000	       917	80001444	01c5bb33	sltu	x22,x11,x28	 x11:0xffffac3e x28:0x0000056f x22=0x00000000
        9195000	       918	80001448	0199dbb3	srl	x23,x19,x25	 x19:0x0000002c x25:0x00000000 x23=0x0000002c
        9205000	       919	8000144c	00c1d533	srl	x10,x3,x12	  x3:0xfff76856 x12:0xffc2bc99 x10=0x0000007f
        9215000	       920	80001450	fd410583	lb	x11,-44(x2)	  x2:0x8000854f x11=0xffffffd8 PA:0x80008523
        9225000	       921	80001454	00210a83	lb	x21,2(x2)	  x2:0x8000854f x21=0x0000000a PA:0x80008551
        9235000	       922	80001458	40bbd713	srai	x14,x23,0xb	 x23:0x0000002c x14=0x00000000
        9245000	       923	8000145c	003ad2b3	srl	x5,x21,x3	 x21:0x0000000a  x3:0xfff76856  x5=0x00000000
        9255000	       924	80001460	ee0c3f17	auipc	x30,0xee0c3	 x30=0x6e0c445c
        9265000	       925	80001464	00a10703	lb	x14,10(x2)	  x2:0x8000854f x14=0x00000012 PA:0x80008559
        9275000	       926	80001468	02915b83	lhu	x23,41(x2)	  x2:0x8000854f x23=0x00003233 PA:0x80008578
        9285000	       927	8000146c	01eb0733	add	x14,x22,x30	 x22:0x00000000 x30:0x6e0c445c x14=0x6e0c445c
        9295000	       928	80001470	01115f83	lhu	x31,17(x2)	  x2:0x8000854f x31=0x00001a1b PA:0x80008560
        9305000	       929	80001474	40df5033	sra	x0,x30,x13	 x30:0x6e0c445c x13:0x0000b0b1
        9315000	       930	80001478	00315303	lhu	x6,3(x2)	  x2:0x8000854f  x6=0x00000809 PA:0x80008552
        9325000	       931	00000000	00000013	addi	x0,x0,0	  x0:0x00000000
        9335000	       932	8000147c	00610ba3	sb	x6,23(x2)	  x2:0x8000854f  x6:0x00000809 PA:0x80008566
        9345000	       933	80001480	fe912003	lw	x0,-23(x2)	  x2:0x8000854f PA:0x80008538
        9355000	       934	80001484	8bdc6eb7	lui	x29,0x8bdc6	 x29=0x8bdc6000
        9365000	       935	80001488	03410b03	lb	x22,52(x2)	  x2:0x8000854f x22=0x00000038 PA:0x80008583
        9375000	       936	8000148c	8be23a13	sltiu	x20,x4,-1858	  x4:0x00000000 x20=0x00000001
        9385000	       937	80001490	01f464b3	or	x9,x8,x31	  x8:0x80009f6c x31:0x00001a1b  x9=0x80009f7f
        9395000	       938	80001494	0bdc8d13	addi	x26,x25,189	 x25:0x00000000 x26=0x000000bd
        9405000	       939	80001498	ffb11883	lh	x17,-5(x2)	  x2:0x8000854f x17=0x00000001 PA:0x8000854a
        9415000	       940	8000149c	ff810a03	lb	x20,-8(x2)	  x2:0x8000854f x20=0xfffffffc PA:0x80008547
        9425000	       941	800014a0	03515a83	lhu	x21,53(x2)	  x2:0x8000854f x21=0x00003e3f PA:0x80008584
        9435000	       942	800014a4	01810523	sb	x24,10(x2)	  x2:0x8000854f x24:0xfffffdad PA:0x80008559
        9445000	       943	800014a8	015da2b3	slt	x5,x27,x21	 x27:0x57cfde1c x21:0x00003e3f  x5=0x00000000
        9455000	       944	800014ac	ff610703	lb	x14,-10(x2)	  x2:0x8000854f x14=0xfffffffe PA:0x80008545
        9465000	       945	800014b0	008119a3	sh	x8,19(x2)	  x2:0x8000854f  x8:0x80009f6c PA:0x80008562
        9475000	       946	800014b4	fe910123	sb	x9,-30(x2)	  x2:0x8000854f  x9:0x80009f7f PA:0x80008531
        9485000	       947	800014b8	00008a17	auipc	x20,0x8	 x20=0x800094b4
        9495000	       948	800014bc	879a0a13	addi	x20,x20,-1927	 x20:0x800094b4 x20=0x80008d2d
        9505000	       949	800014c0	00007997	auipc	x19,0x7	 x19=0x800084bc
        9515000	       950	800014c4	49698993	addi	x19,x19,1174	 x19:0x800084bc x19=0x80008952
        9525000	       951	800014c8	fffa2203	lw	x4,-1(x20)	 x20:0x80008d2d  x4=0x14151617 PA:0x80008d2c
        9535000	       952	800014cc	0109dc83	lhu	x25,16(x19)	 x19:0x80008952 x25=0x00000000 PA:0x80008962
        9545000	       953	00000000	00000013	addi	x0,x0,0	  x0:0x00000000
        9555000	       954	800014d0	019a0123	sb	x25,2(x20)	 x20:0x80008d2d x25:0x00000000 PA:0x80008d2f
        9565000	       955	800014d4	ff398103	lb	x2,-13(x19)	 x19:0x80008952  x2=0x0000002e PA:0x80008945
        9575000	       956	800014d8	001a0103	lb	x2,1(x20)	 x20:0x80008d2d  x2=0x00000015 PA:0x80008d2e
        9585000	       957	800014dc	036a4203	lbu	x4,54(x20)	 x20:0x80008d2d  x4=0x00000048 PA:0x80008d63
        9595000	       958	800014e0	00f98483	lb	x9,15(x19)	 x19:0x80008952  x9=0x00000000 PA:0x80008961
        9605000	       959	800014e4	005a1a83	lh	x21,5(x20)	 x20:0x80008d2d x21=0x00001819 PA:0x80008d32
        9615000	       960	800014e8	ff99c203	lbu	x4,-7(x19)	 x19:0x80008952  x4=0x00000030 PA:0x8000894b
        9625000	       961	800014ec	ffc98303	lb	x6,-4(x19)	 x19:0x80008952  x6=0x00000035 PA:0x8000894e
        9635000	       962	800014f0	fe599c23	sh	x5,-8(x19)	 x19:0x80008952  x5:0x00000000 PA:0x8000894a
        9645000	       963	800014f4	fd1a1283	lh	x5,-47(x20)	 x20:0x80008d2d  x5=0xffffe4e5 PA:0x80008cfe
        9655000	       964	800014f8	ffaa0383	lb	x7,-6(x20)	 x20:0x80008d2d  x7=0x0000000c PA:0x80008d27
        9665000	       965	800014fc	ff398883	lb	x17,-13(x19)	 x19:0x80008952 x17=0x0000002e PA:0x80008945
        9675000	       966	80001500	ff898ea3	sb	x24,-3(x19)	 x19:0x80008952 x24:0xfffffdad PA:0x8000894f
        9685000	       967	80001504	ff1a0a23	sb	x17,-12(x20)	 x20:0x80008d2d x17:0x0000002e PA:0x80008d21
        9695000	       968	80001508	fe3a2583	lw	x11,-29(x20)	 x20:0x80008d2d x11=0xf8f9fafb PA:0x80008d10
        9705000	       969	8000150c	00007997	auipc	x19,0x7	 x19=0x80008508
        9715000	       970	80001510	65498993	addi	x19,x19,1620	 x19:0x80008508 x19=0x80008b5c
        9725000	       971	80001514	18ad04b7	lui	x9,0x18ad0	  x9=0x18ad0000
        9735000	       972	80001518	01ffbe33	sltu	x28,x31,x31	 x31:0x00001a1b x31:0x00001a1b x28=0x00000000
        9745000	       973	8000151c	00725533	srl	x10,x4,x7	  x4:0x00000030  x7:0x0000000c x10=0x00000000
        9755000	       974	80001520	f7598683	lb	x13,-139(x19)	 x19:0x80008b5c x13=0xffffffba PA:0x80008ad1
        9765000	       975	80001524	00283a33	sltu	x20,x16,x2	 x16:0x80009fc4  x2:0x00000015 x20=0x00000000
        9775000	       976	80001528	fe699b23	sh	x6,-10(x19)	 x19:0x80008b5c  x6:0x00000035 PA:0x80008b52
        9785000	       977	8000152c	d5dee6b7	lui	x13,0xd5dee	 x13=0xd5dee000
        9795000	       978	80001530	a41b4e13	xori	x28,x22,-1471	 x22:0x00000038 x28=0xfffffa79
        9805000	       979	80001534	1e9f0097	auipc	x1,0x1e9f0	  x1=0x9e9f1530
        9815000	       980	80001538	02598e83	lb	x29,37(x19)	 x19:0x80008b5c x29=0x0000006a PA:0x80008b81
        9825000	       981	8000153c	0a39cd83	lbu	x27,163(x19)	 x19:0x80008b5c x27=0x000000e4 PA:0x80008bff
        9835000	       982	80001540	03299503	lh	x10,50(x19)	 x19:0x80008b5c x10=0x00007475 PA:0x80008b8e
        9845000	       983	80001544	0159c003	lbu	x0,21(x19)	 x19:0x80008b5c PA:0x80008b71
        9855000	       984	80001548	41cbdeb3	sra	x29,x23,x28	 x23:0x00003233 x28:0xfffffa79 x29=0x00000000
        9865000	       985	8000154c	fc19cd83	lbu	x27,-63(x19)	 x19:0x80008b5c x27=0x00000006 PA:0x80008b1d
        9875000	       986	80001550	009715b3	sll	x11,x14,x9	 x14:0xfffffffe  x9:0x18ad0000 x11=0xfffffffe
        9885000	       987	80001554	046982a3	sb	x6,69(x19)	 x19:0x80008b5c  x6:0x00000035 PA:0x80008ba1
        9895000	       988	80001558	041986a3	sb	x1,77(x19)	 x19:0x80008b5c  x1:0x9e9f1530 PA:0x80008ba9
        9905000	       989	8000155c	000393b3	sll	x7,x7,x0	  x7:0x0000000c  x0:0x00000000  x7=0x0000000c
        9915000	       990	80001560	09f98c03	lb	x24,159(x19)	 x19:0x80008b5c x24=0xffffffe0 PA:0x80008bfb
        9925000	       991	80001564	0d298723	sb	x18,206(x19)	 x19:0x80008b5c x18:0xbb7fb38c PA:0x80008c2a
        9935000	       992	80001568	01b98183	lb	x3,27(x19)	 x19:0x80008b5c  x3=0x0000005c PA:0x80008b77
        9945000	       993	8000156c	8602f6b7	lui	x13,0x8602f	 x13=0x8602f000
        9955000	       994	80001570	01c171b3	and	x3,x2,x28	  x2:0x00000015 x28:0xfffffa79  x3=0x00000011
        9965000	       995	80001574	f919c883	lbu	x17,-111(x19)	 x19:0x80008b5c x17=0x000000d6 PA:0x80008aed
        9975000	       996	80001578	f3a98aa3	sb	x26,-203(x19)	 x19:0x80008b5c x26:0x000000bd PA:0x80008a91
        9985000	       997	8000157c	005b1a13	slli	x20,x22,0x5	 x22:0x00000038 x20=0x00000700
        9995000	       998	80001580	0161cb33	xor	x22,x3,x22	  x3:0x00000011 x22:0x00000038 x22=0x00000029
       10005000	       999	80001584	0158dd13	srli	x26,x17,0x15	 x17:0x000000d6 x26=0x00000000
       10015000	      1000	80001588	07198b03	lb	x22,113(x19)	 x19:0x80008b5c x22=0x00000047 PA:0x80008bcd
       10025000	      1001	00000000	00000013	addi	x0,x0,0	  x0:0x00000000
       10035000	      1002	8000158c	405b5693	srai	x13,x22,0x5	 x22:0x00000047 x13=0x00000002
       10045000	      1003	80001590	6d3c7713	andi	x14,x24,1747	 x24:0xffffffe0 x14=0x000006c0
       10055000	      1004	80001594	011cb6b3	sltu	x13,x25,x17	 x25:0x00000000 x17:0x000000d6 x13=0x00000001
       10065000	      1005	80001598	8414cc93	xori	x25,x9,-1983	  x9:0x18ad0000 x25=0xe752f841
       10075000	      1006	8000159c	0009db83	lhu	x23,0(x19)	 x19:0x80008b5c x23=0x00004647 PA:0x80008b5c
       10085000	      1007	800015a0	40925e93	srai	x29,x4,0x9	  x4:0x00000030 x29=0x00000000
       10095000	      1008	800015a4	00bf91b3	sll	x3,x31,x11	 x31:0x00001a1b x11:0xfffffffe  x3=0xc0000000
       10105000	      1009	800015a8	ebdf0b93	addi	x23,x30,-323	 x30:0x6e0c445c x23=0x6e0c4319
       10115000	      1010	800015ac	409edb93	srai	x23,x29,0x9	 x29:0x00000000 x23=0x00000000
       10125000	      1011	800015b0	0e7985a3	sb	x7,235(x19)	 x19:0x80008b5c  x7:0x0000000c PA:0x80008c47
       10135000	      1012	800015b4	f889a483	lw	x9,-120(x19)	 x19:0x80008b5c  x9=0xcccdcecf PA:0x80008ae4
       10145000	      1013	800015b8	00000013	addi	x0,x0,0	  x0:0x00000000
       10155000	      1014	800015bc	ff498923	sb	x20,-14(x19)	 x19:0x80008b5c x20:0x00000700 PA:0x80008b4e
       10165000	      1015	800015c0	00008a97	auipc	x21,0x8	 x21=0x800095bc
       10175000	      1016	800015c4	9e3a8a93	addi	x21,x21,-1565	 x21:0x800095bc x21=0x80008f9f
       10185000	      1017	800015c8	00007717	auipc	x14,0x7	 x14=0x800085c4
       10195000	      1018	800015cc	44e70713	addi	x14,x14,1102	 x14:0x800085c4 x14=0x80008a12
       10205000	      1019	800015d0	de7ad583	lhu	x11,-537(x21)	 x21:0x80008f9f x11=0x00006c6d PA:0x80008d86
       10215000	      1020	800015d4	d93a8823	sb	x19,-624(x21)	 x21:0x80008f9f x19:0x80008b5c PA:0x80008d2f
       10225000	      1021	800015d8	a27adb03	lhu	x22,-1497(x21)	 x21:0x80008f9f x22=0x0000acad PA:0x800089c6
       10235000	      1022	800015dc	00007117	auipc	x2,0x7	  x2=0x800085d8
       10245000	      1023	800015e0	7fc10113	addi	x2,x2,2044	  x2:0x800085d8  x2=0x80008dd4
       10255000	      1024	800015e4	1a672c83	lw	x25,422(x14)	 x14:0x80008a12 x25=0xa0a1a2a3 PA:0x80008bb8
       10265000	      1025	800015e8	eb1ac483	lbu	x9,-335(x21)	 x21:0x80008f9f  x9=0x0000003b PA:0x80008e50
       10275000	      1026	800015ec	00007397	auipc	x7,0x7	  x7=0x800085e8
       10285000	      1027	800015f0	5b538393	addi	x7,x7,1461	  x7:0x800085e8  x7=0x80008b9d
       10295000	      1028	800015f4	46770c83	lb	x25,1127(x14)	 x14:0x80008a12 x25=0x00000062 PA:0x80008e79
       10305000	      1029	800015f8	b56acb83	lbu	x23,-1194(x21)	 x21:0x80008f9f x23=0x000000de PA:0x80008af5
       10315000	      1030	800015fc	dd8a8c03	lb	x24,-552(x21)	 x21:0x80008f9f x24=0x0000005c PA:0x80008d77
       10325000	      1031	80001600	010382a3	sb	x16,5(x7)	  x7:0x80008b9d x16:0x80009fc4 PA:0x80008ba2
       10335000	      1032	80001604	f7010683	lb	x13,-144(x2)	  x2:0x80008dd4 x13=0x0000002f PA:0x80008d44
       10345000	      1033	80001608	02e71023	sh	x14,32(x14)	 x14:0x80008a12 x14:0x80008a12 PA:0x80008a32
       10355000	      1034	8000160c	d9da8fa3	sb	x29,-609(x21)	 x21:0x80008f9f x29:0x00000000 PA:0x80008d3e
       10365000	      1035	80001610	02139ca3	sh	x1,57(x7)	  x7:0x80008b9d  x1:0x9e9f1530 PA:0x80008bd6
       10375000	      1036	80001614	00007097	auipc	x1,0x7	  x1=0x80008610
       10385000	      1037	80001618	3ca08093	addi	x1,x1,970	  x1:0x80008610  x1=0x800089da
       10395000	      1038	8000161c	ff914d03	lbu	x26,-7(x2)	  x2:0x80008dd4 x26=0x000000b6 PA:0x80008dcd
       10405000	      1039	80001620	02f397a3	sh	x15,47(x7)	  x7:0x80008b9d x15:0x00000000 PA:0x80008bcc
       10415000	      1040	80001624	feb38d23	sb	x11,-6(x7)	  x7:0x80008b9d x11:0x00006c6d PA:0x80008b97
       10425000	      1041	80001628	0b211e03	lh	x28,178(x2)	  x2:0x80008dd4 x28=0x00006c74 PA:0x80008e86
       10435000	      1042	8000162c	ceda99a3	sh	x13,-781(x21)	 x21:0x80008f9f x13:0x0000002f PA:0x80008c92
       10445000	      1043	80001630	fc810c83	lb	x25,-56(x2)	  x2:0x80008dd4 x25=0xffffff87 PA:0x80008d9c
       10455000	      1044	80001634	f3c0cd03	lbu	x26,-196(x1)	  x1:0x800089da x26=0x000000fd PA:0x80008916
       10465000	      1045	80001638	4f7709a3	sb	x23,1267(x14)	 x14:0x80008a12 x23:0x000000de PA:0x80008f05
       10475000	      1046	8000163c	02d39903	lh	x18,45(x7)	  x7:0x80008b9d x18=0xffffffb1 PA:0x80008bca
       10485000	      1047	80001640	040105a3	sb	x0,75(x2)	  x2:0x80008dd4  x0:0x00000000 PA:0x80008e1f
       10495000	      1048	80001644	ffc11983	lh	x19,-4(x2)	  x2:0x80008dd4 x19=0xffffbabb PA:0x80008dd0
       10505000	      1049	80001648	04971c23	sh	x9,88(x14)	 x14:0x80008a12  x9:0x0000003b PA:0x80008a6a
       10515000	      1050	8000164c	01038c83	lb	x25,16(x7)	  x7:0x80008b9d x25=0xffffff96 PA:0x80008bad
       10525000	      1051	80001650	4cf74c03	lbu	x24,1231(x14)	 x14:0x80008a12 x24=0x000000ca PA:0x80008ee1
       10535000	      1052	80001654	ff00cb83	lbu	x23,-16(x1)	  x1:0x800089da x23=0x000000b1 PA:0x800089ca
       10545000	      1053	80001658	00e38983	lb	x19,14(x7)	  x7:0x80008b9d x19=0xffffff90 PA:0x80008bab
       10555000	      1054	8000165c	fe012c83	lw	x25,-32(x2)	  x2:0x80008dd4 x25=0x9c9d9e9f PA:0x80008db4
       10565000	      1055	80001660	08910303	lb	x6,137(x2)	  x2:0x80008dd4  x6=0x00000046 PA:0x80008e5d
       10575000	      1056	80001664	5cd70b83	lb	x23,1485(x14)	 x14:0x80008a12 x23=0xffffffc4 PA:0x80008fdf
       10585000	      1057	80001668	dfca8723	sb	x28,-530(x21)	 x21:0x80008f9f x28:0x00006c74 PA:0x80008d8d
       10595000	      1058	8000166c	f2709823	sh	x7,-208(x1)	  x1:0x800089da  x7:0x80008b9d PA:0x8000890a
       10605000	      1059	80001670	0293cd03	lbu	x26,41(x7)	  x7:0x80008b9d x26=0x000000ad PA:0x80008bc6
       10615000	      1060	80001674	ffc11183	lh	x3,-4(x2)	  x2:0x80008dd4  x3=0xffffbabb PA:0x80008dd0
       10625000	      1061	80001678	01b395a3	sh	x27,11(x7)	  x7:0x80008b9d x27:0x00000006 PA:0x80008ba8
       10635000	      1062	8000167c	ff93c683	lbu	x13,-7(x7)	  x7:0x80008b9d x13=0x0000007d PA:0x80008b96
       10645000	      1063	80001680	fd60d883	lhu	x17,-42(x1)	  x1:0x800089da x17=0x00009a9b PA:0x800089b0
       10655000	      1064	80001684	07c09123	sh	x28,98(x1)	  x1:0x800089da x28:0x00006c74 PA:0x80008a3c
       10665000	      1065	80001688	f8d08983	lb	x19,-115(x1)	  x1:0x800089da x19=0x0000004c PA:0x80008967
       10675000	      1066	8000168c	00007c97	auipc	x25,0x7	 x25=0x80008688
       10685000	      1067	80001690	ff2c8c93	addi	x25,x25,-14	 x25:0x80008688 x25=0x8000867a
       10695000	      1068	80001694	033cc703	lbu	x14,51(x25)	 x25:0x8000867a x14=0x00000066 PA:0x800086ad
       10705000	      1069	80001698	033c8483	lb	x9,51(x25)	 x25:0x8000867a  x9=0x00000066 PA:0x800086ad
       10715000	      1070	8000169c	f50c8a03	lb	x20,-176(x25)	 x25:0x8000867a x20=0xffffff81 PA:0x800085ca
       10725000	      1071	800016a0	f50c9783	lh	x15,-176(x25)	 x25:0x8000867a x15=0xffff8081 PA:0x800085ca
       10735000	      1072	800016a4	f5ec9823	sh	x30,-176(x25)	 x25:0x8000867a x30:0x6e0c445c PA:0x800085ca
       10745000	      1073	800016a8	96f40393	addi	x7,x8,-1681	  x8:0x80009f6c  x7=0x800098db
       10755000	      1074	800016ac	0f2cab23	sw	x18,246(x25)	 x25:0x8000867a x18:0xffffffb1 PA:0x80008770
       10765000	      1075	800016b0	0f6c8183	lb	x3,246(x25)	 x25:0x8000867a  x3=0xffffffb1 PA:0x80008770
       10775000	      1076	800016b4	0f6cd303	lhu	x6,246(x25)	 x25:0x8000867a  x6=0x0000ffb1 PA:0x80008770
       10785000	      1077	800016b8	0f6c8503	lb	x10,246(x25)	 x25:0x8000867a x10=0xffffffb1 PA:0x80008770
       10795000	      1078	800016bc	0e6c9b23	sh	x6,246(x25)	 x25:0x8000867a  x6:0x0000ffb1 PA:0x80008770
       10805000	      1079	800016c0	f83c84a3	sb	x3,-119(x25)	 x25:0x8000867a  x3:0xffffffb1 PA:0x80008603
       10815000	      1080	800016c4	f86c84a3	sb	x6,-119(x25)	 x25:0x8000867a  x6:0x0000ffb1 PA:0x80008603
       10825000	      1081	800016c8	f89cc983	lbu	x19,-119(x25)	 x25:0x8000867a x19=0x000000b1 PA:0x80008603
       10835000	      1082	800016cc	f89ccb03	lbu	x22,-119(x25)	 x25:0x8000867a x22=0x000000b1 PA:0x80008603
       10845000	      1083	800016d0	00007c17	auipc	x24,0x7	 x24=0x800086cc
       10855000	      1084	800016d4	ef9c0c13	addi	x24,x24,-263	 x24:0x800086cc x24=0x800085c5
       10865000	      1085	800016d8	0dac4783	lbu	x15,218(x24)	 x24:0x800085c5 x15=0x00000054 PA:0x8000869f
       10875000	      1086	800016dc	418e5a33	sra	x20,x28,x24	 x28:0x00006c74 x24:0x800085c5 x20=0x00000363
       10885000	      1087	800016e0	0dac4583	lbu	x11,218(x24)	 x24:0x800085c5 x11=0x00000054 PA:0x8000869f
       10895000	      1088	800016e4	71228f93	addi	x31,x5,1810	  x5:0xffffe4e5 x31=0xffffebf7
       10905000	      1089	800016e8	0d1c0d23	sb	x17,218(x24)	 x24:0x800085c5 x17:0x00009a9b PA:0x8000869f
       10915000	      1090	800016ec	0dac4903	lbu	x18,218(x24)	 x24:0x800085c5 x18=0x0000009b PA:0x8000869f
       10925000	      1091	800016f0	0dac4e03	lbu	x28,218(x24)	 x24:0x800085c5 x28=0x0000009b PA:0x8000869f
       10935000	      1092	800016f4	40e05d33	sra	x26,x0,x14	  x0:0x00000000 x14:0x00000066 x26=0x00000000
       10945000	      1093	800016f8	fafc5083	lhu	x1,-81(x24)	 x24:0x800085c5  x1=0x00002e2f PA:0x80008574
       10955000	      1094	800016fc	c8bf0793	addi	x15,x30,-885	 x30:0x6e0c445c x15=0x6e0c40e7
       10965000	      1095	80001700	fafc1003	lh	x0,-81(x24)	 x24:0x800085c5 PA:0x80008574
       10975000	      1096	80001704	fafc4683	lbu	x13,-81(x24)	 x24:0x800085c5 x13=0x0000002f PA:0x80008574
       10985000	      1097	80001708	01b786b3	add	x13,x15,x27	 x15:0x6e0c40e7 x27:0x00000006 x13=0x6e0c40ed
       10995000	      1098	8000170c	0119da13	srli	x20,x19,0x11	 x19:0x000000b1 x20=0x00000000
       11005000	      1099	80001710	15c18337	lui	x6,0x15c18	  x6=0x15c18000
       11015000	      1100	80001714	033c4983	lbu	x19,51(x24)	 x24:0x800085c5 x19=0x000000b3 PA:0x800085f8
       11025000	      1101	00000000	00000013	addi	x0,x0,0	  x0:0x00000000
       11035000	      1102	80001718	033c0d83	lb	x27,51(x24)	 x24:0x800085c5 x27=0xffffffb3 PA:0x800085f8
       11045000	      1103	8000171c	00007a17	auipc	x20,0x7	 x20=0x80008718
       11055000	      1104	80001720	c93a0a13	addi	x20,x20,-877	 x20:0x80008718 x20=0x800083ab
       11065000	      1105	80001724	00007a97	auipc	x21,0x7	 x21=0x80008720
       11075000	      1106	80001728	b83a8a93	addi	x21,x21,-1149	 x21:0x80008720 x21=0x800082a3
       11085000	      1107	8000172c	00007c97	auipc	x25,0x7	 x25=0x80008728
       11095000	      1108	80001730	fd1c8c93	addi	x25,x25,-47	 x25:0x80008728 x25=0x800086f9
       11105000	      1109	80001734	ff7a8503	lb	x10,-9(x21)	 x21:0x800082a3 x10=0x00000051 PA:0x8000829a
       11115000	      1110	80001738	fffa8003	lb	x0,-1(x21)	 x21:0x800082a3 PA:0x800082a2
       11125000	      1111	8000173c	ff1a1983	lh	x19,-15(x20)	 x20:0x800083ab x19=0x00005657 PA:0x8000839c
       11135000	      1112	80001740	ff7a9da3	sh	x23,-5(x21)	 x21:0x800082a3 x23:0xffffffc4 PA:0x8000829e
       11145000	      1113	80001744	008a8723	sb	x8,14(x21)	 x21:0x800082a3  x8:0x80009f6c PA:0x800082b1
       11155000	      1114	80001748	ffba1183	lh	x3,-5(x20)	 x20:0x800083ab  x3=0x00005c5d PA:0x800083a6
       11165000	      1115	8000174c	eddcdb83	lhu	x23,-291(x25)	 x25:0x800086f9 x23=0x00008c8d PA:0x800085d6
       11175000	      1116	80001750	996c8b03	lb	x22,-1642(x25)	 x25:0x800086f9 x22=0x00000044 PA:0x8000808f
       11185000	      1117	80001754	ffcac283	lbu	x5,-4(x21)	 x21:0x800082a3  x5=0x000000ff PA:0x8000829f
       11195000	      1118	80001758	ff7a4783	lbu	x15,-9(x20)	 x20:0x800083ab x15=0x00000059 PA:0x800083a2
       11205000	      1119	8000175c	aecc8983	lb	x19,-1300(x25)	 x25:0x800086f9 x19=0x00000000 PA:0x800081e5
       11215000	      1120	00000000	00000013	addi	x0,x0,0	  x0:0x00000000
       11225000	      1121	80001760	ff3a4003	lbu	x0,-13(x20)	 x20:0x800083ab PA:0x8000839e
       11235000	      1122	80001764	ff9a8f23	sb	x25,-2(x21)	 x21:0x800082a3 x25:0x800086f9 PA:0x800082a1
       11245000	      1123	80001768	b4ac8303	lb	x6,-1206(x25)	 x25:0x800086f9  x6=0xfffffff8 PA:0x80008243
       11255000	      1124	8000176c	013a87a3	sb	x19,15(x21)	 x21:0x800082a3 x19:0x00000000 PA:0x800082b2
       11265000	      1125	80001770	00aa04a3	sb	x10,9(x20)	 x20:0x800083ab x10:0x00000051 PA:0x800083b4
       11275000	      1126	80001774	fe0a0c23	sb	x0,-8(x20)	 x20:0x800083ab  x0:0x00000000 PA:0x800083a3
       11285000	      1127	80001778	e6fca7a3	sw	x15,-401(x25)	 x25:0x800086f9 x15:0x00000059 PA:0x80008568
       11295000	      1128	8000177c	e4bc8d03	lb	x26,-437(x25)	 x25:0x800086f9 x26=0xffffffff PA:0x80008544
       11305000	      1129	80001780	00fa8103	lb	x2,15(x21)	 x21:0x800082a3  x2=0x00000000 PA:0x800082b2
       11315000	      1130	00000000	00000013	addi	x0,x0,0	  x0:0x00000000
       11325000	      1131	80001784	0a2c8123	sb	x2,162(x25)	 x25:0x800086f9  x2:0x00000000 PA:0x8000879b
       11335000	      1132	80001788	ffaa8ba3	sb	x26,-9(x21)	 x21:0x800082a3 x26:0xffffffff PA:0x8000829a
       11345000	      1133	8000178c	ff0a4183	lbu	x3,-16(x20)	 x20:0x800083ab  x3=0x00000050 PA:0x8000839b
       11355000	      1134	80001790	00d823b3	slt	x7,x16,x13	 x16:0x80009fc4 x13:0x6e0c40ed  x7=0x00000001
       11365000	      1135	80001794	042d5063	bge	x26,x2,800017d4	 x26:0xffffffff  x2:0x00000000
       11375000	      1136	80001798	fffff097	auipc	x1,0xfffff	  x1=0x80000794
       11385000	      1137	8000179c	d2408093	addi	x1,x1,-732	  x1:0x80000794  x1=0x800004b8
       11395000	      1138	800017a0	0006ceb3	xor	x29,x13,x0	 x13:0x6e0c40ed  x0:0x00000000 x29=0x6e0c40ed
       11405000	      1139	800017a4	00f4f5b3	and	x11,x9,x15	  x9:0x00000066 x15:0x00000059 x11=0x00000040
       11415000	      1140	800017a8	3b608093	addi	x1,x1,950	  x1:0x800004b8  x1=0x8000086e
       11425000	      1141	800017ac	406fd393	srai	x7,x31,0x6	 x31:0xffffebf7  x7=0xffffffaf
       11435000	      1142	800017b0	00992c33	slt	x24,x18,x9	 x18:0x0000009b  x9:0x00000066 x24=0x00000000
       11445000	      1143	800017b4	00d29113	slli	x2,x5,0xd	  x5:0x000000ff  x2=0x001fe000
       11455000	      1144	800017b8	41b95eb3	sra	x29,x18,x27	 x18:0x0000009b x27:0xffffffb3 x29=0x00000000
       11465000	      1145	800017bc	412a06b3	sub	x13,x20,x18	 x20:0x800083ab x18:0x0000009b x13=0x80008310
       11475000	      1146	800017c0	410d8fb3	sub	x31,x27,x16	 x27:0xffffffb3 x16:0x80009fc4 x31=0x7fff5fef
       11485000	      1147	800017c4	01fb9463	bne	x23,x31,800017cc	 x23:0x00008c8d x31:0x7fff5fef
       11495000	      1148	00000000	00000013	addi	x0,x0,0	  x0:0x00000000
       11505000	      1149	800017c8	00000013	addi	x0,x0,0	  x0:0x00000000
       11515000	      1150	800017cc	c4a08367	jalr	x6,x1,-950	  x1:0x8000086e  x6=0x800017cc
       11525000	      1151	00000000	00000013	addi	x0,x0,0	  x0:0x00000000
       11535000	      1152	800004b8	00000013	addi	x0,x0,0	  x0:0x00000000
       11545000	      1153	800004bc	ff840413	addi	x8,x8,-8	  x8:0x80009f6c  x8=0x80009f64
       11555000	      1154	800004c0	0a941c17	auipc	x24,0xa941	 x24=0x8a9414bc
       11565000	      1155	800004c4	00642223	sw	x6,4(x8)	  x8:0x80009f64  x6:0x800017cc PA:0x80009f68
       11575000	      1156	800004c8	3a7b1b37	lui	x22,0x3a7b1	 x22=0x3a7b1000
       11585000	      1157	800004cc	4071d4b3	sra	x9,x3,x7	  x3:0x00000050  x7:0xffffffaf  x9=0x00000000
       11595000	      1158	800004d0	00008797	auipc	x15,0x8	 x15=0x800084cc
       11605000	      1159	800004d4	d2578793	addi	x15,x15,-731	 x15:0x800084cc x15=0x800081f1
       11615000	      1160	800004d8	00f7d583	lhu	x11,15(x15)	 x15:0x800081f1 x11=0x0000ba49 PA:0x80008200
       11625000	      1161	800004dc	00f7a083	lw	x1,15(x15)	 x15:0x800081f1  x1=0x8000ba49 PA:0x80008200
       11635000	      1162	800004e0	00f7aa03	lw	x20,15(x15)	 x15:0x800081f1 x20=0x8000ba49 PA:0x80008200
       11645000	      1163	800004e4	00f7cc83	lbu	x25,15(x15)	 x15:0x800081f1 x25=0x00000049 PA:0x80008200
       11655000	      1164	800004e8	00b797a3	sh	x11,15(x15)	 x15:0x800081f1 x11:0x0000ba49 PA:0x80008200
       11665000	      1165	800004ec	002787a3	sb	x2,15(x15)	 x15:0x800081f1  x2:0x001fe000 PA:0x80008200
       11675000	      1166	800004f0	00f7cd83	lbu	x27,15(x15)	 x15:0x800081f1 x27=0x00000000 PA:0x80008200
       11685000	      1167	800004f4	00f7dd83	lhu	x27,15(x15)	 x15:0x800081f1 x27=0x0000ba00 PA:0x80008200
       11695000	      1168	800004f8	00f7d483	lhu	x9,15(x15)	 x15:0x800081f1  x9=0x0000ba00 PA:0x80008200
       11705000	      1169	800004fc	00f7d383	lhu	x7,15(x15)	 x15:0x800081f1  x7=0x0000ba00 PA:0x80008200
       11715000	      1170	80000500	0177a7a3	sw	x23,15(x15)	 x15:0x800081f1 x23:0x00008c8d PA:0x80008200
       11725000	      1171	80000504	00000013	addi	x0,x0,0	  x0:0x00000000
       11735000	      1172	80000508	00f79883	lh	x17,15(x15)	 x15:0x800081f1 x17=0xffff8c8d PA:0x80008200
       11745000	      1173	8000050c	00f78203	lb	x4,15(x15)	 x15:0x800081f1  x4=0xffffff8d PA:0x80008200
       11755000	      1174	80000510	3fa9b213	sltiu	x4,x19,1018	 x19:0x00000000  x4=0x00000001
       11765000	      1175	80000514	001787a3	sb	x1,15(x15)	 x15:0x800081f1  x1:0x8000ba49 PA:0x80008200
       11775000	      1176	80000518	007797a3	sh	x7,15(x15)	 x15:0x800081f1  x7:0x0000ba00 PA:0x80008200
       11785000	      1177	8000051c	00008117	auipc	x2,0x8	  x2=0x80008518
       11795000	      1178	80000520	35010113	addi	x2,x2,848	  x2:0x80008518  x2=0x80008868
       11805000	      1179	80000524	ffd14d83	lbu	x27,-3(x2)	  x2:0x80008868 x27=0x0000004e PA:0x80008865
       11815000	      1180	80000528	ff310283	lb	x5,-13(x2)	  x2:0x80008868  x5=0x00000040 PA:0x8000885b
       11825000	      1181	8000052c	013101a3	sb	x19,3(x2)	  x2:0x80008868 x19:0x00000000 PA:0x8000886b
       11835000	      1182	80000530	005d5093	srli	x1,x26,0x5	 x26:0xffffffff  x1=0x07ffffff
       11845000	      1183	80000534	01090cb3	add	x25,x18,x16	 x18:0x0000009b x16:0x80009fc4 x25=0x8000a05f
       11855000	      1184	80000538	ff710683	lb	x13,-9(x2)	  x2:0x80008868 x13=0x0000005a PA:0x8000885f
       11865000	      1185	8000053c	ff910ba3	sb	x25,-9(x2)	  x2:0x80008868 x25:0x8000a05f PA:0x8000885f
       11875000	      1186	80000540	ff010c23	sb	x16,-8(x2)	  x2:0x80008868 x16:0x80009fc4 PA:0x80008860
       11885000	      1187	80000544	ff811683	lh	x13,-8(x2)	  x2:0x80008868 x13=0x000006c4 PA:0x80008860
       11895000	      1188	80000548	ff711c23	sh	x23,-8(x2)	  x2:0x80008868 x23:0x00008c8d PA:0x80008860
       11905000	      1189	8000054c	ff811e83	lh	x29,-8(x2)	  x2:0x80008868 x29=0xffff8c8d PA:0x80008860
       11915000	      1190	80000550	1b94eb93	ori	x23,x9,441	  x9:0x0000ba00 x23=0x0000bbb9
       11925000	      1191	80000554	00d14e03	lbu	x28,13(x2)	  x2:0x80008868 x28=0x0000005e PA:0x80008875
       11935000	      1192	80000558	00008c17	auipc	x24,0x8	 x24=0x80008554
       11945000	      1193	8000055c	7dac0c13	addi	x24,x24,2010	 x24:0x80008554 x24=0x80008d2e
       11955000	      1194	80000560	be7c3d13	sltiu	x26,x24,-1049	 x24:0x80008d2e x26=0x00000001
       11965000	      1195	80000564	fb9c0f03	lb	x30,-71(x24)	 x24:0x80008d2e x30=0xffffffcc PA:0x80008ce7
       11975000	      1196	80000568	00fc0203	lb	x4,15(x24)	 x24:0x80008d2e  x4=0x00000026 PA:0x80008d3d
       11985000	      1197	8000056c	00fc0203	lb	x4,15(x24)	 x24:0x80008d2e  x4=0x00000026 PA:0x80008d3d
       11995000	      1198	80000570	018b90b3	sll	x1,x23,x24	 x23:0x0000bbb9 x24:0x80008d2e  x1=0x2eee4000
       12005000	      1199	80000574	06fc0883	lb	x17,111(x24)	 x24:0x80008d2e x17=0xffffff86 PA:0x80008d9d
       12015000	      1200	80000578	00000013	addi	x0,x0,0	  x0:0x00000000
       12025000	      1201	8000057c	00f2dd93	srli	x27,x5,0xf	  x5:0x00000040 x27=0x00000000
       12035000	      1202	80000580	0e4c0d83	lb	x27,228(x24)	 x24:0x80008d2e x27=0xfffffff9 PA:0x80008e12
       12045000	      1203	80000584	00000013	addi	x0,x0,0	  x0:0x00000000
       12055000	      1204	80000588	0cec1703	lh	x14,206(x24)	 x24:0x80008d2e x14=0xffffe6e7 PA:0x80008dfc
       12065000	      1205	8000058c	f69c4303	lbu	x6,-151(x24)	 x24:0x80008d2e  x6=0x0000007c PA:0x80008c97
       12075000	      1206	80000590	f69c4003	lbu	x0,-151(x24)	 x24:0x80008d2e PA:0x80008c97
       12085000	      1207	80000594	f66c04a3	sb	x6,-151(x24)	 x24:0x80008d2e  x6:0x0000007c PA:0x80008c97
       12095000	      1208	80000598	f30c1483	lh	x9,-208(x24)	 x24:0x80008d2e  x9=0x00004449 PA:0x80008c5e
       12105000	      1209	8000059c	f27c0823	sb	x7,-208(x24)	 x24:0x80008d2e  x7:0x0000ba00 PA:0x80008c5e
       12115000	      1210	800005a0	8dfa4c93	xori	x25,x20,-1825	 x20:0x8000ba49 x25=0x7fff4296
       12125000	      1211	800005a4	051c0223	sb	x17,68(x24)	 x24:0x80008d2e x17:0xffffff86 PA:0x80008d72
       12135000	      1212	800005a8	04cc0ea3	sb	x12,93(x24)	 x24:0x80008d2e x12:0xffc2bc99 PA:0x80008d8b
       12145000	      1213	800005ac	05dc0b03	lb	x22,93(x24)	 x24:0x80008d2e x22=0xffffff99 PA:0x80008d8b
       12155000	      1214	800005b0	00008a17	auipc	x20,0x8	 x20=0x800085ac
       12165000	      1215	800005b4	410a0a13	addi	x20,x20,1040	 x20:0x800085ac x20=0x800089bc
       12175000	      1216	800005b8	00008997	auipc	x19,0x8	 x19=0x800085b4
       12185000	      1217	800005bc	2a798993	addi	x19,x19,679	 x19:0x800085b4 x19=0x8000885b
       12195000	      1218	800005c0	00008917	auipc	x18,0x8	 x18=0x800085bc
       12205000	      1219	800005c4	3a290913	addi	x18,x18,930	 x18:0x800085bc x18=0x8000895e
       12215000	      1220	800005c8	0319df03	lhu	x30,49(x19)	 x19:0x8000885b x30=0x00007677 PA:0x8000888c
       12225000	      1221	800005cc	f97a4483	lbu	x9,-105(x20)	 x20:0x800089bc  x9=0x00000038 PA:0x80008953
       12235000	      1222	800005d0	f50a1683	lh	x13,-176(x20)	 x20:0x800089bc x13=0xfffff6f7 PA:0x8000890c
       12245000	      1223	800005d4	0e298e03	lb	x28,226(x19)	 x19:0x8000885b x28=0x00000026 PA:0x8000893d
       12255000	      1224	800005d8	05ba0083	lb	x1,91(x20)	 x20:0x800089bc  x1=0xfffffffc PA:0x80008a17
       12265000	      1225	800005dc	ff39d083	lhu	x1,-13(x19)	 x19:0x8000885b  x1=0x00003435 PA:0x8000884e
       12275000	      1226	800005e0	0d49cc83	lbu	x25,212(x19)	 x19:0x8000885b x25=0x00000096 PA:0x8000892f
       12285000	      1227	800005e4	01a92123	sw	x26,2(x18)	 x18:0x8000895e x26:0x00000001 PA:0x80008960
       12295000	      1228	800005e8	0dba06a3	sb	x27,205(x20)	 x20:0x800089bc x27:0xfffffff9 PA:0x80008a89
       12305000	      1229	800005ec	fd59cd83	lbu	x27,-43(x19)	 x19:0x8000885b x27=0x0000001b PA:0x80008830
       12315000	      1230	00000000	00000013	addi	x0,x0,0	  x0:0x00000000
       12325000	      1231	800005f0	f1ba0f03	lb	x30,-229(x20)	 x20:0x800089bc x30=0xffffffbc PA:0x800088d7
       12335000	      1232	800005f4	0e2a5183	lhu	x3,226(x20)	 x20:0x800089bc  x3=0x00008485 PA:0x80008a9e
       12345000	      1233	800005f8	0ff98723	sb	x31,238(x19)	 x19:0x8000885b x31:0x7fff5fef PA:0x80008949
       12355000	      1234	800005fc	0309c883	lbu	x17,48(x19)	 x19:0x8000885b x17=0x00000070 PA:0x8000888b
       12365000	      1235	80000600	ff3909a3	sb	x19,-13(x18)	 x18:0x8000895e x19:0x8000885b PA:0x80008951
       12375000	      1236	80000604	08f99703	lh	x14,143(x19)	 x19:0x8000885b x14=0xffffd0d1 PA:0x800088ea
       12385000	      1237	80000608	00d94d03	lbu	x26,13(x18)	 x18:0x8000895e x26=0x00000050 PA:0x8000896b
       12395000	      1238	8000060c	00a94783	lbu	x15,10(x18)	 x18:0x8000895e x15=0x00000053 PA:0x80008968
       12405000	      1239	80000610	0b4a2023	sw	x20,160(x20)	 x20:0x800089bc x20:0x800089bc PA:0x80008a5c
       12415000	      1240	80000614	0639d383	lhu	x7,99(x19)	 x19:0x8000885b  x7=0x0000a4a5 PA:0x800088be
       12425000	      1241	80000618	02fa0b03	lb	x22,47(x20)	 x20:0x800089bc x22=0xffffffd0 PA:0x800089eb
       12435000	      1242	8000061c	fe7a0183	lb	x3,-25(x20)	 x20:0x800089bc  x3=0xffffff88 PA:0x800089a3
       12445000	      1243	80000620	00690483	lb	x9,6(x18)	 x18:0x8000895e  x9=0x0000004f PA:0x80008964
       12455000	      1244	80000624	ff1a4e83	lbu	x29,-15(x20)	 x20:0x800089bc x29=0x00000096 PA:0x800089ad
       12465000	      1245	00000000	00000013	addi	x0,x0,0	  x0:0x00000000
       12475000	      1246	80000628	0dd98a23	sb	x29,212(x19)	 x19:0x8000885b x29:0x00000096 PA:0x8000892f
       12485000	      1247	8000062c	00790d83	lb	x27,7(x18)	 x18:0x8000895e x27=0x0000004e PA:0x80008965
       12495000	      1248	80000630	00009097	auipc	x1,0x9	  x1=0x8000962c
       12505000	      1249	80000634	97508093	addi	x1,x1,-1675	  x1:0x8000962c  x1=0x80008fa1
       12515000	      1250	80000638	f1808da3	sb	x24,-229(x1)	  x1:0x80008fa1 x24:0x80008d2e PA:0x80008ebc
       12525000	      1251	8000063c	402655b3	sra	x11,x12,x2	 x12:0xffc2bc99  x2:0x80008868 x11=0xffffc2bc
       12535000	      1252	80000640	00afd293	srli	x5,x31,0xa	 x31:0x7fff5fef  x5=0x001fffd7
       12545000	      1253	80000644	01659993	slli	x19,x11,0x16	 x11:0xffffc2bc x19=0xaf000000
       12555000	      1254	80000648	40b4d333	sra	x6,x9,x11	  x9:0x0000004f x11:0xffffc2bc  x6=0x00000000
       12565000	      1255	8000064c	023086a3	sb	x3,45(x1)	  x1:0x80008fa1  x3:0xffffff88 PA:0x80008fce
       12575000	      1256	80000650	f7a08923	sb	x26,-142(x1)	  x1:0x80008fa1 x26:0x00000050 PA:0x80008f13
       12585000	      1257	80000654	f0a08323	sb	x10,-250(x1)	  x1:0x80008fa1 x10:0x00000051 PA:0x80008ea7
       12595000	      1258	80000658	f8f0a903	lw	x18,-113(x1)	  x1:0x80008fa1 x18=0x18191a1b PA:0x80008f30
       12605000	      1259	8000065c	9af58c93	addi	x25,x11,-1617	 x11:0xffffc2bc x25=0xffffbc6b
       12615000	      1260	80000660	91493b93	sltiu	x23,x18,-1772	 x18:0x18191a1b x23=0x00000001
       12625000	      1261	80000664	6ae02913	slti	x18,x0,1710	  x0:0x00000000 x18=0x00000001
       12635000	      1262	80000668	fc40c703	lbu	x14,-60(x1)	  x1:0x80008fa1 x14=0x0000004e PA:0x80008f65
       12645000	      1263	8000066c	00dd2e33	slt	x28,x26,x13	 x26:0x00000050 x13:0xfffff6f7 x28=0x00000000
       12655000	      1264	80000670	f0a086a3	sb	x10,-243(x1)	  x1:0x80008fa1 x10:0x00000051 PA:0x80008eae
       12665000	      1265	80000674	05f091a3	sh	x31,67(x1)	  x1:0x80008fa1 x31:0x7fff5fef PA:0x80008fe4
       12675000	      1266	80000678	008e0bb3	add	x23,x28,x8	 x28:0x00000000  x8:0x80009f64 x23=0x80009f64
       12685000	      1267	8000067c	00d08203	lb	x4,13(x1)	  x1:0x80008fa1  x4=0xffffff95 PA:0x80008fae
       12695000	      1268	00000000	00000013	addi	x0,x0,0	  x0:0x00000000
       12705000	      1269	80000680	fa4c9f97	auipc	x31,0xfa4c9	 x31=0x7a4c967c
       12715000	      1270	80000684	f6108823	sb	x1,-144(x1)	  x1:0x80008fa1  x1:0x80008fa1 PA:0x80008f11
       12725000	      1271	80000688	f4908583	lb	x11,-183(x1)	  x1:0x80008fa1 x11=0xffffffd1 PA:0x80008eea
       12735000	      1272	8000068c	01ad6333	or	x6,x26,x26	 x26:0x00000050 x26:0x00000050  x6=0x00000050
       12745000	      1273	80000690	f0908783	lb	x15,-247(x1)	  x1:0x80008fa1 x15=0xffffff91 PA:0x80008eaa
       12755000	      1274	80000694	fdd08983	lb	x19,-35(x1)	  x1:0x80008fa1 x19=0x00000065 PA:0x80008f7e
       12765000	      1275	80000698	f9808883	lb	x17,-104(x1)	  x1:0x80008fa1 x17=0x00000022 PA:0x80008f39
       12775000	      1276	8000069c	f41080a3	sb	x1,-191(x1)	  x1:0x80008fa1  x1:0x80008fa1 PA:0x80008ee2
       12785000	      1277	800006a0	4077d893	srai	x17,x15,0x7	 x15:0xffffff91 x17=0xffffffff
       12795000	      1278	800006a4	41b6d733	sra	x14,x13,x27	 x13:0xfffff6f7 x27:0x0000004e x14=0xffffffff
       12805000	      1279	800006a8	f2909e83	lh	x29,-215(x1)	  x1:0x80008fa1 x29=0xffffb0b1 PA:0x80008eca
       12815000	      1280	800006ac	f2b0af83	lw	x31,-213(x1)	  x1:0x80008fa1 x31=0xb4b5b6b7 PA:0x80008ecc
       12825000	      1281	800006b0	40440e33	sub	x28,x8,x4	  x8:0x80009f64  x4:0xffffff95 x28=0x80009fcf
       12835000	      1282	800006b4	f7908aa3	sb	x25,-139(x1)	  x1:0x80008fa1 x25:0xffffbc6b PA:0x80008f16
       12845000	      1283	800006b8	03808c03	lb	x24,56(x1)	  x1:0x80008fa1 x24=0xffffffc2 PA:0x80008fd9
       12855000	      1284	800006bc	009a99b3	sll	x19,x21,x9	 x21:0x800082a3  x9:0x0000004f x19=0x41518000
       12865000	      1285	800006c0	f4709303	lh	x6,-185(x1)	  x1:0x80008fa1  x6=0xffffaad3 PA:0x80008ee8
       12875000	      1286	800006c4	f0e092a3	sh	x14,-251(x1)	  x1:0x80008fa1 x14:0xffffffff PA:0x80008ea6
       12885000	      1287	800006c8	00008197	auipc	x3,0x8	  x3=0x800086c4
       12895000	      1288	800006cc	ea818193	addi	x3,x3,-344	  x3:0x800086c4  x3=0x8000856c
       12905000	      1289	800006d0	00008997	auipc	x19,0x8	 x19=0x800086cc
       12915000	      1290	800006d4	0c298993	addi	x19,x19,194	 x19:0x800086cc x19=0x8000878e
       12925000	      1291	800006d8	00008c97	auipc	x25,0x8	 x25=0x800086d4
       12935000	      1292	800006dc	fc2c8c93	addi	x25,x25,-62	 x25:0x800086d4 x25=0x80008696
       12945000	      1293	800006e0	ff2c9b23	sh	x18,-10(x25)	 x25:0x80008696 x18:0x00000001 PA:0x8000868c
       12955000	      1294	800006e4	00008217	auipc	x4,0x8	  x4=0x800086e0
       12965000	      1295	800006e8	e7f20213	addi	x4,x4,-385	  x4:0x800086e0  x4=0x8000855f
       12975000	      1296	800006ec	03d1a223	sw	x29,36(x3)	  x3:0x8000856c x29:0xffffb0b1 PA:0x80008590
       12985000	      1297	800006f0	00ec80a3	sb	x14,1(x25)	 x25:0x80008696 x14:0xffffffff PA:0x80008697
       12995000	      1298	800006f4	00008c17	auipc	x24,0x8	 x24=0x800086f0
       13005000	      1299	800006f8	983c0c13	addi	x24,x24,-1661	 x24:0x800086f0 x24=0x80008073
       13015000	      1300	800006fc	471c2903	lw	x18,1137(x24)	 x24:0x80008073 x18=0x9c9d9e9f PA:0x800084e4
       13025000	      1301	80000700	0031cd83	lbu	x27,3(x3)	  x3:0x8000856c x27=0x00000024 PA:0x8000856f
       13035000	      1302	80000704	ff098823	sb	x16,-16(x19)	 x19:0x8000878e x16:0x80009fc4 PA:0x8000877e
       13045000	      1303	80000708	00f98883	lb	x17,15(x19)	 x19:0x8000878e x17=0x00000056 PA:0x8000879d
       13055000	      1304	8000070c	006caa83	lw	x21,6(x25)	 x25:0x80008696 x21=0x9b555657 PA:0x8000869c
       13065000	      1305	80000710	f6121fa3	sh	x1,-129(x4)	  x4:0x8000855f  x1:0x80008fa1 PA:0x800084de
       13075000	      1306	80000714	febc8fa3	sb	x11,-1(x25)	 x25:0x80008696 x11:0xffffffd1 PA:0x80008695
       13085000	      1307	80000718	00d18e03	lb	x28,13(x3)	  x3:0x8000856c x28=0x00000032 PA:0x80008579
       13095000	      1308	8000071c	07325383	lhu	x7,115(x4)	  x4:0x8000855f  x7=0x0000de89 PA:0x800085d2
       13105000	      1309	80000720	635c1083	lh	x1,1589(x24)	 x24:0x80008073  x1=0x00006263 PA:0x800086a8
       13115000	      1310	80000724	ff3ccd83	lbu	x27,-13(x25)	 x25:0x80008696 x27=0x00000042 PA:0x80008689
       13125000	      1311	80000728	3c1c5903	lhu	x18,961(x24)	 x24:0x80008073 x18=0x0000eeef PA:0x80008434
       13135000	      1312	8000072c	ffd98083	lb	x1,-3(x19)	 x19:0x8000878e  x1=0x00000040 PA:0x8000878b
       13145000	      1313	80000730	0ad24303	lbu	x6,173(x4)	  x4:0x8000855f  x6=0x000000c7 PA:0x8000860c
       13155000	      1314	80000734	02118b03	lb	x22,33(x3)	  x3:0x8000856c x22=0x00000046 PA:0x8000858d
       13165000	      1315	80000738	190c4783	lbu	x15,400(x24)	 x24:0x80008073 x15=0x00000000 PA:0x80008203
       13175000	      1316	8000073c	ff4ccd03	lbu	x26,-12(x25)	 x25:0x80008696 x26=0x00000041 PA:0x8000868a
       13185000	      1317	80000740	f8122d03	lw	x26,-127(x4)	  x4:0x8000855f x26=0x00000001 PA:0x800084e0
       13195000	      1318	80000744	f7324b03	lbu	x22,-141(x4)	  x4:0x8000855f x22=0x00000089 PA:0x800084d2
       13205000	      1319	80000748	695c17a3	sh	x21,1679(x24)	 x24:0x80008073 x21:0x9b555657 PA:0x80008702
       13215000	      1320	8000074c	02019423	sh	x0,40(x3)	  x3:0x8000856c  x0:0x00000000 PA:0x80008594
       13225000	      1321	80000750	520c0f23	sb	x0,1342(x24)	 x24:0x80008073  x0:0x00000000 PA:0x800085b1
       13235000	      1322	80000754	086c0283	lb	x5,134(x24)	 x24:0x80008073  x5=0xffffffb2 PA:0x800080f9
       13245000	      1323	80000758	02718223	sb	x7,36(x3)	  x3:0x8000856c  x7:0x0000de89 PA:0x80008590
       13255000	      1324	8000075c	f7d20b83	lb	x23,-131(x4)	  x4:0x8000855f x23=0xffffff97 PA:0x800084dc
       13265000	      1325	80000760	0069dd83	lhu	x27,6(x19)	 x19:0x8000878e x27=0x00004e4f PA:0x80008794
       13275000	      1326	80000764	00dc8383	lb	x7,13(x25)	 x25:0x80008696  x7=0x00000058 PA:0x800086a3
       13285000	      1327	80000768	ff4cdf03	lhu	x30,-12(x25)	 x25:0x80008696 x30=0x00004041 PA:0x8000868a
       13295000	      1328	8000076c	fcb181a3	sb	x11,-61(x3)	  x3:0x8000856c x11:0xffffffd1 PA:0x8000852f
       13305000	      1329	80000770	0a420703	lb	x14,164(x4)	  x4:0x8000855f x14=0xffffffb1 PA:0x80008603
       13315000	      1330	80000774	553c4383	lbu	x7,1363(x24)	 x24:0x80008073  x7=0x0000007d PA:0x800085c6
       13325000	      1331	80000778	734c0783	lb	x15,1844(x24)	 x24:0x80008073 x15=0x0000005c PA:0x800087a7
       13335000	      1332	8000077c	06320a23	sb	x3,116(x4)	  x4:0x8000855f  x3:0x8000856c PA:0x800085d3
       13345000	      1333	80000780	ff91cb83	lbu	x23,-7(x3)	  x3:0x8000856c x23=0x000000b1 PA:0x80008565
       13355000	      1334	80000784	ffd9ca03	lbu	x20,-3(x19)	 x19:0x8000878e x20=0x00000040 PA:0x8000878b
       13365000	      1335	80000788	00008d17	auipc	x26,0x8	 x26=0x80008784
       13375000	      1336	8000078c	700d0d13	addi	x26,x26,1792	 x26:0x80008784 x26=0x80008e84
       13385000	      1337	80000790	ff8d2883	lw	x17,-8(x26)	 x26:0x80008e84 x17=0xe2656667 PA:0x80008e7c
       13395000	      1338	80000794	00008c97	auipc	x25,0x8	 x25=0x80008790
       13405000	      1339	80000798	3c1c8c93	addi	x25,x25,961	 x25:0x80008790 x25=0x80008b51
       13415000	      1340	8000079c	00008b97	auipc	x23,0x8	 x23=0x80008798
       13425000	      1341	800007a0	3bcb8b93	addi	x23,x23,956	 x23:0x80008798 x23=0x80008b54
       13435000	      1342	800007a4	00008697	auipc	x13,0x8	 x13=0x800087a0
       13445000	      1343	800007a8	43968693	addi	x13,x13,1081	 x13:0x800087a0 x13=0x80008bd9
       13455000	      1344	800007ac	00ad0483	lb	x9,10(x26)	 x26:0x80008e84  x9=0x00000075 PA:0x80008e8e
       13465000	      1345	800007b0	0bbbc703	lbu	x14,187(x23)	 x23:0x80008b54 x14=0x00000058 PA:0x80008c0f
       13475000	      1346	800007b4	311b8d23	sb	x17,794(x23)	 x23:0x80008b54 x17:0xe2656667 PA:0x80008e6e
       13485000	      1347	800007b8	0296d883	lhu	x17,41(x13)	 x13:0x80008bd9 x17=0x0000e8e9 PA:0x80008c02
       13495000	      1348	800007bc	febd0b23	sb	x11,-10(x26)	 x26:0x80008e84 x11:0xffffffd1 PA:0x80008e7a
       13505000	      1349	800007c0	fdfca7a3	sw	x31,-49(x25)	 x25:0x80008b51 x31:0xb4b5b6b7 PA:0x80008b20
       13515000	      1350	800007c4	01568903	lb	x18,21(x13)	 x13:0x80008bd9 x18=0xffffffd5 PA:0x80008bee
       13525000	      1351	800007c8	1c8b87a3	sb	x8,463(x23)	 x23:0x80008b54  x8:0x80009f64 PA:0x80008d23
       13535000	      1352	800007cc	021cda03	lhu	x20,33(x25)	 x25:0x80008b51 x20=0x00005859 PA:0x80008b72
       13545000	      1353	800007d0	208bd783	lhu	x15,520(x23)	 x23:0x80008b54 x15=0x00004647 PA:0x80008d5c
       13555000	      1354	800007d4	010d4983	lbu	x19,16(x26)	 x26:0x80008e84 x19=0x0000007f PA:0x80008e94
       13565000	      1355	800007d8	00008117	auipc	x2,0x8	  x2=0x800087d4
       13575000	      1356	800007dc	72b10113	addi	x2,x2,1835	  x2:0x800087d4  x2=0x80008eff
       13585000	      1357	800007e0	fc7c9203	lh	x4,-57(x25)	 x25:0x80008b51  x4=0x00000203 PA:0x80008b18
       13595000	      1358	800007e4	29db8903	lb	x18,669(x23)	 x23:0x80008b54 x18=0xffffffda PA:0x80008df1
       13605000	      1359	800007e8	00614f83	lbu	x31,6(x2)	  x2:0x80008eff x31=0x000000de PA:0x80008f05
       13615000	      1360	800007ec	ff3c8983	lb	x19,-13(x25)	 x25:0x80008b51 x19=0x0000002f PA:0x80008b44
       13625000	      1361	800007f0	016d1023	sh	x22,0(x26)	 x26:0x80008e84 x22:0x00000089 PA:0x80008e84
       13635000	      1362	800007f4	ff414083	lbu	x1,-12(x2)	  x2:0x80008eff  x1=0x000000d1 PA:0x80008ef3
       13645000	      1363	800007f8	fd168303	lb	x6,-47(x13)	 x13:0x80008bd9  x6=0xffffff91 PA:0x80008baa
       13655000	      1364	800007fc	fe268923	sb	x2,-14(x13)	 x13:0x80008bd9  x2:0x80008eff PA:0x80008bcb
       13665000	      1365	80000800	202bd503	lhu	x10,514(x23)	 x23:0x80008b54 x10=0x00003c3d PA:0x80008d56
       13675000	      1366	00000000	00000013	addi	x0,x0,0	  x0:0x00000000
       13685000	      1367	80000804	42abde83	lhu	x29,1066(x23)	 x23:0x80008b54 x29=0x00006465 PA:0x80008f7e
       13695000	      1368	80000808	fc16dd83	lhu	x27,-63(x13)	 x13:0x80008bd9 x27=0x00008081 PA:0x80008b9a
       13705000	      1369	8000080c	fc3c9183	lh	x3,-61(x25)	 x25:0x80008b51  x3=0xfffffeff PA:0x80008b14
       13715000	      1370	80000810	ff8d5203	lhu	x4,-8(x26)	 x26:0x80008e84  x4=0x00006667 PA:0x80008e7c
       13725000	      1371	80000814	000d06a3	sb	x0,13(x26)	 x26:0x80008e84  x0:0x00000000 PA:0x80008e91
       13735000	      1372	80000818	ff410983	lb	x19,-12(x2)	  x2:0x80008eff x19=0xffffffd1 PA:0x80008ef3
       13745000	      1373	8000081c	fe76af03	lw	x30,-25(x13)	 x13:0x80008bd9 x30=0xa8a9aaab PA:0x80008bc0
       13755000	      1374	80000820	463bce03	lbu	x28,1123(x23)	 x23:0x80008b54 x28=0x0000009c PA:0x80008fb7
       13765000	      1375	80000824	ffa10483	lb	x9,-6(x2)	  x2:0x80008eff  x9=0xffffffe2 PA:0x80008ef9
       13775000	      1376	80000828	ffad0283	lb	x5,-6(x26)	 x26:0x80008e84  x5=0x00000065 PA:0x80008e7e
       13785000	      1377	8000082c	06fb8ca3	sb	x15,121(x23)	 x23:0x80008b54 x15:0x00004647 PA:0x80008bcd
       13795000	      1378	80000830	feb10a23	sb	x11,-12(x2)	  x2:0x80008eff x11:0xffffffd1 PA:0x80008ef3
       13805000	      1379	80000834	fe9d0da3	sb	x9,-5(x26)	 x26:0x80008e84  x9:0xffffffe2 PA:0x80008e7f
       13815000	      1380	80000838	017c8083	lb	x1,23(x25)	 x25:0x80008b51  x1=0x00000053 PA:0x80008b68
       13825000	      1381	8000083c	012c8283	lb	x5,18(x25)	 x25:0x80008b51  x5=0x00000048 PA:0x80008b63
       13835000	      1382	80000840	0b4b9d23	sh	x20,186(x23)	 x23:0x80008b54 x20:0x00005859 PA:0x80008c0e
       13845000	      1383	80000844	0396cf03	lbu	x30,57(x13)	 x13:0x80008bd9 x30=0x000000f9 PA:0x80008c12
       13855000	      1384	80000848	00e6c903	lbu	x18,14(x13)	 x13:0x80008bd9 x18=0x000000cc PA:0x80008be7
       13865000	      1385	00000000	00000013	addi	x0,x0,0	  x0:0x00000000
       13875000	      1386	8000084c	ff2d0ba3	sb	x18,-9(x26)	 x26:0x80008e84 x18:0x000000cc PA:0x80008e7b
       13885000	      1387	80000850	00008d97	auipc	x27,0x8	 x27=0x8000884c
       13895000	      1388	80000854	b0ad8d93	addi	x27,x27,-1270	 x27:0x8000884c x27=0x80008356
       13905000	      1389	80000858	febd8d23	sb	x11,-6(x27)	 x27:0x80008356 x11:0xffffffd1 PA:0x80008350
       13915000	      1390	8000085c	003d8223	sb	x3,4(x27)	 x27:0x80008356  x3:0xfffffeff PA:0x8000835a
       13925000	      1391	80000860	40ca83b3	sub	x7,x21,x12	 x21:0x9b555657 x12:0xffc2bc99  x7=0x9b9299be
       13935000	      1392	80000864	007d8483	lb	x9,7(x27)	 x27:0x80008356  x9=0x00000016 PA:0x8000835d
       13945000	      1393	80000868	1b6207b7	lui	x15,0x1b620	 x15=0x1b620000
       13955000	      1394	8000086c	cc5df213	andi	x4,x27,-827	 x27:0x80008356  x4=0x80008044
       13965000	      1395	80000870	ffbd8823	sb	x27,-16(x27)	 x27:0x80008356 x27:0x80008356 PA:0x80008346
       13975000	      1396	80000874	ff5d8983	lb	x19,-11(x27)	 x27:0x80008356 x19=0x00000000 PA:0x8000834b
       13985000	      1397	80000878	008d9e83	lh	x29,8(x27)	 x27:0x80008356 x29=0x00001415 PA:0x8000835e
       13995000	      1398	8000087c	01f46233	or	x4,x8,x31	  x8:0x80009f64 x31:0x000000de  x4=0x80009ffe
       14005000	      1399	80000880	ff6dc503	lbu	x10,-10(x27)	 x27:0x80008356 x10=0x00000007 PA:0x8000834c
       14015000	      1400	80000884	ff9d8683	lb	x13,-7(x27)	 x27:0x80008356 x13=0x00000004 PA:0x8000834f
       14025000	      1401	80000888	40c1dab3	sra	x21,x3,x12	  x3:0xfffffeff x12:0xffc2bc99 x21=0xffffffff
       14035000	      1402	8000088c	ff4d8e83	lb	x29,-12(x27)	 x27:0x80008356 x29=0x00000001 PA:0x8000834a
       14045000	      1403	80000890	ff9d8903	lb	x18,-7(x27)	 x27:0x80008356 x18=0x00000004 PA:0x8000834f
       14055000	      1404	80000894	00ddcf83	lbu	x31,13(x27)	 x27:0x80008356 x31=0x00000000 PA:0x80008363
       14065000	      1405	00000000	00000013	addi	x0,x0,0	  x0:0x00000000
       14075000	      1406	80000898	fffd8103	lb	x2,-1(x27)	 x27:0x80008356  x2=0x0000000e PA:0x80008355
       14085000	      1407	8000089c	007dce83	lbu	x29,7(x27)	 x27:0x80008356 x29=0x00000016 PA:0x8000835d
       14095000	      1408	800008a0	00795b13	srli	x22,x18,0x7	 x18:0x00000004 x22=0x00000000
       14105000	      1409	800008a4	ff4d9983	lh	x19,-12(x27)	 x27:0x80008356 x19=0x00000001 PA:0x8000834a
       14115000	      1410	800008a8	ff4dc903	lbu	x18,-12(x27)	 x27:0x80008356 x18=0x00000001 PA:0x8000834a
       14125000	      1411	800008ac	fe6d8ea3	sb	x6,-3(x27)	 x27:0x80008356  x6:0xffffff91 PA:0x80008353
       14135000	      1412	800008b0	00854ab3	xor	x21,x10,x8	 x10:0x00000007  x8:0x80009f64 x21=0x80009f63
       14145000	      1413	800008b4	013da523	sw	x19,10(x27)	 x27:0x80008356 x19:0x00000001 PA:0x80008360
       14155000	      1414	800008b8	016d9023	sh	x22,0(x27)	 x27:0x80008356 x22:0x00000000 PA:0x80008356
       14165000	      1415	800008bc	ff2d8903	lb	x18,-14(x27)	 x27:0x80008356 x18=0x00000003 PA:0x80008348
       14175000	      1416	800008c0	ff9dc303	lbu	x6,-7(x27)	 x27:0x80008356  x6=0x00000004 PA:0x8000834f
       14185000	      1417	800008c4	ff6da383	lw	x7,-10(x27)	 x27:0x80008356  x7=0x04050607 PA:0x8000834c
       14195000	      1418	800008c8	40005cb3	sra	x25,x0,x0	  x0:0x00000000  x0:0x00000000 x25=0x00000000
       14205000	      1419	800008cc	6508af13	slti	x30,x17,1616	 x17:0x0000e8e9 x30=0x00000000
       14215000	      1420	800008d0	009d8223	sb	x9,4(x27)	 x27:0x80008356  x9:0x00000016 PA:0x8000835a
       14225000	      1421	800008d4	011d8623	sb	x17,12(x27)	 x27:0x80008356 x17:0x0000e8e9 PA:0x80008362
       14235000	      1422	800008d8	c8b5e513	ori	x10,x11,-885	 x11:0xffffffd1 x10=0xffffffdb
       14245000	      1423	800008dc	000923b3	slt	x7,x18,x0	 x18:0x00000003  x0:0x00000000  x7=0x00000000
       14255000	      1424	800008e0	004dd303	lhu	x6,4(x27)	 x27:0x80008356  x6=0x00001016 PA:0x8000835a
       14265000	      1425	800008e4	408cd3b3	sra	x7,x25,x8	 x25:0x00000000  x8:0x80009f64  x7=0x00000000
       14275000	      1426	800008e8	010512b3	sll	x5,x10,x16	 x10:0xffffffdb x16:0x80009fc4  x5=0xfffffdb0
       14285000	      1427	800008ec	00af5113	srli	x2,x30,0xa	 x30:0x00000000  x2=0x00000000
       14295000	      1428	800008f0	00d44fb3	xor	x31,x8,x13	  x8:0x80009f64 x13:0x00000004 x31=0x80009f60
       14305000	      1429	800008f4	00fdc303	lbu	x6,15(x27)	 x27:0x80008356  x6=0x0000001e PA:0x80008365
       14315000	      1430	800008f8	00cd9b03	lh	x22,12(x27)	 x27:0x80008356 x22=0x000000e9 PA:0x80008362
       14325000	      1431	800008fc	00008117	auipc	x2,0x8	  x2=0x800088f8
       14335000	      1432	80000900	94110113	addi	x2,x2,-1727	  x2:0x800088f8  x2=0x80008239
       14345000	      1433	80000904	fd814d03	lbu	x26,-40(x2)	  x2:0x80008239 x26=0x000000ca PA:0x80008211
       14355000	      1434	80000908	0b510503	lb	x10,181(x2)	  x2:0x80008239 x10=0xffffffa5 PA:0x800082ee
       14365000	      1435	8000090c	40cb5e33	sra	x28,x22,x12	 x22:0x000000e9 x12:0xffc2bc99 x28=0x00000000
       14375000	      1436	80000910	00a10d33	add	x26,x2,x10	  x2:0x80008239 x10:0xffffffa5 x26=0x800081de
       14385000	      1437	80000914	5cd24893	xori	x17,x4,1485	  x4:0x80009ffe x17=0x80009a33
       14395000	      1438	80000918	01a10b23	sb	x26,22(x2)	  x2:0x80008239 x26:0x800081de PA:0x8000824f
       14405000	      1439	8000091c	f8111383	lh	x7,-127(x2)	  x2:0x80008239  x7=0x00007071 PA:0x800081ba
       14415000	      1440	80000920	f2f12c03	lw	x24,-209(x2)	  x2:0x80008239 x24=0x20212223 PA:0x80008168
       14425000	      1441	80000924	0199d593	srli	x11,x19,0x19	 x19:0x00000001 x11=0x00000000
       14435000	      1442	80000928	f9e10703	lb	x14,-98(x2)	  x2:0x80008239 x14=0xffffff8c PA:0x800081d7
       14445000	      1443	8000092c	01ae77b3	and	x15,x28,x26	 x28:0x00000000 x26:0x800081de x15=0x00000000
       14455000	      1444	80000930	eec77fb7	lui	x31,0xeec77	 x31=0xeec77000
       14465000	      1445	80000934	f58117a3	sh	x24,-177(x2)	  x2:0x80008239 x24:0x20212223 PA:0x80008188
       14475000	      1446	80000938	50147193	andi	x3,x8,1281	  x8:0x80009f64  x3=0x00000500
       14485000	      1447	8000093c	f5112fa3	sw	x17,-161(x2)	  x2:0x80008239 x17:0x80009a33 PA:0x80008198
       14495000	      1448	80000940	00c10123	sb	x12,2(x2)	  x2:0x80008239 x12:0xffc2bc99 PA:0x8000823b
       14505000	      1449	80000944	01d1a9b3	slt	x19,x3,x29	  x3:0x00000500 x29:0x00000016 x19=0x00000000
       14515000	      1450	80000948	f5811fa3	sh	x24,-161(x2)	  x2:0x80008239 x24:0x20212223 PA:0x80008198
       14525000	      1451	8000094c	060103a3	sb	x0,103(x2)	  x2:0x80008239  x0:0x00000000 PA:0x800082a0
       14535000	      1452	80000950	006ae9b3	or	x19,x21,x6	 x21:0x80009f63  x6:0x0000001e x19=0x80009f7f
       14545000	      1453	80000954	f1d10583	lb	x11,-227(x2)	  x2:0x80008239 x11=0x0000000d PA:0x80008156
       14555000	      1454	00000000	00000013	addi	x0,x0,0	  x0:0x00000000
       14565000	      1455	80000958	88bcbf17	auipc	x30,0x88bcb	 x30=0x08bcb954
       14575000	      1456	8000095c	005b84b3	add	x9,x23,x5	 x23:0x80008b54  x5:0xfffffdb0  x9=0x80008904
       14585000	      1457	80000960	006ac9b3	xor	x19,x21,x6	 x21:0x80009f63  x6:0x0000001e x19=0x80009f7d
       14595000	      1458	80000964	07614583	lbu	x11,118(x2)	  x2:0x80008239 x11=0x00000064 PA:0x800082af
       14605000	      1459	80000968	00000013	addi	x0,x0,0	  x0:0x00000000
       14615000	      1460	8000096c	00c91213	slli	x4,x18,0xc	 x18:0x00000003  x4=0x00003000
       14625000	      1461	80000970	07a10a23	sb	x26,116(x2)	  x2:0x80008239 x26:0x800081de PA:0x800082ad
       14635000	      1462	80000974	f2014303	lbu	x6,-224(x2)	  x2:0x80008239  x6=0x00000012 PA:0x80008159
       14645000	      1463	80000978	0147a5b3	slt	x11,x15,x20	 x15:0x00000000 x20:0x00005859 x11=0x00000001
       14655000	      1464	8000097c	664b7793	andi	x15,x22,1636	 x22:0x000000e9 x15=0x00000060
       14665000	      1465	80000980	01d911b3	sll	x3,x18,x29	 x18:0x00000003 x29:0x00000016  x3=0x00c00000
       14675000	      1466	80000984	0de12da3	sw	x30,219(x2)	  x2:0x80008239 x30:0x08bcb954 PA:0x80008314
       14685000	      1467	80000988	008c49b3	xor	x19,x24,x8	 x24:0x20212223  x8:0x80009f64 x19=0xa021bd47
       14695000	      1468	8000098c	f3410a03	lb	x20,-204(x2)	  x2:0x80008239 x20=0x00000026 PA:0x8000816d
       14705000	      1469	80000990	61b4fe13	andi	x28,x9,1563	  x9:0x80008904 x28=0x00000000
       14715000	      1470	80000994	f183b293	sltiu	x5,x7,-232	  x7:0x00007071  x5=0x00000001
       14725000	      1471	80000998	00539393	slli	x7,x7,0x5	  x7:0x00007071  x7=0x000e0e20
       14735000	      1472	8000099c	006f7c33	and	x24,x30,x6	 x30:0x08bcb954  x6:0x00000012 x24=0x00000010
       14745000	      1473	800009a0	00a14b03	lbu	x22,10(x2)	  x2:0x80008239 x22=0x000000f8 PA:0x80008243
       14755000	      1474	800009a4	011dabb3	slt	x23,x27,x17	 x27:0x80008356 x17:0x80009a33 x23=0x00000001
       14765000	      1475	800009a8	015edb33	srl	x22,x29,x21	 x29:0x00000016 x21:0x80009f63 x22=0x00000002
       14775000	      1476	800009ac	b6056f13	ori	x30,x10,-1184	 x10:0xffffffa5 x30=0xffffffe5
       14785000	      1477	800009b0	00e14903	lbu	x18,14(x2)	  x2:0x80008239 x18=0x000000fc PA:0x80008247
       14795000	      1478	800009b4	1d8d7913	andi	x18,x26,472	 x26:0x800081de x18=0x000001d8
       14805000	      1479	800009b8	fb910623	sb	x25,-84(x2)	  x2:0x80008239 x25:0x00000000 PA:0x800081e5
       14815000	      1480	800009bc	40e18db3	sub	x27,x3,x14	  x3:0x00c00000 x14:0xffffff8c x27=0x00c00074
       14825000	      1481	800009c0	f6b74513	xori	x10,x14,-149	 x14:0xffffff8c x10=0x000000e7
       14835000	      1482	800009c4	f2b15983	lhu	x19,-213(x2)	  x2:0x80008239 x19=0x00001e1f PA:0x80008164
       14845000	      1483	800009c8	00c84cb3	xor	x25,x16,x12	 x16:0x80009fc4 x12:0xffc2bc99 x25=0x7fc2235d
       14855000	      1484	800009cc	03110423	sb	x17,40(x2)	  x2:0x80008239 x17:0x80009a33 PA:0x80008261
       14865000	      1485	800009d0	bf90fa93	andi	x21,x1,-1031	  x1:0x00000053 x21=0x00000051
       14875000	      1486	800009d4	f0714f83	lbu	x31,-249(x2)	  x2:0x80008239 x31=0x000000fb PA:0x80008140
       14885000	      1487	800009d8	09a10283	lb	x5,154(x2)	  x2:0x80008239  x5=0xffffff88 PA:0x800082d3
       14895000	      1488	800009dc	f78103a3	sb	x24,-153(x2)	  x2:0x80008239 x24:0x00000010 PA:0x800081a0
       14905000	      1489	800009e0	02a10923	sb	x10,50(x2)	  x2:0x80008239 x10:0x000000e7 PA:0x8000826b
       14915000	      1490	800009e4	00008597	auipc	x11,0x8	 x11=0x800089e0
       14925000	      1491	800009e8	20a58593	addi	x11,x11,522	 x11:0x800089e0 x11=0x80008bea
       14935000	      1492	800009ec	e975c703	lbu	x14,-361(x11)	 x11:0x80008bea x14=0x0000006a PA:0x80008a81
       14945000	      1493	800009f0	e0b5c103	lbu	x2,-501(x11)	 x11:0x80008bea  x2=0x000000de PA:0x800089f5
       14955000	      1494	800009f4	d795ce83	lbu	x29,-647(x11)	 x11:0x80008bea x29=0x00000000 PA:0x80008963
       14965000	      1495	800009f8	2375c283	lbu	x5,567(x11)	 x11:0x80008bea  x5=0x0000000a PA:0x80008e21
       14975000	      1496	800009fc	2b059903	lh	x18,688(x11)	 x11:0x80008bea x18=0xffff8081 PA:0x80008e9a
       14985000	      1497	80000a00	d4adab93	slti	x23,x27,-694	 x27:0x00c00074 x23=0x00000000
       14995000	      1498	80000a04	dd558703	lb	x14,-555(x11)	 x11:0x80008bea x14=0xffffffa4 PA:0x800089bf
       15005000	      1499	80000a08	2c859a03	lh	x20,712(x11)	 x11:0x80008bea x20=0xffff9899 PA:0x80008eb2
       15015000	      1500	80000a0c	00763533	sltu	x10,x12,x7	 x12:0xffc2bc99  x7:0x000e0e20 x10=0x00000000
       15025000	      1501	80000a10	002d5e93	srli	x29,x26,0x2	 x26:0x800081de x29=0x20002077
       15035000	      1502	80000a14	0182f033	and	x0,x5,x24	  x5:0x0000000a x24:0x00000010
       15045000	      1503	80000a18	5ae75397	auipc	x7,0x5ae75	  x7=0xdae75a14
       15055000	      1504	80000a1c	01200933	add	x18,x0,x18	  x0:0x00000000 x18:0xffff8081 x18=0xffff8081
       15065000	      1505	80000a20	29b58e23	sb	x27,668(x11)	 x11:0x80008bea x27:0x00c00074 PA:0x80008e86
       15075000	      1506	80000a24	00000013	addi	x0,x0,0	  x0:0x00000000
       15085000	      1507	80000a28	01632cb3	slt	x25,x6,x22	  x6:0x00000012 x22:0x00000002 x25=0x00000000
       15095000	      1508	80000a2c	34d2ca13	xori	x20,x5,845	  x5:0x0000000a x20=0x00000347
       15105000	      1509	80000a30	01d7f533	and	x10,x15,x29	 x15:0x00000060 x29:0x20002077 x10=0x00000060
       15115000	      1510	80000a34	c4d5ab23	sw	x13,-938(x11)	 x11:0x80008bea x13:0x00000004 PA:0x80008840
       15125000	      1511	80000a38	dd75c503	lbu	x10,-553(x11)	 x11:0x80008bea x10=0x000000ac PA:0x800089c1
       15135000	      1512	80000a3c	31cfe493	ori	x9,x31,796	 x31:0x000000fb  x9=0x000003ff
       15145000	      1513	80000a40	2ea58fa3	sb	x10,767(x11)	 x11:0x80008bea x10:0x000000ac PA:0x80008ee9
       15155000	      1514	80000a44	00008117	auipc	x2,0x8	  x2=0x80008a40
       15165000	      1515	80000a48	c7f10113	addi	x2,x2,-897	  x2:0x80008a40  x2=0x800086bf
       15175000	      1516	80000a4c	fb112183	lw	x3,-79(x2)	  x2:0x800086bf  x3=0x28292a2b PA:0x80008670
       15185000	      1517	80000a50	fb112583	lw	x11,-79(x2)	  x2:0x800086bf x11=0x28292a2b PA:0x80008670
       15195000	      1518	80000a54	f1414883	lbu	x17,-236(x2)	  x2:0x800086bf x17=0x0000006c PA:0x800085d3
       15205000	      1519	80000a58	01c2c6b3	xor	x13,x5,x28	  x5:0x0000000a x28:0x00000000 x13=0x0000000a
       15215000	      1520	80000a5c	f1a10a23	sb	x26,-236(x2)	  x2:0x800086bf x26:0x800081de PA:0x800085d3
       15225000	      1521	80000a60	f1414303	lbu	x6,-236(x2)	  x2:0x800086bf  x6=0x000000de PA:0x800085d3
       15235000	      1522	80000a64	f1410983	lb	x19,-236(x2)	  x2:0x800086bf x19=0xffffffde PA:0x800085d3
       15245000	      1523	80000a68	41bc0b33	sub	x22,x24,x27	 x24:0x00000010 x27:0x00c00074 x22=0xff3fff9c
       15255000	      1524	80000a6c	f3115a03	lhu	x20,-207(x2)	  x2:0x800086bf x20=0x0000000a PA:0x800085f0
       15265000	      1525	80000a70	f3110583	lb	x11,-207(x2)	  x2:0x800086bf x11=0x0000000a PA:0x800085f0
       15275000	      1526	80000a74	f3111003	lh	x0,-207(x2)	  x2:0x800086bf PA:0x800085f0
       15285000	      1527	80000a78	f3110483	lb	x9,-207(x2)	  x2:0x800086bf  x9=0x0000000a PA:0x800085f0
       15295000	      1528	80000a7c	f23128a3	sw	x3,-207(x2)	  x2:0x800086bf  x3:0x28292a2b PA:0x800085f0
       15305000	      1529	80000a80	f39128a3	sw	x25,-207(x2)	  x2:0x800086bf x25:0x00000000 PA:0x800085f0
       15315000	      1530	80000a84	f25108a3	sb	x5,-207(x2)	  x2:0x800086bf  x5:0x0000000a PA:0x800085f0
       15325000	      1531	80000a88	01395693	srli	x13,x18,0x13	 x18:0xffff8081 x13=0x00001fff
       15335000	      1532	80000a8c	f3111483	lh	x9,-207(x2)	  x2:0x800086bf  x9=0x0000000a PA:0x800085f0
       15345000	      1533	80000a90	f3110e03	lb	x28,-207(x2)	  x2:0x800086bf x28=0x0000000a PA:0x800085f0
       15355000	      1534	80000a94	f3111083	lh	x1,-207(x2)	  x2:0x800086bf  x1=0x0000000a PA:0x800085f0
       15365000	      1535	80000a98	f3111703	lh	x14,-207(x2)	  x2:0x800086bf x14=0x0000000a PA:0x800085f0
       15375000	      1536	80000a9c	03618263	beq	x3,x22,80000ac0	  x3:0x28292a2b x22:0xff3fff9c
       15385000	      1537	80000aa0	00995013	srli	x0,x18,0x9	 x18:0xffff8081
       15395000	      1538	80000aa4	bacce713	ori	x14,x25,-1108	 x25:0x00000000 x14=0xfffffbac
       15405000	      1539	80000aa8	bd460213	addi	x4,x12,-1068	 x12:0xffc2bc99  x4=0xffc2b86d
       15415000	      1540	80000aac	02b21263	bne	x4,x11,80000ad0	  x4:0xffc2b86d x11:0x0000000a
       15425000	      1541	00000000	00000013	addi	x0,x0,0	  x0:0x00000000
       15435000	      1542	80000acc	00000013	addi	x0,x0,0	  x0:0x00000000
       15445000	      1543	80000ad0	0ca71663	bne	x14,x10,80000b9c	 x14:0xfffffbac x10:0x000000ac
       15455000	      1544	00000000	00000013	addi	x0,x0,0	  x0:0x00000000
       15465000	      1545	80000b98	00000013	addi	x0,x0,0	  x0:0x00000000
       15475000	      1546	80000b9c	425d8197	auipc	x3,0x425d8	  x3=0xc25d8b98
       15485000	      1547	80000ba0	00d444b3	xor	x9,x8,x13	  x8:0x80009f64 x13:0x00001fff  x9=0x8000809b
       15495000	      1548	80000ba4	00000013	addi	x0,x0,0	  x0:0x00000000
       15505000	      1549	80000ba8	01771263	bne	x14,x23,80000bac	 x14:0xfffffbac x23:0x00000000
       15515000	      1550	00000000	00000013	addi	x0,x0,0	  x0:0x00000000
       15525000	      1551	80000ba8	00000013	addi	x0,x0,0	  x0:0x00000000
       15535000	      1552	80000bac	00d6e663	bltu	x13,x13,80000bb8	 x13:0x00001fff x13:0x00001fff
       15545000	      1553	80000bb0	03af7863	bgeu	x30,x26,80000be0	 x30:0xffffffe5 x26:0x800081de
       15555000	      1554	00000000	00000013	addi	x0,x0,0	  x0:0x00000000
       15565000	      1555	80000bdc	00000013	addi	x0,x0,0	  x0:0x00000000
       15575000	      1556	80000be0	496bc037	lui	x0,0x496bc	
       15585000	      1557	80000be4	4166d793	srai	x15,x13,0x16	 x13:0x00001fff x15=0x00000000
       15595000	      1558	80000be8	01efe733	or	x14,x31,x30	 x31:0x000000fb x30:0xffffffe5 x14=0xffffffff
       15605000	      1559	80000bec	84aace13	xori	x28,x21,-1974	 x21:0x00000051 x28=0xfffff81b
       15615000	      1560	80000bf0	014c1933	sll	x18,x24,x20	 x24:0x00000010 x20:0x0000000a x18=0x00004000
       15625000	      1561	80000bf4	00372e33	slt	x28,x14,x3	 x14:0xffffffff  x3:0xc25d8b98 x28=0x00000000
       15635000	      1562	80000bf8	0051fc63	bgeu	x3,x5,80000c10	  x3:0xc25d8b98  x5:0x0000000a
       15645000	      1563	00000000	00000013	addi	x0,x0,0	  x0:0x00000000
       15655000	      1564	80000c0c	00000013	addi	x0,x0,0	  x0:0x00000000
       15665000	      1565	80000c10	03525e63	bge	x4,x21,80000c4c	  x4:0xffc2b86d x21:0x00000051
       15675000	      1566	80000c14	e3902593	slti	x11,x0,-455	  x0:0x00000000 x11=0x00000000
       15685000	      1567	80000c18	59a7ba37	lui	x20,0x59a7b	 x20=0x59a7b000
       15695000	      1568	80000c1c	00356f33	or	x30,x10,x3	 x10:0x000000ac  x3:0xc25d8b98 x30=0xc25d8bbc
       15705000	      1569	80000c20	005d9e93	slli	x29,x27,0x5	 x27:0x00c00074 x29=0x18000e80
       15715000	      1570	80000c24	006708b3	add	x17,x14,x6	 x14:0xffffffff  x6:0x000000de x17=0x000000dd
       15725000	      1571	80000c28	5a657313	andi	x6,x10,1446	 x10:0x000000ac  x6=0x000000a4
       15735000	      1572	80000c2c	2f430213	addi	x4,x6,756	  x6:0x000000a4  x4=0x00000398
       15745000	      1573	80000c30	00000013	addi	x0,x0,0	  x0:0x00000000
       15755000	      1574	80000c34	01bbc2b3	xor	x5,x23,x27	 x23:0x00000000 x27:0x00c00074  x5=0x00c00074
       15765000	      1575	80000c38	00bf95b3	sll	x11,x31,x11	 x31:0x000000fb x11:0x00000000 x11=0x000000fb
       15775000	      1576	80000c3c	00461f93	slli	x31,x12,0x4	 x12:0xffc2bc99 x31=0xfc2bc990
       15785000	      1577	80000c40	04a37663	bgeu	x6,x10,80000c8c	  x6:0x000000a4 x10:0x000000ac
       15795000	      1578	80000c44	03817a63	bgeu	x2,x24,80000c78	  x2:0x800086bf x24:0x00000010
       15805000	      1579	00000000	00000013	addi	x0,x0,0	  x0:0x00000000
       15815000	      1580	80000c74	00000013	addi	x0,x0,0	  x0:0x00000000
       15825000	      1581	80000c78	01b7c233	xor	x4,x15,x27	 x15:0x00000000 x27:0x00c00074  x4=0x00c00074
       15835000	      1582	80000c7c	2a55da17	auipc	x20,0x2a55d	 x20=0xaa55dc78
       15845000	      1583	80000c80	7fdf3c93	sltiu	x25,x30,2045	 x30:0xc25d8bbc x25=0x00000000
       15855000	      1584	80000c84	01927733	and	x14,x4,x25	  x4:0x00c00074 x25:0x00000000 x14=0x00000000
       15865000	      1585	80000c88	01d15a13	srli	x20,x2,0x1d	  x2:0x800086bf x20=0x00000004
       15875000	      1586	80000c8c	00000013	addi	x0,x0,0	  x0:0x00000000
       15885000	      1587	80000c90	009794b3	sll	x9,x15,x9	 x15:0x00000000  x9:0x8000809b  x9=0x00000000
       15895000	      1588	80000c94	407c0eb3	sub	x29,x24,x7	 x24:0x00000010  x7:0xdae75a14 x29=0x2518a5fc
       15905000	      1589	80000c98	40b70333	sub	x6,x14,x11	 x14:0x00000000 x11:0x000000fb  x6=0xffffff05
       15915000	      1590	80000c9c	007d47b3	xor	x15,x26,x7	 x26:0x800081de  x7:0xdae75a14 x15=0x5ae7dbca
       15925000	      1591	80000ca0	409201b3	sub	x3,x4,x9	  x4:0x00c00074  x9:0x00000000  x3=0x00c00074
       15935000	      1592	80000ca4	0040ff33	and	x30,x1,x4	  x1:0x0000000a  x4:0x00c00074 x30=0x00000000
       15945000	      1593	80000ca8	00fa6ab3	or	x21,x20,x15	 x20:0x00000004 x15:0x5ae7dbca x21=0x5ae7dbce
       15955000	      1594	80000cac	02b0ce63	blt	x1,x11,80000ce8	  x1:0x0000000a x11:0x000000fb
       15965000	      1595	00000000	00000013	addi	x0,x0,0	  x0:0x00000000
       15975000	      1596	80000ce4	00000013	addi	x0,x0,0	  x0:0x00000000
       15985000	      1597	80000ce8	01e63533	sltu	x10,x12,x30	 x12:0xffc2bc99 x30:0x00000000 x10=0x00000000
       15995000	      1598	80000cec	007102b3	add	x5,x2,x7	  x2:0x800086bf  x7:0xdae75a14  x5=0x5ae7e0d3
       16005000	      1599	80000cf0	84a86493	ori	x9,x16,-1974	 x16:0x80009fc4  x9=0xffffffce
       16015000	      1600	80000cf4	00670463	beq	x14,x6,80000cfc	 x14:0x00000000  x6:0xffffff05
       16025000	      1601	80000cf8	02ef5e63	bge	x30,x14,80000d34	 x30:0x00000000 x14:0x00000000
       16035000	      1602	00000000	00000013	addi	x0,x0,0	  x0:0x00000000
       16045000	      1603	80000d30	00000013	addi	x0,x0,0	  x0:0x00000000
       16055000	      1604	80000d34	00131d13	slli	x26,x6,0x1	  x6:0xffffff05 x26=0xfffffe0a
       16065000	      1605	80000d38	e4a7f113	andi	x2,x15,-438	 x15:0x5ae7dbca  x2=0x5ae7da4a
       16075000	      1606	80000d3c	03026863	bltu	x4,x16,80000d6c	  x4:0x00c00074 x16:0x80009fc4
       16085000	      1607	00000000	00000013	addi	x0,x0,0	  x0:0x00000000
       16095000	      1608	80000d68	00000013	addi	x0,x0,0	  x0:0x00000000
       16105000	      1609	80000d6c	01d9af33	slt	x30,x19,x29	 x19:0xffffffde x29:0x2518a5fc x30=0x00000001
       16115000	      1610	80000d70	40405d33	sra	x26,x0,x4	  x0:0x00000000  x4:0x00c00074 x26=0x00000000
       16125000	      1611	80000d74	00be5d13	srli	x26,x28,0xb	 x28:0x00000000 x26=0x00000000
       16135000	      1612	80000d78	0076ecb3	or	x25,x13,x7	 x13:0x00001fff  x7:0xdae75a14 x25=0xdae75fff
       16145000	      1613	80000d7c	cb286213	ori	x4,x16,-846	 x16:0x80009fc4  x4=0xfffffff6
       16155000	      1614	80000d80	00ee5863	bge	x28,x14,80000d90	 x28:0x00000000 x14:0x00000000
       16165000	      1615	00000000	00000013	addi	x0,x0,0	  x0:0x00000000
       16175000	      1616	80000d8c	00000013	addi	x0,x0,0	  x0:0x00000000
       16185000	      1617	80000d90	d466a8b7	lui	x17,0xd466a	 x17=0xd466a000
       16195000	      1618	80000d94	0169f5b3	and	x11,x19,x22	 x19:0xffffffde x22:0xff3fff9c x11=0xff3fff9c
       16205000	      1619	80000d98	40ced133	sra	x2,x29,x12	 x29:0x2518a5fc x12:0xffc2bc99  x2=0x00000012
       16215000	      1620	80000d9c	0143db33	srl	x22,x7,x20	  x7:0xdae75a14 x20:0x00000004 x22=0x0dae75a1
       16225000	      1621	80000da0	01d8b0b3	sltu	x1,x17,x29	 x17:0xd466a000 x29:0x2518a5fc  x1=0x00000000
       16235000	      1622	80000da4	414481b3	sub	x3,x9,x20	  x9:0xffffffce x20:0x00000004  x3=0xffffffca
       16245000	      1623	80000da8	5f652117	auipc	x2,0x5f652	  x2=0xdf652da4
       16255000	      1624	80000dac	04ba6863	bltu	x20,x11,80000dfc	 x20:0x00000004 x11:0xff3fff9c
       16265000	      1625	00000000	00000013	addi	x0,x0,0	  x0:0x00000000
       16275000	      1626	80000df8	00000013	addi	x0,x0,0	  x0:0x00000000
       16285000	      1627	80000dfc	a62abd97	auipc	x27,0xa62ab	 x27=0x262abdf8
       16295000	      1628	80000e00	01914db3	xor	x27,x2,x25	  x2:0xdf652da4 x25:0xdae75fff x27=0x0582725b
       16305000	      1629	80000e04	01640663	beq	x8,x22,80000e10	  x8:0x80009f64 x22:0x0dae75a1
       16315000	      1630	80000e08	6e202217	auipc	x4,0x6e202	  x4=0xee202e04
       16325000	      1631	80000e0c	030dfe63	bgeu	x27,x16,80000e48	 x27:0x0582725b x16:0x80009fc4
       16335000	      1632	80000e10	00908db3	add	x27,x1,x9	  x1:0x00000000  x9:0xffffffce x27=0xffffffce
       16345000	      1633	80000e14	d9230493	addi	x9,x6,-622	  x6:0xffffff05  x9=0xfffffc97
       16355000	      1634	80000e18	004cf0b3	and	x1,x25,x4	 x25:0xdae75fff  x4:0xee202e04  x1=0xca200e04
       16365000	      1635	80000e1c	b8807b13	andi	x22,x0,-1144	  x0:0x00000000 x22=0x00000000
       16375000	      1636	80000e20	eeac2e17	auipc	x28,0xeeac2	 x28=0x6eac2e1c
       16385000	      1637	80000e24	000a5313	srli	x6,x20,0x0	 x20:0x00000004  x6=0x00000004
       16395000	      1638	80000e28	757efbb7	lui	x23,0x757ef	 x23=0x757ef000
       16405000	      1639	80000e2c	004e98b3	sll	x17,x29,x4	 x29:0x2518a5fc  x4:0xee202e04 x17=0x518a5fc0
       16415000	      1640	80000e30	8d330397	auipc	x7,0x8d330	  x7=0x0d330e2c
       16425000	      1641	80000e34	004850b3	srl	x1,x16,x4	 x16:0x80009fc4  x4:0xee202e04  x1=0x080009fc
       16435000	      1642	80000e38	40755033	sra	x0,x10,x7	 x10:0x00000000  x7:0x0d330e2c
       16445000	      1643	80000e3c	41b3d733	sra	x14,x7,x27	  x7:0x0d330e2c x27:0xffffffce x14=0x000034cc
       16455000	      1644	80000e40	00579c33	sll	x24,x15,x5	 x15:0x5ae7dbca  x5:0x5ae7e0d3 x24=0xde500000
       16465000	      1645	80000e44	c5d12213	slti	x4,x2,-931	  x2:0xdf652da4  x4=0x00000001
       16475000	      1646	80000e48	03e47a63	bgeu	x8,x30,80000e7c	  x8:0x80009f64 x30:0x00000001
       16485000	      1647	00000000	00000013	addi	x0,x0,0	  x0:0x00000000
       16495000	      1648	80000e78	00000013	addi	x0,x0,0	  x0:0x00000000
       16505000	      1649	80000e7c	008307b3	add	x15,x6,x8	  x6:0x00000004  x8:0x80009f64 x15=0x80009f68
       16515000	      1650	80000e80	25b3cc13	xori	x24,x7,603	  x7:0x0d330e2c x24=0x0d330c77
       16525000	      1651	80000e84	01398db3	add	x27,x19,x19	 x19:0xffffffde x19:0xffffffde x27=0xffffffbc
       16535000	      1652	80000e88	00407ab3	and	x21,x0,x4	  x0:0x00000000  x4:0x00000001 x21=0x00000000
       16545000	      1653	80000e8c	03df8863	beq	x31,x29,80000ebc	 x31:0xfc2bc990 x29:0x2518a5fc
       16555000	      1654	80000e90	ffba3f13	sltiu	x30,x20,-5	 x20:0x00000004 x30=0x00000001
       16565000	      1655	80000e94	f81d6393	ori	x7,x26,-127	 x26:0x00000000  x7=0xffffff81
       16575000	      1656	80000e98	00571333	sll	x6,x14,x5	 x14:0x000034cc  x5:0x5ae7e0d3  x6=0xa6600000
       16585000	      1657	80000e9c	002fb8b3	sltu	x17,x31,x2	 x31:0xfc2bc990  x2:0xdf652da4 x17=0x00000000
       16595000	      1658	80000ea0	00de7133	and	x2,x28,x13	 x28:0x6eac2e1c x13:0x00001fff  x2=0x00000e1c
       16605000	      1659	80000ea4	00e5d313	srli	x6,x11,0xe	 x11:0xff3fff9c  x6=0x0003fcff
       16615000	      1660	80000ea8	02bef263	bgeu	x29,x11,80000ecc	 x29:0x2518a5fc x11:0xff3fff9c
       16625000	      1661	80000eac	011e3233	sltu	x4,x28,x17	 x28:0x6eac2e1c x17:0x00000000  x4=0x00000000
       16635000	      1662	80000eb0	000f7733	and	x14,x30,x0	 x30:0x00000001  x0:0x00000000 x14=0x00000000
       16645000	      1663	80000eb4	ff1cc993	xori	x19,x25,-15	 x25:0xdae75fff x19=0x2518a00e
       16655000	      1664	80000eb8	04051863	bne	x10,x0,80000f08	 x10:0x00000000  x0:0x00000000
       16665000	      1665	80000ebc	dc5fb313	sltiu	x6,x31,-571	 x31:0xfc2bc990  x6=0x00000001
       16675000	      1666	80000ec0	030f9e63	bne	x31,x16,80000efc	 x31:0xfc2bc990 x16:0x80009fc4
       16685000	      1667	00000000	00000013	addi	x0,x0,0	  x0:0x00000000
       16695000	      1668	80000ef8	00000013	addi	x0,x0,0	  x0:0x00000000
       16705000	      1669	80000efc	01d51f93	slli	x31,x10,0x1d	 x10:0x00000000 x31=0x00000000
       16715000	      1670	80000f00	01c194b3	sll	x9,x3,x28	  x3:0xffffffca x28:0x6eac2e1c  x9=0xa0000000
       16725000	      1671	80000f04	014266b3	or	x13,x4,x20	  x4:0x00000000 x20:0x00000004 x13=0x00000004
       16735000	      1672	80000f08	01ce5b33	srl	x22,x28,x28	 x28:0x6eac2e1c x28:0x6eac2e1c x22=0x00000006
       16745000	      1673	80000f0c	948337b7	lui	x15,0x94833	 x15=0x94833000
       16755000	      1674	80000f10	0030ca33	xor	x20,x1,x3	  x1:0x080009fc  x3:0xffffffca x20=0xf7fff636
       16765000	      1675	80000f14	6ded7697	auipc	x13,0x6ded7	 x13=0xeded7f10
       16775000	      1676	80000f18	01c28d33	add	x26,x5,x28	  x5:0x5ae7e0d3 x28:0x6eac2e1c x26=0xc9940eef
       16785000	      1677	80000f1c	03210e63	beq	x2,x18,80000f58	  x2:0x00000e1c x18:0x00004000
       16795000	      1678	80000f20	01057cb3	and	x25,x10,x16	 x10:0x00000000 x16:0x80009fc4 x25=0x00000000
       16805000	      1679	80000f24	1206aa13	slti	x20,x13,288	 x13:0xeded7f10 x20=0x00000001
       16815000	      1680	80000f28	032c1e63	bne	x24,x18,80000f64	 x24:0x0d330c77 x18:0x00004000
       16825000	      1681	00000000	00000013	addi	x0,x0,0	  x0:0x00000000
       16835000	      1682	80000f60	00000013	addi	x0,x0,0	  x0:0x00000000
       16845000	      1683	80000f64	0362d463	bge	x5,x22,80000f8c	  x5:0x5ae7e0d3 x22:0x00000006
       16855000	      1684	00000000	00000013	addi	x0,x0,0	  x0:0x00000000
       16865000	      1685	80000f88	00000013	addi	x0,x0,0	  x0:0x00000000
       16875000	      1686	80000f8c	0010aa33	slt	x20,x1,x1	  x1:0x080009fc  x1:0x080009fc x20=0x00000000
       16885000	      1687	80000f90	6fadf493	andi	x9,x27,1786	 x27:0xffffffbc  x9=0x000006b8
       16895000	      1688	80000f94	004d5193	srli	x3,x26,0x4	 x26:0xc9940eef  x3=0x0c9940ee
       16905000	      1689	80000f98	02fa0e63	beq	x20,x15,80000fd4	 x20:0x00000000 x15:0x94833000
       16915000	      1690	80000f9c	749e79b7	lui	x19,0x749e7	 x19=0x749e7000
       16925000	      1691	80000fa0	010b4e33	xor	x28,x22,x16	 x22:0x00000006 x16:0x80009fc4 x28=0x80009fc2
       16935000	      1692	80000fa4	f71a6b17	auipc	x22,0xf71a6	 x22=0x771a6fa0
       16945000	      1693	80000fa8	01d61293	slli	x5,x12,0x1d	 x12:0xffc2bc99  x5=0x20000000
       16955000	      1694	80000fac	662dbb13	sltiu	x22,x27,1634	 x27:0xffffffbc x22=0x00000000
       16965000	      1695	80000fb0	00614eb3	xor	x29,x2,x6	  x2:0x00000e1c  x6:0x00000001 x29=0x00000e1d
       16975000	      1696	80000fb4	41db01b3	sub	x3,x22,x29	 x22:0x00000000 x29:0x00000e1d  x3=0xfffff1e3
       16985000	      1697	80000fb8	cf310f13	addi	x30,x2,-781	  x2:0x00000e1c x30=0x00000b0f
       16995000	      1698	80000fbc	41080033	sub	x0,x16,x16	 x16:0x80009fc4 x16:0x80009fc4
       17005000	      1699	80000fc0	e320a393	slti	x7,x1,-462	  x1:0x080009fc  x7=0x00000000
       17015000	      1700	80000fc4	40acd493	srai	x9,x25,0xa	 x25:0x00000000  x9=0x00000000
       17025000	      1701	80000fc8	19683b13	sltiu	x22,x16,406	 x16:0x80009fc4 x22=0x00000000
       17035000	      1702	80000fcc	54103b93	sltiu	x23,x0,1345	  x0:0x00000000 x23=0x00000001
       17045000	      1703	80000fd0	04f36663	bltu	x6,x15,8000101c	  x6:0x00000001 x15:0x94833000
       17055000	      1704	00000000	00000013	addi	x0,x0,0	  x0:0x00000000
       17065000	      1705	80001018	00000013	addi	x0,x0,0	  x0:0x00000000
       17075000	      1706	8000101c	40f98f33	sub	x30,x19,x15	 x19:0x749e7000 x15:0x94833000 x30=0xe01b4000
       17085000	      1707	80001020	00000013	addi	x0,x0,0	  x0:0x00000000
       17095000	      1708	80001024	78483d13	sltiu	x26,x16,1924	 x16:0x80009fc4 x26=0x00000000
       17105000	      1709	80001028	016f17b3	sll	x15,x30,x22	 x30:0xe01b4000 x22:0x00000000 x15=0xe01b4000
       17115000	      1710	8000102c	68b1a197	auipc	x3,0x68b1a	  x3=0xe8b1b028
       17125000	      1711	80001030	20da3393	sltiu	x7,x20,525	 x20:0x00000000  x7=0x00000001
       17135000	      1712	80001034	8e01b493	sltiu	x9,x3,-1824	  x3:0xe8b1b028  x9=0x00000001
       17145000	      1713	80001038	c0800e13	addi	x28,x0,-1016	  x0:0x00000000 x28=0xfffffc08
       17155000	      1714	8000103c	0151e733	or	x14,x3,x21	  x3:0xe8b1b028 x21:0x00000000 x14=0xe8b1b028
       17165000	      1715	80001040	02b21463	bne	x4,x11,80001068	  x4:0x00000000 x11:0xff3fff9c
       17175000	      1716	00000000	00000013	addi	x0,x0,0	  x0:0x00000000
       17185000	      1717	80001064	00000013	addi	x0,x0,0	  x0:0x00000000
       17195000	      1718	80001068	001f1663	bne	x30,x1,80001074	 x30:0xe01b4000  x1:0x080009fc
       17205000	      1719	00000000	00000013	addi	x0,x0,0	  x0:0x00000000
       17215000	      1720	80001070	00000013	addi	x0,x0,0	  x0:0x00000000
       17225000	      1721	80001074	011f6bb3	or	x23,x30,x17	 x30:0xe01b4000 x17:0x00000000 x23=0xe01b4000
       17235000	      1722	80001078	5ecaf193	andi	x3,x21,1516	 x21:0x00000000  x3=0x00000000
       17245000	      1723	8000107c	01e19693	slli	x13,x3,0x1e	  x3:0x00000000 x13=0x00000000
       17255000	      1724	80001080	cb7ae193	ori	x3,x21,-841	 x21:0x00000000  x3=0xfffffcb7
       17265000	      1725	80001084	01a93233	sltu	x4,x18,x26	 x18:0x00004000 x26:0x00000000  x4=0x00000000
       17275000	      1726	80001088	008b4f33	xor	x30,x22,x8	 x22:0x00000000  x8:0x80009f64 x30=0x80009f64
       17285000	      1727	8000108c	01309463	bne	x1,x19,80001094	  x1:0x080009fc x19:0x749e7000
       17295000	      1728	00000000	00000013	addi	x0,x0,0	  x0:0x00000000
       17305000	      1729	80001090	00000013	addi	x0,x0,0	  x0:0x00000000
       17315000	      1730	80001094	0062da33	srl	x20,x5,x6	  x5:0x20000000  x6:0x00000001 x20=0x10000000
       17325000	      1731	80001098	7aca7a93	andi	x21,x20,1964	 x20:0x10000000 x21=0x00000000
       17335000	      1732	8000109c	404ad6b3	sra	x13,x21,x4	 x21:0x00000000  x4:0x00000000 x13=0x00000000
       17345000	      1733	800010a0	fedc7913	andi	x18,x24,-19	 x24:0x0d330c77 x18=0x0d330c65
       17355000	      1734	800010a4	02047263	bgeu	x8,x0,800010c8	  x8:0x80009f64  x0:0x00000000
       17365000	      1735	00000000	00000013	addi	x0,x0,0	  x0:0x00000000
       17375000	      1736	800010c4	00000013	addi	x0,x0,0	  x0:0x00000000
       17385000	      1737	800010c8	00009213	slli	x4,x1,0x0	  x1:0x080009fc  x4=0x080009fc
       17395000	      1738	800010cc	54fe0a13	addi	x20,x28,1359	 x28:0xfffffc08 x20=0x00000157
       17405000	      1739	800010d0	00056663	bltu	x10,x0,800010dc	 x10:0x00000000  x0:0x00000000
       17415000	      1740	800010d4	00aab333	sltu	x6,x21,x10	 x21:0x00000000 x10:0x00000000  x6=0x00000000
       17425000	      1741	800010d8	00dffc63	bgeu	x31,x13,800010f0	 x31:0x00000000 x13:0x00000000
       17435000	      1742	00000000	00000013	addi	x0,x0,0	  x0:0x00000000
       17445000	      1743	800010ec	00000013	addi	x0,x0,0	  x0:0x00000000
       17455000	      1744	800010f0	8fface93	xori	x29,x21,-1793	 x21:0x00000000 x29=0xfffff8ff
       17465000	      1745	800010f4	03d84e63	blt	x16,x29,80001130	 x16:0x80009fc4 x29:0xfffff8ff
       17475000	      1746	00000000	00000013	addi	x0,x0,0	  x0:0x00000000
       17485000	      1747	8000112c	00000013	addi	x0,x0,0	  x0:0x00000000
       17495000	      1748	80001130	00231fb3	sll	x31,x6,x2	  x6:0x00000000  x2:0x00000e1c x31=0x00000000
       17505000	      1749	80001134	03d6de63	bge	x13,x29,80001170	 x13:0x00000000 x29:0xfffff8ff
       17515000	      1750	00000000	00000013	addi	x0,x0,0	  x0:0x00000000
       17525000	      1751	8000116c	00000013	addi	x0,x0,0	  x0:0x00000000
       17535000	      1752	80001170	0035b2b3	sltu	x5,x11,x3	 x11:0xff3fff9c  x3:0xfffffcb7  x5=0x00000001
       17545000	      1753	80001174	475b7713	andi	x14,x22,1141	 x22:0x00000000 x14=0x00000000
       17555000	      1754	80001178	1fdd0693	addi	x13,x26,509	 x26:0x00000000 x13=0x000001fd
       17565000	      1755	8000117c	0088a033	slt	x0,x17,x8	 x17:0x00000000  x8:0x80009f64
       17575000	      1756	80001180	03429e63	bne	x5,x20,800011bc	  x5:0x00000001 x20:0x00000157
       17585000	      1757	00000000	00000013	addi	x0,x0,0	  x0:0x00000000
       17595000	      1758	800011b8	00000013	addi	x0,x0,0	  x0:0x00000000
       17605000	      1759	800011bc	013c7d33	and	x26,x24,x19	 x24:0x0d330c77 x19:0x749e7000 x26=0x04120000
       17615000	      1760	800011c0	01e907b3	add	x15,x18,x30	 x18:0x0d330c65 x30:0x80009f64 x15=0x8d33abc9
       17625000	      1761	800011c4	bdec4a37	lui	x20,0xbdec4	 x20=0xbdec4000
       17635000	      1762	800011c8	00636c63	bltu	x6,x6,800011e0	  x6:0x00000000  x6:0x00000000
       17645000	      1763	800011cc	019cd293	srli	x5,x25,0x19	 x25:0x00000000  x5=0x00000000
       17655000	      1764	800011d0	01717d33	and	x26,x2,x23	  x2:0x00000e1c x23:0xe01b4000 x26=0x00000000
       17665000	      1765	800011d4	57cfd1b7	lui	x3,0x57cfd	  x3=0x57cfd000
       17675000	      1766	800011d8	00882ab3	slt	x21,x16,x8	 x16:0x80009fc4  x8:0x80009f64 x21=0x00000000
       17685000	      1767	800011dc	022b0863	beq	x22,x2,8000120c	 x22:0x00000000  x2:0x00000e1c
       17695000	      1768	800011e0	26397513	andi	x10,x18,611	 x18:0x0d330c65 x10=0x00000061
       17705000	      1769	800011e4	4f7d6717	auipc	x14,0x4f7d6	 x14=0xcf7d71e0
       17715000	      1770	800011e8	000ff233	and	x4,x31,x0	 x31:0x00000000  x0:0x00000000  x4=0x00000000
       17725000	      1771	800011ec	01931b93	slli	x23,x6,0x19	  x6:0x00000000 x23=0x00000000
       17735000	      1772	800011f0	008e40b3	xor	x1,x28,x8	 x28:0xfffffc08  x8:0x80009f64  x1=0x7fff636c
       17745000	      1773	800011f4	00000013	addi	x0,x0,0	  x0:0x00000000
       17755000	      1774	800011f8	00597cb3	and	x25,x18,x5	 x18:0x0d330c65  x5:0x00000000 x25=0x00000000
       17765000	      1775	800011fc	dfd8f593	andi	x11,x17,-515	 x17:0x00000000 x11=0x00000000
       17775000	      1776	80001200	00411db3	sll	x27,x2,x4	  x2:0x00000e1c  x4:0x00000000 x27=0x00000e1c
       17785000	      1777	80001204	00aa08b3	add	x17,x20,x10	 x20:0xbdec4000 x10:0x00000061 x17=0xbdec4061
       17795000	      1778	80001208	00265eb3	srl	x29,x12,x2	 x12:0xffc2bc99  x2:0x00000e1c x29=0x0000000f
       17805000	      1779	8000120c	0011fab3	and	x21,x3,x1	  x3:0x57cfd000  x1:0x7fff636c x21=0x57cf4000
       17815000	      1780	80001210	03d2d863	bge	x5,x29,80001240	  x5:0x00000000 x29:0x0000000f
       17825000	      1781	80001214	01d2e3b3	or	x7,x5,x29	  x5:0x00000000 x29:0x0000000f  x7=0x0000000f
       17835000	      1782	80001218	02486e63	bltu	x16,x4,80001254	 x16:0x80009fc4  x4:0x00000000
       17845000	      1783	8000121c	842d2993	slti	x19,x26,-1982	 x26:0x00000000 x19=0x00000000
       17855000	      1784	80001220	cd938393	addi	x7,x7,-807	  x7:0x0000000f  x7=0xfffffce8
       17865000	      1785	80001224	0164ce33	xor	x28,x9,x22	  x9:0x00000001 x22:0x00000000 x28=0x00000001
       17875000	      1786	80001228	2b774013	xori	x0,x14,695	 x14:0xcf7d71e0
       17885000	      1787	8000122c	4179d0b3	sra	x1,x19,x23	 x19:0x00000000 x23:0x00000000  x1=0x00000000
       17895000	      1788	80001230	24386493	ori	x9,x16,579	 x16:0x80009fc4  x9=0x80009fc7
       17905000	      1789	80001234	40470d33	sub	x26,x14,x4	 x14:0xcf7d71e0  x4:0x00000000 x26=0xcf7d71e0
       17915000	      1790	80001238	009c0333	add	x6,x24,x9	 x24:0x0d330c77  x9:0x80009fc7  x6=0x8d33ac3e
       17925000	      1791	8000123c	01ba4263	blt	x20,x27,80001240	 x20:0xbdec4000 x27:0x00000e1c
       17935000	      1792	00000000	00000013	addi	x0,x0,0	  x0:0x00000000
       17945000	      1793	8000123c	00000013	addi	x0,x0,0	  x0:0x00000000
       17955000	      1794	80001240	9b8ce913	ori	x18,x25,-1608	 x25:0x00000000 x18=0xfffff9b8
       17965000	      1795	80001244	b4d58893	addi	x17,x11,-1203	 x11:0x00000000 x17=0xfffffb4d
       17975000	      1796	80001248	d9044a13	xori	x20,x8,-624	  x8:0x80009f64 x20=0x7fff62f4
       17985000	      1797	8000124c	40f75d33	sra	x26,x14,x15	 x14:0xcf7d71e0 x15:0x8d33abc9 x26=0xffe7beb8
       17995000	      1798	80001250	0036ff33	and	x30,x13,x3	 x13:0x000001fd  x3:0x57cfd000 x30=0x00000000
       18005000	      1799	80001254	00310db3	add	x27,x2,x3	  x2:0x00000e1c  x3:0x57cfd000 x27=0x57cfde1c
       18015000	      1800	80001258	004362b3	or	x5,x6,x4	  x6:0x8d33ac3e  x4:0x00000000  x5=0x8d33ac3e
       18025000	      1801	8000125c	01a45493	srli	x9,x8,0x1a	  x8:0x80009f64  x9=0x00000020
       18035000	      1802	80001260	02a9de63	bge	x19,x10,8000129c	 x19:0x00000000 x10:0x00000061
       18045000	      1803	80001264	595a4593	xori	x11,x20,1429	 x20:0x7fff62f4 x11=0x7fff6761
       18055000	      1804	80001268	02cf9a63	bne	x31,x12,8000129c	 x31:0x00000000 x12:0xffc2bc99
       18065000	      1805	00000000	00000013	addi	x0,x0,0	  x0:0x00000000
       18075000	      1806	80001298	00000013	addi	x0,x0,0	  x0:0x00000000
       18085000	      1807	8000129c	02147863	bgeu	x8,x1,800012cc	  x8:0x80009f64  x1:0x00000000
       18095000	      1808	00000000	00000013	addi	x0,x0,0	  x0:0x00000000
       18105000	      1809	800012c8	00000013	addi	x0,x0,0	  x0:0x00000000
       18115000	      1810	800012cc	01e08463	beq	x1,x30,800012d4	  x1:0x00000000 x30:0x00000000
       18125000	      1811	00000000	00000013	addi	x0,x0,0	  x0:0x00000000
       18135000	      1812	800012d0	00000013	addi	x0,x0,0	  x0:0x00000000
       18145000	      1813	800012d4	005b8d33	add	x26,x23,x5	 x23:0x00000000  x5:0x8d33ac3e x26=0x8d33ac3e
       18155000	      1814	800012d8	01014b33	xor	x22,x2,x16	  x2:0x00000e1c x16:0x80009fc4 x22=0x800091d8
       18165000	      1815	800012dc	40215b13	srai	x22,x2,0x2	  x2:0x00000e1c x22=0x00000387
       18175000	      1816	800012e0	0187efb3	or	x31,x15,x24	 x15:0x8d33abc9 x24:0x0d330c77 x31=0x8d33afff
       18185000	      1817	800012e4	01a77663	bgeu	x14,x26,800012f0	 x14:0xcf7d71e0 x26:0x8d33ac3e
       18195000	      1818	00000000	00000013	addi	x0,x0,0	  x0:0x00000000
       18205000	      1819	800012ec	00000013	addi	x0,x0,0	  x0:0x00000000
       18215000	      1820	800012f0	32464e93	xori	x29,x12,804	 x12:0xffc2bc99 x29=0xffc2bfbd
       18225000	      1821	800012f4	ace88f13	addi	x30,x17,-1330	 x17:0xfffffb4d x30=0xfffff61b
       18235000	      1822	800012f8	00546ab3	or	x21,x8,x5	  x8:0x80009f64  x5:0x8d33ac3e x21=0x8d33bf7e
       18245000	      1823	800012fc	019783b3	add	x7,x15,x25	 x15:0x8d33abc9 x25:0x00000000  x7=0x8d33abc9
       18255000	      1824	80001300	00ebb1b3	sltu	x3,x23,x14	 x23:0x00000000 x14:0xcf7d71e0  x3=0x00000001
       18265000	      1825	80001304	00442303	lw	x6,4(x8)	  x8:0x80009f64  x6=0x800017cc PA:0x80009f68
       18275000	      1826	80001308	00840413	addi	x8,x8,8	  x8:0x80009f64  x8=0x80009f6c
       18285000	      1827	8000130c	0011ac33	slt	x24,x3,x1	  x3:0x00000001  x1:0x00000000 x24=0x00000000
       18295000	      1828	80001310	00130793	addi	x15,x6,1	  x6:0x800017cc x15=0x800017cd
       18305000	      1829	80001314	000787e7	jalr	x15,x15,0	 x15:0x800017cd x15=0x80001314
       18315000	      1830	00000000	00000013	addi	x0,x0,0	  x0:0x00000000
       18325000	      1831	800017cc	00000013	addi	x0,x0,0	  x0:0x00000000
       18335000	      1832	800017d0	036cf663	bgeu	x25,x22,800017fc	 x25:0x00000000 x22:0x00000387
       18345000	      1833	800017d4	01ecf0b3	and	x1,x25,x30	 x25:0x00000000 x30:0xfffff61b  x1=0x00000000
       18355000	      1834	800017d8	00b3f463	bgeu	x7,x11,800017e0	  x7:0x8d33abc9 x11:0x7fff6761
       18365000	      1835	00000000	00000013	addi	x0,x0,0	  x0:0x00000000
       18375000	      1836	800017dc	00000013	addi	x0,x0,0	  x0:0x00000000
       18385000	      1837	800017e0	411581b3	sub	x3,x11,x17	 x11:0x7fff6761 x17:0xfffffb4d  x3=0x7fff6c14
       18395000	      1838	800017e4	413686b3	sub	x13,x13,x19	 x13:0x000001fd x19:0x00000000 x13=0x000001fd
       18405000	      1839	800017e8	00f239b3	sltu	x19,x4,x15	  x4:0x00000000 x15:0x80001314 x19=0x00000001
       18415000	      1840	800017ec	c5693f93	sltiu	x31,x18,-938	 x18:0xfffff9b8 x31=0x00000001
       18425000	      1841	800017f0	03870e63	beq	x14,x24,8000182c	 x14:0xcf7d71e0 x24:0x00000000
       18435000	      1842	800017f4	01b6f133	and	x2,x13,x27	 x13:0x000001fd x27:0x57cfde1c  x2=0x0000001c
       18445000	      1843	800017f8	9c6362b7	lui	x5,0x9c636	  x5=0x9c636000
       18455000	      1844	800017fc	004eb4b3	sltu	x9,x29,x4	 x29:0xffc2bfbd  x4:0x00000000  x9=0x00000000
       18465000	      1845	80001800	00cd67b3	or	x15,x26,x12	 x26:0x8d33ac3e x12:0xffc2bc99 x15=0xfff3bcbf
       18475000	      1846	80001804	41a95c13	srai	x24,x18,0x1a	 x18:0xfffff9b8 x24=0xffffffff
       18485000	      1847	80001808	01c60e33	add	x28,x12,x28	 x12:0xffc2bc99 x28:0x00000001 x28=0xffc2bc9a
       18495000	      1848	8000180c	ab514193	xori	x3,x2,-1355	  x2:0x0000001c  x3=0xfffffaa9
       18505000	      1849	80001810	033e5c63	bge	x28,x19,80001848	 x28:0xffc2bc9a x19:0x00000001
       18515000	      1850	80001814	01021233	sll	x4,x4,x16	  x4:0x00000000 x16:0x80009fc4  x4=0x00000000
       18525000	      1851	80001818	84170093	addi	x1,x14,-1983	 x14:0xcf7d71e0  x1=0xcf7d6a21
       18535000	      1852	8000181c	03acde63	bge	x25,x26,80001858	 x25:0x00000000 x26:0x8d33ac3e
       18545000	      1853	00000000	00000013	addi	x0,x0,0	  x0:0x00000000
       18555000	      1854	80001854	00000013	addi	x0,x0,0	  x0:0x00000000
       18565000	      1855	80001858	00d36533	or	x10,x6,x13	  x6:0x800017cc x13:0x000001fd x10=0x800017fd
       18575000	      1856	8000185c	00077db3	and	x27,x14,x0	 x14:0xcf7d71e0  x0:0x00000000 x27=0x00000000
       18585000	      1857	80001860	4079dab3	sra	x21,x19,x7	 x19:0x00000001  x7:0x8d33abc9 x21=0x00000000
       18595000	      1858	80001864	70030313	addi	x6,x6,1792	  x6:0x800017cc  x6=0x80001ecc
       18605000	      1859	80001868	01054933	xor	x18,x10,x16	 x10:0x800017fd x16:0x80009fc4 x18=0x00008839
       18615000	      1860	8000186c	6683b013	sltiu	x0,x7,1640	  x7:0x8d33abc9
       18625000	      1861	80001870	00569893	slli	x17,x13,0x5	 x13:0x000001fd x17=0x00003fa0
       18635000	      1862	80001874	79512a93	slti	x21,x2,1941	  x2:0x0000001c x21=0x00000001
       18645000	      1863	80001878	00f878b3	and	x17,x16,x15	 x16:0x80009fc4 x15:0xfff3bcbf x17=0x80009c84
       18655000	      1864	8000187c	405ad393	srai	x7,x21,0x5	 x21:0x00000001  x7=0x00000000
       18665000	      1865	80001880	036fe663	bltu	x31,x22,800018ac	 x31:0x00000001 x22:0x00000387
       18675000	      1866	00000000	00000013	addi	x0,x0,0	  x0:0x00000000
       18685000	      1867	800018a8	00000013	addi	x0,x0,0	  x0:0x00000000
       18695000	      1868	800018ac	419f84b3	sub	x9,x31,x25	 x31:0x00000001 x25:0x00000000  x9=0x00000001
       18705000	      1869	800018b0	00a437b3	sltu	x15,x8,x10	  x8:0x80009f6c x10:0x800017fd x15=0x00000000
       18715000	      1870	800018b4	40fd5093	srai	x1,x26,0xf	 x26:0x8d33ac3e  x1=0xffff1a67
       18725000	      1871	800018b8	a802eb93	ori	x23,x5,-1408	  x5:0x9c636000 x23=0xfffffa80
       18735000	      1872	800018bc	003f1db3	sll	x27,x30,x3	 x30:0xfffff61b  x3:0xfffffaa9 x27=0xffec3600
       18745000	      1873	800018c0	41afd593	srai	x11,x31,0x1a	 x31:0x00000001 x11=0x00000000
       18755000	      1874	800018c4	410e0fb3	sub	x31,x28,x16	 x28:0xffc2bc9a x16:0x80009fc4 x31=0x7fc21cd6
       18765000	      1875	800018c8	a22ff313	andi	x6,x31,-1502	 x31:0x7fc21cd6  x6=0x7fc21802
       18775000	      1876	800018cc	05455463	bge	x10,x20,80001914	 x10:0x800017fd x20:0x7fff62f4
       18785000	      1877	800018d0	00d94333	xor	x6,x18,x13	 x18:0x00008839 x13:0x000001fd  x6=0x000089c4
       18795000	      1878	800018d4	6a68ae93	slti	x29,x17,1702	 x17:0x80009c84 x29=0x00000001
       18805000	      1879	800018d8	1d4bbc13	sltiu	x24,x23,468	 x23:0xfffffa80 x24=0x00000000
       18815000	      1880	800018dc	04874663	blt	x14,x8,80001928	 x14:0xcf7d71e0  x8:0x80009f6c
       18825000	      1881	800018e0	1cd86f13	ori	x30,x16,461	 x16:0x80009fc4 x30=0x80009fcd
       18835000	      1882	800018e4	05d78663	beq	x15,x29,80001930	 x15:0x00000000 x29:0x00000001
       18845000	      1883	800018e8	41a0db93	srai	x23,x1,0x1a	  x1:0xffff1a67 x23=0xffffffff
       18855000	      1884	800018ec	00d163b3	or	x7,x2,x13	  x2:0x0000001c x13:0x000001fd  x7=0x000001fd
       18865000	      1885	800018f0	00c51f33	sll	x30,x10,x12	 x10:0x800017fd x12:0xffc2bc99 x30=0xfa000000
       18875000	      1886	800018f4	401a5693	srai	x13,x20,0x1	 x20:0x7fff62f4 x13=0x3fffb17a
       18885000	      1887	800018f8	00aad663	bge	x21,x10,80001904	 x21:0x00000001 x10:0x800017fd
       18895000	      1888	00000000	00000013	addi	x0,x0,0	  x0:0x00000000
       18905000	      1889	80001900	00000013	addi	x0,x0,0	  x0:0x00000000
       18915000	      1890	80001904	0a76e663	bltu	x13,x7,800019b0	 x13:0x3fffb17a  x7:0x000001fd
       18925000	      1891	80001908	536949b7	lui	x19,0x53694	 x19=0x53694000
       18935000	      1892	8000190c	40cd0cb3	sub	x25,x26,x12	 x26:0x8d33ac3e x12:0xffc2bc99 x25=0x8d70efa5
       18945000	      1893	80001910	01f91313	slli	x6,x18,0x1f	 x18:0x00008839  x6=0x80000000
       18955000	      1894	80001914	01c01993	slli	x19,x0,0x1c	  x0:0x00000000 x19=0x00000000
       18965000	      1895	80001918	016ae863	bltu	x21,x22,80001928	 x21:0x00000001 x22:0x00000387
       18975000	      1896	00000000	00000013	addi	x0,x0,0	  x0:0x00000000
       18985000	      1897	80001924	00000013	addi	x0,x0,0	  x0:0x00000000
       18995000	      1898	80001928	000104b3	add	x9,x2,x0	  x2:0x0000001c  x0:0x00000000  x9=0x0000001c
       19005000	      1899	8000192c	009805b3	add	x11,x16,x9	 x16:0x80009fc4  x9:0x0000001c x11=0x80009fe0
       19015000	      1900	80001930	4e296013	ori	x0,x18,1250	 x18:0x00008839
       19025000	      1901	80001934	0a6a4a63	blt	x20,x6,800019e8	 x20:0x7fff62f4  x6:0x80000000
       19035000	      1902	80001938	1fcfe713	ori	x14,x31,508	 x31:0x7fc21cd6 x14=0x7fc21dfe
       19045000	      1903	8000193c	018dd733	srl	x14,x27,x24	 x27:0xffec3600 x24:0x00000000 x14=0xffec3600
       19055000	      1904	80001940	01d06133	or	x2,x0,x29	  x0:0x00000000 x29:0x00000001  x2=0x00000001
       19065000	      1905	80001944	00007117	auipc	x2,0x7	  x2=0x80008940
       19075000	      1906	80001948	04a10113	addi	x2,x2,74	  x2:0x80008940  x2=0x8000898a
       19085000	      1907	8000194c	1da102a3	sb	x26,453(x2)	  x2:0x8000898a x26:0x8d33ac3e PA:0x80008b4f
       19095000	      1908	80001950	65810da3	sb	x24,1627(x2)	  x2:0x8000898a x24:0x00000000 PA:0x80008fe5
       19105000	      1909	80001954	64a10da3	sb	x10,1627(x2)	  x2:0x8000898a x10:0x800017fd PA:0x80008fe5
       19115000	      1910	80001958	65b10083	lb	x1,1627(x2)	  x2:0x8000898a  x1=0xfffffffd PA:0x80008fe5
       19125000	      1911	8000195c	64610da3	sb	x6,1627(x2)	  x2:0x8000898a  x6:0x80000000 PA:0x80008fe5
       19135000	      1912	80001960	4aa12b83	lw	x23,1194(x2)	  x2:0x8000898a x23=0x1c1d1e1f PA:0x80008e34
       19145000	      1913	80001964	f1c10da3	sb	x28,-229(x2)	  x2:0x8000898a x28:0xffc2bc9a PA:0x800088a5
       19155000	      1914	80001968	2ac15b83	lhu	x23,684(x2)	  x2:0x8000898a x23=0x00001c1d PA:0x80008c36
       19165000	      1915	8000196c	8bbc8c93	addi	x25,x25,-1861	 x25:0x8d70efa5 x25=0x8d70e860
       19175000	      1916	80001970	edc10ca3	sb	x28,-295(x2)	  x2:0x8000898a x28:0xffc2bc9a PA:0x80008863
       19185000	      1917	80001974	ed914a03	lbu	x20,-295(x2)	  x2:0x8000898a x20=0x0000009a PA:0x80008863
       19195000	      1918	00000000	00000013	addi	x0,x0,0	  x0:0x00000000
       19205000	      1919	80001978	0d4104a3	sb	x20,201(x2)	  x2:0x8000898a x20:0x0000009a PA:0x80008a53
       19215000	      1920	8000197c	ea614f03	lbu	x30,-346(x2)	  x2:0x8000898a x30=0x0000001b PA:0x80008830
       19225000	      1921	80001980	e31cbf13	sltiu	x30,x25,-463	 x25:0x8d70e860 x30=0x00000001
       19235000	      1922	80001984	23b10fa3	sb	x27,575(x2)	  x2:0x8000898a x27:0xffec3600 PA:0x80008bc9
       19245000	      1923	80001988	22d10fa3	sb	x13,575(x2)	  x2:0x8000898a x13:0x3fffb17a PA:0x80008bc9
       19255000	      1924	8000198c	0e514d83	lbu	x27,229(x2)	  x2:0x8000898a x27=0x00000054 PA:0x80008a6f
       19265000	      1925	80001990	44e14503	lbu	x10,1102(x2)	  x2:0x8000898a x10=0x000000c3 PA:0x80008dd8
       19275000	      1926	80001994	44e12a83	lw	x21,1102(x2)	  x2:0x8000898a x21=0xc0c1c2c3 PA:0x80008dd8
       19285000	      1927	80001998	49a19597	auipc	x11,0x49a19	 x11=0xc9a1a994
       19295000	      1928	8000199c	45b11723	sh	x27,1102(x2)	  x2:0x8000898a x27:0x00000054 PA:0x80008dd8
       19305000	      1929	800019a0	9ba07b13	andi	x22,x0,-1606	  x0:0x00000000 x22=0x00000000
       19315000	      1930	800019a4	14a10f03	lb	x30,330(x2)	  x2:0x8000898a x30=0xffffffbf PA:0x80008ad4
       19325000	      1931	800019a8	0100d513	srli	x10,x1,0x10	  x1:0xfffffffd x10=0x0000ffff
       19335000	      1932	800019ac	0029e933	or	x18,x19,x2	 x19:0x00000000  x2:0x8000898a x18=0x8000898a
       19345000	      1933	800019b0	0079e663	bltu	x19,x7,800019bc	 x19:0x00000000  x7:0x000001fd
       19355000	      1934	00000000	00000013	addi	x0,x0,0	  x0:0x00000000
       19365000	      1935	800019b8	00000013	addi	x0,x0,0	  x0:0x00000000
       19375000	      1936	800019bc	2191b513	sltiu	x10,x3,537	  x3:0xfffffaa9 x10=0x00000000
       19385000	      1937	800019c0	c5f56a37	lui	x20,0xc5f56	 x20=0xc5f56000
       19395000	      1938	800019c4	40980333	sub	x6,x16,x9	 x16:0x80009fc4  x9:0x0000001c  x6=0x80009fa8
       19405000	      1939	800019c8	00798133	add	x2,x19,x7	 x19:0x00000000  x7:0x000001fd  x2=0x000001fd
       19415000	      1940	800019cc	5b09ef13	ori	x30,x19,1456	 x19:0x00000000 x30=0x000005b0
       19425000	      1941	800019d0	006c0263	beq	x24,x6,800019d4	 x24:0x00000000  x6:0x80009fa8
       19435000	      1942	800019d4	00381b93	slli	x23,x16,0x3	 x16:0x80009fc4 x23=0x0004fe20
       19445000	      1943	800019d8	00a21c13	slli	x24,x4,0xa	  x4:0x00000000 x24=0x00000000
       19455000	      1944	800019dc	493ec293	xori	x5,x29,1171	 x29:0x00000001  x5=0x00000492
       19465000	      1945	800019e0	40445e93	srai	x29,x8,0x4	  x8:0x80009f6c x29=0xf80009f6
       19475000	      1946	800019e4	0dd68f37	lui	x30,0xdd68	 x30=0x0dd68000
       19485000	      1947	800019e8	2d0f0513	addi	x10,x30,720	 x30:0x0dd68000 x10=0x0dd682d0
       19495000	      1948	800019ec	affd78b7	lui	x17,0xaffd7	 x17=0xaffd7000
       19505000	      1949	800019f0	01389c93	slli	x25,x17,0x13	 x17:0xaffd7000 x25=0x80000000
       19515000	      1950	800019f4	04fa7663	bgeu	x20,x15,80001a40	 x20:0xc5f56000 x15:0x00000000
       19525000	      1951	00000000	00000013	addi	x0,x0,0	  x0:0x00000000
       19535000	      1952	80001a3c	00000013	addi	x0,x0,0	  x0:0x00000000
       19545000	      1953	80001a40	0040e263	bltu	x1,x4,80001a44	  x1:0xfffffffd  x4:0x00000000
       19555000	      1954	80001a44	00000013	addi	x0,x0,0	  x0:0x00000000
       19565000	      1955	80001a48	05637463	bgeu	x6,x22,80001a90	  x6:0x80009fa8 x22:0x00000000
       19575000	      1956	00000000	00000013	addi	x0,x0,0	  x0:0x00000000
       19585000	      1957	80001a8c	00000013	addi	x0,x0,0	  x0:0x00000000
       19595000	      1958	80001a90	01512bb3	slt	x23,x2,x21	  x2:0x000001fd x21:0xc0c1c2c3 x23=0x00000000
       19605000	      1959	80001a94	006d9fb3	sll	x31,x27,x6	 x27:0x00000054  x6:0x80009fa8 x31=0x00005400
       19615000	      1960	80001a98	01d887b3	add	x15,x17,x29	 x17:0xaffd7000 x29:0xf80009f6 x15=0xa7fd79f6
       19625000	      1961	80001a9c	01ca0263	beq	x20,x28,80001aa0	 x20:0xc5f56000 x28:0xffc2bc9a
       19635000	      1962	80001aa0	01e813b3	sll	x7,x16,x30	 x16:0x80009fc4 x30:0x0dd68000  x7=0x80009fc4
       19645000	      1963	80001aa4	30d1d117	auipc	x2,0x30d1d	  x2=0xb0d1eaa0
       19655000	      1964	80001aa8	41c5d0b3	sra	x1,x11,x28	 x11:0xc9a1a994 x28:0xffc2bc9a  x1=0xfffffff2
       19665000	      1965	80001aac	00000013	addi	x0,x0,0	  x0:0x00000000
       19675000	      1966	80001ab0	0199a333	slt	x6,x19,x25	 x19:0x00000000 x25:0x80000000  x6=0x00000000
       19685000	      1967	80001ab4	000a3b33	sltu	x22,x20,x0	 x20:0xc5f56000  x0:0x00000000 x22=0x00000000
       19695000	      1968	80001ab8	01278933	add	x18,x15,x18	 x15:0xa7fd79f6 x18:0x8000898a x18=0x27fe0380
       19705000	      1969	80001abc	405edb33	sra	x22,x29,x5	 x29:0xf80009f6  x5:0x00000492 x22=0xfffffe00
       19715000	      1970	80001ac0	01005663	bge	x0,x16,80001acc	  x0:0x00000000 x16:0x80009fc4
       19725000	      1971	00000000	00000013	addi	x0,x0,0	  x0:0x00000000
       19735000	      1972	80001ac8	00000013	addi	x0,x0,0	  x0:0x00000000
       19745000	      1973	80001acc	00ae47b3	xor	x15,x28,x10	 x28:0xffc2bc9a x10:0x0dd682d0 x15=0xf2143e4a
       19755000	      1974	80001ad0	008042b3	xor	x5,x0,x8	  x0:0x00000000  x8:0x80009f6c  x5=0x80009f6c
       19765000	      1975	80001ad4	40c7d3b3	sra	x7,x15,x12	 x15:0xf2143e4a x12:0xffc2bc99  x7=0xfffffff9
       19775000	      1976	80001ad8	8fc76913	ori	x18,x14,-1796	 x14:0xffec3600 x18=0xfffffefc
       19785000	      1977	80001adc	0155fe33	and	x28,x11,x21	 x11:0xc9a1a994 x21:0xc0c1c2c3 x28=0xc0818080
       19795000	      1978	80001ae0	87c7c513	xori	x10,x15,-1924	 x15:0xf2143e4a x10=0x0debc636
       19805000	      1979	80001ae4	01b2d293	srli	x5,x5,0x1b	  x5:0x80009f6c  x5=0x00000010
       19815000	      1980	80001ae8	5853a693	slti	x13,x7,1413	  x7:0xfffffff9 x13=0x00000001
       19825000	      1981	80001aec	03eb7c63	bgeu	x22,x30,80001b24	 x22:0xfffffe00 x30:0x0dd68000
       19835000	      1982	00000000	00000013	addi	x0,x0,0	  x0:0x00000000
       19845000	      1983	80001b20	00000013	addi	x0,x0,0	  x0:0x00000000
       19855000	      1984	80001b24	0683a517	auipc	x10,0x683a	 x10=0x8683bb20
       19865000	      1985	80001b28	0128a6b7	lui	x13,0x128a	 x13=0x0128a000
       19875000	      1986	80001b2c	006aa333	slt	x6,x21,x6	 x21:0xc0c1c2c3  x6:0x00000000  x6=0x00000001
       19885000	      1987	80001b30	0207f063	bgeu	x15,x0,80001b50	 x15:0xf2143e4a  x0:0x00000000
       19895000	      1988	00000000	00000013	addi	x0,x0,0	  x0:0x00000000
       19905000	      1989	80001b4c	00000013	addi	x0,x0,0	  x0:0x00000000
       19915000	      1990	80001b50	03689663	bne	x17,x22,80001b7c	 x17:0xaffd7000 x22:0xfffffe00
       19925000	      1991	00000000	00000013	addi	x0,x0,0	  x0:0x00000000
       19935000	      1992	80001b78	00000013	addi	x0,x0,0	  x0:0x00000000
       19945000	      1993	80001b7c	00849ab3	sll	x21,x9,x8	  x9:0x0000001c  x8:0x80009f6c x21=0x0001c000
       19955000	      1994	80001b80	00197263	bgeu	x18,x1,80001b84	 x18:0xfffffefc  x1:0xfffffff2
       19965000	      1995	80001b84	65868d93	addi	x27,x13,1624	 x13:0x0128a000 x27=0x0128a658
       19975000	      1996	80001b88	9a398993	addi	x19,x19,-1629	 x19:0x00000000 x19=0xfffff9a3
       19985000	      1997	80001b8c	00b00e33	add	x28,x0,x11	  x0:0x00000000 x11:0xc9a1a994 x28=0xc9a1a994
       19995000	      1998	80001b90	01c18463	beq	x3,x28,80001b98	  x3:0xfffffaa9 x28:0xc9a1a994
       20005000	      1999	80001b94	6213e193	ori	x3,x7,1569	  x7:0xfffffff9  x3=0xfffffff9
       20015000	      2000	80001b98	d3534717	auipc	x14,0xd3534	 x14=0x53535b94
       20025000	      2001	80001b9c	01a44863	blt	x8,x26,80001bac	  x8:0x80009f6c x26:0x8d33ac3e
       20035000	      2002	00000000	00000013	addi	x0,x0,0	  x0:0x00000000
       20045000	      2003	80001ba8	00000013	addi	x0,x0,0	  x0:0x00000000
       20055000	      2004	80001bac	00725513	srli	x10,x4,0x7	  x4:0x00000000 x10=0x00000000
       20065000	      2005	80001bb0	000117b3	sll	x15,x2,x0	  x2:0xb0d1eaa0  x0:0x00000000 x15=0xb0d1eaa0
       20075000	      2006	80001bb4	054dc463	blt	x27,x20,80001bfc	 x27:0x0128a658 x20:0xc5f56000
       20085000	      2007	80001bb8	012982b3	add	x5,x19,x18	 x19:0xfffff9a3 x18:0xfffffefc  x5=0xfffff89f
       20095000	      2008	80001bbc	00d22033	slt	x0,x4,x13	  x4:0x00000000 x13:0x0128a000
       20105000	      2009	80001bc0	66fc9317	auipc	x6,0x66fc9	  x6=0xe6fcabbc
       20115000	      2010	80001bc4	522ff713	andi	x14,x31,1314	 x31:0x00005400 x14=0x00000400
       20125000	      2011	80001bc8	026c4e63	blt	x24,x6,80001c04	 x24:0x00000000  x6:0xe6fcabbc
       20135000	      2012	80001bcc	0060de63	bge	x1,x6,80001be8	  x1:0xfffffff2  x6:0xe6fcabbc
       20145000	      2013	00000000	00000013	addi	x0,x0,0	  x0:0x00000000
       20155000	      2014	80001be4	00000013	addi	x0,x0,0	  x0:0x00000000
       20165000	      2015	80001be8	019e5133	srl	x2,x28,x25	 x28:0xc9a1a994 x25:0x80000000  x2=0xc9a1a994
       20175000	      2016	80001bec	6d9f6e93	ori	x29,x30,1753	 x30:0x0dd68000 x29=0x0dd686d9
       20185000	      2017	80001bf0	e14fca93	xori	x21,x31,-492	 x31:0x00005400 x21=0xffffaa14
       20195000	      2018	80001bf4	8f784893	xori	x17,x16,-1801	 x16:0x80009fc4 x17=0x7fff6733
       20205000	      2019	80001bf8	075c6c93	ori	x25,x24,117	 x24:0x00000000 x25=0x00000075
       20215000	      2020	80001bfc	e359c017	auipc	x0,0xe359c	
       20225000	      2021	80001c00	000ff1b3	and	x3,x31,x0	 x31:0x00005400  x0:0x00000000  x3=0x00000000
       20235000	      2022	80001c04	40da84b3	sub	x9,x21,x13	 x21:0xffffaa14 x13:0x0128a000  x9=0xfed70a14
       20245000	      2023	80001c08	00625b33	srl	x22,x4,x6	  x4:0x00000000  x6:0xe6fcabbc x22=0x00000000
       20255000	      2024	80001c0c	414a52b3	sra	x5,x20,x20	 x20:0xc5f56000 x20:0xc5f56000  x5=0xc5f56000
       20265000	      2025	80001c10	d8478293	addi	x5,x15,-636	 x15:0xb0d1eaa0  x5=0xb0d1e824
       20275000	      2026	80001c14	4199d233	sra	x4,x19,x25	 x19:0xfffff9a3 x25:0x00000075  x4=0xffffffff
       20285000	      2027	80001c18	bd4d3493	sltiu	x9,x26,-1068	 x26:0x8d33ac3e  x9=0x00000001
       20295000	      2028	80001c1c	6a3a0593	addi	x11,x20,1699	 x20:0xc5f56000 x11=0xc5f566a3
       20305000	      2029	80001c20	00000013	addi	x0,x0,0	  x0:0x00000000
       20315000	      2030	80001c24	00e59993	slli	x19,x11,0xe	 x11:0xc5f566a3 x19=0x59a8c000
       20325000	      2031	80001c28	411ed5b3	sra	x11,x29,x17	 x29:0x0dd686d9 x17:0x7fff6733 x11=0x000001ba
       20335000	      2032	80001c2c	0115ce33	xor	x28,x11,x17	 x11:0x000001ba x17:0x7fff6733 x28=0x7fff6689
       20345000	      2033	80001c30	003802b3	add	x5,x16,x3	 x16:0x80009fc4  x3:0x00000000  x5=0x80009fc4
       20355000	      2034	80001c34	c62cb393	sltiu	x7,x25,-926	 x25:0x00000075  x7=0x00000001
       20365000	      2035	80001c38	04975463	bge	x14,x9,80001c80	 x14:0x00000400  x9:0x00000001
       20375000	      2036	00000000	00000013	addi	x0,x0,0	  x0:0x00000000
       20385000	      2037	80001c7c	00000013	addi	x0,x0,0	  x0:0x00000000
       20395000	      2038	80001c80	61708537	lui	x10,0x61708	 x10=0x61708000
       20405000	      2039	80001c84	0061dbb3	srl	x23,x3,x6	  x3:0x00000000  x6:0xe6fcabbc x23=0x00000000
       20415000	      2040	80001c88	4027d6b3	sra	x13,x15,x2	 x15:0xb0d1eaa0  x2:0xc9a1a994 x13=0xfffffb0d
       20425000	      2041	80001c8c	418451b3	sra	x3,x8,x24	  x8:0x80009f6c x24:0x00000000  x3=0x80009f6c
       20435000	      2042	80001c90	d6b43d13	sltiu	x26,x8,-661	  x8:0x80009f6c x26=0x00000001
       20445000	      2043	80001c94	051d0463	beq	x26,x17,80001cdc	 x26:0x00000001 x17:0x7fff6733
       20455000	      2044	80001c98	00c05f93	srli	x31,x0,0xc	  x0:0x00000000 x31=0x00000000
       20465000	      2045	80001c9c	0057aab3	slt	x21,x15,x5	 x15:0xb0d1eaa0  x5:0x80009fc4 x21=0x00000000
       20475000	      2046	80001ca0	d7c4e313	ori	x6,x9,-644	  x9:0x00000001  x6=0xfffffd7d
       20485000	      2047	80001ca4	05ece663	bltu	x25,x30,80001cf0	 x25:0x00000075 x30:0x0dd68000
       20495000	      2048	00000000	00000013	addi	x0,x0,0	  x0:0x00000000
       20505000	      2049	80001cec	00000013	addi	x0,x0,0	  x0:0x00000000
       20515000	      2050	80001cf0	012a0663	beq	x20,x18,80001cfc	 x20:0xc5f56000 x18:0xfffffefc
       20525000	      2051	80001cf4	00ad7263	bgeu	x26,x10,80001cf8	 x26:0x00000001 x10:0x61708000
       20535000	      2052	80001cf8	326ca097	auipc	x1,0x326ca	  x1=0xb26cbcf4
       20545000	      2053	80001cfc	8dcdf993	andi	x19,x27,-1828	 x27:0x0128a658 x19=0x0128a058
       20555000	      2054	80001d00	41e55bb3	sra	x23,x10,x30	 x10:0x61708000 x30:0x0dd68000 x23=0x61708000
       20565000	      2055	80001d04	025e4c63	blt	x28,x5,80001d3c	 x28:0x7fff6689  x5:0x80009fc4
       20575000	      2056	80001d08	0084d393	srli	x7,x9,0x8	  x9:0x00000001  x7=0x00000000
       20585000	      2057	80001d0c	24c77e17	auipc	x28,0x24c77	 x28=0xa4c78d08
       20595000	      2058	80001d10	58e70893	addi	x17,x14,1422	 x14:0x00000400 x17=0x0000098e
       20605000	      2059	80001d14	05fd1663	bne	x26,x31,80001d60	 x26:0x00000001 x31:0x00000000
       20615000	      2060	00000000	00000013	addi	x0,x0,0	  x0:0x00000000
       20625000	      2061	80001d5c	00000013	addi	x0,x0,0	  x0:0x00000000
       20635000	      2062	80001d60	03038663	beq	x7,x16,80001d8c	  x7:0x00000000 x16:0x80009fc4
       20645000	      2063	80001d64	001d94b3	sll	x9,x27,x1	 x27:0x0128a658  x1:0xb26cbcf4  x9=0x65800000
       20655000	      2064	80001d68	e7270e93	addi	x29,x14,-398	 x14:0x00000400 x29=0x00000272
       20665000	      2065	80001d6c	096c2693	slti	x13,x24,150	 x24:0x00000000 x13=0x00000001
       20675000	      2066	80001d70	0fbc6213	ori	x4,x24,251	 x24:0x00000000  x4=0x000000fb
       20685000	      2067	80001d74	03464863	blt	x12,x20,80001da4	 x12:0xffc2bc99 x20:0xc5f56000
       20695000	      2068	80001d78	04739863	bne	x7,x7,80001dc8	  x7:0x00000000  x7:0x00000000
       20705000	      2069	80001d7c	015d2bb3	slt	x23,x26,x21	 x26:0x00000001 x21:0x00000000 x23=0x00000000
       20715000	      2070	80001d80	419f8a33	sub	x20,x31,x25	 x31:0x00000000 x25:0x00000075 x20=0xffffff8b
       20725000	      2071	80001d84	05f2e663	bltu	x5,x31,80001dd0	  x5:0x80009fc4 x31:0x00000000
       20735000	      2072	80001d88	403382b3	sub	x5,x7,x3	  x7:0x00000000  x3:0x80009f6c  x5=0x7fff6094
       20745000	      2073	80001d8c	005137b3	sltu	x15,x2,x5	  x2:0xc9a1a994  x5:0x7fff6094 x15=0x00000000
       20755000	      2074	80001d90	4134d0b3	sra	x1,x9,x19	  x9:0x65800000 x19:0x0128a058  x1=0x00000065
       20765000	      2075	80001d94	01ce82b3	add	x5,x29,x28	 x29:0x00000272 x28:0xa4c78d08  x5=0xa4c78f7a
       20775000	      2076	80001d98	015d9663	bne	x27,x21,80001da4	 x27:0x0128a658 x21:0x00000000
       20785000	      2077	00000000	00000013	addi	x0,x0,0	  x0:0x00000000
       20795000	      2078	80001da0	00000013	addi	x0,x0,0	  x0:0x00000000
       20805000	      2079	80001da4	0224ee63	bltu	x9,x2,80001de0	  x9:0x65800000  x2:0xc9a1a994
       20815000	      2080	00000000	00000013	addi	x0,x0,0	  x0:0x00000000
       20825000	      2081	80001ddc	00000013	addi	x0,x0,0	  x0:0x00000000
       20835000	      2082	80001de0	c9973c93	sltiu	x25,x14,-871	 x14:0x00000400 x25=0x00000001
       20845000	      2083	80001de4	00350033	add	x0,x10,x3	 x10:0x61708000  x3:0x80009f6c
       20855000	      2084	80001de8	654dff17	auipc	x30,0x654df	 x30=0xe54e0de4
       20865000	      2085	80001dec	9c037393	andi	x7,x6,-1600	  x6:0xfffffd7d  x7=0xfffff940
       20875000	      2086	80001df0	0101b933	sltu	x18,x3,x16	  x3:0x80009f6c x16:0x80009fc4 x18=0x00000001
       20885000	      2087	80001df4	00cf4233	xor	x4,x30,x12	 x30:0xe54e0de4 x12:0xffc2bc99  x4=0x1a8cb17d
       20895000	      2088	80001df8	0098ba33	sltu	x20,x17,x9	 x17:0x0000098e  x9:0x65800000 x20=0x00000001
       20905000	      2089	80001dfc	00ccda93	srli	x21,x25,0xc	 x25:0x00000001 x21=0x00000000
       20915000	      2090	80001e00	01e88663	beq	x17,x30,80001e0c	 x17:0x0000098e x30:0xe54e0de4
       20925000	      2091	80001e04	0111d213	srli	x4,x3,0x11	  x3:0x80009f6c  x4=0x00004000
       20935000	      2092	80001e08	013a6333	or	x6,x20,x19	 x20:0x00000001 x19:0x0128a058  x6=0x0128a059
       20945000	      2093	80001e0c	01b59fb3	sll	x31,x11,x27	 x11:0x000001ba x27:0x0128a658 x31=0xba000000
       20955000	      2094	80001e10	00f95693	srli	x13,x18,0xf	 x18:0x00000001 x13=0x00000000
       20965000	      2095	80001e14	cb71a893	slti	x17,x3,-841	  x3:0x80009f6c x17=0x00000001
       20975000	      2096	80001e18	01a51c93	slli	x25,x10,0x1a	 x10:0x61708000 x25=0x00000000
       20985000	      2097	80001e1c	418b5b33	sra	x22,x22,x24	 x22:0x00000000 x24:0x00000000 x22=0x00000000
       20995000	      2098	80001e20	40f55d33	sra	x26,x10,x15	 x10:0x61708000 x15:0x00000000 x26=0x61708000
       21005000	      2099	80001e24	004a2eb3	slt	x29,x20,x4	 x20:0x00000001  x4:0x00004000 x29=0x00000001
       21015000	      2100	80001e28	01dc6233	or	x4,x24,x29	 x24:0x00000000 x29:0x00000001  x4=0x00000001
       21025000	      2101	80001e2c	00442303	lw	x6,4(x8)	  x8:0x80009f6c  x6=0x800002d0 PA:0x80009f70
       21035000	      2102	80001e30	01840413	addi	x8,x8,24	  x8:0x80009f6c  x8=0x80009f84
       21045000	      2103	80001e34	01ad9b93	slli	x23,x27,0x1a	 x27:0x0128a658 x23=0x60000000
       21055000	      2104	80001e38	74ff4393	xori	x7,x30,1871	 x30:0xe54e0de4  x7=0xe54e0aab
       21065000	      2105	80001e3c	00030b13	addi	x22,x6,0	  x6:0x800002d0 x22=0x800002d0
       21075000	      2106	80001e40	000b0b67	jalr	x22,x22,0	 x22:0x800002d0 x22=0x80001e40
       21085000	      2107	00000000	00000013	addi	x0,x0,0	  x0:0x00000000
       21095000	      2108	800002d0	00000013	addi	x0,x0,0	  x0:0x00000000
       21105000	      2109	800002d4	07aafa63	bgeu	x21,x26,80000348	 x21:0x00000000 x26:0x61708000
       21115000	      2110	800002d8	00e9a533	slt	x10,x19,x14	 x19:0x0128a058 x14:0x00000400 x10=0x00000000
       21125000	      2111	800002dc	c6387193	andi	x3,x16,-925	 x16:0x80009fc4  x3=0x80009c40
       21135000	      2112	800002e0	00e7fd33	and	x26,x15,x14	 x15:0x00000000 x14:0x00000400 x26=0x00000000
       21145000	      2113	800002e4	4099dd33	sra	x26,x19,x9	 x19:0x0128a058  x9:0x65800000 x26=0x0128a058
       21155000	      2114	800002e8	4f798717	auipc	x14,0x4f798	 x14=0xcf7982e4
       21165000	      2115	800002ec	0b9b4b93	xori	x23,x22,185	 x22:0x80001e40 x23=0x80001ef9
       21175000	      2116	800002f0	16f07017	auipc	x0,0x16f07	
       21185000	      2117	800002f4	011ab5b3	sltu	x11,x21,x17	 x21:0x00000000 x17:0x00000001 x11=0x00000001
       21195000	      2118	800002f8	40425bb3	sra	x23,x4,x4	  x4:0x00000001  x4:0x00000001 x23=0x00000000
       21205000	      2119	800002fc	00001e17	auipc	x28,0x1	 x28=0x800012f8
       21215000	      2120	80000300	01ce0e13	addi	x28,x28,28	 x28:0x800012f8 x28=0x80001314
       21225000	      2121	80000304	00da8fb3	add	x31,x21,x13	 x21:0x00000000 x13:0x00000000 x31=0x00000000
       21235000	      2122	80000308	d00e0e13	addi	x28,x28,-768	 x28:0x80001314 x28=0x80001014
       21245000	      2123	8000030c	00c64863	blt	x12,x12,8000031c	 x12:0xffc2bc99 x12:0xffc2bc99
       21255000	      2124	80000310	4d202f93	slti	x31,x0,1234	  x0:0x00000000 x31=0x00000001
       21265000	      2125	80000314	a9cc4d97	auipc	x27,0xa9cc4	 x27=0x29cc4310
       21275000	      2126	80000318	012e2933	slt	x18,x28,x18	 x28:0x80001014 x18:0x00000001 x18=0x00000001
       21285000	      2127	8000031c	300e0367	jalr	x6,x28,768	 x28:0x80001014  x6=0x8000031c
       21295000	      2128	00000000	00000013	addi	x0,x0,0	  x0:0x00000000
       21305000	      2129	80001314	00000013	addi	x0,x0,0	  x0:0x00000000
       21315000	      2130	80001318	cc447893	andi	x17,x8,-828	  x8:0x80009f84 x17=0x80009c84
       21325000	      2131	8000131c	6f9c8093	addi	x1,x25,1785	 x25:0x00000000  x1=0x000006f9
       21335000	      2132	80001320	0069d2b3	srl	x5,x19,x6	 x19:0x0128a058  x6:0x8000031c  x5=0x00000000
       21345000	      2133	80001324	4415ab93	slti	x23,x11,1089	 x11:0x00000001 x23=0x00000001
       21355000	      2134	80001328	00c91bb3	sll	x23,x18,x12	 x18:0x00000001 x12:0xffc2bc99 x23=0x02000000
       21365000	      2135	8000132c	009dd263	bge	x27,x9,80001330	 x27:0x29cc4310  x9:0x65800000
       21375000	      2136	80001330	fe840413	addi	x8,x8,-24	  x8:0x80009f84  x8=0x80009f6c
       21385000	      2137	80001334	5a06af13	slti	x30,x13,1440	 x13:0x00000000 x30=0x00000001
       21395000	      2138	80001338	00642223	sw	x6,4(x8)	  x8:0x80009f6c  x6:0x8000031c PA:0x80009f70
       21405000	      2139	8000133c	b190f7b7	lui	x15,0xb190f	 x15=0xb190f000
       21415000	      2140	80001340	018df5b3	and	x11,x27,x24	 x27:0x29cc4310 x24:0x00000000 x11=0x00000000
       21425000	      2141	80001344	008d66b3	or	x13,x26,x8	 x26:0x0128a058  x8:0x80009f6c x13=0x8128bf7c
       21435000	      2142	80001348	fffffb97	auipc	x23,0xfffff	 x23=0x80000344
       21445000	      2143	8000134c	174b8b93	addi	x23,x23,372	 x23:0x80000344 x23=0x800004b8
       21455000	      2144	80001350	00000013	addi	x0,x0,0	  x0:0x00000000
       21465000	      2145	80001354	1d0b8b93	addi	x23,x23,464	 x23:0x800004b8 x23=0x80000688
       21475000	      2146	80001358	008a4b33	xor	x22,x20,x8	 x20:0x00000001  x8:0x80009f6c x22=0x80009f6d
       21485000	      2147	8000135c	000ba733	slt	x14,x23,x0	 x23:0x80000688  x0:0x00000000 x14=0x00000001
       21495000	      2148	80001360	90264313	xori	x6,x12,-1790	 x12:0xffc2bc99  x6=0x003d459b
       21505000	      2149	80001364	00000013	addi	x0,x0,0	  x0:0x00000000
       21515000	      2150	80001368	01baf033	and	x0,x21,x27	 x21:0x00000000 x27:0x29cc4310
       21525000	      2151	8000136c	01dff663	bgeu	x31,x29,80001378	 x31:0x00000001 x29:0x00000001
       21535000	      2152	00000000	00000013	addi	x0,x0,0	  x0:0x00000000
       21545000	      2153	80001374	00000013	addi	x0,x0,0	  x0:0x00000000
       21555000	      2154	80001378	e30b8367	jalr	x6,x23,-464	 x23:0x80000688  x6=0x80001378
       21565000	      2155	00000000	00000013	addi	x0,x0,0	  x0:0x00000000
       21575000	      2156	800004b8	00000013	addi	x0,x0,0	  x0:0x00000000
       21585000	      2157	800004bc	ff840413	addi	x8,x8,-8	  x8:0x80009f6c  x8=0x80009f64
       21595000	      2158	800004c0	0a941c17	auipc	x24,0xa941	 x24=0x8a9414bc
       21605000	      2159	800004c4	00642223	sw	x6,4(x8)	  x8:0x80009f64  x6:0x80001378 PA:0x80009f68
       21615000	      2160	800004c8	3a7b1b37	lui	x22,0x3a7b1	 x22=0x3a7b1000
       21625000	      2161	800004cc	4071d4b3	sra	x9,x3,x7	  x3:0x80009c40  x7:0xe54e0aab  x9=0xfff00013
       21635000	      2162	800004d0	00008797	auipc	x15,0x8	 x15=0x800084cc
       21645000	      2163	800004d4	d2578793	addi	x15,x15,-731	 x15:0x800084cc x15=0x800081f1
       21655000	      2164	800004d8	00f7d583	lhu	x11,15(x15)	 x15:0x800081f1 x11=0x0000ba00 PA:0x80008200
       21665000	      2165	800004dc	00f7a083	lw	x1,15(x15)	 x15:0x800081f1  x1=0x0000ba00 PA:0x80008200
       21675000	      2166	800004e0	00f7aa03	lw	x20,15(x15)	 x15:0x800081f1 x20=0x0000ba00 PA:0x80008200
       21685000	      2167	800004e4	00f7cc83	lbu	x25,15(x15)	 x15:0x800081f1 x25=0x00000000 PA:0x80008200
       21695000	      2168	800004e8	00b797a3	sh	x11,15(x15)	 x15:0x800081f1 x11:0x0000ba00 PA:0x80008200
       21705000	      2169	800004ec	002787a3	sb	x2,15(x15)	 x15:0x800081f1  x2:0xc9a1a994 PA:0x80008200
       21715000	      2170	800004f0	00f7cd83	lbu	x27,15(x15)	 x15:0x800081f1 x27=0x00000094 PA:0x80008200
       21725000	      2171	800004f4	00f7dd83	lhu	x27,15(x15)	 x15:0x800081f1 x27=0x0000ba94 PA:0x80008200
       21735000	      2172	800004f8	00f7d483	lhu	x9,15(x15)	 x15:0x800081f1  x9=0x0000ba94 PA:0x80008200
       21745000	      2173	800004fc	00f7d383	lhu	x7,15(x15)	 x15:0x800081f1  x7=0x0000ba94 PA:0x80008200
       21755000	      2174	80000500	0177a7a3	sw	x23,15(x15)	 x15:0x800081f1 x23:0x80000688 PA:0x80008200
       21765000	      2175	80000504	00000013	addi	x0,x0,0	  x0:0x00000000
       21775000	      2176	80000508	00f79883	lh	x17,15(x15)	 x15:0x800081f1 x17=0x00000688 PA:0x80008200
       21785000	      2177	8000050c	00f78203	lb	x4,15(x15)	 x15:0x800081f1  x4=0xffffff88 PA:0x80008200
       21795000	      2178	80000510	3fa9b213	sltiu	x4,x19,1018	 x19:0x0128a058  x4=0x00000000
       21805000	      2179	80000514	001787a3	sb	x1,15(x15)	 x15:0x800081f1  x1:0x0000ba00 PA:0x80008200
       21815000	      2180	80000518	007797a3	sh	x7,15(x15)	 x15:0x800081f1  x7:0x0000ba94 PA:0x80008200
       21825000	      2181	8000051c	00008117	auipc	x2,0x8	  x2=0x80008518
       21835000	      2182	80000520	35010113	addi	x2,x2,848	  x2:0x80008518  x2=0x80008868
       21845000	      2183	80000524	ffd14d83	lbu	x27,-3(x2)	  x2:0x80008868 x27=0x0000004e PA:0x80008865
       21855000	      2184	80000528	ff310283	lb	x5,-13(x2)	  x2:0x80008868  x5=0x00000040 PA:0x8000885b
       21865000	      2185	8000052c	013101a3	sb	x19,3(x2)	  x2:0x80008868 x19:0x0128a058 PA:0x8000886b
       21875000	      2186	80000530	005d5093	srli	x1,x26,0x5	 x26:0x0128a058  x1=0x00094502
       21885000	      2187	80000534	01090cb3	add	x25,x18,x16	 x18:0x00000001 x16:0x80009fc4 x25=0x80009fc5
       21895000	      2188	80000538	ff710683	lb	x13,-9(x2)	  x2:0x80008868 x13=0x0000005f PA:0x8000885f
       21905000	      2189	8000053c	ff910ba3	sb	x25,-9(x2)	  x2:0x80008868 x25:0x80009fc5 PA:0x8000885f
       21915000	      2190	80000540	ff010c23	sb	x16,-8(x2)	  x2:0x80008868 x16:0x80009fc4 PA:0x80008860
       21925000	      2191	80000544	ff811683	lh	x13,-8(x2)	  x2:0x80008868 x13=0xffff8cc4 PA:0x80008860
       21935000	      2192	80000548	ff711c23	sh	x23,-8(x2)	  x2:0x80008868 x23:0x80000688 PA:0x80008860
       21945000	      2193	8000054c	ff811e83	lh	x29,-8(x2)	  x2:0x80008868 x29=0x00000688 PA:0x80008860
       21955000	      2194	80000550	1b94eb93	ori	x23,x9,441	  x9:0x0000ba94 x23=0x0000bbbd
       21965000	      2195	80000554	00d14e03	lbu	x28,13(x2)	  x2:0x80008868 x28=0x0000005e PA:0x80008875
       21975000	      2196	80000558	00008c17	auipc	x24,0x8	 x24=0x80008554
       21985000	      2197	8000055c	7dac0c13	addi	x24,x24,2010	 x24:0x80008554 x24=0x80008d2e
       21995000	      2198	80000560	be7c3d13	sltiu	x26,x24,-1049	 x24:0x80008d2e x26=0x00000001
       22005000	      2199	80000564	fb9c0f03	lb	x30,-71(x24)	 x24:0x80008d2e x30=0xffffffcc PA:0x80008ce7
       22015000	      2200	80000568	00fc0203	lb	x4,15(x24)	 x24:0x80008d2e  x4=0x00000026 PA:0x80008d3d
       22025000	      2201	8000056c	00fc0203	lb	x4,15(x24)	 x24:0x80008d2e  x4=0x00000026 PA:0x80008d3d
       22035000	      2202	80000570	018b90b3	sll	x1,x23,x24	 x23:0x0000bbbd x24:0x80008d2e  x1=0x2eef4000
       22045000	      2203	80000574	06fc0883	lb	x17,111(x24)	 x24:0x80008d2e x17=0xffffff86 PA:0x80008d9d
       22055000	      2204	80000578	00000013	addi	x0,x0,0	  x0:0x00000000
       22065000	      2205	8000057c	00f2dd93	srli	x27,x5,0xf	  x5:0x00000040 x27=0x00000000
       22075000	      2206	80000580	0e4c0d83	lb	x27,228(x24)	 x24:0x80008d2e x27=0xfffffff9 PA:0x80008e12
       22085000	      2207	80000584	00000013	addi	x0,x0,0	  x0:0x00000000
       22095000	      2208	80000588	0cec1703	lh	x14,206(x24)	 x24:0x80008d2e x14=0xffffe6e7 PA:0x80008dfc
       22105000	      2209	8000058c	f69c4303	lbu	x6,-151(x24)	 x24:0x80008d2e  x6=0x0000007c PA:0x80008c97
       22115000	      2210	80000590	f69c4003	lbu	x0,-151(x24)	 x24:0x80008d2e PA:0x80008c97
       22125000	      2211	80000594	f66c04a3	sb	x6,-151(x24)	 x24:0x80008d2e  x6:0x0000007c PA:0x80008c97
       22135000	      2212	80000598	f30c1483	lh	x9,-208(x24)	 x24:0x80008d2e  x9=0x00004400 PA:0x80008c5e
       22145000	      2213	8000059c	f27c0823	sb	x7,-208(x24)	 x24:0x80008d2e  x7:0x0000ba94 PA:0x80008c5e
       22155000	      2214	800005a0	8dfa4c93	xori	x25,x20,-1825	 x20:0x0000ba00 x25=0xffff42df
       22165000	      2215	800005a4	051c0223	sb	x17,68(x24)	 x24:0x80008d2e x17:0xffffff86 PA:0x80008d72
       22175000	      2216	800005a8	04cc0ea3	sb	x12,93(x24)	 x24:0x80008d2e x12:0xffc2bc99 PA:0x80008d8b
       22185000	      2217	800005ac	05dc0b03	lb	x22,93(x24)	 x24:0x80008d2e x22=0xffffff99 PA:0x80008d8b
       22195000	      2218	800005b0	00008a17	auipc	x20,0x8	 x20=0x800085ac
       22205000	      2219	800005b4	410a0a13	addi	x20,x20,1040	 x20:0x800085ac x20=0x800089bc
       22215000	      2220	800005b8	00008997	auipc	x19,0x8	 x19=0x800085b4
       22225000	      2221	800005bc	2a798993	addi	x19,x19,679	 x19:0x800085b4 x19=0x8000885b
       22235000	      2222	800005c0	00008917	auipc	x18,0x8	 x18=0x800085bc
       22245000	      2223	800005c4	3a290913	addi	x18,x18,930	 x18:0x800085bc x18=0x8000895e
       22255000	      2224	800005c8	0319df03	lhu	x30,49(x19)	 x19:0x8000885b x30=0x00007677 PA:0x8000888c
       22265000	      2225	800005cc	f97a4483	lbu	x9,-105(x20)	 x20:0x800089bc  x9=0x00000038 PA:0x80008953
       22275000	      2226	800005d0	f50a1683	lh	x13,-176(x20)	 x20:0x800089bc x13=0xfffff6f7 PA:0x8000890c
       22285000	      2227	800005d4	0e298e03	lb	x28,226(x19)	 x19:0x8000885b x28=0x00000026 PA:0x8000893d
       22295000	      2228	800005d8	05ba0083	lb	x1,91(x20)	 x20:0x800089bc  x1=0xfffffffc PA:0x80008a17
       22305000	      2229	800005dc	ff39d083	lhu	x1,-13(x19)	 x19:0x8000885b  x1=0x00003435 PA:0x8000884e
       22315000	      2230	800005e0	0d49cc83	lbu	x25,212(x19)	 x19:0x8000885b x25=0x00000096 PA:0x8000892f
       22325000	      2231	800005e4	01a92123	sw	x26,2(x18)	 x18:0x8000895e x26:0x00000001 PA:0x80008960
       22335000	      2232	800005e8	0dba06a3	sb	x27,205(x20)	 x20:0x800089bc x27:0xfffffff9 PA:0x80008a89
       22345000	      2233	800005ec	fd59cd83	lbu	x27,-43(x19)	 x19:0x8000885b x27=0x0000001b PA:0x80008830
       22355000	      2234	00000000	00000013	addi	x0,x0,0	  x0:0x00000000
       22365000	      2235	800005f0	f1ba0f03	lb	x30,-229(x20)	 x20:0x800089bc x30=0xffffffbc PA:0x800088d7
       22375000	      2236	800005f4	0e2a5183	lhu	x3,226(x20)	 x20:0x800089bc  x3=0x00008485 PA:0x80008a9e
       22385000	      2237	800005f8	0ff98723	sb	x31,238(x19)	 x19:0x8000885b x31:0x00000001 PA:0x80008949
       22395000	      2238	800005fc	0309c883	lbu	x17,48(x19)	 x19:0x8000885b x17=0x00000070 PA:0x8000888b
       22405000	      2239	80000600	ff3909a3	sb	x19,-13(x18)	 x18:0x8000895e x19:0x8000885b PA:0x80008951
       22415000	      2240	80000604	08f99703	lh	x14,143(x19)	 x19:0x8000885b x14=0xffffd0d1 PA:0x800088ea
       22425000	      2241	80000608	00d94d03	lbu	x26,13(x18)	 x18:0x8000895e x26=0x00000050 PA:0x8000896b
       22435000	      2242	8000060c	00a94783	lbu	x15,10(x18)	 x18:0x8000895e x15=0x00000053 PA:0x80008968
       22445000	      2243	80000610	0b4a2023	sw	x20,160(x20)	 x20:0x800089bc x20:0x800089bc PA:0x80008a5c
       22455000	      2244	80000614	0639d383	lhu	x7,99(x19)	 x19:0x8000885b  x7=0x0000a4a5 PA:0x800088be
       22465000	      2245	80000618	02fa0b03	lb	x22,47(x20)	 x20:0x800089bc x22=0xffffffd0 PA:0x800089eb
       22475000	      2246	8000061c	fe7a0183	lb	x3,-25(x20)	 x20:0x800089bc  x3=0xffffff88 PA:0x800089a3
       22485000	      2247	80000620	00690483	lb	x9,6(x18)	 x18:0x8000895e  x9=0x0000004f PA:0x80008964
       22495000	      2248	80000624	ff1a4e83	lbu	x29,-15(x20)	 x20:0x800089bc x29=0x00000096 PA:0x800089ad
       22505000	      2249	00000000	00000013	addi	x0,x0,0	  x0:0x00000000
       22515000	      2250	80000628	0dd98a23	sb	x29,212(x19)	 x19:0x8000885b x29:0x00000096 PA:0x8000892f
       22525000	      2251	8000062c	00790d83	lb	x27,7(x18)	 x18:0x8000895e x27=0x0000004e PA:0x80008965
       22535000	      2252	80000630	00009097	auipc	x1,0x9	  x1=0x8000962c
       22545000	      2253	80000634	97508093	addi	x1,x1,-1675	  x1:0x8000962c  x1=0x80008fa1
       22555000	      2254	80000638	f1808da3	sb	x24,-229(x1)	  x1:0x80008fa1 x24:0x80008d2e PA:0x80008ebc
       22565000	      2255	8000063c	402655b3	sra	x11,x12,x2	 x12:0xffc2bc99  x2:0x80008868 x11=0xffffc2bc
       22575000	      2256	80000640	00afd293	srli	x5,x31,0xa	 x31:0x00000001  x5=0x00000000
       22585000	      2257	80000644	01659993	slli	x19,x11,0x16	 x11:0xffffc2bc x19=0xaf000000
       22595000	      2258	80000648	40b4d333	sra	x6,x9,x11	  x9:0x0000004f x11:0xffffc2bc  x6=0x00000000
       22605000	      2259	8000064c	023086a3	sb	x3,45(x1)	  x1:0x80008fa1  x3:0xffffff88 PA:0x80008fce
       22615000	      2260	80000650	f7a08923	sb	x26,-142(x1)	  x1:0x80008fa1 x26:0x00000050 PA:0x80008f13
       22625000	      2261	80000654	f0a08323	sb	x10,-250(x1)	  x1:0x80008fa1 x10:0x00000000 PA:0x80008ea7
       22635000	      2262	80000658	f8f0a903	lw	x18,-113(x1)	  x1:0x80008fa1 x18=0x18191a1b PA:0x80008f30
       22645000	      2263	8000065c	9af58c93	addi	x25,x11,-1617	 x11:0xffffc2bc x25=0xffffbc6b
       22655000	      2264	80000660	91493b93	sltiu	x23,x18,-1772	 x18:0x18191a1b x23=0x00000001
       22665000	      2265	80000664	6ae02913	slti	x18,x0,1710	  x0:0x00000000 x18=0x00000001
       22675000	      2266	80000668	fc40c703	lbu	x14,-60(x1)	  x1:0x80008fa1 x14=0x0000004e PA:0x80008f65
       22685000	      2267	8000066c	00dd2e33	slt	x28,x26,x13	 x26:0x00000050 x13:0xfffff6f7 x28=0x00000000
       22695000	      2268	80000670	f0a086a3	sb	x10,-243(x1)	  x1:0x80008fa1 x10:0x00000000 PA:0x80008eae
       22705000	      2269	80000674	05f091a3	sh	x31,67(x1)	  x1:0x80008fa1 x31:0x00000001 PA:0x80008fe4
       22715000	      2270	80000678	008e0bb3	add	x23,x28,x8	 x28:0x00000000  x8:0x80009f64 x23=0x80009f64
       22725000	      2271	8000067c	00d08203	lb	x4,13(x1)	  x1:0x80008fa1  x4=0xffffff95 PA:0x80008fae
       22735000	      2272	00000000	00000013	addi	x0,x0,0	  x0:0x00000000
       22745000	      2273	80000680	fa4c9f97	auipc	x31,0xfa4c9	 x31=0x7a4c967c
       22755000	      2274	80000684	f6108823	sb	x1,-144(x1)	  x1:0x80008fa1  x1:0x80008fa1 PA:0x80008f11
       22765000	      2275	80000688	f4908583	lb	x11,-183(x1)	  x1:0x80008fa1 x11=0xffffffd1 PA:0x80008eea
       22775000	      2276	8000068c	01ad6333	or	x6,x26,x26	 x26:0x00000050 x26:0x00000050  x6=0x00000050
       22785000	      2277	80000690	f0908783	lb	x15,-247(x1)	  x1:0x80008fa1 x15=0xffffff91 PA:0x80008eaa
       22795000	      2278	80000694	fdd08983	lb	x19,-35(x1)	  x1:0x80008fa1 x19=0x00000065 PA:0x80008f7e
       22805000	      2279	80000698	f9808883	lb	x17,-104(x1)	  x1:0x80008fa1 x17=0x00000022 PA:0x80008f39
       22815000	      2280	8000069c	f41080a3	sb	x1,-191(x1)	  x1:0x80008fa1  x1:0x80008fa1 PA:0x80008ee2
       22825000	      2281	800006a0	4077d893	srai	x17,x15,0x7	 x15:0xffffff91 x17=0xffffffff
       22835000	      2282	800006a4	41b6d733	sra	x14,x13,x27	 x13:0xfffff6f7 x27:0x0000004e x14=0xffffffff
       22845000	      2283	800006a8	f2909e83	lh	x29,-215(x1)	  x1:0x80008fa1 x29=0xffffb0b1 PA:0x80008eca
       22855000	      2284	800006ac	f2b0af83	lw	x31,-213(x1)	  x1:0x80008fa1 x31=0xb4b5b6b7 PA:0x80008ecc
       22865000	      2285	800006b0	40440e33	sub	x28,x8,x4	  x8:0x80009f64  x4:0xffffff95 x28=0x80009fcf
       22875000	      2286	800006b4	f7908aa3	sb	x25,-139(x1)	  x1:0x80008fa1 x25:0xffffbc6b PA:0x80008f16
       22885000	      2287	800006b8	03808c03	lb	x24,56(x1)	  x1:0x80008fa1 x24=0xffffffc2 PA:0x80008fd9
       22895000	      2288	800006bc	009a99b3	sll	x19,x21,x9	 x21:0x00000000  x9:0x0000004f x19=0x00000000
       22905000	      2289	800006c0	f4709303	lh	x6,-185(x1)	  x1:0x80008fa1  x6=0xffffacd3 PA:0x80008ee8
       22915000	      2290	800006c4	f0e092a3	sh	x14,-251(x1)	  x1:0x80008fa1 x14:0xffffffff PA:0x80008ea6
       22925000	      2291	800006c8	00008197	auipc	x3,0x8	  x3=0x800086c4
       22935000	      2292	800006cc	ea818193	addi	x3,x3,-344	  x3:0x800086c4  x3=0x8000856c
       22945000	      2293	800006d0	00008997	auipc	x19,0x8	 x19=0x800086cc
       22955000	      2294	800006d4	0c298993	addi	x19,x19,194	 x19:0x800086cc x19=0x8000878e
       22965000	      2295	800006d8	00008c97	auipc	x25,0x8	 x25=0x800086d4
       22975000	      2296	800006dc	fc2c8c93	addi	x25,x25,-62	 x25:0x800086d4 x25=0x80008696
       22985000	      2297	800006e0	ff2c9b23	sh	x18,-10(x25)	 x25:0x80008696 x18:0x00000001 PA:0x8000868c
       22995000	      2298	800006e4	00008217	auipc	x4,0x8	  x4=0x800086e0
       23005000	      2299	800006e8	e7f20213	addi	x4,x4,-385	  x4:0x800086e0  x4=0x8000855f
       23015000	      2300	800006ec	03d1a223	sw	x29,36(x3)	  x3:0x8000856c x29:0xffffb0b1 PA:0x80008590
       23025000	      2301	800006f0	00ec80a3	sb	x14,1(x25)	 x25:0x80008696 x14:0xffffffff PA:0x80008697
       23035000	      2302	800006f4	00008c17	auipc	x24,0x8	 x24=0x800086f0
       23045000	      2303	800006f8	983c0c13	addi	x24,x24,-1661	 x24:0x800086f0 x24=0x80008073
       23055000	      2304	800006fc	471c2903	lw	x18,1137(x24)	 x24:0x80008073 x18=0x9c9d9e9f PA:0x800084e4
       23065000	      2305	80000700	0031cd83	lbu	x27,3(x3)	  x3:0x8000856c x27=0x00000024 PA:0x8000856f
       23075000	      2306	80000704	ff098823	sb	x16,-16(x19)	 x19:0x8000878e x16:0x80009fc4 PA:0x8000877e
       23085000	      2307	80000708	00f98883	lb	x17,15(x19)	 x19:0x8000878e x17=0x00000056 PA:0x8000879d
       23095000	      2308	8000070c	006caa83	lw	x21,6(x25)	 x25:0x80008696 x21=0x9b555657 PA:0x8000869c
       23105000	      2309	80000710	f6121fa3	sh	x1,-129(x4)	  x4:0x8000855f  x1:0x80008fa1 PA:0x800084de
       23115000	      2310	80000714	febc8fa3	sb	x11,-1(x25)	 x25:0x80008696 x11:0xffffffd1 PA:0x80008695
       23125000	      2311	80000718	00d18e03	lb	x28,13(x3)	  x3:0x8000856c x28=0x00000032 PA:0x80008579
       23135000	      2312	8000071c	07325383	lhu	x7,115(x4)	  x4:0x8000855f  x7=0x0000de89 PA:0x800085d2
       23145000	      2313	80000720	635c1083	lh	x1,1589(x24)	 x24:0x80008073  x1=0x00006263 PA:0x800086a8
       23155000	      2314	80000724	ff3ccd83	lbu	x27,-13(x25)	 x25:0x80008696 x27=0x00000042 PA:0x80008689
       23165000	      2315	80000728	3c1c5903	lhu	x18,961(x24)	 x24:0x80008073 x18=0x0000eeef PA:0x80008434
       23175000	      2316	8000072c	ffd98083	lb	x1,-3(x19)	 x19:0x8000878e  x1=0x00000040 PA:0x8000878b
       23185000	      2317	80000730	0ad24303	lbu	x6,173(x4)	  x4:0x8000855f  x6=0x000000c7 PA:0x8000860c
       23195000	      2318	80000734	02118b03	lb	x22,33(x3)	  x3:0x8000856c x22=0x00000046 PA:0x8000858d
       23205000	      2319	80000738	190c4783	lbu	x15,400(x24)	 x24:0x80008073 x15=0x00000080 PA:0x80008203
       23215000	      2320	8000073c	ff4ccd03	lbu	x26,-12(x25)	 x25:0x80008696 x26=0x00000041 PA:0x8000868a
       23225000	      2321	80000740	f8122d03	lw	x26,-127(x4)	  x4:0x8000855f x26=0x00000001 PA:0x800084e0
       23235000	      2322	80000744	f7324b03	lbu	x22,-141(x4)	  x4:0x8000855f x22=0x00000089 PA:0x800084d2
       23245000	      2323	80000748	695c17a3	sh	x21,1679(x24)	 x24:0x80008073 x21:0x9b555657 PA:0x80008702
       23255000	      2324	8000074c	02019423	sh	x0,40(x3)	  x3:0x8000856c  x0:0x00000000 PA:0x80008594
       23265000	      2325	80000750	520c0f23	sb	x0,1342(x24)	 x24:0x80008073  x0:0x00000000 PA:0x800085b1
       23275000	      2326	80000754	086c0283	lb	x5,134(x24)	 x24:0x80008073  x5=0xffffffb2 PA:0x800080f9
       23285000	      2327	80000758	02718223	sb	x7,36(x3)	  x3:0x8000856c  x7:0x0000de89 PA:0x80008590
       23295000	      2328	8000075c	f7d20b83	lb	x23,-131(x4)	  x4:0x8000855f x23=0xffffff97 PA:0x800084dc
       23305000	      2329	80000760	0069dd83	lhu	x27,6(x19)	 x19:0x8000878e x27=0x00004e4f PA:0x80008794
       23315000	      2330	80000764	00dc8383	lb	x7,13(x25)	 x25:0x80008696  x7=0x00000058 PA:0x800086a3
       23325000	      2331	80000768	ff4cdf03	lhu	x30,-12(x25)	 x25:0x80008696 x30=0x00004041 PA:0x8000868a
       23335000	      2332	8000076c	fcb181a3	sb	x11,-61(x3)	  x3:0x8000856c x11:0xffffffd1 PA:0x8000852f
       23345000	      2333	80000770	0a420703	lb	x14,164(x4)	  x4:0x8000855f x14=0xffffffb1 PA:0x80008603
       23355000	      2334	80000774	553c4383	lbu	x7,1363(x24)	 x24:0x80008073  x7=0x0000007d PA:0x800085c6
       23365000	      2335	80000778	734c0783	lb	x15,1844(x24)	 x24:0x80008073 x15=0x0000005c PA:0x800087a7
       23375000	      2336	8000077c	06320a23	sb	x3,116(x4)	  x4:0x8000855f  x3:0x8000856c PA:0x800085d3
       23385000	      2337	80000780	ff91cb83	lbu	x23,-7(x3)	  x3:0x8000856c x23=0x000000b1 PA:0x80008565
       23395000	      2338	80000784	ffd9ca03	lbu	x20,-3(x19)	 x19:0x8000878e x20=0x00000040 PA:0x8000878b
       23405000	      2339	80000788	00008d17	auipc	x26,0x8	 x26=0x80008784
       23415000	      2340	8000078c	700d0d13	addi	x26,x26,1792	 x26:0x80008784 x26=0x80008e84
       23425000	      2341	80000790	ff8d2883	lw	x17,-8(x26)	 x26:0x80008e84 x17=0xe2656667 PA:0x80008e7c
       23435000	      2342	80000794	00008c97	auipc	x25,0x8	 x25=0x80008790
       23445000	      2343	80000798	3c1c8c93	addi	x25,x25,961	 x25:0x80008790 x25=0x80008b51
       23455000	      2344	8000079c	00008b97	auipc	x23,0x8	 x23=0x80008798
       23465000	      2345	800007a0	3bcb8b93	addi	x23,x23,956	 x23:0x80008798 x23=0x80008b54
       23475000	      2346	800007a4	00008697	auipc	x13,0x8	 x13=0x800087a0
       23485000	      2347	800007a8	43968693	addi	x13,x13,1081	 x13:0x800087a0 x13=0x80008bd9
       23495000	      2348	800007ac	00ad0483	lb	x9,10(x26)	 x26:0x80008e84  x9=0x00000075 PA:0x80008e8e
       23505000	      2349	800007b0	0bbbc703	lbu	x14,187(x23)	 x23:0x80008b54 x14=0x00000058 PA:0x80008c0f
       23515000	      2350	800007b4	311b8d23	sb	x17,794(x23)	 x23:0x80008b54 x17:0xe2656667 PA:0x80008e6e
       23525000	      2351	800007b8	0296d883	lhu	x17,41(x13)	 x13:0x80008bd9 x17=0x0000e8e9 PA:0x80008c02
       23535000	      2352	800007bc	febd0b23	sb	x11,-10(x26)	 x26:0x80008e84 x11:0xffffffd1 PA:0x80008e7a
       23545000	      2353	800007c0	fdfca7a3	sw	x31,-49(x25)	 x25:0x80008b51 x31:0xb4b5b6b7 PA:0x80008b20
       23555000	      2354	800007c4	01568903	lb	x18,21(x13)	 x13:0x80008bd9 x18=0xffffffd5 PA:0x80008bee
       23565000	      2355	800007c8	1c8b87a3	sb	x8,463(x23)	 x23:0x80008b54  x8:0x80009f64 PA:0x80008d23
       23575000	      2356	800007cc	021cda03	lhu	x20,33(x25)	 x25:0x80008b51 x20=0x00005859 PA:0x80008b72
       23585000	      2357	800007d0	208bd783	lhu	x15,520(x23)	 x23:0x80008b54 x15=0x00004647 PA:0x80008d5c
       23595000	      2358	800007d4	010d4983	lbu	x19,16(x26)	 x26:0x80008e84 x19=0x0000007f PA:0x80008e94
       23605000	      2359	800007d8	00008117	auipc	x2,0x8	  x2=0x800087d4
       23615000	      2360	800007dc	72b10113	addi	x2,x2,1835	  x2:0x800087d4  x2=0x80008eff
       23625000	      2361	800007e0	fc7c9203	lh	x4,-57(x25)	 x25:0x80008b51  x4=0x00000203 PA:0x80008b18
       23635000	      2362	800007e4	29db8903	lb	x18,669(x23)	 x23:0x80008b54 x18=0xffffffda PA:0x80008df1
       23645000	      2363	800007e8	00614f83	lbu	x31,6(x2)	  x2:0x80008eff x31=0x000000de PA:0x80008f05
       23655000	      2364	800007ec	ff3c8983	lb	x19,-13(x25)	 x25:0x80008b51 x19=0x0000002f PA:0x80008b44
       23665000	      2365	800007f0	016d1023	sh	x22,0(x26)	 x26:0x80008e84 x22:0x00000089 PA:0x80008e84
       23675000	      2366	800007f4	ff414083	lbu	x1,-12(x2)	  x2:0x80008eff  x1=0x000000d1 PA:0x80008ef3
       23685000	      2367	800007f8	fd168303	lb	x6,-47(x13)	 x13:0x80008bd9  x6=0xffffff91 PA:0x80008baa
       23695000	      2368	800007fc	fe268923	sb	x2,-14(x13)	 x13:0x80008bd9  x2:0x80008eff PA:0x80008bcb
       23705000	      2369	80000800	202bd503	lhu	x10,514(x23)	 x23:0x80008b54 x10=0x00003c3d PA:0x80008d56
       23715000	      2370	00000000	00000013	addi	x0,x0,0	  x0:0x00000000
       23725000	      2371	80000804	42abde83	lhu	x29,1066(x23)	 x23:0x80008b54 x29=0x00006465 PA:0x80008f7e
       23735000	      2372	80000808	fc16dd83	lhu	x27,-63(x13)	 x13:0x80008bd9 x27=0x00008081 PA:0x80008b9a
       23745000	      2373	8000080c	fc3c9183	lh	x3,-61(x25)	 x25:0x80008b51  x3=0xfffffeff PA:0x80008b14
       23755000	      2374	80000810	ff8d5203	lhu	x4,-8(x26)	 x26:0x80008e84  x4=0x00006667 PA:0x80008e7c
       23765000	      2375	80000814	000d06a3	sb	x0,13(x26)	 x26:0x80008e84  x0:0x00000000 PA:0x80008e91
       23775000	      2376	80000818	ff410983	lb	x19,-12(x2)	  x2:0x80008eff x19=0xffffffd1 PA:0x80008ef3
       23785000	      2377	8000081c	fe76af03	lw	x30,-25(x13)	 x13:0x80008bd9 x30=0xa8a9aaab PA:0x80008bc0
       23795000	      2378	80000820	463bce03	lbu	x28,1123(x23)	 x23:0x80008b54 x28=0x0000009c PA:0x80008fb7
       23805000	      2379	80000824	ffa10483	lb	x9,-6(x2)	  x2:0x80008eff  x9=0xffffffe2 PA:0x80008ef9
       23815000	      2380	80000828	ffad0283	lb	x5,-6(x26)	 x26:0x80008e84  x5=0x00000065 PA:0x80008e7e
       23825000	      2381	8000082c	06fb8ca3	sb	x15,121(x23)	 x23:0x80008b54 x15:0x00004647 PA:0x80008bcd
       23835000	      2382	80000830	feb10a23	sb	x11,-12(x2)	  x2:0x80008eff x11:0xffffffd1 PA:0x80008ef3
       23845000	      2383	80000834	fe9d0da3	sb	x9,-5(x26)	 x26:0x80008e84  x9:0xffffffe2 PA:0x80008e7f
       23855000	      2384	80000838	017c8083	lb	x1,23(x25)	 x25:0x80008b51  x1=0x00000053 PA:0x80008b68
       23865000	      2385	8000083c	012c8283	lb	x5,18(x25)	 x25:0x80008b51  x5=0x00000048 PA:0x80008b63
       23875000	      2386	80000840	0b4b9d23	sh	x20,186(x23)	 x23:0x80008b54 x20:0x00005859 PA:0x80008c0e
       23885000	      2387	80000844	0396cf03	lbu	x30,57(x13)	 x13:0x80008bd9 x30=0x000000f9 PA:0x80008c12
       23895000	      2388	80000848	00e6c903	lbu	x18,14(x13)	 x13:0x80008bd9 x18=0x000000cc PA:0x80008be7
       23905000	      2389	00000000	00000013	addi	x0,x0,0	  x0:0x00000000
       23915000	      2390	8000084c	ff2d0ba3	sb	x18,-9(x26)	 x26:0x80008e84 x18:0x000000cc PA:0x80008e7b
       23925000	      2391	80000850	00008d97	auipc	x27,0x8	 x27=0x8000884c
       23935000	      2392	80000854	b0ad8d93	addi	x27,x27,-1270	 x27:0x8000884c x27=0x80008356
       23945000	      2393	80000858	febd8d23	sb	x11,-6(x27)	 x27:0x80008356 x11:0xffffffd1 PA:0x80008350
       23955000	      2394	8000085c	003d8223	sb	x3,4(x27)	 x27:0x80008356  x3:0xfffffeff PA:0x8000835a
       23965000	      2395	80000860	40ca83b3	sub	x7,x21,x12	 x21:0x9b555657 x12:0xffc2bc99  x7=0x9b9299be
       23975000	      2396	80000864	007d8483	lb	x9,7(x27)	 x27:0x80008356  x9=0x00000016 PA:0x8000835d
       23985000	      2397	80000868	1b6207b7	lui	x15,0x1b620	 x15=0x1b620000
       23995000	      2398	8000086c	cc5df213	andi	x4,x27,-827	 x27:0x80008356  x4=0x80008044
       24005000	      2399	80000870	ffbd8823	sb	x27,-16(x27)	 x27:0x80008356 x27:0x80008356 PA:0x80008346
       24015000	      2400	80000874	ff5d8983	lb	x19,-11(x27)	 x27:0x80008356 x19=0x00000000 PA:0x8000834b
       24025000	      2401	80000878	008d9e83	lh	x29,8(x27)	 x27:0x80008356 x29=0x00001415 PA:0x8000835e
       24035000	      2402	8000087c	01f46233	or	x4,x8,x31	  x8:0x80009f64 x31:0x000000de  x4=0x80009ffe
       24045000	      2403	80000880	ff6dc503	lbu	x10,-10(x27)	 x27:0x80008356 x10=0x00000007 PA:0x8000834c
       24055000	      2404	80000884	ff9d8683	lb	x13,-7(x27)	 x27:0x80008356 x13=0x00000004 PA:0x8000834f
       24065000	      2405	80000888	40c1dab3	sra	x21,x3,x12	  x3:0xfffffeff x12:0xffc2bc99 x21=0xffffffff
       24075000	      2406	8000088c	ff4d8e83	lb	x29,-12(x27)	 x27:0x80008356 x29=0x00000001 PA:0x8000834a
       24085000	      2407	80000890	ff9d8903	lb	x18,-7(x27)	 x27:0x80008356 x18=0x00000004 PA:0x8000834f
       24095000	      2408	80000894	00ddcf83	lbu	x31,13(x27)	 x27:0x80008356 x31=0x00000000 PA:0x80008363
       24105000	      2409	00000000	00000013	addi	x0,x0,0	  x0:0x00000000
       24115000	      2410	80000898	fffd8103	lb	x2,-1(x27)	 x27:0x80008356  x2=0x0000000e PA:0x80008355
       24125000	      2411	8000089c	007dce83	lbu	x29,7(x27)	 x27:0x80008356 x29=0x00000016 PA:0x8000835d
       24135000	      2412	800008a0	00795b13	srli	x22,x18,0x7	 x18:0x00000004 x22=0x00000000
       24145000	      2413	800008a4	ff4d9983	lh	x19,-12(x27)	 x27:0x80008356 x19=0x00000001 PA:0x8000834a
       24155000	      2414	800008a8	ff4dc903	lbu	x18,-12(x27)	 x27:0x80008356 x18=0x00000001 PA:0x8000834a
       24165000	      2415	800008ac	fe6d8ea3	sb	x6,-3(x27)	 x27:0x80008356  x6:0xffffff91 PA:0x80008353
       24175000	      2416	800008b0	00854ab3	xor	x21,x10,x8	 x10:0x00000007  x8:0x80009f64 x21=0x80009f63
       24185000	      2417	800008b4	013da523	sw	x19,10(x27)	 x27:0x80008356 x19:0x00000001 PA:0x80008360
       24195000	      2418	800008b8	016d9023	sh	x22,0(x27)	 x27:0x80008356 x22:0x00000000 PA:0x80008356
       24205000	      2419	800008bc	ff2d8903	lb	x18,-14(x27)	 x27:0x80008356 x18=0x00000003 PA:0x80008348
       24215000	      2420	800008c0	ff9dc303	lbu	x6,-7(x27)	 x27:0x80008356  x6=0x00000004 PA:0x8000834f
       24225000	      2421	800008c4	ff6da383	lw	x7,-10(x27)	 x27:0x80008356  x7=0x04050607 PA:0x8000834c
       24235000	      2422	800008c8	40005cb3	sra	x25,x0,x0	  x0:0x00000000  x0:0x00000000 x25=0x00000000
       24245000	      2423	800008cc	6508af13	slti	x30,x17,1616	 x17:0x0000e8e9 x30=0x00000000
       24255000	      2424	800008d0	009d8223	sb	x9,4(x27)	 x27:0x80008356  x9:0x00000016 PA:0x8000835a
       24265000	      2425	800008d4	011d8623	sb	x17,12(x27)	 x27:0x80008356 x17:0x0000e8e9 PA:0x80008362
       24275000	      2426	800008d8	c8b5e513	ori	x10,x11,-885	 x11:0xffffffd1 x10=0xffffffdb
       24285000	      2427	800008dc	000923b3	slt	x7,x18,x0	 x18:0x00000003  x0:0x00000000  x7=0x00000000
       24295000	      2428	800008e0	004dd303	lhu	x6,4(x27)	 x27:0x80008356  x6=0x00001016 PA:0x8000835a
       24305000	      2429	800008e4	408cd3b3	sra	x7,x25,x8	 x25:0x00000000  x8:0x80009f64  x7=0x00000000
       24315000	      2430	800008e8	010512b3	sll	x5,x10,x16	 x10:0xffffffdb x16:0x80009fc4  x5=0xfffffdb0
       24325000	      2431	800008ec	00af5113	srli	x2,x30,0xa	 x30:0x00000000  x2=0x00000000
       24335000	      2432	800008f0	00d44fb3	xor	x31,x8,x13	  x8:0x80009f64 x13:0x00000004 x31=0x80009f60
       24345000	      2433	800008f4	00fdc303	lbu	x6,15(x27)	 x27:0x80008356  x6=0x0000001e PA:0x80008365
       24355000	      2434	800008f8	00cd9b03	lh	x22,12(x27)	 x27:0x80008356 x22=0x000000e9 PA:0x80008362
       24365000	      2435	800008fc	00008117	auipc	x2,0x8	  x2=0x800088f8
       24375000	      2436	80000900	94110113	addi	x2,x2,-1727	  x2:0x800088f8  x2=0x80008239
       24385000	      2437	80000904	fd814d03	lbu	x26,-40(x2)	  x2:0x80008239 x26=0x000000ca PA:0x80008211
       24395000	      2438	80000908	0b510503	lb	x10,181(x2)	  x2:0x80008239 x10=0xffffffa5 PA:0x800082ee
       24405000	      2439	8000090c	40cb5e33	sra	x28,x22,x12	 x22:0x000000e9 x12:0xffc2bc99 x28=0x00000000
       24415000	      2440	80000910	00a10d33	add	x26,x2,x10	  x2:0x80008239 x10:0xffffffa5 x26=0x800081de
       24425000	      2441	80000914	5cd24893	xori	x17,x4,1485	  x4:0x80009ffe x17=0x80009a33
       24435000	      2442	80000918	01a10b23	sb	x26,22(x2)	  x2:0x80008239 x26:0x800081de PA:0x8000824f
       24445000	      2443	8000091c	f8111383	lh	x7,-127(x2)	  x2:0x80008239  x7=0x00007071 PA:0x800081ba
       24455000	      2444	80000920	f2f12c03	lw	x24,-209(x2)	  x2:0x80008239 x24=0x20212223 PA:0x80008168
       24465000	      2445	80000924	0199d593	srli	x11,x19,0x19	 x19:0x00000001 x11=0x00000000
       24475000	      2446	80000928	f9e10703	lb	x14,-98(x2)	  x2:0x80008239 x14=0xffffff8c PA:0x800081d7
       24485000	      2447	8000092c	01ae77b3	and	x15,x28,x26	 x28:0x00000000 x26:0x800081de x15=0x00000000
       24495000	      2448	80000930	eec77fb7	lui	x31,0xeec77	 x31=0xeec77000
       24505000	      2449	80000934	f58117a3	sh	x24,-177(x2)	  x2:0x80008239 x24:0x20212223 PA:0x80008188
       24515000	      2450	80000938	50147193	andi	x3,x8,1281	  x8:0x80009f64  x3=0x00000500
       24525000	      2451	8000093c	f5112fa3	sw	x17,-161(x2)	  x2:0x80008239 x17:0x80009a33 PA:0x80008198
       24535000	      2452	80000940	00c10123	sb	x12,2(x2)	  x2:0x80008239 x12:0xffc2bc99 PA:0x8000823b
       24545000	      2453	80000944	01d1a9b3	slt	x19,x3,x29	  x3:0x00000500 x29:0x00000016 x19=0x00000000
       24555000	      2454	80000948	f5811fa3	sh	x24,-161(x2)	  x2:0x80008239 x24:0x20212223 PA:0x80008198
       24565000	      2455	8000094c	060103a3	sb	x0,103(x2)	  x2:0x80008239  x0:0x00000000 PA:0x800082a0
       24575000	      2456	80000950	006ae9b3	or	x19,x21,x6	 x21:0x80009f63  x6:0x0000001e x19=0x80009f7f
       24585000	      2457	80000954	f1d10583	lb	x11,-227(x2)	  x2:0x80008239 x11=0x0000000d PA:0x80008156
       24595000	      2458	00000000	00000013	addi	x0,x0,0	  x0:0x00000000
       24605000	      2459	80000958	88bcbf17	auipc	x30,0x88bcb	 x30=0x08bcb954
       24615000	      2460	8000095c	005b84b3	add	x9,x23,x5	 x23:0x80008b54  x5:0xfffffdb0  x9=0x80008904
       24625000	      2461	80000960	006ac9b3	xor	x19,x21,x6	 x21:0x80009f63  x6:0x0000001e x19=0x80009f7d
       24635000	      2462	80000964	07614583	lbu	x11,118(x2)	  x2:0x80008239 x11=0x00000064 PA:0x800082af
       24645000	      2463	80000968	00000013	addi	x0,x0,0	  x0:0x00000000
       24655000	      2464	8000096c	00c91213	slli	x4,x18,0xc	 x18:0x00000003  x4=0x00003000
       24665000	      2465	80000970	07a10a23	sb	x26,116(x2)	  x2:0x80008239 x26:0x800081de PA:0x800082ad
       24675000	      2466	80000974	f2014303	lbu	x6,-224(x2)	  x2:0x80008239  x6=0x00000012 PA:0x80008159
       24685000	      2467	80000978	0147a5b3	slt	x11,x15,x20	 x15:0x00000000 x20:0x00005859 x11=0x00000001
       24695000	      2468	8000097c	664b7793	andi	x15,x22,1636	 x22:0x000000e9 x15=0x00000060
       24705000	      2469	80000980	01d911b3	sll	x3,x18,x29	 x18:0x00000003 x29:0x00000016  x3=0x00c00000
       24715000	      2470	80000984	0de12da3	sw	x30,219(x2)	  x2:0x80008239 x30:0x08bcb954 PA:0x80008314
       24725000	      2471	80000988	008c49b3	xor	x19,x24,x8	 x24:0x20212223  x8:0x80009f64 x19=0xa021bd47
       24735000	      2472	8000098c	f3410a03	lb	x20,-204(x2)	  x2:0x80008239 x20=0x00000026 PA:0x8000816d
       24745000	      2473	80000990	61b4fe13	andi	x28,x9,1563	  x9:0x80008904 x28=0x00000000
       24755000	      2474	80000994	f183b293	sltiu	x5,x7,-232	  x7:0x00007071  x5=0x00000001
       24765000	      2475	80000998	00539393	slli	x7,x7,0x5	  x7:0x00007071  x7=0x000e0e20
       24775000	      2476	8000099c	006f7c33	and	x24,x30,x6	 x30:0x08bcb954  x6:0x00000012 x24=0x00000010
       24785000	      2477	800009a0	00a14b03	lbu	x22,10(x2)	  x2:0x80008239 x22=0x000000f8 PA:0x80008243
       24795000	      2478	800009a4	011dabb3	slt	x23,x27,x17	 x27:0x80008356 x17:0x80009a33 x23=0x00000001
       24805000	      2479	800009a8	015edb33	srl	x22,x29,x21	 x29:0x00000016 x21:0x80009f63 x22=0x00000002
       24815000	      2480	800009ac	b6056f13	ori	x30,x10,-1184	 x10:0xffffffa5 x30=0xffffffe5
       24825000	      2481	800009b0	00e14903	lbu	x18,14(x2)	  x2:0x80008239 x18=0x000000fc PA:0x80008247
       24835000	      2482	800009b4	1d8d7913	andi	x18,x26,472	 x26:0x800081de x18=0x000001d8
       24845000	      2483	800009b8	fb910623	sb	x25,-84(x2)	  x2:0x80008239 x25:0x00000000 PA:0x800081e5
       24855000	      2484	800009bc	40e18db3	sub	x27,x3,x14	  x3:0x00c00000 x14:0xffffff8c x27=0x00c00074
       24865000	      2485	800009c0	f6b74513	xori	x10,x14,-149	 x14:0xffffff8c x10=0x000000e7
       24875000	      2486	800009c4	f2b15983	lhu	x19,-213(x2)	  x2:0x80008239 x19=0x00001e1f PA:0x80008164
       24885000	      2487	800009c8	00c84cb3	xor	x25,x16,x12	 x16:0x80009fc4 x12:0xffc2bc99 x25=0x7fc2235d
       24895000	      2488	800009cc	03110423	sb	x17,40(x2)	  x2:0x80008239 x17:0x80009a33 PA:0x80008261
       24905000	      2489	800009d0	bf90fa93	andi	x21,x1,-1031	  x1:0x00000053 x21=0x00000051
       24915000	      2490	800009d4	f0714f83	lbu	x31,-249(x2)	  x2:0x80008239 x31=0x000000fb PA:0x80008140
       24925000	      2491	800009d8	09a10283	lb	x5,154(x2)	  x2:0x80008239  x5=0xffffff88 PA:0x800082d3
       24935000	      2492	800009dc	f78103a3	sb	x24,-153(x2)	  x2:0x80008239 x24:0x00000010 PA:0x800081a0
       24945000	      2493	800009e0	02a10923	sb	x10,50(x2)	  x2:0x80008239 x10:0x000000e7 PA:0x8000826b
       24955000	      2494	800009e4	00008597	auipc	x11,0x8	 x11=0x800089e0
       24965000	      2495	800009e8	20a58593	addi	x11,x11,522	 x11:0x800089e0 x11=0x80008bea
       24975000	      2496	800009ec	e975c703	lbu	x14,-361(x11)	 x11:0x80008bea x14=0x0000006a PA:0x80008a81
       24985000	      2497	800009f0	e0b5c103	lbu	x2,-501(x11)	 x11:0x80008bea  x2=0x000000de PA:0x800089f5
       24995000	      2498	800009f4	d795ce83	lbu	x29,-647(x11)	 x11:0x80008bea x29=0x00000000 PA:0x80008963
       25005000	      2499	800009f8	2375c283	lbu	x5,567(x11)	 x11:0x80008bea  x5=0x0000000a PA:0x80008e21
       25015000	      2500	800009fc	2b059903	lh	x18,688(x11)	 x11:0x80008bea x18=0xffff8081 PA:0x80008e9a
       25025000	      2501	80000a00	d4adab93	slti	x23,x27,-694	 x27:0x00c00074 x23=0x00000000
       25035000	      2502	80000a04	dd558703	lb	x14,-555(x11)	 x11:0x80008bea x14=0xffffffa4 PA:0x800089bf
       25045000	      2503	80000a08	2c859a03	lh	x20,712(x11)	 x11:0x80008bea x20=0xffff9899 PA:0x80008eb2
       25055000	      2504	80000a0c	00763533	sltu	x10,x12,x7	 x12:0xffc2bc99  x7:0x000e0e20 x10=0x00000000
       25065000	      2505	80000a10	002d5e93	srli	x29,x26,0x2	 x26:0x800081de x29=0x20002077
       25075000	      2506	80000a14	0182f033	and	x0,x5,x24	  x5:0x0000000a x24:0x00000010
       25085000	      2507	80000a18	5ae75397	auipc	x7,0x5ae75	  x7=0xdae75a14
       25095000	      2508	80000a1c	01200933	add	x18,x0,x18	  x0:0x00000000 x18:0xffff8081 x18=0xffff8081
       25105000	      2509	80000a20	29b58e23	sb	x27,668(x11)	 x11:0x80008bea x27:0x00c00074 PA:0x80008e86
       25115000	      2510	80000a24	00000013	addi	x0,x0,0	  x0:0x00000000
       25125000	      2511	80000a28	01632cb3	slt	x25,x6,x22	  x6:0x00000012 x22:0x00000002 x25=0x00000000
       25135000	      2512	80000a2c	34d2ca13	xori	x20,x5,845	  x5:0x0000000a x20=0x00000347
       25145000	      2513	80000a30	01d7f533	and	x10,x15,x29	 x15:0x00000060 x29:0x20002077 x10=0x00000060
       25155000	      2514	80000a34	c4d5ab23	sw	x13,-938(x11)	 x11:0x80008bea x13:0x00000004 PA:0x80008840
       25165000	      2515	80000a38	dd75c503	lbu	x10,-553(x11)	 x11:0x80008bea x10=0x000000ac PA:0x800089c1
       25175000	      2516	80000a3c	31cfe493	ori	x9,x31,796	 x31:0x000000fb  x9=0x000003ff
       25185000	      2517	80000a40	2ea58fa3	sb	x10,767(x11)	 x11:0x80008bea x10:0x000000ac PA:0x80008ee9
       25195000	      2518	80000a44	00008117	auipc	x2,0x8	  x2=0x80008a40
       25205000	      2519	80000a48	c7f10113	addi	x2,x2,-897	  x2:0x80008a40  x2=0x800086bf
       25215000	      2520	80000a4c	fb112183	lw	x3,-79(x2)	  x2:0x800086bf  x3=0x28292a2b PA:0x80008670
       25225000	      2521	80000a50	fb112583	lw	x11,-79(x2)	  x2:0x800086bf x11=0x28292a2b PA:0x80008670
       25235000	      2522	80000a54	f1414883	lbu	x17,-236(x2)	  x2:0x800086bf x17=0x0000006c PA:0x800085d3
       25245000	      2523	80000a58	01c2c6b3	xor	x13,x5,x28	  x5:0x0000000a x28:0x00000000 x13=0x0000000a
       25255000	      2524	80000a5c	f1a10a23	sb	x26,-236(x2)	  x2:0x800086bf x26:0x800081de PA:0x800085d3
       25265000	      2525	80000a60	f1414303	lbu	x6,-236(x2)	  x2:0x800086bf  x6=0x000000de PA:0x800085d3
       25275000	      2526	80000a64	f1410983	lb	x19,-236(x2)	  x2:0x800086bf x19=0xffffffde PA:0x800085d3
       25285000	      2527	80000a68	41bc0b33	sub	x22,x24,x27	 x24:0x00000010 x27:0x00c00074 x22=0xff3fff9c
       25295000	      2528	80000a6c	f3115a03	lhu	x20,-207(x2)	  x2:0x800086bf x20=0x0000000a PA:0x800085f0
       25305000	      2529	80000a70	f3110583	lb	x11,-207(x2)	  x2:0x800086bf x11=0x0000000a PA:0x800085f0
       25315000	      2530	80000a74	f3111003	lh	x0,-207(x2)	  x2:0x800086bf PA:0x800085f0
       25325000	      2531	80000a78	f3110483	lb	x9,-207(x2)	  x2:0x800086bf  x9=0x0000000a PA:0x800085f0
       25335000	      2532	80000a7c	f23128a3	sw	x3,-207(x2)	  x2:0x800086bf  x3:0x28292a2b PA:0x800085f0
       25345000	      2533	80000a80	f39128a3	sw	x25,-207(x2)	  x2:0x800086bf x25:0x00000000 PA:0x800085f0
       25355000	      2534	80000a84	f25108a3	sb	x5,-207(x2)	  x2:0x800086bf  x5:0x0000000a PA:0x800085f0
       25365000	      2535	80000a88	01395693	srli	x13,x18,0x13	 x18:0xffff8081 x13=0x00001fff
       25375000	      2536	80000a8c	f3111483	lh	x9,-207(x2)	  x2:0x800086bf  x9=0x0000000a PA:0x800085f0
       25385000	      2537	80000a90	f3110e03	lb	x28,-207(x2)	  x2:0x800086bf x28=0x0000000a PA:0x800085f0
       25395000	      2538	80000a94	f3111083	lh	x1,-207(x2)	  x2:0x800086bf  x1=0x0000000a PA:0x800085f0
       25405000	      2539	80000a98	f3111703	lh	x14,-207(x2)	  x2:0x800086bf x14=0x0000000a PA:0x800085f0
       25415000	      2540	80000a9c	03618263	beq	x3,x22,80000ac0	  x3:0x28292a2b x22:0xff3fff9c
       25425000	      2541	80000aa0	00995013	srli	x0,x18,0x9	 x18:0xffff8081
       25435000	      2542	80000aa4	bacce713	ori	x14,x25,-1108	 x25:0x00000000 x14=0xfffffbac
       25445000	      2543	80000aa8	bd460213	addi	x4,x12,-1068	 x12:0xffc2bc99  x4=0xffc2b86d
       25455000	      2544	80000aac	02b21263	bne	x4,x11,80000ad0	  x4:0xffc2b86d x11:0x0000000a
       25465000	      2545	00000000	00000013	addi	x0,x0,0	  x0:0x00000000
       25475000	      2546	80000acc	00000013	addi	x0,x0,0	  x0:0x00000000
       25485000	      2547	80000ad0	0ca71663	bne	x14,x10,80000b9c	 x14:0xfffffbac x10:0x000000ac
       25495000	      2548	00000000	00000013	addi	x0,x0,0	  x0:0x00000000
       25505000	      2549	80000b98	00000013	addi	x0,x0,0	  x0:0x00000000
       25515000	      2550	80000b9c	425d8197	auipc	x3,0x425d8	  x3=0xc25d8b98
       25525000	      2551	80000ba0	00d444b3	xor	x9,x8,x13	  x8:0x80009f64 x13:0x00001fff  x9=0x8000809b
       25535000	      2552	80000ba4	00000013	addi	x0,x0,0	  x0:0x00000000
       25545000	      2553	80000ba8	01771263	bne	x14,x23,80000bac	 x14:0xfffffbac x23:0x00000000
       25555000	      2554	00000000	00000013	addi	x0,x0,0	  x0:0x00000000
       25565000	      2555	80000ba8	00000013	addi	x0,x0,0	  x0:0x00000000
       25575000	      2556	80000bac	00d6e663	bltu	x13,x13,80000bb8	 x13:0x00001fff x13:0x00001fff
       25585000	      2557	80000bb0	03af7863	bgeu	x30,x26,80000be0	 x30:0xffffffe5 x26:0x800081de
       25595000	      2558	00000000	00000013	addi	x0,x0,0	  x0:0x00000000
       25605000	      2559	80000bdc	00000013	addi	x0,x0,0	  x0:0x00000000
       25615000	      2560	80000be0	496bc037	lui	x0,0x496bc	
       25625000	      2561	80000be4	4166d793	srai	x15,x13,0x16	 x13:0x00001fff x15=0x00000000
       25635000	      2562	80000be8	01efe733	or	x14,x31,x30	 x31:0x000000fb x30:0xffffffe5 x14=0xffffffff
       25645000	      2563	80000bec	84aace13	xori	x28,x21,-1974	 x21:0x00000051 x28=0xfffff81b
       25655000	      2564	80000bf0	014c1933	sll	x18,x24,x20	 x24:0x00000010 x20:0x0000000a x18=0x00004000
       25665000	      2565	80000bf4	00372e33	slt	x28,x14,x3	 x14:0xffffffff  x3:0xc25d8b98 x28=0x00000000
       25675000	      2566	80000bf8	0051fc63	bgeu	x3,x5,80000c10	  x3:0xc25d8b98  x5:0x0000000a
       25685000	      2567	00000000	00000013	addi	x0,x0,0	  x0:0x00000000
       25695000	      2568	80000c0c	00000013	addi	x0,x0,0	  x0:0x00000000
       25705000	      2569	80000c10	03525e63	bge	x4,x21,80000c4c	  x4:0xffc2b86d x21:0x00000051
       25715000	      2570	80000c14	e3902593	slti	x11,x0,-455	  x0:0x00000000 x11=0x00000000
       25725000	      2571	80000c18	59a7ba37	lui	x20,0x59a7b	 x20=0x59a7b000
       25735000	      2572	80000c1c	00356f33	or	x30,x10,x3	 x10:0x000000ac  x3:0xc25d8b98 x30=0xc25d8bbc
       25745000	      2573	80000c20	005d9e93	slli	x29,x27,0x5	 x27:0x00c00074 x29=0x18000e80
       25755000	      2574	80000c24	006708b3	add	x17,x14,x6	 x14:0xffffffff  x6:0x000000de x17=0x000000dd
       25765000	      2575	80000c28	5a657313	andi	x6,x10,1446	 x10:0x000000ac  x6=0x000000a4
       25775000	      2576	80000c2c	2f430213	addi	x4,x6,756	  x6:0x000000a4  x4=0x00000398
       25785000	      2577	80000c30	00000013	addi	x0,x0,0	  x0:0x00000000
       25795000	      2578	80000c34	01bbc2b3	xor	x5,x23,x27	 x23:0x00000000 x27:0x00c00074  x5=0x00c00074
       25805000	      2579	80000c38	00bf95b3	sll	x11,x31,x11	 x31:0x000000fb x11:0x00000000 x11=0x000000fb
       25815000	      2580	80000c3c	00461f93	slli	x31,x12,0x4	 x12:0xffc2bc99 x31=0xfc2bc990
       25825000	      2581	80000c40	04a37663	bgeu	x6,x10,80000c8c	  x6:0x000000a4 x10:0x000000ac
       25835000	      2582	80000c44	03817a63	bgeu	x2,x24,80000c78	  x2:0x800086bf x24:0x00000010
       25845000	      2583	00000000	00000013	addi	x0,x0,0	  x0:0x00000000
       25855000	      2584	80000c74	00000013	addi	x0,x0,0	  x0:0x00000000
       25865000	      2585	80000c78	01b7c233	xor	x4,x15,x27	 x15:0x00000000 x27:0x00c00074  x4=0x00c00074
       25875000	      2586	80000c7c	2a55da17	auipc	x20,0x2a55d	 x20=0xaa55dc78
       25885000	      2587	80000c80	7fdf3c93	sltiu	x25,x30,2045	 x30:0xc25d8bbc x25=0x00000000
       25895000	      2588	80000c84	01927733	and	x14,x4,x25	  x4:0x00c00074 x25:0x00000000 x14=0x00000000
       25905000	      2589	80000c88	01d15a13	srli	x20,x2,0x1d	  x2:0x800086bf x20=0x00000004
       25915000	      2590	80000c8c	00000013	addi	x0,x0,0	  x0:0x00000000
       25925000	      2591	80000c90	009794b3	sll	x9,x15,x9	 x15:0x00000000  x9:0x8000809b  x9=0x00000000
       25935000	      2592	80000c94	407c0eb3	sub	x29,x24,x7	 x24:0x00000010  x7:0xdae75a14 x29=0x2518a5fc
       25945000	      2593	80000c98	40b70333	sub	x6,x14,x11	 x14:0x00000000 x11:0x000000fb  x6=0xffffff05
       25955000	      2594	80000c9c	007d47b3	xor	x15,x26,x7	 x26:0x800081de  x7:0xdae75a14 x15=0x5ae7dbca
       25965000	      2595	80000ca0	409201b3	sub	x3,x4,x9	  x4:0x00c00074  x9:0x00000000  x3=0x00c00074
       25975000	      2596	80000ca4	0040ff33	and	x30,x1,x4	  x1:0x0000000a  x4:0x00c00074 x30=0x00000000
       25985000	      2597	80000ca8	00fa6ab3	or	x21,x20,x15	 x20:0x00000004 x15:0x5ae7dbca x21=0x5ae7dbce
       25995000	      2598	80000cac	02b0ce63	blt	x1,x11,80000ce8	  x1:0x0000000a x11:0x000000fb
       26005000	      2599	00000000	00000013	addi	x0,x0,0	  x0:0x00000000
       26015000	      2600	80000ce4	00000013	addi	x0,x0,0	  x0:0x00000000
       26025000	      2601	80000ce8	01e63533	sltu	x10,x12,x30	 x12:0xffc2bc99 x30:0x00000000 x10=0x00000000
       26035000	      2602	80000cec	007102b3	add	x5,x2,x7	  x2:0x800086bf  x7:0xdae75a14  x5=0x5ae7e0d3
       26045000	      2603	80000cf0	84a86493	ori	x9,x16,-1974	 x16:0x80009fc4  x9=0xffffffce
       26055000	      2604	80000cf4	00670463	beq	x14,x6,80000cfc	 x14:0x00000000  x6:0xffffff05
       26065000	      2605	80000cf8	02ef5e63	bge	x30,x14,80000d34	 x30:0x00000000 x14:0x00000000
       26075000	      2606	00000000	00000013	addi	x0,x0,0	  x0:0x00000000
       26085000	      2607	80000d30	00000013	addi	x0,x0,0	  x0:0x00000000
       26095000	      2608	80000d34	00131d13	slli	x26,x6,0x1	  x6:0xffffff05 x26=0xfffffe0a
       26105000	      2609	80000d38	e4a7f113	andi	x2,x15,-438	 x15:0x5ae7dbca  x2=0x5ae7da4a
       26115000	      2610	80000d3c	03026863	bltu	x4,x16,80000d6c	  x4:0x00c00074 x16:0x80009fc4
       26125000	      2611	00000000	00000013	addi	x0,x0,0	  x0:0x00000000
       26135000	      2612	80000d68	00000013	addi	x0,x0,0	  x0:0x00000000
       26145000	      2613	80000d6c	01d9af33	slt	x30,x19,x29	 x19:0xffffffde x29:0x2518a5fc x30=0x00000001
       26155000	      2614	80000d70	40405d33	sra	x26,x0,x4	  x0:0x00000000  x4:0x00c00074 x26=0x00000000
       26165000	      2615	80000d74	00be5d13	srli	x26,x28,0xb	 x28:0x00000000 x26=0x00000000
       26175000	      2616	80000d78	0076ecb3	or	x25,x13,x7	 x13:0x00001fff  x7:0xdae75a14 x25=0xdae75fff
       26185000	      2617	80000d7c	cb286213	ori	x4,x16,-846	 x16:0x80009fc4  x4=0xfffffff6
       26195000	      2618	80000d80	00ee5863	bge	x28,x14,80000d90	 x28:0x00000000 x14:0x00000000
       26205000	      2619	00000000	00000013	addi	x0,x0,0	  x0:0x00000000
       26215000	      2620	80000d8c	00000013	addi	x0,x0,0	  x0:0x00000000
       26225000	      2621	80000d90	d466a8b7	lui	x17,0xd466a	 x17=0xd466a000
       26235000	      2622	80000d94	0169f5b3	and	x11,x19,x22	 x19:0xffffffde x22:0xff3fff9c x11=0xff3fff9c
       26245000	      2623	80000d98	40ced133	sra	x2,x29,x12	 x29:0x2518a5fc x12:0xffc2bc99  x2=0x00000012
       26255000	      2624	80000d9c	0143db33	srl	x22,x7,x20	  x7:0xdae75a14 x20:0x00000004 x22=0x0dae75a1
       26265000	      2625	80000da0	01d8b0b3	sltu	x1,x17,x29	 x17:0xd466a000 x29:0x2518a5fc  x1=0x00000000
       26275000	      2626	80000da4	414481b3	sub	x3,x9,x20	  x9:0xffffffce x20:0x00000004  x3=0xffffffca
       26285000	      2627	80000da8	5f652117	auipc	x2,0x5f652	  x2=0xdf652da4
       26295000	      2628	80000dac	04ba6863	bltu	x20,x11,80000dfc	 x20:0x00000004 x11:0xff3fff9c
       26305000	      2629	00000000	00000013	addi	x0,x0,0	  x0:0x00000000
       26315000	      2630	80000df8	00000013	addi	x0,x0,0	  x0:0x00000000
       26325000	      2631	80000dfc	a62abd97	auipc	x27,0xa62ab	 x27=0x262abdf8
       26335000	      2632	80000e00	01914db3	xor	x27,x2,x25	  x2:0xdf652da4 x25:0xdae75fff x27=0x0582725b
       26345000	      2633	80000e04	01640663	beq	x8,x22,80000e10	  x8:0x80009f64 x22:0x0dae75a1
       26355000	      2634	80000e08	6e202217	auipc	x4,0x6e202	  x4=0xee202e04
       26365000	      2635	80000e0c	030dfe63	bgeu	x27,x16,80000e48	 x27:0x0582725b x16:0x80009fc4
       26375000	      2636	80000e10	00908db3	add	x27,x1,x9	  x1:0x00000000  x9:0xffffffce x27=0xffffffce
       26385000	      2637	80000e14	d9230493	addi	x9,x6,-622	  x6:0xffffff05  x9=0xfffffc97
       26395000	      2638	80000e18	004cf0b3	and	x1,x25,x4	 x25:0xdae75fff  x4:0xee202e04  x1=0xca200e04
       26405000	      2639	80000e1c	b8807b13	andi	x22,x0,-1144	  x0:0x00000000 x22=0x00000000
       26415000	      2640	80000e20	eeac2e17	auipc	x28,0xeeac2	 x28=0x6eac2e1c
       26425000	      2641	80000e24	000a5313	srli	x6,x20,0x0	 x20:0x00000004  x6=0x00000004
       26435000	      2642	80000e28	757efbb7	lui	x23,0x757ef	 x23=0x757ef000
       26445000	      2643	80000e2c	004e98b3	sll	x17,x29,x4	 x29:0x2518a5fc  x4:0xee202e04 x17=0x518a5fc0
       26455000	      2644	80000e30	8d330397	auipc	x7,0x8d330	  x7=0x0d330e2c
       26465000	      2645	80000e34	004850b3	srl	x1,x16,x4	 x16:0x80009fc4  x4:0xee202e04  x1=0x080009fc
       26475000	      2646	80000e38	40755033	sra	x0,x10,x7	 x10:0x00000000  x7:0x0d330e2c
       26485000	      2647	80000e3c	41b3d733	sra	x14,x7,x27	  x7:0x0d330e2c x27:0xffffffce x14=0x000034cc
       26495000	      2648	80000e40	00579c33	sll	x24,x15,x5	 x15:0x5ae7dbca  x5:0x5ae7e0d3 x24=0xde500000
       26505000	      2649	80000e44	c5d12213	slti	x4,x2,-931	  x2:0xdf652da4  x4=0x00000001
       26515000	      2650	80000e48	03e47a63	bgeu	x8,x30,80000e7c	  x8:0x80009f64 x30:0x00000001
       26525000	      2651	00000000	00000013	addi	x0,x0,0	  x0:0x00000000
       26535000	      2652	80000e78	00000013	addi	x0,x0,0	  x0:0x00000000
       26545000	      2653	80000e7c	008307b3	add	x15,x6,x8	  x6:0x00000004  x8:0x80009f64 x15=0x80009f68
       26555000	      2654	80000e80	25b3cc13	xori	x24,x7,603	  x7:0x0d330e2c x24=0x0d330c77
       26565000	      2655	80000e84	01398db3	add	x27,x19,x19	 x19:0xffffffde x19:0xffffffde x27=0xffffffbc
       26575000	      2656	80000e88	00407ab3	and	x21,x0,x4	  x0:0x00000000  x4:0x00000001 x21=0x00000000
       26585000	      2657	80000e8c	03df8863	beq	x31,x29,80000ebc	 x31:0xfc2bc990 x29:0x2518a5fc
       26595000	      2658	80000e90	ffba3f13	sltiu	x30,x20,-5	 x20:0x00000004 x30=0x00000001
       26605000	      2659	80000e94	f81d6393	ori	x7,x26,-127	 x26:0x00000000  x7=0xffffff81
       26615000	      2660	80000e98	00571333	sll	x6,x14,x5	 x14:0x000034cc  x5:0x5ae7e0d3  x6=0xa6600000
       26625000	      2661	80000e9c	002fb8b3	sltu	x17,x31,x2	 x31:0xfc2bc990  x2:0xdf652da4 x17=0x00000000
       26635000	      2662	80000ea0	00de7133	and	x2,x28,x13	 x28:0x6eac2e1c x13:0x00001fff  x2=0x00000e1c
       26645000	      2663	80000ea4	00e5d313	srli	x6,x11,0xe	 x11:0xff3fff9c  x6=0x0003fcff
       26655000	      2664	80000ea8	02bef263	bgeu	x29,x11,80000ecc	 x29:0x2518a5fc x11:0xff3fff9c
       26665000	      2665	80000eac	011e3233	sltu	x4,x28,x17	 x28:0x6eac2e1c x17:0x00000000  x4=0x00000000
       26675000	      2666	80000eb0	000f7733	and	x14,x30,x0	 x30:0x00000001  x0:0x00000000 x14=0x00000000
       26685000	      2667	80000eb4	ff1cc993	xori	x19,x25,-15	 x25:0xdae75fff x19=0x2518a00e
       26695000	      2668	80000eb8	04051863	bne	x10,x0,80000f08	 x10:0x00000000  x0:0x00000000
       26705000	      2669	80000ebc	dc5fb313	sltiu	x6,x31,-571	 x31:0xfc2bc990  x6=0x00000001
       26715000	      2670	80000ec0	030f9e63	bne	x31,x16,80000efc	 x31:0xfc2bc990 x16:0x80009fc4
       26725000	      2671	00000000	00000013	addi	x0,x0,0	  x0:0x00000000
       26735000	      2672	80000ef8	00000013	addi	x0,x0,0	  x0:0x00000000
       26745000	      2673	80000efc	01d51f93	slli	x31,x10,0x1d	 x10:0x00000000 x31=0x00000000
       26755000	      2674	80000f00	01c194b3	sll	x9,x3,x28	  x3:0xffffffca x28:0x6eac2e1c  x9=0xa0000000
       26765000	      2675	80000f04	014266b3	or	x13,x4,x20	  x4:0x00000000 x20:0x00000004 x13=0x00000004
       26775000	      2676	80000f08	01ce5b33	srl	x22,x28,x28	 x28:0x6eac2e1c x28:0x6eac2e1c x22=0x00000006
       26785000	      2677	80000f0c	948337b7	lui	x15,0x94833	 x15=0x94833000
       26795000	      2678	80000f10	0030ca33	xor	x20,x1,x3	  x1:0x080009fc  x3:0xffffffca x20=0xf7fff636
       26805000	      2679	80000f14	6ded7697	auipc	x13,0x6ded7	 x13=0xeded7f10
       26815000	      2680	80000f18	01c28d33	add	x26,x5,x28	  x5:0x5ae7e0d3 x28:0x6eac2e1c x26=0xc9940eef
       26825000	      2681	80000f1c	03210e63	beq	x2,x18,80000f58	  x2:0x00000e1c x18:0x00004000
       26835000	      2682	80000f20	01057cb3	and	x25,x10,x16	 x10:0x00000000 x16:0x80009fc4 x25=0x00000000
       26845000	      2683	80000f24	1206aa13	slti	x20,x13,288	 x13:0xeded7f10 x20=0x00000001
       26855000	      2684	80000f28	032c1e63	bne	x24,x18,80000f64	 x24:0x0d330c77 x18:0x00004000
       26865000	      2685	00000000	00000013	addi	x0,x0,0	  x0:0x00000000
       26875000	      2686	80000f60	00000013	addi	x0,x0,0	  x0:0x00000000
       26885000	      2687	80000f64	0362d463	bge	x5,x22,80000f8c	  x5:0x5ae7e0d3 x22:0x00000006
       26895000	      2688	00000000	00000013	addi	x0,x0,0	  x0:0x00000000
       26905000	      2689	80000f88	00000013	addi	x0,x0,0	  x0:0x00000000
       26915000	      2690	80000f8c	0010aa33	slt	x20,x1,x1	  x1:0x080009fc  x1:0x080009fc x20=0x00000000
       26925000	      2691	80000f90	6fadf493	andi	x9,x27,1786	 x27:0xffffffbc  x9=0x000006b8
       26935000	      2692	80000f94	004d5193	srli	x3,x26,0x4	 x26:0xc9940eef  x3=0x0c9940ee
       26945000	      2693	80000f98	02fa0e63	beq	x20,x15,80000fd4	 x20:0x00000000 x15:0x94833000
       26955000	      2694	80000f9c	749e79b7	lui	x19,0x749e7	 x19=0x749e7000
       26965000	      2695	80000fa0	010b4e33	xor	x28,x22,x16	 x22:0x00000006 x16:0x80009fc4 x28=0x80009fc2
       26975000	      2696	80000fa4	f71a6b17	auipc	x22,0xf71a6	 x22=0x771a6fa0
       26985000	      2697	80000fa8	01d61293	slli	x5,x12,0x1d	 x12:0xffc2bc99  x5=0x20000000
       26995000	      2698	80000fac	662dbb13	sltiu	x22,x27,1634	 x27:0xffffffbc x22=0x00000000
       27005000	      2699	80000fb0	00614eb3	xor	x29,x2,x6	  x2:0x00000e1c  x6:0x00000001 x29=0x00000e1d
       27015000	      2700	80000fb4	41db01b3	sub	x3,x22,x29	 x22:0x00000000 x29:0x00000e1d  x3=0xfffff1e3
       27025000	      2701	80000fb8	cf310f13	addi	x30,x2,-781	  x2:0x00000e1c x30=0x00000b0f
       27035000	      2702	80000fbc	41080033	sub	x0,x16,x16	 x16:0x80009fc4 x16:0x80009fc4
       27045000	      2703	80000fc0	e320a393	slti	x7,x1,-462	  x1:0x080009fc  x7=0x00000000
       27055000	      2704	80000fc4	40acd493	srai	x9,x25,0xa	 x25:0x00000000  x9=0x00000000
       27065000	      2705	80000fc8	19683b13	sltiu	x22,x16,406	 x16:0x80009fc4 x22=0x00000000
       27075000	      2706	80000fcc	54103b93	sltiu	x23,x0,1345	  x0:0x00000000 x23=0x00000001
       27085000	      2707	80000fd0	04f36663	bltu	x6,x15,8000101c	  x6:0x00000001 x15:0x94833000
       27095000	      2708	00000000	00000013	addi	x0,x0,0	  x0:0x00000000
       27105000	      2709	80001018	00000013	addi	x0,x0,0	  x0:0x00000000
       27115000	      2710	8000101c	40f98f33	sub	x30,x19,x15	 x19:0x749e7000 x15:0x94833000 x30=0xe01b4000
       27125000	      2711	80001020	00000013	addi	x0,x0,0	  x0:0x00000000
       27135000	      2712	80001024	78483d13	sltiu	x26,x16,1924	 x16:0x80009fc4 x26=0x00000000
       27145000	      2713	80001028	016f17b3	sll	x15,x30,x22	 x30:0xe01b4000 x22:0x00000000 x15=0xe01b4000
       27155000	      2714	8000102c	68b1a197	auipc	x3,0x68b1a	  x3=0xe8b1b028
       27165000	      2715	80001030	20da3393	sltiu	x7,x20,525	 x20:0x00000000  x7=0x00000001
       27175000	      2716	80001034	8e01b493	sltiu	x9,x3,-1824	  x3:0xe8b1b028  x9=0x00000001
       27185000	      2717	80001038	c0800e13	addi	x28,x0,-1016	  x0:0x00000000 x28=0xfffffc08
       27195000	      2718	8000103c	0151e733	or	x14,x3,x21	  x3:0xe8b1b028 x21:0x00000000 x14=0xe8b1b028
       27205000	      2719	80001040	02b21463	bne	x4,x11,80001068	  x4:0x00000000 x11:0xff3fff9c
       27215000	      2720	00000000	00000013	addi	x0,x0,0	  x0:0x00000000
       27225000	      2721	80001064	00000013	addi	x0,x0,0	  x0:0x00000000
       27235000	      2722	80001068	001f1663	bne	x30,x1,80001074	 x30:0xe01b4000  x1:0x080009fc
       27245000	      2723	00000000	00000013	addi	x0,x0,0	  x0:0x00000000
       27255000	      2724	80001070	00000013	addi	x0,x0,0	  x0:0x00000000
       27265000	      2725	80001074	011f6bb3	or	x23,x30,x17	 x30:0xe01b4000 x17:0x00000000 x23=0xe01b4000
       27275000	      2726	80001078	5ecaf193	andi	x3,x21,1516	 x21:0x00000000  x3=0x00000000
       27285000	      2727	8000107c	01e19693	slli	x13,x3,0x1e	  x3:0x00000000 x13=0x00000000
       27295000	      2728	80001080	cb7ae193	ori	x3,x21,-841	 x21:0x00000000  x3=0xfffffcb7
       27305000	      2729	80001084	01a93233	sltu	x4,x18,x26	 x18:0x00004000 x26:0x00000000  x4=0x00000000
       27315000	      2730	80001088	008b4f33	xor	x30,x22,x8	 x22:0x00000000  x8:0x80009f64 x30=0x80009f64
       27325000	      2731	8000108c	01309463	bne	x1,x19,80001094	  x1:0x080009fc x19:0x749e7000
       27335000	      2732	00000000	00000013	addi	x0,x0,0	  x0:0x00000000
       27345000	      2733	80001090	00000013	addi	x0,x0,0	  x0:0x00000000
       27355000	      2734	80001094	0062da33	srl	x20,x5,x6	  x5:0x20000000  x6:0x00000001 x20=0x10000000
       27365000	      2735	80001098	7aca7a93	andi	x21,x20,1964	 x20:0x10000000 x21=0x00000000
       27375000	      2736	8000109c	404ad6b3	sra	x13,x21,x4	 x21:0x00000000  x4:0x00000000 x13=0x00000000
       27385000	      2737	800010a0	fedc7913	andi	x18,x24,-19	 x24:0x0d330c77 x18=0x0d330c65
       27395000	      2738	800010a4	02047263	bgeu	x8,x0,800010c8	  x8:0x80009f64  x0:0x00000000
       27405000	      2739	00000000	00000013	addi	x0,x0,0	  x0:0x00000000
       27415000	      2740	800010c4	00000013	addi	x0,x0,0	  x0:0x00000000
       27425000	      2741	800010c8	00009213	slli	x4,x1,0x0	  x1:0x080009fc  x4=0x080009fc
       27435000	      2742	800010cc	54fe0a13	addi	x20,x28,1359	 x28:0xfffffc08 x20=0x00000157
       27445000	      2743	800010d0	00056663	bltu	x10,x0,800010dc	 x10:0x00000000  x0:0x00000000
       27455000	      2744	800010d4	00aab333	sltu	x6,x21,x10	 x21:0x00000000 x10:0x00000000  x6=0x00000000
       27465000	      2745	800010d8	00dffc63	bgeu	x31,x13,800010f0	 x31:0x00000000 x13:0x00000000
       27475000	      2746	00000000	00000013	addi	x0,x0,0	  x0:0x00000000
       27485000	      2747	800010ec	00000013	addi	x0,x0,0	  x0:0x00000000
       27495000	      2748	800010f0	8fface93	xori	x29,x21,-1793	 x21:0x00000000 x29=0xfffff8ff
       27505000	      2749	800010f4	03d84e63	blt	x16,x29,80001130	 x16:0x80009fc4 x29:0xfffff8ff
       27515000	      2750	00000000	00000013	addi	x0,x0,0	  x0:0x00000000
       27525000	      2751	8000112c	00000013	addi	x0,x0,0	  x0:0x00000000
       27535000	      2752	80001130	00231fb3	sll	x31,x6,x2	  x6:0x00000000  x2:0x00000e1c x31=0x00000000
       27545000	      2753	80001134	03d6de63	bge	x13,x29,80001170	 x13:0x00000000 x29:0xfffff8ff
       27555000	      2754	00000000	00000013	addi	x0,x0,0	  x0:0x00000000
       27565000	      2755	8000116c	00000013	addi	x0,x0,0	  x0:0x00000000
       27575000	      2756	80001170	0035b2b3	sltu	x5,x11,x3	 x11:0xff3fff9c  x3:0xfffffcb7  x5=0x00000001
       27585000	      2757	80001174	475b7713	andi	x14,x22,1141	 x22:0x00000000 x14=0x00000000
       27595000	      2758	80001178	1fdd0693	addi	x13,x26,509	 x26:0x00000000 x13=0x000001fd
       27605000	      2759	8000117c	0088a033	slt	x0,x17,x8	 x17:0x00000000  x8:0x80009f64
       27615000	      2760	80001180	03429e63	bne	x5,x20,800011bc	  x5:0x00000001 x20:0x00000157
       27625000	      2761	00000000	00000013	addi	x0,x0,0	  x0:0x00000000
       27635000	      2762	800011b8	00000013	addi	x0,x0,0	  x0:0x00000000
       27645000	      2763	800011bc	013c7d33	and	x26,x24,x19	 x24:0x0d330c77 x19:0x749e7000 x26=0x04120000
       27655000	      2764	800011c0	01e907b3	add	x15,x18,x30	 x18:0x0d330c65 x30:0x80009f64 x15=0x8d33abc9
       27665000	      2765	800011c4	bdec4a37	lui	x20,0xbdec4	 x20=0xbdec4000
       27675000	      2766	800011c8	00636c63	bltu	x6,x6,800011e0	  x6:0x00000000  x6:0x00000000
       27685000	      2767	800011cc	019cd293	srli	x5,x25,0x19	 x25:0x00000000  x5=0x00000000
       27695000	      2768	800011d0	01717d33	and	x26,x2,x23	  x2:0x00000e1c x23:0xe01b4000 x26=0x00000000
       27705000	      2769	800011d4	57cfd1b7	lui	x3,0x57cfd	  x3=0x57cfd000
       27715000	      2770	800011d8	00882ab3	slt	x21,x16,x8	 x16:0x80009fc4  x8:0x80009f64 x21=0x00000000
       27725000	      2771	800011dc	022b0863	beq	x22,x2,8000120c	 x22:0x00000000  x2:0x00000e1c
       27735000	      2772	800011e0	26397513	andi	x10,x18,611	 x18:0x0d330c65 x10=0x00000061
       27745000	      2773	800011e4	4f7d6717	auipc	x14,0x4f7d6	 x14=0xcf7d71e0
       27755000	      2774	800011e8	000ff233	and	x4,x31,x0	 x31:0x00000000  x0:0x00000000  x4=0x00000000
       27765000	      2775	800011ec	01931b93	slli	x23,x6,0x19	  x6:0x00000000 x23=0x00000000
       27775000	      2776	800011f0	008e40b3	xor	x1,x28,x8	 x28:0xfffffc08  x8:0x80009f64  x1=0x7fff636c
       27785000	      2777	800011f4	00000013	addi	x0,x0,0	  x0:0x00000000
       27795000	      2778	800011f8	00597cb3	and	x25,x18,x5	 x18:0x0d330c65  x5:0x00000000 x25=0x00000000
       27805000	      2779	800011fc	dfd8f593	andi	x11,x17,-515	 x17:0x00000000 x11=0x00000000
       27815000	      2780	80001200	00411db3	sll	x27,x2,x4	  x2:0x00000e1c  x4:0x00000000 x27=0x00000e1c
       27825000	      2781	80001204	00aa08b3	add	x17,x20,x10	 x20:0xbdec4000 x10:0x00000061 x17=0xbdec4061
       27835000	      2782	80001208	00265eb3	srl	x29,x12,x2	 x12:0xffc2bc99  x2:0x00000e1c x29=0x0000000f
       27845000	      2783	8000120c	0011fab3	and	x21,x3,x1	  x3:0x57cfd000  x1:0x7fff636c x21=0x57cf4000
       27855000	      2784	80001210	03d2d863	bge	x5,x29,80001240	  x5:0x00000000 x29:0x0000000f
       27865000	      2785	80001214	01d2e3b3	or	x7,x5,x29	  x5:0x00000000 x29:0x0000000f  x7=0x0000000f
       27875000	      2786	80001218	02486e63	bltu	x16,x4,80001254	 x16:0x80009fc4  x4:0x00000000
       27885000	      2787	8000121c	842d2993	slti	x19,x26,-1982	 x26:0x00000000 x19=0x00000000
       27895000	      2788	80001220	cd938393	addi	x7,x7,-807	  x7:0x0000000f  x7=0xfffffce8
       27905000	      2789	80001224	0164ce33	xor	x28,x9,x22	  x9:0x00000001 x22:0x00000000 x28=0x00000001
       27915000	      2790	80001228	2b774013	xori	x0,x14,695	 x14:0xcf7d71e0
       27925000	      2791	8000122c	4179d0b3	sra	x1,x19,x23	 x19:0x00000000 x23:0x00000000  x1=0x00000000
       27935000	      2792	80001230	24386493	ori	x9,x16,579	 x16:0x80009fc4  x9=0x80009fc7
       27945000	      2793	80001234	40470d33	sub	x26,x14,x4	 x14:0xcf7d71e0  x4:0x00000000 x26=0xcf7d71e0
       27955000	      2794	80001238	009c0333	add	x6,x24,x9	 x24:0x0d330c77  x9:0x80009fc7  x6=0x8d33ac3e
       27965000	      2795	8000123c	01ba4263	blt	x20,x27,80001240	 x20:0xbdec4000 x27:0x00000e1c
       27975000	      2796	00000000	00000013	addi	x0,x0,0	  x0:0x00000000
       27985000	      2797	8000123c	00000013	addi	x0,x0,0	  x0:0x00000000
       27995000	      2798	80001240	9b8ce913	ori	x18,x25,-1608	 x25:0x00000000 x18=0xfffff9b8
       28005000	      2799	80001244	b4d58893	addi	x17,x11,-1203	 x11:0x00000000 x17=0xfffffb4d
       28015000	      2800	80001248	d9044a13	xori	x20,x8,-624	  x8:0x80009f64 x20=0x7fff62f4
       28025000	      2801	8000124c	40f75d33	sra	x26,x14,x15	 x14:0xcf7d71e0 x15:0x8d33abc9 x26=0xffe7beb8
       28035000	      2802	80001250	0036ff33	and	x30,x13,x3	 x13:0x000001fd  x3:0x57cfd000 x30=0x00000000
       28045000	      2803	80001254	00310db3	add	x27,x2,x3	  x2:0x00000e1c  x3:0x57cfd000 x27=0x57cfde1c
       28055000	      2804	80001258	004362b3	or	x5,x6,x4	  x6:0x8d33ac3e  x4:0x00000000  x5=0x8d33ac3e
       28065000	      2805	8000125c	01a45493	srli	x9,x8,0x1a	  x8:0x80009f64  x9=0x00000020
       28075000	      2806	80001260	02a9de63	bge	x19,x10,8000129c	 x19:0x00000000 x10:0x00000061
       28085000	      2807	80001264	595a4593	xori	x11,x20,1429	 x20:0x7fff62f4 x11=0x7fff6761
       28095000	      2808	80001268	02cf9a63	bne	x31,x12,8000129c	 x31:0x00000000 x12:0xffc2bc99
       28105000	      2809	00000000	00000013	addi	x0,x0,0	  x0:0x00000000
       28115000	      2810	80001298	00000013	addi	x0,x0,0	  x0:0x00000000
       28125000	      2811	8000129c	02147863	bgeu	x8,x1,800012cc	  x8:0x80009f64  x1:0x00000000
       28135000	      2812	00000000	00000013	addi	x0,x0,0	  x0:0x00000000
       28145000	      2813	800012c8	00000013	addi	x0,x0,0	  x0:0x00000000
       28155000	      2814	800012cc	01e08463	beq	x1,x30,800012d4	  x1:0x00000000 x30:0x00000000
       28165000	      2815	00000000	00000013	addi	x0,x0,0	  x0:0x00000000
       28175000	      2816	800012d0	00000013	addi	x0,x0,0	  x0:0x00000000
       28185000	      2817	800012d4	005b8d33	add	x26,x23,x5	 x23:0x00000000  x5:0x8d33ac3e x26=0x8d33ac3e
       28195000	      2818	800012d8	01014b33	xor	x22,x2,x16	  x2:0x00000e1c x16:0x80009fc4 x22=0x800091d8
       28205000	      2819	800012dc	40215b13	srai	x22,x2,0x2	  x2:0x00000e1c x22=0x00000387
       28215000	      2820	800012e0	0187efb3	or	x31,x15,x24	 x15:0x8d33abc9 x24:0x0d330c77 x31=0x8d33afff
       28225000	      2821	800012e4	01a77663	bgeu	x14,x26,800012f0	 x14:0xcf7d71e0 x26:0x8d33ac3e
       28235000	      2822	00000000	00000013	addi	x0,x0,0	  x0:0x00000000
       28245000	      2823	800012ec	00000013	addi	x0,x0,0	  x0:0x00000000
       28255000	      2824	800012f0	32464e93	xori	x29,x12,804	 x12:0xffc2bc99 x29=0xffc2bfbd
       28265000	      2825	800012f4	ace88f13	addi	x30,x17,-1330	 x17:0xfffffb4d x30=0xfffff61b
       28275000	      2826	800012f8	00546ab3	or	x21,x8,x5	  x8:0x80009f64  x5:0x8d33ac3e x21=0x8d33bf7e
       28285000	      2827	800012fc	019783b3	add	x7,x15,x25	 x15:0x8d33abc9 x25:0x00000000  x7=0x8d33abc9
       28295000	      2828	80001300	00ebb1b3	sltu	x3,x23,x14	 x23:0x00000000 x14:0xcf7d71e0  x3=0x00000001
       28305000	      2829	80001304	00442303	lw	x6,4(x8)	  x8:0x80009f64  x6=0x80001378 PA:0x80009f68
       28315000	      2830	80001308	00840413	addi	x8,x8,8	  x8:0x80009f64  x8=0x80009f6c
       28325000	      2831	8000130c	0011ac33	slt	x24,x3,x1	  x3:0x00000001  x1:0x00000000 x24=0x00000000
       28335000	      2832	80001310	00130793	addi	x15,x6,1	  x6:0x80001378 x15=0x80001379
       28345000	      2833	80001314	000787e7	jalr	x15,x15,0	 x15:0x80001379 x15=0x80001314
       28355000	      2834	00000000	00000013	addi	x0,x0,0	  x0:0x00000000
       28365000	      2835	80001378	00000013	addi	x0,x0,0	  x0:0x00000000
       28375000	      2836	8000137c	00007d17	auipc	x26,0x7	 x26=0x80008378
       28385000	      2837	80001380	655d0d13	addi	x26,x26,1621	 x26:0x80008378 x26=0x800089cd
       28395000	      2838	80001384	aa3a2c13	slti	x24,x20,-1373	 x20:0x7fff62f4 x24=0x00000000
       28405000	      2839	80001388	005c06b3	add	x13,x24,x5	 x24:0x00000000  x5:0x8d33ac3e x13=0x8d33ac3e
       28415000	      2840	8000138c	fefd1aa3	sh	x15,-11(x26)	 x26:0x800089cd x15:0x80001314 PA:0x800089c2
       28425000	      2841	80001390	3b7fa917	auipc	x18,0x3b7fa	 x18=0xbb7fb38c
       28435000	      2842	80001394	ffad0583	lb	x11,-6(x26)	 x26:0x800089cd x11=0xffffffac PA:0x800089c7
       28445000	      2843	80001398	01d978b3	and	x17,x18,x29	 x18:0xbb7fb38c x29:0xffc2bfbd x17=0xbb42b38c
       28455000	      2844	8000139c	00392fb3	slt	x31,x18,x3	 x18:0xbb7fb38c  x3:0x00000001 x31=0x00000001
       28465000	      2845	800013a0	a26b0c13	addi	x24,x22,-1498	 x22:0x00000387 x24=0xfffffdad
       28475000	      2846	800013a4	1005d117	auipc	x2,0x1005d	  x2=0x9005e3a0
       28485000	      2847	800013a8	00000013	addi	x0,x0,0	  x0:0x00000000
       28495000	      2848	800013ac	007823b3	slt	x7,x16,x7	 x16:0x80009fc4  x7:0x8d33abc9  x7=0x00000001
       28505000	      2849	800013b0	fe5d19a3	sh	x5,-13(x26)	 x26:0x800089cd  x5:0x8d33ac3e PA:0x800089c0
       28515000	      2850	800013b4	66bf2593	slti	x11,x30,1643	 x30:0xfffff61b x11=0x00000001
       28525000	      2851	800013b8	5f933f93	sltiu	x31,x6,1529	  x6:0x80001378 x31=0x00000000
       28535000	      2852	800013bc	aaebfb93	andi	x23,x23,-1362	 x23:0x00000000 x23=0x00000000
       28545000	      2853	800013c0	00000013	addi	x0,x0,0	  x0:0x00000000
       28555000	      2854	800013c4	01b45f93	srli	x31,x8,0x1b	  x8:0x80009f6c x31=0x00000010
       28565000	      2855	800013c8	01899793	slli	x15,x19,0x18	 x19:0x00000000 x15=0x00000000
       28575000	      2856	800013cc	019d0423	sb	x25,8(x26)	 x26:0x800089cd x25:0x00000000 PA:0x800089d5
       28585000	      2857	800013d0	005e5f93	srli	x31,x28,0x5	 x28:0x00000001 x31=0x00000000
       28595000	      2858	800013d4	ff3d1583	lh	x11,-13(x26)	 x26:0x800089cd x11=0xffffac3e PA:0x800089c0
       28605000	      2859	00000000	00000013	addi	x0,x0,0	  x0:0x00000000
       28615000	      2860	800013d8	00b754b3	srl	x9,x14,x11	 x14:0xcf7d71e0 x11:0xffffac3e  x9=0x00000003
       28625000	      2861	800013dc	403bd013	srai	x0,x23,0x3	 x23:0x00000000
       28635000	      2862	800013e0	006d0483	lb	x9,6(x26)	 x26:0x800089cd  x9=0x00000000 PA:0x800089d3
       28645000	      2863	800013e4	017d0323	sb	x23,6(x26)	 x26:0x800089cd x23:0x00000000 PA:0x800089d3
       28655000	      2864	800013e8	00000013	addi	x0,x0,0	  x0:0x00000000
       28665000	      2865	800013ec	01171b13	slli	x22,x14,0x11	 x14:0xcf7d71e0 x22=0xe3c00000
       28675000	      2866	800013f0	762a3b93	sltiu	x23,x20,1890	 x20:0x7fff62f4 x23=0x00000000
       28685000	      2867	800013f4	ffdd5683	lhu	x13,-3(x26)	 x26:0x800089cd x13=0x0000b0b1 PA:0x800089ca
       28695000	      2868	800013f8	00e59493	slli	x9,x11,0xe	 x11:0xffffac3e  x9=0xeb0f8000
       28705000	      2869	800013fc	00000013	addi	x0,x0,0	  x0:0x00000000
       28715000	      2870	80001400	017d0023	sb	x23,0(x26)	 x26:0x800089cd x23:0x00000000 PA:0x800089cd
       28725000	      2871	80001404	ff9d0ba3	sb	x25,-9(x26)	 x26:0x800089cd x25:0x00000000 PA:0x800089c4
       28735000	      2872	80001408	739710b7	lui	x1,0x73971	  x1=0x73971000
       28745000	      2873	8000140c	5d27f393	andi	x7,x15,1490	 x15:0x00000000  x7=0x00000000
       28755000	      2874	80001410	00fd1f03	lh	x30,15(x26)	 x26:0x800089cd x30=0x00003ec7 PA:0x800089dc
       28765000	      2875	80001414	00fd5103	lhu	x2,15(x26)	 x26:0x800089cd  x2=0x00003ec7 PA:0x800089dc
       28775000	      2876	80001418	005d0823	sb	x5,16(x26)	 x26:0x800089cd  x5:0x8d33ac3e PA:0x800089dd
       28785000	      2877	8000141c	00007117	auipc	x2,0x7	  x2=0x80008418
       28795000	      2878	80001420	13710113	addi	x2,x2,311	  x2:0x80008418  x2=0x8000854f
       28805000	      2879	80001424	01204933	xor	x18,x0,x18	  x0:0x00000000 x18:0xbb7fb38c x18=0xbb7fb38c
       28815000	      2880	80001428	50f56e13	ori	x28,x10,1295	 x10:0x00000061 x28=0x0000056f
       28825000	      2881	8000142c	fd710483	lb	x9,-41(x2)	  x2:0x8000854f  x9=0xffffffdd PA:0x80008526
       28835000	      2882	80001430	40b8d193	srai	x3,x17,0xb	 x17:0xbb42b38c  x3=0xfff76856
       28845000	      2883	80001434	00d10b23	sb	x13,22(x2)	  x2:0x8000854f x13:0x0000b0b1 PA:0x80008565
       28855000	      2884	80001438	000112a3	sh	x0,5(x2)	  x2:0x8000854f  x0:0x00000000 PA:0x80008554
       28865000	      2885	8000143c	02814983	lbu	x19,40(x2)	  x2:0x8000854f x19=0x0000002c PA:0x80008577
       28875000	      2886	80001440	a8709a97	auipc	x21,0xa8709	 x21=0x2870a43c
       28885000	      2887	80001444	01c5bb33	sltu	x22,x11,x28	 x11:0xffffac3e x28:0x0000056f x22=0x00000000
       28895000	      2888	80001448	0199dbb3	srl	x23,x19,x25	 x19:0x0000002c x25:0x00000000 x23=0x0000002c
       28905000	      2889	8000144c	00c1d533	srl	x10,x3,x12	  x3:0xfff76856 x12:0xffc2bc99 x10=0x0000007f
       28915000	      2890	80001450	fd410583	lb	x11,-44(x2)	  x2:0x8000854f x11=0xffffffd8 PA:0x80008523
       28925000	      2891	80001454	00210a83	lb	x21,2(x2)	  x2:0x8000854f x21=0x0000000a PA:0x80008551
       28935000	      2892	80001458	40bbd713	srai	x14,x23,0xb	 x23:0x0000002c x14=0x00000000
       28945000	      2893	8000145c	003ad2b3	srl	x5,x21,x3	 x21:0x0000000a  x3:0xfff76856  x5=0x00000000
       28955000	      2894	80001460	ee0c3f17	auipc	x30,0xee0c3	 x30=0x6e0c445c
       28965000	      2895	80001464	00a10703	lb	x14,10(x2)	  x2:0x8000854f x14=0xffffffad PA:0x80008559
       28975000	      2896	80001468	02915b83	lhu	x23,41(x2)	  x2:0x8000854f x23=0x00003233 PA:0x80008578
       28985000	      2897	8000146c	01eb0733	add	x14,x22,x30	 x22:0x00000000 x30:0x6e0c445c x14=0x6e0c445c
       28995000	      2898	80001470	01115f83	lhu	x31,17(x2)	  x2:0x8000854f x31=0x00001a1b PA:0x80008560
       29005000	      2899	80001474	40df5033	sra	x0,x30,x13	 x30:0x6e0c445c x13:0x0000b0b1
       29015000	      2900	80001478	00315303	lhu	x6,3(x2)	  x2:0x8000854f  x6=0x00000809 PA:0x80008552
       29025000	      2901	00000000	00000013	addi	x0,x0,0	  x0:0x00000000
       29035000	      2902	8000147c	00610ba3	sb	x6,23(x2)	  x2:0x8000854f  x6:0x00000809 PA:0x80008566
       29045000	      2903	80001480	fe912003	lw	x0,-23(x2)	  x2:0x8000854f PA:0x80008538
       29055000	      2904	80001484	8bdc6eb7	lui	x29,0x8bdc6	 x29=0x8bdc6000
       29065000	      2905	80001488	03410b03	lb	x22,52(x2)	  x2:0x8000854f x22=0x00000038 PA:0x80008583
       29075000	      2906	8000148c	8be23a13	sltiu	x20,x4,-1858	  x4:0x00000000 x20=0x00000001
       29085000	      2907	80001490	01f464b3	or	x9,x8,x31	  x8:0x80009f6c x31:0x00001a1b  x9=0x80009f7f
       29095000	      2908	80001494	0bdc8d13	addi	x26,x25,189	 x25:0x00000000 x26=0x000000bd
       29105000	      2909	80001498	ffb11883	lh	x17,-5(x2)	  x2:0x8000854f x17=0x00000001 PA:0x8000854a
       29115000	      2910	8000149c	ff810a03	lb	x20,-8(x2)	  x2:0x8000854f x20=0xfffffffc PA:0x80008547
       29125000	      2911	800014a0	03515a83	lhu	x21,53(x2)	  x2:0x8000854f x21=0x00003e3f PA:0x80008584
       29135000	      2912	800014a4	01810523	sb	x24,10(x2)	  x2:0x8000854f x24:0xfffffdad PA:0x80008559
       29145000	      2913	800014a8	015da2b3	slt	x5,x27,x21	 x27:0x57cfde1c x21:0x00003e3f  x5=0x00000000
       29155000	      2914	800014ac	ff610703	lb	x14,-10(x2)	  x2:0x8000854f x14=0xfffffffe PA:0x80008545
       29165000	      2915	800014b0	008119a3	sh	x8,19(x2)	  x2:0x8000854f  x8:0x80009f6c PA:0x80008562
       29175000	      2916	800014b4	fe910123	sb	x9,-30(x2)	  x2:0x8000854f  x9:0x80009f7f PA:0x80008531
       29185000	      2917	800014b8	00008a17	auipc	x20,0x8	 x20=0x800094b4
       29195000	      2918	800014bc	879a0a13	addi	x20,x20,-1927	 x20:0x800094b4 x20=0x80008d2d
       29205000	      2919	800014c0	00007997	auipc	x19,0x7	 x19=0x800084bc
       29215000	      2920	800014c4	49698993	addi	x19,x19,1174	 x19:0x800084bc x19=0x80008952
       29225000	      2921	800014c8	fffa2203	lw	x4,-1(x20)	 x20:0x80008d2d  x4=0x5c151617 PA:0x80008d2c
       29235000	      2922	800014cc	0109dc83	lhu	x25,16(x19)	 x19:0x80008952 x25=0x00000000 PA:0x80008962
       29245000	      2923	00000000	00000013	addi	x0,x0,0	  x0:0x00000000
       29255000	      2924	800014d0	019a0123	sb	x25,2(x20)	 x20:0x80008d2d x25:0x00000000 PA:0x80008d2f
       29265000	      2925	800014d4	ff398103	lb	x2,-13(x19)	 x19:0x80008952  x2=0x0000002e PA:0x80008945
       29275000	      2926	800014d8	001a0103	lb	x2,1(x20)	 x20:0x80008d2d  x2=0x00000015 PA:0x80008d2e
       29285000	      2927	800014dc	036a4203	lbu	x4,54(x20)	 x20:0x80008d2d  x4=0x00000048 PA:0x80008d63
       29295000	      2928	800014e0	00f98483	lb	x9,15(x19)	 x19:0x80008952  x9=0x00000000 PA:0x80008961
       29305000	      2929	800014e4	005a1a83	lh	x21,5(x20)	 x20:0x80008d2d x21=0x00001819 PA:0x80008d32
       29315000	      2930	800014e8	ff99c203	lbu	x4,-7(x19)	 x19:0x80008952  x4=0x00000000 PA:0x8000894b
       29325000	      2931	800014ec	ffc98303	lb	x6,-4(x19)	 x19:0x80008952  x6=0x00000035 PA:0x8000894e
       29335000	      2932	800014f0	fe599c23	sh	x5,-8(x19)	 x19:0x80008952  x5:0x00000000 PA:0x8000894a
       29345000	      2933	800014f4	fd1a1283	lh	x5,-47(x20)	 x20:0x80008d2d  x5=0xffffe4e5 PA:0x80008cfe
       29355000	      2934	800014f8	ffaa0383	lb	x7,-6(x20)	 x20:0x80008d2d  x7=0x0000000c PA:0x80008d27
       29365000	      2935	800014fc	ff398883	lb	x17,-13(x19)	 x19:0x80008952 x17=0x0000002e PA:0x80008945
       29375000	      2936	80001500	ff898ea3	sb	x24,-3(x19)	 x19:0x80008952 x24:0xfffffdad PA:0x8000894f
       29385000	      2937	80001504	ff1a0a23	sb	x17,-12(x20)	 x20:0x80008d2d x17:0x0000002e PA:0x80008d21
       29395000	      2938	80001508	fe3a2583	lw	x11,-29(x20)	 x20:0x80008d2d x11=0xf8f9fafb PA:0x80008d10
       29405000	      2939	8000150c	00007997	auipc	x19,0x7	 x19=0x80008508
       29415000	      2940	80001510	65498993	addi	x19,x19,1620	 x19:0x80008508 x19=0x80008b5c
       29425000	      2941	80001514	18ad04b7	lui	x9,0x18ad0	  x9=0x18ad0000
       29435000	      2942	80001518	01ffbe33	sltu	x28,x31,x31	 x31:0x00001a1b x31:0x00001a1b x28=0x00000000
       29445000	      2943	8000151c	00725533	srl	x10,x4,x7	  x4:0x00000000  x7:0x0000000c x10=0x00000000
       29455000	      2944	80001520	f7598683	lb	x13,-139(x19)	 x19:0x80008b5c x13=0xffffffba PA:0x80008ad1
       29465000	      2945	80001524	00283a33	sltu	x20,x16,x2	 x16:0x80009fc4  x2:0x00000015 x20=0x00000000
       29475000	      2946	80001528	fe699b23	sh	x6,-10(x19)	 x19:0x80008b5c  x6:0x00000035 PA:0x80008b52
       29485000	      2947	8000152c	d5dee6b7	lui	x13,0xd5dee	 x13=0xd5dee000
       29495000	      2948	80001530	a41b4e13	xori	x28,x22,-1471	 x22:0x00000038 x28=0xfffffa79
       29505000	      2949	80001534	1e9f0097	auipc	x1,0x1e9f0	  x1=0x9e9f1530
       29515000	      2950	80001538	02598e83	lb	x29,37(x19)	 x19:0x80008b5c x29=0x0000006a PA:0x80008b81
       29525000	      2951	8000153c	0a39cd83	lbu	x27,163(x19)	 x19:0x80008b5c x27=0x000000e4 PA:0x80008bff
       29535000	      2952	80001540	03299503	lh	x10,50(x19)	 x19:0x80008b5c x10=0x00007475 PA:0x80008b8e
       29545000	      2953	80001544	0159c003	lbu	x0,21(x19)	 x19:0x80008b5c PA:0x80008b71
       29555000	      2954	80001548	41cbdeb3	sra	x29,x23,x28	 x23:0x00003233 x28:0xfffffa79 x29=0x00000000
       29565000	      2955	8000154c	fc19cd83	lbu	x27,-63(x19)	 x19:0x80008b5c x27=0x00000006 PA:0x80008b1d
       29575000	      2956	80001550	009715b3	sll	x11,x14,x9	 x14:0xfffffffe  x9:0x18ad0000 x11=0xfffffffe
       29585000	      2957	80001554	046982a3	sb	x6,69(x19)	 x19:0x80008b5c  x6:0x00000035 PA:0x80008ba1
       29595000	      2958	80001558	041986a3	sb	x1,77(x19)	 x19:0x80008b5c  x1:0x9e9f1530 PA:0x80008ba9
       29605000	      2959	8000155c	000393b3	sll	x7,x7,x0	  x7:0x0000000c  x0:0x00000000  x7=0x0000000c
       29615000	      2960	80001560	09f98c03	lb	x24,159(x19)	 x19:0x80008b5c x24=0xffffffe0 PA:0x80008bfb
       29625000	      2961	80001564	0d298723	sb	x18,206(x19)	 x19:0x80008b5c x18:0xbb7fb38c PA:0x80008c2a
       29635000	      2962	80001568	01b98183	lb	x3,27(x19)	 x19:0x80008b5c  x3=0x0000005c PA:0x80008b77
       29645000	      2963	8000156c	8602f6b7	lui	x13,0x8602f	 x13=0x8602f000
       29655000	      2964	80001570	01c171b3	and	x3,x2,x28	  x2:0x00000015 x28:0xfffffa79  x3=0x00000011
       29665000	      2965	80001574	f919c883	lbu	x17,-111(x19)	 x19:0x80008b5c x17=0x000000d6 PA:0x80008aed
       29675000	      2966	80001578	f3a98aa3	sb	x26,-203(x19)	 x19:0x80008b5c x26:0x000000bd PA:0x80008a91
       29685000	      2967	8000157c	005b1a13	slli	x20,x22,0x5	 x22:0x00000038 x20=0x00000700
       29695000	      2968	80001580	0161cb33	xor	x22,x3,x22	  x3:0x00000011 x22:0x00000038 x22=0x00000029
       29705000	      2969	80001584	0158dd13	srli	x26,x17,0x15	 x17:0x000000d6 x26=0x00000000
       29715000	      2970	80001588	07198b03	lb	x22,113(x19)	 x19:0x80008b5c x22=0x00000047 PA:0x80008bcd
       29725000	      2971	00000000	00000013	addi	x0,x0,0	  x0:0x00000000
       29735000	      2972	8000158c	405b5693	srai	x13,x22,0x5	 x22:0x00000047 x13=0x00000002
       29745000	      2973	80001590	6d3c7713	andi	x14,x24,1747	 x24:0xffffffe0 x14=0x000006c0
       29755000	      2974	80001594	011cb6b3	sltu	x13,x25,x17	 x25:0x00000000 x17:0x000000d6 x13=0x00000001
       29765000	      2975	80001598	8414cc93	xori	x25,x9,-1983	  x9:0x18ad0000 x25=0xe752f841
       29775000	      2976	8000159c	0009db83	lhu	x23,0(x19)	 x19:0x80008b5c x23=0x00004647 PA:0x80008b5c
       29785000	      2977	800015a0	40925e93	srai	x29,x4,0x9	  x4:0x00000000 x29=0x00000000
       29795000	      2978	800015a4	00bf91b3	sll	x3,x31,x11	 x31:0x00001a1b x11:0xfffffffe  x3=0xc0000000
       29805000	      2979	800015a8	ebdf0b93	addi	x23,x30,-323	 x30:0x6e0c445c x23=0x6e0c4319
       29815000	      2980	800015ac	409edb93	srai	x23,x29,0x9	 x29:0x00000000 x23=0x00000000
       29825000	      2981	800015b0	0e7985a3	sb	x7,235(x19)	 x19:0x80008b5c  x7:0x0000000c PA:0x80008c47
       29835000	      2982	800015b4	f889a483	lw	x9,-120(x19)	 x19:0x80008b5c  x9=0xcccdcecf PA:0x80008ae4
       29845000	      2983	800015b8	00000013	addi	x0,x0,0	  x0:0x00000000
       29855000	      2984	800015bc	ff498923	sb	x20,-14(x19)	 x19:0x80008b5c x20:0x00000700 PA:0x80008b4e
       29865000	      2985	800015c0	00008a97	auipc	x21,0x8	 x21=0x800095bc
       29875000	      2986	800015c4	9e3a8a93	addi	x21,x21,-1565	 x21:0x800095bc x21=0x80008f9f
       29885000	      2987	800015c8	00007717	auipc	x14,0x7	 x14=0x800085c4
       29895000	      2988	800015cc	44e70713	addi	x14,x14,1102	 x14:0x800085c4 x14=0x80008a12
       29905000	      2989	800015d0	de7ad583	lhu	x11,-537(x21)	 x21:0x80008f9f x11=0x00006c6d PA:0x80008d86
       29915000	      2990	800015d4	d93a8823	sb	x19,-624(x21)	 x21:0x80008f9f x19:0x80008b5c PA:0x80008d2f
       29925000	      2991	800015d8	a27adb03	lhu	x22,-1497(x21)	 x21:0x80008f9f x22=0x0000acad PA:0x800089c6
       29935000	      2992	800015dc	00007117	auipc	x2,0x7	  x2=0x800085d8
       29945000	      2993	800015e0	7fc10113	addi	x2,x2,2044	  x2:0x800085d8  x2=0x80008dd4
       29955000	      2994	800015e4	1a672c83	lw	x25,422(x14)	 x14:0x80008a12 x25=0xa0a1a2a3 PA:0x80008bb8
       29965000	      2995	800015e8	eb1ac483	lbu	x9,-335(x21)	 x21:0x80008f9f  x9=0x0000003b PA:0x80008e50
       29975000	      2996	800015ec	00007397	auipc	x7,0x7	  x7=0x800085e8
       29985000	      2997	800015f0	5b538393	addi	x7,x7,1461	  x7:0x800085e8  x7=0x80008b9d
       29995000	      2998	800015f4	46770c83	lb	x25,1127(x14)	 x14:0x80008a12 x25=0x00000062 PA:0x80008e79
       30005000	      2999	800015f8	b56acb83	lbu	x23,-1194(x21)	 x21:0x80008f9f x23=0x000000de PA:0x80008af5
       30015000	      3000	800015fc	dd8a8c03	lb	x24,-552(x21)	 x21:0x80008f9f x24=0x0000005c PA:0x80008d77
       30025000	      3001	80001600	010382a3	sb	x16,5(x7)	  x7:0x80008b9d x16:0x80009fc4 PA:0x80008ba2
       30035000	      3002	80001604	f7010683	lb	x13,-144(x2)	  x2:0x80008dd4 x13=0x0000002f PA:0x80008d44
       30045000	      3003	80001608	02e71023	sh	x14,32(x14)	 x14:0x80008a12 x14:0x80008a12 PA:0x80008a32
       30055000	      3004	8000160c	d9da8fa3	sb	x29,-609(x21)	 x21:0x80008f9f x29:0x00000000 PA:0x80008d3e
       30065000	      3005	80001610	02139ca3	sh	x1,57(x7)	  x7:0x80008b9d  x1:0x9e9f1530 PA:0x80008bd6
       30075000	      3006	80001614	00007097	auipc	x1,0x7	  x1=0x80008610
       30085000	      3007	80001618	3ca08093	addi	x1,x1,970	  x1:0x80008610  x1=0x800089da
       30095000	      3008	8000161c	ff914d03	lbu	x26,-7(x2)	  x2:0x80008dd4 x26=0x000000b6 PA:0x80008dcd
       30105000	      3009	80001620	02f397a3	sh	x15,47(x7)	  x7:0x80008b9d x15:0x00000000 PA:0x80008bcc
       30115000	      3010	80001624	feb38d23	sb	x11,-6(x7)	  x7:0x80008b9d x11:0x00006c6d PA:0x80008b97
       30125000	      3011	80001628	0b211e03	lh	x28,178(x2)	  x2:0x80008dd4 x28=0x00006c74 PA:0x80008e86
       30135000	      3012	8000162c	ceda99a3	sh	x13,-781(x21)	 x21:0x80008f9f x13:0x0000002f PA:0x80008c92
       30145000	      3013	80001630	fc810c83	lb	x25,-56(x2)	  x2:0x80008dd4 x25=0xffffff87 PA:0x80008d9c
       30155000	      3014	80001634	f3c0cd03	lbu	x26,-196(x1)	  x1:0x800089da x26=0x000000fd PA:0x80008916
       30165000	      3015	80001638	4f7709a3	sb	x23,1267(x14)	 x14:0x80008a12 x23:0x000000de PA:0x80008f05
       30175000	      3016	8000163c	02d39903	lh	x18,45(x7)	  x7:0x80008b9d x18=0xffffffb1 PA:0x80008bca
       30185000	      3017	80001640	040105a3	sb	x0,75(x2)	  x2:0x80008dd4  x0:0x00000000 PA:0x80008e1f
       30195000	      3018	80001644	ffc11983	lh	x19,-4(x2)	  x2:0x80008dd4 x19=0xffffbabb PA:0x80008dd0
       30205000	      3019	80001648	04971c23	sh	x9,88(x14)	 x14:0x80008a12  x9:0x0000003b PA:0x80008a6a
       30215000	      3020	8000164c	01038c83	lb	x25,16(x7)	  x7:0x80008b9d x25=0xffffff96 PA:0x80008bad
       30225000	      3021	80001650	4cf74c03	lbu	x24,1231(x14)	 x14:0x80008a12 x24=0x000000ca PA:0x80008ee1
       30235000	      3022	80001654	ff00cb83	lbu	x23,-16(x1)	  x1:0x800089da x23=0x000000b1 PA:0x800089ca
       30245000	      3023	80001658	00e38983	lb	x19,14(x7)	  x7:0x80008b9d x19=0xffffff90 PA:0x80008bab
       30255000	      3024	8000165c	fe012c83	lw	x25,-32(x2)	  x2:0x80008dd4 x25=0x9c9d9e9f PA:0x80008db4
       30265000	      3025	80001660	08910303	lb	x6,137(x2)	  x2:0x80008dd4  x6=0x00000046 PA:0x80008e5d
       30275000	      3026	80001664	5cd70b83	lb	x23,1485(x14)	 x14:0x80008a12 x23=0xffffffc4 PA:0x80008fdf
       30285000	      3027	80001668	dfca8723	sb	x28,-530(x21)	 x21:0x80008f9f x28:0x00006c74 PA:0x80008d8d
       30295000	      3028	8000166c	f2709823	sh	x7,-208(x1)	  x1:0x800089da  x7:0x80008b9d PA:0x8000890a
       30305000	      3029	80001670	0293cd03	lbu	x26,41(x7)	  x7:0x80008b9d x26=0x000000ad PA:0x80008bc6
       30315000	      3030	80001674	ffc11183	lh	x3,-4(x2)	  x2:0x80008dd4  x3=0xffffbabb PA:0x80008dd0
       30325000	      3031	80001678	01b395a3	sh	x27,11(x7)	  x7:0x80008b9d x27:0x00000006 PA:0x80008ba8
       30335000	      3032	8000167c	ff93c683	lbu	x13,-7(x7)	  x7:0x80008b9d x13=0x0000007d PA:0x80008b96
       30345000	      3033	80001680	fd60d883	lhu	x17,-42(x1)	  x1:0x800089da x17=0x00009a9b PA:0x800089b0
       30355000	      3034	80001684	07c09123	sh	x28,98(x1)	  x1:0x800089da x28:0x00006c74 PA:0x80008a3c
       30365000	      3035	80001688	f8d08983	lb	x19,-115(x1)	  x1:0x800089da x19=0x0000004c PA:0x80008967
       30375000	      3036	8000168c	00007c97	auipc	x25,0x7	 x25=0x80008688
       30385000	      3037	80001690	ff2c8c93	addi	x25,x25,-14	 x25:0x80008688 x25=0x8000867a
       30395000	      3038	80001694	033cc703	lbu	x14,51(x25)	 x25:0x8000867a x14=0x00000066 PA:0x800086ad
       30405000	      3039	80001698	033c8483	lb	x9,51(x25)	 x25:0x8000867a  x9=0x00000066 PA:0x800086ad
       30415000	      3040	8000169c	f50c8a03	lb	x20,-176(x25)	 x25:0x8000867a x20=0x0000005c PA:0x800085ca
       30425000	      3041	800016a0	f50c9783	lh	x15,-176(x25)	 x25:0x8000867a x15=0x0000445c PA:0x800085ca
       30435000	      3042	800016a4	f5ec9823	sh	x30,-176(x25)	 x25:0x8000867a x30:0x6e0c445c PA:0x800085ca
       30445000	      3043	800016a8	96f40393	addi	x7,x8,-1681	  x8:0x80009f6c  x7=0x800098db
       30455000	      3044	800016ac	0f2cab23	sw	x18,246(x25)	 x25:0x8000867a x18:0xffffffb1 PA:0x80008770
       30465000	      3045	800016b0	0f6c8183	lb	x3,246(x25)	 x25:0x8000867a  x3=0xffffffb1 PA:0x80008770
       30475000	      3046	800016b4	0f6cd303	lhu	x6,246(x25)	 x25:0x8000867a  x6=0x0000ffb1 PA:0x80008770
       30485000	      3047	800016b8	0f6c8503	lb	x10,246(x25)	 x25:0x8000867a x10=0xffffffb1 PA:0x80008770
       30495000	      3048	800016bc	0e6c9b23	sh	x6,246(x25)	 x25:0x8000867a  x6:0x0000ffb1 PA:0x80008770
       30505000	      3049	800016c0	f83c84a3	sb	x3,-119(x25)	 x25:0x8000867a  x3:0xffffffb1 PA:0x80008603
       30515000	      3050	800016c4	f86c84a3	sb	x6,-119(x25)	 x25:0x8000867a  x6:0x0000ffb1 PA:0x80008603
       30525000	      3051	800016c8	f89cc983	lbu	x19,-119(x25)	 x25:0x8000867a x19=0x000000b1 PA:0x80008603
       30535000	      3052	800016cc	f89ccb03	lbu	x22,-119(x25)	 x25:0x8000867a x22=0x000000b1 PA:0x80008603
       30545000	      3053	800016d0	00007c17	auipc	x24,0x7	 x24=0x800086cc
       30555000	      3054	800016d4	ef9c0c13	addi	x24,x24,-263	 x24:0x800086cc x24=0x800085c5
       30565000	      3055	800016d8	0dac4783	lbu	x15,218(x24)	 x24:0x800085c5 x15=0x0000009b PA:0x8000869f
       30575000	      3056	800016dc	418e5a33	sra	x20,x28,x24	 x28:0x00006c74 x24:0x800085c5 x20=0x00000363
       30585000	      3057	800016e0	0dac4583	lbu	x11,218(x24)	 x24:0x800085c5 x11=0x0000009b PA:0x8000869f
       30595000	      3058	800016e4	71228f93	addi	x31,x5,1810	  x5:0xffffe4e5 x31=0xffffebf7
       30605000	      3059	800016e8	0d1c0d23	sb	x17,218(x24)	 x24:0x800085c5 x17:0x00009a9b PA:0x8000869f
       30615000	      3060	800016ec	0dac4903	lbu	x18,218(x24)	 x24:0x800085c5 x18=0x0000009b PA:0x8000869f
       30625000	      3061	800016f0	0dac4e03	lbu	x28,218(x24)	 x24:0x800085c5 x28=0x0000009b PA:0x8000869f
       30635000	      3062	800016f4	40e05d33	sra	x26,x0,x14	  x0:0x00000000 x14:0x00000066 x26=0x00000000
       30645000	      3063	800016f8	fafc5083	lhu	x1,-81(x24)	 x24:0x800085c5  x1=0x00002e2f PA:0x80008574
       30655000	      3064	800016fc	c8bf0793	addi	x15,x30,-885	 x30:0x6e0c445c x15=0x6e0c40e7
       30665000	      3065	80001700	fafc1003	lh	x0,-81(x24)	 x24:0x800085c5 PA:0x80008574
       30675000	      3066	80001704	fafc4683	lbu	x13,-81(x24)	 x24:0x800085c5 x13=0x0000002f PA:0x80008574
       30685000	      3067	80001708	01b786b3	add	x13,x15,x27	 x15:0x6e0c40e7 x27:0x00000006 x13=0x6e0c40ed
       30695000	      3068	8000170c	0119da13	srli	x20,x19,0x11	 x19:0x000000b1 x20=0x00000000
       30705000	      3069	80001710	15c18337	lui	x6,0x15c18	  x6=0x15c18000
       30715000	      3070	80001714	033c4983	lbu	x19,51(x24)	 x24:0x800085c5 x19=0x000000b3 PA:0x800085f8
       30725000	      3071	00000000	00000013	addi	x0,x0,0	  x0:0x00000000
       30735000	      3072	80001718	033c0d83	lb	x27,51(x24)	 x24:0x800085c5 x27=0xffffffb3 PA:0x800085f8
       30745000	      3073	8000171c	00007a17	auipc	x20,0x7	 x20=0x80008718
       30755000	      3074	80001720	c93a0a13	addi	x20,x20,-877	 x20:0x80008718 x20=0x800083ab
       30765000	      3075	80001724	00007a97	auipc	x21,0x7	 x21=0x80008720
       30775000	      3076	80001728	b83a8a93	addi	x21,x21,-1149	 x21:0x80008720 x21=0x800082a3
       30785000	      3077	8000172c	00007c97	auipc	x25,0x7	 x25=0x80008728
       30795000	      3078	80001730	fd1c8c93	addi	x25,x25,-47	 x25:0x80008728 x25=0x800086f9
       30805000	      3079	80001734	ff7a8503	lb	x10,-9(x21)	 x21:0x800082a3 x10=0xffffffff PA:0x8000829a
       30815000	      3080	80001738	fffa8003	lb	x0,-1(x21)	 x21:0x800082a3 PA:0x800082a2
       30825000	      3081	8000173c	ff1a1983	lh	x19,-15(x20)	 x20:0x800083ab x19=0x00005657 PA:0x8000839c
       30835000	      3082	80001740	ff7a9da3	sh	x23,-5(x21)	 x21:0x800082a3 x23:0xffffffc4 PA:0x8000829e
       30845000	      3083	80001744	008a8723	sb	x8,14(x21)	 x21:0x800082a3  x8:0x80009f6c PA:0x800082b1
       30855000	      3084	80001748	ffba1183	lh	x3,-5(x20)	 x20:0x800083ab  x3=0x00005c5d PA:0x800083a6
       30865000	      3085	8000174c	eddcdb83	lhu	x23,-291(x25)	 x25:0x800086f9 x23=0x00008c8d PA:0x800085d6
       30875000	      3086	80001750	996c8b03	lb	x22,-1642(x25)	 x25:0x800086f9 x22=0x00000044 PA:0x8000808f
       30885000	      3087	80001754	ffcac283	lbu	x5,-4(x21)	 x21:0x800082a3  x5=0x000000ff PA:0x8000829f
       30895000	      3088	80001758	ff7a4783	lbu	x15,-9(x20)	 x20:0x800083ab x15=0x00000059 PA:0x800083a2
       30905000	      3089	8000175c	aecc8983	lb	x19,-1300(x25)	 x25:0x800086f9 x19=0x00000000 PA:0x800081e5
       30915000	      3090	00000000	00000013	addi	x0,x0,0	  x0:0x00000000
       30925000	      3091	80001760	ff3a4003	lbu	x0,-13(x20)	 x20:0x800083ab PA:0x8000839e
       30935000	      3092	80001764	ff9a8f23	sb	x25,-2(x21)	 x21:0x800082a3 x25:0x800086f9 PA:0x800082a1
       30945000	      3093	80001768	b4ac8303	lb	x6,-1206(x25)	 x25:0x800086f9  x6=0xfffffff8 PA:0x80008243
       30955000	      3094	8000176c	013a87a3	sb	x19,15(x21)	 x21:0x800082a3 x19:0x00000000 PA:0x800082b2
       30965000	      3095	80001770	00aa04a3	sb	x10,9(x20)	 x20:0x800083ab x10:0xffffffff PA:0x800083b4
       30975000	      3096	80001774	fe0a0c23	sb	x0,-8(x20)	 x20:0x800083ab  x0:0x00000000 PA:0x800083a3
       30985000	      3097	80001778	e6fca7a3	sw	x15,-401(x25)	 x25:0x800086f9 x15:0x00000059 PA:0x80008568
       30995000	      3098	8000177c	e4bc8d03	lb	x26,-437(x25)	 x25:0x800086f9 x26=0xffffffff PA:0x80008544
       31005000	      3099	80001780	00fa8103	lb	x2,15(x21)	 x21:0x800082a3  x2=0x00000000 PA:0x800082b2
       31015000	      3100	00000000	00000013	addi	x0,x0,0	  x0:0x00000000
       31025000	      3101	80001784	0a2c8123	sb	x2,162(x25)	 x25:0x800086f9  x2:0x00000000 PA:0x8000879b
       31035000	      3102	80001788	ffaa8ba3	sb	x26,-9(x21)	 x21:0x800082a3 x26:0xffffffff PA:0x8000829a
       31045000	      3103	8000178c	ff0a4183	lbu	x3,-16(x20)	 x20:0x800083ab  x3=0x00000050 PA:0x8000839b
       31055000	      3104	80001790	00d823b3	slt	x7,x16,x13	 x16:0x80009fc4 x13:0x6e0c40ed  x7=0x00000001
       31065000	      3105	80001794	042d5063	bge	x26,x2,800017d4	 x26:0xffffffff  x2:0x00000000
       31075000	      3106	80001798	fffff097	auipc	x1,0xfffff	  x1=0x80000794
       31085000	      3107	8000179c	d2408093	addi	x1,x1,-732	  x1:0x80000794  x1=0x800004b8
       31095000	      3108	800017a0	0006ceb3	xor	x29,x13,x0	 x13:0x6e0c40ed  x0:0x00000000 x29=0x6e0c40ed
       31105000	      3109	800017a4	00f4f5b3	and	x11,x9,x15	  x9:0x00000066 x15:0x00000059 x11=0x00000040
       31115000	      3110	800017a8	3b608093	addi	x1,x1,950	  x1:0x800004b8  x1=0x8000086e
       31125000	      3111	800017ac	406fd393	srai	x7,x31,0x6	 x31:0xffffebf7  x7=0xffffffaf
       31135000	      3112	800017b0	00992c33	slt	x24,x18,x9	 x18:0x0000009b  x9:0x00000066 x24=0x00000000
       31145000	      3113	800017b4	00d29113	slli	x2,x5,0xd	  x5:0x000000ff  x2=0x001fe000
       31155000	      3114	800017b8	41b95eb3	sra	x29,x18,x27	 x18:0x0000009b x27:0xffffffb3 x29=0x00000000
       31165000	      3115	800017bc	412a06b3	sub	x13,x20,x18	 x20:0x800083ab x18:0x0000009b x13=0x80008310
       31175000	      3116	800017c0	410d8fb3	sub	x31,x27,x16	 x27:0xffffffb3 x16:0x80009fc4 x31=0x7fff5fef
       31185000	      3117	800017c4	01fb9463	bne	x23,x31,800017cc	 x23:0x00008c8d x31:0x7fff5fef
       31195000	      3118	00000000	00000013	addi	x0,x0,0	  x0:0x00000000
       31205000	      3119	800017c8	00000013	addi	x0,x0,0	  x0:0x00000000
       31215000	      3120	800017cc	c4a08367	jalr	x6,x1,-950	  x1:0x8000086e  x6=0x800017cc
       31225000	      3121	00000000	00000013	addi	x0,x0,0	  x0:0x00000000
       31235000	      3122	800004b8	00000013	addi	x0,x0,0	  x0:0x00000000
       31245000	      3123	800004bc	ff840413	addi	x8,x8,-8	  x8:0x80009f6c  x8=0x80009f64
       31255000	      3124	800004c0	0a941c17	auipc	x24,0xa941	 x24=0x8a9414bc
       31265000	      3125	800004c4	00642223	sw	x6,4(x8)	  x8:0x80009f64  x6:0x800017cc PA:0x80009f68
       31275000	      3126	800004c8	3a7b1b37	lui	x22,0x3a7b1	 x22=0x3a7b1000
       31285000	      3127	800004cc	4071d4b3	sra	x9,x3,x7	  x3:0x00000050  x7:0xffffffaf  x9=0x00000000
       31295000	      3128	800004d0	00008797	auipc	x15,0x8	 x15=0x800084cc
       31305000	      3129	800004d4	d2578793	addi	x15,x15,-731	 x15:0x800084cc x15=0x800081f1
       31315000	      3130	800004d8	00f7d583	lhu	x11,15(x15)	 x15:0x800081f1 x11=0x0000ba94 PA:0x80008200
       31325000	      3131	800004dc	00f7a083	lw	x1,15(x15)	 x15:0x800081f1  x1=0x8000ba94 PA:0x80008200
       31335000	      3132	800004e0	00f7aa03	lw	x20,15(x15)	 x15:0x800081f1 x20=0x8000ba94 PA:0x80008200
       31345000	      3133	800004e4	00f7cc83	lbu	x25,15(x15)	 x15:0x800081f1 x25=0x00000094 PA:0x80008200
       31355000	      3134	800004e8	00b797a3	sh	x11,15(x15)	 x15:0x800081f1 x11:0x0000ba94 PA:0x80008200
       31365000	      3135	800004ec	002787a3	sb	x2,15(x15)	 x15:0x800081f1  x2:0x001fe000 PA:0x80008200
       31375000	      3136	800004f0	00f7cd83	lbu	x27,15(x15)	 x15:0x800081f1 x27=0x00000000 PA:0x80008200
       31385000	      3137	800004f4	00f7dd83	lhu	x27,15(x15)	 x15:0x800081f1 x27=0x0000ba00 PA:0x80008200
       31395000	      3138	800004f8	00f7d483	lhu	x9,15(x15)	 x15:0x800081f1  x9=0x0000ba00 PA:0x80008200
       31405000	      3139	800004fc	00f7d383	lhu	x7,15(x15)	 x15:0x800081f1  x7=0x0000ba00 PA:0x80008200
       31415000	      3140	80000500	0177a7a3	sw	x23,15(x15)	 x15:0x800081f1 x23:0x00008c8d PA:0x80008200
       31425000	      3141	80000504	00000013	addi	x0,x0,0	  x0:0x00000000
       31435000	      3142	80000508	00f79883	lh	x17,15(x15)	 x15:0x800081f1 x17=0xffff8c8d PA:0x80008200
       31445000	      3143	8000050c	00f78203	lb	x4,15(x15)	 x15:0x800081f1  x4=0xffffff8d PA:0x80008200
       31455000	      3144	80000510	3fa9b213	sltiu	x4,x19,1018	 x19:0x00000000  x4=0x00000001
       31465000	      3145	80000514	001787a3	sb	x1,15(x15)	 x15:0x800081f1  x1:0x8000ba94 PA:0x80008200
       31475000	      3146	80000518	007797a3	sh	x7,15(x15)	 x15:0x800081f1  x7:0x0000ba00 PA:0x80008200
       31485000	      3147	8000051c	00008117	auipc	x2,0x8	  x2=0x80008518
       31495000	      3148	80000520	35010113	addi	x2,x2,848	  x2:0x80008518  x2=0x80008868
       31505000	      3149	80000524	ffd14d83	lbu	x27,-3(x2)	  x2:0x80008868 x27=0x0000004e PA:0x80008865
       31515000	      3150	80000528	ff310283	lb	x5,-13(x2)	  x2:0x80008868  x5=0x00000040 PA:0x8000885b
       31525000	      3151	8000052c	013101a3	sb	x19,3(x2)	  x2:0x80008868 x19:0x00000000 PA:0x8000886b
       31535000	      3152	80000530	005d5093	srli	x1,x26,0x5	 x26:0xffffffff  x1=0x07ffffff
       31545000	      3153	80000534	01090cb3	add	x25,x18,x16	 x18:0x0000009b x16:0x80009fc4 x25=0x8000a05f
       31555000	      3154	80000538	ff710683	lb	x13,-9(x2)	  x2:0x80008868 x13=0xffffffc5 PA:0x8000885f
       31565000	      3155	8000053c	ff910ba3	sb	x25,-9(x2)	  x2:0x80008868 x25:0x8000a05f PA:0x8000885f
       31575000	      3156	80000540	ff010c23	sb	x16,-8(x2)	  x2:0x80008868 x16:0x80009fc4 PA:0x80008860
       31585000	      3157	80000544	ff811683	lh	x13,-8(x2)	  x2:0x80008868 x13=0x000006c4 PA:0x80008860
       31595000	      3158	80000548	ff711c23	sh	x23,-8(x2)	  x2:0x80008868 x23:0x00008c8d PA:0x80008860
       31605000	      3159	8000054c	ff811e83	lh	x29,-8(x2)	  x2:0x80008868 x29=0xffff8c8d PA:0x80008860
       31615000	      3160	80000550	1b94eb93	ori	x23,x9,441	  x9:0x0000ba00 x23=0x0000bbb9
       31625000	      3161	80000554	00d14e03	lbu	x28,13(x2)	  x2:0x80008868 x28=0x0000005e PA:0x80008875
       31635000	      3162	80000558	00008c17	auipc	x24,0x8	 x24=0x80008554
       31645000	      3163	8000055c	7dac0c13	addi	x24,x24,2010	 x24:0x80008554 x24=0x80008d2e
       31655000	      3164	80000560	be7c3d13	sltiu	x26,x24,-1049	 x24:0x80008d2e x26=0x00000001
       31665000	      3165	80000564	fb9c0f03	lb	x30,-71(x24)	 x24:0x80008d2e x30=0xffffffcc PA:0x80008ce7
       31675000	      3166	80000568	00fc0203	lb	x4,15(x24)	 x24:0x80008d2e  x4=0x00000026 PA:0x80008d3d
       31685000	      3167	8000056c	00fc0203	lb	x4,15(x24)	 x24:0x80008d2e  x4=0x00000026 PA:0x80008d3d
       31695000	      3168	80000570	018b90b3	sll	x1,x23,x24	 x23:0x0000bbb9 x24:0x80008d2e  x1=0x2eee4000
       31705000	      3169	80000574	06fc0883	lb	x17,111(x24)	 x24:0x80008d2e x17=0xffffff86 PA:0x80008d9d
       31715000	      3170	80000578	00000013	addi	x0,x0,0	  x0:0x00000000
       31725000	      3171	8000057c	00f2dd93	srli	x27,x5,0xf	  x5:0x00000040 x27=0x00000000
       31735000	      3172	80000580	0e4c0d83	lb	x27,228(x24)	 x24:0x80008d2e x27=0xfffffff9 PA:0x80008e12
       31745000	      3173	80000584	00000013	addi	x0,x0,0	  x0:0x00000000
       31755000	      3174	80000588	0cec1703	lh	x14,206(x24)	 x24:0x80008d2e x14=0xffffe6e7 PA:0x80008dfc
       31765000	      3175	8000058c	f69c4303	lbu	x6,-151(x24)	 x24:0x80008d2e  x6=0x0000007c PA:0x80008c97
       31775000	      3176	80000590	f69c4003	lbu	x0,-151(x24)	 x24:0x80008d2e PA:0x80008c97
       31785000	      3177	80000594	f66c04a3	sb	x6,-151(x24)	 x24:0x80008d2e  x6:0x0000007c PA:0x80008c97
       31795000	      3178	80000598	f30c1483	lh	x9,-208(x24)	 x24:0x80008d2e  x9=0x00004494 PA:0x80008c5e
       31805000	      3179	8000059c	f27c0823	sb	x7,-208(x24)	 x24:0x80008d2e  x7:0x0000ba00 PA:0x80008c5e
       31815000	      3180	800005a0	8dfa4c93	xori	x25,x20,-1825	 x20:0x8000ba94 x25=0x7fff424b
       31825000	      3181	800005a4	051c0223	sb	x17,68(x24)	 x24:0x80008d2e x17:0xffffff86 PA:0x80008d72
       31835000	      3182	800005a8	04cc0ea3	sb	x12,93(x24)	 x24:0x80008d2e x12:0xffc2bc99 PA:0x80008d8b
       31845000	      3183	800005ac	05dc0b03	lb	x22,93(x24)	 x24:0x80008d2e x22=0xffffff99 PA:0x80008d8b
       31855000	      3184	800005b0	00008a17	auipc	x20,0x8	 x20=0x800085ac
       31865000	      3185	800005b4	410a0a13	addi	x20,x20,1040	 x20:0x800085ac x20=0x800089bc
       31875000	      3186	800005b8	00008997	auipc	x19,0x8	 x19=0x800085b4
       31885000	      3187	800005bc	2a798993	addi	x19,x19,679	 x19:0x800085b4 x19=0x8000885b
       31895000	      3188	800005c0	00008917	auipc	x18,0x8	 x18=0x800085bc
       31905000	      3189	800005c4	3a290913	addi	x18,x18,930	 x18:0x800085bc x18=0x8000895e
       31915000	      3190	800005c8	0319df03	lhu	x30,49(x19)	 x19:0x8000885b x30=0x00007677 PA:0x8000888c
       31925000	      3191	800005cc	f97a4483	lbu	x9,-105(x20)	 x20:0x800089bc  x9=0x00000038 PA:0x80008953
       31935000	      3192	800005d0	f50a1683	lh	x13,-176(x20)	 x20:0x800089bc x13=0xfffff6f7 PA:0x8000890c
       31945000	      3193	800005d4	0e298e03	lb	x28,226(x19)	 x19:0x8000885b x28=0x00000026 PA:0x8000893d
       31955000	      3194	800005d8	05ba0083	lb	x1,91(x20)	 x20:0x800089bc  x1=0xfffffffc PA:0x80008a17
       31965000	      3195	800005dc	ff39d083	lhu	x1,-13(x19)	 x19:0x8000885b  x1=0x00003435 PA:0x8000884e
       31975000	      3196	800005e0	0d49cc83	lbu	x25,212(x19)	 x19:0x8000885b x25=0x00000096 PA:0x8000892f
       31985000	      3197	800005e4	01a92123	sw	x26,2(x18)	 x18:0x8000895e x26:0x00000001 PA:0x80008960
       31995000	      3198	800005e8	0dba06a3	sb	x27,205(x20)	 x20:0x800089bc x27:0xfffffff9 PA:0x80008a89
       32005000	      3199	800005ec	fd59cd83	lbu	x27,-43(x19)	 x19:0x8000885b x27=0x0000001b PA:0x80008830
       32015000	      3200	00000000	00000013	addi	x0,x0,0	  x0:0x00000000
       32025000	      3201	800005f0	f1ba0f03	lb	x30,-229(x20)	 x20:0x800089bc x30=0xffffffbc PA:0x800088d7
       32035000	      3202	800005f4	0e2a5183	lhu	x3,226(x20)	 x20:0x800089bc  x3=0x00008485 PA:0x80008a9e
       32045000	      3203	800005f8	0ff98723	sb	x31,238(x19)	 x19:0x8000885b x31:0x7fff5fef PA:0x80008949
       32055000	      3204	800005fc	0309c883	lbu	x17,48(x19)	 x19:0x8000885b x17=0x00000070 PA:0x8000888b
       32065000	      3205	80000600	ff3909a3	sb	x19,-13(x18)	 x18:0x8000895e x19:0x8000885b PA:0x80008951
       32075000	      3206	80000604	08f99703	lh	x14,143(x19)	 x19:0x8000885b x14=0xffffd0d1 PA:0x800088ea
       32085000	      3207	80000608	00d94d03	lbu	x26,13(x18)	 x18:0x8000895e x26=0x00000050 PA:0x8000896b
       32095000	      3208	8000060c	00a94783	lbu	x15,10(x18)	 x18:0x8000895e x15=0x00000053 PA:0x80008968
       32105000	      3209	80000610	0b4a2023	sw	x20,160(x20)	 x20:0x800089bc x20:0x800089bc PA:0x80008a5c
       32115000	      3210	80000614	0639d383	lhu	x7,99(x19)	 x19:0x8000885b  x7=0x0000a4a5 PA:0x800088be
       32125000	      3211	80000618	02fa0b03	lb	x22,47(x20)	 x20:0x800089bc x22=0xffffffd0 PA:0x800089eb
       32135000	      3212	8000061c	fe7a0183	lb	x3,-25(x20)	 x20:0x800089bc  x3=0xffffff88 PA:0x800089a3
       32145000	      3213	80000620	00690483	lb	x9,6(x18)	 x18:0x8000895e  x9=0x0000004f PA:0x80008964
       32155000	      3214	80000624	ff1a4e83	lbu	x29,-15(x20)	 x20:0x800089bc x29=0x00000096 PA:0x800089ad
       32165000	      3215	00000000	00000013	addi	x0,x0,0	  x0:0x00000000
       32175000	      3216	80000628	0dd98a23	sb	x29,212(x19)	 x19:0x8000885b x29:0x00000096 PA:0x8000892f
       32185000	      3217	8000062c	00790d83	lb	x27,7(x18)	 x18:0x8000895e x27=0x0000004e PA:0x80008965
       32195000	      3218	80000630	00009097	auipc	x1,0x9	  x1=0x8000962c
       32205000	      3219	80000634	97508093	addi	x1,x1,-1675	  x1:0x8000962c  x1=0x80008fa1
       32215000	      3220	80000638	f1808da3	sb	x24,-229(x1)	  x1:0x80008fa1 x24:0x80008d2e PA:0x80008ebc
       32225000	      3221	8000063c	402655b3	sra	x11,x12,x2	 x12:0xffc2bc99  x2:0x80008868 x11=0xffffc2bc
       32235000	      3222	80000640	00afd293	srli	x5,x31,0xa	 x31:0x7fff5fef  x5=0x001fffd7
       32245000	      3223	80000644	01659993	slli	x19,x11,0x16	 x11:0xffffc2bc x19=0xaf000000
       32255000	      3224	80000648	40b4d333	sra	x6,x9,x11	  x9:0x0000004f x11:0xffffc2bc  x6=0x00000000
       32265000	      3225	8000064c	023086a3	sb	x3,45(x1)	  x1:0x80008fa1  x3:0xffffff88 PA:0x80008fce
       32275000	      3226	80000650	f7a08923	sb	x26,-142(x1)	  x1:0x80008fa1 x26:0x00000050 PA:0x80008f13
       32285000	      3227	80000654	f0a08323	sb	x10,-250(x1)	  x1:0x80008fa1 x10:0xffffffff PA:0x80008ea7
       32295000	      3228	80000658	f8f0a903	lw	x18,-113(x1)	  x1:0x80008fa1 x18=0x18191a1b PA:0x80008f30
       32305000	      3229	8000065c	9af58c93	addi	x25,x11,-1617	 x11:0xffffc2bc x25=0xffffbc6b
       32315000	      3230	80000660	91493b93	sltiu	x23,x18,-1772	 x18:0x18191a1b x23=0x00000001
       32325000	      3231	80000664	6ae02913	slti	x18,x0,1710	  x0:0x00000000 x18=0x00000001
       32335000	      3232	80000668	fc40c703	lbu	x14,-60(x1)	  x1:0x80008fa1 x14=0x0000004e PA:0x80008f65
       32345000	      3233	8000066c	00dd2e33	slt	x28,x26,x13	 x26:0x00000050 x13:0xfffff6f7 x28=0x00000000
       32355000	      3234	80000670	f0a086a3	sb	x10,-243(x1)	  x1:0x80008fa1 x10:0xffffffff PA:0x80008eae
       32365000	      3235	80000674	05f091a3	sh	x31,67(x1)	  x1:0x80008fa1 x31:0x7fff5fef PA:0x80008fe4
       32375000	      3236	80000678	008e0bb3	add	x23,x28,x8	 x28:0x00000000  x8:0x80009f64 x23=0x80009f64
       32385000	      3237	8000067c	00d08203	lb	x4,13(x1)	  x1:0x80008fa1  x4=0xffffff95 PA:0x80008fae
       32395000	      3238	00000000	00000013	addi	x0,x0,0	  x0:0x00000000
       32405000	      3239	80000680	fa4c9f97	auipc	x31,0xfa4c9	 x31=0x7a4c967c
       32415000	      3240	80000684	f6108823	sb	x1,-144(x1)	  x1:0x80008fa1  x1:0x80008fa1 PA:0x80008f11
       32425000	      3241	80000688	f4908583	lb	x11,-183(x1)	  x1:0x80008fa1 x11=0xffffffd1 PA:0x80008eea
       32435000	      3242	8000068c	01ad6333	or	x6,x26,x26	 x26:0x00000050 x26:0x00000050  x6=0x00000050
       32445000	      3243	80000690	f0908783	lb	x15,-247(x1)	  x1:0x80008fa1 x15=0xffffff91 PA:0x80008eaa
       32455000	      3244	80000694	fdd08983	lb	x19,-35(x1)	  x1:0x80008fa1 x19=0x00000065 PA:0x80008f7e
       32465000	      3245	80000698	f9808883	lb	x17,-104(x1)	  x1:0x80008fa1 x17=0x00000022 PA:0x80008f39
       32475000	      3246	8000069c	f41080a3	sb	x1,-191(x1)	  x1:0x80008fa1  x1:0x80008fa1 PA:0x80008ee2
       32485000	      3247	800006a0	4077d893	srai	x17,x15,0x7	 x15:0xffffff91 x17=0xffffffff
       32495000	      3248	800006a4	41b6d733	sra	x14,x13,x27	 x13:0xfffff6f7 x27:0x0000004e x14=0xffffffff
       32505000	      3249	800006a8	f2909e83	lh	x29,-215(x1)	  x1:0x80008fa1 x29=0xffffb0b1 PA:0x80008eca
       32515000	      3250	800006ac	f2b0af83	lw	x31,-213(x1)	  x1:0x80008fa1 x31=0xb4b5b6b7 PA:0x80008ecc
       32525000	      3251	800006b0	40440e33	sub	x28,x8,x4	  x8:0x80009f64  x4:0xffffff95 x28=0x80009fcf
       32535000	      3252	800006b4	f7908aa3	sb	x25,-139(x1)	  x1:0x80008fa1 x25:0xffffbc6b PA:0x80008f16
       32545000	      3253	800006b8	03808c03	lb	x24,56(x1)	  x1:0x80008fa1 x24=0xffffffc2 PA:0x80008fd9
       32555000	      3254	800006bc	009a99b3	sll	x19,x21,x9	 x21:0x800082a3  x9:0x0000004f x19=0x41518000
       32565000	      3255	800006c0	f4709303	lh	x6,-185(x1)	  x1:0x80008fa1  x6=0xffffacd3 PA:0x80008ee8
       32575000	      3256	800006c4	f0e092a3	sh	x14,-251(x1)	  x1:0x80008fa1 x14:0xffffffff PA:0x80008ea6
       32585000	      3257	800006c8	00008197	auipc	x3,0x8	  x3=0x800086c4
       32595000	      3258	800006cc	ea818193	addi	x3,x3,-344	  x3:0x800086c4  x3=0x8000856c
       32605000	      3259	800006d0	00008997	auipc	x19,0x8	 x19=0x800086cc
       32615000	      3260	800006d4	0c298993	addi	x19,x19,194	 x19:0x800086cc x19=0x8000878e
       32625000	      3261	800006d8	00008c97	auipc	x25,0x8	 x25=0x800086d4
       32635000	      3262	800006dc	fc2c8c93	addi	x25,x25,-62	 x25:0x800086d4 x25=0x80008696
       32645000	      3263	800006e0	ff2c9b23	sh	x18,-10(x25)	 x25:0x80008696 x18:0x00000001 PA:0x8000868c
       32655000	      3264	800006e4	00008217	auipc	x4,0x8	  x4=0x800086e0
       32665000	      3265	800006e8	e7f20213	addi	x4,x4,-385	  x4:0x800086e0  x4=0x8000855f
       32675000	      3266	800006ec	03d1a223	sw	x29,36(x3)	  x3:0x8000856c x29:0xffffb0b1 PA:0x80008590
       32685000	      3267	800006f0	00ec80a3	sb	x14,1(x25)	 x25:0x80008696 x14:0xffffffff PA:0x80008697
       32695000	      3268	800006f4	00008c17	auipc	x24,0x8	 x24=0x800086f0
       32705000	      3269	800006f8	983c0c13	addi	x24,x24,-1661	 x24:0x800086f0 x24=0x80008073
       32715000	      3270	800006fc	471c2903	lw	x18,1137(x24)	 x24:0x80008073 x18=0x9c9d9e9f PA:0x800084e4
       32725000	      3271	80000700	0031cd83	lbu	x27,3(x3)	  x3:0x8000856c x27=0x00000024 PA:0x8000856f
       32735000	      3272	80000704	ff098823	sb	x16,-16(x19)	 x19:0x8000878e x16:0x80009fc4 PA:0x8000877e
       32745000	      3273	80000708	00f98883	lb	x17,15(x19)	 x19:0x8000878e x17=0x00000056 PA:0x8000879d
       32755000	      3274	8000070c	006caa83	lw	x21,6(x25)	 x25:0x80008696 x21=0x9b555657 PA:0x8000869c
       32765000	      3275	80000710	f6121fa3	sh	x1,-129(x4)	  x4:0x8000855f  x1:0x80008fa1 PA:0x800084de
       32775000	      3276	80000714	febc8fa3	sb	x11,-1(x25)	 x25:0x80008696 x11:0xffffffd1 PA:0x80008695
       32785000	      3277	80000718	00d18e03	lb	x28,13(x3)	  x3:0x8000856c x28=0x00000032 PA:0x80008579
       32795000	      3278	8000071c	07325383	lhu	x7,115(x4)	  x4:0x8000855f  x7=0x0000de89 PA:0x800085d2
       32805000	      3279	80000720	635c1083	lh	x1,1589(x24)	 x24:0x80008073  x1=0x00006263 PA:0x800086a8
       32815000	      3280	80000724	ff3ccd83	lbu	x27,-13(x25)	 x25:0x80008696 x27=0x00000042 PA:0x80008689
       32825000	      3281	80000728	3c1c5903	lhu	x18,961(x24)	 x24:0x80008073 x18=0x0000eeef PA:0x80008434
       32835000	      3282	8000072c	ffd98083	lb	x1,-3(x19)	 x19:0x8000878e  x1=0x00000040 PA:0x8000878b
       32845000	      3283	80000730	0ad24303	lbu	x6,173(x4)	  x4:0x8000855f  x6=0x000000c7 PA:0x8000860c
       32855000	      3284	80000734	02118b03	lb	x22,33(x3)	  x3:0x8000856c x22=0x00000046 PA:0x8000858d
       32865000	      3285	80000738	190c4783	lbu	x15,400(x24)	 x24:0x80008073 x15=0x00000000 PA:0x80008203
       32875000	      3286	8000073c	ff4ccd03	lbu	x26,-12(x25)	 x25:0x80008696 x26=0x00000041 PA:0x8000868a
       32885000	      3287	80000740	f8122d03	lw	x26,-127(x4)	  x4:0x8000855f x26=0x00000001 PA:0x800084e0
       32895000	      3288	80000744	f7324b03	lbu	x22,-141(x4)	  x4:0x8000855f x22=0x00000089 PA:0x800084d2
       32905000	      3289	80000748	695c17a3	sh	x21,1679(x24)	 x24:0x80008073 x21:0x9b555657 PA:0x80008702
       32915000	      3290	8000074c	02019423	sh	x0,40(x3)	  x3:0x8000856c  x0:0x00000000 PA:0x80008594
       32925000	      3291	80000750	520c0f23	sb	x0,1342(x24)	 x24:0x80008073  x0:0x00000000 PA:0x800085b1
       32935000	      3292	80000754	086c0283	lb	x5,134(x24)	 x24:0x80008073  x5=0xffffffb2 PA:0x800080f9
       32945000	      3293	80000758	02718223	sb	x7,36(x3)	  x3:0x8000856c  x7:0x0000de89 PA:0x80008590
       32955000	      3294	8000075c	f7d20b83	lb	x23,-131(x4)	  x4:0x8000855f x23=0xffffff97 PA:0x800084dc
       32965000	      3295	80000760	0069dd83	lhu	x27,6(x19)	 x19:0x8000878e x27=0x00004e4f PA:0x80008794
       32975000	      3296	80000764	00dc8383	lb	x7,13(x25)	 x25:0x80008696  x7=0x00000058 PA:0x800086a3
       32985000	      3297	80000768	ff4cdf03	lhu	x30,-12(x25)	 x25:0x80008696 x30=0x00004041 PA:0x8000868a
       32995000	      3298	8000076c	fcb181a3	sb	x11,-61(x3)	  x3:0x8000856c x11:0xffffffd1 PA:0x8000852f
       33005000	      3299	80000770	0a420703	lb	x14,164(x4)	  x4:0x8000855f x14=0xffffffb1 PA:0x80008603
       33015000	      3300	80000774	553c4383	lbu	x7,1363(x24)	 x24:0x80008073  x7=0x0000007d PA:0x800085c6
       33025000	      3301	80000778	734c0783	lb	x15,1844(x24)	 x24:0x80008073 x15=0x0000005c PA:0x800087a7
       33035000	      3302	8000077c	06320a23	sb	x3,116(x4)	  x4:0x8000855f  x3:0x8000856c PA:0x800085d3
       33045000	      3303	80000780	ff91cb83	lbu	x23,-7(x3)	  x3:0x8000856c x23=0x000000b1 PA:0x80008565
       33055000	      3304	80000784	ffd9ca03	lbu	x20,-3(x19)	 x19:0x8000878e x20=0x00000040 PA:0x8000878b
       33065000	      3305	80000788	00008d17	auipc	x26,0x8	 x26=0x80008784
       33075000	      3306	8000078c	700d0d13	addi	x26,x26,1792	 x26:0x80008784 x26=0x80008e84
       33085000	      3307	80000790	ff8d2883	lw	x17,-8(x26)	 x26:0x80008e84 x17=0xe2656667 PA:0x80008e7c
       33095000	      3308	80000794	00008c97	auipc	x25,0x8	 x25=0x80008790
       33105000	      3309	80000798	3c1c8c93	addi	x25,x25,961	 x25:0x80008790 x25=0x80008b51
       33115000	      3310	8000079c	00008b97	auipc	x23,0x8	 x23=0x80008798
       33125000	      3311	800007a0	3bcb8b93	addi	x23,x23,956	 x23:0x80008798 x23=0x80008b54
       33135000	      3312	800007a4	00008697	auipc	x13,0x8	 x13=0x800087a0
       33145000	      3313	800007a8	43968693	addi	x13,x13,1081	 x13:0x800087a0 x13=0x80008bd9
       33155000	      3314	800007ac	00ad0483	lb	x9,10(x26)	 x26:0x80008e84  x9=0x00000075 PA:0x80008e8e
       33165000	      3315	800007b0	0bbbc703	lbu	x14,187(x23)	 x23:0x80008b54 x14=0x00000058 PA:0x80008c0f
       33175000	      3316	800007b4	311b8d23	sb	x17,794(x23)	 x23:0x80008b54 x17:0xe2656667 PA:0x80008e6e
       33185000	      3317	800007b8	0296d883	lhu	x17,41(x13)	 x13:0x80008bd9 x17=0x0000e8e9 PA:0x80008c02
       33195000	      3318	800007bc	febd0b23	sb	x11,-10(x26)	 x26:0x80008e84 x11:0xffffffd1 PA:0x80008e7a
       33205000	      3319	800007c0	fdfca7a3	sw	x31,-49(x25)	 x25:0x80008b51 x31:0xb4b5b6b7 PA:0x80008b20
       33215000	      3320	800007c4	01568903	lb	x18,21(x13)	 x13:0x80008bd9 x18=0xffffffd5 PA:0x80008bee
       33225000	      3321	800007c8	1c8b87a3	sb	x8,463(x23)	 x23:0x80008b54  x8:0x80009f64 PA:0x80008d23
       33235000	      3322	800007cc	021cda03	lhu	x20,33(x25)	 x25:0x80008b51 x20=0x00005859 PA:0x80008b72
       33245000	      3323	800007d0	208bd783	lhu	x15,520(x23)	 x23:0x80008b54 x15=0x00004647 PA:0x80008d5c
       33255000	      3324	800007d4	010d4983	lbu	x19,16(x26)	 x26:0x80008e84 x19=0x0000007f PA:0x80008e94
       33265000	      3325	800007d8	00008117	auipc	x2,0x8	  x2=0x800087d4
       33275000	      3326	800007dc	72b10113	addi	x2,x2,1835	  x2:0x800087d4  x2=0x80008eff
       33285000	      3327	800007e0	fc7c9203	lh	x4,-57(x25)	 x25:0x80008b51  x4=0x00000203 PA:0x80008b18
       33295000	      3328	800007e4	29db8903	lb	x18,669(x23)	 x23:0x80008b54 x18=0xffffffda PA:0x80008df1
       33305000	      3329	800007e8	00614f83	lbu	x31,6(x2)	  x2:0x80008eff x31=0x000000de PA:0x80008f05
       33315000	      3330	800007ec	ff3c8983	lb	x19,-13(x25)	 x25:0x80008b51 x19=0x0000002f PA:0x80008b44
       33325000	      3331	800007f0	016d1023	sh	x22,0(x26)	 x26:0x80008e84 x22:0x00000089 PA:0x80008e84
       33335000	      3332	800007f4	ff414083	lbu	x1,-12(x2)	  x2:0x80008eff  x1=0x000000d1 PA:0x80008ef3
       33345000	      3333	800007f8	fd168303	lb	x6,-47(x13)	 x13:0x80008bd9  x6=0xffffff91 PA:0x80008baa
       33355000	      3334	800007fc	fe268923	sb	x2,-14(x13)	 x13:0x80008bd9  x2:0x80008eff PA:0x80008bcb
       33365000	      3335	80000800	202bd503	lhu	x10,514(x23)	 x23:0x80008b54 x10=0x00003c3d PA:0x80008d56
       33375000	      3336	00000000	00000013	addi	x0,x0,0	  x0:0x00000000
       33385000	      3337	80000804	42abde83	lhu	x29,1066(x23)	 x23:0x80008b54 x29=0x00006465 PA:0x80008f7e
       33395000	      3338	80000808	fc16dd83	lhu	x27,-63(x13)	 x13:0x80008bd9 x27=0x00008081 PA:0x80008b9a
       33405000	      3339	8000080c	fc3c9183	lh	x3,-61(x25)	 x25:0x80008b51  x3=0xfffffeff PA:0x80008b14
       33415000	      3340	80000810	ff8d5203	lhu	x4,-8(x26)	 x26:0x80008e84  x4=0x00006667 PA:0x80008e7c
       33425000	      3341	80000814	000d06a3	sb	x0,13(x26)	 x26:0x80008e84  x0:0x00000000 PA:0x80008e91
       33435000	      3342	80000818	ff410983	lb	x19,-12(x2)	  x2:0x80008eff x19=0xffffffd1 PA:0x80008ef3
       33445000	      3343	8000081c	fe76af03	lw	x30,-25(x13)	 x13:0x80008bd9 x30=0xa8a9aaab PA:0x80008bc0
       33455000	      3344	80000820	463bce03	lbu	x28,1123(x23)	 x23:0x80008b54 x28=0x0000009c PA:0x80008fb7
       33465000	      3345	80000824	ffa10483	lb	x9,-6(x2)	  x2:0x80008eff  x9=0xffffffe2 PA:0x80008ef9
       33475000	      3346	80000828	ffad0283	lb	x5,-6(x26)	 x26:0x80008e84  x5=0x00000065 PA:0x80008e7e
       33485000	      3347	8000082c	06fb8ca3	sb	x15,121(x23)	 x23:0x80008b54 x15:0x00004647 PA:0x80008bcd
       33495000	      3348	80000830	feb10a23	sb	x11,-12(x2)	  x2:0x80008eff x11:0xffffffd1 PA:0x80008ef3
       33505000	      3349	80000834	fe9d0da3	sb	x9,-5(x26)	 x26:0x80008e84  x9:0xffffffe2 PA:0x80008e7f
       33515000	      3350	80000838	017c8083	lb	x1,23(x25)	 x25:0x80008b51  x1=0x00000053 PA:0x80008b68
       33525000	      3351	8000083c	012c8283	lb	x5,18(x25)	 x25:0x80008b51  x5=0x00000048 PA:0x80008b63
       33535000	      3352	80000840	0b4b9d23	sh	x20,186(x23)	 x23:0x80008b54 x20:0x00005859 PA:0x80008c0e
       33545000	      3353	80000844	0396cf03	lbu	x30,57(x13)	 x13:0x80008bd9 x30=0x000000f9 PA:0x80008c12
       33555000	      3354	80000848	00e6c903	lbu	x18,14(x13)	 x13:0x80008bd9 x18=0x000000cc PA:0x80008be7
       33565000	      3355	00000000	00000013	addi	x0,x0,0	  x0:0x00000000
       33575000	      3356	8000084c	ff2d0ba3	sb	x18,-9(x26)	 x26:0x80008e84 x18:0x000000cc PA:0x80008e7b
       33585000	      3357	80000850	00008d97	auipc	x27,0x8	 x27=0x8000884c
       33595000	      3358	80000854	b0ad8d93	addi	x27,x27,-1270	 x27:0x8000884c x27=0x80008356
       33605000	      3359	80000858	febd8d23	sb	x11,-6(x27)	 x27:0x80008356 x11:0xffffffd1 PA:0x80008350
       33615000	      3360	8000085c	003d8223	sb	x3,4(x27)	 x27:0x80008356  x3:0xfffffeff PA:0x8000835a
       33625000	      3361	80000860	40ca83b3	sub	x7,x21,x12	 x21:0x9b555657 x12:0xffc2bc99  x7=0x9b9299be
       33635000	      3362	80000864	007d8483	lb	x9,7(x27)	 x27:0x80008356  x9=0x00000016 PA:0x8000835d
       33645000	      3363	80000868	1b6207b7	lui	x15,0x1b620	 x15=0x1b620000
       33655000	      3364	8000086c	cc5df213	andi	x4,x27,-827	 x27:0x80008356  x4=0x80008044
       33665000	      3365	80000870	ffbd8823	sb	x27,-16(x27)	 x27:0x80008356 x27:0x80008356 PA:0x80008346
       33675000	      3366	80000874	ff5d8983	lb	x19,-11(x27)	 x27:0x80008356 x19=0x00000000 PA:0x8000834b
       33685000	      3367	80000878	008d9e83	lh	x29,8(x27)	 x27:0x80008356 x29=0x00001415 PA:0x8000835e
       33695000	      3368	8000087c	01f46233	or	x4,x8,x31	  x8:0x80009f64 x31:0x000000de  x4=0x80009ffe
       33705000	      3369	80000880	ff6dc503	lbu	x10,-10(x27)	 x27:0x80008356 x10=0x00000007 PA:0x8000834c
       33715000	      3370	80000884	ff9d8683	lb	x13,-7(x27)	 x27:0x80008356 x13=0x00000004 PA:0x8000834f
       33725000	      3371	80000888	40c1dab3	sra	x21,x3,x12	  x3:0xfffffeff x12:0xffc2bc99 x21=0xffffffff
       33735000	      3372	8000088c	ff4d8e83	lb	x29,-12(x27)	 x27:0x80008356 x29=0x00000001 PA:0x8000834a
       33745000	      3373	80000890	ff9d8903	lb	x18,-7(x27)	 x27:0x80008356 x18=0x00000004 PA:0x8000834f
       33755000	      3374	80000894	00ddcf83	lbu	x31,13(x27)	 x27:0x80008356 x31=0x00000000 PA:0x80008363
       33765000	      3375	00000000	00000013	addi	x0,x0,0	  x0:0x00000000
       33775000	      3376	80000898	fffd8103	lb	x2,-1(x27)	 x27:0x80008356  x2=0x0000000e PA:0x80008355
       33785000	      3377	8000089c	007dce83	lbu	x29,7(x27)	 x27:0x80008356 x29=0x00000016 PA:0x8000835d
       33795000	      3378	800008a0	00795b13	srli	x22,x18,0x7	 x18:0x00000004 x22=0x00000000
       33805000	      3379	800008a4	ff4d9983	lh	x19,-12(x27)	 x27:0x80008356 x19=0x00000001 PA:0x8000834a
       33815000	      3380	800008a8	ff4dc903	lbu	x18,-12(x27)	 x27:0x80008356 x18=0x00000001 PA:0x8000834a
       33825000	      3381	800008ac	fe6d8ea3	sb	x6,-3(x27)	 x27:0x80008356  x6:0xffffff91 PA:0x80008353
       33835000	      3382	800008b0	00854ab3	xor	x21,x10,x8	 x10:0x00000007  x8:0x80009f64 x21=0x80009f63
       33845000	      3383	800008b4	013da523	sw	x19,10(x27)	 x27:0x80008356 x19:0x00000001 PA:0x80008360
       33855000	      3384	800008b8	016d9023	sh	x22,0(x27)	 x27:0x80008356 x22:0x00000000 PA:0x80008356
       33865000	      3385	800008bc	ff2d8903	lb	x18,-14(x27)	 x27:0x80008356 x18=0x00000003 PA:0x80008348
       33875000	      3386	800008c0	ff9dc303	lbu	x6,-7(x27)	 x27:0x80008356  x6=0x00000004 PA:0x8000834f
       33885000	      3387	800008c4	ff6da383	lw	x7,-10(x27)	 x27:0x80008356  x7=0x04050607 PA:0x8000834c
       33895000	      3388	800008c8	40005cb3	sra	x25,x0,x0	  x0:0x00000000  x0:0x00000000 x25=0x00000000
       33905000	      3389	800008cc	6508af13	slti	x30,x17,1616	 x17:0x0000e8e9 x30=0x00000000
       33915000	      3390	800008d0	009d8223	sb	x9,4(x27)	 x27:0x80008356  x9:0x00000016 PA:0x8000835a
       33925000	      3391	800008d4	011d8623	sb	x17,12(x27)	 x27:0x80008356 x17:0x0000e8e9 PA:0x80008362
       33935000	      3392	800008d8	c8b5e513	ori	x10,x11,-885	 x11:0xffffffd1 x10=0xffffffdb
       33945000	      3393	800008dc	000923b3	slt	x7,x18,x0	 x18:0x00000003  x0:0x00000000  x7=0x00000000
       33955000	      3394	800008e0	004dd303	lhu	x6,4(x27)	 x27:0x80008356  x6=0x00001016 PA:0x8000835a
       33965000	      3395	800008e4	408cd3b3	sra	x7,x25,x8	 x25:0x00000000  x8:0x80009f64  x7=0x00000000
       33975000	      3396	800008e8	010512b3	sll	x5,x10,x16	 x10:0xffffffdb x16:0x80009fc4  x5=0xfffffdb0
       33985000	      3397	800008ec	00af5113	srli	x2,x30,0xa	 x30:0x00000000  x2=0x00000000
       33995000	      3398	800008f0	00d44fb3	xor	x31,x8,x13	  x8:0x80009f64 x13:0x00000004 x31=0x80009f60
       34005000	      3399	800008f4	00fdc303	lbu	x6,15(x27)	 x27:0x80008356  x6=0x0000001e PA:0x80008365
       34015000	      3400	800008f8	00cd9b03	lh	x22,12(x27)	 x27:0x80008356 x22=0x000000e9 PA:0x80008362
       34025000	      3401	800008fc	00008117	auipc	x2,0x8	  x2=0x800088f8
       34035000	      3402	80000900	94110113	addi	x2,x2,-1727	  x2:0x800088f8  x2=0x80008239
       34045000	      3403	80000904	fd814d03	lbu	x26,-40(x2)	  x2:0x80008239 x26=0x000000ca PA:0x80008211
       34055000	      3404	80000908	0b510503	lb	x10,181(x2)	  x2:0x80008239 x10=0xffffffa5 PA:0x800082ee
       34065000	      3405	8000090c	40cb5e33	sra	x28,x22,x12	 x22:0x000000e9 x12:0xffc2bc99 x28=0x00000000
       34075000	      3406	80000910	00a10d33	add	x26,x2,x10	  x2:0x80008239 x10:0xffffffa5 x26=0x800081de
       34085000	      3407	80000914	5cd24893	xori	x17,x4,1485	  x4:0x80009ffe x17=0x80009a33
       34095000	      3408	80000918	01a10b23	sb	x26,22(x2)	  x2:0x80008239 x26:0x800081de PA:0x8000824f
       34105000	      3409	8000091c	f8111383	lh	x7,-127(x2)	  x2:0x80008239  x7=0x00007071 PA:0x800081ba
       34115000	      3410	80000920	f2f12c03	lw	x24,-209(x2)	  x2:0x80008239 x24=0x20212223 PA:0x80008168
       34125000	      3411	80000924	0199d593	srli	x11,x19,0x19	 x19:0x00000001 x11=0x00000000
       34135000	      3412	80000928	f9e10703	lb	x14,-98(x2)	  x2:0x80008239 x14=0xffffff8c PA:0x800081d7
       34145000	      3413	8000092c	01ae77b3	and	x15,x28,x26	 x28:0x00000000 x26:0x800081de x15=0x00000000
       34155000	      3414	80000930	eec77fb7	lui	x31,0xeec77	 x31=0xeec77000
       34165000	      3415	80000934	f58117a3	sh	x24,-177(x2)	  x2:0x80008239 x24:0x20212223 PA:0x80008188
       34175000	      3416	80000938	50147193	andi	x3,x8,1281	  x8:0x80009f64  x3=0x00000500
       34185000	      3417	8000093c	f5112fa3	sw	x17,-161(x2)	  x2:0x80008239 x17:0x80009a33 PA:0x80008198
       34195000	      3418	80000940	00c10123	sb	x12,2(x2)	  x2:0x80008239 x12:0xffc2bc99 PA:0x8000823b
       34205000	      3419	80000944	01d1a9b3	slt	x19,x3,x29	  x3:0x00000500 x29:0x00000016 x19=0x00000000
       34215000	      3420	80000948	f5811fa3	sh	x24,-161(x2)	  x2:0x80008239 x24:0x20212223 PA:0x80008198
       34225000	      3421	8000094c	060103a3	sb	x0,103(x2)	  x2:0x80008239  x0:0x00000000 PA:0x800082a0
       34235000	      3422	80000950	006ae9b3	or	x19,x21,x6	 x21:0x80009f63  x6:0x0000001e x19=0x80009f7f
       34245000	      3423	80000954	f1d10583	lb	x11,-227(x2)	  x2:0x80008239 x11=0x0000000d PA:0x80008156
       34255000	      3424	00000000	00000013	addi	x0,x0,0	  x0:0x00000000
       34265000	      3425	80000958	88bcbf17	auipc	x30,0x88bcb	 x30=0x08bcb954
       34275000	      3426	8000095c	005b84b3	add	x9,x23,x5	 x23:0x80008b54  x5:0xfffffdb0  x9=0x80008904
       34285000	      3427	80000960	006ac9b3	xor	x19,x21,x6	 x21:0x80009f63  x6:0x0000001e x19=0x80009f7d
       34295000	      3428	80000964	07614583	lbu	x11,118(x2)	  x2:0x80008239 x11=0x00000064 PA:0x800082af
       34305000	      3429	80000968	00000013	addi	x0,x0,0	  x0:0x00000000
       34315000	      3430	8000096c	00c91213	slli	x4,x18,0xc	 x18:0x00000003  x4=0x00003000
       34325000	      3431	80000970	07a10a23	sb	x26,116(x2)	  x2:0x80008239 x26:0x800081de PA:0x800082ad
       34335000	      3432	80000974	f2014303	lbu	x6,-224(x2)	  x2:0x80008239  x6=0x00000012 PA:0x80008159
       34345000	      3433	80000978	0147a5b3	slt	x11,x15,x20	 x15:0x00000000 x20:0x00005859 x11=0x00000001
       34355000	      3434	8000097c	664b7793	andi	x15,x22,1636	 x22:0x000000e9 x15=0x00000060
       34365000	      3435	80000980	01d911b3	sll	x3,x18,x29	 x18:0x00000003 x29:0x00000016  x3=0x00c00000
       34375000	      3436	80000984	0de12da3	sw	x30,219(x2)	  x2:0x80008239 x30:0x08bcb954 PA:0x80008314
       34385000	      3437	80000988	008c49b3	xor	x19,x24,x8	 x24:0x20212223  x8:0x80009f64 x19=0xa021bd47
       34395000	      3438	8000098c	f3410a03	lb	x20,-204(x2)	  x2:0x80008239 x20=0x00000026 PA:0x8000816d
       34405000	      3439	80000990	61b4fe13	andi	x28,x9,1563	  x9:0x80008904 x28=0x00000000
       34415000	      3440	80000994	f183b293	sltiu	x5,x7,-232	  x7:0x00007071  x5=0x00000001
       34425000	      3441	80000998	00539393	slli	x7,x7,0x5	  x7:0x00007071  x7=0x000e0e20
       34435000	      3442	8000099c	006f7c33	and	x24,x30,x6	 x30:0x08bcb954  x6:0x00000012 x24=0x00000010
       34445000	      3443	800009a0	00a14b03	lbu	x22,10(x2)	  x2:0x80008239 x22=0x000000f8 PA:0x80008243
       34455000	      3444	800009a4	011dabb3	slt	x23,x27,x17	 x27:0x80008356 x17:0x80009a33 x23=0x00000001
       34465000	      3445	800009a8	015edb33	srl	x22,x29,x21	 x29:0x00000016 x21:0x80009f63 x22=0x00000002
       34475000	      3446	800009ac	b6056f13	ori	x30,x10,-1184	 x10:0xffffffa5 x30=0xffffffe5
       34485000	      3447	800009b0	00e14903	lbu	x18,14(x2)	  x2:0x80008239 x18=0x000000fc PA:0x80008247
       34495000	      3448	800009b4	1d8d7913	andi	x18,x26,472	 x26:0x800081de x18=0x000001d8
       34505000	      3449	800009b8	fb910623	sb	x25,-84(x2)	  x2:0x80008239 x25:0x00000000 PA:0x800081e5
       34515000	      3450	800009bc	40e18db3	sub	x27,x3,x14	  x3:0x00c00000 x14:0xffffff8c x27=0x00c00074
       34525000	      3451	800009c0	f6b74513	xori	x10,x14,-149	 x14:0xffffff8c x10=0x000000e7
       34535000	      3452	800009c4	f2b15983	lhu	x19,-213(x2)	  x2:0x80008239 x19=0x00001e1f PA:0x80008164
       34545000	      3453	800009c8	00c84cb3	xor	x25,x16,x12	 x16:0x80009fc4 x12:0xffc2bc99 x25=0x7fc2235d
       34555000	      3454	800009cc	03110423	sb	x17,40(x2)	  x2:0x80008239 x17:0x80009a33 PA:0x80008261
       34565000	      3455	800009d0	bf90fa93	andi	x21,x1,-1031	  x1:0x00000053 x21=0x00000051
       34575000	      3456	800009d4	f0714f83	lbu	x31,-249(x2)	  x2:0x80008239 x31=0x000000fb PA:0x80008140
       34585000	      3457	800009d8	09a10283	lb	x5,154(x2)	  x2:0x80008239  x5=0xffffff88 PA:0x800082d3
       34595000	      3458	800009dc	f78103a3	sb	x24,-153(x2)	  x2:0x80008239 x24:0x00000010 PA:0x800081a0
       34605000	      3459	800009e0	02a10923	sb	x10,50(x2)	  x2:0x80008239 x10:0x000000e7 PA:0x8000826b
       34615000	      3460	800009e4	00008597	auipc	x11,0x8	 x11=0x800089e0
       34625000	      3461	800009e8	20a58593	addi	x11,x11,522	 x11:0x800089e0 x11=0x80008bea
       34635000	      3462	800009ec	e975c703	lbu	x14,-361(x11)	 x11:0x80008bea x14=0x0000006a PA:0x80008a81
       34645000	      3463	800009f0	e0b5c103	lbu	x2,-501(x11)	 x11:0x80008bea  x2=0x000000de PA:0x800089f5
       34655000	      3464	800009f4	d795ce83	lbu	x29,-647(x11)	 x11:0x80008bea x29=0x00000000 PA:0x80008963
       34665000	      3465	800009f8	2375c283	lbu	x5,567(x11)	 x11:0x80008bea  x5=0x0000000a PA:0x80008e21
       34675000	      3466	800009fc	2b059903	lh	x18,688(x11)	 x11:0x80008bea x18=0xffff8081 PA:0x80008e9a
       34685000	      3467	80000a00	d4adab93	slti	x23,x27,-694	 x27:0x00c00074 x23=0x00000000
       34695000	      3468	80000a04	dd558703	lb	x14,-555(x11)	 x11:0x80008bea x14=0xffffffa4 PA:0x800089bf
       34705000	      3469	80000a08	2c859a03	lh	x20,712(x11)	 x11:0x80008bea x20=0xffff9899 PA:0x80008eb2
       34715000	      3470	80000a0c	00763533	sltu	x10,x12,x7	 x12:0xffc2bc99  x7:0x000e0e20 x10=0x00000000
       34725000	      3471	80000a10	002d5e93	srli	x29,x26,0x2	 x26:0x800081de x29=0x20002077
       34735000	      3472	80000a14	0182f033	and	x0,x5,x24	  x5:0x0000000a x24:0x00000010
       34745000	      3473	80000a18	5ae75397	auipc	x7,0x5ae75	  x7=0xdae75a14
       34755000	      3474	80000a1c	01200933	add	x18,x0,x18	  x0:0x00000000 x18:0xffff8081 x18=0xffff8081
       34765000	      3475	80000a20	29b58e23	sb	x27,668(x11)	 x11:0x80008bea x27:0x00c00074 PA:0x80008e86
       34775000	      3476	80000a24	00000013	addi	x0,x0,0	  x0:0x00000000
       34785000	      3477	80000a28	01632cb3	slt	x25,x6,x22	  x6:0x00000012 x22:0x00000002 x25=0x00000000
       34795000	      3478	80000a2c	34d2ca13	xori	x20,x5,845	  x5:0x0000000a x20=0x00000347
       34805000	      3479	80000a30	01d7f533	and	x10,x15,x29	 x15:0x00000060 x29:0x20002077 x10=0x00000060
       34815000	      3480	80000a34	c4d5ab23	sw	x13,-938(x11)	 x11:0x80008bea x13:0x00000004 PA:0x80008840
       34825000	      3481	80000a38	dd75c503	lbu	x10,-553(x11)	 x11:0x80008bea x10=0x000000ac PA:0x800089c1
       34835000	      3482	80000a3c	31cfe493	ori	x9,x31,796	 x31:0x000000fb  x9=0x000003ff
       34845000	      3483	80000a40	2ea58fa3	sb	x10,767(x11)	 x11:0x80008bea x10:0x000000ac PA:0x80008ee9
       34855000	      3484	80000a44	00008117	auipc	x2,0x8	  x2=0x80008a40
       34865000	      3485	80000a48	c7f10113	addi	x2,x2,-897	  x2:0x80008a40  x2=0x800086bf
       34875000	      3486	80000a4c	fb112183	lw	x3,-79(x2)	  x2:0x800086bf  x3=0x28292a2b PA:0x80008670
       34885000	      3487	80000a50	fb112583	lw	x11,-79(x2)	  x2:0x800086bf x11=0x28292a2b PA:0x80008670
       34895000	      3488	80000a54	f1414883	lbu	x17,-236(x2)	  x2:0x800086bf x17=0x0000006c PA:0x800085d3
       34905000	      3489	80000a58	01c2c6b3	xor	x13,x5,x28	  x5:0x0000000a x28:0x00000000 x13=0x0000000a
       34915000	      3490	80000a5c	f1a10a23	sb	x26,-236(x2)	  x2:0x800086bf x26:0x800081de PA:0x800085d3
       34925000	      3491	80000a60	f1414303	lbu	x6,-236(x2)	  x2:0x800086bf  x6=0x000000de PA:0x800085d3
       34935000	      3492	80000a64	f1410983	lb	x19,-236(x2)	  x2:0x800086bf x19=0xffffffde PA:0x800085d3
       34945000	      3493	80000a68	41bc0b33	sub	x22,x24,x27	 x24:0x00000010 x27:0x00c00074 x22=0xff3fff9c
       34955000	      3494	80000a6c	f3115a03	lhu	x20,-207(x2)	  x2:0x800086bf x20=0x0000000a PA:0x800085f0
       34965000	      3495	80000a70	f3110583	lb	x11,-207(x2)	  x2:0x800086bf x11=0x0000000a PA:0x800085f0
       34975000	      3496	80000a74	f3111003	lh	x0,-207(x2)	  x2:0x800086bf PA:0x800085f0
       34985000	      3497	80000a78	f3110483	lb	x9,-207(x2)	  x2:0x800086bf  x9=0x0000000a PA:0x800085f0
       34995000	      3498	80000a7c	f23128a3	sw	x3,-207(x2)	  x2:0x800086bf  x3:0x28292a2b PA:0x800085f0
       35005000	      3499	80000a80	f39128a3	sw	x25,-207(x2)	  x2:0x800086bf x25:0x00000000 PA:0x800085f0
       35015000	      3500	80000a84	f25108a3	sb	x5,-207(x2)	  x2:0x800086bf  x5:0x0000000a PA:0x800085f0
       35025000	      3501	80000a88	01395693	srli	x13,x18,0x13	 x18:0xffff8081 x13=0x00001fff
       35035000	      3502	80000a8c	f3111483	lh	x9,-207(x2)	  x2:0x800086bf  x9=0x0000000a PA:0x800085f0
       35045000	      3503	80000a90	f3110e03	lb	x28,-207(x2)	  x2:0x800086bf x28=0x0000000a PA:0x800085f0
       35055000	      3504	80000a94	f3111083	lh	x1,-207(x2)	  x2:0x800086bf  x1=0x0000000a PA:0x800085f0
       35065000	      3505	80000a98	f3111703	lh	x14,-207(x2)	  x2:0x800086bf x14=0x0000000a PA:0x800085f0
       35075000	      3506	80000a9c	03618263	beq	x3,x22,80000ac0	  x3:0x28292a2b x22:0xff3fff9c
       35085000	      3507	80000aa0	00995013	srli	x0,x18,0x9	 x18:0xffff8081
       35095000	      3508	80000aa4	bacce713	ori	x14,x25,-1108	 x25:0x00000000 x14=0xfffffbac
       35105000	      3509	80000aa8	bd460213	addi	x4,x12,-1068	 x12:0xffc2bc99  x4=0xffc2b86d
       35115000	      3510	80000aac	02b21263	bne	x4,x11,80000ad0	  x4:0xffc2b86d x11:0x0000000a
       35125000	      3511	00000000	00000013	addi	x0,x0,0	  x0:0x00000000
       35135000	      3512	80000acc	00000013	addi	x0,x0,0	  x0:0x00000000
       35145000	      3513	80000ad0	0ca71663	bne	x14,x10,80000b9c	 x14:0xfffffbac x10:0x000000ac
       35155000	      3514	00000000	00000013	addi	x0,x0,0	  x0:0x00000000
       35165000	      3515	80000b98	00000013	addi	x0,x0,0	  x0:0x00000000
       35175000	      3516	80000b9c	425d8197	auipc	x3,0x425d8	  x3=0xc25d8b98
       35185000	      3517	80000ba0	00d444b3	xor	x9,x8,x13	  x8:0x80009f64 x13:0x00001fff  x9=0x8000809b
       35195000	      3518	80000ba4	00000013	addi	x0,x0,0	  x0:0x00000000
       35205000	      3519	80000ba8	01771263	bne	x14,x23,80000bac	 x14:0xfffffbac x23:0x00000000
       35215000	      3520	00000000	00000013	addi	x0,x0,0	  x0:0x00000000
       35225000	      3521	80000ba8	00000013	addi	x0,x0,0	  x0:0x00000000
       35235000	      3522	80000bac	00d6e663	bltu	x13,x13,80000bb8	 x13:0x00001fff x13:0x00001fff
       35245000	      3523	80000bb0	03af7863	bgeu	x30,x26,80000be0	 x30:0xffffffe5 x26:0x800081de
       35255000	      3524	00000000	00000013	addi	x0,x0,0	  x0:0x00000000
       35265000	      3525	80000bdc	00000013	addi	x0,x0,0	  x0:0x00000000
       35275000	      3526	80000be0	496bc037	lui	x0,0x496bc	
       35285000	      3527	80000be4	4166d793	srai	x15,x13,0x16	 x13:0x00001fff x15=0x00000000
       35295000	      3528	80000be8	01efe733	or	x14,x31,x30	 x31:0x000000fb x30:0xffffffe5 x14=0xffffffff
       35305000	      3529	80000bec	84aace13	xori	x28,x21,-1974	 x21:0x00000051 x28=0xfffff81b
       35315000	      3530	80000bf0	014c1933	sll	x18,x24,x20	 x24:0x00000010 x20:0x0000000a x18=0x00004000
       35325000	      3531	80000bf4	00372e33	slt	x28,x14,x3	 x14:0xffffffff  x3:0xc25d8b98 x28=0x00000000
       35335000	      3532	80000bf8	0051fc63	bgeu	x3,x5,80000c10	  x3:0xc25d8b98  x5:0x0000000a
       35345000	      3533	00000000	00000013	addi	x0,x0,0	  x0:0x00000000
       35355000	      3534	80000c0c	00000013	addi	x0,x0,0	  x0:0x00000000
       35365000	      3535	80000c10	03525e63	bge	x4,x21,80000c4c	  x4:0xffc2b86d x21:0x00000051
       35375000	      3536	80000c14	e3902593	slti	x11,x0,-455	  x0:0x00000000 x11=0x00000000
       35385000	      3537	80000c18	59a7ba37	lui	x20,0x59a7b	 x20=0x59a7b000
       35395000	      3538	80000c1c	00356f33	or	x30,x10,x3	 x10:0x000000ac  x3:0xc25d8b98 x30=0xc25d8bbc
       35405000	      3539	80000c20	005d9e93	slli	x29,x27,0x5	 x27:0x00c00074 x29=0x18000e80
       35415000	      3540	80000c24	006708b3	add	x17,x14,x6	 x14:0xffffffff  x6:0x000000de x17=0x000000dd
       35425000	      3541	80000c28	5a657313	andi	x6,x10,1446	 x10:0x000000ac  x6=0x000000a4
       35435000	      3542	80000c2c	2f430213	addi	x4,x6,756	  x6:0x000000a4  x4=0x00000398
       35445000	      3543	80000c30	00000013	addi	x0,x0,0	  x0:0x00000000
       35455000	      3544	80000c34	01bbc2b3	xor	x5,x23,x27	 x23:0x00000000 x27:0x00c00074  x5=0x00c00074
       35465000	      3545	80000c38	00bf95b3	sll	x11,x31,x11	 x31:0x000000fb x11:0x00000000 x11=0x000000fb
       35475000	      3546	80000c3c	00461f93	slli	x31,x12,0x4	 x12:0xffc2bc99 x31=0xfc2bc990
       35485000	      3547	80000c40	04a37663	bgeu	x6,x10,80000c8c	  x6:0x000000a4 x10:0x000000ac
       35495000	      3548	80000c44	03817a63	bgeu	x2,x24,80000c78	  x2:0x800086bf x24:0x00000010
       35505000	      3549	00000000	00000013	addi	x0,x0,0	  x0:0x00000000
       35515000	      3550	80000c74	00000013	addi	x0,x0,0	  x0:0x00000000
       35525000	      3551	80000c78	01b7c233	xor	x4,x15,x27	 x15:0x00000000 x27:0x00c00074  x4=0x00c00074
       35535000	      3552	80000c7c	2a55da17	auipc	x20,0x2a55d	 x20=0xaa55dc78
       35545000	      3553	80000c80	7fdf3c93	sltiu	x25,x30,2045	 x30:0xc25d8bbc x25=0x00000000
       35555000	      3554	80000c84	01927733	and	x14,x4,x25	  x4:0x00c00074 x25:0x00000000 x14=0x00000000
       35565000	      3555	80000c88	01d15a13	srli	x20,x2,0x1d	  x2:0x800086bf x20=0x00000004
       35575000	      3556	80000c8c	00000013	addi	x0,x0,0	  x0:0x00000000
       35585000	      3557	80000c90	009794b3	sll	x9,x15,x9	 x15:0x00000000  x9:0x8000809b  x9=0x00000000
       35595000	      3558	80000c94	407c0eb3	sub	x29,x24,x7	 x24:0x00000010  x7:0xdae75a14 x29=0x2518a5fc
       35605000	      3559	80000c98	40b70333	sub	x6,x14,x11	 x14:0x00000000 x11:0x000000fb  x6=0xffffff05
       35615000	      3560	80000c9c	007d47b3	xor	x15,x26,x7	 x26:0x800081de  x7:0xdae75a14 x15=0x5ae7dbca
       35625000	      3561	80000ca0	409201b3	sub	x3,x4,x9	  x4:0x00c00074  x9:0x00000000  x3=0x00c00074
       35635000	      3562	80000ca4	0040ff33	and	x30,x1,x4	  x1:0x0000000a  x4:0x00c00074 x30=0x00000000
       35645000	      3563	80000ca8	00fa6ab3	or	x21,x20,x15	 x20:0x00000004 x15:0x5ae7dbca x21=0x5ae7dbce
       35655000	      3564	80000cac	02b0ce63	blt	x1,x11,80000ce8	  x1:0x0000000a x11:0x000000fb
       35665000	      3565	00000000	00000013	addi	x0,x0,0	  x0:0x00000000
       35675000	      3566	80000ce4	00000013	addi	x0,x0,0	  x0:0x00000000
       35685000	      3567	80000ce8	01e63533	sltu	x10,x12,x30	 x12:0xffc2bc99 x30:0x00000000 x10=0x00000000
       35695000	      3568	80000cec	007102b3	add	x5,x2,x7	  x2:0x800086bf  x7:0xdae75a14  x5=0x5ae7e0d3
       35705000	      3569	80000cf0	84a86493	ori	x9,x16,-1974	 x16:0x80009fc4  x9=0xffffffce
       35715000	      3570	80000cf4	00670463	beq	x14,x6,80000cfc	 x14:0x00000000  x6:0xffffff05
       35725000	      3571	80000cf8	02ef5e63	bge	x30,x14,80000d34	 x30:0x00000000 x14:0x00000000
       35735000	      3572	00000000	00000013	addi	x0,x0,0	  x0:0x00000000
       35745000	      3573	80000d30	00000013	addi	x0,x0,0	  x0:0x00000000
       35755000	      3574	80000d34	00131d13	slli	x26,x6,0x1	  x6:0xffffff05 x26=0xfffffe0a
       35765000	      3575	80000d38	e4a7f113	andi	x2,x15,-438	 x15:0x5ae7dbca  x2=0x5ae7da4a
       35775000	      3576	80000d3c	03026863	bltu	x4,x16,80000d6c	  x4:0x00c00074 x16:0x80009fc4
       35785000	      3577	00000000	00000013	addi	x0,x0,0	  x0:0x00000000
       35795000	      3578	80000d68	00000013	addi	x0,x0,0	  x0:0x00000000
       35805000	      3579	80000d6c	01d9af33	slt	x30,x19,x29	 x19:0xffffffde x29:0x2518a5fc x30=0x00000001
       35815000	      3580	80000d70	40405d33	sra	x26,x0,x4	  x0:0x00000000  x4:0x00c00074 x26=0x00000000
       35825000	      3581	80000d74	00be5d13	srli	x26,x28,0xb	 x28:0x00000000 x26=0x00000000
       35835000	      3582	80000d78	0076ecb3	or	x25,x13,x7	 x13:0x00001fff  x7:0xdae75a14 x25=0xdae75fff
       35845000	      3583	80000d7c	cb286213	ori	x4,x16,-846	 x16:0x80009fc4  x4=0xfffffff6
       35855000	      3584	80000d80	00ee5863	bge	x28,x14,80000d90	 x28:0x00000000 x14:0x00000000
       35865000	      3585	00000000	00000013	addi	x0,x0,0	  x0:0x00000000
       35875000	      3586	80000d8c	00000013	addi	x0,x0,0	  x0:0x00000000
       35885000	      3587	80000d90	d466a8b7	lui	x17,0xd466a	 x17=0xd466a000
       35895000	      3588	80000d94	0169f5b3	and	x11,x19,x22	 x19:0xffffffde x22:0xff3fff9c x11=0xff3fff9c
       35905000	      3589	80000d98	40ced133	sra	x2,x29,x12	 x29:0x2518a5fc x12:0xffc2bc99  x2=0x00000012
       35915000	      3590	80000d9c	0143db33	srl	x22,x7,x20	  x7:0xdae75a14 x20:0x00000004 x22=0x0dae75a1
       35925000	      3591	80000da0	01d8b0b3	sltu	x1,x17,x29	 x17:0xd466a000 x29:0x2518a5fc  x1=0x00000000
       35935000	      3592	80000da4	414481b3	sub	x3,x9,x20	  x9:0xffffffce x20:0x00000004  x3=0xffffffca
       35945000	      3593	80000da8	5f652117	auipc	x2,0x5f652	  x2=0xdf652da4
       35955000	      3594	80000dac	04ba6863	bltu	x20,x11,80000dfc	 x20:0x00000004 x11:0xff3fff9c
       35965000	      3595	00000000	00000013	addi	x0,x0,0	  x0:0x00000000
       35975000	      3596	80000df8	00000013	addi	x0,x0,0	  x0:0x00000000
       35985000	      3597	80000dfc	a62abd97	auipc	x27,0xa62ab	 x27=0x262abdf8
       35995000	      3598	80000e00	01914db3	xor	x27,x2,x25	  x2:0xdf652da4 x25:0xdae75fff x27=0x0582725b
       36005000	      3599	80000e04	01640663	beq	x8,x22,80000e10	  x8:0x80009f64 x22:0x0dae75a1
       36015000	      3600	80000e08	6e202217	auipc	x4,0x6e202	  x4=0xee202e04
       36025000	      3601	80000e0c	030dfe63	bgeu	x27,x16,80000e48	 x27:0x0582725b x16:0x80009fc4
       36035000	      3602	80000e10	00908db3	add	x27,x1,x9	  x1:0x00000000  x9:0xffffffce x27=0xffffffce
       36045000	      3603	80000e14	d9230493	addi	x9,x6,-622	  x6:0xffffff05  x9=0xfffffc97
       36055000	      3604	80000e18	004cf0b3	and	x1,x25,x4	 x25:0xdae75fff  x4:0xee202e04  x1=0xca200e04
       36065000	      3605	80000e1c	b8807b13	andi	x22,x0,-1144	  x0:0x00000000 x22=0x00000000
       36075000	      3606	80000e20	eeac2e17	auipc	x28,0xeeac2	 x28=0x6eac2e1c
       36085000	      3607	80000e24	000a5313	srli	x6,x20,0x0	 x20:0x00000004  x6=0x00000004
       36095000	      3608	80000e28	757efbb7	lui	x23,0x757ef	 x23=0x757ef000
       36105000	      3609	80000e2c	004e98b3	sll	x17,x29,x4	 x29:0x2518a5fc  x4:0xee202e04 x17=0x518a5fc0
       36115000	      3610	80000e30	8d330397	auipc	x7,0x8d330	  x7=0x0d330e2c
       36125000	      3611	80000e34	004850b3	srl	x1,x16,x4	 x16:0x80009fc4  x4:0xee202e04  x1=0x080009fc
       36135000	      3612	80000e38	40755033	sra	x0,x10,x7	 x10:0x00000000  x7:0x0d330e2c
       36145000	      3613	80000e3c	41b3d733	sra	x14,x7,x27	  x7:0x0d330e2c x27:0xffffffce x14=0x000034cc
       36155000	      3614	80000e40	00579c33	sll	x24,x15,x5	 x15:0x5ae7dbca  x5:0x5ae7e0d3 x24=0xde500000
       36165000	      3615	80000e44	c5d12213	slti	x4,x2,-931	  x2:0xdf652da4  x4=0x00000001
       36175000	      3616	80000e48	03e47a63	bgeu	x8,x30,80000e7c	  x8:0x80009f64 x30:0x00000001
       36185000	      3617	00000000	00000013	addi	x0,x0,0	  x0:0x00000000
       36195000	      3618	80000e78	00000013	addi	x0,x0,0	  x0:0x00000000
       36205000	      3619	80000e7c	008307b3	add	x15,x6,x8	  x6:0x00000004  x8:0x80009f64 x15=0x80009f68
       36215000	      3620	80000e80	25b3cc13	xori	x24,x7,603	  x7:0x0d330e2c x24=0x0d330c77
       36225000	      3621	80000e84	01398db3	add	x27,x19,x19	 x19:0xffffffde x19:0xffffffde x27=0xffffffbc
       36235000	      3622	80000e88	00407ab3	and	x21,x0,x4	  x0:0x00000000  x4:0x00000001 x21=0x00000000
       36245000	      3623	80000e8c	03df8863	beq	x31,x29,80000ebc	 x31:0xfc2bc990 x29:0x2518a5fc
       36255000	      3624	80000e90	ffba3f13	sltiu	x30,x20,-5	 x20:0x00000004 x30=0x00000001
       36265000	      3625	80000e94	f81d6393	ori	x7,x26,-127	 x26:0x00000000  x7=0xffffff81
       36275000	      3626	80000e98	00571333	sll	x6,x14,x5	 x14:0x000034cc  x5:0x5ae7e0d3  x6=0xa6600000
       36285000	      3627	80000e9c	002fb8b3	sltu	x17,x31,x2	 x31:0xfc2bc990  x2:0xdf652da4 x17=0x00000000
       36295000	      3628	80000ea0	00de7133	and	x2,x28,x13	 x28:0x6eac2e1c x13:0x00001fff  x2=0x00000e1c
       36305000	      3629	80000ea4	00e5d313	srli	x6,x11,0xe	 x11:0xff3fff9c  x6=0x0003fcff
       36315000	      3630	80000ea8	02bef263	bgeu	x29,x11,80000ecc	 x29:0x2518a5fc x11:0xff3fff9c
       36325000	      3631	80000eac	011e3233	sltu	x4,x28,x17	 x28:0x6eac2e1c x17:0x00000000  x4=0x00000000
       36335000	      3632	80000eb0	000f7733	and	x14,x30,x0	 x30:0x00000001  x0:0x00000000 x14=0x00000000
       36345000	      3633	80000eb4	ff1cc993	xori	x19,x25,-15	 x25:0xdae75fff x19=0x2518a00e
       36355000	      3634	80000eb8	04051863	bne	x10,x0,80000f08	 x10:0x00000000  x0:0x00000000
       36365000	      3635	80000ebc	dc5fb313	sltiu	x6,x31,-571	 x31:0xfc2bc990  x6=0x00000001
       36375000	      3636	80000ec0	030f9e63	bne	x31,x16,80000efc	 x31:0xfc2bc990 x16:0x80009fc4
       36385000	      3637	00000000	00000013	addi	x0,x0,0	  x0:0x00000000
       36395000	      3638	80000ef8	00000013	addi	x0,x0,0	  x0:0x00000000
       36405000	      3639	80000efc	01d51f93	slli	x31,x10,0x1d	 x10:0x00000000 x31=0x00000000
       36415000	      3640	80000f00	01c194b3	sll	x9,x3,x28	  x3:0xffffffca x28:0x6eac2e1c  x9=0xa0000000
       36425000	      3641	80000f04	014266b3	or	x13,x4,x20	  x4:0x00000000 x20:0x00000004 x13=0x00000004
       36435000	      3642	80000f08	01ce5b33	srl	x22,x28,x28	 x28:0x6eac2e1c x28:0x6eac2e1c x22=0x00000006
       36445000	      3643	80000f0c	948337b7	lui	x15,0x94833	 x15=0x94833000
       36455000	      3644	80000f10	0030ca33	xor	x20,x1,x3	  x1:0x080009fc  x3:0xffffffca x20=0xf7fff636
       36465000	      3645	80000f14	6ded7697	auipc	x13,0x6ded7	 x13=0xeded7f10
       36475000	      3646	80000f18	01c28d33	add	x26,x5,x28	  x5:0x5ae7e0d3 x28:0x6eac2e1c x26=0xc9940eef
       36485000	      3647	80000f1c	03210e63	beq	x2,x18,80000f58	  x2:0x00000e1c x18:0x00004000
       36495000	      3648	80000f20	01057cb3	and	x25,x10,x16	 x10:0x00000000 x16:0x80009fc4 x25=0x00000000
       36505000	      3649	80000f24	1206aa13	slti	x20,x13,288	 x13:0xeded7f10 x20=0x00000001
       36515000	      3650	80000f28	032c1e63	bne	x24,x18,80000f64	 x24:0x0d330c77 x18:0x00004000
       36525000	      3651	00000000	00000013	addi	x0,x0,0	  x0:0x00000000
       36535000	      3652	80000f60	00000013	addi	x0,x0,0	  x0:0x00000000
       36545000	      3653	80000f64	0362d463	bge	x5,x22,80000f8c	  x5:0x5ae7e0d3 x22:0x00000006
       36555000	      3654	00000000	00000013	addi	x0,x0,0	  x0:0x00000000
       36565000	      3655	80000f88	00000013	addi	x0,x0,0	  x0:0x00000000
       36575000	      3656	80000f8c	0010aa33	slt	x20,x1,x1	  x1:0x080009fc  x1:0x080009fc x20=0x00000000
       36585000	      3657	80000f90	6fadf493	andi	x9,x27,1786	 x27:0xffffffbc  x9=0x000006b8
       36595000	      3658	80000f94	004d5193	srli	x3,x26,0x4	 x26:0xc9940eef  x3=0x0c9940ee
       36605000	      3659	80000f98	02fa0e63	beq	x20,x15,80000fd4	 x20:0x00000000 x15:0x94833000
       36615000	      3660	80000f9c	749e79b7	lui	x19,0x749e7	 x19=0x749e7000
       36625000	      3661	80000fa0	010b4e33	xor	x28,x22,x16	 x22:0x00000006 x16:0x80009fc4 x28=0x80009fc2
       36635000	      3662	80000fa4	f71a6b17	auipc	x22,0xf71a6	 x22=0x771a6fa0
       36645000	      3663	80000fa8	01d61293	slli	x5,x12,0x1d	 x12:0xffc2bc99  x5=0x20000000
       36655000	      3664	80000fac	662dbb13	sltiu	x22,x27,1634	 x27:0xffffffbc x22=0x00000000
       36665000	      3665	80000fb0	00614eb3	xor	x29,x2,x6	  x2:0x00000e1c  x6:0x00000001 x29=0x00000e1d
       36675000	      3666	80000fb4	41db01b3	sub	x3,x22,x29	 x22:0x00000000 x29:0x00000e1d  x3=0xfffff1e3
       36685000	      3667	80000fb8	cf310f13	addi	x30,x2,-781	  x2:0x00000e1c x30=0x00000b0f
       36695000	      3668	80000fbc	41080033	sub	x0,x16,x16	 x16:0x80009fc4 x16:0x80009fc4
       36705000	      3669	80000fc0	e320a393	slti	x7,x1,-462	  x1:0x080009fc  x7=0x00000000
       36715000	      3670	80000fc4	40acd493	srai	x9,x25,0xa	 x25:0x00000000  x9=0x00000000
       36725000	      3671	80000fc8	19683b13	sltiu	x22,x16,406	 x16:0x80009fc4 x22=0x00000000
       36735000	      3672	80000fcc	54103b93	sltiu	x23,x0,1345	  x0:0x00000000 x23=0x00000001
       36745000	      3673	80000fd0	04f36663	bltu	x6,x15,8000101c	  x6:0x00000001 x15:0x94833000
       36755000	      3674	00000000	00000013	addi	x0,x0,0	  x0:0x00000000
       36765000	      3675	80001018	00000013	addi	x0,x0,0	  x0:0x00000000
       36775000	      3676	8000101c	40f98f33	sub	x30,x19,x15	 x19:0x749e7000 x15:0x94833000 x30=0xe01b4000
       36785000	      3677	80001020	00000013	addi	x0,x0,0	  x0:0x00000000
       36795000	      3678	80001024	78483d13	sltiu	x26,x16,1924	 x16:0x80009fc4 x26=0x00000000
       36805000	      3679	80001028	016f17b3	sll	x15,x30,x22	 x30:0xe01b4000 x22:0x00000000 x15=0xe01b4000
       36815000	      3680	8000102c	68b1a197	auipc	x3,0x68b1a	  x3=0xe8b1b028
       36825000	      3681	80001030	20da3393	sltiu	x7,x20,525	 x20:0x00000000  x7=0x00000001
       36835000	      3682	80001034	8e01b493	sltiu	x9,x3,-1824	  x3:0xe8b1b028  x9=0x00000001
       36845000	      3683	80001038	c0800e13	addi	x28,x0,-1016	  x0:0x00000000 x28=0xfffffc08
       36855000	      3684	8000103c	0151e733	or	x14,x3,x21	  x3:0xe8b1b028 x21:0x00000000 x14=0xe8b1b028
       36865000	      3685	80001040	02b21463	bne	x4,x11,80001068	  x4:0x00000000 x11:0xff3fff9c
       36875000	      3686	00000000	00000013	addi	x0,x0,0	  x0:0x00000000
       36885000	      3687	80001064	00000013	addi	x0,x0,0	  x0:0x00000000
       36895000	      3688	80001068	001f1663	bne	x30,x1,80001074	 x30:0xe01b4000  x1:0x080009fc
       36905000	      3689	00000000	00000013	addi	x0,x0,0	  x0:0x00000000
       36915000	      3690	80001070	00000013	addi	x0,x0,0	  x0:0x00000000
       36925000	      3691	80001074	011f6bb3	or	x23,x30,x17	 x30:0xe01b4000 x17:0x00000000 x23=0xe01b4000
       36935000	      3692	80001078	5ecaf193	andi	x3,x21,1516	 x21:0x00000000  x3=0x00000000
       36945000	      3693	8000107c	01e19693	slli	x13,x3,0x1e	  x3:0x00000000 x13=0x00000000
       36955000	      3694	80001080	cb7ae193	ori	x3,x21,-841	 x21:0x00000000  x3=0xfffffcb7
       36965000	      3695	80001084	01a93233	sltu	x4,x18,x26	 x18:0x00004000 x26:0x00000000  x4=0x00000000
       36975000	      3696	80001088	008b4f33	xor	x30,x22,x8	 x22:0x00000000  x8:0x80009f64 x30=0x80009f64
       36985000	      3697	8000108c	01309463	bne	x1,x19,80001094	  x1:0x080009fc x19:0x749e7000
       36995000	      3698	00000000	00000013	addi	x0,x0,0	  x0:0x00000000
       37005000	      3699	80001090	00000013	addi	x0,x0,0	  x0:0x00000000
       37015000	      3700	80001094	0062da33	srl	x20,x5,x6	  x5:0x20000000  x6:0x00000001 x20=0x10000000
       37025000	      3701	80001098	7aca7a93	andi	x21,x20,1964	 x20:0x10000000 x21=0x00000000
       37035000	      3702	8000109c	404ad6b3	sra	x13,x21,x4	 x21:0x00000000  x4:0x00000000 x13=0x00000000
       37045000	      3703	800010a0	fedc7913	andi	x18,x24,-19	 x24:0x0d330c77 x18=0x0d330c65
       37055000	      3704	800010a4	02047263	bgeu	x8,x0,800010c8	  x8:0x80009f64  x0:0x00000000
       37065000	      3705	00000000	00000013	addi	x0,x0,0	  x0:0x00000000
       37075000	      3706	800010c4	00000013	addi	x0,x0,0	  x0:0x00000000
       37085000	      3707	800010c8	00009213	slli	x4,x1,0x0	  x1:0x080009fc  x4=0x080009fc
       37095000	      3708	800010cc	54fe0a13	addi	x20,x28,1359	 x28:0xfffffc08 x20=0x00000157
       37105000	      3709	800010d0	00056663	bltu	x10,x0,800010dc	 x10:0x00000000  x0:0x00000000
       37115000	      3710	800010d4	00aab333	sltu	x6,x21,x10	 x21:0x00000000 x10:0x00000000  x6=0x00000000
       37125000	      3711	800010d8	00dffc63	bgeu	x31,x13,800010f0	 x31:0x00000000 x13:0x00000000
       37135000	      3712	00000000	00000013	addi	x0,x0,0	  x0:0x00000000
       37145000	      3713	800010ec	00000013	addi	x0,x0,0	  x0:0x00000000
       37155000	      3714	800010f0	8fface93	xori	x29,x21,-1793	 x21:0x00000000 x29=0xfffff8ff
       37165000	      3715	800010f4	03d84e63	blt	x16,x29,80001130	 x16:0x80009fc4 x29:0xfffff8ff
       37175000	      3716	00000000	00000013	addi	x0,x0,0	  x0:0x00000000
       37185000	      3717	8000112c	00000013	addi	x0,x0,0	  x0:0x00000000
       37195000	      3718	80001130	00231fb3	sll	x31,x6,x2	  x6:0x00000000  x2:0x00000e1c x31=0x00000000
       37205000	      3719	80001134	03d6de63	bge	x13,x29,80001170	 x13:0x00000000 x29:0xfffff8ff
       37215000	      3720	00000000	00000013	addi	x0,x0,0	  x0:0x00000000
       37225000	      3721	8000116c	00000013	addi	x0,x0,0	  x0:0x00000000
       37235000	      3722	80001170	0035b2b3	sltu	x5,x11,x3	 x11:0xff3fff9c  x3:0xfffffcb7  x5=0x00000001
       37245000	      3723	80001174	475b7713	andi	x14,x22,1141	 x22:0x00000000 x14=0x00000000
       37255000	      3724	80001178	1fdd0693	addi	x13,x26,509	 x26:0x00000000 x13=0x000001fd
       37265000	      3725	8000117c	0088a033	slt	x0,x17,x8	 x17:0x00000000  x8:0x80009f64
       37275000	      3726	80001180	03429e63	bne	x5,x20,800011bc	  x5:0x00000001 x20:0x00000157
       37285000	      3727	00000000	00000013	addi	x0,x0,0	  x0:0x00000000
       37295000	      3728	800011b8	00000013	addi	x0,x0,0	  x0:0x00000000
       37305000	      3729	800011bc	013c7d33	and	x26,x24,x19	 x24:0x0d330c77 x19:0x749e7000 x26=0x04120000
       37315000	      3730	800011c0	01e907b3	add	x15,x18,x30	 x18:0x0d330c65 x30:0x80009f64 x15=0x8d33abc9
       37325000	      3731	800011c4	bdec4a37	lui	x20,0xbdec4	 x20=0xbdec4000
       37335000	      3732	800011c8	00636c63	bltu	x6,x6,800011e0	  x6:0x00000000  x6:0x00000000
       37345000	      3733	800011cc	019cd293	srli	x5,x25,0x19	 x25:0x00000000  x5=0x00000000
       37355000	      3734	800011d0	01717d33	and	x26,x2,x23	  x2:0x00000e1c x23:0xe01b4000 x26=0x00000000
       37365000	      3735	800011d4	57cfd1b7	lui	x3,0x57cfd	  x3=0x57cfd000
       37375000	      3736	800011d8	00882ab3	slt	x21,x16,x8	 x16:0x80009fc4  x8:0x80009f64 x21=0x00000000
       37385000	      3737	800011dc	022b0863	beq	x22,x2,8000120c	 x22:0x00000000  x2:0x00000e1c
       37395000	      3738	800011e0	26397513	andi	x10,x18,611	 x18:0x0d330c65 x10=0x00000061
       37405000	      3739	800011e4	4f7d6717	auipc	x14,0x4f7d6	 x14=0xcf7d71e0
       37415000	      3740	800011e8	000ff233	and	x4,x31,x0	 x31:0x00000000  x0:0x00000000  x4=0x00000000
       37425000	      3741	800011ec	01931b93	slli	x23,x6,0x19	  x6:0x00000000 x23=0x00000000
       37435000	      3742	800011f0	008e40b3	xor	x1,x28,x8	 x28:0xfffffc08  x8:0x80009f64  x1=0x7fff636c
       37445000	      3743	800011f4	00000013	addi	x0,x0,0	  x0:0x00000000
       37455000	      3744	800011f8	00597cb3	and	x25,x18,x5	 x18:0x0d330c65  x5:0x00000000 x25=0x00000000
       37465000	      3745	800011fc	dfd8f593	andi	x11,x17,-515	 x17:0x00000000 x11=0x00000000
       37475000	      3746	80001200	00411db3	sll	x27,x2,x4	  x2:0x00000e1c  x4:0x00000000 x27=0x00000e1c
       37485000	      3747	80001204	00aa08b3	add	x17,x20,x10	 x20:0xbdec4000 x10:0x00000061 x17=0xbdec4061
       37495000	      3748	80001208	00265eb3	srl	x29,x12,x2	 x12:0xffc2bc99  x2:0x00000e1c x29=0x0000000f
       37505000	      3749	8000120c	0011fab3	and	x21,x3,x1	  x3:0x57cfd000  x1:0x7fff636c x21=0x57cf4000
       37515000	      3750	80001210	03d2d863	bge	x5,x29,80001240	  x5:0x00000000 x29:0x0000000f
       37525000	      3751	80001214	01d2e3b3	or	x7,x5,x29	  x5:0x00000000 x29:0x0000000f  x7=0x0000000f
       37535000	      3752	80001218	02486e63	bltu	x16,x4,80001254	 x16:0x80009fc4  x4:0x00000000
       37545000	      3753	8000121c	842d2993	slti	x19,x26,-1982	 x26:0x00000000 x19=0x00000000
       37555000	      3754	80001220	cd938393	addi	x7,x7,-807	  x7:0x0000000f  x7=0xfffffce8
       37565000	      3755	80001224	0164ce33	xor	x28,x9,x22	  x9:0x00000001 x22:0x00000000 x28=0x00000001
       37575000	      3756	80001228	2b774013	xori	x0,x14,695	 x14:0xcf7d71e0
       37585000	      3757	8000122c	4179d0b3	sra	x1,x19,x23	 x19:0x00000000 x23:0x00000000  x1=0x00000000
       37595000	      3758	80001230	24386493	ori	x9,x16,579	 x16:0x80009fc4  x9=0x80009fc7
       37605000	      3759	80001234	40470d33	sub	x26,x14,x4	 x14:0xcf7d71e0  x4:0x00000000 x26=0xcf7d71e0
       37615000	      3760	80001238	009c0333	add	x6,x24,x9	 x24:0x0d330c77  x9:0x80009fc7  x6=0x8d33ac3e
       37625000	      3761	8000123c	01ba4263	blt	x20,x27,80001240	 x20:0xbdec4000 x27:0x00000e1c
       37635000	      3762	00000000	00000013	addi	x0,x0,0	  x0:0x00000000
       37645000	      3763	8000123c	00000013	addi	x0,x0,0	  x0:0x00000000
       37655000	      3764	80001240	9b8ce913	ori	x18,x25,-1608	 x25:0x00000000 x18=0xfffff9b8
       37665000	      3765	80001244	b4d58893	addi	x17,x11,-1203	 x11:0x00000000 x17=0xfffffb4d
       37675000	      3766	80001248	d9044a13	xori	x20,x8,-624	  x8:0x80009f64 x20=0x7fff62f4
       37685000	      3767	8000124c	40f75d33	sra	x26,x14,x15	 x14:0xcf7d71e0 x15:0x8d33abc9 x26=0xffe7beb8
       37695000	      3768	80001250	0036ff33	and	x30,x13,x3	 x13:0x000001fd  x3:0x57cfd000 x30=0x00000000
       37705000	      3769	80001254	00310db3	add	x27,x2,x3	  x2:0x00000e1c  x3:0x57cfd000 x27=0x57cfde1c
       37715000	      3770	80001258	004362b3	or	x5,x6,x4	  x6:0x8d33ac3e  x4:0x00000000  x5=0x8d33ac3e
       37725000	      3771	8000125c	01a45493	srli	x9,x8,0x1a	  x8:0x80009f64  x9=0x00000020
       37735000	      3772	80001260	02a9de63	bge	x19,x10,8000129c	 x19:0x00000000 x10:0x00000061
       37745000	      3773	80001264	595a4593	xori	x11,x20,1429	 x20:0x7fff62f4 x11=0x7fff6761
       37755000	      3774	80001268	02cf9a63	bne	x31,x12,8000129c	 x31:0x00000000 x12:0xffc2bc99
       37765000	      3775	00000000	00000013	addi	x0,x0,0	  x0:0x00000000
       37775000	      3776	80001298	00000013	addi	x0,x0,0	  x0:0x00000000
       37785000	      3777	8000129c	02147863	bgeu	x8,x1,800012cc	  x8:0x80009f64  x1:0x00000000
       37795000	      3778	00000000	00000013	addi	x0,x0,0	  x0:0x00000000
       37805000	      3779	800012c8	00000013	addi	x0,x0,0	  x0:0x00000000
       37815000	      3780	800012cc	01e08463	beq	x1,x30,800012d4	  x1:0x00000000 x30:0x00000000
       37825000	      3781	00000000	00000013	addi	x0,x0,0	  x0:0x00000000
       37835000	      3782	800012d0	00000013	addi	x0,x0,0	  x0:0x00000000
       37845000	      3783	800012d4	005b8d33	add	x26,x23,x5	 x23:0x00000000  x5:0x8d33ac3e x26=0x8d33ac3e
       37855000	      3784	800012d8	01014b33	xor	x22,x2,x16	  x2:0x00000e1c x16:0x80009fc4 x22=0x800091d8
       37865000	      3785	800012dc	40215b13	srai	x22,x2,0x2	  x2:0x00000e1c x22=0x00000387
       37875000	      3786	800012e0	0187efb3	or	x31,x15,x24	 x15:0x8d33abc9 x24:0x0d330c77 x31=0x8d33afff
       37885000	      3787	800012e4	01a77663	bgeu	x14,x26,800012f0	 x14:0xcf7d71e0 x26:0x8d33ac3e
       37895000	      3788	00000000	00000013	addi	x0,x0,0	  x0:0x00000000
       37905000	      3789	800012ec	00000013	addi	x0,x0,0	  x0:0x00000000
       37915000	      3790	800012f0	32464e93	xori	x29,x12,804	 x12:0xffc2bc99 x29=0xffc2bfbd
       37925000	      3791	800012f4	ace88f13	addi	x30,x17,-1330	 x17:0xfffffb4d x30=0xfffff61b
       37935000	      3792	800012f8	00546ab3	or	x21,x8,x5	  x8:0x80009f64  x5:0x8d33ac3e x21=0x8d33bf7e
       37945000	      3793	800012fc	019783b3	add	x7,x15,x25	 x15:0x8d33abc9 x25:0x00000000  x7=0x8d33abc9
       37955000	      3794	80001300	00ebb1b3	sltu	x3,x23,x14	 x23:0x00000000 x14:0xcf7d71e0  x3=0x00000001
       37965000	      3795	80001304	00442303	lw	x6,4(x8)	  x8:0x80009f64  x6=0x800017cc PA:0x80009f68
       37975000	      3796	80001308	00840413	addi	x8,x8,8	  x8:0x80009f64  x8=0x80009f6c
       37985000	      3797	8000130c	0011ac33	slt	x24,x3,x1	  x3:0x00000001  x1:0x00000000 x24=0x00000000
       37995000	      3798	80001310	00130793	addi	x15,x6,1	  x6:0x800017cc x15=0x800017cd
       38005000	      3799	80001314	000787e7	jalr	x15,x15,0	 x15:0x800017cd x15=0x80001314
       38015000	      3800	00000000	00000013	addi	x0,x0,0	  x0:0x00000000
       38025000	      3801	800017cc	00000013	addi	x0,x0,0	  x0:0x00000000
       38035000	      3802	800017d0	036cf663	bgeu	x25,x22,800017fc	 x25:0x00000000 x22:0x00000387
       38045000	      3803	800017d4	01ecf0b3	and	x1,x25,x30	 x25:0x00000000 x30:0xfffff61b  x1=0x00000000
       38055000	      3804	800017d8	00b3f463	bgeu	x7,x11,800017e0	  x7:0x8d33abc9 x11:0x7fff6761
       38065000	      3805	00000000	00000013	addi	x0,x0,0	  x0:0x00000000
       38075000	      3806	800017dc	00000013	addi	x0,x0,0	  x0:0x00000000
       38085000	      3807	800017e0	411581b3	sub	x3,x11,x17	 x11:0x7fff6761 x17:0xfffffb4d  x3=0x7fff6c14
       38095000	      3808	800017e4	413686b3	sub	x13,x13,x19	 x13:0x000001fd x19:0x00000000 x13=0x000001fd
       38105000	      3809	800017e8	00f239b3	sltu	x19,x4,x15	  x4:0x00000000 x15:0x80001314 x19=0x00000001
       38115000	      3810	800017ec	c5693f93	sltiu	x31,x18,-938	 x18:0xfffff9b8 x31=0x00000001
       38125000	      3811	800017f0	03870e63	beq	x14,x24,8000182c	 x14:0xcf7d71e0 x24:0x00000000
       38135000	      3812	800017f4	01b6f133	and	x2,x13,x27	 x13:0x000001fd x27:0x57cfde1c  x2=0x0000001c
       38145000	      3813	800017f8	9c6362b7	lui	x5,0x9c636	  x5=0x9c636000
       38155000	      3814	800017fc	004eb4b3	sltu	x9,x29,x4	 x29:0xffc2bfbd  x4:0x00000000  x9=0x00000000
       38165000	      3815	80001800	00cd67b3	or	x15,x26,x12	 x26:0x8d33ac3e x12:0xffc2bc99 x15=0xfff3bcbf
       38175000	      3816	80001804	41a95c13	srai	x24,x18,0x1a	 x18:0xfffff9b8 x24=0xffffffff
       38185000	      3817	80001808	01c60e33	add	x28,x12,x28	 x12:0xffc2bc99 x28:0x00000001 x28=0xffc2bc9a
       38195000	      3818	8000180c	ab514193	xori	x3,x2,-1355	  x2:0x0000001c  x3=0xfffffaa9
       38205000	      3819	80001810	033e5c63	bge	x28,x19,80001848	 x28:0xffc2bc9a x19:0x00000001
       38215000	      3820	80001814	01021233	sll	x4,x4,x16	  x4:0x00000000 x16:0x80009fc4  x4=0x00000000
       38225000	      3821	80001818	84170093	addi	x1,x14,-1983	 x14:0xcf7d71e0  x1=0xcf7d6a21
       38235000	      3822	8000181c	03acde63	bge	x25,x26,80001858	 x25:0x00000000 x26:0x8d33ac3e
       38245000	      3823	00000000	00000013	addi	x0,x0,0	  x0:0x00000000
       38255000	      3824	80001854	00000013	addi	x0,x0,0	  x0:0x00000000
       38265000	      3825	80001858	00d36533	or	x10,x6,x13	  x6:0x800017cc x13:0x000001fd x10=0x800017fd
       38275000	      3826	8000185c	00077db3	and	x27,x14,x0	 x14:0xcf7d71e0  x0:0x00000000 x27=0x00000000
       38285000	      3827	80001860	4079dab3	sra	x21,x19,x7	 x19:0x00000001  x7:0x8d33abc9 x21=0x00000000
       38295000	      3828	80001864	70030313	addi	x6,x6,1792	  x6:0x800017cc  x6=0x80001ecc
       38305000	      3829	80001868	01054933	xor	x18,x10,x16	 x10:0x800017fd x16:0x80009fc4 x18=0x00008839
       38315000	      3830	8000186c	6683b013	sltiu	x0,x7,1640	  x7:0x8d33abc9
       38325000	      3831	80001870	00569893	slli	x17,x13,0x5	 x13:0x000001fd x17=0x00003fa0
       38335000	      3832	80001874	79512a93	slti	x21,x2,1941	  x2:0x0000001c x21=0x00000001
       38345000	      3833	80001878	00f878b3	and	x17,x16,x15	 x16:0x80009fc4 x15:0xfff3bcbf x17=0x80009c84
       38355000	      3834	8000187c	405ad393	srai	x7,x21,0x5	 x21:0x00000001  x7=0x00000000
       38365000	      3835	80001880	036fe663	bltu	x31,x22,800018ac	 x31:0x00000001 x22:0x00000387
       38375000	      3836	00000000	00000013	addi	x0,x0,0	  x0:0x00000000
       38385000	      3837	800018a8	00000013	addi	x0,x0,0	  x0:0x00000000
       38395000	      3838	800018ac	419f84b3	sub	x9,x31,x25	 x31:0x00000001 x25:0x00000000  x9=0x00000001
       38405000	      3839	800018b0	00a437b3	sltu	x15,x8,x10	  x8:0x80009f6c x10:0x800017fd x15=0x00000000
       38415000	      3840	800018b4	40fd5093	srai	x1,x26,0xf	 x26:0x8d33ac3e  x1=0xffff1a67
       38425000	      3841	800018b8	a802eb93	ori	x23,x5,-1408	  x5:0x9c636000 x23=0xfffffa80
       38435000	      3842	800018bc	003f1db3	sll	x27,x30,x3	 x30:0xfffff61b  x3:0xfffffaa9 x27=0xffec3600
       38445000	      3843	800018c0	41afd593	srai	x11,x31,0x1a	 x31:0x00000001 x11=0x00000000
       38455000	      3844	800018c4	410e0fb3	sub	x31,x28,x16	 x28:0xffc2bc9a x16:0x80009fc4 x31=0x7fc21cd6
       38465000	      3845	800018c8	a22ff313	andi	x6,x31,-1502	 x31:0x7fc21cd6  x6=0x7fc21802
       38475000	      3846	800018cc	05455463	bge	x10,x20,80001914	 x10:0x800017fd x20:0x7fff62f4
       38485000	      3847	800018d0	00d94333	xor	x6,x18,x13	 x18:0x00008839 x13:0x000001fd  x6=0x000089c4
       38495000	      3848	800018d4	6a68ae93	slti	x29,x17,1702	 x17:0x80009c84 x29=0x00000001
       38505000	      3849	800018d8	1d4bbc13	sltiu	x24,x23,468	 x23:0xfffffa80 x24=0x00000000
       38515000	      3850	800018dc	04874663	blt	x14,x8,80001928	 x14:0xcf7d71e0  x8:0x80009f6c
       38525000	      3851	800018e0	1cd86f13	ori	x30,x16,461	 x16:0x80009fc4 x30=0x80009fcd
       38535000	      3852	800018e4	05d78663	beq	x15,x29,80001930	 x15:0x00000000 x29:0x00000001
       38545000	      3853	800018e8	41a0db93	srai	x23,x1,0x1a	  x1:0xffff1a67 x23=0xffffffff
       38555000	      3854	800018ec	00d163b3	or	x7,x2,x13	  x2:0x0000001c x13:0x000001fd  x7=0x000001fd
       38565000	      3855	800018f0	00c51f33	sll	x30,x10,x12	 x10:0x800017fd x12:0xffc2bc99 x30=0xfa000000
       38575000	      3856	800018f4	401a5693	srai	x13,x20,0x1	 x20:0x7fff62f4 x13=0x3fffb17a
       38585000	      3857	800018f8	00aad663	bge	x21,x10,80001904	 x21:0x00000001 x10:0x800017fd
       38595000	      3858	00000000	00000013	addi	x0,x0,0	  x0:0x00000000
       38605000	      3859	80001900	00000013	addi	x0,x0,0	  x0:0x00000000
       38615000	      3860	80001904	0a76e663	bltu	x13,x7,800019b0	 x13:0x3fffb17a  x7:0x000001fd
       38625000	      3861	80001908	536949b7	lui	x19,0x53694	 x19=0x53694000
       38635000	      3862	8000190c	40cd0cb3	sub	x25,x26,x12	 x26:0x8d33ac3e x12:0xffc2bc99 x25=0x8d70efa5
       38645000	      3863	80001910	01f91313	slli	x6,x18,0x1f	 x18:0x00008839  x6=0x80000000
       38655000	      3864	80001914	01c01993	slli	x19,x0,0x1c	  x0:0x00000000 x19=0x00000000
       38665000	      3865	80001918	016ae863	bltu	x21,x22,80001928	 x21:0x00000001 x22:0x00000387
       38675000	      3866	00000000	00000013	addi	x0,x0,0	  x0:0x00000000
       38685000	      3867	80001924	00000013	addi	x0,x0,0	  x0:0x00000000
       38695000	      3868	80001928	000104b3	add	x9,x2,x0	  x2:0x0000001c  x0:0x00000000  x9=0x0000001c
       38705000	      3869	8000192c	009805b3	add	x11,x16,x9	 x16:0x80009fc4  x9:0x0000001c x11=0x80009fe0
       38715000	      3870	80001930	4e296013	ori	x0,x18,1250	 x18:0x00008839
       38725000	      3871	80001934	0a6a4a63	blt	x20,x6,800019e8	 x20:0x7fff62f4  x6:0x80000000
       38735000	      3872	80001938	1fcfe713	ori	x14,x31,508	 x31:0x7fc21cd6 x14=0x7fc21dfe
       38745000	      3873	8000193c	018dd733	srl	x14,x27,x24	 x27:0xffec3600 x24:0x00000000 x14=0xffec3600
       38755000	      3874	80001940	01d06133	or	x2,x0,x29	  x0:0x00000000 x29:0x00000001  x2=0x00000001
       38765000	      3875	80001944	00007117	auipc	x2,0x7	  x2=0x80008940
       38775000	      3876	80001948	04a10113	addi	x2,x2,74	  x2:0x80008940  x2=0x8000898a
       38785000	      3877	8000194c	1da102a3	sb	x26,453(x2)	  x2:0x8000898a x26:0x8d33ac3e PA:0x80008b4f
       38795000	      3878	80001950	65810da3	sb	x24,1627(x2)	  x2:0x8000898a x24:0x00000000 PA:0x80008fe5
       38805000	      3879	80001954	64a10da3	sb	x10,1627(x2)	  x2:0x8000898a x10:0x800017fd PA:0x80008fe5
       38815000	      3880	80001958	65b10083	lb	x1,1627(x2)	  x2:0x8000898a  x1=0xfffffffd PA:0x80008fe5
       38825000	      3881	8000195c	64610da3	sb	x6,1627(x2)	  x2:0x8000898a  x6:0x80000000 PA:0x80008fe5
       38835000	      3882	80001960	4aa12b83	lw	x23,1194(x2)	  x2:0x8000898a x23=0x1c1d1e1f PA:0x80008e34
       38845000	      3883	80001964	f1c10da3	sb	x28,-229(x2)	  x2:0x8000898a x28:0xffc2bc9a PA:0x800088a5
       38855000	      3884	80001968	2ac15b83	lhu	x23,684(x2)	  x2:0x8000898a x23=0x00001c1d PA:0x80008c36
       38865000	      3885	8000196c	8bbc8c93	addi	x25,x25,-1861	 x25:0x8d70efa5 x25=0x8d70e860
       38875000	      3886	80001970	edc10ca3	sb	x28,-295(x2)	  x2:0x8000898a x28:0xffc2bc9a PA:0x80008863
       38885000	      3887	80001974	ed914a03	lbu	x20,-295(x2)	  x2:0x8000898a x20=0x0000009a PA:0x80008863
       38895000	      3888	00000000	00000013	addi	x0,x0,0	  x0:0x00000000
       38905000	      3889	80001978	0d4104a3	sb	x20,201(x2)	  x2:0x8000898a x20:0x0000009a PA:0x80008a53
       38915000	      3890	8000197c	ea614f03	lbu	x30,-346(x2)	  x2:0x8000898a x30=0x0000001b PA:0x80008830
       38925000	      3891	80001980	e31cbf13	sltiu	x30,x25,-463	 x25:0x8d70e860 x30=0x00000001
       38935000	      3892	80001984	23b10fa3	sb	x27,575(x2)	  x2:0x8000898a x27:0xffec3600 PA:0x80008bc9
       38945000	      3893	80001988	22d10fa3	sb	x13,575(x2)	  x2:0x8000898a x13:0x3fffb17a PA:0x80008bc9
       38955000	      3894	8000198c	0e514d83	lbu	x27,229(x2)	  x2:0x8000898a x27=0x00000054 PA:0x80008a6f
       38965000	      3895	80001990	44e14503	lbu	x10,1102(x2)	  x2:0x8000898a x10=0x00000054 PA:0x80008dd8
       38975000	      3896	80001994	44e12a83	lw	x21,1102(x2)	  x2:0x8000898a x21=0xc0c10054 PA:0x80008dd8
       38985000	      3897	80001998	49a19597	auipc	x11,0x49a19	 x11=0xc9a1a994
       38995000	      3898	8000199c	45b11723	sh	x27,1102(x2)	  x2:0x8000898a x27:0x00000054 PA:0x80008dd8
       39005000	      3899	800019a0	9ba07b13	andi	x22,x0,-1606	  x0:0x00000000 x22=0x00000000
       39015000	      3900	800019a4	14a10f03	lb	x30,330(x2)	  x2:0x8000898a x30=0xffffffbf PA:0x80008ad4
       39025000	      3901	800019a8	0100d513	srli	x10,x1,0x10	  x1:0xfffffffd x10=0x0000ffff
       39035000	      3902	800019ac	0029e933	or	x18,x19,x2	 x19:0x00000000  x2:0x8000898a x18=0x8000898a
       39045000	      3903	800019b0	0079e663	bltu	x19,x7,800019bc	 x19:0x00000000  x7:0x000001fd
       39055000	      3904	00000000	00000013	addi	x0,x0,0	  x0:0x00000000
       39065000	      3905	800019b8	00000013	addi	x0,x0,0	  x0:0x00000000
       39075000	      3906	800019bc	2191b513	sltiu	x10,x3,537	  x3:0xfffffaa9 x10=0x00000000
       39085000	      3907	800019c0	c5f56a37	lui	x20,0xc5f56	 x20=0xc5f56000
       39095000	      3908	800019c4	40980333	sub	x6,x16,x9	 x16:0x80009fc4  x9:0x0000001c  x6=0x80009fa8
       39105000	      3909	800019c8	00798133	add	x2,x19,x7	 x19:0x00000000  x7:0x000001fd  x2=0x000001fd
       39115000	      3910	800019cc	5b09ef13	ori	x30,x19,1456	 x19:0x00000000 x30=0x000005b0
       39125000	      3911	800019d0	006c0263	beq	x24,x6,800019d4	 x24:0x00000000  x6:0x80009fa8
       39135000	      3912	800019d4	00381b93	slli	x23,x16,0x3	 x16:0x80009fc4 x23=0x0004fe20
       39145000	      3913	800019d8	00a21c13	slli	x24,x4,0xa	  x4:0x00000000 x24=0x00000000
       39155000	      3914	800019dc	493ec293	xori	x5,x29,1171	 x29:0x00000001  x5=0x00000492
       39165000	      3915	800019e0	40445e93	srai	x29,x8,0x4	  x8:0x80009f6c x29=0xf80009f6
       39175000	      3916	800019e4	0dd68f37	lui	x30,0xdd68	 x30=0x0dd68000
       39185000	      3917	800019e8	2d0f0513	addi	x10,x30,720	 x30:0x0dd68000 x10=0x0dd682d0
       39195000	      3918	800019ec	affd78b7	lui	x17,0xaffd7	 x17=0xaffd7000
       39205000	      3919	800019f0	01389c93	slli	x25,x17,0x13	 x17:0xaffd7000 x25=0x80000000
       39215000	      3920	800019f4	04fa7663	bgeu	x20,x15,80001a40	 x20:0xc5f56000 x15:0x00000000
       39225000	      3921	00000000	00000013	addi	x0,x0,0	  x0:0x00000000
       39235000	      3922	80001a3c	00000013	addi	x0,x0,0	  x0:0x00000000
       39245000	      3923	80001a40	0040e263	bltu	x1,x4,80001a44	  x1:0xfffffffd  x4:0x00000000
       39255000	      3924	80001a44	00000013	addi	x0,x0,0	  x0:0x00000000
       39265000	      3925	80001a48	05637463	bgeu	x6,x22,80001a90	  x6:0x80009fa8 x22:0x00000000
       39275000	      3926	00000000	00000013	addi	x0,x0,0	  x0:0x00000000
       39285000	      3927	80001a8c	00000013	addi	x0,x0,0	  x0:0x00000000
       39295000	      3928	80001a90	01512bb3	slt	x23,x2,x21	  x2:0x000001fd x21:0xc0c10054 x23=0x00000000
       39305000	      3929	80001a94	006d9fb3	sll	x31,x27,x6	 x27:0x00000054  x6:0x80009fa8 x31=0x00005400
       39315000	      3930	80001a98	01d887b3	add	x15,x17,x29	 x17:0xaffd7000 x29:0xf80009f6 x15=0xa7fd79f6
       39325000	      3931	80001a9c	01ca0263	beq	x20,x28,80001aa0	 x20:0xc5f56000 x28:0xffc2bc9a
       39335000	      3932	80001aa0	01e813b3	sll	x7,x16,x30	 x16:0x80009fc4 x30:0x0dd68000  x7=0x80009fc4
       39345000	      3933	80001aa4	30d1d117	auipc	x2,0x30d1d	  x2=0xb0d1eaa0
       39355000	      3934	80001aa8	41c5d0b3	sra	x1,x11,x28	 x11:0xc9a1a994 x28:0xffc2bc9a  x1=0xfffffff2
       39365000	      3935	80001aac	00000013	addi	x0,x0,0	  x0:0x00000000
       39375000	      3936	80001ab0	0199a333	slt	x6,x19,x25	 x19:0x00000000 x25:0x80000000  x6=0x00000000
       39385000	      3937	80001ab4	000a3b33	sltu	x22,x20,x0	 x20:0xc5f56000  x0:0x00000000 x22=0x00000000
       39395000	      3938	80001ab8	01278933	add	x18,x15,x18	 x15:0xa7fd79f6 x18:0x8000898a x18=0x27fe0380
       39405000	      3939	80001abc	405edb33	sra	x22,x29,x5	 x29:0xf80009f6  x5:0x00000492 x22=0xfffffe00
       39415000	      3940	80001ac0	01005663	bge	x0,x16,80001acc	  x0:0x00000000 x16:0x80009fc4
       39425000	      3941	00000000	00000013	addi	x0,x0,0	  x0:0x00000000
       39435000	      3942	80001ac8	00000013	addi	x0,x0,0	  x0:0x00000000
       39445000	      3943	80001acc	00ae47b3	xor	x15,x28,x10	 x28:0xffc2bc9a x10:0x0dd682d0 x15=0xf2143e4a
       39455000	      3944	80001ad0	008042b3	xor	x5,x0,x8	  x0:0x00000000  x8:0x80009f6c  x5=0x80009f6c
       39465000	      3945	80001ad4	40c7d3b3	sra	x7,x15,x12	 x15:0xf2143e4a x12:0xffc2bc99  x7=0xfffffff9
       39475000	      3946	80001ad8	8fc76913	ori	x18,x14,-1796	 x14:0xffec3600 x18=0xfffffefc
       39485000	      3947	80001adc	0155fe33	and	x28,x11,x21	 x11:0xc9a1a994 x21:0xc0c10054 x28=0xc0810014
       39495000	      3948	80001ae0	87c7c513	xori	x10,x15,-1924	 x15:0xf2143e4a x10=0x0debc636
       39505000	      3949	80001ae4	01b2d293	srli	x5,x5,0x1b	  x5:0x80009f6c  x5=0x00000010
       39515000	      3950	80001ae8	5853a693	slti	x13,x7,1413	  x7:0xfffffff9 x13=0x00000001
       39525000	      3951	80001aec	03eb7c63	bgeu	x22,x30,80001b24	 x22:0xfffffe00 x30:0x0dd68000
       39535000	      3952	00000000	00000013	addi	x0,x0,0	  x0:0x00000000
       39545000	      3953	80001b20	00000013	addi	x0,x0,0	  x0:0x00000000
       39555000	      3954	80001b24	0683a517	auipc	x10,0x683a	 x10=0x8683bb20
       39565000	      3955	80001b28	0128a6b7	lui	x13,0x128a	 x13=0x0128a000
       39575000	      3956	80001b2c	006aa333	slt	x6,x21,x6	 x21:0xc0c10054  x6:0x00000000  x6=0x00000001
       39585000	      3957	80001b30	0207f063	bgeu	x15,x0,80001b50	 x15:0xf2143e4a  x0:0x00000000
       39595000	      3958	00000000	00000013	addi	x0,x0,0	  x0:0x00000000
       39605000	      3959	80001b4c	00000013	addi	x0,x0,0	  x0:0x00000000
       39615000	      3960	80001b50	03689663	bne	x17,x22,80001b7c	 x17:0xaffd7000 x22:0xfffffe00
       39625000	      3961	00000000	00000013	addi	x0,x0,0	  x0:0x00000000
       39635000	      3962	80001b78	00000013	addi	x0,x0,0	  x0:0x00000000
       39645000	      3963	80001b7c	00849ab3	sll	x21,x9,x8	  x9:0x0000001c  x8:0x80009f6c x21=0x0001c000
       39655000	      3964	80001b80	00197263	bgeu	x18,x1,80001b84	 x18:0xfffffefc  x1:0xfffffff2
       39665000	      3965	80001b84	65868d93	addi	x27,x13,1624	 x13:0x0128a000 x27=0x0128a658
       39675000	      3966	80001b88	9a398993	addi	x19,x19,-1629	 x19:0x00000000 x19=0xfffff9a3
       39685000	      3967	80001b8c	00b00e33	add	x28,x0,x11	  x0:0x00000000 x11:0xc9a1a994 x28=0xc9a1a994
       39695000	      3968	80001b90	01c18463	beq	x3,x28,80001b98	  x3:0xfffffaa9 x28:0xc9a1a994
       39705000	      3969	80001b94	6213e193	ori	x3,x7,1569	  x7:0xfffffff9  x3=0xfffffff9
       39715000	      3970	80001b98	d3534717	auipc	x14,0xd3534	 x14=0x53535b94
       39725000	      3971	80001b9c	01a44863	blt	x8,x26,80001bac	  x8:0x80009f6c x26:0x8d33ac3e
       39735000	      3972	00000000	00000013	addi	x0,x0,0	  x0:0x00000000
       39745000	      3973	80001ba8	00000013	addi	x0,x0,0	  x0:0x00000000
       39755000	      3974	80001bac	00725513	srli	x10,x4,0x7	  x4:0x00000000 x10=0x00000000
       39765000	      3975	80001bb0	000117b3	sll	x15,x2,x0	  x2:0xb0d1eaa0  x0:0x00000000 x15=0xb0d1eaa0
       39775000	      3976	80001bb4	054dc463	blt	x27,x20,80001bfc	 x27:0x0128a658 x20:0xc5f56000
       39785000	      3977	80001bb8	012982b3	add	x5,x19,x18	 x19:0xfffff9a3 x18:0xfffffefc  x5=0xfffff89f
       39795000	      3978	80001bbc	00d22033	slt	x0,x4,x13	  x4:0x00000000 x13:0x0128a000
       39805000	      3979	80001bc0	66fc9317	auipc	x6,0x66fc9	  x6=0xe6fcabbc
       39815000	      3980	80001bc4	522ff713	andi	x14,x31,1314	 x31:0x00005400 x14=0x00000400
       39825000	      3981	80001bc8	026c4e63	blt	x24,x6,80001c04	 x24:0x00000000  x6:0xe6fcabbc
       39835000	      3982	80001bcc	0060de63	bge	x1,x6,80001be8	  x1:0xfffffff2  x6:0xe6fcabbc
       39845000	      3983	00000000	00000013	addi	x0,x0,0	  x0:0x00000000
       39855000	      3984	80001be4	00000013	addi	x0,x0,0	  x0:0x00000000
       39865000	      3985	80001be8	019e5133	srl	x2,x28,x25	 x28:0xc9a1a994 x25:0x80000000  x2=0xc9a1a994
       39875000	      3986	80001bec	6d9f6e93	ori	x29,x30,1753	 x30:0x0dd68000 x29=0x0dd686d9
       39885000	      3987	80001bf0	e14fca93	xori	x21,x31,-492	 x31:0x00005400 x21=0xffffaa14
       39895000	      3988	80001bf4	8f784893	xori	x17,x16,-1801	 x16:0x80009fc4 x17=0x7fff6733
       39905000	      3989	80001bf8	075c6c93	ori	x25,x24,117	 x24:0x00000000 x25=0x00000075
       39915000	      3990	80001bfc	e359c017	auipc	x0,0xe359c	
       39925000	      3991	80001c00	000ff1b3	and	x3,x31,x0	 x31:0x00005400  x0:0x00000000  x3=0x00000000
       39935000	      3992	80001c04	40da84b3	sub	x9,x21,x13	 x21:0xffffaa14 x13:0x0128a000  x9=0xfed70a14
       39945000	      3993	80001c08	00625b33	srl	x22,x4,x6	  x4:0x00000000  x6:0xe6fcabbc x22=0x00000000
       39955000	      3994	80001c0c	414a52b3	sra	x5,x20,x20	 x20:0xc5f56000 x20:0xc5f56000  x5=0xc5f56000
       39965000	      3995	80001c10	d8478293	addi	x5,x15,-636	 x15:0xb0d1eaa0  x5=0xb0d1e824
       39975000	      3996	80001c14	4199d233	sra	x4,x19,x25	 x19:0xfffff9a3 x25:0x00000075  x4=0xffffffff
       39985000	      3997	80001c18	bd4d3493	sltiu	x9,x26,-1068	 x26:0x8d33ac3e  x9=0x00000001
       39995000	      3998	80001c1c	6a3a0593	addi	x11,x20,1699	 x20:0xc5f56000 x11=0xc5f566a3
       40005000	      3999	80001c20	00000013	addi	x0,x0,0	  x0:0x00000000
       40015000	      4000	80001c24	00e59993	slli	x19,x11,0xe	 x11:0xc5f566a3 x19=0x59a8c000
       40025000	      4001	80001c28	411ed5b3	sra	x11,x29,x17	 x29:0x0dd686d9 x17:0x7fff6733 x11=0x000001ba
       40035000	      4002	80001c2c	0115ce33	xor	x28,x11,x17	 x11:0x000001ba x17:0x7fff6733 x28=0x7fff6689
       40045000	      4003	80001c30	003802b3	add	x5,x16,x3	 x16:0x80009fc4  x3:0x00000000  x5=0x80009fc4
       40055000	      4004	80001c34	c62cb393	sltiu	x7,x25,-926	 x25:0x00000075  x7=0x00000001
       40065000	      4005	80001c38	04975463	bge	x14,x9,80001c80	 x14:0x00000400  x9:0x00000001
       40075000	      4006	00000000	00000013	addi	x0,x0,0	  x0:0x00000000
       40085000	      4007	80001c7c	00000013	addi	x0,x0,0	  x0:0x00000000
       40095000	      4008	80001c80	61708537	lui	x10,0x61708	 x10=0x61708000
       40105000	      4009	80001c84	0061dbb3	srl	x23,x3,x6	  x3:0x00000000  x6:0xe6fcabbc x23=0x00000000
       40115000	      4010	80001c88	4027d6b3	sra	x13,x15,x2	 x15:0xb0d1eaa0  x2:0xc9a1a994 x13=0xfffffb0d
       40125000	      4011	80001c8c	418451b3	sra	x3,x8,x24	  x8:0x80009f6c x24:0x00000000  x3=0x80009f6c
       40135000	      4012	80001c90	d6b43d13	sltiu	x26,x8,-661	  x8:0x80009f6c x26=0x00000001
       40145000	      4013	80001c94	051d0463	beq	x26,x17,80001cdc	 x26:0x00000001 x17:0x7fff6733
       40155000	      4014	80001c98	00c05f93	srli	x31,x0,0xc	  x0:0x00000000 x31=0x00000000
       40165000	      4015	80001c9c	0057aab3	slt	x21,x15,x5	 x15:0xb0d1eaa0  x5:0x80009fc4 x21=0x00000000
       40175000	      4016	80001ca0	d7c4e313	ori	x6,x9,-644	  x9:0x00000001  x6=0xfffffd7d
       40185000	      4017	80001ca4	05ece663	bltu	x25,x30,80001cf0	 x25:0x00000075 x30:0x0dd68000
       40195000	      4018	00000000	00000013	addi	x0,x0,0	  x0:0x00000000
       40205000	      4019	80001cec	00000013	addi	x0,x0,0	  x0:0x00000000
       40215000	      4020	80001cf0	012a0663	beq	x20,x18,80001cfc	 x20:0xc5f56000 x18:0xfffffefc
       40225000	      4021	80001cf4	00ad7263	bgeu	x26,x10,80001cf8	 x26:0x00000001 x10:0x61708000
       40235000	      4022	80001cf8	326ca097	auipc	x1,0x326ca	  x1=0xb26cbcf4
       40245000	      4023	80001cfc	8dcdf993	andi	x19,x27,-1828	 x27:0x0128a658 x19=0x0128a058
       40255000	      4024	80001d00	41e55bb3	sra	x23,x10,x30	 x10:0x61708000 x30:0x0dd68000 x23=0x61708000
       40265000	      4025	80001d04	025e4c63	blt	x28,x5,80001d3c	 x28:0x7fff6689  x5:0x80009fc4
       40275000	      4026	80001d08	0084d393	srli	x7,x9,0x8	  x9:0x00000001  x7=0x00000000
       40285000	      4027	80001d0c	24c77e17	auipc	x28,0x24c77	 x28=0xa4c78d08
       40295000	      4028	80001d10	58e70893	addi	x17,x14,1422	 x14:0x00000400 x17=0x0000098e
       40305000	      4029	80001d14	05fd1663	bne	x26,x31,80001d60	 x26:0x00000001 x31:0x00000000
       40315000	      4030	00000000	00000013	addi	x0,x0,0	  x0:0x00000000
       40325000	      4031	80001d5c	00000013	addi	x0,x0,0	  x0:0x00000000
       40335000	      4032	80001d60	03038663	beq	x7,x16,80001d8c	  x7:0x00000000 x16:0x80009fc4
       40345000	      4033	80001d64	001d94b3	sll	x9,x27,x1	 x27:0x0128a658  x1:0xb26cbcf4  x9=0x65800000
       40355000	      4034	80001d68	e7270e93	addi	x29,x14,-398	 x14:0x00000400 x29=0x00000272
       40365000	      4035	80001d6c	096c2693	slti	x13,x24,150	 x24:0x00000000 x13=0x00000001
       40375000	      4036	80001d70	0fbc6213	ori	x4,x24,251	 x24:0x00000000  x4=0x000000fb
       40385000	      4037	80001d74	03464863	blt	x12,x20,80001da4	 x12:0xffc2bc99 x20:0xc5f56000
       40395000	      4038	80001d78	04739863	bne	x7,x7,80001dc8	  x7:0x00000000  x7:0x00000000
       40405000	      4039	80001d7c	015d2bb3	slt	x23,x26,x21	 x26:0x00000001 x21:0x00000000 x23=0x00000000
       40415000	      4040	80001d80	419f8a33	sub	x20,x31,x25	 x31:0x00000000 x25:0x00000075 x20=0xffffff8b
       40425000	      4041	80001d84	05f2e663	bltu	x5,x31,80001dd0	  x5:0x80009fc4 x31:0x00000000
       40435000	      4042	80001d88	403382b3	sub	x5,x7,x3	  x7:0x00000000  x3:0x80009f6c  x5=0x7fff6094
       40445000	      4043	80001d8c	005137b3	sltu	x15,x2,x5	  x2:0xc9a1a994  x5:0x7fff6094 x15=0x00000000
       40455000	      4044	80001d90	4134d0b3	sra	x1,x9,x19	  x9:0x65800000 x19:0x0128a058  x1=0x00000065
       40465000	      4045	80001d94	01ce82b3	add	x5,x29,x28	 x29:0x00000272 x28:0xa4c78d08  x5=0xa4c78f7a
       40475000	      4046	80001d98	015d9663	bne	x27,x21,80001da4	 x27:0x0128a658 x21:0x00000000
       40485000	      4047	00000000	00000013	addi	x0,x0,0	  x0:0x00000000
       40495000	      4048	80001da0	00000013	addi	x0,x0,0	  x0:0x00000000
       40505000	      4049	80001da4	0224ee63	bltu	x9,x2,80001de0	  x9:0x65800000  x2:0xc9a1a994
       40515000	      4050	00000000	00000013	addi	x0,x0,0	  x0:0x00000000
       40525000	      4051	80001ddc	00000013	addi	x0,x0,0	  x0:0x00000000
       40535000	      4052	80001de0	c9973c93	sltiu	x25,x14,-871	 x14:0x00000400 x25=0x00000001
       40545000	      4053	80001de4	00350033	add	x0,x10,x3	 x10:0x61708000  x3:0x80009f6c
       40555000	      4054	80001de8	654dff17	auipc	x30,0x654df	 x30=0xe54e0de4
       40565000	      4055	80001dec	9c037393	andi	x7,x6,-1600	  x6:0xfffffd7d  x7=0xfffff940
       40575000	      4056	80001df0	0101b933	sltu	x18,x3,x16	  x3:0x80009f6c x16:0x80009fc4 x18=0x00000001
       40585000	      4057	80001df4	00cf4233	xor	x4,x30,x12	 x30:0xe54e0de4 x12:0xffc2bc99  x4=0x1a8cb17d
       40595000	      4058	80001df8	0098ba33	sltu	x20,x17,x9	 x17:0x0000098e  x9:0x65800000 x20=0x00000001
       40605000	      4059	80001dfc	00ccda93	srli	x21,x25,0xc	 x25:0x00000001 x21=0x00000000
       40615000	      4060	80001e00	01e88663	beq	x17,x30,80001e0c	 x17:0x0000098e x30:0xe54e0de4
       40625000	      4061	80001e04	0111d213	srli	x4,x3,0x11	  x3:0x80009f6c  x4=0x00004000
       40635000	      4062	80001e08	013a6333	or	x6,x20,x19	 x20:0x00000001 x19:0x0128a058  x6=0x0128a059
       40645000	      4063	80001e0c	01b59fb3	sll	x31,x11,x27	 x11:0x000001ba x27:0x0128a658 x31=0xba000000
       40655000	      4064	80001e10	00f95693	srli	x13,x18,0xf	 x18:0x00000001 x13=0x00000000
       40665000	      4065	80001e14	cb71a893	slti	x17,x3,-841	  x3:0x80009f6c x17=0x00000001
       40675000	      4066	80001e18	01a51c93	slli	x25,x10,0x1a	 x10:0x61708000 x25=0x00000000
       40685000	      4067	80001e1c	418b5b33	sra	x22,x22,x24	 x22:0x00000000 x24:0x00000000 x22=0x00000000
       40695000	      4068	80001e20	40f55d33	sra	x26,x10,x15	 x10:0x61708000 x15:0x00000000 x26=0x61708000
       40705000	      4069	80001e24	004a2eb3	slt	x29,x20,x4	 x20:0x00000001  x4:0x00004000 x29=0x00000001
       40715000	      4070	80001e28	01dc6233	or	x4,x24,x29	 x24:0x00000000 x29:0x00000001  x4=0x00000001
       40725000	      4071	80001e2c	00442303	lw	x6,4(x8)	  x8:0x80009f6c  x6=0x8000031c PA:0x80009f70
       40735000	      4072	80001e30	01840413	addi	x8,x8,24	  x8:0x80009f6c  x8=0x80009f84
       40745000	      4073	80001e34	01ad9b93	slli	x23,x27,0x1a	 x27:0x0128a658 x23=0x60000000
       40755000	      4074	80001e38	74ff4393	xori	x7,x30,1871	 x30:0xe54e0de4  x7=0xe54e0aab
       40765000	      4075	80001e3c	00030b13	addi	x22,x6,0	  x6:0x8000031c x22=0x8000031c
       40775000	      4076	80001e40	000b0b67	jalr	x22,x22,0	 x22:0x8000031c x22=0x80001e40
       40785000	      4077	00000000	00000013	addi	x0,x0,0	  x0:0x00000000
       40795000	      4078	8000031c	00000013	addi	x0,x0,0	  x0:0x00000000
       40805000	      4079	80000320	01618263	beq	x3,x22,80000324	  x3:0x80009f6c x22:0x80001e40
       40815000	      4080	80000324	0005fa63	bgeu	x11,x0,80000338	 x11:0x000001ba  x0:0x00000000
       40825000	      4081	00000000	00000013	addi	x0,x0,0	  x0:0x00000000
       40835000	      4082	80000334	00000013	addi	x0,x0,0	  x0:0x00000000
       40845000	      4083	80000338	0189f0b3	and	x1,x19,x24	 x19:0x0128a058 x24:0x00000000  x1=0x00000000
       40855000	      4084	8000033c	01aa8cb3	add	x25,x21,x26	 x21:0x00000000 x26:0x61708000 x25=0x61708000
       40865000	      4085	80000340	41125f13	srai	x30,x4,0x11	  x4:0x00000001 x30=0x00000000
       40875000	      4086	80000344	f937fb93	andi	x23,x15,-109	 x15:0x00000000 x23=0x00000000
       40885000	      4087	80000348	0045d013	srli	x0,x11,0x4	 x11:0x000001ba
       40895000	      4088	8000034c	41bc85b3	sub	x11,x25,x27	 x25:0x61708000 x27:0x0128a658 x11=0x6047d9a8
       40905000	      4089	80000350	cf1e3693	sltiu	x13,x28,-783	 x28:0xa4c78d08 x13=0x00000001
       40915000	      4090	80000354	42dfce13	xori	x28,x31,1069	 x31:0xba000000 x28=0xba00042d
       40925000	      4091	80000358	030f1e63	bne	x30,x16,80000394	 x30:0x00000000 x16:0x80009fc4
       40935000	      4092	00000000	00000013	addi	x0,x0,0	  x0:0x00000000
       40945000	      4093	80000390	00000013	addi	x0,x0,0	  x0:0x00000000
       40955000	      4094	80000394	00cca333	slt	x6,x25,x12	 x25:0x61708000 x12:0xffc2bc99  x6=0x00000000
       40965000	      4095	80000398	00c13bb3	sltu	x23,x2,x12	  x2:0xc9a1a994 x12:0xffc2bc99 x23=0x00000001
       40975000	      4096	8000039c	0157feb3	and	x29,x15,x21	 x15:0x00000000 x21:0x00000000 x29=0x00000000
       40985000	      4097	800003a0	000adc63	bge	x21,x0,800003b8	 x21:0x00000000  x0:0x00000000
       40995000	      4098	00000000	00000013	addi	x0,x0,0	  x0:0x00000000
       41005000	      4099	800003b4	00000013	addi	x0,x0,0	  x0:0x00000000
       41015000	      4100	800003b8	01b122b3	slt	x5,x2,x27	  x2:0xc9a1a994 x27:0x0128a658  x5=0x00000001
       41025000	      4101	800003bc	c91fbd93	sltiu	x27,x31,-879	 x31:0xba000000 x27=0x00000001
       41035000	      4102	800003c0	02677e63	bgeu	x14,x6,800003fc	 x14:0x00000400  x6:0x00000000
       41045000	      4103	00000000	00000013	addi	x0,x0,0	  x0:0x00000000
       41055000	      4104	800003f8	00000013	addi	x0,x0,0	  x0:0x00000000
       41065000	      4105	800003fc	00d45d33	srl	x26,x8,x13	  x8:0x80009f84 x13:0x00000001 x26=0x40004fc2
       41075000	      4106	80000400	6981bd93	sltiu	x27,x3,1688	  x3:0x80009f6c x27=0x00000000
       41085000	      4107	80000404	0084da63	bge	x9,x8,80000418	  x9:0x65800000  x8:0x80009f84
       41095000	      4108	00000000	00000013	addi	x0,x0,0	  x0:0x00000000
       41105000	      4109	80000414	00000013	addi	x0,x0,0	  x0:0x00000000
       41115000	      4110	80000418	41b65a13	srai	x20,x12,0x1b	 x12:0xffc2bc99 x20=0xffffffff
       41125000	      4111	8000041c	73b97eb7	lui	x29,0x73b97	 x29=0x73b97000
       41135000	      4112	80000420	01fc0933	add	x18,x24,x31	 x24:0x00000000 x31:0xba000000 x18=0xba000000
       41145000	      4113	80000424	00c02933	slt	x18,x0,x12	  x0:0x00000000 x12:0xffc2bc99 x18=0x00000000
       41155000	      4114	80000428	01289033	sll	x0,x17,x18	 x17:0x00000001 x18:0x00000000
       41165000	      4115	8000042c	04139263	bne	x7,x1,80000470	  x7:0xe54e0aab  x1:0x00000000
       41175000	      4116	00000000	00000013	addi	x0,x0,0	  x0:0x00000000
       41185000	      4117	8000046c	00000013	addi	x0,x0,0	  x0:0x00000000
       41195000	      4118	80000470	40e7d313	srai	x6,x15,0xe	 x15:0x00000000  x6=0x00000000
       41205000	      4119	80000474	e7cd7f13	andi	x30,x26,-388	 x26:0x40004fc2 x30=0x40004e40
       41215000	      4120	80000478	bea198b7	lui	x17,0xbea19	 x17=0xbea19000
       41225000	      4121	8000047c	408f0c33	sub	x24,x30,x8	 x30:0x40004e40  x8:0x80009f84 x24=0xbfffaebc
       41235000	      4122	80000480	de253e93	sltiu	x29,x10,-542	 x10:0x61708000 x29=0x00000001
       41245000	      4123	80000484	96abab93	slti	x23,x23,-1686	 x23:0x00000001 x23=0x00000000
       41255000	      4124	80000488	0195ca33	xor	x20,x11,x25	 x11:0x6047d9a8 x25:0x61708000 x20=0x013759a8
       41265000	      4125	8000048c	002044b3	xor	x9,x0,x2	  x0:0x00000000  x2:0xc9a1a994  x9=0xc9a1a994
       41275000	      4126	80000490	41b9de13	srai	x28,x19,0x1b	 x19:0x0128a058 x28=0x00000000
       41285000	      4127	80000494	01e44863	blt	x8,x30,800004a4	  x8:0x80009f84 x30:0x40004e40
       41295000	      4128	00000000	00000013	addi	x0,x0,0	  x0:0x00000000
       41305000	      4129	800004a0	00000013	addi	x0,x0,0	  x0:0x00000000
       41315000	      4130	800004a4	41b958b3	sra	x17,x18,x27	 x18:0x00000000 x27:0x00000000 x17=0x00000000
       41325000	      4131	800004a8	00000617	auipc	x12,0x0	 x12=0x800004a4
       41335000	      4132	800004ac	00c60613	addi	x12,x12,12	 x12:0x800004a4 x12=0x800004b0
       41345000	      4133	800004b0	00060067	jalr	x0,x12,0	 x12:0x800004b0
       41355000	      4134	00000000	00000013	addi	x0,x0,0	  x0:0x00000000
       41365000	      4135	800004b0	00000013	addi	x0,x0,0	  x0:0x00000000
       41375000	      4136	800004b4	00100193	addi	x3,x0,1	  x0:0x00000000  x3=0x00000001
       41385000	      4137	800004b8	00000073	ecall	
       41395000	      4138	800004bc	ff840413	addi	x8,x8,-8	  x8:0x80009f84  x8=0x80009f7c
