		Time			Cycle	PC		Insn	Decoded instruction	Register and memory contents
          65000	         5	80000004	00000293	addi	x5,x0,0	  x0:0x00000000  x5=0x00000000
          75000	         6	80000008	00000313	addi	x6,x0,0	  x0:0x00000000  x6=0x00000000
          85000	         7	8000000c	00628263	beq	x5,x6,80000010	  x5:0x00000000  x6:0x00000000
          95000	         8	00000000	00000013	addi	x0,x0,0	  x0:0x00000000
         105000	         9	8000000c	00000013	addi	x0,x0,0	  x0:0x00000000
         115000	        10	80000010	00000817	auipc	x16,0x0	 x16=0x8000000c
         125000	        11	80000014	00c80813	addi	x16,x16,12	 x16:0x8000000c x16=0x80000018
         135000	        12	80000018	00080067	jalr	x0,x16,0	 x16:0x80000018
         145000	        13	00000000	00000013	addi	x0,x0,0	  x0:0x00000000
         155000	        14	80000018	00000013	addi	x0,x0,0	  x0:0x00000000
         165000	        15	8000001c	40000f37	lui	x30,0x40000	 x30=0x40000000
         175000	        16	80000020	100f0f13	addi	x30,x30,256	 x30:0x40000000 x30=0x40000100
         185000	        17	80000024	00000013	addi	x0,x0,0	  x0:0x00000000
         195000	        18	80000028	0000a397	auipc	x7,0xa	  x7=0x8000a024
         205000	        19	8000002c	fa038393	addi	x7,x7,-96	  x7:0x8000a024  x7=0x80009fc4
         215000	        20	80000030	00005f17	auipc	x30,0x5	 x30=0x8000502c
         225000	        21	80000034	f94f0f13	addi	x30,x30,-108	 x30:0x8000502c x30=0x80004fc0
         235000	        22	80000038	001f6f13	ori	x30,x30,1	 x30:0x80004fc0 x30=0x80004fc1
         245000	        23	8000003c	00000013	addi	x0,x0,0	  x0:0x00000000
         255000	        24	80000040	00000f17	auipc	x30,0x0	 x30=0x8000003c
         265000	        25	80000044	020f0f13	addi	x30,x30,32	 x30:0x8000003c x30=0x8000005c
         275000	        26	80000048	00000013	addi	x0,x0,0	  x0:0x00000000
         285000	        27	8000004c	00000013	addi	x0,x0,0	  x0:0x00000000
         295000	        28	80000050	00002f37	lui	x30,0x2	 x30=0x00002000
         305000	        29	80000054	800f0f13	addi	x30,x30,-2048	 x30:0x00002000 x30=0x00001800
         315000	        30	80000058	00000013	addi	x0,x0,0	  x0:0x00000000
         325000	        31	8000005c	00000013	addi	x0,x0,0	  x0:0x00000000
         335000	        32	80000060	00000013	addi	x0,x0,0	  x0:0x00000000
         345000	        33	80000064	800000b7	lui	x1,0x80000	  x1=0x80000000
         355000	        34	80000068	f98c1137	lui	x2,0xf98c1	  x2=0xf98c1000
         365000	        35	8000006c	56310113	addi	x2,x2,1379	  x2:0xf98c1000  x2=0xf98c1563
         375000	        36	80000070	fffe41b7	lui	x3,0xfffe4	  x3=0xfffe4000
         385000	        37	80000074	44f18193	addi	x3,x3,1103	  x3:0xfffe4000  x3=0xfffe444f
         395000	        38	80000078	b4a7c237	lui	x4,0xb4a7c	  x4=0xb4a7c000
         405000	        39	8000007c	c9120213	addi	x4,x4,-879	  x4:0xb4a7c000  x4=0xb4a7bc91
         415000	        40	80000080	00800293	addi	x5,x0,8	  x0:0x00000000  x5=0x00000008
         425000	        41	80000084	80000337	lui	x6,0x80000	  x6=0x80000000
         435000	        42	80000088	c42a8437	lui	x8,0xc42a8	  x8=0xc42a8000
         445000	        43	8000008c	a8a40413	addi	x8,x8,-1398	  x8:0xc42a8000  x8=0xc42a7a8a
         455000	        44	80000090	fca694b7	lui	x9,0xfca69	  x9=0xfca69000
         465000	        45	80000094	cf348493	addi	x9,x9,-781	  x9:0xfca69000  x9=0xfca68cf3
         475000	        46	80000098	00000513	addi	x10,x0,0	  x0:0x00000000 x10=0x00000000
         485000	        47	8000009c	f1e99637	lui	x12,0xf1e99	 x12=0xf1e99000
         495000	        48	800000a0	12c60613	addi	x12,x12,300	 x12:0xf1e99000 x12=0xf1e9912c
         505000	        49	800000a4	800006b7	lui	x13,0x80000	 x13=0x80000000
         515000	        50	800000a8	80000737	lui	x14,0x80000	 x14=0x80000000
         525000	        51	800000ac	00000793	addi	x15,x0,0	  x0:0x00000000 x15=0x00000000
         535000	        52	800000b0	0d9b1837	lui	x16,0xd9b1	 x16=0x0d9b1000
         545000	        53	800000b4	d2b80813	addi	x16,x16,-725	 x16:0x0d9b1000 x16=0x0d9b0d2b
         555000	        54	800000b8	800008b7	lui	x17,0x80000	 x17=0x80000000
         565000	        55	800000bc	00000913	addi	x18,x0,0	  x0:0x00000000 x18=0x00000000
         575000	        56	800000c0	800009b7	lui	x19,0x80000	 x19=0x80000000
         585000	        57	800000c4	600a8a37	lui	x20,0x600a8	 x20=0x600a8000
         595000	        58	800000c8	ea1a0a13	addi	x20,x20,-351	 x20:0x600a8000 x20=0x600a7ea1
         605000	        59	800000cc	00000a93	addi	x21,x0,0	  x0:0x00000000 x21=0x00000000
         615000	        60	800000d0	80000b37	lui	x22,0x80000	 x22=0x80000000
         625000	        61	800000d4	f47cfbb7	lui	x23,0xf47cf	 x23=0xf47cf000
         635000	        62	800000d8	e1db8b93	addi	x23,x23,-483	 x23:0xf47cf000 x23=0xf47cee1d
         645000	        63	800000dc	00000c13	addi	x24,x0,0	  x0:0x00000000 x24=0x00000000
         655000	        64	800000e0	f55d5cb7	lui	x25,0xf55d5	 x25=0xf55d5000
         665000	        65	800000e4	ca5c8c93	addi	x25,x25,-859	 x25:0xf55d5000 x25=0xf55d4ca5
         675000	        66	800000e8	00300d13	addi	x26,x0,3	  x0:0x00000000 x26=0x00000003
         685000	        67	800000ec	73b41db7	lui	x27,0x73b41	 x27=0x73b41000
         695000	        68	800000f0	ee8d8d93	addi	x27,x27,-280	 x27:0x73b41000 x27=0x73b40ee8
         705000	        69	800000f4	80000e37	lui	x28,0x80000	 x28=0x80000000
         715000	        70	800000f8	00000e93	addi	x29,x0,0	  x0:0x00000000 x29=0x00000000
         725000	        71	800000fc	00b00f13	addi	x30,x0,11	  x0:0x00000000 x30=0x0000000b
         735000	        72	80000100	00b00f93	addi	x31,x0,11	  x0:0x00000000 x31=0x0000000b
         745000	        73	80000104	0000a597	auipc	x11,0xa	 x11=0x8000a100
         755000	        74	80000108	e8458593	addi	x11,x11,-380	 x11:0x8000a100 x11=0x80009f84
         765000	        75	8000010c	0040036f	jal	x6,8000010c	  x6=0x8000010c
         775000	        76	00000000	00000013	addi	x0,x0,0	  x0:0x00000000
         785000	        77	8000010c	00000013	addi	x0,x0,0	  x0:0x00000000
         795000	        78	80000110	044000ef	jal	x1,80000110	  x1=0x80000110
         805000	        79	00000000	00000013	addi	x0,x0,0	  x0:0x00000000
         815000	        80	80000150	00000013	addi	x0,x0,0	  x0:0x00000000
         825000	        81	80000154	ff5ff0ef	jal	x1,80000154	  x1=0x80000154
         835000	        82	00000000	00000013	addi	x0,x0,0	  x0:0x00000000
         845000	        83	80000144	00000013	addi	x0,x0,0	  x0:0x00000000
         855000	        84	80000148	fddff36f	jal	x6,80000148	  x6=0x80000148
         865000	        85	00000000	00000013	addi	x0,x0,0	  x0:0x00000000
         875000	        86	80000120	00000013	addi	x0,x0,0	  x0:0x00000000
         885000	        87	80000124	ffdff0ef	jal	x1,80000124	  x1=0x80000124
         895000	        88	00000000	00000013	addi	x0,x0,0	  x0:0x00000000
         905000	        89	8000011c	00000013	addi	x0,x0,0	  x0:0x00000000
         915000	        90	80000120	01000cef	jal	x25,80000120	 x25=0x80000120
         925000	        91	00000000	00000013	addi	x0,x0,0	  x0:0x00000000
         935000	        92	8000012c	00000013	addi	x0,x0,0	  x0:0x00000000
         945000	        93	80000130	004000ef	jal	x1,80000130	  x1=0x80000130
         955000	        94	00000000	00000013	addi	x0,x0,0	  x0:0x00000000
         965000	        95	80000130	00000013	addi	x0,x0,0	  x0:0x00000000
         975000	        96	80000134	02c000ef	jal	x1,80000134	  x1=0x80000134
         985000	        97	00000000	00000013	addi	x0,x0,0	  x0:0x00000000
         995000	        98	8000015c	00000013	addi	x0,x0,0	  x0:0x00000000
        1005000	        99	80000160	ff1ff36f	jal	x6,80000160	  x6=0x80000160
        1015000	       100	00000000	00000013	addi	x0,x0,0	  x0:0x00000000
        1025000	       101	8000014c	00000013	addi	x0,x0,0	  x0:0x00000000
        1035000	       102	80000150	008000ef	jal	x1,80000150	  x1=0x80000150
        1045000	       103	00000000	00000013	addi	x0,x0,0	  x0:0x00000000
        1055000	       104	80000154	00000013	addi	x0,x0,0	  x0:0x00000000
        1065000	       105	80000158	fe5ff66f	jal	x12,80000158	 x12=0x80000158
        1075000	       106	00000000	00000013	addi	x0,x0,0	  x0:0x00000000
        1085000	       107	80000138	00000013	addi	x0,x0,0	  x0:0x00000000
        1095000	       108	8000013c	02c0036f	jal	x6,8000013c	  x6=0x8000013c
        1105000	       109	00000000	00000013	addi	x0,x0,0	  x0:0x00000000
        1115000	       110	80000164	00000013	addi	x0,x0,0	  x0:0x00000000
        1125000	       111	80000168	0040036f	jal	x6,80000168	  x6=0x80000168
        1135000	       112	00000000	00000013	addi	x0,x0,0	  x0:0x00000000
        1145000	       113	80000168	00000013	addi	x0,x0,0	  x0:0x00000000
        1155000	       114	8000016c	fc1ff0ef	jal	x1,8000016c	  x1=0x8000016c
        1165000	       115	00000000	00000013	addi	x0,x0,0	  x0:0x00000000
        1175000	       116	80000128	00000013	addi	x0,x0,0	  x0:0x00000000
        1185000	       117	8000012c	0380036f	jal	x6,8000012c	  x6=0x8000012c
        1195000	       118	00000000	00000013	addi	x0,x0,0	  x0:0x00000000
        1205000	       119	80000160	00000013	addi	x0,x0,0	  x0:0x00000000
        1215000	       120	80000164	fb5ff0ef	jal	x1,80000164	  x1=0x80000164
        1225000	       121	00000000	00000013	addi	x0,x0,0	  x0:0x00000000
        1235000	       122	80000114	00000013	addi	x0,x0,0	  x0:0x00000000
        1245000	       123	80000118	0280036f	jal	x6,80000118	  x6=0x80000118
        1255000	       124	00000000	00000013	addi	x0,x0,0	  x0:0x00000000
        1265000	       125	8000013c	00000013	addi	x0,x0,0	  x0:0x00000000
        1275000	       126	80000140	01c000ef	jal	x1,80000140	  x1=0x80000140
        1285000	       127	00000000	00000013	addi	x0,x0,0	  x0:0x00000000
        1295000	       128	80000158	00000013	addi	x0,x0,0	  x0:0x00000000
        1305000	       129	8000015c	fe9ffa6f	jal	x20,8000015c	 x20=0x8000015c
        1315000	       130	00000000	00000013	addi	x0,x0,0	  x0:0x00000000
        1325000	       131	80000140	00000013	addi	x0,x0,0	  x0:0x00000000
        1335000	       132	80000144	fd9ff0ef	jal	x1,80000144	  x1=0x80000144
        1345000	       133	00000000	00000013	addi	x0,x0,0	  x0:0x00000000
        1355000	       134	80000118	00000013	addi	x0,x0,0	  x0:0x00000000
        1365000	       135	8000011c	030000ef	jal	x1,8000011c	  x1=0x8000011c
        1375000	       136	00000000	00000013	addi	x0,x0,0	  x0:0x00000000
        1385000	       137	80000148	00000013	addi	x0,x0,0	  x0:0x00000000
        1395000	       138	8000014c	fc9ffe6f	jal	x28,8000014c	 x28=0x8000014c
        1405000	       139	00000000	00000013	addi	x0,x0,0	  x0:0x00000000
        1415000	       140	80000110	00000013	addi	x0,x0,0	  x0:0x00000000
        1425000	       141	80000114	024009ef	jal	x19,80000114	 x19=0x80000114
        1435000	       142	00000000	00000013	addi	x0,x0,0	  x0:0x00000000
        1445000	       143	80000134	00000013	addi	x0,x0,0	  x0:0x00000000
        1455000	       144	80000138	ff1ff0ef	jal	x1,80000138	  x1=0x80000138
        1465000	       145	00000000	00000013	addi	x0,x0,0	  x0:0x00000000
        1475000	       146	80000124	00000013	addi	x0,x0,0	  x0:0x00000000
        1485000	       147	80000128	04800def	jal	x27,80000128	 x27=0x80000128
        1495000	       148	00000000	00000013	addi	x0,x0,0	  x0:0x00000000
        1505000	       149	8000016c	00000013	addi	x0,x0,0	  x0:0x00000000
        1515000	       150	80000170	01e194b3	sll	x9,x3,x30	  x3:0xfffe444f x30:0x0000000b  x9=0xf2227800
        1525000	       151	80000174	0200036f	jal	x6,80000174	  x6=0x80000174
        1535000	       152	00000000	00000013	addi	x0,x0,0	  x0:0x00000000
        1545000	       153	80000190	00000013	addi	x0,x0,0	  x0:0x00000000
        1555000	       154	80000194	fe5ff0ef	jal	x1,80000194	  x1=0x80000194
        1565000	       155	00000000	00000013	addi	x0,x0,0	  x0:0x00000000
        1575000	       156	80000174	00000013	addi	x0,x0,0	  x0:0x00000000
        1585000	       157	80000178	0140026f	jal	x4,80000178	  x4=0x80000178
        1595000	       158	00000000	00000013	addi	x0,x0,0	  x0:0x00000000
        1605000	       159	80000188	00000013	addi	x0,x0,0	  x0:0x00000000
        1615000	       160	8000018c	010000ef	jal	x1,8000018c	  x1=0x8000018c
        1625000	       161	00000000	00000013	addi	x0,x0,0	  x0:0x00000000
        1635000	       162	80000198	00000013	addi	x0,x0,0	  x0:0x00000000
        1645000	       163	8000019c	fe1ff0ef	jal	x1,8000019c	  x1=0x8000019c
        1655000	       164	00000000	00000013	addi	x0,x0,0	  x0:0x00000000
        1665000	       165	80000178	00000013	addi	x0,x0,0	  x0:0x00000000
        1675000	       166	8000017c	0300036f	jal	x6,8000017c	  x6=0x8000017c
        1685000	       167	00000000	00000013	addi	x0,x0,0	  x0:0x00000000
        1695000	       168	800001a8	00000013	addi	x0,x0,0	  x0:0x00000000
        1705000	       169	800001ac	fedff0ef	jal	x1,800001ac	  x1=0x800001ac
        1715000	       170	00000000	00000013	addi	x0,x0,0	  x0:0x00000000
        1725000	       171	80000194	00000013	addi	x0,x0,0	  x0:0x00000000
        1735000	       172	80000198	0100036f	jal	x6,80000198	  x6=0x80000198
        1745000	       173	00000000	00000013	addi	x0,x0,0	  x0:0x00000000
        1755000	       174	800001a4	00000013	addi	x0,x0,0	  x0:0x00000000
        1765000	       175	800001a8	00c0036f	jal	x6,800001a8	  x6=0x800001a8
        1775000	       176	00000000	00000013	addi	x0,x0,0	  x0:0x00000000
        1785000	       177	800001b0	00000013	addi	x0,x0,0	  x0:0x00000000
        1795000	       178	800001b4	ff1ff36f	jal	x6,800001b4	  x6=0x800001b4
        1805000	       179	00000000	00000013	addi	x0,x0,0	  x0:0x00000000
        1815000	       180	800001a0	00000013	addi	x0,x0,0	  x0:0x00000000
        1825000	       181	800001a4	fddff0ef	jal	x1,800001a4	  x1=0x800001a4
        1835000	       182	00000000	00000013	addi	x0,x0,0	  x0:0x00000000
        1845000	       183	8000017c	00000013	addi	x0,x0,0	  x0:0x00000000
        1855000	       184	80000180	010000ef	jal	x1,80000180	  x1=0x80000180
        1865000	       185	00000000	00000013	addi	x0,x0,0	  x0:0x00000000
        1875000	       186	8000018c	00000013	addi	x0,x0,0	  x0:0x00000000
        1885000	       187	80000190	ff9ff0ef	jal	x1,80000190	  x1=0x80000190
        1895000	       188	00000000	00000013	addi	x0,x0,0	  x0:0x00000000
        1905000	       189	80000184	00000013	addi	x0,x0,0	  x0:0x00000000
        1915000	       190	80000188	ffdff0ef	jal	x1,80000188	  x1=0x80000188
        1925000	       191	00000000	00000013	addi	x0,x0,0	  x0:0x00000000
        1935000	       192	80000180	00000013	addi	x0,x0,0	  x0:0x00000000
        1945000	       193	80000184	01c000ef	jal	x1,80000184	  x1=0x80000184
        1955000	       194	00000000	00000013	addi	x0,x0,0	  x0:0x00000000
        1965000	       195	8000019c	00000013	addi	x0,x0,0	  x0:0x00000000
        1975000	       196	800001a0	01000bef	jal	x23,800001a0	 x23=0x800001a0
        1985000	       197	00000000	00000013	addi	x0,x0,0	  x0:0x00000000
        1995000	       198	800001ac	00000013	addi	x0,x0,0	  x0:0x00000000
        2005000	       199	800001b0	0080036f	jal	x6,800001b0	  x6=0x800001b0
        2015000	       200	00000000	00000013	addi	x0,x0,0	  x0:0x00000000
        2025000	       201	800001b4	00000013	addi	x0,x0,0	  x0:0x00000000
        2035000	       202	800001b8	0083fbb3	and	x23,x7,x8	  x7:0x80009fc4  x8:0xc42a7a8a x23=0x80001a80
        2045000	       203	800001bc	0340036f	jal	x6,800001bc	  x6=0x800001bc
        2055000	       204	00000000	00000013	addi	x0,x0,0	  x0:0x00000000
        2065000	       205	800001ec	00000013	addi	x0,x0,0	  x0:0x00000000
        2075000	       206	800001f0	fd1ff0ef	jal	x1,800001f0	  x1=0x800001f0
        2085000	       207	00000000	00000013	addi	x0,x0,0	  x0:0x00000000
        2095000	       208	800001bc	00000013	addi	x0,x0,0	  x0:0x00000000
        2105000	       209	800001c0	024000ef	jal	x1,800001c0	  x1=0x800001c0
        2115000	       210	00000000	00000013	addi	x0,x0,0	  x0:0x00000000
        2125000	       211	800001e0	00000013	addi	x0,x0,0	  x0:0x00000000
        2135000	       212	800001e4	01c0036f	jal	x6,800001e4	  x6=0x800001e4
        2145000	       213	00000000	00000013	addi	x0,x0,0	  x0:0x00000000
        2155000	       214	800001fc	00000013	addi	x0,x0,0	  x0:0x00000000
        2165000	       215	80000200	fe1ff4ef	jal	x9,80000200	  x9=0x80000200
        2175000	       216	00000000	00000013	addi	x0,x0,0	  x0:0x00000000
        2185000	       217	800001dc	00000013	addi	x0,x0,0	  x0:0x00000000
        2195000	       218	800001e0	01c000ef	jal	x1,800001e0	  x1=0x800001e0
        2205000	       219	00000000	00000013	addi	x0,x0,0	  x0:0x00000000
        2215000	       220	800001f8	00000013	addi	x0,x0,0	  x0:0x00000000
        2225000	       221	800001fc	fd9ff0ef	jal	x1,800001fc	  x1=0x800001fc
        2235000	       222	00000000	00000013	addi	x0,x0,0	  x0:0x00000000
        2245000	       223	800001d0	00000013	addi	x0,x0,0	  x0:0x00000000
        2255000	       224	800001d4	0240036f	jal	x6,800001d4	  x6=0x800001d4
        2265000	       225	00000000	00000013	addi	x0,x0,0	  x0:0x00000000
        2275000	       226	800001f4	00000013	addi	x0,x0,0	  x0:0x00000000
        2285000	       227	800001f8	00c000ef	jal	x1,800001f8	  x1=0x800001f8
        2295000	       228	00000000	00000013	addi	x0,x0,0	  x0:0x00000000
        2305000	       229	80000200	00000013	addi	x0,x0,0	  x0:0x00000000
        2315000	       230	80000204	00400cef	jal	x25,80000204	 x25=0x80000204
        2325000	       231	00000000	00000013	addi	x0,x0,0	  x0:0x00000000
        2335000	       232	80000204	00000013	addi	x0,x0,0	  x0:0x00000000
        2345000	       233	80000208	fd1ff36f	jal	x6,80000208	  x6=0x80000208
        2355000	       234	00000000	00000013	addi	x0,x0,0	  x0:0x00000000
        2365000	       235	800001d4	00000013	addi	x0,x0,0	  x0:0x00000000
        2375000	       236	800001d8	fedff36f	jal	x6,800001d8	  x6=0x800001d8
        2385000	       237	00000000	00000013	addi	x0,x0,0	  x0:0x00000000
        2395000	       238	800001c0	00000013	addi	x0,x0,0	  x0:0x00000000
        2405000	       239	800001c4	018000ef	jal	x1,800001c4	  x1=0x800001c4
        2415000	       240	00000000	00000013	addi	x0,x0,0	  x0:0x00000000
        2425000	       241	800001d8	00000013	addi	x0,x0,0	  x0:0x00000000
        2435000	       242	800001dc	010000ef	jal	x1,800001dc	  x1=0x800001dc
        2445000	       243	00000000	00000013	addi	x0,x0,0	  x0:0x00000000
        2455000	       244	800001e8	00000013	addi	x0,x0,0	  x0:0x00000000
        2465000	       245	800001ec	fe5ff7ef	jal	x15,800001ec	 x15=0x800001ec
        2475000	       246	00000000	00000013	addi	x0,x0,0	  x0:0x00000000
        2485000	       247	800001cc	00000013	addi	x0,x0,0	  x0:0x00000000
        2495000	       248	800001d0	ff9ff7ef	jal	x15,800001d0	 x15=0x800001d0
        2505000	       249	00000000	00000013	addi	x0,x0,0	  x0:0x00000000
        2515000	       250	800001c4	00000013	addi	x0,x0,0	  x0:0x00000000
        2525000	       251	800001c8	004000ef	jal	x1,800001c8	  x1=0x800001c8
        2535000	       252	00000000	00000013	addi	x0,x0,0	  x0:0x00000000
        2545000	       253	800001c8	00000013	addi	x0,x0,0	  x0:0x00000000
        2555000	       254	800001cc	044000ef	jal	x1,800001cc	  x1=0x800001cc
        2565000	       255	00000000	00000013	addi	x0,x0,0	  x0:0x00000000
        2575000	       256	8000020c	00000013	addi	x0,x0,0	  x0:0x00000000
        2585000	       257	80000210	ffdff0ef	jal	x1,80000210	  x1=0x80000210
        2595000	       258	00000000	00000013	addi	x0,x0,0	  x0:0x00000000
        2605000	       259	80000208	00000013	addi	x0,x0,0	  x0:0x00000000
        2615000	       260	8000020c	fe9ff36f	jal	x6,8000020c	  x6=0x8000020c
        2625000	       261	00000000	00000013	addi	x0,x0,0	  x0:0x00000000
        2635000	       262	800001f0	00000013	addi	x0,x0,0	  x0:0x00000000
        2645000	       263	800001f4	ff5ff66f	jal	x12,800001f4	 x12=0x800001f4
        2655000	       264	00000000	00000013	addi	x0,x0,0	  x0:0x00000000
        2665000	       265	800001e4	00000013	addi	x0,x0,0	  x0:0x00000000
        2675000	       266	800001e8	02c000ef	jal	x1,800001e8	  x1=0x800001e8
        2685000	       267	00000000	00000013	addi	x0,x0,0	  x0:0x00000000
        2695000	       268	80000210	00000013	addi	x0,x0,0	  x0:0x00000000
        2705000	       269	80000214	018a1a13	slli	x20,x20,0x18	 x20:0x8000015c x20=0x5c000000
        2715000	       270	80000218	00c0036f	jal	x6,80000218	  x6=0x80000218
        2725000	       271	00000000	00000013	addi	x0,x0,0	  x0:0x00000000
        2735000	       272	80000220	00000013	addi	x0,x0,0	  x0:0x00000000
        2745000	       273	80000224	0040036f	jal	x6,80000224	  x6=0x80000224
        2755000	       274	00000000	00000013	addi	x0,x0,0	  x0:0x00000000
        2765000	       275	80000224	00000013	addi	x0,x0,0	  x0:0x00000000
        2775000	       276	80000228	ff5ff0ef	jal	x1,80000228	  x1=0x80000228
        2785000	       277	00000000	00000013	addi	x0,x0,0	  x0:0x00000000
        2795000	       278	80000218	00000013	addi	x0,x0,0	  x0:0x00000000
        2805000	       279	8000021c	0100036f	jal	x6,8000021c	  x6=0x8000021c
        2815000	       280	00000000	00000013	addi	x0,x0,0	  x0:0x00000000
        2825000	       281	80000228	00000013	addi	x0,x0,0	  x0:0x00000000
        2835000	       282	8000022c	034000ef	jal	x1,8000022c	  x1=0x8000022c
        2845000	       283	00000000	00000013	addi	x0,x0,0	  x0:0x00000000
        2855000	       284	8000025c	00000013	addi	x0,x0,0	  x0:0x00000000
        2865000	       285	80000260	fe9ffe6f	jal	x28,80000260	 x28=0x80000260
        2875000	       286	00000000	00000013	addi	x0,x0,0	  x0:0x00000000
        2885000	       287	80000244	00000013	addi	x0,x0,0	  x0:0x00000000
        2895000	       288	80000248	0380036f	jal	x6,80000248	  x6=0x80000248
        2905000	       289	00000000	00000013	addi	x0,x0,0	  x0:0x00000000
        2915000	       290	8000027c	00000013	addi	x0,x0,0	  x0:0x00000000
        2925000	       291	80000280	fe9ff0ef	jal	x1,80000280	  x1=0x80000280
        2935000	       292	00000000	00000013	addi	x0,x0,0	  x0:0x00000000
        2945000	       293	80000264	00000013	addi	x0,x0,0	  x0:0x00000000
        2955000	       294	80000268	01c0036f	jal	x6,80000268	  x6=0x80000268
        2965000	       295	00000000	00000013	addi	x0,x0,0	  x0:0x00000000
        2975000	       296	80000280	00000013	addi	x0,x0,0	  x0:0x00000000
        2985000	       297	80000284	fb9ff0ef	jal	x1,80000284	  x1=0x80000284
        2995000	       298	00000000	00000013	addi	x0,x0,0	  x0:0x00000000
        3005000	       299	80000238	00000013	addi	x0,x0,0	  x0:0x00000000
        3015000	       300	8000023c	020000ef	jal	x1,8000023c	  x1=0x8000023c
        3025000	       301	00000000	00000013	addi	x0,x0,0	  x0:0x00000000
        3035000	       302	80000258	00000013	addi	x0,x0,0	  x0:0x00000000
        3045000	       303	8000025c	fe5ff16f	jal	x2,8000025c	  x2=0x8000025c
        3055000	       304	00000000	00000013	addi	x0,x0,0	  x0:0x00000000
        3065000	       305	8000023c	00000013	addi	x0,x0,0	  x0:0x00000000
        3075000	       306	80000240	0040036f	jal	x6,80000240	  x6=0x80000240
        3085000	       307	00000000	00000013	addi	x0,x0,0	  x0:0x00000000
        3095000	       308	80000240	00000013	addi	x0,x0,0	  x0:0x00000000
        3105000	       309	80000244	0140036f	jal	x6,80000244	  x6=0x80000244
        3115000	       310	00000000	00000013	addi	x0,x0,0	  x0:0x00000000
        3125000	       311	80000254	00000013	addi	x0,x0,0	  x0:0x00000000
        3135000	       312	80000258	0200036f	jal	x6,80000258	  x6=0x80000258
        3145000	       313	00000000	00000013	addi	x0,x0,0	  x0:0x00000000
        3155000	       314	80000274	00000013	addi	x0,x0,0	  x0:0x00000000
        3165000	       315	80000278	fb9ff0ef	jal	x1,80000278	  x1=0x80000278
        3175000	       316	00000000	00000013	addi	x0,x0,0	  x0:0x00000000
        3185000	       317	8000022c	00000013	addi	x0,x0,0	  x0:0x00000000
        3195000	       318	80000230	004000ef	jal	x1,80000230	  x1=0x80000230
        3205000	       319	00000000	00000013	addi	x0,x0,0	  x0:0x00000000
        3215000	       320	80000230	00000013	addi	x0,x0,0	  x0:0x00000000
        3225000	       321	80000234	0180036f	jal	x6,80000234	  x6=0x80000234
        3235000	       322	00000000	00000013	addi	x0,x0,0	  x0:0x00000000
        3245000	       323	80000248	00000013	addi	x0,x0,0	  x0:0x00000000
        3255000	       324	8000024c	024000ef	jal	x1,8000024c	  x1=0x8000024c
        3265000	       325	00000000	00000013	addi	x0,x0,0	  x0:0x00000000
        3275000	       326	8000026c	00000013	addi	x0,x0,0	  x0:0x00000000
        3285000	       327	80000270	fb1ff0ef	jal	x1,80000270	  x1=0x80000270
        3295000	       328	00000000	00000013	addi	x0,x0,0	  x0:0x00000000
        3305000	       329	8000021c	00000013	addi	x0,x0,0	  x0:0x00000000
        3315000	       330	80000220	05c00def	jal	x27,80000220	 x27=0x80000220
        3325000	       331	00000000	00000013	addi	x0,x0,0	  x0:0x00000000
        3335000	       332	80000278	00000013	addi	x0,x0,0	  x0:0x00000000
        3345000	       333	8000027c	fd5ff1ef	jal	x3,8000027c	  x3=0x8000027c
        3355000	       334	00000000	00000013	addi	x0,x0,0	  x0:0x00000000
        3365000	       335	8000024c	00000013	addi	x0,x0,0	  x0:0x00000000
        3375000	       336	80000250	024000ef	jal	x1,80000250	  x1=0x80000250
        3385000	       337	00000000	00000013	addi	x0,x0,0	  x0:0x00000000
        3395000	       338	80000270	00000013	addi	x0,x0,0	  x0:0x00000000
        3405000	       339	80000274	ff1ff36f	jal	x6,80000274	  x6=0x80000274
        3415000	       340	00000000	00000013	addi	x0,x0,0	  x0:0x00000000
        3425000	       341	80000260	00000013	addi	x0,x0,0	  x0:0x00000000
        3435000	       342	80000264	ff1ff2ef	jal	x5,80000264	  x5=0x80000264
        3445000	       343	00000000	00000013	addi	x0,x0,0	  x0:0x00000000
        3455000	       344	80000250	00000013	addi	x0,x0,0	  x0:0x00000000
        3465000	       345	80000254	fe5ff0ef	jal	x1,80000254	  x1=0x80000254
        3475000	       346	00000000	00000013	addi	x0,x0,0	  x0:0x00000000
        3485000	       347	80000234	00000013	addi	x0,x0,0	  x0:0x00000000
        3495000	       348	80000238	034000ef	jal	x1,80000238	  x1=0x80000238
        3505000	       349	00000000	00000013	addi	x0,x0,0	  x0:0x00000000
        3515000	       350	80000268	00000013	addi	x0,x0,0	  x0:0x00000000
        3525000	       351	8000026c	01c000ef	jal	x1,8000026c	  x1=0x8000026c
        3535000	       352	00000000	00000013	addi	x0,x0,0	  x0:0x00000000
        3545000	       353	80000284	00000013	addi	x0,x0,0	  x0:0x00000000
        3555000	       354	80000288	0034eab3	or	x21,x9,x3	  x9:0x80000200  x3:0x8000027c x21=0x8000027c
        3565000	       355	8000028c	0100036f	jal	x6,8000028c	  x6=0x8000028c
        3575000	       356	00000000	00000013	addi	x0,x0,0	  x0:0x00000000
        3585000	       357	80000298	00000013	addi	x0,x0,0	  x0:0x00000000
        3595000	       358	8000029c	0080036f	jal	x6,8000029c	  x6=0x8000029c
        3605000	       359	00000000	00000013	addi	x0,x0,0	  x0:0x00000000
        3615000	       360	800002a0	00000013	addi	x0,x0,0	  x0:0x00000000
        3625000	       361	800002a4	ff1ff0ef	jal	x1,800002a4	  x1=0x800002a4
        3635000	       362	00000000	00000013	addi	x0,x0,0	  x0:0x00000000
        3645000	       363	80000290	00000013	addi	x0,x0,0	  x0:0x00000000
        3655000	       364	80000294	02c000ef	jal	x1,80000294	  x1=0x80000294
        3665000	       365	00000000	00000013	addi	x0,x0,0	  x0:0x00000000
        3675000	       366	800002bc	00000013	addi	x0,x0,0	  x0:0x00000000
        3685000	       367	800002c0	fedff0ef	jal	x1,800002c0	  x1=0x800002c0
        3695000	       368	00000000	00000013	addi	x0,x0,0	  x0:0x00000000
        3705000	       369	800002a8	00000013	addi	x0,x0,0	  x0:0x00000000
        3715000	       370	800002ac	0180066f	jal	x12,800002ac	 x12=0x800002ac
        3725000	       371	00000000	00000013	addi	x0,x0,0	  x0:0x00000000
        3735000	       372	800002c0	00000013	addi	x0,x0,0	  x0:0x00000000
        3745000	       373	800002c4	ff5ff0ef	jal	x1,800002c4	  x1=0x800002c4
        3755000	       374	00000000	00000013	addi	x0,x0,0	  x0:0x00000000
        3765000	       375	800002b4	00000013	addi	x0,x0,0	  x0:0x00000000
        3775000	       376	800002b8	00400c6f	jal	x24,800002b8	 x24=0x800002b8
        3785000	       377	00000000	00000013	addi	x0,x0,0	  x0:0x00000000
        3795000	       378	800002b8	00000013	addi	x0,x0,0	  x0:0x00000000
        3805000	       379	800002bc	fddff16f	jal	x2,800002bc	  x2=0x800002bc
        3815000	       380	00000000	00000013	addi	x0,x0,0	  x0:0x00000000
        3825000	       381	80000294	00000013	addi	x0,x0,0	  x0:0x00000000
        3835000	       382	80000298	018007ef	jal	x15,80000298	 x15=0x80000298
        3845000	       383	00000000	00000013	addi	x0,x0,0	  x0:0x00000000
        3855000	       384	800002ac	00000013	addi	x0,x0,0	  x0:0x00000000
        3865000	       385	800002b0	ff9ff0ef	jal	x1,800002b0	  x1=0x800002b0
        3875000	       386	00000000	00000013	addi	x0,x0,0	  x0:0x00000000
        3885000	       387	800002a4	00000013	addi	x0,x0,0	  x0:0x00000000
        3895000	       388	800002a8	fe9ff0ef	jal	x1,800002a8	  x1=0x800002a8
        3905000	       389	00000000	00000013	addi	x0,x0,0	  x0:0x00000000
        3915000	       390	8000028c	00000013	addi	x0,x0,0	  x0:0x00000000
        3925000	       391	80000290	010000ef	jal	x1,80000290	  x1=0x80000290
        3935000	       392	00000000	00000013	addi	x0,x0,0	  x0:0x00000000
        3945000	       393	8000029c	00000013	addi	x0,x0,0	  x0:0x00000000
        3955000	       394	800002a0	01400eef	jal	x29,800002a0	 x29=0x800002a0
        3965000	       395	00000000	00000013	addi	x0,x0,0	  x0:0x00000000
        3975000	       396	800002b0	00000013	addi	x0,x0,0	  x0:0x00000000
        3985000	       397	800002b4	014000ef	jal	x1,800002b4	  x1=0x800002b4
        3995000	       398	00000000	00000013	addi	x0,x0,0	  x0:0x00000000
        4005000	       399	800002c4	00000013	addi	x0,x0,0	  x0:0x00000000
        4015000	       400	800002c8	a4222493	slti	x9,x4,-1470	  x4:0x80000178  x9=0x00000001
        4025000	       401	800002cc	0180036f	jal	x6,800002cc	  x6=0x800002cc
        4035000	       402	00000000	00000013	addi	x0,x0,0	  x0:0x00000000
        4045000	       403	800002e0	00000013	addi	x0,x0,0	  x0:0x00000000
        4055000	       404	800002e4	ff9ff2ef	jal	x5,800002e4	  x5=0x800002e4
        4065000	       405	00000000	00000013	addi	x0,x0,0	  x0:0x00000000
        4075000	       406	800002d8	00000013	addi	x0,x0,0	  x0:0x00000000
        4085000	       407	800002dc	ffdff0ef	jal	x1,800002dc	  x1=0x800002dc
        4095000	       408	00000000	00000013	addi	x0,x0,0	  x0:0x00000000
        4105000	       409	800002d4	00000013	addi	x0,x0,0	  x0:0x00000000
        4115000	       410	800002d8	03c0036f	jal	x6,800002d8	  x6=0x800002d8
        4125000	       411	00000000	00000013	addi	x0,x0,0	  x0:0x00000000
        4135000	       412	80000310	00000013	addi	x0,x0,0	  x0:0x00000000
        4145000	       413	80000314	fddffe6f	jal	x28,80000314	 x28=0x80000314
        4155000	       414	00000000	00000013	addi	x0,x0,0	  x0:0x00000000
        4165000	       415	800002ec	00000013	addi	x0,x0,0	  x0:0x00000000
        4175000	       416	800002f0	fe1ffcef	jal	x25,800002f0	 x25=0x800002f0
        4185000	       417	00000000	00000013	addi	x0,x0,0	  x0:0x00000000
        4195000	       418	800002cc	00000013	addi	x0,x0,0	  x0:0x00000000
        4205000	       419	800002d0	0240036f	jal	x6,800002d0	  x6=0x800002d0
        4215000	       420	00000000	00000013	addi	x0,x0,0	  x0:0x00000000
        4225000	       421	800002f0	00000013	addi	x0,x0,0	  x0:0x00000000
        4235000	       422	800002f4	010000ef	jal	x1,800002f4	  x1=0x800002f4
        4245000	       423	00000000	00000013	addi	x0,x0,0	  x0:0x00000000
        4255000	       424	80000300	00000013	addi	x0,x0,0	  x0:0x00000000
        4265000	       425	80000304	008000ef	jal	x1,80000304	  x1=0x80000304
        4275000	       426	00000000	00000013	addi	x0,x0,0	  x0:0x00000000
        4285000	       427	80000308	00000013	addi	x0,x0,0	  x0:0x00000000
        4295000	       428	8000030c	01c000ef	jal	x1,8000030c	  x1=0x8000030c
        4305000	       429	00000000	00000013	addi	x0,x0,0	  x0:0x00000000
        4315000	       430	80000324	00000013	addi	x0,x0,0	  x0:0x00000000
        4325000	       431	80000328	ff1ff0ef	jal	x1,80000328	  x1=0x80000328
        4335000	       432	00000000	00000013	addi	x0,x0,0	  x0:0x00000000
        4345000	       433	80000314	00000013	addi	x0,x0,0	  x0:0x00000000
        4355000	       434	80000318	fe5ff0ef	jal	x1,80000318	  x1=0x80000318
        4365000	       435	00000000	00000013	addi	x0,x0,0	  x0:0x00000000
        4375000	       436	800002f8	00000013	addi	x0,x0,0	  x0:0x00000000
        4385000	       437	800002fc	0240036f	jal	x6,800002fc	  x6=0x800002fc
        4395000	       438	00000000	00000013	addi	x0,x0,0	  x0:0x00000000
        4405000	       439	8000031c	00000013	addi	x0,x0,0	  x0:0x00000000
        4415000	       440	80000320	fb5ff36f	jal	x6,80000320	  x6=0x80000320
        4425000	       441	00000000	00000013	addi	x0,x0,0	  x0:0x00000000
        4435000	       442	800002d0	00000013	addi	x0,x0,0	  x0:0x00000000
        4445000	       443	800002d4	050000ef	jal	x1,800002d4	  x1=0x800002d4
        4455000	       444	00000000	00000013	addi	x0,x0,0	  x0:0x00000000
        4465000	       445	80000320	00000013	addi	x0,x0,0	  x0:0x00000000
        4475000	       446	80000324	fedff36f	jal	x6,80000324	  x6=0x80000324
        4485000	       447	00000000	00000013	addi	x0,x0,0	  x0:0x00000000
        4495000	       448	8000030c	00000013	addi	x0,x0,0	  x0:0x00000000
        4505000	       449	80000310	ff1ffd6f	jal	x26,80000310	 x26=0x80000310
        4515000	       450	00000000	00000013	addi	x0,x0,0	  x0:0x00000000
        4525000	       451	800002fc	00000013	addi	x0,x0,0	  x0:0x00000000
        4535000	       452	80000300	008000ef	jal	x1,80000300	  x1=0x80000300
        4545000	       453	00000000	00000013	addi	x0,x0,0	  x0:0x00000000
        4555000	       454	80000304	00000013	addi	x0,x0,0	  x0:0x00000000
        4565000	       455	80000308	0140036f	jal	x6,80000308	  x6=0x80000308
        4575000	       456	00000000	00000013	addi	x0,x0,0	  x0:0x00000000
        4585000	       457	80000318	00000013	addi	x0,x0,0	  x0:0x00000000
        4595000	       458	8000031c	0140036f	jal	x6,8000031c	  x6=0x8000031c
        4605000	       459	00000000	00000013	addi	x0,x0,0	  x0:0x00000000
        4615000	       460	8000032c	00000013	addi	x0,x0,0	  x0:0x00000000
        4625000	       461	80000330	fbdff0ef	jal	x1,80000330	  x1=0x80000330
        4635000	       462	00000000	00000013	addi	x0,x0,0	  x0:0x00000000
        4645000	       463	800002e8	00000013	addi	x0,x0,0	  x0:0x00000000
        4655000	       464	800002ec	ffdff8ef	jal	x17,800002ec	 x17=0x800002ec
        4665000	       465	00000000	00000013	addi	x0,x0,0	  x0:0x00000000
        4675000	       466	800002e4	00000013	addi	x0,x0,0	  x0:0x00000000
        4685000	       467	800002e8	044000ef	jal	x1,800002e8	  x1=0x800002e8
        4695000	       468	00000000	00000013	addi	x0,x0,0	  x0:0x00000000
        4705000	       469	80000328	00000013	addi	x0,x0,0	  x0:0x00000000
        4715000	       470	8000032c	fcdfffef	jal	x31,8000032c	 x31=0x8000032c
        4725000	       471	00000000	00000013	addi	x0,x0,0	  x0:0x00000000
        4735000	       472	800002f4	00000013	addi	x0,x0,0	  x0:0x00000000
        4745000	       473	800002f8	fe9ff56f	jal	x10,800002f8	 x10=0x800002f8
        4755000	       474	00000000	00000013	addi	x0,x0,0	  x0:0x00000000
        4765000	       475	800002dc	00000013	addi	x0,x0,0	  x0:0x00000000
        4775000	       476	800002e0	0540036f	jal	x6,800002e0	  x6=0x800002e0
        4785000	       477	00000000	00000013	addi	x0,x0,0	  x0:0x00000000
        4795000	       478	80000330	00000013	addi	x0,x0,0	  x0:0x00000000
        4805000	       479	80000334	00de6bb3	or	x23,x28,x13	 x28:0x80000314 x13:0x80000000 x23=0x80000314
        4815000	       480	80000338	0040036f	jal	x6,80000338	  x6=0x80000338
        4825000	       481	00000000	00000013	addi	x0,x0,0	  x0:0x00000000
        4835000	       482	80000338	00000013	addi	x0,x0,0	  x0:0x00000000
        4845000	       483	8000033c	008000ef	jal	x1,8000033c	  x1=0x8000033c
        4855000	       484	00000000	00000013	addi	x0,x0,0	  x0:0x00000000
        4865000	       485	80000340	00000013	addi	x0,x0,0	  x0:0x00000000
        4875000	       486	80000344	0080036f	jal	x6,80000344	  x6=0x80000344
        4885000	       487	00000000	00000013	addi	x0,x0,0	  x0:0x00000000
        4895000	       488	80000348	00000013	addi	x0,x0,0	  x0:0x00000000
        4905000	       489	8000034c	014000ef	jal	x1,8000034c	  x1=0x8000034c
        4915000	       490	00000000	00000013	addi	x0,x0,0	  x0:0x00000000
        4925000	       491	8000035c	00000013	addi	x0,x0,0	  x0:0x00000000
        4935000	       492	80000360	ffdff0ef	jal	x1,80000360	  x1=0x80000360
        4945000	       493	00000000	00000013	addi	x0,x0,0	  x0:0x00000000
        4955000	       494	80000358	00000013	addi	x0,x0,0	  x0:0x00000000
        4965000	       495	8000035c	ff9ff0ef	jal	x1,8000035c	  x1=0x8000035c
        4975000	       496	00000000	00000013	addi	x0,x0,0	  x0:0x00000000
        4985000	       497	80000350	00000013	addi	x0,x0,0	  x0:0x00000000
        4995000	       498	80000354	fedff36f	jal	x6,80000354	  x6=0x80000354
        5005000	       499	00000000	00000013	addi	x0,x0,0	  x0:0x00000000
        5015000	       500	8000033c	00000013	addi	x0,x0,0	  x0:0x00000000
        5025000	       501	80000340	010000ef	jal	x1,80000340	  x1=0x80000340
        5035000	       502	00000000	00000013	addi	x0,x0,0	  x0:0x00000000
        5045000	       503	8000034c	00000013	addi	x0,x0,0	  x0:0x00000000
        5055000	       504	80000350	0080036f	jal	x6,80000350	  x6=0x80000350
        5065000	       505	00000000	00000013	addi	x0,x0,0	  x0:0x00000000
        5075000	       506	80000354	00000013	addi	x0,x0,0	  x0:0x00000000
        5085000	       507	80000358	ff1ff36f	jal	x6,80000358	  x6=0x80000358
        5095000	       508	00000000	00000013	addi	x0,x0,0	  x0:0x00000000
        5105000	       509	80000344	00000013	addi	x0,x0,0	  x0:0x00000000
        5115000	       510	80000348	01c0016f	jal	x2,80000348	  x2=0x80000348
        5125000	       511	00000000	00000013	addi	x0,x0,0	  x0:0x00000000
        5135000	       512	80000360	00000013	addi	x0,x0,0	  x0:0x00000000
        5145000	       513	80000364	017b8433	add	x8,x23,x23	 x23:0x80000314 x23:0x80000314  x8=0x00000628
        5155000	       514	80000368	0380036f	jal	x6,80000368	  x6=0x80000368
        5165000	       515	00000000	00000013	addi	x0,x0,0	  x0:0x00000000
        5175000	       516	8000039c	00000013	addi	x0,x0,0	  x0:0x00000000
        5185000	       517	800003a0	fe1ff0ef	jal	x1,800003a0	  x1=0x800003a0
        5195000	       518	00000000	00000013	addi	x0,x0,0	  x0:0x00000000
        5205000	       519	8000037c	00000013	addi	x0,x0,0	  x0:0x00000000
        5215000	       520	80000380	ff9ff1ef	jal	x3,80000380	  x3=0x80000380
        5225000	       521	00000000	00000013	addi	x0,x0,0	  x0:0x00000000
        5235000	       522	80000374	00000013	addi	x0,x0,0	  x0:0x00000000
        5245000	       523	80000378	030000ef	jal	x1,80000378	  x1=0x80000378
        5255000	       524	00000000	00000013	addi	x0,x0,0	  x0:0x00000000
        5265000	       525	800003a4	00000013	addi	x0,x0,0	  x0:0x00000000
        5275000	       526	800003a8	01c0016f	jal	x2,800003a8	  x2=0x800003a8
        5285000	       527	00000000	00000013	addi	x0,x0,0	  x0:0x00000000
        5295000	       528	800003c0	00000013	addi	x0,x0,0	  x0:0x00000000
        5305000	       529	800003c4	fd5ff0ef	jal	x1,800003c4	  x1=0x800003c4
        5315000	       530	00000000	00000013	addi	x0,x0,0	  x0:0x00000000
        5325000	       531	80000394	00000013	addi	x0,x0,0	  x0:0x00000000
        5335000	       532	80000398	fe5ffaef	jal	x21,80000398	 x21=0x80000398
        5345000	       533	00000000	00000013	addi	x0,x0,0	  x0:0x00000000
        5355000	       534	80000378	00000013	addi	x0,x0,0	  x0:0x00000000
        5365000	       535	8000037c	ff5ff0ef	jal	x1,8000037c	  x1=0x8000037c
        5375000	       536	00000000	00000013	addi	x0,x0,0	  x0:0x00000000
        5385000	       537	8000036c	00000013	addi	x0,x0,0	  x0:0x00000000
        5395000	       538	80000370	050000ef	jal	x1,80000370	  x1=0x80000370
        5405000	       539	00000000	00000013	addi	x0,x0,0	  x0:0x00000000
        5415000	       540	800003bc	00000013	addi	x0,x0,0	  x0:0x00000000
        5425000	       541	800003c0	010000ef	jal	x1,800003c0	  x1=0x800003c0
        5435000	       542	00000000	00000013	addi	x0,x0,0	  x0:0x00000000
        5445000	       543	800003cc	00000013	addi	x0,x0,0	  x0:0x00000000
        5455000	       544	800003d0	fcdff0ef	jal	x1,800003d0	  x1=0x800003d0
        5465000	       545	00000000	00000013	addi	x0,x0,0	  x0:0x00000000
        5475000	       546	80000398	00000013	addi	x0,x0,0	  x0:0x00000000
        5485000	       547	8000039c	008000ef	jal	x1,8000039c	  x1=0x8000039c
        5495000	       548	00000000	00000013	addi	x0,x0,0	  x0:0x00000000
        5505000	       549	800003a0	00000013	addi	x0,x0,0	  x0:0x00000000
        5515000	       550	800003a4	fe9ff96f	jal	x18,800003a4	 x18=0x800003a4
        5525000	       551	00000000	00000013	addi	x0,x0,0	  x0:0x00000000
        5535000	       552	80000388	00000013	addi	x0,x0,0	  x0:0x00000000
        5545000	       553	8000038c	fe9ff0ef	jal	x1,8000038c	  x1=0x8000038c
        5555000	       554	00000000	00000013	addi	x0,x0,0	  x0:0x00000000
        5565000	       555	80000370	00000013	addi	x0,x0,0	  x0:0x00000000
        5575000	       556	80000374	01c00eef	jal	x29,80000374	 x29=0x80000374
        5585000	       557	00000000	00000013	addi	x0,x0,0	  x0:0x00000000
        5595000	       558	8000038c	00000013	addi	x0,x0,0	  x0:0x00000000
        5605000	       559	80000390	024000ef	jal	x1,80000390	  x1=0x80000390
        5615000	       560	00000000	00000013	addi	x0,x0,0	  x0:0x00000000
        5625000	       561	800003b0	00000013	addi	x0,x0,0	  x0:0x00000000
        5635000	       562	800003b4	004000ef	jal	x1,800003b4	  x1=0x800003b4
        5645000	       563	00000000	00000013	addi	x0,x0,0	  x0:0x00000000
        5655000	       564	800003b4	00000013	addi	x0,x0,0	  x0:0x00000000
        5665000	       565	800003b8	fb5ff0ef	jal	x1,800003b8	  x1=0x800003b8
        5675000	       566	00000000	00000013	addi	x0,x0,0	  x0:0x00000000
        5685000	       567	80000368	00000013	addi	x0,x0,0	  x0:0x00000000
        5695000	       568	8000036c	06c0036f	jal	x6,8000036c	  x6=0x8000036c
        5705000	       569	00000000	00000013	addi	x0,x0,0	  x0:0x00000000
        5715000	       570	800003d4	00000013	addi	x0,x0,0	  x0:0x00000000
        5725000	       571	800003d8	ff5ff0ef	jal	x1,800003d8	  x1=0x800003d8
        5735000	       572	00000000	00000013	addi	x0,x0,0	  x0:0x00000000
        5745000	       573	800003c8	00000013	addi	x0,x0,0	  x0:0x00000000
        5755000	       574	800003cc	01000f6f	jal	x30,800003cc	 x30=0x800003cc
        5765000	       575	00000000	00000013	addi	x0,x0,0	  x0:0x00000000
        5775000	       576	800003d8	00000013	addi	x0,x0,0	  x0:0x00000000
        5785000	       577	800003dc	fa9ff0ef	jal	x1,800003dc	  x1=0x800003dc
        5795000	       578	00000000	00000013	addi	x0,x0,0	  x0:0x00000000
        5805000	       579	80000380	00000013	addi	x0,x0,0	  x0:0x00000000
        5815000	       580	80000384	02c000ef	jal	x1,80000384	  x1=0x80000384
        5825000	       581	00000000	00000013	addi	x0,x0,0	  x0:0x00000000
        5835000	       582	800003ac	00000013	addi	x0,x0,0	  x0:0x00000000
        5845000	       583	800003b0	fd9ff0ef	jal	x1,800003b0	  x1=0x800003b0
        5855000	       584	00000000	00000013	addi	x0,x0,0	  x0:0x00000000
        5865000	       585	80000384	00000013	addi	x0,x0,0	  x0:0x00000000
        5875000	       586	80000388	024000ef	jal	x1,80000388	  x1=0x80000388
        5885000	       587	00000000	00000013	addi	x0,x0,0	  x0:0x00000000
        5895000	       588	800003a8	00000013	addi	x0,x0,0	  x0:0x00000000
        5905000	       589	800003ac	010000ef	jal	x1,800003ac	  x1=0x800003ac
        5915000	       590	00000000	00000013	addi	x0,x0,0	  x0:0x00000000
        5925000	       591	800003b8	00000013	addi	x0,x0,0	  x0:0x00000000
        5935000	       592	800003bc	00c0026f	jal	x4,800003bc	  x4=0x800003bc
        5945000	       593	00000000	00000013	addi	x0,x0,0	  x0:0x00000000
        5955000	       594	800003c4	00000013	addi	x0,x0,0	  x0:0x00000000
        5965000	       595	800003c8	00c000ef	jal	x1,800003c8	  x1=0x800003c8
        5975000	       596	00000000	00000013	addi	x0,x0,0	  x0:0x00000000
        5985000	       597	800003d0	00000013	addi	x0,x0,0	  x0:0x00000000
        5995000	       598	800003d4	fc1ff36f	jal	x6,800003d4	  x6=0x800003d4
        6005000	       599	00000000	00000013	addi	x0,x0,0	  x0:0x00000000
        6015000	       600	80000390	00000013	addi	x0,x0,0	  x0:0x00000000
        6025000	       601	80000394	04c0056f	jal	x10,80000394	 x10=0x80000394
        6035000	       602	00000000	00000013	addi	x0,x0,0	  x0:0x00000000
        6045000	       603	800003dc	00000013	addi	x0,x0,0	  x0:0x00000000
        6055000	       604	800003e0	c13bb493	sltiu	x9,x23,-1005	 x23:0x80000314  x9=0x00000001
        6065000	       605	800003e4	01c0036f	jal	x6,800003e4	  x6=0x800003e4
        6075000	       606	00000000	00000013	addi	x0,x0,0	  x0:0x00000000
        6085000	       607	800003fc	00000013	addi	x0,x0,0	  x0:0x00000000
        6095000	       608	80000400	02c000ef	jal	x1,80000400	  x1=0x80000400
        6105000	       609	00000000	00000013	addi	x0,x0,0	  x0:0x00000000
        6115000	       610	80000428	00000013	addi	x0,x0,0	  x0:0x00000000
        6125000	       611	8000042c	ff9ff0ef	jal	x1,8000042c	  x1=0x8000042c
        6135000	       612	00000000	00000013	addi	x0,x0,0	  x0:0x00000000
        6145000	       613	80000420	00000013	addi	x0,x0,0	  x0:0x00000000
        6155000	       614	80000424	00c0036f	jal	x6,80000424	  x6=0x80000424
        6165000	       615	00000000	00000013	addi	x0,x0,0	  x0:0x00000000
        6175000	       616	8000042c	00000013	addi	x0,x0,0	  x0:0x00000000
        6185000	       617	80000430	fddff36f	jal	x6,80000430	  x6=0x80000430
        6195000	       618	00000000	00000013	addi	x0,x0,0	  x0:0x00000000
        6205000	       619	80000408	00000013	addi	x0,x0,0	  x0:0x00000000
        6215000	       620	8000040c	ff1ff2ef	jal	x5,8000040c	  x5=0x8000040c
        6225000	       621	00000000	00000013	addi	x0,x0,0	  x0:0x00000000
        6235000	       622	800003f8	00000013	addi	x0,x0,0	  x0:0x00000000
        6245000	       623	800003fc	014000ef	jal	x1,800003fc	  x1=0x800003fc
        6255000	       624	00000000	00000013	addi	x0,x0,0	  x0:0x00000000
        6265000	       625	8000040c	00000013	addi	x0,x0,0	  x0:0x00000000
        6275000	       626	80000410	fd9ff2ef	jal	x5,80000410	  x5=0x80000410
        6285000	       627	00000000	00000013	addi	x0,x0,0	  x0:0x00000000
        6295000	       628	800003e4	00000013	addi	x0,x0,0	  x0:0x00000000
        6305000	       629	800003e8	00c000ef	jal	x1,800003e8	  x1=0x800003e8
        6315000	       630	00000000	00000013	addi	x0,x0,0	  x0:0x00000000
        6325000	       631	800003f0	00000013	addi	x0,x0,0	  x0:0x00000000
        6335000	       632	800003f4	020000ef	jal	x1,800003f4	  x1=0x800003f4
        6345000	       633	00000000	00000013	addi	x0,x0,0	  x0:0x00000000
        6355000	       634	80000410	00000013	addi	x0,x0,0	  x0:0x00000000
        6365000	       635	80000414	fd9ff36f	jal	x6,80000414	  x6=0x80000414
        6375000	       636	00000000	00000013	addi	x0,x0,0	  x0:0x00000000
        6385000	       637	800003e8	00000013	addi	x0,x0,0	  x0:0x00000000
        6395000	       638	800003ec	034000ef	jal	x1,800003ec	  x1=0x800003ec
        6405000	       639	00000000	00000013	addi	x0,x0,0	  x0:0x00000000
        6415000	       640	8000041c	00000013	addi	x0,x0,0	  x0:0x00000000
        6425000	       641	80000420	008001ef	jal	x3,80000420	  x3=0x80000420
        6435000	       642	00000000	00000013	addi	x0,x0,0	  x0:0x00000000
        6445000	       643	80000424	00000013	addi	x0,x0,0	  x0:0x00000000
        6455000	       644	80000428	fd1ff0ef	jal	x1,80000428	  x1=0x80000428
        6465000	       645	00000000	00000013	addi	x0,x0,0	  x0:0x00000000
        6475000	       646	800003f4	00000013	addi	x0,x0,0	  x0:0x00000000
        6485000	       647	800003f8	0240036f	jal	x6,800003f8	  x6=0x800003f8
        6495000	       648	00000000	00000013	addi	x0,x0,0	  x0:0x00000000
        6505000	       649	80000418	00000013	addi	x0,x0,0	  x0:0x00000000
        6515000	       650	8000041c	fd5ff0ef	jal	x1,8000041c	  x1=0x8000041c
        6525000	       651	00000000	00000013	addi	x0,x0,0	  x0:0x00000000
        6535000	       652	800003ec	00000013	addi	x0,x0,0	  x0:0x00000000
        6545000	       653	800003f0	0180036f	jal	x6,800003f0	  x6=0x800003f0
        6555000	       654	00000000	00000013	addi	x0,x0,0	  x0:0x00000000
        6565000	       655	80000404	00000013	addi	x0,x0,0	  x0:0x00000000
        6575000	       656	80000408	ffdff1ef	jal	x3,80000408	  x3=0x80000408
        6585000	       657	00000000	00000013	addi	x0,x0,0	  x0:0x00000000
        6595000	       658	80000400	00000013	addi	x0,x0,0	  x0:0x00000000
        6605000	       659	80000404	01400b6f	jal	x22,80000404	 x22=0x80000404
        6615000	       660	00000000	00000013	addi	x0,x0,0	  x0:0x00000000
        6625000	       661	80000414	00000013	addi	x0,x0,0	  x0:0x00000000
        6635000	       662	80000418	01c0076f	jal	x14,80000418	 x14=0x80000418
        6645000	       663	00000000	00000013	addi	x0,x0,0	  x0:0x00000000
        6655000	       664	80000430	00000013	addi	x0,x0,0	  x0:0x00000000
        6665000	       665	80000434	41c806b3	sub	x13,x16,x28	 x16:0x0d9b0d2b x28:0x80000314 x13=0x8d9b0a17
        6675000	       666	80000438	0440036f	jal	x6,80000438	  x6=0x80000438
        6685000	       667	00000000	00000013	addi	x0,x0,0	  x0:0x00000000
        6695000	       668	80000478	00000013	addi	x0,x0,0	  x0:0x00000000
        6705000	       669	8000047c	ff1fff6f	jal	x30,8000047c	 x30=0x8000047c
        6715000	       670	00000000	00000013	addi	x0,x0,0	  x0:0x00000000
        6725000	       671	80000468	00000013	addi	x0,x0,0	  x0:0x00000000
        6735000	       672	8000046c	ff9ff0ef	jal	x1,8000046c	  x1=0x8000046c
        6745000	       673	00000000	00000013	addi	x0,x0,0	  x0:0x00000000
        6755000	       674	80000460	00000013	addi	x0,x0,0	  x0:0x00000000
        6765000	       675	80000464	fe5ff0ef	jal	x1,80000464	  x1=0x80000464
        6775000	       676	00000000	00000013	addi	x0,x0,0	  x0:0x00000000
        6785000	       677	80000444	00000013	addi	x0,x0,0	  x0:0x00000000
        6795000	       678	80000448	0040056f	jal	x10,80000448	 x10=0x80000448
        6805000	       679	00000000	00000013	addi	x0,x0,0	  x0:0x00000000
        6815000	       680	80000448	00000013	addi	x0,x0,0	  x0:0x00000000
        6825000	       681	8000044c	0140036f	jal	x6,8000044c	  x6=0x8000044c
        6835000	       682	00000000	00000013	addi	x0,x0,0	  x0:0x00000000
        6845000	       683	8000045c	00000013	addi	x0,x0,0	  x0:0x00000000
        6855000	       684	80000460	0100036f	jal	x6,80000460	  x6=0x80000460
        6865000	       685	00000000	00000013	addi	x0,x0,0	  x0:0x00000000
        6875000	       686	8000046c	00000013	addi	x0,x0,0	  x0:0x00000000
        6885000	       687	80000470	ff9ff0ef	jal	x1,80000470	  x1=0x80000470
        6895000	       688	00000000	00000013	addi	x0,x0,0	  x0:0x00000000
        6905000	       689	80000464	00000013	addi	x0,x0,0	  x0:0x00000000
        6915000	       690	80000468	fe9ff0ef	jal	x1,80000468	  x1=0x80000468
        6925000	       691	00000000	00000013	addi	x0,x0,0	  x0:0x00000000
        6935000	       692	8000044c	00000013	addi	x0,x0,0	  x0:0x00000000
        6945000	       693	80000450	030000ef	jal	x1,80000450	  x1=0x80000450
        6955000	       694	00000000	00000013	addi	x0,x0,0	  x0:0x00000000
        6965000	       695	8000047c	00000013	addi	x0,x0,0	  x0:0x00000000
        6975000	       696	80000480	fd5ff16f	jal	x2,80000480	  x2=0x80000480
        6985000	       697	00000000	00000013	addi	x0,x0,0	  x0:0x00000000
        6995000	       698	80000450	00000013	addi	x0,x0,0	  x0:0x00000000
        7005000	       699	80000454	008000ef	jal	x1,80000454	  x1=0x80000454
        7015000	       700	00000000	00000013	addi	x0,x0,0	  x0:0x00000000
        7025000	       701	80000458	00000013	addi	x0,x0,0	  x0:0x00000000
        7035000	       702	8000045c	ffdff0ef	jal	x1,8000045c	  x1=0x8000045c
        7045000	       703	00000000	00000013	addi	x0,x0,0	  x0:0x00000000
        7055000	       704	80000454	00000013	addi	x0,x0,0	  x0:0x00000000
        7065000	       705	80000458	fedff0ef	jal	x1,80000458	  x1=0x80000458
        7075000	       706	00000000	00000013	addi	x0,x0,0	  x0:0x00000000
        7085000	       707	80000440	00000013	addi	x0,x0,0	  x0:0x00000000
        7095000	       708	80000444	ff9ff1ef	jal	x3,80000444	  x3=0x80000444
        7105000	       709	00000000	00000013	addi	x0,x0,0	  x0:0x00000000
        7115000	       710	80000438	00000013	addi	x0,x0,0	  x0:0x00000000
        7125000	       711	8000043c	03800bef	jal	x23,8000043c	 x23=0x8000043c
        7135000	       712	00000000	00000013	addi	x0,x0,0	  x0:0x00000000
        7145000	       713	80000470	00000013	addi	x0,x0,0	  x0:0x00000000
        7155000	       714	80000474	004000ef	jal	x1,80000474	  x1=0x80000474
        7165000	       715	00000000	00000013	addi	x0,x0,0	  x0:0x00000000
        7175000	       716	80000474	00000013	addi	x0,x0,0	  x0:0x00000000
        7185000	       717	80000478	fc9ff1ef	jal	x3,80000478	  x3=0x80000478
        7195000	       718	00000000	00000013	addi	x0,x0,0	  x0:0x00000000
        7205000	       719	8000043c	00000013	addi	x0,x0,0	  x0:0x00000000
        7215000	       720	80000440	0440076f	jal	x14,80000440	 x14=0x80000440
        7225000	       721	00000000	00000013	addi	x0,x0,0	  x0:0x00000000
        7235000	       722	80000480	00000013	addi	x0,x0,0	  x0:0x00000000
        7245000	       723	80000484	0015c433	xor	x8,x11,x1	 x11:0x80009f84  x1:0x80000474  x8=0x00009bf0
        7255000	       724	80000488	01c0036f	jal	x6,80000488	  x6=0x80000488
        7265000	       725	00000000	00000013	addi	x0,x0,0	  x0:0x00000000
        7275000	       726	800004a0	00000013	addi	x0,x0,0	  x0:0x00000000
        7285000	       727	800004a4	0100046f	jal	x8,800004a4	  x8=0x800004a4
        7295000	       728	00000000	00000013	addi	x0,x0,0	  x0:0x00000000
        7305000	       729	800004b0	00000013	addi	x0,x0,0	  x0:0x00000000
        7315000	       730	800004b4	018000ef	jal	x1,800004b4	  x1=0x800004b4
        7325000	       731	00000000	00000013	addi	x0,x0,0	  x0:0x00000000
        7335000	       732	800004c8	00000013	addi	x0,x0,0	  x0:0x00000000
        7345000	       733	800004cc	fd5ff36f	jal	x6,800004cc	  x6=0x800004cc
        7355000	       734	00000000	00000013	addi	x0,x0,0	  x0:0x00000000
        7365000	       735	8000049c	00000013	addi	x0,x0,0	  x0:0x00000000
        7375000	       736	800004a0	ff5ff0ef	jal	x1,800004a0	  x1=0x800004a0
        7385000	       737	00000000	00000013	addi	x0,x0,0	  x0:0x00000000
        7395000	       738	80000490	00000013	addi	x0,x0,0	  x0:0x00000000
        7405000	       739	80000494	0240056f	jal	x10,80000494	 x10=0x80000494
        7415000	       740	00000000	00000013	addi	x0,x0,0	  x0:0x00000000
        7425000	       741	800004b4	00000013	addi	x0,x0,0	  x0:0x00000000
        7435000	       742	800004b8	ff9ff0ef	jal	x1,800004b8	  x1=0x800004b8
        7445000	       743	00000000	00000013	addi	x0,x0,0	  x0:0x00000000
        7455000	       744	800004ac	00000013	addi	x0,x0,0	  x0:0x00000000
        7465000	       745	800004b0	fe9ff0ef	jal	x1,800004b0	  x1=0x800004b0
        7475000	       746	00000000	00000013	addi	x0,x0,0	  x0:0x00000000
        7485000	       747	80000494	00000013	addi	x0,x0,0	  x0:0x00000000
        7495000	       748	80000498	0300036f	jal	x6,80000498	  x6=0x80000498
        7505000	       749	00000000	00000013	addi	x0,x0,0	  x0:0x00000000
        7515000	       750	800004c4	00000013	addi	x0,x0,0	  x0:0x00000000
        7525000	       751	800004c8	fe1ffe6f	jal	x28,800004c8	 x28=0x800004c8
        7535000	       752	00000000	00000013	addi	x0,x0,0	  x0:0x00000000
        7545000	       753	800004a4	00000013	addi	x0,x0,0	  x0:0x00000000
        7555000	       754	800004a8	018000ef	jal	x1,800004a8	  x1=0x800004a8
        7565000	       755	00000000	00000013	addi	x0,x0,0	  x0:0x00000000
        7575000	       756	800004bc	00000013	addi	x0,x0,0	  x0:0x00000000
        7585000	       757	800004c0	fcdff36f	jal	x6,800004c0	  x6=0x800004c0
        7595000	       758	00000000	00000013	addi	x0,x0,0	  x0:0x00000000
        7605000	       759	80000488	00000013	addi	x0,x0,0	  x0:0x00000000
        7615000	       760	8000048c	0300036f	jal	x6,8000048c	  x6=0x8000048c
        7625000	       761	00000000	00000013	addi	x0,x0,0	  x0:0x00000000
        7635000	       762	800004b8	00000013	addi	x0,x0,0	  x0:0x00000000
        7645000	       763	800004bc	ff1ff0ef	jal	x1,800004bc	  x1=0x800004bc
        7655000	       764	00000000	00000013	addi	x0,x0,0	  x0:0x00000000
        7665000	       765	800004a8	00000013	addi	x0,x0,0	  x0:0x00000000
        7675000	       766	800004ac	ff1ff0ef	jal	x1,800004ac	  x1=0x800004ac
        7685000	       767	00000000	00000013	addi	x0,x0,0	  x0:0x00000000
        7695000	       768	80000498	00000013	addi	x0,x0,0	  x0:0x00000000
        7705000	       769	8000049c	02800b6f	jal	x22,8000049c	 x22=0x8000049c
        7715000	       770	00000000	00000013	addi	x0,x0,0	  x0:0x00000000
        7725000	       771	800004c0	00000013	addi	x0,x0,0	  x0:0x00000000
        7735000	       772	800004c4	fcdffe6f	jal	x28,800004c4	 x28=0x800004c4
        7745000	       773	00000000	00000013	addi	x0,x0,0	  x0:0x00000000
        7755000	       774	8000048c	00000013	addi	x0,x0,0	  x0:0x00000000
        7765000	       775	80000490	040000ef	jal	x1,80000490	  x1=0x80000490
        7775000	       776	00000000	00000013	addi	x0,x0,0	  x0:0x00000000
        7785000	       777	800004cc	00000013	addi	x0,x0,0	  x0:0x00000000
        7795000	       778	800004d0	00000013	addi	x0,x0,0	  x0:0x00000000
        7805000	       779	800004d4	0100036f	jal	x6,800004d4	  x6=0x800004d4
        7815000	       780	00000000	00000013	addi	x0,x0,0	  x0:0x00000000
        7825000	       781	800004e0	00000013	addi	x0,x0,0	  x0:0x00000000
        7835000	       782	800004e4	024000ef	jal	x1,800004e4	  x1=0x800004e4
        7845000	       783	00000000	00000013	addi	x0,x0,0	  x0:0x00000000
        7855000	       784	80000504	00000013	addi	x0,x0,0	  x0:0x00000000
        7865000	       785	80000508	fe5ff0ef	jal	x1,80000508	  x1=0x80000508
        7875000	       786	00000000	00000013	addi	x0,x0,0	  x0:0x00000000
        7885000	       787	800004e8	00000013	addi	x0,x0,0	  x0:0x00000000
        7895000	       788	800004ec	ff1ff0ef	jal	x1,800004ec	  x1=0x800004ec
        7905000	       789	00000000	00000013	addi	x0,x0,0	  x0:0x00000000
        7915000	       790	800004d8	00000013	addi	x0,x0,0	  x0:0x00000000
        7925000	       791	800004dc	028000ef	jal	x1,800004dc	  x1=0x800004dc
        7935000	       792	00000000	00000013	addi	x0,x0,0	  x0:0x00000000
        7945000	       793	80000500	00000013	addi	x0,x0,0	  x0:0x00000000
        7955000	       794	80000504	fe5ffd6f	jal	x26,80000504	 x26=0x80000504
        7965000	       795	00000000	00000013	addi	x0,x0,0	  x0:0x00000000
        7975000	       796	800004e4	00000013	addi	x0,x0,0	  x0:0x00000000
        7985000	       797	800004e8	ff1ff36f	jal	x6,800004e8	  x6=0x800004e8
        7995000	       798	00000000	00000013	addi	x0,x0,0	  x0:0x00000000
        8005000	       799	800004d4	00000013	addi	x0,x0,0	  x0:0x00000000
        8015000	       800	800004d8	018000ef	jal	x1,800004d8	  x1=0x800004d8
        8025000	       801	00000000	00000013	addi	x0,x0,0	  x0:0x00000000
        8035000	       802	800004ec	00000013	addi	x0,x0,0	  x0:0x00000000
        8045000	       803	800004f0	00400cef	jal	x25,800004f0	 x25=0x800004f0
        8055000	       804	00000000	00000013	addi	x0,x0,0	  x0:0x00000000
        8065000	       805	800004f0	00000013	addi	x0,x0,0	  x0:0x00000000
        8075000	       806	800004f4	0040036f	jal	x6,800004f4	  x6=0x800004f4
        8085000	       807	00000000	00000013	addi	x0,x0,0	  x0:0x00000000
        8095000	       808	800004f4	00000013	addi	x0,x0,0	  x0:0x00000000
        8105000	       809	800004f8	fe9ff0ef	jal	x1,800004f8	  x1=0x800004f8
        8115000	       810	00000000	00000013	addi	x0,x0,0	  x0:0x00000000
        8125000	       811	800004dc	00000013	addi	x0,x0,0	  x0:0x00000000
        8135000	       812	800004e0	02000bef	jal	x23,800004e0	 x23=0x800004e0
        8145000	       813	00000000	00000013	addi	x0,x0,0	  x0:0x00000000
        8155000	       814	800004fc	00000013	addi	x0,x0,0	  x0:0x00000000
        8165000	       815	80000500	ffdff0ef	jal	x1,80000500	  x1=0x80000500
        8175000	       816	00000000	00000013	addi	x0,x0,0	  x0:0x00000000
        8185000	       817	800004f8	00000013	addi	x0,x0,0	  x0:0x00000000
        8195000	       818	800004fc	01000a6f	jal	x20,800004fc	 x20=0x800004fc
        8205000	       819	00000000	00000013	addi	x0,x0,0	  x0:0x00000000
        8215000	       820	80000508	00000013	addi	x0,x0,0	  x0:0x00000000
        8225000	       821	8000050c	41a458b3	sra	x17,x8,x26	  x8:0x800004a4 x26:0x80000504 x17=0xf800004a
        8235000	       822	80000510	0180036f	jal	x6,80000510	  x6=0x80000510
        8245000	       823	00000000	00000013	addi	x0,x0,0	  x0:0x00000000
        8255000	       824	80000524	00000013	addi	x0,x0,0	  x0:0x00000000
        8265000	       825	80000528	020000ef	jal	x1,80000528	  x1=0x80000528
        8275000	       826	00000000	00000013	addi	x0,x0,0	  x0:0x00000000
        8285000	       827	80000544	00000013	addi	x0,x0,0	  x0:0x00000000
        8295000	       828	80000548	00c0036f	jal	x6,80000548	  x6=0x80000548
        8305000	       829	00000000	00000013	addi	x0,x0,0	  x0:0x00000000
        8315000	       830	80000550	00000013	addi	x0,x0,0	  x0:0x00000000
        8325000	       831	80000554	fc1ff0ef	jal	x1,80000554	  x1=0x80000554
        8335000	       832	00000000	00000013	addi	x0,x0,0	  x0:0x00000000
        8345000	       833	80000510	00000013	addi	x0,x0,0	  x0:0x00000000
        8355000	       834	80000514	004006ef	jal	x13,80000514	 x13=0x80000514
        8365000	       835	00000000	00000013	addi	x0,x0,0	  x0:0x00000000
        8375000	       836	80000514	00000013	addi	x0,x0,0	  x0:0x00000000
        8385000	       837	80000518	02c000ef	jal	x1,80000518	  x1=0x80000518
        8395000	       838	00000000	00000013	addi	x0,x0,0	  x0:0x00000000
        8405000	       839	80000540	00000013	addi	x0,x0,0	  x0:0x00000000
        8415000	       840	80000544	ff1ff26f	jal	x4,80000544	  x4=0x80000544
        8425000	       841	00000000	00000013	addi	x0,x0,0	  x0:0x00000000
        8435000	       842	80000530	00000013	addi	x0,x0,0	  x0:0x00000000
        8445000	       843	80000534	004000ef	jal	x1,80000534	  x1=0x80000534
        8455000	       844	00000000	00000013	addi	x0,x0,0	  x0:0x00000000
        8465000	       845	80000534	00000013	addi	x0,x0,0	  x0:0x00000000
        8475000	       846	80000538	018000ef	jal	x1,80000538	  x1=0x80000538
        8485000	       847	00000000	00000013	addi	x0,x0,0	  x0:0x00000000
        8495000	       848	8000054c	00000013	addi	x0,x0,0	  x0:0x00000000
        8505000	       849	80000550	ffdff0ef	jal	x1,80000550	  x1=0x80000550
        8515000	       850	00000000	00000013	addi	x0,x0,0	  x0:0x00000000
        8525000	       851	80000548	00000013	addi	x0,x0,0	  x0:0x00000000
        8535000	       852	8000054c	fd9ff36f	jal	x6,8000054c	  x6=0x8000054c
        8545000	       853	00000000	00000013	addi	x0,x0,0	  x0:0x00000000
        8555000	       854	80000520	00000013	addi	x0,x0,0	  x0:0x00000000
        8565000	       855	80000524	ffdff0ef	jal	x1,80000524	  x1=0x80000524
        8575000	       856	00000000	00000013	addi	x0,x0,0	  x0:0x00000000
        8585000	       857	8000051c	00000013	addi	x0,x0,0	  x0:0x00000000
        8595000	       858	80000520	0200036f	jal	x6,80000520	  x6=0x80000520
        8605000	       859	00000000	00000013	addi	x0,x0,0	  x0:0x00000000
        8615000	       860	8000053c	00000013	addi	x0,x0,0	  x0:0x00000000
        8625000	       861	80000540	ff1ff0ef	jal	x1,80000540	  x1=0x80000540
        8635000	       862	00000000	00000013	addi	x0,x0,0	  x0:0x00000000
        8645000	       863	8000052c	00000013	addi	x0,x0,0	  x0:0x00000000
        8655000	       864	80000530	fedff2ef	jal	x5,80000530	  x5=0x80000530
        8665000	       865	00000000	00000013	addi	x0,x0,0	  x0:0x00000000
        8675000	       866	80000518	00000013	addi	x0,x0,0	  x0:0x00000000
        8685000	       867	8000051c	010000ef	jal	x1,8000051c	  x1=0x8000051c
        8695000	       868	00000000	00000013	addi	x0,x0,0	  x0:0x00000000
        8705000	       869	80000528	00000013	addi	x0,x0,0	  x0:0x00000000
        8715000	       870	8000052c	010000ef	jal	x1,8000052c	  x1=0x8000052c
        8725000	       871	00000000	00000013	addi	x0,x0,0	  x0:0x00000000
        8735000	       872	80000538	00000013	addi	x0,x0,0	  x0:0x00000000
        8745000	       873	8000053c	01c0036f	jal	x6,8000053c	  x6=0x8000053c
        8755000	       874	00000000	00000013	addi	x0,x0,0	  x0:0x00000000
        8765000	       875	80000554	00000013	addi	x0,x0,0	  x0:0x00000000
        8775000	       876	80000558	402158b3	sra	x17,x2,x2	  x2:0x80000480  x2:0x80000480 x17=0x80000480
        8785000	       877	8000055c	0040036f	jal	x6,8000055c	  x6=0x8000055c
        8795000	       878	00000000	00000013	addi	x0,x0,0	  x0:0x00000000
        8805000	       879	8000055c	00000013	addi	x0,x0,0	  x0:0x00000000
        8815000	       880	80000560	010000ef	jal	x1,80000560	  x1=0x80000560
        8825000	       881	00000000	00000013	addi	x0,x0,0	  x0:0x00000000
        8835000	       882	8000056c	00000013	addi	x0,x0,0	  x0:0x00000000
        8845000	       883	80000570	02c000ef	jal	x1,80000570	  x1=0x80000570
        8855000	       884	00000000	00000013	addi	x0,x0,0	  x0:0x00000000
        8865000	       885	80000598	00000013	addi	x0,x0,0	  x0:0x00000000
        8875000	       886	8000059c	fc9ff36f	jal	x6,8000059c	  x6=0x8000059c
        8885000	       887	00000000	00000013	addi	x0,x0,0	  x0:0x00000000
        8895000	       888	80000560	00000013	addi	x0,x0,0	  x0:0x00000000
        8905000	       889	80000564	030000ef	jal	x1,80000564	  x1=0x80000564
        8915000	       890	00000000	00000013	addi	x0,x0,0	  x0:0x00000000
        8925000	       891	80000590	00000013	addi	x0,x0,0	  x0:0x00000000
        8935000	       892	80000594	ffdffeef	jal	x29,80000594	 x29=0x80000594
        8945000	       893	00000000	00000013	addi	x0,x0,0	  x0:0x00000000
        8955000	       894	8000058c	00000013	addi	x0,x0,0	  x0:0x00000000
        8965000	       895	80000590	ff1ff36f	jal	x6,80000590	  x6=0x80000590
        8975000	       896	00000000	00000013	addi	x0,x0,0	  x0:0x00000000
        8985000	       897	8000057c	00000013	addi	x0,x0,0	  x0:0x00000000
        8995000	       898	80000580	0200036f	jal	x6,80000580	  x6=0x80000580
        9005000	       899	00000000	00000013	addi	x0,x0,0	  x0:0x00000000
        9015000	       900	8000059c	00000013	addi	x0,x0,0	  x0:0x00000000
        9025000	       901	800005a0	fd9fff6f	jal	x30,800005a0	 x30=0x800005a0
        9035000	       902	00000000	00000013	addi	x0,x0,0	  x0:0x00000000
        9045000	       903	80000574	00000013	addi	x0,x0,0	  x0:0x00000000
        9055000	       904	80000578	ffdff36f	jal	x6,80000578	  x6=0x80000578
        9065000	       905	00000000	00000013	addi	x0,x0,0	  x0:0x00000000
        9075000	       906	80000570	00000013	addi	x0,x0,0	  x0:0x00000000
        9085000	       907	80000574	018000ef	jal	x1,80000574	  x1=0x80000574
        9095000	       908	00000000	00000013	addi	x0,x0,0	  x0:0x00000000
        9105000	       909	80000588	00000013	addi	x0,x0,0	  x0:0x00000000
        9115000	       910	8000058c	fe1ff0ef	jal	x1,8000058c	  x1=0x8000058c
        9125000	       911	00000000	00000013	addi	x0,x0,0	  x0:0x00000000
        9135000	       912	80000568	00000013	addi	x0,x0,0	  x0:0x00000000
        9145000	       913	8000056c	01c0026f	jal	x4,8000056c	  x4=0x8000056c
        9155000	       914	00000000	00000013	addi	x0,x0,0	  x0:0x00000000
        9165000	       915	80000584	00000013	addi	x0,x0,0	  x0:0x00000000
        9175000	       916	80000588	fe1ff36f	jal	x6,80000588	  x6=0x80000588
        9185000	       917	00000000	00000013	addi	x0,x0,0	  x0:0x00000000
        9195000	       918	80000564	00000013	addi	x0,x0,0	  x0:0x00000000
        9205000	       919	80000568	030001ef	jal	x3,80000568	  x3=0x80000568
        9215000	       920	00000000	00000013	addi	x0,x0,0	  x0:0x00000000
        9225000	       921	80000594	00000013	addi	x0,x0,0	  x0:0x00000000
        9235000	       922	80000598	fedff0ef	jal	x1,80000598	  x1=0x80000598
        9245000	       923	00000000	00000013	addi	x0,x0,0	  x0:0x00000000
        9255000	       924	80000580	00000013	addi	x0,x0,0	  x0:0x00000000
        9265000	       925	80000584	ff9ff0ef	jal	x1,80000584	  x1=0x80000584
        9275000	       926	00000000	00000013	addi	x0,x0,0	  x0:0x00000000
        9285000	       927	80000578	00000013	addi	x0,x0,0	  x0:0x00000000
        9295000	       928	8000057c	028001ef	jal	x3,8000057c	  x3=0x8000057c
        9305000	       929	00000000	00000013	addi	x0,x0,0	  x0:0x00000000
        9315000	       930	800005a0	00000013	addi	x0,x0,0	  x0:0x00000000
        9325000	       931	800005a4	41de89b3	sub	x19,x29,x29	 x29:0x80000594 x29:0x80000594 x19=0x00000000
        9335000	       932	800005a8	0340036f	jal	x6,800005a8	  x6=0x800005a8
        9345000	       933	00000000	00000013	addi	x0,x0,0	  x0:0x00000000
        9355000	       934	800005d8	00000013	addi	x0,x0,0	  x0:0x00000000
        9365000	       935	800005dc	018000ef	jal	x1,800005dc	  x1=0x800005dc
        9375000	       936	00000000	00000013	addi	x0,x0,0	  x0:0x00000000
        9385000	       937	800005f0	00000013	addi	x0,x0,0	  x0:0x00000000
        9395000	       938	800005f4	fd5ff0ef	jal	x1,800005f4	  x1=0x800005f4
        9405000	       939	00000000	00000013	addi	x0,x0,0	  x0:0x00000000
        9415000	       940	800005c4	00000013	addi	x0,x0,0	  x0:0x00000000
        9425000	       941	800005c8	01c00a6f	jal	x20,800005c8	 x20=0x800005c8
        9435000	       942	00000000	00000013	addi	x0,x0,0	  x0:0x00000000
        9445000	       943	800005e0	00000013	addi	x0,x0,0	  x0:0x00000000
        9455000	       944	800005e4	0200036f	jal	x6,800005e4	  x6=0x800005e4
        9465000	       945	00000000	00000013	addi	x0,x0,0	  x0:0x00000000
        9475000	       946	80000600	00000013	addi	x0,x0,0	  x0:0x00000000
        9485000	       947	80000604	fa9ff36f	jal	x6,80000604	  x6=0x80000604
        9495000	       948	00000000	00000013	addi	x0,x0,0	  x0:0x00000000
        9505000	       949	800005a8	00000013	addi	x0,x0,0	  x0:0x00000000
        9515000	       950	800005ac	064004ef	jal	x9,800005ac	  x9=0x800005ac
        9525000	       951	00000000	00000013	addi	x0,x0,0	  x0:0x00000000
        9535000	       952	8000060c	00000013	addi	x0,x0,0	  x0:0x00000000
        9545000	       953	80000610	004000ef	jal	x1,80000610	  x1=0x80000610
        9555000	       954	00000000	00000013	addi	x0,x0,0	  x0:0x00000000
        9565000	       955	80000610	00000013	addi	x0,x0,0	  x0:0x00000000
        9575000	       956	80000614	fbdff1ef	jal	x3,80000614	  x3=0x80000614
        9585000	       957	00000000	00000013	addi	x0,x0,0	  x0:0x00000000
        9595000	       958	800005cc	00000013	addi	x0,x0,0	  x0:0x00000000
        9605000	       959	800005d0	048000ef	jal	x1,800005d0	  x1=0x800005d0
        9615000	       960	00000000	00000013	addi	x0,x0,0	  x0:0x00000000
        9625000	       961	80000614	00000013	addi	x0,x0,0	  x0:0x00000000
        9635000	       962	80000618	fadff26f	jal	x4,80000618	  x4=0x80000618
        9645000	       963	00000000	00000013	addi	x0,x0,0	  x0:0x00000000
        9655000	       964	800005c0	00000013	addi	x0,x0,0	  x0:0x00000000
        9665000	       965	800005c4	03c000ef	jal	x1,800005c4	  x1=0x800005c4
        9675000	       966	00000000	00000013	addi	x0,x0,0	  x0:0x00000000
        9685000	       967	800005fc	00000013	addi	x0,x0,0	  x0:0x00000000
        9695000	       968	80000600	fb1ffdef	jal	x27,80000600	 x27=0x80000600
        9705000	       969	00000000	00000013	addi	x0,x0,0	  x0:0x00000000
        9715000	       970	800005ac	00000013	addi	x0,x0,0	  x0:0x00000000
        9725000	       971	800005b0	01c0036f	jal	x6,800005b0	  x6=0x800005b0
        9735000	       972	00000000	00000013	addi	x0,x0,0	  x0:0x00000000
        9745000	       973	800005c8	00000013	addi	x0,x0,0	  x0:0x00000000
        9755000	       974	800005cc	ff5ff36f	jal	x6,800005cc	  x6=0x800005cc
        9765000	       975	00000000	00000013	addi	x0,x0,0	  x0:0x00000000
        9775000	       976	800005bc	00000013	addi	x0,x0,0	  x0:0x00000000
        9785000	       977	800005c0	0480016f	jal	x2,800005c0	  x2=0x800005c0
        9795000	       978	00000000	00000013	addi	x0,x0,0	  x0:0x00000000
        9805000	       979	80000604	00000013	addi	x0,x0,0	  x0:0x00000000
        9815000	       980	80000608	fadffb6f	jal	x22,80000608	 x22=0x80000608
        9825000	       981	00000000	00000013	addi	x0,x0,0	  x0:0x00000000
        9835000	       982	800005b0	00000013	addi	x0,x0,0	  x0:0x00000000
        9845000	       983	800005b4	048000ef	jal	x1,800005b4	  x1=0x800005b4
        9855000	       984	00000000	00000013	addi	x0,x0,0	  x0:0x00000000
        9865000	       985	800005f8	00000013	addi	x0,x0,0	  x0:0x00000000
        9875000	       986	800005fc	fedfff6f	jal	x30,800005fc	 x30=0x800005fc
        9885000	       987	00000000	00000013	addi	x0,x0,0	  x0:0x00000000
        9895000	       988	800005e4	00000013	addi	x0,x0,0	  x0:0x00000000
        9905000	       989	800005e8	00400c6f	jal	x24,800005e8	 x24=0x800005e8
        9915000	       990	00000000	00000013	addi	x0,x0,0	  x0:0x00000000
        9925000	       991	800005e8	00000013	addi	x0,x0,0	  x0:0x00000000
        9935000	       992	800005ec	030004ef	jal	x9,800005ec	  x9=0x800005ec
        9945000	       993	00000000	00000013	addi	x0,x0,0	  x0:0x00000000
        9955000	       994	80000618	00000013	addi	x0,x0,0	  x0:0x00000000
        9965000	       995	8000061c	f9dff36f	jal	x6,8000061c	  x6=0x8000061c
        9975000	       996	00000000	00000013	addi	x0,x0,0	  x0:0x00000000
        9985000	       997	800005b4	00000013	addi	x0,x0,0	  x0:0x00000000
        9995000	       998	800005b8	004000ef	jal	x1,800005b8	  x1=0x800005b8
       10005000	       999	00000000	00000013	addi	x0,x0,0	  x0:0x00000000
       10015000	      1000	800005b8	00000013	addi	x0,x0,0	  x0:0x00000000
       10025000	      1001	800005bc	0340026f	jal	x4,800005bc	  x4=0x800005bc
       10035000	      1002	00000000	00000013	addi	x0,x0,0	  x0:0x00000000
       10045000	      1003	800005ec	00000013	addi	x0,x0,0	  x0:0x00000000
       10055000	      1004	800005f0	fe5ff16f	jal	x2,800005f0	  x2=0x800005f0
       10065000	      1005	00000000	00000013	addi	x0,x0,0	  x0:0x00000000
       10075000	      1006	800005d0	00000013	addi	x0,x0,0	  x0:0x00000000
       10085000	      1007	800005d4	00c004ef	jal	x9,800005d4	  x9=0x800005d4
       10095000	      1008	00000000	00000013	addi	x0,x0,0	  x0:0x00000000
       10105000	      1009	800005dc	00000013	addi	x0,x0,0	  x0:0x00000000
       10115000	      1010	800005e0	018000ef	jal	x1,800005e0	  x1=0x800005e0
       10125000	      1011	00000000	00000013	addi	x0,x0,0	  x0:0x00000000
       10135000	      1012	800005f4	00000013	addi	x0,x0,0	  x0:0x00000000
       10145000	      1013	800005f8	fe1ff1ef	jal	x3,800005f8	  x3=0x800005f8
       10155000	      1014	00000000	00000013	addi	x0,x0,0	  x0:0x00000000
       10165000	      1015	800005d4	00000013	addi	x0,x0,0	  x0:0x00000000
       10175000	      1016	800005d8	034000ef	jal	x1,800005d8	  x1=0x800005d8
       10185000	      1017	00000000	00000013	addi	x0,x0,0	  x0:0x00000000
       10195000	      1018	80000608	00000013	addi	x0,x0,0	  x0:0x00000000
       10205000	      1019	8000060c	014009ef	jal	x19,8000060c	 x19=0x8000060c
       10215000	      1020	00000000	00000013	addi	x0,x0,0	  x0:0x00000000
       10225000	      1021	8000061c	00000013	addi	x0,x0,0	  x0:0x00000000
       10235000	      1022	80000620	0170de93	srli	x29,x1,0x17	  x1:0x800005d8 x29=0x00000100
       10245000	      1023	80000624	01c0036f	jal	x6,80000624	  x6=0x80000624
       10255000	      1024	00000000	00000013	addi	x0,x0,0	  x0:0x00000000
       10265000	      1025	8000063c	00000013	addi	x0,x0,0	  x0:0x00000000
       10275000	      1026	80000640	0080036f	jal	x6,80000640	  x6=0x80000640
       10285000	      1027	00000000	00000013	addi	x0,x0,0	  x0:0x00000000
       10295000	      1028	80000644	00000013	addi	x0,x0,0	  x0:0x00000000
       10305000	      1029	80000648	0140076f	jal	x14,80000648	 x14=0x80000648
       10315000	      1030	00000000	00000013	addi	x0,x0,0	  x0:0x00000000
       10325000	      1031	80000658	00000013	addi	x0,x0,0	  x0:0x00000000
       10335000	      1032	8000065c	ff5ff36f	jal	x6,8000065c	  x6=0x8000065c
       10345000	      1033	00000000	00000013	addi	x0,x0,0	  x0:0x00000000
       10355000	      1034	8000064c	00000013	addi	x0,x0,0	  x0:0x00000000
       10365000	      1035	80000650	0280076f	jal	x14,80000650	 x14=0x80000650
       10375000	      1036	00000000	00000013	addi	x0,x0,0	  x0:0x00000000
       10385000	      1037	80000674	00000013	addi	x0,x0,0	  x0:0x00000000
       10395000	      1038	80000678	0080036f	jal	x6,80000678	  x6=0x80000678
       10405000	      1039	00000000	00000013	addi	x0,x0,0	  x0:0x00000000
       10415000	      1040	8000067c	00000013	addi	x0,x0,0	  x0:0x00000000
       10425000	      1041	80000680	014007ef	jal	x15,80000680	 x15=0x80000680
       10435000	      1042	00000000	00000013	addi	x0,x0,0	  x0:0x00000000
       10445000	      1043	80000690	00000013	addi	x0,x0,0	  x0:0x00000000
       10455000	      1044	80000694	f99ff0ef	jal	x1,80000694	  x1=0x80000694
       10465000	      1045	00000000	00000013	addi	x0,x0,0	  x0:0x00000000
       10475000	      1046	80000628	00000013	addi	x0,x0,0	  x0:0x00000000
       10485000	      1047	8000062c	028000ef	jal	x1,8000062c	  x1=0x8000062c
       10495000	      1048	00000000	00000013	addi	x0,x0,0	  x0:0x00000000
       10505000	      1049	80000650	00000013	addi	x0,x0,0	  x0:0x00000000
       10515000	      1050	80000654	004000ef	jal	x1,80000654	  x1=0x80000654
       10525000	      1051	00000000	00000013	addi	x0,x0,0	  x0:0x00000000
       10535000	      1052	80000654	00000013	addi	x0,x0,0	  x0:0x00000000
       10545000	      1053	80000658	024000ef	jal	x1,80000658	  x1=0x80000658
       10555000	      1054	00000000	00000013	addi	x0,x0,0	  x0:0x00000000
       10565000	      1055	80000678	00000013	addi	x0,x0,0	  x0:0x00000000
       10575000	      1056	8000067c	fb9ff0ef	jal	x1,8000067c	  x1=0x8000067c
       10585000	      1057	00000000	00000013	addi	x0,x0,0	  x0:0x00000000
       10595000	      1058	80000630	00000013	addi	x0,x0,0	  x0:0x00000000
       10605000	      1059	80000634	050000ef	jal	x1,80000634	  x1=0x80000634
       10615000	      1060	00000000	00000013	addi	x0,x0,0	  x0:0x00000000
       10625000	      1061	80000680	00000013	addi	x0,x0,0	  x0:0x00000000
       10635000	      1062	80000684	fa5ff0ef	jal	x1,80000684	  x1=0x80000684
       10645000	      1063	00000000	00000013	addi	x0,x0,0	  x0:0x00000000
       10655000	      1064	80000624	00000013	addi	x0,x0,0	  x0:0x00000000
       10665000	      1065	80000628	0480026f	jal	x4,80000628	  x4=0x80000628
       10675000	      1066	00000000	00000013	addi	x0,x0,0	  x0:0x00000000
       10685000	      1067	8000066c	00000013	addi	x0,x0,0	  x0:0x00000000
       10695000	      1068	80000670	004000ef	jal	x1,80000670	  x1=0x80000670
       10705000	      1069	00000000	00000013	addi	x0,x0,0	  x0:0x00000000
       10715000	      1070	80000670	00000013	addi	x0,x0,0	  x0:0x00000000
       10725000	      1071	80000674	0240036f	jal	x6,80000674	  x6=0x80000674
       10735000	      1072	00000000	00000013	addi	x0,x0,0	  x0:0x00000000
       10745000	      1073	80000694	00000013	addi	x0,x0,0	  x0:0x00000000
       10755000	      1074	80000698	f99fff6f	jal	x30,80000698	 x30=0x80000698
       10765000	      1075	00000000	00000013	addi	x0,x0,0	  x0:0x00000000
       10775000	      1076	8000062c	00000013	addi	x0,x0,0	  x0:0x00000000
       10785000	      1077	80000630	058000ef	jal	x1,80000630	  x1=0x80000630
       10795000	      1078	00000000	00000013	addi	x0,x0,0	  x0:0x00000000
       10805000	      1079	80000684	00000013	addi	x0,x0,0	  x0:0x00000000
       10815000	      1080	80000688	fddff4ef	jal	x9,80000688	  x9=0x80000688
       10825000	      1081	00000000	00000013	addi	x0,x0,0	  x0:0x00000000
       10835000	      1082	80000660	00000013	addi	x0,x0,0	  x0:0x00000000
       10845000	      1083	80000664	004000ef	jal	x1,80000664	  x1=0x80000664
       10855000	      1084	00000000	00000013	addi	x0,x0,0	  x0:0x00000000
       10865000	      1085	80000664	00000013	addi	x0,x0,0	  x0:0x00000000
       10875000	      1086	80000668	fd5ff0ef	jal	x1,80000668	  x1=0x80000668
       10885000	      1087	00000000	00000013	addi	x0,x0,0	  x0:0x00000000
       10895000	      1088	80000638	00000013	addi	x0,x0,0	  x0:0x00000000
       10905000	      1089	8000063c	008002ef	jal	x5,8000063c	  x5=0x8000063c
       10915000	      1090	00000000	00000013	addi	x0,x0,0	  x0:0x00000000
       10925000	      1091	80000640	00000013	addi	x0,x0,0	  x0:0x00000000
       10935000	      1092	80000644	ff5ff36f	jal	x6,80000644	  x6=0x80000644
       10945000	      1093	00000000	00000013	addi	x0,x0,0	  x0:0x00000000
       10955000	      1094	80000634	00000013	addi	x0,x0,0	  x0:0x00000000
       10965000	      1095	80000638	028000ef	jal	x1,80000638	  x1=0x80000638
       10975000	      1096	00000000	00000013	addi	x0,x0,0	  x0:0x00000000
       10985000	      1097	8000065c	00000013	addi	x0,x0,0	  x0:0x00000000
       10995000	      1098	80000660	02c0016f	jal	x2,80000660	  x2=0x80000660
       11005000	      1099	00000000	00000013	addi	x0,x0,0	  x0:0x00000000
       11015000	      1100	80000688	00000013	addi	x0,x0,0	  x0:0x00000000
       11025000	      1101	8000068c	fc1ff0ef	jal	x1,8000068c	  x1=0x8000068c
       11035000	      1102	00000000	00000013	addi	x0,x0,0	  x0:0x00000000
       11045000	      1103	80000648	00000013	addi	x0,x0,0	  x0:0x00000000
       11055000	      1104	8000064c	0200036f	jal	x6,8000064c	  x6=0x8000064c
       11065000	      1105	00000000	00000013	addi	x0,x0,0	  x0:0x00000000
       11075000	      1106	80000668	00000013	addi	x0,x0,0	  x0:0x00000000
       11085000	      1107	8000066c	024000ef	jal	x1,8000066c	  x1=0x8000066c
       11095000	      1108	00000000	00000013	addi	x0,x0,0	  x0:0x00000000
       11105000	      1109	8000068c	00000013	addi	x0,x0,0	  x0:0x00000000
       11115000	      1110	80000690	00c0096f	jal	x18,80000690	 x18=0x80000690
       11125000	      1111	00000000	00000013	addi	x0,x0,0	  x0:0x00000000
       11135000	      1112	80000698	00000013	addi	x0,x0,0	  x0:0x00000000
       11145000	      1113	8000069c	00551213	slli	x4,x10,0x5	 x10:0x80000494  x4=0x00009280
       11155000	      1114	800006a0	02c0036f	jal	x6,800006a0	  x6=0x800006a0
       11165000	      1115	00000000	00000013	addi	x0,x0,0	  x0:0x00000000
       11175000	      1116	800006c8	00000013	addi	x0,x0,0	  x0:0x00000000
       11185000	      1117	800006cc	fedff36f	jal	x6,800006cc	  x6=0x800006cc
       11195000	      1118	00000000	00000013	addi	x0,x0,0	  x0:0x00000000
       11205000	      1119	800006b4	00000013	addi	x0,x0,0	  x0:0x00000000
       11215000	      1120	800006b8	004000ef	jal	x1,800006b8	  x1=0x800006b8
       11225000	      1121	00000000	00000013	addi	x0,x0,0	  x0:0x00000000
       11235000	      1122	800006b8	00000013	addi	x0,x0,0	  x0:0x00000000
       11245000	      1123	800006bc	ff9ff0ef	jal	x1,800006bc	  x1=0x800006bc
       11255000	      1124	00000000	00000013	addi	x0,x0,0	  x0:0x00000000
       11265000	      1125	800006b0	00000013	addi	x0,x0,0	  x0:0x00000000
       11275000	      1126	800006b4	014000ef	jal	x1,800006b4	  x1=0x800006b4
       11285000	      1127	00000000	00000013	addi	x0,x0,0	  x0:0x00000000
       11295000	      1128	800006c4	00000013	addi	x0,x0,0	  x0:0x00000000
       11305000	      1129	800006c8	fddff0ef	jal	x1,800006c8	  x1=0x800006c8
       11315000	      1130	00000000	00000013	addi	x0,x0,0	  x0:0x00000000
       11325000	      1131	800006a0	00000013	addi	x0,x0,0	  x0:0x00000000
       11335000	      1132	800006a4	004000ef	jal	x1,800006a4	  x1=0x800006a4
       11345000	      1133	00000000	00000013	addi	x0,x0,0	  x0:0x00000000
       11355000	      1134	800006a4	00000013	addi	x0,x0,0	  x0:0x00000000
       11365000	      1135	800006a8	0040036f	jal	x6,800006a8	  x6=0x800006a8
       11375000	      1136	00000000	00000013	addi	x0,x0,0	  x0:0x00000000
       11385000	      1137	800006a8	00000013	addi	x0,x0,0	  x0:0x00000000
       11395000	      1138	800006ac	0040036f	jal	x6,800006ac	  x6=0x800006ac
       11405000	      1139	00000000	00000013	addi	x0,x0,0	  x0:0x00000000
       11415000	      1140	800006ac	00000013	addi	x0,x0,0	  x0:0x00000000
       11425000	      1141	800006b0	020000ef	jal	x1,800006b0	  x1=0x800006b0
       11435000	      1142	00000000	00000013	addi	x0,x0,0	  x0:0x00000000
       11445000	      1143	800006cc	00000013	addi	x0,x0,0	  x0:0x00000000
       11455000	      1144	800006d0	010001ef	jal	x3,800006d0	  x3=0x800006d0
       11465000	      1145	00000000	00000013	addi	x0,x0,0	  x0:0x00000000
       11475000	      1146	800006dc	00000013	addi	x0,x0,0	  x0:0x00000000
       11485000	      1147	800006e0	ff5ff0ef	jal	x1,800006e0	  x1=0x800006e0
       11495000	      1148	00000000	00000013	addi	x0,x0,0	  x0:0x00000000
       11505000	      1149	800006d0	00000013	addi	x0,x0,0	  x0:0x00000000
       11515000	      1150	800006d4	008000ef	jal	x1,800006d4	  x1=0x800006d4
       11525000	      1151	00000000	00000013	addi	x0,x0,0	  x0:0x00000000
       11535000	      1152	800006d8	00000013	addi	x0,x0,0	  x0:0x00000000
       11545000	      1153	800006dc	fe5ff0ef	jal	x1,800006dc	  x1=0x800006dc
       11555000	      1154	00000000	00000013	addi	x0,x0,0	  x0:0x00000000
       11565000	      1155	800006bc	00000013	addi	x0,x0,0	  x0:0x00000000
       11575000	      1156	800006c0	01800bef	jal	x23,800006c0	 x23=0x800006c0
       11585000	      1157	00000000	00000013	addi	x0,x0,0	  x0:0x00000000
       11595000	      1158	800006d4	00000013	addi	x0,x0,0	  x0:0x00000000
       11605000	      1159	800006d8	fedff0ef	jal	x1,800006d8	  x1=0x800006d8
       11615000	      1160	00000000	00000013	addi	x0,x0,0	  x0:0x00000000
       11625000	      1161	800006c0	00000013	addi	x0,x0,0	  x0:0x00000000
       11635000	      1162	800006c4	020000ef	jal	x1,800006c4	  x1=0x800006c4
       11645000	      1163	00000000	00000013	addi	x0,x0,0	  x0:0x00000000
       11655000	      1164	800006e0	00000013	addi	x0,x0,0	  x0:0x00000000
       11665000	      1165	800006e4	00c06133	or	x2,x0,x12	  x0:0x00000000 x12:0x800002ac  x2=0x800002ac
       11675000	      1166	800006e8	0540036f	jal	x6,800006e8	  x6=0x800006e8
       11685000	      1167	00000000	00000013	addi	x0,x0,0	  x0:0x00000000
       11695000	      1168	80000738	00000013	addi	x0,x0,0	  x0:0x00000000
       11705000	      1169	8000073c	014004ef	jal	x9,8000073c	  x9=0x8000073c
       11715000	      1170	00000000	00000013	addi	x0,x0,0	  x0:0x00000000
       11725000	      1171	8000074c	00000013	addi	x0,x0,0	  x0:0x00000000
       11735000	      1172	80000750	fc1ff0ef	jal	x1,80000750	  x1=0x80000750
       11745000	      1173	00000000	00000013	addi	x0,x0,0	  x0:0x00000000
       11755000	      1174	8000070c	00000013	addi	x0,x0,0	  x0:0x00000000
       11765000	      1175	80000710	fe5ff36f	jal	x6,80000710	  x6=0x80000710
       11775000	      1176	00000000	00000013	addi	x0,x0,0	  x0:0x00000000
       11785000	      1177	800006f0	00000013	addi	x0,x0,0	  x0:0x00000000
       11795000	      1178	800006f4	04c0036f	jal	x6,800006f4	  x6=0x800006f4
       11805000	      1179	00000000	00000013	addi	x0,x0,0	  x0:0x00000000
       11815000	      1180	8000073c	00000013	addi	x0,x0,0	  x0:0x00000000
       11825000	      1181	80000740	00c000ef	jal	x1,80000740	  x1=0x80000740
       11835000	      1182	00000000	00000013	addi	x0,x0,0	  x0:0x00000000
       11845000	      1183	80000748	00000013	addi	x0,x0,0	  x0:0x00000000
       11855000	      1184	8000074c	fa1fff6f	jal	x30,8000074c	 x30=0x8000074c
       11865000	      1185	00000000	00000013	addi	x0,x0,0	  x0:0x00000000
       11875000	      1186	800006e8	00000013	addi	x0,x0,0	  x0:0x00000000
       11885000	      1187	800006ec	01000f6f	jal	x30,800006ec	 x30=0x800006ec
       11895000	      1188	00000000	00000013	addi	x0,x0,0	  x0:0x00000000
       11905000	      1189	800006f8	00000013	addi	x0,x0,0	  x0:0x00000000
       11915000	      1190	800006fc	05c000ef	jal	x1,800006fc	  x1=0x800006fc
       11925000	      1191	00000000	00000013	addi	x0,x0,0	  x0:0x00000000
       11935000	      1192	80000754	00000013	addi	x0,x0,0	  x0:0x00000000
       11945000	      1193	80000758	fcdff36f	jal	x6,80000758	  x6=0x80000758
       11955000	      1194	00000000	00000013	addi	x0,x0,0	  x0:0x00000000
       11965000	      1195	80000720	00000013	addi	x0,x0,0	  x0:0x00000000
       11975000	      1196	80000724	008000ef	jal	x1,80000724	  x1=0x80000724
       11985000	      1197	00000000	00000013	addi	x0,x0,0	  x0:0x00000000
       11995000	      1198	80000728	00000013	addi	x0,x0,0	  x0:0x00000000
       12005000	      1199	8000072c	fedff0ef	jal	x1,8000072c	  x1=0x8000072c
       12015000	      1200	00000000	00000013	addi	x0,x0,0	  x0:0x00000000
       12025000	      1201	80000714	00000013	addi	x0,x0,0	  x0:0x00000000
       12035000	      1202	80000718	fe1ff4ef	jal	x9,80000718	  x9=0x80000718
       12045000	      1203	00000000	00000013	addi	x0,x0,0	  x0:0x00000000
       12055000	      1204	800006f4	00000013	addi	x0,x0,0	  x0:0x00000000
       12065000	      1205	800006f8	028000ef	jal	x1,800006f8	  x1=0x800006f8
       12075000	      1206	00000000	00000013	addi	x0,x0,0	  x0:0x00000000
       12085000	      1207	8000071c	00000013	addi	x0,x0,0	  x0:0x00000000
       12095000	      1208	80000720	fe5ff36f	jal	x6,80000720	  x6=0x80000720
       12105000	      1209	00000000	00000013	addi	x0,x0,0	  x0:0x00000000
       12115000	      1210	80000700	00000013	addi	x0,x0,0	  x0:0x00000000
       12125000	      1211	80000704	004002ef	jal	x5,80000704	  x5=0x80000704
       12135000	      1212	00000000	00000013	addi	x0,x0,0	  x0:0x00000000
       12145000	      1213	80000704	00000013	addi	x0,x0,0	  x0:0x00000000
       12155000	      1214	80000708	03c000ef	jal	x1,80000708	  x1=0x80000708
       12165000	      1215	00000000	00000013	addi	x0,x0,0	  x0:0x00000000
       12175000	      1216	80000740	00000013	addi	x0,x0,0	  x0:0x00000000
       12185000	      1217	80000744	fadffaef	jal	x21,80000744	 x21=0x80000744
       12195000	      1218	00000000	00000013	addi	x0,x0,0	  x0:0x00000000
       12205000	      1219	800006ec	00000013	addi	x0,x0,0	  x0:0x00000000
       12215000	      1220	800006f0	064000ef	jal	x1,800006f0	  x1=0x800006f0
       12225000	      1221	00000000	00000013	addi	x0,x0,0	  x0:0x00000000
       12235000	      1222	80000750	00000013	addi	x0,x0,0	  x0:0x00000000
       12245000	      1223	80000754	fc1ff36f	jal	x6,80000754	  x6=0x80000754
       12255000	      1224	00000000	00000013	addi	x0,x0,0	  x0:0x00000000
       12265000	      1225	80000710	00000013	addi	x0,x0,0	  x0:0x00000000
       12275000	      1226	80000714	008000ef	jal	x1,80000714	  x1=0x80000714
       12285000	      1227	00000000	00000013	addi	x0,x0,0	  x0:0x00000000
       12295000	      1228	80000718	00000013	addi	x0,x0,0	  x0:0x00000000
       12305000	      1229	8000071c	ff1ff0ef	jal	x1,8000071c	  x1=0x8000071c
       12315000	      1230	00000000	00000013	addi	x0,x0,0	  x0:0x00000000
       12325000	      1231	80000708	00000013	addi	x0,x0,0	  x0:0x00000000
       12335000	      1232	8000070c	ff5ff0ef	jal	x1,8000070c	  x1=0x8000070c
       12345000	      1233	00000000	00000013	addi	x0,x0,0	  x0:0x00000000
       12355000	      1234	800006fc	00000013	addi	x0,x0,0	  x0:0x00000000
       12365000	      1235	80000700	048000ef	jal	x1,80000700	  x1=0x80000700
       12375000	      1236	00000000	00000013	addi	x0,x0,0	  x0:0x00000000
       12385000	      1237	80000744	00000013	addi	x0,x0,0	  x0:0x00000000
       12395000	      1238	80000748	fe1ff26f	jal	x4,80000748	  x4=0x80000748
       12405000	      1239	00000000	00000013	addi	x0,x0,0	  x0:0x00000000
       12415000	      1240	80000724	00000013	addi	x0,x0,0	  x0:0x00000000
       12425000	      1241	80000728	0100036f	jal	x6,80000728	  x6=0x80000728
       12435000	      1242	00000000	00000013	addi	x0,x0,0	  x0:0x00000000
       12445000	      1243	80000734	00000013	addi	x0,x0,0	  x0:0x00000000
       12455000	      1244	80000738	ffdff0ef	jal	x1,80000738	  x1=0x80000738
       12465000	      1245	00000000	00000013	addi	x0,x0,0	  x0:0x00000000
       12475000	      1246	80000730	00000013	addi	x0,x0,0	  x0:0x00000000
       12485000	      1247	80000734	ffdff36f	jal	x6,80000734	  x6=0x80000734
       12495000	      1248	00000000	00000013	addi	x0,x0,0	  x0:0x00000000
       12505000	      1249	8000072c	00000013	addi	x0,x0,0	  x0:0x00000000
       12515000	      1250	80000730	02c0036f	jal	x6,80000730	  x6=0x80000730
       12525000	      1251	00000000	00000013	addi	x0,x0,0	  x0:0x00000000
       12535000	      1252	80000758	00000013	addi	x0,x0,0	  x0:0x00000000
       12545000	      1253	8000075c	017e36b3	sltu	x13,x28,x23	 x28:0x800004c4 x23:0x800006c0 x13=0x00000001
       12555000	      1254	80000760	04c0036f	jal	x6,80000760	  x6=0x80000760
       12565000	      1255	00000000	00000013	addi	x0,x0,0	  x0:0x00000000
       12575000	      1256	800007a8	00000013	addi	x0,x0,0	  x0:0x00000000
       12585000	      1257	800007ac	ff5ff0ef	jal	x1,800007ac	  x1=0x800007ac
       12595000	      1258	00000000	00000013	addi	x0,x0,0	  x0:0x00000000
       12605000	      1259	8000079c	00000013	addi	x0,x0,0	  x0:0x00000000
       12615000	      1260	800007a0	fe1ff36f	jal	x6,800007a0	  x6=0x800007a0
       12625000	      1261	00000000	00000013	addi	x0,x0,0	  x0:0x00000000
       12635000	      1262	8000077c	00000013	addi	x0,x0,0	  x0:0x00000000
       12645000	      1263	80000780	004000ef	jal	x1,80000780	  x1=0x80000780
       12655000	      1264	00000000	00000013	addi	x0,x0,0	  x0:0x00000000
       12665000	      1265	80000780	00000013	addi	x0,x0,0	  x0:0x00000000
       12675000	      1266	80000784	ff5ff0ef	jal	x1,80000784	  x1=0x80000784
       12685000	      1267	00000000	00000013	addi	x0,x0,0	  x0:0x00000000
       12695000	      1268	80000774	00000013	addi	x0,x0,0	  x0:0x00000000
       12705000	      1269	80000778	018000ef	jal	x1,80000778	  x1=0x80000778
       12715000	      1270	00000000	00000013	addi	x0,x0,0	  x0:0x00000000
       12725000	      1271	8000078c	00000013	addi	x0,x0,0	  x0:0x00000000
       12735000	      1272	80000790	fe1ffbef	jal	x23,80000790	 x23=0x80000790
       12745000	      1273	00000000	00000013	addi	x0,x0,0	  x0:0x00000000
       12755000	      1274	8000076c	00000013	addi	x0,x0,0	  x0:0x00000000
       12765000	      1275	80000770	02c000ef	jal	x1,80000770	  x1=0x80000770
       12775000	      1276	00000000	00000013	addi	x0,x0,0	  x0:0x00000000
       12785000	      1277	80000798	00000013	addi	x0,x0,0	  x0:0x00000000
       12795000	      1278	8000079c	fd1ff36f	jal	x6,8000079c	  x6=0x8000079c
       12805000	      1279	00000000	00000013	addi	x0,x0,0	  x0:0x00000000
       12815000	      1280	80000768	00000013	addi	x0,x0,0	  x0:0x00000000
       12825000	      1281	8000076c	008009ef	jal	x19,8000076c	 x19=0x8000076c
       12835000	      1282	00000000	00000013	addi	x0,x0,0	  x0:0x00000000
       12845000	      1283	80000770	00000013	addi	x0,x0,0	  x0:0x00000000
       12855000	      1284	80000774	ff1ff56f	jal	x10,80000774	 x10=0x80000774
       12865000	      1285	00000000	00000013	addi	x0,x0,0	  x0:0x00000000
       12875000	      1286	80000760	00000013	addi	x0,x0,0	  x0:0x00000000
       12885000	      1287	80000764	0300036f	jal	x6,80000764	  x6=0x80000764
       12895000	      1288	00000000	00000013	addi	x0,x0,0	  x0:0x00000000
       12905000	      1289	80000790	00000013	addi	x0,x0,0	  x0:0x00000000
       12915000	      1290	80000794	ff9ff0ef	jal	x1,80000794	  x1=0x80000794
       12925000	      1291	00000000	00000013	addi	x0,x0,0	  x0:0x00000000
       12935000	      1292	80000788	00000013	addi	x0,x0,0	  x0:0x00000000
       12945000	      1293	8000078c	00c00aef	jal	x21,8000078c	 x21=0x8000078c
       12955000	      1294	00000000	00000013	addi	x0,x0,0	  x0:0x00000000
       12965000	      1295	80000794	00000013	addi	x0,x0,0	  x0:0x00000000
       12975000	      1296	80000798	fe5ff36f	jal	x6,80000798	  x6=0x80000798
       12985000	      1297	00000000	00000013	addi	x0,x0,0	  x0:0x00000000
       12995000	      1298	80000778	00000013	addi	x0,x0,0	  x0:0x00000000
       13005000	      1299	8000077c	02c0026f	jal	x4,8000077c	  x4=0x8000077c
       13015000	      1300	00000000	00000013	addi	x0,x0,0	  x0:0x00000000
       13025000	      1301	800007a4	00000013	addi	x0,x0,0	  x0:0x00000000
       13035000	      1302	800007a8	ffdff56f	jal	x10,800007a8	 x10=0x800007a8
       13045000	      1303	00000000	00000013	addi	x0,x0,0	  x0:0x00000000
       13055000	      1304	800007a0	00000013	addi	x0,x0,0	  x0:0x00000000
       13065000	      1305	800007a4	fc5ff0ef	jal	x1,800007a4	  x1=0x800007a4
       13075000	      1306	00000000	00000013	addi	x0,x0,0	  x0:0x00000000
       13085000	      1307	80000764	00000013	addi	x0,x0,0	  x0:0x00000000
       13095000	      1308	80000768	020008ef	jal	x17,80000768	 x17=0x80000768
       13105000	      1309	00000000	00000013	addi	x0,x0,0	  x0:0x00000000
       13115000	      1310	80000784	00000013	addi	x0,x0,0	  x0:0x00000000
       13125000	      1311	80000788	028000ef	jal	x1,80000788	  x1=0x80000788
       13135000	      1312	00000000	00000013	addi	x0,x0,0	  x0:0x00000000
       13145000	      1313	800007ac	00000013	addi	x0,x0,0	  x0:0x00000000
       13155000	      1314	800007b0	4011dd93	srai	x27,x3,0x1	  x3:0x800006d0 x27=0xc0000368
       13165000	      1315	800007b4	0580036f	jal	x6,800007b4	  x6=0x800007b4
       13175000	      1316	00000000	00000013	addi	x0,x0,0	  x0:0x00000000
       13185000	      1317	80000808	00000013	addi	x0,x0,0	  x0:0x00000000
       13195000	      1318	8000080c	fddff0ef	jal	x1,8000080c	  x1=0x8000080c
       13205000	      1319	00000000	00000013	addi	x0,x0,0	  x0:0x00000000
       13215000	      1320	800007e4	00000013	addi	x0,x0,0	  x0:0x00000000
       13225000	      1321	800007e8	fe5ff7ef	jal	x15,800007e8	 x15=0x800007e8
       13235000	      1322	00000000	00000013	addi	x0,x0,0	  x0:0x00000000
       13245000	      1323	800007c8	00000013	addi	x0,x0,0	  x0:0x00000000
       13255000	      1324	800007cc	004000ef	jal	x1,800007cc	  x1=0x800007cc
       13265000	      1325	00000000	00000013	addi	x0,x0,0	  x0:0x00000000
       13275000	      1326	800007cc	00000013	addi	x0,x0,0	  x0:0x00000000
       13285000	      1327	800007d0	ff5ff2ef	jal	x5,800007d0	  x5=0x800007d0
       13295000	      1328	00000000	00000013	addi	x0,x0,0	  x0:0x00000000
       13305000	      1329	800007c0	00000013	addi	x0,x0,0	  x0:0x00000000
       13315000	      1330	800007c4	01c0066f	jal	x12,800007c4	 x12=0x800007c4
       13325000	      1331	00000000	00000013	addi	x0,x0,0	  x0:0x00000000
       13335000	      1332	800007dc	00000013	addi	x0,x0,0	  x0:0x00000000
       13345000	      1333	800007e0	024000ef	jal	x1,800007e0	  x1=0x800007e0
       13355000	      1334	00000000	00000013	addi	x0,x0,0	  x0:0x00000000
       13365000	      1335	80000800	00000013	addi	x0,x0,0	  x0:0x00000000
       13375000	      1336	80000804	ff1ff0ef	jal	x1,80000804	  x1=0x80000804
       13385000	      1337	00000000	00000013	addi	x0,x0,0	  x0:0x00000000
       13395000	      1338	800007f0	00000013	addi	x0,x0,0	  x0:0x00000000
       13405000	      1339	800007f4	fd5ff26f	jal	x4,800007f4	  x4=0x800007f4
       13415000	      1340	00000000	00000013	addi	x0,x0,0	  x0:0x00000000
       13425000	      1341	800007c4	00000013	addi	x0,x0,0	  x0:0x00000000
       13435000	      1342	800007c8	014000ef	jal	x1,800007c8	  x1=0x800007c8
       13445000	      1343	00000000	00000013	addi	x0,x0,0	  x0:0x00000000
       13455000	      1344	800007d8	00000013	addi	x0,x0,0	  x0:0x00000000
       13465000	      1345	800007dc	024001ef	jal	x3,800007dc	  x3=0x800007dc
       13475000	      1346	00000000	00000013	addi	x0,x0,0	  x0:0x00000000
       13485000	      1347	800007fc	00000013	addi	x0,x0,0	  x0:0x00000000
       13495000	      1348	80000800	008000ef	jal	x1,80000800	  x1=0x80000800
       13505000	      1349	00000000	00000013	addi	x0,x0,0	  x0:0x00000000
       13515000	      1350	80000804	00000013	addi	x0,x0,0	  x0:0x00000000
       13525000	      1351	80000808	fb9ff0ef	jal	x1,80000808	  x1=0x80000808
       13535000	      1352	00000000	00000013	addi	x0,x0,0	  x0:0x00000000
       13545000	      1353	800007bc	00000013	addi	x0,x0,0	  x0:0x00000000
       13555000	      1354	800007c0	014000ef	jal	x1,800007c0	  x1=0x800007c0
       13565000	      1355	00000000	00000013	addi	x0,x0,0	  x0:0x00000000
       13575000	      1356	800007d0	00000013	addi	x0,x0,0	  x0:0x00000000
       13585000	      1357	800007d4	040001ef	jal	x3,800007d4	  x3=0x800007d4
       13595000	      1358	00000000	00000013	addi	x0,x0,0	  x0:0x00000000
       13605000	      1359	80000810	00000013	addi	x0,x0,0	  x0:0x00000000
       13615000	      1360	80000814	fd1ffbef	jal	x23,80000814	 x23=0x80000814
       13625000	      1361	00000000	00000013	addi	x0,x0,0	  x0:0x00000000
       13635000	      1362	800007e0	00000013	addi	x0,x0,0	  x0:0x00000000
       13645000	      1363	800007e4	014000ef	jal	x1,800007e4	  x1=0x800007e4
       13655000	      1364	00000000	00000013	addi	x0,x0,0	  x0:0x00000000
       13665000	      1365	800007f4	00000013	addi	x0,x0,0	  x0:0x00000000
       13675000	      1366	800007f8	fc5ff9ef	jal	x19,800007f8	 x19=0x800007f8
       13685000	      1367	00000000	00000013	addi	x0,x0,0	  x0:0x00000000
       13695000	      1368	800007b8	00000013	addi	x0,x0,0	  x0:0x00000000
       13705000	      1369	800007bc	0340036f	jal	x6,800007bc	  x6=0x800007bc
       13715000	      1370	00000000	00000013	addi	x0,x0,0	  x0:0x00000000
       13725000	      1371	800007ec	00000013	addi	x0,x0,0	  x0:0x00000000
       13735000	      1372	800007f0	00c000ef	jal	x1,800007f0	  x1=0x800007f0
       13745000	      1373	00000000	00000013	addi	x0,x0,0	  x0:0x00000000
       13755000	      1374	800007f8	00000013	addi	x0,x0,0	  x0:0x00000000
       13765000	      1375	800007fc	ff1ff0ef	jal	x1,800007fc	  x1=0x800007fc
       13775000	      1376	00000000	00000013	addi	x0,x0,0	  x0:0x00000000
       13785000	      1377	800007e8	00000013	addi	x0,x0,0	  x0:0x00000000
       13795000	      1378	800007ec	fcdff36f	jal	x6,800007ec	  x6=0x800007ec
       13805000	      1379	00000000	00000013	addi	x0,x0,0	  x0:0x00000000
       13815000	      1380	800007b4	00000013	addi	x0,x0,0	  x0:0x00000000
       13825000	      1381	800007b8	058000ef	jal	x1,800007b8	  x1=0x800007b8
       13835000	      1382	00000000	00000013	addi	x0,x0,0	  x0:0x00000000
       13845000	      1383	8000080c	00000013	addi	x0,x0,0	  x0:0x00000000
       13855000	      1384	80000810	008006ef	jal	x13,80000810	 x13=0x80000810
       13865000	      1385	00000000	00000013	addi	x0,x0,0	  x0:0x00000000
       13875000	      1386	80000814	00000013	addi	x0,x0,0	  x0:0x00000000
       13885000	      1387	80000818	fc1ff0ef	jal	x1,80000818	  x1=0x80000818
       13895000	      1388	00000000	00000013	addi	x0,x0,0	  x0:0x00000000
       13905000	      1389	800007d4	00000013	addi	x0,x0,0	  x0:0x00000000
       13915000	      1390	800007d8	0440036f	jal	x6,800007d8	  x6=0x800007d8
       13925000	      1391	00000000	00000013	addi	x0,x0,0	  x0:0x00000000
       13935000	      1392	80000818	00000013	addi	x0,x0,0	  x0:0x00000000
       13945000	      1393	8000081c	db84c993	xori	x19,x9,-584	  x9:0x80000718 x19=0x7ffffaa0
       13955000	      1394	80000820	0040036f	jal	x6,80000820	  x6=0x80000820
       13965000	      1395	00000000	00000013	addi	x0,x0,0	  x0:0x00000000
       13975000	      1396	80000820	00000013	addi	x0,x0,0	  x0:0x00000000
       13985000	      1397	80000824	0400056f	jal	x10,80000824	 x10=0x80000824
       13995000	      1398	00000000	00000013	addi	x0,x0,0	  x0:0x00000000
       14005000	      1399	80000860	00000013	addi	x0,x0,0	  x0:0x00000000
       14015000	      1400	80000864	fc9ff36f	jal	x6,80000864	  x6=0x80000864
       14025000	      1401	00000000	00000013	addi	x0,x0,0	  x0:0x00000000
       14035000	      1402	80000828	00000013	addi	x0,x0,0	  x0:0x00000000
       14045000	      1403	8000082c	0300036f	jal	x6,8000082c	  x6=0x8000082c
       14055000	      1404	00000000	00000013	addi	x0,x0,0	  x0:0x00000000
       14065000	      1405	80000858	00000013	addi	x0,x0,0	  x0:0x00000000
       14075000	      1406	8000085c	014000ef	jal	x1,8000085c	  x1=0x8000085c
       14085000	      1407	00000000	00000013	addi	x0,x0,0	  x0:0x00000000
       14095000	      1408	8000086c	00000013	addi	x0,x0,0	  x0:0x00000000
       14105000	      1409	80000870	004000ef	jal	x1,80000870	  x1=0x80000870
       14115000	      1410	00000000	00000013	addi	x0,x0,0	  x0:0x00000000
       14125000	      1411	80000870	00000013	addi	x0,x0,0	  x0:0x00000000
       14135000	      1412	80000874	00c000ef	jal	x1,80000874	  x1=0x80000874
       14145000	      1413	00000000	00000013	addi	x0,x0,0	  x0:0x00000000
       14155000	      1414	8000087c	00000013	addi	x0,x0,0	  x0:0x00000000
       14165000	      1415	80000880	fe9ffdef	jal	x27,80000880	 x27=0x80000880
       14175000	      1416	00000000	00000013	addi	x0,x0,0	  x0:0x00000000
       14185000	      1417	80000864	00000013	addi	x0,x0,0	  x0:0x00000000
       14195000	      1418	80000868	0140066f	jal	x12,80000868	 x12=0x80000868
       14205000	      1419	00000000	00000013	addi	x0,x0,0	  x0:0x00000000
       14215000	      1420	80000878	00000013	addi	x0,x0,0	  x0:0x00000000
       14225000	      1421	8000087c	fd5ff36f	jal	x6,8000087c	  x6=0x8000087c
       14235000	      1422	00000000	00000013	addi	x0,x0,0	  x0:0x00000000
       14245000	      1423	8000084c	00000013	addi	x0,x0,0	  x0:0x00000000
       14255000	      1424	80000850	fedff0ef	jal	x1,80000850	  x1=0x80000850
       14265000	      1425	00000000	00000013	addi	x0,x0,0	  x0:0x00000000
       14275000	      1426	80000838	00000013	addi	x0,x0,0	  x0:0x00000000
       14285000	      1427	8000083c	010000ef	jal	x1,8000083c	  x1=0x8000083c
       14295000	      1428	00000000	00000013	addi	x0,x0,0	  x0:0x00000000
       14305000	      1429	80000848	00000013	addi	x0,x0,0	  x0:0x00000000
       14315000	      1430	8000084c	fe9ff0ef	jal	x1,8000084c	  x1=0x8000084c
       14325000	      1431	00000000	00000013	addi	x0,x0,0	  x0:0x00000000
       14335000	      1432	80000830	00000013	addi	x0,x0,0	  x0:0x00000000
       14345000	      1433	80000834	ffdff0ef	jal	x1,80000834	  x1=0x80000834
       14355000	      1434	00000000	00000013	addi	x0,x0,0	  x0:0x00000000
       14365000	      1435	8000082c	00000013	addi	x0,x0,0	  x0:0x00000000
       14375000	      1436	80000830	028009ef	jal	x19,80000830	 x19=0x80000830
       14385000	      1437	00000000	00000013	addi	x0,x0,0	  x0:0x00000000
       14395000	      1438	80000854	00000013	addi	x0,x0,0	  x0:0x00000000
       14405000	      1439	80000858	0200036f	jal	x6,80000858	  x6=0x80000858
       14415000	      1440	00000000	00000013	addi	x0,x0,0	  x0:0x00000000
       14425000	      1441	80000874	00000013	addi	x0,x0,0	  x0:0x00000000
       14435000	      1442	80000878	fd1ff36f	jal	x6,80000878	  x6=0x80000878
       14445000	      1443	00000000	00000013	addi	x0,x0,0	  x0:0x00000000
       14455000	      1444	80000844	00000013	addi	x0,x0,0	  x0:0x00000000
       14465000	      1445	80000848	0240026f	jal	x4,80000848	  x4=0x80000848
       14475000	      1446	00000000	00000013	addi	x0,x0,0	  x0:0x00000000
       14485000	      1447	80000868	00000013	addi	x0,x0,0	  x0:0x00000000
       14495000	      1448	8000086c	fbdff36f	jal	x6,8000086c	  x6=0x8000086c
       14505000	      1449	00000000	00000013	addi	x0,x0,0	  x0:0x00000000
       14515000	      1450	80000824	00000013	addi	x0,x0,0	  x0:0x00000000
       14525000	      1451	80000828	010000ef	jal	x1,80000828	  x1=0x80000828
       14535000	      1452	00000000	00000013	addi	x0,x0,0	  x0:0x00000000
       14545000	      1453	80000834	00000013	addi	x0,x0,0	  x0:0x00000000
       14555000	      1454	80000838	0080056f	jal	x10,80000838	 x10=0x80000838
       14565000	      1455	00000000	00000013	addi	x0,x0,0	  x0:0x00000000
       14575000	      1456	8000083c	00000013	addi	x0,x0,0	  x0:0x00000000
       14585000	      1457	80000840	00400e6f	jal	x28,80000840	 x28=0x80000840
       14595000	      1458	00000000	00000013	addi	x0,x0,0	  x0:0x00000000
       14605000	      1459	80000840	00000013	addi	x0,x0,0	  x0:0x00000000
       14615000	      1460	80000844	010000ef	jal	x1,80000844	  x1=0x80000844
       14625000	      1461	00000000	00000013	addi	x0,x0,0	  x0:0x00000000
       14635000	      1462	80000850	00000013	addi	x0,x0,0	  x0:0x00000000
       14645000	      1463	80000854	00c0026f	jal	x4,80000854	  x4=0x80000854
       14655000	      1464	00000000	00000013	addi	x0,x0,0	  x0:0x00000000
       14665000	      1465	8000085c	00000013	addi	x0,x0,0	  x0:0x00000000
       14675000	      1466	80000860	024009ef	jal	x19,80000860	 x19=0x80000860
       14685000	      1467	00000000	00000013	addi	x0,x0,0	  x0:0x00000000
       14695000	      1468	80000880	00000013	addi	x0,x0,0	  x0:0x00000000
       14705000	      1469	80000884	00000013	addi	x0,x0,0	  x0:0x00000000
       14715000	      1470	80000888	0300036f	jal	x6,80000888	  x6=0x80000888
       14725000	      1471	00000000	00000013	addi	x0,x0,0	  x0:0x00000000
       14735000	      1472	800008b4	00000013	addi	x0,x0,0	  x0:0x00000000
       14745000	      1473	800008b8	ff5ff0ef	jal	x1,800008b8	  x1=0x800008b8
       14755000	      1474	00000000	00000013	addi	x0,x0,0	  x0:0x00000000
       14765000	      1475	800008a8	00000013	addi	x0,x0,0	  x0:0x00000000
       14775000	      1476	800008ac	004000ef	jal	x1,800008ac	  x1=0x800008ac
       14785000	      1477	00000000	00000013	addi	x0,x0,0	  x0:0x00000000
       14795000	      1478	800008ac	00000013	addi	x0,x0,0	  x0:0x00000000
       14805000	      1479	800008b0	fe1ff26f	jal	x4,800008b0	  x4=0x800008b0
       14815000	      1480	00000000	00000013	addi	x0,x0,0	  x0:0x00000000
       14825000	      1481	8000088c	00000013	addi	x0,x0,0	  x0:0x00000000
       14835000	      1482	80000890	0240036f	jal	x6,80000890	  x6=0x80000890
       14845000	      1483	00000000	00000013	addi	x0,x0,0	  x0:0x00000000
       14855000	      1484	800008b0	00000013	addi	x0,x0,0	  x0:0x00000000
       14865000	      1485	800008b4	ff5ff0ef	jal	x1,800008b4	  x1=0x800008b4
       14875000	      1486	00000000	00000013	addi	x0,x0,0	  x0:0x00000000
       14885000	      1487	800008a4	00000013	addi	x0,x0,0	  x0:0x00000000
       14895000	      1488	800008a8	ff5ff26f	jal	x4,800008a8	  x4=0x800008a8
       14905000	      1489	00000000	00000013	addi	x0,x0,0	  x0:0x00000000
       14915000	      1490	80000898	00000013	addi	x0,x0,0	  x0:0x00000000
       14925000	      1491	8000089c	ff9ff0ef	jal	x1,8000089c	  x1=0x8000089c
       14935000	      1492	00000000	00000013	addi	x0,x0,0	  x0:0x00000000
       14945000	      1493	80000890	00000013	addi	x0,x0,0	  x0:0x00000000
       14955000	      1494	80000894	0100036f	jal	x6,80000894	  x6=0x80000894
       14965000	      1495	00000000	00000013	addi	x0,x0,0	  x0:0x00000000
       14975000	      1496	800008a0	00000013	addi	x0,x0,0	  x0:0x00000000
       14985000	      1497	800008a4	ffdff0ef	jal	x1,800008a4	  x1=0x800008a4
       14995000	      1498	00000000	00000013	addi	x0,x0,0	  x0:0x00000000
       15005000	      1499	8000089c	00000013	addi	x0,x0,0	  x0:0x00000000
       15015000	      1500	800008a0	fedff0ef	jal	x1,800008a0	  x1=0x800008a0
       15025000	      1501	00000000	00000013	addi	x0,x0,0	  x0:0x00000000
       15035000	      1502	80000888	00000013	addi	x0,x0,0	  x0:0x00000000
       15045000	      1503	8000088c	00c0096f	jal	x18,8000088c	 x18=0x8000088c
       15055000	      1504	00000000	00000013	addi	x0,x0,0	  x0:0x00000000
       15065000	      1505	80000894	00000013	addi	x0,x0,0	  x0:0x00000000
       15075000	      1506	80000898	024000ef	jal	x1,80000898	  x1=0x80000898
       15085000	      1507	00000000	00000013	addi	x0,x0,0	  x0:0x00000000
       15095000	      1508	800008b8	00000013	addi	x0,x0,0	  x0:0x00000000
       15105000	      1509	800008bc	4150d513	srai	x10,x1,0x15	  x1:0x80000898 x10=0xfffffc00
       15115000	      1510	800008c0	0140036f	jal	x6,800008c0	  x6=0x800008c0
       15125000	      1511	00000000	00000013	addi	x0,x0,0	  x0:0x00000000
       15135000	      1512	800008d0	00000013	addi	x0,x0,0	  x0:0x00000000
       15145000	      1513	800008d4	0100016f	jal	x2,800008d4	  x2=0x800008d4
       15155000	      1514	00000000	00000013	addi	x0,x0,0	  x0:0x00000000
       15165000	      1515	800008e0	00000013	addi	x0,x0,0	  x0:0x00000000
       15175000	      1516	800008e4	ffdff2ef	jal	x5,800008e4	  x5=0x800008e4
       15185000	      1517	00000000	00000013	addi	x0,x0,0	  x0:0x00000000
       15195000	      1518	800008dc	00000013	addi	x0,x0,0	  x0:0x00000000
       15205000	      1519	800008e0	fe9ff0ef	jal	x1,800008e0	  x1=0x800008e0
       15215000	      1520	00000000	00000013	addi	x0,x0,0	  x0:0x00000000
       15225000	      1521	800008c4	00000013	addi	x0,x0,0	  x0:0x00000000
       15235000	      1522	800008c8	010000ef	jal	x1,800008c8	  x1=0x800008c8
       15245000	      1523	00000000	00000013	addi	x0,x0,0	  x0:0x00000000
       15255000	      1524	800008d4	00000013	addi	x0,x0,0	  x0:0x00000000
       15265000	      1525	800008d8	ff5ff36f	jal	x6,800008d8	  x6=0x800008d8
       15275000	      1526	00000000	00000013	addi	x0,x0,0	  x0:0x00000000
       15285000	      1527	800008c8	00000013	addi	x0,x0,0	  x0:0x00000000
       15295000	      1528	800008cc	01c000ef	jal	x1,800008cc	  x1=0x800008cc
       15305000	      1529	00000000	00000013	addi	x0,x0,0	  x0:0x00000000
       15315000	      1530	800008e4	00000013	addi	x0,x0,0	  x0:0x00000000
       15325000	      1531	800008e8	fe9ff36f	jal	x6,800008e8	  x6=0x800008e8
       15335000	      1532	00000000	00000013	addi	x0,x0,0	  x0:0x00000000
       15345000	      1533	800008cc	00000013	addi	x0,x0,0	  x0:0x00000000
       15355000	      1534	800008d0	ff5ff36f	jal	x6,800008d0	  x6=0x800008d0
       15365000	      1535	00000000	00000013	addi	x0,x0,0	  x0:0x00000000
       15375000	      1536	800008c0	00000013	addi	x0,x0,0	  x0:0x00000000
       15385000	      1537	800008c4	0180036f	jal	x6,800008c4	  x6=0x800008c4
       15395000	      1538	00000000	00000013	addi	x0,x0,0	  x0:0x00000000
       15405000	      1539	800008d8	00000013	addi	x0,x0,0	  x0:0x00000000
       15415000	      1540	800008dc	010000ef	jal	x1,800008dc	  x1=0x800008dc
       15425000	      1541	00000000	00000013	addi	x0,x0,0	  x0:0x00000000
       15435000	      1542	800008e8	00000013	addi	x0,x0,0	  x0:0x00000000
       15445000	      1543	800008ec	411a8d33	sub	x26,x21,x17	 x21:0x8000078c x17:0x80000768 x26=0x00000024
       15455000	      1544	800008f0	0100036f	jal	x6,800008f0	  x6=0x800008f0
       15465000	      1545	00000000	00000013	addi	x0,x0,0	  x0:0x00000000
       15475000	      1546	800008fc	00000013	addi	x0,x0,0	  x0:0x00000000
       15485000	      1547	80000900	01000d6f	jal	x26,80000900	 x26=0x80000900
       15495000	      1548	00000000	00000013	addi	x0,x0,0	  x0:0x00000000
       15505000	      1549	8000090c	00000013	addi	x0,x0,0	  x0:0x00000000
       15515000	      1550	80000910	ffdff0ef	jal	x1,80000910	  x1=0x80000910
       15525000	      1551	00000000	00000013	addi	x0,x0,0	  x0:0x00000000
       15535000	      1552	80000908	00000013	addi	x0,x0,0	  x0:0x00000000
       15545000	      1553	8000090c	ff1ff0ef	jal	x1,8000090c	  x1=0x8000090c
       15555000	      1554	00000000	00000013	addi	x0,x0,0	  x0:0x00000000
       15565000	      1555	800008f8	00000013	addi	x0,x0,0	  x0:0x00000000
       15575000	      1556	800008fc	020000ef	jal	x1,800008fc	  x1=0x800008fc
       15585000	      1557	00000000	00000013	addi	x0,x0,0	  x0:0x00000000
       15595000	      1558	80000918	00000013	addi	x0,x0,0	  x0:0x00000000
       15605000	      1559	8000091c	fddff7ef	jal	x15,8000091c	 x15=0x8000091c
       15615000	      1560	00000000	00000013	addi	x0,x0,0	  x0:0x00000000
       15625000	      1561	800008f4	00000013	addi	x0,x0,0	  x0:0x00000000
       15635000	      1562	800008f8	0100046f	jal	x8,800008f8	  x8=0x800008f8
       15645000	      1563	00000000	00000013	addi	x0,x0,0	  x0:0x00000000
       15655000	      1564	80000904	00000013	addi	x0,x0,0	  x0:0x00000000
       15665000	      1565	80000908	00c000ef	jal	x1,80000908	  x1=0x80000908
       15675000	      1566	00000000	00000013	addi	x0,x0,0	  x0:0x00000000
       15685000	      1567	80000910	00000013	addi	x0,x0,0	  x0:0x00000000
       15695000	      1568	80000914	fe1ff0ef	jal	x1,80000914	  x1=0x80000914
       15705000	      1569	00000000	00000013	addi	x0,x0,0	  x0:0x00000000
       15715000	      1570	800008f0	00000013	addi	x0,x0,0	  x0:0x00000000
       15725000	      1571	800008f4	024000ef	jal	x1,800008f4	  x1=0x800008f4
       15735000	      1572	00000000	00000013	addi	x0,x0,0	  x0:0x00000000
       15745000	      1573	80000914	00000013	addi	x0,x0,0	  x0:0x00000000
       15755000	      1574	80000918	fedff1ef	jal	x3,80000918	  x3=0x80000918
       15765000	      1575	00000000	00000013	addi	x0,x0,0	  x0:0x00000000
       15775000	      1576	80000900	00000013	addi	x0,x0,0	  x0:0x00000000
       15785000	      1577	80000904	020000ef	jal	x1,80000904	  x1=0x80000904
       15795000	      1578	00000000	00000013	addi	x0,x0,0	  x0:0x00000000
       15805000	      1579	80000920	00000013	addi	x0,x0,0	  x0:0x00000000
       15815000	      1580	80000924	ffdff36f	jal	x6,80000924	  x6=0x80000924
       15825000	      1581	00000000	00000013	addi	x0,x0,0	  x0:0x00000000
       15835000	      1582	8000091c	00000013	addi	x0,x0,0	  x0:0x00000000
       15845000	      1583	80000920	0080036f	jal	x6,80000920	  x6=0x80000920
       15855000	      1584	00000000	00000013	addi	x0,x0,0	  x0:0x00000000
       15865000	      1585	80000924	00000013	addi	x0,x0,0	  x0:0x00000000
       15875000	      1586	80000928	01f14bb3	xor	x23,x2,x31	  x2:0x800008d4 x31:0x8000032c x23=0x00000bf8
       15885000	      1587	8000092c	03c0036f	jal	x6,8000092c	  x6=0x8000092c
       15895000	      1588	00000000	00000013	addi	x0,x0,0	  x0:0x00000000
       15905000	      1589	80000964	00000013	addi	x0,x0,0	  x0:0x00000000
       15915000	      1590	80000968	02c000ef	jal	x1,80000968	  x1=0x80000968
       15925000	      1591	00000000	00000013	addi	x0,x0,0	  x0:0x00000000
       15935000	      1592	80000990	00000013	addi	x0,x0,0	  x0:0x00000000
       15945000	      1593	80000994	ff9ff36f	jal	x6,80000994	  x6=0x80000994
       15955000	      1594	00000000	00000013	addi	x0,x0,0	  x0:0x00000000
       15965000	      1595	80000988	00000013	addi	x0,x0,0	  x0:0x00000000
       15975000	      1596	8000098c	fc1ff36f	jal	x6,8000098c	  x6=0x8000098c
       15985000	      1597	00000000	00000013	addi	x0,x0,0	  x0:0x00000000
       15995000	      1598	80000948	00000013	addi	x0,x0,0	  x0:0x00000000
       16005000	      1599	8000094c	ff5ff0ef	jal	x1,8000094c	  x1=0x8000094c
       16015000	      1600	00000000	00000013	addi	x0,x0,0	  x0:0x00000000
       16025000	      1601	8000093c	00000013	addi	x0,x0,0	  x0:0x00000000
       16035000	      1602	80000940	ff1fff6f	jal	x30,80000940	 x30=0x80000940
       16045000	      1603	00000000	00000013	addi	x0,x0,0	  x0:0x00000000
       16055000	      1604	8000092c	00000013	addi	x0,x0,0	  x0:0x00000000
       16065000	      1605	80000930	0480036f	jal	x6,80000930	  x6=0x80000930
       16075000	      1606	00000000	00000013	addi	x0,x0,0	  x0:0x00000000
       16085000	      1607	80000974	00000013	addi	x0,x0,0	  x0:0x00000000
       16095000	      1608	80000978	0100036f	jal	x6,80000978	  x6=0x80000978
       16105000	      1609	00000000	00000013	addi	x0,x0,0	  x0:0x00000000
       16115000	      1610	80000984	00000013	addi	x0,x0,0	  x0:0x00000000
       16125000	      1611	80000988	fd1ff16f	jal	x2,80000988	  x2=0x80000988
       16135000	      1612	00000000	00000013	addi	x0,x0,0	  x0:0x00000000
       16145000	      1613	80000954	00000013	addi	x0,x0,0	  x0:0x00000000
       16155000	      1614	80000958	ff9ff36f	jal	x6,80000958	  x6=0x80000958
       16165000	      1615	00000000	00000013	addi	x0,x0,0	  x0:0x00000000
       16175000	      1616	8000094c	00000013	addi	x0,x0,0	  x0:0x00000000
       16185000	      1617	80000950	00c0036f	jal	x6,80000950	  x6=0x80000950
       16195000	      1618	00000000	00000013	addi	x0,x0,0	  x0:0x00000000
       16205000	      1619	80000958	00000013	addi	x0,x0,0	  x0:0x00000000
       16215000	      1620	8000095c	014000ef	jal	x1,8000095c	  x1=0x8000095c
       16225000	      1621	00000000	00000013	addi	x0,x0,0	  x0:0x00000000
       16235000	      1622	8000096c	00000013	addi	x0,x0,0	  x0:0x00000000
       16245000	      1623	80000970	fd9ff4ef	jal	x9,80000970	  x9=0x80000970
       16255000	      1624	00000000	00000013	addi	x0,x0,0	  x0:0x00000000
       16265000	      1625	80000944	00000013	addi	x0,x0,0	  x0:0x00000000
       16275000	      1626	80000948	03c000ef	jal	x1,80000948	  x1=0x80000948
       16285000	      1627	00000000	00000013	addi	x0,x0,0	  x0:0x00000000
       16295000	      1628	80000980	00000013	addi	x0,x0,0	  x0:0x00000000
       16305000	      1629	80000984	ffdff0ef	jal	x1,80000984	  x1=0x80000984
       16315000	      1630	00000000	00000013	addi	x0,x0,0	  x0:0x00000000
       16325000	      1631	8000097c	00000013	addi	x0,x0,0	  x0:0x00000000
       16335000	      1632	80000980	fb5ff36f	jal	x6,80000980	  x6=0x80000980
       16345000	      1633	00000000	00000013	addi	x0,x0,0	  x0:0x00000000
       16355000	      1634	80000930	00000013	addi	x0,x0,0	  x0:0x00000000
       16365000	      1635	80000934	00800bef	jal	x23,80000934	 x23=0x80000934
       16375000	      1636	00000000	00000013	addi	x0,x0,0	  x0:0x00000000
       16385000	      1637	80000938	00000013	addi	x0,x0,0	  x0:0x00000000
       16395000	      1638	8000093c	ffdffcef	jal	x25,8000093c	 x25=0x8000093c
       16405000	      1639	00000000	00000013	addi	x0,x0,0	  x0:0x00000000
       16415000	      1640	80000934	00000013	addi	x0,x0,0	  x0:0x00000000
       16425000	      1641	80000938	02c0036f	jal	x6,80000938	  x6=0x80000938
       16435000	      1642	00000000	00000013	addi	x0,x0,0	  x0:0x00000000
       16445000	      1643	80000960	00000013	addi	x0,x0,0	  x0:0x00000000
       16455000	      1644	80000964	008000ef	jal	x1,80000964	  x1=0x80000964
       16465000	      1645	00000000	00000013	addi	x0,x0,0	  x0:0x00000000
       16475000	      1646	80000968	00000013	addi	x0,x0,0	  x0:0x00000000
       16485000	      1647	8000096c	010002ef	jal	x5,8000096c	  x5=0x8000096c
       16495000	      1648	00000000	00000013	addi	x0,x0,0	  x0:0x00000000
       16505000	      1649	80000978	00000013	addi	x0,x0,0	  x0:0x00000000
       16515000	      1650	8000097c	fe5ff0ef	jal	x1,8000097c	  x1=0x8000097c
       16525000	      1651	00000000	00000013	addi	x0,x0,0	  x0:0x00000000
       16535000	      1652	8000095c	00000013	addi	x0,x0,0	  x0:0x00000000
       16545000	      1653	80000960	fe5ff36f	jal	x6,80000960	  x6=0x80000960
       16555000	      1654	00000000	00000013	addi	x0,x0,0	  x0:0x00000000
       16565000	      1655	80000940	00000013	addi	x0,x0,0	  x0:0x00000000
       16575000	      1656	80000944	0100036f	jal	x6,80000944	  x6=0x80000944
       16585000	      1657	00000000	00000013	addi	x0,x0,0	  x0:0x00000000
       16595000	      1658	80000950	00000013	addi	x0,x0,0	  x0:0x00000000
       16605000	      1659	80000954	03c000ef	jal	x1,80000954	  x1=0x80000954
       16615000	      1660	00000000	00000013	addi	x0,x0,0	  x0:0x00000000
       16625000	      1661	8000098c	00000013	addi	x0,x0,0	  x0:0x00000000
       16635000	      1662	80000990	fe5ff0ef	jal	x1,80000990	  x1=0x80000990
       16645000	      1663	00000000	00000013	addi	x0,x0,0	  x0:0x00000000
       16655000	      1664	80000970	00000013	addi	x0,x0,0	  x0:0x00000000
       16665000	      1665	80000974	02400eef	jal	x29,80000974	 x29=0x80000974
       16675000	      1666	00000000	00000013	addi	x0,x0,0	  x0:0x00000000
       16685000	      1667	80000994	00000013	addi	x0,x0,0	  x0:0x00000000
       16695000	      1668	80000998	01e6c2b3	xor	x5,x13,x30	 x13:0x80000810 x30:0x80000940  x5=0x00000150
       16705000	      1669	8000099c	01d08933	add	x18,x1,x29	  x1:0x80000990 x29:0x80000974 x18=0x00001304
       16715000	      1670	800009a0	48273693	sltiu	x13,x14,1154	 x14:0x80000650 x13=0x00000000
       16725000	      1671	800009a4	017771b3	and	x3,x14,x23	 x14:0x80000650 x23:0x80000934  x3=0x80000010
       16735000	      1672	800009a8	4105d733	sra	x14,x11,x16	 x11:0x80009f84 x16:0x0d9b0d2b x14=0xfff00013
       16745000	      1673	800009ac	013fe9b3	or	x19,x31,x19	 x31:0x8000032c x19:0x80000860 x19=0x80000b6c
       16755000	      1674	800009b0	40b0df93	srai	x31,x1,0xb	  x1:0x80000990 x31=0xfff00001
       16765000	      1675	800009b4	00abc2b3	xor	x5,x23,x10	 x23:0x80000934 x10:0xfffffc00  x5=0x7ffff534
       16775000	      1676	800009b8	01b29b93	slli	x23,x5,0x1b	  x5:0x7ffff534 x23=0xa0000000
       16785000	      1677	800009bc	00095293	srli	x5,x18,0x0	 x18:0x00001304  x5=0x00001304
       16795000	      1678	800009c0	413f5293	srai	x5,x30,0x13	 x30:0x80000940  x5=0xfffff000
       16805000	      1679	800009c4	32404613	xori	x12,x0,804	  x0:0x00000000 x12=0x00000324
       16815000	      1680	800009c8	0060b533	sltu	x10,x1,x6	  x1:0x80000990  x6:0x80000944 x10=0x00000000
       16825000	      1681	800009cc	00d1ec33	or	x24,x3,x13	  x3:0x80000010 x13:0x00000000 x24=0x80000010
       16835000	      1682	800009d0	002f5e63	bge	x30,x2,800009ec	 x30:0x80000940  x2:0x80000988
       16845000	      1683	800009d4	031e1a63	bne	x28,x17,80000a08	 x28:0x80000840 x17:0x80000768
       16855000	      1684	00000000	00000013	addi	x0,x0,0	  x0:0x00000000
       16865000	      1685	80000a04	00000013	addi	x0,x0,0	  x0:0x00000000
       16875000	      1686	80000a08	02764e63	blt	x12,x7,80000a44	 x12:0x00000324  x7:0x80009fc4
       16885000	      1687	80000a0c	00b30db3	add	x27,x6,x11	  x6:0x80000944 x11:0x80009f84 x27=0x0000a8c8
       16895000	      1688	80000a10	01116a33	or	x20,x2,x17	  x2:0x80000988 x17:0x80000768 x20=0x80000fe8
       16905000	      1689	80000a14	00000013	addi	x0,x0,0	  x0:0x00000000
       16915000	      1690	80000a18	08290663	beq	x18,x2,80000aa4	 x18:0x00001304  x2:0x80000988
       16925000	      1691	80000a1c	7be84893	xori	x17,x16,1982	 x16:0x0d9b0d2b x17=0x0d9b0a95
       16935000	      1692	80000a20	40a05c93	srai	x25,x0,0xa	  x0:0x00000000 x25=0x00000000
       16945000	      1693	80000a24	01205793	srli	x15,x0,0x12	  x0:0x00000000 x15=0x00000000
       16955000	      1694	80000a28	40420e33	sub	x28,x4,x4	  x4:0x800008a8  x4:0x800008a8 x28=0x00000000
       16965000	      1695	80000a2c	013edc63	bge	x29,x19,80000a44	 x29:0x80000974 x19:0x80000b6c
       16975000	      1696	80000a30	0090da63	bge	x1,x9,80000a44	  x1:0x80000990  x9:0x80000970
       16985000	      1697	00000000	00000013	addi	x0,x0,0	  x0:0x00000000
       16995000	      1698	80000a40	00000013	addi	x0,x0,0	  x0:0x00000000
       17005000	      1699	80000a44	00000013	addi	x0,x0,0	  x0:0x00000000
       17015000	      1700	80000a48	cfe4c713	xori	x14,x9,-770	  x9:0x80000970 x14=0x7ffff58e
       17025000	      1701	80000a4c	64947d13	andi	x26,x8,1609	  x8:0x800008f8 x26=0x00000048
       17035000	      1702	80000a50	904e0d93	addi	x27,x28,-1788	 x28:0x00000000 x27=0xfffff904
       17045000	      1703	80000a54	0100036f	jal	x6,80000a54	  x6=0x80000a54
       17055000	      1704	00000000	00000013	addi	x0,x0,0	  x0:0x00000000
       17065000	      1705	80000a60	00000013	addi	x0,x0,0	  x0:0x00000000
       17075000	      1706	80000a64	018000ef	jal	x1,80000a64	  x1=0x80000a64
       17085000	      1707	00000000	00000013	addi	x0,x0,0	  x0:0x00000000
       17095000	      1708	80000a78	00000013	addi	x0,x0,0	  x0:0x00000000
       17105000	      1709	80000a7c	014000ef	jal	x1,80000a7c	  x1=0x80000a7c
       17115000	      1710	00000000	00000013	addi	x0,x0,0	  x0:0x00000000
       17125000	      1711	80000a8c	00000013	addi	x0,x0,0	  x0:0x00000000
       17135000	      1712	80000a90	fe9ff0ef	jal	x1,80000a90	  x1=0x80000a90
       17145000	      1713	00000000	00000013	addi	x0,x0,0	  x0:0x00000000
       17155000	      1714	80000a74	00000013	addi	x0,x0,0	  x0:0x00000000
       17165000	      1715	80000a78	008000ef	jal	x1,80000a78	  x1=0x80000a78
       17175000	      1716	00000000	00000013	addi	x0,x0,0	  x0:0x00000000
       17185000	      1717	80000a7c	00000013	addi	x0,x0,0	  x0:0x00000000
       17195000	      1718	80000a80	00800b6f	jal	x22,80000a80	 x22=0x80000a80
       17205000	      1719	00000000	00000013	addi	x0,x0,0	  x0:0x00000000
       17215000	      1720	80000a84	00000013	addi	x0,x0,0	  x0:0x00000000
       17225000	      1721	80000a88	fd5ff46f	jal	x8,80000a88	  x8=0x80000a88
       17235000	      1722	00000000	00000013	addi	x0,x0,0	  x0:0x00000000
       17245000	      1723	80000a58	00000013	addi	x0,x0,0	  x0:0x00000000
       17255000	      1724	80000a5c	030000ef	jal	x1,80000a5c	  x1=0x80000a5c
       17265000	      1725	00000000	00000013	addi	x0,x0,0	  x0:0x00000000
       17275000	      1726	80000a88	00000013	addi	x0,x0,0	  x0:0x00000000
       17285000	      1727	80000a8c	ff9ff0ef	jal	x1,80000a8c	  x1=0x80000a8c
       17295000	      1728	00000000	00000013	addi	x0,x0,0	  x0:0x00000000
       17305000	      1729	80000a80	00000013	addi	x0,x0,0	  x0:0x00000000
       17315000	      1730	80000a84	fd5ff36f	jal	x6,80000a84	  x6=0x80000a84
       17325000	      1731	00000000	00000013	addi	x0,x0,0	  x0:0x00000000
       17335000	      1732	80000a54	00000013	addi	x0,x0,0	  x0:0x00000000
       17345000	      1733	80000a58	0080036f	jal	x6,80000a58	  x6=0x80000a58
       17355000	      1734	00000000	00000013	addi	x0,x0,0	  x0:0x00000000
       17365000	      1735	80000a5c	00000013	addi	x0,x0,0	  x0:0x00000000
       17375000	      1736	80000a60	034000ef	jal	x1,80000a60	  x1=0x80000a60
       17385000	      1737	00000000	00000013	addi	x0,x0,0	  x0:0x00000000
       17395000	      1738	80000a90	00000013	addi	x0,x0,0	  x0:0x00000000
       17405000	      1739	80000a94	fddff0ef	jal	x1,80000a94	  x1=0x80000a94
       17415000	      1740	00000000	00000013	addi	x0,x0,0	  x0:0x00000000
       17425000	      1741	80000a6c	00000013	addi	x0,x0,0	  x0:0x00000000
       17435000	      1742	80000a70	ff9ff96f	jal	x18,80000a70	 x18=0x80000a70
       17445000	      1743	00000000	00000013	addi	x0,x0,0	  x0:0x00000000
       17455000	      1744	80000a64	00000013	addi	x0,x0,0	  x0:0x00000000
       17465000	      1745	80000a68	0040036f	jal	x6,80000a68	  x6=0x80000a68
       17475000	      1746	00000000	00000013	addi	x0,x0,0	  x0:0x00000000
       17485000	      1747	80000a68	00000013	addi	x0,x0,0	  x0:0x00000000
       17495000	      1748	80000a6c	008000ef	jal	x1,80000a6c	  x1=0x80000a6c
       17505000	      1749	00000000	00000013	addi	x0,x0,0	  x0:0x00000000
       17515000	      1750	80000a70	00000013	addi	x0,x0,0	  x0:0x00000000
       17525000	      1751	80000a74	024000ef	jal	x1,80000a74	  x1=0x80000a74
       17535000	      1752	00000000	00000013	addi	x0,x0,0	  x0:0x00000000
       17545000	      1753	80000a94	00000013	addi	x0,x0,0	  x0:0x00000000
       17555000	      1754	80000a98	00e6d533	srl	x10,x13,x14	 x13:0x00000000 x14:0x7ffff58e x10=0x00000000
       17565000	      1755	80000a9c	052f9063	bne	x31,x18,80000adc	 x31:0xfff00001 x18:0x80000a70
       17575000	      1756	00000000	00000013	addi	x0,x0,0	  x0:0x00000000
       17585000	      1757	80000ad8	00000013	addi	x0,x0,0	  x0:0x00000000
       17595000	      1758	80000adc	00ddb033	sltu	x0,x27,x13	 x27:0xfffff904 x13:0x00000000
       17605000	      1759	80000ae0	000c47b3	xor	x15,x24,x0	 x24:0x80000010  x0:0x00000000 x15=0x80000010
       17615000	      1760	80000ae4	05761863	bne	x12,x23,80000b34	 x12:0x00000324 x23:0xa0000000
       17625000	      1761	00000000	00000013	addi	x0,x0,0	  x0:0x00000000
       17635000	      1762	80000b30	00000013	addi	x0,x0,0	  x0:0x00000000
       17645000	      1763	80000b34	024a5c63	bge	x20,x4,80000b6c	 x20:0x80000fe8  x4:0x800008a8
       17655000	      1764	00000000	00000013	addi	x0,x0,0	  x0:0x00000000
       17665000	      1765	80000b68	00000013	addi	x0,x0,0	  x0:0x00000000
       17675000	      1766	80000b6c	41d55113	srai	x2,x10,0x1d	 x10:0x00000000  x2=0x00000000
       17685000	      1767	80000b70	06406c63	bltu	x0,x4,80000be8	  x0:0x00000000  x4:0x800008a8
       17695000	      1768	00000000	00000013	addi	x0,x0,0	  x0:0x00000000
       17705000	      1769	80000be4	00000013	addi	x0,x0,0	  x0:0x00000000
       17715000	      1770	80000be8	000d34b3	sltu	x9,x26,x0	 x26:0x00000048  x0:0x00000000  x9=0x00000000
       17725000	      1771	80000bec	00727463	bgeu	x4,x7,80000bf4	  x4:0x800008a8  x7:0x80009fc4
       17735000	      1772	80000bf0	01f78b33	add	x22,x15,x31	 x15:0x80000010 x31:0xfff00001 x22=0x7ff00011
       17745000	      1773	80000bf4	6fdb7713	andi	x14,x22,1789	 x22:0x7ff00011 x14=0x00000011
       17755000	      1774	80000bf8	418fda93	srai	x21,x31,0x18	 x31:0xfff00001 x21=0xffffffff
       17765000	      1775	80000bfc	01c127b3	slt	x15,x2,x28	  x2:0x00000000 x28:0x00000000 x15=0x00000000
       17775000	      1776	80000c00	0187e233	or	x4,x15,x24	 x15:0x00000000 x24:0x80000010  x4=0x80000010
       17785000	      1777	80000c04	0289ea63	bltu	x19,x8,80000c38	 x19:0x80000b6c  x8:0x80000a88
       17795000	      1778	80000c08	d12d7a13	andi	x20,x26,-750	 x26:0x00000048 x20=0x00000000
       17805000	      1779	80000c0c	0312fe63	bgeu	x5,x17,80000c48	  x5:0xfffff000 x17:0x0d9b0a95
       17815000	      1780	00000000	00000013	addi	x0,x0,0	  x0:0x00000000
       17825000	      1781	80000c44	00000013	addi	x0,x0,0	  x0:0x00000000
       17835000	      1782	80000c48	8cb5c697	auipc	x13,0x8cb5c	 x13=0x0cb5cc44
       17845000	      1783	80000c4c	0016c4b3	xor	x9,x13,x1	 x13:0x0cb5cc44  x1:0x80000a74  x9=0x8cb5c630
       17855000	      1784	80000c50	5669fb93	andi	x23,x19,1382	 x19:0x80000b6c x23=0x00000164
       17865000	      1785	80000c54	024bee63	bltu	x23,x4,80000c90	 x23:0x00000164  x4:0x80000010
       17875000	      1786	00000000	00000013	addi	x0,x0,0	  x0:0x00000000
       17885000	      1787	80000c8c	00000013	addi	x0,x0,0	  x0:0x00000000
       17895000	      1788	80000c90	00dffbb3	and	x23,x31,x13	 x31:0xfff00001 x13:0x0cb5cc44 x23=0x0cb00000
       17905000	      1789	80000c94	3fcd8b93	addi	x23,x27,1020	 x27:0xfffff904 x23=0xfffffd00
       17915000	      1790	80000c98	529f2f93	slti	x31,x30,1321	 x30:0x80000940 x31=0x00000001
       17925000	      1791	80000c9c	01daf233	and	x4,x21,x29	 x21:0xffffffff x29:0x80000974  x4=0x80000974
       17935000	      1792	80000ca0	0085cf33	xor	x30,x11,x8	 x11:0x80009f84  x8:0x80000a88 x30=0x0000950c
       17945000	      1793	80000ca4	04e67063	bgeu	x12,x14,80000ce4	 x12:0x00000324 x14:0x00000011
       17955000	      1794	00000000	00000013	addi	x0,x0,0	  x0:0x00000000
       17965000	      1795	80000ce0	00000013	addi	x0,x0,0	  x0:0x00000000
       17975000	      1796	80000ce4	004db333	sltu	x6,x27,x4	 x27:0xfffff904  x4:0x80000974  x6=0x00000000
       17985000	      1797	80000ce8	130e8663	beq	x29,x16,80000e14	 x29:0x80000974 x16:0x0d9b0d2b
       17995000	      1798	80000cec	e3ce0313	addi	x6,x28,-452	 x28:0x00000000  x6=0xfffffe3c
       18005000	      1799	80000cf0	9f753c13	sltiu	x24,x10,-1545	 x10:0x00000000 x24=0x00000001
       18015000	      1800	80000cf4	01c34db3	xor	x27,x6,x28	  x6:0xfffffe3c x28:0x00000000 x27=0xfffffe3c
       18025000	      1801	80000cf8	0ab84663	blt	x16,x11,80000da4	 x16:0x0d9b0d2b x11:0x80009f84
       18035000	      1802	80000cfc	000f1113	slli	x2,x30,0x0	 x30:0x0000950c  x2=0x0000950c
       18045000	      1803	80000d00	0113c8b3	xor	x17,x7,x17	  x7:0x80009fc4 x17:0x0d9b0a95 x17=0x8d9b9551
       18055000	      1804	80000d04	41f15093	srai	x1,x2,0x1f	  x2:0x0000950c  x1=0x00000000
       18065000	      1805	80000d08	00fcd333	srl	x6,x25,x15	 x25:0x00000000 x15:0x00000000  x6=0x00000000
       18075000	      1806	80000d0c	00000013	addi	x0,x0,0	  x0:0x00000000
       18085000	      1807	80000d10	03c0036f	jal	x6,80000d10	  x6=0x80000d10
       18095000	      1808	00000000	00000013	addi	x0,x0,0	  x0:0x00000000
       18105000	      1809	80000d48	00000013	addi	x0,x0,0	  x0:0x00000000
       18115000	      1810	80000d4c	00c000ef	jal	x1,80000d4c	  x1=0x80000d4c
       18125000	      1811	00000000	00000013	addi	x0,x0,0	  x0:0x00000000
       18135000	      1812	80000d54	00000013	addi	x0,x0,0	  x0:0x00000000
       18145000	      1813	80000d58	fedff0ef	jal	x1,80000d58	  x1=0x80000d58
       18155000	      1814	00000000	00000013	addi	x0,x0,0	  x0:0x00000000
       18165000	      1815	80000d40	00000013	addi	x0,x0,0	  x0:0x00000000
       18175000	      1816	80000d44	030000ef	jal	x1,80000d44	  x1=0x80000d44
       18185000	      1817	00000000	00000013	addi	x0,x0,0	  x0:0x00000000
       18195000	      1818	80000d70	00000013	addi	x0,x0,0	  x0:0x00000000
       18205000	      1819	80000d74	00400def	jal	x27,80000d74	 x27=0x80000d74
       18215000	      1820	00000000	00000013	addi	x0,x0,0	  x0:0x00000000
       18225000	      1821	80000d74	00000013	addi	x0,x0,0	  x0:0x00000000
       18235000	      1822	80000d78	fb9ff0ef	jal	x1,80000d78	  x1=0x80000d78
       18245000	      1823	00000000	00000013	addi	x0,x0,0	  x0:0x00000000
       18255000	      1824	80000d2c	00000013	addi	x0,x0,0	  x0:0x00000000
       18265000	      1825	80000d30	010000ef	jal	x1,80000d30	  x1=0x80000d30
       18275000	      1826	00000000	00000013	addi	x0,x0,0	  x0:0x00000000
       18285000	      1827	80000d3c	00000013	addi	x0,x0,0	  x0:0x00000000
       18295000	      1828	80000d40	030001ef	jal	x3,80000d40	  x3=0x80000d40
       18305000	      1829	00000000	00000013	addi	x0,x0,0	  x0:0x00000000
       18315000	      1830	80000d6c	00000013	addi	x0,x0,0	  x0:0x00000000
       18325000	      1831	80000d70	fadff36f	jal	x6,80000d70	  x6=0x80000d70
       18335000	      1832	00000000	00000013	addi	x0,x0,0	  x0:0x00000000
       18345000	      1833	80000d18	00000013	addi	x0,x0,0	  x0:0x00000000
       18355000	      1834	80000d1c	04c000ef	jal	x1,80000d1c	  x1=0x80000d1c
       18365000	      1835	00000000	00000013	addi	x0,x0,0	  x0:0x00000000
       18375000	      1836	80000d64	00000013	addi	x0,x0,0	  x0:0x00000000
       18385000	      1837	80000d68	fb1ff1ef	jal	x3,80000d68	  x3=0x80000d68
       18395000	      1838	00000000	00000013	addi	x0,x0,0	  x0:0x00000000
       18405000	      1839	80000d14	00000013	addi	x0,x0,0	  x0:0x00000000
       18415000	      1840	80000d18	04400fef	jal	x31,80000d18	 x31=0x80000d18
       18425000	      1841	00000000	00000013	addi	x0,x0,0	  x0:0x00000000
       18435000	      1842	80000d58	00000013	addi	x0,x0,0	  x0:0x00000000
       18445000	      1843	80000d5c	fcdff0ef	jal	x1,80000d5c	  x1=0x80000d5c
       18455000	      1844	00000000	00000013	addi	x0,x0,0	  x0:0x00000000
       18465000	      1845	80000d24	00000013	addi	x0,x0,0	  x0:0x00000000
       18475000	      1846	80000d28	fedff36f	jal	x6,80000d28	  x6=0x80000d28
       18485000	      1847	00000000	00000013	addi	x0,x0,0	  x0:0x00000000
       18495000	      1848	80000d10	00000013	addi	x0,x0,0	  x0:0x00000000
       18505000	      1849	80000d14	03c0036f	jal	x6,80000d14	  x6=0x80000d14
       18515000	      1850	00000000	00000013	addi	x0,x0,0	  x0:0x00000000
       18525000	      1851	80000d4c	00000013	addi	x0,x0,0	  x0:0x00000000
       18535000	      1852	80000d50	004001ef	jal	x3,80000d50	  x3=0x80000d50
       18545000	      1853	00000000	00000013	addi	x0,x0,0	  x0:0x00000000
       18555000	      1854	80000d50	00000013	addi	x0,x0,0	  x0:0x00000000
       18565000	      1855	80000d54	028000ef	jal	x1,80000d54	  x1=0x80000d54
       18575000	      1856	00000000	00000013	addi	x0,x0,0	  x0:0x00000000
       18585000	      1857	80000d78	00000013	addi	x0,x0,0	  x0:0x00000000
       18595000	      1858	80000d7c	fc1ff26f	jal	x4,80000d7c	  x4=0x80000d7c
       18605000	      1859	00000000	00000013	addi	x0,x0,0	  x0:0x00000000
       18615000	      1860	80000d38	00000013	addi	x0,x0,0	  x0:0x00000000
       18625000	      1861	80000d3c	ff1ff0ef	jal	x1,80000d3c	  x1=0x80000d3c
       18635000	      1862	00000000	00000013	addi	x0,x0,0	  x0:0x00000000
       18645000	      1863	80000d28	00000013	addi	x0,x0,0	  x0:0x00000000
       18655000	      1864	80000d2c	00c0026f	jal	x4,80000d2c	  x4=0x80000d2c
       18665000	      1865	00000000	00000013	addi	x0,x0,0	  x0:0x00000000
       18675000	      1866	80000d34	00000013	addi	x0,x0,0	  x0:0x00000000
       18685000	      1867	80000d38	ffdffd6f	jal	x26,80000d38	 x26=0x80000d38
       18695000	      1868	00000000	00000013	addi	x0,x0,0	  x0:0x00000000
       18705000	      1869	80000d30	00000013	addi	x0,x0,0	  x0:0x00000000
       18715000	      1870	80000d34	fedff0ef	jal	x1,80000d34	  x1=0x80000d34
       18725000	      1871	00000000	00000013	addi	x0,x0,0	  x0:0x00000000
       18735000	      1872	80000d1c	00000013	addi	x0,x0,0	  x0:0x00000000
       18745000	      1873	80000d20	0440026f	jal	x4,80000d20	  x4=0x80000d20
       18755000	      1874	00000000	00000013	addi	x0,x0,0	  x0:0x00000000
       18765000	      1875	80000d60	00000013	addi	x0,x0,0	  x0:0x00000000
       18775000	      1876	80000d64	ffdff0ef	jal	x1,80000d64	  x1=0x80000d64
       18785000	      1877	00000000	00000013	addi	x0,x0,0	  x0:0x00000000
       18795000	      1878	80000d5c	00000013	addi	x0,x0,0	  x0:0x00000000
       18805000	      1879	80000d60	fe9ff36f	jal	x6,80000d60	  x6=0x80000d60
       18815000	      1880	00000000	00000013	addi	x0,x0,0	  x0:0x00000000
       18825000	      1881	80000d44	00000013	addi	x0,x0,0	  x0:0x00000000
       18835000	      1882	80000d48	fddff0ef	jal	x1,80000d48	  x1=0x80000d48
       18845000	      1883	00000000	00000013	addi	x0,x0,0	  x0:0x00000000
       18855000	      1884	80000d20	00000013	addi	x0,x0,0	  x0:0x00000000
       18865000	      1885	80000d24	0480066f	jal	x12,80000d24	 x12=0x80000d24
       18875000	      1886	00000000	00000013	addi	x0,x0,0	  x0:0x00000000
       18885000	      1887	80000d68	00000013	addi	x0,x0,0	  x0:0x00000000
       18895000	      1888	80000d6c	0140036f	jal	x6,80000d6c	  x6=0x80000d6c
       18905000	      1889	00000000	00000013	addi	x0,x0,0	  x0:0x00000000
       18915000	      1890	80000d7c	00000013	addi	x0,x0,0	  x0:0x00000000
       18925000	      1891	80000d80	93ab7193	andi	x3,x22,-1734	 x22:0x7ff00011  x3=0x7ff00010
       18935000	      1892	80000d84	011bff33	and	x30,x23,x17	 x23:0xfffffd00 x17:0x8d9b9551 x30=0x8d9b9500
       18945000	      1893	80000d88	02494063	blt	x18,x4,80000da8	 x18:0x80000a70  x4:0x80000d20
       18955000	      1894	00000000	00000013	addi	x0,x0,0	  x0:0x00000000
       18965000	      1895	80000da4	00000013	addi	x0,x0,0	  x0:0x00000000
       18975000	      1896	80000da8	45bff413	andi	x8,x31,1115	 x31:0x80000d18  x8=0x00000418
       18985000	      1897	80000dac	0040036f	jal	x6,80000dac	  x6=0x80000dac
       18995000	      1898	00000000	00000013	addi	x0,x0,0	  x0:0x00000000
       19005000	      1899	80000dac	00000013	addi	x0,x0,0	  x0:0x00000000
       19015000	      1900	80000db0	058000ef	jal	x1,80000db0	  x1=0x80000db0
       19025000	      1901	00000000	00000013	addi	x0,x0,0	  x0:0x00000000
       19035000	      1902	80000e04	00000013	addi	x0,x0,0	  x0:0x00000000
       19045000	      1903	80000e08	ffdff36f	jal	x6,80000e08	  x6=0x80000e08
       19055000	      1904	00000000	00000013	addi	x0,x0,0	  x0:0x00000000
       19065000	      1905	80000e00	00000013	addi	x0,x0,0	  x0:0x00000000
       19075000	      1906	80000e04	fe5ff0ef	jal	x1,80000e04	  x1=0x80000e04
       19085000	      1907	00000000	00000013	addi	x0,x0,0	  x0:0x00000000
       19095000	      1908	80000de4	00000013	addi	x0,x0,0	  x0:0x00000000
       19105000	      1909	80000de8	fedff1ef	jal	x3,80000de8	  x3=0x80000de8
       19115000	      1910	00000000	00000013	addi	x0,x0,0	  x0:0x00000000
       19125000	      1911	80000dd0	00000013	addi	x0,x0,0	  x0:0x00000000
       19135000	      1912	80000dd4	fe9ff36f	jal	x6,80000dd4	  x6=0x80000dd4
       19145000	      1913	00000000	00000013	addi	x0,x0,0	  x0:0x00000000
       19155000	      1914	80000db8	00000013	addi	x0,x0,0	  x0:0x00000000
       19165000	      1915	80000dbc	00c0036f	jal	x6,80000dbc	  x6=0x80000dbc
       19175000	      1916	00000000	00000013	addi	x0,x0,0	  x0:0x00000000
       19185000	      1917	80000dc4	00000013	addi	x0,x0,0	  x0:0x00000000
       19195000	      1918	80000dc8	0340036f	jal	x6,80000dc8	  x6=0x80000dc8
       19205000	      1919	00000000	00000013	addi	x0,x0,0	  x0:0x00000000
       19215000	      1920	80000df8	00000013	addi	x0,x0,0	  x0:0x00000000
       19225000	      1921	80000dfc	ff9ff7ef	jal	x15,80000dfc	 x15=0x80000dfc
       19235000	      1922	00000000	00000013	addi	x0,x0,0	  x0:0x00000000
       19245000	      1923	80000df0	00000013	addi	x0,x0,0	  x0:0x00000000
       19255000	      1924	80000df4	018000ef	jal	x1,80000df4	  x1=0x80000df4
       19265000	      1925	00000000	00000013	addi	x0,x0,0	  x0:0x00000000
       19275000	      1926	80000e08	00000013	addi	x0,x0,0	  x0:0x00000000
       19285000	      1927	80000e0c	fa9ffcef	jal	x25,80000e0c	 x25=0x80000e0c
       19295000	      1928	00000000	00000013	addi	x0,x0,0	  x0:0x00000000
       19305000	      1929	80000db0	00000013	addi	x0,x0,0	  x0:0x00000000
       19315000	      1930	80000db4	04400f6f	jal	x30,80000db4	 x30=0x80000db4
       19325000	      1931	00000000	00000013	addi	x0,x0,0	  x0:0x00000000
       19335000	      1932	80000df4	00000013	addi	x0,x0,0	  x0:0x00000000
       19345000	      1933	80000df8	fd5ff7ef	jal	x15,80000df8	 x15=0x80000df8
       19355000	      1934	00000000	00000013	addi	x0,x0,0	  x0:0x00000000
       19365000	      1935	80000dc8	00000013	addi	x0,x0,0	  x0:0x00000000
       19375000	      1936	80000dcc	0100036f	jal	x6,80000dcc	  x6=0x80000dcc
       19385000	      1937	00000000	00000013	addi	x0,x0,0	  x0:0x00000000
       19395000	      1938	80000dd8	00000013	addi	x0,x0,0	  x0:0x00000000
       19405000	      1939	80000ddc	ffdff0ef	jal	x1,80000ddc	  x1=0x80000ddc
       19415000	      1940	00000000	00000013	addi	x0,x0,0	  x0:0x00000000
       19425000	      1941	80000dd4	00000013	addi	x0,x0,0	  x0:0x00000000
       19435000	      1942	80000dd8	008000ef	jal	x1,80000dd8	  x1=0x80000dd8
       19445000	      1943	00000000	00000013	addi	x0,x0,0	  x0:0x00000000
       19455000	      1944	80000ddc	00000013	addi	x0,x0,0	  x0:0x00000000
       19465000	      1945	80000de0	ff1ff0ef	jal	x1,80000de0	  x1=0x80000de0
       19475000	      1946	00000000	00000013	addi	x0,x0,0	  x0:0x00000000
       19485000	      1947	80000dcc	00000013	addi	x0,x0,0	  x0:0x00000000
       19495000	      1948	80000dd0	0300036f	jal	x6,80000dd0	  x6=0x80000dd0
       19505000	      1949	00000000	00000013	addi	x0,x0,0	  x0:0x00000000
       19515000	      1950	80000dfc	00000013	addi	x0,x0,0	  x0:0x00000000
       19525000	      1951	80000e00	fe5fffef	jal	x31,80000e00	 x31=0x80000e00
       19535000	      1952	00000000	00000013	addi	x0,x0,0	  x0:0x00000000
       19545000	      1953	80000de0	00000013	addi	x0,x0,0	  x0:0x00000000
       19555000	      1954	80000de4	00800def	jal	x27,80000de4	 x27=0x80000de4
       19565000	      1955	00000000	00000013	addi	x0,x0,0	  x0:0x00000000
       19575000	      1956	80000de8	00000013	addi	x0,x0,0	  x0:0x00000000
       19585000	      1957	80000dec	fcdff0ef	jal	x1,80000dec	  x1=0x80000dec
       19595000	      1958	00000000	00000013	addi	x0,x0,0	  x0:0x00000000
       19605000	      1959	80000db4	00000013	addi	x0,x0,0	  x0:0x00000000
       19615000	      1960	80000db8	0080076f	jal	x14,80000db8	 x14=0x80000db8
       19625000	      1961	00000000	00000013	addi	x0,x0,0	  x0:0x00000000
       19635000	      1962	80000dbc	00000013	addi	x0,x0,0	  x0:0x00000000
       19645000	      1963	80000dc0	030000ef	jal	x1,80000dc0	  x1=0x80000dc0
       19655000	      1964	00000000	00000013	addi	x0,x0,0	  x0:0x00000000
       19665000	      1965	80000dec	00000013	addi	x0,x0,0	  x0:0x00000000
       19675000	      1966	80000df0	fd5ffeef	jal	x29,80000df0	 x29=0x80000df0
       19685000	      1967	00000000	00000013	addi	x0,x0,0	  x0:0x00000000
       19695000	      1968	80000dc0	00000013	addi	x0,x0,0	  x0:0x00000000
       19705000	      1969	80000dc4	04c000ef	jal	x1,80000dc4	  x1=0x80000dc4
       19715000	      1970	00000000	00000013	addi	x0,x0,0	  x0:0x00000000
       19725000	      1971	80000e0c	00000013	addi	x0,x0,0	  x0:0x00000000
       19735000	      1972	80000e10	6f51aa13	slti	x20,x3,1781	  x3:0x80000de8 x20=0x00000001
       19745000	      1973	80000e14	01fa1713	slli	x14,x20,0x1f	 x20:0x00000001 x14=0x80000000
       19755000	      1974	80000e18	f1302e93	slti	x29,x0,-237	  x0:0x00000000 x29=0x00000000
       19765000	      1975	80000e1c	04225263	bge	x4,x2,80000e60	  x4:0x80000d20  x2:0x0000950c
       19775000	      1976	80000e20	80122613	slti	x12,x4,-2047	  x4:0x80000d20 x12=0x00000001
       19785000	      1977	80000e24	05930263	beq	x6,x25,80000e68	  x6:0x80000dd0 x25:0x80000e0c
       19795000	      1978	80000e28	00d9e233	or	x4,x19,x13	 x19:0x80000b6c x13:0x0cb5cc44  x4=0x8cb5cf6c
       19805000	      1979	80000e2c	c8dd8c13	addi	x24,x27,-883	 x27:0x80000de4 x24=0x80000a71
       19815000	      1980	80000e30	4254f993	andi	x19,x9,1061	  x9:0x8cb5c630 x19=0x00000420
       19825000	      1981	80000e34	006b8a63	beq	x23,x6,80000e48	 x23:0xfffffd00  x6:0x80000dd0
       19835000	      1982	80000e38	11df6d13	ori	x26,x30,285	 x30:0x80000db4 x26=0x80000dbd
       19845000	      1983	80000e3c	00000013	addi	x0,x0,0	  x0:0x00000000
       19855000	      1984	80000e40	00000013	addi	x0,x0,0	  x0:0x00000000
       19865000	      1985	80000e44	00439d13	slli	x26,x7,0x4	  x7:0x80009fc4 x26=0x0009fc40
       19875000	      1986	80000e48	00e4f0b3	and	x1,x9,x14	  x9:0x8cb5c630 x14:0x80000000  x1=0x80000000
       19885000	      1987	80000e4c	419b5e93	srai	x29,x22,0x19	 x22:0x7ff00011 x29=0x0000003f
       19895000	      1988	80000e50	02efe097	auipc	x1,0x2efe	  x1=0x82efee4c
       19905000	      1989	80000e54	00354e33	xor	x28,x10,x3	 x10:0x00000000  x3:0x80000de8 x28=0x80000de8
       19915000	      1990	80000e58	95828d13	addi	x26,x5,-1704	  x5:0xfffff000 x26=0xffffe958
       19925000	      1991	80000e5c	40c6de13	srai	x28,x13,0xc	 x13:0x0cb5cc44 x28=0x0000cb5c
       19935000	      1992	80000e60	01c544b3	xor	x9,x10,x28	 x10:0x00000000 x28:0x0000cb5c  x9=0x0000cb5c
       19945000	      1993	80000e64	01795c33	srl	x24,x18,x23	 x18:0x80000a70 x23:0xfffffd00 x24=0x80000a70
       19955000	      1994	80000e68	016a8733	add	x14,x21,x22	 x21:0xffffffff x22:0x7ff00011 x14=0x7ff00010
       19965000	      1995	80000e6c	04e78263	beq	x15,x14,80000eb0	 x15:0x80000df8 x14:0x7ff00010
       19975000	      1996	80000e70	fe1b4d93	xori	x27,x22,-31	 x22:0x7ff00011 x27=0x800ffff0
       19985000	      1997	80000e74	01bce863	bltu	x25,x27,80000e84	 x25:0x80000e0c x27:0x800ffff0
       19995000	      1998	00000000	00000013	addi	x0,x0,0	  x0:0x00000000
       20005000	      1999	80000e80	00000013	addi	x0,x0,0	  x0:0x00000000
       20015000	      2000	80000e84	008bf463	bgeu	x23,x8,80000e8c	 x23:0xfffffd00  x8:0x00000418
       20025000	      2001	00000000	00000013	addi	x0,x0,0	  x0:0x00000000
       20035000	      2002	80000e88	00000013	addi	x0,x0,0	  x0:0x00000000
       20045000	      2003	80000e8c	de953017	auipc	x0,0xde953	
       20055000	      2004	80000e90	00485e33	srl	x28,x16,x4	 x16:0x0d9b0d2b  x4:0x8cb5cf6c x28=0x0000d9b0
       20065000	      2005	80000e94	41eb0a33	sub	x20,x22,x30	 x22:0x7ff00011 x30:0x80000db4 x20=0xffeff25d
       20075000	      2006	80000e98	41e90cb3	sub	x25,x18,x30	 x18:0x80000a70 x30:0x80000db4 x25=0xfffffcbc
       20085000	      2007	80000e9c	01999e63	bne	x19,x25,80000eb8	 x19:0x00000420 x25:0xfffffcbc
       20095000	      2008	00000000	00000013	addi	x0,x0,0	  x0:0x00000000
       20105000	      2009	80000eb4	00000013	addi	x0,x0,0	  x0:0x00000000
       20115000	      2010	80000eb8	41af5f13	srai	x30,x30,0x1a	 x30:0x80000db4 x30=0xffffffe0
       20125000	      2011	80000ebc	0091e533	or	x10,x3,x9	  x3:0x80000de8  x9:0x0000cb5c x10=0x8000cffc
       20135000	      2012	80000ec0	059a4263	blt	x20,x25,80000f04	 x20:0xffeff25d x25:0xfffffcbc
       20145000	      2013	00000000	00000013	addi	x0,x0,0	  x0:0x00000000
       20155000	      2014	80000f00	00000013	addi	x0,x0,0	  x0:0x00000000
       20165000	      2015	80000f04	02d94f93	xori	x31,x18,45	 x18:0x80000a70 x31=0x80000a5d
       20175000	      2016	80000f08	413d8e33	sub	x28,x27,x19	 x27:0x800ffff0 x19:0x00000420 x28=0x800ffbd0
       20185000	      2017	80000f0c	dbad2e13	slti	x28,x26,-582	 x26:0xffffe958 x28=0x00000001
       20195000	      2018	80000f10	7ef04b37	lui	x22,0x7ef04	 x22=0x7ef04000
       20205000	      2019	80000f14	014f92b3	sll	x5,x31,x20	 x31:0x80000a5d x20:0xffeff25d  x5=0xa0000000
       20215000	      2020	80000f18	cf346c13	ori	x24,x8,-781	  x8:0x00000418 x24=0xfffffcfb
       20225000	      2021	80000f1c	0003cb33	xor	x22,x7,x0	  x7:0x80009fc4  x0:0x00000000 x22=0x80009fc4
       20235000	      2022	80000f20	01780663	beq	x16,x23,80000f2c	 x16:0x0d9b0d2b x23:0xfffffd00
       20245000	      2023	80000f24	001a9a63	bne	x21,x1,80000f38	 x21:0xffffffff  x1:0x82efee4c
       20255000	      2024	00000000	00000013	addi	x0,x0,0	  x0:0x00000000
       20265000	      2025	80000f34	00000013	addi	x0,x0,0	  x0:0x00000000
       20275000	      2026	80000f38	62c6af93	slti	x31,x13,1580	 x13:0x0cb5cc44 x31=0x00000000
       20285000	      2027	80000f3c	40a5d033	sra	x0,x11,x10	 x11:0x80009f84 x10:0x8000cffc
       20295000	      2028	80000f40	00562e33	slt	x28,x12,x5	 x12:0x00000001  x5:0xa0000000 x28=0x00000000
       20305000	      2029	80000f44	010a76b3	and	x13,x20,x16	 x20:0xffeff25d x16:0x0d9b0d2b x13=0x0d8b0009
       20315000	      2030	80000f48	015bed33	or	x26,x23,x21	 x23:0xfffffd00 x21:0xffffffff x26=0xffffffff
       20325000	      2031	80000f4c	01a44033	xor	x0,x8,x26	  x8:0x00000418 x26:0xffffffff
       20335000	      2032	80000f50	4110d233	sra	x4,x1,x17	  x1:0x82efee4c x17:0x8d9b9551  x4=0xffffc177
       20345000	      2033	80000f54	48fa7113	andi	x2,x20,1167	 x20:0xffeff25d  x2=0x0000000d
       20355000	      2034	80000f58	e3654c97	auipc	x25,0xe3654	 x25=0x63654f54
       20365000	      2035	80000f5c	002fabb3	slt	x23,x31,x2	 x31:0x00000000  x2:0x0000000d x23=0x00000001
       20375000	      2036	80000f60	005af1b3	and	x3,x21,x5	 x21:0xffffffff  x5:0xa0000000  x3=0xa0000000
       20385000	      2037	80000f64	00e9b033	sltu	x0,x19,x14	 x19:0x00000420 x14:0x7ff00010
       20395000	      2038	80000f68	40645213	srai	x4,x8,0x6	  x8:0x00000418  x4=0x00000010
       20405000	      2039	80000f6c	02ced263	bge	x29,x12,80000f90	 x29:0x0000003f x12:0x00000001
       20415000	      2040	00000000	00000013	addi	x0,x0,0	  x0:0x00000000
       20425000	      2041	80000f8c	00000013	addi	x0,x0,0	  x0:0x00000000
       20435000	      2042	80000f90	c6e4ac13	slti	x24,x9,-914	  x9:0x0000cb5c x24=0x00000000
       20445000	      2043	80000f94	41865893	srai	x17,x12,0x18	 x12:0x00000001 x17=0x00000000
       20455000	      2044	80000f98	0200036f	jal	x6,80000f98	  x6=0x80000f98
       20465000	      2045	00000000	00000013	addi	x0,x0,0	  x0:0x00000000
       20475000	      2046	80000fb4	00000013	addi	x0,x0,0	  x0:0x00000000
       20485000	      2047	80000fb8	ff5ff36f	jal	x6,80000fb8	  x6=0x80000fb8
       20495000	      2048	00000000	00000013	addi	x0,x0,0	  x0:0x00000000
       20505000	      2049	80000fa8	00000013	addi	x0,x0,0	  x0:0x00000000
       20515000	      2050	80000fac	0080036f	jal	x6,80000fac	  x6=0x80000fac
       20525000	      2051	00000000	00000013	addi	x0,x0,0	  x0:0x00000000
       20535000	      2052	80000fb0	00000013	addi	x0,x0,0	  x0:0x00000000
       20545000	      2053	80000fb4	010000ef	jal	x1,80000fb4	  x1=0x80000fb4
       20555000	      2054	00000000	00000013	addi	x0,x0,0	  x0:0x00000000
       20565000	      2055	80000fc0	00000013	addi	x0,x0,0	  x0:0x00000000
       20575000	      2056	80000fc4	ff9ffa6f	jal	x20,80000fc4	 x20=0x80000fc4
       20585000	      2057	00000000	00000013	addi	x0,x0,0	  x0:0x00000000
       20595000	      2058	80000fb8	00000013	addi	x0,x0,0	  x0:0x00000000
       20605000	      2059	80000fbc	fe5ff0ef	jal	x1,80000fbc	  x1=0x80000fbc
       20615000	      2060	00000000	00000013	addi	x0,x0,0	  x0:0x00000000
       20625000	      2061	80000f9c	00000013	addi	x0,x0,0	  x0:0x00000000
       20635000	      2062	80000fa0	ffdff1ef	jal	x3,80000fa0	  x3=0x80000fa0
       20645000	      2063	00000000	00000013	addi	x0,x0,0	  x0:0x00000000
       20655000	      2064	80000f98	00000013	addi	x0,x0,0	  x0:0x00000000
       20665000	      2065	80000f9c	030000ef	jal	x1,80000f9c	  x1=0x80000f9c
       20675000	      2066	00000000	00000013	addi	x0,x0,0	  x0:0x00000000
       20685000	      2067	80000fc8	00000013	addi	x0,x0,0	  x0:0x00000000
       20695000	      2068	80000fcc	fddff0ef	jal	x1,80000fcc	  x1=0x80000fcc
       20705000	      2069	00000000	00000013	addi	x0,x0,0	  x0:0x00000000
       20715000	      2070	80000fa4	00000013	addi	x0,x0,0	  x0:0x00000000
       20725000	      2071	80000fa8	ffdffd6f	jal	x26,80000fa8	 x26=0x80000fa8
       20735000	      2072	00000000	00000013	addi	x0,x0,0	  x0:0x00000000
       20745000	      2073	80000fa0	00000013	addi	x0,x0,0	  x0:0x00000000
       20755000	      2074	80000fa4	024000ef	jal	x1,80000fa4	  x1=0x80000fa4
       20765000	      2075	00000000	00000013	addi	x0,x0,0	  x0:0x00000000
       20775000	      2076	80000fc4	00000013	addi	x0,x0,0	  x0:0x00000000
       20785000	      2077	80000fc8	ff9ff0ef	jal	x1,80000fc8	  x1=0x80000fc8
       20795000	      2078	00000000	00000013	addi	x0,x0,0	  x0:0x00000000
       20805000	      2079	80000fbc	00000013	addi	x0,x0,0	  x0:0x00000000
       20815000	      2080	80000fc0	ff1ff2ef	jal	x5,80000fc0	  x5=0x80000fc0
       20825000	      2081	00000000	00000013	addi	x0,x0,0	  x0:0x00000000
       20835000	      2082	80000fac	00000013	addi	x0,x0,0	  x0:0x00000000
       20845000	      2083	80000fb0	020000ef	jal	x1,80000fb0	  x1=0x80000fb0
       20855000	      2084	00000000	00000013	addi	x0,x0,0	  x0:0x00000000
       20865000	      2085	80000fcc	00000013	addi	x0,x0,0	  x0:0x00000000
       20875000	      2086	80000fd0	00692233	slt	x4,x18,x6	 x18:0x80000a70  x6:0x80000fac  x4=0x00000001
       20885000	      2087	80000fd4	dc2cf713	andi	x14,x25,-574	 x25:0x63654f54 x14=0x63654d40
       20895000	      2088	80000fd8	012c4c63	blt	x24,x18,80000ff0	 x24:0x00000000 x18:0x80000a70
       20905000	      2089	80000fdc	ec59b797	auipc	x15,0xec59b	 x15=0x6c59bfd8
       20915000	      2090	80000fe0	02d2fa63	bgeu	x5,x13,80001014	  x5:0x80000fc0 x13:0x0d8b0009
       20925000	      2091	00000000	00000013	addi	x0,x0,0	  x0:0x00000000
       20935000	      2092	80001010	00000013	addi	x0,x0,0	  x0:0x00000000
       20945000	      2093	80001014	4010d533	sra	x10,x1,x1	  x1:0x80000fb0  x1:0x80000fb0 x10=0xffff8000
       20955000	      2094	80001018	01faebb3	or	x23,x21,x31	 x21:0xffffffff x31:0x00000000 x23=0xffffffff
       20965000	      2095	8000101c	00f57533	and	x10,x10,x15	 x10:0xffff8000 x15:0x6c59bfd8 x10=0x6c598000
       20975000	      2096	80001020	f255b293	sltiu	x5,x11,-219	 x11:0x80009f84  x5=0x00000001
       20985000	      2097	80001024	31a28f93	addi	x31,x5,794	  x5:0x00000001 x31=0x0000031b
       20995000	      2098	80001028	00285693	srli	x13,x16,0x2	 x16:0x0d9b0d2b x13=0x0366c34a
       21005000	      2099	8000102c	35fc8e13	addi	x28,x25,863	 x25:0x63654f54 x28=0x636552b3
       21015000	      2100	80001030	00000013	addi	x0,x0,0	  x0:0x00000000
       21025000	      2101	80001034	44e26913	ori	x18,x4,1102	  x4:0x00000001 x18=0x0000044f
       21035000	      2102	80001038	016972b3	and	x5,x18,x22	 x18:0x0000044f x22:0x80009fc4  x5=0x00000444
       21045000	      2103	8000103c	71f3c293	xori	x5,x7,1823	  x7:0x80009fc4  x5=0x800098db
       21055000	      2104	80001040	00d6ae33	slt	x28,x13,x13	 x13:0x0366c34a x13:0x0366c34a x28=0x00000000
       21065000	      2105	80001044	059bda63	bge	x23,x25,80001098	 x23:0xffffffff x25:0x63654f54
       21075000	      2106	80001048	01b6ccb3	xor	x25,x13,x27	 x13:0x0366c34a x27:0x800ffff0 x25=0x83693cba
       21085000	      2107	8000104c	00003e97	auipc	x29,0x3	 x29=0x80004048
       21095000	      2108	80001050	0e0e8e93	addi	x29,x29,224	 x29:0x80004048 x29=0x80004128
       21105000	      2109	80001054	00000013	addi	x0,x0,0	  x0:0x00000000
       21115000	      2110	80001058	c4953f13	sltiu	x30,x10,-951	 x10:0x6c598000 x30=0x00000001
       21125000	      2111	8000105c	381a4697	auipc	x13,0x381a4	 x13=0xb81a5058
       21135000	      2112	80001060	56290913	addi	x18,x18,1378	 x18:0x0000044f x18=0x000009b1
       21145000	      2113	80001064	41df8933	sub	x18,x31,x29	 x31:0x0000031b x29:0x80004128 x18=0x7fffc1f3
       21155000	      2114	80001068	d77e8e93	addi	x29,x29,-649	 x29:0x80004128 x29=0x80003e9f
       21165000	      2115	8000106c	00938863	beq	x7,x9,8000107c	  x7:0x80009fc4  x9:0x0000cb5c
       21175000	      2116	80001070	d098a913	slti	x18,x17,-759	 x17:0x00000000 x18=0x00000000
       21185000	      2117	80001074	7653ff93	andi	x31,x7,1893	  x7:0x80009fc4 x31=0x00000744
       21195000	      2118	80001078	0138fe33	and	x28,x17,x19	 x17:0x00000000 x19:0x00000420 x28=0x00000000
       21205000	      2119	8000107c	28ae8367	jalr	x6,x29,650	 x29:0x80003e9f  x6=0x8000107c
       21215000	      2120	00000000	00000013	addi	x0,x0,0	  x0:0x00000000
       21225000	      2121	80004128	00000013	addi	x0,x0,0	  x0:0x00000000
       21235000	      2122	8000412c	00000013	addi	x0,x0,0	  x0:0x00000000
       21245000	      2123	80004130	4009d6b3	sra	x13,x19,x0	 x19:0x00000420  x0:0x00000000 x13=0x00000420
       21255000	      2124	80004134	00af7e63	bgeu	x30,x10,80004150	 x30:0x00000001 x10:0x6c598000
       21265000	      2125	80004138	009fbc33	sltu	x24,x31,x9	 x31:0x00000744  x9:0x0000cb5c x24=0x00000001
       21275000	      2126	8000413c	0083d913	srli	x18,x7,0x8	  x7:0x80009fc4 x18=0x0080009f
       21285000	      2127	80004140	2b453a13	sltiu	x20,x10,692	 x10:0x6c598000 x20=0x00000000
       21295000	      2128	80004144	4056d6b3	sra	x13,x13,x5	 x13:0x00000420  x5:0x800098db x13=0x00000000
       21305000	      2129	80004148	017314b3	sll	x9,x6,x23	  x6:0x8000107c x23:0xffffffff  x9=0x00000000
       21315000	      2130	8000414c	6d8e1f17	auipc	x30,0x6d8e1	 x30=0xed8e5148
       21325000	      2131	80004150	fc458593	addi	x11,x11,-60	 x11:0x80009f84 x11=0x80009f48
       21335000	      2132	80004154	0065a223	sw	x6,4(x11)	 x11:0x80009f48  x6:0x8000107c PA:0x80009f4c
       21345000	      2133	80004158	6c3b8a13	addi	x20,x23,1731	 x23:0xffffffff x20=0x000006c2
       21355000	      2134	8000415c	01583c33	sltu	x24,x16,x21	 x16:0x0d9b0d2b x21:0xffffffff x24=0x00000001
       21365000	      2135	80004160	80862f13	slti	x30,x12,-2040	 x12:0x00000001 x30=0x00000000
       21375000	      2136	80004164	406d0b33	sub	x22,x26,x6	 x26:0x80000fa8  x6:0x8000107c x22=0xffffff2c
       21385000	      2137	80004168	062e7b93	andi	x23,x28,98	 x28:0x00000000 x23=0x00000000
       21395000	      2138	8000416c	1b286c93	ori	x25,x16,434	 x16:0x0d9b0d2b x25=0x0d9b0dbb
       21405000	      2139	80004170	a5d00293	addi	x5,x0,-1443	  x0:0x00000000  x5=0xfffffa5d
       21415000	      2140	80004174	a2d42d93	slti	x27,x8,-1491	  x8:0x00000418 x27=0x00000000
       21425000	      2141	80004178	01d71213	slli	x4,x14,0x1d	 x14:0x63654d40  x4=0x00000000
       21435000	      2142	8000417c	41af58b3	sra	x17,x30,x26	 x30:0x00000000 x26:0x80000fa8 x17=0x00000000
       21445000	      2143	80004180	3b80036f	jal	x6,80004180	  x6=0x80004180
       21455000	      2144	00000000	00000013	addi	x0,x0,0	  x0:0x00000000
       21465000	      2145	80004534	00000013	addi	x0,x0,0	  x0:0x00000000
       21475000	      2146	80004538	0002ee63	bltu	x5,x0,80004554	  x5:0xfffffa5d  x0:0x00000000
       21485000	      2147	8000453c	1542b137	lui	x2,0x1542b	  x2=0x1542b000
       21495000	      2148	80004540	01275133	srl	x2,x14,x18	 x14:0x63654d40 x18:0x0080009f  x2=0x00000000
       21505000	      2149	80004544	af933213	sltiu	x4,x6,-1287	  x6:0x80004180  x4=0x00000001
       21515000	      2150	80004548	9b694c93	xori	x25,x18,-1610	 x18:0x0080009f x25=0xff7ff929
       21525000	      2151	8000454c	01e38933	add	x18,x7,x30	  x7:0x80009fc4 x30:0x00000000 x18=0x80009fc4
       21535000	      2152	80004550	7c6dc493	xori	x9,x27,1990	 x27:0x00000000  x9=0x000007c6
       21545000	      2153	80004554	fe458593	addi	x11,x11,-28	 x11:0x80009f48 x11=0x80009f2c
       21555000	      2154	80004558	40e55413	srai	x8,x10,0xe	 x10:0x6c598000  x8=0x0001b166
       21565000	      2155	8000455c	0065a223	sw	x6,4(x11)	 x11:0x80009f2c  x6:0x80004180 PA:0x80009f30
       21575000	      2156	80004560	006a9913	slli	x18,x21,0x6	 x21:0xffffffff x18=0xffffffc0
       21585000	      2157	80004564	414a8c33	sub	x24,x21,x20	 x21:0xffffffff x20:0x000006c2 x24=0xfffff93d
       21595000	      2158	80004568	39bd8013	addi	x0,x27,923	 x27:0x00000000
       21605000	      2159	8000456c	0012ddb3	srl	x27,x5,x1	  x5:0xfffffa5d  x1:0x80000fb0 x27=0x0000ffff
       21615000	      2160	80004570	00000517	auipc	x10,0x0	 x10=0x8000456c
       21625000	      2161	80004574	e6850513	addi	x10,x10,-408	 x10:0x8000456c x10=0x800043d4
       21635000	      2162	80004578	31d2ab13	slti	x22,x5,797	  x5:0xfffffa5d x22=0x00000001
       21645000	      2163	8000457c	01c87933	and	x18,x16,x28	 x16:0x0d9b0d2b x28:0x00000000 x18=0x00000000
       21655000	      2164	80004580	007b91b3	sll	x3,x23,x7	 x23:0x00000000  x7:0x80009fc4  x3=0x00000000
       21665000	      2165	80004584	e6e50513	addi	x10,x10,-402	 x10:0x800043d4 x10=0x80004242
       21675000	      2166	80004588	5b90cf17	auipc	x30,0x5b90c	 x30=0xdb910584
       21685000	      2167	8000458c	019d0663	beq	x26,x25,80004598	 x26:0x80000fa8 x25:0xff7ff929
       21695000	      2168	80004590	017609b3	add	x19,x12,x23	 x12:0x00000001 x23:0x00000000 x19=0x00000001
       21705000	      2169	80004594	01ff5fb3	srl	x31,x30,x31	 x30:0xdb910584 x31:0x00000744 x31=0x0db91058
       21715000	      2170	80004598	19250367	jalr	x6,x10,402	 x10:0x80004242  x6=0x80004598
       21725000	      2171	00000000	00000013	addi	x0,x0,0	  x0:0x00000000
       21735000	      2172	800043d4	00000013	addi	x0,x0,0	  x0:0x00000000
       21745000	      2173	800043d8	0185e263	bltu	x11,x24,800043dc	 x11:0x80009f2c x24:0xfffff93d
       21755000	      2174	00000000	00000013	addi	x0,x0,0	  x0:0x00000000
       21765000	      2175	800043d8	00000013	addi	x0,x0,0	  x0:0x00000000
       21775000	      2176	800043dc	fc058593	addi	x11,x11,-64	 x11:0x80009f2c x11=0x80009eec
       21785000	      2177	800043e0	001f9c33	sll	x24,x31,x1	 x31:0x0db91058  x1:0x80000fb0 x24=0x10580000
       21795000	      2178	800043e4	f0f7ed93	ori	x27,x15,-241	 x15:0x6c59bfd8 x27=0xffffffdf
       21805000	      2179	800043e8	47a2f613	andi	x12,x5,1146	  x5:0xfffffa5d x12=0x00000058
       21815000	      2180	800043ec	0065a223	sw	x6,4(x11)	 x11:0x80009eec  x6:0x80004598 PA:0x80009ef0
       21825000	      2181	800043f0	01444ab3	xor	x21,x8,x20	  x8:0x0001b166 x20:0x000006c2 x21=0x0001b7a4
       21835000	      2182	800043f4	0040036f	jal	x6,800043f4	  x6=0x800043f4
       21845000	      2183	00000000	00000013	addi	x0,x0,0	  x0:0x00000000
       21855000	      2184	800043f4	00000013	addi	x0,x0,0	  x0:0x00000000
       21865000	      2185	800043f8	0140026f	jal	x4,800043f8	  x4=0x800043f8
       21875000	      2186	00000000	00000013	addi	x0,x0,0	  x0:0x00000000
       21885000	      2187	80004408	00000013	addi	x0,x0,0	  x0:0x00000000
       21895000	      2188	8000440c	010000ef	jal	x1,8000440c	  x1=0x8000440c
       21905000	      2189	00000000	00000013	addi	x0,x0,0	  x0:0x00000000
       21915000	      2190	80004418	00000013	addi	x0,x0,0	  x0:0x00000000
       21925000	      2191	8000441c	fe1ffbef	jal	x23,8000441c	 x23=0x8000441c
       21935000	      2192	00000000	00000013	addi	x0,x0,0	  x0:0x00000000
       21945000	      2193	800043f8	00000013	addi	x0,x0,0	  x0:0x00000000
       21955000	      2194	800043fc	01c000ef	jal	x1,800043fc	  x1=0x800043fc
       21965000	      2195	00000000	00000013	addi	x0,x0,0	  x0:0x00000000
       21975000	      2196	80004414	00000013	addi	x0,x0,0	  x0:0x00000000
       21985000	      2197	80004418	0080066f	jal	x12,80004418	 x12=0x80004418
       21995000	      2198	00000000	00000013	addi	x0,x0,0	  x0:0x00000000
       22005000	      2199	8000441c	00000013	addi	x0,x0,0	  x0:0x00000000
       22015000	      2200	80004420	fe1ff0ef	jal	x1,80004420	  x1=0x80004420
       22025000	      2201	00000000	00000013	addi	x0,x0,0	  x0:0x00000000
       22035000	      2202	800043fc	00000013	addi	x0,x0,0	  x0:0x00000000
       22045000	      2203	80004400	004000ef	jal	x1,80004400	  x1=0x80004400
       22055000	      2204	00000000	00000013	addi	x0,x0,0	  x0:0x00000000
       22065000	      2205	80004400	00000013	addi	x0,x0,0	  x0:0x00000000
       22075000	      2206	80004404	010001ef	jal	x3,80004404	  x3=0x80004404
       22085000	      2207	00000000	00000013	addi	x0,x0,0	  x0:0x00000000
       22095000	      2208	80004410	00000013	addi	x0,x0,0	  x0:0x00000000
       22105000	      2209	80004414	ff5ff0ef	jal	x1,80004414	  x1=0x80004414
       22115000	      2210	00000000	00000013	addi	x0,x0,0	  x0:0x00000000
       22125000	      2211	80004404	00000013	addi	x0,x0,0	  x0:0x00000000
       22135000	      2212	80004408	01c00f6f	jal	x30,80004408	 x30=0x80004408
       22145000	      2213	00000000	00000013	addi	x0,x0,0	  x0:0x00000000
       22155000	      2214	80004420	00000013	addi	x0,x0,0	  x0:0x00000000
       22165000	      2215	80004424	fedff0ef	jal	x1,80004424	  x1=0x80004424
       22175000	      2216	00000000	00000013	addi	x0,x0,0	  x0:0x00000000
       22185000	      2217	8000440c	00000013	addi	x0,x0,0	  x0:0x00000000
       22195000	      2218	80004410	018000ef	jal	x1,80004410	  x1=0x80004410
       22205000	      2219	00000000	00000013	addi	x0,x0,0	  x0:0x00000000
       22215000	      2220	80004424	00000013	addi	x0,x0,0	  x0:0x00000000
       22225000	      2221	80004428	88b20693	addi	x13,x4,-1909	  x4:0x800043f8 x13=0x80003c83
       22235000	      2222	8000442c	01395cb3	srl	x25,x18,x19	 x18:0x00000000 x19:0x00000001 x25=0x00000000
       22245000	      2223	80004430	df9dcf13	xori	x30,x27,-519	 x27:0xffffffdf x30=0x00000226
       22255000	      2224	80004434	07153893	sltiu	x17,x10,113	 x10:0x80004242 x17=0x00000000
       22265000	      2225	80004438	0063dfb3	srl	x31,x7,x6	  x7:0x80009fc4  x6:0x800043f4 x31=0x00000800
       22275000	      2226	8000443c	41385f33	sra	x30,x16,x19	 x16:0x0d9b0d2b x19:0x00000001 x30=0x06cd8695
       22285000	      2227	80004440	00ac6463	bltu	x24,x10,80004448	 x24:0x10580000 x10:0x80004242
       22295000	      2228	00000000	00000013	addi	x0,x0,0	  x0:0x00000000
       22305000	      2229	80004444	00000013	addi	x0,x0,0	  x0:0x00000000
       22315000	      2230	80004448	02305c63	bge	x0,x3,80004480	  x0:0x00000000  x3:0x80004404
       22325000	      2231	00000000	00000013	addi	x0,x0,0	  x0:0x00000000
       22335000	      2232	8000447c	00000013	addi	x0,x0,0	  x0:0x00000000
       22345000	      2233	80004480	0190fb33	and	x22,x1,x25	  x1:0x80004410 x25:0x00000000 x22=0x00000000
       22355000	      2234	80004484	40a7de33	sra	x28,x15,x10	 x15:0x6c59bfd8 x10:0x80004242 x28=0x1b166ff6
       22365000	      2235	80004488	5d4d0a13	addi	x20,x26,1492	 x26:0x80000fa8 x20=0x8000157c
       22375000	      2236	8000448c	034e9263	bne	x29,x20,800044b0	 x29:0x80003e9f x20:0x8000157c
       22385000	      2237	00000000	00000013	addi	x0,x0,0	  x0:0x00000000
       22395000	      2238	800044ac	00000013	addi	x0,x0,0	  x0:0x00000000
       22405000	      2239	800044b0	00361e63	bne	x12,x3,800044cc	 x12:0x80004418  x3:0x80004404
       22415000	      2240	00000000	00000013	addi	x0,x0,0	  x0:0x00000000
       22425000	      2241	800044c8	00000013	addi	x0,x0,0	  x0:0x00000000
       22435000	      2242	800044cc	00267e33	and	x28,x12,x2	 x12:0x80004418  x2:0x00000000 x28=0x00000000
       22445000	      2243	800044d0	00ab2433	slt	x8,x22,x10	 x22:0x00000000 x10:0x80004242  x8=0x00000000
       22455000	      2244	800044d4	00dbe4b3	or	x9,x23,x13	 x23:0x8000441c x13:0x80003c83  x9=0x80007c9f
       22465000	      2245	800044d8	40af54b3	sra	x9,x30,x10	 x30:0x06cd8695 x10:0x80004242  x9=0x01b361a5
       22475000	      2246	800044dc	011b4ab3	xor	x21,x22,x17	 x22:0x00000000 x17:0x00000000 x21=0x00000000
       22485000	      2247	800044e0	019df233	and	x4,x27,x25	 x27:0xffffffdf x25:0x00000000  x4=0x00000000
       22495000	      2248	800044e4	01e36bb3	or	x23,x6,x30	  x6:0x800043f4 x30:0x06cd8695 x23=0x86cdc7f5
       22505000	      2249	800044e8	00000013	addi	x0,x0,0	  x0:0x00000000
       22515000	      2250	800044ec	bf134a93	xori	x21,x6,-1039	  x6:0x800043f4 x21=0x7fffb805
       22525000	      2251	800044f0	884d6993	ori	x19,x26,-1916	 x26:0x80000fa8 x19=0xffffffac
       22535000	      2252	800044f4	c4566a13	ori	x20,x12,-955	 x12:0x80004418 x20=0xfffffc5d
       22545000	      2253	800044f8	5b213417	auipc	x8,0x5b213	  x8=0xdb2174f4
       22555000	      2254	800044fc	003acc63	blt	x21,x3,80004514	 x21:0x7fffb805  x3:0x80004404
       22565000	      2255	80004500	4132df13	srai	x30,x5,0x13	  x5:0xfffffa5d x30=0xffffffff
       22575000	      2256	80004504	01777cb3	and	x25,x14,x23	 x14:0x63654d40 x23:0x86cdc7f5 x25=0x02454540
       22585000	      2257	80004508	01464463	blt	x12,x20,80004510	 x12:0x80004418 x20:0xfffffc5d
       22595000	      2258	00000000	00000013	addi	x0,x0,0	  x0:0x00000000
       22605000	      2259	8000450c	00000013	addi	x0,x0,0	  x0:0x00000000
       22615000	      2260	80004510	009077b3	and	x15,x0,x9	  x0:0x00000000  x9:0x01b361a5 x15=0x00000000
       22625000	      2261	80004514	402e8433	sub	x8,x29,x2	 x29:0x80003e9f  x2:0x00000000  x8=0x80003e9f
       22635000	      2262	80004518	80c2b513	sltiu	x10,x5,-2036	  x5:0xfffffa5d x10=0x00000000
       22645000	      2263	8000451c	0045a303	lw	x6,4(x11)	 x11:0x80009eec  x6=0x80004598 PA:0x80009ef0
       22655000	      2264	80004520	01ee5293	srli	x5,x28,0x1e	 x28:0x00000000  x5=0x00000000
       22665000	      2265	80004524	04058593	addi	x11,x11,64	 x11:0x80009eec x11=0x80009f2c
       22675000	      2266	80004528	00b9b933	sltu	x18,x19,x11	 x19:0xffffffac x11:0x80009f2c x18=0x00000000
       22685000	      2267	8000452c	97b08e17	auipc	x28,0x97b08	 x28=0x17b0c528
       22695000	      2268	80004530	00130b93	addi	x23,x6,1	  x6:0x80004598 x23=0x80004599
       22705000	      2269	80004534	000b8be7	jalr	x23,x23,0	 x23:0x80004599 x23=0x80004534
       22715000	      2270	00000000	00000013	addi	x0,x0,0	  x0:0x00000000
       22725000	      2271	80004598	00000013	addi	x0,x0,0	  x0:0x00000000
       22735000	      2272	8000459c	00605413	srli	x8,x0,0x6	  x0:0x00000000  x8=0x00000000
       22745000	      2273	800045a0	01e71c13	slli	x24,x14,0x1e	 x14:0x63654d40 x24=0x00000000
       22755000	      2274	800045a4	57648293	addi	x5,x9,1398	  x9:0x01b361a5  x5=0x01b3671b
       22765000	      2275	800045a8	41235513	srai	x10,x6,0x12	  x6:0x80004598 x10=0xffffe000
       22775000	      2276	800045ac	4efb2d13	slti	x26,x22,1263	 x22:0x00000000 x26=0x00000001
       22785000	      2277	800045b0	01b19113	slli	x2,x3,0x1b	  x3:0x80004404  x2=0x20000000
       22795000	      2278	800045b4	6beae793	ori	x15,x21,1726	 x21:0x7fffb805 x15=0x7fffbebf
       22805000	      2279	800045b8	419cde33	sra	x28,x25,x25	 x25:0x02454540 x25:0x02454540 x28=0x02454540
       22815000	      2280	800045bc	5775bcb7	lui	x25,0x5775b	 x25=0x5775b000
       22825000	      2281	800045c0	04914463	blt	x2,x9,80004608	  x2:0x20000000  x9:0x01b361a5
       22835000	      2282	800045c4	014d56b3	srl	x13,x26,x20	 x26:0x00000001 x20:0xfffffc5d x13=0x00000000
       22845000	      2283	800045c8	40b15233	sra	x4,x2,x11	  x2:0x20000000 x11:0x80009f2c  x4=0x00020000
       22855000	      2284	800045cc	6cd39eb7	lui	x29,0x6cd39	 x29=0x6cd39000
       22865000	      2285	800045d0	40ae5e93	srai	x29,x28,0xa	 x28:0x02454540 x29=0x00009151
       22875000	      2286	800045d4	00715f33	srl	x30,x2,x7	  x2:0x20000000  x7:0x80009fc4 x30=0x02000000
       22885000	      2287	800045d8	41a65433	sra	x8,x12,x26	 x12:0x80004418 x26:0x00000001  x8=0xc000220c
       22895000	      2288	800045dc	02b70263	beq	x14,x11,80004600	 x14:0x63654d40 x11:0x80009f2c
       22905000	      2289	800045e0	cd9ee413	ori	x8,x29,-807	 x29:0x00009151  x8=0xfffffdd9
       22915000	      2290	800045e4	36f38c93	addi	x25,x7,879	  x7:0x80009fc4 x25=0x8000a333
       22925000	      2291	800045e8	00000013	addi	x0,x0,0	  x0:0x00000000
       22935000	      2292	800045ec	f1b48c93	addi	x25,x9,-229	  x9:0x01b361a5 x25=0x01b360c0
       22945000	      2293	800045f0	0110c333	xor	x6,x1,x17	  x1:0x80004410 x17:0x00000000  x6=0x80004410
       22955000	      2294	800045f4	01ca0463	beq	x20,x28,800045fc	 x20:0xfffffc5d x28:0x02454540
       22965000	      2295	800045f8	63ac3213	sltiu	x4,x24,1594	 x24:0x00000000  x4=0x00000001
       22975000	      2296	800045fc	03629263	bne	x5,x22,80004620	  x5:0x01b3671b x22:0x00000000
       22985000	      2297	00000000	00000013	addi	x0,x0,0	  x0:0x00000000
       22995000	      2298	8000461c	00000013	addi	x0,x0,0	  x0:0x00000000
       23005000	      2299	80004620	01436fb3	or	x31,x6,x20	  x6:0x80004410 x20:0xfffffc5d x31=0xfffffc5d
       23015000	      2300	80004624	00450b33	add	x22,x10,x4	 x10:0xffffe000  x4:0x00000001 x22=0xffffe001
       23025000	      2301	80004628	013d9193	slli	x3,x27,0x13	 x27:0xffffffdf  x3=0xfef80000
       23035000	      2302	8000462c	0045a303	lw	x6,4(x11)	 x11:0x80009f2c  x6=0x80004180 PA:0x80009f30
       23045000	      2303	80004630	01d55c33	srl	x24,x10,x29	 x10:0xffffe000 x29:0x00009151 x24=0x00007fff
       23055000	      2304	80004634	4089d913	srai	x18,x19,0x8	 x19:0xffffffac x18=0xffffffff
       23065000	      2305	80004638	00095eb3	srl	x29,x18,x0	 x18:0xffffffff  x0:0x00000000 x29=0xffffffff
       23075000	      2306	8000463c	01c58593	addi	x11,x11,28	 x11:0x80009f2c x11=0x80009f48
       23085000	      2307	80004640	019dfa33	and	x20,x27,x25	 x27:0xffffffdf x25:0x01b360c0 x20=0x01b360c0
       23095000	      2308	80004644	60f90d93	addi	x27,x18,1551	 x18:0xffffffff x27=0x0000060e
       23105000	      2309	80004648	00130f13	addi	x30,x6,1	  x6:0x80004180 x30=0x80004181
       23115000	      2310	8000464c	000f0f67	jalr	x30,x30,0	 x30:0x80004181 x30=0x8000464c
       23125000	      2311	00000000	00000013	addi	x0,x0,0	  x0:0x00000000
       23135000	      2312	80004180	00000013	addi	x0,x0,0	  x0:0x00000000
       23145000	      2313	80004184	0073bf33	sltu	x30,x7,x7	  x7:0x80009fc4  x7:0x80009fc4 x30=0x00000000
       23155000	      2314	80004188	a1932293	slti	x5,x6,-1511	  x6:0x80004180  x5=0x00000001
       23165000	      2315	8000418c	00ec1c13	slli	x24,x24,0xe	 x24:0x00007fff x24=0x1fffc000
       23175000	      2316	80004190	017bcdb3	xor	x27,x23,x23	 x23:0x80004534 x23:0x80004534 x27=0x00000000
       23185000	      2317	80004194	41d4db33	sra	x22,x9,x29	  x9:0x01b361a5 x29:0xffffffff x22=0x00000000
       23195000	      2318	80004198	aa0d8937	lui	x18,0xaa0d8	 x18=0xaa0d8000
       23205000	      2319	8000419c	01fedeb3	srl	x29,x29,x31	 x29:0xffffffff x31:0xfffffc5d x29=0x00000007
       23215000	      2320	800041a0	3980036f	jal	x6,800041a0	  x6=0x800041a0
       23225000	      2321	00000000	00000013	addi	x0,x0,0	  x0:0x00000000
       23235000	      2322	80004534	00000013	addi	x0,x0,0	  x0:0x00000000
       23245000	      2323	80004538	0002ee63	bltu	x5,x0,80004554	  x5:0x00000001  x0:0x00000000
       23255000	      2324	8000453c	1542b137	lui	x2,0x1542b	  x2=0x1542b000
       23265000	      2325	80004540	01275133	srl	x2,x14,x18	 x14:0x63654d40 x18:0xaa0d8000  x2=0x63654d40
       23275000	      2326	80004544	af933213	sltiu	x4,x6,-1287	  x6:0x800041a0  x4=0x00000001
       23285000	      2327	80004548	9b694c93	xori	x25,x18,-1610	 x18:0xaa0d8000 x25=0x55f279b6
       23295000	      2328	8000454c	01e38933	add	x18,x7,x30	  x7:0x80009fc4 x30:0x00000000 x18=0x80009fc4
       23305000	      2329	80004550	7c6dc493	xori	x9,x27,1990	 x27:0x00000000  x9=0x000007c6
       23315000	      2330	80004554	fe458593	addi	x11,x11,-28	 x11:0x80009f48 x11=0x80009f2c
       23325000	      2331	80004558	40e55413	srai	x8,x10,0xe	 x10:0xffffe000  x8=0xffffffff
       23335000	      2332	8000455c	0065a223	sw	x6,4(x11)	 x11:0x80009f2c  x6:0x800041a0 PA:0x80009f30
       23345000	      2333	80004560	006a9913	slli	x18,x21,0x6	 x21:0x7fffb805 x18=0xffee0140
       23355000	      2334	80004564	414a8c33	sub	x24,x21,x20	 x21:0x7fffb805 x20:0x01b360c0 x24=0x7e4c5745
       23365000	      2335	80004568	39bd8013	addi	x0,x27,923	 x27:0x00000000
       23375000	      2336	8000456c	0012ddb3	srl	x27,x5,x1	  x5:0x00000001  x1:0x80004410 x27=0x00000000
       23385000	      2337	80004570	00000517	auipc	x10,0x0	 x10=0x8000456c
       23395000	      2338	80004574	e6850513	addi	x10,x10,-408	 x10:0x8000456c x10=0x800043d4
       23405000	      2339	80004578	31d2ab13	slti	x22,x5,797	  x5:0x00000001 x22=0x00000001
       23415000	      2340	8000457c	01c87933	and	x18,x16,x28	 x16:0x0d9b0d2b x28:0x02454540 x18=0x00010500
       23425000	      2341	80004580	007b91b3	sll	x3,x23,x7	 x23:0x80004534  x7:0x80009fc4  x3=0x00045340
       23435000	      2342	80004584	e6e50513	addi	x10,x10,-402	 x10:0x800043d4 x10=0x80004242
       23445000	      2343	80004588	5b90cf17	auipc	x30,0x5b90c	 x30=0xdb910584
       23455000	      2344	8000458c	019d0663	beq	x26,x25,80004598	 x26:0x00000001 x25:0x55f279b6
       23465000	      2345	80004590	017609b3	add	x19,x12,x23	 x12:0x80004418 x23:0x80004534 x19=0x0000894c
       23475000	      2346	80004594	01ff5fb3	srl	x31,x30,x31	 x30:0xdb910584 x31:0xfffffc5d x31=0x00000006
       23485000	      2347	80004598	19250367	jalr	x6,x10,402	 x10:0x80004242  x6=0x80004598
       23495000	      2348	00000000	00000013	addi	x0,x0,0	  x0:0x00000000
       23505000	      2349	800043d4	00000013	addi	x0,x0,0	  x0:0x00000000
       23515000	      2350	800043d8	0185e263	bltu	x11,x24,800043dc	 x11:0x80009f2c x24:0x7e4c5745
       23525000	      2351	800043dc	fc058593	addi	x11,x11,-64	 x11:0x80009f2c x11=0x80009eec
       23535000	      2352	800043e0	001f9c33	sll	x24,x31,x1	 x31:0x00000006  x1:0x80004410 x24=0x00060000
       23545000	      2353	800043e4	f0f7ed93	ori	x27,x15,-241	 x15:0x7fffbebf x27=0xffffffbf
       23555000	      2354	800043e8	47a2f613	andi	x12,x5,1146	  x5:0x00000001 x12=0x00000000
       23565000	      2355	800043ec	0065a223	sw	x6,4(x11)	 x11:0x80009eec  x6:0x80004598 PA:0x80009ef0
       23575000	      2356	800043f0	01444ab3	xor	x21,x8,x20	  x8:0xffffffff x20:0x01b360c0 x21=0xfe4c9f3f
       23585000	      2357	800043f4	0040036f	jal	x6,800043f4	  x6=0x800043f4
       23595000	      2358	00000000	00000013	addi	x0,x0,0	  x0:0x00000000
       23605000	      2359	800043f4	00000013	addi	x0,x0,0	  x0:0x00000000
       23615000	      2360	800043f8	0140026f	jal	x4,800043f8	  x4=0x800043f8
       23625000	      2361	00000000	00000013	addi	x0,x0,0	  x0:0x00000000
       23635000	      2362	80004408	00000013	addi	x0,x0,0	  x0:0x00000000
       23645000	      2363	8000440c	010000ef	jal	x1,8000440c	  x1=0x8000440c
       23655000	      2364	00000000	00000013	addi	x0,x0,0	  x0:0x00000000
       23665000	      2365	80004418	00000013	addi	x0,x0,0	  x0:0x00000000
       23675000	      2366	8000441c	fe1ffbef	jal	x23,8000441c	 x23=0x8000441c
       23685000	      2367	00000000	00000013	addi	x0,x0,0	  x0:0x00000000
       23695000	      2368	800043f8	00000013	addi	x0,x0,0	  x0:0x00000000
       23705000	      2369	800043fc	01c000ef	jal	x1,800043fc	  x1=0x800043fc
       23715000	      2370	00000000	00000013	addi	x0,x0,0	  x0:0x00000000
       23725000	      2371	80004414	00000013	addi	x0,x0,0	  x0:0x00000000
       23735000	      2372	80004418	0080066f	jal	x12,80004418	 x12=0x80004418
       23745000	      2373	00000000	00000013	addi	x0,x0,0	  x0:0x00000000
       23755000	      2374	8000441c	00000013	addi	x0,x0,0	  x0:0x00000000
       23765000	      2375	80004420	fe1ff0ef	jal	x1,80004420	  x1=0x80004420
       23775000	      2376	00000000	00000013	addi	x0,x0,0	  x0:0x00000000
       23785000	      2377	800043fc	00000013	addi	x0,x0,0	  x0:0x00000000
       23795000	      2378	80004400	004000ef	jal	x1,80004400	  x1=0x80004400
       23805000	      2379	00000000	00000013	addi	x0,x0,0	  x0:0x00000000
       23815000	      2380	80004400	00000013	addi	x0,x0,0	  x0:0x00000000
       23825000	      2381	80004404	010001ef	jal	x3,80004404	  x3=0x80004404
       23835000	      2382	00000000	00000013	addi	x0,x0,0	  x0:0x00000000
       23845000	      2383	80004410	00000013	addi	x0,x0,0	  x0:0x00000000
       23855000	      2384	80004414	ff5ff0ef	jal	x1,80004414	  x1=0x80004414
       23865000	      2385	00000000	00000013	addi	x0,x0,0	  x0:0x00000000
       23875000	      2386	80004404	00000013	addi	x0,x0,0	  x0:0x00000000
       23885000	      2387	80004408	01c00f6f	jal	x30,80004408	 x30=0x80004408
       23895000	      2388	00000000	00000013	addi	x0,x0,0	  x0:0x00000000
       23905000	      2389	80004420	00000013	addi	x0,x0,0	  x0:0x00000000
       23915000	      2390	80004424	fedff0ef	jal	x1,80004424	  x1=0x80004424
       23925000	      2391	00000000	00000013	addi	x0,x0,0	  x0:0x00000000
       23935000	      2392	8000440c	00000013	addi	x0,x0,0	  x0:0x00000000
       23945000	      2393	80004410	018000ef	jal	x1,80004410	  x1=0x80004410
       23955000	      2394	00000000	00000013	addi	x0,x0,0	  x0:0x00000000
       23965000	      2395	80004424	00000013	addi	x0,x0,0	  x0:0x00000000
       23975000	      2396	80004428	88b20693	addi	x13,x4,-1909	  x4:0x800043f8 x13=0x80003c83
       23985000	      2397	8000442c	01395cb3	srl	x25,x18,x19	 x18:0x00010500 x19:0x0000894c x25=0x00000010
       23995000	      2398	80004430	df9dcf13	xori	x30,x27,-519	 x27:0xffffffbf x30=0x00000246
       24005000	      2399	80004434	07153893	sltiu	x17,x10,113	 x10:0x80004242 x17=0x00000000
       24015000	      2400	80004438	0063dfb3	srl	x31,x7,x6	  x7:0x80009fc4  x6:0x800043f4 x31=0x00000800
       24025000	      2401	8000443c	41385f33	sra	x30,x16,x19	 x16:0x0d9b0d2b x19:0x0000894c x30=0x0000d9b0
       24035000	      2402	80004440	00ac6463	bltu	x24,x10,80004448	 x24:0x00060000 x10:0x80004242
       24045000	      2403	00000000	00000013	addi	x0,x0,0	  x0:0x00000000
       24055000	      2404	80004444	00000013	addi	x0,x0,0	  x0:0x00000000
       24065000	      2405	80004448	02305c63	bge	x0,x3,80004480	  x0:0x00000000  x3:0x80004404
       24075000	      2406	00000000	00000013	addi	x0,x0,0	  x0:0x00000000
       24085000	      2407	8000447c	00000013	addi	x0,x0,0	  x0:0x00000000
       24095000	      2408	80004480	0190fb33	and	x22,x1,x25	  x1:0x80004410 x25:0x00000010 x22=0x00000010
       24105000	      2409	80004484	40a7de33	sra	x28,x15,x10	 x15:0x7fffbebf x10:0x80004242 x28=0x1fffefaf
       24115000	      2410	80004488	5d4d0a13	addi	x20,x26,1492	 x26:0x00000001 x20=0x000005d5
       24125000	      2411	8000448c	034e9263	bne	x29,x20,800044b0	 x29:0x00000007 x20:0x000005d5
       24135000	      2412	00000000	00000013	addi	x0,x0,0	  x0:0x00000000
       24145000	      2413	800044ac	00000013	addi	x0,x0,0	  x0:0x00000000
       24155000	      2414	800044b0	00361e63	bne	x12,x3,800044cc	 x12:0x80004418  x3:0x80004404
       24165000	      2415	00000000	00000013	addi	x0,x0,0	  x0:0x00000000
       24175000	      2416	800044c8	00000013	addi	x0,x0,0	  x0:0x00000000
       24185000	      2417	800044cc	00267e33	and	x28,x12,x2	 x12:0x80004418  x2:0x63654d40 x28=0x00004400
       24195000	      2418	800044d0	00ab2433	slt	x8,x22,x10	 x22:0x00000010 x10:0x80004242  x8=0x00000000
       24205000	      2419	800044d4	00dbe4b3	or	x9,x23,x13	 x23:0x8000441c x13:0x80003c83  x9=0x80007c9f
       24215000	      2420	800044d8	40af54b3	sra	x9,x30,x10	 x30:0x0000d9b0 x10:0x80004242  x9=0x0000366c
       24225000	      2421	800044dc	011b4ab3	xor	x21,x22,x17	 x22:0x00000010 x17:0x00000000 x21=0x00000010
       24235000	      2422	800044e0	019df233	and	x4,x27,x25	 x27:0xffffffbf x25:0x00000010  x4=0x00000010
       24245000	      2423	800044e4	01e36bb3	or	x23,x6,x30	  x6:0x800043f4 x30:0x0000d9b0 x23=0x8000dbf4
       24255000	      2424	800044e8	00000013	addi	x0,x0,0	  x0:0x00000000
       24265000	      2425	800044ec	bf134a93	xori	x21,x6,-1039	  x6:0x800043f4 x21=0x7fffb805
       24275000	      2426	800044f0	884d6993	ori	x19,x26,-1916	 x26:0x00000001 x19=0xfffff885
       24285000	      2427	800044f4	c4566a13	ori	x20,x12,-955	 x12:0x80004418 x20=0xfffffc5d
       24295000	      2428	800044f8	5b213417	auipc	x8,0x5b213	  x8=0xdb2174f4
       24305000	      2429	800044fc	003acc63	blt	x21,x3,80004514	 x21:0x7fffb805  x3:0x80004404
       24315000	      2430	80004500	4132df13	srai	x30,x5,0x13	  x5:0x00000001 x30=0x00000000
       24325000	      2431	80004504	01777cb3	and	x25,x14,x23	 x14:0x63654d40 x23:0x8000dbf4 x25=0x00004940
       24335000	      2432	80004508	01464463	blt	x12,x20,80004510	 x12:0x80004418 x20:0xfffffc5d
       24345000	      2433	00000000	00000013	addi	x0,x0,0	  x0:0x00000000
       24355000	      2434	8000450c	00000013	addi	x0,x0,0	  x0:0x00000000
       24365000	      2435	80004510	009077b3	and	x15,x0,x9	  x0:0x00000000  x9:0x0000366c x15=0x00000000
       24375000	      2436	80004514	402e8433	sub	x8,x29,x2	 x29:0x00000007  x2:0x63654d40  x8=0x9c9ab2c7
       24385000	      2437	80004518	80c2b513	sltiu	x10,x5,-2036	  x5:0x00000001 x10=0x00000001
       24395000	      2438	8000451c	0045a303	lw	x6,4(x11)	 x11:0x80009eec  x6=0x80004598 PA:0x80009ef0
       24405000	      2439	80004520	01ee5293	srli	x5,x28,0x1e	 x28:0x00004400  x5=0x00000000
       24415000	      2440	80004524	04058593	addi	x11,x11,64	 x11:0x80009eec x11=0x80009f2c
       24425000	      2441	80004528	00b9b933	sltu	x18,x19,x11	 x19:0xfffff885 x11:0x80009f2c x18=0x00000000
       24435000	      2442	8000452c	97b08e17	auipc	x28,0x97b08	 x28=0x17b0c528
       24445000	      2443	80004530	00130b93	addi	x23,x6,1	  x6:0x80004598 x23=0x80004599
       24455000	      2444	80004534	000b8be7	jalr	x23,x23,0	 x23:0x80004599 x23=0x80004534
       24465000	      2445	00000000	00000013	addi	x0,x0,0	  x0:0x00000000
       24475000	      2446	80004598	00000013	addi	x0,x0,0	  x0:0x00000000
       24485000	      2447	8000459c	00605413	srli	x8,x0,0x6	  x0:0x00000000  x8=0x00000000
       24495000	      2448	800045a0	01e71c13	slli	x24,x14,0x1e	 x14:0x63654d40 x24=0x00000000
       24505000	      2449	800045a4	57648293	addi	x5,x9,1398	  x9:0x0000366c  x5=0x00003be2
       24515000	      2450	800045a8	41235513	srai	x10,x6,0x12	  x6:0x80004598 x10=0xffffe000
       24525000	      2451	800045ac	4efb2d13	slti	x26,x22,1263	 x22:0x00000010 x26=0x00000001
       24535000	      2452	800045b0	01b19113	slli	x2,x3,0x1b	  x3:0x80004404  x2=0x20000000
       24545000	      2453	800045b4	6beae793	ori	x15,x21,1726	 x21:0x7fffb805 x15=0x7fffbebf
       24555000	      2454	800045b8	419cde33	sra	x28,x25,x25	 x25:0x00004940 x25:0x00004940 x28=0x00004940
       24565000	      2455	800045bc	5775bcb7	lui	x25,0x5775b	 x25=0x5775b000
       24575000	      2456	800045c0	04914463	blt	x2,x9,80004608	  x2:0x20000000  x9:0x0000366c
       24585000	      2457	800045c4	014d56b3	srl	x13,x26,x20	 x26:0x00000001 x20:0xfffffc5d x13=0x00000000
       24595000	      2458	800045c8	40b15233	sra	x4,x2,x11	  x2:0x20000000 x11:0x80009f2c  x4=0x00020000
       24605000	      2459	800045cc	6cd39eb7	lui	x29,0x6cd39	 x29=0x6cd39000
       24615000	      2460	800045d0	40ae5e93	srai	x29,x28,0xa	 x28:0x00004940 x29=0x00000012
       24625000	      2461	800045d4	00715f33	srl	x30,x2,x7	  x2:0x20000000  x7:0x80009fc4 x30=0x02000000
       24635000	      2462	800045d8	41a65433	sra	x8,x12,x26	 x12:0x80004418 x26:0x00000001  x8=0xc000220c
       24645000	      2463	800045dc	02b70263	beq	x14,x11,80004600	 x14:0x63654d40 x11:0x80009f2c
       24655000	      2464	800045e0	cd9ee413	ori	x8,x29,-807	 x29:0x00000012  x8=0xfffffcdb
       24665000	      2465	800045e4	36f38c93	addi	x25,x7,879	  x7:0x80009fc4 x25=0x8000a333
       24675000	      2466	800045e8	00000013	addi	x0,x0,0	  x0:0x00000000
       24685000	      2467	800045ec	f1b48c93	addi	x25,x9,-229	  x9:0x0000366c x25=0x00003587
       24695000	      2468	800045f0	0110c333	xor	x6,x1,x17	  x1:0x80004410 x17:0x00000000  x6=0x80004410
       24705000	      2469	800045f4	01ca0463	beq	x20,x28,800045fc	 x20:0xfffffc5d x28:0x00004940
       24715000	      2470	800045f8	63ac3213	sltiu	x4,x24,1594	 x24:0x00000000  x4=0x00000001
       24725000	      2471	800045fc	03629263	bne	x5,x22,80004620	  x5:0x00003be2 x22:0x00000010
       24735000	      2472	00000000	00000013	addi	x0,x0,0	  x0:0x00000000
       24745000	      2473	8000461c	00000013	addi	x0,x0,0	  x0:0x00000000
       24755000	      2474	80004620	01436fb3	or	x31,x6,x20	  x6:0x80004410 x20:0xfffffc5d x31=0xfffffc5d
       24765000	      2475	80004624	00450b33	add	x22,x10,x4	 x10:0xffffe000  x4:0x00000001 x22=0xffffe001
       24775000	      2476	80004628	013d9193	slli	x3,x27,0x13	 x27:0xffffffbf  x3=0xfdf80000
       24785000	      2477	8000462c	0045a303	lw	x6,4(x11)	 x11:0x80009f2c  x6=0x800041a0 PA:0x80009f30
       24795000	      2478	80004630	01d55c33	srl	x24,x10,x29	 x10:0xffffe000 x29:0x00000012 x24=0x00003fff
       24805000	      2479	80004634	4089d913	srai	x18,x19,0x8	 x19:0xfffff885 x18=0xfffffff8
       24815000	      2480	80004638	00095eb3	srl	x29,x18,x0	 x18:0xfffffff8  x0:0x00000000 x29=0xfffffff8
       24825000	      2481	8000463c	01c58593	addi	x11,x11,28	 x11:0x80009f2c x11=0x80009f48
       24835000	      2482	80004640	019dfa33	and	x20,x27,x25	 x27:0xffffffbf x25:0x00003587 x20=0x00003587
       24845000	      2483	80004644	60f90d93	addi	x27,x18,1551	 x18:0xfffffff8 x27=0x00000607
       24855000	      2484	80004648	00130f13	addi	x30,x6,1	  x6:0x800041a0 x30=0x800041a1
       24865000	      2485	8000464c	000f0f67	jalr	x30,x30,0	 x30:0x800041a1 x30=0x8000464c
       24875000	      2486	00000000	00000013	addi	x0,x0,0	  x0:0x00000000
       24885000	      2487	800041a0	00000013	addi	x0,x0,0	  x0:0x00000000
       24895000	      2488	800041a4	40a10cb3	sub	x25,x2,x10	  x2:0x20000000 x10:0xffffe000 x25=0x20002000
       24905000	      2489	800041a8	017472b3	and	x5,x8,x23	  x8:0xfffffcdb x23:0x80004534  x5=0x80004410
       24915000	      2490	800041ac	65220f93	addi	x31,x4,1618	  x4:0x00000001 x31=0x00000653
       24925000	      2491	800041b0	7f887213	andi	x4,x16,2040	 x16:0x0d9b0d2b  x4=0x00000528
       24935000	      2492	800041b4	40365033	sra	x0,x12,x3	 x12:0x80004418  x3:0xfdf80000
       24945000	      2493	800041b8	01eaf9b3	and	x19,x21,x30	 x21:0x7fffb805 x30:0x8000464c x19=0x00000004
       24955000	      2494	800041bc	018c5a13	srli	x20,x24,0x18	 x24:0x00003fff x20=0x00000000
       24965000	      2495	800041c0	00000013	addi	x0,x0,0	  x0:0x00000000
       24975000	      2496	800041c4	a1dfe36f	jal	x6,800041c4	  x6=0x800041c4
       24985000	      2497	00000000	00000013	addi	x0,x0,0	  x0:0x00000000
       24995000	      2498	80002bdc	00000013	addi	x0,x0,0	  x0:0x00000000
       25005000	      2499	80002be0	01476733	or	x14,x14,x20	 x14:0x63654d40 x20:0x00000000 x14=0x63654d40
       25015000	      2500	80002be4	00fa6c63	bltu	x20,x15,80002bfc	 x20:0x00000000 x15:0x7fffbebf
       25025000	      2501	00000000	00000013	addi	x0,x0,0	  x0:0x00000000
       25035000	      2502	80002bf8	00000013	addi	x0,x0,0	  x0:0x00000000
       25045000	      2503	80002bfc	fdc58593	addi	x11,x11,-36	 x11:0x80009f48 x11=0x80009f24
       25055000	      2504	80002c00	009e4bb3	xor	x23,x28,x9	 x28:0x00004940  x9:0x0000366c x23=0x00007f2c
       25065000	      2505	80002c04	0065a223	sw	x6,4(x11)	 x11:0x80009f24  x6:0x800041c4 PA:0x80009f28
       25075000	      2506	80002c08	095ad137	lui	x2,0x95ad	  x2=0x095ad000
       25085000	      2507	80002c0c	40e7d933	sra	x18,x15,x14	 x15:0x7fffbebf x14:0x63654d40 x18=0x7fffbebf
       25095000	      2508	80002c10	e1a22f13	slti	x30,x4,-486	  x4:0x00000528 x30=0x00000000
       25105000	      2509	80002c14	416706b3	sub	x13,x14,x22	 x14:0x63654d40 x22:0xffffe001 x13=0x63656d3f
       25115000	      2510	80002c18	016dc333	xor	x6,x27,x22	 x27:0x00000607 x22:0xffffe001  x6=0xffffe606
       25125000	      2511	80002c1c	00000013	addi	x0,x0,0	  x0:0x00000000
       25135000	      2512	80002c20	409d8c33	sub	x24,x27,x9	 x27:0x00000607  x9:0x0000366c x24=0xffffcf9b
       25145000	      2513	80002c24	a28d4693	xori	x13,x26,-1496	 x26:0x00000001 x13=0xfffffa29
       25155000	      2514	80002c28	00001d17	auipc	x26,0x1	 x26=0x80003c24
       25165000	      2515	80002c2c	7b0d0d13	addi	x26,x26,1968	 x26:0x80003c24 x26=0x800043d4
       25175000	      2516	80002c30	d5ed0d13	addi	x26,x26,-674	 x26:0x800043d4 x26=0x80004132
       25185000	      2517	80002c34	a3feec93	ori	x25,x29,-1473	 x29:0xfffffff8 x25=0xffffffff
       25195000	      2518	80002c38	99e5a493	slti	x9,x11,-1634	 x11:0x80009f24  x9=0x00000001
       25205000	      2519	80002c3c	0109a2b3	slt	x5,x19,x16	 x19:0x00000004 x16:0x0d9b0d2b  x5=0x00000001
       25215000	      2520	80002c40	001d48b3	xor	x17,x26,x1	 x26:0x80004132  x1:0x80004410 x17=0x00000522
       25225000	      2521	80002c44	2a3d0367	jalr	x6,x26,675	 x26:0x80004132  x6=0x80002c44
       25235000	      2522	00000000	00000013	addi	x0,x0,0	  x0:0x00000000
       25245000	      2523	800043d4	00000013	addi	x0,x0,0	  x0:0x00000000
       25255000	      2524	800043d8	0185e263	bltu	x11,x24,800043dc	 x11:0x80009f24 x24:0xffffcf9b
       25265000	      2525	00000000	00000013	addi	x0,x0,0	  x0:0x00000000
       25275000	      2526	800043d8	00000013	addi	x0,x0,0	  x0:0x00000000
       25285000	      2527	800043dc	fc058593	addi	x11,x11,-64	 x11:0x80009f24 x11=0x80009ee4
       25295000	      2528	800043e0	001f9c33	sll	x24,x31,x1	 x31:0x00000653  x1:0x80004410 x24=0x06530000
       25305000	      2529	800043e4	f0f7ed93	ori	x27,x15,-241	 x15:0x7fffbebf x27=0xffffffbf
       25315000	      2530	800043e8	47a2f613	andi	x12,x5,1146	  x5:0x00000001 x12=0x00000000
       25325000	      2531	800043ec	0065a223	sw	x6,4(x11)	 x11:0x80009ee4  x6:0x80002c44 PA:0x80009ee8
       25335000	      2532	800043f0	01444ab3	xor	x21,x8,x20	  x8:0xfffffcdb x20:0x00000000 x21=0xfffffcdb
       25345000	      2533	800043f4	0040036f	jal	x6,800043f4	  x6=0x800043f4
       25355000	      2534	00000000	00000013	addi	x0,x0,0	  x0:0x00000000
       25365000	      2535	800043f4	00000013	addi	x0,x0,0	  x0:0x00000000
       25375000	      2536	800043f8	0140026f	jal	x4,800043f8	  x4=0x800043f8
       25385000	      2537	00000000	00000013	addi	x0,x0,0	  x0:0x00000000
       25395000	      2538	80004408	00000013	addi	x0,x0,0	  x0:0x00000000
       25405000	      2539	8000440c	010000ef	jal	x1,8000440c	  x1=0x8000440c
       25415000	      2540	00000000	00000013	addi	x0,x0,0	  x0:0x00000000
       25425000	      2541	80004418	00000013	addi	x0,x0,0	  x0:0x00000000
       25435000	      2542	8000441c	fe1ffbef	jal	x23,8000441c	 x23=0x8000441c
       25445000	      2543	00000000	00000013	addi	x0,x0,0	  x0:0x00000000
       25455000	      2544	800043f8	00000013	addi	x0,x0,0	  x0:0x00000000
       25465000	      2545	800043fc	01c000ef	jal	x1,800043fc	  x1=0x800043fc
       25475000	      2546	00000000	00000013	addi	x0,x0,0	  x0:0x00000000
       25485000	      2547	80004414	00000013	addi	x0,x0,0	  x0:0x00000000
       25495000	      2548	80004418	0080066f	jal	x12,80004418	 x12=0x80004418
       25505000	      2549	00000000	00000013	addi	x0,x0,0	  x0:0x00000000
       25515000	      2550	8000441c	00000013	addi	x0,x0,0	  x0:0x00000000
       25525000	      2551	80004420	fe1ff0ef	jal	x1,80004420	  x1=0x80004420
       25535000	      2552	00000000	00000013	addi	x0,x0,0	  x0:0x00000000
       25545000	      2553	800043fc	00000013	addi	x0,x0,0	  x0:0x00000000
       25555000	      2554	80004400	004000ef	jal	x1,80004400	  x1=0x80004400
       25565000	      2555	00000000	00000013	addi	x0,x0,0	  x0:0x00000000
       25575000	      2556	80004400	00000013	addi	x0,x0,0	  x0:0x00000000
       25585000	      2557	80004404	010001ef	jal	x3,80004404	  x3=0x80004404
       25595000	      2558	00000000	00000013	addi	x0,x0,0	  x0:0x00000000
       25605000	      2559	80004410	00000013	addi	x0,x0,0	  x0:0x00000000
       25615000	      2560	80004414	ff5ff0ef	jal	x1,80004414	  x1=0x80004414
       25625000	      2561	00000000	00000013	addi	x0,x0,0	  x0:0x00000000
       25635000	      2562	80004404	00000013	addi	x0,x0,0	  x0:0x00000000
       25645000	      2563	80004408	01c00f6f	jal	x30,80004408	 x30=0x80004408
       25655000	      2564	00000000	00000013	addi	x0,x0,0	  x0:0x00000000
       25665000	      2565	80004420	00000013	addi	x0,x0,0	  x0:0x00000000
       25675000	      2566	80004424	fedff0ef	jal	x1,80004424	  x1=0x80004424
       25685000	      2567	00000000	00000013	addi	x0,x0,0	  x0:0x00000000
       25695000	      2568	8000440c	00000013	addi	x0,x0,0	  x0:0x00000000
       25705000	      2569	80004410	018000ef	jal	x1,80004410	  x1=0x80004410
       25715000	      2570	00000000	00000013	addi	x0,x0,0	  x0:0x00000000
       25725000	      2571	80004424	00000013	addi	x0,x0,0	  x0:0x00000000
       25735000	      2572	80004428	88b20693	addi	x13,x4,-1909	  x4:0x800043f8 x13=0x80003c83
       25745000	      2573	8000442c	01395cb3	srl	x25,x18,x19	 x18:0x7fffbebf x19:0x00000004 x25=0x07fffbeb
       25755000	      2574	80004430	df9dcf13	xori	x30,x27,-519	 x27:0xffffffbf x30=0x00000246
       25765000	      2575	80004434	07153893	sltiu	x17,x10,113	 x10:0xffffe000 x17=0x00000000
       25775000	      2576	80004438	0063dfb3	srl	x31,x7,x6	  x7:0x80009fc4  x6:0x800043f4 x31=0x00000800
       25785000	      2577	8000443c	41385f33	sra	x30,x16,x19	 x16:0x0d9b0d2b x19:0x00000004 x30=0x00d9b0d2
       25795000	      2578	80004440	00ac6463	bltu	x24,x10,80004448	 x24:0x06530000 x10:0xffffe000
       25805000	      2579	00000000	00000013	addi	x0,x0,0	  x0:0x00000000
       25815000	      2580	80004444	00000013	addi	x0,x0,0	  x0:0x00000000
       25825000	      2581	80004448	02305c63	bge	x0,x3,80004480	  x0:0x00000000  x3:0x80004404
       25835000	      2582	00000000	00000013	addi	x0,x0,0	  x0:0x00000000
       25845000	      2583	8000447c	00000013	addi	x0,x0,0	  x0:0x00000000
       25855000	      2584	80004480	0190fb33	and	x22,x1,x25	  x1:0x80004410 x25:0x07fffbeb x22=0x00004000
       25865000	      2585	80004484	40a7de33	sra	x28,x15,x10	 x15:0x7fffbebf x10:0xffffe000 x28=0x7fffbebf
       25875000	      2586	80004488	5d4d0a13	addi	x20,x26,1492	 x26:0x80004132 x20=0x80004706
       25885000	      2587	8000448c	034e9263	bne	x29,x20,800044b0	 x29:0xfffffff8 x20:0x80004706
       25895000	      2588	00000000	00000013	addi	x0,x0,0	  x0:0x00000000
       25905000	      2589	800044ac	00000013	addi	x0,x0,0	  x0:0x00000000
       25915000	      2590	800044b0	00361e63	bne	x12,x3,800044cc	 x12:0x80004418  x3:0x80004404
       25925000	      2591	00000000	00000013	addi	x0,x0,0	  x0:0x00000000
       25935000	      2592	800044c8	00000013	addi	x0,x0,0	  x0:0x00000000
       25945000	      2593	800044cc	00267e33	and	x28,x12,x2	 x12:0x80004418  x2:0x095ad000 x28=0x00004000
       25955000	      2594	800044d0	00ab2433	slt	x8,x22,x10	 x22:0x00004000 x10:0xffffe000  x8=0x00000000
       25965000	      2595	800044d4	00dbe4b3	or	x9,x23,x13	 x23:0x8000441c x13:0x80003c83  x9=0x80007c9f
       25975000	      2596	800044d8	40af54b3	sra	x9,x30,x10	 x30:0x00d9b0d2 x10:0xffffe000  x9=0x00d9b0d2
       25985000	      2597	800044dc	011b4ab3	xor	x21,x22,x17	 x22:0x00004000 x17:0x00000000 x21=0x00004000
       25995000	      2598	800044e0	019df233	and	x4,x27,x25	 x27:0xffffffbf x25:0x07fffbeb  x4=0x07fffbab
       26005000	      2599	800044e4	01e36bb3	or	x23,x6,x30	  x6:0x800043f4 x30:0x00d9b0d2 x23=0x80d9f3f6
       26015000	      2600	800044e8	00000013	addi	x0,x0,0	  x0:0x00000000
       26025000	      2601	800044ec	bf134a93	xori	x21,x6,-1039	  x6:0x800043f4 x21=0x7fffb805
       26035000	      2602	800044f0	884d6993	ori	x19,x26,-1916	 x26:0x80004132 x19=0xfffff9b6
       26045000	      2603	800044f4	c4566a13	ori	x20,x12,-955	 x12:0x80004418 x20=0xfffffc5d
       26055000	      2604	800044f8	5b213417	auipc	x8,0x5b213	  x8=0xdb2174f4
       26065000	      2605	800044fc	003acc63	blt	x21,x3,80004514	 x21:0x7fffb805  x3:0x80004404
       26075000	      2606	80004500	4132df13	srai	x30,x5,0x13	  x5:0x00000001 x30=0x00000000
       26085000	      2607	80004504	01777cb3	and	x25,x14,x23	 x14:0x63654d40 x23:0x80d9f3f6 x25=0x00414140
       26095000	      2608	80004508	01464463	blt	x12,x20,80004510	 x12:0x80004418 x20:0xfffffc5d
       26105000	      2609	00000000	00000013	addi	x0,x0,0	  x0:0x00000000
       26115000	      2610	8000450c	00000013	addi	x0,x0,0	  x0:0x00000000
       26125000	      2611	80004510	009077b3	and	x15,x0,x9	  x0:0x00000000  x9:0x00d9b0d2 x15=0x00000000
       26135000	      2612	80004514	402e8433	sub	x8,x29,x2	 x29:0xfffffff8  x2:0x095ad000  x8=0xf6a52ff8
       26145000	      2613	80004518	80c2b513	sltiu	x10,x5,-2036	  x5:0x00000001 x10=0x00000001
       26155000	      2614	8000451c	0045a303	lw	x6,4(x11)	 x11:0x80009ee4  x6=0x80002c44 PA:0x80009ee8
       26165000	      2615	80004520	01ee5293	srli	x5,x28,0x1e	 x28:0x00004000  x5=0x00000000
       26175000	      2616	80004524	04058593	addi	x11,x11,64	 x11:0x80009ee4 x11=0x80009f24
       26185000	      2617	80004528	00b9b933	sltu	x18,x19,x11	 x19:0xfffff9b6 x11:0x80009f24 x18=0x00000000
       26195000	      2618	8000452c	97b08e17	auipc	x28,0x97b08	 x28=0x17b0c528
       26205000	      2619	80004530	00130b93	addi	x23,x6,1	  x6:0x80002c44 x23=0x80002c45
       26215000	      2620	80004534	000b8be7	jalr	x23,x23,0	 x23:0x80002c45 x23=0x80004534
       26225000	      2621	00000000	00000013	addi	x0,x0,0	  x0:0x00000000
       26235000	      2622	80002c44	00000013	addi	x0,x0,0	  x0:0x00000000
       26245000	      2623	80002c48	03c0036f	jal	x6,80002c48	  x6=0x80002c48
       26255000	      2624	00000000	00000013	addi	x0,x0,0	  x0:0x00000000
       26265000	      2625	80002c80	00000013	addi	x0,x0,0	  x0:0x00000000
       26275000	      2626	80002c84	fedff0ef	jal	x1,80002c84	  x1=0x80002c84
       26285000	      2627	00000000	00000013	addi	x0,x0,0	  x0:0x00000000
       26295000	      2628	80002c6c	00000013	addi	x0,x0,0	  x0:0x00000000
       26305000	      2629	80002c70	02c000ef	jal	x1,80002c70	  x1=0x80002c70
       26315000	      2630	00000000	00000013	addi	x0,x0,0	  x0:0x00000000
       26325000	      2631	80002c98	00000013	addi	x0,x0,0	  x0:0x00000000
       26335000	      2632	80002c9c	fddff36f	jal	x6,80002c9c	  x6=0x80002c9c
       26345000	      2633	00000000	00000013	addi	x0,x0,0	  x0:0x00000000
       26355000	      2634	80002c74	00000013	addi	x0,x0,0	  x0:0x00000000
       26365000	      2635	80002c78	01c000ef	jal	x1,80002c78	  x1=0x80002c78
       26375000	      2636	00000000	00000013	addi	x0,x0,0	  x0:0x00000000
       26385000	      2637	80002c90	00000013	addi	x0,x0,0	  x0:0x00000000
       26395000	      2638	80002c94	0100016f	jal	x2,80002c94	  x2=0x80002c94
       26405000	      2639	00000000	00000013	addi	x0,x0,0	  x0:0x00000000
       26415000	      2640	80002ca0	00000013	addi	x0,x0,0	  x0:0x00000000
       26425000	      2641	80002ca4	fbdff0ef	jal	x1,80002ca4	  x1=0x80002ca4
       26435000	      2642	00000000	00000013	addi	x0,x0,0	  x0:0x00000000
       26445000	      2643	80002c5c	00000013	addi	x0,x0,0	  x0:0x00000000
       26455000	      2644	80002c60	0280026f	jal	x4,80002c60	  x4=0x80002c60
       26465000	      2645	00000000	00000013	addi	x0,x0,0	  x0:0x00000000
       26475000	      2646	80002c84	00000013	addi	x0,x0,0	  x0:0x00000000
       26485000	      2647	80002c88	fddff0ef	jal	x1,80002c88	  x1=0x80002c88
       26495000	      2648	00000000	00000013	addi	x0,x0,0	  x0:0x00000000
       26505000	      2649	80002c60	00000013	addi	x0,x0,0	  x0:0x00000000
       26515000	      2650	80002c64	ff5ff1ef	jal	x3,80002c64	  x3=0x80002c64
       26525000	      2651	00000000	00000013	addi	x0,x0,0	  x0:0x00000000
       26535000	      2652	80002c54	00000013	addi	x0,x0,0	  x0:0x00000000
       26545000	      2653	80002c58	0400036f	jal	x6,80002c58	  x6=0x80002c58
       26555000	      2654	00000000	00000013	addi	x0,x0,0	  x0:0x00000000
       26565000	      2655	80002c94	00000013	addi	x0,x0,0	  x0:0x00000000
       26575000	      2656	80002c98	fc5ff0ef	jal	x1,80002c98	  x1=0x80002c98
       26585000	      2657	00000000	00000013	addi	x0,x0,0	  x0:0x00000000
       26595000	      2658	80002c58	00000013	addi	x0,x0,0	  x0:0x00000000
       26605000	      2659	80002c5c	ff9ff36f	jal	x6,80002c5c	  x6=0x80002c5c
       26615000	      2660	00000000	00000013	addi	x0,x0,0	  x0:0x00000000
       26625000	      2661	80002c50	00000013	addi	x0,x0,0	  x0:0x00000000
       26635000	      2662	80002c54	020000ef	jal	x1,80002c54	  x1=0x80002c54
       26645000	      2663	00000000	00000013	addi	x0,x0,0	  x0:0x00000000
       26655000	      2664	80002c70	00000013	addi	x0,x0,0	  x0:0x00000000
       26665000	      2665	80002c74	ff9ff0ef	jal	x1,80002c74	  x1=0x80002c74
       26675000	      2666	00000000	00000013	addi	x0,x0,0	  x0:0x00000000
       26685000	      2667	80002c68	00000013	addi	x0,x0,0	  x0:0x00000000
       26695000	      2668	80002c6c	fe5ffa6f	jal	x20,80002c6c	 x20=0x80002c6c
       26705000	      2669	00000000	00000013	addi	x0,x0,0	  x0:0x00000000
       26715000	      2670	80002c4c	00000013	addi	x0,x0,0	  x0:0x00000000
       26725000	      2671	80002c50	030000ef	jal	x1,80002c50	  x1=0x80002c50
       26735000	      2672	00000000	00000013	addi	x0,x0,0	  x0:0x00000000
       26745000	      2673	80002c7c	00000013	addi	x0,x0,0	  x0:0x00000000
       26755000	      2674	80002c80	02000def	jal	x27,80002c80	 x27=0x80002c80
       26765000	      2675	00000000	00000013	addi	x0,x0,0	  x0:0x00000000
       26775000	      2676	80002c9c	00000013	addi	x0,x0,0	  x0:0x00000000
       26785000	      2677	80002ca0	fc9ff36f	jal	x6,80002ca0	  x6=0x80002ca0
       26795000	      2678	00000000	00000013	addi	x0,x0,0	  x0:0x00000000
       26805000	      2679	80002c64	00000013	addi	x0,x0,0	  x0:0x00000000
       26815000	      2680	80002c68	0240036f	jal	x6,80002c68	  x6=0x80002c68
       26825000	      2681	00000000	00000013	addi	x0,x0,0	  x0:0x00000000
       26835000	      2682	80002c88	00000013	addi	x0,x0,0	  x0:0x00000000
       26845000	      2683	80002c8c	ff1ff0ef	jal	x1,80002c8c	  x1=0x80002c8c
       26855000	      2684	00000000	00000013	addi	x0,x0,0	  x0:0x00000000
       26865000	      2685	80002c78	00000013	addi	x0,x0,0	  x0:0x00000000
       26875000	      2686	80002c7c	014000ef	jal	x1,80002c7c	  x1=0x80002c7c
       26885000	      2687	00000000	00000013	addi	x0,x0,0	  x0:0x00000000
       26895000	      2688	80002c8c	00000013	addi	x0,x0,0	  x0:0x00000000
       26905000	      2689	80002c90	fbdff36f	jal	x6,80002c90	  x6=0x80002c90
       26915000	      2690	00000000	00000013	addi	x0,x0,0	  x0:0x00000000
       26925000	      2691	80002c48	00000013	addi	x0,x0,0	  x0:0x00000000
       26935000	      2692	80002c4c	05c000ef	jal	x1,80002c4c	  x1=0x80002c4c
       26945000	      2693	00000000	00000013	addi	x0,x0,0	  x0:0x00000000
       26955000	      2694	80002ca4	00000013	addi	x0,x0,0	  x0:0x00000000
       26965000	      2695	80002ca8	011a9513	slli	x10,x21,0x11	 x21:0x7fffb805 x10=0x700a0000
       26975000	      2696	80002cac	04c0036f	jal	x6,80002cac	  x6=0x80002cac
       26985000	      2697	00000000	00000013	addi	x0,x0,0	  x0:0x00000000
       26995000	      2698	80002cf4	00000013	addi	x0,x0,0	  x0:0x00000000
       27005000	      2699	80002cf8	fd5ff0ef	jal	x1,80002cf8	  x1=0x80002cf8
       27015000	      2700	00000000	00000013	addi	x0,x0,0	  x0:0x00000000
       27025000	      2701	80002cc8	00000013	addi	x0,x0,0	  x0:0x00000000
       27035000	      2702	80002ccc	ff9ff0ef	jal	x1,80002ccc	  x1=0x80002ccc
       27045000	      2703	00000000	00000013	addi	x0,x0,0	  x0:0x00000000
       27055000	      2704	80002cc0	00000013	addi	x0,x0,0	  x0:0x00000000
       27065000	      2705	80002cc4	ff9ff0ef	jal	x1,80002cc4	  x1=0x80002cc4
       27075000	      2706	00000000	00000013	addi	x0,x0,0	  x0:0x00000000
       27085000	      2707	80002cb8	00000013	addi	x0,x0,0	  x0:0x00000000
       27095000	      2708	80002cbc	014000ef	jal	x1,80002cbc	  x1=0x80002cbc
       27105000	      2709	00000000	00000013	addi	x0,x0,0	  x0:0x00000000
       27115000	      2710	80002ccc	00000013	addi	x0,x0,0	  x0:0x00000000
       27125000	      2711	80002cd0	010000ef	jal	x1,80002cd0	  x1=0x80002cd0
       27135000	      2712	00000000	00000013	addi	x0,x0,0	  x0:0x00000000
       27145000	      2713	80002cdc	00000013	addi	x0,x0,0	  x0:0x00000000
       27155000	      2714	80002ce0	034000ef	jal	x1,80002ce0	  x1=0x80002ce0
       27165000	      2715	00000000	00000013	addi	x0,x0,0	  x0:0x00000000
       27175000	      2716	80002d10	00000013	addi	x0,x0,0	  x0:0x00000000
       27185000	      2717	80002d14	fc5ff46f	jal	x8,80002d14	  x8=0x80002d14
       27195000	      2718	00000000	00000013	addi	x0,x0,0	  x0:0x00000000
       27205000	      2719	80002cd4	00000013	addi	x0,x0,0	  x0:0x00000000
       27215000	      2720	80002cd8	04000f6f	jal	x30,80002cd8	 x30=0x80002cd8
       27225000	      2721	00000000	00000013	addi	x0,x0,0	  x0:0x00000000
       27235000	      2722	80002d14	00000013	addi	x0,x0,0	  x0:0x00000000
       27245000	      2723	80002d18	fa1ff0ef	jal	x1,80002d18	  x1=0x80002d18
       27255000	      2724	00000000	00000013	addi	x0,x0,0	  x0:0x00000000
       27265000	      2725	80002cb4	00000013	addi	x0,x0,0	  x0:0x00000000
       27275000	      2726	80002cb8	050000ef	jal	x1,80002cb8	  x1=0x80002cb8
       27285000	      2727	00000000	00000013	addi	x0,x0,0	  x0:0x00000000
       27295000	      2728	80002d04	00000013	addi	x0,x0,0	  x0:0x00000000
       27305000	      2729	80002d08	004000ef	jal	x1,80002d08	  x1=0x80002d08
       27315000	      2730	00000000	00000013	addi	x0,x0,0	  x0:0x00000000
       27325000	      2731	80002d08	00000013	addi	x0,x0,0	  x0:0x00000000
       27335000	      2732	80002d0c	01800aef	jal	x21,80002d0c	 x21=0x80002d0c
       27345000	      2733	00000000	00000013	addi	x0,x0,0	  x0:0x00000000
       27355000	      2734	80002d20	00000013	addi	x0,x0,0	  x0:0x00000000
       27365000	      2735	80002d24	fe1ff0ef	jal	x1,80002d24	  x1=0x80002d24
       27375000	      2736	00000000	00000013	addi	x0,x0,0	  x0:0x00000000
       27385000	      2737	80002d00	00000013	addi	x0,x0,0	  x0:0x00000000
       27395000	      2738	80002d04	fadffdef	jal	x27,80002d04	 x27=0x80002d04
       27405000	      2739	00000000	00000013	addi	x0,x0,0	  x0:0x00000000
       27415000	      2740	80002cac	00000013	addi	x0,x0,0	  x0:0x00000000
       27425000	      2741	80002cb0	0340036f	jal	x6,80002cb0	  x6=0x80002cb0
       27435000	      2742	00000000	00000013	addi	x0,x0,0	  x0:0x00000000
       27445000	      2743	80002ce0	00000013	addi	x0,x0,0	  x0:0x00000000
       27455000	      2744	80002ce4	fe5ff0ef	jal	x1,80002ce4	  x1=0x80002ce4
       27465000	      2745	00000000	00000013	addi	x0,x0,0	  x0:0x00000000
       27475000	      2746	80002cc4	00000013	addi	x0,x0,0	  x0:0x00000000
       27485000	      2747	80002cc8	0540036f	jal	x6,80002cc8	  x6=0x80002cc8
       27495000	      2748	00000000	00000013	addi	x0,x0,0	  x0:0x00000000
       27505000	      2749	80002d18	00000013	addi	x0,x0,0	  x0:0x00000000
       27515000	      2750	80002d1c	fe1ff36f	jal	x6,80002d1c	  x6=0x80002d1c
       27525000	      2751	00000000	00000013	addi	x0,x0,0	  x0:0x00000000
       27535000	      2752	80002cf8	00000013	addi	x0,x0,0	  x0:0x00000000
       27545000	      2753	80002cfc	fedff0ef	jal	x1,80002cfc	  x1=0x80002cfc
       27555000	      2754	00000000	00000013	addi	x0,x0,0	  x0:0x00000000
       27565000	      2755	80002ce4	00000013	addi	x0,x0,0	  x0:0x00000000
       27575000	      2756	80002ce8	008000ef	jal	x1,80002ce8	  x1=0x80002ce8
       27585000	      2757	00000000	00000013	addi	x0,x0,0	  x0:0x00000000
       27595000	      2758	80002cec	00000013	addi	x0,x0,0	  x0:0x00000000
       27605000	      2759	80002cf0	ffdff16f	jal	x2,80002cf0	  x2=0x80002cf0
       27615000	      2760	00000000	00000013	addi	x0,x0,0	  x0:0x00000000
       27625000	      2761	80002ce8	00000013	addi	x0,x0,0	  x0:0x00000000
       27635000	      2762	80002cec	014004ef	jal	x9,80002cec	  x9=0x80002cec
       27645000	      2763	00000000	00000013	addi	x0,x0,0	  x0:0x00000000
       27655000	      2764	80002cfc	00000013	addi	x0,x0,0	  x0:0x00000000
       27665000	      2765	80002d00	fd5ff36f	jal	x6,80002d00	  x6=0x80002d00
       27675000	      2766	00000000	00000013	addi	x0,x0,0	  x0:0x00000000
       27685000	      2767	80002cd0	00000013	addi	x0,x0,0	  x0:0x00000000
       27695000	      2768	80002cd4	fe1ff96f	jal	x18,80002cd4	 x18=0x80002cd4
       27705000	      2769	00000000	00000013	addi	x0,x0,0	  x0:0x00000000
       27715000	      2770	80002cb0	00000013	addi	x0,x0,0	  x0:0x00000000
       27725000	      2771	80002cb4	00c000ef	jal	x1,80002cb4	  x1=0x80002cb4
       27735000	      2772	00000000	00000013	addi	x0,x0,0	  x0:0x00000000
       27745000	      2773	80002cbc	00000013	addi	x0,x0,0	  x0:0x00000000
       27755000	      2774	80002cc0	01c000ef	jal	x1,80002cc0	  x1=0x80002cc0
       27765000	      2775	00000000	00000013	addi	x0,x0,0	  x0:0x00000000
       27775000	      2776	80002cd8	00000013	addi	x0,x0,0	  x0:0x00000000
       27785000	      2777	80002cdc	0180036f	jal	x6,80002cdc	  x6=0x80002cdc
       27795000	      2778	00000000	00000013	addi	x0,x0,0	  x0:0x00000000
       27805000	      2779	80002cf0	00000013	addi	x0,x0,0	  x0:0x00000000
       27815000	      2780	80002cf4	02c000ef	jal	x1,80002cf4	  x1=0x80002cf4
       27825000	      2781	00000000	00000013	addi	x0,x0,0	  x0:0x00000000
       27835000	      2782	80002d1c	00000013	addi	x0,x0,0	  x0:0x00000000
       27845000	      2783	80002d20	ff1ff0ef	jal	x1,80002d20	  x1=0x80002d20
       27855000	      2784	00000000	00000013	addi	x0,x0,0	  x0:0x00000000
       27865000	      2785	80002d0c	00000013	addi	x0,x0,0	  x0:0x00000000
       27875000	      2786	80002d10	0180036f	jal	x6,80002d10	  x6=0x80002d10
       27885000	      2787	00000000	00000013	addi	x0,x0,0	  x0:0x00000000
       27895000	      2788	80002d24	00000013	addi	x0,x0,0	  x0:0x00000000
       27905000	      2789	80002d28	61b33937	lui	x18,0x61b33	 x18=0x61b33000
       27915000	      2790	80002d2c	0480036f	jal	x6,80002d2c	  x6=0x80002d2c
       27925000	      2791	00000000	00000013	addi	x0,x0,0	  x0:0x00000000
       27935000	      2792	80002d70	00000013	addi	x0,x0,0	  x0:0x00000000
       27945000	      2793	80002d74	ff9ff0ef	jal	x1,80002d74	  x1=0x80002d74
       27955000	      2794	00000000	00000013	addi	x0,x0,0	  x0:0x00000000
       27965000	      2795	80002d68	00000013	addi	x0,x0,0	  x0:0x00000000
       27975000	      2796	80002d6c	ff9ff56f	jal	x10,80002d6c	 x10=0x80002d6c
       27985000	      2797	00000000	00000013	addi	x0,x0,0	  x0:0x00000000
       27995000	      2798	80002d60	00000013	addi	x0,x0,0	  x0:0x00000000
       28005000	      2799	80002d64	014000ef	jal	x1,80002d64	  x1=0x80002d64
       28015000	      2800	00000000	00000013	addi	x0,x0,0	  x0:0x00000000
       28025000	      2801	80002d74	00000013	addi	x0,x0,0	  x0:0x00000000
       28035000	      2802	80002d78	fc5ff0ef	jal	x1,80002d78	  x1=0x80002d78
       28045000	      2803	00000000	00000013	addi	x0,x0,0	  x0:0x00000000
       28055000	      2804	80002d38	00000013	addi	x0,x0,0	  x0:0x00000000
       28065000	      2805	80002d3c	02c000ef	jal	x1,80002d3c	  x1=0x80002d3c
       28075000	      2806	00000000	00000013	addi	x0,x0,0	  x0:0x00000000
       28085000	      2807	80002d64	00000013	addi	x0,x0,0	  x0:0x00000000
       28095000	      2808	80002d68	ff9ff0ef	jal	x1,80002d68	  x1=0x80002d68
       28105000	      2809	00000000	00000013	addi	x0,x0,0	  x0:0x00000000
       28115000	      2810	80002d5c	00000013	addi	x0,x0,0	  x0:0x00000000
       28125000	      2811	80002d60	fd5ff26f	jal	x4,80002d60	  x4=0x80002d60
       28135000	      2812	00000000	00000013	addi	x0,x0,0	  x0:0x00000000
       28145000	      2813	80002d30	00000013	addi	x0,x0,0	  x0:0x00000000
       28155000	      2814	80002d34	04c0036f	jal	x6,80002d34	  x6=0x80002d34
       28165000	      2815	00000000	00000013	addi	x0,x0,0	  x0:0x00000000
       28175000	      2816	80002d7c	00000013	addi	x0,x0,0	  x0:0x00000000
       28185000	      2817	80002d80	fd1ff46f	jal	x8,80002d80	  x8=0x80002d80
       28195000	      2818	00000000	00000013	addi	x0,x0,0	  x0:0x00000000
       28205000	      2819	80002d4c	00000013	addi	x0,x0,0	  x0:0x00000000
       28215000	      2820	80002d50	044000ef	jal	x1,80002d50	  x1=0x80002d50
       28225000	      2821	00000000	00000013	addi	x0,x0,0	  x0:0x00000000
       28235000	      2822	80002d90	00000013	addi	x0,x0,0	  x0:0x00000000
       28245000	      2823	80002d94	fc5ff0ef	jal	x1,80002d94	  x1=0x80002d94
       28255000	      2824	00000000	00000013	addi	x0,x0,0	  x0:0x00000000
       28265000	      2825	80002d54	00000013	addi	x0,x0,0	  x0:0x00000000
       28275000	      2826	80002d58	ffdff36f	jal	x6,80002d58	  x6=0x80002d58
       28285000	      2827	00000000	00000013	addi	x0,x0,0	  x0:0x00000000
       28295000	      2828	80002d50	00000013	addi	x0,x0,0	  x0:0x00000000
       28305000	      2829	80002d54	ff1fffef	jal	x31,80002d54	 x31=0x80002d54
       28315000	      2830	00000000	00000013	addi	x0,x0,0	  x0:0x00000000
       28325000	      2831	80002d40	00000013	addi	x0,x0,0	  x0:0x00000000
       28335000	      2832	80002d44	0080026f	jal	x4,80002d44	  x4=0x80002d44
       28345000	      2833	00000000	00000013	addi	x0,x0,0	  x0:0x00000000
       28355000	      2834	80002d48	00000013	addi	x0,x0,0	  x0:0x00000000
       28365000	      2835	80002d4c	05000a6f	jal	x20,80002d4c	 x20=0x80002d4c
       28375000	      2836	00000000	00000013	addi	x0,x0,0	  x0:0x00000000
       28385000	      2837	80002d98	00000013	addi	x0,x0,0	  x0:0x00000000
       28395000	      2838	80002d9c	fc1ff0ef	jal	x1,80002d9c	  x1=0x80002d9c
       28405000	      2839	00000000	00000013	addi	x0,x0,0	  x0:0x00000000
       28415000	      2840	80002d58	00000013	addi	x0,x0,0	  x0:0x00000000
       28425000	      2841	80002d5c	03c0036f	jal	x6,80002d5c	  x6=0x80002d5c
       28435000	      2842	00000000	00000013	addi	x0,x0,0	  x0:0x00000000
       28445000	      2843	80002d94	00000013	addi	x0,x0,0	  x0:0x00000000
       28455000	      2844	80002d98	fa9ff36f	jal	x6,80002d98	  x6=0x80002d98
       28465000	      2845	00000000	00000013	addi	x0,x0,0	  x0:0x00000000
       28475000	      2846	80002d3c	00000013	addi	x0,x0,0	  x0:0x00000000
       28485000	      2847	80002d40	ff1ff36f	jal	x6,80002d40	  x6=0x80002d40
       28495000	      2848	00000000	00000013	addi	x0,x0,0	  x0:0x00000000
       28505000	      2849	80002d2c	00000013	addi	x0,x0,0	  x0:0x00000000
       28515000	      2850	80002d30	040000ef	jal	x1,80002d30	  x1=0x80002d30
       28525000	      2851	00000000	00000013	addi	x0,x0,0	  x0:0x00000000
       28535000	      2852	80002d6c	00000013	addi	x0,x0,0	  x0:0x00000000
       28545000	      2853	80002d70	fd9ff2ef	jal	x5,80002d70	  x5=0x80002d70
       28555000	      2854	00000000	00000013	addi	x0,x0,0	  x0:0x00000000
       28565000	      2855	80002d44	00000013	addi	x0,x0,0	  x0:0x00000000
       28575000	      2856	80002d48	ff1ff0ef	jal	x1,80002d48	  x1=0x80002d48
       28585000	      2857	00000000	00000013	addi	x0,x0,0	  x0:0x00000000
       28595000	      2858	80002d34	00000013	addi	x0,x0,0	  x0:0x00000000
       28605000	      2859	80002d38	058000ef	jal	x1,80002d38	  x1=0x80002d38
       28615000	      2860	00000000	00000013	addi	x0,x0,0	  x0:0x00000000
       28625000	      2861	80002d8c	00000013	addi	x0,x0,0	  x0:0x00000000
       28635000	      2862	80002d90	ff5ff0ef	jal	x1,80002d90	  x1=0x80002d90
       28645000	      2863	00000000	00000013	addi	x0,x0,0	  x0:0x00000000
       28655000	      2864	80002d80	00000013	addi	x0,x0,0	  x0:0x00000000
       28665000	      2865	80002d84	008000ef	jal	x1,80002d84	  x1=0x80002d84
       28675000	      2866	00000000	00000013	addi	x0,x0,0	  x0:0x00000000
       28685000	      2867	80002d88	00000013	addi	x0,x0,0	  x0:0x00000000
       28695000	      2868	80002d8c	ff1ff26f	jal	x4,80002d8c	  x4=0x80002d8c
       28705000	      2869	00000000	00000013	addi	x0,x0,0	  x0:0x00000000
       28715000	      2870	80002d78	00000013	addi	x0,x0,0	  x0:0x00000000
       28725000	      2871	80002d7c	00c000ef	jal	x1,80002d7c	  x1=0x80002d7c
       28735000	      2872	00000000	00000013	addi	x0,x0,0	  x0:0x00000000
       28745000	      2873	80002d84	00000013	addi	x0,x0,0	  x0:0x00000000
       28755000	      2874	80002d88	0180036f	jal	x6,80002d88	  x6=0x80002d88
       28765000	      2875	00000000	00000013	addi	x0,x0,0	  x0:0x00000000
       28775000	      2876	80002d9c	00000013	addi	x0,x0,0	  x0:0x00000000
       28785000	      2877	80002da0	018fedb3	or	x27,x31,x24	 x31:0x80002d54 x24:0x06530000 x27=0x86532d54
       28795000	      2878	80002da4	02c0036f	jal	x6,80002da4	  x6=0x80002da4
       28805000	      2879	00000000	00000013	addi	x0,x0,0	  x0:0x00000000
       28815000	      2880	80002dcc	00000013	addi	x0,x0,0	  x0:0x00000000
       28825000	      2881	80002dd0	fe1ff0ef	jal	x1,80002dd0	  x1=0x80002dd0
       28835000	      2882	00000000	00000013	addi	x0,x0,0	  x0:0x00000000
       28845000	      2883	80002dac	00000013	addi	x0,x0,0	  x0:0x00000000
       28855000	      2884	80002db0	0080046f	jal	x8,80002db0	  x8=0x80002db0
       28865000	      2885	00000000	00000013	addi	x0,x0,0	  x0:0x00000000
       28875000	      2886	80002db4	00000013	addi	x0,x0,0	  x0:0x00000000
       28885000	      2887	80002db8	0100056f	jal	x10,80002db8	 x10=0x80002db8
       28895000	      2888	00000000	00000013	addi	x0,x0,0	  x0:0x00000000
       28905000	      2889	80002dc4	00000013	addi	x0,x0,0	  x0:0x00000000
       28915000	      2890	80002dc8	fe5ff36f	jal	x6,80002dc8	  x6=0x80002dc8
       28925000	      2891	00000000	00000013	addi	x0,x0,0	  x0:0x00000000
       28935000	      2892	80002da8	00000013	addi	x0,x0,0	  x0:0x00000000
       28945000	      2893	80002dac	02c0096f	jal	x18,80002dac	 x18=0x80002dac
       28955000	      2894	00000000	00000013	addi	x0,x0,0	  x0:0x00000000
       28965000	      2895	80002dd4	00000013	addi	x0,x0,0	  x0:0x00000000
       28975000	      2896	80002dd8	ffdff1ef	jal	x3,80002dd8	  x3=0x80002dd8
       28985000	      2897	00000000	00000013	addi	x0,x0,0	  x0:0x00000000
       28995000	      2898	80002dd0	00000013	addi	x0,x0,0	  x0:0x00000000
       29005000	      2899	80002dd4	00800cef	jal	x25,80002dd4	 x25=0x80002dd4
       29015000	      2900	00000000	00000013	addi	x0,x0,0	  x0:0x00000000
       29025000	      2901	80002dd8	00000013	addi	x0,x0,0	  x0:0x00000000
       29035000	      2902	80002ddc	fe9ff16f	jal	x2,80002ddc	  x2=0x80002ddc
       29045000	      2903	00000000	00000013	addi	x0,x0,0	  x0:0x00000000
       29055000	      2904	80002dc0	00000013	addi	x0,x0,0	  x0:0x00000000
       29065000	      2905	80002dc4	ffdff0ef	jal	x1,80002dc4	  x1=0x80002dc4
       29075000	      2906	00000000	00000013	addi	x0,x0,0	  x0:0x00000000
       29085000	      2907	80002dbc	00000013	addi	x0,x0,0	  x0:0x00000000
       29095000	      2908	80002dc0	00c000ef	jal	x1,80002dc0	  x1=0x80002dc0
       29105000	      2909	00000000	00000013	addi	x0,x0,0	  x0:0x00000000
       29115000	      2910	80002dc8	00000013	addi	x0,x0,0	  x0:0x00000000
       29125000	      2911	80002dcc	fe9ffaef	jal	x21,80002dcc	 x21=0x80002dcc
       29135000	      2912	00000000	00000013	addi	x0,x0,0	  x0:0x00000000
       29145000	      2913	80002db0	00000013	addi	x0,x0,0	  x0:0x00000000
       29155000	      2914	80002db4	ff5ff36f	jal	x6,80002db4	  x6=0x80002db4
       29165000	      2915	00000000	00000013	addi	x0,x0,0	  x0:0x00000000
       29175000	      2916	80002da4	00000013	addi	x0,x0,0	  x0:0x00000000
       29185000	      2917	80002da8	0140036f	jal	x6,80002da8	  x6=0x80002da8
       29195000	      2918	00000000	00000013	addi	x0,x0,0	  x0:0x00000000
       29205000	      2919	80002db8	00000013	addi	x0,x0,0	  x0:0x00000000
       29215000	      2920	80002dbc	02400eef	jal	x29,80002dbc	 x29=0x80002dbc
       29225000	      2921	00000000	00000013	addi	x0,x0,0	  x0:0x00000000
       29235000	      2922	80002ddc	00000013	addi	x0,x0,0	  x0:0x00000000
       29245000	      2923	80002de0	d6df3c93	sltiu	x25,x30,-659	 x30:0x80002cd8 x25=0x00000001
       29255000	      2924	80002de4	0440036f	jal	x6,80002de4	  x6=0x80002de4
       29265000	      2925	00000000	00000013	addi	x0,x0,0	  x0:0x00000000
       29275000	      2926	80002e24	00000013	addi	x0,x0,0	  x0:0x00000000
       29285000	      2927	80002e28	fe1ff0ef	jal	x1,80002e28	  x1=0x80002e28
       29295000	      2928	00000000	00000013	addi	x0,x0,0	  x0:0x00000000
       29305000	      2929	80002e04	00000013	addi	x0,x0,0	  x0:0x00000000
       29315000	      2930	80002e08	03800fef	jal	x31,80002e08	 x31=0x80002e08
       29325000	      2931	00000000	00000013	addi	x0,x0,0	  x0:0x00000000
       29335000	      2932	80002e3c	00000013	addi	x0,x0,0	  x0:0x00000000
       29345000	      2933	80002e40	fc5ffbef	jal	x23,80002e40	 x23=0x80002e40
       29355000	      2934	00000000	00000013	addi	x0,x0,0	  x0:0x00000000
       29365000	      2935	80002e00	00000013	addi	x0,x0,0	  x0:0x00000000
       29375000	      2936	80002e04	04c0036f	jal	x6,80002e04	  x6=0x80002e04
       29385000	      2937	00000000	00000013	addi	x0,x0,0	  x0:0x00000000
       29395000	      2938	80002e4c	00000013	addi	x0,x0,0	  x0:0x00000000
       29405000	      2939	80002e50	ff9ff26f	jal	x4,80002e50	  x4=0x80002e50
       29415000	      2940	00000000	00000013	addi	x0,x0,0	  x0:0x00000000
       29425000	      2941	80002e44	00000013	addi	x0,x0,0	  x0:0x00000000
       29435000	      2942	80002e48	ff5ff9ef	jal	x19,80002e48	 x19=0x80002e48
       29445000	      2943	00000000	00000013	addi	x0,x0,0	  x0:0x00000000
       29455000	      2944	80002e38	00000013	addi	x0,x0,0	  x0:0x00000000
       29465000	      2945	80002e3c	fc5ff0ef	jal	x1,80002e3c	  x1=0x80002e3c
       29475000	      2946	00000000	00000013	addi	x0,x0,0	  x0:0x00000000
       29485000	      2947	80002dfc	00000013	addi	x0,x0,0	  x0:0x00000000
       29495000	      2948	80002e00	04c000ef	jal	x1,80002e00	  x1=0x80002e00
       29505000	      2949	00000000	00000013	addi	x0,x0,0	  x0:0x00000000
       29515000	      2950	80002e48	00000013	addi	x0,x0,0	  x0:0x00000000
       29525000	      2951	80002e4c	fd9ff8ef	jal	x17,80002e4c	 x17=0x80002e4c
       29535000	      2952	00000000	00000013	addi	x0,x0,0	  x0:0x00000000
       29545000	      2953	80002e20	00000013	addi	x0,x0,0	  x0:0x00000000
       29555000	      2954	80002e24	fcdff0ef	jal	x1,80002e24	  x1=0x80002e24
       29565000	      2955	00000000	00000013	addi	x0,x0,0	  x0:0x00000000
       29575000	      2956	80002dec	00000013	addi	x0,x0,0	  x0:0x00000000
       29585000	      2957	80002df0	04400def	jal	x27,80002df0	 x27=0x80002df0
       29595000	      2958	00000000	00000013	addi	x0,x0,0	  x0:0x00000000
       29605000	      2959	80002e30	00000013	addi	x0,x0,0	  x0:0x00000000
       29615000	      2960	80002e34	fc9ff0ef	jal	x1,80002e34	  x1=0x80002e34
       29625000	      2961	00000000	00000013	addi	x0,x0,0	  x0:0x00000000
       29635000	      2962	80002df8	00000013	addi	x0,x0,0	  x0:0x00000000
       29645000	      2963	80002dfc	ff1ffaef	jal	x21,80002dfc	 x21=0x80002dfc
       29655000	      2964	00000000	00000013	addi	x0,x0,0	  x0:0x00000000
       29665000	      2965	80002de8	00000013	addi	x0,x0,0	  x0:0x00000000
       29675000	      2966	80002dec	030000ef	jal	x1,80002dec	  x1=0x80002dec
       29685000	      2967	00000000	00000013	addi	x0,x0,0	  x0:0x00000000
       29695000	      2968	80002e18	00000013	addi	x0,x0,0	  x0:0x00000000
       29705000	      2969	80002e1c	fd9ff16f	jal	x2,80002e1c	  x2=0x80002e1c
       29715000	      2970	00000000	00000013	addi	x0,x0,0	  x0:0x00000000
       29725000	      2971	80002df0	00000013	addi	x0,x0,0	  x0:0x00000000
       29735000	      2972	80002df4	02c0036f	jal	x6,80002df4	  x6=0x80002df4
       29745000	      2973	00000000	00000013	addi	x0,x0,0	  x0:0x00000000
       29755000	      2974	80002e1c	00000013	addi	x0,x0,0	  x0:0x00000000
       29765000	      2975	80002e20	fedff0ef	jal	x1,80002e20	  x1=0x80002e20
       29775000	      2976	00000000	00000013	addi	x0,x0,0	  x0:0x00000000
       29785000	      2977	80002e08	00000013	addi	x0,x0,0	  x0:0x00000000
       29795000	      2978	80002e0c	fedff36f	jal	x6,80002e0c	  x6=0x80002e0c
       29805000	      2979	00000000	00000013	addi	x0,x0,0	  x0:0x00000000
       29815000	      2980	80002df4	00000013	addi	x0,x0,0	  x0:0x00000000
       29825000	      2981	80002df8	ff1ff0ef	jal	x1,80002df8	  x1=0x80002df8
       29835000	      2982	00000000	00000013	addi	x0,x0,0	  x0:0x00000000
       29845000	      2983	80002de4	00000013	addi	x0,x0,0	  x0:0x00000000
       29855000	      2984	80002de8	048000ef	jal	x1,80002de8	  x1=0x80002de8
       29865000	      2985	00000000	00000013	addi	x0,x0,0	  x0:0x00000000
       29875000	      2986	80002e2c	00000013	addi	x0,x0,0	  x0:0x00000000
       29885000	      2987	80002e30	ffdff2ef	jal	x5,80002e30	  x5=0x80002e30
       29895000	      2988	00000000	00000013	addi	x0,x0,0	  x0:0x00000000
       29905000	      2989	80002e28	00000013	addi	x0,x0,0	  x0:0x00000000
       29915000	      2990	80002e2c	00c000ef	jal	x1,80002e2c	  x1=0x80002e2c
       29925000	      2991	00000000	00000013	addi	x0,x0,0	  x0:0x00000000
       29935000	      2992	80002e34	00000013	addi	x0,x0,0	  x0:0x00000000
       29945000	      2993	80002e38	fd9ff8ef	jal	x17,80002e38	 x17=0x80002e38
       29955000	      2994	00000000	00000013	addi	x0,x0,0	  x0:0x00000000
       29965000	      2995	80002e0c	00000013	addi	x0,x0,0	  x0:0x00000000
       29975000	      2996	80002e10	0040036f	jal	x6,80002e10	  x6=0x80002e10
       29985000	      2997	00000000	00000013	addi	x0,x0,0	  x0:0x00000000
       29995000	      2998	80002e10	00000013	addi	x0,x0,0	  x0:0x00000000
       30005000	      2999	80002e14	0040066f	jal	x12,80002e14	 x12=0x80002e14
       30015000	      3000	00000000	00000013	addi	x0,x0,0	  x0:0x00000000
       30025000	      3001	80002e14	00000013	addi	x0,x0,0	  x0:0x00000000
       30035000	      3002	80002e18	02c000ef	jal	x1,80002e18	  x1=0x80002e18
       30045000	      3003	00000000	00000013	addi	x0,x0,0	  x0:0x00000000
       30055000	      3004	80002e40	00000013	addi	x0,x0,0	  x0:0x00000000
       30065000	      3005	80002e44	010000ef	jal	x1,80002e44	  x1=0x80002e44
       30075000	      3006	00000000	00000013	addi	x0,x0,0	  x0:0x00000000
       30085000	      3007	80002e50	00000013	addi	x0,x0,0	  x0:0x00000000
       30095000	      3008	80002e54	853e0c93	addi	x25,x28,-1965	 x28:0x17b0c528 x25=0x17b0bd7b
       30105000	      3009	80002e58	03c0036f	jal	x6,80002e58	  x6=0x80002e58
       30115000	      3010	00000000	00000013	addi	x0,x0,0	  x0:0x00000000
       30125000	      3011	80002e90	00000013	addi	x0,x0,0	  x0:0x00000000
       30135000	      3012	80002e94	ff9ff0ef	jal	x1,80002e94	  x1=0x80002e94
       30145000	      3013	00000000	00000013	addi	x0,x0,0	  x0:0x00000000
       30155000	      3014	80002e88	00000013	addi	x0,x0,0	  x0:0x00000000
       30165000	      3015	80002e8c	010001ef	jal	x3,80002e8c	  x3=0x80002e8c
       30175000	      3016	00000000	00000013	addi	x0,x0,0	  x0:0x00000000
       30185000	      3017	80002e98	00000013	addi	x0,x0,0	  x0:0x00000000
       30195000	      3018	80002e9c	fd5ff96f	jal	x18,80002e9c	 x18=0x80002e9c
       30205000	      3019	00000000	00000013	addi	x0,x0,0	  x0:0x00000000
       30215000	      3020	80002e6c	00000013	addi	x0,x0,0	  x0:0x00000000
       30225000	      3021	80002e70	00c009ef	jal	x19,80002e70	 x19=0x80002e70
       30235000	      3022	00000000	00000013	addi	x0,x0,0	  x0:0x00000000
       30245000	      3023	80002e78	00000013	addi	x0,x0,0	  x0:0x00000000
       30255000	      3024	80002e7c	fedff0ef	jal	x1,80002e7c	  x1=0x80002e7c
       30265000	      3025	00000000	00000013	addi	x0,x0,0	  x0:0x00000000
       30275000	      3026	80002e64	00000013	addi	x0,x0,0	  x0:0x00000000
       30285000	      3027	80002e68	ffdff0ef	jal	x1,80002e68	  x1=0x80002e68
       30295000	      3028	00000000	00000013	addi	x0,x0,0	  x0:0x00000000
       30305000	      3029	80002e60	00000013	addi	x0,x0,0	  x0:0x00000000
       30315000	      3030	80002e64	014000ef	jal	x1,80002e64	  x1=0x80002e64
       30325000	      3031	00000000	00000013	addi	x0,x0,0	  x0:0x00000000
       30335000	      3032	80002e74	00000013	addi	x0,x0,0	  x0:0x00000000
       30345000	      3033	80002e78	02000c6f	jal	x24,80002e78	 x24=0x80002e78
       30355000	      3034	00000000	00000013	addi	x0,x0,0	  x0:0x00000000
       30365000	      3035	80002e94	00000013	addi	x0,x0,0	  x0:0x00000000
       30375000	      3036	80002e98	fddff56f	jal	x10,80002e98	 x10=0x80002e98
       30385000	      3037	00000000	00000013	addi	x0,x0,0	  x0:0x00000000
       30395000	      3038	80002e70	00000013	addi	x0,x0,0	  x0:0x00000000
       30405000	      3039	80002e74	00c000ef	jal	x1,80002e74	  x1=0x80002e74
       30415000	      3040	00000000	00000013	addi	x0,x0,0	  x0:0x00000000
       30425000	      3041	80002e7c	00000013	addi	x0,x0,0	  x0:0x00000000
       30435000	      3042	80002e80	fddffb6f	jal	x22,80002e80	 x22=0x80002e80
       30445000	      3043	00000000	00000013	addi	x0,x0,0	  x0:0x00000000
       30455000	      3044	80002e58	00000013	addi	x0,x0,0	  x0:0x00000000
       30465000	      3045	80002e5c	0280036f	jal	x6,80002e5c	  x6=0x80002e5c
       30475000	      3046	00000000	00000013	addi	x0,x0,0	  x0:0x00000000
       30485000	      3047	80002e80	00000013	addi	x0,x0,0	  x0:0x00000000
       30495000	      3048	80002e84	fddff36f	jal	x6,80002e84	  x6=0x80002e84
       30505000	      3049	00000000	00000013	addi	x0,x0,0	  x0:0x00000000
       30515000	      3050	80002e5c	00000013	addi	x0,x0,0	  x0:0x00000000
       30525000	      3051	80002e60	00c000ef	jal	x1,80002e60	  x1=0x80002e60
       30535000	      3052	00000000	00000013	addi	x0,x0,0	  x0:0x00000000
       30545000	      3053	80002e68	00000013	addi	x0,x0,0	  x0:0x00000000
       30555000	      3054	80002e6c	01c000ef	jal	x1,80002e6c	  x1=0x80002e6c
       30565000	      3055	00000000	00000013	addi	x0,x0,0	  x0:0x00000000
       30575000	      3056	80002e84	00000013	addi	x0,x0,0	  x0:0x00000000
       30585000	      3057	80002e88	00800fef	jal	x31,80002e88	 x31=0x80002e88
       30595000	      3058	00000000	00000013	addi	x0,x0,0	  x0:0x00000000
       30605000	      3059	80002e8c	00000013	addi	x0,x0,0	  x0:0x00000000
       30615000	      3060	80002e90	0100036f	jal	x6,80002e90	  x6=0x80002e90
       30625000	      3061	00000000	00000013	addi	x0,x0,0	  x0:0x00000000
       30635000	      3062	80002e9c	00000013	addi	x0,x0,0	  x0:0x00000000
       30645000	      3063	80002ea0	003d2133	slt	x2,x26,x3	 x26:0x80004132  x3:0x80002e8c  x2=0x00000000
       30655000	      3064	80002ea4	0480036f	jal	x6,80002ea4	  x6=0x80002ea4
       30665000	      3065	00000000	00000013	addi	x0,x0,0	  x0:0x00000000
       30675000	      3066	80002ee8	00000013	addi	x0,x0,0	  x0:0x00000000
       30685000	      3067	80002eec	fc9ff0ef	jal	x1,80002eec	  x1=0x80002eec
       30695000	      3068	00000000	00000013	addi	x0,x0,0	  x0:0x00000000
       30705000	      3069	80002eb0	00000013	addi	x0,x0,0	  x0:0x00000000
       30715000	      3070	80002eb4	020000ef	jal	x1,80002eb4	  x1=0x80002eb4
       30725000	      3071	00000000	00000013	addi	x0,x0,0	  x0:0x00000000
       30735000	      3072	80002ed0	00000013	addi	x0,x0,0	  x0:0x00000000
       30745000	      3073	80002ed4	01c000ef	jal	x1,80002ed4	  x1=0x80002ed4
       30755000	      3074	00000000	00000013	addi	x0,x0,0	  x0:0x00000000
       30765000	      3075	80002eec	00000013	addi	x0,x0,0	  x0:0x00000000
       30775000	      3076	80002ef0	fd9ff0ef	jal	x1,80002ef0	  x1=0x80002ef0
       30785000	      3077	00000000	00000013	addi	x0,x0,0	  x0:0x00000000
       30795000	      3078	80002ec4	00000013	addi	x0,x0,0	  x0:0x00000000
       30805000	      3079	80002ec8	fe5ff0ef	jal	x1,80002ec8	  x1=0x80002ec8
       30815000	      3080	00000000	00000013	addi	x0,x0,0	  x0:0x00000000
       30825000	      3081	80002ea8	00000013	addi	x0,x0,0	  x0:0x00000000
       30835000	      3082	80002eac	048000ef	jal	x1,80002eac	  x1=0x80002eac
       30845000	      3083	00000000	00000013	addi	x0,x0,0	  x0:0x00000000
       30855000	      3084	80002ef0	00000013	addi	x0,x0,0	  x0:0x00000000
       30865000	      3085	80002ef4	fd1ff0ef	jal	x1,80002ef4	  x1=0x80002ef4
       30875000	      3086	00000000	00000013	addi	x0,x0,0	  x0:0x00000000
       30885000	      3087	80002ec0	00000013	addi	x0,x0,0	  x0:0x00000000
       30895000	      3088	80002ec4	ff9ff1ef	jal	x3,80002ec4	  x3=0x80002ec4
       30905000	      3089	00000000	00000013	addi	x0,x0,0	  x0:0x00000000
       30915000	      3090	80002eb8	00000013	addi	x0,x0,0	  x0:0x00000000
       30925000	      3091	80002ebc	04800aef	jal	x21,80002ebc	 x21=0x80002ebc
       30935000	      3092	00000000	00000013	addi	x0,x0,0	  x0:0x00000000
       30945000	      3093	80002f00	00000013	addi	x0,x0,0	  x0:0x00000000
       30955000	      3094	80002f04	fe1ff0ef	jal	x1,80002f04	  x1=0x80002f04
       30965000	      3095	00000000	00000013	addi	x0,x0,0	  x0:0x00000000
       30975000	      3096	80002ee0	00000013	addi	x0,x0,0	  x0:0x00000000
       30985000	      3097	80002ee4	0180036f	jal	x6,80002ee4	  x6=0x80002ee4
       30995000	      3098	00000000	00000013	addi	x0,x0,0	  x0:0x00000000
       31005000	      3099	80002ef8	00000013	addi	x0,x0,0	  x0:0x00000000
       31015000	      3100	80002efc	fb5ff36f	jal	x6,80002efc	  x6=0x80002efc
       31025000	      3101	00000000	00000013	addi	x0,x0,0	  x0:0x00000000
       31035000	      3102	80002eac	00000013	addi	x0,x0,0	  x0:0x00000000
       31045000	      3103	80002eb0	0280096f	jal	x18,80002eb0	 x18=0x80002eb0
       31055000	      3104	00000000	00000013	addi	x0,x0,0	  x0:0x00000000
       31065000	      3105	80002ed4	00000013	addi	x0,x0,0	  x0:0x00000000
       31075000	      3106	80002ed8	00800b6f	jal	x22,80002ed8	 x22=0x80002ed8
       31085000	      3107	00000000	00000013	addi	x0,x0,0	  x0:0x00000000
       31095000	      3108	80002edc	00000013	addi	x0,x0,0	  x0:0x00000000
       31105000	      3109	80002ee0	ff1ff0ef	jal	x1,80002ee0	  x1=0x80002ee0
       31115000	      3110	00000000	00000013	addi	x0,x0,0	  x0:0x00000000
       31125000	      3111	80002ecc	00000013	addi	x0,x0,0	  x0:0x00000000
       31135000	      3112	80002ed0	00c000ef	jal	x1,80002ed0	  x1=0x80002ed0
       31145000	      3113	00000000	00000013	addi	x0,x0,0	  x0:0x00000000
       31155000	      3114	80002ed8	00000013	addi	x0,x0,0	  x0:0x00000000
       31165000	      3115	80002edc	ff1ff2ef	jal	x5,80002edc	  x5=0x80002edc
       31175000	      3116	00000000	00000013	addi	x0,x0,0	  x0:0x00000000
       31185000	      3117	80002ec8	00000013	addi	x0,x0,0	  x0:0x00000000
       31195000	      3118	80002ecc	fddff0ef	jal	x1,80002ecc	  x1=0x80002ecc
       31205000	      3119	00000000	00000013	addi	x0,x0,0	  x0:0x00000000
       31215000	      3120	80002ea4	00000013	addi	x0,x0,0	  x0:0x00000000
       31225000	      3121	80002ea8	05800def	jal	x27,80002ea8	 x27=0x80002ea8
       31235000	      3122	00000000	00000013	addi	x0,x0,0	  x0:0x00000000
       31245000	      3123	80002efc	00000013	addi	x0,x0,0	  x0:0x00000000
       31255000	      3124	80002f00	ff9ff0ef	jal	x1,80002f00	  x1=0x80002f00
       31265000	      3125	00000000	00000013	addi	x0,x0,0	  x0:0x00000000
       31275000	      3126	80002ef4	00000013	addi	x0,x0,0	  x0:0x00000000
       31285000	      3127	80002ef8	fc9ff0ef	jal	x1,80002ef8	  x1=0x80002ef8
       31295000	      3128	00000000	00000013	addi	x0,x0,0	  x0:0x00000000
       31305000	      3129	80002ebc	00000013	addi	x0,x0,0	  x0:0x00000000
       31315000	      3130	80002ec0	ff9ff2ef	jal	x5,80002ec0	  x5=0x80002ec0
       31325000	      3131	00000000	00000013	addi	x0,x0,0	  x0:0x00000000
       31335000	      3132	80002eb4	00000013	addi	x0,x0,0	  x0:0x00000000
       31345000	      3133	80002eb8	030000ef	jal	x1,80002eb8	  x1=0x80002eb8
       31355000	      3134	00000000	00000013	addi	x0,x0,0	  x0:0x00000000
       31365000	      3135	80002ee4	00000013	addi	x0,x0,0	  x0:0x00000000
       31375000	      3136	80002ee8	02000bef	jal	x23,80002ee8	 x23=0x80002ee8
       31385000	      3137	00000000	00000013	addi	x0,x0,0	  x0:0x00000000
       31395000	      3138	80002f04	00000013	addi	x0,x0,0	  x0:0x00000000
       31405000	      3139	80002f08	01689793	slli	x15,x17,0x16	 x17:0x80002e38 x15=0x8e000000
       31415000	      3140	80002f0c	0080036f	jal	x6,80002f0c	  x6=0x80002f0c
       31425000	      3141	00000000	00000013	addi	x0,x0,0	  x0:0x00000000
       31435000	      3142	80002f10	00000013	addi	x0,x0,0	  x0:0x00000000
       31445000	      3143	80002f14	018000ef	jal	x1,80002f14	  x1=0x80002f14
       31455000	      3144	00000000	00000013	addi	x0,x0,0	  x0:0x00000000
       31465000	      3145	80002f28	00000013	addi	x0,x0,0	  x0:0x00000000
       31475000	      3146	80002f2c	01c00cef	jal	x25,80002f2c	 x25=0x80002f2c
       31485000	      3147	00000000	00000013	addi	x0,x0,0	  x0:0x00000000
       31495000	      3148	80002f44	00000013	addi	x0,x0,0	  x0:0x00000000
       31505000	      3149	80002f48	ffdff0ef	jal	x1,80002f48	  x1=0x80002f48
       31515000	      3150	00000000	00000013	addi	x0,x0,0	  x0:0x00000000
       31525000	      3151	80002f40	00000013	addi	x0,x0,0	  x0:0x00000000
       31535000	      3152	80002f44	ffdffcef	jal	x25,80002f44	 x25=0x80002f44
       31545000	      3153	00000000	00000013	addi	x0,x0,0	  x0:0x00000000
       31555000	      3154	80002f3c	00000013	addi	x0,x0,0	  x0:0x00000000
       31565000	      3155	80002f40	02c000ef	jal	x1,80002f40	  x1=0x80002f40
       31575000	      3156	00000000	00000013	addi	x0,x0,0	  x0:0x00000000
       31585000	      3157	80002f68	00000013	addi	x0,x0,0	  x0:0x00000000
       31595000	      3158	80002f6c	ff1ff66f	jal	x12,80002f6c	 x12=0x80002f6c
       31605000	      3159	00000000	00000013	addi	x0,x0,0	  x0:0x00000000
       31615000	      3160	80002f58	00000013	addi	x0,x0,0	  x0:0x00000000
       31625000	      3161	80002f5c	fc1ff0ef	jal	x1,80002f5c	  x1=0x80002f5c
       31635000	      3162	00000000	00000013	addi	x0,x0,0	  x0:0x00000000
       31645000	      3163	80002f18	00000013	addi	x0,x0,0	  x0:0x00000000
       31655000	      3164	80002f1c	ff5ffaef	jal	x21,80002f1c	 x21=0x80002f1c
       31665000	      3165	00000000	00000013	addi	x0,x0,0	  x0:0x00000000
       31675000	      3166	80002f0c	00000013	addi	x0,x0,0	  x0:0x00000000
       31685000	      3167	80002f10	0540036f	jal	x6,80002f10	  x6=0x80002f10
       31695000	      3168	00000000	00000013	addi	x0,x0,0	  x0:0x00000000
       31705000	      3169	80002f60	00000013	addi	x0,x0,0	  x0:0x00000000
       31715000	      3170	80002f64	fc5ff36f	jal	x6,80002f64	  x6=0x80002f64
       31725000	      3171	00000000	00000013	addi	x0,x0,0	  x0:0x00000000
       31735000	      3172	80002f24	00000013	addi	x0,x0,0	  x0:0x00000000
       31745000	      3173	80002f28	ffdff16f	jal	x2,80002f28	  x2=0x80002f28
       31755000	      3174	00000000	00000013	addi	x0,x0,0	  x0:0x00000000
       31765000	      3175	80002f20	00000013	addi	x0,x0,0	  x0:0x00000000
       31775000	      3176	80002f24	010000ef	jal	x1,80002f24	  x1=0x80002f24
       31785000	      3177	00000000	00000013	addi	x0,x0,0	  x0:0x00000000
       31795000	      3178	80002f30	00000013	addi	x0,x0,0	  x0:0x00000000
       31805000	      3179	80002f34	fedff0ef	jal	x1,80002f34	  x1=0x80002f34
       31815000	      3180	00000000	00000013	addi	x0,x0,0	  x0:0x00000000
       31825000	      3181	80002f1c	00000013	addi	x0,x0,0	  x0:0x00000000
       31835000	      3182	80002f20	010000ef	jal	x1,80002f20	  x1=0x80002f20
       31845000	      3183	00000000	00000013	addi	x0,x0,0	  x0:0x00000000
       31855000	      3184	80002f2c	00000013	addi	x0,x0,0	  x0:0x00000000
       31865000	      3185	80002f30	038000ef	jal	x1,80002f30	  x1=0x80002f30
       31875000	      3186	00000000	00000013	addi	x0,x0,0	  x0:0x00000000
       31885000	      3187	80002f64	00000013	addi	x0,x0,0	  x0:0x00000000
       31895000	      3188	80002f68	fe5ff0ef	jal	x1,80002f68	  x1=0x80002f68
       31905000	      3189	00000000	00000013	addi	x0,x0,0	  x0:0x00000000
       31915000	      3190	80002f48	00000013	addi	x0,x0,0	  x0:0x00000000
       31925000	      3191	80002f4c	004000ef	jal	x1,80002f4c	  x1=0x80002f4c
       31935000	      3192	00000000	00000013	addi	x0,x0,0	  x0:0x00000000
       31945000	      3193	80002f4c	00000013	addi	x0,x0,0	  x0:0x00000000
       31955000	      3194	80002f50	fedff8ef	jal	x17,80002f50	 x17=0x80002f50
       31965000	      3195	00000000	00000013	addi	x0,x0,0	  x0:0x00000000
       31975000	      3196	80002f38	00000013	addi	x0,x0,0	  x0:0x00000000
       31985000	      3197	80002f3c	024000ef	jal	x1,80002f3c	  x1=0x80002f3c
       31995000	      3198	00000000	00000013	addi	x0,x0,0	  x0:0x00000000
       32005000	      3199	80002f5c	00000013	addi	x0,x0,0	  x0:0x00000000
       32015000	      3200	80002f60	fb9ff36f	jal	x6,80002f60	  x6=0x80002f60
       32025000	      3201	00000000	00000013	addi	x0,x0,0	  x0:0x00000000
       32035000	      3202	80002f14	00000013	addi	x0,x0,0	  x0:0x00000000
       32045000	      3203	80002f18	03c006ef	jal	x13,80002f18	 x13=0x80002f18
       32055000	      3204	00000000	00000013	addi	x0,x0,0	  x0:0x00000000
       32065000	      3205	80002f50	00000013	addi	x0,x0,0	  x0:0x00000000
       32075000	      3206	80002f54	0040036f	jal	x6,80002f54	  x6=0x80002f54
       32085000	      3207	00000000	00000013	addi	x0,x0,0	  x0:0x00000000
       32095000	      3208	80002f54	00000013	addi	x0,x0,0	  x0:0x00000000
       32105000	      3209	80002f58	fe1ff9ef	jal	x19,80002f58	 x19=0x80002f58
       32115000	      3210	00000000	00000013	addi	x0,x0,0	  x0:0x00000000
       32125000	      3211	80002f34	00000013	addi	x0,x0,0	  x0:0x00000000
       32135000	      3212	80002f38	038000ef	jal	x1,80002f38	  x1=0x80002f38
       32145000	      3213	00000000	00000013	addi	x0,x0,0	  x0:0x00000000
       32155000	      3214	80002f6c	00000013	addi	x0,x0,0	  x0:0x00000000
       32165000	      3215	80002f70	38a61537	lui	x10,0x38a61	 x10=0x38a61000
       32175000	      3216	80002f74	0380036f	jal	x6,80002f74	  x6=0x80002f74
       32185000	      3217	00000000	00000013	addi	x0,x0,0	  x0:0x00000000
       32195000	      3218	80002fa8	00000013	addi	x0,x0,0	  x0:0x00000000
       32205000	      3219	80002fac	00c0036f	jal	x6,80002fac	  x6=0x80002fac
       32215000	      3220	00000000	00000013	addi	x0,x0,0	  x0:0x00000000
       32225000	      3221	80002fb4	00000013	addi	x0,x0,0	  x0:0x00000000
       32235000	      3222	80002fb8	fedff1ef	jal	x3,80002fb8	  x3=0x80002fb8
       32245000	      3223	00000000	00000013	addi	x0,x0,0	  x0:0x00000000
       32255000	      3224	80002fa0	00000013	addi	x0,x0,0	  x0:0x00000000
       32265000	      3225	80002fa4	fddff0ef	jal	x1,80002fa4	  x1=0x80002fa4
       32275000	      3226	00000000	00000013	addi	x0,x0,0	  x0:0x00000000
       32285000	      3227	80002f7c	00000013	addi	x0,x0,0	  x0:0x00000000
       32295000	      3228	80002f80	ffdff26f	jal	x4,80002f80	  x4=0x80002f80
       32305000	      3229	00000000	00000013	addi	x0,x0,0	  x0:0x00000000
       32315000	      3230	80002f78	00000013	addi	x0,x0,0	  x0:0x00000000
       32325000	      3231	80002f7c	01c00e6f	jal	x28,80002f7c	 x28=0x80002f7c
       32335000	      3232	00000000	00000013	addi	x0,x0,0	  x0:0x00000000
       32345000	      3233	80002f94	00000013	addi	x0,x0,0	  x0:0x00000000
       32355000	      3234	80002f98	fedff0ef	jal	x1,80002f98	  x1=0x80002f98
       32365000	      3235	00000000	00000013	addi	x0,x0,0	  x0:0x00000000
       32375000	      3236	80002f80	00000013	addi	x0,x0,0	  x0:0x00000000
       32385000	      3237	80002f84	0240036f	jal	x6,80002f84	  x6=0x80002f84
       32395000	      3238	00000000	00000013	addi	x0,x0,0	  x0:0x00000000
       32405000	      3239	80002fa4	00000013	addi	x0,x0,0	  x0:0x00000000
       32415000	      3240	80002fa8	fd1ff0ef	jal	x1,80002fa8	  x1=0x80002fa8
       32425000	      3241	00000000	00000013	addi	x0,x0,0	  x0:0x00000000
       32435000	      3242	80002f74	00000013	addi	x0,x0,0	  x0:0x00000000
       32445000	      3243	80002f78	04400fef	jal	x31,80002f78	 x31=0x80002f78
       32455000	      3244	00000000	00000013	addi	x0,x0,0	  x0:0x00000000
       32465000	      3245	80002fb8	00000013	addi	x0,x0,0	  x0:0x00000000
       32475000	      3246	80002fbc	fe5fff6f	jal	x30,80002fbc	 x30=0x80002fbc
       32485000	      3247	00000000	00000013	addi	x0,x0,0	  x0:0x00000000
       32495000	      3248	80002f9c	00000013	addi	x0,x0,0	  x0:0x00000000
       32505000	      3249	80002fa0	fedff0ef	jal	x1,80002fa0	  x1=0x80002fa0
       32515000	      3250	00000000	00000013	addi	x0,x0,0	  x0:0x00000000
       32525000	      3251	80002f88	00000013	addi	x0,x0,0	  x0:0x00000000
       32535000	      3252	80002f8c	0100036f	jal	x6,80002f8c	  x6=0x80002f8c
       32545000	      3253	00000000	00000013	addi	x0,x0,0	  x0:0x00000000
       32555000	      3254	80002f98	00000013	addi	x0,x0,0	  x0:0x00000000
       32565000	      3255	80002f9c	ff5ff36f	jal	x6,80002f9c	  x6=0x80002f9c
       32575000	      3256	00000000	00000013	addi	x0,x0,0	  x0:0x00000000
       32585000	      3257	80002f8c	00000013	addi	x0,x0,0	  x0:0x00000000
       32595000	      3258	80002f90	004000ef	jal	x1,80002f90	  x1=0x80002f90
       32605000	      3259	00000000	00000013	addi	x0,x0,0	  x0:0x00000000
       32615000	      3260	80002f90	00000013	addi	x0,x0,0	  x0:0x00000000
       32625000	      3261	80002f94	01c0046f	jal	x8,80002f94	  x8=0x80002f94
       32635000	      3262	00000000	00000013	addi	x0,x0,0	  x0:0x00000000
       32645000	      3263	80002fac	00000013	addi	x0,x0,0	  x0:0x00000000
       32655000	      3264	80002fb0	fd9ff36f	jal	x6,80002fb0	  x6=0x80002fb0
       32665000	      3265	00000000	00000013	addi	x0,x0,0	  x0:0x00000000
       32675000	      3266	80002f84	00000013	addi	x0,x0,0	  x0:0x00000000
       32685000	      3267	80002f88	02c002ef	jal	x5,80002f88	  x5=0x80002f88
       32695000	      3268	00000000	00000013	addi	x0,x0,0	  x0:0x00000000
       32705000	      3269	80002fb0	00000013	addi	x0,x0,0	  x0:0x00000000
       32715000	      3270	80002fb4	00c0036f	jal	x6,80002fb4	  x6=0x80002fb4
       32725000	      3271	00000000	00000013	addi	x0,x0,0	  x0:0x00000000
       32735000	      3272	80002fbc	00000013	addi	x0,x0,0	  x0:0x00000000
       32745000	      3273	80002fc0	52806c93	ori	x25,x0,1320	  x0:0x00000000 x25=0x00000528
       32755000	      3274	80002fc4	0400036f	jal	x6,80002fc4	  x6=0x80002fc4
       32765000	      3275	00000000	00000013	addi	x0,x0,0	  x0:0x00000000
       32775000	      3276	80003000	00000013	addi	x0,x0,0	  x0:0x00000000
       32785000	      3277	80003004	008000ef	jal	x1,80003004	  x1=0x80003004
       32795000	      3278	00000000	00000013	addi	x0,x0,0	  x0:0x00000000
       32805000	      3279	80003008	00000013	addi	x0,x0,0	  x0:0x00000000
       32815000	      3280	8000300c	010000ef	jal	x1,8000300c	  x1=0x8000300c
       32825000	      3281	00000000	00000013	addi	x0,x0,0	  x0:0x00000000
       32835000	      3282	80003018	00000013	addi	x0,x0,0	  x0:0x00000000
       32845000	      3283	8000301c	fbdff1ef	jal	x3,8000301c	  x3=0x8000301c
       32855000	      3284	00000000	00000013	addi	x0,x0,0	  x0:0x00000000
       32865000	      3285	80002fd4	00000013	addi	x0,x0,0	  x0:0x00000000
       32875000	      3286	80002fd8	00c000ef	jal	x1,80002fd8	  x1=0x80002fd8
       32885000	      3287	00000000	00000013	addi	x0,x0,0	  x0:0x00000000
       32895000	      3288	80002fe0	00000013	addi	x0,x0,0	  x0:0x00000000
       32905000	      3289	80002fe4	034000ef	jal	x1,80002fe4	  x1=0x80002fe4
       32915000	      3290	00000000	00000013	addi	x0,x0,0	  x0:0x00000000
       32925000	      3291	80003014	00000013	addi	x0,x0,0	  x0:0x00000000
       32935000	      3292	80003018	fb9ff2ef	jal	x5,80003018	  x5=0x80003018
       32945000	      3293	00000000	00000013	addi	x0,x0,0	  x0:0x00000000
       32955000	      3294	80002fcc	00000013	addi	x0,x0,0	  x0:0x00000000
       32965000	      3295	80002fd0	01c000ef	jal	x1,80002fd0	  x1=0x80002fd0
       32975000	      3296	00000000	00000013	addi	x0,x0,0	  x0:0x00000000
       32985000	      3297	80002fe8	00000013	addi	x0,x0,0	  x0:0x00000000
       32995000	      3298	80002fec	fe9ff1ef	jal	x3,80002fec	  x3=0x80002fec
       33005000	      3299	00000000	00000013	addi	x0,x0,0	  x0:0x00000000
       33015000	      3300	80002fd0	00000013	addi	x0,x0,0	  x0:0x00000000
       33025000	      3301	80002fd4	014000ef	jal	x1,80002fd4	  x1=0x80002fd4
       33035000	      3302	00000000	00000013	addi	x0,x0,0	  x0:0x00000000
       33045000	      3303	80002fe4	00000013	addi	x0,x0,0	  x0:0x00000000
       33055000	      3304	80002fe8	00c0036f	jal	x6,80002fe8	  x6=0x80002fe8
       33065000	      3305	00000000	00000013	addi	x0,x0,0	  x0:0x00000000
       33075000	      3306	80002ff0	00000013	addi	x0,x0,0	  x0:0x00000000
       33085000	      3307	80002ff4	ffdff0ef	jal	x1,80002ff4	  x1=0x80002ff4
       33095000	      3308	00000000	00000013	addi	x0,x0,0	  x0:0x00000000
       33105000	      3309	80002fec	00000013	addi	x0,x0,0	  x0:0x00000000
       33115000	      3310	80002ff0	0180036f	jal	x6,80002ff0	  x6=0x80002ff0
       33125000	      3311	00000000	00000013	addi	x0,x0,0	  x0:0x00000000
       33135000	      3312	80003004	00000013	addi	x0,x0,0	  x0:0x00000000
       33145000	      3313	80003008	fc1ffe6f	jal	x28,80003008	 x28=0x80003008
       33155000	      3314	00000000	00000013	addi	x0,x0,0	  x0:0x00000000
       33165000	      3315	80002fc4	00000013	addi	x0,x0,0	  x0:0x00000000
       33175000	      3316	80002fc8	01400a6f	jal	x20,80002fc8	 x20=0x80002fc8
       33185000	      3317	00000000	00000013	addi	x0,x0,0	  x0:0x00000000
       33195000	      3318	80002fd8	00000013	addi	x0,x0,0	  x0:0x00000000
       33205000	      3319	80002fdc	004000ef	jal	x1,80002fdc	  x1=0x80002fdc
       33215000	      3320	00000000	00000013	addi	x0,x0,0	  x0:0x00000000
       33225000	      3321	80002fdc	00000013	addi	x0,x0,0	  x0:0x00000000
       33235000	      3322	80002fe0	018000ef	jal	x1,80002fe0	  x1=0x80002fe0
       33245000	      3323	00000000	00000013	addi	x0,x0,0	  x0:0x00000000
       33255000	      3324	80002ff4	00000013	addi	x0,x0,0	  x0:0x00000000
       33265000	      3325	80002ff8	004000ef	jal	x1,80002ff8	  x1=0x80002ff8
       33275000	      3326	00000000	00000013	addi	x0,x0,0	  x0:0x00000000
       33285000	      3327	80002ff8	00000013	addi	x0,x0,0	  x0:0x00000000
       33295000	      3328	80002ffc	024000ef	jal	x1,80002ffc	  x1=0x80002ffc
       33305000	      3329	00000000	00000013	addi	x0,x0,0	  x0:0x00000000
       33315000	      3330	8000301c	00000013	addi	x0,x0,0	  x0:0x00000000
       33325000	      3331	80003020	ff5ff0ef	jal	x1,80003020	  x1=0x80003020
       33335000	      3332	00000000	00000013	addi	x0,x0,0	  x0:0x00000000
       33345000	      3333	80003010	00000013	addi	x0,x0,0	  x0:0x00000000
       33355000	      3334	80003014	ffdff0ef	jal	x1,80003014	  x1=0x80003014
       33365000	      3335	00000000	00000013	addi	x0,x0,0	  x0:0x00000000
       33375000	      3336	8000300c	00000013	addi	x0,x0,0	  x0:0x00000000
       33385000	      3337	80003010	ff1ff36f	jal	x6,80003010	  x6=0x80003010
       33395000	      3338	00000000	00000013	addi	x0,x0,0	  x0:0x00000000
       33405000	      3339	80002ffc	00000013	addi	x0,x0,0	  x0:0x00000000
       33415000	      3340	80003000	fcdfffef	jal	x31,80003000	 x31=0x80003000
       33425000	      3341	00000000	00000013	addi	x0,x0,0	  x0:0x00000000
       33435000	      3342	80002fc8	00000013	addi	x0,x0,0	  x0:0x00000000
       33445000	      3343	80002fcc	058000ef	jal	x1,80002fcc	  x1=0x80002fcc
       33455000	      3344	00000000	00000013	addi	x0,x0,0	  x0:0x00000000
       33465000	      3345	80003020	00000013	addi	x0,x0,0	  x0:0x00000000
       33475000	      3346	80003024	008fcfb3	xor	x31,x31,x8	 x31:0x80003000  x8:0x80002f94 x31=0x00001f94
       33485000	      3347	80003028	06c0036f	jal	x6,80003028	  x6=0x80003028
       33495000	      3348	00000000	00000013	addi	x0,x0,0	  x0:0x00000000
       33505000	      3349	80003090	00000013	addi	x0,x0,0	  x0:0x00000000
       33515000	      3350	80003094	ff5ff0ef	jal	x1,80003094	  x1=0x80003094
       33525000	      3351	00000000	00000013	addi	x0,x0,0	  x0:0x00000000
       33535000	      3352	80003084	00000013	addi	x0,x0,0	  x0:0x00000000
       33545000	      3353	80003088	fbdff0ef	jal	x1,80003088	  x1=0x80003088
       33555000	      3354	00000000	00000013	addi	x0,x0,0	  x0:0x00000000
       33565000	      3355	80003040	00000013	addi	x0,x0,0	  x0:0x00000000
       33575000	      3356	80003044	ff1ff4ef	jal	x9,80003044	  x9=0x80003044
       33585000	      3357	00000000	00000013	addi	x0,x0,0	  x0:0x00000000
       33595000	      3358	80003030	00000013	addi	x0,x0,0	  x0:0x00000000
       33605000	      3359	80003034	ff9ff0ef	jal	x1,80003034	  x1=0x80003034
       33615000	      3360	00000000	00000013	addi	x0,x0,0	  x0:0x00000000
       33625000	      3361	80003028	00000013	addi	x0,x0,0	  x0:0x00000000
       33635000	      3362	8000302c	0300066f	jal	x12,8000302c	 x12=0x8000302c
       33645000	      3363	00000000	00000013	addi	x0,x0,0	  x0:0x00000000
       33655000	      3364	80003058	00000013	addi	x0,x0,0	  x0:0x00000000
       33665000	      3365	8000305c	020000ef	jal	x1,8000305c	  x1=0x8000305c
       33675000	      3366	00000000	00000013	addi	x0,x0,0	  x0:0x00000000
       33685000	      3367	80003078	00000013	addi	x0,x0,0	  x0:0x00000000
       33695000	      3368	8000307c	ff9ff16f	jal	x2,8000307c	  x2=0x8000307c
       33705000	      3369	00000000	00000013	addi	x0,x0,0	  x0:0x00000000
       33715000	      3370	80003070	00000013	addi	x0,x0,0	  x0:0x00000000
       33725000	      3371	80003074	fddfff6f	jal	x30,80003074	 x30=0x80003074
       33735000	      3372	00000000	00000013	addi	x0,x0,0	  x0:0x00000000
       33745000	      3373	8000304c	00000013	addi	x0,x0,0	  x0:0x00000000
       33755000	      3374	80003050	ff1ff0ef	jal	x1,80003050	  x1=0x80003050
       33765000	      3375	00000000	00000013	addi	x0,x0,0	  x0:0x00000000
       33775000	      3376	8000303c	00000013	addi	x0,x0,0	  x0:0x00000000
       33785000	      3377	80003040	0140036f	jal	x6,80003040	  x6=0x80003040
       33795000	      3378	00000000	00000013	addi	x0,x0,0	  x0:0x00000000
       33805000	      3379	80003050	00000013	addi	x0,x0,0	  x0:0x00000000
       33815000	      3380	80003054	024000ef	jal	x1,80003054	  x1=0x80003054
       33825000	      3381	00000000	00000013	addi	x0,x0,0	  x0:0x00000000
       33835000	      3382	80003074	00000013	addi	x0,x0,0	  x0:0x00000000
       33845000	      3383	80003078	fb9ff1ef	jal	x3,80003078	  x3=0x80003078
       33855000	      3384	00000000	00000013	addi	x0,x0,0	  x0:0x00000000
       33865000	      3385	8000302c	00000013	addi	x0,x0,0	  x0:0x00000000
       33875000	      3386	80003030	01c002ef	jal	x5,80003030	  x5=0x80003030
       33885000	      3387	00000000	00000013	addi	x0,x0,0	  x0:0x00000000
       33895000	      3388	80003048	00000013	addi	x0,x0,0	  x0:0x00000000
       33905000	      3389	8000304c	ffdff36f	jal	x6,8000304c	  x6=0x8000304c
       33915000	      3390	00000000	00000013	addi	x0,x0,0	  x0:0x00000000
       33925000	      3391	80003044	00000013	addi	x0,x0,0	  x0:0x00000000
       33935000	      3392	80003048	01c000ef	jal	x1,80003048	  x1=0x80003048
       33945000	      3393	00000000	00000013	addi	x0,x0,0	  x0:0x00000000
       33955000	      3394	80003060	00000013	addi	x0,x0,0	  x0:0x00000000
       33965000	      3395	80003064	00c00cef	jal	x25,80003064	 x25=0x80003064
       33975000	      3396	00000000	00000013	addi	x0,x0,0	  x0:0x00000000
       33985000	      3397	8000306c	00000013	addi	x0,x0,0	  x0:0x00000000
       33995000	      3398	80003070	fcdff0ef	jal	x1,80003070	  x1=0x80003070
       34005000	      3399	00000000	00000013	addi	x0,x0,0	  x0:0x00000000
       34015000	      3400	80003038	00000013	addi	x0,x0,0	  x0:0x00000000
       34025000	      3401	8000303c	ffdff8ef	jal	x17,8000303c	 x17=0x8000303c
       34035000	      3402	00000000	00000013	addi	x0,x0,0	  x0:0x00000000
       34045000	      3403	80003034	00000013	addi	x0,x0,0	  x0:0x00000000
       34055000	      3404	80003038	030004ef	jal	x9,80003038	  x9=0x80003038
       34065000	      3405	00000000	00000013	addi	x0,x0,0	  x0:0x00000000
       34075000	      3406	80003064	00000013	addi	x0,x0,0	  x0:0x00000000
       34085000	      3407	80003068	ff9ff4ef	jal	x9,80003068	  x9=0x80003068
       34095000	      3408	00000000	00000013	addi	x0,x0,0	  x0:0x00000000
       34105000	      3409	8000305c	00000013	addi	x0,x0,0	  x0:0x00000000
       34115000	      3410	80003060	020000ef	jal	x1,80003060	  x1=0x80003060
       34125000	      3411	00000000	00000013	addi	x0,x0,0	  x0:0x00000000
       34135000	      3412	8000307c	00000013	addi	x0,x0,0	  x0:0x00000000
       34145000	      3413	80003080	fedff36f	jal	x6,80003080	  x6=0x80003080
       34155000	      3414	00000000	00000013	addi	x0,x0,0	  x0:0x00000000
       34165000	      3415	80003068	00000013	addi	x0,x0,0	  x0:0x00000000
       34175000	      3416	8000306c	024000ef	jal	x1,8000306c	  x1=0x8000306c
       34185000	      3417	00000000	00000013	addi	x0,x0,0	  x0:0x00000000
       34195000	      3418	8000308c	00000013	addi	x0,x0,0	  x0:0x00000000
       34205000	      3419	80003090	ff5ff26f	jal	x4,80003090	  x4=0x80003090
       34215000	      3420	00000000	00000013	addi	x0,x0,0	  x0:0x00000000
       34225000	      3421	80003080	00000013	addi	x0,x0,0	  x0:0x00000000
       34235000	      3422	80003084	fd5ffaef	jal	x21,80003084	 x21=0x80003084
       34245000	      3423	00000000	00000013	addi	x0,x0,0	  x0:0x00000000
       34255000	      3424	80003054	00000013	addi	x0,x0,0	  x0:0x00000000
       34265000	      3425	80003058	034000ef	jal	x1,80003058	  x1=0x80003058
       34275000	      3426	00000000	00000013	addi	x0,x0,0	  x0:0x00000000
       34285000	      3427	80003088	00000013	addi	x0,x0,0	  x0:0x00000000
       34295000	      3428	8000308c	00c000ef	jal	x1,8000308c	  x1=0x8000308c
       34305000	      3429	00000000	00000013	addi	x0,x0,0	  x0:0x00000000
       34315000	      3430	80003094	00000013	addi	x0,x0,0	  x0:0x00000000
       34325000	      3431	80003098	94bdd437	lui	x8,0x94bdd	  x8=0x94bdd000
       34335000	      3432	8000309c	568f70b7	lui	x1,0x568f7	  x1=0x568f7000
       34345000	      3433	800030a0	00664263	blt	x12,x6,800030a4	 x12:0x8000302c  x6:0x80003080
       34355000	      3434	00000000	00000013	addi	x0,x0,0	  x0:0x00000000
       34365000	      3435	800030a0	00000013	addi	x0,x0,0	  x0:0x00000000
       34375000	      3436	800030a4	40a8d733	sra	x14,x17,x10	 x17:0x8000303c x10:0x38a61000 x14=0x8000303c
       34385000	      3437	800030a8	eaa8ac13	slti	x24,x17,-342	 x17:0x8000303c x24=0x00000001
       34395000	      3438	800030ac	5448f713	andi	x14,x17,1348	 x17:0x8000303c x14=0x00000004
       34405000	      3439	800030b0	036a2493	slti	x9,x20,54	 x20:0x80002fc8  x9=0x00000001
       34415000	      3440	800030b4	01d560b3	or	x1,x10,x29	 x10:0x38a61000 x29:0x80002dbc  x1=0xb8a63dbc
       34425000	      3441	800030b8	0003e033	or	x0,x7,x0	  x7:0x80009fc4  x0:0x00000000
       34435000	      3442	800030bc	f0340093	addi	x1,x8,-253	  x8:0x94bdd000  x1=0x94bdcf03
       34445000	      3443	800030c0	0020c6b3	xor	x13,x1,x2	  x1:0x94bdcf03  x2:0x8000307c x13=0x14bdff7f
       34455000	      3444	800030c4	03097a63	bgeu	x18,x16,800030f8	 x18:0x80002eb0 x16:0x0d9b0d2b
       34465000	      3445	00000000	00000013	addi	x0,x0,0	  x0:0x00000000
       34475000	      3446	800030f4	00000013	addi	x0,x0,0	  x0:0x00000000
       34485000	      3447	800030f8	0059dc63	bge	x19,x5,80003110	 x19:0x80002f58  x5:0x80003030
       34495000	      3448	800030fc	01bc2433	slt	x8,x24,x27	 x24:0x00000001 x27:0x80002ea8  x8=0x00000000
       34505000	      3449	80003100	04d80463	beq	x16,x13,80003148	 x16:0x0d9b0d2b x13:0x14bdff7f
       34515000	      3450	80003104	051b4063	blt	x22,x17,80003144	 x22:0x80002ed8 x17:0x8000303c
       34525000	      3451	00000000	00000013	addi	x0,x0,0	  x0:0x00000000
       34535000	      3452	80003140	00000013	addi	x0,x0,0	  x0:0x00000000
       34545000	      3453	80003144	dbaa2413	slti	x8,x20,-582	 x20:0x80002fc8  x8=0x00000001
       34555000	      3454	80003148	017656b3	srl	x13,x12,x23	 x12:0x8000302c x23:0x80002ee8 x13=0x00800030
       34565000	      3455	8000314c	8dfdbf93	sltiu	x31,x27,-1825	 x27:0x80002ea8 x31=0x00000001
       34575000	      3456	80003150	01740633	add	x12,x8,x23	  x8:0x00000001 x23:0x80002ee8 x12=0x80002ee9
       34585000	      3457	80003154	003b60b3	or	x1,x22,x3	 x22:0x80002ed8  x3:0x80003078  x1=0x80003ef8
       34595000	      3458	80003158	0057f4b3	and	x9,x15,x5	 x15:0x8e000000  x5:0x80003030  x9=0x80000000
       34605000	      3459	8000315c	044b5263	bge	x22,x4,800031a0	 x22:0x80002ed8  x4:0x80003090
       34615000	      3460	80003160	00cd7c63	bgeu	x26,x12,80003178	 x26:0x80004132 x12:0x80002ee9
       34625000	      3461	00000000	00000013	addi	x0,x0,0	  x0:0x00000000
       34635000	      3462	80003174	00000013	addi	x0,x0,0	  x0:0x00000000
       34645000	      3463	80003178	0178f033	and	x0,x17,x23	 x17:0x8000303c x23:0x80002ee8
       34655000	      3464	8000317c	00abd693	srli	x13,x23,0xa	 x23:0x80002ee8 x13=0x0020000b
       34665000	      3465	80003180	00000013	addi	x0,x0,0	  x0:0x00000000
       34675000	      3466	80003184	013d4933	xor	x18,x26,x19	 x26:0x80004132 x19:0x80002f58 x18=0x00006e6a
       34685000	      3467	80003188	46e76993	ori	x19,x14,1134	 x14:0x00000004 x19=0x0000046e
       34695000	      3468	8000318c	41f489b3	sub	x19,x9,x31	  x9:0x80000000 x31:0x00000001 x19=0x7fffffff
       34705000	      3469	80003190	40e45413	srai	x8,x8,0xe	  x8:0x00000001  x8=0x00000000
       34715000	      3470	80003194	0155c863	blt	x11,x21,800031a4	 x11:0x80009f24 x21:0x80003084
       34725000	      3471	80003198	00109733	sll	x14,x1,x1	  x1:0x80003ef8  x1:0x80003ef8 x14=0xf8000000
       34735000	      3472	8000319c	a231c713	xori	x14,x3,-1501	  x3:0x80003078 x14=0x7fffca5b
       34745000	      3473	800031a0	0197d9b3	srl	x19,x15,x25	 x15:0x8e000000 x25:0x80003064 x19=0x08e00000
       34755000	      3474	800031a4	00ed40b3	xor	x1,x26,x14	 x26:0x80004132 x14:0x7fffca5b  x1=0xffff8b69
       34765000	      3475	800031a8	e9434693	xori	x13,x6,-364	  x6:0x80003080 x13=0x7fffce14
       34775000	      3476	800031ac	41a35933	sra	x18,x6,x26	  x6:0x80003080 x26:0x80004132 x18=0xffffe000
       34785000	      3477	800031b0	00e77463	bgeu	x14,x14,800031b8	 x14:0x7fffca5b x14:0x7fffca5b
       34795000	      3478	00000000	00000013	addi	x0,x0,0	  x0:0x00000000
       34805000	      3479	800031b4	00000013	addi	x0,x0,0	  x0:0x00000000
       34815000	      3480	800031b8	00000013	addi	x0,x0,0	  x0:0x00000000
       34825000	      3481	800031bc	e6a8c697	auipc	x13,0xe6a8c	 x13=0x66a8f1b8
       34835000	      3482	800031c0	0412f263	bgeu	x5,x1,80003204	  x5:0x80003030  x1:0xffff8b69
       34845000	      3483	800031c4	d710e493	ori	x9,x1,-655	  x1:0xffff8b69  x9=0xffffff79
       34855000	      3484	800031c8	aa73e313	ori	x6,x7,-1369	  x7:0x80009fc4  x6=0xffffffe7
       34865000	      3485	800031cc	010aec33	or	x24,x21,x16	 x21:0x80003084 x16:0x0d9b0d2b x24=0x8d9b3daf
       34875000	      3486	800031d0	40ed0ab3	sub	x21,x26,x14	 x26:0x80004132 x14:0x7fffca5b x21=0x000076d7
       34885000	      3487	800031d4	0186deb3	srl	x29,x13,x24	 x13:0x66a8f1b8 x24:0x8d9b3daf x29=0x0000cd51
       34895000	      3488	800031d8	0069bf33	sltu	x30,x19,x6	 x19:0x08e00000  x6:0xffffffe7 x30=0x00000001
       34905000	      3489	800031dc	0391e063	bltu	x3,x25,800031fc	  x3:0x80003078 x25:0x80003064
       34915000	      3490	800031e0	0175d613	srli	x12,x11,0x17	 x11:0x80009f24 x12=0x00000100
       34925000	      3491	800031e4	41b256b3	sra	x13,x4,x27	  x4:0x80003090 x27:0x80002ea8 x13=0xff800030
       34935000	      3492	800031e8	ce19dbb7	lui	x23,0xce19d	 x23=0xce19d000
       34945000	      3493	800031ec	40bbdcb3	sra	x25,x23,x11	 x23:0xce19d000 x11:0x80009f24 x25=0xfce19d00
       34955000	      3494	800031f0	75c93613	sltiu	x12,x18,1884	 x18:0xffffe000 x12=0x00000000
       34965000	      3495	800031f4	0108dc63	bge	x17,x16,8000320c	 x17:0x8000303c x16:0x0d9b0d2b
       34975000	      3496	800031f8	40520eb3	sub	x29,x4,x5	  x4:0x80003090  x5:0x80003030 x29=0x00000060
       34985000	      3497	800031fc	006b2fb3	slt	x31,x22,x6	 x22:0x80002ed8  x6:0xffffffe7 x31=0x00000001
       34995000	      3498	80003200	00000013	addi	x0,x0,0	  x0:0x00000000
       35005000	      3499	80003204	00cbce33	xor	x28,x23,x12	 x23:0xce19d000 x12:0x00000000 x28=0xce19d000
       35015000	      3500	80003208	8e4ea193	slti	x3,x29,-1820	 x29:0x00000060  x3=0x00000000
       35025000	      3501	8000320c	00915993	srli	x19,x2,0x9	  x2:0x8000307c x19=0x00400018
       35035000	      3502	80003210	40fe8033	sub	x0,x29,x15	 x29:0x00000060 x15:0x8e000000
       35045000	      3503	80003214	40d7d913	srai	x18,x15,0xd	 x15:0x8e000000 x18=0xfffc7000
       35055000	      3504	80003218	00b7ca33	xor	x20,x15,x11	 x15:0x8e000000 x11:0x80009f24 x20=0x0e009f24
       35065000	      3505	8000321c	00b3ac33	slt	x24,x7,x11	  x7:0x80009fc4 x11:0x80009f24 x24=0x00000000
       35075000	      3506	80003220	00438263	beq	x7,x4,80003224	  x7:0x80009fc4  x4:0x80003090
       35085000	      3507	80003224	00acc633	xor	x12,x25,x10	 x25:0xfce19d00 x10:0x38a61000 x12=0xc4478d00
       35095000	      3508	80003228	02216663	bltu	x2,x2,80003254	  x2:0x8000307c  x2:0x8000307c
       35105000	      3509	8000322c	00324ab3	xor	x21,x4,x3	  x4:0x80003090  x3:0x00000000 x21=0x80003090
       35115000	      3510	80003230	013ac7b3	xor	x15,x21,x19	 x21:0x80003090 x19:0x00400018 x15=0x80403088
       35125000	      3511	80003234	00619c63	bne	x3,x6,8000324c	  x3:0x00000000  x6:0xffffffe7
       35135000	      3512	00000000	00000013	addi	x0,x0,0	  x0:0x00000000
       35145000	      3513	80003248	00000013	addi	x0,x0,0	  x0:0x00000000
       35155000	      3514	8000324c	00709f93	slli	x31,x1,0x7	  x1:0xffff8b69 x31=0xffc5b480
       35165000	      3515	80003250	e772a913	slti	x18,x5,-393	  x5:0x80003030 x18=0x00000001
       35175000	      3516	80003254	00000013	addi	x0,x0,0	  x0:0x00000000
       35185000	      3517	80003258	0123e463	bltu	x7,x18,80003260	  x7:0x80009fc4 x18:0x00000001
       35195000	      3518	8000325c	03f14863	blt	x2,x31,8000328c	  x2:0x8000307c x31:0xffc5b480
       35205000	      3519	00000000	00000013	addi	x0,x0,0	  x0:0x00000000
       35215000	      3520	80003288	00000013	addi	x0,x0,0	  x0:0x00000000
       35225000	      3521	8000328c	0054e663	bltu	x9,x5,80003298	  x9:0xffffff79  x5:0x80003030
       35235000	      3522	80003290	01955b33	srl	x22,x10,x25	 x10:0x38a61000 x25:0xfce19d00 x22=0x38a61000
       35245000	      3523	80003294	010b10b3	sll	x1,x22,x16	 x22:0x38a61000 x16:0x0d9b0d2b  x1=0x30800000
       35255000	      3524	80003298	011a6663	bltu	x20,x17,800032a4	 x20:0x0e009f24 x17:0x8000303c
       35265000	      3525	00000000	00000013	addi	x0,x0,0	  x0:0x00000000
       35275000	      3526	800032a0	00000013	addi	x0,x0,0	  x0:0x00000000
       35285000	      3527	800032a4	00f07733	and	x14,x0,x15	  x0:0x00000000 x15:0x80403088 x14=0x00000000
       35295000	      3528	800032a8	f31b7613	andi	x12,x22,-207	 x22:0x38a61000 x12=0x38a61000
       35305000	      3529	800032ac	00e3e7b3	or	x15,x7,x14	  x7:0x80009fc4 x14:0x00000000 x15=0x80009fc4
       35315000	      3530	800032b0	0188beb3	sltu	x29,x17,x24	 x17:0x8000303c x24:0x00000000 x29=0x00000000
       35325000	      3531	800032b4	00b496b3	sll	x13,x9,x11	  x9:0xffffff79 x11:0x80009f24 x13=0xfffff790
       35335000	      3532	800032b8	00175bb3	srl	x23,x14,x1	 x14:0x00000000  x1:0x30800000 x23=0x00000000
       35345000	      3533	800032bc	013dadb3	slt	x27,x27,x19	 x27:0x80002ea8 x19:0x00400018 x27=0x00000001
       35355000	      3534	800032c0	00e939b3	sltu	x19,x18,x14	 x18:0x00000001 x14:0x00000000 x19=0x00000000
       35365000	      3535	800032c4	412f0433	sub	x8,x30,x18	 x30:0x00000001 x18:0x00000001  x8=0x00000000
       35375000	      3536	800032c8	41d65913	srai	x18,x12,0x1d	 x12:0x38a61000 x18=0x00000001
       35385000	      3537	800032cc	0017b033	sltu	x0,x15,x1	 x15:0x80009fc4  x1:0x30800000
       35395000	      3538	800032d0	43e22437	lui	x8,0x43e22	  x8=0x43e22000
       35405000	      3539	800032d4	00000013	addi	x0,x0,0	  x0:0x00000000
       35415000	      3540	800032d8	05bf7863	bgeu	x30,x27,80003328	 x30:0x00000001 x27:0x00000001
       35425000	      3541	00000000	00000013	addi	x0,x0,0	  x0:0x00000000
       35435000	      3542	80003324	00000013	addi	x0,x0,0	  x0:0x00000000
       35445000	      3543	80003328	24bf8713	addi	x14,x31,587	 x31:0xffc5b480 x14=0xffc5b6cb
       35455000	      3544	8000332c	01683293	sltiu	x5,x16,22	 x16:0x0d9b0d2b  x5=0x00000000
       35465000	      3545	80003330	01d8e633	or	x12,x17,x29	 x17:0x8000303c x29:0x00000000 x12=0x8000303c
       35475000	      3546	80003334	04d0c463	blt	x1,x13,8000337c	  x1:0x30800000 x13:0xfffff790
       35485000	      3547	80003338	051d5263	bge	x26,x17,8000337c	 x26:0x80004132 x17:0x8000303c
       35495000	      3548	00000000	00000013	addi	x0,x0,0	  x0:0x00000000
       35505000	      3549	80003378	00000013	addi	x0,x0,0	  x0:0x00000000
       35515000	      3550	8000337c	04c37263	bgeu	x6,x12,800033c0	  x6:0xffffffe7 x12:0x8000303c
       35525000	      3551	00000000	00000013	addi	x0,x0,0	  x0:0x00000000
       35535000	      3552	800033bc	00000013	addi	x0,x0,0	  x0:0x00000000
       35545000	      3553	800033c0	7cd44413	xori	x8,x8,1997	  x8:0x43e22000  x8=0x43e227cd
       35555000	      3554	800033c4	407cd733	sra	x14,x25,x7	 x25:0xfce19d00  x7:0x80009fc4 x14=0xffce19d0
       35565000	      3555	800033c8	055ad863	bge	x21,x21,80003418	 x21:0x80003090 x21:0x80003090
       35575000	      3556	00000000	00000013	addi	x0,x0,0	  x0:0x00000000
       35585000	      3557	80003414	00000013	addi	x0,x0,0	  x0:0x00000000
       35595000	      3558	80003418	05c4a113	slti	x2,x9,92	  x9:0xffffff79  x2=0x00000001
       35605000	      3559	8000341c	41fa5233	sra	x4,x20,x31	 x20:0x0e009f24 x31:0xffc5b480  x4=0x0e009f24
       35615000	      3560	80003420	d883a293	slti	x5,x7,-632	  x7:0x80009fc4  x5=0x00000001
       35625000	      3561	80003424	98cb2993	slti	x19,x22,-1652	 x22:0x38a61000 x19=0x00000000
       35635000	      3562	80003428	aed72213	slti	x4,x14,-1299	 x14:0xffce19d0  x4=0x00000001
       35645000	      3563	8000342c	01ef9c63	bne	x31,x30,80003444	 x31:0xffc5b480 x30:0x00000001
       35655000	      3564	00000000	00000013	addi	x0,x0,0	  x0:0x00000000
       35665000	      3565	80003440	00000013	addi	x0,x0,0	  x0:0x00000000
       35675000	      3566	80003444	00b40f33	add	x30,x8,x11	  x8:0x43e227cd x11:0x80009f24 x30=0xc3e2c6f1
       35685000	      3567	80003448	41eadf33	sra	x30,x21,x30	 x21:0x80003090 x30:0xc3e2c6f1 x30=0xffffc000
       35695000	      3568	8000344c	0061c733	xor	x14,x3,x6	  x3:0x00000000  x6:0xffffffe7 x14=0xffffffe7
       35705000	      3569	80003450	0086c733	xor	x14,x13,x8	 x13:0xfffff790  x8:0x43e227cd x14=0xbc1dd05d
       35715000	      3570	80003454	400c5cb3	sra	x25,x24,x0	 x24:0x00000000  x0:0x00000000 x25=0x00000000
       35725000	      3571	80003458	012dbbb3	sltu	x23,x27,x18	 x27:0x00000001 x18:0x00000001 x23=0x00000000
       35735000	      3572	8000345c	02a71a63	bne	x14,x10,80003490	 x14:0xbc1dd05d x10:0x38a61000
       35745000	      3573	00000000	00000013	addi	x0,x0,0	  x0:0x00000000
       35755000	      3574	8000348c	00000013	addi	x0,x0,0	  x0:0x00000000
       35765000	      3575	80003490	d9bd6137	lui	x2,0xd9bd6	  x2=0xd9bd6000
       35775000	      3576	80003494	51a31db7	lui	x27,0x51a31	 x27=0x51a31000
       35785000	      3577	80003498	41c78b33	sub	x22,x15,x28	 x15:0x80009fc4 x28:0xce19d000 x22=0xb1e6cfc4
       35795000	      3578	8000349c	034dd863	bge	x27,x20,800034cc	 x27:0x51a31000 x20:0x0e009f24
       35805000	      3579	00000000	00000013	addi	x0,x0,0	  x0:0x00000000
       35815000	      3580	800034c8	00000013	addi	x0,x0,0	  x0:0x00000000
       35825000	      3581	800034cc	0580e263	bltu	x1,x24,80003510	  x1:0x30800000 x24:0x00000000
       35835000	      3582	800034d0	00000013	addi	x0,x0,0	  x0:0x00000000
       35845000	      3583	800034d4	41300933	sub	x18,x0,x19	  x0:0x00000000 x19:0x00000000 x18=0x00000000
       35855000	      3584	800034d8	eaa4bb93	sltiu	x23,x9,-342	  x9:0xffffff79 x23=0x00000000
       35865000	      3585	800034dc	ea45a093	slti	x1,x11,-348	 x11:0x80009f24  x1=0x00000001
       35875000	      3586	800034e0	01645233	srl	x4,x8,x22	  x8:0x43e227cd x22:0xb1e6cfc4  x4=0x043e227c
       35885000	      3587	800034e4	a9818737	lui	x14,0xa9818	 x14=0xa9818000
       35895000	      3588	800034e8	40ad56b3	sra	x13,x26,x10	 x26:0x80004132 x10:0x38a61000 x13=0x80004132
       35905000	      3589	800034ec	99ed3993	sltiu	x19,x26,-1634	 x26:0x80004132 x19=0x00000001
       35915000	      3590	800034f0	021a1063	bne	x20,x1,80003510	 x20:0x0e009f24  x1:0x00000001
       35925000	      3591	00000000	00000013	addi	x0,x0,0	  x0:0x00000000
       35935000	      3592	8000350c	00000013	addi	x0,x0,0	  x0:0x00000000
       35945000	      3593	80003510	67f77997	auipc	x19,0x67f77	 x19=0xe7f7a50c
       35955000	      3594	80003514	00c3ff33	and	x30,x7,x12	  x7:0x80009fc4 x12:0x8000303c x30=0x80001004
       35965000	      3595	80003518	00b0ddb3	srl	x27,x1,x11	  x1:0x00000001 x11:0x80009f24 x27=0x00000000
       35975000	      3596	8000351c	01b50fb3	add	x31,x10,x27	 x10:0x38a61000 x27:0x00000000 x31=0x38a61000
       35985000	      3597	80003520	00a36cb3	or	x25,x6,x10	  x6:0xffffffe7 x10:0x38a61000 x25=0xffffffe7
       35995000	      3598	80003524	ebb96993	ori	x19,x18,-325	 x18:0x00000000 x19=0xfffffebb
       36005000	      3599	80003528	ed3ad117	auipc	x2,0xed3ad	  x2=0x6d3b0524
       36015000	      3600	8000352c	01265193	srli	x3,x12,0x12	 x12:0x8000303c  x3=0x00002000
       36025000	      3601	80003530	40b48ab3	sub	x21,x9,x11	  x9:0xffffff79 x11:0x80009f24 x21=0x7fff6055
       36035000	      3602	80003534	e2998193	addi	x3,x19,-471	 x19:0xfffffebb  x3=0xfffffce4
       36045000	      3603	80003538	cdfd0d17	auipc	x26,0xcdfd0	 x26=0x4dfd3534
       36055000	      3604	8000353c	013b9863	bne	x23,x19,8000354c	 x23:0x00000000 x19:0xfffffebb
       36065000	      3605	00000000	00000013	addi	x0,x0,0	  x0:0x00000000
       36075000	      3606	80003548	00000013	addi	x0,x0,0	  x0:0x00000000
       36085000	      3607	8000354c	013b1bb3	sll	x23,x22,x19	 x22:0xb1e6cfc4 x19:0xfffffebb x23=0x20000000
       36095000	      3608	80003550	657aea93	ori	x21,x21,1623	 x21:0x7fff6055 x21=0x7fff6657
       36105000	      3609	80003554	0600036f	jal	x6,80003554	  x6=0x80003554
       36115000	      3610	00000000	00000013	addi	x0,x0,0	  x0:0x00000000
       36125000	      3611	800035b0	00000013	addi	x0,x0,0	  x0:0x00000000
       36135000	      3612	800035b4	fc1ff26f	jal	x4,800035b4	  x4=0x800035b4
       36145000	      3613	00000000	00000013	addi	x0,x0,0	  x0:0x00000000
       36155000	      3614	80003570	00000013	addi	x0,x0,0	  x0:0x00000000
       36165000	      3615	80003574	00c000ef	jal	x1,80003574	  x1=0x80003574
       36175000	      3616	00000000	00000013	addi	x0,x0,0	  x0:0x00000000
       36185000	      3617	8000357c	00000013	addi	x0,x0,0	  x0:0x00000000
       36195000	      3618	80003580	fddff36f	jal	x6,80003580	  x6=0x80003580
       36205000	      3619	00000000	00000013	addi	x0,x0,0	  x0:0x00000000
       36215000	      3620	80003558	00000013	addi	x0,x0,0	  x0:0x00000000
       36225000	      3621	8000355c	00c008ef	jal	x17,8000355c	 x17=0x8000355c
       36235000	      3622	00000000	00000013	addi	x0,x0,0	  x0:0x00000000
       36245000	      3623	80003564	00000013	addi	x0,x0,0	  x0:0x00000000
       36255000	      3624	80003568	01c00d6f	jal	x26,80003568	 x26=0x80003568
       36265000	      3625	00000000	00000013	addi	x0,x0,0	  x0:0x00000000
       36275000	      3626	80003580	00000013	addi	x0,x0,0	  x0:0x00000000
       36285000	      3627	80003584	fe1ff0ef	jal	x1,80003584	  x1=0x80003584
       36295000	      3628	00000000	00000013	addi	x0,x0,0	  x0:0x00000000
       36305000	      3629	80003560	00000013	addi	x0,x0,0	  x0:0x00000000
       36315000	      3630	80003564	064000ef	jal	x1,80003564	  x1=0x80003564
       36325000	      3631	00000000	00000013	addi	x0,x0,0	  x0:0x00000000
       36335000	      3632	800035c4	00000013	addi	x0,x0,0	  x0:0x00000000
       36345000	      3633	800035c8	ff9ff1ef	jal	x3,800035c8	  x3=0x800035c8
       36355000	      3634	00000000	00000013	addi	x0,x0,0	  x0:0x00000000
       36365000	      3635	800035bc	00000013	addi	x0,x0,0	  x0:0x00000000
       36375000	      3636	800035c0	fddff0ef	jal	x1,800035c0	  x1=0x800035c0
       36385000	      3637	00000000	00000013	addi	x0,x0,0	  x0:0x00000000
       36395000	      3638	80003598	00000013	addi	x0,x0,0	  x0:0x00000000
       36405000	      3639	8000359c	fedff1ef	jal	x3,8000359c	  x3=0x8000359c
       36415000	      3640	00000000	00000013	addi	x0,x0,0	  x0:0x00000000
       36425000	      3641	80003584	00000013	addi	x0,x0,0	  x0:0x00000000
       36435000	      3642	80003588	fd9ff0ef	jal	x1,80003588	  x1=0x80003588
       36445000	      3643	00000000	00000013	addi	x0,x0,0	  x0:0x00000000
       36455000	      3644	8000355c	00000013	addi	x0,x0,0	  x0:0x00000000
       36465000	      3645	80003560	01c0036f	jal	x6,80003560	  x6=0x80003560
       36475000	      3646	00000000	00000013	addi	x0,x0,0	  x0:0x00000000
       36485000	      3647	80003578	00000013	addi	x0,x0,0	  x0:0x00000000
       36495000	      3648	8000357c	010000ef	jal	x1,8000357c	  x1=0x8000357c
       36505000	      3649	00000000	00000013	addi	x0,x0,0	  x0:0x00000000
       36515000	      3650	80003588	00000013	addi	x0,x0,0	  x0:0x00000000
       36525000	      3651	8000358c	0180036f	jal	x6,8000358c	  x6=0x8000358c
       36535000	      3652	00000000	00000013	addi	x0,x0,0	  x0:0x00000000
       36545000	      3653	800035a0	00000013	addi	x0,x0,0	  x0:0x00000000
       36555000	      3654	800035a4	0200076f	jal	x14,800035a4	 x14=0x800035a4
       36565000	      3655	00000000	00000013	addi	x0,x0,0	  x0:0x00000000
       36575000	      3656	800035c0	00000013	addi	x0,x0,0	  x0:0x00000000
       36585000	      3657	800035c4	f95ff0ef	jal	x1,800035c4	  x1=0x800035c4
       36595000	      3658	00000000	00000013	addi	x0,x0,0	  x0:0x00000000
       36605000	      3659	80003554	00000013	addi	x0,x0,0	  x0:0x00000000
       36615000	      3660	80003558	03c000ef	jal	x1,80003558	  x1=0x80003558
       36625000	      3661	00000000	00000013	addi	x0,x0,0	  x0:0x00000000
       36635000	      3662	80003590	00000013	addi	x0,x0,0	  x0:0x00000000
       36645000	      3663	80003594	fe5ff0ef	jal	x1,80003594	  x1=0x80003594
       36655000	      3664	00000000	00000013	addi	x0,x0,0	  x0:0x00000000
       36665000	      3665	80003574	00000013	addi	x0,x0,0	  x0:0x00000000
       36675000	      3666	80003578	ff9ff0ef	jal	x1,80003578	  x1=0x80003578
       36685000	      3667	00000000	00000013	addi	x0,x0,0	  x0:0x00000000
       36695000	      3668	8000356c	00000013	addi	x0,x0,0	  x0:0x00000000
       36705000	      3669	80003570	020000ef	jal	x1,80003570	  x1=0x80003570
       36715000	      3670	00000000	00000013	addi	x0,x0,0	  x0:0x00000000
       36725000	      3671	8000358c	00000013	addi	x0,x0,0	  x0:0x00000000
       36735000	      3672	80003590	0200096f	jal	x18,80003590	 x18=0x80003590
       36745000	      3673	00000000	00000013	addi	x0,x0,0	  x0:0x00000000
       36755000	      3674	800035ac	00000013	addi	x0,x0,0	  x0:0x00000000
       36765000	      3675	800035b0	fe9ff36f	jal	x6,800035b0	  x6=0x800035b0
       36775000	      3676	00000000	00000013	addi	x0,x0,0	  x0:0x00000000
       36785000	      3677	80003594	00000013	addi	x0,x0,0	  x0:0x00000000
       36795000	      3678	80003598	020002ef	jal	x5,80003598	  x5=0x80003598
       36805000	      3679	00000000	00000013	addi	x0,x0,0	  x0:0x00000000
       36815000	      3680	800035b4	00000013	addi	x0,x0,0	  x0:0x00000000
       36825000	      3681	800035b8	0040016f	jal	x2,800035b8	  x2=0x800035b8
       36835000	      3682	00000000	00000013	addi	x0,x0,0	  x0:0x00000000
       36845000	      3683	800035b8	00000013	addi	x0,x0,0	  x0:0x00000000
       36855000	      3684	800035bc	fb1ffd6f	jal	x26,800035bc	 x26=0x800035bc
       36865000	      3685	00000000	00000013	addi	x0,x0,0	  x0:0x00000000
       36875000	      3686	80003568	00000013	addi	x0,x0,0	  x0:0x00000000
       36885000	      3687	8000356c	0400036f	jal	x6,8000356c	  x6=0x8000356c
       36895000	      3688	00000000	00000013	addi	x0,x0,0	  x0:0x00000000
       36905000	      3689	800035a8	00000013	addi	x0,x0,0	  x0:0x00000000
       36915000	      3690	800035ac	ffdff36f	jal	x6,800035ac	  x6=0x800035ac
       36925000	      3691	00000000	00000013	addi	x0,x0,0	  x0:0x00000000
       36935000	      3692	800035a4	00000013	addi	x0,x0,0	  x0:0x00000000
       36945000	      3693	800035a8	ff9ff0ef	jal	x1,800035a8	  x1=0x800035a8
       36955000	      3694	00000000	00000013	addi	x0,x0,0	  x0:0x00000000
       36965000	      3695	8000359c	00000013	addi	x0,x0,0	  x0:0x00000000
       36975000	      3696	800035a0	02c000ef	jal	x1,800035a0	  x1=0x800035a0
       36985000	      3697	00000000	00000013	addi	x0,x0,0	  x0:0x00000000
       36995000	      3698	800035c8	00000013	addi	x0,x0,0	  x0:0x00000000
       37005000	      3699	800035cc	00000013	addi	x0,x0,0	  x0:0x00000000
       37015000	      3700	800035d0	41ae0933	sub	x18,x28,x26	 x28:0xce19d000 x26:0x800035bc x18=0x4e199a44
       37025000	      3701	800035d4	5903f093	andi	x1,x7,1424	  x7:0x80009fc4  x1=0x00000580
       37035000	      3702	800035d8	01aa1a13	slli	x20,x20,0x1a	 x20:0x0e009f24 x20=0x90000000
       37045000	      3703	800035dc	0021e6b3	or	x13,x3,x2	  x3:0x8000359c  x2:0x800035b8 x13=0x800035bc
       37055000	      3704	800035e0	29083c93	sltiu	x25,x16,656	 x16:0x0d9b0d2b x25=0x00000000
       37065000	      3705	800035e4	04476263	bltu	x14,x4,80003628	 x14:0x800035a4  x4:0x800035b4
       37075000	      3706	00000000	00000013	addi	x0,x0,0	  x0:0x00000000
       37085000	      3707	80003624	00000013	addi	x0,x0,0	  x0:0x00000000
       37095000	      3708	80003628	40498fb3	sub	x31,x19,x4	 x19:0xfffffebb  x4:0x800035b4 x31=0x7fffc907
       37105000	      3709	8000362c	01b49d93	slli	x27,x9,0x1b	  x9:0xffffff79 x27=0xc8000000
       37115000	      3710	80003630	40118633	sub	x12,x3,x1	  x3:0x8000359c  x1:0x00000580 x12=0x8000301c
       37125000	      3711	80003634	41e75293	srai	x5,x14,0x1e	 x14:0x800035a4  x5=0xfffffffe
       37135000	      3712	80003638	047be863	bltu	x23,x7,80003688	 x23:0x20000000  x7:0x80009fc4
       37145000	      3713	00000000	00000013	addi	x0,x0,0	  x0:0x00000000
       37155000	      3714	80003684	00000013	addi	x0,x0,0	  x0:0x00000000
       37165000	      3715	80003688	4ac26637	lui	x12,0x4ac26	 x12=0x4ac26000
       37175000	      3716	8000368c	40438a33	sub	x20,x7,x4	  x7:0x80009fc4  x4:0x800035b4 x20=0x00006a10
       37185000	      3717	80003690	8a39bb93	sltiu	x23,x19,-1885	 x19:0xfffffebb x23=0x00000000
       37195000	      3718	80003694	63f778b7	lui	x17,0x63f77	 x17=0x63f77000
       37205000	      3719	80003698	50abc197	auipc	x3,0x50abc	  x3=0xd0abf694
       37215000	      3720	8000369c	0111c463	blt	x3,x17,800036a4	  x3:0xd0abf694 x17:0x63f77000
       37225000	      3721	00000000	00000013	addi	x0,x0,0	  x0:0x00000000
       37235000	      3722	800036a0	00000013	addi	x0,x0,0	  x0:0x00000000
       37245000	      3723	800036a4	05bac463	blt	x21,x27,800036ec	 x21:0x7fff6657 x27:0xc8000000
       37255000	      3724	800036a8	01b04c63	blt	x0,x27,800036c0	  x0:0x00000000 x27:0xc8000000
       37265000	      3725	800036ac	761ce913	ori	x18,x25,1889	 x25:0x00000000 x18=0x00000761
       37275000	      3726	800036b0	bccc1e97	auipc	x29,0xbccc1	 x29=0x3ccc46ac
       37285000	      3727	800036b4	00789e13	slli	x28,x17,0x7	 x17:0x63f77000 x28=0xfbb80000
       37295000	      3728	800036b8	e579ef13	ori	x30,x19,-425	 x19:0xfffffebb x30=0xfffffeff
       37305000	      3729	800036bc	01ea5893	srli	x17,x20,0x1e	 x20:0x00006a10 x17=0x00000000
       37315000	      3730	800036c0	45698513	addi	x10,x19,1110	 x19:0xfffffebb x10=0x00000311
       37325000	      3731	800036c4	4cfbe893	ori	x17,x23,1231	 x23:0x00000000 x17=0x000004cf
       37335000	      3732	800036c8	01d1db33	srl	x22,x3,x29	  x3:0xd0abf694 x29:0x3ccc46ac x22=0x000d0abf
       37345000	      3733	800036cc	df763f37	lui	x30,0xdf763	 x30=0xdf763000
       37355000	      3734	800036d0	012b44b3	xor	x9,x22,x18	 x22:0x000d0abf x18:0x00000761  x9=0x000d0dde
       37365000	      3735	800036d4	002abd33	sltu	x26,x21,x2	 x21:0x7fff6657  x2:0x800035b8 x26=0x00000001
       37375000	      3736	800036d8	00000013	addi	x0,x0,0	  x0:0x00000000
       37385000	      3737	800036dc	41be5233	sra	x4,x28,x27	 x28:0xfbb80000 x27:0xc8000000  x4=0xfbb80000
       37395000	      3738	800036e0	00ca5bb3	srl	x23,x20,x12	 x20:0x00006a10 x12:0x4ac26000 x23=0x00006a10
       37405000	      3739	800036e4	00aa9a13	slli	x20,x21,0xa	 x21:0x7fff6657 x20=0xfd995c00
       37415000	      3740	800036e8	012ddb13	srli	x22,x27,0x12	 x27:0xc8000000 x22=0x00003200
       37425000	      3741	800036ec	01119f93	slli	x31,x3,0x11	  x3:0xd0abf694 x31=0xed280000
       37435000	      3742	800036f0	c67cee13	ori	x28,x25,-921	 x25:0x00000000 x28=0xfffffc67
       37445000	      3743	800036f4	005ad233	srl	x4,x21,x5	 x21:0x7fff6657  x5:0xfffffffe  x4=0x00000001
       37455000	      3744	800036f8	012c9ab3	sll	x21,x25,x18	 x25:0x00000000 x18:0x00000761 x21=0x00000000
       37465000	      3745	800036fc	7c79b093	sltiu	x1,x19,1991	 x19:0xfffffebb  x1=0x00000000
       37475000	      3746	80003700	413bd7b3	sra	x15,x23,x19	 x23:0x00006a10 x19:0xfffffebb x15=0x00000000
       37485000	      3747	80003704	03e00463	beq	x0,x30,8000372c	  x0:0x00000000 x30:0xdf763000
       37495000	      3748	80003708	01c9bcb3	sltu	x25,x19,x28	 x19:0xfffffebb x28:0xfffffc67 x25=0x00000000
       37505000	      3749	8000370c	00624c33	xor	x24,x4,x6	  x4:0x00000001  x6:0x800035ac x24=0x800035ad
       37515000	      3750	80003710	3630a417	auipc	x8,0x3630a	  x8=0xb630d70c
       37525000	      3751	80003714	00152233	slt	x4,x10,x1	 x10:0x00000311  x1:0x00000000  x4=0x00000000
       37535000	      3752	80003718	78b1ea93	ori	x21,x3,1931	  x3:0xd0abf694 x21=0xd0abf79f
       37545000	      3753	8000371c	68694f97	auipc	x31,0x68694	 x31=0xe8697718
       37555000	      3754	80003720	9d8d0693	addi	x13,x26,-1576	 x26:0x00000001 x13=0xfffff9d9
       37565000	      3755	80003724	0016bbb3	sltu	x23,x13,x1	 x13:0xfffff9d9  x1:0x00000000 x23=0x00000000
       37575000	      3756	80003728	03b00e63	beq	x0,x27,80003764	  x0:0x00000000 x27:0xc8000000
       37585000	      3757	8000372c	0064e663	bltu	x9,x6,80003738	  x9:0x000d0dde  x6:0x800035ac
       37595000	      3758	00000000	00000013	addi	x0,x0,0	  x0:0x00000000
       37605000	      3759	80003734	00000013	addi	x0,x0,0	  x0:0x00000000
       37615000	      3760	80003738	00000013	addi	x0,x0,0	  x0:0x00000000
       37625000	      3761	8000373c	011d5333	srl	x6,x26,x17	 x26:0x00000001 x17:0x000004cf  x6=0x00000000
       37635000	      3762	80003740	01a1cb33	xor	x22,x3,x26	  x3:0xd0abf694 x26:0x00000001 x22=0xd0abf695
       37645000	      3763	80003744	043a8063	beq	x21,x3,80003784	 x21:0xd0abf79f  x3:0xd0abf694
       37655000	      3764	80003748	4193d533	sra	x10,x7,x25	  x7:0x80009fc4 x25:0x00000000 x10=0x80009fc4
       37665000	      3765	8000374c	4d5c2413	slti	x8,x24,1237	 x24:0x800035ad  x8=0x00000001
       37675000	      3766	80003750	0302ca63	blt	x5,x16,80003784	  x5:0xfffffffe x16:0x0d9b0d2b
       37685000	      3767	00000000	00000013	addi	x0,x0,0	  x0:0x00000000
       37695000	      3768	80003780	00000013	addi	x0,x0,0	  x0:0x00000000
       37705000	      3769	80003784	c4800d93	addi	x27,x0,-952	  x0:0x00000000 x27=0xfffffc48
       37715000	      3770	80003788	02c0036f	jal	x6,80003788	  x6=0x80003788
       37725000	      3771	00000000	00000013	addi	x0,x0,0	  x0:0x00000000
       37735000	      3772	800037b0	00000013	addi	x0,x0,0	  x0:0x00000000
       37745000	      3773	800037b4	fddff36f	jal	x6,800037b4	  x6=0x800037b4
       37755000	      3774	00000000	00000013	addi	x0,x0,0	  x0:0x00000000
       37765000	      3775	8000378c	00000013	addi	x0,x0,0	  x0:0x00000000
       37775000	      3776	80003790	00c004ef	jal	x9,80003790	  x9=0x80003790
       37785000	      3777	00000000	00000013	addi	x0,x0,0	  x0:0x00000000
       37795000	      3778	80003798	00000013	addi	x0,x0,0	  x0:0x00000000
       37805000	      3779	8000379c	008000ef	jal	x1,8000379c	  x1=0x8000379c
       37815000	      3780	00000000	00000013	addi	x0,x0,0	  x0:0x00000000
       37825000	      3781	800037a0	00000013	addi	x0,x0,0	  x0:0x00000000
       37835000	      3782	800037a4	0040016f	jal	x2,800037a4	  x2=0x800037a4
       37845000	      3783	00000000	00000013	addi	x0,x0,0	  x0:0x00000000
       37855000	      3784	800037a4	00000013	addi	x0,x0,0	  x0:0x00000000
       37865000	      3785	800037a8	ff9ffcef	jal	x25,800037a8	 x25=0x800037a8
       37875000	      3786	00000000	00000013	addi	x0,x0,0	  x0:0x00000000
       37885000	      3787	8000379c	00000013	addi	x0,x0,0	  x0:0x00000000
       37895000	      3788	800037a0	00c000ef	jal	x1,800037a0	  x1=0x800037a0
       37905000	      3789	00000000	00000013	addi	x0,x0,0	  x0:0x00000000
       37915000	      3790	800037a8	00000013	addi	x0,x0,0	  x0:0x00000000
       37925000	      3791	800037ac	fedff36f	jal	x6,800037ac	  x6=0x800037ac
       37935000	      3792	00000000	00000013	addi	x0,x0,0	  x0:0x00000000
       37945000	      3793	80003794	00000013	addi	x0,x0,0	  x0:0x00000000
       37955000	      3794	80003798	ff5ff0ef	jal	x1,80003798	  x1=0x80003798
       37965000	      3795	00000000	00000013	addi	x0,x0,0	  x0:0x00000000
       37975000	      3796	80003788	00000013	addi	x0,x0,0	  x0:0x00000000
       37985000	      3797	8000378c	0080036f	jal	x6,8000378c	  x6=0x8000378c
       37995000	      3798	00000000	00000013	addi	x0,x0,0	  x0:0x00000000
       38005000	      3799	80003790	00000013	addi	x0,x0,0	  x0:0x00000000
       38015000	      3800	80003794	01c000ef	jal	x1,80003794	  x1=0x80003794
       38025000	      3801	00000000	00000013	addi	x0,x0,0	  x0:0x00000000
       38035000	      3802	800037ac	00000013	addi	x0,x0,0	  x0:0x00000000
       38045000	      3803	800037b0	0080036f	jal	x6,800037b0	  x6=0x800037b0
       38055000	      3804	00000000	00000013	addi	x0,x0,0	  x0:0x00000000
       38065000	      3805	800037b4	00000013	addi	x0,x0,0	  x0:0x00000000
       38075000	      3806	800037b8	01d32333	slt	x6,x6,x29	  x6:0x800037b0 x29:0x3ccc46ac  x6=0x00000001
       38085000	      3807	800037bc	52166313	ori	x6,x12,1313	 x12:0x4ac26000  x6=0x4ac26521
       38095000	      3808	800037c0	014f2ab3	slt	x21,x30,x20	 x30:0xdf763000 x20:0xfd995c00 x21=0x00000001
       38105000	      3809	800037c4	019cfc63	bgeu	x25,x25,800037dc	 x25:0x800037a8 x25:0x800037a8
       38115000	      3810	00000000	00000013	addi	x0,x0,0	  x0:0x00000000
       38125000	      3811	800037d8	00000013	addi	x0,x0,0	  x0:0x00000000
       38135000	      3812	800037dc	0132e933	or	x18,x5,x19	  x5:0xfffffffe x19:0xfffffebb x18=0xffffffff
       38145000	      3813	800037e0	402cd693	srai	x13,x25,0x2	 x25:0x800037a8 x13=0xe0000dea
       38155000	      3814	800037e4	004c1b13	slli	x22,x24,0x4	 x24:0x800035ad x22=0x00035ad0
       38165000	      3815	800037e8	01ef5413	srli	x8,x30,0x1e	 x30:0xdf763000  x8=0x00000003
       38175000	      3816	800037ec	041ae463	bltu	x21,x1,80003834	 x21:0x00000001  x1:0x80003794
       38185000	      3817	00000000	00000013	addi	x0,x0,0	  x0:0x00000000
       38195000	      3818	80003830	00000013	addi	x0,x0,0	  x0:0x00000000
       38205000	      3819	80003834	012e0ab3	add	x21,x28,x18	 x28:0xfffffc67 x18:0xffffffff x21=0xfffffc66
       38215000	      3820	80003838	00c11493	slli	x9,x2,0xc	  x2:0x800037a4  x9=0x037a4000
       38225000	      3821	8000383c	00000013	addi	x0,x0,0	  x0:0x00000000
       38235000	      3822	80003840	00e76863	bltu	x14,x14,80003850	 x14:0x800035a4 x14:0x800035a4
       38245000	      3823	80003844	01619463	bne	x3,x22,8000384c	  x3:0xd0abf694 x22:0x00035ad0
       38255000	      3824	00000000	00000013	addi	x0,x0,0	  x0:0x00000000
       38265000	      3825	80003848	00000013	addi	x0,x0,0	  x0:0x00000000
       38275000	      3826	8000384c	f106cd17	auipc	x26,0xf106c	 x26=0x7106f848
       38285000	      3827	80003850	00dcd433	srl	x8,x25,x13	 x25:0x800037a8 x13:0xe0000dea  x8=0x0020000d
       38295000	      3828	80003854	02511a63	bne	x2,x5,80003888	  x2:0x800037a4  x5:0xfffffffe
       38305000	      3829	00000000	00000013	addi	x0,x0,0	  x0:0x00000000
       38315000	      3830	80003884	00000013	addi	x0,x0,0	  x0:0x00000000
       38325000	      3831	80003888	00c19533	sll	x10,x3,x12	  x3:0xd0abf694 x12:0x4ac26000 x10=0xd0abf694
       38335000	      3832	8000388c	003130b3	sltu	x1,x2,x3	  x2:0x800037a4  x3:0xd0abf694  x1=0x00000001
       38345000	      3833	80003890	86d06093	ori	x1,x0,-1939	  x0:0x00000000  x1=0xfffff86d
       38355000	      3834	80003894	00876633	or	x12,x14,x8	 x14:0x800035a4  x8:0x0020000d x12=0x802035ad
       38365000	      3835	80003898	f5ec7717	auipc	x14,0xf5ec7	 x14=0x75eca894
       38375000	      3836	8000389c	c3147913	andi	x18,x8,-975	  x8:0x0020000d x18=0x00200001
       38385000	      3837	800038a0	014b8ab3	add	x21,x23,x20	 x23:0x00000000 x20:0xfd995c00 x21=0xfd995c00
       38395000	      3838	800038a4	02c35063	bge	x6,x12,800038c4	  x6:0x4ac26521 x12:0x802035ad
       38405000	      3839	00000000	00000013	addi	x0,x0,0	  x0:0x00000000
       38415000	      3840	800038c0	00000013	addi	x0,x0,0	  x0:0x00000000
       38425000	      3841	800038c4	016542b3	xor	x5,x10,x22	 x10:0xd0abf694 x22:0x00035ad0  x5=0xd0a8ac44
       38435000	      3842	800038c8	0243fa63	bgeu	x7,x4,800038fc	  x7:0x80009fc4  x4:0x00000000
       38445000	      3843	00000000	00000013	addi	x0,x0,0	  x0:0x00000000
       38455000	      3844	800038f8	00000013	addi	x0,x0,0	  x0:0x00000000
       38465000	      3845	800038fc	01061b93	slli	x23,x12,0x10	 x12:0x802035ad x23=0x35ad0000
       38475000	      3846	80003900	40bc5213	srai	x4,x24,0xb	 x24:0x800035ad  x4=0xfff00006
       38485000	      3847	80003904	2de4b893	sltiu	x17,x9,734	  x9:0x037a4000 x17=0x00000000
       38495000	      3848	80003908	e69a2713	slti	x14,x20,-407	 x20:0xfd995c00 x14=0x00000001
       38505000	      3849	8000390c	017d4333	xor	x6,x26,x23	 x26:0x7106f848 x23:0x35ad0000  x6=0x44abf848
       38515000	      3850	80003910	40c00b33	sub	x22,x0,x12	  x0:0x00000000 x12:0x802035ad x22=0x7fdfca53
       38525000	      3851	80003914	01bf01b3	add	x3,x30,x27	 x30:0xdf763000 x27:0xfffffc48  x3=0xdf762c48
       38535000	      3852	80003918	0ea7bd13	sltiu	x26,x15,234	 x15:0x00000000 x26=0x00000001
       38545000	      3853	8000391c	01241293	slli	x5,x8,0x12	  x8:0x0020000d  x5=0x00340000
       38555000	      3854	80003920	07d78e63	beq	x15,x29,8000399c	 x15:0x00000000 x29:0x3ccc46ac
       38565000	      3855	80003924	07b0ce63	blt	x1,x27,800039a0	  x1:0xfffff86d x27:0xfffffc48
       38575000	      3856	00000000	00000013	addi	x0,x0,0	  x0:0x00000000
       38585000	      3857	8000399c	00000013	addi	x0,x0,0	  x0:0x00000000
       38595000	      3858	800039a0	00a41013	slli	x0,x8,0xa	  x8:0x0020000d
       38605000	      3859	800039a4	01517263	bgeu	x2,x21,800039a8	  x2:0x800037a4 x21:0xfd995c00
       38615000	      3860	800039a8	0a676063	bltu	x14,x6,80003a48	 x14:0x00000001  x6:0x44abf848
       38625000	      3861	00000000	00000013	addi	x0,x0,0	  x0:0x00000000
       38635000	      3862	80003a44	00000013	addi	x0,x0,0	  x0:0x00000000
       38645000	      3863	80003a48	1ce14013	xori	x0,x2,462	  x2:0x800037a4
       38655000	      3864	80003a4c	3e81c493	xori	x9,x3,1000	  x3:0xdf762c48  x9=0xdf762fa0
       38665000	      3865	80003a50	008f3cb3	sltu	x25,x30,x8	 x30:0xdf763000  x8:0x0020000d x25=0x00000000
       38675000	      3866	80003a54	6574ef13	ori	x30,x9,1623	  x9:0xdf762fa0 x30=0xdf762ff7
       38685000	      3867	80003a58	013fe2b3	or	x5,x31,x19	 x31:0xe8697718 x19:0xfffffebb  x5=0xffffffbb
       38695000	      3868	80003a5c	00605f13	srli	x30,x0,0x6	  x0:0x00000000 x30=0x00000000
       38705000	      3869	80003a60	01f4d113	srli	x2,x9,0x1f	  x9:0xdf762fa0  x2=0x00000001
       38715000	      3870	80003a64	03b57463	bgeu	x10,x27,80003a8c	 x10:0xd0abf694 x27:0xfffffc48
       38725000	      3871	80003a68	05210263	beq	x2,x18,80003aac	  x2:0x00000001 x18:0x00200001
       38735000	      3872	80003a6c	4910b893	sltiu	x17,x1,1169	  x1:0xfffff86d x17=0x00000000
       38745000	      3873	80003a70	04ce7263	bgeu	x28,x12,80003ab4	 x28:0xfffffc67 x12:0x802035ad
       38755000	      3874	00000000	00000013	addi	x0,x0,0	  x0:0x00000000
       38765000	      3875	80003ab0	00000013	addi	x0,x0,0	  x0:0x00000000
       38775000	      3876	80003ab4	00c08663	beq	x1,x12,80003ac0	  x1:0xfffff86d x12:0x802035ad
       38785000	      3877	80003ab8	0107eb33	or	x22,x15,x16	 x15:0x00000000 x16:0x0d9b0d2b x22=0x0d9b0d2b
       38795000	      3878	80003abc	01260a33	add	x20,x12,x18	 x12:0x802035ad x18:0x00200001 x20=0x804035ae
       38805000	      3879	80003ac0	0332da63	bge	x5,x19,80003af4	  x5:0xffffffbb x19:0xfffffebb
       38815000	      3880	00000000	00000013	addi	x0,x0,0	  x0:0x00000000
       38825000	      3881	80003af0	00000013	addi	x0,x0,0	  x0:0x00000000
       38835000	      3882	80003af4	01f2ea33	or	x20,x5,x31	  x5:0xffffffbb x31:0xe8697718 x20=0xffffffbb
       38845000	      3883	80003af8	0008dfb3	srl	x31,x17,x0	 x17:0x00000000  x0:0x00000000 x31=0x00000000
       38855000	      3884	80003afc	018a1233	sll	x4,x20,x24	 x20:0xffffffbb x24:0x800035ad  x4=0xfff76000
       38865000	      3885	80003b00	00de32b3	sltu	x5,x28,x13	 x28:0xfffffc67 x13:0xe0000dea  x5=0x00000000
       38875000	      3886	80003b04	405bd933	sra	x18,x23,x5	 x23:0x35ad0000  x5:0x00000000 x18=0x35ad0000
       38885000	      3887	80003b08	413a8b33	sub	x22,x21,x19	 x21:0xfd995c00 x19:0xfffffebb x22=0xfd995d45
       38895000	      3888	80003b0c	00496bb3	or	x23,x18,x4	 x18:0x35ad0000  x4:0xfff76000 x23=0xffff6000
       38905000	      3889	80003b10	00e726b3	slt	x13,x14,x14	 x14:0x00000001 x14:0x00000001 x13=0x00000000
       38915000	      3890	80003b14	01ab71b3	and	x3,x22,x26	 x22:0xfd995d45 x26:0x00000001  x3=0x00000001
       38925000	      3891	80003b18	01a7e7b3	or	x15,x15,x26	 x15:0x00000000 x26:0x00000001 x15=0x00000001
       38935000	      3892	80003b1c	40a15693	srai	x13,x2,0xa	  x2:0x00000001 x13=0x00000000
       38945000	      3893	80003b20	01fa94b3	sll	x9,x21,x31	 x21:0xfd995c00 x31:0x00000000  x9=0xfd995c00
       38955000	      3894	80003b24	016b7ab3	and	x21,x22,x22	 x22:0xfd995d45 x22:0xfd995d45 x21=0xfd995d45
       38965000	      3895	80003b28	01926263	bltu	x4,x25,80003b2c	  x4:0xfff76000 x25:0x00000000
       38975000	      3896	80003b2c	aedbf613	andi	x12,x23,-1299	 x23:0xffff6000 x12=0xffff6000
       38985000	      3897	80003b30	508c6c93	ori	x25,x24,1288	 x24:0x800035ad x25=0x800035ad
       38995000	      3898	80003b34	fda36013	ori	x0,x6,-38	  x6:0x44abf848
       39005000	      3899	80003b38	41a204b3	sub	x9,x4,x26	  x4:0xfff76000 x26:0x00000001  x9=0xfff75fff
       39015000	      3900	80003b3c	00224c63	blt	x4,x2,80003b54	  x4:0xfff76000  x2:0x00000001
       39025000	      3901	00000000	00000013	addi	x0,x0,0	  x0:0x00000000
       39035000	      3902	80003b50	00000013	addi	x0,x0,0	  x0:0x00000000
       39045000	      3903	80003b54	01bfaf33	slt	x30,x31,x27	 x31:0x00000000 x27:0xfffffc48 x30=0x00000000
       39055000	      3904	80003b58	40fe5993	srai	x19,x28,0xf	 x28:0xfffffc67 x19=0xffffffff
       39065000	      3905	80003b5c	002dbab3	sltu	x21,x27,x2	 x27:0xfffffc48  x2:0x00000001 x21=0x00000000
       39075000	      3906	80003b60	00264533	xor	x10,x12,x2	 x12:0xffff6000  x2:0x00000001 x10=0xffff6001
       39085000	      3907	80003b64	034bc863	blt	x23,x20,80003b94	 x23:0xffff6000 x20:0xffffffbb
       39095000	      3908	00000000	00000013	addi	x0,x0,0	  x0:0x00000000
       39105000	      3909	80003b90	00000013	addi	x0,x0,0	  x0:0x00000000
       39115000	      3910	80003b94	835e8993	addi	x19,x29,-1995	 x29:0x3ccc46ac x19=0x3ccc3ee1
       39125000	      3911	80003b98	01c19c63	bne	x3,x28,80003bb0	  x3:0x00000001 x28:0xfffffc67
       39135000	      3912	00000000	00000013	addi	x0,x0,0	  x0:0x00000000
       39145000	      3913	80003bac	00000013	addi	x0,x0,0	  x0:0x00000000
       39155000	      3914	80003bb0	01929313	slli	x6,x5,0x19	  x5:0x00000000  x6=0x00000000
       39165000	      3915	80003bb4	40e6da93	srai	x21,x13,0xe	 x13:0x00000000 x21=0x00000000
       39175000	      3916	80003bb8	00c50e33	add	x28,x10,x12	 x10:0xffff6001 x12:0xffff6000 x28=0xfffec001
       39185000	      3917	80003bbc	00000013	addi	x0,x0,0	  x0:0x00000000
       39195000	      3918	80003bc0	00000013	addi	x0,x0,0	  x0:0x00000000
       39205000	      3919	80003bc4	d9a73413	sltiu	x8,x14,-614	 x14:0x00000001  x8=0x00000001
       39215000	      3920	80003bc8	407adb93	srai	x23,x21,0x7	 x21:0x00000000 x23=0x00000000
       39225000	      3921	80003bcc	0321f063	bgeu	x3,x18,80003bec	  x3:0x00000001 x18:0x35ad0000
       39235000	      3922	80003bd0	00ea1993	slli	x19,x20,0xe	 x20:0xffffffbb x19=0xffeec000
       39245000	      3923	80003bd4	0060f733	and	x14,x1,x6	  x1:0xfffff86d  x6:0x00000000 x14=0x00000000
       39255000	      3924	80003bd8	00368633	add	x12,x13,x3	 x13:0x00000000  x3:0x00000001 x12=0x00000001
       39265000	      3925	80003bdc	0091d233	srl	x4,x3,x9	  x3:0x00000001  x9:0xfff75fff  x4=0x00000000
       39275000	      3926	80003be0	91f48613	addi	x12,x9,-1761	  x9:0xfff75fff x12=0xfff7591e
       39285000	      3927	80003be4	ca3b0a13	addi	x20,x22,-861	 x22:0xfd995d45 x20=0xfd9959e8
       39295000	      3928	80003be8	059af263	bgeu	x21,x25,80003c2c	 x21:0x00000000 x25:0x800035ad
       39305000	      3929	80003bec	404cdb13	srai	x22,x25,0x4	 x25:0x800035ad x22=0xf800035a
       39315000	      3930	80003bf0	4021dbb3	sra	x23,x3,x2	  x3:0x00000001  x2:0x00000001 x23=0x00000000
       39325000	      3931	80003bf4	02b09e63	bne	x1,x11,80003c30	  x1:0xfffff86d x11:0x80009f24
       39335000	      3932	00000000	00000013	addi	x0,x0,0	  x0:0x00000000
       39345000	      3933	80003c2c	00000013	addi	x0,x0,0	  x0:0x00000000
       39355000	      3934	80003c30	45622113	slti	x2,x4,1110	  x4:0x00000000  x2=0x00000001
       39365000	      3935	80003c34	0025c463	blt	x11,x2,80003c3c	 x11:0x80009f24  x2:0x00000001
       39375000	      3936	00000000	00000013	addi	x0,x0,0	  x0:0x00000000
       39385000	      3937	80003c38	00000013	addi	x0,x0,0	  x0:0x00000000
       39395000	      3938	80003c3c	01f95663	bge	x18,x31,80003c48	 x18:0x35ad0000 x31:0x00000000
       39405000	      3939	00000000	00000013	addi	x0,x0,0	  x0:0x00000000
       39415000	      3940	80003c44	00000013	addi	x0,x0,0	  x0:0x00000000
       39425000	      3941	80003c48	00000013	addi	x0,x0,0	  x0:0x00000000
       39435000	      3942	80003c4c	01b65e33	srl	x28,x12,x27	 x12:0xfff7591e x27:0xfffffc48 x28=0x00fff759
       39445000	      3943	80003c50	00fdda13	srli	x20,x27,0xf	 x27:0xfffffc48 x20=0x0001ffff
       39455000	      3944	80003c54	00000013	addi	x0,x0,0	  x0:0x00000000
       39465000	      3945	80003c58	03859663	bne	x11,x24,80003c84	 x11:0x80009f24 x24:0x800035ad
       39475000	      3946	00000000	00000013	addi	x0,x0,0	  x0:0x00000000
       39485000	      3947	80003c80	00000013	addi	x0,x0,0	  x0:0x00000000
       39495000	      3948	80003c84	0156c133	xor	x2,x13,x21	 x13:0x00000000 x21:0x00000000  x2=0x00000000
       39505000	      3949	80003c88	de4d0693	addi	x13,x26,-540	 x26:0x00000001 x13=0xfffffde5
       39515000	      3950	80003c8c	409e5133	sra	x2,x28,x9	 x28:0x00fff759  x9:0xfff75fff  x2=0x00000000
       39525000	      3951	80003c90	40de5b13	srai	x22,x28,0xd	 x28:0x00fff759 x22=0x000007ff
       39535000	      3952	80003c94	01bf8fb3	add	x31,x31,x27	 x31:0x00000000 x27:0xfffffc48 x31=0xfffffc48
       39545000	      3953	80003c98	0064c463	blt	x9,x6,80003ca0	  x9:0xfff75fff  x6:0x00000000
       39555000	      3954	00000000	00000013	addi	x0,x0,0	  x0:0x00000000
       39565000	      3955	80003c9c	00000013	addi	x0,x0,0	  x0:0x00000000
       39575000	      3956	80003ca0	02f6f863	bgeu	x13,x15,80003cd0	 x13:0xfffffde5 x15:0x00000001
       39585000	      3957	00000000	00000013	addi	x0,x0,0	  x0:0x00000000
       39595000	      3958	80003ccc	00000013	addi	x0,x0,0	  x0:0x00000000
       39605000	      3959	80003cd0	5da9f913	andi	x18,x19,1498	 x19:0xffeec000 x18=0x00000000
       39615000	      3960	80003cd4	5348bb17	auipc	x22,0x5348b	 x22=0xd348ecd0
       39625000	      3961	80003cd8	03ad0463	beq	x26,x26,80003d00	 x26:0x00000001 x26:0x00000001
       39635000	      3962	00000000	00000013	addi	x0,x0,0	  x0:0x00000000
       39645000	      3963	80003cfc	00000013	addi	x0,x0,0	  x0:0x00000000
       39655000	      3964	80003d00	7947cb93	xori	x23,x15,1940	 x15:0x00000001 x23=0x00000795
       39665000	      3965	80003d04	277dc693	xori	x13,x27,631	 x27:0xfffffc48 x13=0xfffffe3f
       39675000	      3966	80003d08	01e8af93	slti	x31,x17,30	 x17:0x00000000 x31=0x00000001
       39685000	      3967	80003d0c	00b15413	srli	x8,x2,0xb	  x2:0x00000000  x8=0x00000000
       39695000	      3968	80003d10	03691863	bne	x18,x22,80003d40	 x18:0x00000000 x22:0xd348ecd0
       39705000	      3969	00000000	00000013	addi	x0,x0,0	  x0:0x00000000
       39715000	      3970	80003d3c	00000013	addi	x0,x0,0	  x0:0x00000000
       39725000	      3971	80003d40	01dd31b3	sltu	x3,x26,x29	 x26:0x00000001 x29:0x3ccc46ac  x3=0x00000001
       39735000	      3972	80003d44	417adab3	sra	x21,x21,x23	 x21:0x00000000 x23:0x00000795 x21=0x00000000
       39745000	      3973	80003d48	22cf3a13	sltiu	x20,x30,556	 x30:0x00000000 x20=0x00000001
       39755000	      3974	80003d4c	22844713	xori	x14,x8,552	  x8:0x00000000 x14=0x00000228
       39765000	      3975	80003d50	00400a33	add	x20,x0,x4	  x0:0x00000000  x4:0x00000000 x20=0x00000000
       39775000	      3976	80003d54	acb53c37	lui	x24,0xacb53	 x24=0xacb53000
       39785000	      3977	80003d58	00f2c2b3	xor	x5,x5,x15	  x5:0x00000000 x15:0x00000001  x5=0x00000001
       39795000	      3978	80003d5c	40515493	srai	x9,x2,0x5	  x2:0x00000000  x9=0x00000000
       39805000	      3979	80003d60	00000013	addi	x0,x0,0	  x0:0x00000000
       39815000	      3980	80003d64	013a5663	bge	x20,x19,80003d70	 x20:0x00000000 x19:0xffeec000
       39825000	      3981	00000000	00000013	addi	x0,x0,0	  x0:0x00000000
       39835000	      3982	80003d6c	00000013	addi	x0,x0,0	  x0:0x00000000
       39845000	      3983	80003d70	01d43a33	sltu	x20,x8,x29	  x8:0x00000000 x29:0x3ccc46ac x20=0x00000001
       39855000	      3984	80003d74	71383993	sltiu	x19,x16,1811	 x16:0x0d9b0d2b x19=0x00000000
       39865000	      3985	80003d78	0045a303	lw	x6,4(x11)	 x11:0x80009f24  x6=0x800041c4 PA:0x80009f28
       39875000	      3986	80003d7c	521b5fb7	lui	x31,0x521b5	 x31=0x521b5000
       39885000	      3987	80003d80	02458593	addi	x11,x11,36	 x11:0x80009f24 x11=0x80009f48
       39895000	      3988	80003d84	018f1993	slli	x19,x30,0x18	 x30:0x00000000 x19=0x00000000
       39905000	      3989	80003d88	40748133	sub	x2,x9,x7	  x9:0x00000000  x7:0x80009fc4  x2=0x7fff603c
       39915000	      3990	80003d8c	18d26293	ori	x5,x4,397	  x4:0x00000000  x5=0x0000018d
       39925000	      3991	80003d90	00030b13	addi	x22,x6,0	  x6:0x800041c4 x22=0x800041c4
       39935000	      3992	80003d94	000b0b67	jalr	x22,x22,0	 x22:0x800041c4 x22=0x80003d94
       39945000	      3993	00000000	00000013	addi	x0,x0,0	  x0:0x00000000
       39955000	      3994	800041c4	00000013	addi	x0,x0,0	  x0:0x00000000
       39965000	      3995	800041c8	05c0036f	jal	x6,800041c8	  x6=0x800041c8
       39975000	      3996	00000000	00000013	addi	x0,x0,0	  x0:0x00000000
       39985000	      3997	80004220	00000013	addi	x0,x0,0	  x0:0x00000000
       39995000	      3998	80004224	fe1ff2ef	jal	x5,80004224	  x5=0x80004224
       40005000	      3999	00000000	00000013	addi	x0,x0,0	  x0:0x00000000
       40015000	      4000	80004200	00000013	addi	x0,x0,0	  x0:0x00000000
       40025000	      4001	80004204	ffdff36f	jal	x6,80004204	  x6=0x80004204
       40035000	      4002	00000000	00000013	addi	x0,x0,0	  x0:0x00000000
       40045000	      4003	800041fc	00000013	addi	x0,x0,0	  x0:0x00000000
       40055000	      4004	80004200	020000ef	jal	x1,80004200	  x1=0x80004200
       40065000	      4005	00000000	00000013	addi	x0,x0,0	  x0:0x00000000
       40075000	      4006	8000421c	00000013	addi	x0,x0,0	  x0:0x00000000
       40085000	      4007	80004220	ff9ff0ef	jal	x1,80004220	  x1=0x80004220
       40095000	      4008	00000000	00000013	addi	x0,x0,0	  x0:0x00000000
       40105000	      4009	80004214	00000013	addi	x0,x0,0	  x0:0x00000000
       40115000	      4010	80004218	fb5ff0ef	jal	x1,80004218	  x1=0x80004218
       40125000	      4011	00000000	00000013	addi	x0,x0,0	  x0:0x00000000
       40135000	      4012	800041c8	00000013	addi	x0,x0,0	  x0:0x00000000
       40145000	      4013	800041cc	02c0066f	jal	x12,800041cc	 x12=0x800041cc
       40155000	      4014	00000000	00000013	addi	x0,x0,0	  x0:0x00000000
       40165000	      4015	800041f4	00000013	addi	x0,x0,0	  x0:0x00000000
       40175000	      4016	800041f8	ff9ff0ef	jal	x1,800041f8	  x1=0x800041f8
       40185000	      4017	00000000	00000013	addi	x0,x0,0	  x0:0x00000000
       40195000	      4018	800041ec	00000013	addi	x0,x0,0	  x0:0x00000000
       40205000	      4019	800041f0	ff5ff0ef	jal	x1,800041f0	  x1=0x800041f0
       40215000	      4020	00000000	00000013	addi	x0,x0,0	  x0:0x00000000
       40225000	      4021	800041e0	00000013	addi	x0,x0,0	  x0:0x00000000
       40235000	      4022	800041e4	02400e6f	jal	x28,800041e4	 x28=0x800041e4
       40245000	      4023	00000000	00000013	addi	x0,x0,0	  x0:0x00000000
       40255000	      4024	80004204	00000013	addi	x0,x0,0	  x0:0x00000000
       40265000	      4025	80004208	020000ef	jal	x1,80004208	  x1=0x80004208
       40275000	      4026	00000000	00000013	addi	x0,x0,0	  x0:0x00000000
       40285000	      4027	80004224	00000013	addi	x0,x0,0	  x0:0x00000000
       40295000	      4028	80004228	fa9ff0ef	jal	x1,80004228	  x1=0x80004228
       40305000	      4029	00000000	00000013	addi	x0,x0,0	  x0:0x00000000
       40315000	      4030	800041cc	00000013	addi	x0,x0,0	  x0:0x00000000
       40325000	      4031	800041d0	0100076f	jal	x14,800041d0	 x14=0x800041d0
       40335000	      4032	00000000	00000013	addi	x0,x0,0	  x0:0x00000000
       40345000	      4033	800041dc	00000013	addi	x0,x0,0	  x0:0x00000000
       40355000	      4034	800041e0	0300036f	jal	x6,800041e0	  x6=0x800041e0
       40365000	      4035	00000000	00000013	addi	x0,x0,0	  x0:0x00000000
       40375000	      4036	8000420c	00000013	addi	x0,x0,0	  x0:0x00000000
       40385000	      4037	80004210	01c000ef	jal	x1,80004210	  x1=0x80004210
       40395000	      4038	00000000	00000013	addi	x0,x0,0	  x0:0x00000000
       40405000	      4039	80004228	00000013	addi	x0,x0,0	  x0:0x00000000
       40415000	      4040	8000422c	fe1ff16f	jal	x2,8000422c	  x2=0x8000422c
       40425000	      4041	00000000	00000013	addi	x0,x0,0	  x0:0x00000000
       40435000	      4042	80004208	00000013	addi	x0,x0,0	  x0:0x00000000
       40445000	      4043	8000420c	fcdff36f	jal	x6,8000420c	  x6=0x8000420c
       40455000	      4044	00000000	00000013	addi	x0,x0,0	  x0:0x00000000
       40465000	      4045	800041d4	00000013	addi	x0,x0,0	  x0:0x00000000
       40475000	      4046	800041d8	0240026f	jal	x4,800041d8	  x4=0x800041d8
       40485000	      4047	00000000	00000013	addi	x0,x0,0	  x0:0x00000000
       40495000	      4048	800041f8	00000013	addi	x0,x0,0	  x0:0x00000000
       40505000	      4049	800041fc	fd9ff0ef	jal	x1,800041fc	  x1=0x800041fc
       40515000	      4050	00000000	00000013	addi	x0,x0,0	  x0:0x00000000
       40525000	      4051	800041d0	00000013	addi	x0,x0,0	  x0:0x00000000
       40535000	      4052	800041d4	048000ef	jal	x1,800041d4	  x1=0x800041d4
       40545000	      4053	00000000	00000013	addi	x0,x0,0	  x0:0x00000000
       40555000	      4054	80004218	00000013	addi	x0,x0,0	  x0:0x00000000
       40565000	      4055	8000421c	ff9ff0ef	jal	x1,8000421c	  x1=0x8000421c
       40575000	      4056	00000000	00000013	addi	x0,x0,0	  x0:0x00000000
       40585000	      4057	80004210	00000013	addi	x0,x0,0	  x0:0x00000000
       40595000	      4058	80004214	fe1ff0ef	jal	x1,80004214	  x1=0x80004214
       40605000	      4059	00000000	00000013	addi	x0,x0,0	  x0:0x00000000
       40615000	      4060	800041f0	00000013	addi	x0,x0,0	  x0:0x00000000
       40625000	      4061	800041f4	fe9ff0ef	jal	x1,800041f4	  x1=0x800041f4
       40635000	      4062	00000000	00000013	addi	x0,x0,0	  x0:0x00000000
       40645000	      4063	800041d8	00000013	addi	x0,x0,0	  x0:0x00000000
       40655000	      4064	800041dc	010000ef	jal	x1,800041dc	  x1=0x800041dc
       40665000	      4065	00000000	00000013	addi	x0,x0,0	  x0:0x00000000
       40675000	      4066	800041e8	00000013	addi	x0,x0,0	  x0:0x00000000
       40685000	      4067	800041ec	ffdff16f	jal	x2,800041ec	  x2=0x800041ec
       40695000	      4068	00000000	00000013	addi	x0,x0,0	  x0:0x00000000
       40705000	      4069	800041e4	00000013	addi	x0,x0,0	  x0:0x00000000
       40715000	      4070	800041e8	048000ef	jal	x1,800041e8	  x1=0x800041e8
       40725000	      4071	00000000	00000013	addi	x0,x0,0	  x0:0x00000000
       40735000	      4072	8000422c	00000013	addi	x0,x0,0	  x0:0x00000000
       40745000	      4073	80004230	0172ec33	or	x24,x5,x23	  x5:0x80004224 x23:0x00000795 x24=0x800047b5
       40755000	      4074	80004234	014b9113	slli	x2,x23,0x14	 x23:0x00000795  x2=0x79500000
       40765000	      4075	80004238	04d28063	beq	x5,x13,80004278	  x5:0x80004224 x13:0xfffffe3f
       40775000	      4076	8000423c	04529863	bne	x5,x5,8000428c	  x5:0x80004224  x5:0x80004224
       40785000	      4077	80004240	040e0d13	addi	x26,x28,64	 x28:0x800041e4 x26=0x80004224
       40795000	      4078	80004244	81ba09b7	lui	x19,0x81ba0	 x19=0x81ba0000
       40805000	      4079	80004248	044f4663	blt	x30,x4,80004294	 x30:0x00000000  x4:0x800041d8
       40815000	      4080	8000424c	0199ceb3	xor	x29,x19,x25	 x19:0x81ba0000 x25:0x800035ad x29=0x01ba35ad
       40825000	      4081	80004250	009c1733	sll	x14,x24,x9	 x24:0x800047b5  x9:0x00000000 x14=0x800047b5
       40835000	      4082	80004254	019c3d33	sltu	x26,x24,x25	 x24:0x800047b5 x25:0x800035ad x26=0x00000000
       40845000	      4083	80004258	01164433	xor	x8,x12,x17	 x12:0x800041cc x17:0x00000000  x8=0x800041cc
       40855000	      4084	8000425c	59a57113	andi	x2,x10,1434	 x10:0xffff6001  x2=0x00000000
       40865000	      4085	80004260	00f33a33	sltu	x20,x6,x15	  x6:0x8000420c x15:0x00000001 x20=0x00000000
       40875000	      4086	80004264	239ef693	andi	x13,x29,569	 x29:0x01ba35ad x13=0x00000029
       40885000	      4087	80004268	d77bb713	sltiu	x14,x23,-649	 x23:0x00000795 x14=0x00000001
       40895000	      4088	8000426c	00feea63	bltu	x29,x15,80004280	 x29:0x01ba35ad x15:0x00000001
       40905000	      4089	80004270	013ff663	bgeu	x31,x19,8000427c	 x31:0x521b5000 x19:0x81ba0000
       40915000	      4090	80004274	02e61263	bne	x12,x14,80004298	 x12:0x800041cc x14:0x00000001
       40925000	      4091	00000000	00000013	addi	x0,x0,0	  x0:0x00000000
       40935000	      4092	80004294	00000013	addi	x0,x0,0	  x0:0x00000000
       40945000	      4093	80004298	034f8663	beq	x31,x20,800042c4	 x31:0x521b5000 x20:0x00000000
       40955000	      4094	8000429c	017e9113	slli	x2,x29,0x17	 x29:0x01ba35ad  x2=0xd6800000
       40965000	      4095	800042a0	97f2e2b7	lui	x5,0x97f2e	  x5=0x97f2e000
       40975000	      4096	800042a4	8da84713	xori	x14,x16,-1830	 x16:0x0d9b0d2b x14=0xf264f5f1
       40985000	      4097	800042a8	03c38663	beq	x7,x28,800042d4	  x7:0x80009fc4 x28:0x800041e4
       40995000	      4098	800042ac	69cacc13	xori	x24,x21,1692	 x21:0x00000000 x24=0x0000069c
       41005000	      4099	800042b0	03466a63	bltu	x12,x20,800042e4	 x12:0x800041cc x20:0x00000000
       41015000	      4100	800042b4	096f0a93	addi	x21,x30,150	 x30:0x00000000 x21=0x00000096
       41025000	      4101	800042b8	414400b3	sub	x1,x8,x20	  x8:0x800041cc x20:0x00000000  x1=0x800041cc
       41035000	      4102	800042bc	897ab693	sltiu	x13,x21,-1897	 x21:0x00000096 x13=0x00000001
       41045000	      4103	800042c0	018bb633	sltu	x12,x23,x24	 x23:0x00000795 x24:0x0000069c x12=0x00000000
       41055000	      4104	800042c4	3cd4a493	slti	x9,x9,973	  x9:0x00000000  x9=0x00000001
       41065000	      4105	800042c8	04fe0063	beq	x28,x15,80004308	 x28:0x800041e4 x15:0x00000001
       41075000	      4106	800042cc	01862c33	slt	x24,x12,x24	 x12:0x00000000 x24:0x0000069c x24=0x00000001
       41085000	      4107	800042d0	0185f133	and	x2,x11,x24	 x11:0x80009f48 x24:0x00000001  x2=0x00000000
       41095000	      4108	800042d4	0062f263	bgeu	x5,x6,800042d8	  x5:0x97f2e000  x6:0x8000420c
       41105000	      4109	00000000	00000013	addi	x0,x0,0	  x0:0x00000000
       41115000	      4110	800042d4	00000013	addi	x0,x0,0	  x0:0x00000000
       41125000	      4111	800042d8	00081a63	bne	x16,x0,800042ec	 x16:0x0d9b0d2b  x0:0x00000000
       41135000	      4112	00000000	00000013	addi	x0,x0,0	  x0:0x00000000
       41145000	      4113	800042e8	00000013	addi	x0,x0,0	  x0:0x00000000
       41155000	      4114	800042ec	01631293	slli	x5,x6,0x16	  x6:0x8000420c  x5=0x83000000
       41165000	      4115	800042f0	00000013	addi	x0,x0,0	  x0:0x00000000
       41175000	      4116	800042f4	ae638437	lui	x8,0xae638	  x8=0xae638000
       41185000	      4117	800042f8	00690cb3	add	x25,x18,x6	 x18:0x00000000  x6:0x8000420c x25=0x8000420c
       41195000	      4118	800042fc	035fc463	blt	x31,x21,80004324	 x31:0x521b5000 x21:0x00000096
       41205000	      4119	80004300	0196d713	srli	x14,x13,0x19	 x13:0x00000001 x14=0x00000000
       41215000	      4120	80004304	008598b3	sll	x17,x11,x8	 x11:0x80009f48  x8:0xae638000 x17=0x80009f48
       41225000	      4121	80004308	00282e33	slt	x28,x16,x2	 x16:0x0d9b0d2b  x2:0x00000000 x28=0x00000000
       41235000	      4122	8000430c	0171d433	srl	x8,x3,x23	  x3:0x00000001 x23:0x00000795  x8=0x00000000
       41245000	      4123	80004310	26de5fb7	lui	x31,0x26de5	 x31=0x26de5000
       41255000	      4124	80004314	0076c033	xor	x0,x13,x7	 x13:0x00000001  x7:0x80009fc4
       41265000	      4125	80004318	00fdc1b3	xor	x3,x27,x15	 x27:0xfffffc48 x15:0x00000001  x3=0xfffffc49
       41275000	      4126	8000431c	01a0db13	srli	x22,x1,0x1a	  x1:0x800041cc x22=0x00000020
       41285000	      4127	80004320	00000013	addi	x0,x0,0	  x0:0x00000000
       41295000	      4128	80004324	00c448b3	xor	x17,x8,x12	  x8:0x00000000 x12:0x00000000 x17=0x00000000
       41305000	      4129	80004328	017eaab3	slt	x21,x29,x23	 x29:0x01ba35ad x23:0x00000795 x21=0x00000000
       41315000	      4130	8000432c	7a953ab7	lui	x21,0x7a953	 x21=0x7a953000
       41325000	      4131	80004330	32976013	ori	x0,x14,809	 x14:0x00000000
       41335000	      4132	80004334	8080f613	andi	x12,x1,-2040	  x1:0x800041cc x12=0x80004008
       41345000	      4133	80004338	41370433	sub	x8,x14,x19	 x14:0x00000000 x19:0x81ba0000  x8=0x7e460000
       41355000	      4134	8000433c	00ae7ab3	and	x21,x28,x10	 x28:0x00000000 x10:0xffff6001 x21=0x00000000
       41365000	      4135	80004340	01fbfa63	bgeu	x23,x31,80004354	 x23:0x00000795 x31:0x26de5000
       41375000	      4136	80004344	04b6c863	blt	x13,x11,80004394	 x13:0x00000001 x11:0x80009f48
       41385000	      4137	80004348	035c7e63	bgeu	x24,x21,80004384	 x24:0x00000001 x21:0x00000000
       41395000	      4138	00000000	00000013	addi	x0,x0,0	  x0:0x00000000
       41405000	      4139	80004380	00000013	addi	x0,x0,0	  x0:0x00000000
       41415000	      4140	80004384	01829493	slli	x9,x5,0x18	  x5:0x83000000  x9=0x00000000
       41425000	      4141	80004388	01310533	add	x10,x2,x19	  x2:0x00000000 x19:0x81ba0000 x10=0x81ba0000
       41435000	      4142	8000438c	013fa633	slt	x12,x31,x19	 x31:0x26de5000 x19:0x81ba0000 x12=0x00000000
       41445000	      4143	80004390	02be8463	beq	x29,x11,800043b8	 x29:0x01ba35ad x11:0x80009f48
       41455000	      4144	80004394	425f04b7	lui	x9,0x425f0	  x9=0x425f0000
       41465000	      4145	80004398	f68e7713	andi	x14,x28,-152	 x28:0x00000000 x14=0x00000000
       41475000	      4146	8000439c	01561b93	slli	x23,x12,0x15	 x12:0x00000000 x23=0x00000000
       41485000	      4147	800043a0	01a877b3	and	x15,x16,x26	 x16:0x0d9b0d2b x26:0x00000000 x15=0x00000000
       41495000	      4148	800043a4	00e45eb3	srl	x29,x8,x14	  x8:0x7e460000 x14:0x00000000 x29=0x7e460000
       41505000	      4149	800043a8	004e2933	slt	x18,x28,x4	 x28:0x00000000  x4:0x800041d8 x18=0x00000000
       41515000	      4150	800043ac	41045113	srai	x2,x8,0x10	  x8:0x7e460000  x2=0x00007e46
       41525000	      4151	800043b0	4931ff37	lui	x30,0x4931f	 x30=0x4931f000
       41535000	      4152	800043b4	0169e7b3	or	x15,x19,x22	 x19:0x81ba0000 x22:0x00000020 x15=0x81ba0020
       41545000	      4153	800043b8	01a24cb3	xor	x25,x4,x26	  x4:0x800041d8 x26:0x00000000 x25=0x800041d8
       41555000	      4154	800043bc	00000013	addi	x0,x0,0	  x0:0x00000000
       41565000	      4155	800043c0	0045a303	lw	x6,4(x11)	 x11:0x80009f48  x6=0x8000107c PA:0x80009f4c
       41575000	      4156	800043c4	b57b3e13	sltiu	x28,x22,-1193	 x22:0x00000020 x28=0x00000001
       41585000	      4157	800043c8	03c58593	addi	x11,x11,60	 x11:0x80009f48 x11=0x80009f84
       41595000	      4158	800043cc	01a59a33	sll	x20,x11,x26	 x11:0x80009f84 x26:0x00000000 x20=0x80009f84
       41605000	      4159	800043d0	00030c93	addi	x25,x6,0	  x6:0x8000107c x25=0x8000107c
       41615000	      4160	800043d4	000c8ce7	jalr	x25,x25,0	 x25:0x8000107c x25=0x800043d4
       41625000	      4161	00000000	00000013	addi	x0,x0,0	  x0:0x00000000
       41635000	      4162	8000107c	00000013	addi	x0,x0,0	  x0:0x00000000
       41645000	      4163	80001080	01430863	beq	x6,x20,80001090	  x6:0x8000107c x20:0x80009f84
       41655000	      4164	80001084	0194a733	slt	x14,x9,x25	  x9:0x425f0000 x25:0x800043d4 x14=0x00000000
       41665000	      4165	80001088	008f4463	blt	x30,x8,80001090	 x30:0x4931f000  x8:0x7e460000
       41675000	      4166	00000000	00000013	addi	x0,x0,0	  x0:0x00000000
       41685000	      4167	8000108c	00000013	addi	x0,x0,0	  x0:0x00000000
       41695000	      4168	80001090	3563e713	ori	x14,x7,854	  x7:0x80009fc4 x14=0x80009fd6
       41705000	      4169	80001094	41795793	srai	x15,x18,0x17	 x18:0x00000000 x15=0x00000000
       41715000	      4170	80001098	417086b3	sub	x13,x1,x23	  x1:0x800041cc x23:0x00000000 x13=0x800041cc
       41725000	      4171	8000109c	011fee63	bltu	x31,x17,800010b8	 x31:0x26de5000 x17:0x00000000
       41735000	      4172	800010a0	00a9dab7	lui	x21,0xa9d	 x21=0x00a9d000
       41745000	      4173	800010a4	01b89913	slli	x18,x17,0x1b	 x17:0x00000000 x18=0x00000000
       41755000	      4174	800010a8	011e1b33	sll	x22,x28,x17	 x28:0x00000001 x17:0x00000000 x22=0x00000001
       41765000	      4175	800010ac	9ca18093	addi	x1,x3,-1590	  x3:0xfffffc49  x1=0xfffff613
       41775000	      4176	800010b0	00000013	addi	x0,x0,0	  x0:0x00000000
       41785000	      4177	800010b4	7688f213	andi	x4,x17,1896	 x17:0x00000000  x4=0x00000000
       41795000	      4178	800010b8	01d0ba33	sltu	x20,x1,x29	  x1:0xfffff613 x29:0x7e460000 x20=0x00000000
       41805000	      4179	800010bc	04076063	bltu	x14,x0,800010fc	 x14:0x80009fd6  x0:0x00000000
       41815000	      4180	800010c0	05188263	beq	x17,x17,80001104	 x17:0x00000000 x17:0x00000000
       41825000	      4181	00000000	00000013	addi	x0,x0,0	  x0:0x00000000
       41835000	      4182	80001100	00000013	addi	x0,x0,0	  x0:0x00000000
       41845000	      4183	80001104	007cfe63	bgeu	x25,x7,80001120	 x25:0x800043d4  x7:0x80009fc4
       41855000	      4184	80001108	05ad7263	bgeu	x26,x26,8000114c	 x26:0x00000000 x26:0x00000000
       41865000	      4185	00000000	00000013	addi	x0,x0,0	  x0:0x00000000
       41875000	      4186	80001148	00000013	addi	x0,x0,0	  x0:0x00000000
       41885000	      4187	8000114c	00e6cf33	xor	x30,x13,x14	 x13:0x800041cc x14:0x80009fd6 x30=0x0000de1a
       41895000	      4188	80001150	a41bcb13	xori	x22,x23,-1471	 x23:0x00000000 x22=0xfffffa41
       41905000	      4189	80001154	04630463	beq	x6,x6,8000119c	  x6:0x8000107c  x6:0x8000107c
       41915000	      4190	00000000	00000013	addi	x0,x0,0	  x0:0x00000000
       41925000	      4191	80001198	00000013	addi	x0,x0,0	  x0:0x00000000
       41935000	      4192	8000119c	00000013	addi	x0,x0,0	  x0:0x00000000
       41945000	      4193	800011a0	41c80433	sub	x8,x16,x28	 x16:0x0d9b0d2b x28:0x00000001  x8=0x0d9b0d2a
       41955000	      4194	800011a4	019e9cb3	sll	x25,x29,x25	 x29:0x7e460000 x25:0x800043d4 x25=0x00000000
       41965000	      4195	800011a8	0160eab3	or	x21,x1,x22	  x1:0xfffff613 x22:0xfffffa41 x21=0xfffffe53
       41975000	      4196	800011ac	40880cb3	sub	x25,x16,x8	 x16:0x0d9b0d2b  x8:0x0d9b0d2a x25=0x00000001
       41985000	      4197	800011b0	018e1913	slli	x18,x28,0x18	 x28:0x00000001 x18=0x01000000
       41995000	      4198	800011b4	ce8c2413	slti	x8,x24,-792	 x24:0x00000001  x8=0x00000000
       42005000	      4199	800011b8	1090ec13	ori	x24,x1,265	  x1:0xfffff613 x24=0xfffff71b
       42015000	      4200	800011bc	dc572a13	slti	x20,x14,-571	 x14:0x80009fd6 x20=0x00000001
       42025000	      4201	800011c0	01911713	slli	x14,x2,0x19	  x2:0x00007e46 x14=0x8c000000
       42035000	      4202	800011c4	017d4663	blt	x26,x23,800011d0	 x26:0x00000000 x23:0x00000000
       42045000	      4203	800011c8	0a04a717	auipc	x14,0xa04a	 x14=0x8a04b1c4
       42055000	      4204	800011cc	0151b733	sltu	x14,x3,x21	  x3:0xfffffc49 x21:0xfffffe53 x14=0x00000001
       42065000	      4205	800011d0	00900233	add	x4,x0,x9	  x0:0x00000000  x9:0x425f0000  x4=0x425f0000
       42075000	      4206	800011d4	02a8f063	bgeu	x17,x10,800011f4	 x17:0x00000000 x10:0x81ba0000
       42085000	      4207	800011d8	04ce7263	bgeu	x28,x12,8000121c	 x28:0x00000001 x12:0x00000000
       42095000	      4208	00000000	00000013	addi	x0,x0,0	  x0:0x00000000
       42105000	      4209	80001218	00000013	addi	x0,x0,0	  x0:0x00000000
       42115000	      4210	8000121c	01a12eb3	slt	x29,x2,x26	  x2:0x00007e46 x26:0x00000000 x29=0x00000000
       42125000	      4211	80001220	014b5e93	srli	x29,x22,0x14	 x22:0xfffffa41 x29=0x00000fff
       42135000	      4212	80001224	40f0deb3	sra	x29,x1,x15	  x1:0xfffff613 x15:0x00000000 x29=0xfffff613
       42145000	      4213	80001228	00bdb2b3	sltu	x5,x27,x11	 x27:0xfffffc48 x11:0x80009f84  x5=0x00000000
       42155000	      4214	8000122c	acb3ab93	slti	x23,x7,-1333	  x7:0x80009fc4 x23=0x00000001
       42165000	      4215	80001230	88516b13	ori	x22,x2,-1915	  x2:0x00007e46 x22=0xfffffec7
       42175000	      4216	80001234	009b49b3	xor	x19,x22,x9	 x22:0xfffffec7  x9:0x425f0000 x19=0xbda0fec7
       42185000	      4217	80001238	00c95133	srl	x2,x18,x12	 x18:0x01000000 x12:0x00000000  x2=0x01000000
       42195000	      4218	8000123c	042ef463	bgeu	x29,x2,80001284	 x29:0xfffff613  x2:0x01000000
       42205000	      4219	00000000	00000013	addi	x0,x0,0	  x0:0x00000000
       42215000	      4220	80001280	00000013	addi	x0,x0,0	  x0:0x00000000
       42225000	      4221	80001284	4119d4b3	sra	x9,x19,x17	 x19:0xbda0fec7 x17:0x00000000  x9=0xbda0fec7
       42235000	      4222	80001288	02830c63	beq	x6,x8,800012c0	  x6:0x8000107c  x8:0x00000000
       42245000	      4223	8000128c	0047c533	xor	x10,x15,x4	 x15:0x00000000  x4:0x425f0000 x10=0x425f0000
       42255000	      4224	80001290	01a97433	and	x8,x18,x26	 x18:0x01000000 x26:0x00000000  x8=0x00000000
       42265000	      4225	80001294	00acc863	blt	x25,x10,800012a4	 x25:0x00000001 x10:0x425f0000
       42275000	      4226	00000000	00000013	addi	x0,x0,0	  x0:0x00000000
       42285000	      4227	800012a0	00000013	addi	x0,x0,0	  x0:0x00000000
       42295000	      4228	800012a4	4af4c617	auipc	x12,0x4af4c	 x12=0xcaf4d2a0
       42305000	      4229	800012a8	7cf73913	sltiu	x18,x14,1999	 x14:0x00000001 x18=0x00000001
       42315000	      4230	800012ac	4c2ffe93	andi	x29,x31,1218	 x31:0x26de5000 x29=0x00000000
       42325000	      4231	800012b0	012ebbb3	sltu	x23,x29,x18	 x29:0x00000000 x18:0x00000001 x23=0x00000001
       42335000	      4232	800012b4	e747e113	ori	x2,x15,-396	 x15:0x00000000  x2=0xfffffe74
       42345000	      4233	800012b8	015d2033	slt	x0,x26,x21	 x26:0x00000000 x21:0xfffffe53
       42355000	      4234	800012bc	46f04f93	xori	x31,x0,1135	  x0:0x00000000 x31=0x0000046f
       42365000	      4235	800012c0	403bdab3	sra	x21,x23,x3	 x23:0x00000001  x3:0xfffffc49 x21=0x00000000
       42375000	      4236	800012c4	03a68263	beq	x13,x26,800012e8	 x13:0x800041cc x26:0x00000000
       42385000	      4237	800012c8	0019c9b3	xor	x19,x19,x1	 x19:0xbda0fec7  x1:0xfffff613 x19=0x425f08d4
       42395000	      4238	800012cc	01b18eb3	add	x29,x3,x27	  x3:0xfffffc49 x27:0xfffffc48 x29=0xfffff891
       42405000	      4239	800012d0	07ea7a63	bgeu	x20,x30,80001344	 x20:0x00000001 x30:0x0000de1a
       42415000	      4240	800012d4	0a964d97	auipc	x27,0xa964	 x27=0x8a9652d0
       42425000	      4241	800012d8	a65e5d37	lui	x26,0xa65e5	 x26=0xa65e5000
       42435000	      4242	800012dc	951d0293	addi	x5,x26,-1711	 x26:0xa65e5000  x5=0xa65e4951
       42445000	      4243	800012e0	e45e7937	lui	x18,0xe45e7	 x18=0xe45e7000
       42455000	      4244	800012e4	07cc0263	beq	x24,x28,80001348	 x24:0xfffff71b x28:0x00000001
       42465000	      4245	800012e8	fafe6c13	ori	x24,x28,-81	 x28:0x00000001 x24=0xffffffaf
       42475000	      4246	800012ec	40225c33	sra	x24,x4,x2	  x4:0x425f0000  x2:0xfffffe74 x24=0x00000425
       42485000	      4247	800012f0	a3a5b117	auipc	x2,0xa3a5b	  x2=0x23a5c2ec
       42495000	      4248	800012f4	0160f863	bgeu	x1,x22,80001304	  x1:0xfffff613 x22:0xfffffec7
       42505000	      4249	800012f8	b6e4f513	andi	x10,x9,-1170	  x9:0xbda0fec7 x10=0xbda0fa46
       42515000	      4250	800012fc	00000013	addi	x0,x0,0	  x0:0x00000000
       42525000	      4251	80001300	07137663	bgeu	x6,x17,8000136c	  x6:0x8000107c x17:0x00000000
       42535000	      4252	00000000	00000013	addi	x0,x0,0	  x0:0x00000000
       42545000	      4253	80001368	00000013	addi	x0,x0,0	  x0:0x00000000
       42555000	      4254	8000136c	01b5ea33	or	x20,x11,x27	 x11:0x80009f84 x27:0x8a9652d0 x20=0x8a96dfd4
       42565000	      4255	80001370	003b9e13	slli	x28,x23,0x3	 x23:0x00000001 x28=0x00000008
       42575000	      4256	80001374	00e4ce63	blt	x9,x14,80001390	  x9:0xbda0fec7 x14:0x00000001
       42585000	      4257	00000000	00000013	addi	x0,x0,0	  x0:0x00000000
       42595000	      4258	8000138c	00000013	addi	x0,x0,0	  x0:0x00000000
       42605000	      4259	80001390	00699a33	sll	x20,x19,x6	 x19:0x425f08d4  x6:0x8000107c x20=0x40000000
       42615000	      4260	80001394	61244d93	xori	x27,x8,1554	  x8:0x00000000 x27=0x00000612
       42625000	      4261	80001398	011fcc63	blt	x31,x17,800013b0	 x31:0x0000046f x17:0x00000000
       42635000	      4262	8000139c	046de263	bltu	x27,x6,800013e0	 x27:0x00000612  x6:0x8000107c
       42645000	      4263	00000000	00000013	addi	x0,x0,0	  x0:0x00000000
       42655000	      4264	800013dc	00000013	addi	x0,x0,0	  x0:0x00000000
       42665000	      4265	800013e0	e7f2b037	lui	x0,0xe7f2b	
       42675000	      4266	800013e4	7741e193	ori	x3,x3,1908	  x3:0xfffffc49  x3=0xffffff7d
       42685000	      4267	800013e8	00f4d313	srli	x6,x9,0xf	  x9:0xbda0fec7  x6=0x00017b41
       42695000	      4268	800013ec	00f39c63	bne	x7,x15,80001404	  x7:0x80009fc4 x15:0x00000000
       42705000	      4269	00000000	00000013	addi	x0,x0,0	  x0:0x00000000
       42715000	      4270	80001400	00000013	addi	x0,x0,0	  x0:0x00000000
       42725000	      4271	80001404	59c64d13	xori	x26,x12,1436	 x12:0xcaf4d2a0 x26=0xcaf4d73c
       42735000	      4272	80001408	01151fb3	sll	x31,x10,x17	 x10:0xbda0fa46 x17:0x00000000 x31=0xbda0fa46
       42745000	      4273	8000140c	05f59463	bne	x11,x31,80001454	 x11:0x80009f84 x31:0xbda0fa46
       42755000	      4274	00000000	00000013	addi	x0,x0,0	  x0:0x00000000
       42765000	      4275	80001450	00000013	addi	x0,x0,0	  x0:0x00000000
       42775000	      4276	80001454	00d2d213	srli	x4,x5,0xd	  x5:0xa65e4951  x4=0x000532f2
       42785000	      4277	80001458	0041d433	srl	x8,x3,x4	  x3:0xffffff7d  x4:0x000532f2  x8=0x00003fff
       42795000	      4278	8000145c	00781433	sll	x8,x16,x7	 x16:0x0d9b0d2b  x7:0x80009fc4  x8=0xd9b0d2b0
       42805000	      4279	80001460	0b0d5063	bge	x26,x16,80001500	 x26:0xcaf4d73c x16:0x0d9b0d2b
       42815000	      4280	80001464	4196d933	sra	x18,x13,x25	 x13:0x800041cc x25:0x00000001 x18=0xc00020e6
       42825000	      4281	80001468	01c31863	bne	x6,x28,80001478	  x6:0x00017b41 x28:0x00000008
       42835000	      4282	00000000	00000013	addi	x0,x0,0	  x0:0x00000000
       42845000	      4283	80001474	00000013	addi	x0,x0,0	  x0:0x00000000
       42855000	      4284	80001478	73902a93	slti	x21,x0,1849	  x0:0x00000000 x21=0x00000001
       42865000	      4285	8000147c	0139d033	srl	x0,x19,x19	 x19:0x425f08d4 x19:0x425f08d4
       42875000	      4286	80001480	019e8433	add	x8,x29,x25	 x29:0xfffff891 x25:0x00000001  x8=0xfffff892
       42885000	      4287	80001484	00ddbdb3	sltu	x27,x27,x13	 x27:0x00000612 x13:0x800041cc x27=0x00000001
       42895000	      4288	80001488	b77a5237	lui	x4,0xb77a5	  x4=0xb77a5000
       42905000	      4289	8000148c	41b20233	sub	x4,x4,x27	  x4:0xb77a5000 x27:0x00000001  x4=0xb77a4fff
       42915000	      4290	80001490	0080036f	jal	x6,80001490	  x6=0x80001490
       42925000	      4291	00000000	00000013	addi	x0,x0,0	  x0:0x00000000
       42935000	      4292	80001494	00000013	addi	x0,x0,0	  x0:0x00000000
       42945000	      4293	80001498	014001ef	jal	x3,80001498	  x3=0x80001498
       42955000	      4294	00000000	00000013	addi	x0,x0,0	  x0:0x00000000
       42965000	      4295	800014a8	00000013	addi	x0,x0,0	  x0:0x00000000
       42975000	      4296	800014ac	024004ef	jal	x9,800014ac	  x9=0x800014ac
       42985000	      4297	00000000	00000013	addi	x0,x0,0	  x0:0x00000000
       42995000	      4298	800014cc	00000013	addi	x0,x0,0	  x0:0x00000000
       43005000	      4299	800014d0	fe9ff0ef	jal	x1,800014d0	  x1=0x800014d0
       43015000	      4300	00000000	00000013	addi	x0,x0,0	  x0:0x00000000
       43025000	      4301	800014b4	00000013	addi	x0,x0,0	  x0:0x00000000
       43035000	      4302	800014b8	0040036f	jal	x6,800014b8	  x6=0x800014b8
       43045000	      4303	00000000	00000013	addi	x0,x0,0	  x0:0x00000000
       43055000	      4304	800014b8	00000013	addi	x0,x0,0	  x0:0x00000000
       43065000	      4305	800014bc	0040036f	jal	x6,800014bc	  x6=0x800014bc
       43075000	      4306	00000000	00000013	addi	x0,x0,0	  x0:0x00000000
       43085000	      4307	800014bc	00000013	addi	x0,x0,0	  x0:0x00000000
       43095000	      4308	800014c0	fe9ff0ef	jal	x1,800014c0	  x1=0x800014c0
       43105000	      4309	00000000	00000013	addi	x0,x0,0	  x0:0x00000000
       43115000	      4310	800014a4	00000013	addi	x0,x0,0	  x0:0x00000000
       43125000	      4311	800014a8	01c00fef	jal	x31,800014a8	 x31=0x800014a8
       43135000	      4312	00000000	00000013	addi	x0,x0,0	  x0:0x00000000
       43145000	      4313	800014c0	00000013	addi	x0,x0,0	  x0:0x00000000
       43155000	      4314	800014c4	004000ef	jal	x1,800014c4	  x1=0x800014c4
       43165000	      4315	00000000	00000013	addi	x0,x0,0	  x0:0x00000000
       43175000	      4316	800014c4	00000013	addi	x0,x0,0	  x0:0x00000000
       43185000	      4317	800014c8	fd9ff0ef	jal	x1,800014c8	  x1=0x800014c8
       43195000	      4318	00000000	00000013	addi	x0,x0,0	  x0:0x00000000
       43205000	      4319	8000149c	00000013	addi	x0,x0,0	  x0:0x00000000
       43215000	      4320	800014a0	03800b6f	jal	x22,800014a0	 x22=0x800014a0
       43225000	      4321	00000000	00000013	addi	x0,x0,0	  x0:0x00000000
       43235000	      4322	800014d4	00000013	addi	x0,x0,0	  x0:0x00000000
       43245000	      4323	800014d8	ffdff0ef	jal	x1,800014d8	  x1=0x800014d8
       43255000	      4324	00000000	00000013	addi	x0,x0,0	  x0:0x00000000
       43265000	      4325	800014d0	00000013	addi	x0,x0,0	  x0:0x00000000
       43275000	      4326	800014d4	fe1ff36f	jal	x6,800014d4	  x6=0x800014d4
       43285000	      4327	00000000	00000013	addi	x0,x0,0	  x0:0x00000000
       43295000	      4328	800014b0	00000013	addi	x0,x0,0	  x0:0x00000000
       43305000	      4329	800014b4	ffdff6ef	jal	x13,800014b4	 x13=0x800014b4
       43315000	      4330	00000000	00000013	addi	x0,x0,0	  x0:0x00000000
       43325000	      4331	800014ac	00000013	addi	x0,x0,0	  x0:0x00000000
       43335000	      4332	800014b0	ff5ff0ef	jal	x1,800014b0	  x1=0x800014b0
       43345000	      4333	00000000	00000013	addi	x0,x0,0	  x0:0x00000000
       43355000	      4334	800014a0	00000013	addi	x0,x0,0	  x0:0x00000000
       43365000	      4335	800014a4	ff1ff1ef	jal	x3,800014a4	  x3=0x800014a4
       43375000	      4336	00000000	00000013	addi	x0,x0,0	  x0:0x00000000
       43385000	      4337	80001490	00000013	addi	x0,x0,0	  x0:0x00000000
       43395000	      4338	80001494	03800b6f	jal	x22,80001494	 x22=0x80001494
       43405000	      4339	00000000	00000013	addi	x0,x0,0	  x0:0x00000000
       43415000	      4340	800014c8	00000013	addi	x0,x0,0	  x0:0x00000000
       43425000	      4341	800014cc	fd1ff0ef	jal	x1,800014cc	  x1=0x800014cc
       43435000	      4342	00000000	00000013	addi	x0,x0,0	  x0:0x00000000
       43445000	      4343	80001498	00000013	addi	x0,x0,0	  x0:0x00000000
       43455000	      4344	8000149c	040000ef	jal	x1,8000149c	  x1=0x8000149c
       43465000	      4345	00000000	00000013	addi	x0,x0,0	  x0:0x00000000
       43475000	      4346	800014d8	00000013	addi	x0,x0,0	  x0:0x00000000
       43485000	      4347	800014dc	00caa7b3	slt	x15,x21,x12	 x21:0x00000001 x12:0xcaf4d2a0 x15=0x00000000
       43495000	      4348	800014e0	1dbbdf37	lui	x30,0x1dbbd	 x30=0x1dbbd000
       43505000	      4349	800014e4	011fdc63	bge	x31,x17,800014fc	 x31:0x800014a8 x17:0x00000000
       43515000	      4350	800014e8	c7e48213	addi	x4,x9,-898	  x9:0x800014ac  x4=0x8000112a
       43525000	      4351	800014ec	054e8413	addi	x8,x29,84	 x29:0xfffff891  x8=0xfffff8e5
       43535000	      4352	800014f0	018a6eb3	or	x29,x20,x24	 x20:0x40000000 x24:0x00000425 x29=0x40000425
       43545000	      4353	800014f4	00804fb3	xor	x31,x0,x8	  x0:0x00000000  x8:0xfffff8e5 x31=0xfffff8e5
       43555000	      4354	800014f8	41b7f013	andi	x0,x15,1051	 x15:0x00000000
       43565000	      4355	800014fc	00000013	addi	x0,x0,0	  x0:0x00000000
       43575000	      4356	80001500	01eb6533	or	x10,x22,x30	 x22:0x80001494 x30:0x1dbbd000 x10=0x9dbbd494
       43585000	      4357	80001504	653cffb7	lui	x31,0x653cf	 x31=0x653cf000
       43595000	      4358	80001508	019ddb93	srli	x23,x27,0x19	 x27:0x00000001 x23=0x00000000
       43605000	      4359	8000150c	41d8d8b3	sra	x17,x17,x29	 x17:0x00000000 x29:0x40000425 x17=0x00000000
       43615000	      4360	80001510	027f8c63	beq	x31,x7,80001548	 x31:0x653cf000  x7:0x80009fc4
       43625000	      4361	80001514	91574e93	xori	x29,x14,-1771	 x14:0x00000001 x29=0xfffff914
       43635000	      4362	80001518	01559093	slli	x1,x11,0x15	 x11:0x80009f84  x1=0xf0800000
       43645000	      4363	8000151c	00000013	addi	x0,x0,0	  x0:0x00000000
       43655000	      4364	80001520	00d5e6b3	or	x13,x11,x13	 x11:0x80009f84 x13:0x800014b4 x13=0x80009fb4
       43665000	      4365	80001524	00789b13	slli	x22,x17,0x7	 x17:0x00000000 x22=0x00000000
       43675000	      4366	80001528	005b7fb3	and	x31,x22,x5	 x22:0x00000000  x5:0xa65e4951 x31=0x00000000
       43685000	      4367	8000152c	01a75193	srli	x3,x14,0x1a	 x14:0x00000001  x3=0x00000000
       43695000	      4368	80001530	03d0ce63	blt	x1,x29,8000156c	  x1:0xf0800000 x29:0xfffff914
       43705000	      4369	00000000	00000013	addi	x0,x0,0	  x0:0x00000000
       43715000	      4370	80001568	00000013	addi	x0,x0,0	  x0:0x00000000
       43725000	      4371	8000156c	00bb2233	slt	x4,x22,x11	 x22:0x00000000 x11:0x80009f84  x4=0x00000000
       43735000	      4372	80001570	00df5233	srl	x4,x30,x13	 x30:0x1dbbd000 x13:0x80009fb4  x4=0x000001db
       43745000	      4373	80001574	6c822f97	auipc	x31,0x6c822	 x31=0xec823570
       43755000	      4374	80001578	9412eeb7	lui	x29,0x9412e	 x29=0x9412e000
       43765000	      4375	8000157c	05a75263	bge	x14,x26,800015c0	 x14:0x00000001 x26:0xcaf4d73c
       43775000	      4376	00000000	00000013	addi	x0,x0,0	  x0:0x00000000
       43785000	      4377	800015bc	00000013	addi	x0,x0,0	  x0:0x00000000
       43795000	      4378	800015c0	cdd6b693	sltiu	x13,x13,-803	 x13:0x80009fb4 x13=0x00000001
       43805000	      4379	800015c4	00f360b3	or	x1,x6,x15	  x6:0x800014d4 x15:0x00000000  x1=0x800014d4
       43815000	      4380	800015c8	48d8e2b7	lui	x5,0x48d8e	  x5=0x48d8e000
       43825000	      4381	800015cc	00000013	addi	x0,x0,0	  x0:0x00000000
       43835000	      4382	800015d0	f0e73f13	sltiu	x30,x14,-242	 x14:0x00000001 x30=0x00000001
       43845000	      4383	800015d4	006f0663	beq	x30,x6,800015e0	 x30:0x00000001  x6:0x800014d4
       43855000	      4384	800015d8	0473dc37	lui	x24,0x473d	 x24=0x0473d000
       43865000	      4385	800015dc	46de4737	lui	x14,0x46de4	 x14=0x46de4000
       43875000	      4386	800015e0	d273b613	sltiu	x12,x7,-729	  x7:0x80009fc4 x12=0x00000001
       43885000	      4387	800015e4	025bdc63	bge	x23,x5,8000161c	 x23:0x00000000  x5:0x48d8e000
       43895000	      4388	800015e8	40845013	srai	x0,x8,0x8	  x8:0xfffff8e5
       43905000	      4389	800015ec	01941863	bne	x8,x25,800015fc	  x8:0xfffff8e5 x25:0x00000001
       43915000	      4390	00000000	00000013	addi	x0,x0,0	  x0:0x00000000
       43925000	      4391	800015f8	00000013	addi	x0,x0,0	  x0:0x00000000
       43935000	      4392	800015fc	01135b13	srli	x22,x6,0x11	  x6:0x800014d4 x22=0x00004000
       43945000	      4393	80001600	00a986b3	add	x13,x19,x10	 x19:0x425f08d4 x10:0x9dbbd494 x13=0xe01add68
       43955000	      4394	80001604	40b408b3	sub	x17,x8,x11	  x8:0xfffff8e5 x11:0x80009f84 x17=0x7fff5961
       43965000	      4395	80001608	430afd93	andi	x27,x21,1072	 x21:0x00000001 x27=0x00000000
       43975000	      4396	8000160c	7cc1d697	auipc	x13,0x7cc1d	 x13=0xfcc1e608
       43985000	      4397	80001610	00f71fb3	sll	x31,x14,x15	 x14:0x46de4000 x15:0x00000000 x31=0x46de4000
       43995000	      4398	80001614	409d5233	sra	x4,x26,x9	 x26:0xcaf4d73c  x9:0x800014ac  x4=0xfffcaf4d
       44005000	      4399	80001618	4168d513	srai	x10,x17,0x16	 x17:0x7fff5961 x10=0x000001ff
       44015000	      4400	8000161c	01f2ae33	slt	x28,x5,x31	  x5:0x48d8e000 x31:0x46de4000 x28=0x00000000
       44025000	      4401	80001620	0007a333	slt	x6,x15,x0	 x15:0x00000000  x0:0x00000000  x6=0x00000000
       44035000	      4402	80001624	00acd613	srli	x12,x25,0xa	 x25:0x00000001 x12=0x00000000
       44045000	      4403	80001628	40d75b93	srai	x23,x14,0xd	 x14:0x46de4000 x23=0x000236f2
       44055000	      4404	8000162c	03945e63	bge	x8,x25,80001668	  x8:0xfffff8e5 x25:0x00000001
       44065000	      4405	80001630	01229613	slli	x12,x5,0x12	  x5:0x48d8e000 x12=0x80000000
       44075000	      4406	80001634	c2128113	addi	x2,x5,-991	  x5:0x48d8e000  x2=0x48d8dc21
       44085000	      4407	80001638	61eeef17	auipc	x30,0x61eee	 x30=0xe1eef634
       44095000	      4408	8000163c	407b5633	sra	x12,x22,x7	 x22:0x00004000  x7:0x80009fc4 x12=0x00000400
       44105000	      4409	80001640	01c6ec63	bltu	x13,x28,80001658	 x13:0xfcc1e608 x28:0x00000000
       44115000	      4410	80001644	8c806037	lui	x0,0x8c806	
       44125000	      4411	80001648	0f987513	andi	x10,x16,249	 x16:0x0d9b0d2b x10=0x00000029
       44135000	      4412	8000164c	01925c13	srli	x24,x4,0x19	  x4:0xfffcaf4d x24=0x0000007f
       44145000	      4413	80001650	003ebdb3	sltu	x27,x29,x3	 x29:0x9412e000  x3:0x00000000 x27=0x00000000
       44155000	      4414	80001654	01401863	bne	x0,x20,80001664	  x0:0x00000000 x20:0x40000000
       44165000	      4415	00000000	00000013	addi	x0,x0,0	  x0:0x00000000
       44175000	      4416	80001660	00000013	addi	x0,x0,0	  x0:0x00000000
       44185000	      4417	80001664	01440e33	add	x28,x8,x20	  x8:0xfffff8e5 x20:0x40000000 x28=0x3ffff8e5
       44195000	      4418	80001668	41fbd533	sra	x10,x23,x31	 x23:0x000236f2 x31:0x46de4000 x10=0x000236f2
       44205000	      4419	8000166c	01051093	slli	x1,x10,0x10	 x10:0x000236f2  x1=0x36f20000
       44215000	      4420	80001670	57c7f713	andi	x14,x15,1404	 x15:0x00000000 x14=0x00000000
       44225000	      4421	80001674	05cc1263	bne	x24,x28,800016b8	 x24:0x0000007f x28:0x3ffff8e5
       44235000	      4422	00000000	00000013	addi	x0,x0,0	  x0:0x00000000
       44245000	      4423	800016b4	00000013	addi	x0,x0,0	  x0:0x00000000
       44255000	      4424	800016b8	e066cf93	xori	x31,x13,-506	 x13:0xfcc1e608 x31=0x033e180e
       44265000	      4425	800016bc	006626b3	slt	x13,x12,x6	 x12:0x00000400  x6:0x00000000 x13=0x00000000
       44275000	      4426	800016c0	10852293	slti	x5,x10,264	 x10:0x000236f2  x5=0x00000000
       44285000	      4427	800016c4	86c1f513	andi	x10,x3,-1940	  x3:0x00000000 x10=0x00000000
       44295000	      4428	800016c8	05dc8863	beq	x25,x29,80001718	 x25:0x00000001 x29:0x9412e000
       44305000	      4429	800016cc	020af263	bgeu	x21,x0,800016f0	 x21:0x00000001  x0:0x00000000
       44315000	      4430	00000000	00000013	addi	x0,x0,0	  x0:0x00000000
       44325000	      4431	800016ec	00000013	addi	x0,x0,0	  x0:0x00000000
       44335000	      4432	800016f0	016038b3	sltu	x17,x0,x22	  x0:0x00000000 x22:0x00004000 x17=0x00000001
       44345000	      4433	800016f4	1eb90e13	addi	x28,x18,491	 x18:0xc00020e6 x28=0xc00022d1
       44355000	      4434	800016f8	000d28b3	slt	x17,x26,x0	 x26:0xcaf4d73c  x0:0x00000000 x17=0x00000001
       44365000	      4435	800016fc	e191c293	xori	x5,x3,-487	  x3:0x00000000  x5=0xfffffe19
       44375000	      4436	80001700	01172a13	slti	x20,x14,17	 x14:0x00000000 x20=0x00000001
       44385000	      4437	80001704	05ea0263	beq	x20,x30,80001748	 x20:0x00000001 x30:0xe1eef634
       44395000	      4438	80001708	0148f6b3	and	x13,x17,x20	 x17:0x00000001 x20:0x00000001 x13=0x00000001
       44405000	      4439	8000170c	86d2b793	sltiu	x15,x5,-1939	  x5:0xfffffe19 x15=0x00000000
       44415000	      4440	80001710	00000013	addi	x0,x0,0	  x0:0x00000000
       44425000	      4441	80001714	04abd263	bge	x23,x10,80001758	 x23:0x000236f2 x10:0x00000000
       44435000	      4442	00000000	00000013	addi	x0,x0,0	  x0:0x00000000
       44445000	      4443	80001754	00000013	addi	x0,x0,0	  x0:0x00000000
       44455000	      4444	80001758	00793133	sltu	x2,x18,x7	 x18:0xc00020e6  x7:0x80009fc4  x2=0x00000000
       44465000	      4445	8000175c	412bd293	srai	x5,x23,0x12	 x23:0x000236f2  x5=0x00000000
       44475000	      4446	80001760	40b95413	srai	x8,x18,0xb	 x18:0xc00020e6  x8=0xfff80004
       44485000	      4447	80001764	e360c693	xori	x13,x1,-458	  x1:0x36f20000 x13=0xc90dfe36
       44495000	      4448	80001768	0a71e113	ori	x2,x3,167	  x3:0x00000000  x2=0x000000a7
       44505000	      4449	8000176c	011e3c33	sltu	x24,x28,x17	 x28:0xc00022d1 x17:0x00000001 x24=0x00000000
       44515000	      4450	80001770	01416337	lui	x6,0x1416	  x6=0x01416000
       44525000	      4451	80001774	96dde937	lui	x18,0x96dde	 x18=0x96dde000
       44535000	      4452	80001778	010a7a33	and	x20,x20,x16	 x20:0x00000001 x16:0x0d9b0d2b x20=0x00000001
       44545000	      4453	8000177c	02ea6463	bltu	x20,x14,800017a4	 x20:0x00000001 x14:0x00000000
       44555000	      4454	80001780	ec54ea13	ori	x20,x9,-315	  x9:0x800014ac x20=0xfffffeed
       44565000	      4455	80001784	0064d213	srli	x4,x9,0x6	  x9:0x800014ac  x4=0x02000052
       44575000	      4456	80001788	41948333	sub	x6,x9,x25	  x9:0x800014ac x25:0x00000001  x6=0x800014ab
       44585000	      4457	8000178c	00232633	slt	x12,x6,x2	  x6:0x800014ab  x2:0x000000a7 x12=0x00000001
       44595000	      4458	80001790	05e2f263	bgeu	x5,x30,800017d4	  x5:0x00000000 x30:0xe1eef634
       44605000	      4459	80001794	5c7e4493	xori	x9,x28,1479	 x28:0xc00022d1  x9=0xc0002716
       44615000	      4460	80001798	ffd72893	slti	x17,x14,-3	 x14:0x00000000 x17=0x00000000
       44625000	      4461	8000179c	403b09b3	sub	x19,x22,x3	 x22:0x00004000  x3:0x00000000 x19=0x00004000
       44635000	      4462	800017a0	04cb8863	beq	x23,x12,800017f0	 x23:0x000236f2 x12:0x00000001
       44645000	      4463	800017a4	02e79a63	bne	x15,x14,800017d8	 x15:0x00000000 x14:0x00000000
       44655000	      4464	800017a8	0048afb3	slt	x31,x17,x4	 x17:0x00000000  x4:0x02000052 x31=0x00000001
       44665000	      4465	800017ac	14199d97	auipc	x27,0x14199	 x27=0x9419a7a8
       44675000	      4466	800017b0	018c78b3	and	x17,x24,x24	 x24:0x00000000 x24:0x00000000 x17=0x00000000
       44685000	      4467	800017b4	0175f2b3	and	x5,x11,x23	 x11:0x80009f84 x23:0x000236f2  x5=0x00001680
       44695000	      4468	800017b8	0206ec63	bltu	x13,x0,800017f0	 x13:0xc90dfe36  x0:0x00000000
       44705000	      4469	800017bc	7f9d7f13	andi	x30,x26,2041	 x26:0xcaf4d73c x30=0x00000738
       44715000	      4470	800017c0	05a1c263	blt	x3,x26,80001804	  x3:0x00000000 x26:0xcaf4d73c
       44725000	      4471	800017c4	410087b3	sub	x15,x1,x16	  x1:0x36f20000 x16:0x0d9b0d2b x15=0x2956f2d5
       44735000	      4472	800017c8	036bec63	bltu	x23,x22,80001800	 x23:0x000236f2 x22:0x00004000
       44745000	      4473	800017cc	41918933	sub	x18,x3,x25	  x3:0x00000000 x25:0x00000001 x18=0xffffffff
       44755000	      4474	800017d0	01480e63	beq	x16,x20,800017ec	 x16:0x0d9b0d2b x20:0xfffffeed
       44765000	      4475	800017d4	00b682b3	add	x5,x13,x11	 x13:0xc90dfe36 x11:0x80009f84  x5=0x490e9dba
       44775000	      4476	800017d8	41e98d33	sub	x26,x19,x30	 x19:0x00004000 x30:0x00000738 x26=0x000038c8
       44785000	      4477	800017dc	d7cf9617	auipc	x12,0xd7cf9	 x12=0x57cfa7d8
       44795000	      4478	800017e0	40575f93	srai	x31,x14,0x5	 x14:0x00000000 x31=0x00000000
       44805000	      4479	800017e4	00e80e63	beq	x16,x14,80001800	 x16:0x0d9b0d2b x14:0x00000000
       44815000	      4480	800017e8	0193eab3	or	x21,x7,x25	  x7:0x80009fc4 x25:0x00000001 x21=0x80009fc5
       44825000	      4481	800017ec	044c8463	beq	x25,x4,80001834	 x25:0x00000001  x4:0x02000052
       44835000	      4482	800017f0	11b11db7	lui	x27,0x11b11	 x27=0x11b11000
       44845000	      4483	800017f4	0125cf33	xor	x30,x11,x18	 x11:0x80009f84 x18:0xffffffff x30=0x7fff607b
       44855000	      4484	800017f8	01ce19b3	sll	x19,x28,x28	 x28:0xc00022d1 x28:0xc00022d1 x19=0x45a20000
       44865000	      4485	800017fc	01cf1233	sll	x4,x30,x28	 x30:0x7fff607b x28:0xc00022d1  x4=0xc0f60000
       44875000	      4486	80001800	01868433	add	x8,x13,x24	 x13:0xc90dfe36 x24:0x00000000  x8=0xc90dfe36
       44885000	      4487	80001804	00d96e33	or	x28,x18,x13	 x18:0xffffffff x13:0xc90dfe36 x28=0xffffffff
       44895000	      4488	80001808	00d2d713	srli	x14,x5,0xd	  x5:0x490e9dba x14=0x00024874
       44905000	      4489	8000180c	00c91863	bne	x18,x12,8000181c	 x18:0xffffffff x12:0x57cfa7d8
       44915000	      4490	00000000	00000013	addi	x0,x0,0	  x0:0x00000000
       44925000	      4491	80001818	00000013	addi	x0,x0,0	  x0:0x00000000
       44935000	      4492	8000181c	005b5f33	srl	x30,x22,x5	 x22:0x00004000  x5:0x490e9dba x30=0x00000000
       44945000	      4493	80001820	34583693	sltiu	x13,x16,837	 x16:0x0d9b0d2b x13=0x00000000
       44955000	      4494	80001824	0186ab33	slt	x22,x13,x24	 x13:0x00000000 x24:0x00000000 x22=0x00000000
       44965000	      4495	80001828	24b46093	ori	x1,x8,587	  x8:0xc90dfe36  x1=0xc90dfe7f
       44975000	      4496	8000182c	99cba013	slti	x0,x23,-1636	 x23:0x000236f2
       44985000	      4497	80001830	005c1893	slli	x17,x24,0x5	 x24:0x00000000 x17=0x00000000
       44995000	      4498	80001834	13806613	ori	x12,x0,312	  x0:0x00000000 x12=0x00000138
       45005000	      4499	80001838	55c9a093	slti	x1,x19,1372	 x19:0x45a20000  x1=0x00000000
       45015000	      4500	8000183c	02488c63	beq	x17,x4,80001874	 x17:0x00000000  x4:0xc0f60000
       45025000	      4501	80001840	0ddd3f97	auipc	x31,0xddd3	 x31=0x8ddd483c
       45035000	      4502	80001844	01d65113	srli	x2,x12,0x1d	 x12:0x00000138  x2=0x00000000
       45045000	      4503	80001848	03a9ee63	bltu	x19,x26,80001884	 x19:0x45a20000 x26:0x000038c8
       45055000	      4504	8000184c	00000013	addi	x0,x0,0	  x0:0x00000000
       45065000	      4505	80001850	22ed6f93	ori	x31,x26,558	 x26:0x000038c8 x31=0x00003aee
       45075000	      4506	80001854	ada562b7	lui	x5,0xada56	  x5=0xada56000
       45085000	      4507	80001858	00000013	addi	x0,x0,0	  x0:0x00000000
       45095000	      4508	8000185c	0122d713	srli	x14,x5,0x12	  x5:0xada56000 x14=0x00002b69
       45105000	      4509	80001860	bea5ba93	sltiu	x21,x11,-1046	 x11:0x80009f84 x21=0x00000001
       45115000	      4510	80001864	40115433	sra	x8,x2,x1	  x2:0x00000000  x1:0x00000000  x8=0x00000000
       45125000	      4511	80001868	9c3bc117	auipc	x2,0x9c3bc	  x2=0x1c3bd864
       45135000	      4512	8000186c	36a2a293	slti	x5,x5,874	  x5:0xada56000  x5=0x00000001
       45145000	      4513	80001870	0045c1b3	xor	x3,x11,x4	 x11:0x80009f84  x4:0xc0f60000  x3=0x40f69f84
       45155000	      4514	80001874	d5620293	addi	x5,x4,-682	  x4:0xc0f60000  x5=0xc0f5fd56
       45165000	      4515	80001878	01fb4733	xor	x14,x22,x31	 x22:0x00000000 x31:0x00003aee x14=0x00003aee
       45175000	      4516	8000187c	413f56b3	sra	x13,x30,x19	 x30:0x00000000 x19:0x45a20000 x13=0x00000000
       45185000	      4517	80001880	8df377b7	lui	x15,0x8df37	 x15=0x8df37000
       45195000	      4518	80001884	41dc8cb3	sub	x25,x25,x29	 x25:0x00000001 x29:0x9412e000 x25=0x6bed2001
       45205000	      4519	80001888	012a6b33	or	x22,x20,x18	 x20:0xfffffeed x18:0xffffffff x22=0xffffffff
       45215000	      4520	8000188c	05e95263	bge	x18,x30,800018d0	 x18:0xffffffff x30:0x00000000
       45225000	      4521	80001890	7d547313	andi	x6,x8,2005	  x8:0x00000000  x6=0x00000000
       45235000	      4522	80001894	b5d5a493	slti	x9,x11,-1187	 x11:0x80009f84  x9=0x00000001
       45245000	      4523	80001898	a2d5b013	sltiu	x0,x11,-1491	 x11:0x80009f84
       45255000	      4524	8000189c	008efa33	and	x20,x29,x8	 x29:0x9412e000  x8:0x00000000 x20=0x00000000
       45265000	      4525	800018a0	35b24413	xori	x8,x4,859	  x4:0xc0f60000  x8=0xc0f6035b
       45275000	      4526	800018a4	01a40933	add	x18,x8,x26	  x8:0xc0f6035b x26:0x000038c8 x18=0xc0f63c23
       45285000	      4527	800018a8	013de663	bltu	x27,x19,800018b4	 x27:0x11b11000 x19:0x45a20000
       45295000	      4528	00000000	00000013	addi	x0,x0,0	  x0:0x00000000
       45305000	      4529	800018b0	00000013	addi	x0,x0,0	  x0:0x00000000
       45315000	      4530	800018b4	02a20c63	beq	x4,x10,800018ec	  x4:0xc0f60000 x10:0x00000000
       45325000	      4531	800018b8	01a1de63	bge	x3,x26,800018d4	  x3:0x40f69f84 x26:0x000038c8
       45335000	      4532	00000000	00000013	addi	x0,x0,0	  x0:0x00000000
       45345000	      4533	800018d0	00000013	addi	x0,x0,0	  x0:0x00000000
       45355000	      4534	800018d4	01a6c2b3	xor	x5,x13,x26	 x13:0x00000000 x26:0x000038c8  x5=0x000038c8
       45365000	      4535	800018d8	01251b93	slli	x23,x10,0x12	 x10:0x00000000 x23=0x00000000
       45375000	      4536	800018dc	68fe5517	auipc	x10,0x68fe5	 x10=0xe8fe68d8
       45385000	      4537	800018e0	07ec9c63	bne	x25,x30,80001958	 x25:0x6bed2001 x30:0x00000000
       45395000	      4538	00000000	00000013	addi	x0,x0,0	  x0:0x00000000
       45405000	      4539	80001954	00000013	addi	x0,x0,0	  x0:0x00000000
       45415000	      4540	80001958	4014d033	sra	x0,x9,x1	  x9:0x00000001  x1:0x00000000
       45425000	      4541	8000195c	00056233	or	x4,x10,x0	 x10:0xe8fe68d8  x0:0x00000000  x4=0xe8fe68d8
       45435000	      4542	80001960	5092fb13	andi	x22,x5,1289	  x5:0x000038c8 x22=0x00000008
       45445000	      4543	80001964	41c5d193	srai	x3,x11,0x1c	 x11:0x80009f84  x3=0xfffffff8
       45455000	      4544	80001968	052f6463	bltu	x30,x18,800019b0	 x30:0x00000000 x18:0xc0f63c23
       45465000	      4545	00000000	00000013	addi	x0,x0,0	  x0:0x00000000
       45475000	      4546	800019ac	00000013	addi	x0,x0,0	  x0:0x00000000
       45485000	      4547	800019b0	3c9b2d13	slti	x26,x22,969	 x22:0x00000008 x26=0x00000001
       45495000	      4548	800019b4	01d9b7b3	sltu	x15,x19,x29	 x19:0x45a20000 x29:0x9412e000 x15=0x00000001
       45505000	      4549	800019b8	08734c13	xori	x24,x6,135	  x6:0x00000000 x24=0x00000087
       45515000	      4550	800019bc	011cf233	and	x4,x25,x17	 x25:0x6bed2001 x17:0x00000000  x4=0x00000000
       45525000	      4551	800019c0	291b7d13	andi	x26,x22,657	 x22:0x00000008 x26=0x00000000
       45535000	      4552	800019c4	05f5f063	bgeu	x11,x31,80001a04	 x11:0x80009f84 x31:0x00003aee
       45545000	      4553	00000000	00000013	addi	x0,x0,0	  x0:0x00000000
       45555000	      4554	80001a00	00000013	addi	x0,x0,0	  x0:0x00000000
       45565000	      4555	80001a04	01ecdeb3	srl	x29,x25,x30	 x25:0x6bed2001 x30:0x00000000 x29=0x6bed2001
       45575000	      4556	80001a08	00fc0233	add	x4,x24,x15	 x24:0x00000087 x15:0x00000001  x4=0x00000088
       45585000	      4557	80001a0c	d50c3e13	sltiu	x28,x24,-688	 x24:0x00000087 x28=0x00000001
       45595000	      4558	80001a10	00a9db13	srli	x22,x19,0xa	 x19:0x45a20000 x22=0x00116880
       45605000	      4559	80001a14	04085863	bge	x16,x0,80001a64	 x16:0x0d9b0d2b  x0:0x00000000
       45615000	      4560	00000000	00000013	addi	x0,x0,0	  x0:0x00000000
       45625000	      4561	80001a60	00000013	addi	x0,x0,0	  x0:0x00000000
       45635000	      4562	80001a64	4001d733	sra	x14,x3,x0	  x3:0xfffffff8  x0:0x00000000 x14=0xfffffff8
       45645000	      4563	80001a68	017f5f33	srl	x30,x30,x23	 x30:0x00000000 x23:0x00000000 x30=0x00000000
       45655000	      4564	80001a6c	abeaa693	slti	x13,x21,-1346	 x21:0x00000001 x13=0x00000000
       45665000	      4565	80001a70	00ac9d33	sll	x26,x25,x10	 x25:0x6bed2001 x10:0xe8fe68d8 x26=0x01000000
       45675000	      4566	80001a74	01e57f33	and	x30,x10,x30	 x10:0xe8fe68d8 x30:0x00000000 x30=0x00000000
       45685000	      4567	80001a78	036c6e63	bltu	x24,x22,80001ab4	 x24:0x00000087 x22:0x00116880
       45695000	      4568	00000000	00000013	addi	x0,x0,0	  x0:0x00000000
       45705000	      4569	80001ab0	00000013	addi	x0,x0,0	  x0:0x00000000
       45715000	      4570	80001ab4	00000013	addi	x0,x0,0	  x0:0x00000000
       45725000	      4571	80001ab8	005a1893	slli	x17,x20,0x5	 x20:0x00000000 x17=0x00000000
       45735000	      4572	80001abc	015d78b3	and	x17,x26,x21	 x26:0x01000000 x21:0x00000001 x17=0x00000000
       45745000	      4573	80001ac0	00ac1413	slli	x8,x24,0xa	 x24:0x00000087  x8=0x00021c00
       45755000	      4574	80001ac4	6975a793	slti	x15,x11,1687	 x11:0x80009f84 x15=0x00000001
       45765000	      4575	80001ac8	0d0dcc13	xori	x24,x27,208	 x27:0x11b11000 x24=0x11b110d0
       45775000	      4576	80001acc	da3d2013	slti	x0,x26,-605	 x26:0x01000000
       45785000	      4577	80001ad0	407f5233	sra	x4,x30,x7	 x30:0x00000000  x7:0x80009fc4  x4=0x00000000
       45795000	      4578	80001ad4	01fac733	xor	x14,x21,x31	 x21:0x00000001 x31:0x00003aee x14=0x00003aef
       45805000	      4579	80001ad8	03e3f463	bgeu	x7,x30,80001b00	  x7:0x80009fc4 x30:0x00000000
       45815000	      4580	00000000	00000013	addi	x0,x0,0	  x0:0x00000000
       45825000	      4581	80001afc	00000013	addi	x0,x0,0	  x0:0x00000000
       45835000	      4582	80001b00	0d88c463	blt	x17,x24,80001bc8	 x17:0x00000000 x24:0x11b110d0
       45845000	      4583	00000000	00000013	addi	x0,x0,0	  x0:0x00000000
       45855000	      4584	80001bc4	00000013	addi	x0,x0,0	  x0:0x00000000
       45865000	      4585	80001bc8	05e3e263	bltu	x7,x30,80001c0c	  x7:0x80009fc4 x30:0x00000000
       45875000	      4586	80001bcc	05968863	beq	x13,x25,80001c1c	 x13:0x00000000 x25:0x6bed2001
       45885000	      4587	80001bd0	00549213	slli	x4,x9,0x5	  x9:0x00000001  x4=0x00000020
       45895000	      4588	80001bd4	410b0fb3	sub	x31,x22,x16	 x22:0x00116880 x16:0x0d9b0d2b x31=0xf2765b55
       45905000	      4589	80001bd8	00cc0a63	beq	x24,x12,80001bec	 x24:0x11b110d0 x12:0x00000138
       45915000	      4590	80001bdc	1557bf93	sltiu	x31,x15,341	 x15:0x00000001 x31=0x00000001
       45925000	      4591	80001be0	24348693	addi	x13,x9,579	  x9:0x00000001 x13=0x00000244
       45935000	      4592	80001be4	8ef88893	addi	x17,x17,-1809	 x17:0x00000000 x17=0xfffff8ef
       45945000	      4593	80001be8	01618863	beq	x3,x22,80001bf8	  x3:0xfffffff8 x22:0x00116880
       45955000	      4594	80001bec	40be0eb3	sub	x29,x28,x11	 x28:0x00000001 x11:0x80009f84 x29=0x7fff607d
       45965000	      4595	80001bf0	69f9eeb7	lui	x29,0x69f9e	 x29=0x69f9e000
       45975000	      4596	80001bf4	15c33c13	sltiu	x24,x6,348	  x6:0x00000000 x24=0x00000001
       45985000	      4597	80001bf8	01985b33	srl	x22,x16,x25	 x16:0x0d9b0d2b x25:0x6bed2001 x22=0x06cd8695
       45995000	      4598	80001bfc	6749bc93	sltiu	x25,x19,1652	 x19:0x45a20000 x25=0x00000000
       46005000	      4599	80001c00	016c18b3	sll	x17,x24,x22	 x24:0x00000001 x22:0x06cd8695 x17=0x00200000
       46015000	      4600	80001c04	00289f13	slli	x30,x17,0x2	 x17:0x00200000 x30=0x00800000
       46025000	      4601	80001c08	1e37f893	andi	x17,x15,483	 x15:0x00000001 x17=0x00000001
       46035000	      4602	80001c0c	0a715c63	bge	x2,x7,80001cc4	  x2:0x1c3bd864  x7:0x80009fc4
       46045000	      4603	00000000	00000013	addi	x0,x0,0	  x0:0x00000000
       46055000	      4604	80001cc0	00000013	addi	x0,x0,0	  x0:0x00000000
       46065000	      4605	80001cc4	00e25d93	srli	x27,x4,0xe	  x4:0x00000020 x27=0x00000000
       46075000	      4606	80001cc8	15ef2793	slti	x15,x30,350	 x30:0x00800000 x15=0x00000000
       46085000	      4607	80001ccc	036b9463	bne	x23,x22,80001cf4	 x23:0x00000000 x22:0x06cd8695
       46095000	      4608	00000000	00000013	addi	x0,x0,0	  x0:0x00000000
       46105000	      4609	80001cf0	00000013	addi	x0,x0,0	  x0:0x00000000
       46115000	      4610	80001cf4	01b7df93	srli	x31,x15,0x1b	 x15:0x00000000 x31=0x00000000
       46125000	      4611	80001cf8	01630633	add	x12,x6,x22	  x6:0x00000000 x22:0x06cd8695 x12=0x06cd8695
       46135000	      4612	80001cfc	58217b93	andi	x23,x2,1410	  x2:0x1c3bd864 x23=0x00000000
       46145000	      4613	80001d00	0014ee63	bltu	x9,x1,80001d1c	  x9:0x00000001  x1:0x00000000
       46155000	      4614	80001d04	940fea13	ori	x20,x31,-1728	 x31:0x00000000 x20=0xfffff940
       46165000	      4615	80001d08	6667f513	andi	x10,x15,1638	 x15:0x00000000 x10=0x00000000
       46175000	      4616	80001d0c	00c70233	add	x4,x14,x12	 x14:0x00003aef x12:0x06cd8695  x4=0x06cdc184
       46185000	      4617	80001d10	b1b07213	andi	x4,x0,-1253	  x0:0x00000000  x4=0x00000000
       46195000	      4618	80001d14	00000013	addi	x0,x0,0	  x0:0x00000000
       46205000	      4619	80001d18	043f5863	bge	x30,x3,80001d68	 x30:0x00800000  x3:0xfffffff8
       46215000	      4620	00000000	00000013	addi	x0,x0,0	  x0:0x00000000
       46225000	      4621	80001d64	00000013	addi	x0,x0,0	  x0:0x00000000
       46235000	      4622	80001d68	01b34b33	xor	x22,x6,x27	  x6:0x00000000 x27:0x00000000 x22=0x00000000
       46245000	      4623	80001d6c	dfae8893	addi	x17,x29,-518	 x29:0x69f9e000 x17=0x69f9ddfa
       46255000	      4624	80001d70	014a9e13	slli	x28,x21,0x14	 x21:0x00000001 x28=0x00100000
       46265000	      4625	80001d74	02a01a63	bne	x0,x10,80001da8	  x0:0x00000000 x10:0x00000000
       46275000	      4626	80001d78	013c1193	slli	x3,x24,0x13	 x24:0x00000001  x3=0x00080000
       46285000	      4627	80001d7c	405a0133	sub	x2,x20,x5	 x20:0xfffff940  x5:0x000038c8  x2=0xffffc078
       46295000	      4628	80001d80	00f97863	bgeu	x18,x15,80001d90	 x18:0xc0f63c23 x15:0x00000000
       46305000	      4629	00000000	00000013	addi	x0,x0,0	  x0:0x00000000
       46315000	      4630	80001d8c	00000013	addi	x0,x0,0	  x0:0x00000000
       46325000	      4631	80001d90	ec0ccc13	xori	x24,x25,-320	 x25:0x00000000 x24=0xfffffec0
       46335000	      4632	80001d94	40f20cb3	sub	x25,x4,x15	  x4:0x00000000 x15:0x00000000 x25=0x00000000
       46345000	      4633	80001d98	41a889b3	sub	x19,x17,x26	 x17:0x69f9ddfa x26:0x01000000 x19=0x68f9ddfa
       46355000	      4634	80001d9c	021a7c63	bgeu	x20,x1,80001dd4	 x20:0xfffff940  x1:0x00000000
       46365000	      4635	00000000	00000013	addi	x0,x0,0	  x0:0x00000000
       46375000	      4636	80001dd0	00000013	addi	x0,x0,0	  x0:0x00000000
       46385000	      4637	80001dd4	040e4263	blt	x28,x0,80001e18	 x28:0x00100000  x0:0x00000000
       46395000	      4638	80001dd8	9fadba13	sltiu	x20,x27,-1542	 x27:0x00000000 x20=0x00000001
       46405000	      4639	80001ddc	008e8333	add	x6,x29,x8	 x29:0x69f9e000  x8:0x00021c00  x6=0x69fbfc00
       46415000	      4640	80001de0	01f68533	add	x10,x13,x31	 x13:0x00000244 x31:0x00000000 x10=0x00000244
       46425000	      4641	80001de4	41138ab3	sub	x21,x7,x17	  x7:0x80009fc4 x17:0x69f9ddfa x21=0x1606c1ca
       46435000	      4642	80001de8	41b78933	sub	x18,x15,x27	 x15:0x00000000 x27:0x00000000 x18=0x00000000
       46445000	      4643	80001dec	01ed2a33	slt	x20,x26,x30	 x26:0x01000000 x30:0x00800000 x20=0x00000000
       46455000	      4644	80001df0	9d21feb7	lui	x29,0x9d21f	 x29=0x9d21f000
       46465000	      4645	80001df4	fdc5e993	ori	x19,x11,-36	 x11:0x80009f84 x19=0xffffffdc
       46475000	      4646	80001df8	01880463	beq	x16,x24,80001e00	 x16:0x0d9b0d2b x24:0xfffffec0
       46485000	      4647	80001dfc	01d6fe63	bgeu	x13,x29,80001e18	 x13:0x00000244 x29:0x9d21f000
       46495000	      4648	80001e00	00af8e63	beq	x31,x10,80001e1c	 x31:0x00000000 x10:0x00000244
       46505000	      4649	80001e04	0082a0b3	slt	x1,x5,x8	  x5:0x000038c8  x8:0x00021c00  x1=0x00000001
       46515000	      4650	80001e08	019c1c33	sll	x24,x24,x25	 x24:0xfffffec0 x25:0x00000000 x24=0xfffffec0
       46525000	      4651	80001e0c	40b28ab3	sub	x21,x5,x11	  x5:0x000038c8 x11:0x80009f84 x21=0x7fff9944
       46535000	      4652	80001e10	e2730b93	addi	x23,x6,-473	  x6:0x69fbfc00 x23=0x69fbfa27
       46545000	      4653	80001e14	7ad1e413	ori	x8,x3,1965	  x3:0x00080000  x8=0x000807ad
       46555000	      4654	80001e18	2d897093	andi	x1,x18,728	 x18:0x00000000  x1=0x00000000
       46565000	      4655	80001e1c	00000013	addi	x0,x0,0	  x0:0x00000000
       46575000	      4656	80001e20	2b13e793	ori	x15,x7,689	  x7:0x80009fc4 x15=0x80009ff5
       46585000	      4657	80001e24	41130eb3	sub	x29,x6,x17	  x6:0x69fbfc00 x17:0x69f9ddfa x29=0x00021e06
       46595000	      4658	80001e28	00548863	beq	x9,x5,80001e38	  x9:0x00000001  x5:0x000038c8
       46605000	      4659	80001e2c	9a8dca93	xori	x21,x27,-1624	 x27:0x00000000 x21=0xfffff9a8
       46615000	      4660	80001e30	01866633	or	x12,x12,x24	 x12:0x06cd8695 x24:0xfffffec0 x12=0xfffffed5
       46625000	      4661	80001e34	03271c63	bne	x14,x18,80001e6c	 x14:0x00003aef x18:0x00000000
       46635000	      4662	00000000	00000013	addi	x0,x0,0	  x0:0x00000000
       46645000	      4663	80001e68	00000013	addi	x0,x0,0	  x0:0x00000000
       46655000	      4664	80001e6c	41a68c33	sub	x24,x13,x26	 x13:0x00000244 x26:0x01000000 x24=0xff000244
       46665000	      4665	80001e70	03426e63	bltu	x4,x20,80001eac	  x4:0x00000000 x20:0x00000000
       46675000	      4666	80001e74	509fc217	auipc	x4,0x509fc	  x4=0xd09fde70
       46685000	      4667	80001e78	6b6947b7	lui	x15,0x6b694	 x15=0x6b694000
       46695000	      4668	80001e7c	0064ec63	bltu	x9,x6,80001e94	  x9:0x00000001  x6:0x69fbfc00
       46705000	      4669	00000000	00000013	addi	x0,x0,0	  x0:0x00000000
       46715000	      4670	80001e90	00000013	addi	x0,x0,0	  x0:0x00000000
       46725000	      4671	80001e94	00d43433	sltu	x8,x8,x13	  x8:0x000807ad x13:0x00000244  x8=0x00000000
       46735000	      4672	80001e98	e40f1637	lui	x12,0xe40f1	 x12=0xe40f1000
       46745000	      4673	80001e9c	01615663	bge	x2,x22,80001ea8	  x2:0xffffc078 x22:0x00000000
       46755000	      4674	80001ea0	a0c7fa93	andi	x21,x15,-1524	 x15:0x6b694000 x21=0x6b694000
       46765000	      4675	80001ea4	0141bab3	sltu	x21,x3,x20	  x3:0x00080000 x20:0x00000000 x21=0x00000000
       46775000	      4676	80001ea8	05005263	bge	x0,x16,80001eec	  x0:0x00000000 x16:0x0d9b0d2b
       46785000	      4677	80001eac	0c698c93	addi	x25,x19,198	 x19:0xffffffdc x25=0x000000a2
       46795000	      4678	80001eb0	017e1793	slli	x15,x28,0x17	 x28:0x00100000 x15=0x00000000
       46805000	      4679	80001eb4	01e59863	bne	x11,x30,80001ec4	 x11:0x80009f84 x30:0x00800000
       46815000	      4680	00000000	00000013	addi	x0,x0,0	  x0:0x00000000
       46825000	      4681	80001ec0	00000013	addi	x0,x0,0	  x0:0x00000000
       46835000	      4682	80001ec4	007477b3	and	x15,x8,x7	  x8:0x00000000  x7:0x80009fc4 x15=0x00000000
       46845000	      4683	80001ec8	00acadb3	slt	x27,x25,x10	 x25:0x000000a2 x10:0x00000244 x27=0x00000001
       46855000	      4684	80001ecc	41f85d13	srai	x26,x16,0x1f	 x16:0x0d9b0d2b x26=0x00000000
       46865000	      4685	80001ed0	01469e63	bne	x13,x20,80001eec	 x13:0x00000244 x20:0x00000000
       46875000	      4686	00000000	00000013	addi	x0,x0,0	  x0:0x00000000
       46885000	      4687	80001ee8	00000013	addi	x0,x0,0	  x0:0x00000000
       46895000	      4688	80001eec	04365863	bge	x12,x3,80001f3c	 x12:0xe40f1000  x3:0x00080000
       46905000	      4689	80001ef0	0066da63	bge	x13,x6,80001f04	 x13:0x00000244  x6:0x69fbfc00
       46915000	      4690	80001ef4	0223fc63	bgeu	x7,x2,80001f2c	  x7:0x80009fc4  x2:0xffffc078
       46925000	      4691	80001ef8	40b28633	sub	x12,x5,x11	  x5:0x000038c8 x11:0x80009f84 x12=0x7fff9944
       46935000	      4692	80001efc	41f35fb3	sra	x31,x6,x31	  x6:0x69fbfc00 x31:0x00000000 x31=0x69fbfc00
       46945000	      4693	80001f00	03a3c063	blt	x7,x26,80001f20	  x7:0x80009fc4 x26:0x00000000
       46955000	      4694	00000000	00000013	addi	x0,x0,0	  x0:0x00000000
       46965000	      4695	80001f1c	00000013	addi	x0,x0,0	  x0:0x00000000
       46975000	      4696	80001f20	f69ab413	sltiu	x8,x21,-151	 x21:0x00000000  x8=0x00000001
       46985000	      4697	80001f24	922ca093	slti	x1,x25,-1758	 x25:0x000000a2  x1=0x00000000
       46995000	      4698	80001f28	02066e63	bltu	x12,x0,80001f64	 x12:0x7fff9944  x0:0x00000000
       47005000	      4699	80001f2c	40e18733	sub	x14,x3,x14	  x3:0x00080000 x14:0x00003aef x14=0x0007c511
       47015000	      4700	80001f30	00d196b3	sll	x13,x3,x13	  x3:0x00080000 x13:0x00000244 x13=0x00800000
       47025000	      4701	80001f34	9b8beb13	ori	x22,x23,-1608	 x23:0x69fbfa27 x22=0xfffffbbf
       47035000	      4702	80001f38	00da8bb3	add	x23,x21,x13	 x21:0x00000000 x13:0x00800000 x23=0x00800000
       47045000	      4703	80001f3c	0506f863	bgeu	x13,x16,80001f8c	 x13:0x00800000 x16:0x0d9b0d2b
       47055000	      4704	80001f40	0252cc63	blt	x5,x5,80001f78	  x5:0x000038c8  x5:0x000038c8
       47065000	      4705	80001f44	03054a63	blt	x10,x16,80001f78	 x10:0x00000244 x16:0x0d9b0d2b
       47075000	      4706	00000000	00000013	addi	x0,x0,0	  x0:0x00000000
       47085000	      4707	80001f74	00000013	addi	x0,x0,0	  x0:0x00000000
       47095000	      4708	80001f78	5b01ffb7	lui	x31,0x5b01f	 x31=0x5b01f000
       47105000	      4709	80001f7c	00ae0db3	add	x27,x28,x10	 x28:0x00100000 x10:0x00000244 x27=0x00100244
       47115000	      4710	80001f80	01731c33	sll	x24,x6,x23	  x6:0x69fbfc00 x23:0x00800000 x24=0x69fbfc00
       47125000	      4711	80001f84	6821ef13	ori	x30,x3,1666	  x3:0x00080000 x30=0x00080682
       47135000	      4712	80001f88	058cf263	bgeu	x25,x24,80001fcc	 x25:0x000000a2 x24:0x69fbfc00
       47145000	      4713	80001f8c	010a49b3	xor	x19,x20,x16	 x20:0x00000000 x16:0x0d9b0d2b x19=0x0d9b0d2b
       47155000	      4714	80001f90	ec6e2413	slti	x8,x28,-314	 x28:0x00100000  x8=0x00000000
       47165000	      4715	80001f94	01c1dc13	srli	x24,x3,0x1c	  x3:0x00080000 x24=0x00000000
       47175000	      4716	80001f98	a0b32b93	slti	x23,x6,-1525	  x6:0x69fbfc00 x23=0x00000000
       47185000	      4717	80001f9c	03c11a63	bne	x2,x28,80001fd0	  x2:0xffffc078 x28:0x00100000
       47195000	      4718	00000000	00000013	addi	x0,x0,0	  x0:0x00000000
       47205000	      4719	80001fcc	00000013	addi	x0,x0,0	  x0:0x00000000
       47215000	      4720	80001fd0	001d6993	ori	x19,x26,1	 x26:0x00000000 x19=0x00000001
       47225000	      4721	80001fd4	02c30463	beq	x6,x12,80001ffc	  x6:0x69fbfc00 x12:0x7fff9944
       47235000	      4722	80001fd8	ffcabe93	sltiu	x29,x21,-4	 x21:0x00000000 x29=0x00000001
       47245000	      4723	80001fdc	413d8f33	sub	x30,x27,x19	 x27:0x00100244 x19:0x00000001 x30=0x00100243
       47255000	      4724	80001fe0	13fcbd93	sltiu	x27,x25,319	 x25:0x000000a2 x27=0x00000001
       47265000	      4725	80001fe4	3432cd93	xori	x27,x5,835	  x5:0x000038c8 x27=0x00003b8b
       47275000	      4726	80001fe8	b8622993	slti	x19,x4,-1146	  x4:0xd09fde70 x19=0x00000001
       47285000	      4727	80001fec	05439263	bne	x7,x20,80002030	  x7:0x80009fc4 x20:0x00000000
       47295000	      4728	00000000	00000013	addi	x0,x0,0	  x0:0x00000000
       47305000	      4729	8000202c	00000013	addi	x0,x0,0	  x0:0x00000000
       47315000	      4730	80002030	031d0263	beq	x26,x17,80002054	 x26:0x00000000 x17:0x69f9ddfa
       47325000	      4731	80002034	53f370b7	lui	x1,0x53f37	  x1=0x53f37000
       47335000	      4732	80002038	41a70633	sub	x12,x14,x26	 x14:0x0007c511 x26:0x00000000 x12=0x0007c511
       47345000	      4733	8000203c	0122d233	srl	x4,x5,x18	  x5:0x000038c8 x18:0x00000000  x4=0x000038c8
       47355000	      4734	80002040	00ea4eb3	xor	x29,x20,x14	 x20:0x00000000 x14:0x0007c511 x29=0x0007c511
       47365000	      4735	80002044	011dbab3	sltu	x21,x27,x17	 x27:0x00003b8b x17:0x69f9ddfa x21=0x00000001
       47375000	      4736	80002048	2601c893	xori	x17,x3,608	  x3:0x00080000 x17=0x00080260
       47385000	      4737	8000204c	015ce633	or	x12,x25,x21	 x25:0x000000a2 x21:0x00000001 x12=0x000000a3
       47395000	      4738	80002050	40dfd513	srai	x10,x31,0xd	 x31:0x5b01f000 x10=0x0002d80f
       47405000	      4739	80002054	75922413	slti	x8,x4,1881	  x4:0x000038c8  x8=0x00000000
       47415000	      4740	80002058	01ad38b3	sltu	x17,x26,x26	 x26:0x00000000 x26:0x00000000 x17=0x00000000
       47425000	      4741	8000205c	b6c11697	auipc	x13,0xb6c11	 x13=0x36c13058
       47435000	      4742	80002060	005729b3	slt	x19,x14,x5	 x14:0x0007c511  x5:0x000038c8 x19=0x00000000
       47445000	      4743	80002064	01486c63	bltu	x16,x20,8000207c	 x16:0x0d9b0d2b x20:0x00000000
       47455000	      4744	80002068	0309c063	blt	x19,x16,80002088	 x19:0x00000000 x16:0x0d9b0d2b
       47465000	      4745	00000000	00000013	addi	x0,x0,0	  x0:0x00000000
       47475000	      4746	80002084	00000013	addi	x0,x0,0	  x0:0x00000000
       47485000	      4747	80002088	007c1863	bne	x24,x7,80002098	 x24:0x00000000  x7:0x80009fc4
       47495000	      4748	00000000	00000013	addi	x0,x0,0	  x0:0x00000000
       47505000	      4749	80002094	00000013	addi	x0,x0,0	  x0:0x00000000
       47515000	      4750	80002098	412e5033	sra	x0,x28,x18	 x28:0x00100000 x18:0x00000000
       47525000	      4751	8000209c	ad38ef37	lui	x30,0xad38e	 x30=0xad38e000
       47535000	      4752	800020a0	00b7feb3	and	x29,x15,x11	 x15:0x00000000 x11:0x80009f84 x29=0x00000000
       47545000	      4753	800020a4	00000013	addi	x0,x0,0	  x0:0x00000000
       47555000	      4754	800020a8	8226cc13	xori	x24,x13,-2014	 x13:0x36c13058 x24=0xc93ec87a
       47565000	      4755	800020ac	00060eb3	add	x29,x12,x0	 x12:0x000000a3  x0:0x00000000 x29=0x000000a3
       47575000	      4756	800020b0	00fd4c33	xor	x24,x26,x15	 x26:0x00000000 x15:0x00000000 x24=0x00000000
       47585000	      4757	800020b4	03216c63	bltu	x2,x18,800020ec	  x2:0xffffc078 x18:0x00000000
       47595000	      4758	800020b8	01188863	beq	x17,x17,800020c8	 x17:0x00000000 x17:0x00000000
       47605000	      4759	00000000	00000013	addi	x0,x0,0	  x0:0x00000000
       47615000	      4760	800020c4	00000013	addi	x0,x0,0	  x0:0x00000000
       47625000	      4761	800020c8	3939e913	ori	x18,x19,915	 x19:0x00000000 x18=0x00000393
       47635000	      4762	800020cc	40a95013	srai	x0,x18,0xa	 x18:0x00000393
       47645000	      4763	800020d0	01bbb4b3	sltu	x9,x23,x27	 x23:0x00000000 x27:0x00003b8b  x9=0x00000001
       47655000	      4764	800020d4	00c78633	add	x12,x15,x12	 x15:0x00000000 x12:0x000000a3 x12=0x000000a3
       47665000	      4765	800020d8	00375e13	srli	x28,x14,0x3	 x14:0x0007c511 x28=0x0000f8a2
       47675000	      4766	800020dc	3198e737	lui	x14,0x3198e	 x14=0x3198e000
       47685000	      4767	800020e0	00549f93	slli	x31,x9,0x5	  x9:0x00000001 x31=0x00000020
       47695000	      4768	800020e4	042cf863	bgeu	x25,x2,80002134	 x25:0x000000a2  x2:0xffffc078
       47705000	      4769	800020e8	00b0d193	srli	x3,x1,0xb	  x1:0x53f37000  x3=0x000a7e6e
       47715000	      4770	800020ec	886dfa93	andi	x21,x27,-1914	 x27:0x00003b8b x21=0x00003882
       47725000	      4771	800020f0	1eb94b13	xori	x22,x18,491	 x18:0x00000393 x22=0x00000278
       47735000	      4772	800020f4	1315bd13	sltiu	x26,x11,305	 x11:0x80009f84 x26=0x00000000
       47745000	      4773	800020f8	5f63a613	slti	x12,x7,1526	  x7:0x80009fc4 x12=0x00000001
       47755000	      4774	800020fc	015a5863	bge	x20,x21,8000210c	 x20:0x00000000 x21:0x00003882
       47765000	      4775	80002100	01694e63	blt	x18,x22,8000211c	 x18:0x00000393 x22:0x00000278
       47775000	      4776	80002104	01bdc663	blt	x27,x27,80002110	 x27:0x00003b8b x27:0x00003b8b
       47785000	      4777	80002108	01ff81b3	add	x3,x31,x31	 x31:0x00000020 x31:0x00000020  x3=0x00000040
       47795000	      4778	8000210c	018d5e33	srl	x28,x26,x24	 x26:0x00000000 x24:0x00000000 x28=0x00000000
       47805000	      4779	80002110	ec88a093	slti	x1,x17,-312	 x17:0x00000000  x1=0x00000000
       47815000	      4780	80002114	0184d7b3	srl	x15,x9,x24	  x9:0x00000001 x24:0x00000000 x15=0x00000001
       47825000	      4781	80002118	009a0e33	add	x28,x20,x9	 x20:0x00000000  x9:0x00000001 x28=0x00000001
       47835000	      4782	8000211c	ffa9ba93	sltiu	x21,x19,-6	 x19:0x00000000 x21=0x00000001
       47845000	      4783	80002120	004a7e33	and	x28,x20,x4	 x20:0x00000000  x4:0x000038c8 x28=0x00000000
       47855000	      4784	80002124	76e4ec93	ori	x25,x9,1902	  x9:0x00000001 x25=0x0000076f
       47865000	      4785	80002128	0210ce63	blt	x1,x1,80002164	  x1:0x00000000  x1:0x00000000
       47875000	      4786	8000212c	001d1c33	sll	x24,x26,x1	 x26:0x00000000  x1:0x00000000 x24=0x00000000
       47885000	      4787	80002130	b6398b13	addi	x22,x19,-1181	 x19:0x00000000 x22=0xfffffb63
       47895000	      4788	80002134	0562f063	bgeu	x5,x22,80002174	  x5:0x000038c8 x22:0xfffffb63
       47905000	      4789	80002138	40b758b3	sra	x17,x14,x11	 x14:0x3198e000 x11:0x80009f84 x17=0x03198e00
       47915000	      4790	8000213c	00766e33	or	x28,x12,x7	 x12:0x00000001  x7:0x80009fc4 x28=0x80009fc5
       47925000	      4791	80002140	605c4f93	xori	x31,x24,1541	 x24:0x00000000 x31=0x00000605
       47935000	      4792	80002144	40c65f93	srai	x31,x12,0xc	 x12:0x00000001 x31=0x00000000
       47945000	      4793	80002148	00baea63	bltu	x21,x11,8000215c	 x21:0x00000001 x11:0x80009f84
       47955000	      4794	00000000	00000013	addi	x0,x0,0	  x0:0x00000000
       47965000	      4795	80002158	00000013	addi	x0,x0,0	  x0:0x00000000
       47975000	      4796	8000215c	00dbbc33	sltu	x24,x23,x13	 x23:0x00000000 x13:0x36c13058 x24=0x00000001
       47985000	      4797	80002160	0914ee63	bltu	x9,x17,800021fc	  x9:0x00000001 x17:0x03198e00
       47995000	      4798	00000000	00000013	addi	x0,x0,0	  x0:0x00000000
       48005000	      4799	800021f8	00000013	addi	x0,x0,0	  x0:0x00000000
       48015000	      4800	800021fc	ca7bad13	slti	x26,x23,-857	 x23:0x00000000 x26=0x00000000
       48025000	      4801	80002200	8955b993	sltiu	x19,x11,-1899	 x11:0x80009f84 x19=0x00000001
       48035000	      4802	80002204	00243b33	sltu	x22,x8,x2	  x8:0x00000000  x2:0xffffc078 x22=0x00000001
       48045000	      4803	80002208	a4f13e93	sltiu	x29,x2,-1457	  x2:0xffffc078 x29=0x00000001
       48055000	      4804	8000220c	04f1f263	bgeu	x3,x15,80002250	  x3:0x00000040 x15:0x00000001
       48065000	      4805	00000000	00000013	addi	x0,x0,0	  x0:0x00000000
       48075000	      4806	8000224c	00000013	addi	x0,x0,0	  x0:0x00000000
       48085000	      4807	80002250	0554f263	bgeu	x9,x21,80002294	  x9:0x00000001 x21:0x00000001
       48095000	      4808	00000000	00000013	addi	x0,x0,0	  x0:0x00000000
       48105000	      4809	80002290	00000013	addi	x0,x0,0	  x0:0x00000000
       48115000	      4810	80002294	001be663	bltu	x23,x1,800022a0	 x23:0x00000000  x1:0x00000000
       48125000	      4811	80002298	0133ea63	bltu	x7,x19,800022ac	  x7:0x80009fc4 x19:0x00000001
       48135000	      4812	8000229c	405459b3	sra	x19,x8,x5	  x8:0x00000000  x5:0x000038c8 x19=0x00000000
       48145000	      4813	800022a0	dd11f313	andi	x6,x3,-559	  x3:0x00000040  x6=0x00000040
       48155000	      4814	800022a4	2afe3213	sltiu	x4,x28,687	 x28:0x80009fc5  x4=0x00000000
       48165000	      4815	800022a8	ab730893	addi	x17,x6,-1353	  x6:0x00000040 x17=0xfffffaf7
       48175000	      4816	800022ac	f4f6a313	slti	x6,x13,-177	 x13:0x36c13058  x6=0x00000000
       48185000	      4817	800022b0	40818ab3	sub	x21,x3,x8	  x3:0x00000040  x8:0x00000000 x21=0x00000040
       48195000	      4818	800022b4	41af5693	srai	x13,x30,0x1a	 x30:0xad38e000 x13=0xffffffeb
       48205000	      4819	800022b8	daaec0b7	lui	x1,0xdaaec	  x1=0xdaaec000
       48215000	      4820	800022bc	40b05e33	sra	x28,x0,x11	  x0:0x00000000 x11:0x80009f84 x28=0x00000000
       48225000	      4821	800022c0	04dbe263	bltu	x23,x13,80002304	 x23:0x00000000 x13:0xffffffeb
       48235000	      4822	00000000	00000013	addi	x0,x0,0	  x0:0x00000000
       48245000	      4823	80002300	00000013	addi	x0,x0,0	  x0:0x00000000
       48255000	      4824	80002304	013934b3	sltu	x9,x18,x19	 x18:0x00000393 x19:0x00000000  x9=0x00000000
       48265000	      4825	80002308	b4aa7717	auipc	x14,0xb4aa7	 x14=0x34aa9304
       48275000	      4826	8000230c	4067ddb3	sra	x27,x15,x6	 x15:0x00000001  x6:0x00000000 x27=0x00000001
       48285000	      4827	80002310	4d611d37	lui	x26,0x4d611	 x26=0x4d611000
       48295000	      4828	80002314	02bc7e63	bgeu	x24,x11,80002350	 x24:0x00000001 x11:0x80009f84
       48305000	      4829	80002318	017ab533	sltu	x10,x21,x23	 x21:0x00000040 x23:0x00000000 x10=0x00000000
       48315000	      4830	8000231c	2f0c4893	xori	x17,x24,752	 x24:0x00000001 x17=0x000002f1
       48325000	      4831	80002320	5b405897	auipc	x17,0x5b405	 x17=0xdb40731c
       48335000	      4832	80002324	015fe133	or	x2,x31,x21	 x31:0x00000000 x21:0x00000040  x2=0x00000040
       48345000	      4833	80002328	92406093	ori	x1,x0,-1756	  x0:0x00000000  x1=0xfffff924
       48355000	      4834	8000232c	022f8c63	beq	x31,x2,80002364	 x31:0x00000000  x2:0x00000040
       48365000	      4835	80002330	b7a04693	xori	x13,x0,-1158	  x0:0x00000000 x13=0xfffffb7a
       48375000	      4836	80002334	3653e113	ori	x2,x7,869	  x7:0x80009fc4  x2=0x80009fe5
       48385000	      4837	80002338	016690b3	sll	x1,x13,x22	 x13:0xfffffb7a x22:0x00000001  x1=0xfffff6f4
       48395000	      4838	8000233c	4595e117	auipc	x2,0x4595e	  x2=0xc5960338
       48405000	      4839	80002340	05f96063	bltu	x18,x31,80002380	 x18:0x00000393 x31:0x00000000
       48415000	      4840	80002344	015f8433	add	x8,x31,x21	 x31:0x00000000 x21:0x00000040  x8=0x00000040
       48425000	      4841	80002348	e476fc93	andi	x25,x13,-441	 x13:0xfffffb7a x25=0xfffffa42
       48435000	      4842	8000234c	60493e13	sltiu	x28,x18,1540	 x18:0x00000393 x28=0x00000001
       48445000	      4843	80002350	01038733	add	x14,x7,x16	  x7:0x80009fc4 x16:0x0d9b0d2b x14=0x8d9bacef
       48455000	      4844	80002354	416bd113	srai	x2,x23,0x16	 x23:0x00000000  x2=0x00000000
       48465000	      4845	80002358	00bb9093	slli	x1,x23,0xb	 x23:0x00000000  x1=0x00000000
       48475000	      4846	8000235c	00000013	addi	x0,x0,0	  x0:0x00000000
       48485000	      4847	80002360	011214b3	sll	x9,x4,x17	  x4:0x00000000 x17:0xdb40731c  x9=0x00000000
       48495000	      4848	80002364	016f00b3	add	x1,x30,x22	 x30:0xad38e000 x22:0x00000001  x1=0xad38e001
       48505000	      4849	80002368	b6b4bb93	sltiu	x23,x9,-1173	  x9:0x00000000 x23=0x00000001
       48515000	      4850	8000236c	98bb4613	xori	x12,x22,-1653	 x22:0x00000001 x12=0xfffff98a
       48525000	      4851	80002370	01856cb3	or	x25,x10,x24	 x10:0x00000000 x24:0x00000001 x25=0x00000001
       48535000	      4852	80002374	00bf1293	slli	x5,x30,0xb	 x30:0xad38e000  x5=0xc7000000
       48545000	      4853	80002378	00097cb3	and	x25,x18,x0	 x18:0x00000393  x0:0x00000000 x25=0x00000000
       48555000	      4854	8000237c	54e23993	sltiu	x19,x4,1358	  x4:0x00000000 x19=0x00000001
       48565000	      4855	80002380	41c75133	sra	x2,x14,x28	 x14:0x8d9bacef x28:0x00000001  x2=0xc6cdd677
       48575000	      4856	80002384	78ff6e93	ori	x29,x30,1935	 x30:0xad38e000 x29=0xad38e78f
       48585000	      4857	80002388	00000013	addi	x0,x0,0	  x0:0x00000000
       48595000	      4858	8000238c	ca8f3613	sltiu	x12,x30,-856	 x30:0xad38e000 x12=0x00000001
       48605000	      4859	80002390	0536c863	blt	x13,x19,800023e0	 x13:0xfffffb7a x19:0x00000001
       48615000	      4860	00000000	00000013	addi	x0,x0,0	  x0:0x00000000
       48625000	      4861	800023dc	00000013	addi	x0,x0,0	  x0:0x00000000
       48635000	      4862	800023e0	01485863	bge	x16,x20,800023f0	 x16:0x0d9b0d2b x20:0x00000000
       48645000	      4863	00000000	00000013	addi	x0,x0,0	  x0:0x00000000
       48655000	      4864	800023ec	00000013	addi	x0,x0,0	  x0:0x00000000
       48665000	      4865	800023f0	01148863	beq	x9,x17,80002400	  x9:0x00000000 x17:0xdb40731c
       48675000	      4866	800023f4	019df0b3	and	x1,x27,x25	 x27:0x00000001 x25:0x00000000  x1=0x00000000
       48685000	      4867	800023f8	01338fb3	add	x31,x7,x19	  x7:0x80009fc4 x19:0x00000001 x31=0x80009fc5
       48695000	      4868	800023fc	02b15a63	bge	x2,x11,80002430	  x2:0xc6cdd677 x11:0x80009f84
       48705000	      4869	00000000	00000013	addi	x0,x0,0	  x0:0x00000000
       48715000	      4870	8000242c	00000013	addi	x0,x0,0	  x0:0x00000000
       48725000	      4871	80002430	600cf293	andi	x5,x25,1536	 x25:0x00000000  x5=0x00000000
       48735000	      4872	80002434	018702b3	add	x5,x14,x24	 x14:0x8d9bacef x24:0x00000001  x5=0x8d9bacf0
       48745000	      4873	80002438	dea90913	addi	x18,x18,-534	 x18:0x00000393 x18=0x0000017d
       48755000	      4874	8000243c	0c7bd637	lui	x12,0xc7bd	 x12=0x0c7bd000
       48765000	      4875	80002440	93adfc13	andi	x24,x27,-1734	 x27:0x00000001 x24=0x00000000
       48775000	      4876	80002444	01041bb3	sll	x23,x8,x16	  x8:0x00000040 x16:0x0d9b0d2b x23=0x00020000
       48785000	      4877	80002448	07335a63	bge	x6,x19,800024bc	  x6:0x00000000 x19:0x00000001
       48795000	      4878	8000244c	c6b0fa97	auipc	x21,0xc6b0f	 x21=0x46b11448
       48805000	      4879	80002450	40578533	sub	x10,x15,x5	 x15:0x00000001  x5:0x8d9bacf0 x10=0x72645311
       48815000	      4880	80002454	40145293	srai	x5,x8,0x1	  x8:0x00000040  x5=0x00000020
       48825000	      4881	80002458	72d5ba13	sltiu	x20,x11,1837	 x11:0x80009f84 x20=0x00000000
       48835000	      4882	8000245c	00cd4c33	xor	x24,x26,x12	 x26:0x4d611000 x12:0x0c7bd000 x24=0x411ac000
       48845000	      4883	80002460	0440036f	jal	x6,80002460	  x6=0x80002460
       48855000	      4884	00000000	00000013	addi	x0,x0,0	  x0:0x00000000
       48865000	      4885	800024a0	00000013	addi	x0,x0,0	  x0:0x00000000
       48875000	      4886	800024a4	fd9ff0ef	jal	x1,800024a4	  x1=0x800024a4
       48885000	      4887	00000000	00000013	addi	x0,x0,0	  x0:0x00000000
       48895000	      4888	80002478	00000013	addi	x0,x0,0	  x0:0x00000000
       48905000	      4889	8000247c	fe9ff36f	jal	x6,8000247c	  x6=0x8000247c
       48915000	      4890	00000000	00000013	addi	x0,x0,0	  x0:0x00000000
       48925000	      4891	80002460	00000013	addi	x0,x0,0	  x0:0x00000000
       48935000	      4892	80002464	0140076f	jal	x14,80002464	 x14=0x80002464
       48945000	      4893	00000000	00000013	addi	x0,x0,0	  x0:0x00000000
       48955000	      4894	80002474	00000013	addi	x0,x0,0	  x0:0x00000000
       48965000	      4895	80002478	0240066f	jal	x12,80002478	 x12=0x80002478
       48975000	      4896	00000000	00000013	addi	x0,x0,0	  x0:0x00000000
       48985000	      4897	80002498	00000013	addi	x0,x0,0	  x0:0x00000000
       48995000	      4898	8000249c	ffdff36f	jal	x6,8000249c	  x6=0x8000249c
       49005000	      4899	00000000	00000013	addi	x0,x0,0	  x0:0x00000000
       49015000	      4900	80002494	00000013	addi	x0,x0,0	  x0:0x00000000
       49025000	      4901	80002498	fd1ff1ef	jal	x3,80002498	  x3=0x80002498
       49035000	      4902	00000000	00000013	addi	x0,x0,0	  x0:0x00000000
       49045000	      4903	80002464	00000013	addi	x0,x0,0	  x0:0x00000000
       49055000	      4904	80002468	0380036f	jal	x6,80002468	  x6=0x80002468
       49065000	      4905	00000000	00000013	addi	x0,x0,0	  x0:0x00000000
       49075000	      4906	8000249c	00000013	addi	x0,x0,0	  x0:0x00000000
       49085000	      4907	800024a0	00c0036f	jal	x6,800024a0	  x6=0x800024a0
       49095000	      4908	00000000	00000013	addi	x0,x0,0	  x0:0x00000000
       49105000	      4909	800024a8	00000013	addi	x0,x0,0	  x0:0x00000000
       49115000	      4910	800024ac	fddff36f	jal	x6,800024ac	  x6=0x800024ac
       49125000	      4911	00000000	00000013	addi	x0,x0,0	  x0:0x00000000
       49135000	      4912	80002484	00000013	addi	x0,x0,0	  x0:0x00000000
       49145000	      4913	80002488	fe5ff0ef	jal	x1,80002488	  x1=0x80002488
       49155000	      4914	00000000	00000013	addi	x0,x0,0	  x0:0x00000000
       49165000	      4915	80002468	00000013	addi	x0,x0,0	  x0:0x00000000
       49175000	      4916	8000246c	03c0036f	jal	x6,8000246c	  x6=0x8000246c
       49185000	      4917	00000000	00000013	addi	x0,x0,0	  x0:0x00000000
       49195000	      4918	800024a4	00000013	addi	x0,x0,0	  x0:0x00000000
       49205000	      4919	800024a8	fc9ffbef	jal	x23,800024a8	 x23=0x800024a8
       49215000	      4920	00000000	00000013	addi	x0,x0,0	  x0:0x00000000
       49225000	      4921	8000246c	00000013	addi	x0,x0,0	  x0:0x00000000
       49235000	      4922	80002470	040008ef	jal	x17,80002470	 x17=0x80002470
       49245000	      4923	00000000	00000013	addi	x0,x0,0	  x0:0x00000000
       49255000	      4924	800024ac	00000013	addi	x0,x0,0	  x0:0x00000000
       49265000	      4925	800024b0	fddff0ef	jal	x1,800024b0	  x1=0x800024b0
       49275000	      4926	00000000	00000013	addi	x0,x0,0	  x0:0x00000000
       49285000	      4927	80002488	00000013	addi	x0,x0,0	  x0:0x00000000
       49295000	      4928	8000248c	004000ef	jal	x1,8000248c	  x1=0x8000248c
       49305000	      4929	00000000	00000013	addi	x0,x0,0	  x0:0x00000000
       49315000	      4930	8000248c	00000013	addi	x0,x0,0	  x0:0x00000000
       49325000	      4931	80002490	004009ef	jal	x19,80002490	 x19=0x80002490
       49335000	      4932	00000000	00000013	addi	x0,x0,0	  x0:0x00000000
       49345000	      4933	80002490	00000013	addi	x0,x0,0	  x0:0x00000000
       49355000	      4934	80002494	ff1ff36f	jal	x6,80002494	  x6=0x80002494
       49365000	      4935	00000000	00000013	addi	x0,x0,0	  x0:0x00000000
       49375000	      4936	80002480	00000013	addi	x0,x0,0	  x0:0x00000000
       49385000	      4937	80002484	ff1ff36f	jal	x6,80002484	  x6=0x80002484
       49395000	      4938	00000000	00000013	addi	x0,x0,0	  x0:0x00000000
       49405000	      4939	80002470	00000013	addi	x0,x0,0	  x0:0x00000000
       49415000	      4940	80002474	00c0036f	jal	x6,80002474	  x6=0x80002474
       49425000	      4941	00000000	00000013	addi	x0,x0,0	  x0:0x00000000
       49435000	      4942	8000247c	00000013	addi	x0,x0,0	  x0:0x00000000
       49445000	      4943	80002480	034009ef	jal	x19,80002480	 x19=0x80002480
       49455000	      4944	00000000	00000013	addi	x0,x0,0	  x0:0x00000000
       49465000	      4945	800024b0	00000013	addi	x0,x0,0	  x0:0x00000000
       49475000	      4946	800024b4	0163c033	xor	x0,x7,x22	  x7:0x80009fc4 x22:0x00000001
       49485000	      4947	800024b8	01864533	xor	x10,x12,x24	 x12:0x80002478 x24:0x411ac000 x10=0xc11ae478
       49495000	      4948	800024bc	0174ebb3	or	x23,x9,x23	  x9:0x00000000 x23:0x800024a8 x23=0x800024a8
       49505000	      4949	800024c0	db660293	addi	x5,x12,-586	 x12:0x80002478  x5=0x8000222e
       49515000	      4950	800024c4	005aa433	slt	x8,x21,x5	 x21:0x46b11448  x5:0x8000222e  x8=0x00000000
       49525000	      4951	800024c8	41dedcb3	sra	x25,x29,x29	 x29:0xad38e78f x29:0xad38e78f x25=0xffff5a71
       49535000	      4952	800024cc	0002de93	srli	x29,x5,0x0	  x5:0x8000222e x29=0x8000222e
       49545000	      4953	800024d0	b58cf113	andi	x2,x25,-1192	 x25:0xffff5a71  x2=0xffff5a50
       49555000	      4954	800024d4	02f91463	bne	x18,x15,800024fc	 x18:0x0000017d x15:0x00000001
       49565000	      4955	00000000	00000013	addi	x0,x0,0	  x0:0x00000000
       49575000	      4956	800024f8	00000013	addi	x0,x0,0	  x0:0x00000000
       49585000	      4957	800024fc	3d526193	ori	x3,x4,981	  x4:0x00000000  x3=0x000003d5
       49595000	      4958	80002500	8c004d93	xori	x27,x0,-1856	  x0:0x00000000 x27=0xfffff8c0
       49605000	      4959	80002504	038c1263	bne	x24,x24,80002528	 x24:0x411ac000 x24:0x411ac000
       49615000	      4960	80002508	05fa0263	beq	x20,x31,8000254c	 x20:0x00000000 x31:0x80009fc5
       49625000	      4961	8000250c	01db9193	slli	x3,x23,0x1d	 x23:0x800024a8  x3=0x00000000
       49635000	      4962	80002510	40550db3	sub	x27,x10,x5	 x10:0xc11ae478  x5:0x8000222e x27=0x411ac24a
       49645000	      4963	80002514	3a636f17	auipc	x30,0x3a636	 x30=0xba638510
       49655000	      4964	80002518	00298e63	beq	x19,x2,80002534	 x19:0x80002480  x2:0xffff5a50
       49665000	      4965	8000251c	0328fc63	bgeu	x17,x18,80002554	 x17:0x80002470 x18:0x0000017d
       49675000	      4966	00000000	00000013	addi	x0,x0,0	  x0:0x00000000
       49685000	      4967	80002550	00000013	addi	x0,x0,0	  x0:0x00000000
       49695000	      4968	80002554	04c4c063	blt	x9,x12,80002594	  x9:0x00000000 x12:0x80002478
       49705000	      4969	80002558	00c951b3	srl	x3,x18,x12	 x18:0x0000017d x12:0x80002478  x3=0x00000000
       49715000	      4970	8000255c	41c684b3	sub	x9,x13,x28	 x13:0xfffffb7a x28:0x00000001  x9=0xfffffb79
       49725000	      4971	80002560	04d18263	beq	x3,x13,800025a4	  x3:0x00000000 x13:0xfffffb7a
       49735000	      4972	80002564	29233a93	sltiu	x21,x6,658	  x6:0x80002474 x21=0x00000000
       49745000	      4973	80002568	003661b3	or	x3,x12,x3	 x12:0x80002478  x3:0x00000000  x3=0x80002478
       49755000	      4974	8000256c	004f0c63	beq	x30,x4,80002584	 x30:0xba638510  x4:0x00000000
       49765000	      4975	80002570	044b6863	bltu	x22,x4,800025c0	 x22:0x00000001  x4:0x00000000
       49775000	      4976	80002574	004ad6b3	srl	x13,x21,x4	 x21:0x00000000  x4:0x00000000 x13=0x00000000
       49785000	      4977	80002578	01be6cb3	or	x25,x28,x27	 x28:0x00000001 x27:0x411ac24a x25=0x411ac24b
       49795000	      4978	8000257c	044d6263	bltu	x26,x4,800025c0	 x26:0x4d611000  x4:0x00000000
       49805000	      4979	80002580	0249e263	bltu	x19,x4,800025a4	 x19:0x80002480  x4:0x00000000
       49815000	      4980	80002584	01d4d433	srl	x8,x9,x29	  x9:0xfffffb79 x29:0x8000222e  x8=0x0003ffff
       49825000	      4981	80002588	033e8063	beq	x29,x19,800025a8	 x29:0x8000222e x19:0x80002480
       49835000	      4982	8000258c	00357733	and	x14,x10,x3	 x10:0xc11ae478  x3:0x80002478 x14=0x80002478
       49845000	      4983	80002590	bcb5dd37	lui	x26,0xbcb5d	 x26=0xbcb5d000
       49855000	      4984	80002594	01b39e13	slli	x28,x7,0x1b	  x7:0x80009fc4 x28=0x20000000
       49865000	      4985	80002598	02bd1c63	bne	x26,x11,800025d0	 x26:0xbcb5d000 x11:0x80009f84
       49875000	      4986	00000000	00000013	addi	x0,x0,0	  x0:0x00000000
       49885000	      4987	800025cc	00000013	addi	x0,x0,0	  x0:0x00000000
       49895000	      4988	800025d0	006f5f93	srli	x31,x30,0x6	 x30:0xba638510 x31=0x02e98e14
       49905000	      4989	800025d4	035c4e63	blt	x24,x21,80002610	 x24:0x411ac000 x21:0x00000000
       49915000	      4990	800025d8	41a8d933	sra	x18,x17,x26	 x17:0x80002470 x26:0xbcb5d000 x18=0x80002470
       49925000	      4991	800025dc	006c4f33	xor	x30,x24,x6	 x24:0x411ac000  x6:0x80002474 x30=0xc11ae474
       49935000	      4992	800025e0	e157fd37	lui	x26,0xe157f	 x26=0xe157f000
       49945000	      4993	800025e4	013abcb3	sltu	x25,x21,x19	 x21:0x00000000 x19:0x80002480 x25=0x00000001
       49955000	      4994	800025e8	03bdc463	blt	x27,x27,80002610	 x27:0x411ac24a x27:0x411ac24a
       49965000	      4995	800025ec	b8947293	andi	x5,x8,-1143	  x8:0x0003ffff  x5=0x0003fb89
       49975000	      4996	800025f0	0031f333	and	x6,x3,x3	  x3:0x80002478  x3:0x80002478  x6=0x80002478
       49985000	      4997	800025f4	010de333	or	x6,x27,x16	 x27:0x411ac24a x16:0x0d9b0d2b  x6=0x4d9bcf6b
       49995000	      4998	800025f8	01f6aeb3	slt	x29,x13,x31	 x13:0x00000000 x31:0x02e98e14 x29=0x00000001
       50005000	      4999	800025fc	01bfc633	xor	x12,x31,x27	 x31:0x02e98e14 x27:0x411ac24a x12=0x43f34c5e
       50015000	      5000	80002600	002f0fb3	add	x31,x30,x2	 x30:0xc11ae474  x2:0xffff5a50 x31=0xc11a3ec4
       50025000	      5001	80002604	41ee0433	sub	x8,x28,x30	 x28:0x20000000 x30:0xc11ae474  x8=0x5ee51b8c
       50035000	      5002	80002608	018e9f33	sll	x30,x29,x24	 x29:0x00000001 x24:0x411ac000 x30=0x00000001
       50045000	      5003	8000260c	4150d213	srai	x4,x1,0x15	  x1:0x8000248c  x4=0xfffffc00
       50055000	      5004	80002610	0186d193	srli	x3,x13,0x18	 x13:0x00000000  x3=0x00000000
       50065000	      5005	80002614	50b8ec13	ori	x24,x17,1291	 x17:0x80002470 x24=0x8000257b
       50075000	      5006	80002618	012efe33	and	x28,x29,x18	 x29:0x00000001 x18:0x80002470 x28=0x00000000
       50085000	      5007	8000261c	00bcc933	xor	x18,x25,x11	 x25:0x00000001 x11:0x80009f84 x18=0x80009f85
       50095000	      5008	80002620	003f7f33	and	x30,x30,x3	 x30:0x00000001  x3:0x00000000 x30=0x00000000
       50105000	      5009	80002624	01b39d13	slli	x26,x7,0x1b	  x7:0x80009fc4 x26=0x20000000
       50115000	      5010	80002628	fabb2c93	slti	x25,x22,-85	 x22:0x00000001 x25=0x00000000
       50125000	      5011	8000262c	016a9293	slli	x5,x21,0x16	 x21:0x00000000  x5=0x00000000
       50135000	      5012	80002630	00ae0233	add	x4,x28,x10	 x28:0x00000000 x10:0xc11ae478  x4=0xc11ae478
       50145000	      5013	80002634	0277ca63	blt	x15,x7,80002668	 x15:0x00000001  x7:0x80009fc4
       50155000	      5014	80002638	01fd6863	bltu	x26,x31,80002648	 x26:0x20000000 x31:0xc11a3ec4
       50165000	      5015	00000000	00000013	addi	x0,x0,0	  x0:0x00000000
       50175000	      5016	80002644	00000013	addi	x0,x0,0	  x0:0x00000000
       50185000	      5017	80002648	e011ba93	sltiu	x21,x3,-511	  x3:0x00000000 x21=0x00000001
       50195000	      5018	8000264c	03dc0c63	beq	x24,x29,80002684	 x24:0x8000257b x29:0x00000001
       50205000	      5019	80002650	0132f133	and	x2,x5,x19	  x5:0x00000000 x19:0x80002480  x2=0x00000000
       50215000	      5020	80002654	01680333	add	x6,x16,x22	 x16:0x0d9b0d2b x22:0x00000001  x6=0x0d9b0d2c
       50225000	      5021	80002658	80da3f93	sltiu	x31,x20,-2035	 x20:0x00000000 x31=0x00000001
       50235000	      5022	8000265c	41f6deb3	sra	x29,x13,x31	 x13:0x00000000 x31:0x00000001 x29=0x00000000
       50245000	      5023	80002660	00b79e33	sll	x28,x15,x11	 x15:0x00000001 x11:0x80009f84 x28=0x00000010
       50255000	      5024	80002664	00000013	addi	x0,x0,0	  x0:0x00000000
       50265000	      5025	80002668	6e0a1937	lui	x18,0x6e0a1	 x18=0x6e0a1000
       50275000	      5026	8000266c	01c26663	bltu	x4,x28,80002678	  x4:0xc11ae478 x28:0x00000010
       50285000	      5027	80002670	59b18613	addi	x12,x3,1435	  x3:0x00000000 x12=0x0000059b
       50295000	      5028	80002674	bbb98b93	addi	x23,x19,-1093	 x19:0x80002480 x23=0x8000203b
       50305000	      5029	80002678	00f7d613	srli	x12,x15,0xf	 x15:0x00000001 x12=0x00000000
       50315000	      5030	8000267c	01b70433	add	x8,x14,x27	 x14:0x80002478 x27:0x411ac24a  x8=0xc11ae6c2
       50325000	      5031	80002680	f1e40337	lui	x6,0xf1e40	  x6=0xf1e40000
       50335000	      5032	80002684	0157e0b3	or	x1,x15,x21	 x15:0x00000001 x21:0x00000001  x1=0x00000001
       50345000	      5033	80002688	00ade863	bltu	x27,x10,80002698	 x27:0x411ac24a x10:0xc11ae478
       50355000	      5034	00000000	00000013	addi	x0,x0,0	  x0:0x00000000
       50365000	      5035	80002694	00000013	addi	x0,x0,0	  x0:0x00000000
       50375000	      5036	80002698	05355263	bge	x10,x19,800026dc	 x10:0xc11ae478 x19:0x80002480
       50385000	      5037	00000000	00000013	addi	x0,x0,0	  x0:0x00000000
       50395000	      5038	800026d8	00000013	addi	x0,x0,0	  x0:0x00000000
       50405000	      5039	800026dc	01ad8233	add	x4,x27,x26	 x27:0x411ac24a x26:0x20000000  x4=0x611ac24a
       50415000	      5040	800026e0	0280036f	jal	x6,800026e0	  x6=0x800026e0
       50425000	      5041	00000000	00000013	addi	x0,x0,0	  x0:0x00000000
       50435000	      5042	80002704	00000013	addi	x0,x0,0	  x0:0x00000000
       50445000	      5043	80002708	ffdff36f	jal	x6,80002708	  x6=0x80002708
       50455000	      5044	00000000	00000013	addi	x0,x0,0	  x0:0x00000000
       50465000	      5045	80002700	00000013	addi	x0,x0,0	  x0:0x00000000
       50475000	      5046	80002704	fe5ff0ef	jal	x1,80002704	  x1=0x80002704
       50485000	      5047	00000000	00000013	addi	x0,x0,0	  x0:0x00000000
       50495000	      5048	800026e4	00000013	addi	x0,x0,0	  x0:0x00000000
       50505000	      5049	800026e8	00c007ef	jal	x15,800026e8	 x15=0x800026e8
       50515000	      5050	00000000	00000013	addi	x0,x0,0	  x0:0x00000000
       50525000	      5051	800026f0	00000013	addi	x0,x0,0	  x0:0x00000000
       50535000	      5052	800026f4	008008ef	jal	x17,800026f4	 x17=0x800026f4
       50545000	      5053	00000000	00000013	addi	x0,x0,0	  x0:0x00000000
       50555000	      5054	800026f8	00000013	addi	x0,x0,0	  x0:0x00000000
       50565000	      5055	800026fc	ff5ff0ef	jal	x1,800026fc	  x1=0x800026fc
       50575000	      5056	00000000	00000013	addi	x0,x0,0	  x0:0x00000000
       50585000	      5057	800026ec	00000013	addi	x0,x0,0	  x0:0x00000000
       50595000	      5058	800026f0	0080036f	jal	x6,800026f0	  x6=0x800026f0
       50605000	      5059	00000000	00000013	addi	x0,x0,0	  x0:0x00000000
       50615000	      5060	800026f4	00000013	addi	x0,x0,0	  x0:0x00000000
       50625000	      5061	800026f8	008000ef	jal	x1,800026f8	  x1=0x800026f8
       50635000	      5062	00000000	00000013	addi	x0,x0,0	  x0:0x00000000
       50645000	      5063	800026fc	00000013	addi	x0,x0,0	  x0:0x00000000
       50655000	      5064	80002700	fedff36f	jal	x6,80002700	  x6=0x80002700
       50665000	      5065	00000000	00000013	addi	x0,x0,0	  x0:0x00000000
       50675000	      5066	800026e8	00000013	addi	x0,x0,0	  x0:0x00000000
       50685000	      5067	800026ec	ff9ff0ef	jal	x1,800026ec	  x1=0x800026ec
       50695000	      5068	00000000	00000013	addi	x0,x0,0	  x0:0x00000000
       50705000	      5069	800026e0	00000013	addi	x0,x0,0	  x0:0x00000000
       50715000	      5070	800026e4	028000ef	jal	x1,800026e4	  x1=0x800026e4
       50725000	      5071	00000000	00000013	addi	x0,x0,0	  x0:0x00000000
       50735000	      5072	80002708	00000013	addi	x0,x0,0	  x0:0x00000000
       50745000	      5073	8000270c	9e58fe93	andi	x29,x17,-1563	 x17:0x800026f4 x29=0x800020e4
       50755000	      5074	80002710	7d602113	slti	x2,x0,2006	  x0:0x00000000  x2=0x00000001
       50765000	      5075	80002714	c71fe193	ori	x3,x31,-911	 x31:0x00000001  x3=0xfffffc71
       50775000	      5076	80002718	4046d7b3	sra	x15,x13,x4	 x13:0x00000000  x4:0x611ac24a x15=0x00000000
       50785000	      5077	8000271c	01b51413	slli	x8,x10,0x1b	 x10:0xc11ae478  x8=0xc0000000
       50795000	      5078	80002720	da77ee93	ori	x29,x15,-601	 x15:0x00000000 x29=0xfffffda7
       50805000	      5079	80002724	01771193	slli	x3,x14,0x17	 x14:0x80002478  x3=0x3c000000
       50815000	      5080	80002728	004c5c33	srl	x24,x24,x4	 x24:0x8000257b  x4:0x611ac24a x24=0x00200009
       50825000	      5081	8000272c	0108e333	or	x6,x17,x16	 x17:0x800026f4 x16:0x0d9b0d2b  x6=0x8d9b2fff
       50835000	      5082	80002730	05ed1863	bne	x26,x30,80002780	 x26:0x20000000 x30:0x00000000
       50845000	      5083	00000000	00000013	addi	x0,x0,0	  x0:0x00000000
       50855000	      5084	8000277c	00000013	addi	x0,x0,0	  x0:0x00000000
       50865000	      5085	80002780	00000013	addi	x0,x0,0	  x0:0x00000000
       50875000	      5086	80002784	0175fcb3	and	x25,x11,x23	 x11:0x80009f84 x23:0x8000203b x25=0x80000000
       50885000	      5087	80002788	01f8d113	srli	x2,x17,0x1f	 x17:0x800026f4  x2=0x00000001
       50895000	      5088	8000278c	d13b7a13	andi	x20,x22,-749	 x22:0x00000001 x20=0x00000001
       50905000	      5089	80002790	015e4863	blt	x28,x21,800027a0	 x28:0x00000010 x21:0x00000001
       50915000	      5090	80002794	017760b3	or	x1,x14,x23	 x14:0x80002478 x23:0x8000203b  x1=0x8000247b
       50925000	      5091	80002798	0078e633	or	x12,x17,x7	 x17:0x800026f4  x7:0x80009fc4 x12=0x8000bff4
       50935000	      5092	8000279c	003a6d33	or	x26,x20,x3	 x20:0x00000001  x3:0x3c000000 x26=0x3c000001
       50945000	      5093	800027a0	01845493	srli	x9,x8,0x18	  x8:0xc0000000  x9=0x000000c0
       50955000	      5094	800027a4	01e4c533	xor	x10,x9,x30	  x9:0x000000c0 x30:0x00000000 x10=0x000000c0
       50965000	      5095	800027a8	01ffc463	blt	x31,x31,800027b0	 x31:0x00000001 x31:0x00000001
       50975000	      5096	800027ac	00d3dc63	bge	x7,x13,800027c4	  x7:0x80009fc4 x13:0x00000000
       50985000	      5097	800027b0	050a5263	bge	x20,x16,800027f4	 x20:0x00000001 x16:0x0d9b0d2b
       50995000	      5098	800027b4	00ce8933	add	x18,x29,x12	 x29:0xfffffda7 x12:0x8000bff4 x18=0x8000bd9b
       51005000	      5099	800027b8	00f58333	add	x6,x11,x15	 x11:0x80009f84 x15:0x00000000  x6=0x80009f84
       51015000	      5100	800027bc	41a25b33	sra	x22,x4,x26	  x4:0x611ac24a x26:0x3c000001 x22=0x308d6125
       51025000	      5101	800027c0	01ccedb3	or	x27,x25,x28	 x25:0x80000000 x28:0x00000010 x27=0x80000010
       51035000	      5102	800027c4	022b9463	bne	x23,x2,800027ec	 x23:0x8000203b  x2:0x00000001
       51045000	      5103	00000000	00000013	addi	x0,x0,0	  x0:0x00000000
       51055000	      5104	800027e8	00000013	addi	x0,x0,0	  x0:0x00000000
       51065000	      5105	800027ec	015512b3	sll	x5,x10,x21	 x10:0x000000c0 x21:0x00000001  x5=0x00000180
       51075000	      5106	800027f0	70f6a037	lui	x0,0x70f6a	
       51085000	      5107	800027f4	03c67263	bgeu	x12,x28,80002818	 x12:0x8000bff4 x28:0x00000010
       51095000	      5108	00000000	00000013	addi	x0,x0,0	  x0:0x00000000
       51105000	      5109	80002814	00000013	addi	x0,x0,0	  x0:0x00000000
       51115000	      5110	80002818	4061d033	sra	x0,x3,x6	  x3:0x3c000000  x6:0x80009f84
       51125000	      5111	8000281c	007621b3	slt	x3,x12,x7	 x12:0x8000bff4  x7:0x80009fc4  x3=0x00000000
       51135000	      5112	80002820	0075deb3	srl	x29,x11,x7	 x11:0x80009f84  x7:0x80009fc4 x29=0x080009f8
       51145000	      5113	80002824	01df0a63	beq	x30,x29,80002838	 x30:0x00000000 x29:0x080009f8
       51155000	      5114	80002828	afa20017	auipc	x0,0xafa20	
       51165000	      5115	8000282c	41d98933	sub	x18,x19,x29	 x19:0x80002480 x29:0x080009f8 x18=0x78001a88
       51175000	      5116	80002830	00000013	addi	x0,x0,0	  x0:0x00000000
       51185000	      5117	80002834	000619b3	sll	x19,x12,x0	 x12:0x8000bff4  x0:0x00000000 x19=0x8000bff4
       51195000	      5118	80002838	52e72413	slti	x8,x14,1326	 x14:0x80002478  x8=0x00000001
       51205000	      5119	8000283c	40ef87b3	sub	x15,x31,x14	 x31:0x00000001 x14:0x80002478 x15=0x7fffdb89
       51215000	      5120	80002840	e5d94293	xori	x5,x18,-419	 x18:0x78001a88  x5=0x87ffe4d5
       51225000	      5121	80002844	ac842d13	slti	x26,x8,-1336	  x8:0x00000001 x26=0x00000000
       51235000	      5122	80002848	00feda13	srli	x20,x29,0xf	 x29:0x080009f8 x20=0x00001000
       51245000	      5123	8000284c	04940263	beq	x8,x9,80002890	  x8:0x00000001  x9:0x000000c0
       51255000	      5124	80002850	cc53c513	xori	x10,x7,-827	  x7:0x80009fc4 x10=0x7fff6301
       51265000	      5125	80002854	02f96c63	bltu	x18,x15,8000288c	 x18:0x78001a88 x15:0x7fffdb89
       51275000	      5126	00000000	00000013	addi	x0,x0,0	  x0:0x00000000
       51285000	      5127	80002888	00000013	addi	x0,x0,0	  x0:0x00000000
       51295000	      5128	8000288c	ead5f693	andi	x13,x11,-339	 x11:0x80009f84 x13=0x80009e84
       51305000	      5129	80002890	00fa1ab3	sll	x21,x20,x15	 x20:0x00001000 x15:0x7fffdb89 x21=0x00200000
       51315000	      5130	80002894	006e34b3	sltu	x9,x28,x6	 x28:0x00000010  x6:0x80009f84  x9=0x00000001
       51325000	      5131	80002898	019bd093	srli	x1,x23,0x19	 x23:0x8000203b  x1=0x00000040
       51335000	      5132	8000289c	014a9863	bne	x21,x20,800028ac	 x21:0x00200000 x20:0x00001000
       51345000	      5133	00000000	00000013	addi	x0,x0,0	  x0:0x00000000
       51355000	      5134	800028a8	00000013	addi	x0,x0,0	  x0:0x00000000
       51365000	      5135	800028ac	01a0b333	sltu	x6,x1,x26	  x1:0x00000040 x26:0x00000000  x6=0x00000000
       51375000	      5136	800028b0	dbd2ff13	andi	x30,x5,-579	  x5:0x87ffe4d5 x30=0x87ffe495
       51385000	      5137	800028b4	00383893	sltiu	x17,x16,3	 x16:0x0d9b0d2b x17=0x00000000
       51395000	      5138	800028b8	605b2293	slti	x5,x22,1541	 x22:0x308d6125  x5=0x00000000
       51405000	      5139	800028bc	00c45e63	bge	x8,x12,800028d8	  x8:0x00000001 x12:0x8000bff4
       51415000	      5140	00000000	00000013	addi	x0,x0,0	  x0:0x00000000
       51425000	      5141	800028d4	00000013	addi	x0,x0,0	  x0:0x00000000
       51435000	      5142	800028d8	00539c33	sll	x24,x7,x5	  x7:0x80009fc4  x5:0x00000000 x24=0x80009fc4
       51445000	      5143	800028dc	00269e63	bne	x13,x2,800028f8	 x13:0x80009e84  x2:0x00000001
       51455000	      5144	00000000	00000013	addi	x0,x0,0	  x0:0x00000000
       51465000	      5145	800028f4	00000013	addi	x0,x0,0	  x0:0x00000000
       51475000	      5146	800028f8	00389933	sll	x18,x17,x3	 x17:0x00000000  x3:0x00000000 x18=0x00000000
       51485000	      5147	800028fc	00000013	addi	x0,x0,0	  x0:0x00000000
       51495000	      5148	80002900	00c87633	and	x12,x16,x12	 x16:0x0d9b0d2b x12:0x8000bff4 x12=0x00000d20
       51505000	      5149	80002904	0156d933	srl	x18,x13,x21	 x13:0x80009e84 x21:0x00200000 x18=0x80009e84
       51515000	      5150	80002908	032f4e63	blt	x30,x18,80002944	 x30:0x87ffe495 x18:0x80009e84
       51525000	      5151	8000290c	0446e863	bltu	x13,x4,8000295c	 x13:0x80009e84  x4:0x611ac24a
       51535000	      5152	80002910	41a15213	srai	x4,x2,0x1a	  x2:0x00000001  x4=0x00000000
       51545000	      5153	80002914	00a4a0b3	slt	x1,x9,x10	  x9:0x00000001 x10:0x7fff6301  x1=0x00000001
       51555000	      5154	80002918	014852b3	srl	x5,x16,x20	 x16:0x0d9b0d2b x20:0x00001000  x5=0x0d9b0d2b
       51565000	      5155	8000291c	24118e97	auipc	x29,0x24118	 x29=0xa411a918
       51575000	      5156	80002920	02c3ea63	bltu	x7,x12,80002954	  x7:0x80009fc4 x12:0x00000d20
       51585000	      5157	80002924	05487263	bgeu	x16,x20,80002968	 x16:0x0d9b0d2b x20:0x00001000
       51595000	      5158	00000000	00000013	addi	x0,x0,0	  x0:0x00000000
       51605000	      5159	80002964	00000013	addi	x0,x0,0	  x0:0x00000000
       51615000	      5160	80002968	000b5a13	srli	x20,x22,0x0	 x22:0x308d6125 x20=0x308d6125
       51625000	      5161	8000296c	0367cc63	blt	x15,x22,800029a4	 x15:0x7fffdb89 x22:0x308d6125
       51635000	      5162	80002970	0580c463	blt	x1,x24,800029b8	  x1:0x00000001 x24:0x80009fc4
       51645000	      5163	80002974	0220f263	bgeu	x1,x2,80002998	  x1:0x00000001  x2:0x00000001
       51655000	      5164	00000000	00000013	addi	x0,x0,0	  x0:0x00000000
       51665000	      5165	80002994	00000013	addi	x0,x0,0	  x0:0x00000000
       51675000	      5166	80002998	008d87b3	add	x15,x27,x8	 x27:0x80000010  x8:0x00000001 x15=0x80000011
       51685000	      5167	8000299c	01c33db3	sltu	x27,x6,x28	  x6:0x00000000 x28:0x00000010 x27=0x00000001
       51695000	      5168	800029a0	009d3d33	sltu	x26,x26,x9	 x26:0x00000000  x9:0x00000001 x26=0x00000001
       51705000	      5169	800029a4	01f6e8b3	or	x17,x13,x31	 x13:0x80009e84 x31:0x00000001 x17=0x80009e85
       51715000	      5170	800029a8	5a477e17	auipc	x28,0x5a477	 x28=0xda4799a4
       51725000	      5171	800029ac	00d5d913	srli	x18,x11,0xd	 x11:0x80009f84 x18=0x00040004
       51735000	      5172	800029b0	05c9f063	bgeu	x19,x28,800029f0	 x19:0x8000bff4 x28:0xda4799a4
       51745000	      5173	800029b4	035d9e63	bne	x27,x21,800029f0	 x27:0x00000001 x21:0x00200000
       51755000	      5174	00000000	00000013	addi	x0,x0,0	  x0:0x00000000
       51765000	      5175	800029ec	00000013	addi	x0,x0,0	  x0:0x00000000
       51775000	      5176	800029f0	00c19013	slli	x0,x3,0xc	  x3:0x00000000
       51785000	      5177	800029f4	8836b993	sltiu	x19,x13,-1917	 x13:0x80009e84 x19=0x00000001
       51795000	      5178	800029f8	00ab5e63	bge	x22,x10,80002a14	 x22:0x308d6125 x10:0x7fff6301
       51805000	      5179	800029fc	c27b6a97	auipc	x21,0xc27b6	 x21=0x427b89f8
       51815000	      5180	80002a00	419a8433	sub	x8,x21,x25	 x21:0x427b89f8 x25:0x80000000  x8=0xc27b89f8
       51825000	      5181	80002a04	3a601317	auipc	x6,0x3a601	  x6=0xba603a00
       51835000	      5182	80002a08	00da3f33	sltu	x30,x20,x13	 x20:0x308d6125 x13:0x80009e84 x30=0x00000001
       51845000	      5183	80002a0c	89752a93	slti	x21,x10,-1897	 x10:0x7fff6301 x21=0x00000000
       51855000	      5184	80002a10	fa2e1017	auipc	x0,0xfa2e1	
       51865000	      5185	80002a14	001418b3	sll	x17,x8,x1	  x8:0xc27b89f8  x1:0x00000001 x17=0x84f713f0
       51875000	      5186	80002a18	01629c13	slli	x24,x5,0x16	  x5:0x0d9b0d2b x24=0x4ac00000
       51885000	      5187	80002a1c	40acdeb3	sra	x29,x25,x10	 x25:0x80000000 x10:0x7fff6301 x29=0xc0000000
       51895000	      5188	80002a20	28403513	sltiu	x10,x0,644	  x0:0x00000000 x10=0x00000001
       51905000	      5189	80002a24	010a4863	blt	x20,x16,80002a34	 x20:0x308d6125 x16:0x0d9b0d2b
       51915000	      5190	80002a28	00a8ba33	sltu	x20,x17,x10	 x17:0x84f713f0 x10:0x00000001 x20=0x00000000
       51925000	      5191	80002a2c	41110b33	sub	x22,x2,x17	  x2:0x00000001 x17:0x84f713f0 x22=0x7b08ec11
       51935000	      5192	80002a30	4152d6b3	sra	x13,x5,x21	  x5:0x0d9b0d2b x21:0x00000000 x13=0x0d9b0d2b
       51945000	      5193	80002a34	412c0033	sub	x0,x24,x18	 x24:0x4ac00000 x18:0x00040004
       51955000	      5194	80002a38	652862b7	lui	x5,0x65286	  x5=0x65286000
       51965000	      5195	80002a3c	009a7eb3	and	x29,x20,x9	 x20:0x00000000  x9:0x00000001 x29=0x00000000
       51975000	      5196	80002a40	006b9a63	bne	x23,x6,80002a54	 x23:0x8000203b  x6:0xba603a00
       51985000	      5197	00000000	00000013	addi	x0,x0,0	  x0:0x00000000
       51995000	      5198	80002a50	00000013	addi	x0,x0,0	  x0:0x00000000
       52005000	      5199	80002a54	00f88c63	beq	x17,x15,80002a6c	 x17:0x84f713f0 x15:0x80000011
       52015000	      5200	80002a58	0008a6b3	slt	x13,x17,x0	 x17:0x84f713f0  x0:0x00000000 x13=0x00000001
       52025000	      5201	80002a5c	bfeaee13	ori	x28,x21,-1026	 x21:0x00000000 x28=0xfffffbfe
       52035000	      5202	80002a60	a8e87193	andi	x3,x16,-1394	 x16:0x0d9b0d2b  x3=0x0d9b080a
       52045000	      5203	80002a64	96ed7a13	andi	x20,x26,-1682	 x26:0x00000001 x20=0x00000000
       52055000	      5204	80002a68	50fcc293	xori	x5,x25,1295	 x25:0x80000000  x5=0x8000050f
       52065000	      5205	80002a6c	41a807b3	sub	x15,x16,x26	 x16:0x0d9b0d2b x26:0x00000001 x15=0x0d9b0d2a
       52075000	      5206	80002a70	0159e033	or	x0,x19,x21	 x19:0x00000001 x21:0x00000000
       52085000	      5207	80002a74	00000013	addi	x0,x0,0	  x0:0x00000000
       52095000	      5208	80002a78	f11a7713	andi	x14,x20,-239	 x20:0x00000000 x14=0x00000000
       52105000	      5209	80002a7c	f1dd4d93	xori	x27,x26,-227	 x26:0x00000001 x27=0xffffff1c
       52115000	      5210	80002a80	f8b3f737	lui	x14,0xf8b3f	 x14=0xf8b3f000
       52125000	      5211	80002a84	ac48c013	xori	x0,x17,-1340	 x17:0x84f713f0
       52135000	      5212	80002a88	01c2e7b3	or	x15,x5,x28	  x5:0x8000050f x28:0xfffffbfe x15=0xffffffff
       52145000	      5213	80002a8c	005bf9b3	and	x19,x23,x5	 x23:0x8000203b  x5:0x8000050f x19=0x8000000b
       52155000	      5214	80002a90	004d2cb3	slt	x25,x26,x4	 x26:0x00000001  x4:0x00000000 x25=0x00000000
       52165000	      5215	80002a94	4c91ce93	xori	x29,x3,1225	  x3:0x0d9b080a x29=0x0d9b0cc3
       52175000	      5216	80002a98	00000013	addi	x0,x0,0	  x0:0x00000000
       52185000	      5217	80002a9c	44625497	auipc	x9,0x44625	  x9=0xc4627a98
       52195000	      5218	80002aa0	568c2b93	slti	x23,x24,1384	 x24:0x4ac00000 x23=0x00000000
       52205000	      5219	80002aa4	043c0263	beq	x24,x3,80002ae8	 x24:0x4ac00000  x3:0x0d9b080a
       52215000	      5220	80002aa8	00466733	or	x14,x12,x4	 x12:0x00000d20  x4:0x00000000 x14=0x00000d20
       52225000	      5221	80002aac	68ea6417	auipc	x8,0x68ea6	  x8=0xe8ea8aa8
       52235000	      5222	80002ab0	1482bc93	sltiu	x25,x5,328	  x5:0x8000050f x25=0x00000000
       52245000	      5223	80002ab4	0098d233	srl	x4,x17,x9	 x17:0x84f713f0  x9:0xc4627a98  x4=0x00000084
       52255000	      5224	80002ab8	045e7263	bgeu	x28,x5,80002afc	 x28:0xfffffbfe  x5:0x8000050f
       52265000	      5225	00000000	00000013	addi	x0,x0,0	  x0:0x00000000
       52275000	      5226	80002af8	00000013	addi	x0,x0,0	  x0:0x00000000
       52285000	      5227	80002afc	00c85d13	srli	x26,x16,0xc	 x16:0x0d9b0d2b x26=0x0000d9b0
       52295000	      5228	80002b00	40cedc93	srai	x25,x29,0xc	 x29:0x0d9b0cc3 x25=0x0000d9b0
       52305000	      5229	80002b04	416a84b3	sub	x9,x21,x22	 x21:0x00000000 x22:0x7b08ec11  x9=0x84f713ef
       52315000	      5230	80002b08	01148c63	beq	x9,x17,80002b20	  x9:0x84f713ef x17:0x84f713f0
       52325000	      5231	80002b0c	0296fc63	bgeu	x13,x9,80002b44	 x13:0x00000001  x9:0x84f713ef
       52335000	      5232	80002b10	02b74c63	blt	x14,x11,80002b48	 x14:0x00000d20 x11:0x80009f84
       52345000	      5233	80002b14	00671693	slli	x13,x14,0x6	 x14:0x00000d20 x13=0x00034800
       52355000	      5234	80002b18	34748713	addi	x14,x9,839	  x9:0x84f713ef x14=0x84f71736
       52365000	      5235	80002b1c	07ed0b93	addi	x23,x26,126	 x26:0x0000d9b0 x23=0x0000da2e
       52375000	      5236	80002b20	036f9463	bne	x31,x22,80002b48	 x31:0x00000001 x22:0x7b08ec11
       52385000	      5237	00000000	00000013	addi	x0,x0,0	  x0:0x00000000
       52395000	      5238	80002b44	00000013	addi	x0,x0,0	  x0:0x00000000
       52405000	      5239	80002b48	018f81b3	add	x3,x31,x24	 x31:0x00000001 x24:0x4ac00000  x3=0x4ac00001
       52415000	      5240	80002b4c	01ccc4b3	xor	x9,x25,x28	 x25:0x0000d9b0 x28:0xfffffbfe  x9=0xffff224e
       52425000	      5241	80002b50	05b60263	beq	x12,x27,80002b94	 x12:0x00000d20 x27:0xffffff1c
       52435000	      5242	80002b54	d399a137	lui	x2,0xd399a	  x2=0xd399a000
       52445000	      5243	80002b58	0f91f237	lui	x4,0xf91f	  x4=0x0f91f000
       52455000	      5244	80002b5c	01ded863	bge	x29,x29,80002b6c	 x29:0x0d9b0cc3 x29:0x0d9b0cc3
       52465000	      5245	00000000	00000013	addi	x0,x0,0	  x0:0x00000000
       52475000	      5246	80002b68	00000013	addi	x0,x0,0	  x0:0x00000000
       52485000	      5247	80002b6c	a3f62f93	slti	x31,x12,-1473	 x12:0x00000d20 x31=0x00000000
       52495000	      5248	80002b70	5f3ddf37	lui	x30,0x5f3dd	 x30=0x5f3dd000
       52505000	      5249	80002b74	004e5c63	bge	x28,x4,80002b8c	 x28:0xfffffbfe  x4:0x0f91f000
       52515000	      5250	80002b78	00425d13	srli	x26,x4,0x4	  x4:0x0f91f000 x26=0x00f91f00
       52525000	      5251	80002b7c	720a9cb7	lui	x25,0x720a9	 x25=0x720a9000
       52535000	      5252	80002b80	01fad633	srl	x12,x21,x31	 x21:0x00000000 x31:0x00000000 x12=0x00000000
       52545000	      5253	80002b84	4a887d13	andi	x26,x16,1192	 x16:0x0d9b0d2b x26=0x00000428
       52555000	      5254	80002b88	00959013	slli	x0,x11,0x9	 x11:0x80009f84
       52565000	      5255	80002b8c	00813133	sltu	x2,x2,x8	  x2:0xd399a000  x8:0xe8ea8aa8  x2=0x00000001
       52575000	      5256	80002b90	3e954f93	xori	x31,x10,1001	 x10:0x00000001 x31=0x000003e8
       52585000	      5257	80002b94	5b8e8b93	addi	x23,x29,1464	 x29:0x0d9b0cc3 x23=0x0d9b127b
       52595000	      5258	80002b98	401a8033	sub	x0,x21,x1	 x21:0x00000000  x1:0x00000001
       52605000	      5259	80002b9c	017b9d33	sll	x26,x23,x23	 x23:0x0d9b127b x23:0x0d9b127b x26=0xd8000000
       52615000	      5260	80002ba0	0051fe63	bgeu	x3,x5,80002bbc	  x3:0x4ac00001  x5:0x8000050f
       52625000	      5261	80002ba4	40b70b33	sub	x22,x14,x11	 x14:0x84f71736 x11:0x80009f84 x22=0x04f677b2
       52635000	      5262	80002ba8	01115863	bge	x2,x17,80002bb8	  x2:0x00000001 x17:0x84f713f0
       52645000	      5263	00000000	00000013	addi	x0,x0,0	  x0:0x00000000
       52655000	      5264	80002bb4	00000013	addi	x0,x0,0	  x0:0x00000000
       52665000	      5265	80002bb8	01dd1e33	sll	x28,x26,x29	 x26:0xd8000000 x29:0x0d9b0cc3 x28=0xc0000000
       52675000	      5266	80002bbc	010ed033	srl	x0,x29,x16	 x29:0x0d9b0cc3 x16:0x0d9b0d2b
       52685000	      5267	80002bc0	00ff0463	beq	x30,x15,80002bc8	 x30:0x5f3dd000 x15:0xffffffff
       52695000	      5268	80002bc4	0017c263	blt	x15,x1,80002bc8	 x15:0xffffffff  x1:0x00000001
       52705000	      5269	00000000	00000013	addi	x0,x0,0	  x0:0x00000000
       52715000	      5270	80002bc4	00000013	addi	x0,x0,0	  x0:0x00000000
       52725000	      5271	80002bc8	74cbb793	sltiu	x15,x23,1868	 x23:0x0d9b127b x15=0x00000000
       52735000	      5272	80002bcc	00000817	auipc	x16,0x0	 x16=0x80002bc8
       52745000	      5273	80002bd0	00c80813	addi	x16,x16,12	 x16:0x80002bc8 x16=0x80002bd4
       52755000	      5274	80002bd4	00080067	jalr	x0,x16,0	 x16:0x80002bd4
       52765000	      5275	00000000	00000013	addi	x0,x0,0	  x0:0x00000000
       52775000	      5276	80002bd4	00000013	addi	x0,x0,0	  x0:0x00000000
       52785000	      5277	80002bd8	00100193	addi	x3,x0,1	  x0:0x00000000  x3=0x00000001
       52795000	      5278	80002bdc	00000073	ecall	
       52805000	      5279	80002be0	01476733	or	x14,x14,x20	 x14:0x84f71736 x20:0x00000000 x14=0x84f71736
