		Time			Cycle	PC		Insn	Decoded instruction	Register and memory contents
          65000	         5	80000004	00000293	addi	x5,x0,0	  x0:0x00000000  x5=0x00000000
          75000	         6	80000008	00000313	addi	x6,x0,0	  x0:0x00000000  x6=0x00000000
          85000	         7	8000000c	00628263	beq	x5,x6,80000010	  x5:0x00000000  x6:0x00000000
          95000	         8	00000000	00000013	addi	x0,x0,0	  x0:0x00000000
         105000	         9	8000000c	00000013	addi	x0,x0,0	  x0:0x00000000
         115000	        10	80000010	00000e97	auipc	x29,0x0	 x29=0x8000000c
         125000	        11	80000014	00ce8e93	addi	x29,x29,12	 x29:0x8000000c x29=0x80000018
         135000	        12	80000018	000e8067	jalr	x0,x29,0	 x29:0x80000018
         145000	        13	00000000	00000013	addi	x0,x0,0	  x0:0x00000000
         155000	        14	80000018	00000013	addi	x0,x0,0	  x0:0x00000000
         165000	        15	8000001c	400002b7	lui	x5,0x40000	  x5=0x40000000
         175000	        16	80000020	10028293	addi	x5,x5,256	  x5:0x40000000  x5=0x40000100
         185000	        17	80000024	00000013	addi	x0,x0,0	  x0:0x00000000
         195000	        18	80000028	0000a597	auipc	x11,0xa	 x11=0x8000a024
         205000	        19	8000002c	fa058593	addi	x11,x11,-96	 x11:0x8000a024 x11=0x80009fc4
         215000	        20	80000030	00005297	auipc	x5,0x5	  x5=0x8000502c
         225000	        21	80000034	fb428293	addi	x5,x5,-76	  x5:0x8000502c  x5=0x80004fe0
         235000	        22	80000038	0012e293	ori	x5,x5,1	  x5:0x80004fe0  x5=0x80004fe1
         245000	        23	8000003c	00000013	addi	x0,x0,0	  x0:0x00000000
         255000	        24	80000040	00000297	auipc	x5,0x0	  x5=0x8000003c
         265000	        25	80000044	02028293	addi	x5,x5,32	  x5:0x8000003c  x5=0x8000005c
         275000	        26	80000048	00000013	addi	x0,x0,0	  x0:0x00000000
         285000	        27	8000004c	00000013	addi	x0,x0,0	  x0:0x00000000
         295000	        28	80000050	000022b7	lui	x5,0x2	  x5=0x00002000
         305000	        29	80000054	80028293	addi	x5,x5,-2048	  x5:0x00002000  x5=0x00001800
         315000	        30	80000058	00000013	addi	x0,x0,0	  x0:0x00000000
         325000	        31	8000005c	00000013	addi	x0,x0,0	  x0:0x00000000
         335000	        32	80000060	80000037	lui	x0,0x80000	
         345000	        33	80000064	00000013	addi	x0,x0,0	  x0:0x00000000
         355000	        34	80000068	c11ef0b7	lui	x1,0xc11ef	  x1=0xc11ef000
         365000	        35	8000006c	7a208093	addi	x1,x1,1954	  x1:0xc11ef000  x1=0xc11ef7a2
         375000	        36	80000070	4b4fe137	lui	x2,0x4b4fe	  x2=0x4b4fe000
         385000	        37	80000074	37d10113	addi	x2,x2,893	  x2:0x4b4fe000  x2=0x4b4fe37d
         395000	        38	80000078	00000193	addi	x3,x0,0	  x0:0x00000000  x3=0x00000000
         405000	        39	8000007c	80000237	lui	x4,0x80000	  x4=0x80000000
         415000	        40	80000080	fc07e2b7	lui	x5,0xfc07e	  x5=0xfc07e000
         425000	        41	80000084	6cf28293	addi	x5,x5,1743	  x5:0xfc07e000  x5=0xfc07e6cf
         435000	        42	80000088	00000313	addi	x6,x0,0	  x0:0x00000000  x6=0x00000000
         445000	        43	8000008c	00e00393	addi	x7,x0,14	  x0:0x00000000  x7=0x0000000e
         455000	        44	80000090	388a2437	lui	x8,0x388a2	  x8=0x388a2000
         465000	        45	80000094	31240413	addi	x8,x8,786	  x8:0x388a2000  x8=0x388a2312
         475000	        46	80000098	00000493	addi	x9,x0,0	  x0:0x00000000  x9=0x00000000
         485000	        47	8000009c	00000513	addi	x10,x0,0	  x0:0x00000000 x10=0x00000000
         495000	        48	800000a0	80000637	lui	x12,0x80000	 x12=0x80000000
         505000	        49	800000a4	f3cc26b7	lui	x13,0xf3cc2	 x13=0xf3cc2000
         515000	        50	800000a8	9de68693	addi	x13,x13,-1570	 x13:0xf3cc2000 x13=0xf3cc19de
         525000	        51	800000ac	00000713	addi	x14,x0,0	  x0:0x00000000 x14=0x00000000
         535000	        52	800000b0	00500793	addi	x15,x0,5	  x0:0x00000000 x15=0x00000005
         545000	        53	800000b4	f6c2e837	lui	x16,0xf6c2e	 x16=0xf6c2e000
         555000	        54	800000b8	b4c80813	addi	x16,x16,-1204	 x16:0xf6c2e000 x16=0xf6c2db4c
         565000	        55	800000bc	0c9088b7	lui	x17,0xc908	 x17=0x0c908000
         575000	        56	800000c0	3e788893	addi	x17,x17,999	 x17:0x0c908000 x17=0x0c9083e7
         585000	        57	800000c4	fcb4d937	lui	x18,0xfcb4d	 x18=0xfcb4d000
         595000	        58	800000c8	59f90913	addi	x18,x18,1439	 x18:0xfcb4d000 x18=0xfcb4d59f
         605000	        59	800000cc	00000a13	addi	x20,x0,0	  x0:0x00000000 x20=0x00000000
         615000	        60	800000d0	00000a93	addi	x21,x0,0	  x0:0x00000000 x21=0x00000000
         625000	        61	800000d4	80000b37	lui	x22,0x80000	 x22=0x80000000
         635000	        62	800000d8	00400b93	addi	x23,x0,4	  x0:0x00000000 x23=0x00000004
         645000	        63	800000dc	80000c37	lui	x24,0x80000	 x24=0x80000000
         655000	        64	800000e0	00a00c93	addi	x25,x0,10	  x0:0x00000000 x25=0x0000000a
         665000	        65	800000e4	0a41ad37	lui	x26,0xa41a	 x26=0x0a41a000
         675000	        66	800000e8	527d0d13	addi	x26,x26,1319	 x26:0x0a41a000 x26=0x0a41a527
         685000	        67	800000ec	00b00d93	addi	x27,x0,11	  x0:0x00000000 x27=0x0000000b
         695000	        68	800000f0	baae0e37	lui	x28,0xbaae0	 x28=0xbaae0000
         705000	        69	800000f4	b02e0e13	addi	x28,x28,-1278	 x28:0xbaae0000 x28=0xbaadfb02
         715000	        70	800000f8	00000e93	addi	x29,x0,0	  x0:0x00000000 x29=0x00000000
         725000	        71	800000fc	3e2e2f37	lui	x30,0x3e2e2	 x30=0x3e2e2000
         735000	        72	80000100	49af0f13	addi	x30,x30,1178	 x30:0x3e2e2000 x30=0x3e2e249a
         745000	        73	80000104	ff434fb7	lui	x31,0xff434	 x31=0xff434000
         755000	        74	80000108	232f8f93	addi	x31,x31,562	 x31:0xff434000 x31=0xff434232
         765000	        75	8000010c	0000a997	auipc	x19,0xa	 x19=0x8000a108
         775000	        76	80000110	e7c98993	addi	x19,x19,-388	 x19:0x8000a108 x19=0x80009f84
         785000	        77	80000114	00001e17	auipc	x28,0x1	 x28=0x80001110
         795000	        78	80000118	aa8e0e13	addi	x28,x28,-1368	 x28:0x80001110 x28=0x80000bb8
         805000	        79	8000011c	01f457b3	srl	x15,x8,x31	  x8:0x388a2312 x31:0xff434232 x15=0x00000e22
         815000	        80	80000120	000a1833	sll	x16,x20,x0	 x20:0x00000000  x0:0x00000000 x16=0x00000000
         825000	        81	80000124	8b588a97	auipc	x21,0x8b588	 x21=0x0b588120
         835000	        82	80000128	a8f23fb7	lui	x31,0xa8f23	 x31=0xa8f23000
         845000	        83	8000012c	050e0e13	addi	x28,x28,80	 x28:0x80000bb8 x28=0x80000c08
         855000	        84	80000130	01515693	srli	x13,x2,0x15	  x2:0x4b4fe37d x13=0x0000025a
         865000	        85	80000134	85617813	andi	x16,x2,-1962	  x2:0x4b4fe37d x16=0x4b4fe054
         875000	        86	80000138	bd44c193	xori	x3,x9,-1068	  x9:0x00000000  x3=0xfffffbd4
         885000	        87	8000013c	9c03a193	slti	x3,x7,-1600	  x7:0x0000000e  x3=0x00000000
         895000	        88	80000140	00da0463	beq	x20,x13,80000148	 x20:0x00000000 x13:0x0000025a
         905000	        89	80000144	bdfd3193	sltiu	x3,x26,-1057	 x26:0x0a41a527  x3=0x00000001
         915000	        90	80000148	fb1e0367	jalr	x6,x28,-79	 x28:0x80000c08  x6=0x80000148
         925000	        91	00000000	00000013	addi	x0,x0,0	  x0:0x00000000
         935000	        92	80000bb8	00000013	addi	x0,x0,0	  x0:0x00000000
         945000	        93	80000bbc	fc498993	addi	x19,x19,-60	 x19:0x80009f84 x19=0x80009f48
         955000	        94	80000bc0	00c28833	add	x16,x5,x12	  x5:0xfc07e6cf x12:0x80000000 x16=0x7c07e6cf
         965000	        95	80000bc4	eb186137	lui	x2,0xeb186	  x2=0xeb186000
         975000	        96	80000bc8	d692c093	xori	x1,x5,-663	  x5:0xfc07e6cf  x1=0x03f81ba6
         985000	        97	80000bcc	15b86713	ori	x14,x16,347	 x16:0x7c07e6cf x14=0x7c07e7df
         995000	        98	80000bd0	0069a223	sw	x6,4(x19)	 x19:0x80009f48  x6:0x80000148 PA:0x80009f4c
        1005000	        99	80000bd4	0514e393	ori	x7,x9,81	  x9:0x00000000  x7=0x00000051
        1015000	       100	80000bd8	0159c633	xor	x12,x19,x21	 x19:0x80009f48 x21:0x0b588120 x12=0x8b581e68
        1025000	       101	80000bdc	00e07fb3	and	x31,x0,x14	  x0:0x00000000 x14:0x7c07e7df x31=0x00000000
        1035000	       102	80000be0	012762b3	or	x5,x14,x18	 x14:0x7c07e7df x18:0xfcb4d59f  x5=0xfcb7f7df
        1045000	       103	80000be4	40be08b3	sub	x17,x28,x11	 x28:0x80000c08 x11:0x80009fc4 x17=0xffff6c44
        1055000	       104	80000be8	0400036f	jal	x6,80000be8	  x6=0x80000be8
        1065000	       105	00000000	00000013	addi	x0,x0,0	  x0:0x00000000
        1075000	       106	80000c24	00000013	addi	x0,x0,0	  x0:0x00000000
        1085000	       107	80000c28	008000ef	jal	x1,80000c28	  x1=0x80000c28
        1095000	       108	00000000	00000013	addi	x0,x0,0	  x0:0x00000000
        1105000	       109	80000c2c	00000013	addi	x0,x0,0	  x0:0x00000000
        1115000	       110	80000c30	fc9ffcef	jal	x25,80000c30	 x25=0x80000c30
        1125000	       111	00000000	00000013	addi	x0,x0,0	  x0:0x00000000
        1135000	       112	80000bf4	00000013	addi	x0,x0,0	  x0:0x00000000
        1145000	       113	80000bf8	018000ef	jal	x1,80000bf8	  x1=0x80000bf8
        1155000	       114	00000000	00000013	addi	x0,x0,0	  x0:0x00000000
        1165000	       115	80000c0c	00000013	addi	x0,x0,0	  x0:0x00000000
        1175000	       116	80000c10	0100036f	jal	x6,80000c10	  x6=0x80000c10
        1185000	       117	00000000	00000013	addi	x0,x0,0	  x0:0x00000000
        1195000	       118	80000c1c	00000013	addi	x0,x0,0	  x0:0x00000000
        1205000	       119	80000c20	fd5ff0ef	jal	x1,80000c20	  x1=0x80000c20
        1215000	       120	00000000	00000013	addi	x0,x0,0	  x0:0x00000000
        1225000	       121	80000bf0	00000013	addi	x0,x0,0	  x0:0x00000000
        1235000	       122	80000bf4	04c0076f	jal	x14,80000bf4	 x14=0x80000bf4
        1245000	       123	00000000	00000013	addi	x0,x0,0	  x0:0x00000000
        1255000	       124	80000c3c	00000013	addi	x0,x0,0	  x0:0x00000000
        1265000	       125	80000c40	fc5ffdef	jal	x27,80000c40	 x27=0x80000c40
        1275000	       126	00000000	00000013	addi	x0,x0,0	  x0:0x00000000
        1285000	       127	80000c00	00000013	addi	x0,x0,0	  x0:0x00000000
        1295000	       128	80000c04	ff9ff7ef	jal	x15,80000c04	 x15=0x80000c04
        1305000	       129	00000000	00000013	addi	x0,x0,0	  x0:0x00000000
        1315000	       130	80000bf8	00000013	addi	x0,x0,0	  x0:0x00000000
        1325000	       131	80000bfc	054000ef	jal	x1,80000bfc	  x1=0x80000bfc
        1335000	       132	00000000	00000013	addi	x0,x0,0	  x0:0x00000000
        1345000	       133	80000c4c	00000013	addi	x0,x0,0	  x0:0x00000000
        1355000	       134	80000c50	fbdff36f	jal	x6,80000c50	  x6=0x80000c50
        1365000	       135	00000000	00000013	addi	x0,x0,0	  x0:0x00000000
        1375000	       136	80000c08	00000013	addi	x0,x0,0	  x0:0x00000000
        1385000	       137	80000c0c	048000ef	jal	x1,80000c0c	  x1=0x80000c0c
        1395000	       138	00000000	00000013	addi	x0,x0,0	  x0:0x00000000
        1405000	       139	80000c50	00000013	addi	x0,x0,0	  x0:0x00000000
        1415000	       140	80000c54	f9dff0ef	jal	x1,80000c54	  x1=0x80000c54
        1425000	       141	00000000	00000013	addi	x0,x0,0	  x0:0x00000000
        1435000	       142	80000bec	00000013	addi	x0,x0,0	  x0:0x00000000
        1445000	       143	80000bf0	ffdff0ef	jal	x1,80000bf0	  x1=0x80000bf0
        1455000	       144	00000000	00000013	addi	x0,x0,0	  x0:0x00000000
        1465000	       145	80000be8	00000013	addi	x0,x0,0	  x0:0x00000000
        1475000	       146	80000bec	04000fef	jal	x31,80000bec	 x31=0x80000bec
        1485000	       147	00000000	00000013	addi	x0,x0,0	  x0:0x00000000
        1495000	       148	80000c28	00000013	addi	x0,x0,0	  x0:0x00000000
        1505000	       149	80000c2c	00c000ef	jal	x1,80000c2c	  x1=0x80000c2c
        1515000	       150	00000000	00000013	addi	x0,x0,0	  x0:0x00000000
        1525000	       151	80000c34	00000013	addi	x0,x0,0	  x0:0x00000000
        1535000	       152	80000c38	020000ef	jal	x1,80000c38	  x1=0x80000c38
        1545000	       153	00000000	00000013	addi	x0,x0,0	  x0:0x00000000
        1555000	       154	80000c54	00000013	addi	x0,x0,0	  x0:0x00000000
        1565000	       155	80000c58	fb1ff0ef	jal	x1,80000c58	  x1=0x80000c58
        1575000	       156	00000000	00000013	addi	x0,x0,0	  x0:0x00000000
        1585000	       157	80000c04	00000013	addi	x0,x0,0	  x0:0x00000000
        1595000	       158	80000c08	03c000ef	jal	x1,80000c08	  x1=0x80000c08
        1605000	       159	00000000	00000013	addi	x0,x0,0	  x0:0x00000000
        1615000	       160	80000c40	00000013	addi	x0,x0,0	  x0:0x00000000
        1625000	       161	80000c44	0180016f	jal	x2,80000c44	  x2=0x80000c44
        1635000	       162	00000000	00000013	addi	x0,x0,0	  x0:0x00000000
        1645000	       163	80000c58	00000013	addi	x0,x0,0	  x0:0x00000000
        1655000	       164	80000c5c	fa5ff0ef	jal	x1,80000c5c	  x1=0x80000c5c
        1665000	       165	00000000	00000013	addi	x0,x0,0	  x0:0x00000000
        1675000	       166	80000bfc	00000013	addi	x0,x0,0	  x0:0x00000000
        1685000	       167	80000c00	0340036f	jal	x6,80000c00	  x6=0x80000c00
        1695000	       168	00000000	00000013	addi	x0,x0,0	  x0:0x00000000
        1705000	       169	80000c30	00000013	addi	x0,x0,0	  x0:0x00000000
        1715000	       170	80000c34	fe5ff0ef	jal	x1,80000c34	  x1=0x80000c34
        1725000	       171	00000000	00000013	addi	x0,x0,0	  x0:0x00000000
        1735000	       172	80000c14	00000013	addi	x0,x0,0	  x0:0x00000000
        1745000	       173	80000c18	0040036f	jal	x6,80000c18	  x6=0x80000c18
        1755000	       174	00000000	00000013	addi	x0,x0,0	  x0:0x00000000
        1765000	       175	80000c18	00000013	addi	x0,x0,0	  x0:0x00000000
        1775000	       176	80000c1c	02c0026f	jal	x4,80000c1c	  x4=0x80000c1c
        1785000	       177	00000000	00000013	addi	x0,x0,0	  x0:0x00000000
        1795000	       178	80000c44	00000013	addi	x0,x0,0	  x0:0x00000000
        1805000	       179	80000c48	0040036f	jal	x6,80000c48	  x6=0x80000c48
        1815000	       180	00000000	00000013	addi	x0,x0,0	  x0:0x00000000
        1825000	       181	80000c48	00000013	addi	x0,x0,0	  x0:0x00000000
        1835000	       182	80000c4c	fd9ff0ef	jal	x1,80000c4c	  x1=0x80000c4c
        1845000	       183	00000000	00000013	addi	x0,x0,0	  x0:0x00000000
        1855000	       184	80000c20	00000013	addi	x0,x0,0	  x0:0x00000000
        1865000	       185	80000c24	0180036f	jal	x6,80000c24	  x6=0x80000c24
        1875000	       186	00000000	00000013	addi	x0,x0,0	  x0:0x00000000
        1885000	       187	80000c38	00000013	addi	x0,x0,0	  x0:0x00000000
        1895000	       188	80000c3c	fd9ff4ef	jal	x9,80000c3c	  x9=0x80000c3c
        1905000	       189	00000000	00000013	addi	x0,x0,0	  x0:0x00000000
        1915000	       190	80000c10	00000013	addi	x0,x0,0	  x0:0x00000000
        1925000	       191	80000c14	04c000ef	jal	x1,80000c14	  x1=0x80000c14
        1935000	       192	00000000	00000013	addi	x0,x0,0	  x0:0x00000000
        1945000	       193	80000c5c	00000013	addi	x0,x0,0	  x0:0x00000000
        1955000	       194	80000c60	00c250b3	srl	x1,x4,x12	  x4:0x80000c1c x12:0x8b581e68  x1=0x0080000c
        1965000	       195	80000c64	0440036f	jal	x6,80000c64	  x6=0x80000c64
        1975000	       196	00000000	00000013	addi	x0,x0,0	  x0:0x00000000
        1985000	       197	80000ca4	00000013	addi	x0,x0,0	  x0:0x00000000
        1995000	       198	80000ca8	fc1ff56f	jal	x10,80000ca8	 x10=0x80000ca8
        2005000	       199	00000000	00000013	addi	x0,x0,0	  x0:0x00000000
        2015000	       200	80000c64	00000013	addi	x0,x0,0	  x0:0x00000000
        2025000	       201	80000c68	044000ef	jal	x1,80000c68	  x1=0x80000c68
        2035000	       202	00000000	00000013	addi	x0,x0,0	  x0:0x00000000
        2045000	       203	80000ca8	00000013	addi	x0,x0,0	  x0:0x00000000
        2055000	       204	80000cac	fc9ff76f	jal	x14,80000cac	 x14=0x80000cac
        2065000	       205	00000000	00000013	addi	x0,x0,0	  x0:0x00000000
        2075000	       206	80000c70	00000013	addi	x0,x0,0	  x0:0x00000000
        2085000	       207	80000c74	02c000ef	jal	x1,80000c74	  x1=0x80000c74
        2095000	       208	00000000	00000013	addi	x0,x0,0	  x0:0x00000000
        2105000	       209	80000c9c	00000013	addi	x0,x0,0	  x0:0x00000000
        2115000	       210	80000ca0	014000ef	jal	x1,80000ca0	  x1=0x80000ca0
        2125000	       211	00000000	00000013	addi	x0,x0,0	  x0:0x00000000
        2135000	       212	80000cb0	00000013	addi	x0,x0,0	  x0:0x00000000
        2145000	       213	80000cb4	fe5ff0ef	jal	x1,80000cb4	  x1=0x80000cb4
        2155000	       214	00000000	00000013	addi	x0,x0,0	  x0:0x00000000
        2165000	       215	80000c94	00000013	addi	x0,x0,0	  x0:0x00000000
        2175000	       216	80000c98	004000ef	jal	x1,80000c98	  x1=0x80000c98
        2185000	       217	00000000	00000013	addi	x0,x0,0	  x0:0x00000000
        2195000	       218	80000c98	00000013	addi	x0,x0,0	  x0:0x00000000
        2205000	       219	80000c9c	024000ef	jal	x1,80000c9c	  x1=0x80000c9c
        2215000	       220	00000000	00000013	addi	x0,x0,0	  x0:0x00000000
        2225000	       221	80000cbc	00000013	addi	x0,x0,0	  x0:0x00000000
        2235000	       222	80000cc0	ffdff0ef	jal	x1,80000cc0	  x1=0x80000cc0
        2245000	       223	00000000	00000013	addi	x0,x0,0	  x0:0x00000000
        2255000	       224	80000cb8	00000013	addi	x0,x0,0	  x0:0x00000000
        2265000	       225	80000cbc	ffdff36f	jal	x6,80000cbc	  x6=0x80000cbc
        2275000	       226	00000000	00000013	addi	x0,x0,0	  x0:0x00000000
        2285000	       227	80000cb4	00000013	addi	x0,x0,0	  x0:0x00000000
        2295000	       228	80000cb8	fddff0ef	jal	x1,80000cb8	  x1=0x80000cb8
        2305000	       229	00000000	00000013	addi	x0,x0,0	  x0:0x00000000
        2315000	       230	80000c90	00000013	addi	x0,x0,0	  x0:0x00000000
        2325000	       231	80000c94	0340036f	jal	x6,80000c94	  x6=0x80000c94
        2335000	       232	00000000	00000013	addi	x0,x0,0	  x0:0x00000000
        2345000	       233	80000cc4	00000013	addi	x0,x0,0	  x0:0x00000000
        2355000	       234	80000cc8	fe9ff0ef	jal	x1,80000cc8	  x1=0x80000cc8
        2365000	       235	00000000	00000013	addi	x0,x0,0	  x0:0x00000000
        2375000	       236	80000cac	00000013	addi	x0,x0,0	  x0:0x00000000
        2385000	       237	80000cb0	fc9ff36f	jal	x6,80000cb0	  x6=0x80000cb0
        2395000	       238	00000000	00000013	addi	x0,x0,0	  x0:0x00000000
        2405000	       239	80000c74	00000013	addi	x0,x0,0	  x0:0x00000000
        2415000	       240	80000c78	018000ef	jal	x1,80000c78	  x1=0x80000c78
        2425000	       241	00000000	00000013	addi	x0,x0,0	  x0:0x00000000
        2435000	       242	80000c8c	00000013	addi	x0,x0,0	  x0:0x00000000
        2445000	       243	80000c90	ffdffdef	jal	x27,80000c90	 x27=0x80000c90
        2455000	       244	00000000	00000013	addi	x0,x0,0	  x0:0x00000000
        2465000	       245	80000c88	00000013	addi	x0,x0,0	  x0:0x00000000
        2475000	       246	80000c8c	ff9ff36f	jal	x6,80000c8c	  x6=0x80000c8c
        2485000	       247	00000000	00000013	addi	x0,x0,0	  x0:0x00000000
        2495000	       248	80000c80	00000013	addi	x0,x0,0	  x0:0x00000000
        2505000	       249	80000c84	0400046f	jal	x8,80000c84	  x8=0x80000c84
        2515000	       250	00000000	00000013	addi	x0,x0,0	  x0:0x00000000
        2525000	       251	80000cc0	00000013	addi	x0,x0,0	  x0:0x00000000
        2535000	       252	80000cc4	fc5ff4ef	jal	x9,80000cc4	  x9=0x80000cc4
        2545000	       253	00000000	00000013	addi	x0,x0,0	  x0:0x00000000
        2555000	       254	80000c84	00000013	addi	x0,x0,0	  x0:0x00000000
        2565000	       255	80000c88	044007ef	jal	x15,80000c88	 x15=0x80000c88
        2575000	       256	00000000	00000013	addi	x0,x0,0	  x0:0x00000000
        2585000	       257	80000cc8	00000013	addi	x0,x0,0	  x0:0x00000000
        2595000	       258	80000ccc	fa5ff0ef	jal	x1,80000ccc	  x1=0x80000ccc
        2605000	       259	00000000	00000013	addi	x0,x0,0	  x0:0x00000000
        2615000	       260	80000c6c	00000013	addi	x0,x0,0	  x0:0x00000000
        2625000	       261	80000c70	0100036f	jal	x6,80000c70	  x6=0x80000c70
        2635000	       262	00000000	00000013	addi	x0,x0,0	  x0:0x00000000
        2645000	       263	80000c7c	00000013	addi	x0,x0,0	  x0:0x00000000
        2655000	       264	80000c80	ffdff7ef	jal	x15,80000c80	 x15=0x80000c80
        2665000	       265	00000000	00000013	addi	x0,x0,0	  x0:0x00000000
        2675000	       266	80000c78	00000013	addi	x0,x0,0	  x0:0x00000000
        2685000	       267	80000c7c	028000ef	jal	x1,80000c7c	  x1=0x80000c7c
        2695000	       268	00000000	00000013	addi	x0,x0,0	  x0:0x00000000
        2705000	       269	80000ca0	00000013	addi	x0,x0,0	  x0:0x00000000
        2715000	       270	80000ca4	fc9ff0ef	jal	x1,80000ca4	  x1=0x80000ca4
        2725000	       271	00000000	00000013	addi	x0,x0,0	  x0:0x00000000
        2735000	       272	80000c68	00000013	addi	x0,x0,0	  x0:0x00000000
        2745000	       273	80000c6c	064000ef	jal	x1,80000c6c	  x1=0x80000c6c
        2755000	       274	00000000	00000013	addi	x0,x0,0	  x0:0x00000000
        2765000	       275	80000ccc	00000013	addi	x0,x0,0	  x0:0x00000000
        2775000	       276	80000cd0	3ded00b7	lui	x1,0x3ded0	  x1=0x3ded0000
        2785000	       277	80000cd4	0400036f	jal	x6,80000cd4	  x6=0x80000cd4
        2795000	       278	00000000	00000013	addi	x0,x0,0	  x0:0x00000000
        2805000	       279	80000d10	00000013	addi	x0,x0,0	  x0:0x00000000
        2815000	       280	80000d14	fd5ff0ef	jal	x1,80000d14	  x1=0x80000d14
        2825000	       281	00000000	00000013	addi	x0,x0,0	  x0:0x00000000
        2835000	       282	80000ce4	00000013	addi	x0,x0,0	  x0:0x00000000
        2845000	       283	80000ce8	ff5ffaef	jal	x21,80000ce8	 x21=0x80000ce8
        2855000	       284	00000000	00000013	addi	x0,x0,0	  x0:0x00000000
        2865000	       285	80000cd8	00000013	addi	x0,x0,0	  x0:0x00000000
        2875000	       286	80000cdc	0300016f	jal	x2,80000cdc	  x2=0x80000cdc
        2885000	       287	00000000	00000013	addi	x0,x0,0	  x0:0x00000000
        2895000	       288	80000d08	00000013	addi	x0,x0,0	  x0:0x00000000
        2905000	       289	80000d0c	010000ef	jal	x1,80000d0c	  x1=0x80000d0c
        2915000	       290	00000000	00000013	addi	x0,x0,0	  x0:0x00000000
        2925000	       291	80000d18	00000013	addi	x0,x0,0	  x0:0x00000000
        2935000	       292	80000d1c	fd5ff36f	jal	x6,80000d1c	  x6=0x80000d1c
        2945000	       293	00000000	00000013	addi	x0,x0,0	  x0:0x00000000
        2955000	       294	80000cec	00000013	addi	x0,x0,0	  x0:0x00000000
        2965000	       295	80000cf0	010000ef	jal	x1,80000cf0	  x1=0x80000cf0
        2975000	       296	00000000	00000013	addi	x0,x0,0	  x0:0x00000000
        2985000	       297	80000cfc	00000013	addi	x0,x0,0	  x0:0x00000000
        2995000	       298	80000d00	010000ef	jal	x1,80000d00	  x1=0x80000d00
        3005000	       299	00000000	00000013	addi	x0,x0,0	  x0:0x00000000
        3015000	       300	80000d0c	00000013	addi	x0,x0,0	  x0:0x00000000
        3025000	       301	80000d10	008000ef	jal	x1,80000d10	  x1=0x80000d10
        3035000	       302	00000000	00000013	addi	x0,x0,0	  x0:0x00000000
        3045000	       303	80000d14	00000013	addi	x0,x0,0	  x0:0x00000000
        3055000	       304	80000d18	fedff56f	jal	x10,80000d18	 x10=0x80000d18
        3065000	       305	00000000	00000013	addi	x0,x0,0	  x0:0x00000000
        3075000	       306	80000d00	00000013	addi	x0,x0,0	  x0:0x00000000
        3085000	       307	80000d04	ff1ff0ef	jal	x1,80000d04	  x1=0x80000d04
        3095000	       308	00000000	00000013	addi	x0,x0,0	  x0:0x00000000
        3105000	       309	80000cf0	00000013	addi	x0,x0,0	  x0:0x00000000
        3115000	       310	80000cf4	ff9ff16f	jal	x2,80000cf4	  x2=0x80000cf4
        3125000	       311	00000000	00000013	addi	x0,x0,0	  x0:0x00000000
        3135000	       312	80000ce8	00000013	addi	x0,x0,0	  x0:0x00000000
        3145000	       313	80000cec	ff9ff0ef	jal	x1,80000cec	  x1=0x80000cec
        3155000	       314	00000000	00000013	addi	x0,x0,0	  x0:0x00000000
        3165000	       315	80000ce0	00000013	addi	x0,x0,0	  x0:0x00000000
        3175000	       316	80000ce4	ffdff1ef	jal	x3,80000ce4	  x3=0x80000ce4
        3185000	       317	00000000	00000013	addi	x0,x0,0	  x0:0x00000000
        3195000	       318	80000cdc	00000013	addi	x0,x0,0	  x0:0x00000000
        3205000	       319	80000ce0	ff9ff0ef	jal	x1,80000ce0	  x1=0x80000ce0
        3215000	       320	00000000	00000013	addi	x0,x0,0	  x0:0x00000000
        3225000	       321	80000cd4	00000013	addi	x0,x0,0	  x0:0x00000000
        3235000	       322	80000cd8	0240026f	jal	x4,80000cd8	  x4=0x80000cd8
        3245000	       323	00000000	00000013	addi	x0,x0,0	  x0:0x00000000
        3255000	       324	80000cf8	00000013	addi	x0,x0,0	  x0:0x00000000
        3265000	       325	80000cfc	00c000ef	jal	x1,80000cfc	  x1=0x80000cfc
        3275000	       326	00000000	00000013	addi	x0,x0,0	  x0:0x00000000
        3285000	       327	80000d04	00000013	addi	x0,x0,0	  x0:0x00000000
        3295000	       328	80000d08	ff1ff0ef	jal	x1,80000d08	  x1=0x80000d08
        3305000	       329	00000000	00000013	addi	x0,x0,0	  x0:0x00000000
        3315000	       330	80000cf4	00000013	addi	x0,x0,0	  x0:0x00000000
        3325000	       331	80000cf8	0280036f	jal	x6,80000cf8	  x6=0x80000cf8
        3335000	       332	00000000	00000013	addi	x0,x0,0	  x0:0x00000000
        3345000	       333	80000d1c	00000013	addi	x0,x0,0	  x0:0x00000000
        3355000	       334	80000d20	39940093	addi	x1,x8,921	  x8:0x80000c84  x1=0x8000101d
        3365000	       335	80000d24	02c0036f	jal	x6,80000d24	  x6=0x80000d24
        3375000	       336	00000000	00000013	addi	x0,x0,0	  x0:0x00000000
        3385000	       337	80000d4c	00000013	addi	x0,x0,0	  x0:0x00000000
        3395000	       338	80000d50	0100036f	jal	x6,80000d50	  x6=0x80000d50
        3405000	       339	00000000	00000013	addi	x0,x0,0	  x0:0x00000000
        3415000	       340	80000d5c	00000013	addi	x0,x0,0	  x0:0x00000000
        3425000	       341	80000d60	fd9ff0ef	jal	x1,80000d60	  x1=0x80000d60
        3435000	       342	00000000	00000013	addi	x0,x0,0	  x0:0x00000000
        3445000	       343	80000d34	00000013	addi	x0,x0,0	  x0:0x00000000
        3455000	       344	80000d38	00400f6f	jal	x30,80000d38	 x30=0x80000d38
        3465000	       345	00000000	00000013	addi	x0,x0,0	  x0:0x00000000
        3475000	       346	80000d38	00000013	addi	x0,x0,0	  x0:0x00000000
        3485000	       347	80000d3c	ff5ff0ef	jal	x1,80000d3c	  x1=0x80000d3c
        3495000	       348	00000000	00000013	addi	x0,x0,0	  x0:0x00000000
        3505000	       349	80000d2c	00000013	addi	x0,x0,0	  x0:0x00000000
        3515000	       350	80000d30	ffdffe6f	jal	x28,80000d30	 x28=0x80000d30
        3525000	       351	00000000	00000013	addi	x0,x0,0	  x0:0x00000000
        3535000	       352	80000d28	00000013	addi	x0,x0,0	  x0:0x00000000
        3545000	       353	80000d2c	008008ef	jal	x17,80000d2c	 x17=0x80000d2c
        3555000	       354	00000000	00000013	addi	x0,x0,0	  x0:0x00000000
        3565000	       355	80000d30	00000013	addi	x0,x0,0	  x0:0x00000000
        3575000	       356	80000d34	0140096f	jal	x18,80000d34	 x18=0x80000d34
        3585000	       357	00000000	00000013	addi	x0,x0,0	  x0:0x00000000
        3595000	       358	80000d44	00000013	addi	x0,x0,0	  x0:0x00000000
        3605000	       359	80000d48	004000ef	jal	x1,80000d48	  x1=0x80000d48
        3615000	       360	00000000	00000013	addi	x0,x0,0	  x0:0x00000000
        3625000	       361	80000d48	00000013	addi	x0,x0,0	  x0:0x00000000
        3635000	       362	80000d4c	fddff36f	jal	x6,80000d4c	  x6=0x80000d4c
        3645000	       363	00000000	00000013	addi	x0,x0,0	  x0:0x00000000
        3655000	       364	80000d24	00000013	addi	x0,x0,0	  x0:0x00000000
        3665000	       365	80000d28	018000ef	jal	x1,80000d28	  x1=0x80000d28
        3675000	       366	00000000	00000013	addi	x0,x0,0	  x0:0x00000000
        3685000	       367	80000d3c	00000013	addi	x0,x0,0	  x0:0x00000000
        3695000	       368	80000d40	018003ef	jal	x7,80000d40	  x7=0x80000d40
        3705000	       369	00000000	00000013	addi	x0,x0,0	  x0:0x00000000
        3715000	       370	80000d54	00000013	addi	x0,x0,0	  x0:0x00000000
        3725000	       371	80000d58	004000ef	jal	x1,80000d58	  x1=0x80000d58
        3735000	       372	00000000	00000013	addi	x0,x0,0	  x0:0x00000000
        3745000	       373	80000d58	00000013	addi	x0,x0,0	  x0:0x00000000
        3755000	       374	80000d5c	fe9ff0ef	jal	x1,80000d5c	  x1=0x80000d5c
        3765000	       375	00000000	00000013	addi	x0,x0,0	  x0:0x00000000
        3775000	       376	80000d40	00000013	addi	x0,x0,0	  x0:0x00000000
        3785000	       377	80000d44	010000ef	jal	x1,80000d44	  x1=0x80000d44
        3795000	       378	00000000	00000013	addi	x0,x0,0	  x0:0x00000000
        3805000	       379	80000d50	00000013	addi	x0,x0,0	  x0:0x00000000
        3815000	       380	80000d54	010000ef	jal	x1,80000d54	  x1=0x80000d54
        3825000	       381	00000000	00000013	addi	x0,x0,0	  x0:0x00000000
        3835000	       382	80000d60	00000013	addi	x0,x0,0	  x0:0x00000000
        3845000	       383	80000d64	007212b3	sll	x5,x4,x7	  x4:0x80000cd8  x7:0x80000d40  x5=0x80000cd8
        3855000	       384	80000d68	0300036f	jal	x6,80000d68	  x6=0x80000d68
        3865000	       385	00000000	00000013	addi	x0,x0,0	  x0:0x00000000
        3875000	       386	80000d94	00000013	addi	x0,x0,0	  x0:0x00000000
        3885000	       387	80000d98	00c0036f	jal	x6,80000d98	  x6=0x80000d98
        3895000	       388	00000000	00000013	addi	x0,x0,0	  x0:0x00000000
        3905000	       389	80000da0	00000013	addi	x0,x0,0	  x0:0x00000000
        3915000	       390	80000da4	0040016f	jal	x2,80000da4	  x2=0x80000da4
        3925000	       391	00000000	00000013	addi	x0,x0,0	  x0:0x00000000
        3935000	       392	80000da4	00000013	addi	x0,x0,0	  x0:0x00000000
        3945000	       393	80000da8	fc9ff36f	jal	x6,80000da8	  x6=0x80000da8
        3955000	       394	00000000	00000013	addi	x0,x0,0	  x0:0x00000000
        3965000	       395	80000d6c	00000013	addi	x0,x0,0	  x0:0x00000000
        3975000	       396	80000d70	008000ef	jal	x1,80000d70	  x1=0x80000d70
        3985000	       397	00000000	00000013	addi	x0,x0,0	  x0:0x00000000
        3995000	       398	80000d74	00000013	addi	x0,x0,0	  x0:0x00000000
        4005000	       399	80000d78	044000ef	jal	x1,80000d78	  x1=0x80000d78
        4015000	       400	00000000	00000013	addi	x0,x0,0	  x0:0x00000000
        4025000	       401	80000db8	00000013	addi	x0,x0,0	  x0:0x00000000
        4035000	       402	80000dbc	fb9ff0ef	jal	x1,80000dbc	  x1=0x80000dbc
        4045000	       403	00000000	00000013	addi	x0,x0,0	  x0:0x00000000
        4055000	       404	80000d70	00000013	addi	x0,x0,0	  x0:0x00000000
        4065000	       405	80000d74	04c0036f	jal	x6,80000d74	  x6=0x80000d74
        4075000	       406	00000000	00000013	addi	x0,x0,0	  x0:0x00000000
        4085000	       407	80000dbc	00000013	addi	x0,x0,0	  x0:0x00000000
        4095000	       408	80000dc0	ff5ff0ef	jal	x1,80000dc0	  x1=0x80000dc0
        4105000	       409	00000000	00000013	addi	x0,x0,0	  x0:0x00000000
        4115000	       410	80000db0	00000013	addi	x0,x0,0	  x0:0x00000000
        4125000	       411	80000db4	004000ef	jal	x1,80000db4	  x1=0x80000db4
        4135000	       412	00000000	00000013	addi	x0,x0,0	  x0:0x00000000
        4145000	       413	80000db4	00000013	addi	x0,x0,0	  x0:0x00000000
        4155000	       414	80000db8	fd9ff36f	jal	x6,80000db8	  x6=0x80000db8
        4165000	       415	00000000	00000013	addi	x0,x0,0	  x0:0x00000000
        4175000	       416	80000d8c	00000013	addi	x0,x0,0	  x0:0x00000000
        4185000	       417	80000d90	ffdff2ef	jal	x5,80000d90	  x5=0x80000d90
        4195000	       418	00000000	00000013	addi	x0,x0,0	  x0:0x00000000
        4205000	       419	80000d88	00000013	addi	x0,x0,0	  x0:0x00000000
        4215000	       420	80000d8c	ff5ff0ef	jal	x1,80000d8c	  x1=0x80000d8c
        4225000	       421	00000000	00000013	addi	x0,x0,0	  x0:0x00000000
        4235000	       422	80000d7c	00000013	addi	x0,x0,0	  x0:0x00000000
        4245000	       423	80000d80	ffdff0ef	jal	x1,80000d80	  x1=0x80000d80
        4255000	       424	00000000	00000013	addi	x0,x0,0	  x0:0x00000000
        4265000	       425	80000d78	00000013	addi	x0,x0,0	  x0:0x00000000
        4275000	       426	80000d7c	020000ef	jal	x1,80000d7c	  x1=0x80000d7c
        4285000	       427	00000000	00000013	addi	x0,x0,0	  x0:0x00000000
        4295000	       428	80000d98	00000013	addi	x0,x0,0	  x0:0x00000000
        4305000	       429	80000d9c	fedffdef	jal	x27,80000d9c	 x27=0x80000d9c
        4315000	       430	00000000	00000013	addi	x0,x0,0	  x0:0x00000000
        4325000	       431	80000d84	00000013	addi	x0,x0,0	  x0:0x00000000
        4335000	       432	80000d88	028000ef	jal	x1,80000d88	  x1=0x80000d88
        4345000	       433	00000000	00000013	addi	x0,x0,0	  x0:0x00000000
        4355000	       434	80000dac	00000013	addi	x0,x0,0	  x0:0x00000000
        4365000	       435	80000db0	fd5ff96f	jal	x18,80000db0	 x18=0x80000db0
        4375000	       436	00000000	00000013	addi	x0,x0,0	  x0:0x00000000
        4385000	       437	80000d80	00000013	addi	x0,x0,0	  x0:0x00000000
        4395000	       438	80000d84	028000ef	jal	x1,80000d84	  x1=0x80000d84
        4405000	       439	00000000	00000013	addi	x0,x0,0	  x0:0x00000000
        4415000	       440	80000da8	00000013	addi	x0,x0,0	  x0:0x00000000
        4425000	       441	80000dac	ff5ff0ef	jal	x1,80000dac	  x1=0x80000dac
        4435000	       442	00000000	00000013	addi	x0,x0,0	  x0:0x00000000
        4445000	       443	80000d9c	00000013	addi	x0,x0,0	  x0:0x00000000
        4455000	       444	80000da0	ff5ff56f	jal	x10,80000da0	 x10=0x80000da0
        4465000	       445	00000000	00000013	addi	x0,x0,0	  x0:0x00000000
        4475000	       446	80000d90	00000013	addi	x0,x0,0	  x0:0x00000000
        4485000	       447	80000d94	fd9ff0ef	jal	x1,80000d94	  x1=0x80000d94
        4495000	       448	00000000	00000013	addi	x0,x0,0	  x0:0x00000000
        4505000	       449	80000d68	00000013	addi	x0,x0,0	  x0:0x00000000
        4515000	       450	80000d6c	058000ef	jal	x1,80000d6c	  x1=0x80000d6c
        4525000	       451	00000000	00000013	addi	x0,x0,0	  x0:0x00000000
        4535000	       452	80000dc0	00000013	addi	x0,x0,0	  x0:0x00000000
        4545000	       453	80000dc4	00611b33	sll	x22,x2,x6	  x2:0x80000da4  x6:0x80000db8 x22=0xa4000000
        4555000	       454	80000dc8	0180036f	jal	x6,80000dc8	  x6=0x80000dc8
        4565000	       455	00000000	00000013	addi	x0,x0,0	  x0:0x00000000
        4575000	       456	80000ddc	00000013	addi	x0,x0,0	  x0:0x00000000
        4585000	       457	80000de0	014000ef	jal	x1,80000de0	  x1=0x80000de0
        4595000	       458	00000000	00000013	addi	x0,x0,0	  x0:0x00000000
        4605000	       459	80000df0	00000013	addi	x0,x0,0	  x0:0x00000000
        4615000	       460	80000df4	0240036f	jal	x6,80000df4	  x6=0x80000df4
        4625000	       461	00000000	00000013	addi	x0,x0,0	  x0:0x00000000
        4635000	       462	80000e14	00000013	addi	x0,x0,0	  x0:0x00000000
        4645000	       463	80000e18	fd9ff0ef	jal	x1,80000e18	  x1=0x80000e18
        4655000	       464	00000000	00000013	addi	x0,x0,0	  x0:0x00000000
        4665000	       465	80000dec	00000013	addi	x0,x0,0	  x0:0x00000000
        4675000	       466	80000df0	00c00def	jal	x27,80000df0	 x27=0x80000df0
        4685000	       467	00000000	00000013	addi	x0,x0,0	  x0:0x00000000
        4695000	       468	80000df8	00000013	addi	x0,x0,0	  x0:0x00000000
        4705000	       469	80000dfc	008000ef	jal	x1,80000dfc	  x1=0x80000dfc
        4715000	       470	00000000	00000013	addi	x0,x0,0	  x0:0x00000000
        4725000	       471	80000e00	00000013	addi	x0,x0,0	  x0:0x00000000
        4735000	       472	80000e04	fcdfffef	jal	x31,80000e04	 x31=0x80000e04
        4745000	       473	00000000	00000013	addi	x0,x0,0	  x0:0x00000000
        4755000	       474	80000dcc	00000013	addi	x0,x0,0	  x0:0x00000000
        4765000	       475	80000dd0	00c007ef	jal	x15,80000dd0	 x15=0x80000dd0
        4775000	       476	00000000	00000013	addi	x0,x0,0	  x0:0x00000000
        4785000	       477	80000dd8	00000013	addi	x0,x0,0	  x0:0x00000000
        4795000	       478	80000ddc	00c00a6f	jal	x20,80000ddc	 x20=0x80000ddc
        4805000	       479	00000000	00000013	addi	x0,x0,0	  x0:0x00000000
        4815000	       480	80000de4	00000013	addi	x0,x0,0	  x0:0x00000000
        4825000	       481	80000de8	02c0036f	jal	x6,80000de8	  x6=0x80000de8
        4835000	       482	00000000	00000013	addi	x0,x0,0	  x0:0x00000000
        4845000	       483	80000e10	00000013	addi	x0,x0,0	  x0:0x00000000
        4855000	       484	80000e14	fd9ff36f	jal	x6,80000e14	  x6=0x80000e14
        4865000	       485	00000000	00000013	addi	x0,x0,0	  x0:0x00000000
        4875000	       486	80000de8	00000013	addi	x0,x0,0	  x0:0x00000000
        4885000	       487	80000dec	020000ef	jal	x1,80000dec	  x1=0x80000dec
        4895000	       488	00000000	00000013	addi	x0,x0,0	  x0:0x00000000
        4905000	       489	80000e08	00000013	addi	x0,x0,0	  x0:0x00000000
        4915000	       490	80000e0c	0040086f	jal	x16,80000e0c	 x16=0x80000e0c
        4925000	       491	00000000	00000013	addi	x0,x0,0	  x0:0x00000000
        4935000	       492	80000e0c	00000013	addi	x0,x0,0	  x0:0x00000000
        4945000	       493	80000e10	fbdff7ef	jal	x15,80000e10	 x15=0x80000e10
        4955000	       494	00000000	00000013	addi	x0,x0,0	  x0:0x00000000
        4965000	       495	80000dc8	00000013	addi	x0,x0,0	  x0:0x00000000
        4975000	       496	80000dcc	054000ef	jal	x1,80000dcc	  x1=0x80000dcc
        4985000	       497	00000000	00000013	addi	x0,x0,0	  x0:0x00000000
        4995000	       498	80000e1c	00000013	addi	x0,x0,0	  x0:0x00000000
        5005000	       499	80000e20	fe9ff36f	jal	x6,80000e20	  x6=0x80000e20
        5015000	       500	00000000	00000013	addi	x0,x0,0	  x0:0x00000000
        5025000	       501	80000e04	00000013	addi	x0,x0,0	  x0:0x00000000
        5035000	       502	80000e08	ff1ff36f	jal	x6,80000e08	  x6=0x80000e08
        5045000	       503	00000000	00000013	addi	x0,x0,0	  x0:0x00000000
        5055000	       504	80000df4	00000013	addi	x0,x0,0	  x0:0x00000000
        5065000	       505	80000df8	02400fef	jal	x31,80000df8	 x31=0x80000df8
        5075000	       506	00000000	00000013	addi	x0,x0,0	  x0:0x00000000
        5085000	       507	80000e18	00000013	addi	x0,x0,0	  x0:0x00000000
        5095000	       508	80000e1c	fb9ff0ef	jal	x1,80000e1c	  x1=0x80000e1c
        5105000	       509	00000000	00000013	addi	x0,x0,0	  x0:0x00000000
        5115000	       510	80000dd0	00000013	addi	x0,x0,0	  x0:0x00000000
        5125000	       511	80000dd4	0100036f	jal	x6,80000dd4	  x6=0x80000dd4
        5135000	       512	00000000	00000013	addi	x0,x0,0	  x0:0x00000000
        5145000	       513	80000de0	00000013	addi	x0,x0,0	  x0:0x00000000
        5155000	       514	80000de4	ff5ff2ef	jal	x5,80000de4	  x5=0x80000de4
        5165000	       515	00000000	00000013	addi	x0,x0,0	  x0:0x00000000
        5175000	       516	80000dd4	00000013	addi	x0,x0,0	  x0:0x00000000
        5185000	       517	80000dd8	028008ef	jal	x17,80000dd8	 x17=0x80000dd8
        5195000	       518	00000000	00000013	addi	x0,x0,0	  x0:0x00000000
        5205000	       519	80000dfc	00000013	addi	x0,x0,0	  x0:0x00000000
        5215000	       520	80000e00	0240036f	jal	x6,80000e00	  x6=0x80000e00
        5225000	       521	00000000	00000013	addi	x0,x0,0	  x0:0x00000000
        5235000	       522	80000e20	00000013	addi	x0,x0,0	  x0:0x00000000
        5245000	       523	80000e24	2b3eca93	xori	x21,x29,691	 x29:0x00000000 x21=0x000002b3
        5255000	       524	80000e28	0040036f	jal	x6,80000e28	  x6=0x80000e28
        5265000	       525	00000000	00000013	addi	x0,x0,0	  x0:0x00000000
        5275000	       526	80000e28	00000013	addi	x0,x0,0	  x0:0x00000000
        5285000	       527	80000e2c	0140036f	jal	x6,80000e2c	  x6=0x80000e2c
        5295000	       528	00000000	00000013	addi	x0,x0,0	  x0:0x00000000
        5305000	       529	80000e3c	00000013	addi	x0,x0,0	  x0:0x00000000
        5315000	       530	80000e40	010001ef	jal	x3,80000e40	  x3=0x80000e40
        5325000	       531	00000000	00000013	addi	x0,x0,0	  x0:0x00000000
        5335000	       532	80000e4c	00000013	addi	x0,x0,0	  x0:0x00000000
        5345000	       533	80000e50	00c000ef	jal	x1,80000e50	  x1=0x80000e50
        5355000	       534	00000000	00000013	addi	x0,x0,0	  x0:0x00000000
        5365000	       535	80000e58	00000013	addi	x0,x0,0	  x0:0x00000000
        5375000	       536	80000e5c	ff9ff1ef	jal	x3,80000e5c	  x3=0x80000e5c
        5385000	       537	00000000	00000013	addi	x0,x0,0	  x0:0x00000000
        5395000	       538	80000e50	00000013	addi	x0,x0,0	  x0:0x00000000
        5405000	       539	80000e54	fe9ff0ef	jal	x1,80000e54	  x1=0x80000e54
        5415000	       540	00000000	00000013	addi	x0,x0,0	  x0:0x00000000
        5425000	       541	80000e38	00000013	addi	x0,x0,0	  x0:0x00000000
        5435000	       542	80000e3c	02800def	jal	x27,80000e3c	 x27=0x80000e3c
        5445000	       543	00000000	00000013	addi	x0,x0,0	  x0:0x00000000
        5455000	       544	80000e60	00000013	addi	x0,x0,0	  x0:0x00000000
        5465000	       545	80000e64	fe5ff36f	jal	x6,80000e64	  x6=0x80000e64
        5475000	       546	00000000	00000013	addi	x0,x0,0	  x0:0x00000000
        5485000	       547	80000e44	00000013	addi	x0,x0,0	  x0:0x00000000
        5495000	       548	80000e48	fe9ff8ef	jal	x17,80000e48	 x17=0x80000e48
        5505000	       549	00000000	00000013	addi	x0,x0,0	  x0:0x00000000
        5515000	       550	80000e2c	00000013	addi	x0,x0,0	  x0:0x00000000
        5525000	       551	80000e30	028000ef	jal	x1,80000e30	  x1=0x80000e30
        5535000	       552	00000000	00000013	addi	x0,x0,0	  x0:0x00000000
        5545000	       553	80000e54	00000013	addi	x0,x0,0	  x0:0x00000000
        5555000	       554	80000e58	fddff36f	jal	x6,80000e58	  x6=0x80000e58
        5565000	       555	00000000	00000013	addi	x0,x0,0	  x0:0x00000000
        5575000	       556	80000e30	00000013	addi	x0,x0,0	  x0:0x00000000
        5585000	       557	80000e34	02c000ef	jal	x1,80000e34	  x1=0x80000e34
        5595000	       558	00000000	00000013	addi	x0,x0,0	  x0:0x00000000
        5605000	       559	80000e5c	00000013	addi	x0,x0,0	  x0:0x00000000
        5615000	       560	80000e60	fedff1ef	jal	x3,80000e60	  x3=0x80000e60
        5625000	       561	00000000	00000013	addi	x0,x0,0	  x0:0x00000000
        5635000	       562	80000e48	00000013	addi	x0,x0,0	  x0:0x00000000
        5645000	       563	80000e4c	fedff0ef	jal	x1,80000e4c	  x1=0x80000e4c
        5655000	       564	00000000	00000013	addi	x0,x0,0	  x0:0x00000000
        5665000	       565	80000e34	00000013	addi	x0,x0,0	  x0:0x00000000
        5675000	       566	80000e38	00c000ef	jal	x1,80000e38	  x1=0x80000e38
        5685000	       567	00000000	00000013	addi	x0,x0,0	  x0:0x00000000
        5695000	       568	80000e40	00000013	addi	x0,x0,0	  x0:0x00000000
        5705000	       569	80000e44	024000ef	jal	x1,80000e44	  x1=0x80000e44
        5715000	       570	00000000	00000013	addi	x0,x0,0	  x0:0x00000000
        5725000	       571	80000e64	00000013	addi	x0,x0,0	  x0:0x00000000
        5735000	       572	80000e68	00000013	addi	x0,x0,0	  x0:0x00000000
        5745000	       573	80000e6c	0140036f	jal	x6,80000e6c	  x6=0x80000e6c
        5755000	       574	00000000	00000013	addi	x0,x0,0	  x0:0x00000000
        5765000	       575	80000e7c	00000013	addi	x0,x0,0	  x0:0x00000000
        5775000	       576	80000e80	0580026f	jal	x4,80000e80	  x4=0x80000e80
        5785000	       577	00000000	00000013	addi	x0,x0,0	  x0:0x00000000
        5795000	       578	80000ed4	00000013	addi	x0,x0,0	  x0:0x00000000
        5805000	       579	80000ed8	fb5ff16f	jal	x2,80000ed8	  x2=0x80000ed8
        5815000	       580	00000000	00000013	addi	x0,x0,0	  x0:0x00000000
        5825000	       581	80000e88	00000013	addi	x0,x0,0	  x0:0x00000000
        5835000	       582	80000e8c	034000ef	jal	x1,80000e8c	  x1=0x80000e8c
        5845000	       583	00000000	00000013	addi	x0,x0,0	  x0:0x00000000
        5855000	       584	80000ebc	00000013	addi	x0,x0,0	  x0:0x00000000
        5865000	       585	80000ec0	fd5ff36f	jal	x6,80000ec0	  x6=0x80000ec0
        5875000	       586	00000000	00000013	addi	x0,x0,0	  x0:0x00000000
        5885000	       587	80000e90	00000013	addi	x0,x0,0	  x0:0x00000000
        5895000	       588	80000e94	024000ef	jal	x1,80000e94	  x1=0x80000e94
        5905000	       589	00000000	00000013	addi	x0,x0,0	  x0:0x00000000
        5915000	       590	80000eb4	00000013	addi	x0,x0,0	  x0:0x00000000
        5925000	       591	80000eb8	014000ef	jal	x1,80000eb8	  x1=0x80000eb8
        5935000	       592	00000000	00000013	addi	x0,x0,0	  x0:0x00000000
        5945000	       593	80000ec8	00000013	addi	x0,x0,0	  x0:0x00000000
        5955000	       594	80000ecc	00400f6f	jal	x30,80000ecc	 x30=0x80000ecc
        5965000	       595	00000000	00000013	addi	x0,x0,0	  x0:0x00000000
        5975000	       596	80000ecc	00000013	addi	x0,x0,0	  x0:0x00000000
        5985000	       597	80000ed0	fd5ff0ef	jal	x1,80000ed0	  x1=0x80000ed0
        5995000	       598	00000000	00000013	addi	x0,x0,0	  x0:0x00000000
        6005000	       599	80000ea0	00000013	addi	x0,x0,0	  x0:0x00000000
        6015000	       600	80000ea4	030000ef	jal	x1,80000ea4	  x1=0x80000ea4
        6025000	       601	00000000	00000013	addi	x0,x0,0	  x0:0x00000000
        6035000	       602	80000ed0	00000013	addi	x0,x0,0	  x0:0x00000000
        6045000	       603	80000ed4	fcdff0ef	jal	x1,80000ed4	  x1=0x80000ed4
        6055000	       604	00000000	00000013	addi	x0,x0,0	  x0:0x00000000
        6065000	       605	80000e9c	00000013	addi	x0,x0,0	  x0:0x00000000
        6075000	       606	80000ea0	00c0036f	jal	x6,80000ea0	  x6=0x80000ea0
        6085000	       607	00000000	00000013	addi	x0,x0,0	  x0:0x00000000
        6095000	       608	80000ea8	00000013	addi	x0,x0,0	  x0:0x00000000
        6105000	       609	80000eac	ff1ff0ef	jal	x1,80000eac	  x1=0x80000eac
        6115000	       610	00000000	00000013	addi	x0,x0,0	  x0:0x00000000
        6125000	       611	80000e98	00000013	addi	x0,x0,0	  x0:0x00000000
        6135000	       612	80000e9c	fd5ff36f	jal	x6,80000e9c	  x6=0x80000e9c
        6145000	       613	00000000	00000013	addi	x0,x0,0	  x0:0x00000000
        6155000	       614	80000e6c	00000013	addi	x0,x0,0	  x0:0x00000000
        6165000	       615	80000e70	00c000ef	jal	x1,80000e70	  x1=0x80000e70
        6175000	       616	00000000	00000013	addi	x0,x0,0	  x0:0x00000000
        6185000	       617	80000e78	00000013	addi	x0,x0,0	  x0:0x00000000
        6195000	       618	80000e7c	04c000ef	jal	x1,80000e7c	  x1=0x80000e7c
        6205000	       619	00000000	00000013	addi	x0,x0,0	  x0:0x00000000
        6215000	       620	80000ec4	00000013	addi	x0,x0,0	  x0:0x00000000
        6225000	       621	80000ec8	fedff0ef	jal	x1,80000ec8	  x1=0x80000ec8
        6235000	       622	00000000	00000013	addi	x0,x0,0	  x0:0x00000000
        6245000	       623	80000eb0	00000013	addi	x0,x0,0	  x0:0x00000000
        6255000	       624	80000eb4	ff5ff0ef	jal	x1,80000eb4	  x1=0x80000eb4
        6265000	       625	00000000	00000013	addi	x0,x0,0	  x0:0x00000000
        6275000	       626	80000ea4	00000013	addi	x0,x0,0	  x0:0x00000000
        6285000	       627	80000ea8	fcdff7ef	jal	x15,80000ea8	 x15=0x80000ea8
        6295000	       628	00000000	00000013	addi	x0,x0,0	  x0:0x00000000
        6305000	       629	80000e70	00000013	addi	x0,x0,0	  x0:0x00000000
        6315000	       630	80000e74	004000ef	jal	x1,80000e74	  x1=0x80000e74
        6325000	       631	00000000	00000013	addi	x0,x0,0	  x0:0x00000000
        6335000	       632	80000e74	00000013	addi	x0,x0,0	  x0:0x00000000
        6345000	       633	80000e78	038000ef	jal	x1,80000e78	  x1=0x80000e78
        6355000	       634	00000000	00000013	addi	x0,x0,0	  x0:0x00000000
        6365000	       635	80000eac	00000013	addi	x0,x0,0	  x0:0x00000000
        6375000	       636	80000eb0	fe9ff16f	jal	x2,80000eb0	  x2=0x80000eb0
        6385000	       637	00000000	00000013	addi	x0,x0,0	  x0:0x00000000
        6395000	       638	80000e94	00000013	addi	x0,x0,0	  x0:0x00000000
        6405000	       639	80000e98	02c000ef	jal	x1,80000e98	  x1=0x80000e98
        6415000	       640	00000000	00000013	addi	x0,x0,0	  x0:0x00000000
        6425000	       641	80000ec0	00000013	addi	x0,x0,0	  x0:0x00000000
        6435000	       642	80000ec4	fc5ff0ef	jal	x1,80000ec4	  x1=0x80000ec4
        6445000	       643	00000000	00000013	addi	x0,x0,0	  x0:0x00000000
        6455000	       644	80000e84	00000013	addi	x0,x0,0	  x0:0x00000000
        6465000	       645	80000e88	ffdffe6f	jal	x28,80000e88	 x28=0x80000e88
        6475000	       646	00000000	00000013	addi	x0,x0,0	  x0:0x00000000
        6485000	       647	80000e80	00000013	addi	x0,x0,0	  x0:0x00000000
        6495000	       648	80000e84	0380026f	jal	x4,80000e84	  x4=0x80000e84
        6505000	       649	00000000	00000013	addi	x0,x0,0	  x0:0x00000000
        6515000	       650	80000eb8	00000013	addi	x0,x0,0	  x0:0x00000000
        6525000	       651	80000ebc	fd5ff2ef	jal	x5,80000ebc	  x5=0x80000ebc
        6535000	       652	00000000	00000013	addi	x0,x0,0	  x0:0x00000000
        6545000	       653	80000e8c	00000013	addi	x0,x0,0	  x0:0x00000000
        6555000	       654	80000e90	04c000ef	jal	x1,80000e90	  x1=0x80000e90
        6565000	       655	00000000	00000013	addi	x0,x0,0	  x0:0x00000000
        6575000	       656	80000ed8	00000013	addi	x0,x0,0	  x0:0x00000000
        6585000	       657	80000edc	bf300497	auipc	x9,0xbf300	  x9=0x3f300ed8
        6595000	       658	80000ee0	0300036f	jal	x6,80000ee0	  x6=0x80000ee0
        6605000	       659	00000000	00000013	addi	x0,x0,0	  x0:0x00000000
        6615000	       660	80000f0c	00000013	addi	x0,x0,0	  x0:0x00000000
        6625000	       661	80000f10	0040026f	jal	x4,80000f10	  x4=0x80000f10
        6635000	       662	00000000	00000013	addi	x0,x0,0	  x0:0x00000000
        6645000	       663	80000f10	00000013	addi	x0,x0,0	  x0:0x00000000
        6655000	       664	80000f14	fe1ff0ef	jal	x1,80000f14	  x1=0x80000f14
        6665000	       665	00000000	00000013	addi	x0,x0,0	  x0:0x00000000
        6675000	       666	80000ef0	00000013	addi	x0,x0,0	  x0:0x00000000
        6685000	       667	80000ef4	ff1ff36f	jal	x6,80000ef4	  x6=0x80000ef4
        6695000	       668	00000000	00000013	addi	x0,x0,0	  x0:0x00000000
        6705000	       669	80000ee0	00000013	addi	x0,x0,0	  x0:0x00000000
        6715000	       670	80000ee4	028000ef	jal	x1,80000ee4	  x1=0x80000ee4
        6725000	       671	00000000	00000013	addi	x0,x0,0	  x0:0x00000000
        6735000	       672	80000f08	00000013	addi	x0,x0,0	  x0:0x00000000
        6745000	       673	80000f0c	ff5ffa6f	jal	x20,80000f0c	 x20=0x80000f0c
        6755000	       674	00000000	00000013	addi	x0,x0,0	  x0:0x00000000
        6765000	       675	80000efc	00000013	addi	x0,x0,0	  x0:0x00000000
        6775000	       676	80000f00	00800e6f	jal	x28,80000f00	 x28=0x80000f00
        6785000	       677	00000000	00000013	addi	x0,x0,0	  x0:0x00000000
        6795000	       678	80000f04	00000013	addi	x0,x0,0	  x0:0x00000000
        6805000	       679	80000f08	fe1ffc6f	jal	x24,80000f08	 x24=0x80000f08
        6815000	       680	00000000	00000013	addi	x0,x0,0	  x0:0x00000000
        6825000	       681	80000ee4	00000013	addi	x0,x0,0	  x0:0x00000000
        6835000	       682	80000ee8	0080036f	jal	x6,80000ee8	  x6=0x80000ee8
        6845000	       683	00000000	00000013	addi	x0,x0,0	  x0:0x00000000
        6855000	       684	80000eec	00000013	addi	x0,x0,0	  x0:0x00000000
        6865000	       685	80000ef0	00c00f6f	jal	x30,80000ef0	 x30=0x80000ef0
        6875000	       686	00000000	00000013	addi	x0,x0,0	  x0:0x00000000
        6885000	       687	80000ef8	00000013	addi	x0,x0,0	  x0:0x00000000
        6895000	       688	80000efc	ff1ff0ef	jal	x1,80000efc	  x1=0x80000efc
        6905000	       689	00000000	00000013	addi	x0,x0,0	  x0:0x00000000
        6915000	       690	80000ee8	00000013	addi	x0,x0,0	  x0:0x00000000
        6925000	       691	80000eec	018000ef	jal	x1,80000eec	  x1=0x80000eec
        6935000	       692	00000000	00000013	addi	x0,x0,0	  x0:0x00000000
        6945000	       693	80000f00	00000013	addi	x0,x0,0	  x0:0x00000000
        6955000	       694	80000f04	ff5ff3ef	jal	x7,80000f04	  x7=0x80000f04
        6965000	       695	00000000	00000013	addi	x0,x0,0	  x0:0x00000000
        6975000	       696	80000ef4	00000013	addi	x0,x0,0	  x0:0x00000000
        6985000	       697	80000ef8	0200026f	jal	x4,80000ef8	  x4=0x80000ef8
        6995000	       698	00000000	00000013	addi	x0,x0,0	  x0:0x00000000
        7005000	       699	80000f14	00000013	addi	x0,x0,0	  x0:0x00000000
        7015000	       700	80000f18	00c2ca33	xor	x20,x5,x12	  x5:0x80000ebc x12:0x8b581e68 x20=0x0b5810d4
        7025000	       701	80000f1c	01c0036f	jal	x6,80000f1c	  x6=0x80000f1c
        7035000	       702	00000000	00000013	addi	x0,x0,0	  x0:0x00000000
        7045000	       703	80000f34	00000013	addi	x0,x0,0	  x0:0x00000000
        7055000	       704	80000f38	004007ef	jal	x15,80000f38	 x15=0x80000f38
        7065000	       705	00000000	00000013	addi	x0,x0,0	  x0:0x00000000
        7075000	       706	80000f38	00000013	addi	x0,x0,0	  x0:0x00000000
        7085000	       707	80000f3c	fe9ff0ef	jal	x1,80000f3c	  x1=0x80000f3c
        7095000	       708	00000000	00000013	addi	x0,x0,0	  x0:0x00000000
        7105000	       709	80000f20	00000013	addi	x0,x0,0	  x0:0x00000000
        7115000	       710	80000f24	004000ef	jal	x1,80000f24	  x1=0x80000f24
        7125000	       711	00000000	00000013	addi	x0,x0,0	  x0:0x00000000
        7135000	       712	80000f24	00000013	addi	x0,x0,0	  x0:0x00000000
        7145000	       713	80000f28	ff9ff0ef	jal	x1,80000f28	  x1=0x80000f28
        7155000	       714	00000000	00000013	addi	x0,x0,0	  x0:0x00000000
        7165000	       715	80000f1c	00000013	addi	x0,x0,0	  x0:0x00000000
        7175000	       716	80000f20	03800b6f	jal	x22,80000f20	 x22=0x80000f20
        7185000	       717	00000000	00000013	addi	x0,x0,0	  x0:0x00000000
        7195000	       718	80000f54	00000013	addi	x0,x0,0	  x0:0x00000000
        7205000	       719	80000f58	010000ef	jal	x1,80000f58	  x1=0x80000f58
        7215000	       720	00000000	00000013	addi	x0,x0,0	  x0:0x00000000
        7225000	       721	80000f64	00000013	addi	x0,x0,0	  x0:0x00000000
        7235000	       722	80000f68	fd9ff0ef	jal	x1,80000f68	  x1=0x80000f68
        7245000	       723	00000000	00000013	addi	x0,x0,0	  x0:0x00000000
        7255000	       724	80000f3c	00000013	addi	x0,x0,0	  x0:0x00000000
        7265000	       725	80000f40	024000ef	jal	x1,80000f40	  x1=0x80000f40
        7275000	       726	00000000	00000013	addi	x0,x0,0	  x0:0x00000000
        7285000	       727	80000f60	00000013	addi	x0,x0,0	  x0:0x00000000
        7295000	       728	80000f64	ffdffbef	jal	x23,80000f64	 x23=0x80000f64
        7305000	       729	00000000	00000013	addi	x0,x0,0	  x0:0x00000000
        7315000	       730	80000f5c	00000013	addi	x0,x0,0	  x0:0x00000000
        7325000	       731	80000f60	fe9ff36f	jal	x6,80000f60	  x6=0x80000f60
        7335000	       732	00000000	00000013	addi	x0,x0,0	  x0:0x00000000
        7345000	       733	80000f44	00000013	addi	x0,x0,0	  x0:0x00000000
        7355000	       734	80000f48	fe9ff0ef	jal	x1,80000f48	  x1=0x80000f48
        7365000	       735	00000000	00000013	addi	x0,x0,0	  x0:0x00000000
        7375000	       736	80000f2c	00000013	addi	x0,x0,0	  x0:0x00000000
        7385000	       737	80000f30	020003ef	jal	x7,80000f30	  x7=0x80000f30
        7395000	       738	00000000	00000013	addi	x0,x0,0	  x0:0x00000000
        7405000	       739	80000f4c	00000013	addi	x0,x0,0	  x0:0x00000000
        7415000	       740	80000f50	0040036f	jal	x6,80000f50	  x6=0x80000f50
        7425000	       741	00000000	00000013	addi	x0,x0,0	  x0:0x00000000
        7435000	       742	80000f50	00000013	addi	x0,x0,0	  x0:0x00000000
        7445000	       743	80000f54	fe1ff0ef	jal	x1,80000f54	  x1=0x80000f54
        7455000	       744	00000000	00000013	addi	x0,x0,0	  x0:0x00000000
        7465000	       745	80000f30	00000013	addi	x0,x0,0	  x0:0x00000000
        7475000	       746	80000f34	028000ef	jal	x1,80000f34	  x1=0x80000f34
        7485000	       747	00000000	00000013	addi	x0,x0,0	  x0:0x00000000
        7495000	       748	80000f58	00000013	addi	x0,x0,0	  x0:0x00000000
        7505000	       749	80000f5c	ff1ff0ef	jal	x1,80000f5c	  x1=0x80000f5c
        7515000	       750	00000000	00000013	addi	x0,x0,0	  x0:0x00000000
        7525000	       751	80000f48	00000013	addi	x0,x0,0	  x0:0x00000000
        7535000	       752	80000f4c	ff9ff16f	jal	x2,80000f4c	  x2=0x80000f4c
        7545000	       753	00000000	00000013	addi	x0,x0,0	  x0:0x00000000
        7555000	       754	80000f40	00000013	addi	x0,x0,0	  x0:0x00000000
        7565000	       755	80000f44	fe9ff0ef	jal	x1,80000f44	  x1=0x80000f44
        7575000	       756	00000000	00000013	addi	x0,x0,0	  x0:0x00000000
        7585000	       757	80000f28	00000013	addi	x0,x0,0	  x0:0x00000000
        7595000	       758	80000f2c	0400036f	jal	x6,80000f2c	  x6=0x80000f2c
        7605000	       759	00000000	00000013	addi	x0,x0,0	  x0:0x00000000
        7615000	       760	80000f68	00000013	addi	x0,x0,0	  x0:0x00000000
        7625000	       761	80000f6c	d01df193	andi	x3,x27,-767	 x27:0x80000e3c  x3=0x80000c00
        7635000	       762	80000f70	05c0036f	jal	x6,80000f70	  x6=0x80000f70
        7645000	       763	00000000	00000013	addi	x0,x0,0	  x0:0x00000000
        7655000	       764	80000fc8	00000013	addi	x0,x0,0	  x0:0x00000000
        7665000	       765	80000fcc	ffdff0ef	jal	x1,80000fcc	  x1=0x80000fcc
        7675000	       766	00000000	00000013	addi	x0,x0,0	  x0:0x00000000
        7685000	       767	80000fc4	00000013	addi	x0,x0,0	  x0:0x00000000
        7695000	       768	80000fc8	fd1ff0ef	jal	x1,80000fc8	  x1=0x80000fc8
        7705000	       769	00000000	00000013	addi	x0,x0,0	  x0:0x00000000
        7715000	       770	80000f94	00000013	addi	x0,x0,0	  x0:0x00000000
        7725000	       771	80000f98	0140036f	jal	x6,80000f98	  x6=0x80000f98
        7735000	       772	00000000	00000013	addi	x0,x0,0	  x0:0x00000000
        7745000	       773	80000fa8	00000013	addi	x0,x0,0	  x0:0x00000000
        7755000	       774	80000fac	01400fef	jal	x31,80000fac	 x31=0x80000fac
        7765000	       775	00000000	00000013	addi	x0,x0,0	  x0:0x00000000
        7775000	       776	80000fbc	00000013	addi	x0,x0,0	  x0:0x00000000
        7785000	       777	80000fc0	fb5ffdef	jal	x27,80000fc0	 x27=0x80000fc0
        7795000	       778	00000000	00000013	addi	x0,x0,0	  x0:0x00000000
        7805000	       779	80000f70	00000013	addi	x0,x0,0	  x0:0x00000000
        7815000	       780	80000f74	02c0036f	jal	x6,80000f74	  x6=0x80000f74
        7825000	       781	00000000	00000013	addi	x0,x0,0	  x0:0x00000000
        7835000	       782	80000f9c	00000013	addi	x0,x0,0	  x0:0x00000000
        7845000	       783	80000fa0	fe9ff0ef	jal	x1,80000fa0	  x1=0x80000fa0
        7855000	       784	00000000	00000013	addi	x0,x0,0	  x0:0x00000000
        7865000	       785	80000f84	00000013	addi	x0,x0,0	  x0:0x00000000
        7875000	       786	80000f88	034000ef	jal	x1,80000f88	  x1=0x80000f88
        7885000	       787	00000000	00000013	addi	x0,x0,0	  x0:0x00000000
        7895000	       788	80000fb8	00000013	addi	x0,x0,0	  x0:0x00000000
        7905000	       789	80000fbc	fe9ff8ef	jal	x17,80000fbc	 x17=0x80000fbc
        7915000	       790	00000000	00000013	addi	x0,x0,0	  x0:0x00000000
        7925000	       791	80000fa0	00000013	addi	x0,x0,0	  x0:0x00000000
        7935000	       792	80000fa4	ff9ff0ef	jal	x1,80000fa4	  x1=0x80000fa4
        7945000	       793	00000000	00000013	addi	x0,x0,0	  x0:0x00000000
        7955000	       794	80000f98	00000013	addi	x0,x0,0	  x0:0x00000000
        7965000	       795	80000f9c	ff5ff0ef	jal	x1,80000f9c	  x1=0x80000f9c
        7975000	       796	00000000	00000013	addi	x0,x0,0	  x0:0x00000000
        7985000	       797	80000f8c	00000013	addi	x0,x0,0	  x0:0x00000000
        7995000	       798	80000f90	ff1ff0ef	jal	x1,80000f90	  x1=0x80000f90
        8005000	       799	00000000	00000013	addi	x0,x0,0	  x0:0x00000000
        8015000	       800	80000f7c	00000013	addi	x0,x0,0	  x0:0x00000000
        8025000	       801	80000f80	ff9ff0ef	jal	x1,80000f80	  x1=0x80000f80
        8035000	       802	00000000	00000013	addi	x0,x0,0	  x0:0x00000000
        8045000	       803	80000f74	00000013	addi	x0,x0,0	  x0:0x00000000
        8055000	       804	80000f78	01400f6f	jal	x30,80000f78	 x30=0x80000f78
        8065000	       805	00000000	00000013	addi	x0,x0,0	  x0:0x00000000
        8075000	       806	80000f88	00000013	addi	x0,x0,0	  x0:0x00000000
        8085000	       807	80000f8c	0380036f	jal	x6,80000f8c	  x6=0x80000f8c
        8095000	       808	00000000	00000013	addi	x0,x0,0	  x0:0x00000000
        8105000	       809	80000fc0	00000013	addi	x0,x0,0	  x0:0x00000000
        8115000	       810	80000fc4	ff5ff0ef	jal	x1,80000fc4	  x1=0x80000fc4
        8125000	       811	00000000	00000013	addi	x0,x0,0	  x0:0x00000000
        8135000	       812	80000fb4	00000013	addi	x0,x0,0	  x0:0x00000000
        8145000	       813	80000fb8	fc5ff2ef	jal	x5,80000fb8	  x5=0x80000fb8
        8155000	       814	00000000	00000013	addi	x0,x0,0	  x0:0x00000000
        8165000	       815	80000f78	00000013	addi	x0,x0,0	  x0:0x00000000
        8175000	       816	80000f7c	01800def	jal	x27,80000f7c	 x27=0x80000f7c
        8185000	       817	00000000	00000013	addi	x0,x0,0	  x0:0x00000000
        8195000	       818	80000f90	00000013	addi	x0,x0,0	  x0:0x00000000
        8205000	       819	80000f94	01c000ef	jal	x1,80000f94	  x1=0x80000f94
        8215000	       820	00000000	00000013	addi	x0,x0,0	  x0:0x00000000
        8225000	       821	80000fac	00000013	addi	x0,x0,0	  x0:0x00000000
        8235000	       822	80000fb0	ff9ffd6f	jal	x26,80000fb0	 x26=0x80000fb0
        8245000	       823	00000000	00000013	addi	x0,x0,0	  x0:0x00000000
        8255000	       824	80000fa4	00000013	addi	x0,x0,0	  x0:0x00000000
        8265000	       825	80000fa8	fddff0ef	jal	x1,80000fa8	  x1=0x80000fa8
        8275000	       826	00000000	00000013	addi	x0,x0,0	  x0:0x00000000
        8285000	       827	80000f80	00000013	addi	x0,x0,0	  x0:0x00000000
        8295000	       828	80000f84	03000f6f	jal	x30,80000f84	 x30=0x80000f84
        8305000	       829	00000000	00000013	addi	x0,x0,0	  x0:0x00000000
        8315000	       830	80000fb0	00000013	addi	x0,x0,0	  x0:0x00000000
        8325000	       831	80000fb4	01c0096f	jal	x18,80000fb4	 x18=0x80000fb4
        8335000	       832	00000000	00000013	addi	x0,x0,0	  x0:0x00000000
        8345000	       833	80000fcc	00000013	addi	x0,x0,0	  x0:0x00000000
        8355000	       834	80000fd0	7b874713	xori	x14,x14,1976	 x14:0x80000cac x14=0x80000b14
        8365000	       835	80000fd4	01c0036f	jal	x6,80000fd4	  x6=0x80000fd4
        8375000	       836	00000000	00000013	addi	x0,x0,0	  x0:0x00000000
        8385000	       837	80000fec	00000013	addi	x0,x0,0	  x0:0x00000000
        8395000	       838	80000ff0	fedff0ef	jal	x1,80000ff0	  x1=0x80000ff0
        8405000	       839	00000000	00000013	addi	x0,x0,0	  x0:0x00000000
        8415000	       840	80000fd8	00000013	addi	x0,x0,0	  x0:0x00000000
        8425000	       841	80000fdc	03000e6f	jal	x28,80000fdc	 x28=0x80000fdc
        8435000	       842	00000000	00000013	addi	x0,x0,0	  x0:0x00000000
        8445000	       843	80001008	00000013	addi	x0,x0,0	  x0:0x00000000
        8455000	       844	8000100c	ff5ffd6f	jal	x26,8000100c	 x26=0x8000100c
        8465000	       845	00000000	00000013	addi	x0,x0,0	  x0:0x00000000
        8475000	       846	80000ffc	00000013	addi	x0,x0,0	  x0:0x00000000
        8485000	       847	80001000	0280036f	jal	x6,80001000	  x6=0x80001000
        8495000	       848	00000000	00000013	addi	x0,x0,0	  x0:0x00000000
        8505000	       849	80001024	00000013	addi	x0,x0,0	  x0:0x00000000
        8515000	       850	80001028	fd1ff0ef	jal	x1,80001028	  x1=0x80001028
        8525000	       851	00000000	00000013	addi	x0,x0,0	  x0:0x00000000
        8535000	       852	80000ff4	00000013	addi	x0,x0,0	  x0:0x00000000
        8545000	       853	80000ff8	044000ef	jal	x1,80000ff8	  x1=0x80000ff8
        8555000	       854	00000000	00000013	addi	x0,x0,0	  x0:0x00000000
        8565000	       855	80001038	00000013	addi	x0,x0,0	  x0:0x00000000
        8575000	       856	8000103c	004000ef	jal	x1,8000103c	  x1=0x8000103c
        8585000	       857	00000000	00000013	addi	x0,x0,0	  x0:0x00000000
        8595000	       858	8000103c	00000013	addi	x0,x0,0	  x0:0x00000000
        8605000	       859	80001040	fa1ff0ef	jal	x1,80001040	  x1=0x80001040
        8615000	       860	00000000	00000013	addi	x0,x0,0	  x0:0x00000000
        8625000	       861	80000fdc	00000013	addi	x0,x0,0	  x0:0x00000000
        8635000	       862	80000fe0	058002ef	jal	x5,80000fe0	  x5=0x80000fe0
        8645000	       863	00000000	00000013	addi	x0,x0,0	  x0:0x00000000
        8655000	       864	80001034	00000013	addi	x0,x0,0	  x0:0x00000000
        8665000	       865	80001038	010000ef	jal	x1,80001038	  x1=0x80001038
        8675000	       866	00000000	00000013	addi	x0,x0,0	  x0:0x00000000
        8685000	       867	80001044	00000013	addi	x0,x0,0	  x0:0x00000000
        8695000	       868	80001048	fddff1ef	jal	x3,80001048	  x3=0x80001048
        8705000	       869	00000000	00000013	addi	x0,x0,0	  x0:0x00000000
        8715000	       870	80001020	00000013	addi	x0,x0,0	  x0:0x00000000
        8725000	       871	80001024	ffdffdef	jal	x27,80001024	 x27=0x80001024
        8735000	       872	00000000	00000013	addi	x0,x0,0	  x0:0x00000000
        8745000	       873	8000101c	00000013	addi	x0,x0,0	  x0:0x00000000
        8755000	       874	80001020	fddff0ef	jal	x1,80001020	  x1=0x80001020
        8765000	       875	00000000	00000013	addi	x0,x0,0	  x0:0x00000000
        8775000	       876	80000ff8	00000013	addi	x0,x0,0	  x0:0x00000000
        8785000	       877	80000ffc	fddff96f	jal	x18,80000ffc	 x18=0x80000ffc
        8795000	       878	00000000	00000013	addi	x0,x0,0	  x0:0x00000000
        8805000	       879	80000fd4	00000013	addi	x0,x0,0	  x0:0x00000000
        8815000	       880	80000fd8	040003ef	jal	x7,80000fd8	  x7=0x80000fd8
        8825000	       881	00000000	00000013	addi	x0,x0,0	  x0:0x00000000
        8835000	       882	80001014	00000013	addi	x0,x0,0	  x0:0x00000000
        8845000	       883	80001018	01c000ef	jal	x1,80001018	  x1=0x80001018
        8855000	       884	00000000	00000013	addi	x0,x0,0	  x0:0x00000000
        8865000	       885	80001030	00000013	addi	x0,x0,0	  x0:0x00000000
        8875000	       886	80001034	fb1ff0ef	jal	x1,80001034	  x1=0x80001034
        8885000	       887	00000000	00000013	addi	x0,x0,0	  x0:0x00000000
        8895000	       888	80000fe0	00000013	addi	x0,x0,0	  x0:0x00000000
        8905000	       889	80000fe4	024000ef	jal	x1,80000fe4	  x1=0x80000fe4
        8915000	       890	00000000	00000013	addi	x0,x0,0	  x0:0x00000000
        8925000	       891	80001004	00000013	addi	x0,x0,0	  x0:0x00000000
        8935000	       892	80001008	014000ef	jal	x1,80001008	  x1=0x80001008
        8945000	       893	00000000	00000013	addi	x0,x0,0	  x0:0x00000000
        8955000	       894	80001018	00000013	addi	x0,x0,0	  x0:0x00000000
        8965000	       895	8000101c	014006ef	jal	x13,8000101c	 x13=0x8000101c
        8975000	       896	00000000	00000013	addi	x0,x0,0	  x0:0x00000000
        8985000	       897	8000102c	00000013	addi	x0,x0,0	  x0:0x00000000
        8995000	       898	80001030	ffdff0ef	jal	x1,80001030	  x1=0x80001030
        9005000	       899	00000000	00000013	addi	x0,x0,0	  x0:0x00000000
        9015000	       900	80001028	00000013	addi	x0,x0,0	  x0:0x00000000
        9025000	       901	8000102c	fd9ff0ef	jal	x1,8000102c	  x1=0x8000102c
        9035000	       902	00000000	00000013	addi	x0,x0,0	  x0:0x00000000
        9045000	       903	80001000	00000013	addi	x0,x0,0	  x0:0x00000000
        9055000	       904	80001004	0400036f	jal	x6,80001004	  x6=0x80001004
        9065000	       905	00000000	00000013	addi	x0,x0,0	  x0:0x00000000
        9075000	       906	80001040	00000013	addi	x0,x0,0	  x0:0x00000000
        9085000	       907	80001044	fa5ff0ef	jal	x1,80001044	  x1=0x80001044
        9095000	       908	00000000	00000013	addi	x0,x0,0	  x0:0x00000000
        9105000	       909	80000fe4	00000013	addi	x0,x0,0	  x0:0x00000000
        9115000	       910	80000fe8	004000ef	jal	x1,80000fe8	  x1=0x80000fe8
        9125000	       911	00000000	00000013	addi	x0,x0,0	  x0:0x00000000
        9135000	       912	80000fe8	00000013	addi	x0,x0,0	  x0:0x00000000
        9145000	       913	80000fec	008000ef	jal	x1,80000fec	  x1=0x80000fec
        9155000	       914	00000000	00000013	addi	x0,x0,0	  x0:0x00000000
        9165000	       915	80000ff0	00000013	addi	x0,x0,0	  x0:0x00000000
        9175000	       916	80000ff4	020000ef	jal	x1,80000ff4	  x1=0x80000ff4
        9185000	       917	00000000	00000013	addi	x0,x0,0	  x0:0x00000000
        9195000	       918	80001010	00000013	addi	x0,x0,0	  x0:0x00000000
        9205000	       919	80001014	ffdff36f	jal	x6,80001014	  x6=0x80001014
        9215000	       920	00000000	00000013	addi	x0,x0,0	  x0:0x00000000
        9225000	       921	8000100c	00000013	addi	x0,x0,0	  x0:0x00000000
        9235000	       922	80001010	03c000ef	jal	x1,80001010	  x1=0x80001010
        9245000	       923	00000000	00000013	addi	x0,x0,0	  x0:0x00000000
        9255000	       924	80001048	00000013	addi	x0,x0,0	  x0:0x00000000
        9265000	       925	8000104c	00650a33	add	x20,x10,x6	 x10:0x80000da0  x6:0x80001014 x20=0x00001db4
        9275000	       926	80001050	0180036f	jal	x6,80001050	  x6=0x80001050
        9285000	       927	00000000	00000013	addi	x0,x0,0	  x0:0x00000000
        9295000	       928	80001064	00000013	addi	x0,x0,0	  x0:0x00000000
        9305000	       929	80001068	00c0036f	jal	x6,80001068	  x6=0x80001068
        9315000	       930	00000000	00000013	addi	x0,x0,0	  x0:0x00000000
        9325000	       931	80001070	00000013	addi	x0,x0,0	  x0:0x00000000
        9335000	       932	80001074	ff1ff36f	jal	x6,80001074	  x6=0x80001074
        9345000	       933	00000000	00000013	addi	x0,x0,0	  x0:0x00000000
        9355000	       934	80001060	00000013	addi	x0,x0,0	  x0:0x00000000
        9365000	       935	80001064	008008ef	jal	x17,80001064	 x17=0x80001064
        9375000	       936	00000000	00000013	addi	x0,x0,0	  x0:0x00000000
        9385000	       937	80001068	00000013	addi	x0,x0,0	  x0:0x00000000
        9395000	       938	8000106c	fe9ff0ef	jal	x1,8000106c	  x1=0x8000106c
        9405000	       939	00000000	00000013	addi	x0,x0,0	  x0:0x00000000
        9415000	       940	80001050	00000013	addi	x0,x0,0	  x0:0x00000000
        9425000	       941	80001054	01c000ef	jal	x1,80001054	  x1=0x80001054
        9435000	       942	00000000	00000013	addi	x0,x0,0	  x0:0x00000000
        9445000	       943	8000106c	00000013	addi	x0,x0,0	  x0:0x00000000
        9455000	       944	80001070	fedff26f	jal	x4,80001070	  x4=0x80001070
        9465000	       945	00000000	00000013	addi	x0,x0,0	  x0:0x00000000
        9475000	       946	80001058	00000013	addi	x0,x0,0	  x0:0x00000000
        9485000	       947	8000105c	01c00fef	jal	x31,8000105c	 x31=0x8000105c
        9495000	       948	00000000	00000013	addi	x0,x0,0	  x0:0x00000000
        9505000	       949	80001074	00000013	addi	x0,x0,0	  x0:0x00000000
        9515000	       950	80001078	fe9ff0ef	jal	x1,80001078	  x1=0x80001078
        9525000	       951	00000000	00000013	addi	x0,x0,0	  x0:0x00000000
        9535000	       952	8000105c	00000013	addi	x0,x0,0	  x0:0x00000000
        9545000	       953	80001060	01c000ef	jal	x1,80001060	  x1=0x80001060
        9555000	       954	00000000	00000013	addi	x0,x0,0	  x0:0x00000000
        9565000	       955	80001078	00000013	addi	x0,x0,0	  x0:0x00000000
        9575000	       956	8000107c	fddff2ef	jal	x5,8000107c	  x5=0x8000107c
        9585000	       957	00000000	00000013	addi	x0,x0,0	  x0:0x00000000
        9595000	       958	80001054	00000013	addi	x0,x0,0	  x0:0x00000000
        9605000	       959	80001058	028000ef	jal	x1,80001058	  x1=0x80001058
        9615000	       960	00000000	00000013	addi	x0,x0,0	  x0:0x00000000
        9625000	       961	8000107c	00000013	addi	x0,x0,0	  x0:0x00000000
        9635000	       962	80001080	40715433	sra	x8,x2,x7	  x2:0x80000f4c  x7:0x80000fd8  x8=0xffffff80
        9645000	       963	80001084	0100036f	jal	x6,80001084	  x6=0x80001084
        9655000	       964	00000000	00000013	addi	x0,x0,0	  x0:0x00000000
        9665000	       965	80001090	00000013	addi	x0,x0,0	  x0:0x00000000
        9675000	       966	80001094	ff5ff76f	jal	x14,80001094	 x14=0x80001094
        9685000	       967	00000000	00000013	addi	x0,x0,0	  x0:0x00000000
        9695000	       968	80001084	00000013	addi	x0,x0,0	  x0:0x00000000
        9705000	       969	80001088	0080036f	jal	x6,80001088	  x6=0x80001088
        9715000	       970	00000000	00000013	addi	x0,x0,0	  x0:0x00000000
        9725000	       971	8000108c	00000013	addi	x0,x0,0	  x0:0x00000000
        9735000	       972	80001090	01c000ef	jal	x1,80001090	  x1=0x80001090
        9745000	       973	00000000	00000013	addi	x0,x0,0	  x0:0x00000000
        9755000	       974	800010a8	00000013	addi	x0,x0,0	  x0:0x00000000
        9765000	       975	800010ac	ff5ff0ef	jal	x1,800010ac	  x1=0x800010ac
        9775000	       976	00000000	00000013	addi	x0,x0,0	  x0:0x00000000
        9785000	       977	8000109c	00000013	addi	x0,x0,0	  x0:0x00000000
        9795000	       978	800010a0	014000ef	jal	x1,800010a0	  x1=0x800010a0
        9805000	       979	00000000	00000013	addi	x0,x0,0	  x0:0x00000000
        9815000	       980	800010b0	00000013	addi	x0,x0,0	  x0:0x00000000
        9825000	       981	800010b4	008000ef	jal	x1,800010b4	  x1=0x800010b4
        9835000	       982	00000000	00000013	addi	x0,x0,0	  x0:0x00000000
        9845000	       983	800010b8	00000013	addi	x0,x0,0	  x0:0x00000000
        9855000	       984	800010bc	010000ef	jal	x1,800010bc	  x1=0x800010bc
        9865000	       985	00000000	00000013	addi	x0,x0,0	  x0:0x00000000
        9875000	       986	800010c8	00000013	addi	x0,x0,0	  x0:0x00000000
        9885000	       987	800010cc	fe5ff0ef	jal	x1,800010cc	  x1=0x800010cc
        9895000	       988	00000000	00000013	addi	x0,x0,0	  x0:0x00000000
        9905000	       989	800010ac	00000013	addi	x0,x0,0	  x0:0x00000000
        9915000	       990	800010b0	020000ef	jal	x1,800010b0	  x1=0x800010b0
        9925000	       991	00000000	00000013	addi	x0,x0,0	  x0:0x00000000
        9935000	       992	800010cc	00000013	addi	x0,x0,0	  x0:0x00000000
        9945000	       993	800010d0	fe9ff2ef	jal	x5,800010d0	  x5=0x800010d0
        9955000	       994	00000000	00000013	addi	x0,x0,0	  x0:0x00000000
        9965000	       995	800010b4	00000013	addi	x0,x0,0	  x0:0x00000000
        9975000	       996	800010b8	fd5ff0ef	jal	x1,800010b8	  x1=0x800010b8
        9985000	       997	00000000	00000013	addi	x0,x0,0	  x0:0x00000000
        9995000	       998	80001088	00000013	addi	x0,x0,0	  x0:0x00000000
       10005000	       999	8000108c	0340036f	jal	x6,8000108c	  x6=0x8000108c
       10015000	      1000	00000000	00000013	addi	x0,x0,0	  x0:0x00000000
       10025000	      1001	800010bc	00000013	addi	x0,x0,0	  x0:0x00000000
       10035000	      1002	800010c0	008006ef	jal	x13,800010c0	 x13=0x800010c0
       10045000	      1003	00000000	00000013	addi	x0,x0,0	  x0:0x00000000
       10055000	      1004	800010c4	00000013	addi	x0,x0,0	  x0:0x00000000
       10065000	      1005	800010c8	fe1ff0ef	jal	x1,800010c8	  x1=0x800010c8
       10075000	      1006	00000000	00000013	addi	x0,x0,0	  x0:0x00000000
       10085000	      1007	800010a4	00000013	addi	x0,x0,0	  x0:0x00000000
       10095000	      1008	800010a8	ffdff36f	jal	x6,800010a8	  x6=0x800010a8
       10105000	      1009	00000000	00000013	addi	x0,x0,0	  x0:0x00000000
       10115000	      1010	800010a0	00000013	addi	x0,x0,0	  x0:0x00000000
       10125000	      1011	800010a4	ff5ff0ef	jal	x1,800010a4	  x1=0x800010a4
       10135000	      1012	00000000	00000013	addi	x0,x0,0	  x0:0x00000000
       10145000	      1013	80001094	00000013	addi	x0,x0,0	  x0:0x00000000
       10155000	      1014	80001098	0040096f	jal	x18,80001098	 x18=0x80001098
       10165000	      1015	00000000	00000013	addi	x0,x0,0	  x0:0x00000000
       10175000	      1016	80001098	00000013	addi	x0,x0,0	  x0:0x00000000
       10185000	      1017	8000109c	038000ef	jal	x1,8000109c	  x1=0x8000109c
       10195000	      1018	00000000	00000013	addi	x0,x0,0	  x0:0x00000000
       10205000	      1019	800010d0	00000013	addi	x0,x0,0	  x0:0x00000000
       10215000	      1020	800010d4	ff1ff56f	jal	x10,800010d4	 x10=0x800010d4
       10225000	      1021	00000000	00000013	addi	x0,x0,0	  x0:0x00000000
       10235000	      1022	800010c0	00000013	addi	x0,x0,0	  x0:0x00000000
       10245000	      1023	800010c4	014000ef	jal	x1,800010c4	  x1=0x800010c4
       10255000	      1024	00000000	00000013	addi	x0,x0,0	  x0:0x00000000
       10265000	      1025	800010d4	00000013	addi	x0,x0,0	  x0:0x00000000
       10275000	      1026	800010d8	4c97a913	slti	x18,x15,1225	 x15:0x80000f38 x18=0x00000001
       10285000	      1027	800010dc	03c0036f	jal	x6,800010dc	  x6=0x800010dc
       10295000	      1028	00000000	00000013	addi	x0,x0,0	  x0:0x00000000
       10305000	      1029	80001114	00000013	addi	x0,x0,0	  x0:0x00000000
       10315000	      1030	80001118	ff1ff0ef	jal	x1,80001118	  x1=0x80001118
       10325000	      1031	00000000	00000013	addi	x0,x0,0	  x0:0x00000000
       10335000	      1032	80001104	00000013	addi	x0,x0,0	  x0:0x00000000
       10345000	      1033	80001108	004000ef	jal	x1,80001108	  x1=0x80001108
       10355000	      1034	00000000	00000013	addi	x0,x0,0	  x0:0x00000000
       10365000	      1035	80001108	00000013	addi	x0,x0,0	  x0:0x00000000
       10375000	      1036	8000110c	014000ef	jal	x1,8000110c	  x1=0x8000110c
       10385000	      1037	00000000	00000013	addi	x0,x0,0	  x0:0x00000000
       10395000	      1038	8000111c	00000013	addi	x0,x0,0	  x0:0x00000000
       10405000	      1039	80001120	fd5ff0ef	jal	x1,80001120	  x1=0x80001120
       10415000	      1040	00000000	00000013	addi	x0,x0,0	  x0:0x00000000
       10425000	      1041	800010f0	00000013	addi	x0,x0,0	  x0:0x00000000
       10435000	      1042	800010f4	0200036f	jal	x6,800010f4	  x6=0x800010f4
       10445000	      1043	00000000	00000013	addi	x0,x0,0	  x0:0x00000000
       10455000	      1044	80001110	00000013	addi	x0,x0,0	  x0:0x00000000
       10465000	      1045	80001114	fe9ff0ef	jal	x1,80001114	  x1=0x80001114
       10475000	      1046	00000000	00000013	addi	x0,x0,0	  x0:0x00000000
       10485000	      1047	800010f8	00000013	addi	x0,x0,0	  x0:0x00000000
       10495000	      1048	800010fc	02c0016f	jal	x2,800010fc	  x2=0x800010fc
       10505000	      1049	00000000	00000013	addi	x0,x0,0	  x0:0x00000000
       10515000	      1050	80001124	00000013	addi	x0,x0,0	  x0:0x00000000
       10525000	      1051	80001128	ff5ff0ef	jal	x1,80001128	  x1=0x80001128
       10535000	      1052	00000000	00000013	addi	x0,x0,0	  x0:0x00000000
       10545000	      1053	80001118	00000013	addi	x0,x0,0	  x0:0x00000000
       10555000	      1054	8000111c	fd5ff0ef	jal	x1,8000111c	  x1=0x8000111c
       10565000	      1055	00000000	00000013	addi	x0,x0,0	  x0:0x00000000
       10575000	      1056	800010ec	00000013	addi	x0,x0,0	  x0:0x00000000
       10585000	      1057	800010f0	0140036f	jal	x6,800010f0	  x6=0x800010f0
       10595000	      1058	00000000	00000013	addi	x0,x0,0	  x0:0x00000000
       10605000	      1059	80001100	00000013	addi	x0,x0,0	  x0:0x00000000
       10615000	      1060	80001104	fe5ff0ef	jal	x1,80001104	  x1=0x80001104
       10625000	      1061	00000000	00000013	addi	x0,x0,0	  x0:0x00000000
       10635000	      1062	800010e4	00000013	addi	x0,x0,0	  x0:0x00000000
       10645000	      1063	800010e8	01000a6f	jal	x20,800010e8	 x20=0x800010e8
       10655000	      1064	00000000	00000013	addi	x0,x0,0	  x0:0x00000000
       10665000	      1065	800010f4	00000013	addi	x0,x0,0	  x0:0x00000000
       10675000	      1066	800010f8	018000ef	jal	x1,800010f8	  x1=0x800010f8
       10685000	      1067	00000000	00000013	addi	x0,x0,0	  x0:0x00000000
       10695000	      1068	8000110c	00000013	addi	x0,x0,0	  x0:0x00000000
       10705000	      1069	80001110	ff1ff0ef	jal	x1,80001110	  x1=0x80001110
       10715000	      1070	00000000	00000013	addi	x0,x0,0	  x0:0x00000000
       10725000	      1071	800010fc	00000013	addi	x0,x0,0	  x0:0x00000000
       10735000	      1072	80001100	fe1ff1ef	jal	x3,80001100	  x3=0x80001100
       10745000	      1073	00000000	00000013	addi	x0,x0,0	  x0:0x00000000
       10755000	      1074	800010dc	00000013	addi	x0,x0,0	  x0:0x00000000
       10765000	      1075	800010e0	004000ef	jal	x1,800010e0	  x1=0x800010e0
       10775000	      1076	00000000	00000013	addi	x0,x0,0	  x0:0x00000000
       10785000	      1077	800010e0	00000013	addi	x0,x0,0	  x0:0x00000000
       10795000	      1078	800010e4	008000ef	jal	x1,800010e4	  x1=0x800010e4
       10805000	      1079	00000000	00000013	addi	x0,x0,0	  x0:0x00000000
       10815000	      1080	800010e8	00000013	addi	x0,x0,0	  x0:0x00000000
       10825000	      1081	800010ec	0380046f	jal	x8,800010ec	  x8=0x800010ec
       10835000	      1082	00000000	00000013	addi	x0,x0,0	  x0:0x00000000
       10845000	      1083	80001120	00000013	addi	x0,x0,0	  x0:0x00000000
       10855000	      1084	80001124	008000ef	jal	x1,80001124	  x1=0x80001124
       10865000	      1085	00000000	00000013	addi	x0,x0,0	  x0:0x00000000
       10875000	      1086	80001128	00000013	addi	x0,x0,0	  x0:0x00000000
       10885000	      1087	8000112c	e5834713	xori	x14,x6,-424	  x6:0x800010f0 x14=0x7fffeea8
       10895000	      1088	80001130	0200036f	jal	x6,80001130	  x6=0x80001130
       10905000	      1089	00000000	00000013	addi	x0,x0,0	  x0:0x00000000
       10915000	      1090	8000114c	00000013	addi	x0,x0,0	  x0:0x00000000
       10925000	      1091	80001150	03c006ef	jal	x13,80001150	 x13=0x80001150
       10935000	      1092	00000000	00000013	addi	x0,x0,0	  x0:0x00000000
       10945000	      1093	80001188	00000013	addi	x0,x0,0	  x0:0x00000000
       10955000	      1094	8000118c	fe1ff0ef	jal	x1,8000118c	  x1=0x8000118c
       10965000	      1095	00000000	00000013	addi	x0,x0,0	  x0:0x00000000
       10975000	      1096	80001168	00000013	addi	x0,x0,0	  x0:0x00000000
       10985000	      1097	8000116c	fe1ff0ef	jal	x1,8000116c	  x1=0x8000116c
       10995000	      1098	00000000	00000013	addi	x0,x0,0	  x0:0x00000000
       11005000	      1099	80001148	00000013	addi	x0,x0,0	  x0:0x00000000
       11015000	      1100	8000114c	0300026f	jal	x4,8000114c	  x4=0x8000114c
       11025000	      1101	00000000	00000013	addi	x0,x0,0	  x0:0x00000000
       11035000	      1102	80001178	00000013	addi	x0,x0,0	  x0:0x00000000
       11045000	      1103	8000117c	fc5ff0ef	jal	x1,8000117c	  x1=0x8000117c
       11055000	      1104	00000000	00000013	addi	x0,x0,0	  x0:0x00000000
       11065000	      1105	8000113c	00000013	addi	x0,x0,0	  x0:0x00000000
       11075000	      1106	80001140	0440026f	jal	x4,80001140	  x4=0x80001140
       11085000	      1107	00000000	00000013	addi	x0,x0,0	  x0:0x00000000
       11095000	      1108	80001180	00000013	addi	x0,x0,0	  x0:0x00000000
       11105000	      1109	80001184	00c001ef	jal	x3,80001184	  x3=0x80001184
       11115000	      1110	00000000	00000013	addi	x0,x0,0	  x0:0x00000000
       11125000	      1111	8000118c	00000013	addi	x0,x0,0	  x0:0x00000000
       11135000	      1112	80001190	fadff0ef	jal	x1,80001190	  x1=0x80001190
       11145000	      1113	00000000	00000013	addi	x0,x0,0	  x0:0x00000000
       11155000	      1114	80001138	00000013	addi	x0,x0,0	  x0:0x00000000
       11165000	      1115	8000113c	0200036f	jal	x6,8000113c	  x6=0x8000113c
       11175000	      1116	00000000	00000013	addi	x0,x0,0	  x0:0x00000000
       11185000	      1117	80001158	00000013	addi	x0,x0,0	  x0:0x00000000
       11195000	      1118	8000115c	018000ef	jal	x1,8000115c	  x1=0x8000115c
       11205000	      1119	00000000	00000013	addi	x0,x0,0	  x0:0x00000000
       11215000	      1120	80001170	00000013	addi	x0,x0,0	  x0:0x00000000
       11225000	      1121	80001174	ff5ff0ef	jal	x1,80001174	  x1=0x80001174
       11235000	      1122	00000000	00000013	addi	x0,x0,0	  x0:0x00000000
       11245000	      1123	80001164	00000013	addi	x0,x0,0	  x0:0x00000000
       11255000	      1124	80001168	020000ef	jal	x1,80001168	  x1=0x80001168
       11265000	      1125	00000000	00000013	addi	x0,x0,0	  x0:0x00000000
       11275000	      1126	80001184	00000013	addi	x0,x0,0	  x0:0x00000000
       11285000	      1127	80001188	fbdff0ef	jal	x1,80001188	  x1=0x80001188
       11295000	      1128	00000000	00000013	addi	x0,x0,0	  x0:0x00000000
       11305000	      1129	80001140	00000013	addi	x0,x0,0	  x0:0x00000000
       11315000	      1130	80001144	004000ef	jal	x1,80001144	  x1=0x80001144
       11325000	      1131	00000000	00000013	addi	x0,x0,0	  x0:0x00000000
       11335000	      1132	80001144	00000013	addi	x0,x0,0	  x0:0x00000000
       11345000	      1133	80001148	010000ef	jal	x1,80001148	  x1=0x80001148
       11355000	      1134	00000000	00000013	addi	x0,x0,0	  x0:0x00000000
       11365000	      1135	80001154	00000013	addi	x0,x0,0	  x0:0x00000000
       11375000	      1136	80001158	fe1ffd6f	jal	x26,80001158	 x26=0x80001158
       11385000	      1137	00000000	00000013	addi	x0,x0,0	  x0:0x00000000
       11395000	      1138	80001134	00000013	addi	x0,x0,0	  x0:0x00000000
       11405000	      1139	80001138	040000ef	jal	x1,80001138	  x1=0x80001138
       11415000	      1140	00000000	00000013	addi	x0,x0,0	  x0:0x00000000
       11425000	      1141	80001174	00000013	addi	x0,x0,0	  x0:0x00000000
       11435000	      1142	80001178	fbdff36f	jal	x6,80001178	  x6=0x80001178
       11445000	      1143	00000000	00000013	addi	x0,x0,0	  x0:0x00000000
       11455000	      1144	80001130	00000013	addi	x0,x0,0	  x0:0x00000000
       11465000	      1145	80001134	03c000ef	jal	x1,80001134	  x1=0x80001134
       11475000	      1146	00000000	00000013	addi	x0,x0,0	  x0:0x00000000
       11485000	      1147	8000116c	00000013	addi	x0,x0,0	  x0:0x00000000
       11495000	      1148	80001170	010000ef	jal	x1,80001170	  x1=0x80001170
       11505000	      1149	00000000	00000013	addi	x0,x0,0	  x0:0x00000000
       11515000	      1150	8000117c	00000013	addi	x0,x0,0	  x0:0x00000000
       11525000	      1151	80001180	fe1ff0ef	jal	x1,80001180	  x1=0x80001180
       11535000	      1152	00000000	00000013	addi	x0,x0,0	  x0:0x00000000
       11545000	      1153	8000115c	00000013	addi	x0,x0,0	  x0:0x00000000
       11555000	      1154	80001160	004000ef	jal	x1,80001160	  x1=0x80001160
       11565000	      1155	00000000	00000013	addi	x0,x0,0	  x0:0x00000000
       11575000	      1156	80001160	00000013	addi	x0,x0,0	  x0:0x00000000
       11585000	      1157	80001164	ff1ff36f	jal	x6,80001164	  x6=0x80001164
       11595000	      1158	00000000	00000013	addi	x0,x0,0	  x0:0x00000000
       11605000	      1159	80001150	00000013	addi	x0,x0,0	  x0:0x00000000
       11615000	      1160	80001154	040000ef	jal	x1,80001154	  x1=0x80001154
       11625000	      1161	00000000	00000013	addi	x0,x0,0	  x0:0x00000000
       11635000	      1162	80001190	00000013	addi	x0,x0,0	  x0:0x00000000
       11645000	      1163	80001194	40dfdd33	sra	x26,x31,x13	 x31:0x8000105c x13:0x80001150 x26=0xffff8000
       11655000	      1164	80001198	0440036f	jal	x6,80001198	  x6=0x80001198
       11665000	      1165	00000000	00000013	addi	x0,x0,0	  x0:0x00000000
       11675000	      1166	800011d8	00000013	addi	x0,x0,0	  x0:0x00000000
       11685000	      1167	800011dc	fd1ff36f	jal	x6,800011dc	  x6=0x800011dc
       11695000	      1168	00000000	00000013	addi	x0,x0,0	  x0:0x00000000
       11705000	      1169	800011a8	00000013	addi	x0,x0,0	  x0:0x00000000
       11715000	      1170	800011ac	ffdff0ef	jal	x1,800011ac	  x1=0x800011ac
       11725000	      1171	00000000	00000013	addi	x0,x0,0	  x0:0x00000000
       11735000	      1172	800011a4	00000013	addi	x0,x0,0	  x0:0x00000000
       11745000	      1173	800011a8	ff9ff0ef	jal	x1,800011a8	  x1=0x800011a8
       11755000	      1174	00000000	00000013	addi	x0,x0,0	  x0:0x00000000
       11765000	      1175	8000119c	00000013	addi	x0,x0,0	  x0:0x00000000
       11775000	      1176	800011a0	02000c6f	jal	x24,800011a0	 x24=0x800011a0
       11785000	      1177	00000000	00000013	addi	x0,x0,0	  x0:0x00000000
       11795000	      1178	800011bc	00000013	addi	x0,x0,0	  x0:0x00000000
       11805000	      1179	800011c0	02c003ef	jal	x7,800011c0	  x7=0x800011c0
       11815000	      1180	00000000	00000013	addi	x0,x0,0	  x0:0x00000000
       11825000	      1181	800011e8	00000013	addi	x0,x0,0	  x0:0x00000000
       11835000	      1182	800011ec	ffdff36f	jal	x6,800011ec	  x6=0x800011ec
       11845000	      1183	00000000	00000013	addi	x0,x0,0	  x0:0x00000000
       11855000	      1184	800011e4	00000013	addi	x0,x0,0	  x0:0x00000000
       11865000	      1185	800011e8	008003ef	jal	x7,800011e8	  x7=0x800011e8
       11875000	      1186	00000000	00000013	addi	x0,x0,0	  x0:0x00000000
       11885000	      1187	800011ec	00000013	addi	x0,x0,0	  x0:0x00000000
       11895000	      1188	800011f0	fc5ff36f	jal	x6,800011f0	  x6=0x800011f0
       11905000	      1189	00000000	00000013	addi	x0,x0,0	  x0:0x00000000
       11915000	      1190	800011b0	00000013	addi	x0,x0,0	  x0:0x00000000
       11925000	      1191	800011b4	fe9ff36f	jal	x6,800011b4	  x6=0x800011b4
       11935000	      1192	00000000	00000013	addi	x0,x0,0	  x0:0x00000000
       11945000	      1193	80001198	00000013	addi	x0,x0,0	  x0:0x00000000
       11955000	      1194	8000119c	058000ef	jal	x1,8000119c	  x1=0x8000119c
       11965000	      1195	00000000	00000013	addi	x0,x0,0	  x0:0x00000000
       11975000	      1196	800011f0	00000013	addi	x0,x0,0	  x0:0x00000000
       11985000	      1197	800011f4	fc9ff0ef	jal	x1,800011f4	  x1=0x800011f4
       11995000	      1198	00000000	00000013	addi	x0,x0,0	  x0:0x00000000
       12005000	      1199	800011b8	00000013	addi	x0,x0,0	  x0:0x00000000
       12015000	      1200	800011bc	014000ef	jal	x1,800011bc	  x1=0x800011bc
       12025000	      1201	00000000	00000013	addi	x0,x0,0	  x0:0x00000000
       12035000	      1202	800011cc	00000013	addi	x0,x0,0	  x0:0x00000000
       12045000	      1203	800011d0	00400b6f	jal	x22,800011d0	 x22=0x800011d0
       12055000	      1204	00000000	00000013	addi	x0,x0,0	  x0:0x00000000
       12065000	      1205	800011d0	00000013	addi	x0,x0,0	  x0:0x00000000
       12075000	      1206	800011d4	ff9ff0ef	jal	x1,800011d4	  x1=0x800011d4
       12085000	      1207	00000000	00000013	addi	x0,x0,0	  x0:0x00000000
       12095000	      1208	800011c8	00000013	addi	x0,x0,0	  x0:0x00000000
       12105000	      1209	800011cc	ff9ff0ef	jal	x1,800011cc	  x1=0x800011cc
       12115000	      1210	00000000	00000013	addi	x0,x0,0	  x0:0x00000000
       12125000	      1211	800011c0	00000013	addi	x0,x0,0	  x0:0x00000000
       12135000	      1212	800011c4	ff5ff0ef	jal	x1,800011c4	  x1=0x800011c4
       12145000	      1213	00000000	00000013	addi	x0,x0,0	  x0:0x00000000
       12155000	      1214	800011b4	00000013	addi	x0,x0,0	  x0:0x00000000
       12165000	      1215	800011b8	ff9ff86f	jal	x16,800011b8	 x16=0x800011b8
       12175000	      1216	00000000	00000013	addi	x0,x0,0	  x0:0x00000000
       12185000	      1217	800011ac	00000013	addi	x0,x0,0	  x0:0x00000000
       12195000	      1218	800011b0	028006ef	jal	x13,800011b0	 x13=0x800011b0
       12205000	      1219	00000000	00000013	addi	x0,x0,0	  x0:0x00000000
       12215000	      1220	800011d4	00000013	addi	x0,x0,0	  x0:0x00000000
       12225000	      1221	800011d8	00c0036f	jal	x6,800011d8	  x6=0x800011d8
       12235000	      1222	00000000	00000013	addi	x0,x0,0	  x0:0x00000000
       12245000	      1223	800011e0	00000013	addi	x0,x0,0	  x0:0x00000000
       12255000	      1224	800011e4	ffdff3ef	jal	x7,800011e4	  x7=0x800011e4
       12265000	      1225	00000000	00000013	addi	x0,x0,0	  x0:0x00000000
       12275000	      1226	800011dc	00000013	addi	x0,x0,0	  x0:0x00000000
       12285000	      1227	800011e0	fe9ff26f	jal	x4,800011e0	  x4=0x800011e0
       12295000	      1228	00000000	00000013	addi	x0,x0,0	  x0:0x00000000
       12305000	      1229	800011c4	00000013	addi	x0,x0,0	  x0:0x00000000
       12315000	      1230	800011c8	030000ef	jal	x1,800011c8	  x1=0x800011c8
       12325000	      1231	00000000	00000013	addi	x0,x0,0	  x0:0x00000000
       12335000	      1232	800011f4	00000013	addi	x0,x0,0	  x0:0x00000000
       12345000	      1233	800011f8	fadff36f	jal	x6,800011f8	  x6=0x800011f8
       12355000	      1234	00000000	00000013	addi	x0,x0,0	  x0:0x00000000
       12365000	      1235	800011a0	00000013	addi	x0,x0,0	  x0:0x00000000
       12375000	      1236	800011a4	058000ef	jal	x1,800011a4	  x1=0x800011a4
       12385000	      1237	00000000	00000013	addi	x0,x0,0	  x0:0x00000000
       12395000	      1238	800011f8	00000013	addi	x0,x0,0	  x0:0x00000000
       12405000	      1239	800011fc	01de4ab3	xor	x21,x28,x29	 x28:0x80000fdc x29:0x00000000 x21=0x80000fdc
       12415000	      1240	80001200	0200036f	jal	x6,80001200	  x6=0x80001200
       12425000	      1241	00000000	00000013	addi	x0,x0,0	  x0:0x00000000
       12435000	      1242	8000121c	00000013	addi	x0,x0,0	  x0:0x00000000
       12445000	      1243	80001220	ff1ff36f	jal	x6,80001220	  x6=0x80001220
       12455000	      1244	00000000	00000013	addi	x0,x0,0	  x0:0x00000000
       12465000	      1245	8000120c	00000013	addi	x0,x0,0	  x0:0x00000000
       12475000	      1246	80001210	040000ef	jal	x1,80001210	  x1=0x80001210
       12485000	      1247	00000000	00000013	addi	x0,x0,0	  x0:0x00000000
       12495000	      1248	8000124c	00000013	addi	x0,x0,0	  x0:0x00000000
       12505000	      1249	80001250	fb5ff0ef	jal	x1,80001250	  x1=0x80001250
       12515000	      1250	00000000	00000013	addi	x0,x0,0	  x0:0x00000000
       12525000	      1251	80001200	00000013	addi	x0,x0,0	  x0:0x00000000
       12535000	      1252	80001204	050000ef	jal	x1,80001204	  x1=0x80001204
       12545000	      1253	00000000	00000013	addi	x0,x0,0	  x0:0x00000000
       12555000	      1254	80001250	00000013	addi	x0,x0,0	  x0:0x00000000
       12565000	      1255	80001254	fb9ff6ef	jal	x13,80001254	 x13=0x80001254
       12575000	      1256	00000000	00000013	addi	x0,x0,0	  x0:0x00000000
       12585000	      1257	80001208	00000013	addi	x0,x0,0	  x0:0x00000000
       12595000	      1258	8000120c	0200036f	jal	x6,8000120c	  x6=0x8000120c
       12605000	      1259	00000000	00000013	addi	x0,x0,0	  x0:0x00000000
       12615000	      1260	80001228	00000013	addi	x0,x0,0	  x0:0x00000000
       12625000	      1261	8000122c	004000ef	jal	x1,8000122c	  x1=0x8000122c
       12635000	      1262	00000000	00000013	addi	x0,x0,0	  x0:0x00000000
       12645000	      1263	8000122c	00000013	addi	x0,x0,0	  x0:0x00000000
       12655000	      1264	80001230	0100036f	jal	x6,80001230	  x6=0x80001230
       12665000	      1265	00000000	00000013	addi	x0,x0,0	  x0:0x00000000
       12675000	      1266	8000123c	00000013	addi	x0,x0,0	  x0:0x00000000
       12685000	      1267	80001240	ff5fff6f	jal	x30,80001240	 x30=0x80001240
       12695000	      1268	00000000	00000013	addi	x0,x0,0	  x0:0x00000000
       12705000	      1269	80001230	00000013	addi	x0,x0,0	  x0:0x00000000
       12715000	      1270	80001234	fe1ff0ef	jal	x1,80001234	  x1=0x80001234
       12725000	      1271	00000000	00000013	addi	x0,x0,0	  x0:0x00000000
       12735000	      1272	80001210	00000013	addi	x0,x0,0	  x0:0x00000000
       12745000	      1273	80001214	0280016f	jal	x2,80001214	  x2=0x80001214
       12755000	      1274	00000000	00000013	addi	x0,x0,0	  x0:0x00000000
       12765000	      1275	80001238	00000013	addi	x0,x0,0	  x0:0x00000000
       12775000	      1276	8000123c	fcdff6ef	jal	x13,8000123c	 x13=0x8000123c
       12785000	      1277	00000000	00000013	addi	x0,x0,0	  x0:0x00000000
       12795000	      1278	80001204	00000013	addi	x0,x0,0	  x0:0x00000000
       12805000	      1279	80001208	014004ef	jal	x9,80001208	  x9=0x80001208
       12815000	      1280	00000000	00000013	addi	x0,x0,0	  x0:0x00000000
       12825000	      1281	80001218	00000013	addi	x0,x0,0	  x0:0x00000000
       12835000	      1282	8000121c	ffdff0ef	jal	x1,8000121c	  x1=0x8000121c
       12845000	      1283	00000000	00000013	addi	x0,x0,0	  x0:0x00000000
       12855000	      1284	80001214	00000013	addi	x0,x0,0	  x0:0x00000000
       12865000	      1285	80001218	00c00f6f	jal	x30,80001218	 x30=0x80001218
       12875000	      1286	00000000	00000013	addi	x0,x0,0	  x0:0x00000000
       12885000	      1287	80001220	00000013	addi	x0,x0,0	  x0:0x00000000
       12895000	      1288	80001224	024000ef	jal	x1,80001224	  x1=0x80001224
       12905000	      1289	00000000	00000013	addi	x0,x0,0	  x0:0x00000000
       12915000	      1290	80001244	00000013	addi	x0,x0,0	  x0:0x00000000
       12925000	      1291	80001248	004001ef	jal	x3,80001248	  x3=0x80001248
       12935000	      1292	00000000	00000013	addi	x0,x0,0	  x0:0x00000000
       12945000	      1293	80001248	00000013	addi	x0,x0,0	  x0:0x00000000
       12955000	      1294	8000124c	fedff0ef	jal	x1,8000124c	  x1=0x8000124c
       12965000	      1295	00000000	00000013	addi	x0,x0,0	  x0:0x00000000
       12975000	      1296	80001234	00000013	addi	x0,x0,0	  x0:0x00000000
       12985000	      1297	80001238	ff1ff0ef	jal	x1,80001238	  x1=0x80001238
       12995000	      1298	00000000	00000013	addi	x0,x0,0	  x0:0x00000000
       13005000	      1299	80001224	00000013	addi	x0,x0,0	  x0:0x00000000
       13015000	      1300	80001228	01c0036f	jal	x6,80001228	  x6=0x80001228
       13025000	      1301	00000000	00000013	addi	x0,x0,0	  x0:0x00000000
       13035000	      1302	80001240	00000013	addi	x0,x0,0	  x0:0x00000000
       13045000	      1303	80001244	014002ef	jal	x5,80001244	  x5=0x80001244
       13055000	      1304	00000000	00000013	addi	x0,x0,0	  x0:0x00000000
       13065000	      1305	80001254	00000013	addi	x0,x0,0	  x0:0x00000000
       13075000	      1306	80001258	41028a33	sub	x20,x5,x16	  x5:0x80001244 x16:0x800011b8 x20=0x0000008c
       13085000	      1307	8000125c	02c0036f	jal	x6,8000125c	  x6=0x8000125c
       13095000	      1308	00000000	00000013	addi	x0,x0,0	  x0:0x00000000
       13105000	      1309	80001284	00000013	addi	x0,x0,0	  x0:0x00000000
       13115000	      1310	80001288	01c000ef	jal	x1,80001288	  x1=0x80001288
       13125000	      1311	00000000	00000013	addi	x0,x0,0	  x0:0x00000000
       13135000	      1312	800012a0	00000013	addi	x0,x0,0	  x0:0x00000000
       13145000	      1313	800012a4	fd9ff36f	jal	x6,800012a4	  x6=0x800012a4
       13155000	      1314	00000000	00000013	addi	x0,x0,0	  x0:0x00000000
       13165000	      1315	80001278	00000013	addi	x0,x0,0	  x0:0x00000000
       13175000	      1316	8000127c	ff1ff0ef	jal	x1,8000127c	  x1=0x8000127c
       13185000	      1317	00000000	00000013	addi	x0,x0,0	  x0:0x00000000
       13195000	      1318	80001268	00000013	addi	x0,x0,0	  x0:0x00000000
       13205000	      1319	8000126c	0280096f	jal	x18,8000126c	 x18=0x8000126c
       13215000	      1320	00000000	00000013	addi	x0,x0,0	  x0:0x00000000
       13225000	      1321	80001290	00000013	addi	x0,x0,0	  x0:0x00000000
       13235000	      1322	80001294	fddff0ef	jal	x1,80001294	  x1=0x80001294
       13245000	      1323	00000000	00000013	addi	x0,x0,0	  x0:0x00000000
       13255000	      1324	8000126c	00000013	addi	x0,x0,0	  x0:0x00000000
       13265000	      1325	80001270	030006ef	jal	x13,80001270	 x13=0x80001270
       13275000	      1326	00000000	00000013	addi	x0,x0,0	  x0:0x00000000
       13285000	      1327	8000129c	00000013	addi	x0,x0,0	  x0:0x00000000
       13295000	      1328	800012a0	fe5ff0ef	jal	x1,800012a0	  x1=0x800012a0
       13305000	      1329	00000000	00000013	addi	x0,x0,0	  x0:0x00000000
       13315000	      1330	80001280	00000013	addi	x0,x0,0	  x0:0x00000000
       13325000	      1331	80001284	008001ef	jal	x3,80001284	  x3=0x80001284
       13335000	      1332	00000000	00000013	addi	x0,x0,0	  x0:0x00000000
       13345000	      1333	80001288	00000013	addi	x0,x0,0	  x0:0x00000000
       13355000	      1334	8000128c	fe9ff0ef	jal	x1,8000128c	  x1=0x8000128c
       13365000	      1335	00000000	00000013	addi	x0,x0,0	  x0:0x00000000
       13375000	      1336	80001270	00000013	addi	x0,x0,0	  x0:0x00000000
       13385000	      1337	80001274	fedff0ef	jal	x1,80001274	  x1=0x80001274
       13395000	      1338	00000000	00000013	addi	x0,x0,0	  x0:0x00000000
       13405000	      1339	8000125c	00000013	addi	x0,x0,0	  x0:0x00000000
       13415000	      1340	80001260	004000ef	jal	x1,80001260	  x1=0x80001260
       13425000	      1341	00000000	00000013	addi	x0,x0,0	  x0:0x00000000
       13435000	      1342	80001260	00000013	addi	x0,x0,0	  x0:0x00000000
       13445000	      1343	80001264	02c000ef	jal	x1,80001264	  x1=0x80001264
       13455000	      1344	00000000	00000013	addi	x0,x0,0	  x0:0x00000000
       13465000	      1345	8000128c	00000013	addi	x0,x0,0	  x0:0x00000000
       13475000	      1346	80001290	ff1ffd6f	jal	x26,80001290	 x26=0x80001290
       13485000	      1347	00000000	00000013	addi	x0,x0,0	  x0:0x00000000
       13495000	      1348	8000127c	00000013	addi	x0,x0,0	  x0:0x00000000
       13505000	      1349	80001280	fe9ff0ef	jal	x1,80001280	  x1=0x80001280
       13515000	      1350	00000000	00000013	addi	x0,x0,0	  x0:0x00000000
       13525000	      1351	80001264	00000013	addi	x0,x0,0	  x0:0x00000000
       13535000	      1352	80001268	030000ef	jal	x1,80001268	  x1=0x80001268
       13545000	      1353	00000000	00000013	addi	x0,x0,0	  x0:0x00000000
       13555000	      1354	80001294	00000013	addi	x0,x0,0	  x0:0x00000000
       13565000	      1355	80001298	0040036f	jal	x6,80001298	  x6=0x80001298
       13575000	      1356	00000000	00000013	addi	x0,x0,0	  x0:0x00000000
       13585000	      1357	80001298	00000013	addi	x0,x0,0	  x0:0x00000000
       13595000	      1358	8000129c	fddffa6f	jal	x20,8000129c	 x20=0x8000129c
       13605000	      1359	00000000	00000013	addi	x0,x0,0	  x0:0x00000000
       13615000	      1360	80001274	00000013	addi	x0,x0,0	  x0:0x00000000
       13625000	      1361	80001278	03000def	jal	x27,80001278	 x27=0x80001278
       13635000	      1362	00000000	00000013	addi	x0,x0,0	  x0:0x00000000
       13645000	      1363	800012a4	00000013	addi	x0,x0,0	  x0:0x00000000
       13655000	      1364	800012a8	29a50093	addi	x1,x10,666	 x10:0x800010d4  x1=0x8000136e
       13665000	      1365	800012ac	01c0036f	jal	x6,800012ac	  x6=0x800012ac
       13675000	      1366	00000000	00000013	addi	x0,x0,0	  x0:0x00000000
       13685000	      1367	800012c4	00000013	addi	x0,x0,0	  x0:0x00000000
       13695000	      1368	800012c8	fe9ff0ef	jal	x1,800012c8	  x1=0x800012c8
       13705000	      1369	00000000	00000013	addi	x0,x0,0	  x0:0x00000000
       13715000	      1370	800012ac	00000013	addi	x0,x0,0	  x0:0x00000000
       13725000	      1371	800012b0	0240026f	jal	x4,800012b0	  x4=0x800012b0
       13735000	      1372	00000000	00000013	addi	x0,x0,0	  x0:0x00000000
       13745000	      1373	800012d0	00000013	addi	x0,x0,0	  x0:0x00000000
       13755000	      1374	800012d4	008000ef	jal	x1,800012d4	  x1=0x800012d4
       13765000	      1375	00000000	00000013	addi	x0,x0,0	  x0:0x00000000
       13775000	      1376	800012d8	00000013	addi	x0,x0,0	  x0:0x00000000
       13785000	      1377	800012dc	fddffe6f	jal	x28,800012dc	 x28=0x800012dc
       13795000	      1378	00000000	00000013	addi	x0,x0,0	  x0:0x00000000
       13805000	      1379	800012b4	00000013	addi	x0,x0,0	  x0:0x00000000
       13815000	      1380	800012b8	014000ef	jal	x1,800012b8	  x1=0x800012b8
       13825000	      1381	00000000	00000013	addi	x0,x0,0	  x0:0x00000000
       13835000	      1382	800012c8	00000013	addi	x0,x0,0	  x0:0x00000000
       13845000	      1383	800012cc	00c00e6f	jal	x28,800012cc	 x28=0x800012cc
       13855000	      1384	00000000	00000013	addi	x0,x0,0	  x0:0x00000000
       13865000	      1385	800012d4	00000013	addi	x0,x0,0	  x0:0x00000000
       13875000	      1386	800012d8	fe9ff0ef	jal	x1,800012d8	  x1=0x800012d8
       13885000	      1387	00000000	00000013	addi	x0,x0,0	  x0:0x00000000
       13895000	      1388	800012bc	00000013	addi	x0,x0,0	  x0:0x00000000
       13905000	      1389	800012c0	ffdff0ef	jal	x1,800012c0	  x1=0x800012c0
       13915000	      1390	00000000	00000013	addi	x0,x0,0	  x0:0x00000000
       13925000	      1391	800012b8	00000013	addi	x0,x0,0	  x0:0x00000000
       13935000	      1392	800012bc	008007ef	jal	x15,800012bc	 x15=0x800012bc
       13945000	      1393	00000000	00000013	addi	x0,x0,0	  x0:0x00000000
       13955000	      1394	800012c0	00000013	addi	x0,x0,0	  x0:0x00000000
       13965000	      1395	800012c4	ff1ff0ef	jal	x1,800012c4	  x1=0x800012c4
       13975000	      1396	00000000	00000013	addi	x0,x0,0	  x0:0x00000000
       13985000	      1397	800012b0	00000013	addi	x0,x0,0	  x0:0x00000000
       13995000	      1398	800012b4	01c0026f	jal	x4,800012b4	  x4=0x800012b4
       14005000	      1399	00000000	00000013	addi	x0,x0,0	  x0:0x00000000
       14015000	      1400	800012cc	00000013	addi	x0,x0,0	  x0:0x00000000
       14025000	      1401	800012d0	010000ef	jal	x1,800012d0	  x1=0x800012d0
       14035000	      1402	00000000	00000013	addi	x0,x0,0	  x0:0x00000000
       14045000	      1403	800012dc	00000013	addi	x0,x0,0	  x0:0x00000000
       14055000	      1404	800012e0	415f83b3	sub	x7,x31,x21	 x31:0x8000105c x21:0x80000fdc  x7=0x00000080
       14065000	      1405	800012e4	01c0036f	jal	x6,800012e4	  x6=0x800012e4
       14075000	      1406	00000000	00000013	addi	x0,x0,0	  x0:0x00000000
       14085000	      1407	800012fc	00000013	addi	x0,x0,0	  x0:0x00000000
       14095000	      1408	80001300	02800d6f	jal	x26,80001300	 x26=0x80001300
       14105000	      1409	00000000	00000013	addi	x0,x0,0	  x0:0x00000000
       14115000	      1410	80001324	00000013	addi	x0,x0,0	  x0:0x00000000
       14125000	      1411	80001328	fc5ff0ef	jal	x1,80001328	  x1=0x80001328
       14135000	      1412	00000000	00000013	addi	x0,x0,0	  x0:0x00000000
       14145000	      1413	800012e8	00000013	addi	x0,x0,0	  x0:0x00000000
       14155000	      1414	800012ec	0440046f	jal	x8,800012ec	  x8=0x800012ec
       14165000	      1415	00000000	00000013	addi	x0,x0,0	  x0:0x00000000
       14175000	      1416	8000132c	00000013	addi	x0,x0,0	  x0:0x00000000
       14185000	      1417	80001330	fe5ff0ef	jal	x1,80001330	  x1=0x80001330
       14195000	      1418	00000000	00000013	addi	x0,x0,0	  x0:0x00000000
       14205000	      1419	80001310	00000013	addi	x0,x0,0	  x0:0x00000000
       14215000	      1420	80001314	fd5ff0ef	jal	x1,80001314	  x1=0x80001314
       14225000	      1421	00000000	00000013	addi	x0,x0,0	  x0:0x00000000
       14235000	      1422	800012e4	00000013	addi	x0,x0,0	  x0:0x00000000
       14245000	      1423	800012e8	030000ef	jal	x1,800012e8	  x1=0x800012e8
       14255000	      1424	00000000	00000013	addi	x0,x0,0	  x0:0x00000000
       14265000	      1425	80001314	00000013	addi	x0,x0,0	  x0:0x00000000
       14275000	      1426	80001318	ff1ff0ef	jal	x1,80001318	  x1=0x80001318
       14285000	      1427	00000000	00000013	addi	x0,x0,0	  x0:0x00000000
       14295000	      1428	80001304	00000013	addi	x0,x0,0	  x0:0x00000000
       14305000	      1429	80001308	fe9ff0ef	jal	x1,80001308	  x1=0x80001308
       14315000	      1430	00000000	00000013	addi	x0,x0,0	  x0:0x00000000
       14325000	      1431	800012ec	00000013	addi	x0,x0,0	  x0:0x00000000
       14335000	      1432	800012f0	0440036f	jal	x6,800012f0	  x6=0x800012f0
       14345000	      1433	00000000	00000013	addi	x0,x0,0	  x0:0x00000000
       14355000	      1434	80001330	00000013	addi	x0,x0,0	  x0:0x00000000
       14365000	      1435	80001334	fe9ff36f	jal	x6,80001334	  x6=0x80001334
       14375000	      1436	00000000	00000013	addi	x0,x0,0	  x0:0x00000000
       14385000	      1437	80001318	00000013	addi	x0,x0,0	  x0:0x00000000
       14395000	      1438	8000131c	0100036f	jal	x6,8000131c	  x6=0x8000131c
       14405000	      1439	00000000	00000013	addi	x0,x0,0	  x0:0x00000000
       14415000	      1440	80001328	00000013	addi	x0,x0,0	  x0:0x00000000
       14425000	      1441	8000132c	fc9ff0ef	jal	x1,8000132c	  x1=0x8000132c
       14435000	      1442	00000000	00000013	addi	x0,x0,0	  x0:0x00000000
       14445000	      1443	800012f0	00000013	addi	x0,x0,0	  x0:0x00000000
       14455000	      1444	800012f4	01c000ef	jal	x1,800012f4	  x1=0x800012f4
       14465000	      1445	00000000	00000013	addi	x0,x0,0	  x0:0x00000000
       14475000	      1446	8000130c	00000013	addi	x0,x0,0	  x0:0x00000000
       14485000	      1447	80001310	02c0036f	jal	x6,80001310	  x6=0x80001310
       14495000	      1448	00000000	00000013	addi	x0,x0,0	  x0:0x00000000
       14505000	      1449	80001338	00000013	addi	x0,x0,0	  x0:0x00000000
       14515000	      1450	8000133c	ffdff0ef	jal	x1,8000133c	  x1=0x8000133c
       14525000	      1451	00000000	00000013	addi	x0,x0,0	  x0:0x00000000
       14535000	      1452	80001334	00000013	addi	x0,x0,0	  x0:0x00000000
       14545000	      1453	80001338	fc5ff0ef	jal	x1,80001338	  x1=0x80001338
       14555000	      1454	00000000	00000013	addi	x0,x0,0	  x0:0x00000000
       14565000	      1455	800012f8	00000013	addi	x0,x0,0	  x0:0x00000000
       14575000	      1456	800012fc	ffdff0ef	jal	x1,800012fc	  x1=0x800012fc
       14585000	      1457	00000000	00000013	addi	x0,x0,0	  x0:0x00000000
       14595000	      1458	800012f4	00000013	addi	x0,x0,0	  x0:0x00000000
       14605000	      1459	800012f8	014003ef	jal	x7,800012f8	  x7=0x800012f8
       14615000	      1460	00000000	00000013	addi	x0,x0,0	  x0:0x00000000
       14625000	      1461	80001308	00000013	addi	x0,x0,0	  x0:0x00000000
       14635000	      1462	8000130c	ff9ff0ef	jal	x1,8000130c	  x1=0x8000130c
       14645000	      1463	00000000	00000013	addi	x0,x0,0	  x0:0x00000000
       14655000	      1464	80001300	00000013	addi	x0,x0,0	  x0:0x00000000
       14665000	      1465	80001304	020000ef	jal	x1,80001304	  x1=0x80001304
       14675000	      1466	00000000	00000013	addi	x0,x0,0	  x0:0x00000000
       14685000	      1467	80001320	00000013	addi	x0,x0,0	  x0:0x00000000
       14695000	      1468	80001324	ffdff46f	jal	x8,80001324	  x8=0x80001324
       14705000	      1469	00000000	00000013	addi	x0,x0,0	  x0:0x00000000
       14715000	      1470	8000131c	00000013	addi	x0,x0,0	  x0:0x00000000
       14725000	      1471	80001320	020000ef	jal	x1,80001320	  x1=0x80001320
       14735000	      1472	00000000	00000013	addi	x0,x0,0	  x0:0x00000000
       14745000	      1473	8000133c	00000013	addi	x0,x0,0	  x0:0x00000000
       14755000	      1474	80001340	01bb0b33	add	x22,x22,x27	 x22:0x800011d0 x27:0x80001278 x22=0x00002448
       14765000	      1475	80001344	0140036f	jal	x6,80001344	  x6=0x80001344
       14775000	      1476	00000000	00000013	addi	x0,x0,0	  x0:0x00000000
       14785000	      1477	80001354	00000013	addi	x0,x0,0	  x0:0x00000000
       14795000	      1478	80001358	02c007ef	jal	x15,80001358	 x15=0x80001358
       14805000	      1479	00000000	00000013	addi	x0,x0,0	  x0:0x00000000
       14815000	      1480	80001380	00000013	addi	x0,x0,0	  x0:0x00000000
       14825000	      1481	80001384	fd9ff0ef	jal	x1,80001384	  x1=0x80001384
       14835000	      1482	00000000	00000013	addi	x0,x0,0	  x0:0x00000000
       14845000	      1483	80001358	00000013	addi	x0,x0,0	  x0:0x00000000
       14855000	      1484	8000135c	fedff3ef	jal	x7,8000135c	  x7=0x8000135c
       14865000	      1485	00000000	00000013	addi	x0,x0,0	  x0:0x00000000
       14875000	      1486	80001344	00000013	addi	x0,x0,0	  x0:0x00000000
       14885000	      1487	80001348	020001ef	jal	x3,80001348	  x3=0x80001348
       14895000	      1488	00000000	00000013	addi	x0,x0,0	  x0:0x00000000
       14905000	      1489	80001364	00000013	addi	x0,x0,0	  x0:0x00000000
       14915000	      1490	80001368	fe9ff0ef	jal	x1,80001368	  x1=0x80001368
       14925000	      1491	00000000	00000013	addi	x0,x0,0	  x0:0x00000000
       14935000	      1492	8000134c	00000013	addi	x0,x0,0	  x0:0x00000000
       14945000	      1493	80001350	02c000ef	jal	x1,80001350	  x1=0x80001350
       14955000	      1494	00000000	00000013	addi	x0,x0,0	  x0:0x00000000
       14965000	      1495	80001378	00000013	addi	x0,x0,0	  x0:0x00000000
       14975000	      1496	8000137c	010000ef	jal	x1,8000137c	  x1=0x8000137c
       14985000	      1497	00000000	00000013	addi	x0,x0,0	  x0:0x00000000
       14995000	      1498	80001388	00000013	addi	x0,x0,0	  x0:0x00000000
       15005000	      1499	8000138c	fd9ff0ef	jal	x1,8000138c	  x1=0x8000138c
       15015000	      1500	00000000	00000013	addi	x0,x0,0	  x0:0x00000000
       15025000	      1501	80001360	00000013	addi	x0,x0,0	  x0:0x00000000
       15035000	      1502	80001364	0100036f	jal	x6,80001364	  x6=0x80001364
       15045000	      1503	00000000	00000013	addi	x0,x0,0	  x0:0x00000000
       15055000	      1504	80001370	00000013	addi	x0,x0,0	  x0:0x00000000
       15065000	      1505	80001374	fedff36f	jal	x6,80001374	  x6=0x80001374
       15075000	      1506	00000000	00000013	addi	x0,x0,0	  x0:0x00000000
       15085000	      1507	8000135c	00000013	addi	x0,x0,0	  x0:0x00000000
       15095000	      1508	80001360	018000ef	jal	x1,80001360	  x1=0x80001360
       15105000	      1509	00000000	00000013	addi	x0,x0,0	  x0:0x00000000
       15115000	      1510	80001374	00000013	addi	x0,x0,0	  x0:0x00000000
       15125000	      1511	80001378	fd5ff0ef	jal	x1,80001378	  x1=0x80001378
       15135000	      1512	00000000	00000013	addi	x0,x0,0	  x0:0x00000000
       15145000	      1513	80001348	00000013	addi	x0,x0,0	  x0:0x00000000
       15155000	      1514	8000134c	03c000ef	jal	x1,8000134c	  x1=0x8000134c
       15165000	      1515	00000000	00000013	addi	x0,x0,0	  x0:0x00000000
       15175000	      1516	80001384	00000013	addi	x0,x0,0	  x0:0x00000000
       15185000	      1517	80001388	fe9ff2ef	jal	x5,80001388	  x5=0x80001388
       15195000	      1518	00000000	00000013	addi	x0,x0,0	  x0:0x00000000
       15205000	      1519	8000136c	00000013	addi	x0,x0,0	  x0:0x00000000
       15215000	      1520	80001370	010000ef	jal	x1,80001370	  x1=0x80001370
       15225000	      1521	00000000	00000013	addi	x0,x0,0	  x0:0x00000000
       15235000	      1522	8000137c	00000013	addi	x0,x0,0	  x0:0x00000000
       15245000	      1523	80001380	fd5ff0ef	jal	x1,80001380	  x1=0x80001380
       15255000	      1524	00000000	00000013	addi	x0,x0,0	  x0:0x00000000
       15265000	      1525	80001350	00000013	addi	x0,x0,0	  x0:0x00000000
       15275000	      1526	80001354	01800d6f	jal	x26,80001354	 x26=0x80001354
       15285000	      1527	00000000	00000013	addi	x0,x0,0	  x0:0x00000000
       15295000	      1528	80001368	00000013	addi	x0,x0,0	  x0:0x00000000
       15305000	      1529	8000136c	024000ef	jal	x1,8000136c	  x1=0x8000136c
       15315000	      1530	00000000	00000013	addi	x0,x0,0	  x0:0x00000000
       15325000	      1531	8000138c	00000013	addi	x0,x0,0	  x0:0x00000000
       15335000	      1532	80001390	004822b3	slt	x5,x16,x4	 x16:0x800011b8  x4:0x800012b4  x5=0x00000001
       15345000	      1533	80001394	0280036f	jal	x6,80001394	  x6=0x80001394
       15355000	      1534	00000000	00000013	addi	x0,x0,0	  x0:0x00000000
       15365000	      1535	800013b8	00000013	addi	x0,x0,0	  x0:0x00000000
       15375000	      1536	800013bc	ff9ff6ef	jal	x13,800013bc	 x13=0x800013bc
       15385000	      1537	00000000	00000013	addi	x0,x0,0	  x0:0x00000000
       15395000	      1538	800013b0	00000013	addi	x0,x0,0	  x0:0x00000000
       15405000	      1539	800013b4	ff5ff0ef	jal	x1,800013b4	  x1=0x800013b4
       15415000	      1540	00000000	00000013	addi	x0,x0,0	  x0:0x00000000
       15425000	      1541	800013a4	00000013	addi	x0,x0,0	  x0:0x00000000
       15435000	      1542	800013a8	004008ef	jal	x17,800013a8	 x17=0x800013a8
       15445000	      1543	00000000	00000013	addi	x0,x0,0	  x0:0x00000000
       15455000	      1544	800013a8	00000013	addi	x0,x0,0	  x0:0x00000000
       15465000	      1545	800013ac	fedff0ef	jal	x1,800013ac	  x1=0x800013ac
       15475000	      1546	00000000	00000013	addi	x0,x0,0	  x0:0x00000000
       15485000	      1547	80001394	00000013	addi	x0,x0,0	  x0:0x00000000
       15495000	      1548	80001398	028004ef	jal	x9,80001398	  x9=0x80001398
       15505000	      1549	00000000	00000013	addi	x0,x0,0	  x0:0x00000000
       15515000	      1550	800013bc	00000013	addi	x0,x0,0	  x0:0x00000000
       15525000	      1551	800013c0	ff1ff36f	jal	x6,800013c0	  x6=0x800013c0
       15535000	      1552	00000000	00000013	addi	x0,x0,0	  x0:0x00000000
       15545000	      1553	800013ac	00000013	addi	x0,x0,0	  x0:0x00000000
       15555000	      1554	800013b0	ff5ff2ef	jal	x5,800013b0	  x5=0x800013b0
       15565000	      1555	00000000	00000013	addi	x0,x0,0	  x0:0x00000000
       15575000	      1556	800013a0	00000013	addi	x0,x0,0	  x0:0x00000000
       15585000	      1557	800013a4	ffdff36f	jal	x6,800013a4	  x6=0x800013a4
       15595000	      1558	00000000	00000013	addi	x0,x0,0	  x0:0x00000000
       15605000	      1559	8000139c	00000013	addi	x0,x0,0	  x0:0x00000000
       15615000	      1560	800013a0	0180036f	jal	x6,800013a0	  x6=0x800013a0
       15625000	      1561	00000000	00000013	addi	x0,x0,0	  x0:0x00000000
       15635000	      1562	800013b4	00000013	addi	x0,x0,0	  x0:0x00000000
       15645000	      1563	800013b8	fe5ff0ef	jal	x1,800013b8	  x1=0x800013b8
       15655000	      1564	00000000	00000013	addi	x0,x0,0	  x0:0x00000000
       15665000	      1565	80001398	00000013	addi	x0,x0,0	  x0:0x00000000
       15675000	      1566	8000139c	028000ef	jal	x1,8000139c	  x1=0x8000139c
       15685000	      1567	00000000	00000013	addi	x0,x0,0	  x0:0x00000000
       15695000	      1568	800013c0	00000013	addi	x0,x0,0	  x0:0x00000000
       15705000	      1569	800013c4	c8fec293	xori	x5,x29,-881	 x29:0x00000000  x5=0xfffffc8f
       15715000	      1570	800013c8	0280036f	jal	x6,800013c8	  x6=0x800013c8
       15725000	      1571	00000000	00000013	addi	x0,x0,0	  x0:0x00000000
       15735000	      1572	800013ec	00000013	addi	x0,x0,0	  x0:0x00000000
       15745000	      1573	800013f0	008006ef	jal	x13,800013f0	 x13=0x800013f0
       15755000	      1574	00000000	00000013	addi	x0,x0,0	  x0:0x00000000
       15765000	      1575	800013f4	00000013	addi	x0,x0,0	  x0:0x00000000
       15775000	      1576	800013f8	034000ef	jal	x1,800013f8	  x1=0x800013f8
       15785000	      1577	00000000	00000013	addi	x0,x0,0	  x0:0x00000000
       15795000	      1578	80001428	00000013	addi	x0,x0,0	  x0:0x00000000
       15805000	      1579	8000142c	fa1ff0ef	jal	x1,8000142c	  x1=0x8000142c
       15815000	      1580	00000000	00000013	addi	x0,x0,0	  x0:0x00000000
       15825000	      1581	800013c8	00000013	addi	x0,x0,0	  x0:0x00000000
       15835000	      1582	800013cc	020000ef	jal	x1,800013cc	  x1=0x800013cc
       15845000	      1583	00000000	00000013	addi	x0,x0,0	  x0:0x00000000
       15855000	      1584	800013e8	00000013	addi	x0,x0,0	  x0:0x00000000
       15865000	      1585	800013ec	02c000ef	jal	x1,800013ec	  x1=0x800013ec
       15875000	      1586	00000000	00000013	addi	x0,x0,0	  x0:0x00000000
       15885000	      1587	80001414	00000013	addi	x0,x0,0	  x0:0x00000000
       15895000	      1588	80001418	00c00cef	jal	x25,80001418	 x25=0x80001418
       15905000	      1589	00000000	00000013	addi	x0,x0,0	  x0:0x00000000
       15915000	      1590	80001420	00000013	addi	x0,x0,0	  x0:0x00000000
       15925000	      1591	80001424	fb9ff0ef	jal	x1,80001424	  x1=0x80001424
       15935000	      1592	00000000	00000013	addi	x0,x0,0	  x0:0x00000000
       15945000	      1593	800013d8	00000013	addi	x0,x0,0	  x0:0x00000000
       15955000	      1594	800013dc	004000ef	jal	x1,800013dc	  x1=0x800013dc
       15965000	      1595	00000000	00000013	addi	x0,x0,0	  x0:0x00000000
       15975000	      1596	800013dc	00000013	addi	x0,x0,0	  x0:0x00000000
       15985000	      1597	800013e0	008000ef	jal	x1,800013e0	  x1=0x800013e0
       15995000	      1598	00000000	00000013	addi	x0,x0,0	  x0:0x00000000
       16005000	      1599	800013e4	00000013	addi	x0,x0,0	  x0:0x00000000
       16015000	      1600	800013e8	02c001ef	jal	x3,800013e8	  x3=0x800013e8
       16025000	      1601	00000000	00000013	addi	x0,x0,0	  x0:0x00000000
       16035000	      1602	80001410	00000013	addi	x0,x0,0	  x0:0x00000000
       16045000	      1603	80001414	ff9ff0ef	jal	x1,80001414	  x1=0x80001414
       16055000	      1604	00000000	00000013	addi	x0,x0,0	  x0:0x00000000
       16065000	      1605	80001408	00000013	addi	x0,x0,0	  x0:0x00000000
       16075000	      1606	8000140c	ffdffaef	jal	x21,8000140c	 x21=0x8000140c
       16085000	      1607	00000000	00000013	addi	x0,x0,0	  x0:0x00000000
       16095000	      1608	80001404	00000013	addi	x0,x0,0	  x0:0x00000000
       16105000	      1609	80001408	ffdff0ef	jal	x1,80001408	  x1=0x80001408
       16115000	      1610	00000000	00000013	addi	x0,x0,0	  x0:0x00000000
       16125000	      1611	80001400	00000013	addi	x0,x0,0	  x0:0x00000000
       16135000	      1612	80001404	02c000ef	jal	x1,80001404	  x1=0x80001404
       16145000	      1613	00000000	00000013	addi	x0,x0,0	  x0:0x00000000
       16155000	      1614	8000142c	00000013	addi	x0,x0,0	  x0:0x00000000
       16165000	      1615	80001430	0040096f	jal	x18,80001430	 x18=0x80001430
       16175000	      1616	00000000	00000013	addi	x0,x0,0	  x0:0x00000000
       16185000	      1617	80001430	00000013	addi	x0,x0,0	  x0:0x00000000
       16195000	      1618	80001434	fa1ff36f	jal	x6,80001434	  x6=0x80001434
       16205000	      1619	00000000	00000013	addi	x0,x0,0	  x0:0x00000000
       16215000	      1620	800013d0	00000013	addi	x0,x0,0	  x0:0x00000000
       16225000	      1621	800013d4	ffdff0ef	jal	x1,800013d4	  x1=0x800013d4
       16235000	      1622	00000000	00000013	addi	x0,x0,0	  x0:0x00000000
       16245000	      1623	800013cc	00000013	addi	x0,x0,0	  x0:0x00000000
       16255000	      1624	800013d0	058000ef	jal	x1,800013d0	  x1=0x800013d0
       16265000	      1625	00000000	00000013	addi	x0,x0,0	  x0:0x00000000
       16275000	      1626	80001424	00000013	addi	x0,x0,0	  x0:0x00000000
       16285000	      1627	80001428	fb1ff36f	jal	x6,80001428	  x6=0x80001428
       16295000	      1628	00000000	00000013	addi	x0,x0,0	  x0:0x00000000
       16305000	      1629	800013d4	00000013	addi	x0,x0,0	  x0:0x00000000
       16315000	      1630	800013d8	06000f6f	jal	x30,800013d8	 x30=0x800013d8
       16325000	      1631	00000000	00000013	addi	x0,x0,0	  x0:0x00000000
       16335000	      1632	80001434	00000013	addi	x0,x0,0	  x0:0x00000000
       16345000	      1633	80001438	fe9ff16f	jal	x2,80001438	  x2=0x80001438
       16355000	      1634	00000000	00000013	addi	x0,x0,0	  x0:0x00000000
       16365000	      1635	8000141c	00000013	addi	x0,x0,0	  x0:0x00000000
       16375000	      1636	80001420	fe1ff0ef	jal	x1,80001420	  x1=0x80001420
       16385000	      1637	00000000	00000013	addi	x0,x0,0	  x0:0x00000000
       16395000	      1638	800013fc	00000013	addi	x0,x0,0	  x0:0x00000000
       16405000	      1639	80001400	0100016f	jal	x2,80001400	  x2=0x80001400
       16415000	      1640	00000000	00000013	addi	x0,x0,0	  x0:0x00000000
       16425000	      1641	8000140c	00000013	addi	x0,x0,0	  x0:0x00000000
       16435000	      1642	80001410	00c000ef	jal	x1,80001410	  x1=0x80001410
       16445000	      1643	00000000	00000013	addi	x0,x0,0	  x0:0x00000000
       16455000	      1644	80001418	00000013	addi	x0,x0,0	  x0:0x00000000
       16465000	      1645	8000141c	fe1ff36f	jal	x6,8000141c	  x6=0x8000141c
       16475000	      1646	00000000	00000013	addi	x0,x0,0	  x0:0x00000000
       16485000	      1647	800013f8	00000013	addi	x0,x0,0	  x0:0x00000000
       16495000	      1648	800013fc	fe9ff36f	jal	x6,800013fc	  x6=0x800013fc
       16505000	      1649	00000000	00000013	addi	x0,x0,0	  x0:0x00000000
       16515000	      1650	800013e0	00000013	addi	x0,x0,0	  x0:0x00000000
       16525000	      1651	800013e4	010002ef	jal	x5,800013e4	  x5=0x800013e4
       16535000	      1652	00000000	00000013	addi	x0,x0,0	  x0:0x00000000
       16545000	      1653	800013f0	00000013	addi	x0,x0,0	  x0:0x00000000
       16555000	      1654	800013f4	048001ef	jal	x3,800013f4	  x3=0x800013f4
       16565000	      1655	00000000	00000013	addi	x0,x0,0	  x0:0x00000000
       16575000	      1656	80001438	00000013	addi	x0,x0,0	  x0:0x00000000
       16585000	      1657	8000143c	f698f613	andi	x12,x17,-151	 x17:0x800013a8 x12=0x80001328
       16595000	      1658	80001440	0140036f	jal	x6,80001440	  x6=0x80001440
       16605000	      1659	00000000	00000013	addi	x0,x0,0	  x0:0x00000000
       16615000	      1660	80001450	00000013	addi	x0,x0,0	  x0:0x00000000
       16625000	      1661	80001454	00c000ef	jal	x1,80001454	  x1=0x80001454
       16635000	      1662	00000000	00000013	addi	x0,x0,0	  x0:0x00000000
       16645000	      1663	8000145c	00000013	addi	x0,x0,0	  x0:0x00000000
       16655000	      1664	80001460	0080086f	jal	x16,80001460	 x16=0x80001460
       16665000	      1665	00000000	00000013	addi	x0,x0,0	  x0:0x00000000
       16675000	      1666	80001464	00000013	addi	x0,x0,0	  x0:0x00000000
       16685000	      1667	80001468	fe9ff0ef	jal	x1,80001468	  x1=0x80001468
       16695000	      1668	00000000	00000013	addi	x0,x0,0	  x0:0x00000000
       16705000	      1669	8000144c	00000013	addi	x0,x0,0	  x0:0x00000000
       16715000	      1670	80001450	008000ef	jal	x1,80001450	  x1=0x80001450
       16725000	      1671	00000000	00000013	addi	x0,x0,0	  x0:0x00000000
       16735000	      1672	80001454	00000013	addi	x0,x0,0	  x0:0x00000000
       16745000	      1673	80001458	0040036f	jal	x6,80001458	  x6=0x80001458
       16755000	      1674	00000000	00000013	addi	x0,x0,0	  x0:0x00000000
       16765000	      1675	80001458	00000013	addi	x0,x0,0	  x0:0x00000000
       16775000	      1676	8000145c	ff1ff4ef	jal	x9,8000145c	  x9=0x8000145c
       16785000	      1677	00000000	00000013	addi	x0,x0,0	  x0:0x00000000
       16795000	      1678	80001448	00000013	addi	x0,x0,0	  x0:0x00000000
       16805000	      1679	8000144c	0180036f	jal	x6,8000144c	  x6=0x8000144c
       16815000	      1680	00000000	00000013	addi	x0,x0,0	  x0:0x00000000
       16825000	      1681	80001460	00000013	addi	x0,x0,0	  x0:0x00000000
       16835000	      1682	80001464	fe1ff36f	jal	x6,80001464	  x6=0x80001464
       16845000	      1683	00000000	00000013	addi	x0,x0,0	  x0:0x00000000
       16855000	      1684	80001440	00000013	addi	x0,x0,0	  x0:0x00000000
       16865000	      1685	80001444	004000ef	jal	x1,80001444	  x1=0x80001444
       16875000	      1686	00000000	00000013	addi	x0,x0,0	  x0:0x00000000
       16885000	      1687	80001444	00000013	addi	x0,x0,0	  x0:0x00000000
       16895000	      1688	80001448	02400e6f	jal	x28,80001448	 x28=0x80001448
       16905000	      1689	00000000	00000013	addi	x0,x0,0	  x0:0x00000000
       16915000	      1690	80001468	00000013	addi	x0,x0,0	  x0:0x00000000
       16925000	      1691	8000146c	01ce8e33	add	x28,x29,x28	 x29:0x00000000 x28:0x80001448 x28=0x80001448
       16935000	      1692	80001470	0380036f	jal	x6,80001470	  x6=0x80001470
       16945000	      1693	00000000	00000013	addi	x0,x0,0	  x0:0x00000000
       16955000	      1694	800014a4	00000013	addi	x0,x0,0	  x0:0x00000000
       16965000	      1695	800014a8	01400bef	jal	x23,800014a8	 x23=0x800014a8
       16975000	      1696	00000000	00000013	addi	x0,x0,0	  x0:0x00000000
       16985000	      1697	800014b8	00000013	addi	x0,x0,0	  x0:0x00000000
       16995000	      1698	800014bc	fd1ffe6f	jal	x28,800014bc	 x28=0x800014bc
       17005000	      1699	00000000	00000013	addi	x0,x0,0	  x0:0x00000000
       17015000	      1700	80001488	00000013	addi	x0,x0,0	  x0:0x00000000
       17025000	      1701	8000148c	ff9ff0ef	jal	x1,8000148c	  x1=0x8000148c
       17035000	      1702	00000000	00000013	addi	x0,x0,0	  x0:0x00000000
       17045000	      1703	80001480	00000013	addi	x0,x0,0	  x0:0x00000000
       17055000	      1704	80001484	054000ef	jal	x1,80001484	  x1=0x80001484
       17065000	      1705	00000000	00000013	addi	x0,x0,0	  x0:0x00000000
       17075000	      1706	800014d4	00000013	addi	x0,x0,0	  x0:0x00000000
       17085000	      1707	800014d8	fc5ff4ef	jal	x9,800014d8	  x9=0x800014d8
       17095000	      1708	00000000	00000013	addi	x0,x0,0	  x0:0x00000000
       17105000	      1709	80001498	00000013	addi	x0,x0,0	  x0:0x00000000
       17115000	      1710	8000149c	fedff0ef	jal	x1,8000149c	  x1=0x8000149c
       17125000	      1711	00000000	00000013	addi	x0,x0,0	  x0:0x00000000
       17135000	      1712	80001484	00000013	addi	x0,x0,0	  x0:0x00000000
       17145000	      1713	80001488	00c003ef	jal	x7,80001488	  x7=0x80001488
       17155000	      1714	00000000	00000013	addi	x0,x0,0	  x0:0x00000000
       17165000	      1715	80001490	00000013	addi	x0,x0,0	  x0:0x00000000
       17175000	      1716	80001494	01c000ef	jal	x1,80001494	  x1=0x80001494
       17185000	      1717	00000000	00000013	addi	x0,x0,0	  x0:0x00000000
       17195000	      1718	800014ac	00000013	addi	x0,x0,0	  x0:0x00000000
       17205000	      1719	800014b0	ff5ff0ef	jal	x1,800014b0	  x1=0x800014b0
       17215000	      1720	00000000	00000013	addi	x0,x0,0	  x0:0x00000000
       17225000	      1721	800014a0	00000013	addi	x0,x0,0	  x0:0x00000000
       17235000	      1722	800014a4	fddff0ef	jal	x1,800014a4	  x1=0x800014a4
       17245000	      1723	00000000	00000013	addi	x0,x0,0	  x0:0x00000000
       17255000	      1724	8000147c	00000013	addi	x0,x0,0	  x0:0x00000000
       17265000	      1725	80001480	ff9ffc6f	jal	x24,80001480	 x24=0x80001480
       17275000	      1726	00000000	00000013	addi	x0,x0,0	  x0:0x00000000
       17285000	      1727	80001474	00000013	addi	x0,x0,0	  x0:0x00000000
       17295000	      1728	80001478	068000ef	jal	x1,80001478	  x1=0x80001478
       17305000	      1729	00000000	00000013	addi	x0,x0,0	  x0:0x00000000
       17315000	      1730	800014dc	00000013	addi	x0,x0,0	  x0:0x00000000
       17325000	      1731	800014e0	fe9ff0ef	jal	x1,800014e0	  x1=0x800014e0
       17335000	      1732	00000000	00000013	addi	x0,x0,0	  x0:0x00000000
       17345000	      1733	800014c4	00000013	addi	x0,x0,0	  x0:0x00000000
       17355000	      1734	800014c8	fd1ff0ef	jal	x1,800014c8	  x1=0x800014c8
       17365000	      1735	00000000	00000013	addi	x0,x0,0	  x0:0x00000000
       17375000	      1736	80001494	00000013	addi	x0,x0,0	  x0:0x00000000
       17385000	      1737	80001498	01c000ef	jal	x1,80001498	  x1=0x80001498
       17395000	      1738	00000000	00000013	addi	x0,x0,0	  x0:0x00000000
       17405000	      1739	800014b0	00000013	addi	x0,x0,0	  x0:0x00000000
       17415000	      1740	800014b4	01800f6f	jal	x30,800014b4	 x30=0x800014b4
       17425000	      1741	00000000	00000013	addi	x0,x0,0	  x0:0x00000000
       17435000	      1742	800014c8	00000013	addi	x0,x0,0	  x0:0x00000000
       17445000	      1743	800014cc	010000ef	jal	x1,800014cc	  x1=0x800014cc
       17455000	      1744	00000000	00000013	addi	x0,x0,0	  x0:0x00000000
       17465000	      1745	800014d8	00000013	addi	x0,x0,0	  x0:0x00000000
       17475000	      1746	800014dc	fe5ff36f	jal	x6,800014dc	  x6=0x800014dc
       17485000	      1747	00000000	00000013	addi	x0,x0,0	  x0:0x00000000
       17495000	      1748	800014bc	00000013	addi	x0,x0,0	  x0:0x00000000
       17505000	      1749	800014c0	014000ef	jal	x1,800014c0	  x1=0x800014c0
       17515000	      1750	00000000	00000013	addi	x0,x0,0	  x0:0x00000000
       17525000	      1751	800014d0	00000013	addi	x0,x0,0	  x0:0x00000000
       17535000	      1752	800014d4	fa1ff0ef	jal	x1,800014d4	  x1=0x800014d4
       17545000	      1753	00000000	00000013	addi	x0,x0,0	  x0:0x00000000
       17555000	      1754	80001470	00000013	addi	x0,x0,0	  x0:0x00000000
       17565000	      1755	80001474	050000ef	jal	x1,80001474	  x1=0x80001474
       17575000	      1756	00000000	00000013	addi	x0,x0,0	  x0:0x00000000
       17585000	      1757	800014c0	00000013	addi	x0,x0,0	  x0:0x00000000
       17595000	      1758	800014c4	fcdff0ef	jal	x1,800014c4	  x1=0x800014c4
       17605000	      1759	00000000	00000013	addi	x0,x0,0	  x0:0x00000000
       17615000	      1760	8000148c	00000013	addi	x0,x0,0	  x0:0x00000000
       17625000	      1761	80001490	040000ef	jal	x1,80001490	  x1=0x80001490
       17635000	      1762	00000000	00000013	addi	x0,x0,0	  x0:0x00000000
       17645000	      1763	800014cc	00000013	addi	x0,x0,0	  x0:0x00000000
       17655000	      1764	800014d0	fddff0ef	jal	x1,800014d0	  x1=0x800014d0
       17665000	      1765	00000000	00000013	addi	x0,x0,0	  x0:0x00000000
       17675000	      1766	800014a8	00000013	addi	x0,x0,0	  x0:0x00000000
       17685000	      1767	800014ac	fd1ff36f	jal	x6,800014ac	  x6=0x800014ac
       17695000	      1768	00000000	00000013	addi	x0,x0,0	  x0:0x00000000
       17705000	      1769	80001478	00000013	addi	x0,x0,0	  x0:0x00000000
       17715000	      1770	8000147c	03c0036f	jal	x6,8000147c	  x6=0x8000147c
       17725000	      1771	00000000	00000013	addi	x0,x0,0	  x0:0x00000000
       17735000	      1772	800014b4	00000013	addi	x0,x0,0	  x0:0x00000000
       17745000	      1773	800014b8	fe9ff36f	jal	x6,800014b8	  x6=0x800014b8
       17755000	      1774	00000000	00000013	addi	x0,x0,0	  x0:0x00000000
       17765000	      1775	8000149c	00000013	addi	x0,x0,0	  x0:0x00000000
       17775000	      1776	800014a0	044000ef	jal	x1,800014a0	  x1=0x800014a0
       17785000	      1777	00000000	00000013	addi	x0,x0,0	  x0:0x00000000
       17795000	      1778	800014e0	00000013	addi	x0,x0,0	  x0:0x00000000
       17805000	      1779	800014e4	1e23ec13	ori	x24,x7,482	  x7:0x80001488 x24=0x800015ea
       17815000	      1780	800014e8	0200036f	jal	x6,800014e8	  x6=0x800014e8
       17825000	      1781	00000000	00000013	addi	x0,x0,0	  x0:0x00000000
       17835000	      1782	80001504	00000013	addi	x0,x0,0	  x0:0x00000000
       17845000	      1783	80001508	014000ef	jal	x1,80001508	  x1=0x80001508
       17855000	      1784	00000000	00000013	addi	x0,x0,0	  x0:0x00000000
       17865000	      1785	80001518	00000013	addi	x0,x0,0	  x0:0x00000000
       17875000	      1786	8000151c	fd5ff0ef	jal	x1,8000151c	  x1=0x8000151c
       17885000	      1787	00000000	00000013	addi	x0,x0,0	  x0:0x00000000
       17895000	      1788	800014ec	00000013	addi	x0,x0,0	  x0:0x00000000
       17905000	      1789	800014f0	008000ef	jal	x1,800014f0	  x1=0x800014f0
       17915000	      1790	00000000	00000013	addi	x0,x0,0	  x0:0x00000000
       17925000	      1791	800014f4	00000013	addi	x0,x0,0	  x0:0x00000000
       17935000	      1792	800014f8	0040026f	jal	x4,800014f8	  x4=0x800014f8
       17945000	      1793	00000000	00000013	addi	x0,x0,0	  x0:0x00000000
       17955000	      1794	800014f8	00000013	addi	x0,x0,0	  x0:0x00000000
       17965000	      1795	800014fc	01c000ef	jal	x1,800014fc	  x1=0x800014fc
       17975000	      1796	00000000	00000013	addi	x0,x0,0	  x0:0x00000000
       17985000	      1797	80001514	00000013	addi	x0,x0,0	  x0:0x00000000
       17995000	      1798	80001518	ffdff16f	jal	x2,80001518	  x2=0x80001518
       18005000	      1799	00000000	00000013	addi	x0,x0,0	  x0:0x00000000
       18015000	      1800	80001510	00000013	addi	x0,x0,0	  x0:0x00000000
       18025000	      1801	80001514	ff9ff0ef	jal	x1,80001514	  x1=0x80001514
       18035000	      1802	00000000	00000013	addi	x0,x0,0	  x0:0x00000000
       18045000	      1803	80001508	00000013	addi	x0,x0,0	  x0:0x00000000
       18055000	      1804	8000150c	0040016f	jal	x2,8000150c	  x2=0x8000150c
       18065000	      1805	00000000	00000013	addi	x0,x0,0	  x0:0x00000000
       18075000	      1806	8000150c	00000013	addi	x0,x0,0	  x0:0x00000000
       18085000	      1807	80001510	ff5ff0ef	jal	x1,80001510	  x1=0x80001510
       18095000	      1808	00000000	00000013	addi	x0,x0,0	  x0:0x00000000
       18105000	      1809	80001500	00000013	addi	x0,x0,0	  x0:0x00000000
       18115000	      1810	80001504	ff1ff4ef	jal	x9,80001504	  x9=0x80001504
       18125000	      1811	00000000	00000013	addi	x0,x0,0	  x0:0x00000000
       18135000	      1812	800014f0	00000013	addi	x0,x0,0	  x0:0x00000000
       18145000	      1813	800014f4	ff9ff0ef	jal	x1,800014f4	  x1=0x800014f4
       18155000	      1814	00000000	00000013	addi	x0,x0,0	  x0:0x00000000
       18165000	      1815	800014e8	00000013	addi	x0,x0,0	  x0:0x00000000
       18175000	      1816	800014ec	03400bef	jal	x23,800014ec	 x23=0x800014ec
       18185000	      1817	00000000	00000013	addi	x0,x0,0	  x0:0x00000000
       18195000	      1818	8000151c	00000013	addi	x0,x0,0	  x0:0x00000000
       18205000	      1819	80001520	fe1ff0ef	jal	x1,80001520	  x1=0x80001520
       18215000	      1820	00000000	00000013	addi	x0,x0,0	  x0:0x00000000
       18225000	      1821	800014fc	00000013	addi	x0,x0,0	  x0:0x00000000
       18235000	      1822	80001500	0240096f	jal	x18,80001500	 x18=0x80001500
       18245000	      1823	00000000	00000013	addi	x0,x0,0	  x0:0x00000000
       18255000	      1824	80001520	00000013	addi	x0,x0,0	  x0:0x00000000
       18265000	      1825	80001524	00b007b3	add	x15,x0,x11	  x0:0x00000000 x11:0x80009fc4 x15=0x80009fc4
       18275000	      1826	80001528	0580036f	jal	x6,80001528	  x6=0x80001528
       18285000	      1827	00000000	00000013	addi	x0,x0,0	  x0:0x00000000
       18295000	      1828	8000157c	00000013	addi	x0,x0,0	  x0:0x00000000
       18305000	      1829	80001580	fd1ff0ef	jal	x1,80001580	  x1=0x80001580
       18315000	      1830	00000000	00000013	addi	x0,x0,0	  x0:0x00000000
       18325000	      1831	8000154c	00000013	addi	x0,x0,0	  x0:0x00000000
       18335000	      1832	80001550	0040036f	jal	x6,80001550	  x6=0x80001550
       18345000	      1833	00000000	00000013	addi	x0,x0,0	  x0:0x00000000
       18355000	      1834	80001550	00000013	addi	x0,x0,0	  x0:0x00000000
       18365000	      1835	80001554	fe5ff36f	jal	x6,80001554	  x6=0x80001554
       18375000	      1836	00000000	00000013	addi	x0,x0,0	  x0:0x00000000
       18385000	      1837	80001534	00000013	addi	x0,x0,0	  x0:0x00000000
       18395000	      1838	80001538	0140096f	jal	x18,80001538	 x18=0x80001538
       18405000	      1839	00000000	00000013	addi	x0,x0,0	  x0:0x00000000
       18415000	      1840	80001548	00000013	addi	x0,x0,0	  x0:0x00000000
       18425000	      1841	8000154c	0280036f	jal	x6,8000154c	  x6=0x8000154c
       18435000	      1842	00000000	00000013	addi	x0,x0,0	  x0:0x00000000
       18445000	      1843	80001570	00000013	addi	x0,x0,0	  x0:0x00000000
       18455000	      1844	80001574	ff1ff1ef	jal	x3,80001574	  x3=0x80001574
       18465000	      1845	00000000	00000013	addi	x0,x0,0	  x0:0x00000000
       18475000	      1846	80001560	00000013	addi	x0,x0,0	  x0:0x00000000
       18485000	      1847	80001564	00c00c6f	jal	x24,80001564	 x24=0x80001564
       18495000	      1848	00000000	00000013	addi	x0,x0,0	  x0:0x00000000
       18505000	      1849	8000156c	00000013	addi	x0,x0,0	  x0:0x00000000
       18515000	      1850	80001570	fd1ff0ef	jal	x1,80001570	  x1=0x80001570
       18525000	      1851	00000000	00000013	addi	x0,x0,0	  x0:0x00000000
       18535000	      1852	8000153c	00000013	addi	x0,x0,0	  x0:0x00000000
       18545000	      1853	80001540	020001ef	jal	x3,80001540	  x3=0x80001540
       18555000	      1854	00000000	00000013	addi	x0,x0,0	  x0:0x00000000
       18565000	      1855	8000155c	00000013	addi	x0,x0,0	  x0:0x00000000
       18575000	      1856	80001560	01c0036f	jal	x6,80001560	  x6=0x80001560
       18585000	      1857	00000000	00000013	addi	x0,x0,0	  x0:0x00000000
       18595000	      1858	80001578	00000013	addi	x0,x0,0	  x0:0x00000000
       18605000	      1859	8000157c	fb9ff26f	jal	x4,8000157c	  x4=0x8000157c
       18615000	      1860	00000000	00000013	addi	x0,x0,0	  x0:0x00000000
       18625000	      1861	80001530	00000013	addi	x0,x0,0	  x0:0x00000000
       18635000	      1862	80001534	0280036f	jal	x6,80001534	  x6=0x80001534
       18645000	      1863	00000000	00000013	addi	x0,x0,0	  x0:0x00000000
       18655000	      1864	80001558	00000013	addi	x0,x0,0	  x0:0x00000000
       18665000	      1865	8000155c	fd5ff0ef	jal	x1,8000155c	  x1=0x8000155c
       18675000	      1866	00000000	00000013	addi	x0,x0,0	  x0:0x00000000
       18685000	      1867	8000152c	00000013	addi	x0,x0,0	  x0:0x00000000
       18695000	      1868	80001530	048000ef	jal	x1,80001530	  x1=0x80001530
       18705000	      1869	00000000	00000013	addi	x0,x0,0	  x0:0x00000000
       18715000	      1870	80001574	00000013	addi	x0,x0,0	  x0:0x00000000
       18725000	      1871	80001578	fcdff0ef	jal	x1,80001578	  x1=0x80001578
       18735000	      1872	00000000	00000013	addi	x0,x0,0	  x0:0x00000000
       18745000	      1873	80001540	00000013	addi	x0,x0,0	  x0:0x00000000
       18755000	      1874	80001544	fe9ff36f	jal	x6,80001544	  x6=0x80001544
       18765000	      1875	00000000	00000013	addi	x0,x0,0	  x0:0x00000000
       18775000	      1876	80001528	00000013	addi	x0,x0,0	  x0:0x00000000
       18785000	      1877	8000152c	01000cef	jal	x25,8000152c	 x25=0x8000152c
       18795000	      1878	00000000	00000013	addi	x0,x0,0	  x0:0x00000000
       18805000	      1879	80001538	00000013	addi	x0,x0,0	  x0:0x00000000
       18815000	      1880	8000153c	02c000ef	jal	x1,8000153c	  x1=0x8000153c
       18825000	      1881	00000000	00000013	addi	x0,x0,0	  x0:0x00000000
       18835000	      1882	80001564	00000013	addi	x0,x0,0	  x0:0x00000000
       18845000	      1883	80001568	fe1ff0ef	jal	x1,80001568	  x1=0x80001568
       18855000	      1884	00000000	00000013	addi	x0,x0,0	  x0:0x00000000
       18865000	      1885	80001544	00000013	addi	x0,x0,0	  x0:0x00000000
       18875000	      1886	80001548	024000ef	jal	x1,80001548	  x1=0x80001548
       18885000	      1887	00000000	00000013	addi	x0,x0,0	  x0:0x00000000
       18895000	      1888	80001568	00000013	addi	x0,x0,0	  x0:0x00000000
       18905000	      1889	8000156c	fedff0ef	jal	x1,8000156c	  x1=0x8000156c
       18915000	      1890	00000000	00000013	addi	x0,x0,0	  x0:0x00000000
       18925000	      1891	80001554	00000013	addi	x0,x0,0	  x0:0x00000000
       18935000	      1892	80001558	02c000ef	jal	x1,80001558	  x1=0x80001558
       18945000	      1893	00000000	00000013	addi	x0,x0,0	  x0:0x00000000
       18955000	      1894	80001580	00000013	addi	x0,x0,0	  x0:0x00000000
       18965000	      1895	80001584	41765433	sra	x8,x12,x23	 x12:0x80001328 x23:0x800014ec  x8=0xfff80001
       18975000	      1896	80001588	0200036f	jal	x6,80001588	  x6=0x80001588
       18985000	      1897	00000000	00000013	addi	x0,x0,0	  x0:0x00000000
       18995000	      1898	800015a4	00000013	addi	x0,x0,0	  x0:0x00000000
       19005000	      1899	800015a8	0100036f	jal	x6,800015a8	  x6=0x800015a8
       19015000	      1900	00000000	00000013	addi	x0,x0,0	  x0:0x00000000
       19025000	      1901	800015b4	00000013	addi	x0,x0,0	  x0:0x00000000
       19035000	      1902	800015b8	008000ef	jal	x1,800015b8	  x1=0x800015b8
       19045000	      1903	00000000	00000013	addi	x0,x0,0	  x0:0x00000000
       19055000	      1904	800015bc	00000013	addi	x0,x0,0	  x0:0x00000000
       19065000	      1905	800015c0	fd5ff0ef	jal	x1,800015c0	  x1=0x800015c0
       19075000	      1906	00000000	00000013	addi	x0,x0,0	  x0:0x00000000
       19085000	      1907	80001590	00000013	addi	x0,x0,0	  x0:0x00000000
       19095000	      1908	80001594	ff9ff76f	jal	x14,80001594	 x14=0x80001594
       19105000	      1909	00000000	00000013	addi	x0,x0,0	  x0:0x00000000
       19115000	      1910	80001588	00000013	addi	x0,x0,0	  x0:0x00000000
       19125000	      1911	8000158c	0240036f	jal	x6,8000158c	  x6=0x8000158c
       19135000	      1912	00000000	00000013	addi	x0,x0,0	  x0:0x00000000
       19145000	      1913	800015ac	00000013	addi	x0,x0,0	  x0:0x00000000
       19155000	      1914	800015b0	ff5ff0ef	jal	x1,800015b0	  x1=0x800015b0
       19165000	      1915	00000000	00000013	addi	x0,x0,0	  x0:0x00000000
       19175000	      1916	800015a0	00000013	addi	x0,x0,0	  x0:0x00000000
       19185000	      1917	800015a4	ff5ff0ef	jal	x1,800015a4	  x1=0x800015a4
       19195000	      1918	00000000	00000013	addi	x0,x0,0	  x0:0x00000000
       19205000	      1919	80001594	00000013	addi	x0,x0,0	  x0:0x00000000
       19215000	      1920	80001598	02c000ef	jal	x1,80001598	  x1=0x80001598
       19225000	      1921	00000000	00000013	addi	x0,x0,0	  x0:0x00000000
       19235000	      1922	800015c0	00000013	addi	x0,x0,0	  x0:0x00000000
       19245000	      1923	800015c4	fddff2ef	jal	x5,800015c4	  x5=0x800015c4
       19255000	      1924	00000000	00000013	addi	x0,x0,0	  x0:0x00000000
       19265000	      1925	8000159c	00000013	addi	x0,x0,0	  x0:0x00000000
       19275000	      1926	800015a0	ffdff36f	jal	x6,800015a0	  x6=0x800015a0
       19285000	      1927	00000000	00000013	addi	x0,x0,0	  x0:0x00000000
       19295000	      1928	80001598	00000013	addi	x0,x0,0	  x0:0x00000000
       19305000	      1929	8000159c	018000ef	jal	x1,8000159c	  x1=0x8000159c
       19315000	      1930	00000000	00000013	addi	x0,x0,0	  x0:0x00000000
       19325000	      1931	800015b0	00000013	addi	x0,x0,0	  x0:0x00000000
       19335000	      1932	800015b4	ff9ff0ef	jal	x1,800015b4	  x1=0x800015b4
       19345000	      1933	00000000	00000013	addi	x0,x0,0	  x0:0x00000000
       19355000	      1934	800015a8	00000013	addi	x0,x0,0	  x0:0x00000000
       19365000	      1935	800015ac	010000ef	jal	x1,800015ac	  x1=0x800015ac
       19375000	      1936	00000000	00000013	addi	x0,x0,0	  x0:0x00000000
       19385000	      1937	800015b8	00000013	addi	x0,x0,0	  x0:0x00000000
       19395000	      1938	800015bc	fd5ff56f	jal	x10,800015bc	 x10=0x800015bc
       19405000	      1939	00000000	00000013	addi	x0,x0,0	  x0:0x00000000
       19415000	      1940	8000158c	00000013	addi	x0,x0,0	  x0:0x00000000
       19425000	      1941	80001590	038000ef	jal	x1,80001590	  x1=0x80001590
       19435000	      1942	00000000	00000013	addi	x0,x0,0	  x0:0x00000000
       19445000	      1943	800015c4	00000013	addi	x0,x0,0	  x0:0x00000000
       19455000	      1944	800015c8	d6a287b7	lui	x15,0xd6a28	 x15=0xd6a28000
       19465000	      1945	800015cc	0140036f	jal	x6,800015cc	  x6=0x800015cc
       19475000	      1946	00000000	00000013	addi	x0,x0,0	  x0:0x00000000
       19485000	      1947	800015dc	00000013	addi	x0,x0,0	  x0:0x00000000
       19495000	      1948	800015e0	0180036f	jal	x6,800015e0	  x6=0x800015e0
       19505000	      1949	00000000	00000013	addi	x0,x0,0	  x0:0x00000000
       19515000	      1950	800015f4	00000013	addi	x0,x0,0	  x0:0x00000000
       19525000	      1951	800015f8	fddff4ef	jal	x9,800015f8	  x9=0x800015f8
       19535000	      1952	00000000	00000013	addi	x0,x0,0	  x0:0x00000000
       19545000	      1953	800015d0	00000013	addi	x0,x0,0	  x0:0x00000000
       19555000	      1954	800015d4	ffdff7ef	jal	x15,800015d4	 x15=0x800015d4
       19565000	      1955	00000000	00000013	addi	x0,x0,0	  x0:0x00000000
       19575000	      1956	800015cc	00000013	addi	x0,x0,0	  x0:0x00000000
       19585000	      1957	800015d0	0180036f	jal	x6,800015d0	  x6=0x800015d0
       19595000	      1958	00000000	00000013	addi	x0,x0,0	  x0:0x00000000
       19605000	      1959	800015e4	00000013	addi	x0,x0,0	  x0:0x00000000
       19615000	      1960	800015e8	00c000ef	jal	x1,800015e8	  x1=0x800015e8
       19625000	      1961	00000000	00000013	addi	x0,x0,0	  x0:0x00000000
       19635000	      1962	800015f0	00000013	addi	x0,x0,0	  x0:0x00000000
       19645000	      1963	800015f4	ff9ff0ef	jal	x1,800015f4	  x1=0x800015f4
       19655000	      1964	00000000	00000013	addi	x0,x0,0	  x0:0x00000000
       19665000	      1965	800015e8	00000013	addi	x0,x0,0	  x0:0x00000000
       19675000	      1966	800015ec	fedff0ef	jal	x1,800015ec	  x1=0x800015ec
       19685000	      1967	00000000	00000013	addi	x0,x0,0	  x0:0x00000000
       19695000	      1968	800015d4	00000013	addi	x0,x0,0	  x0:0x00000000
       19705000	      1969	800015d8	00c000ef	jal	x1,800015d8	  x1=0x800015d8
       19715000	      1970	00000000	00000013	addi	x0,x0,0	  x0:0x00000000
       19725000	      1971	800015e0	00000013	addi	x0,x0,0	  x0:0x00000000
       19735000	      1972	800015e4	00c000ef	jal	x1,800015e4	  x1=0x800015e4
       19745000	      1973	00000000	00000013	addi	x0,x0,0	  x0:0x00000000
       19755000	      1974	800015ec	00000013	addi	x0,x0,0	  x0:0x00000000
       19765000	      1975	800015f0	fedff36f	jal	x6,800015f0	  x6=0x800015f0
       19775000	      1976	00000000	00000013	addi	x0,x0,0	  x0:0x00000000
       19785000	      1977	800015d8	00000013	addi	x0,x0,0	  x0:0x00000000
       19795000	      1978	800015dc	0200036f	jal	x6,800015dc	  x6=0x800015dc
       19805000	      1979	00000000	00000013	addi	x0,x0,0	  x0:0x00000000
       19815000	      1980	800015f8	00000013	addi	x0,x0,0	  x0:0x00000000
       19825000	      1981	800015fc	40785c93	srai	x25,x16,0x7	 x16:0x80001460 x25=0xff000028
       19835000	      1982	80001600	0740036f	jal	x6,80001600	  x6=0x80001600
       19845000	      1983	00000000	00000013	addi	x0,x0,0	  x0:0x00000000
       19855000	      1984	80001670	00000013	addi	x0,x0,0	  x0:0x00000000
       19865000	      1985	80001674	fe9ff0ef	jal	x1,80001674	  x1=0x80001674
       19875000	      1986	00000000	00000013	addi	x0,x0,0	  x0:0x00000000
       19885000	      1987	80001658	00000013	addi	x0,x0,0	  x0:0x00000000
       19895000	      1988	8000165c	fc9ff0ef	jal	x1,8000165c	  x1=0x8000165c
       19905000	      1989	00000000	00000013	addi	x0,x0,0	  x0:0x00000000
       19915000	      1990	80001620	00000013	addi	x0,x0,0	  x0:0x00000000
       19925000	      1991	80001624	ffdff46f	jal	x8,80001624	  x8=0x80001624
       19935000	      1992	00000000	00000013	addi	x0,x0,0	  x0:0x00000000
       19945000	      1993	8000161c	00000013	addi	x0,x0,0	  x0:0x00000000
       19955000	      1994	80001620	ffdff0ef	jal	x1,80001620	  x1=0x80001620
       19965000	      1995	00000000	00000013	addi	x0,x0,0	  x0:0x00000000
       19975000	      1996	80001618	00000013	addi	x0,x0,0	  x0:0x00000000
       19985000	      1997	8000161c	04400a6f	jal	x20,8000161c	 x20=0x8000161c
       19995000	      1998	00000000	00000013	addi	x0,x0,0	  x0:0x00000000
       20005000	      1999	8000165c	00000013	addi	x0,x0,0	  x0:0x00000000
       20015000	      2000	80001660	fb9ff0ef	jal	x1,80001660	  x1=0x80001660
       20025000	      2001	00000000	00000013	addi	x0,x0,0	  x0:0x00000000
       20035000	      2002	80001614	00000013	addi	x0,x0,0	  x0:0x00000000
       20045000	      2003	80001618	0380036f	jal	x6,80001618	  x6=0x80001618
       20055000	      2004	00000000	00000013	addi	x0,x0,0	  x0:0x00000000
       20065000	      2005	8000164c	00000013	addi	x0,x0,0	  x0:0x00000000
       20075000	      2006	80001650	0140036f	jal	x6,80001650	  x6=0x80001650
       20085000	      2007	00000000	00000013	addi	x0,x0,0	  x0:0x00000000
       20095000	      2008	80001660	00000013	addi	x0,x0,0	  x0:0x00000000
       20105000	      2009	80001664	fa9ff36f	jal	x6,80001664	  x6=0x80001664
       20115000	      2010	00000000	00000013	addi	x0,x0,0	  x0:0x00000000
       20125000	      2011	80001608	00000013	addi	x0,x0,0	  x0:0x00000000
       20135000	      2012	8000160c	02c0086f	jal	x16,8000160c	 x16=0x8000160c
       20145000	      2013	00000000	00000013	addi	x0,x0,0	  x0:0x00000000
       20155000	      2014	80001634	00000013	addi	x0,x0,0	  x0:0x00000000
       20165000	      2015	80001638	fd9ff0ef	jal	x1,80001638	  x1=0x80001638
       20175000	      2016	00000000	00000013	addi	x0,x0,0	  x0:0x00000000
       20185000	      2017	8000160c	00000013	addi	x0,x0,0	  x0:0x00000000
       20195000	      2018	80001610	034000ef	jal	x1,80001610	  x1=0x80001610
       20205000	      2019	00000000	00000013	addi	x0,x0,0	  x0:0x00000000
       20215000	      2020	80001640	00000013	addi	x0,x0,0	  x0:0x00000000
       20225000	      2021	80001644	fedff0ef	jal	x1,80001644	  x1=0x80001644
       20235000	      2022	00000000	00000013	addi	x0,x0,0	  x0:0x00000000
       20245000	      2023	8000162c	00000013	addi	x0,x0,0	  x0:0x00000000
       20255000	      2024	80001630	01c0026f	jal	x4,80001630	  x4=0x80001630
       20265000	      2025	00000000	00000013	addi	x0,x0,0	  x0:0x00000000
       20275000	      2026	80001648	00000013	addi	x0,x0,0	  x0:0x00000000
       20285000	      2027	8000164c	02c000ef	jal	x1,8000164c	  x1=0x8000164c
       20295000	      2028	00000000	00000013	addi	x0,x0,0	  x0:0x00000000
       20305000	      2029	80001674	00000013	addi	x0,x0,0	  x0:0x00000000
       20315000	      2030	80001678	fc9ff0ef	jal	x1,80001678	  x1=0x80001678
       20325000	      2031	00000000	00000013	addi	x0,x0,0	  x0:0x00000000
       20335000	      2032	8000163c	00000013	addi	x0,x0,0	  x0:0x00000000
       20345000	      2033	80001640	030000ef	jal	x1,80001640	  x1=0x80001640
       20355000	      2034	00000000	00000013	addi	x0,x0,0	  x0:0x00000000
       20365000	      2035	8000166c	00000013	addi	x0,x0,0	  x0:0x00000000
       20375000	      2036	80001670	ffdff3ef	jal	x7,80001670	  x7=0x80001670
       20385000	      2037	00000000	00000013	addi	x0,x0,0	  x0:0x00000000
       20395000	      2038	80001668	00000013	addi	x0,x0,0	  x0:0x00000000
       20405000	      2039	8000166c	fc9ff8ef	jal	x17,8000166c	 x17=0x8000166c
       20415000	      2040	00000000	00000013	addi	x0,x0,0	  x0:0x00000000
       20425000	      2041	80001630	00000013	addi	x0,x0,0	  x0:0x00000000
       20435000	      2042	80001634	ff9ff0ef	jal	x1,80001634	  x1=0x80001634
       20445000	      2043	00000000	00000013	addi	x0,x0,0	  x0:0x00000000
       20455000	      2044	80001628	00000013	addi	x0,x0,0	  x0:0x00000000
       20465000	      2045	8000162c	fe9ff36f	jal	x6,8000162c	  x6=0x8000162c
       20475000	      2046	00000000	00000013	addi	x0,x0,0	  x0:0x00000000
       20485000	      2047	80001610	00000013	addi	x0,x0,0	  x0:0x00000000
       20495000	      2048	80001614	0280036f	jal	x6,80001614	  x6=0x80001614
       20505000	      2049	00000000	00000013	addi	x0,x0,0	  x0:0x00000000
       20515000	      2050	80001638	00000013	addi	x0,x0,0	  x0:0x00000000
       20525000	      2051	8000163c	018000ef	jal	x1,8000163c	  x1=0x8000163c
       20535000	      2052	00000000	00000013	addi	x0,x0,0	  x0:0x00000000
       20545000	      2053	80001650	00000013	addi	x0,x0,0	  x0:0x00000000
       20555000	      2054	80001654	fb1ff0ef	jal	x1,80001654	  x1=0x80001654
       20565000	      2055	00000000	00000013	addi	x0,x0,0	  x0:0x00000000
       20575000	      2056	80001600	00000013	addi	x0,x0,0	  x0:0x00000000
       20585000	      2057	80001604	0240036f	jal	x6,80001604	  x6=0x80001604
       20595000	      2058	00000000	00000013	addi	x0,x0,0	  x0:0x00000000
       20605000	      2059	80001624	00000013	addi	x0,x0,0	  x0:0x00000000
       20615000	      2060	80001628	0200086f	jal	x16,80001628	 x16=0x80001628
       20625000	      2061	00000000	00000013	addi	x0,x0,0	  x0:0x00000000
       20635000	      2062	80001644	00000013	addi	x0,x0,0	  x0:0x00000000
       20645000	      2063	80001648	010000ef	jal	x1,80001648	  x1=0x80001648
       20655000	      2064	00000000	00000013	addi	x0,x0,0	  x0:0x00000000
       20665000	      2065	80001654	00000013	addi	x0,x0,0	  x0:0x00000000
       20675000	      2066	80001658	fb1ff36f	jal	x6,80001658	  x6=0x80001658
       20685000	      2067	00000000	00000013	addi	x0,x0,0	  x0:0x00000000
       20695000	      2068	80001604	00000013	addi	x0,x0,0	  x0:0x00000000
       20705000	      2069	80001608	06000d6f	jal	x26,80001608	 x26=0x80001608
       20715000	      2070	00000000	00000013	addi	x0,x0,0	  x0:0x00000000
       20725000	      2071	80001664	00000013	addi	x0,x0,0	  x0:0x00000000
       20735000	      2072	80001668	014000ef	jal	x1,80001668	  x1=0x80001668
       20745000	      2073	00000000	00000013	addi	x0,x0,0	  x0:0x00000000
       20755000	      2074	80001678	00000013	addi	x0,x0,0	  x0:0x00000000
       20765000	      2075	8000167c	012581b3	add	x3,x11,x18	 x11:0x80009fc4 x18:0x80001538  x3=0x0000b4fc
       20775000	      2076	80001680	0240036f	jal	x6,80001680	  x6=0x80001680
       20785000	      2077	00000000	00000013	addi	x0,x0,0	  x0:0x00000000
       20795000	      2078	800016a0	00000013	addi	x0,x0,0	  x0:0x00000000
       20805000	      2079	800016a4	ff1ff0ef	jal	x1,800016a4	  x1=0x800016a4
       20815000	      2080	00000000	00000013	addi	x0,x0,0	  x0:0x00000000
       20825000	      2081	80001690	00000013	addi	x0,x0,0	  x0:0x00000000
       20835000	      2082	80001694	008000ef	jal	x1,80001694	  x1=0x80001694
       20845000	      2083	00000000	00000013	addi	x0,x0,0	  x0:0x00000000
       20855000	      2084	80001698	00000013	addi	x0,x0,0	  x0:0x00000000
       20865000	      2085	8000169c	0040036f	jal	x6,8000169c	  x6=0x8000169c
       20875000	      2086	00000000	00000013	addi	x0,x0,0	  x0:0x00000000
       20885000	      2087	8000169c	00000013	addi	x0,x0,0	  x0:0x00000000
       20895000	      2088	800016a0	fedff0ef	jal	x1,800016a0	  x1=0x800016a0
       20905000	      2089	00000000	00000013	addi	x0,x0,0	  x0:0x00000000
       20915000	      2090	80001688	00000013	addi	x0,x0,0	  x0:0x00000000
       20925000	      2091	8000168c	00c000ef	jal	x1,8000168c	  x1=0x8000168c
       20935000	      2092	00000000	00000013	addi	x0,x0,0	  x0:0x00000000
       20945000	      2093	80001694	00000013	addi	x0,x0,0	  x0:0x00000000
       20955000	      2094	80001698	0100036f	jal	x6,80001698	  x6=0x80001698
       20965000	      2095	00000000	00000013	addi	x0,x0,0	  x0:0x00000000
       20975000	      2096	800016a4	00000013	addi	x0,x0,0	  x0:0x00000000
       20985000	      2097	800016a8	004000ef	jal	x1,800016a8	  x1=0x800016a8
       20995000	      2098	00000000	00000013	addi	x0,x0,0	  x0:0x00000000
       21005000	      2099	800016a8	00000013	addi	x0,x0,0	  x0:0x00000000
       21015000	      2100	800016ac	fe5ff0ef	jal	x1,800016ac	  x1=0x800016ac
       21025000	      2101	00000000	00000013	addi	x0,x0,0	  x0:0x00000000
       21035000	      2102	8000168c	00000013	addi	x0,x0,0	  x0:0x00000000
       21045000	      2103	80001690	ff9ff0ef	jal	x1,80001690	  x1=0x80001690
       21055000	      2104	00000000	00000013	addi	x0,x0,0	  x0:0x00000000
       21065000	      2105	80001684	00000013	addi	x0,x0,0	  x0:0x00000000
       21075000	      2106	80001688	ffdffdef	jal	x27,80001688	 x27=0x80001688
       21085000	      2107	00000000	00000013	addi	x0,x0,0	  x0:0x00000000
       21095000	      2108	80001680	00000013	addi	x0,x0,0	  x0:0x00000000
       21105000	      2109	80001684	02c0016f	jal	x2,80001684	  x2=0x80001684
       21115000	      2110	00000000	00000013	addi	x0,x0,0	  x0:0x00000000
       21125000	      2111	800016ac	00000013	addi	x0,x0,0	  x0:0x00000000
       21135000	      2112	800016b0	004000ef	jal	x1,800016b0	  x1=0x800016b0
       21145000	      2113	00000000	00000013	addi	x0,x0,0	  x0:0x00000000
       21155000	      2114	800016b0	00000013	addi	x0,x0,0	  x0:0x00000000
       21165000	      2115	800016b4	287c2a93	slti	x21,x24,647	 x24:0x80001564 x21=0x00000001
       21175000	      2116	800016b8	0200036f	jal	x6,800016b8	  x6=0x800016b8
       21185000	      2117	00000000	00000013	addi	x0,x0,0	  x0:0x00000000
       21195000	      2118	800016d4	00000013	addi	x0,x0,0	  x0:0x00000000
       21205000	      2119	800016d8	fe5ff0ef	jal	x1,800016d8	  x1=0x800016d8
       21215000	      2120	00000000	00000013	addi	x0,x0,0	  x0:0x00000000
       21225000	      2121	800016b8	00000013	addi	x0,x0,0	  x0:0x00000000
       21235000	      2122	800016bc	0400036f	jal	x6,800016bc	  x6=0x800016bc
       21245000	      2123	00000000	00000013	addi	x0,x0,0	  x0:0x00000000
       21255000	      2124	800016f8	00000013	addi	x0,x0,0	  x0:0x00000000
       21265000	      2125	800016fc	ff5ff0ef	jal	x1,800016fc	  x1=0x800016fc
       21275000	      2126	00000000	00000013	addi	x0,x0,0	  x0:0x00000000
       21285000	      2127	800016ec	00000013	addi	x0,x0,0	  x0:0x00000000
       21295000	      2128	800016f0	ff1ff7ef	jal	x15,800016f0	 x15=0x800016f0
       21305000	      2129	00000000	00000013	addi	x0,x0,0	  x0:0x00000000
       21315000	      2130	800016dc	00000013	addi	x0,x0,0	  x0:0x00000000
       21325000	      2131	800016e0	ff1ff0ef	jal	x1,800016e0	  x1=0x800016e0
       21335000	      2132	00000000	00000013	addi	x0,x0,0	  x0:0x00000000
       21345000	      2133	800016cc	00000013	addi	x0,x0,0	  x0:0x00000000
       21355000	      2134	800016d0	00c000ef	jal	x1,800016d0	  x1=0x800016d0
       21365000	      2135	00000000	00000013	addi	x0,x0,0	  x0:0x00000000
       21375000	      2136	800016d8	00000013	addi	x0,x0,0	  x0:0x00000000
       21385000	      2137	800016dc	ff9ff0ef	jal	x1,800016dc	  x1=0x800016dc
       21395000	      2138	00000000	00000013	addi	x0,x0,0	  x0:0x00000000
       21405000	      2139	800016d0	00000013	addi	x0,x0,0	  x0:0x00000000
       21415000	      2140	800016d4	010000ef	jal	x1,800016d4	  x1=0x800016d4
       21425000	      2141	00000000	00000013	addi	x0,x0,0	  x0:0x00000000
       21435000	      2142	800016e0	00000013	addi	x0,x0,0	  x0:0x00000000
       21445000	      2143	800016e4	00400fef	jal	x31,800016e4	 x31=0x800016e4
       21455000	      2144	00000000	00000013	addi	x0,x0,0	  x0:0x00000000
       21465000	      2145	800016e4	00000013	addi	x0,x0,0	  x0:0x00000000
       21475000	      2146	800016e8	00400fef	jal	x31,800016e8	 x31=0x800016e8
       21485000	      2147	00000000	00000013	addi	x0,x0,0	  x0:0x00000000
       21495000	      2148	800016e8	00000013	addi	x0,x0,0	  x0:0x00000000
       21505000	      2149	800016ec	018001ef	jal	x3,800016ec	  x3=0x800016ec
       21515000	      2150	00000000	00000013	addi	x0,x0,0	  x0:0x00000000
       21525000	      2151	80001700	00000013	addi	x0,x0,0	  x0:0x00000000
       21535000	      2152	80001704	ff1ff0ef	jal	x1,80001704	  x1=0x80001704
       21545000	      2153	00000000	00000013	addi	x0,x0,0	  x0:0x00000000
       21555000	      2154	800016f0	00000013	addi	x0,x0,0	  x0:0x00000000
       21565000	      2155	800016f4	fd1ff36f	jal	x6,800016f4	  x6=0x800016f4
       21575000	      2156	00000000	00000013	addi	x0,x0,0	  x0:0x00000000
       21585000	      2157	800016c0	00000013	addi	x0,x0,0	  x0:0x00000000
       21595000	      2158	800016c4	008002ef	jal	x5,800016c4	  x5=0x800016c4
       21605000	      2159	00000000	00000013	addi	x0,x0,0	  x0:0x00000000
       21615000	      2160	800016c8	00000013	addi	x0,x0,0	  x0:0x00000000
       21625000	      2161	800016cc	02c00a6f	jal	x20,800016cc	 x20=0x800016cc
       21635000	      2162	00000000	00000013	addi	x0,x0,0	  x0:0x00000000
       21645000	      2163	800016f4	00000013	addi	x0,x0,0	  x0:0x00000000
       21655000	      2164	800016f8	fd1ff2ef	jal	x5,800016f8	  x5=0x800016f8
       21665000	      2165	00000000	00000013	addi	x0,x0,0	  x0:0x00000000
       21675000	      2166	800016c4	00000013	addi	x0,x0,0	  x0:0x00000000
       21685000	      2167	800016c8	ff9ff16f	jal	x2,800016c8	  x2=0x800016c8
       21695000	      2168	00000000	00000013	addi	x0,x0,0	  x0:0x00000000
       21705000	      2169	800016bc	00000013	addi	x0,x0,0	  x0:0x00000000
       21715000	      2170	800016c0	040000ef	jal	x1,800016c0	  x1=0x800016c0
       21725000	      2171	00000000	00000013	addi	x0,x0,0	  x0:0x00000000
       21735000	      2172	800016fc	00000013	addi	x0,x0,0	  x0:0x00000000
       21745000	      2173	80001700	008000ef	jal	x1,80001700	  x1=0x80001700
       21755000	      2174	00000000	00000013	addi	x0,x0,0	  x0:0x00000000
       21765000	      2175	80001704	00000013	addi	x0,x0,0	  x0:0x00000000
       21775000	      2176	80001708	01a9d733	srl	x14,x19,x26	 x19:0x80009f48 x26:0x80001608 x14=0x0080009f
       21785000	      2177	8000170c	0400036f	jal	x6,8000170c	  x6=0x8000170c
       21795000	      2178	00000000	00000013	addi	x0,x0,0	  x0:0x00000000
       21805000	      2179	80001748	00000013	addi	x0,x0,0	  x0:0x00000000
       21815000	      2180	8000174c	ff5ff0ef	jal	x1,8000174c	  x1=0x8000174c
       21825000	      2181	00000000	00000013	addi	x0,x0,0	  x0:0x00000000
       21835000	      2182	8000173c	00000013	addi	x0,x0,0	  x0:0x00000000
       21845000	      2183	80001740	fe9ff36f	jal	x6,80001740	  x6=0x80001740
       21855000	      2184	00000000	00000013	addi	x0,x0,0	  x0:0x00000000
       21865000	      2185	80001724	00000013	addi	x0,x0,0	  x0:0x00000000
       21875000	      2186	80001728	0080076f	jal	x14,80001728	 x14=0x80001728
       21885000	      2187	00000000	00000013	addi	x0,x0,0	  x0:0x00000000
       21895000	      2188	8000172c	00000013	addi	x0,x0,0	  x0:0x00000000
       21905000	      2189	80001730	ff5ff0ef	jal	x1,80001730	  x1=0x80001730
       21915000	      2190	00000000	00000013	addi	x0,x0,0	  x0:0x00000000
       21925000	      2191	80001720	00000013	addi	x0,x0,0	  x0:0x00000000
       21935000	      2192	80001724	018003ef	jal	x7,80001724	  x7=0x80001724
       21945000	      2193	00000000	00000013	addi	x0,x0,0	  x0:0x00000000
       21955000	      2194	80001738	00000013	addi	x0,x0,0	  x0:0x00000000
       21965000	      2195	8000173c	014000ef	jal	x1,8000173c	  x1=0x8000173c
       21975000	      2196	00000000	00000013	addi	x0,x0,0	  x0:0x00000000
       21985000	      2197	8000174c	00000013	addi	x0,x0,0	  x0:0x00000000
       21995000	      2198	80001750	fcdff0ef	jal	x1,80001750	  x1=0x80001750
       22005000	      2199	00000000	00000013	addi	x0,x0,0	  x0:0x00000000
       22015000	      2200	80001718	00000013	addi	x0,x0,0	  x0:0x00000000
       22025000	      2201	8000171c	ffdff0ef	jal	x1,8000171c	  x1=0x8000171c
       22035000	      2202	00000000	00000013	addi	x0,x0,0	  x0:0x00000000
       22045000	      2203	80001714	00000013	addi	x0,x0,0	  x0:0x00000000
       22055000	      2204	80001718	0080036f	jal	x6,80001718	  x6=0x80001718
       22065000	      2205	00000000	00000013	addi	x0,x0,0	  x0:0x00000000
       22075000	      2206	8000171c	00000013	addi	x0,x0,0	  x0:0x00000000
       22085000	      2207	80001720	ff5ff46f	jal	x8,80001720	  x8=0x80001720
       22095000	      2208	00000000	00000013	addi	x0,x0,0	  x0:0x00000000
       22105000	      2209	80001710	00000013	addi	x0,x0,0	  x0:0x00000000
       22115000	      2210	80001714	020000ef	jal	x1,80001714	  x1=0x80001714
       22125000	      2211	00000000	00000013	addi	x0,x0,0	  x0:0x00000000
       22135000	      2212	80001730	00000013	addi	x0,x0,0	  x0:0x00000000
       22145000	      2213	80001734	004004ef	jal	x9,80001734	  x9=0x80001734
       22155000	      2214	00000000	00000013	addi	x0,x0,0	  x0:0x00000000
       22165000	      2215	80001734	00000013	addi	x0,x0,0	  x0:0x00000000
       22175000	      2216	80001738	00c000ef	jal	x1,80001738	  x1=0x80001738
       22185000	      2217	00000000	00000013	addi	x0,x0,0	  x0:0x00000000
       22195000	      2218	80001740	00000013	addi	x0,x0,0	  x0:0x00000000
       22205000	      2219	80001744	004000ef	jal	x1,80001744	  x1=0x80001744
       22215000	      2220	00000000	00000013	addi	x0,x0,0	  x0:0x00000000
       22225000	      2221	80001744	00000013	addi	x0,x0,0	  x0:0x00000000
       22235000	      2222	80001748	fe5ff36f	jal	x6,80001748	  x6=0x80001748
       22245000	      2223	00000000	00000013	addi	x0,x0,0	  x0:0x00000000
       22255000	      2224	80001728	00000013	addi	x0,x0,0	  x0:0x00000000
       22265000	      2225	8000172c	fe5ff0ef	jal	x1,8000172c	  x1=0x8000172c
       22275000	      2226	00000000	00000013	addi	x0,x0,0	  x0:0x00000000
       22285000	      2227	8000170c	00000013	addi	x0,x0,0	  x0:0x00000000
       22295000	      2228	80001710	0440026f	jal	x4,80001710	  x4=0x80001710
       22305000	      2229	00000000	00000013	addi	x0,x0,0	  x0:0x00000000
       22315000	      2230	80001750	00000013	addi	x0,x0,0	  x0:0x00000000
       22325000	      2231	80001754	00a882b3	add	x5,x17,x10	 x17:0x8000166c x10:0x800015bc  x5=0x00002c28
       22335000	      2232	80001758	0100036f	jal	x6,80001758	  x6=0x80001758
       22345000	      2233	00000000	00000013	addi	x0,x0,0	  x0:0x00000000
       22355000	      2234	80001764	00000013	addi	x0,x0,0	  x0:0x00000000
       22365000	      2235	80001768	034000ef	jal	x1,80001768	  x1=0x80001768
       22375000	      2236	00000000	00000013	addi	x0,x0,0	  x0:0x00000000
       22385000	      2237	80001798	00000013	addi	x0,x0,0	  x0:0x00000000
       22395000	      2238	8000179c	fe1ff1ef	jal	x3,8000179c	  x3=0x8000179c
       22405000	      2239	00000000	00000013	addi	x0,x0,0	  x0:0x00000000
       22415000	      2240	80001778	00000013	addi	x0,x0,0	  x0:0x00000000
       22425000	      2241	8000177c	ff5ff0ef	jal	x1,8000177c	  x1=0x8000177c
       22435000	      2242	00000000	00000013	addi	x0,x0,0	  x0:0x00000000
       22445000	      2243	8000176c	00000013	addi	x0,x0,0	  x0:0x00000000
       22455000	      2244	80001770	030000ef	jal	x1,80001770	  x1=0x80001770
       22465000	      2245	00000000	00000013	addi	x0,x0,0	  x0:0x00000000
       22475000	      2246	8000179c	00000013	addi	x0,x0,0	  x0:0x00000000
       22485000	      2247	800017a0	fbdff36f	jal	x6,800017a0	  x6=0x800017a0
       22495000	      2248	00000000	00000013	addi	x0,x0,0	  x0:0x00000000
       22505000	      2249	80001758	00000013	addi	x0,x0,0	  x0:0x00000000
       22515000	      2250	8000175c	0100036f	jal	x6,8000175c	  x6=0x8000175c
       22525000	      2251	00000000	00000013	addi	x0,x0,0	  x0:0x00000000
       22535000	      2252	80001768	00000013	addi	x0,x0,0	  x0:0x00000000
       22545000	      2253	8000176c	01c0036f	jal	x6,8000176c	  x6=0x8000176c
       22555000	      2254	00000000	00000013	addi	x0,x0,0	  x0:0x00000000
       22565000	      2255	80001784	00000013	addi	x0,x0,0	  x0:0x00000000
       22575000	      2256	80001788	fd9ff0ef	jal	x1,80001788	  x1=0x80001788
       22585000	      2257	00000000	00000013	addi	x0,x0,0	  x0:0x00000000
       22595000	      2258	8000175c	00000013	addi	x0,x0,0	  x0:0x00000000
       22605000	      2259	80001760	0340036f	jal	x6,80001760	  x6=0x80001760
       22615000	      2260	00000000	00000013	addi	x0,x0,0	  x0:0x00000000
       22625000	      2261	80001790	00000013	addi	x0,x0,0	  x0:0x00000000
       22635000	      2262	80001794	0040036f	jal	x6,80001794	  x6=0x80001794
       22645000	      2263	00000000	00000013	addi	x0,x0,0	  x0:0x00000000
       22655000	      2264	80001794	00000013	addi	x0,x0,0	  x0:0x00000000
       22665000	      2265	80001798	fcdff36f	jal	x6,80001798	  x6=0x80001798
       22675000	      2266	00000000	00000013	addi	x0,x0,0	  x0:0x00000000
       22685000	      2267	80001760	00000013	addi	x0,x0,0	  x0:0x00000000
       22695000	      2268	80001764	02c0016f	jal	x2,80001764	  x2=0x80001764
       22705000	      2269	00000000	00000013	addi	x0,x0,0	  x0:0x00000000
       22715000	      2270	8000178c	00000013	addi	x0,x0,0	  x0:0x00000000
       22725000	      2271	80001790	ffdff0ef	jal	x1,80001790	  x1=0x80001790
       22735000	      2272	00000000	00000013	addi	x0,x0,0	  x0:0x00000000
       22745000	      2273	80001788	00000013	addi	x0,x0,0	  x0:0x00000000
       22755000	      2274	8000178c	fedff0ef	jal	x1,8000178c	  x1=0x8000178c
       22765000	      2275	00000000	00000013	addi	x0,x0,0	  x0:0x00000000
       22775000	      2276	80001774	00000013	addi	x0,x0,0	  x0:0x00000000
       22785000	      2277	80001778	008000ef	jal	x1,80001778	  x1=0x80001778
       22795000	      2278	00000000	00000013	addi	x0,x0,0	  x0:0x00000000
       22805000	      2279	8000177c	00000013	addi	x0,x0,0	  x0:0x00000000
       22815000	      2280	80001780	0040036f	jal	x6,80001780	  x6=0x80001780
       22825000	      2281	00000000	00000013	addi	x0,x0,0	  x0:0x00000000
       22835000	      2282	80001780	00000013	addi	x0,x0,0	  x0:0x00000000
       22845000	      2283	80001784	0200016f	jal	x2,80001784	  x2=0x80001784
       22855000	      2284	00000000	00000013	addi	x0,x0,0	  x0:0x00000000
       22865000	      2285	800017a0	00000013	addi	x0,x0,0	  x0:0x00000000
       22875000	      2286	800017a4	fd1ffc6f	jal	x24,800017a4	 x24=0x800017a4
       22885000	      2287	00000000	00000013	addi	x0,x0,0	  x0:0x00000000
       22895000	      2288	80001770	00000013	addi	x0,x0,0	  x0:0x00000000
       22905000	      2289	80001774	034000ef	jal	x1,80001774	  x1=0x80001774
       22915000	      2290	00000000	00000013	addi	x0,x0,0	  x0:0x00000000
       22925000	      2291	800017a4	00000013	addi	x0,x0,0	  x0:0x00000000
       22935000	      2292	800017a8	00000013	addi	x0,x0,0	  x0:0x00000000
       22945000	      2293	800017ac	014bd793	srli	x15,x23,0x14	 x23:0x800014ec x15=0x00000800
       22955000	      2294	800017b0	02fcd663	bge	x25,x15,800017dc	 x25:0xff000028 x15:0x00000800
       22965000	      2295	800017b4	01a0d233	srl	x4,x1,x26	  x1:0x80001774 x26:0x80001608  x4=0x00800017
       22975000	      2296	800017b8	8de73013	sltiu	x0,x14,-1826	 x14:0x80001728
       22985000	      2297	800017bc	020e9063	bne	x29,x0,800017dc	 x29:0x00000000  x0:0x00000000
       22995000	      2298	800017c0	00549463	bne	x9,x5,800017c8	  x9:0x80001734  x5:0x00002c28
       23005000	      2299	00000000	00000013	addi	x0,x0,0	  x0:0x00000000
       23015000	      2300	800017c4	00000013	addi	x0,x0,0	  x0:0x00000000
       23025000	      2301	800017c8	01b4ce63	blt	x9,x27,800017e4	  x9:0x80001734 x27:0x80001688
       23035000	      2302	800017cc	41275093	srai	x1,x14,0x12	 x14:0x80001728  x1=0xffffe000
       23045000	      2303	800017d0	410d5c93	srai	x25,x26,0x10	 x26:0x80001608 x25=0xffff8000
       23055000	      2304	800017d4	050ff063	bgeu	x31,x16,80001814	 x31:0x800016e8 x16:0x80001628
       23065000	      2305	00000000	00000013	addi	x0,x0,0	  x0:0x00000000
       23075000	      2306	80001810	00000013	addi	x0,x0,0	  x0:0x00000000
       23085000	      2307	80001814	12966193	ori	x3,x12,297	 x12:0x80001328  x3=0x80001329
       23095000	      2308	80001818	01d59713	slli	x14,x11,0x1d	 x11:0x80009fc4 x14=0x80000000
       23105000	      2309	8000181c	00cc62b3	or	x5,x24,x12	 x24:0x800017a4 x12:0x80001328  x5=0x800017ac
       23115000	      2310	80001820	01299613	slli	x12,x19,0x12	 x19:0x80009f48 x12=0x7d200000
       23125000	      2311	80001824	40c257b3	sra	x15,x4,x12	  x4:0x00800017 x12:0x7d200000 x15=0x00800017
       23135000	      2312	80001828	01425ab3	srl	x21,x4,x20	  x4:0x00800017 x20:0x800016cc x21=0x00000800
       23145000	      2313	8000182c	dc907e13	andi	x28,x0,-567	  x0:0x00000000 x28=0x00000000
       23155000	      2314	80001830	017c1ab3	sll	x21,x24,x23	 x24:0x800017a4 x23:0x800014ec x21=0x017a4000
       23165000	      2315	80001834	b9213413	sltiu	x8,x2,-1134	  x2:0x80001784  x8=0x00000001
       23175000	      2316	80001838	013c5a63	bge	x24,x19,8000184c	 x24:0x800017a4 x19:0x80009f48
       23185000	      2317	8000183c	ad2e2f93	slti	x31,x28,-1326	 x28:0x00000000 x31=0x00000000
       23195000	      2318	80001840	55829ab7	lui	x21,0x55829	 x21=0x55829000
       23205000	      2319	80001844	00000013	addi	x0,x0,0	  x0:0x00000000
       23215000	      2320	80001848	05064663	blt	x12,x16,80001894	 x12:0x7d200000 x16:0x80001628
       23225000	      2321	8000184c	037e0c63	beq	x28,x23,80001884	 x28:0x00000000 x23:0x800014ec
       23235000	      2322	80001850	01e076b3	and	x13,x0,x30	  x0:0x00000000 x30:0x800014b4 x13=0x00000000
       23245000	      2323	80001854	13ea8413	addi	x8,x21,318	 x21:0x55829000  x8=0x5582913e
       23255000	      2324	80001858	e6df0f93	addi	x31,x30,-403	 x30:0x800014b4 x31=0x80001321
       23265000	      2325	8000185c	05bad263	bge	x21,x27,800018a0	 x21:0x55829000 x27:0x80001688
       23275000	      2326	00000000	00000013	addi	x0,x0,0	  x0:0x00000000
       23285000	      2327	8000189c	00000013	addi	x0,x0,0	  x0:0x00000000
       23295000	      2328	800018a0	0400d263	bge	x1,x0,800018e4	  x1:0xffffe000  x0:0x00000000
       23305000	      2329	800018a4	ebc5cf13	xori	x30,x11,-324	 x11:0x80009fc4 x30=0x7fff6178
       23315000	      2330	800018a8	be85ba97	auipc	x21,0xbe85b	 x21=0x3e85c8a4
       23325000	      2331	800018ac	d6d13b93	sltiu	x23,x2,-659	  x2:0x80001784 x23=0x00000001
       23335000	      2332	800018b0	60f75fb7	lui	x31,0x60f75	 x31=0x60f75000
       23345000	      2333	800018b4	02e5f063	bgeu	x11,x14,800018d4	 x11:0x80009fc4 x14:0x80000000
       23355000	      2334	00000000	00000013	addi	x0,x0,0	  x0:0x00000000
       23365000	      2335	800018d0	00000013	addi	x0,x0,0	  x0:0x00000000
       23375000	      2336	800018d4	41ab51b3	sra	x3,x22,x26	 x22:0x00002448 x26:0x80001608  x3=0x00000024
       23385000	      2337	800018d8	01861863	bne	x12,x24,800018e8	 x12:0x7d200000 x24:0x800017a4
       23395000	      2338	00000000	00000013	addi	x0,x0,0	  x0:0x00000000
       23405000	      2339	800018e4	00000013	addi	x0,x0,0	  x0:0x00000000
       23415000	      2340	800018e8	aed78b13	addi	x22,x15,-1299	 x15:0x00800017 x22=0x007ffb04
       23425000	      2341	800018ec	97bb4913	xori	x18,x22,-1669	 x22:0x007ffb04 x18=0xff80027f
       23435000	      2342	800018f0	f5bd8c13	addi	x24,x27,-165	 x27:0x80001688 x24=0x800015e3
       23445000	      2343	800018f4	40888433	sub	x8,x17,x8	 x17:0x8000166c  x8:0x5582913e  x8=0x2a7d852e
       23455000	      2344	800018f8	dcc8cf13	xori	x30,x17,-564	 x17:0x8000166c x30=0x7fffeba0
       23465000	      2345	800018fc	19dfb793	sltiu	x15,x31,413	 x31:0x60f75000 x15=0x00000000
       23475000	      2346	80001900	011f1a63	bne	x30,x17,80001914	 x30:0x7fffeba0 x17:0x8000166c
       23485000	      2347	00000000	00000013	addi	x0,x0,0	  x0:0x00000000
       23495000	      2348	80001910	00000013	addi	x0,x0,0	  x0:0x00000000
       23505000	      2349	80001914	00171e63	bne	x14,x1,80001930	 x14:0x80000000  x1:0xffffe000
       23515000	      2350	00000000	00000013	addi	x0,x0,0	  x0:0x00000000
       23525000	      2351	8000192c	00000013	addi	x0,x0,0	  x0:0x00000000
       23535000	      2352	80001930	018bc433	xor	x8,x23,x24	 x23:0x00000001 x24:0x800015e3  x8=0x800015e2
       23545000	      2353	80001934	41010f33	sub	x30,x2,x16	  x2:0x80001784 x16:0x80001628 x30=0x0000015c
       23555000	      2354	80001938	012d9c93	slli	x25,x27,0x12	 x27:0x80001688 x25=0x5a200000
       23565000	      2355	8000193c	00000013	addi	x0,x0,0	  x0:0x00000000
       23575000	      2356	80001940	0e51a893	slti	x17,x3,229	  x3:0x00000024 x17=0x00000001
       23585000	      2357	80001944	015eb0b3	sltu	x1,x29,x21	 x29:0x00000000 x21:0x3e85c8a4  x1=0x00000001
       23595000	      2358	80001948	00380a33	add	x20,x16,x3	 x16:0x80001628  x3:0x00000024 x20=0x8000164c
       23605000	      2359	8000194c	01960c33	add	x24,x12,x25	 x12:0x7d200000 x25:0x5a200000 x24=0xd7400000
       23615000	      2360	80001950	00f8d713	srli	x14,x17,0xf	 x17:0x00000001 x14=0x00000000
       23625000	      2361	80001954	00f1a033	slt	x0,x3,x15	  x3:0x00000024 x15:0x00000000
       23635000	      2362	80001958	411b5cb3	sra	x25,x22,x17	 x22:0x007ffb04 x17:0x00000001 x25=0x003ffd82
       23645000	      2363	8000195c	014bfe63	bgeu	x23,x20,80001978	 x23:0x00000001 x20:0x8000164c
       23655000	      2364	80001960	001c30b3	sltu	x1,x24,x1	 x24:0xd7400000  x1:0x00000001  x1=0x00000000
       23665000	      2365	80001964	013d96b3	sll	x13,x27,x19	 x27:0x80001688 x19:0x80009f48 x13=0x00168800
       23675000	      2366	80001968	493c3393	sltiu	x7,x24,1171	 x24:0xd7400000  x7=0x00000000
       23685000	      2367	8000196c	41d60633	sub	x12,x12,x29	 x12:0x7d200000 x29:0x00000000 x12=0x7d200000
       23695000	      2368	80001970	004b8333	add	x6,x23,x4	 x23:0x00000001  x4:0x00800017  x6=0x00800018
       23705000	      2369	80001974	8ed3fe17	auipc	x28,0x8ed3f	 x28=0x0ed40970
       23715000	      2370	80001978	00665c33	srl	x24,x12,x6	 x12:0x7d200000  x6:0x00800018 x24=0x0000007d
       23725000	      2371	8000197c	03dd8c63	beq	x27,x29,800019b4	 x27:0x80001688 x29:0x00000000
       23735000	      2372	80001980	0336d863	bge	x13,x19,800019b0	 x13:0x00168800 x19:0x80009f48
       23745000	      2373	00000000	00000013	addi	x0,x0,0	  x0:0x00000000
       23755000	      2374	800019ac	00000013	addi	x0,x0,0	  x0:0x00000000
       23765000	      2375	800019b0	00085c33	srl	x24,x16,x0	 x16:0x80001628  x0:0x00000000 x24=0x80001628
       23775000	      2376	800019b4	021d1863	bne	x26,x1,800019e4	 x26:0x80001608  x1:0x00000000
       23785000	      2377	00000000	00000013	addi	x0,x0,0	  x0:0x00000000
       23795000	      2378	800019e0	00000013	addi	x0,x0,0	  x0:0x00000000
       23805000	      2379	800019e4	41b88533	sub	x10,x17,x27	 x17:0x00000001 x27:0x80001688 x10=0x7fffe979
       23815000	      2380	800019e8	002d81b3	add	x3,x27,x2	 x27:0x80001688  x2:0x80001784  x3=0x00002e0c
       23825000	      2381	800019ec	413f8b33	sub	x22,x31,x19	 x31:0x60f75000 x19:0x80009f48 x22=0xe0f6b0b8
       23835000	      2382	800019f0	007e94b3	sll	x9,x29,x7	 x29:0x00000000  x7:0x00000000  x9=0x00000000
       23845000	      2383	800019f4	7d118313	addi	x6,x3,2001	  x3:0x00002e0c  x6=0x000035dd
       23855000	      2384	800019f8	9c555a97	auipc	x21,0x9c555	 x21=0x1c5569f4
       23865000	      2385	800019fc	00d91a63	bne	x18,x13,80001a10	 x18:0xff80027f x13:0x00168800
       23875000	      2386	00000000	00000013	addi	x0,x0,0	  x0:0x00000000
       23885000	      2387	80001a0c	00000013	addi	x0,x0,0	  x0:0x00000000
       23895000	      2388	80001a10	48c28713	addi	x14,x5,1164	  x5:0x800017ac x14=0x80001c38
       23905000	      2389	80001a14	017226b3	slt	x13,x4,x23	  x4:0x00800017 x23:0x00000001 x13=0x00000000
       23915000	      2390	80001a18	53baeb13	ori	x22,x21,1339	 x21:0x1c5569f4 x22=0x1c556dff
       23925000	      2391	80001a1c	01300833	add	x16,x0,x19	  x0:0x00000000 x19:0x80009f48 x16=0x80009f48
       23935000	      2392	80001a20	014c7cb3	and	x25,x24,x20	 x24:0x80001628 x20:0x8000164c x25=0x80001608
       23945000	      2393	80001a24	eb9d7293	andi	x5,x26,-327	 x26:0x80001608  x5=0x80001608
       23955000	      2394	80001a28	022fe663	bltu	x31,x2,80001a54	 x31:0x60f75000  x2:0x80001784
       23965000	      2395	00000000	00000013	addi	x0,x0,0	  x0:0x00000000
       23975000	      2396	80001a50	00000013	addi	x0,x0,0	  x0:0x00000000
       23985000	      2397	80001a54	04576263	bltu	x14,x5,80001a98	 x14:0x80001c38  x5:0x80001608
       23995000	      2398	80001a58	00000013	addi	x0,x0,0	  x0:0x00000000
       24005000	      2399	80001a5c	f839e413	ori	x8,x19,-125	 x19:0x80009f48  x8=0xffffffcb
       24015000	      2400	80001a60	05618863	beq	x3,x22,80001ab0	  x3:0x00002e0c x22:0x1c556dff
       24025000	      2401	80001a64	00007ab3	and	x21,x0,x0	  x0:0x00000000  x0:0x00000000 x21=0x00000000
       24035000	      2402	80001a68	cff96b13	ori	x22,x18,-769	 x18:0xff80027f x22=0xfffffeff
       24045000	      2403	80001a6c	00f28a33	add	x20,x5,x15	  x5:0x80001608 x15:0x00000000 x20=0x80001608
       24055000	      2404	80001a70	05ee7663	bgeu	x28,x30,80001abc	 x28:0x0ed40970 x30:0x0000015c
       24065000	      2405	00000000	00000013	addi	x0,x0,0	  x0:0x00000000
       24075000	      2406	80001ab8	00000013	addi	x0,x0,0	  x0:0x00000000
       24085000	      2407	80001abc	0069c4b3	xor	x9,x19,x6	 x19:0x80009f48  x6:0x000035dd  x9=0x8000aa95
       24095000	      2408	80001ac0	00757a63	bgeu	x10,x7,80001ad4	 x10:0x7fffe979  x7:0x00000000
       24105000	      2409	00000000	00000013	addi	x0,x0,0	  x0:0x00000000
       24115000	      2410	80001ad0	00000013	addi	x0,x0,0	  x0:0x00000000
       24125000	      2411	80001ad4	00150233	add	x4,x10,x1	 x10:0x7fffe979  x1:0x00000000  x4=0x7fffe979
       24135000	      2412	80001ad8	403ed193	srai	x3,x29,0x3	 x29:0x00000000  x3=0x00000000
       24145000	      2413	80001adc	0de2b393	sltiu	x7,x5,222	  x5:0x80001608  x7=0x00000000
       24155000	      2414	80001ae0	37e0e393	ori	x7,x1,894	  x1:0x00000000  x7=0x0000037e
       24165000	      2415	80001ae4	409d8633	sub	x12,x27,x9	 x27:0x80001688  x9:0x8000aa95 x12=0xffff6bf3
       24175000	      2416	80001ae8	41565db3	sra	x27,x12,x21	 x12:0xffff6bf3 x21:0x00000000 x27=0xffff6bf3
       24185000	      2417	80001aec	00263733	sltu	x14,x12,x2	 x12:0xffff6bf3  x2:0x80001784 x14=0x00000000
       24195000	      2418	80001af0	00abde13	srli	x28,x23,0xa	 x23:0x00000001 x28=0x00000000
       24205000	      2419	80001af4	bf9bd217	auipc	x4,0xbf9bd	  x4=0x3f9beaf0
       24215000	      2420	80001af8	00000013	addi	x0,x0,0	  x0:0x00000000
       24225000	      2421	80001afc	00d37233	and	x4,x6,x13	  x6:0x000035dd x13:0x00000000  x4=0x00000000
       24235000	      2422	80001b00	01e35bb3	srl	x23,x6,x30	  x6:0x000035dd x30:0x0000015c x23=0x00000000
       24245000	      2423	80001b04	01cc9663	bne	x25,x28,80001b10	 x25:0x80001608 x28:0x00000000
       24255000	      2424	00000000	00000013	addi	x0,x0,0	  x0:0x00000000
       24265000	      2425	80001b0c	00000013	addi	x0,x0,0	  x0:0x00000000
       24275000	      2426	80001b10	1180236f	jal	x6,80001b10	  x6=0x80001b10
       24285000	      2427	00000000	00000013	addi	x0,x0,0	  x0:0x00000000
       24295000	      2428	80003c24	00000013	addi	x0,x0,0	  x0:0x00000000
       24305000	      2429	80003c28	00896863	bltu	x18,x8,80003c38	 x18:0xff80027f  x8:0xffffffcb
       24315000	      2430	00000000	00000013	addi	x0,x0,0	  x0:0x00000000
       24325000	      2431	80003c34	00000013	addi	x0,x0,0	  x0:0x00000000
       24335000	      2432	80003c38	ff498993	addi	x19,x19,-12	 x19:0x80009f48 x19=0x80009f3c
       24345000	      2433	80003c3c	0069a223	sw	x6,4(x19)	 x19:0x80009f3c  x6:0x80001b10 PA:0x80009f40
       24355000	      2434	80003c40	00283133	sltu	x2,x16,x2	 x16:0x80009f48  x2:0x80001784  x2=0x00000000
       24365000	      2435	80003c44	005e5533	srl	x10,x28,x5	 x28:0x00000000  x5:0x80001608 x10=0x00000000
       24375000	      2436	80003c48	8d0858b7	lui	x17,0x8d085	 x17=0x8d085000
       24385000	      2437	80003c4c	cdfaad13	slti	x26,x21,-801	 x21:0x00000000 x26=0x00000000
       24395000	      2438	80003c50	ff4f4293	xori	x5,x30,-12	 x30:0x0000015c  x5=0xfffffea8
       24405000	      2439	80003c54	4008d333	sra	x6,x17,x0	 x17:0x8d085000  x0:0x00000000  x6=0x8d085000
       24415000	      2440	80003c58	ffffc617	auipc	x12,0xffffc	 x12=0x7ffffc54
       24425000	      2441	80003c5c	6b860613	addi	x12,x12,1720	 x12:0x7ffffc54 x12=0x8000030c
       24435000	      2442	80003c60	40a65813	srai	x16,x12,0xa	 x12:0x8000030c x16=0xffe00000
       24445000	      2443	80003c64	40bd8133	sub	x2,x27,x11	 x27:0xffff6bf3 x11:0x80009fc4  x2=0x7ffecc2f
       24455000	      2444	80003c68	f22e7293	andi	x5,x28,-222	 x28:0x00000000  x5=0x00000000
       24465000	      2445	80003c6c	00aef8b3	and	x17,x29,x10	 x29:0x00000000 x10:0x00000000 x17=0x00000000
       24475000	      2446	80003c70	10260613	addi	x12,x12,258	 x12:0x8000030c x12=0x8000040e
       24485000	      2447	80003c74	d16cb013	sltiu	x0,x25,-746	 x25:0x80001608
       24495000	      2448	80003c78	eff60367	jalr	x6,x12,-257	 x12:0x8000040e  x6=0x80003c78
       24505000	      2449	00000000	00000013	addi	x0,x0,0	  x0:0x00000000
       24515000	      2450	8000030c	00000013	addi	x0,x0,0	  x0:0x00000000
       24525000	      2451	80000310	00000013	addi	x0,x0,0	  x0:0x00000000
       24535000	      2452	80000314	fe498993	addi	x19,x19,-28	 x19:0x80009f3c x19=0x80009f20
       24545000	      2453	80000318	00219733	sll	x14,x3,x2	  x3:0x00000000  x2:0x7ffecc2f x14=0x00000000
       24555000	      2454	8000031c	00c91b13	slli	x22,x18,0xc	 x18:0xff80027f x22=0x0027f000
       24565000	      2455	80000320	0069a223	sw	x6,4(x19)	 x19:0x80009f20  x6:0x80003c78 PA:0x80009f24
       24575000	      2456	80000324	01573833	sltu	x16,x14,x21	 x14:0x00000000 x21:0x00000000 x16=0x00000000
       24585000	      2457	80000328	00c0036f	jal	x6,80000328	  x6=0x80000328
       24595000	      2458	00000000	00000013	addi	x0,x0,0	  x0:0x00000000
       24605000	      2459	80000330	00000013	addi	x0,x0,0	  x0:0x00000000
       24615000	      2460	80000334	01400d6f	jal	x26,80000334	 x26=0x80000334
       24625000	      2461	00000000	00000013	addi	x0,x0,0	  x0:0x00000000
       24635000	      2462	80000344	00000013	addi	x0,x0,0	  x0:0x00000000
       24645000	      2463	80000348	ff5ff0ef	jal	x1,80000348	  x1=0x80000348
       24655000	      2464	00000000	00000013	addi	x0,x0,0	  x0:0x00000000
       24665000	      2465	80000338	00000013	addi	x0,x0,0	  x0:0x00000000
       24675000	      2466	8000033c	008000ef	jal	x1,8000033c	  x1=0x8000033c
       24685000	      2467	00000000	00000013	addi	x0,x0,0	  x0:0x00000000
       24695000	      2468	80000340	00000013	addi	x0,x0,0	  x0:0x00000000
       24705000	      2469	80000344	00c0036f	jal	x6,80000344	  x6=0x80000344
       24715000	      2470	00000000	00000013	addi	x0,x0,0	  x0:0x00000000
       24725000	      2471	8000034c	00000013	addi	x0,x0,0	  x0:0x00000000
       24735000	      2472	80000350	fe1ff0ef	jal	x1,80000350	  x1=0x80000350
       24745000	      2473	00000000	00000013	addi	x0,x0,0	  x0:0x00000000
       24755000	      2474	8000032c	00000013	addi	x0,x0,0	  x0:0x00000000
       24765000	      2475	80000330	044000ef	jal	x1,80000330	  x1=0x80000330
       24775000	      2476	00000000	00000013	addi	x0,x0,0	  x0:0x00000000
       24785000	      2477	80000370	00000013	addi	x0,x0,0	  x0:0x00000000
       24795000	      2478	80000374	ff9ff0ef	jal	x1,80000374	  x1=0x80000374
       24805000	      2479	00000000	00000013	addi	x0,x0,0	  x0:0x00000000
       24815000	      2480	80000368	00000013	addi	x0,x0,0	  x0:0x00000000
       24825000	      2481	8000036c	004000ef	jal	x1,8000036c	  x1=0x8000036c
       24835000	      2482	00000000	00000013	addi	x0,x0,0	  x0:0x00000000
       24845000	      2483	8000036c	00000013	addi	x0,x0,0	  x0:0x00000000
       24855000	      2484	80000370	fc9ff0ef	jal	x1,80000370	  x1=0x80000370
       24865000	      2485	00000000	00000013	addi	x0,x0,0	  x0:0x00000000
       24875000	      2486	80000334	00000013	addi	x0,x0,0	  x0:0x00000000
       24885000	      2487	80000338	0080036f	jal	x6,80000338	  x6=0x80000338
       24895000	      2488	00000000	00000013	addi	x0,x0,0	  x0:0x00000000
       24905000	      2489	8000033c	00000013	addi	x0,x0,0	  x0:0x00000000
       24915000	      2490	80000340	0140036f	jal	x6,80000340	  x6=0x80000340
       24925000	      2491	00000000	00000013	addi	x0,x0,0	  x0:0x00000000
       24935000	      2492	80000350	00000013	addi	x0,x0,0	  x0:0x00000000
       24945000	      2493	80000354	0040026f	jal	x4,80000354	  x4=0x80000354
       24955000	      2494	00000000	00000013	addi	x0,x0,0	  x0:0x00000000
       24965000	      2495	80000354	00000013	addi	x0,x0,0	  x0:0x00000000
       24975000	      2496	80000358	ff5ff36f	jal	x6,80000358	  x6=0x80000358
       24985000	      2497	00000000	00000013	addi	x0,x0,0	  x0:0x00000000
       24995000	      2498	80000348	00000013	addi	x0,x0,0	  x0:0x00000000
       25005000	      2499	8000034c	01c0056f	jal	x10,8000034c	 x10=0x8000034c
       25015000	      2500	00000000	00000013	addi	x0,x0,0	  x0:0x00000000
       25025000	      2501	80000364	00000013	addi	x0,x0,0	  x0:0x00000000
       25035000	      2502	80000368	fc5ffcef	jal	x25,80000368	 x25=0x80000368
       25045000	      2503	00000000	00000013	addi	x0,x0,0	  x0:0x00000000
       25055000	      2504	80000328	00000013	addi	x0,x0,0	  x0:0x00000000
       25065000	      2505	8000032c	038000ef	jal	x1,8000032c	  x1=0x8000032c
       25075000	      2506	00000000	00000013	addi	x0,x0,0	  x0:0x00000000
       25085000	      2507	80000360	00000013	addi	x0,x0,0	  x0:0x00000000
       25095000	      2508	80000364	ff9ff46f	jal	x8,80000364	  x8=0x80000364
       25105000	      2509	00000000	00000013	addi	x0,x0,0	  x0:0x00000000
       25115000	      2510	80000358	00000013	addi	x0,x0,0	  x0:0x00000000
       25125000	      2511	8000035c	004000ef	jal	x1,8000035c	  x1=0x8000035c
       25135000	      2512	00000000	00000013	addi	x0,x0,0	  x0:0x00000000
       25145000	      2513	8000035c	00000013	addi	x0,x0,0	  x0:0x00000000
       25155000	      2514	80000360	018004ef	jal	x9,80000360	  x9=0x80000360
       25165000	      2515	00000000	00000013	addi	x0,x0,0	  x0:0x00000000
       25175000	      2516	80000374	00000013	addi	x0,x0,0	  x0:0x00000000
       25185000	      2517	80000378	017d5293	srli	x5,x26,0x17	 x26:0x80000334  x5=0x00000100
       25195000	      2518	8000037c	00c0036f	jal	x6,8000037c	  x6=0x8000037c
       25205000	      2519	00000000	00000013	addi	x0,x0,0	  x0:0x00000000
       25215000	      2520	80000384	00000013	addi	x0,x0,0	  x0:0x00000000
       25225000	      2521	80000388	01c000ef	jal	x1,80000388	  x1=0x80000388
       25235000	      2522	00000000	00000013	addi	x0,x0,0	  x0:0x00000000
       25245000	      2523	800003a0	00000013	addi	x0,x0,0	  x0:0x00000000
       25255000	      2524	800003a4	00c000ef	jal	x1,800003a4	  x1=0x800003a4
       25265000	      2525	00000000	00000013	addi	x0,x0,0	  x0:0x00000000
       25275000	      2526	800003ac	00000013	addi	x0,x0,0	  x0:0x00000000
       25285000	      2527	800003b0	00c000ef	jal	x1,800003b0	  x1=0x800003b0
       25295000	      2528	00000000	00000013	addi	x0,x0,0	  x0:0x00000000
       25305000	      2529	800003b8	00000013	addi	x0,x0,0	  x0:0x00000000
       25315000	      2530	800003bc	fddff36f	jal	x6,800003bc	  x6=0x800003bc
       25325000	      2531	00000000	00000013	addi	x0,x0,0	  x0:0x00000000
       25335000	      2532	80000394	00000013	addi	x0,x0,0	  x0:0x00000000
       25345000	      2533	80000398	0540036f	jal	x6,80000398	  x6=0x80000398
       25355000	      2534	00000000	00000013	addi	x0,x0,0	  x0:0x00000000
       25365000	      2535	800003e8	00000013	addi	x0,x0,0	  x0:0x00000000
       25375000	      2536	800003ec	fe9ff7ef	jal	x15,800003ec	 x15=0x800003ec
       25385000	      2537	00000000	00000013	addi	x0,x0,0	  x0:0x00000000
       25395000	      2538	800003d0	00000013	addi	x0,x0,0	  x0:0x00000000
       25405000	      2539	800003d4	fbdff0ef	jal	x1,800003d4	  x1=0x800003d4
       25415000	      2540	00000000	00000013	addi	x0,x0,0	  x0:0x00000000
       25425000	      2541	8000038c	00000013	addi	x0,x0,0	  x0:0x00000000
       25435000	      2542	80000390	03c0036f	jal	x6,80000390	  x6=0x80000390
       25445000	      2543	00000000	00000013	addi	x0,x0,0	  x0:0x00000000
       25455000	      2544	800003c8	00000013	addi	x0,x0,0	  x0:0x00000000
       25465000	      2545	800003cc	00c000ef	jal	x1,800003cc	  x1=0x800003cc
       25475000	      2546	00000000	00000013	addi	x0,x0,0	  x0:0x00000000
       25485000	      2547	800003d4	00000013	addi	x0,x0,0	  x0:0x00000000
       25495000	      2548	800003d8	004000ef	jal	x1,800003d8	  x1=0x800003d8
       25505000	      2549	00000000	00000013	addi	x0,x0,0	  x0:0x00000000
       25515000	      2550	800003d8	00000013	addi	x0,x0,0	  x0:0x00000000
       25525000	      2551	800003dc	fe9ff0ef	jal	x1,800003dc	  x1=0x800003dc
       25535000	      2552	00000000	00000013	addi	x0,x0,0	  x0:0x00000000
       25545000	      2553	800003c0	00000013	addi	x0,x0,0	  x0:0x00000000
       25555000	      2554	800003c4	fd1ff2ef	jal	x5,800003c4	  x5=0x800003c4
       25565000	      2555	00000000	00000013	addi	x0,x0,0	  x0:0x00000000
       25575000	      2556	80000390	00000013	addi	x0,x0,0	  x0:0x00000000
       25585000	      2557	80000394	ff1ff0ef	jal	x1,80000394	  x1=0x80000394
       25595000	      2558	00000000	00000013	addi	x0,x0,0	  x0:0x00000000
       25605000	      2559	80000380	00000013	addi	x0,x0,0	  x0:0x00000000
       25615000	      2560	80000384	ffdfffef	jal	x31,80000384	 x31=0x80000384
       25625000	      2561	00000000	00000013	addi	x0,x0,0	  x0:0x00000000
       25635000	      2562	8000037c	00000013	addi	x0,x0,0	  x0:0x00000000
       25645000	      2563	80000380	038001ef	jal	x3,80000380	  x3=0x80000380
       25655000	      2564	00000000	00000013	addi	x0,x0,0	  x0:0x00000000
       25665000	      2565	800003b4	00000013	addi	x0,x0,0	  x0:0x00000000
       25675000	      2566	800003b8	fe5ff36f	jal	x6,800003b8	  x6=0x800003b8
       25685000	      2567	00000000	00000013	addi	x0,x0,0	  x0:0x00000000
       25695000	      2568	80000398	00000013	addi	x0,x0,0	  x0:0x00000000
       25705000	      2569	8000039c	048000ef	jal	x1,8000039c	  x1=0x8000039c
       25715000	      2570	00000000	00000013	addi	x0,x0,0	  x0:0x00000000
       25725000	      2571	800003e0	00000013	addi	x0,x0,0	  x0:0x00000000
       25735000	      2572	800003e4	fd1ff0ef	jal	x1,800003e4	  x1=0x800003e4
       25745000	      2573	00000000	00000013	addi	x0,x0,0	  x0:0x00000000
       25755000	      2574	800003b0	00000013	addi	x0,x0,0	  x0:0x00000000
       25765000	      2575	800003b4	014000ef	jal	x1,800003b4	  x1=0x800003b4
       25775000	      2576	00000000	00000013	addi	x0,x0,0	  x0:0x00000000
       25785000	      2577	800003c4	00000013	addi	x0,x0,0	  x0:0x00000000
       25795000	      2578	800003c8	02800aef	jal	x21,800003c8	 x21=0x800003c8
       25805000	      2579	00000000	00000013	addi	x0,x0,0	  x0:0x00000000
       25815000	      2580	800003ec	00000013	addi	x0,x0,0	  x0:0x00000000
       25825000	      2581	800003f0	fe1ff0ef	jal	x1,800003f0	  x1=0x800003f0
       25835000	      2582	00000000	00000013	addi	x0,x0,0	  x0:0x00000000
       25845000	      2583	800003cc	00000013	addi	x0,x0,0	  x0:0x00000000
       25855000	      2584	800003d0	ff1ff36f	jal	x6,800003d0	  x6=0x800003d0
       25865000	      2585	00000000	00000013	addi	x0,x0,0	  x0:0x00000000
       25875000	      2586	800003bc	00000013	addi	x0,x0,0	  x0:0x00000000
       25885000	      2587	800003c0	fedff0ef	jal	x1,800003c0	  x1=0x800003c0
       25895000	      2588	00000000	00000013	addi	x0,x0,0	  x0:0x00000000
       25905000	      2589	800003a8	00000013	addi	x0,x0,0	  x0:0x00000000
       25915000	      2590	800003ac	03c0036f	jal	x6,800003ac	  x6=0x800003ac
       25925000	      2591	00000000	00000013	addi	x0,x0,0	  x0:0x00000000
       25935000	      2592	800003e4	00000013	addi	x0,x0,0	  x0:0x00000000
       25945000	      2593	800003e8	fc1ff4ef	jal	x9,800003e8	  x9=0x800003e8
       25955000	      2594	00000000	00000013	addi	x0,x0,0	  x0:0x00000000
       25965000	      2595	800003a4	00000013	addi	x0,x0,0	  x0:0x00000000
       25975000	      2596	800003a8	ff9ff36f	jal	x6,800003a8	  x6=0x800003a8
       25985000	      2597	00000000	00000013	addi	x0,x0,0	  x0:0x00000000
       25995000	      2598	8000039c	00000013	addi	x0,x0,0	  x0:0x00000000
       26005000	      2599	800003a0	040000ef	jal	x1,800003a0	  x1=0x800003a0
       26015000	      2600	00000000	00000013	addi	x0,x0,0	  x0:0x00000000
       26025000	      2601	800003dc	00000013	addi	x0,x0,0	  x0:0x00000000
       26035000	      2602	800003e0	fadff1ef	jal	x3,800003e0	  x3=0x800003e0
       26045000	      2603	00000000	00000013	addi	x0,x0,0	  x0:0x00000000
       26055000	      2604	80000388	00000013	addi	x0,x0,0	  x0:0x00000000
       26065000	      2605	8000038c	0680026f	jal	x4,8000038c	  x4=0x8000038c
       26075000	      2606	00000000	00000013	addi	x0,x0,0	  x0:0x00000000
       26085000	      2607	800003f0	00000013	addi	x0,x0,0	  x0:0x00000000
       26095000	      2608	800003f4	006b2333	slt	x6,x22,x6	 x22:0x0027f000  x6:0x800003a8  x6=0x00000000
       26105000	      2609	800003f8	0140036f	jal	x6,800003f8	  x6=0x800003f8
       26115000	      2610	00000000	00000013	addi	x0,x0,0	  x0:0x00000000
       26125000	      2611	80000408	00000013	addi	x0,x0,0	  x0:0x00000000
       26135000	      2612	8000040c	01800a6f	jal	x20,8000040c	 x20=0x8000040c
       26145000	      2613	00000000	00000013	addi	x0,x0,0	  x0:0x00000000
       26155000	      2614	80000420	00000013	addi	x0,x0,0	  x0:0x00000000
       26165000	      2615	80000424	020000ef	jal	x1,80000424	  x1=0x80000424
       26175000	      2616	00000000	00000013	addi	x0,x0,0	  x0:0x00000000
       26185000	      2617	80000440	00000013	addi	x0,x0,0	  x0:0x00000000
       26195000	      2618	80000444	fd5ffaef	jal	x21,80000444	 x21=0x80000444
       26205000	      2619	00000000	00000013	addi	x0,x0,0	  x0:0x00000000
       26215000	      2620	80000414	00000013	addi	x0,x0,0	  x0:0x00000000
       26225000	      2621	80000418	03c00e6f	jal	x28,80000418	 x28=0x80000418
       26235000	      2622	00000000	00000013	addi	x0,x0,0	  x0:0x00000000
       26245000	      2623	80000450	00000013	addi	x0,x0,0	  x0:0x00000000
       26255000	      2624	80000454	fe5ff36f	jal	x6,80000454	  x6=0x80000454
       26265000	      2625	00000000	00000013	addi	x0,x0,0	  x0:0x00000000
       26275000	      2626	80000434	00000013	addi	x0,x0,0	  x0:0x00000000
       26285000	      2627	80000438	ff9ff36f	jal	x6,80000438	  x6=0x80000438
       26295000	      2628	00000000	00000013	addi	x0,x0,0	  x0:0x00000000
       26305000	      2629	8000042c	00000013	addi	x0,x0,0	  x0:0x00000000
       26315000	      2630	80000430	034000ef	jal	x1,80000430	  x1=0x80000430
       26325000	      2631	00000000	00000013	addi	x0,x0,0	  x0:0x00000000
       26335000	      2632	80000460	00000013	addi	x0,x0,0	  x0:0x00000000
       26345000	      2633	80000464	004000ef	jal	x1,80000464	  x1=0x80000464
       26355000	      2634	00000000	00000013	addi	x0,x0,0	  x0:0x00000000
       26365000	      2635	80000464	00000013	addi	x0,x0,0	  x0:0x00000000
       26375000	      2636	80000468	fc1ff36f	jal	x6,80000468	  x6=0x80000468
       26385000	      2637	00000000	00000013	addi	x0,x0,0	  x0:0x00000000
       26395000	      2638	80000424	00000013	addi	x0,x0,0	  x0:0x00000000
       26405000	      2639	80000428	fddff0ef	jal	x1,80000428	  x1=0x80000428
       26415000	      2640	00000000	00000013	addi	x0,x0,0	  x0:0x00000000
       26425000	      2641	80000400	00000013	addi	x0,x0,0	  x0:0x00000000
       26435000	      2642	80000404	044000ef	jal	x1,80000404	  x1=0x80000404
       26445000	      2643	00000000	00000013	addi	x0,x0,0	  x0:0x00000000
       26455000	      2644	80000444	00000013	addi	x0,x0,0	  x0:0x00000000
       26465000	      2645	80000448	fc9ff0ef	jal	x1,80000448	  x1=0x80000448
       26475000	      2646	00000000	00000013	addi	x0,x0,0	  x0:0x00000000
       26485000	      2647	8000040c	00000013	addi	x0,x0,0	  x0:0x00000000
       26495000	      2648	80000410	048000ef	jal	x1,80000410	  x1=0x80000410
       26505000	      2649	00000000	00000013	addi	x0,x0,0	  x0:0x00000000
       26515000	      2650	80000454	00000013	addi	x0,x0,0	  x0:0x00000000
       26525000	      2651	80000458	fe5ff0ef	jal	x1,80000458	  x1=0x80000458
       26535000	      2652	00000000	00000013	addi	x0,x0,0	  x0:0x00000000
       26545000	      2653	80000438	00000013	addi	x0,x0,0	  x0:0x00000000
       26555000	      2654	8000043c	0100016f	jal	x2,8000043c	  x2=0x8000043c
       26565000	      2655	00000000	00000013	addi	x0,x0,0	  x0:0x00000000
       26575000	      2656	80000448	00000013	addi	x0,x0,0	  x0:0x00000000
       26585000	      2657	8000044c	fbdffaef	jal	x21,8000044c	 x21=0x8000044c
       26595000	      2658	00000000	00000013	addi	x0,x0,0	  x0:0x00000000
       26605000	      2659	80000404	00000013	addi	x0,x0,0	  x0:0x00000000
       26615000	      2660	80000408	014000ef	jal	x1,80000408	  x1=0x80000408
       26625000	      2661	00000000	00000013	addi	x0,x0,0	  x0:0x00000000
       26635000	      2662	80000418	00000013	addi	x0,x0,0	  x0:0x00000000
       26645000	      2663	8000041c	0440036f	jal	x6,8000041c	  x6=0x8000041c
       26655000	      2664	00000000	00000013	addi	x0,x0,0	  x0:0x00000000
       26665000	      2665	8000045c	00000013	addi	x0,x0,0	  x0:0x00000000
       26675000	      2666	80000460	ffdff36f	jal	x6,80000460	  x6=0x80000460
       26685000	      2667	00000000	00000013	addi	x0,x0,0	  x0:0x00000000
       26695000	      2668	80000458	00000013	addi	x0,x0,0	  x0:0x00000000
       26705000	      2669	8000045c	fe5ff0ef	jal	x1,8000045c	  x1=0x8000045c
       26715000	      2670	00000000	00000013	addi	x0,x0,0	  x0:0x00000000
       26725000	      2671	8000043c	00000013	addi	x0,x0,0	  x0:0x00000000
       26735000	      2672	80000440	fbdff36f	jal	x6,80000440	  x6=0x80000440
       26745000	      2673	00000000	00000013	addi	x0,x0,0	  x0:0x00000000
       26755000	      2674	800003f8	00000013	addi	x0,x0,0	  x0:0x00000000
       26765000	      2675	800003fc	03800fef	jal	x31,800003fc	 x31=0x800003fc
       26775000	      2676	00000000	00000013	addi	x0,x0,0	  x0:0x00000000
       26785000	      2677	80000430	00000013	addi	x0,x0,0	  x0:0x00000000
       26795000	      2678	80000434	fedff0ef	jal	x1,80000434	  x1=0x80000434
       26805000	      2679	00000000	00000013	addi	x0,x0,0	  x0:0x00000000
       26815000	      2680	8000041c	00000013	addi	x0,x0,0	  x0:0x00000000
       26825000	      2681	80000420	fe1ff36f	jal	x6,80000420	  x6=0x80000420
       26835000	      2682	00000000	00000013	addi	x0,x0,0	  x0:0x00000000
       26845000	      2683	800003fc	00000013	addi	x0,x0,0	  x0:0x00000000
       26855000	      2684	80000400	014000ef	jal	x1,80000400	  x1=0x80000400
       26865000	      2685	00000000	00000013	addi	x0,x0,0	  x0:0x00000000
       26875000	      2686	80000410	00000013	addi	x0,x0,0	  x0:0x00000000
       26885000	      2687	80000414	03c0036f	jal	x6,80000414	  x6=0x80000414
       26895000	      2688	00000000	00000013	addi	x0,x0,0	  x0:0x00000000
       26905000	      2689	8000044c	00000013	addi	x0,x0,0	  x0:0x00000000
       26915000	      2690	80000450	fddff36f	jal	x6,80000450	  x6=0x80000450
       26925000	      2691	00000000	00000013	addi	x0,x0,0	  x0:0x00000000
       26935000	      2692	80000428	00000013	addi	x0,x0,0	  x0:0x00000000
       26945000	      2693	8000042c	040000ef	jal	x1,8000042c	  x1=0x8000042c
       26955000	      2694	00000000	00000013	addi	x0,x0,0	  x0:0x00000000
       26965000	      2695	80000468	00000013	addi	x0,x0,0	  x0:0x00000000
       26975000	      2696	8000046c	00000013	addi	x0,x0,0	  x0:0x00000000
       26985000	      2697	80000470	0680036f	jal	x6,80000470	  x6=0x80000470
       26995000	      2698	00000000	00000013	addi	x0,x0,0	  x0:0x00000000
       27005000	      2699	800004d4	00000013	addi	x0,x0,0	  x0:0x00000000
       27015000	      2700	800004d8	fd1ff36f	jal	x6,800004d8	  x6=0x800004d8
       27025000	      2701	00000000	00000013	addi	x0,x0,0	  x0:0x00000000
       27035000	      2702	800004a4	00000013	addi	x0,x0,0	  x0:0x00000000
       27045000	      2703	800004a8	0080016f	jal	x2,800004a8	  x2=0x800004a8
       27055000	      2704	00000000	00000013	addi	x0,x0,0	  x0:0x00000000
       27065000	      2705	800004ac	00000013	addi	x0,x0,0	  x0:0x00000000
       27075000	      2706	800004b0	fddff0ef	jal	x1,800004b0	  x1=0x800004b0
       27085000	      2707	00000000	00000013	addi	x0,x0,0	  x0:0x00000000
       27095000	      2708	80000488	00000013	addi	x0,x0,0	  x0:0x00000000
       27105000	      2709	8000048c	ff1ffb6f	jal	x22,8000048c	 x22=0x8000048c
       27115000	      2710	00000000	00000013	addi	x0,x0,0	  x0:0x00000000
       27125000	      2711	80000478	00000013	addi	x0,x0,0	  x0:0x00000000
       27135000	      2712	8000047c	0240056f	jal	x10,8000047c	 x10=0x8000047c
       27145000	      2713	00000000	00000013	addi	x0,x0,0	  x0:0x00000000
       27155000	      2714	8000049c	00000013	addi	x0,x0,0	  x0:0x00000000
       27165000	      2715	800004a0	ff9ff26f	jal	x4,800004a0	  x4=0x800004a0
       27175000	      2716	00000000	00000013	addi	x0,x0,0	  x0:0x00000000
       27185000	      2717	80000494	00000013	addi	x0,x0,0	  x0:0x00000000
       27195000	      2718	80000498	030001ef	jal	x3,80000498	  x3=0x80000498
       27205000	      2719	00000000	00000013	addi	x0,x0,0	  x0:0x00000000
       27215000	      2720	800004c4	00000013	addi	x0,x0,0	  x0:0x00000000
       27225000	      2721	800004c8	fb1ff0ef	jal	x1,800004c8	  x1=0x800004c8
       27235000	      2722	00000000	00000013	addi	x0,x0,0	  x0:0x00000000
       27245000	      2723	80000474	00000013	addi	x0,x0,0	  x0:0x00000000
       27255000	      2724	80000478	02c001ef	jal	x3,80000478	  x3=0x80000478
       27265000	      2725	00000000	00000013	addi	x0,x0,0	  x0:0x00000000
       27275000	      2726	800004a0	00000013	addi	x0,x0,0	  x0:0x00000000
       27285000	      2727	800004a4	ff9ff0ef	jal	x1,800004a4	  x1=0x800004a4
       27295000	      2728	00000000	00000013	addi	x0,x0,0	  x0:0x00000000
       27305000	      2729	80000498	00000013	addi	x0,x0,0	  x0:0x00000000
       27315000	      2730	8000049c	fe9ff0ef	jal	x1,8000049c	  x1=0x8000049c
       27325000	      2731	00000000	00000013	addi	x0,x0,0	  x0:0x00000000
       27335000	      2732	80000480	00000013	addi	x0,x0,0	  x0:0x00000000
       27345000	      2733	80000484	058000ef	jal	x1,80000484	  x1=0x80000484
       27355000	      2734	00000000	00000013	addi	x0,x0,0	  x0:0x00000000
       27365000	      2735	800004d8	00000013	addi	x0,x0,0	  x0:0x00000000
       27375000	      2736	800004dc	ff5ff36f	jal	x6,800004dc	  x6=0x800004dc
       27385000	      2737	00000000	00000013	addi	x0,x0,0	  x0:0x00000000
       27395000	      2738	800004cc	00000013	addi	x0,x0,0	  x0:0x00000000
       27405000	      2739	800004d0	fe9ff0ef	jal	x1,800004d0	  x1=0x800004d0
       27415000	      2740	00000000	00000013	addi	x0,x0,0	  x0:0x00000000
       27425000	      2741	800004b4	00000013	addi	x0,x0,0	  x0:0x00000000
       27435000	      2742	800004b8	fddff0ef	jal	x1,800004b8	  x1=0x800004b8
       27445000	      2743	00000000	00000013	addi	x0,x0,0	  x0:0x00000000
       27455000	      2744	80000490	00000013	addi	x0,x0,0	  x0:0x00000000
       27465000	      2745	80000494	fe1ff86f	jal	x16,80000494	 x16=0x80000494
       27475000	      2746	00000000	00000013	addi	x0,x0,0	  x0:0x00000000
       27485000	      2747	80000470	00000013	addi	x0,x0,0	  x0:0x00000000
       27495000	      2748	80000474	01c0066f	jal	x12,80000474	 x12=0x80000474
       27505000	      2749	00000000	00000013	addi	x0,x0,0	  x0:0x00000000
       27515000	      2750	8000048c	00000013	addi	x0,x0,0	  x0:0x00000000
       27525000	      2751	80000490	ff9ff2ef	jal	x5,80000490	  x5=0x80000490
       27535000	      2752	00000000	00000013	addi	x0,x0,0	  x0:0x00000000
       27545000	      2753	80000484	00000013	addi	x0,x0,0	  x0:0x00000000
       27555000	      2754	80000488	ff9ff0ef	jal	x1,80000488	  x1=0x80000488
       27565000	      2755	00000000	00000013	addi	x0,x0,0	  x0:0x00000000
       27575000	      2756	8000047c	00000013	addi	x0,x0,0	  x0:0x00000000
       27585000	      2757	80000480	02c000ef	jal	x1,80000480	  x1=0x80000480
       27595000	      2758	00000000	00000013	addi	x0,x0,0	  x0:0x00000000
       27605000	      2759	800004a8	00000013	addi	x0,x0,0	  x0:0x00000000
       27615000	      2760	800004ac	01800fef	jal	x31,800004ac	 x31=0x800004ac
       27625000	      2761	00000000	00000013	addi	x0,x0,0	  x0:0x00000000
       27635000	      2762	800004c0	00000013	addi	x0,x0,0	  x0:0x00000000
       27645000	      2763	800004c4	008000ef	jal	x1,800004c4	  x1=0x800004c4
       27655000	      2764	00000000	00000013	addi	x0,x0,0	  x0:0x00000000
       27665000	      2765	800004c8	00000013	addi	x0,x0,0	  x0:0x00000000
       27675000	      2766	800004cc	ff5ff0ef	jal	x1,800004cc	  x1=0x800004cc
       27685000	      2767	00000000	00000013	addi	x0,x0,0	  x0:0x00000000
       27695000	      2768	800004bc	00000013	addi	x0,x0,0	  x0:0x00000000
       27705000	      2769	800004c0	ff5ff26f	jal	x4,800004c0	  x4=0x800004c0
       27715000	      2770	00000000	00000013	addi	x0,x0,0	  x0:0x00000000
       27725000	      2771	800004b0	00000013	addi	x0,x0,0	  x0:0x00000000
       27735000	      2772	800004b4	0200016f	jal	x2,800004b4	  x2=0x800004b4
       27745000	      2773	00000000	00000013	addi	x0,x0,0	  x0:0x00000000
       27755000	      2774	800004d0	00000013	addi	x0,x0,0	  x0:0x00000000
       27765000	      2775	800004d4	fe9ff16f	jal	x2,800004d4	  x2=0x800004d4
       27775000	      2776	00000000	00000013	addi	x0,x0,0	  x0:0x00000000
       27785000	      2777	800004b8	00000013	addi	x0,x0,0	  x0:0x00000000
       27795000	      2778	800004bc	0240036f	jal	x6,800004bc	  x6=0x800004bc
       27805000	      2779	00000000	00000013	addi	x0,x0,0	  x0:0x00000000
       27815000	      2780	800004dc	00000013	addi	x0,x0,0	  x0:0x00000000
       27825000	      2781	800004e0	0040036f	jal	x6,800004e0	  x6=0x800004e0
       27835000	      2782	00000000	00000013	addi	x0,x0,0	  x0:0x00000000
       27845000	      2783	800004e0	00000013	addi	x0,x0,0	  x0:0x00000000
       27855000	      2784	800004e4	0043b133	sltu	x2,x7,x4	  x7:0x0000037e  x4:0x800004c0  x2=0x00000001
       27865000	      2785	800004e8	01c0036f	jal	x6,800004e8	  x6=0x800004e8
       27875000	      2786	00000000	00000013	addi	x0,x0,0	  x0:0x00000000
       27885000	      2787	80000500	00000013	addi	x0,x0,0	  x0:0x00000000
       27895000	      2788	80000504	034000ef	jal	x1,80000504	  x1=0x80000504
       27905000	      2789	00000000	00000013	addi	x0,x0,0	  x0:0x00000000
       27915000	      2790	80000534	00000013	addi	x0,x0,0	  x0:0x00000000
       27925000	      2791	80000538	fb9ff0ef	jal	x1,80000538	  x1=0x80000538
       27935000	      2792	00000000	00000013	addi	x0,x0,0	  x0:0x00000000
       27945000	      2793	800004ec	00000013	addi	x0,x0,0	  x0:0x00000000
       27955000	      2794	800004f0	044000ef	jal	x1,800004f0	  x1=0x800004f0
       27965000	      2795	00000000	00000013	addi	x0,x0,0	  x0:0x00000000
       27975000	      2796	80000530	00000013	addi	x0,x0,0	  x0:0x00000000
       27985000	      2797	80000534	fe1fff6f	jal	x30,80000534	 x30=0x80000534
       27995000	      2798	00000000	00000013	addi	x0,x0,0	  x0:0x00000000
       28005000	      2799	80000510	00000013	addi	x0,x0,0	  x0:0x00000000
       28015000	      2800	80000514	ff5ff0ef	jal	x1,80000514	  x1=0x80000514
       28025000	      2801	00000000	00000013	addi	x0,x0,0	  x0:0x00000000
       28035000	      2802	80000504	00000013	addi	x0,x0,0	  x0:0x00000000
       28045000	      2803	80000508	ff5ff26f	jal	x4,80000508	  x4=0x80000508
       28055000	      2804	00000000	00000013	addi	x0,x0,0	  x0:0x00000000
       28065000	      2805	800004f8	00000013	addi	x0,x0,0	  x0:0x00000000
       28075000	      2806	800004fc	004000ef	jal	x1,800004fc	  x1=0x800004fc
       28085000	      2807	00000000	00000013	addi	x0,x0,0	  x0:0x00000000
       28095000	      2808	800004fc	00000013	addi	x0,x0,0	  x0:0x00000000
       28105000	      2809	80000500	01c008ef	jal	x17,80000500	 x17=0x80000500
       28115000	      2810	00000000	00000013	addi	x0,x0,0	  x0:0x00000000
       28125000	      2811	80000518	00000013	addi	x0,x0,0	  x0:0x00000000
       28135000	      2812	8000051c	0040096f	jal	x18,8000051c	 x18=0x8000051c
       28145000	      2813	00000000	00000013	addi	x0,x0,0	  x0:0x00000000
       28155000	      2814	8000051c	00000013	addi	x0,x0,0	  x0:0x00000000
       28165000	      2815	80000520	008000ef	jal	x1,80000520	  x1=0x80000520
       28175000	      2816	00000000	00000013	addi	x0,x0,0	  x0:0x00000000
       28185000	      2817	80000524	00000013	addi	x0,x0,0	  x0:0x00000000
       28195000	      2818	80000528	0040026f	jal	x4,80000528	  x4=0x80000528
       28205000	      2819	00000000	00000013	addi	x0,x0,0	  x0:0x00000000
       28215000	      2820	80000528	00000013	addi	x0,x0,0	  x0:0x00000000
       28225000	      2821	8000052c	fe5ff0ef	jal	x1,8000052c	  x1=0x8000052c
       28235000	      2822	00000000	00000013	addi	x0,x0,0	  x0:0x00000000
       28245000	      2823	8000050c	00000013	addi	x0,x0,0	  x0:0x00000000
       28255000	      2824	80000510	ffdff4ef	jal	x9,80000510	  x9=0x80000510
       28265000	      2825	00000000	00000013	addi	x0,x0,0	  x0:0x00000000
       28275000	      2826	80000508	00000013	addi	x0,x0,0	  x0:0x00000000
       28285000	      2827	8000050c	fe9ff36f	jal	x6,8000050c	  x6=0x8000050c
       28295000	      2828	00000000	00000013	addi	x0,x0,0	  x0:0x00000000
       28305000	      2829	800004f0	00000013	addi	x0,x0,0	  x0:0x00000000
       28315000	      2830	800004f4	024000ef	jal	x1,800004f4	  x1=0x800004f4
       28325000	      2831	00000000	00000013	addi	x0,x0,0	  x0:0x00000000
       28335000	      2832	80000514	00000013	addi	x0,x0,0	  x0:0x00000000
       28345000	      2833	80000518	018000ef	jal	x1,80000518	  x1=0x80000518
       28355000	      2834	00000000	00000013	addi	x0,x0,0	  x0:0x00000000
       28365000	      2835	8000052c	00000013	addi	x0,x0,0	  x0:0x00000000
       28375000	      2836	80000530	fc9ff36f	jal	x6,80000530	  x6=0x80000530
       28385000	      2837	00000000	00000013	addi	x0,x0,0	  x0:0x00000000
       28395000	      2838	800004f4	00000013	addi	x0,x0,0	  x0:0x00000000
       28405000	      2839	800004f8	02c000ef	jal	x1,800004f8	  x1=0x800004f8
       28415000	      2840	00000000	00000013	addi	x0,x0,0	  x0:0x00000000
       28425000	      2841	80000520	00000013	addi	x0,x0,0	  x0:0x00000000
       28435000	      2842	80000524	fc9ff2ef	jal	x5,80000524	  x5=0x80000524
       28445000	      2843	00000000	00000013	addi	x0,x0,0	  x0:0x00000000
       28455000	      2844	800004e8	00000013	addi	x0,x0,0	  x0:0x00000000
       28465000	      2845	800004ec	0500036f	jal	x6,800004ec	  x6=0x800004ec
       28475000	      2846	00000000	00000013	addi	x0,x0,0	  x0:0x00000000
       28485000	      2847	80000538	00000013	addi	x0,x0,0	  x0:0x00000000
       28495000	      2848	8000053c	013f6933	or	x18,x30,x19	 x30:0x80000534 x19:0x80009f20 x18=0x80009f34
       28505000	      2849	80000540	0440036f	jal	x6,80000540	  x6=0x80000540
       28515000	      2850	00000000	00000013	addi	x0,x0,0	  x0:0x00000000
       28525000	      2851	80000580	00000013	addi	x0,x0,0	  x0:0x00000000
       28535000	      2852	80000584	ff1ff26f	jal	x4,80000584	  x4=0x80000584
       28545000	      2853	00000000	00000013	addi	x0,x0,0	  x0:0x00000000
       28555000	      2854	80000570	00000013	addi	x0,x0,0	  x0:0x00000000
       28565000	      2855	80000574	fddff0ef	jal	x1,80000574	  x1=0x80000574
       28575000	      2856	00000000	00000013	addi	x0,x0,0	  x0:0x00000000
       28585000	      2857	8000054c	00000013	addi	x0,x0,0	  x0:0x00000000
       28595000	      2858	80000550	0180036f	jal	x6,80000550	  x6=0x80000550
       28605000	      2859	00000000	00000013	addi	x0,x0,0	  x0:0x00000000
       28615000	      2860	80000564	00000013	addi	x0,x0,0	  x0:0x00000000
       28625000	      2861	80000568	ff5ff0ef	jal	x1,80000568	  x1=0x80000568
       28635000	      2862	00000000	00000013	addi	x0,x0,0	  x0:0x00000000
       28645000	      2863	80000558	00000013	addi	x0,x0,0	  x0:0x00000000
       28655000	      2864	8000055c	ff1ff0ef	jal	x1,8000055c	  x1=0x8000055c
       28665000	      2865	00000000	00000013	addi	x0,x0,0	  x0:0x00000000
       28675000	      2866	80000548	00000013	addi	x0,x0,0	  x0:0x00000000
       28685000	      2867	8000054c	03c0036f	jal	x6,8000054c	  x6=0x8000054c
       28695000	      2868	00000000	00000013	addi	x0,x0,0	  x0:0x00000000
       28705000	      2869	80000584	00000013	addi	x0,x0,0	  x0:0x00000000
       28715000	      2870	80000588	0040066f	jal	x12,80000588	 x12=0x80000588
       28725000	      2871	00000000	00000013	addi	x0,x0,0	  x0:0x00000000
       28735000	      2872	80000588	00000013	addi	x0,x0,0	  x0:0x00000000
       28745000	      2873	8000058c	fd5ff0ef	jal	x1,8000058c	  x1=0x8000058c
       28755000	      2874	00000000	00000013	addi	x0,x0,0	  x0:0x00000000
       28765000	      2875	8000055c	00000013	addi	x0,x0,0	  x0:0x00000000
       28775000	      2876	80000560	03400b6f	jal	x22,80000560	 x22=0x80000560
       28785000	      2877	00000000	00000013	addi	x0,x0,0	  x0:0x00000000
       28795000	      2878	80000590	00000013	addi	x0,x0,0	  x0:0x00000000
       28805000	      2879	80000594	fb5ff0ef	jal	x1,80000594	  x1=0x80000594
       28815000	      2880	00000000	00000013	addi	x0,x0,0	  x0:0x00000000
       28825000	      2881	80000544	00000013	addi	x0,x0,0	  x0:0x00000000
       28835000	      2882	80000548	024000ef	jal	x1,80000548	  x1=0x80000548
       28845000	      2883	00000000	00000013	addi	x0,x0,0	  x0:0x00000000
       28855000	      2884	80000568	00000013	addi	x0,x0,0	  x0:0x00000000
       28865000	      2885	8000056c	004000ef	jal	x1,8000056c	  x1=0x8000056c
       28875000	      2886	00000000	00000013	addi	x0,x0,0	  x0:0x00000000
       28885000	      2887	8000056c	00000013	addi	x0,x0,0	  x0:0x00000000
       28895000	      2888	80000570	008000ef	jal	x1,80000570	  x1=0x80000570
       28905000	      2889	00000000	00000013	addi	x0,x0,0	  x0:0x00000000
       28915000	      2890	80000574	00000013	addi	x0,x0,0	  x0:0x00000000
       28925000	      2891	80000578	fcdff16f	jal	x2,80000578	  x2=0x80000578
       28935000	      2892	00000000	00000013	addi	x0,x0,0	  x0:0x00000000
       28945000	      2893	80000540	00000013	addi	x0,x0,0	  x0:0x00000000
       28955000	      2894	80000544	014000ef	jal	x1,80000544	  x1=0x80000544
       28965000	      2895	00000000	00000013	addi	x0,x0,0	  x0:0x00000000
       28975000	      2896	80000554	00000013	addi	x0,x0,0	  x0:0x00000000
       28985000	      2897	80000558	00c000ef	jal	x1,80000558	  x1=0x80000558
       28995000	      2898	00000000	00000013	addi	x0,x0,0	  x0:0x00000000
       29005000	      2899	80000560	00000013	addi	x0,x0,0	  x0:0x00000000
       29015000	      2900	80000564	ff1ff66f	jal	x12,80000564	 x12=0x80000564
       29025000	      2901	00000000	00000013	addi	x0,x0,0	  x0:0x00000000
       29035000	      2902	80000550	00000013	addi	x0,x0,0	  x0:0x00000000
       29045000	      2903	80000554	02c000ef	jal	x1,80000554	  x1=0x80000554
       29055000	      2904	00000000	00000013	addi	x0,x0,0	  x0:0x00000000
       29065000	      2905	8000057c	00000013	addi	x0,x0,0	  x0:0x00000000
       29075000	      2906	80000580	ffdff96f	jal	x18,80000580	 x18=0x80000580
       29085000	      2907	00000000	00000013	addi	x0,x0,0	  x0:0x00000000
       29095000	      2908	80000578	00000013	addi	x0,x0,0	  x0:0x00000000
       29105000	      2909	8000057c	0140036f	jal	x6,8000057c	  x6=0x8000057c
       29115000	      2910	00000000	00000013	addi	x0,x0,0	  x0:0x00000000
       29125000	      2911	8000058c	00000013	addi	x0,x0,0	  x0:0x00000000
       29135000	      2912	80000590	0080036f	jal	x6,80000590	  x6=0x80000590
       29145000	      2913	00000000	00000013	addi	x0,x0,0	  x0:0x00000000
       29155000	      2914	80000594	00000013	addi	x0,x0,0	  x0:0x00000000
       29165000	      2915	80000598	00dd3833	sltu	x16,x26,x13	 x26:0x80000334 x13:0x00000000 x16=0x00000000
       29175000	      2916	8000059c	01205c93	srli	x25,x0,0x12	  x0:0x00000000 x25=0x00000000
       29185000	      2917	800005a0	04dbe463	bltu	x23,x13,800005e8	 x23:0x00000000 x13:0x00000000
       29195000	      2918	800005a4	41195313	srai	x6,x18,0x11	 x18:0x80000580  x6=0xffffc000
       29205000	      2919	800005a8	89d34b17	auipc	x22,0x89d34	 x22=0x09d345a4
       29215000	      2920	800005ac	4107d393	srai	x7,x15,0x10	 x15:0x800003ec  x7=0xffff8000
       29225000	      2921	800005b0	69f2b613	sltiu	x12,x5,1695	  x5:0x80000524 x12=0x00000000
       29235000	      2922	800005b4	03846863	bltu	x8,x24,800005e4	  x8:0x80000364 x24:0x80001628
       29245000	      2923	00000000	00000013	addi	x0,x0,0	  x0:0x00000000
       29255000	      2924	800005e0	00000013	addi	x0,x0,0	  x0:0x00000000
       29265000	      2925	800005e4	006e4f33	xor	x30,x28,x6	 x28:0x80000418  x6:0xffffc000 x30=0x7fffc418
       29275000	      2926	800005e8	0053fa63	bgeu	x7,x5,800005fc	  x7:0xffff8000  x5:0x80000524
       29285000	      2927	00000000	00000013	addi	x0,x0,0	  x0:0x00000000
       29295000	      2928	800005f8	00000013	addi	x0,x0,0	  x0:0x00000000
       29305000	      2929	800005fc	0094f8b3	and	x17,x9,x9	  x9:0x80000510  x9:0x80000510 x17=0x80000510
       29315000	      2930	80000600	02356e63	bltu	x10,x3,8000063c	 x10:0x8000047c  x3:0x80000478
       29325000	      2931	80000604	415ad533	sra	x10,x21,x21	 x21:0x8000044c x21:0x8000044c x10=0xfff80000
       29335000	      2932	80000608	4060d513	srai	x10,x1,0x6	  x1:0x80000554 x10=0xfe000015
       29345000	      2933	8000060c	00000013	addi	x0,x0,0	  x0:0x00000000
       29355000	      2934	80000610	0139d793	srli	x15,x19,0x13	 x19:0x80009f20 x15=0x00001000
       29365000	      2935	80000614	86eb2713	slti	x14,x22,-1938	 x22:0x09d345a4 x14=0x00000000
       29375000	      2936	80000618	04b39063	bne	x7,x11,80000658	  x7:0xffff8000 x11:0x80009fc4
       29385000	      2937	00000000	00000013	addi	x0,x0,0	  x0:0x00000000
       29395000	      2938	80000654	00000013	addi	x0,x0,0	  x0:0x00000000
       29405000	      2939	80000658	00f19313	slli	x6,x3,0xf	  x3:0x80000478  x6=0x023c0000
       29415000	      2940	8000065c	4c6e7193	andi	x3,x28,1222	 x28:0x80000418  x3=0x00000400
       29425000	      2941	80000660	03319463	bne	x3,x19,80000688	  x3:0x00000400 x19:0x80009f20
       29435000	      2942	00000000	00000013	addi	x0,x0,0	  x0:0x00000000
       29445000	      2943	80000684	00000013	addi	x0,x0,0	  x0:0x00000000
       29455000	      2944	80000688	44d3c237	lui	x4,0x44d3c	  x4=0x44d3c000
       29465000	      2945	8000068c	003077b3	and	x15,x0,x3	  x0:0x00000000  x3:0x00000400 x15=0x00000000
       29475000	      2946	80000690	01521893	slli	x17,x4,0x15	  x4:0x44d3c000 x17=0x00000000
       29485000	      2947	80000694	69fde293	ori	x5,x27,1695	 x27:0xffff6bf3  x5=0xffff6fff
       29495000	      2948	80000698	03326863	bltu	x4,x19,800006c8	  x4:0x44d3c000 x19:0x80009f20
       29505000	      2949	00000000	00000013	addi	x0,x0,0	  x0:0x00000000
       29515000	      2950	800006c4	00000013	addi	x0,x0,0	  x0:0x00000000
       29525000	      2951	800006c8	df053cb7	lui	x25,0xdf053	 x25=0xdf053000
       29535000	      2952	800006cc	00b31b93	slli	x23,x6,0xb	  x6:0x023c0000 x23=0xe0000000
       29545000	      2953	800006d0	73127393	andi	x7,x4,1841	  x4:0x44d3c000  x7=0x00000000
       29555000	      2954	800006d4	00000013	addi	x0,x0,0	  x0:0x00000000
       29565000	      2955	800006d8	00f52033	slt	x0,x10,x15	 x10:0xfe000015 x15:0x00000000
       29575000	      2956	800006dc	00f0bf33	sltu	x30,x1,x15	  x1:0x80000554 x15:0x00000000 x30=0x00000000
       29585000	      2957	800006e0	025c9a63	bne	x25,x5,80000714	 x25:0xdf053000  x5:0xffff6fff
       29595000	      2958	00000000	00000013	addi	x0,x0,0	  x0:0x00000000
       29605000	      2959	80000710	00000013	addi	x0,x0,0	  x0:0x00000000
       29615000	      2960	80000714	014c9463	bne	x25,x20,8000071c	 x25:0xdf053000 x20:0x8000040c
       29625000	      2961	00000000	00000013	addi	x0,x0,0	  x0:0x00000000
       29635000	      2962	80000718	00000013	addi	x0,x0,0	  x0:0x00000000
       29645000	      2963	8000071c	023eda63	bge	x29,x3,80000750	 x29:0x00000000  x3:0x00000400
       29655000	      2964	80000720	28721f17	auipc	x30,0x28721	 x30=0xa872171c
       29665000	      2965	80000724	00e97833	and	x16,x18,x14	 x18:0x80000580 x14:0x00000000 x16=0x00000000
       29675000	      2966	80000728	4071d2b3	sra	x5,x3,x7	  x3:0x00000400  x7:0x00000000  x5=0x00000400
       29685000	      2967	8000072c	2ab52393	slti	x7,x10,683	 x10:0xfe000015  x7=0x00000001
       29695000	      2968	80000730	01ffb6b3	sltu	x13,x31,x31	 x31:0x800004ac x31:0x800004ac x13=0x00000000
       29705000	      2969	80000734	66200193	addi	x3,x0,1634	  x0:0x00000000  x3=0x00000662
       29715000	      2970	80000738	03040c63	beq	x8,x16,80000770	  x8:0x80000364 x16:0x00000000
       29725000	      2971	8000073c	00260d33	add	x26,x12,x2	 x12:0x00000000  x2:0x80000578 x26=0x80000578
       29735000	      2972	80000740	01532e33	slt	x28,x6,x21	  x6:0x023c0000 x21:0x8000044c x28=0x00000000
       29745000	      2973	80000744	046a4863	blt	x20,x6,80000794	 x20:0x8000040c  x6:0x023c0000
       29755000	      2974	00000000	00000013	addi	x0,x0,0	  x0:0x00000000
       29765000	      2975	80000790	00000013	addi	x0,x0,0	  x0:0x00000000
       29775000	      2976	80000794	410bde33	sra	x28,x23,x16	 x23:0xe0000000 x16:0x00000000 x28=0xe0000000
       29785000	      2977	80000798	c2da0693	addi	x13,x20,-979	 x20:0x8000040c x13=0x80000039
       29795000	      2978	8000079c	bc036697	auipc	x13,0xbc036	 x13=0x3c036798
       29805000	      2979	800007a0	00657233	and	x4,x10,x6	 x10:0xfe000015  x6:0x023c0000  x4=0x02000000
       29815000	      2980	800007a4	00356a33	or	x20,x10,x3	 x10:0xfe000015  x3:0x00000662 x20=0xfe000677
       29825000	      2981	800007a8	03237863	bgeu	x6,x18,800007d8	  x6:0x023c0000 x18:0x80000580
       29835000	      2982	800007ac	39bdaf93	slti	x31,x27,923	 x27:0xffff6bf3 x31=0x00000001
       29845000	      2983	800007b0	017bba33	sltu	x20,x23,x23	 x23:0xe0000000 x23:0xe0000000 x20=0x00000000
       29855000	      2984	800007b4	008f1a33	sll	x20,x30,x8	 x30:0xa872171c  x8:0x80000364 x20=0x872171c0
       29865000	      2985	800007b8	00bfa033	slt	x0,x31,x11	 x31:0x00000001 x11:0x80009fc4
       29875000	      2986	800007bc	0260de63	bge	x1,x6,800007f8	  x1:0x80000554  x6:0x023c0000
       29885000	      2987	800007c0	00a4d693	srli	x13,x9,0xa	  x9:0x80000510 x13=0x00200001
       29895000	      2988	800007c4	01124033	xor	x0,x4,x17	  x4:0x02000000 x17:0x00000000
       29905000	      2989	800007c8	0111c533	xor	x10,x3,x17	  x3:0x00000662 x17:0x00000000 x10=0x00000662
       29915000	      2990	800007cc	01b80db3	add	x27,x16,x27	 x16:0x00000000 x27:0xffff6bf3 x27=0xffff6bf3
       29925000	      2991	800007d0	017d1463	bne	x26,x23,800007d8	 x26:0x80000578 x23:0xe0000000
       29935000	      2992	00000000	00000013	addi	x0,x0,0	  x0:0x00000000
       29945000	      2993	800007d4	00000013	addi	x0,x0,0	  x0:0x00000000
       29955000	      2994	800007d8	41d9db13	srai	x22,x19,0x1d	 x19:0x80009f20 x22=0xfffffffc
       29965000	      2995	800007dc	05ea7863	bgeu	x20,x30,8000082c	 x20:0x872171c0 x30:0xa872171c
       29975000	      2996	800007e0	009e7e33	and	x28,x28,x9	 x28:0xe0000000  x9:0x80000510 x28=0x80000000
       29985000	      2997	800007e4	007ab133	sltu	x2,x21,x7	 x21:0x8000044c  x7:0x00000001  x2=0x00000000
       29995000	      2998	800007e8	03445463	bge	x8,x20,80000810	  x8:0x80000364 x20:0x872171c0
       30005000	      2999	800007ec	24691ab7	lui	x21,0x24691	 x21=0x24691000
       30015000	      3000	800007f0	001ad893	srli	x17,x21,0x1	 x21:0x24691000 x17=0x12348800
       30025000	      3001	800007f4	04876663	bltu	x14,x8,80000840	 x14:0x00000000  x8:0x80000364
       30035000	      3002	00000000	00000013	addi	x0,x0,0	  x0:0x00000000
       30045000	      3003	8000083c	00000013	addi	x0,x0,0	  x0:0x00000000
       30055000	      3004	80000840	06696f13	ori	x30,x18,102	 x18:0x80000580 x30=0x800005e6
       30065000	      3005	80000844	00000013	addi	x0,x0,0	  x0:0x00000000
       30075000	      3006	80000848	00504f33	xor	x30,x0,x5	  x0:0x00000000  x5:0x00000400 x30=0x00000400
       30085000	      3007	8000084c	01c242b3	xor	x5,x4,x28	  x4:0x02000000 x28:0x80000000  x5=0x82000000
       30095000	      3008	80000850	02c37263	bgeu	x6,x12,80000874	  x6:0x023c0000 x12:0x00000000
       30105000	      3009	00000000	00000013	addi	x0,x0,0	  x0:0x00000000
       30115000	      3010	80000870	00000013	addi	x0,x0,0	  x0:0x00000000
       30125000	      3011	80000874	01539263	bne	x7,x21,80000878	  x7:0x00000001 x21:0x24691000
       30135000	      3012	00000000	00000013	addi	x0,x0,0	  x0:0x00000000
       30145000	      3013	80000874	00000013	addi	x0,x0,0	  x0:0x00000000
       30155000	      3014	80000878	40b351b3	sra	x3,x6,x11	  x6:0x023c0000 x11:0x80009fc4  x3=0x0023c000
       30165000	      3015	8000087c	01e42933	slt	x18,x8,x30	  x8:0x80000364 x30:0x00000400 x18=0x00000001
       30175000	      3016	80000880	bf8d0813	addi	x16,x26,-1032	 x26:0x80000578 x16=0x80000170
       30185000	      3017	80000884	012a1a63	bne	x20,x18,80000898	 x20:0x872171c0 x18:0x00000001
       30195000	      3018	00000000	00000013	addi	x0,x0,0	  x0:0x00000000
       30205000	      3019	80000894	00000013	addi	x0,x0,0	  x0:0x00000000
       30215000	      3020	80000898	0032a7b3	slt	x15,x5,x3	  x5:0x82000000  x3:0x0023c000 x15=0x00000001
       30225000	      3021	8000089c	0138ab33	slt	x22,x17,x19	 x17:0x12348800 x19:0x80009f20 x22=0x00000000
       30235000	      3022	800008a0	0267fe63	bgeu	x15,x6,800008dc	 x15:0x00000001  x6:0x023c0000
       30245000	      3023	800008a4	d37348b7	lui	x17,0xd3734	 x17=0xd3734000
       30255000	      3024	800008a8	013856b3	srl	x13,x16,x19	 x16:0x80000170 x19:0x80009f20 x13=0x80000170
       30265000	      3025	800008ac	41ec50b3	sra	x1,x24,x30	 x24:0x80001628 x30:0x00000400  x1=0x80001628
       30275000	      3026	800008b0	025c0263	beq	x24,x5,800008d4	 x24:0x80001628  x5:0x82000000
       30285000	      3027	800008b4	01fb5713	srli	x14,x22,0x1f	 x22:0x00000000 x14=0x00000000
       30295000	      3028	800008b8	8c548297	auipc	x5,0x8c548	  x5=0x0c5488b4
       30305000	      3029	800008bc	01465493	srli	x9,x12,0x14	 x12:0x00000000  x9=0x00000000
       30315000	      3030	800008c0	92befd13	andi	x26,x29,-1749	 x29:0x00000000 x26=0x00000000
       30325000	      3031	800008c4	00256433	or	x8,x10,x2	 x10:0x00000662  x2:0x00000000  x8=0x00000662
       30335000	      3032	800008c8	17d2e8b7	lui	x17,0x17d2e	 x17=0x17d2e000
       30345000	      3033	800008cc	84998c13	addi	x24,x19,-1975	 x19:0x80009f20 x24=0x80009769
       30355000	      3034	800008d0	014c06b3	add	x13,x24,x20	 x24:0x80009769 x20:0x872171c0 x13=0x07220929
       30365000	      3035	800008d4	017a7d33	and	x26,x20,x23	 x20:0x872171c0 x23:0xe0000000 x26=0x80000000
       30375000	      3036	800008d8	00e65d33	srl	x26,x12,x14	 x12:0x00000000 x14:0x00000000 x26=0x00000000
       30385000	      3037	800008dc	01740a63	beq	x8,x23,800008f0	  x8:0x00000662 x23:0xe0000000
       30395000	      3038	800008e0	e820fb13	andi	x22,x1,-382	  x1:0x80001628 x22=0x80001600
       30405000	      3039	800008e4	8e597293	andi	x5,x18,-1819	 x18:0x00000001  x5=0x00000001
       30415000	      3040	800008e8	01849f33	sll	x30,x9,x24	  x9:0x00000000 x24:0x80009769 x30=0x00000000
       30425000	      3041	800008ec	011dc133	xor	x2,x27,x17	 x27:0xffff6bf3 x17:0x17d2e000  x2=0xe82d8bf3
       30435000	      3042	800008f0	016c3033	sltu	x0,x24,x22	 x24:0x80009769 x22:0x80001600
       30445000	      3043	800008f4	c8b58913	addi	x18,x11,-885	 x11:0x80009fc4 x18=0x80009c4f
       30455000	      3044	800008f8	02042193	slti	x3,x8,32	  x8:0x00000662  x3=0x00000000
       30465000	      3045	800008fc	001c7cb3	and	x25,x24,x1	 x24:0x80009769  x1:0x80001628 x25=0x80001628
       30475000	      3046	80000900	006f7433	and	x8,x30,x6	 x30:0x00000000  x6:0x023c0000  x8=0x00000000
       30485000	      3047	80000904	03af0463	beq	x30,x26,8000092c	 x30:0x00000000 x26:0x00000000
       30495000	      3048	00000000	00000013	addi	x0,x0,0	  x0:0x00000000
       30505000	      3049	80000928	00000013	addi	x0,x0,0	  x0:0x00000000
       30515000	      3050	8000092c	8560fe13	andi	x28,x1,-1962	  x1:0x80001628 x28=0x80001000
       30525000	      3051	80000930	019b74b3	and	x9,x22,x25	 x22:0x80001600 x25:0x80001628  x9=0x80001600
       30535000	      3052	80000934	000bd463	bge	x23,x0,8000093c	 x23:0xe0000000  x0:0x00000000
       30545000	      3053	80000938	0136ffb3	and	x31,x13,x19	 x13:0x07220929 x19:0x80009f20 x31=0x00000920
       30555000	      3054	8000093c	00a48bb3	add	x23,x9,x10	  x9:0x80001600 x10:0x00000662 x23=0x80001c62
       30565000	      3055	80000940	01ff44b3	xor	x9,x30,x31	 x30:0x00000000 x31:0x00000920  x9=0x00000920
       30575000	      3056	80000944	008318b3	sll	x17,x6,x8	  x6:0x023c0000  x8:0x00000000 x17=0x023c0000
       30585000	      3057	80000948	f6cbeab7	lui	x21,0xf6cbe	 x21=0xf6cbe000
       30595000	      3058	8000094c	6b4d4e13	xori	x28,x26,1716	 x26:0x00000000 x28=0x000006b4
       30605000	      3059	80000950	038d7c63	bgeu	x26,x24,80000988	 x26:0x00000000 x24:0x80009769
       30615000	      3060	80000954	03980a63	beq	x16,x25,80000988	 x16:0x80000170 x25:0x80001628
       30625000	      3061	80000958	00cb8ab3	add	x21,x23,x12	 x23:0x80001c62 x12:0x00000000 x21=0x80001c62
       30635000	      3062	8000095c	05937463	bgeu	x6,x25,800009a4	  x6:0x023c0000 x25:0x80001628
       30645000	      3063	80000960	68947c93	andi	x25,x8,1673	  x8:0x00000000 x25=0x00000000
       30655000	      3064	80000964	01b99913	slli	x18,x19,0x1b	 x19:0x80009f20 x18=0x00000000
       30665000	      3065	80000968	024d1863	bne	x26,x4,80000998	 x26:0x00000000  x4:0x02000000
       30675000	      3066	00000000	00000013	addi	x0,x0,0	  x0:0x00000000
       30685000	      3067	80000994	00000013	addi	x0,x0,0	  x0:0x00000000
       30695000	      3068	80000998	00f00cb3	add	x25,x0,x15	  x0:0x00000000 x15:0x00000001 x25=0x00000001
       30705000	      3069	8000099c	007d13b3	sll	x7,x26,x7	 x26:0x00000000  x7:0x00000001  x7=0x00000000
       30715000	      3070	800009a0	11faad17	auipc	x26,0x11faa	 x26=0x91faa99c
       30725000	      3071	800009a4	00811333	sll	x6,x2,x8	  x2:0xe82d8bf3  x8:0x00000000  x6=0xe82d8bf3
       30735000	      3072	800009a8	01dc91b3	sll	x3,x25,x29	 x25:0x00000001 x29:0x00000000  x3=0x00000001
       30745000	      3073	800009ac	04d9c863	blt	x19,x13,800009fc	 x19:0x80009f20 x13:0x07220929
       30755000	      3074	00000000	00000013	addi	x0,x0,0	  x0:0x00000000
       30765000	      3075	800009f8	00000013	addi	x0,x0,0	  x0:0x00000000
       30775000	      3076	800009fc	0020abb3	slt	x23,x1,x2	  x1:0x80001628  x2:0xe82d8bf3 x23=0x00000001
       30785000	      3077	80000a00	00101393	slli	x7,x0,0x1	  x0:0x00000000  x7=0x00000000
       30795000	      3078	80000a04	00238a63	beq	x7,x2,80000a18	  x7:0x00000000  x2:0xe82d8bf3
       30805000	      3079	80000a08	01cebdb3	sltu	x27,x29,x28	 x29:0x00000000 x28:0x000006b4 x27=0x00000001
       30815000	      3080	80000a0c	ba3e63b7	lui	x7,0xba3e6	  x7=0xba3e6000
       30825000	      3081	80000a10	015784b3	add	x9,x15,x21	 x15:0x00000001 x21:0x80001c62  x9=0x80001c63
       30835000	      3082	80000a14	030f1e63	bne	x30,x16,80000a50	 x30:0x00000000 x16:0x80000170
       30845000	      3083	00000000	00000013	addi	x0,x0,0	  x0:0x00000000
       30855000	      3084	80000a4c	00000013	addi	x0,x0,0	  x0:0x00000000
       30865000	      3085	80000a50	01941833	sll	x16,x8,x25	  x8:0x00000000 x25:0x00000001 x16=0x00000000
       30875000	      3086	80000a54	407152b3	sra	x5,x2,x7	  x2:0xe82d8bf3  x7:0xba3e6000  x5=0xe82d8bf3
       30885000	      3087	80000a58	71352337	lui	x6,0x71352	  x6=0x71352000
       30895000	      3088	80000a5c	01e6f233	and	x4,x13,x30	 x13:0x07220929 x30:0x00000000  x4=0x00000000
       30905000	      3089	80000a60	000fd633	srl	x12,x31,x0	 x31:0x00000920  x0:0x00000000 x12=0x00000920
       30915000	      3090	80000a64	4a25e813	ori	x16,x11,1186	 x11:0x80009fc4 x16=0x80009fe6
       30925000	      3091	80000a68	01b09b93	slli	x23,x1,0x1b	  x1:0x80001628 x23=0x40000000
       30935000	      3092	80000a6c	824aa613	slti	x12,x21,-2012	 x21:0x80001c62 x12=0x00000001
       30945000	      3093	80000a70	1f980517	auipc	x10,0x1f980	 x10=0x9f980a6c
       30955000	      3094	80000a74	018a87b3	add	x15,x21,x24	 x21:0x80001c62 x24:0x80009769 x15=0x0000b3cb
       30965000	      3095	80000a78	0088cdb3	xor	x27,x17,x8	 x17:0x023c0000  x8:0x00000000 x27=0x023c0000
       30975000	      3096	80000a7c	01243193	sltiu	x3,x8,18	  x8:0x00000000  x3=0x00000001
       30985000	      3097	80000a80	4108dc33	sra	x24,x17,x16	 x17:0x023c0000 x16:0x80009fe6 x24=0x0008f000
       30995000	      3098	80000a84	2c643d93	sltiu	x27,x8,710	  x8:0x00000000 x27=0x00000001
       31005000	      3099	80000a88	00702c33	slt	x24,x0,x7	  x0:0x00000000  x7:0xba3e6000 x24=0x00000000
       31015000	      3100	80000a8c	0197ea33	or	x20,x15,x25	 x15:0x0000b3cb x25:0x00000001 x20=0x0000b3cb
       31025000	      3101	80000a90	00876ab3	or	x21,x14,x8	 x14:0x00000000  x8:0x00000000 x21=0x00000000
       31035000	      3102	80000a94	40562093	slti	x1,x12,1029	 x12:0x00000001  x1=0x00000001
       31045000	      3103	80000a98	02467a63	bgeu	x12,x4,80000acc	 x12:0x00000001  x4:0x00000000
       31055000	      3104	00000000	00000013	addi	x0,x0,0	  x0:0x00000000
       31065000	      3105	80000ac8	00000013	addi	x0,x0,0	  x0:0x00000000
       31075000	      3106	80000acc	34a23a13	sltiu	x20,x4,842	  x4:0x00000000 x20=0x00000001
       31085000	      3107	80000ad0	00ce4463	blt	x28,x12,80000ad8	 x28:0x000006b4 x12:0x00000001
       31095000	      3108	80000ad4	758d9f17	auipc	x30,0x758d9	 x30=0xf58d9ad0
       31105000	      3109	80000ad8	2327cc17	auipc	x24,0x2327c	 x24=0xa327cad4
       31115000	      3110	80000adc	0180036f	jal	x6,80000adc	  x6=0x80000adc
       31125000	      3111	00000000	00000013	addi	x0,x0,0	  x0:0x00000000
       31135000	      3112	80000af0	00000013	addi	x0,x0,0	  x0:0x00000000
       31145000	      3113	80000af4	010000ef	jal	x1,80000af4	  x1=0x80000af4
       31155000	      3114	00000000	00000013	addi	x0,x0,0	  x0:0x00000000
       31165000	      3115	80000b00	00000013	addi	x0,x0,0	  x0:0x00000000
       31175000	      3116	80000b04	020007ef	jal	x15,80000b04	 x15=0x80000b04
       31185000	      3117	00000000	00000013	addi	x0,x0,0	  x0:0x00000000
       31195000	      3118	80000b20	00000013	addi	x0,x0,0	  x0:0x00000000
       31205000	      3119	80000b24	010000ef	jal	x1,80000b24	  x1=0x80000b24
       31215000	      3120	00000000	00000013	addi	x0,x0,0	  x0:0x00000000
       31225000	      3121	80000b30	00000013	addi	x0,x0,0	  x0:0x00000000
       31235000	      3122	80000b34	fc5ff26f	jal	x4,80000b34	  x4=0x80000b34
       31245000	      3123	00000000	00000013	addi	x0,x0,0	  x0:0x00000000
       31255000	      3124	80000af4	00000013	addi	x0,x0,0	  x0:0x00000000
       31265000	      3125	80000af8	00800d6f	jal	x26,80000af8	 x26=0x80000af8
       31275000	      3126	00000000	00000013	addi	x0,x0,0	  x0:0x00000000
       31285000	      3127	80000afc	00000013	addi	x0,x0,0	  x0:0x00000000
       31295000	      3128	80000b00	fe1ff36f	jal	x6,80000b00	  x6=0x80000b00
       31305000	      3129	00000000	00000013	addi	x0,x0,0	  x0:0x00000000
       31315000	      3130	80000adc	00000013	addi	x0,x0,0	  x0:0x00000000
       31325000	      3131	80000ae0	04c0026f	jal	x4,80000ae0	  x4=0x80000ae0
       31335000	      3132	00000000	00000013	addi	x0,x0,0	  x0:0x00000000
       31345000	      3133	80000b28	00000013	addi	x0,x0,0	  x0:0x00000000
       31355000	      3134	80000b2c	fbdff36f	jal	x6,80000b2c	  x6=0x80000b2c
       31365000	      3135	00000000	00000013	addi	x0,x0,0	  x0:0x00000000
       31375000	      3136	80000ae4	00000013	addi	x0,x0,0	  x0:0x00000000
       31385000	      3137	80000ae8	030000ef	jal	x1,80000ae8	  x1=0x80000ae8
       31395000	      3138	00000000	00000013	addi	x0,x0,0	  x0:0x00000000
       31405000	      3139	80000b14	00000013	addi	x0,x0,0	  x0:0x00000000
       31415000	      3140	80000b18	ff5ff0ef	jal	x1,80000b18	  x1=0x80000b18
       31425000	      3141	00000000	00000013	addi	x0,x0,0	  x0:0x00000000
       31435000	      3142	80000b08	00000013	addi	x0,x0,0	  x0:0x00000000
       31445000	      3143	80000b0c	01400a6f	jal	x20,80000b0c	 x20=0x80000b0c
       31455000	      3144	00000000	00000013	addi	x0,x0,0	  x0:0x00000000
       31465000	      3145	80000b1c	00000013	addi	x0,x0,0	  x0:0x00000000
       31475000	      3146	80000b20	fddffc6f	jal	x24,80000b20	 x24=0x80000b20
       31485000	      3147	00000000	00000013	addi	x0,x0,0	  x0:0x00000000
       31495000	      3148	80000af8	00000013	addi	x0,x0,0	  x0:0x00000000
       31505000	      3149	80000afc	0180036f	jal	x6,80000afc	  x6=0x80000afc
       31515000	      3150	00000000	00000013	addi	x0,x0,0	  x0:0x00000000
       31525000	      3151	80000b10	00000013	addi	x0,x0,0	  x0:0x00000000
       31535000	      3152	80000b14	ff5ff66f	jal	x12,80000b14	 x12=0x80000b14
       31545000	      3153	00000000	00000013	addi	x0,x0,0	  x0:0x00000000
       31555000	      3154	80000b04	00000013	addi	x0,x0,0	  x0:0x00000000
       31565000	      3155	80000b08	0140036f	jal	x6,80000b08	  x6=0x80000b08
       31575000	      3156	00000000	00000013	addi	x0,x0,0	  x0:0x00000000
       31585000	      3157	80000b18	00000013	addi	x0,x0,0	  x0:0x00000000
       31595000	      3158	80000b1c	ff5ff0ef	jal	x1,80000b1c	  x1=0x80000b1c
       31605000	      3159	00000000	00000013	addi	x0,x0,0	  x0:0x00000000
       31615000	      3160	80000b0c	00000013	addi	x0,x0,0	  x0:0x00000000
       31625000	      3161	80000b10	fddff26f	jal	x4,80000b10	  x4=0x80000b10
       31635000	      3162	00000000	00000013	addi	x0,x0,0	  x0:0x00000000
       31645000	      3163	80000ae8	00000013	addi	x0,x0,0	  x0:0x00000000
       31655000	      3164	80000aec	004000ef	jal	x1,80000aec	  x1=0x80000aec
       31665000	      3165	00000000	00000013	addi	x0,x0,0	  x0:0x00000000
       31675000	      3166	80000aec	00000013	addi	x0,x0,0	  x0:0x00000000
       31685000	      3167	80000af0	04000fef	jal	x31,80000af0	 x31=0x80000af0
       31695000	      3168	00000000	00000013	addi	x0,x0,0	  x0:0x00000000
       31705000	      3169	80000b2c	00000013	addi	x0,x0,0	  x0:0x00000000
       31715000	      3170	80000b30	ff9ff0ef	jal	x1,80000b30	  x1=0x80000b30
       31725000	      3171	00000000	00000013	addi	x0,x0,0	  x0:0x00000000
       31735000	      3172	80000b24	00000013	addi	x0,x0,0	  x0:0x00000000
       31745000	      3173	80000b28	fbdff0ef	jal	x1,80000b28	  x1=0x80000b28
       31755000	      3174	00000000	00000013	addi	x0,x0,0	  x0:0x00000000
       31765000	      3175	80000ae0	00000013	addi	x0,x0,0	  x0:0x00000000
       31775000	      3176	80000ae4	054000ef	jal	x1,80000ae4	  x1=0x80000ae4
       31785000	      3177	00000000	00000013	addi	x0,x0,0	  x0:0x00000000
       31795000	      3178	80000b34	00000013	addi	x0,x0,0	  x0:0x00000000
       31805000	      3179	80000b38	408bd2b3	sra	x5,x23,x8	 x23:0x40000000  x8:0x00000000  x5=0x40000000
       31815000	      3180	80000b3c	001ef133	and	x2,x29,x1	 x29:0x00000000  x1:0x80000ae4  x2=0x00000000
       31825000	      3181	80000b40	41d85533	sra	x10,x16,x29	 x16:0x80009fe6 x29:0x00000000 x10=0x80009fe6
       31835000	      3182	80000b44	f10a3313	sltiu	x6,x20,-240	 x20:0x80000b0c  x6=0x00000001
       31845000	      3183	80000b48	035a1c63	bne	x20,x21,80000b80	 x20:0x80000b0c x21:0x00000000
       31855000	      3184	00000000	00000013	addi	x0,x0,0	  x0:0x00000000
       31865000	      3185	80000b7c	00000013	addi	x0,x0,0	  x0:0x00000000
       31875000	      3186	80000b80	013e7c33	and	x24,x28,x19	 x28:0x000006b4 x19:0x80009f20 x24=0x00000620
       31885000	      3187	80000b84	43a87017	auipc	x0,0x43a87	
       31895000	      3188	80000b88	01684cb3	xor	x25,x16,x22	 x16:0x80009fe6 x22:0x80001600 x25=0x000089e6
       31905000	      3189	80000b8c	00f97833	and	x16,x18,x15	 x18:0x00000000 x15:0x80000b04 x16=0x00000000
       31915000	      3190	80000b90	8b88a693	slti	x13,x17,-1864	 x17:0x023c0000 x13=0x00000000
       31925000	      3191	80000b94	0049a303	lw	x6,4(x19)	 x19:0x80009f20  x6=0x80003c78 PA:0x80009f24
       31935000	      3192	80000b98	a3e70513	addi	x10,x14,-1474	 x14:0x00000000 x10=0xfffffa3e
       31945000	      3193	80000b9c	4f29e613	ori	x12,x19,1266	 x19:0x80009f20 x12=0x80009ff2
       31955000	      3194	80000ba0	01c98993	addi	x19,x19,28	 x19:0x80009f20 x19=0x80009f3c
       31965000	      3195	80000ba4	014e4a33	xor	x20,x28,x20	 x28:0x000006b4 x20:0x80000b0c x20=0x80000db8
       31975000	      3196	80000ba8	00f3dcb3	srl	x25,x7,x15	  x7:0xba3e6000 x15:0x80000b04 x25=0x0ba3e600
       31985000	      3197	80000bac	00000013	addi	x0,x0,0	  x0:0x00000000
       31995000	      3198	80000bb0	00038c33	add	x24,x7,x0	  x7:0xba3e6000  x0:0x00000000 x24=0xba3e6000
       32005000	      3199	80000bb4	00030393	addi	x7,x6,0	  x6:0x80003c78  x7=0x80003c78
       32015000	      3200	80000bb8	000383e7	jalr	x7,x7,0	  x7:0x80003c78  x7=0x80000bb8
       32025000	      3201	00000000	00000013	addi	x0,x0,0	  x0:0x00000000
       32035000	      3202	80003c78	00000013	addi	x0,x0,0	  x0:0x00000000
       32045000	      3203	80003c7c	0440036f	jal	x6,80003c7c	  x6=0x80003c7c
       32055000	      3204	00000000	00000013	addi	x0,x0,0	  x0:0x00000000
       32065000	      3205	80003cbc	00000013	addi	x0,x0,0	  x0:0x00000000
       32075000	      3206	80003cc0	fd1ffc6f	jal	x24,80003cc0	 x24=0x80003cc0
       32085000	      3207	00000000	00000013	addi	x0,x0,0	  x0:0x00000000
       32095000	      3208	80003c8c	00000013	addi	x0,x0,0	  x0:0x00000000
       32105000	      3209	80003c90	020000ef	jal	x1,80003c90	  x1=0x80003c90
       32115000	      3210	00000000	00000013	addi	x0,x0,0	  x0:0x00000000
       32125000	      3211	80003cac	00000013	addi	x0,x0,0	  x0:0x00000000
       32135000	      3212	80003cb0	fddff36f	jal	x6,80003cb0	  x6=0x80003cb0
       32145000	      3213	00000000	00000013	addi	x0,x0,0	  x0:0x00000000
       32155000	      3214	80003c88	00000013	addi	x0,x0,0	  x0:0x00000000
       32165000	      3215	80003c8c	ff5ff46f	jal	x8,80003c8c	  x8=0x80003c8c
       32175000	      3216	00000000	00000013	addi	x0,x0,0	  x0:0x00000000
       32185000	      3217	80003c7c	00000013	addi	x0,x0,0	  x0:0x00000000
       32195000	      3218	80003c80	014000ef	jal	x1,80003c80	  x1=0x80003c80
       32205000	      3219	00000000	00000013	addi	x0,x0,0	  x0:0x00000000
       32215000	      3220	80003c90	00000013	addi	x0,x0,0	  x0:0x00000000
       32225000	      3221	80003c94	020000ef	jal	x1,80003c94	  x1=0x80003c94
       32235000	      3222	00000000	00000013	addi	x0,x0,0	  x0:0x00000000
       32245000	      3223	80003cb0	00000013	addi	x0,x0,0	  x0:0x00000000
       32255000	      3224	80003cb4	fedff0ef	jal	x1,80003cb4	  x1=0x80003cb4
       32265000	      3225	00000000	00000013	addi	x0,x0,0	  x0:0x00000000
       32275000	      3226	80003c9c	00000013	addi	x0,x0,0	  x0:0x00000000
       32285000	      3227	80003ca0	008000ef	jal	x1,80003ca0	  x1=0x80003ca0
       32295000	      3228	00000000	00000013	addi	x0,x0,0	  x0:0x00000000
       32305000	      3229	80003ca4	00000013	addi	x0,x0,0	  x0:0x00000000
       32315000	      3230	80003ca8	01c000ef	jal	x1,80003ca8	  x1=0x80003ca8
       32325000	      3231	00000000	00000013	addi	x0,x0,0	  x0:0x00000000
       32335000	      3232	80003cc0	00000013	addi	x0,x0,0	  x0:0x00000000
       32345000	      3233	80003cc4	fe1ff36f	jal	x6,80003cc4	  x6=0x80003cc4
       32355000	      3234	00000000	00000013	addi	x0,x0,0	  x0:0x00000000
       32365000	      3235	80003ca0	00000013	addi	x0,x0,0	  x0:0x00000000
       32375000	      3236	80003ca4	fe1ff36f	jal	x6,80003ca4	  x6=0x80003ca4
       32385000	      3237	00000000	00000013	addi	x0,x0,0	  x0:0x00000000
       32395000	      3238	80003c80	00000013	addi	x0,x0,0	  x0:0x00000000
       32405000	      3239	80003c84	004000ef	jal	x1,80003c84	  x1=0x80003c84
       32415000	      3240	00000000	00000013	addi	x0,x0,0	  x0:0x00000000
       32425000	      3241	80003c84	00000013	addi	x0,x0,0	  x0:0x00000000
       32435000	      3242	80003c88	010000ef	jal	x1,80003c88	  x1=0x80003c88
       32445000	      3243	00000000	00000013	addi	x0,x0,0	  x0:0x00000000
       32455000	      3244	80003c94	00000013	addi	x0,x0,0	  x0:0x00000000
       32465000	      3245	80003c98	020000ef	jal	x1,80003c98	  x1=0x80003c98
       32475000	      3246	00000000	00000013	addi	x0,x0,0	  x0:0x00000000
       32485000	      3247	80003cb4	00000013	addi	x0,x0,0	  x0:0x00000000
       32495000	      3248	80003cb8	ff5ff2ef	jal	x5,80003cb8	  x5=0x80003cb8
       32505000	      3249	00000000	00000013	addi	x0,x0,0	  x0:0x00000000
       32515000	      3250	80003ca8	00000013	addi	x0,x0,0	  x0:0x00000000
       32525000	      3251	80003cac	ff1ff0ef	jal	x1,80003cac	  x1=0x80003cac
       32535000	      3252	00000000	00000013	addi	x0,x0,0	  x0:0x00000000
       32545000	      3253	80003c98	00000013	addi	x0,x0,0	  x0:0x00000000
       32555000	      3254	80003c9c	020001ef	jal	x3,80003c9c	  x3=0x80003c9c
       32565000	      3255	00000000	00000013	addi	x0,x0,0	  x0:0x00000000
       32575000	      3256	80003cb8	00000013	addi	x0,x0,0	  x0:0x00000000
       32585000	      3257	80003cbc	00c000ef	jal	x1,80003cbc	  x1=0x80003cbc
       32595000	      3258	00000000	00000013	addi	x0,x0,0	  x0:0x00000000
       32605000	      3259	80003cc4	00000013	addi	x0,x0,0	  x0:0x00000000
       32615000	      3260	80003cc8	003f8b13	addi	x22,x31,3	 x31:0x80000af0 x22=0x80000af3
       32625000	      3261	80003ccc	0280036f	jal	x6,80003ccc	  x6=0x80003ccc
       32635000	      3262	00000000	00000013	addi	x0,x0,0	  x0:0x00000000
       32645000	      3263	80003cf0	00000013	addi	x0,x0,0	  x0:0x00000000
       32655000	      3264	80003cf4	fedff0ef	jal	x1,80003cf4	  x1=0x80003cf4
       32665000	      3265	00000000	00000013	addi	x0,x0,0	  x0:0x00000000
       32675000	      3266	80003cdc	00000013	addi	x0,x0,0	  x0:0x00000000
       32685000	      3267	80003ce0	030000ef	jal	x1,80003ce0	  x1=0x80003ce0
       32695000	      3268	00000000	00000013	addi	x0,x0,0	  x0:0x00000000
       32705000	      3269	80003d0c	00000013	addi	x0,x0,0	  x0:0x00000000
       32715000	      3270	80003d10	ff5ff0ef	jal	x1,80003d10	  x1=0x80003d10
       32725000	      3271	00000000	00000013	addi	x0,x0,0	  x0:0x00000000
       32735000	      3272	80003d00	00000013	addi	x0,x0,0	  x0:0x00000000
       32745000	      3273	80003d04	fd9ff0ef	jal	x1,80003d04	  x1=0x80003d04
       32755000	      3274	00000000	00000013	addi	x0,x0,0	  x0:0x00000000
       32765000	      3275	80003cd8	00000013	addi	x0,x0,0	  x0:0x00000000
       32775000	      3276	80003cdc	0240046f	jal	x8,80003cdc	  x8=0x80003cdc
       32785000	      3277	00000000	00000013	addi	x0,x0,0	  x0:0x00000000
       32795000	      3278	80003cfc	00000013	addi	x0,x0,0	  x0:0x00000000
       32805000	      3279	80003d00	fd5ff0ef	jal	x1,80003d00	  x1=0x80003d00
       32815000	      3280	00000000	00000013	addi	x0,x0,0	  x0:0x00000000
       32825000	      3281	80003cd0	00000013	addi	x0,x0,0	  x0:0x00000000
       32835000	      3282	80003cd4	040000ef	jal	x1,80003cd4	  x1=0x80003cd4
       32845000	      3283	00000000	00000013	addi	x0,x0,0	  x0:0x00000000
       32855000	      3284	80003d10	00000013	addi	x0,x0,0	  x0:0x00000000
       32865000	      3285	80003d14	fd5ffcef	jal	x25,80003d14	 x25=0x80003d14
       32875000	      3286	00000000	00000013	addi	x0,x0,0	  x0:0x00000000
       32885000	      3287	80003ce4	00000013	addi	x0,x0,0	  x0:0x00000000
       32895000	      3288	80003ce8	024000ef	jal	x1,80003ce8	  x1=0x80003ce8
       32905000	      3289	00000000	00000013	addi	x0,x0,0	  x0:0x00000000
       32915000	      3290	80003d08	00000013	addi	x0,x0,0	  x0:0x00000000
       32925000	      3291	80003d0c	ffdffaef	jal	x21,80003d0c	 x21=0x80003d0c
       32935000	      3292	00000000	00000013	addi	x0,x0,0	  x0:0x00000000
       32945000	      3293	80003d04	00000013	addi	x0,x0,0	  x0:0x00000000
       32955000	      3294	80003d08	ff1ff0ef	jal	x1,80003d08	  x1=0x80003d08
       32965000	      3295	00000000	00000013	addi	x0,x0,0	  x0:0x00000000
       32975000	      3296	80003cf4	00000013	addi	x0,x0,0	  x0:0x00000000
       32985000	      3297	80003cf8	ff5ff0ef	jal	x1,80003cf8	  x1=0x80003cf8
       32995000	      3298	00000000	00000013	addi	x0,x0,0	  x0:0x00000000
       33005000	      3299	80003ce8	00000013	addi	x0,x0,0	  x0:0x00000000
       33015000	      3300	80003cec	fe5ff36f	jal	x6,80003cec	  x6=0x80003cec
       33025000	      3301	00000000	00000013	addi	x0,x0,0	  x0:0x00000000
       33035000	      3302	80003ccc	00000013	addi	x0,x0,0	  x0:0x00000000
       33045000	      3303	80003cd0	020000ef	jal	x1,80003cd0	  x1=0x80003cd0
       33055000	      3304	00000000	00000013	addi	x0,x0,0	  x0:0x00000000
       33065000	      3305	80003cec	00000013	addi	x0,x0,0	  x0:0x00000000
       33075000	      3306	80003cf0	ff5ff36f	jal	x6,80003cf0	  x6=0x80003cf0
       33085000	      3307	00000000	00000013	addi	x0,x0,0	  x0:0x00000000
       33095000	      3308	80003ce0	00000013	addi	x0,x0,0	  x0:0x00000000
       33105000	      3309	80003ce4	0180036f	jal	x6,80003ce4	  x6=0x80003ce4
       33115000	      3310	00000000	00000013	addi	x0,x0,0	  x0:0x00000000
       33125000	      3311	80003cf8	00000013	addi	x0,x0,0	  x0:0x00000000
       33135000	      3312	80003cfc	01c00fef	jal	x31,80003cfc	 x31=0x80003cfc
       33145000	      3313	00000000	00000013	addi	x0,x0,0	  x0:0x00000000
       33155000	      3314	80003d14	00000013	addi	x0,x0,0	  x0:0x00000000
       33165000	      3315	80003d18	fc1ff36f	jal	x6,80003d18	  x6=0x80003d18
       33175000	      3316	00000000	00000013	addi	x0,x0,0	  x0:0x00000000
       33185000	      3317	80003cd4	00000013	addi	x0,x0,0	  x0:0x00000000
       33195000	      3318	80003cd8	0440036f	jal	x6,80003cd8	  x6=0x80003cd8
       33205000	      3319	00000000	00000013	addi	x0,x0,0	  x0:0x00000000
       33215000	      3320	80003d18	00000013	addi	x0,x0,0	  x0:0x00000000
       33225000	      3321	80003d1c	00f5e3b3	or	x7,x11,x15	 x11:0x80009fc4 x15:0x80000b04  x7=0x80009fc4
       33235000	      3322	80003d20	01a49a63	bne	x9,x26,80003d34	  x9:0x80001c63 x26:0x80000af8
       33245000	      3323	00000000	00000013	addi	x0,x0,0	  x0:0x00000000
       33255000	      3324	80003d30	00000013	addi	x0,x0,0	  x0:0x00000000
       33265000	      3325	80003d34	0581d663	bge	x3,x24,80003d80	  x3:0x80003c9c x24:0x80003cc0
       33275000	      3326	80003d38	011e0733	add	x14,x28,x17	 x28:0x000006b4 x17:0x023c0000 x14=0x023c06b4
       33285000	      3327	80003d3c	01c07333	and	x6,x0,x28	  x0:0x00000000 x28:0x000006b4  x6=0x00000000
       33295000	      3328	80003d40	01bc1f13	slli	x30,x24,0x1b	 x24:0x80003cc0 x30=0x00000000
       33305000	      3329	80003d44	00000013	addi	x0,x0,0	  x0:0x00000000
       33315000	      3330	80003d48	00093633	sltu	x12,x18,x0	 x18:0x00000000  x0:0x00000000 x12=0x00000000
       33325000	      3331	80003d4c	00c58c63	beq	x11,x12,80003d64	 x11:0x80009fc4 x12:0x00000000
       33335000	      3332	80003d50	038a5063	bge	x20,x24,80003d70	 x20:0x80000db8 x24:0x80003cc0
       33345000	      3333	80003d54	00959533	sll	x10,x11,x9	 x11:0x80009fc4  x9:0x80001c63 x10=0x0004fe20
       33355000	      3334	80003d58	8e3bad13	slti	x26,x23,-1821	 x23:0x40000000 x26=0x00000000
       33365000	      3335	80003d5c	74f7f493	andi	x9,x15,1871	 x15:0x80000b04  x9=0x00000304
       33375000	      3336	80003d60	008d0e63	beq	x26,x8,80003d7c	 x26:0x00000000  x8:0x80003cdc
       33385000	      3337	80003d64	059a1863	bne	x20,x25,80003db4	 x20:0x80000db8 x25:0x80003d14
       33395000	      3338	00000000	00000013	addi	x0,x0,0	  x0:0x00000000
       33405000	      3339	80003db0	00000013	addi	x0,x0,0	  x0:0x00000000
       33415000	      3340	80003db4	04d6d463	bge	x13,x13,80003dfc	 x13:0x00000000 x13:0x00000000
       33425000	      3341	00000000	00000013	addi	x0,x0,0	  x0:0x00000000
       33435000	      3342	80003df8	00000013	addi	x0,x0,0	  x0:0x00000000
       33445000	      3343	80003dfc	013d9c13	slli	x24,x27,0x13	 x27:0x00000001 x24=0x00080000
       33455000	      3344	80003e00	03ef0663	beq	x30,x30,80003e2c	 x30:0x00000000 x30:0x00000000
       33465000	      3345	00000000	00000013	addi	x0,x0,0	  x0:0x00000000
       33475000	      3346	80003e28	00000013	addi	x0,x0,0	  x0:0x00000000
       33485000	      3347	80003e2c	03b35663	bge	x6,x27,80003e58	  x6:0x00000000 x27:0x00000001
       33495000	      3348	80003e30	01dbe6b3	or	x13,x23,x29	 x23:0x40000000 x29:0x00000000 x13=0x40000000
       33505000	      3349	80003e34	01f74463	blt	x14,x31,80003e3c	 x14:0x023c06b4 x31:0x80003cfc
       33515000	      3350	80003e38	00570133	add	x2,x14,x5	 x14:0x023c06b4  x5:0x80003cb8  x2=0x823c436c
       33525000	      3351	80003e3c	00a3f333	and	x6,x7,x10	  x7:0x80009fc4 x10:0x0004fe20  x6=0x00009e00
       33535000	      3352	80003e40	739ee913	ori	x18,x29,1849	 x29:0x00000000 x18=0x00000739
       33545000	      3353	80003e44	7db03a13	sltiu	x20,x0,2011	  x0:0x00000000 x20=0x00000001
       33555000	      3354	80003e48	e09fad13	slti	x26,x31,-503	 x31:0x80003cfc x26=0x00000001
       33565000	      3355	80003e4c	24726c17	auipc	x24,0x24726	 x24=0xa4729e48
       33575000	      3356	80003e50	0102f7b3	and	x15,x5,x16	  x5:0x80003cb8 x16:0x00000000 x15=0x00000000
       33585000	      3357	80003e54	156432b7	lui	x5,0x15643	  x5=0x15643000
       33595000	      3358	80003e58	01b49b33	sll	x22,x9,x27	  x9:0x00000304 x27:0x00000001 x22=0x00000608
       33605000	      3359	80003e5c	d9cb9fb7	lui	x31,0xd9cb9	 x31=0xd9cb9000
       33615000	      3360	80003e60	01a28bb3	add	x23,x5,x26	  x5:0x15643000 x26:0x00000001 x23=0x15643001
       33625000	      3361	80003e64	00c54933	xor	x18,x10,x12	 x10:0x0004fe20 x12:0x00000000 x18=0x0004fe20
       33635000	      3362	80003e68	41c15033	sra	x0,x2,x28	  x2:0x823c436c x28:0x000006b4
       33645000	      3363	80003e6c	a5f02713	slti	x14,x0,-1441	  x0:0x00000000 x14=0x00000000
       33655000	      3364	80003e70	01ed14b3	sll	x9,x26,x30	 x26:0x00000001 x30:0x00000000  x9=0x00000001
       33665000	      3365	80003e74	4006d713	srai	x14,x13,0x0	 x13:0x40000000 x14=0x40000000
       33675000	      3366	80003e78	003fa3b3	slt	x7,x31,x3	 x31:0xd9cb9000  x3:0x80003c9c  x7=0x00000000
       33685000	      3367	80003e7c	019486b3	add	x13,x9,x25	  x9:0x00000001 x25:0x80003d14 x13=0x80003d15
       33695000	      3368	80003e80	9109f693	andi	x13,x19,-1776	 x19:0x80009f3c x13=0x80009910
       33705000	      3369	80003e84	000907b3	add	x15,x18,x0	 x18:0x0004fe20  x0:0x00000000 x15=0x0004fe20
       33715000	      3370	80003e88	0084d2b3	srl	x5,x9,x8	  x9:0x00000001  x8:0x80003cdc  x5=0x00000000
       33725000	      3371	80003e8c	60c0da37	lui	x20,0x60c0d	 x20=0x60c0d000
       33735000	      3372	80003e90	006162b3	or	x5,x2,x6	  x2:0x823c436c  x6:0x00009e00  x5=0x823cdf6c
       33745000	      3373	80003e94	03c00063	beq	x0,x28,80003eb4	  x0:0x00000000 x28:0x000006b4
       33755000	      3374	80003e98	01d69a63	bne	x13,x29,80003eac	 x13:0x80009910 x29:0x00000000
       33765000	      3375	00000000	00000013	addi	x0,x0,0	  x0:0x00000000
       33775000	      3376	80003ea8	00000013	addi	x0,x0,0	  x0:0x00000000
       33785000	      3377	80003eac	e5976837	lui	x16,0xe5976	 x16=0xe5976000
       33795000	      3378	80003eb0	403dd233	sra	x4,x27,x3	 x27:0x00000001  x3:0x80003c9c  x4=0x00000000
       33805000	      3379	80003eb4	01c21433	sll	x8,x4,x28	  x4:0x00000000 x28:0x000006b4  x8=0x00000000
       33815000	      3380	80003eb8	f636fc93	andi	x25,x13,-157	 x13:0x80009910 x25=0x80009900
       33825000	      3381	80003ebc	01e19213	slli	x4,x3,0x1e	  x3:0x80003c9c  x4=0x00000000
       33835000	      3382	80003ec0	41bd5b93	srai	x23,x26,0x1b	 x26:0x00000001 x23=0x00000000
       33845000	      3383	80003ec4	006dd693	srli	x13,x27,0x6	 x27:0x00000001 x13=0x00000000
       33855000	      3384	80003ec8	3bad6817	auipc	x16,0x3bad6	 x16=0xbbad9ec4
       33865000	      3385	80003ecc	403f02b3	sub	x5,x30,x3	 x30:0x00000000  x3:0x80003c9c  x5=0x7fffc364
       33875000	      3386	80003ed0	008d7f33	and	x30,x26,x8	 x26:0x00000001  x8:0x00000000 x30=0x00000000
       33885000	      3387	80003ed4	00731893	slli	x17,x6,0x7	  x6:0x00009e00 x17=0x004f0000
       33895000	      3388	80003ed8	000b48b3	xor	x17,x22,x0	 x22:0x00000608  x0:0x00000000 x17=0x00000608
       33905000	      3389	80003edc	590efb93	andi	x23,x29,1424	 x29:0x00000000 x23=0x00000000
       33915000	      3390	80003ee0	0008d833	srl	x16,x17,x0	 x17:0x00000608  x0:0x00000000 x16=0x00000608
       33925000	      3391	80003ee4	01cb9433	sll	x8,x23,x28	 x23:0x00000000 x28:0x000006b4  x8=0x00000000
       33935000	      3392	80003ee8	f5723893	sltiu	x17,x4,-169	  x4:0x00000000 x17=0x00000001
       33945000	      3393	80003eec	017707b3	add	x15,x14,x23	 x14:0x40000000 x23:0x00000000 x15=0x40000000
       33955000	      3394	80003ef0	01cb5513	srli	x10,x22,0x1c	 x22:0x00000608 x10=0x00000000
       33965000	      3395	80003ef4	01555b33	srl	x22,x10,x21	 x10:0x00000000 x21:0x80003d0c x22=0x00000000
       33975000	      3396	80003ef8	6cab2917	auipc	x18,0x6cab2	 x18=0xecab5ef4
       33985000	      3397	80003efc	00d7d263	bge	x15,x13,80003f00	 x15:0x40000000 x13:0x00000000
       33995000	      3398	00000000	00000013	addi	x0,x0,0	  x0:0x00000000
       34005000	      3399	80003efc	00000013	addi	x0,x0,0	  x0:0x00000000
       34015000	      3400	80003f00	005fc3b3	xor	x7,x31,x5	 x31:0xd9cb9000  x5:0x7fffc364  x7=0xa6345364
       34025000	      3401	80003f04	015d7463	bgeu	x26,x21,80003f0c	 x26:0x00000001 x21:0x80003d0c
       34035000	      3402	80003f08	41b280b3	sub	x1,x5,x27	  x5:0x7fffc364 x27:0x00000001  x1=0x7fffc363
       34045000	      3403	80003f0c	00c41263	bne	x8,x12,80003f10	  x8:0x00000000 x12:0x00000000
       34055000	      3404	80003f10	9a36e197	auipc	x3,0x9a36e	  x3=0x1a371f0c
       34065000	      3405	80003f14	4bc1c213	xori	x4,x3,1212	  x3:0x1a371f0c  x4=0x1a371bb0
       34075000	      3406	80003f18	0049a303	lw	x6,4(x19)	 x19:0x80009f3c  x6=0x80001b10 PA:0x80009f40
       34085000	      3407	80003f1c	012a87b3	add	x15,x21,x18	 x21:0x80003d0c x18:0xecab5ef4 x15=0x6cab9c00
       34095000	      3408	80003f20	00c98993	addi	x19,x19,12	 x19:0x80009f3c x19=0x80009f48
       34105000	      3409	80003f24	41688f33	sub	x30,x17,x22	 x17:0x00000001 x22:0x00000000 x30=0x00000001
       34115000	      3410	80003f28	00038833	add	x16,x7,x0	  x7:0xa6345364  x0:0x00000000 x16=0xa6345364
       34125000	      3411	80003f2c	009f0533	add	x10,x30,x9	 x30:0x00000001  x9:0x00000001 x10=0x00000002
       34135000	      3412	80003f30	41b104b3	sub	x9,x2,x27	  x2:0x823c436c x27:0x00000001  x9=0x823c436b
       34145000	      3413	80003f34	014c9d33	sll	x26,x25,x20	 x25:0x80009900 x20:0x60c0d000 x26=0x80009900
       34155000	      3414	80003f38	00030793	addi	x15,x6,0	  x6:0x80001b10 x15=0x80001b10
       34165000	      3415	80003f3c	000787e7	jalr	x15,x15,0	 x15:0x80001b10 x15=0x80003f3c
       34175000	      3416	00000000	00000013	addi	x0,x0,0	  x0:0x00000000
       34185000	      3417	80001b10	00000013	addi	x0,x0,0	  x0:0x00000000
       34195000	      3418	80001b14	f9088393	addi	x7,x17,-112	 x17:0x00000001  x7=0xffffff91
       34205000	      3419	80001b18	00270cb3	add	x25,x14,x2	 x14:0x40000000  x2:0x823c436c x25=0xc23c436c
       34215000	      3420	80001b1c	039f0263	beq	x30,x25,80001b40	 x30:0x00000001 x25:0xc23c436c
       34225000	      3421	80001b20	00000033	add	x0,x0,x0	  x0:0x00000000  x0:0x00000000
       34235000	      3422	80001b24	004c4033	xor	x0,x24,x4	 x24:0xa4729e48  x4:0x1a371bb0
       34245000	      3423	80001b28	002e1e63	bne	x28,x2,80001b44	 x28:0x000006b4  x2:0x823c436c
       34255000	      3424	00000000	00000013	addi	x0,x0,0	  x0:0x00000000
       34265000	      3425	80001b40	00000013	addi	x0,x0,0	  x0:0x00000000
       34275000	      3426	80001b44	d29aed17	auipc	x26,0xd29ae	 x26=0x529afb40
       34285000	      3427	80001b48	0165cc63	blt	x11,x22,80001b60	 x11:0x80009fc4 x22:0x00000000
       34295000	      3428	00000000	00000013	addi	x0,x0,0	  x0:0x00000000
       34305000	      3429	80001b5c	00000013	addi	x0,x0,0	  x0:0x00000000
       34315000	      3430	80001b60	0010e8b3	or	x17,x1,x1	  x1:0x7fffc363  x1:0x7fffc363 x17=0x7fffc363
       34325000	      3431	80001b64	014c0433	add	x8,x24,x20	 x24:0xa4729e48 x20:0x60c0d000  x8=0x05336e48
       34335000	      3432	80001b68	01571d13	slli	x26,x14,0x15	 x14:0x40000000 x26=0x00000000
       34345000	      3433	80001b6c	01099293	slli	x5,x19,0x10	 x19:0x80009f48  x5=0x9f480000
       34355000	      3434	80001b70	04024263	blt	x4,x0,80001bb4	  x4:0x1a371bb0  x0:0x00000000
       34365000	      3435	80001b74	40b1d013	srai	x0,x3,0xb	  x3:0x1a371f0c
       34375000	      3436	80001b78	00799133	sll	x2,x19,x7	 x19:0x80009f48  x7:0xffffff91  x2=0x3e900000
       34385000	      3437	80001b7c	00d9f1b3	and	x3,x19,x13	 x19:0x80009f48 x13:0x00000000  x3=0x00000000
       34395000	      3438	80001b80	01125a63	bge	x4,x17,80001b94	  x4:0x1a371bb0 x17:0x7fffc363
       34405000	      3439	80001b84	029e7863	bgeu	x28,x9,80001bb4	 x28:0x000006b4  x9:0x823c436b
       34415000	      3440	80001b88	8a410813	addi	x16,x2,-1884	  x2:0x3e900000 x16=0x3e8ff8a4
       34425000	      3441	80001b8c	01b09a63	bne	x1,x27,80001ba0	  x1:0x7fffc363 x27:0x00000001
       34435000	      3442	00000000	00000013	addi	x0,x0,0	  x0:0x00000000
       34445000	      3443	80001b9c	00000013	addi	x0,x0,0	  x0:0x00000000
       34455000	      3444	80001ba0	27c78c13	addi	x24,x15,636	 x15:0x80003f3c x24=0x800041b8
       34465000	      3445	80001ba4	007eb633	sltu	x12,x29,x7	 x29:0x00000000  x7:0xffffff91 x12=0x00000001
       34475000	      3446	80001ba8	751d4393	xori	x7,x26,1873	 x26:0x00000000  x7=0x00000751
       34485000	      3447	80001bac	04734663	blt	x6,x7,80001bf8	  x6:0x80001b10  x7:0x00000751
       34495000	      3448	00000000	00000013	addi	x0,x0,0	  x0:0x00000000
       34505000	      3449	80001bf4	00000013	addi	x0,x0,0	  x0:0x00000000
       34515000	      3450	80001bf8	40de8833	sub	x16,x29,x13	 x29:0x00000000 x13:0x00000000 x16=0x00000000
       34525000	      3451	80001bfc	0019fcb3	and	x25,x19,x1	 x19:0x80009f48  x1:0x7fffc363 x25=0x00008340
       34535000	      3452	80001c00	04e97263	bgeu	x18,x14,80001c44	 x18:0xecab5ef4 x14:0x40000000
       34545000	      3453	00000000	00000013	addi	x0,x0,0	  x0:0x00000000
       34555000	      3454	80001c40	00000013	addi	x0,x0,0	  x0:0x00000000
       34565000	      3455	80001c44	00164033	xor	x0,x12,x1	 x12:0x00000001  x1:0x7fffc363
       34575000	      3456	80001c48	00099f13	slli	x30,x19,0x0	 x19:0x80009f48 x30=0x80009f48
       34585000	      3457	80001c4c	023eee63	bltu	x29,x3,80001c88	 x29:0x00000000  x3:0x00000000
       34595000	      3458	80001c50	01951033	sll	x0,x10,x25	 x10:0x00000002 x25:0x00008340
       34605000	      3459	80001c54	0328ec63	bltu	x17,x18,80001c8c	 x17:0x7fffc363 x18:0xecab5ef4
       34615000	      3460	00000000	00000013	addi	x0,x0,0	  x0:0x00000000
       34625000	      3461	80001c88	00000013	addi	x0,x0,0	  x0:0x00000000
       34635000	      3462	80001c8c	8881a193	slti	x3,x3,-1912	  x3:0x00000000  x3=0x00000000
       34645000	      3463	80001c90	01e5b7b3	sltu	x15,x11,x30	 x11:0x80009fc4 x30:0x80009f48 x15=0x00000000
       34655000	      3464	80001c94	40188cb3	sub	x25,x17,x1	 x17:0x7fffc363  x1:0x7fffc363 x25=0x00000000
       34665000	      3465	80001c98	413a8ab3	sub	x21,x21,x19	 x21:0x80003d0c x19:0x80009f48 x21=0xffff9dc4
       34675000	      3466	80001c9c	fe75ec13	ori	x24,x11,-25	 x11:0x80009fc4 x24=0xffffffe7
       34685000	      3467	80001ca0	000e8c33	add	x24,x29,x0	 x29:0x00000000  x0:0x00000000 x24=0x00000000
       34695000	      3468	80001ca4	012f9cb3	sll	x25,x31,x18	 x31:0xd9cb9000 x18:0xecab5ef4 x25=0x00000000
       34705000	      3469	80001ca8	01d95133	srl	x2,x18,x29	 x18:0xecab5ef4 x29:0x00000000  x2=0xecab5ef4
       34715000	      3470	80001cac	41e60033	sub	x0,x12,x30	 x12:0x00000001 x30:0x80009f48
       34725000	      3471	80001cb0	40428133	sub	x2,x5,x4	  x5:0x9f480000  x4:0x1a371bb0  x2=0x8510e450
       34735000	      3472	80001cb4	01a4f7b3	and	x15,x9,x26	  x9:0x823c436b x26:0x00000000 x15=0x00000000
       34745000	      3473	80001cb8	01a5dc33	srl	x24,x11,x26	 x11:0x80009fc4 x26:0x00000000 x24=0x80009fc4
       34755000	      3474	80001cbc	0174f1b3	and	x3,x9,x23	  x9:0x823c436b x23:0x00000000  x3=0x00000000
       34765000	      3475	80001cc0	024a9063	bne	x21,x4,80001ce0	 x21:0xffff9dc4  x4:0x1a371bb0
       34775000	      3476	00000000	00000013	addi	x0,x0,0	  x0:0x00000000
       34785000	      3477	80001cdc	00000013	addi	x0,x0,0	  x0:0x00000000
       34795000	      3478	80001ce0	d61ce8b7	lui	x17,0xd61ce	 x17=0xd61ce000
       34805000	      3479	80001ce4	d1393c93	sltiu	x25,x18,-749	 x18:0xecab5ef4 x25=0x00000001
       34815000	      3480	80001ce8	40f7d613	srai	x12,x15,0xf	 x15:0x00000000 x12=0x00000000
       34825000	      3481	80001cec	41cb5f33	sra	x30,x22,x28	 x22:0x00000000 x28:0x000006b4 x30=0x00000000
       34835000	      3482	80001cf0	62b93093	sltiu	x1,x18,1579	 x18:0xecab5ef4  x1=0x00000000
       34845000	      3483	80001cf4	009f9313	slli	x6,x31,0x9	 x31:0xd9cb9000  x6=0x97200000
       34855000	      3484	80001cf8	cab6af37	lui	x30,0xcab6a	 x30=0xcab6a000
       34865000	      3485	80001cfc	000c8e63	beq	x25,x0,80001d18	 x25:0x00000001  x0:0x00000000
       34875000	      3486	80001d00	019e6f33	or	x30,x28,x25	 x28:0x000006b4 x25:0x00000001 x30=0x000006b5
       34885000	      3487	80001d04	00b44b33	xor	x22,x8,x11	  x8:0x05336e48 x11:0x80009fc4 x22=0x8533f18c
       34895000	      3488	80001d08	84f60a13	addi	x20,x12,-1969	 x12:0x00000000 x20=0xfffff84f
       34905000	      3489	80001d0c	43bb8c93	addi	x25,x23,1083	 x23:0x00000000 x25=0x0000043b
       34915000	      3490	80001d10	004567b3	or	x15,x10,x4	 x10:0x00000002  x4:0x1a371bb0 x15=0x1a371bb2
       34925000	      3491	80001d14	40005413	srai	x8,x0,0x0	  x0:0x00000000  x8=0x00000000
       34935000	      3492	80001d18	00f5dc33	srl	x24,x11,x15	 x11:0x80009fc4 x15:0x1a371bb2 x24=0x00002000
       34945000	      3493	80001d1c	00ad5d13	srli	x26,x26,0xa	 x26:0x00000000 x26=0x00000000
       34955000	      3494	80001d20	00000013	addi	x0,x0,0	  x0:0x00000000
       34965000	      3495	80001d24	007a1813	slli	x16,x20,0x7	 x20:0xfffff84f x16=0xfffc2780
       34975000	      3496	80001d28	000034b3	sltu	x9,x0,x0	  x0:0x00000000  x0:0x00000000  x9=0x00000000
       34985000	      3497	80001d2c	01ad7433	and	x8,x26,x26	 x26:0x00000000 x26:0x00000000  x8=0x00000000
       34995000	      3498	80001d30	411cdcb3	sra	x25,x25,x17	 x25:0x0000043b x17:0xd61ce000 x25=0x0000043b
       35005000	      3499	80001d34	012963b3	or	x7,x18,x18	 x18:0xecab5ef4 x18:0xecab5ef4  x7=0xecab5ef4
       35015000	      3500	80001d38	01e57e33	and	x28,x10,x30	 x10:0x00000002 x30:0x000006b5 x28=0x00000000
       35025000	      3501	80001d3c	028cc263	blt	x25,x8,80001d60	 x25:0x0000043b  x8:0x00000000
       35035000	      3502	80001d40	b4a6ed37	lui	x26,0xb4a6e	 x26=0xb4a6e000
       35045000	      3503	80001d44	03a07c63	bgeu	x0,x26,80001d7c	  x0:0x00000000 x26:0xb4a6e000
       35055000	      3504	80001d48	002e1e33	sll	x28,x28,x2	 x28:0x00000000  x2:0x8510e450 x28=0x00000000
       35065000	      3505	80001d4c	5b036413	ori	x8,x6,1456	  x6:0x97200000  x8=0x972005b0
       35075000	      3506	80001d50	0004ee63	bltu	x9,x0,80001d6c	  x9:0x00000000  x0:0x00000000
       35085000	      3507	80001d54	0144f8b3	and	x17,x9,x20	  x9:0x00000000 x20:0xfffff84f x17=0x00000000
       35095000	      3508	80001d58	b81bad13	slti	x26,x23,-1151	 x23:0x00000000 x26=0x00000000
       35105000	      3509	80001d5c	01fa9f33	sll	x30,x21,x31	 x21:0xffff9dc4 x31:0xd9cb9000 x30=0xffff9dc4
       35115000	      3510	80001d60	f5fb6893	ori	x17,x22,-161	 x22:0x8533f18c x17=0xffffffdf
       35125000	      3511	80001d64	01419493	slli	x9,x3,0x14	  x3:0x00000000  x9=0x00000000
       35135000	      3512	80001d68	0127fbb3	and	x23,x15,x18	 x15:0x1a371bb2 x18:0xecab5ef4 x23=0x08231ab0
       35145000	      3513	80001d6c	004aec33	or	x24,x21,x4	 x21:0xffff9dc4  x4:0x1a371bb0 x24=0xffff9ff4
       35155000	      3514	80001d70	65f1f713	andi	x14,x3,1631	  x3:0x00000000 x14=0x00000000
       35165000	      3515	80001d74	00b31c13	slli	x24,x6,0xb	  x6:0x97200000 x24=0x00000000
       35175000	      3516	80001d78	01c06463	bltu	x0,x28,80001d80	  x0:0x00000000 x28:0x00000000
       35185000	      3517	80001d7c	03949863	bne	x9,x25,80001dac	  x9:0x00000000 x25:0x0000043b
       35195000	      3518	00000000	00000013	addi	x0,x0,0	  x0:0x00000000
       35205000	      3519	80001da8	00000013	addi	x0,x0,0	  x0:0x00000000
       35215000	      3520	80001dac	020fc663	blt	x31,x0,80001dd8	 x31:0xd9cb9000  x0:0x00000000
       35225000	      3521	00000000	00000013	addi	x0,x0,0	  x0:0x00000000
       35235000	      3522	80001dd4	00000013	addi	x0,x0,0	  x0:0x00000000
       35245000	      3523	80001dd8	00000013	addi	x0,x0,0	  x0:0x00000000
       35255000	      3524	80001ddc	16397893	andi	x17,x18,355	 x18:0xecab5ef4 x17=0x00000060
       35265000	      3525	80001de0	01f228b3	slt	x17,x4,x31	  x4:0x1a371bb0 x31:0xd9cb9000 x17=0x00000000
       35275000	      3526	80001de4	e010ce37	lui	x28,0xe010c	 x28=0xe010c000
       35285000	      3527	80001de8	c5120f93	addi	x31,x4,-943	  x4:0x1a371bb0 x31=0x1a371801
       35295000	      3528	80001dec	00743133	sltu	x2,x8,x7	  x8:0x972005b0  x7:0xecab5ef4  x2=0x00000001
       35305000	      3529	80001df0	03717863	bgeu	x2,x23,80001e20	  x2:0x00000001 x23:0x08231ab0
       35315000	      3530	80001df4	055d4263	blt	x26,x21,80001e38	 x26:0x00000000 x21:0xffff9dc4
       35325000	      3531	80001df8	01bc5cb3	srl	x25,x24,x27	 x24:0x00000000 x27:0x00000001 x25=0x00000000
       35335000	      3532	80001dfc	009accb3	xor	x25,x21,x9	 x21:0xffff9dc4  x9:0x00000000 x25=0xffff9dc4
       35345000	      3533	80001e00	41e202b3	sub	x5,x4,x30	  x4:0x1a371bb0 x30:0xffff9dc4  x5=0x1a377dec
       35355000	      3534	80001e04	fd6fec93	ori	x25,x31,-42	 x31:0x1a371801 x25=0xffffffd7
       35365000	      3535	80001e08	002fd233	srl	x4,x31,x2	 x31:0x1a371801  x2:0x00000001  x4=0x0d1b8c00
       35375000	      3536	80001e0c	4bb42513	slti	x10,x8,1211	  x8:0x972005b0 x10=0x00000001
       35385000	      3537	80001e10	0197b733	sltu	x14,x15,x25	 x15:0x1a371bb2 x25:0xffffffd7 x14=0x00000001
       35395000	      3538	80001e14	01a95433	srl	x8,x18,x26	 x18:0xecab5ef4 x26:0x00000000  x8=0xecab5ef4
       35405000	      3539	80001e18	056d5663	bge	x26,x22,80001e64	 x26:0x00000000 x22:0x8533f18c
       35415000	      3540	00000000	00000013	addi	x0,x0,0	  x0:0x00000000
       35425000	      3541	80001e60	00000013	addi	x0,x0,0	  x0:0x00000000
       35435000	      3542	80001e64	01a227b3	slt	x15,x4,x26	  x4:0x0d1b8c00 x26:0x00000000 x15=0x00000000
       35445000	      3543	80001e68	00015333	srl	x6,x2,x0	  x2:0x00000001  x0:0x00000000  x6=0x00000001
       35455000	      3544	80001e6c	01219db3	sll	x27,x3,x18	  x3:0x00000000 x18:0xecab5ef4 x27=0x00000000
       35465000	      3545	80001e70	01ed72b3	and	x5,x26,x30	 x26:0x00000000 x30:0xffff9dc4  x5=0x00000000
       35475000	      3546	80001e74	00484a63	blt	x16,x4,80001e88	 x16:0xfffc2780  x4:0x0d1b8c00
       35485000	      3547	00000000	00000013	addi	x0,x0,0	  x0:0x00000000
       35495000	      3548	80001e84	00000013	addi	x0,x0,0	  x0:0x00000000
       35505000	      3549	80001e88	4d5ded93	ori	x27,x27,1237	 x27:0x00000000 x27=0x000004d5
       35515000	      3550	80001e8c	00de7cb3	and	x25,x28,x13	 x28:0xe010c000 x13:0x00000000 x25=0x00000000
       35525000	      3551	80001e90	01dee633	or	x12,x29,x29	 x29:0x00000000 x29:0x00000000 x12=0x00000000
       35535000	      3552	80001e94	a7a87f13	andi	x30,x16,-1414	 x16:0xfffc2780 x30=0xfffc2200
       35545000	      3553	80001e98	001492b3	sll	x5,x9,x1	  x9:0x00000000  x1:0x00000000  x5=0x00000000
       35555000	      3554	80001e9c	00000013	addi	x0,x0,0	  x0:0x00000000
       35565000	      3555	80001ea0	f72ce793	ori	x15,x25,-142	 x25:0x00000000 x15=0xffffff72
       35575000	      3556	80001ea4	41970cb3	sub	x25,x14,x25	 x14:0x00000001 x25:0x00000000 x25=0x00000001
       35585000	      3557	80001ea8	02f70063	beq	x14,x15,80001ec8	 x14:0x00000001 x15:0xffffff72
       35595000	      3558	80001eac	62303b93	sltiu	x23,x0,1571	  x0:0x00000000 x23=0x00000001
       35605000	      3559	80001eb0	007a9cb3	sll	x25,x21,x7	 x21:0xffff9dc4  x7:0xecab5ef4 x25=0xdc400000
       35615000	      3560	80001eb4	b673b017	auipc	x0,0xb673b	
       35625000	      3561	80001eb8	003b61b3	or	x3,x22,x3	 x22:0x8533f18c  x3:0x00000000  x3=0x8533f18c
       35635000	      3562	80001ebc	1c640413	addi	x8,x8,454	  x8:0xecab5ef4  x8=0xecab60ba
       35645000	      3563	80001ec0	00000013	addi	x0,x0,0	  x0:0x00000000
       35655000	      3564	80001ec4	01756033	or	x0,x10,x23	 x10:0x00000001 x23:0x00000001
       35665000	      3565	80001ec8	00000013	addi	x0,x0,0	  x0:0x00000000
       35675000	      3566	80001ecc	0168b4b3	sltu	x9,x17,x22	 x17:0x00000000 x22:0x8533f18c  x9=0x00000001
       35685000	      3567	80001ed0	01f0c463	blt	x1,x31,80001ed8	  x1:0x00000000 x31:0x1a371801
       35695000	      3568	00000000	00000013	addi	x0,x0,0	  x0:0x00000000
       35705000	      3569	80001ed4	00000013	addi	x0,x0,0	  x0:0x00000000
       35715000	      3570	80001ed8	00715c13	srli	x24,x2,0x7	  x2:0x00000001 x24=0x00000000
       35725000	      3571	80001edc	00cab833	sltu	x16,x21,x12	 x21:0xffff9dc4 x12:0x00000000 x16=0x00000000
       35735000	      3572	80001ee0	41ab57b3	sra	x15,x22,x26	 x22:0x8533f18c x26:0x00000000 x15=0x8533f18c
       35745000	      3573	80001ee4	00ce4a63	blt	x28,x12,80001ef8	 x28:0xe010c000 x12:0x00000000
       35755000	      3574	00000000	00000013	addi	x0,x0,0	  x0:0x00000000
       35765000	      3575	80001ef4	00000013	addi	x0,x0,0	  x0:0x00000000
       35775000	      3576	80001ef8	00225793	srli	x15,x4,0x2	  x4:0x0d1b8c00 x15=0x0346e300
       35785000	      3577	80001efc	07ad9e63	bne	x27,x26,80001f78	 x27:0x000004d5 x26:0x00000000
       35795000	      3578	00000000	00000013	addi	x0,x0,0	  x0:0x00000000
       35805000	      3579	80001f74	00000013	addi	x0,x0,0	  x0:0x00000000
       35815000	      3580	80001f78	64cb7e17	auipc	x28,0x64cb7	 x28=0xe4cb8f74
       35825000	      3581	80001f7c	00685693	srli	x13,x16,0x6	 x16:0x00000000 x13=0x00000000
       35835000	      3582	80001f80	00c32b33	slt	x22,x6,x12	  x6:0x00000001 x12:0x00000000 x22=0x00000000
       35845000	      3583	80001f84	019ffcb3	and	x25,x31,x25	 x31:0x1a371801 x25:0xdc400000 x25=0x18000000
       35855000	      3584	80001f88	03b4e263	bltu	x9,x27,80001fac	  x9:0x00000001 x27:0x000004d5
       35865000	      3585	00000000	00000013	addi	x0,x0,0	  x0:0x00000000
       35875000	      3586	80001fa8	00000013	addi	x0,x0,0	  x0:0x00000000
       35885000	      3587	80001fac	20928213	addi	x4,x5,521	  x5:0x00000000  x4=0x00000209
       35895000	      3588	80001fb0	bcd0ea13	ori	x20,x1,-1075	  x1:0x00000000 x20=0xfffffbcd
       35905000	      3589	80001fb4	006901b3	add	x3,x18,x6	 x18:0xecab5ef4  x6:0x00000001  x3=0xecab5ef5
       35915000	      3590	80001fb8	01621033	sll	x0,x4,x22	  x4:0x00000209 x22:0x00000000
       35925000	      3591	80001fbc	011250b3	srl	x1,x4,x17	  x4:0x00000209 x17:0x00000000  x1=0x00000209
       35935000	      3592	80001fc0	0282d063	bge	x5,x8,80001fe0	  x5:0x00000000  x8:0xecab60ba
       35945000	      3593	00000000	00000013	addi	x0,x0,0	  x0:0x00000000
       35955000	      3594	80001fdc	00000013	addi	x0,x0,0	  x0:0x00000000
       35965000	      3595	80001fe0	01e82db3	slt	x27,x16,x30	 x16:0x00000000 x30:0xfffc2200 x27=0x00000000
       35975000	      3596	80001fe4	00a7b533	sltu	x10,x15,x10	 x15:0x0346e300 x10:0x00000001 x10=0x00000000
       35985000	      3597	80001fe8	50f0e313	ori	x6,x1,1295	  x1:0x00000209  x6=0x0000070f
       35995000	      3598	80001fec	7d687493	andi	x9,x16,2006	 x16:0x00000000  x9=0x00000000
       36005000	      3599	80001ff0	03c49263	bne	x9,x28,80002014	  x9:0x00000000 x28:0xe4cb8f74
       36015000	      3600	00000000	00000013	addi	x0,x0,0	  x0:0x00000000
       36025000	      3601	80002010	00000013	addi	x0,x0,0	  x0:0x00000000
       36035000	      3602	80002014	4035da93	srai	x21,x11,0x3	 x11:0x80009fc4 x21=0xf00013f8
       36045000	      3603	80002018	41af5db3	sra	x27,x30,x26	 x30:0xfffc2200 x26:0x00000000 x27=0xfffc2200
       36055000	      3604	8000201c	0244c263	blt	x9,x4,80002040	  x9:0x00000000  x4:0x00000209
       36065000	      3605	00000000	00000013	addi	x0,x0,0	  x0:0x00000000
       36075000	      3606	8000203c	00000013	addi	x0,x0,0	  x0:0x00000000
       36085000	      3607	80002040	04f46263	bltu	x8,x15,80002084	  x8:0xecab60ba x15:0x0346e300
       36095000	      3608	80002044	01e4f733	and	x14,x9,x30	  x9:0x00000000 x30:0xfffc2200 x14=0x00000000
       36105000	      3609	80002048	01f893b3	sll	x7,x17,x31	 x17:0x00000000 x31:0x1a371801  x7=0x00000000
       36115000	      3610	8000204c	01267a63	bgeu	x12,x18,80002060	 x12:0x00000000 x18:0xecab5ef4
       36125000	      3611	80002050	00a786b3	add	x13,x15,x10	 x15:0x0346e300 x10:0x00000000 x13=0x0346e300
       36135000	      3612	80002054	01dc06b3	add	x13,x24,x29	 x24:0x00000000 x29:0x00000000 x13=0x00000000
       36145000	      3613	80002058	ced6f4b7	lui	x9,0xced6f	  x9=0xced6f000
       36155000	      3614	8000205c	40410333	sub	x6,x2,x4	  x2:0x00000001  x4:0x00000209  x6=0xfffffdf8
       36165000	      3615	80002060	02935863	bge	x6,x9,80002090	  x6:0xfffffdf8  x9:0xced6f000
       36175000	      3616	00000000	00000013	addi	x0,x0,0	  x0:0x00000000
       36185000	      3617	8000208c	00000013	addi	x0,x0,0	  x0:0x00000000
       36195000	      3618	80002090	00dbadb3	slt	x27,x23,x13	 x23:0x00000001 x13:0x00000000 x27=0x00000000
       36205000	      3619	80002094	40ee8db3	sub	x27,x29,x14	 x29:0x00000000 x14:0x00000000 x27=0x00000000
       36215000	      3620	80002098	0029dd93	srli	x27,x19,0x2	 x19:0x80009f48 x27=0x200027d2
       36225000	      3621	8000209c	537e7e13	andi	x28,x28,1335	 x28:0xe4cb8f74 x28=0x00000534
       36235000	      3622	800020a0	00f42433	slt	x8,x8,x15	  x8:0xecab60ba x15:0x0346e300  x8=0x00000001
       36245000	      3623	800020a4	01e95863	bge	x18,x30,800020b4	 x18:0xecab5ef4 x30:0xfffc2200
       36255000	      3624	800020a8	41990833	sub	x16,x18,x25	 x18:0xecab5ef4 x25:0x18000000 x16=0xd4ab5ef4
       36265000	      3625	800020ac	02045c63	bge	x8,x0,800020e4	  x8:0x00000001  x0:0x00000000
       36275000	      3626	00000000	00000013	addi	x0,x0,0	  x0:0x00000000
       36285000	      3627	800020e0	00000013	addi	x0,x0,0	  x0:0x00000000
       36295000	      3628	800020e4	40288533	sub	x10,x17,x2	 x17:0x00000000  x2:0x00000001 x10=0xffffffff
       36305000	      3629	800020e8	03719863	bne	x3,x23,80002118	  x3:0xecab5ef5 x23:0x00000001
       36315000	      3630	00000000	00000013	addi	x0,x0,0	  x0:0x00000000
       36325000	      3631	80002114	00000013	addi	x0,x0,0	  x0:0x00000000
       36335000	      3632	80002118	40f85c13	srai	x24,x16,0xf	 x16:0xd4ab5ef4 x24=0xffffa956
       36345000	      3633	8000211c	48f3a337	lui	x6,0x48f3a	  x6=0x48f3a000
       36355000	      3634	80002120	02b7e063	bltu	x15,x11,80002140	 x15:0x0346e300 x11:0x80009fc4
       36365000	      3635	00000000	00000013	addi	x0,x0,0	  x0:0x00000000
       36375000	      3636	8000213c	00000013	addi	x0,x0,0	  x0:0x00000000
       36385000	      3637	80002140	00fc90b3	sll	x1,x25,x15	 x25:0x18000000 x15:0x0346e300  x1=0x18000000
       36395000	      3638	80002144	00711793	slli	x15,x2,0x7	  x2:0x00000001 x15=0x00000080
       36405000	      3639	80002148	abc6cd37	lui	x26,0xabc6c	 x26=0xabc6c000
       36415000	      3640	8000214c	06ecee63	bltu	x25,x14,800021c8	 x25:0x18000000 x14:0x00000000
       36425000	      3641	80002150	0380036f	jal	x6,80002150	  x6=0x80002150
       36435000	      3642	00000000	00000013	addi	x0,x0,0	  x0:0x00000000
       36445000	      3643	80002184	00000013	addi	x0,x0,0	  x0:0x00000000
       36455000	      3644	80002188	ff5ff0ef	jal	x1,80002188	  x1=0x80002188
       36465000	      3645	00000000	00000013	addi	x0,x0,0	  x0:0x00000000
       36475000	      3646	80002178	00000013	addi	x0,x0,0	  x0:0x00000000
       36485000	      3647	8000217c	fddff36f	jal	x6,8000217c	  x6=0x8000217c
       36495000	      3648	00000000	00000013	addi	x0,x0,0	  x0:0x00000000
       36505000	      3649	80002154	00000013	addi	x0,x0,0	  x0:0x00000000
       36515000	      3650	80002158	038000ef	jal	x1,80002158	  x1=0x80002158
       36525000	      3651	00000000	00000013	addi	x0,x0,0	  x0:0x00000000
       36535000	      3652	8000218c	00000013	addi	x0,x0,0	  x0:0x00000000
       36545000	      3653	80002190	fd5ff36f	jal	x6,80002190	  x6=0x80002190
       36555000	      3654	00000000	00000013	addi	x0,x0,0	  x0:0x00000000
       36565000	      3655	80002160	00000013	addi	x0,x0,0	  x0:0x00000000
       36575000	      3656	80002164	028000ef	jal	x1,80002164	  x1=0x80002164
       36585000	      3657	00000000	00000013	addi	x0,x0,0	  x0:0x00000000
       36595000	      3658	80002188	00000013	addi	x0,x0,0	  x0:0x00000000
       36605000	      3659	8000218c	ff5ff0ef	jal	x1,8000218c	  x1=0x8000218c
       36615000	      3660	00000000	00000013	addi	x0,x0,0	  x0:0x00000000
       36625000	      3661	8000217c	00000013	addi	x0,x0,0	  x0:0x00000000
       36635000	      3662	80002180	ff5ffbef	jal	x23,80002180	 x23=0x80002180
       36645000	      3663	00000000	00000013	addi	x0,x0,0	  x0:0x00000000
       36655000	      3664	80002170	00000013	addi	x0,x0,0	  x0:0x00000000
       36665000	      3665	80002174	030000ef	jal	x1,80002174	  x1=0x80002174
       36675000	      3666	00000000	00000013	addi	x0,x0,0	  x0:0x00000000
       36685000	      3667	800021a0	00000013	addi	x0,x0,0	  x0:0x00000000
       36695000	      3668	800021a4	fcdffc6f	jal	x24,800021a4	 x24=0x800021a4
       36705000	      3669	00000000	00000013	addi	x0,x0,0	  x0:0x00000000
       36715000	      3670	8000216c	00000013	addi	x0,x0,0	  x0:0x00000000
       36725000	      3671	80002170	ffdff36f	jal	x6,80002170	  x6=0x80002170
       36735000	      3672	00000000	00000013	addi	x0,x0,0	  x0:0x00000000
       36745000	      3673	80002168	00000013	addi	x0,x0,0	  x0:0x00000000
       36755000	      3674	8000216c	018000ef	jal	x1,8000216c	  x1=0x8000216c
       36765000	      3675	00000000	00000013	addi	x0,x0,0	  x0:0x00000000
       36775000	      3676	80002180	00000013	addi	x0,x0,0	  x0:0x00000000
       36785000	      3677	80002184	ff5ff36f	jal	x6,80002184	  x6=0x80002184
       36795000	      3678	00000000	00000013	addi	x0,x0,0	  x0:0x00000000
       36805000	      3679	80002174	00000013	addi	x0,x0,0	  x0:0x00000000
       36815000	      3680	80002178	01c000ef	jal	x1,80002178	  x1=0x80002178
       36825000	      3681	00000000	00000013	addi	x0,x0,0	  x0:0x00000000
       36835000	      3682	80002190	00000013	addi	x0,x0,0	  x0:0x00000000
       36845000	      3683	80002194	01400def	jal	x27,80002194	 x27=0x80002194
       36855000	      3684	00000000	00000013	addi	x0,x0,0	  x0:0x00000000
       36865000	      3685	800021a4	00000013	addi	x0,x0,0	  x0:0x00000000
       36875000	      3686	800021a8	ff1ff0ef	jal	x1,800021a8	  x1=0x800021a8
       36885000	      3687	00000000	00000013	addi	x0,x0,0	  x0:0x00000000
       36895000	      3688	80002194	00000013	addi	x0,x0,0	  x0:0x00000000
       36905000	      3689	80002198	008000ef	jal	x1,80002198	  x1=0x80002198
       36915000	      3690	00000000	00000013	addi	x0,x0,0	  x0:0x00000000
       36925000	      3691	8000219c	00000013	addi	x0,x0,0	  x0:0x00000000
       36935000	      3692	800021a0	fc9ff0ef	jal	x1,800021a0	  x1=0x800021a0
       36945000	      3693	00000000	00000013	addi	x0,x0,0	  x0:0x00000000
       36955000	      3694	80002164	00000013	addi	x0,x0,0	  x0:0x00000000
       36965000	      3695	80002168	ff9ff3ef	jal	x7,80002168	  x7=0x80002168
       36975000	      3696	00000000	00000013	addi	x0,x0,0	  x0:0x00000000
       36985000	      3697	8000215c	00000013	addi	x0,x0,0	  x0:0x00000000
       36995000	      3698	80002160	03c0026f	jal	x4,80002160	  x4=0x80002160
       37005000	      3699	00000000	00000013	addi	x0,x0,0	  x0:0x00000000
       37015000	      3700	80002198	00000013	addi	x0,x0,0	  x0:0x00000000
       37025000	      3701	8000219c	fb9ff0ef	jal	x1,8000219c	  x1=0x8000219c
       37035000	      3702	00000000	00000013	addi	x0,x0,0	  x0:0x00000000
       37045000	      3703	80002150	00000013	addi	x0,x0,0	  x0:0x00000000
       37055000	      3704	80002154	008000ef	jal	x1,80002154	  x1=0x80002154
       37065000	      3705	00000000	00000013	addi	x0,x0,0	  x0:0x00000000
       37075000	      3706	80002158	00000013	addi	x0,x0,0	  x0:0x00000000
       37085000	      3707	8000215c	050000ef	jal	x1,8000215c	  x1=0x8000215c
       37095000	      3708	00000000	00000013	addi	x0,x0,0	  x0:0x00000000
       37105000	      3709	800021a8	00000013	addi	x0,x0,0	  x0:0x00000000
       37115000	      3710	800021ac	00000013	addi	x0,x0,0	  x0:0x00000000
       37125000	      3711	800021b0	04ff9263	bne	x31,x15,800021f4	 x31:0x1a371801 x15:0x00000080
       37135000	      3712	00000000	00000013	addi	x0,x0,0	  x0:0x00000000
       37145000	      3713	800021f0	00000013	addi	x0,x0,0	  x0:0x00000000
       37155000	      3714	800021f4	0325c063	blt	x11,x18,80002214	 x11:0x80009fc4 x18:0xecab5ef4
       37165000	      3715	00000000	00000013	addi	x0,x0,0	  x0:0x00000000
       37175000	      3716	80002210	00000013	addi	x0,x0,0	  x0:0x00000000
       37185000	      3717	80002214	01ccee63	bltu	x25,x28,80002230	 x25:0x18000000 x28:0x00000534
       37195000	      3718	80002218	006a6db3	or	x27,x20,x6	 x20:0xfffffbcd  x6:0x80002184 x27=0xfffffbcd
       37205000	      3719	8000221c	01751393	slli	x7,x10,0x17	 x10:0xffffffff  x7=0xff800000
       37215000	      3720	80002220	017ea1b3	slt	x3,x29,x23	 x29:0x00000000 x23:0x80002180  x3=0x00000000
       37225000	      3721	80002224	019720b3	slt	x1,x14,x25	 x14:0x00000000 x25:0x18000000  x1=0x00000001
       37235000	      3722	80002228	01821cb3	sll	x25,x4,x24	  x4:0x80002160 x24:0x800021a4 x25=0x00021600
       37245000	      3723	8000222c	053b0263	beq	x22,x19,80002270	 x22:0x00000000 x19:0x80009f48
       37255000	      3724	80002230	6d7853b7	lui	x7,0x6d785	  x7=0x6d785000
       37265000	      3725	80002234	00000013	addi	x0,x0,0	  x0:0x00000000
       37275000	      3726	80002238	5075c893	xori	x17,x11,1287	 x11:0x80009fc4 x17=0x80009ac3
       37285000	      3727	8000223c	032dcc63	blt	x27,x18,80002274	 x27:0xfffffbcd x18:0xecab5ef4
       37295000	      3728	80002240	320e3813	sltiu	x16,x28,800	 x28:0x00000534 x16=0x00000000
       37305000	      3729	80002244	05e8d063	bge	x17,x30,80002284	 x17:0x80009ac3 x30:0xfffc2200
       37315000	      3730	80002248	017461b3	or	x3,x8,x23	  x8:0x00000001 x23:0x80002180  x3=0x80002181
       37325000	      3731	8000224c	911de517	auipc	x10,0x911de	 x10=0x111e0248
       37335000	      3732	80002250	01eced33	or	x26,x25,x30	 x25:0x00021600 x30:0xfffc2200 x26=0xfffe3600
       37345000	      3733	80002254	00651633	sll	x12,x10,x6	 x10:0x111e0248  x6:0x80002184 x12=0x11e02480
       37355000	      3734	80002258	0033d713	srli	x14,x7,0x3	  x7:0x6d785000 x14=0x0daf0a00
       37365000	      3735	8000225c	bcb44093	xori	x1,x8,-1077	  x8:0x00000001  x1=0xfffffbca
       37375000	      3736	80002260	00bfa633	slt	x12,x31,x11	 x31:0x1a371801 x11:0x80009fc4 x12=0x00000000
       37385000	      3737	80002264	010c76b3	and	x13,x24,x16	 x24:0x800021a4 x16:0x00000000 x13=0x00000000
       37395000	      3738	80002268	003c5493	srli	x9,x24,0x3	 x24:0x800021a4  x9=0x10000434
       37405000	      3739	8000226c	038a0263	beq	x20,x24,80002290	 x20:0xfffffbcd x24:0x800021a4
       37415000	      3740	80002270	024dde63	bge	x27,x4,800022ac	 x27:0xfffffbcd  x4:0x80002160
       37425000	      3741	00000000	00000013	addi	x0,x0,0	  x0:0x00000000
       37435000	      3742	800022a8	00000013	addi	x0,x0,0	  x0:0x00000000
       37445000	      3743	800022ac	05db0263	beq	x22,x29,800022f0	 x22:0x00000000 x29:0x00000000
       37455000	      3744	00000000	00000013	addi	x0,x0,0	  x0:0x00000000
       37465000	      3745	800022ec	00000013	addi	x0,x0,0	  x0:0x00000000
       37475000	      3746	800022f0	6b047213	andi	x4,x8,1712	  x8:0x00000001  x4=0x00000000
       37485000	      3747	800022f4	004cf733	and	x14,x25,x4	 x25:0x00021600  x4:0x00000000 x14=0x00000000
       37495000	      3748	800022f8	75ad3a93	sltiu	x21,x26,1882	 x26:0xfffe3600 x21=0x00000000
       37505000	      3749	800022fc	016a47b3	xor	x15,x20,x22	 x20:0xfffffbcd x22:0x00000000 x15=0xfffffbcd
       37515000	      3750	80002300	416a5c13	srai	x24,x20,0x16	 x20:0xfffffbcd x24=0xffffffff
       37525000	      3751	80002304	0109af33	slt	x30,x19,x16	 x19:0x80009f48 x16:0x00000000 x30=0x00000001
       37535000	      3752	80002308	01d74133	xor	x2,x14,x29	 x14:0x00000000 x29:0x00000000  x2=0x00000000
       37545000	      3753	8000230c	22b86f13	ori	x30,x16,555	 x16:0x00000000 x30=0x0000022b
       37555000	      3754	80002310	028b0063	beq	x22,x8,80002330	 x22:0x00000000  x8:0x00000001
       37565000	      3755	80002314	019bdab3	srl	x21,x23,x25	 x23:0x80002180 x25:0x00021600 x21=0x80002180
       37575000	      3756	80002318	2900b493	sltiu	x9,x1,656	  x1:0xfffffbca  x9=0x00000000
       37585000	      3757	8000231c	04dbd263	bge	x23,x13,80002360	 x23:0x80002180 x13:0x00000000
       37595000	      3758	80002320	053dd863	bge	x27,x19,80002370	 x27:0xfffffbcd x19:0x80009f48
       37605000	      3759	00000000	00000013	addi	x0,x0,0	  x0:0x00000000
       37615000	      3760	8000236c	00000013	addi	x0,x0,0	  x0:0x00000000
       37625000	      3761	80002370	417e03b3	sub	x7,x28,x23	 x28:0x00000534 x23:0x80002180  x7=0x7fffe3b4
       37635000	      3762	80002374	01e85193	srli	x3,x16,0x1e	 x16:0x00000000  x3=0x00000000
       37645000	      3763	80002378	406a5833	sra	x16,x20,x6	 x20:0xfffffbcd  x6:0x80002184 x16=0xffffffbc
       37655000	      3764	8000237c	013402b3	add	x5,x8,x19	  x8:0x00000001 x19:0x80009f48  x5=0x80009f49
       37665000	      3765	80002380	01e46e33	or	x28,x8,x30	  x8:0x00000001 x30:0x0000022b x28=0x0000022b
       37675000	      3766	80002384	75fca4b7	lui	x9,0x75fca	  x9=0x75fca000
       37685000	      3767	80002388	c6aace37	lui	x28,0xc6aac	 x28=0xc6aac000
       37695000	      3768	8000238c	7e3ea093	slti	x1,x29,2019	 x29:0x00000000  x1=0x00000001
       37705000	      3769	80002390	70be2d93	slti	x27,x28,1803	 x28:0xc6aac000 x27=0x00000001
       37715000	      3770	80002394	00af4e63	blt	x30,x10,800023b0	 x30:0x0000022b x10:0x111e0248
       37725000	      3771	00000000	00000013	addi	x0,x0,0	  x0:0x00000000
       37735000	      3772	800023ac	00000013	addi	x0,x0,0	  x0:0x00000000
       37745000	      3773	800023b0	017e88b3	add	x17,x29,x23	 x29:0x00000000 x23:0x80002180 x17=0x80002180
       37755000	      3774	800023b4	fcdc2f13	slti	x30,x24,-51	 x24:0xffffffff x30=0x00000000
       37765000	      3775	800023b8	249d6d93	ori	x27,x26,585	 x26:0xfffe3600 x27=0xfffe3649
       37775000	      3776	800023bc	0128e833	or	x16,x17,x18	 x17:0x80002180 x18:0xecab5ef4 x16=0xecab7ff4
       37785000	      3777	800023c0	00870cb3	add	x25,x14,x8	 x14:0x00000000  x8:0x00000001 x25=0x00000001
       37795000	      3778	800023c4	2b26ca93	xori	x21,x13,690	 x13:0x00000000 x21=0x000002b2
       37805000	      3779	800023c8	01624fb3	xor	x31,x4,x22	  x4:0x00000000 x22:0x00000000 x31=0x00000000
       37815000	      3780	800023cc	00422f33	slt	x30,x4,x4	  x4:0x00000000  x4:0x00000000 x30=0x00000000
       37825000	      3781	800023d0	0031d213	srli	x4,x3,0x3	  x3:0x00000000  x4=0x00000000
       37835000	      3782	800023d4	00286d33	or	x26,x16,x2	 x16:0xecab7ff4  x2:0x00000000 x26=0xecab7ff4
       37845000	      3783	800023d8	00785513	srli	x10,x16,0x7	 x16:0xecab7ff4 x10=0x01d956ff
       37855000	      3784	800023dc	010b5d33	srl	x26,x22,x16	 x22:0x00000000 x16:0xecab7ff4 x26=0x00000000
       37865000	      3785	800023e0	418e5933	sra	x18,x28,x24	 x28:0xc6aac000 x24:0xffffffff x18=0xffffffff
       37875000	      3786	800023e4	41a95d33	sra	x26,x18,x26	 x18:0xffffffff x26:0x00000000 x26=0xffffffff
       37885000	      3787	800023e8	2fe80bb7	lui	x23,0x2fe80	 x23=0x2fe80000
       37895000	      3788	800023ec	047c5863	bge	x24,x7,8000243c	 x24:0xffffffff  x7:0x7fffe3b4
       37905000	      3789	800023f0	40770ab3	sub	x21,x14,x7	 x14:0x00000000  x7:0x7fffe3b4 x21=0x80001c4c
       37915000	      3790	800023f4	013e5bb3	srl	x23,x28,x19	 x28:0xc6aac000 x19:0x80009f48 x23=0x00c6aac0
       37925000	      3791	800023f8	002b1133	sll	x2,x22,x2	 x22:0x00000000  x2:0x00000000  x2=0x00000000
       37935000	      3792	800023fc	001ef333	and	x6,x29,x1	 x29:0x00000000  x1:0x00000001  x6=0x00000000
       37945000	      3793	80002400	2e7dc093	xori	x1,x27,743	 x27:0xfffe3649  x1=0xfffe34ae
       37955000	      3794	80002404	40935933	sra	x18,x6,x9	  x6:0x00000000  x9:0x75fca000 x18=0x00000000
       37965000	      3795	80002408	011c1913	slli	x18,x24,0x11	 x24:0xffffffff x18=0xfffe0000
       37975000	      3796	8000240c	05705263	bge	x0,x23,80002450	  x0:0x00000000 x23:0x00c6aac0
       37985000	      3797	80002410	041af263	bgeu	x21,x1,80002454	 x21:0x80001c4c  x1:0xfffe34ae
       37995000	      3798	80002414	00e0b233	sltu	x4,x1,x14	  x1:0xfffe34ae x14:0x00000000  x4=0x00000000
       38005000	      3799	80002418	044bc263	blt	x23,x4,8000245c	 x23:0x00c6aac0  x4:0x00000000
       38015000	      3800	8000241c	026c0263	beq	x24,x6,80002440	 x24:0xffffffff  x6:0x00000000
       38025000	      3801	80002420	0041a033	slt	x0,x3,x4	  x3:0x00000000  x4:0x00000000
       38035000	      3802	80002424	41778933	sub	x18,x15,x23	 x15:0xfffffbcd x23:0x00c6aac0 x18=0xff39510d
       38045000	      3803	80002428	013aec63	bltu	x21,x19,80002440	 x21:0x80001c4c x19:0x80009f48
       38055000	      3804	00000000	00000013	addi	x0,x0,0	  x0:0x00000000
       38065000	      3805	8000243c	00000013	addi	x0,x0,0	  x0:0x00000000
       38075000	      3806	80002440	40bd0333	sub	x6,x26,x11	 x26:0xffffffff x11:0x80009fc4  x6=0x7fff603b
       38085000	      3807	80002444	9d97b493	sltiu	x9,x15,-1575	 x15:0xfffffbcd  x9=0x00000000
       38095000	      3808	80002448	9cfb3d93	sltiu	x27,x22,-1585	 x22:0x00000000 x27=0x00000001
       38105000	      3809	8000244c	00a8ad33	slt	x26,x17,x10	 x17:0x80002180 x10:0x01d956ff x26=0x00000001
       38115000	      3810	80002450	02d75063	bge	x14,x13,80002470	 x14:0x00000000 x13:0x00000000
       38125000	      3811	00000000	00000013	addi	x0,x0,0	  x0:0x00000000
       38135000	      3812	8000246c	00000013	addi	x0,x0,0	  x0:0x00000000
       38145000	      3813	80002470	83512013	slti	x0,x2,-1995	  x2:0x00000000
       38155000	      3814	80002474	a2809e17	auipc	x28,0xa2809	 x28=0x2280b470
       38165000	      3815	80002478	042e4063	blt	x28,x2,800024b8	 x28:0x2280b470  x2:0x00000000
       38175000	      3816	8000247c	03276063	bltu	x14,x18,8000249c	 x14:0x00000000 x18:0xff39510d
       38185000	      3817	00000000	00000013	addi	x0,x0,0	  x0:0x00000000
       38195000	      3818	80002498	00000013	addi	x0,x0,0	  x0:0x00000000
       38205000	      3819	8000249c	00a7ea63	bltu	x15,x10,800024b0	 x15:0xfffffbcd x10:0x01d956ff
       38215000	      3820	800024a0	02529263	bne	x5,x5,800024c4	  x5:0x80009f49  x5:0x80009f49
       38225000	      3821	800024a4	0165fe63	bgeu	x11,x22,800024c0	 x11:0x80009fc4 x22:0x00000000
       38235000	      3822	00000000	00000013	addi	x0,x0,0	  x0:0x00000000
       38245000	      3823	800024bc	00000013	addi	x0,x0,0	  x0:0x00000000
       38255000	      3824	800024c0	01e33a33	sltu	x20,x6,x30	  x6:0x7fff603b x30:0x00000000 x20=0x00000000
       38265000	      3825	800024c4	01e29933	sll	x18,x5,x30	  x5:0x80009f49 x30:0x00000000 x18=0x80009f49
       38275000	      3826	800024c8	d5900193	addi	x3,x0,-679	  x0:0x00000000  x3=0xfffffd59
       38285000	      3827	800024cc	5bae9737	lui	x14,0x5bae9	 x14=0x5bae9000
       38295000	      3828	800024d0	40d18733	sub	x14,x3,x13	  x3:0xfffffd59 x13:0x00000000 x14=0xfffffd59
       38305000	      3829	800024d4	05e50263	beq	x10,x30,80002518	 x10:0x01d956ff x30:0x00000000
       38315000	      3830	800024d8	04935663	bge	x6,x9,80002524	  x6:0x7fff603b  x9:0x00000000
       38325000	      3831	00000000	00000013	addi	x0,x0,0	  x0:0x00000000
       38335000	      3832	80002520	00000013	addi	x0,x0,0	  x0:0x00000000
       38345000	      3833	80002524	005a7633	and	x12,x20,x5	 x20:0x00000000  x5:0x80009f49 x12=0x00000000
       38355000	      3834	80002528	00421033	sll	x0,x4,x4	  x4:0x00000000  x4:0x00000000
       38365000	      3835	8000252c	42507d13	andi	x26,x0,1061	  x0:0x00000000 x26=0x00000000
       38375000	      3836	80002530	65d99697	auipc	x13,0x65d99	 x13=0xe5d9b52c
       38385000	      3837	80002534	3250bd93	sltiu	x27,x1,805	  x1:0xfffe34ae x27=0x00000000
       38395000	      3838	80002538	411ed293	srai	x5,x29,0x11	 x29:0x00000000  x5=0x00000000
       38405000	      3839	8000253c	01004133	xor	x2,x0,x16	  x0:0x00000000 x16:0xecab7ff4  x2=0xecab7ff4
       38415000	      3840	80002540	439ba413	slti	x8,x23,1081	 x23:0x00c6aac0  x8=0x00000000
       38425000	      3841	80002544	03ab1063	bne	x22,x26,80002564	 x22:0x00000000 x26:0x00000000
       38435000	      3842	80002548	01d430b3	sltu	x1,x8,x29	  x8:0x00000000 x29:0x00000000  x1=0x00000000
       38445000	      3843	8000254c	905bea13	ori	x20,x23,-1787	 x23:0x00c6aac0 x20=0xfffffbc5
       38455000	      3844	80002550	015d8db3	add	x27,x27,x21	 x27:0x00000000 x21:0x80001c4c x27=0x80001c4c
       38465000	      3845	80002554	0094e7b3	or	x15,x9,x9	  x9:0x00000000  x9:0x00000000 x15=0x00000000
       38475000	      3846	80002558	003a8633	add	x12,x21,x3	 x21:0x80001c4c  x3:0xfffffd59 x12=0x800019a5
       38485000	      3847	8000255c	40cc5913	srai	x18,x24,0xc	 x24:0xffffffff x18=0xffffffff
       38495000	      3848	80002560	6887ea97	auipc	x21,0x6887e	 x21=0xe888055c
       38505000	      3849	80002564	00970533	add	x10,x14,x9	 x14:0xfffffd59  x9:0x00000000 x10=0xfffffd59
       38515000	      3850	80002568	0009cc33	xor	x24,x19,x0	 x19:0x80009f48  x0:0x00000000 x24=0x80009f48
       38525000	      3851	8000256c	0181e3b3	or	x7,x3,x24	  x3:0xfffffd59 x24:0x80009f48  x7=0xffffff59
       38535000	      3852	80002570	017eb1b3	sltu	x3,x29,x23	 x29:0x00000000 x23:0x00c6aac0  x3=0x00000001
       38545000	      3853	80002574	412c0b33	sub	x22,x24,x18	 x24:0x80009f48 x18:0xffffffff x22=0x80009f49
       38555000	      3854	80002578	45961ab7	lui	x21,0x45961	 x21=0x45961000
       38565000	      3855	8000257c	0127c1b3	xor	x3,x15,x18	 x15:0x00000000 x18:0xffffffff  x3=0xffffffff
       38575000	      3856	80002580	03fdfc63	bgeu	x27,x31,800025b8	 x27:0x80001c4c x31:0x00000000
       38585000	      3857	00000000	00000013	addi	x0,x0,0	  x0:0x00000000
       38595000	      3858	800025b4	00000013	addi	x0,x0,0	  x0:0x00000000
       38605000	      3859	800025b8	6677cb93	xori	x23,x15,1639	 x15:0x00000000 x23=0x00000667
       38615000	      3860	800025bc	0b147463	bgeu	x8,x17,80002664	  x8:0x00000000 x17:0x80002180
       38625000	      3861	800025c0	0b569263	bne	x13,x21,80002664	 x13:0xe5d9b52c x21:0x45961000
       38635000	      3862	00000000	00000013	addi	x0,x0,0	  x0:0x00000000
       38645000	      3863	80002660	00000013	addi	x0,x0,0	  x0:0x00000000
       38655000	      3864	80002664	00cff333	and	x6,x31,x12	 x31:0x00000000 x12:0x800019a5  x6=0x00000000
       38665000	      3865	80002668	003e5713	srli	x14,x28,0x3	 x28:0x2280b470 x14=0x0450168e
       38675000	      3866	8000266c	00e6a633	slt	x12,x13,x14	 x13:0xe5d9b52c x14:0x0450168e x12=0x00000001
       38685000	      3867	80002670	03eb5863	bge	x22,x30,800026a0	 x22:0x80009f49 x30:0x00000000
       38695000	      3868	80002674	018e16b3	sll	x13,x28,x24	 x28:0x2280b470 x24:0x80009f48 x13=0x80b47000
       38705000	      3869	80002678	2f594e13	xori	x28,x18,757	 x18:0xffffffff x28=0xfffffd0a
       38715000	      3870	8000267c	400ada33	sra	x20,x21,x0	 x21:0x45961000  x0:0x00000000 x20=0x45961000
       38725000	      3871	80002680	05005263	bge	x0,x16,800026c4	  x0:0x00000000 x16:0xecab7ff4
       38735000	      3872	00000000	00000013	addi	x0,x0,0	  x0:0x00000000
       38745000	      3873	800026c0	00000013	addi	x0,x0,0	  x0:0x00000000
       38755000	      3874	800026c4	e6960a97	auipc	x21,0xe6960	 x21=0x669626c0
       38765000	      3875	800026c8	01935e63	bge	x6,x25,800026e4	  x6:0x00000000 x25:0x00000001
       38775000	      3876	800026cc	00000013	addi	x0,x0,0	  x0:0x00000000
       38785000	      3877	800026d0	012ed213	srli	x4,x29,0x12	 x29:0x00000000  x4=0x00000000
       38795000	      3878	800026d4	005d5193	srli	x3,x26,0x5	 x26:0x00000000  x3=0x00000000
       38805000	      3879	800026d8	00cb9933	sll	x18,x23,x12	 x23:0x00000667 x12:0x00000001 x18=0x00000cce
       38815000	      3880	800026dc	02014063	blt	x2,x0,800026fc	  x2:0xecab7ff4  x0:0x00000000
       38825000	      3881	00000000	00000013	addi	x0,x0,0	  x0:0x00000000
       38835000	      3882	800026f8	00000013	addi	x0,x0,0	  x0:0x00000000
       38845000	      3883	800026fc	001f9693	slli	x13,x31,0x1	 x31:0x00000000 x13=0x00000000
       38855000	      3884	80002700	029ee663	bltu	x29,x9,8000272c	 x29:0x00000000  x9:0x00000000
       38865000	      3885	80002704	0002cb33	xor	x22,x5,x0	  x5:0x00000000  x0:0x00000000 x22=0x00000000
       38875000	      3886	80002708	75b01197	auipc	x3,0x75b01	  x3=0xf5b03704
       38885000	      3887	8000270c	001aaf33	slt	x30,x21,x1	 x21:0x669626c0  x1:0x00000000 x30=0x00000000
       38895000	      3888	80002710	f4f0f417	auipc	x8,0xf4f0f	  x8=0x74f1170c
       38905000	      3889	80002714	03930863	beq	x6,x25,80002744	  x6:0x00000000 x25:0x00000001
       38915000	      3890	80002718	411cda93	srai	x21,x25,0x11	 x25:0x00000001 x21=0x00000000
       38925000	      3891	8000271c	05dd9263	bne	x27,x29,80002760	 x27:0x80001c4c x29:0x00000000
       38935000	      3892	00000000	00000013	addi	x0,x0,0	  x0:0x00000000
       38945000	      3893	8000275c	00000013	addi	x0,x0,0	  x0:0x00000000
       38955000	      3894	80002760	035fe063	bltu	x31,x21,80002780	 x31:0x00000000 x21:0x00000000
       38965000	      3895	80002764	120db713	sltiu	x14,x27,288	 x27:0x80001c4c x14=0x00000000
       38975000	      3896	80002768	81966b93	ori	x23,x12,-2023	 x12:0x00000001 x23=0xfffff819
       38985000	      3897	8000276c	007c92b3	sll	x5,x25,x7	 x25:0x00000001  x7:0xffffff59  x5=0x02000000
       38995000	      3898	80002770	05334663	blt	x6,x19,800027bc	  x6:0x00000000 x19:0x80009f48
       39005000	      3899	80002774	720a0113	addi	x2,x20,1824	 x20:0x45961000  x2=0x45961720
       39015000	      3900	80002778	0140e833	or	x16,x1,x20	  x1:0x00000000 x20:0x45961000 x16=0x45961000
       39025000	      3901	8000277c	e84af693	andi	x13,x21,-380	 x21:0x00000000 x13=0x00000000
       39035000	      3902	80002780	41b25c93	srai	x25,x4,0x1b	  x4:0x00000000 x25=0x00000000
       39045000	      3903	80002784	01692633	slt	x12,x18,x22	 x18:0x00000cce x22:0x00000000 x12=0x00000000
       39055000	      3904	80002788	00000013	addi	x0,x0,0	  x0:0x00000000
       39065000	      3905	8000278c	fd144b13	xori	x22,x8,-47	  x8:0x74f1170c x22=0x8b0ee8dd
       39075000	      3906	80002790	aeb2a0b7	lui	x1,0xaeb2a	  x1=0xaeb2a000
       39085000	      3907	80002794	00aa5e63	bge	x20,x10,800027b0	 x20:0x45961000 x10:0xfffffd59
       39095000	      3908	00000000	00000013	addi	x0,x0,0	  x0:0x00000000
       39105000	      3909	800027ac	00000013	addi	x0,x0,0	  x0:0x00000000
       39115000	      3910	800027b0	047cd263	bge	x25,x7,800027f4	 x25:0x00000000  x7:0xffffff59
       39125000	      3911	00000000	00000013	addi	x0,x0,0	  x0:0x00000000
       39135000	      3912	800027f0	00000013	addi	x0,x0,0	  x0:0x00000000
       39145000	      3913	800027f4	00000013	addi	x0,x0,0	  x0:0x00000000
       39155000	      3914	800027f8	11336013	ori	x0,x6,275	  x6:0x00000000
       39165000	      3915	800027fc	4167d833	sra	x16,x15,x22	 x15:0x00000000 x22:0x8b0ee8dd x16=0x00000000
       39175000	      3916	80002800	0140036f	jal	x6,80002800	  x6=0x80002800
       39185000	      3917	00000000	00000013	addi	x0,x0,0	  x0:0x00000000
       39195000	      3918	80002810	00000013	addi	x0,x0,0	  x0:0x00000000
       39205000	      3919	80002814	ff1ff0ef	jal	x1,80002814	  x1=0x80002814
       39215000	      3920	00000000	00000013	addi	x0,x0,0	  x0:0x00000000
       39225000	      3921	80002800	00000013	addi	x0,x0,0	  x0:0x00000000
       39235000	      3922	80002804	014002ef	jal	x5,80002804	  x5=0x80002804
       39245000	      3923	00000000	00000013	addi	x0,x0,0	  x0:0x00000000
       39255000	      3924	80002814	00000013	addi	x0,x0,0	  x0:0x00000000
       39265000	      3925	80002818	ff1ff26f	jal	x4,80002818	  x4=0x80002818
       39275000	      3926	00000000	00000013	addi	x0,x0,0	  x0:0x00000000
       39285000	      3927	80002804	00000013	addi	x0,x0,0	  x0:0x00000000
       39295000	      3928	80002808	008008ef	jal	x17,80002808	 x17=0x80002808
       39305000	      3929	00000000	00000013	addi	x0,x0,0	  x0:0x00000000
       39315000	      3930	8000280c	00000013	addi	x0,x0,0	  x0:0x00000000
       39325000	      3931	80002810	010000ef	jal	x1,80002810	  x1=0x80002810
       39335000	      3932	00000000	00000013	addi	x0,x0,0	  x0:0x00000000
       39345000	      3933	8000281c	00000013	addi	x0,x0,0	  x0:0x00000000
       39355000	      3934	80002820	008001ef	jal	x3,80002820	  x3=0x80002820
       39365000	      3935	00000000	00000013	addi	x0,x0,0	  x0:0x00000000
       39375000	      3936	80002824	00000013	addi	x0,x0,0	  x0:0x00000000
       39385000	      3937	80002828	ff5ff0ef	jal	x1,80002828	  x1=0x80002828
       39395000	      3938	00000000	00000013	addi	x0,x0,0	  x0:0x00000000
       39405000	      3939	80002818	00000013	addi	x0,x0,0	  x0:0x00000000
       39415000	      3940	8000281c	010000ef	jal	x1,8000281c	  x1=0x8000281c
       39425000	      3941	00000000	00000013	addi	x0,x0,0	  x0:0x00000000
       39435000	      3942	80002828	00000013	addi	x0,x0,0	  x0:0x00000000
       39445000	      3943	8000282c	fe1ff36f	jal	x6,8000282c	  x6=0x8000282c
       39455000	      3944	00000000	00000013	addi	x0,x0,0	  x0:0x00000000
       39465000	      3945	80002808	00000013	addi	x0,x0,0	  x0:0x00000000
       39475000	      3946	8000280c	0180036f	jal	x6,8000280c	  x6=0x8000280c
       39485000	      3947	00000000	00000013	addi	x0,x0,0	  x0:0x00000000
       39495000	      3948	80002820	00000013	addi	x0,x0,0	  x0:0x00000000
       39505000	      3949	80002824	00c000ef	jal	x1,80002824	  x1=0x80002824
       39515000	      3950	00000000	00000013	addi	x0,x0,0	  x0:0x00000000
       39525000	      3951	8000282c	00000013	addi	x0,x0,0	  x0:0x00000000
       39535000	      3952	80002830	c9c7e037	lui	x0,0xc9c7e	
       39545000	      3953	80002834	e9934c13	xori	x24,x6,-359	  x6:0x8000280c x24=0x7fffd695
       39555000	      3954	80002838	01f406b3	add	x13,x8,x31	  x8:0x74f1170c x31:0x00000000 x13=0x74f1170c
       39565000	      3955	8000283c	01f2d8b3	srl	x17,x5,x31	  x5:0x80002804 x31:0x00000000 x17=0x80002804
       39575000	      3956	80002840	0191d463	bge	x3,x25,80002848	  x3:0x80002820 x25:0x00000000
       39585000	      3957	80002844	012d94b3	sll	x9,x27,x18	 x27:0x80001c4c x18:0x00000cce  x9=0x07130000
       39595000	      3958	80002848	3f2ef113	andi	x2,x29,1010	 x29:0x00000000  x2=0x00000000
       39605000	      3959	8000284c	ca958913	addi	x18,x11,-855	 x11:0x80009fc4 x18=0x80009c6d
       39615000	      3960	80002850	41468233	sub	x4,x13,x20	 x13:0x74f1170c x20:0x45961000  x4=0x2f5b070c
       39625000	      3961	80002854	08ef4797	auipc	x15,0x8ef4	 x15=0x88ef6850
       39635000	      3962	80002858	34b1f513	andi	x10,x3,843	  x3:0x80002820 x10=0x00000000
       39645000	      3963	8000285c	00690463	beq	x18,x6,80002864	 x18:0x80009c6d  x6:0x8000280c
       39655000	      3964	80002860	004edc33	srl	x24,x29,x4	 x29:0x00000000  x4:0x2f5b070c x24=0x00000000
       39665000	      3965	80002864	40830e33	sub	x28,x6,x8	  x6:0x8000280c  x8:0x74f1170c x28=0x0b0f1100
       39675000	      3966	80002868	83183093	sltiu	x1,x16,-1999	 x16:0x00000000  x1=0x00000001
       39685000	      3967	8000286c	012637b3	sltu	x15,x12,x18	 x12:0x00000000 x18:0x80009c6d x15=0x00000001
       39695000	      3968	80002870	0088b433	sltu	x8,x17,x8	 x17:0x80002804  x8:0x74f1170c  x8=0x00000000
       39705000	      3969	80002874	63544793	xori	x15,x8,1589	  x8:0x00000000 x15=0x00000635
       39715000	      3970	80002878	08008c93	addi	x25,x1,128	  x1:0x00000001 x25=0x00000081
       39725000	      3971	8000287c	01419a93	slli	x21,x3,0x14	  x3:0x80002820 x21=0x82000000
       39735000	      3972	80002880	01c4c333	xor	x6,x9,x28	  x9:0x07130000 x28:0x0b0f1100  x6=0x0c1c1100
       39745000	      3973	80002884	04bf4263	blt	x30,x11,800028c8	 x30:0x00000000 x11:0x80009fc4
       39755000	      3974	80002888	0103b1b3	sltu	x3,x7,x16	  x7:0xffffff59 x16:0x00000000  x3=0x00000000
       39765000	      3975	8000288c	d7f52093	slti	x1,x10,-641	 x10:0x00000000  x1=0x00000000
       39775000	      3976	80002890	7d75c813	xori	x16,x11,2007	 x11:0x80009fc4 x16=0x80009813
       39785000	      3977	80002894	85019e17	auipc	x28,0x85019	 x28=0x0501b890
       39795000	      3978	80002898	09515863	bge	x2,x21,80002928	  x2:0x00000000 x21:0x82000000
       39805000	      3979	00000000	00000013	addi	x0,x0,0	  x0:0x00000000
       39815000	      3980	80002924	00000013	addi	x0,x0,0	  x0:0x00000000
       39825000	      3981	80002928	031b6c63	bltu	x22,x17,80002960	 x22:0x8b0ee8dd x17:0x80002804
       39835000	      3982	8000292c	20afc093	xori	x1,x31,522	 x31:0x00000000  x1=0x0000020a
       39845000	      3983	80002930	00625fb3	srl	x31,x4,x6	  x4:0x2f5b070c  x6:0x0c1c1100 x31=0x2f5b070c
       39855000	      3984	80002934	00535033	srl	x0,x6,x5	  x6:0x0c1c1100  x5:0x80002804
       39865000	      3985	80002938	800a8f13	addi	x30,x21,-2048	 x21:0x82000000 x30=0x81fff800
       39875000	      3986	8000293c	00c15213	srli	x4,x2,0xc	  x2:0x00000000  x4=0x00000000
       39885000	      3987	80002940	401f5033	sra	x0,x30,x1	 x30:0x81fff800  x1:0x0000020a
       39895000	      3988	80002944	004904b3	add	x9,x18,x4	 x18:0x80009c6d  x4:0x00000000  x9=0x80009c6d
       39905000	      3989	80002948	0348f263	bgeu	x17,x20,8000296c	 x17:0x80002804 x20:0x45961000
       39915000	      3990	00000000	00000013	addi	x0,x0,0	  x0:0x00000000
       39925000	      3991	80002968	00000013	addi	x0,x0,0	  x0:0x00000000
       39935000	      3992	8000296c	00a71893	slli	x17,x14,0xa	 x14:0x00000000 x17=0x00000000
       39945000	      3993	80002970	0f604693	xori	x13,x0,246	  x0:0x00000000 x13=0x000000f6
       39955000	      3994	80002974	01b0aab3	slt	x21,x1,x27	  x1:0x0000020a x27:0x80001c4c x21=0x00000000
       39965000	      3995	80002978	00ae1933	sll	x18,x28,x10	 x28:0x0501b890 x10:0x00000000 x18=0x0501b890
       39975000	      3996	8000297c	40a783b3	sub	x7,x15,x10	 x15:0x00000635 x10:0x00000000  x7=0x00000635
       39985000	      3997	80002980	0047ce63	blt	x15,x4,8000299c	 x15:0x00000635  x4:0x00000000
       39995000	      3998	80002984	408b0133	sub	x2,x22,x8	 x22:0x8b0ee8dd  x8:0x00000000  x2=0x8b0ee8dd
       40005000	      3999	80002988	7bf6a893	slti	x17,x13,1983	 x13:0x000000f6 x17=0x00000001
       40015000	      4000	8000298c	68d90b13	addi	x22,x18,1677	 x18:0x0501b890 x22=0x0501bf1d
       40025000	      4001	80002990	40847b13	andi	x22,x8,1032	  x8:0x00000000 x22=0x00000000
       40035000	      4002	80002994	01eb9bb3	sll	x23,x23,x30	 x23:0xfffff819 x30:0x81fff800 x23=0xfffff819
       40045000	      4003	80002998	41b2da93	srai	x21,x5,0x1b	  x5:0x80002804 x21=0xfffffff0
       40055000	      4004	8000299c	eeabeb13	ori	x22,x23,-278	 x23:0xfffff819 x22=0xfffffefb
       40065000	      4005	800029a0	04325663	bge	x4,x3,800029ec	  x4:0x00000000  x3:0x00000000
       40075000	      4006	00000000	00000013	addi	x0,x0,0	  x0:0x00000000
       40085000	      4007	800029e8	00000013	addi	x0,x0,0	  x0:0x00000000
       40095000	      4008	800029ec	020c0093	addi	x1,x24,32	 x24:0x00000000  x1=0x00000020
       40105000	      4009	800029f0	0531e263	bltu	x3,x19,80002a34	  x3:0x00000000 x19:0x80009f48
       40115000	      4010	00000000	00000013	addi	x0,x0,0	  x0:0x00000000
       40125000	      4011	80002a30	00000013	addi	x0,x0,0	  x0:0x00000000
       40135000	      4012	80002a34	01e60933	add	x18,x12,x30	 x12:0x00000000 x30:0x81fff800 x18=0x81fff800
       40145000	      4013	80002a38	152fa113	slti	x2,x31,338	 x31:0x2f5b070c  x2=0x00000000
       40155000	      4014	80002a3c	0ce76463	bltu	x14,x14,80002b04	 x14:0x00000000 x14:0x00000000
       40165000	      4015	80002a40	6fbc2d13	slti	x26,x24,1787	 x24:0x00000000 x26=0x00000001
       40175000	      4016	80002a44	1d2c3d13	sltiu	x26,x24,466	 x24:0x00000000 x26=0x00000001
       40185000	      4017	80002a48	00d7c8b3	xor	x17,x15,x13	 x15:0x00000635 x13:0x000000f6 x17=0x000006c3
       40195000	      4018	80002a4c	4d6cf393	andi	x7,x25,1238	 x25:0x00000081  x7=0x00000080
       40205000	      4019	80002a50	08069e63	bne	x13,x0,80002aec	 x13:0x000000f6  x0:0x00000000
       40215000	      4020	00000000	00000013	addi	x0,x0,0	  x0:0x00000000
       40225000	      4021	80002ae8	00000013	addi	x0,x0,0	  x0:0x00000000
       40235000	      4022	80002aec	013dea33	or	x20,x27,x19	 x27:0x80001c4c x19:0x80009f48 x20=0x80009f4c
       40245000	      4023	80002af0	01cca233	slt	x4,x25,x28	 x25:0x00000081 x28:0x0501b890  x4=0x00000001
       40255000	      4024	80002af4	000e9013	slli	x0,x29,0x0	 x29:0x00000000
       40265000	      4025	80002af8	0014d133	srl	x2,x9,x1	  x9:0x80009c6d  x1:0x00000020  x2=0x80009c6d
       40275000	      4026	80002afc	01608f33	add	x30,x1,x22	  x1:0x00000020 x22:0xfffffefb x30=0xffffff1b
       40285000	      4027	80002b00	e23a3493	sltiu	x9,x20,-477	 x20:0x80009f4c  x9=0x00000001
       40295000	      4028	80002b04	f0087413	andi	x8,x16,-256	 x16:0x80009813  x8=0x80009800
       40305000	      4029	80002b08	00cc27b3	slt	x15,x24,x12	 x24:0x00000000 x12:0x00000000 x15=0x00000000
       40315000	      4030	80002b0c	0097f033	and	x0,x15,x9	 x15:0x00000000  x9:0x00000001
       40325000	      4031	80002b10	00297db3	and	x27,x18,x2	 x18:0x81fff800  x2:0x80009c6d x27=0x80009800
       40335000	      4032	80002b14	08ae7413	andi	x8,x28,138	 x28:0x0501b890  x8=0x00000080
       40345000	      4033	80002b18	01261693	slli	x13,x12,0x12	 x12:0x00000000 x13=0x00000000
       40355000	      4034	80002b1c	04221263	bne	x4,x2,80002b60	  x4:0x00000001  x2:0x80009c6d
       40365000	      4035	00000000	00000013	addi	x0,x0,0	  x0:0x00000000
       40375000	      4036	80002b5c	00000013	addi	x0,x0,0	  x0:0x00000000
       40385000	      4037	80002b60	bec33913	sltiu	x18,x6,-1044	  x6:0x0c1c1100 x18=0x00000001
       40395000	      4038	80002b64	82a10493	addi	x9,x2,-2006	  x2:0x80009c6d  x9=0x80009497
       40405000	      4039	80002b68	00621a63	bne	x4,x6,80002b7c	  x4:0x00000001  x6:0x0c1c1100
       40415000	      4040	00000000	00000013	addi	x0,x0,0	  x0:0x00000000
       40425000	      4041	80002b78	00000013	addi	x0,x0,0	  x0:0x00000000
       40435000	      4042	80002b7c	01d95a13	srli	x20,x18,0x1d	 x18:0x00000001 x20=0x00000000
       40445000	      4043	80002b80	02aae863	bltu	x21,x10,80002bb0	 x21:0xfffffff0 x10:0x00000000
       40455000	      4044	80002b84	d4a87113	andi	x2,x16,-694	 x16:0x80009813  x2=0x80009802
       40465000	      4045	80002b88	42c7a017	auipc	x0,0x42c7a	
       40475000	      4046	80002b8c	01065513	srli	x10,x12,0x10	 x12:0x00000000 x10=0x00000000
       40485000	      4047	80002b90	0385e063	bltu	x11,x24,80002bb0	 x11:0x80009fc4 x24:0x00000000
       40495000	      4048	80002b94	019efd33	and	x26,x29,x25	 x29:0x00000000 x25:0x00000081 x26=0x00000000
       40505000	      4049	80002b98	d86ebc13	sltiu	x24,x29,-634	 x29:0x00000000 x24=0x00000001
       40515000	      4050	80002b9c	16fdc493	xori	x9,x27,367	 x27:0x80009800  x9=0x8000996f
       40525000	      4051	80002ba0	1b159437	lui	x8,0x1b159	  x8=0x1b159000
       40535000	      4052	80002ba4	f3f4c6b7	lui	x13,0xf3f4c	 x13=0xf3f4c000
       40545000	      4053	80002ba8	01ad9f93	slli	x31,x27,0x1a	 x27:0x80009800 x31=0x00000000
       40555000	      4054	80002bac	01e50233	add	x4,x10,x30	 x10:0x00000000 x30:0xffffff1b  x4=0xffffff1b
       40565000	      4055	80002bb0	02c61063	bne	x12,x12,80002bd0	 x12:0x00000000 x12:0x00000000
       40575000	      4056	80002bb4	0adda1b7	lui	x3,0xadda	  x3=0x0adda000
       40585000	      4057	80002bb8	b0450413	addi	x8,x10,-1276	 x10:0x00000000  x8=0xfffffb04
       40595000	      4058	80002bbc	8c540313	addi	x6,x8,-1851	  x8:0xfffffb04  x6=0xfffff3c9
       40605000	      4059	80002bc0	6e002e13	slti	x28,x0,1760	  x0:0x00000000 x28=0x00000001
       40615000	      4060	80002bc4	f3427a37	lui	x20,0xf3427	 x20=0xf3427000
       40625000	      4061	80002bc8	0191a833	slt	x16,x3,x25	  x3:0x0adda000 x25:0x00000081 x16=0x00000000
       40635000	      4062	80002bcc	38a7b213	sltiu	x4,x15,906	 x15:0x00000000  x4=0x00000001
       40645000	      4063	80002bd0	eb944613	xori	x12,x8,-327	  x8:0xfffffb04 x12=0x000005bd
       40655000	      4064	80002bd4	00e4d493	srli	x9,x9,0xe	  x9:0x8000996f  x9=0x00020002
       40665000	      4065	80002bd8	40d050b3	sra	x1,x0,x13	  x0:0x00000000 x13:0xf3f4c000  x1=0x00000000
       40675000	      4066	80002bdc	00000013	addi	x0,x0,0	  x0:0x00000000
       40685000	      4067	80002be0	5b088293	addi	x5,x17,1456	 x17:0x000006c3  x5=0x00000c73
       40695000	      4068	80002be4	0ff68713	addi	x14,x13,255	 x13:0xf3f4c000 x14=0xf3f4c0ff
       40705000	      4069	80002be8	39a8da97	auipc	x21,0x39a8d	 x21=0xb9a8fbe4
       40715000	      4070	80002bec	05a87263	bgeu	x16,x26,80002c30	 x16:0x00000000 x26:0x00000000
       40725000	      4071	00000000	00000013	addi	x0,x0,0	  x0:0x00000000
       40735000	      4072	80002c2c	00000013	addi	x0,x0,0	  x0:0x00000000
       40745000	      4073	80002c30	03798c63	beq	x19,x23,80002c68	 x19:0x80009f48 x23:0xfffff819
       40755000	      4074	80002c34	01f4cf33	xor	x30,x9,x31	  x9:0x00020002 x31:0x00000000 x30=0x00020002
       40765000	      4075	80002c38	02b1c063	blt	x3,x11,80002c58	  x3:0x0adda000 x11:0x80009fc4
       40775000	      4076	80002c3c	00387333	and	x6,x16,x3	 x16:0x00000000  x3:0x0adda000  x6=0x00000000
       40785000	      4077	80002c40	01b89c33	sll	x24,x17,x27	 x17:0x000006c3 x27:0x80009800 x24=0x000006c3
       40795000	      4078	80002c44	ff286b13	ori	x22,x16,-14	 x16:0x00000000 x22=0xfffffff2
       40805000	      4079	80002c48	02e15c63	bge	x2,x14,80002c80	  x2:0x80009802 x14:0xf3f4c0ff
       40815000	      4080	80002c4c	4e118a13	addi	x20,x3,1249	  x3:0x0adda000 x20=0x0adda4e1
       40825000	      4081	80002c50	02054063	blt	x10,x0,80002c70	 x10:0x00000000  x0:0x00000000
       40835000	      4082	80002c54	5d9ee813	ori	x16,x29,1497	 x29:0x00000000 x16=0x000005d9
       40845000	      4083	80002c58	01759d93	slli	x27,x11,0x17	 x11:0x80009fc4 x27=0xe2000000
       40855000	      4084	80002c5c	013216b3	sll	x13,x4,x19	  x4:0x00000001 x19:0x80009f48 x13=0x00000100
       40865000	      4085	80002c60	7619ba97	auipc	x21,0x7619b	 x21=0xf619dc5c
       40875000	      4086	80002c64	050a4263	blt	x20,x16,80002ca8	 x20:0x0adda4e1 x16:0x000005d9
       40885000	      4087	80002c68	893d4693	xori	x13,x26,-1901	 x26:0x00000000 x13=0xfffff893
       40895000	      4088	80002c6c	402bdd93	srai	x27,x23,0x2	 x23:0xfffff819 x27=0xfffffe06
       40905000	      4089	80002c70	006e3533	sltu	x10,x28,x6	 x28:0x00000001  x6:0x00000000 x10=0x00000000
       40915000	      4090	80002c74	04859863	bne	x11,x8,80002cc4	 x11:0x80009fc4  x8:0xfffffb04
       40925000	      4091	00000000	00000013	addi	x0,x0,0	  x0:0x00000000
       40935000	      4092	80002cc0	00000013	addi	x0,x0,0	  x0:0x00000000
       40945000	      4093	80002cc4	ab6b2613	slti	x12,x22,-1354	 x22:0xfffffff2 x12=0x00000000
       40955000	      4094	80002cc8	00524f33	xor	x30,x4,x5	  x4:0x00000001  x5:0x00000c73 x30=0x00000c72
       40965000	      4095	80002ccc	015c2a33	slt	x20,x24,x21	 x24:0x000006c3 x21:0xf619dc5c x20=0x00000000
       40975000	      4096	80002cd0	00b00233	add	x4,x0,x11	  x0:0x00000000 x11:0x80009fc4  x4=0x80009fc4
       40985000	      4097	80002cd4	0134a933	slt	x18,x9,x19	  x9:0x00020002 x19:0x80009f48 x18=0x00000000
       40995000	      4098	80002cd8	00000013	addi	x0,x0,0	  x0:0x00000000
       41005000	      4099	80002cdc	cfdead13	slti	x26,x29,-771	 x29:0x00000000 x26=0x00000000
       41015000	      4100	80002ce0	31390c93	addi	x25,x18,787	 x18:0x00000000 x25=0x00000313
       41025000	      4101	80002ce4	00d59013	slli	x0,x11,0xd	 x11:0x80009fc4
       41035000	      4102	80002ce8	0c0daf93	slti	x31,x27,192	 x27:0xfffffe06 x31=0x00000001
       41045000	      4103	80002cec	00000013	addi	x0,x0,0	  x0:0x00000000
       41055000	      4104	80002cf0	00001d97	auipc	x27,0x1	 x27=0x80003cec
       41065000	      4105	80002cf4	730d8d93	addi	x27,x27,1840	 x27:0x80003cec x27=0x8000441c
       41075000	      4106	80002cf8	046d8d93	addi	x27,x27,70	 x27:0x8000441c x27=0x80004462
       41085000	      4107	80002cfc	0173f8b3	and	x17,x7,x23	  x7:0x00000080 x23:0xfffff819 x17=0x00000000
       41095000	      4108	80002d00	01d9dc63	bge	x19,x29,80002d18	 x19:0x80009f48 x29:0x00000000
       41105000	      4109	80002d04	12546213	ori	x4,x8,293	  x8:0xfffffb04  x4=0xfffffb25
       41115000	      4110	80002d08	00f5ecb3	or	x25,x11,x15	 x11:0x80009fc4 x15:0x00000000 x25=0x80009fc4
       41125000	      4111	80002d0c	0605fa13	andi	x20,x11,96	 x11:0x80009fc4 x20=0x00000040
       41135000	      4112	80002d10	402cd713	srai	x14,x25,0x2	 x25:0x80009fc4 x14=0xe00027f1
       41145000	      4113	80002d14	41485f13	srai	x30,x16,0x14	 x16:0x000005d9 x30=0x00000000
       41155000	      4114	80002d18	fbad8367	jalr	x6,x27,-70	 x27:0x80004462  x6=0x80002d18
       41165000	      4115	00000000	00000013	addi	x0,x0,0	  x0:0x00000000
       41175000	      4116	8000441c	00000013	addi	x0,x0,0	  x0:0x00000000
       41185000	      4117	80004420	010bf463	bgeu	x23,x16,80004428	 x23:0xfffff819 x16:0x000005d9
       41195000	      4118	00000000	00000013	addi	x0,x0,0	  x0:0x00000000
       41205000	      4119	80004424	00000013	addi	x0,x0,0	  x0:0x00000000
       41215000	      4120	80004428	fcc98993	addi	x19,x19,-52	 x19:0x80009f48 x19=0x80009f14
       41225000	      4121	8000442c	82b3ef13	ori	x30,x7,-2005	  x7:0x00000080 x30=0xfffff8ab
       41235000	      4122	80004430	27a66113	ori	x2,x12,634	 x12:0x00000000  x2=0x0000027a
       41245000	      4123	80004434	0069a223	sw	x6,4(x19)	 x19:0x80009f14  x6:0x80002d18 PA:0x80009f18
       41255000	      4124	80004438	014fd893	srli	x17,x31,0x14	 x31:0x00000001 x17=0x00000000
       41265000	      4125	8000443c	00f2a033	slt	x0,x5,x15	  x5:0x00000c73 x15:0x00000000
       41275000	      4126	80004440	001ae433	or	x8,x21,x1	 x21:0xf619dc5c  x1:0x00000000  x8=0xf619dc5c
       41285000	      4127	80004444	06c0036f	jal	x6,80004444	  x6=0x80004444
       41295000	      4128	00000000	00000013	addi	x0,x0,0	  x0:0x00000000
       41305000	      4129	800044ac	00000013	addi	x0,x0,0	  x0:0x00000000
       41315000	      4130	800044b0	fa5ff0ef	jal	x1,800044b0	  x1=0x800044b0
       41325000	      4131	00000000	00000013	addi	x0,x0,0	  x0:0x00000000
       41335000	      4132	80004450	00000013	addi	x0,x0,0	  x0:0x00000000
       41345000	      4133	80004454	010000ef	jal	x1,80004454	  x1=0x80004454
       41355000	      4134	00000000	00000013	addi	x0,x0,0	  x0:0x00000000
       41365000	      4135	80004460	00000013	addi	x0,x0,0	  x0:0x00000000
       41375000	      4136	80004464	fe9ff0ef	jal	x1,80004464	  x1=0x80004464
       41385000	      4137	00000000	00000013	addi	x0,x0,0	  x0:0x00000000
       41395000	      4138	80004448	00000013	addi	x0,x0,0	  x0:0x00000000
       41405000	      4139	8000444c	020000ef	jal	x1,8000444c	  x1=0x8000444c
       41415000	      4140	00000000	00000013	addi	x0,x0,0	  x0:0x00000000
       41425000	      4141	80004468	00000013	addi	x0,x0,0	  x0:0x00000000
       41435000	      4142	8000446c	0240036f	jal	x6,8000446c	  x6=0x8000446c
       41445000	      4143	00000000	00000013	addi	x0,x0,0	  x0:0x00000000
       41455000	      4144	8000448c	00000013	addi	x0,x0,0	  x0:0x00000000
       41465000	      4145	80004490	ffdff36f	jal	x6,80004490	  x6=0x80004490
       41475000	      4146	00000000	00000013	addi	x0,x0,0	  x0:0x00000000
       41485000	      4147	80004488	00000013	addi	x0,x0,0	  x0:0x00000000
       41495000	      4148	8000448c	fd5ff0ef	jal	x1,8000448c	  x1=0x8000448c
       41505000	      4149	00000000	00000013	addi	x0,x0,0	  x0:0x00000000
       41515000	      4150	8000445c	00000013	addi	x0,x0,0	  x0:0x00000000
       41525000	      4151	80004460	0340016f	jal	x2,80004460	  x2=0x80004460
       41535000	      4152	00000000	00000013	addi	x0,x0,0	  x0:0x00000000
       41545000	      4153	80004490	00000013	addi	x0,x0,0	  x0:0x00000000
       41555000	      4154	80004494	fd5ff0ef	jal	x1,80004494	  x1=0x80004494
       41565000	      4155	00000000	00000013	addi	x0,x0,0	  x0:0x00000000
       41575000	      4156	80004464	00000013	addi	x0,x0,0	  x0:0x00000000
       41585000	      4157	80004468	fe9ff0ef	jal	x1,80004468	  x1=0x80004468
       41595000	      4158	00000000	00000013	addi	x0,x0,0	  x0:0x00000000
       41605000	      4159	8000444c	00000013	addi	x0,x0,0	  x0:0x00000000
       41615000	      4160	80004450	008000ef	jal	x1,80004450	  x1=0x80004450
       41625000	      4161	00000000	00000013	addi	x0,x0,0	  x0:0x00000000
       41635000	      4162	80004454	00000013	addi	x0,x0,0	  x0:0x00000000
       41645000	      4163	80004458	01c000ef	jal	x1,80004458	  x1=0x80004458
       41655000	      4164	00000000	00000013	addi	x0,x0,0	  x0:0x00000000
       41665000	      4165	80004470	00000013	addi	x0,x0,0	  x0:0x00000000
       41675000	      4166	80004474	028000ef	jal	x1,80004474	  x1=0x80004474
       41685000	      4167	00000000	00000013	addi	x0,x0,0	  x0:0x00000000
       41695000	      4168	80004498	00000013	addi	x0,x0,0	  x0:0x00000000
       41705000	      4169	8000449c	fedff0ef	jal	x1,8000449c	  x1=0x8000449c
       41715000	      4170	00000000	00000013	addi	x0,x0,0	  x0:0x00000000
       41725000	      4171	80004484	00000013	addi	x0,x0,0	  x0:0x00000000
       41735000	      4172	80004488	0100016f	jal	x2,80004488	  x2=0x80004488
       41745000	      4173	00000000	00000013	addi	x0,x0,0	  x0:0x00000000
       41755000	      4174	80004494	00000013	addi	x0,x0,0	  x0:0x00000000
       41765000	      4175	80004498	00c0026f	jal	x4,80004498	  x4=0x80004498
       41775000	      4176	00000000	00000013	addi	x0,x0,0	  x0:0x00000000
       41785000	      4177	800044a0	00000013	addi	x0,x0,0	  x0:0x00000000
       41795000	      4178	800044a4	008001ef	jal	x3,800044a4	  x3=0x800044a4
       41805000	      4179	00000000	00000013	addi	x0,x0,0	  x0:0x00000000
       41815000	      4180	800044a8	00000013	addi	x0,x0,0	  x0:0x00000000
       41825000	      4181	800044ac	ffdff0ef	jal	x1,800044ac	  x1=0x800044ac
       41835000	      4182	00000000	00000013	addi	x0,x0,0	  x0:0x00000000
       41845000	      4183	800044a4	00000013	addi	x0,x0,0	  x0:0x00000000
       41855000	      4184	800044a8	fd5ff36f	jal	x6,800044a8	  x6=0x800044a8
       41865000	      4185	00000000	00000013	addi	x0,x0,0	  x0:0x00000000
       41875000	      4186	80004478	00000013	addi	x0,x0,0	  x0:0x00000000
       41885000	      4187	8000447c	0240036f	jal	x6,8000447c	  x6=0x8000447c
       41895000	      4188	00000000	00000013	addi	x0,x0,0	  x0:0x00000000
       41905000	      4189	8000449c	00000013	addi	x0,x0,0	  x0:0x00000000
       41915000	      4190	800044a0	fe1ff0ef	jal	x1,800044a0	  x1=0x800044a0
       41925000	      4191	00000000	00000013	addi	x0,x0,0	  x0:0x00000000
       41935000	      4192	8000447c	00000013	addi	x0,x0,0	  x0:0x00000000
       41945000	      4193	80004480	fddff36f	jal	x6,80004480	  x6=0x80004480
       41955000	      4194	00000000	00000013	addi	x0,x0,0	  x0:0x00000000
       41965000	      4195	80004458	00000013	addi	x0,x0,0	  x0:0x00000000
       41975000	      4196	8000445c	0140036f	jal	x6,8000445c	  x6=0x8000445c
       41985000	      4197	00000000	00000013	addi	x0,x0,0	  x0:0x00000000
       41995000	      4198	8000446c	00000013	addi	x0,x0,0	  x0:0x00000000
       42005000	      4199	80004470	01400f6f	jal	x30,80004470	 x30=0x80004470
       42015000	      4200	00000000	00000013	addi	x0,x0,0	  x0:0x00000000
       42025000	      4201	80004480	00000013	addi	x0,x0,0	  x0:0x00000000
       42035000	      4202	80004484	ff5fffef	jal	x31,80004484	 x31=0x80004484
       42045000	      4203	00000000	00000013	addi	x0,x0,0	  x0:0x00000000
       42055000	      4204	80004474	00000013	addi	x0,x0,0	  x0:0x00000000
       42065000	      4205	80004478	fd1ffa6f	jal	x20,80004478	 x20=0x80004478
       42075000	      4206	00000000	00000013	addi	x0,x0,0	  x0:0x00000000
       42085000	      4207	80004444	00000013	addi	x0,x0,0	  x0:0x00000000
       42095000	      4208	80004448	06c000ef	jal	x1,80004448	  x1=0x80004448
       42105000	      4209	00000000	00000013	addi	x0,x0,0	  x0:0x00000000
       42115000	      4210	800044b0	00000013	addi	x0,x0,0	  x0:0x00000000
       42125000	      4211	800044b4	41fa02b3	sub	x5,x20,x31	 x20:0x80004478 x31:0x80004484  x5=0xfffffff4
       42135000	      4212	800044b8	0012ecb3	or	x25,x5,x1	  x5:0xfffffff4  x1:0x80004448 x25=0xfffffffc
       42145000	      4213	800044bc	01e9bc33	sltu	x24,x19,x30	 x19:0x80009f14 x30:0x80004470 x24=0x00000000
       42155000	      4214	800044c0	01955c93	srli	x25,x10,0x19	 x10:0x00000000 x25=0x00000000
       42165000	      4215	800044c4	0034a833	slt	x16,x9,x3	  x9:0x00020002  x3:0x800044a4 x16=0x00000000
       42175000	      4216	800044c8	40105693	srai	x13,x0,0x1	  x0:0x00000000 x13=0x00000000
       42185000	      4217	800044cc	00ed3033	sltu	x0,x26,x14	 x26:0x00000000 x14:0xe00027f1
       42195000	      4218	800044d0	00000013	addi	x0,x0,0	  x0:0x00000000
       42205000	      4219	800044d4	5e068a93	addi	x21,x13,1504	 x13:0x00000000 x21=0x000005e0
       42215000	      4220	800044d8	478f4097	auipc	x1,0x478f4	  x1=0xc78f84d4
       42225000	      4221	800044dc	018d80b3	add	x1,x27,x24	 x27:0x80004462 x24:0x00000000  x1=0x80004462
       42235000	      4222	800044e0	016ade63	bge	x21,x22,800044fc	 x21:0x000005e0 x22:0xfffffff2
       42245000	      4223	00000000	00000013	addi	x0,x0,0	  x0:0x00000000
       42255000	      4224	800044f8	00000013	addi	x0,x0,0	  x0:0x00000000
       42265000	      4225	800044fc	01a0b1b3	sltu	x3,x1,x26	  x1:0x80004462 x26:0x00000000  x3=0x00000000
       42275000	      4226	80004500	303f0513	addi	x10,x30,771	 x30:0x80004470 x10=0x80004773
       42285000	      4227	80004504	02b28263	beq	x5,x11,80004528	  x5:0xfffffff4 x11:0x80009fc4
       42295000	      4228	80004508	011bd113	srli	x2,x23,0x11	 x23:0xfffff819  x2=0x00007fff
       42305000	      4229	8000450c	0349c263	blt	x19,x20,80004530	 x19:0x80009f14 x20:0x80004478
       42315000	      4230	80004510	0145c733	xor	x14,x11,x20	 x11:0x80009fc4 x20:0x80004478 x14=0x0000dbbc
       42325000	      4231	80004514	00587c63	bgeu	x16,x5,8000452c	 x16:0x00000000  x5:0xfffffff4
       42335000	      4232	80004518	011e1cb3	sll	x25,x28,x17	 x28:0x00000001 x17:0x00000000 x25=0x00000001
       42345000	      4233	8000451c	2a1bff37	lui	x30,0x2a1bf	 x30=0x2a1bf000
       42355000	      4234	80004520	00340933	add	x18,x8,x3	  x8:0xf619dc5c  x3:0x00000000 x18=0xf619dc5c
       42365000	      4235	80004524	402f8db3	sub	x27,x31,x2	 x31:0x80004484  x2:0x00007fff x27=0x7fffc485
       42375000	      4236	80004528	01916663	bltu	x2,x25,80004534	  x2:0x00007fff x25:0x00000001
       42385000	      4237	8000452c	06bade63	bge	x21,x11,800045a8	 x21:0x000005e0 x11:0x80009fc4
       42395000	      4238	00000000	00000013	addi	x0,x0,0	  x0:0x00000000
       42405000	      4239	800045a4	00000013	addi	x0,x0,0	  x0:0x00000000
       42415000	      4240	800045a8	00000013	addi	x0,x0,0	  x0:0x00000000
       42425000	      4241	800045ac	002f6e33	or	x28,x30,x2	 x30:0x2a1bf000  x2:0x00007fff x28=0x2a1bffff
       42435000	      4242	800045b0	27e18737	lui	x14,0x27e18	 x14=0x27e18000
       42445000	      4243	800045b4	05eaf063	bgeu	x21,x30,800045f4	 x21:0x000005e0 x30:0x2a1bf000
       42455000	      4244	800045b8	01636333	or	x6,x6,x22	  x6:0x8000445c x22:0xfffffff2  x6=0xfffffffe
       42465000	      4245	800045bc	00ee92b3	sll	x5,x29,x14	 x29:0x00000000 x14:0x27e18000  x5=0x00000000
       42475000	      4246	800045c0	69bc3c93	sltiu	x25,x24,1691	 x24:0x00000000 x25=0x00000001
       42485000	      4247	800045c4	cab87b93	andi	x23,x16,-853	 x16:0x00000000 x23=0x00000000
       42495000	      4248	800045c8	418d5793	srai	x15,x26,0x18	 x26:0x00000000 x15=0x00000000
       42505000	      4249	800045cc	dbe3ff93	andi	x31,x7,-578	  x7:0x00000080 x31=0x00000080
       42515000	      4250	800045d0	009e1a63	bne	x28,x9,800045e4	 x28:0x2a1bffff  x9:0x00020002
       42525000	      4251	00000000	00000013	addi	x0,x0,0	  x0:0x00000000
       42535000	      4252	800045e0	00000013	addi	x0,x0,0	  x0:0x00000000
       42545000	      4253	800045e4	011c2d33	slt	x26,x24,x17	 x24:0x00000000 x17:0x00000000 x26=0x00000000
       42555000	      4254	800045e8	01bda6b3	slt	x13,x27,x27	 x27:0x7fffc485 x27:0x7fffc485 x13=0x00000000
       42565000	      4255	800045ec	41c68133	sub	x2,x13,x28	 x13:0x00000000 x28:0x2a1bffff  x2=0xd5e40001
       42575000	      4256	800045f0	00000013	addi	x0,x0,0	  x0:0x00000000
       42585000	      4257	800045f4	02ddfe63	bgeu	x27,x13,80004630	 x27:0x7fffc485 x13:0x00000000
       42595000	      4258	00000000	00000013	addi	x0,x0,0	  x0:0x00000000
       42605000	      4259	8000462c	00000013	addi	x0,x0,0	  x0:0x00000000
       42615000	      4260	80004630	00fb1b13	slli	x22,x22,0xf	 x22:0xfffffff2 x22=0xfff90000
       42625000	      4261	80004634	5c9aca13	xori	x20,x21,1481	 x21:0x000005e0 x20=0x00000029
       42635000	      4262	80004638	000fda13	srli	x20,x31,0x0	 x31:0x00000080 x20=0x00000080
       42645000	      4263	8000463c	01931f33	sll	x30,x6,x25	  x6:0xfffffffe x25:0x00000001 x30=0xfffffffc
       42655000	      4264	80004640	07e09837	lui	x16,0x7e09	 x16=0x07e09000
       42665000	      4265	80004644	013d16b3	sll	x13,x26,x19	 x26:0x00000000 x19:0x80009f14 x13=0x00000000
       42675000	      4266	80004648	e9fe8093	addi	x1,x29,-353	 x29:0x00000000  x1=0xfffffe9f
       42685000	      4267	8000464c	00612c33	slt	x24,x2,x6	  x2:0xd5e40001  x6:0xfffffffe x24=0x00000001
       42695000	      4268	80004650	01673a33	sltu	x20,x14,x22	 x14:0x27e18000 x22:0xfff90000 x20=0x00000001
       42705000	      4269	80004654	0049a303	lw	x6,4(x19)	 x19:0x80009f14  x6=0x80002d18 PA:0x80009f18
       42715000	      4270	80004658	0143a833	slt	x16,x7,x20	  x7:0x00000080 x20:0x00000001 x16=0x00000000
       42725000	      4271	8000465c	01cd1293	slli	x5,x26,0x1c	 x26:0x00000000  x5=0x00000000
       42735000	      4272	80004660	03498993	addi	x19,x19,52	 x19:0x80009f14 x19=0x80009f48
       42745000	      4273	80004664	143f8d93	addi	x27,x31,323	 x31:0x00000080 x27=0x000001c3
       42755000	      4274	80004668	4073d2b3	sra	x5,x7,x7	  x7:0x00000080  x7:0x00000080  x5=0x00000080
       42765000	      4275	8000466c	00130b93	addi	x23,x6,1	  x6:0x80002d18 x23=0x80002d19
       42775000	      4276	80004670	000b8be7	jalr	x23,x23,0	 x23:0x80002d19 x23=0x80004670
       42785000	      4277	00000000	00000013	addi	x0,x0,0	  x0:0x00000000
       42795000	      4278	80002d18	00000013	addi	x0,x0,0	  x0:0x00000000
       42805000	      4279	80002d1c	00979293	slli	x5,x15,0x9	 x15:0x00000000  x5=0x00000000
       42815000	      4280	80002d20	00504ab3	xor	x21,x0,x5	  x0:0x00000000  x5:0x00000000 x21=0x00000000
       42825000	      4281	80002d24	0051d2b3	srl	x5,x3,x5	  x3:0x00000000  x5:0x00000000  x5=0x00000000
       42835000	      4282	80002d28	017130b3	sltu	x1,x2,x23	  x2:0xd5e40001 x23:0x80004670  x1=0x00000000
       42845000	      4283	80002d2c	006473b3	and	x7,x8,x6	  x8:0xf619dc5c  x6:0x80002d18  x7=0x80000c18
       42855000	      4284	80002d30	6b452393	slti	x7,x10,1716	 x10:0x80004773  x7=0x00000001
       42865000	      4285	80002d34	00ebd033	srl	x0,x23,x14	 x23:0x80004670 x14:0x27e18000
       42875000	      4286	80002d38	008ef863	bgeu	x29,x8,80002d48	 x29:0x00000000  x8:0xf619dc5c
       42885000	      4287	80002d3c	41c5d533	sra	x10,x11,x28	 x11:0x80009fc4 x28:0x2a1bffff x10=0xffffffff
       42895000	      4288	80002d40	00fdb4b3	sltu	x9,x27,x15	 x27:0x000001c3 x15:0x00000000  x9=0x00000000
       42905000	      4289	80002d44	8f493413	sltiu	x8,x18,-1804	 x18:0xf619dc5c  x8=0x00000001
       42915000	      4290	80002d48	01602433	slt	x8,x0,x22	  x0:0x00000000 x22:0xfff90000  x8=0x00000000
       42925000	      4291	80002d4c	004a7cb3	and	x25,x20,x4	 x20:0x00000001  x4:0x80004498 x25=0x00000000
       42935000	      4292	80002d50	0126d333	srl	x6,x13,x18	 x13:0x00000000 x18:0xf619dc5c  x6=0x00000000
       42945000	      4293	80002d54	02aff663	bgeu	x31,x10,80002d80	 x31:0x00000080 x10:0xffffffff
       42955000	      4294	80002d58	ecb7b013	sltiu	x0,x15,-309	 x15:0x00000000
       42965000	      4295	80002d5c	008ed113	srli	x2,x29,0x8	 x29:0x00000000  x2=0x00000000
       42975000	      4296	80002d60	a253bab7	lui	x21,0xa253b	 x21=0xa253b000
       42985000	      4297	80002d64	4049dd33	sra	x26,x19,x4	 x19:0x80009f48  x4:0x80004498 x26=0xffffff80
       42995000	      4298	80002d68	60f64613	xori	x12,x12,1551	 x12:0x00000000 x12=0x0000060f
       43005000	      4299	80002d6c	41ed87b3	sub	x15,x27,x30	 x27:0x000001c3 x30:0xfffffffc x15=0x000001c7
       43015000	      4300	80002d70	01a86e63	bltu	x16,x26,80002d8c	 x16:0x00000000 x26:0xffffff80
       43025000	      4301	00000000	00000013	addi	x0,x0,0	  x0:0x00000000
       43035000	      4302	80002d88	00000013	addi	x0,x0,0	  x0:0x00000000
       43045000	      4303	80002d8c	01731a13	slli	x20,x6,0x17	  x6:0x00000000 x20=0x00000000
       43055000	      4304	80002d90	a2654913	xori	x18,x10,-1498	 x10:0xffffffff x18=0x000005d9
       43065000	      4305	80002d94	05bb6663	bltu	x22,x27,80002de0	 x22:0xfff90000 x27:0x000001c3
       43075000	      4306	80002d98	01451633	sll	x12,x10,x20	 x10:0xffffffff x20:0x00000000 x12=0xffffffff
       43085000	      4307	80002d9c	a66b3193	sltiu	x3,x22,-1434	 x22:0xfff90000  x3=0x00000001
       43095000	      4308	80002da0	399f3d93	sltiu	x27,x30,921	 x30:0xfffffffc x27=0x00000000
       43105000	      4309	80002da4	01c56233	or	x4,x10,x28	 x10:0xffffffff x28:0x2a1bffff  x4=0xffffffff
       43115000	      4310	80002da8	41f9d213	srai	x4,x19,0x1f	 x19:0x80009f48  x4=0xffffffff
       43125000	      4311	80002dac	01ad54b3	srl	x9,x26,x26	 x26:0xffffff80 x26:0xffffff80  x9=0xffffff80
       43135000	      4312	80002db0	01a75813	srli	x16,x14,0x1a	 x14:0x27e18000 x16=0x00000009
       43145000	      4313	80002db4	00174d33	xor	x26,x14,x1	 x14:0x27e18000  x1:0x00000000 x26=0x27e18000
       43155000	      4314	80002db8	037ed063	bge	x29,x23,80002dd8	 x29:0x00000000 x23:0x80004670
       43165000	      4315	00000000	00000013	addi	x0,x0,0	  x0:0x00000000
       43175000	      4316	80002dd4	00000013	addi	x0,x0,0	  x0:0x00000000
       43185000	      4317	80002dd8	52cc8013	addi	x0,x25,1324	 x25:0x00000000
       43195000	      4318	80002ddc	00ce8d33	add	x26,x29,x12	 x29:0x00000000 x12:0xffffffff x26=0xffffffff
       43205000	      4319	80002de0	0556c263	blt	x13,x21,80002e24	 x13:0x00000000 x21:0xa253b000
       43215000	      4320	80002de4	4ba55037	lui	x0,0x4ba55	
       43225000	      4321	80002de8	05c1f663	bgeu	x3,x28,80002e34	  x3:0x00000001 x28:0x2a1bffff
       43235000	      4322	80002dec	01a00db3	add	x27,x0,x26	  x0:0x00000000 x26:0xffffffff x27=0xffffffff
       43245000	      4323	80002df0	00cfec63	bltu	x31,x12,80002e08	 x31:0x00000080 x12:0xffffffff
       43255000	      4324	00000000	00000013	addi	x0,x0,0	  x0:0x00000000
       43265000	      4325	80002e04	00000013	addi	x0,x0,0	  x0:0x00000000
       43275000	      4326	80002e08	000e02b3	add	x5,x28,x0	 x28:0x2a1bffff  x0:0x00000000  x5=0x2a1bffff
       43285000	      4327	80002e0c	983ef037	lui	x0,0x983ef	
       43295000	      4328	80002e10	86414093	xori	x1,x2,-1948	  x2:0x00000000  x1=0xfffff864
       43305000	      4329	80002e14	d7f0eb93	ori	x23,x1,-641	  x1:0xfffff864 x23=0xfffffd7f
       43315000	      4330	80002e18	41d45033	sra	x0,x8,x29	  x8:0x00000000 x29:0x00000000
       43325000	      4331	80002e1c	43076317	auipc	x6,0x43076	  x6=0xc3078e18
       43335000	      4332	80002e20	4062d413	srai	x8,x5,0x6	  x5:0x2a1bffff  x8=0x00a86fff
       43345000	      4333	80002e24	00000013	addi	x0,x0,0	  x0:0x00000000
       43355000	      4334	80002e28	aff8cc17	auipc	x24,0xaff8c	 x24=0x2ff8ee24
       43365000	      4335	80002e2c	40bf5633	sra	x12,x30,x11	 x30:0xfffffffc x11:0x80009fc4 x12=0xffffffff
       43375000	      4336	80002e30	01609b93	slli	x23,x1,0x16	  x1:0xfffff864 x23=0x19000000
       43385000	      4337	80002e34	034e9263	bne	x29,x20,80002e58	 x29:0x00000000 x20:0x00000000
       43395000	      4338	80002e38	af810893	addi	x17,x2,-1288	  x2:0x00000000 x17=0xfffffaf8
       43405000	      4339	80002e3c	01b1af33	slt	x30,x3,x27	  x3:0x00000001 x27:0xffffffff x30=0x00000000
       43415000	      4340	80002e40	004093b3	sll	x7,x1,x4	  x1:0xfffff864  x4:0xffffffff  x7=0x00000000
       43425000	      4341	80002e44	11363cb7	lui	x25,0x11363	 x25=0x11363000
       43435000	      4342	80002e48	00795e13	srli	x28,x18,0x7	 x18:0x000005d9 x28=0x0000000b
       43445000	      4343	80002e4c	41ad58b3	sra	x17,x26,x26	 x26:0xffffffff x26:0xffffffff x17=0xffffffff
       43455000	      4344	80002e50	038bf863	bgeu	x23,x24,80002e80	 x23:0x19000000 x24:0x2ff8ee24
       43465000	      4345	80002e54	00a7ae33	slt	x28,x15,x10	 x15:0x000001c7 x10:0xffffffff x28=0x00000000
       43475000	      4346	80002e58	41695ab3	sra	x21,x18,x22	 x18:0x000005d9 x22:0xfff90000 x21=0x000005d9
       43485000	      4347	80002e5c	02581863	bne	x16,x5,80002e8c	 x16:0x00000009  x5:0x2a1bffff
       43495000	      4348	00000000	00000013	addi	x0,x0,0	  x0:0x00000000
       43505000	      4349	80002e88	00000013	addi	x0,x0,0	  x0:0x00000000
       43515000	      4350	80002e8c	01f2a0b3	slt	x1,x5,x31	  x5:0x2a1bffff x31:0x00000080  x1=0x00000000
       43525000	      4351	80002e90	40140733	sub	x14,x8,x1	  x8:0x00a86fff  x1:0x00000000 x14=0x00a86fff
       43535000	      4352	80002e94	05f59263	bne	x11,x31,80002ed8	 x11:0x80009fc4 x31:0x00000080
       43545000	      4353	00000000	00000013	addi	x0,x0,0	  x0:0x00000000
       43555000	      4354	80002ed4	00000013	addi	x0,x0,0	  x0:0x00000000
       43565000	      4355	80002ed8	0065f433	and	x8,x11,x6	 x11:0x80009fc4  x6:0xc3078e18  x8=0x80008e00
       43575000	      4356	80002edc	4073df13	srai	x30,x7,0x7	  x7:0x00000000 x30=0x00000000
       43585000	      4357	80002ee0	01d9c833	xor	x16,x19,x29	 x19:0x80009f48 x29:0x00000000 x16=0x80009f48
       43595000	      4358	80002ee4	05e6c863	blt	x13,x30,80002f34	 x13:0x00000000 x30:0x00000000
       43605000	      4359	80002ee8	0657d063	bge	x15,x5,80002f48	 x15:0x000001c7  x5:0x2a1bffff
       43615000	      4360	80002eec	0280036f	jal	x6,80002eec	  x6=0x80002eec
       43625000	      4361	00000000	00000013	addi	x0,x0,0	  x0:0x00000000
       43635000	      4362	80002f10	00000013	addi	x0,x0,0	  x0:0x00000000
       43645000	      4363	80002f14	fe1ff36f	jal	x6,80002f14	  x6=0x80002f14
       43655000	      4364	00000000	00000013	addi	x0,x0,0	  x0:0x00000000
       43665000	      4365	80002ef0	00000013	addi	x0,x0,0	  x0:0x00000000
       43675000	      4366	80002ef4	018000ef	jal	x1,80002ef4	  x1=0x80002ef4
       43685000	      4367	00000000	00000013	addi	x0,x0,0	  x0:0x00000000
       43695000	      4368	80002f08	00000013	addi	x0,x0,0	  x0:0x00000000
       43705000	      4369	80002f0c	fedff0ef	jal	x1,80002f0c	  x1=0x80002f0c
       43715000	      4370	00000000	00000013	addi	x0,x0,0	  x0:0x00000000
       43725000	      4371	80002ef4	00000013	addi	x0,x0,0	  x0:0x00000000
       43735000	      4372	80002ef8	0180036f	jal	x6,80002ef8	  x6=0x80002ef8
       43745000	      4373	00000000	00000013	addi	x0,x0,0	  x0:0x00000000
       43755000	      4374	80002f0c	00000013	addi	x0,x0,0	  x0:0x00000000
       43765000	      4375	80002f10	ff1ff36f	jal	x6,80002f10	  x6=0x80002f10
       43775000	      4376	00000000	00000013	addi	x0,x0,0	  x0:0x00000000
       43785000	      4377	80002efc	00000013	addi	x0,x0,0	  x0:0x00000000
       43795000	      4378	80002f00	004000ef	jal	x1,80002f00	  x1=0x80002f00
       43805000	      4379	00000000	00000013	addi	x0,x0,0	  x0:0x00000000
       43815000	      4380	80002f00	00000013	addi	x0,x0,0	  x0:0x00000000
       43825000	      4381	80002f04	ff9ffb6f	jal	x22,80002f04	 x22=0x80002f04
       43835000	      4382	00000000	00000013	addi	x0,x0,0	  x0:0x00000000
       43845000	      4383	80002ef8	00000013	addi	x0,x0,0	  x0:0x00000000
       43855000	      4384	80002efc	ff5ff0ef	jal	x1,80002efc	  x1=0x80002efc
       43865000	      4385	00000000	00000013	addi	x0,x0,0	  x0:0x00000000
       43875000	      4386	80002eec	00000013	addi	x0,x0,0	  x0:0x00000000
       43885000	      4387	80002ef0	018002ef	jal	x5,80002ef0	  x5=0x80002ef0
       43895000	      4388	00000000	00000013	addi	x0,x0,0	  x0:0x00000000
       43905000	      4389	80002f04	00000013	addi	x0,x0,0	  x0:0x00000000
       43915000	      4390	80002f08	010000ef	jal	x1,80002f08	  x1=0x80002f08
       43925000	      4391	00000000	00000013	addi	x0,x0,0	  x0:0x00000000
       43935000	      4392	80002f14	00000013	addi	x0,x0,0	  x0:0x00000000
       43945000	      4393	80002f18	4ad00517	auipc	x10,0x4ad00	 x10=0xcad02f14
       43955000	      4394	80002f1c	02676263	bltu	x14,x6,80002f40	 x14:0x00a86fff  x6:0x80002f10
       43965000	      4395	00000000	00000013	addi	x0,x0,0	  x0:0x00000000
       43975000	      4396	80002f3c	00000013	addi	x0,x0,0	  x0:0x00000000
       43985000	      4397	80002f40	00a8a8b3	slt	x17,x17,x10	 x17:0xffffffff x10:0xcad02f14 x17=0x00000000
       43995000	      4398	80002f44	00822fb3	slt	x31,x4,x8	  x4:0xffffffff  x8:0x80008e00 x31=0x00000000
       44005000	      4399	80002f48	41d8d533	sra	x10,x17,x29	 x17:0x00000000 x29:0x00000000 x10=0x00000000
       44015000	      4400	80002f4c	00559093	slli	x1,x11,0x5	 x11:0x80009fc4  x1=0x0013f880
       44025000	      4401	80002f50	011eb4b3	sltu	x9,x29,x17	 x29:0x00000000 x17:0x00000000  x9=0x00000000
       44035000	      4402	80002f54	00ccf863	bgeu	x25,x12,80002f64	 x25:0x11363000 x12:0xffffffff
       44045000	      4403	80002f58	024dd663	bge	x27,x4,80002f84	 x27:0xffffffff  x4:0xffffffff
       44055000	      4404	00000000	00000013	addi	x0,x0,0	  x0:0x00000000
       44065000	      4405	80002f80	00000013	addi	x0,x0,0	  x0:0x00000000
       44075000	      4406	80002f84	62d82393	slti	x7,x16,1581	 x16:0x80009f48  x7=0x00000001
       44085000	      4407	80002f88	00000013	addi	x0,x0,0	  x0:0x00000000
       44095000	      4408	80002f8c	134a7f13	andi	x30,x20,308	 x20:0x00000000 x30=0x00000000
       44105000	      4409	80002f90	00522b33	slt	x22,x4,x5	  x4:0xffffffff  x5:0x80002ef0 x22=0x00000000
       44115000	      4410	80002f94	0139d1b3	srl	x3,x19,x19	 x19:0x80009f48 x19:0x80009f48  x3=0x0080009f
       44125000	      4411	80002f98	40eeda33	sra	x20,x29,x14	 x29:0x00000000 x14:0x00a86fff x20=0x00000000
       44135000	      4412	80002f9c	004e5893	srli	x17,x28,0x4	 x28:0x00000000 x17=0x00000000
       44145000	      4413	80002fa0	014ea1b3	slt	x3,x29,x20	 x29:0x00000000 x20:0x00000000  x3=0x00000000
       44155000	      4414	80002fa4	01b89a33	sll	x20,x17,x27	 x17:0x00000000 x27:0xffffffff x20=0x00000000
       44165000	      4415	80002fa8	04594263	blt	x18,x5,80002fec	 x18:0x000005d9  x5:0x80002ef0
       44175000	      4416	80002fac	c0aeee13	ori	x28,x29,-1014	 x29:0x00000000 x28=0xfffffc0a
       44185000	      4417	80002fb0	b8ec8d93	addi	x27,x25,-1138	 x25:0x11363000 x27=0x11362b8e
       44195000	      4418	80002fb4	c63d0293	addi	x5,x26,-925	 x26:0xffffffff  x5=0xfffffc62
       44205000	      4419	80002fb8	0020b4b3	sltu	x9,x1,x2	  x1:0x0013f880  x2:0x00000000  x9=0x00000000
       44215000	      4420	80002fbc	016cad33	slt	x26,x25,x22	 x25:0x11363000 x22:0x00000000 x26=0x00000000
       44225000	      4421	80002fc0	009d9a13	slli	x20,x27,0x9	 x27:0x11362b8e x20=0x6c571c00
       44235000	      4422	80002fc4	c75c7bb7	lui	x23,0xc75c7	 x23=0xc75c7000
       44245000	      4423	80002fc8	04d19663	bne	x3,x13,80003014	  x3:0x00000000 x13:0x00000000
       44255000	      4424	80002fcc	01fa0a33	add	x20,x20,x31	 x20:0x6c571c00 x31:0x00000000 x20=0x6c571c00
       44265000	      4425	80002fd0	011673b3	and	x7,x12,x17	 x12:0xffffffff x17:0x00000000  x7=0x00000000
       44275000	      4426	80002fd4	05b69663	bne	x13,x27,80003020	 x13:0x00000000 x27:0x11362b8e
       44285000	      4427	00000000	00000013	addi	x0,x0,0	  x0:0x00000000
       44295000	      4428	8000301c	00000013	addi	x0,x0,0	  x0:0x00000000
       44305000	      4429	80003020	9f4fe613	ori	x12,x31,-1548	 x31:0x00000000 x12=0xfffff9f4
       44315000	      4430	80003024	408a5f33	sra	x30,x20,x8	 x20:0x6c571c00  x8:0x80008e00 x30=0x6c571c00
       44325000	      4431	80003028	bd7df393	andi	x7,x27,-1065	 x27:0x11362b8e  x7=0x11362b86
       44335000	      4432	8000302c	04c24063	blt	x4,x12,8000306c	  x4:0xffffffff x12:0xfffff9f4
       44345000	      4433	80003030	36e76c13	ori	x24,x14,878	 x14:0x00a86fff x24=0x00a86fff
       44355000	      4434	80003034	0538e263	bltu	x17,x19,80003078	 x17:0x00000000 x19:0x80009f48
       44365000	      4435	00000000	00000013	addi	x0,x0,0	  x0:0x00000000
       44375000	      4436	80003074	00000013	addi	x0,x0,0	  x0:0x00000000
       44385000	      4437	80003078	00257933	and	x18,x10,x2	 x10:0x00000000  x2:0x00000000 x18=0x00000000
       44395000	      4438	8000307c	04050263	beq	x10,x0,800030c0	 x10:0x00000000  x0:0x00000000
       44405000	      4439	00000000	00000013	addi	x0,x0,0	  x0:0x00000000
       44415000	      4440	800030bc	00000013	addi	x0,x0,0	  x0:0x00000000
       44425000	      4441	800030c0	007eddb3	srl	x27,x29,x7	 x29:0x00000000  x7:0x11362b86 x27=0x00000000
       44435000	      4442	800030c4	d0a4a393	slti	x7,x9,-758	  x9:0x00000000  x7=0x00000000
       44445000	      4443	800030c8	e5dee393	ori	x7,x29,-419	 x29:0x00000000  x7=0xfffffe5d
       44455000	      4444	800030cc	01270a33	add	x20,x14,x18	 x14:0x00a86fff x18:0x00000000 x20=0x00a86fff
       44465000	      4445	800030d0	f433a093	slti	x1,x7,-189	  x7:0xfffffe5d  x1=0x00000001
       44475000	      4446	800030d4	c1cf7f93	andi	x31,x30,-996	 x30:0x6c571c00 x31=0x6c571c00
       44485000	      4447	800030d8	00ba8cb3	add	x25,x21,x11	 x21:0x000005d9 x11:0x80009fc4 x25=0x8000a59d
       44495000	      4448	800030dc	01e50633	add	x12,x10,x30	 x10:0x00000000 x30:0x6c571c00 x12=0x6c571c00
       44505000	      4449	800030e0	025c7c63	bgeu	x24,x5,80003118	 x24:0x00a86fff  x5:0xfffffc62
       44515000	      4450	800030e4	00cdea63	bltu	x27,x12,800030f8	 x27:0x00000000 x12:0x6c571c00
       44525000	      4451	00000000	00000013	addi	x0,x0,0	  x0:0x00000000
       44535000	      4452	800030f4	00000013	addi	x0,x0,0	  x0:0x00000000
       44545000	      4453	800030f8	007d2bb3	slt	x23,x26,x7	 x26:0x00000000  x7:0xfffffe5d x23=0x00000000
       44555000	      4454	800030fc	016b08b3	add	x17,x22,x22	 x22:0x00000000 x22:0x00000000 x17=0x00000000
       44565000	      4455	80003100	00000013	addi	x0,x0,0	  x0:0x00000000
       44575000	      4456	80003104	41c48b33	sub	x22,x9,x28	  x9:0x00000000 x28:0xfffffc0a x22=0x000003f6
       44585000	      4457	80003108	fb57bb13	sltiu	x22,x15,-75	 x15:0x000001c7 x22=0x00000001
       44595000	      4458	8000310c	01e6ca33	xor	x20,x13,x30	 x13:0x00000000 x30:0x6c571c00 x20=0x6c571c00
       44605000	      4459	80003110	05efc663	blt	x31,x30,8000315c	 x31:0x6c571c00 x30:0x6c571c00
       44615000	      4460	80003114	9b7e0317	auipc	x6,0x9b7e0	  x6=0x1b7e3110
       44625000	      4461	80003118	00eb3b33	sltu	x22,x22,x14	 x22:0x00000001 x14:0x00a86fff x22=0x00000001
       44635000	      4462	8000311c	0555e063	bltu	x11,x21,8000315c	 x11:0x80009fc4 x21:0x000005d9
       44645000	      4463	80003120	0102bbb3	sltu	x23,x5,x16	  x5:0xfffffc62 x16:0x80009f48 x23=0x00000000
       44655000	      4464	80003124	0558c263	blt	x17,x21,80003168	 x17:0x00000000 x21:0x000005d9
       44665000	      4465	00000000	00000013	addi	x0,x0,0	  x0:0x00000000
       44675000	      4466	80003164	00000013	addi	x0,x0,0	  x0:0x00000000
       44685000	      4467	80003168	91130913	addi	x18,x6,-1775	  x6:0x1b7e3110 x18=0x1b7e2a21
       44695000	      4468	8000316c	d6a18413	addi	x8,x3,-662	  x3:0x00000000  x8=0xfffffd6a
       44705000	      4469	80003170	6ae10013	addi	x0,x2,1710	  x2:0x00000000
       44715000	      4470	80003174	e4dd4f93	xori	x31,x26,-435	 x26:0x00000000 x31=0xfffffe4d
       44725000	      4471	80003178	37344793	xori	x15,x8,883	  x8:0xfffffd6a x15=0xfffffe19
       44735000	      4472	8000317c	02acec63	bltu	x25,x10,800031b4	 x25:0x8000a59d x10:0x00000000
       44745000	      4473	80003180	05108863	beq	x1,x17,800031d0	  x1:0x00000001 x17:0x00000000
       44755000	      4474	80003184	38466093	ori	x1,x12,900	 x12:0x6c571c00  x1=0x6c571f84
       44765000	      4475	80003188	b59aad13	slti	x26,x21,-1191	 x21:0x000005d9 x26=0x00000000
       44775000	      4476	8000318c	7a19a613	slti	x12,x19,1953	 x19:0x80009f48 x12=0x00000001
       44785000	      4477	80003190	00b0a3b3	slt	x7,x1,x11	  x1:0x6c571f84 x11:0x80009fc4  x7=0x00000000
       44795000	      4478	80003194	0044c733	xor	x14,x9,x4	  x9:0x00000000  x4:0xffffffff x14=0xffffffff
       44805000	      4479	80003198	00895a93	srli	x21,x18,0x8	 x18:0x1b7e2a21 x21=0x001b7e2a
       44815000	      4480	8000319c	0a9b8b13	addi	x22,x23,169	 x23:0x00000000 x22=0x000000a9
       44825000	      4481	800031a0	019624b3	slt	x9,x12,x25	 x12:0x00000001 x25:0x8000a59d  x9=0x00000000
       44835000	      4482	800031a4	e364e213	ori	x4,x9,-458	  x9:0x00000000  x4=0xfffffe36
       44845000	      4483	800031a8	001aff33	and	x30,x21,x1	 x21:0x001b7e2a  x1:0x6c571f84 x30=0x00131e00
       44855000	      4484	800031ac	014114b3	sll	x9,x2,x20	  x2:0x00000000 x20:0x6c571c00  x9=0x00000000
       44865000	      4485	800031b0	41a2da13	srai	x20,x5,0x1a	  x5:0xfffffc62 x20=0xffffffff
       44875000	      4486	800031b4	01209d13	slli	x26,x1,0x12	  x1:0x6c571f84 x26=0x7e100000
       44885000	      4487	800031b8	c3c83113	sltiu	x2,x16,-964	 x16:0x80009f48  x2=0x00000001
       44895000	      4488	800031bc	04097263	bgeu	x18,x0,80003200	 x18:0x1b7e2a21  x0:0x00000000
       44905000	      4489	00000000	00000013	addi	x0,x0,0	  x0:0x00000000
       44915000	      4490	800031fc	00000013	addi	x0,x0,0	  x0:0x00000000
       44925000	      4491	80003200	017eca63	blt	x29,x23,80003214	 x29:0x00000000 x23:0x00000000
       44935000	      4492	80003204	05b46263	bltu	x8,x27,80003248	  x8:0xfffffd6a x27:0x00000000
       44945000	      4493	80003208	4179d233	sra	x4,x19,x23	 x19:0x80009f48 x23:0x00000000  x4=0x80009f48
       44955000	      4494	8000320c	40913913	sltiu	x18,x2,1033	  x2:0x00000001 x18=0x00000001
       44965000	      4495	80003210	00000013	addi	x0,x0,0	  x0:0x00000000
       44975000	      4496	80003214	01526bb3	or	x23,x4,x21	  x4:0x80009f48 x21:0x001b7e2a x23=0x801bff6a
       44985000	      4497	80003218	042fd663	bge	x31,x2,80003264	 x31:0xfffffe4d  x2:0x00000001
       44995000	      4498	8000321c	cadde513	ori	x10,x27,-851	 x27:0x00000000 x10=0xfffffcad
       45005000	      4499	80003220	41a88cb3	sub	x25,x17,x26	 x17:0x00000000 x26:0x7e100000 x25=0x81f00000
       45015000	      4500	80003224	ef71e513	ori	x10,x3,-265	  x3:0x00000000 x10=0xfffffef7
       45025000	      4501	80003228	40f65b93	srai	x23,x12,0xf	 x12:0x00000001 x23=0x00000000
       45035000	      4502	8000322c	015f0c33	add	x24,x30,x21	 x30:0x00131e00 x21:0x001b7e2a x24=0x002e9c2a
       45045000	      4503	80003230	1c648d13	addi	x26,x9,454	  x9:0x00000000 x26=0x000001c6
       45055000	      4504	80003234	007808b3	add	x17,x16,x7	 x16:0x80009f48  x7:0x00000000 x17=0x80009f48
       45065000	      4505	80003238	00b71293	slli	x5,x14,0xb	 x14:0xffffffff  x5=0xfffff800
       45075000	      4506	8000323c	fffeab93	slti	x23,x29,-1	 x29:0x00000000 x23=0x00000000
       45085000	      4507	80003240	00bbf6b3	and	x13,x23,x11	 x23:0x00000000 x11:0x80009fc4 x13=0x00000000
       45095000	      4508	80003244	41bd5813	srai	x16,x26,0x1b	 x26:0x000001c6 x16=0x00000000
       45105000	      4509	80003248	01148db3	add	x27,x9,x17	  x9:0x00000000 x17:0x80009f48 x27=0x80009f48
       45115000	      4510	8000324c	d153a813	slti	x16,x7,-747	  x7:0x00000000 x16=0x00000000
       45125000	      4511	80003250	287ce093	ori	x1,x25,647	 x25:0x81f00000  x1=0x81f00287
       45135000	      4512	80003254	01a8f033	and	x0,x17,x26	 x17:0x80009f48 x26:0x000001c6
       45145000	      4513	80003258	00000013	addi	x0,x0,0	  x0:0x00000000
       45155000	      4514	8000325c	03e60663	beq	x12,x30,80003288	 x12:0x00000001 x30:0x00131e00
       45165000	      4515	80003260	0000a333	slt	x6,x1,x0	  x1:0x81f00287  x0:0x00000000  x6=0x00000001
       45175000	      4516	80003264	037ce263	bltu	x25,x23,80003288	 x25:0x81f00000 x23:0x00000000
       45185000	      4517	80003268	004b3fb3	sltu	x31,x22,x4	 x22:0x000000a9  x4:0x80009f48 x31=0x00000001
       45195000	      4518	8000326c	015677b3	and	x15,x12,x21	 x12:0x00000001 x21:0x001b7e2a x15=0x00000000
       45205000	      4519	80003270	01cad863	bge	x21,x28,80003280	 x21:0x001b7e2a x28:0xfffffc0a
       45215000	      4520	00000000	00000013	addi	x0,x0,0	  x0:0x00000000
       45225000	      4521	8000327c	00000013	addi	x0,x0,0	  x0:0x00000000
       45235000	      4522	80003280	bd9b3013	sltiu	x0,x22,-1063	 x22:0x000000a9
       45245000	      4523	80003284	00d54c63	blt	x10,x13,8000329c	 x10:0xfffffef7 x13:0x00000000
       45255000	      4524	00000000	00000013	addi	x0,x0,0	  x0:0x00000000
       45265000	      4525	80003298	00000013	addi	x0,x0,0	  x0:0x00000000
       45275000	      4526	8000329c	407886b3	sub	x13,x17,x7	 x17:0x80009f48  x7:0x00000000 x13=0x80009f48
       45285000	      4527	800032a0	0af6fc97	auipc	x25,0xaf6f	 x25=0x8af7229c
       45295000	      4528	800032a4	863e4093	xori	x1,x28,-1949	 x28:0xfffffc0a  x1=0x00000469
       45305000	      4529	800032a8	01e9d493	srli	x9,x19,0x1e	 x19:0x80009f48  x9=0x00000002
       45315000	      4530	800032ac	d1633217	auipc	x4,0xd1633	  x4=0x516362a8
       45325000	      4531	800032b0	9406f517	auipc	x10,0x9406f	 x10=0x140722ac
       45335000	      4532	800032b4	00701c13	slli	x24,x0,0x7	  x0:0x00000000 x24=0x00000000
       45345000	      4533	800032b8	40ce8533	sub	x10,x29,x12	 x29:0x00000000 x12:0x00000001 x10=0xffffffff
       45355000	      4534	800032bc	41ea0db3	sub	x27,x20,x30	 x20:0xffffffff x30:0x00131e00 x27=0xffece1ff
       45365000	      4535	800032c0	9b8fb313	sltiu	x6,x31,-1608	 x31:0x00000001  x6=0x00000001
       45375000	      4536	800032c4	5f55ff13	andi	x30,x11,1525	 x11:0x80009fc4 x30=0x000005c4
       45385000	      4537	800032c8	00773e33	sltu	x28,x14,x7	 x14:0xffffffff  x7:0x00000000 x28=0x00000000
       45395000	      4538	800032cc	043d6263	bltu	x26,x3,80003310	 x26:0x000001c6  x3:0x00000000
       45405000	      4539	800032d0	01ef4633	xor	x12,x30,x30	 x30:0x000005c4 x30:0x000005c4 x12=0x00000000
       45415000	      4540	800032d4	ab516e13	ori	x28,x2,-1355	  x2:0x00000001 x28=0xfffffab5
       45425000	      4541	800032d8	d76be693	ori	x13,x23,-650	 x23:0x00000000 x13=0xfffffd76
       45435000	      4542	800032dc	85a2e317	auipc	x6,0x85a2e	  x6=0x05a312d8
       45445000	      4543	800032e0	00161c13	slli	x24,x12,0x1	 x12:0x00000000 x24=0x00000000
       45455000	      4544	800032e4	6e79b113	sltiu	x2,x19,1767	 x19:0x80009f48  x2=0x00000000
       45465000	      4545	800032e8	02544063	blt	x8,x5,80003308	  x8:0xfffffd6a  x5:0xfffff800
       45475000	      4546	800032ec	2998df97	auipc	x31,0x2998d	 x31=0xa99902e8
       45485000	      4547	800032f0	00000013	addi	x0,x0,0	  x0:0x00000000
       45495000	      4548	800032f4	5cd43693	sltiu	x13,x8,1485	  x8:0xfffffd6a x13=0x00000000
       45505000	      4549	800032f8	02de4063	blt	x28,x13,80003318	 x28:0xfffffab5 x13:0x00000000
       45515000	      4550	00000000	00000013	addi	x0,x0,0	  x0:0x00000000
       45525000	      4551	80003314	00000013	addi	x0,x0,0	  x0:0x00000000
       45535000	      4552	80003318	ad798813	addi	x16,x19,-1321	 x19:0x80009f48 x16=0x80009a1f
       45545000	      4553	8000331c	400504b3	sub	x9,x10,x0	 x10:0xffffffff  x0:0x00000000  x9=0xffffffff
       45555000	      4554	80003320	03ee8863	beq	x29,x30,80003350	 x29:0x00000000 x30:0x000005c4
       45565000	      4555	80003324	26af4013	xori	x0,x30,618	 x30:0x000005c4
       45575000	      4556	80003328	4157d0b3	sra	x1,x15,x21	 x15:0x00000000 x21:0x001b7e2a  x1=0x00000000
       45585000	      4557	8000332c	011decb3	or	x25,x27,x17	 x27:0xffece1ff x17:0x80009f48 x25=0xffecffff
       45595000	      4558	80003330	01df1e63	bne	x30,x29,8000334c	 x30:0x000005c4 x29:0x00000000
       45605000	      4559	00000000	00000013	addi	x0,x0,0	  x0:0x00000000
       45615000	      4560	80003348	00000013	addi	x0,x0,0	  x0:0x00000000
       45625000	      4561	8000334c	05775263	bge	x14,x23,80003390	 x14:0xffffffff x23:0x00000000
       45635000	      4562	80003350	006b5133	srl	x2,x22,x6	 x22:0x000000a9  x6:0x05a312d8  x2=0x00000000
       45645000	      4563	80003354	01a55133	srl	x2,x10,x26	 x10:0xffffffff x26:0x000001c6  x2=0x03ffffff
       45655000	      4564	80003358	01949693	slli	x13,x9,0x19	  x9:0xffffffff x13=0xfe000000
       45665000	      4565	8000335c	0355e063	bltu	x11,x21,8000337c	 x11:0x80009fc4 x21:0x001b7e2a
       45675000	      4566	80003360	ebe5b317	auipc	x6,0xebe5b	  x6=0x6be5e35c
       45685000	      4567	80003364	03619063	bne	x3,x22,80003384	  x3:0x00000000 x22:0x000000a9
       45695000	      4568	00000000	00000013	addi	x0,x0,0	  x0:0x00000000
       45705000	      4569	80003380	00000013	addi	x0,x0,0	  x0:0x00000000
       45715000	      4570	80003384	01c096b3	sll	x13,x1,x28	  x1:0x00000000 x28:0xfffffab5 x13=0x00000000
       45725000	      4571	80003388	04879263	bne	x15,x8,800033cc	 x15:0x00000000  x8:0xfffffd6a
       45735000	      4572	00000000	00000013	addi	x0,x0,0	  x0:0x00000000
       45745000	      4573	800033c8	00000013	addi	x0,x0,0	  x0:0x00000000
       45755000	      4574	800033cc	0169ee63	bltu	x19,x22,800033e8	 x19:0x80009f48 x22:0x000000a9
       45765000	      4575	800033d0	01535f13	srli	x30,x6,0x15	  x6:0x6be5e35c x30=0x0000035f
       45775000	      4576	800033d4	018a6c33	or	x24,x20,x24	 x20:0xffffffff x24:0x00000000 x24=0xffffffff
       45785000	      4577	800033d8	00780d33	add	x26,x16,x7	 x16:0x80009a1f  x7:0x00000000 x26=0x80009a1f
       45795000	      4578	800033dc	401750b3	sra	x1,x14,x1	 x14:0xffffffff  x1:0x00000000  x1=0xffffffff
       45805000	      4579	800033e0	412e8f33	sub	x30,x29,x18	 x29:0x00000000 x18:0x00000001 x30=0xffffffff
       45815000	      4580	800033e4	002bd0b3	srl	x1,x23,x2	 x23:0x00000000  x2:0x03ffffff  x1=0x00000000
       45825000	      4581	800033e8	01a11d93	slli	x27,x2,0x1a	  x2:0x03ffffff x27=0xfc000000
       45835000	      4582	800033ec	018b0db3	add	x27,x22,x24	 x22:0x000000a9 x24:0xffffffff x27=0x000000a8
       45845000	      4583	800033f0	00000013	addi	x0,x0,0	  x0:0x00000000
       45855000	      4584	800033f4	009a5d33	srl	x26,x20,x9	 x20:0xffffffff  x9:0xffffffff x26=0x00000001
       45865000	      4585	800033f8	0040036f	jal	x6,800033f8	  x6=0x800033f8
       45875000	      4586	00000000	00000013	addi	x0,x0,0	  x0:0x00000000
       45885000	      4587	800033f8	00000013	addi	x0,x0,0	  x0:0x00000000
       45895000	      4588	800033fc	048000ef	jal	x1,800033fc	  x1=0x800033fc
       45905000	      4589	00000000	00000013	addi	x0,x0,0	  x0:0x00000000
       45915000	      4590	80003440	00000013	addi	x0,x0,0	  x0:0x00000000
       45925000	      4591	80003444	fd9ff2ef	jal	x5,80003444	  x5=0x80003444
       45935000	      4592	00000000	00000013	addi	x0,x0,0	  x0:0x00000000
       45945000	      4593	80003418	00000013	addi	x0,x0,0	  x0:0x00000000
       45955000	      4594	8000341c	030000ef	jal	x1,8000341c	  x1=0x8000341c
       45965000	      4595	00000000	00000013	addi	x0,x0,0	  x0:0x00000000
       45975000	      4596	80003448	00000013	addi	x0,x0,0	  x0:0x00000000
       45985000	      4597	8000344c	004000ef	jal	x1,8000344c	  x1=0x8000344c
       45995000	      4598	00000000	00000013	addi	x0,x0,0	  x0:0x00000000
       46005000	      4599	8000344c	00000013	addi	x0,x0,0	  x0:0x00000000
       46015000	      4600	80003450	ff9ff0ef	jal	x1,80003450	  x1=0x80003450
       46025000	      4601	00000000	00000013	addi	x0,x0,0	  x0:0x00000000
       46035000	      4602	80003444	00000013	addi	x0,x0,0	  x0:0x00000000
       46045000	      4603	80003448	00c000ef	jal	x1,80003448	  x1=0x80003448
       46055000	      4604	00000000	00000013	addi	x0,x0,0	  x0:0x00000000
       46065000	      4605	80003450	00000013	addi	x0,x0,0	  x0:0x00000000
       46075000	      4606	80003454	fe1ff36f	jal	x6,80003454	  x6=0x80003454
       46085000	      4607	00000000	00000013	addi	x0,x0,0	  x0:0x00000000
       46095000	      4608	80003430	00000013	addi	x0,x0,0	  x0:0x00000000
       46105000	      4609	80003434	ff5ff0ef	jal	x1,80003434	  x1=0x80003434
       46115000	      4610	00000000	00000013	addi	x0,x0,0	  x0:0x00000000
       46125000	      4611	80003424	00000013	addi	x0,x0,0	  x0:0x00000000
       46135000	      4612	80003428	fe1ff0ef	jal	x1,80003428	  x1=0x80003428
       46145000	      4613	00000000	00000013	addi	x0,x0,0	  x0:0x00000000
       46155000	      4614	80003404	00000013	addi	x0,x0,0	  x0:0x00000000
       46165000	      4615	80003408	0080036f	jal	x6,80003408	  x6=0x80003408
       46175000	      4616	00000000	00000013	addi	x0,x0,0	  x0:0x00000000
       46185000	      4617	8000340c	00000013	addi	x0,x0,0	  x0:0x00000000
       46195000	      4618	80003410	014000ef	jal	x1,80003410	  x1=0x80003410
       46205000	      4619	00000000	00000013	addi	x0,x0,0	  x0:0x00000000
       46215000	      4620	80003420	00000013	addi	x0,x0,0	  x0:0x00000000
       46225000	      4621	80003424	044000ef	jal	x1,80003424	  x1=0x80003424
       46235000	      4622	00000000	00000013	addi	x0,x0,0	  x0:0x00000000
       46245000	      4623	80003464	00000013	addi	x0,x0,0	  x0:0x00000000
       46255000	      4624	80003468	fc9ff36f	jal	x6,80003468	  x6=0x80003468
       46265000	      4625	00000000	00000013	addi	x0,x0,0	  x0:0x00000000
       46275000	      4626	8000342c	00000013	addi	x0,x0,0	  x0:0x00000000
       46285000	      4627	80003430	ffdff0ef	jal	x1,80003430	  x1=0x80003430
       46295000	      4628	00000000	00000013	addi	x0,x0,0	  x0:0x00000000
       46305000	      4629	80003428	00000013	addi	x0,x0,0	  x0:0x00000000
       46315000	      4630	8000342c	ff5ff0ef	jal	x1,8000342c	  x1=0x8000342c
       46325000	      4631	00000000	00000013	addi	x0,x0,0	  x0:0x00000000
       46335000	      4632	8000341c	00000013	addi	x0,x0,0	  x0:0x00000000
       46345000	      4633	80003420	0180036f	jal	x6,80003420	  x6=0x80003420
       46355000	      4634	00000000	00000013	addi	x0,x0,0	  x0:0x00000000
       46365000	      4635	80003434	00000013	addi	x0,x0,0	  x0:0x00000000
       46375000	      4636	80003438	fcdff0ef	jal	x1,80003438	  x1=0x80003438
       46385000	      4637	00000000	00000013	addi	x0,x0,0	  x0:0x00000000
       46395000	      4638	80003400	00000013	addi	x0,x0,0	  x0:0x00000000
       46405000	      4639	80003404	054000ef	jal	x1,80003404	  x1=0x80003404
       46415000	      4640	00000000	00000013	addi	x0,x0,0	  x0:0x00000000
       46425000	      4641	80003454	00000013	addi	x0,x0,0	  x0:0x00000000
       46435000	      4642	80003458	fc1ff0ef	jal	x1,80003458	  x1=0x80003458
       46445000	      4643	00000000	00000013	addi	x0,x0,0	  x0:0x00000000
       46455000	      4644	80003414	00000013	addi	x0,x0,0	  x0:0x00000000
       46465000	      4645	80003418	0440036f	jal	x6,80003418	  x6=0x80003418
       46475000	      4646	00000000	00000013	addi	x0,x0,0	  x0:0x00000000
       46485000	      4647	80003458	00000013	addi	x0,x0,0	  x0:0x00000000
       46495000	      4648	8000345c	fa5ff26f	jal	x4,8000345c	  x4=0x8000345c
       46505000	      4649	00000000	00000013	addi	x0,x0,0	  x0:0x00000000
       46515000	      4650	800033fc	00000013	addi	x0,x0,0	  x0:0x00000000
       46525000	      4651	80003400	064008ef	jal	x17,80003400	 x17=0x80003400
       46535000	      4652	00000000	00000013	addi	x0,x0,0	  x0:0x00000000
       46545000	      4653	80003460	00000013	addi	x0,x0,0	  x0:0x00000000
       46555000	      4654	80003464	fddffb6f	jal	x22,80003464	 x22=0x80003464
       46565000	      4655	00000000	00000013	addi	x0,x0,0	  x0:0x00000000
       46575000	      4656	8000343c	00000013	addi	x0,x0,0	  x0:0x00000000
       46585000	      4657	80003440	fd5ff0ef	jal	x1,80003440	  x1=0x80003440
       46595000	      4658	00000000	00000013	addi	x0,x0,0	  x0:0x00000000
       46605000	      4659	80003410	00000013	addi	x0,x0,0	  x0:0x00000000
       46615000	      4660	80003414	ff9ff0ef	jal	x1,80003414	  x1=0x80003414
       46625000	      4661	00000000	00000013	addi	x0,x0,0	  x0:0x00000000
       46635000	      4662	80003408	00000013	addi	x0,x0,0	  x0:0x00000000
       46645000	      4663	8000340c	03000fef	jal	x31,8000340c	 x31=0x8000340c
       46655000	      4664	00000000	00000013	addi	x0,x0,0	  x0:0x00000000
       46665000	      4665	80003438	00000013	addi	x0,x0,0	  x0:0x00000000
       46675000	      4666	8000343c	024000ef	jal	x1,8000343c	  x1=0x8000343c
       46685000	      4667	00000000	00000013	addi	x0,x0,0	  x0:0x00000000
       46695000	      4668	8000345c	00000013	addi	x0,x0,0	  x0:0x00000000
       46705000	      4669	80003460	00c000ef	jal	x1,80003460	  x1=0x80003460
       46715000	      4670	00000000	00000013	addi	x0,x0,0	  x0:0x00000000
       46725000	      4671	80003468	00000013	addi	x0,x0,0	  x0:0x00000000
       46735000	      4672	8000346c	0178a2b3	slt	x5,x17,x23	 x17:0x80003400 x23:0x00000000  x5=0x00000001
       46745000	      4673	80003470	0d388f13	addi	x30,x17,211	 x17:0x80003400 x30=0x800034d3
       46755000	      4674	80003474	00729013	slli	x0,x5,0x7	  x5:0x00000001
       46765000	      4675	80003478	409a08b3	sub	x17,x20,x9	 x20:0xffffffff  x9:0xffffffff x17=0x00000000
       46775000	      4676	8000347c	419f5413	srai	x8,x30,0x19	 x30:0x800034d3  x8=0xffffffc0
       46785000	      4677	80003480	0347f863	bgeu	x15,x20,800034b0	 x15:0x00000000 x20:0xffffffff
       46795000	      4678	80003484	48218113	addi	x2,x3,1154	  x3:0x00000000  x2=0x00000482
       46805000	      4679	80003488	2cb9be13	sltiu	x28,x19,715	 x19:0x80009f48 x28=0x00000000
       46815000	      4680	8000348c	2a6a9d17	auipc	x26,0x2a6a9	 x26=0xaa6ac488
       46825000	      4681	80003490	bdf5fa13	andi	x20,x11,-1057	 x11:0x80009fc4 x20=0x80009bc4
       46835000	      4682	80003494	00a01f13	slli	x30,x0,0xa	  x0:0x00000000 x30=0x00000000
       46845000	      4683	80003498	1bb33813	sltiu	x16,x6,443	  x6:0x80003418 x16=0x00000000
       46855000	      4684	8000349c	41440e33	sub	x28,x8,x20	  x8:0xffffffc0 x20:0x80009bc4 x28=0x7fff63fc
       46865000	      4685	800034a0	02600063	beq	x0,x6,800034c0	  x0:0x00000000  x6:0x80003418
       46875000	      4686	800034a4	00000013	addi	x0,x0,0	  x0:0x00000000
       46885000	      4687	800034a8	01210e63	beq	x2,x18,800034c4	  x2:0x00000482 x18:0x00000001
       46895000	      4688	800034ac	bd70ce13	xori	x28,x1,-1065	  x1:0x80003460 x28=0x7fffcfb7
       46905000	      4689	800034b0	007c2bb3	slt	x23,x24,x7	 x24:0xffffffff  x7:0x00000000 x23=0x00000001
       46915000	      4690	800034b4	016dbd33	sltu	x26,x27,x22	 x27:0x000000a8 x22:0x80003464 x26=0x00000001
       46925000	      4691	800034b8	00527633	and	x12,x4,x5	  x4:0x8000345c  x5:0x00000001 x12=0x00000000
       46935000	      4692	800034bc	63484113	xori	x2,x16,1588	 x16:0x00000000  x2=0x00000634
       46945000	      4693	800034c0	0135b133	sltu	x2,x11,x19	 x11:0x80009fc4 x19:0x80009f48  x2=0x00000000
       46955000	      4694	800034c4	00a3fe63	bgeu	x7,x10,800034e0	  x7:0x00000000 x10:0xffffffff
       46965000	      4695	800034c8	00150d33	add	x26,x10,x1	 x10:0xffffffff  x1:0x80003460 x26=0x8000345f
       46975000	      4696	800034cc	053c5663	bge	x24,x19,80003518	 x24:0xffffffff x19:0x80009f48
       46985000	      4697	00000000	00000013	addi	x0,x0,0	  x0:0x00000000
       46995000	      4698	80003514	00000013	addi	x0,x0,0	  x0:0x00000000
       47005000	      4699	80003518	000cc6b3	xor	x13,x25,x0	 x25:0xffecffff  x0:0x00000000 x13=0xffecffff
       47015000	      4700	8000351c	02f65c63	bge	x12,x15,80003554	 x12:0x00000000 x15:0x00000000
       47025000	      4701	00000000	00000013	addi	x0,x0,0	  x0:0x00000000
       47035000	      4702	80003550	00000013	addi	x0,x0,0	  x0:0x00000000
       47045000	      4703	80003554	000ed463	bge	x29,x0,8000355c	 x29:0x00000000  x0:0x00000000
       47055000	      4704	00000000	00000013	addi	x0,x0,0	  x0:0x00000000
       47065000	      4705	80003558	00000013	addi	x0,x0,0	  x0:0x00000000
       47075000	      4706	8000355c	8bfd8493	addi	x9,x27,-1857	 x27:0x000000a8  x9=0xfffff967
       47085000	      4707	80003560	413b56b3	sra	x13,x22,x19	 x22:0x80003464 x19:0x80009f48 x13=0xff800034
       47095000	      4708	80003564	00ecbf93	sltiu	x31,x25,14	 x25:0xffecffff x31=0x00000000
       47105000	      4709	80003568	416b08b3	sub	x17,x22,x22	 x22:0x80003464 x22:0x80003464 x17=0x00000000
       47115000	      4710	8000356c	00687cb3	and	x25,x16,x6	 x16:0x00000000  x6:0x80003418 x25=0x00000000
       47125000	      4711	80003570	41d704b3	sub	x9,x14,x29	 x14:0xffffffff x29:0x00000000  x9=0xffffffff
       47135000	      4712	80003574	00dc9f13	slli	x30,x25,0xd	 x25:0x00000000 x30=0x00000000
       47145000	      4713	80003578	40dd0033	sub	x0,x26,x13	 x26:0x8000345f x13:0xff800034
       47155000	      4714	8000357c	6015e713	ori	x14,x11,1537	 x11:0x80009fc4 x14=0x80009fc5
       47165000	      4715	80003580	05938663	beq	x7,x25,800035cc	  x7:0x00000000 x25:0x00000000
       47175000	      4716	00000000	00000013	addi	x0,x0,0	  x0:0x00000000
       47185000	      4717	800035c8	00000013	addi	x0,x0,0	  x0:0x00000000
       47195000	      4718	800035cc	41545313	srai	x6,x8,0x15	  x8:0xffffffc0  x6=0xffffffff
       47205000	      4719	800035d0	40e40833	sub	x16,x8,x14	  x8:0xffffffc0 x14:0x80009fc5 x16=0x7fff5ffb
       47215000	      4720	800035d4	4c5b6d93	ori	x27,x22,1221	 x22:0x80003464 x27=0x800034e5
       47225000	      4721	800035d8	17404713	xori	x14,x0,372	  x0:0x00000000 x14=0x00000174
       47235000	      4722	800035dc	01547633	and	x12,x8,x21	  x8:0xffffffc0 x21:0x001b7e2a x12=0x001b7e00
       47245000	      4723	800035e0	322ca093	slti	x1,x25,802	 x25:0x00000000  x1=0x00000001
       47255000	      4724	800035e4	015cb033	sltu	x0,x25,x21	 x25:0x00000000 x21:0x001b7e2a
       47265000	      4725	800035e8	011cd533	srl	x10,x25,x17	 x25:0x00000000 x17:0x00000000 x10=0x00000000
       47275000	      4726	800035ec	01bfd413	srli	x8,x31,0x1b	 x31:0x00000000  x8=0x00000000
       47285000	      4727	800035f0	4151d333	sra	x6,x3,x21	  x3:0x00000000 x21:0x001b7e2a  x6=0x00000000
       47295000	      4728	800035f4	e2dbcbb7	lui	x23,0xe2dbc	 x23=0xe2dbc000
       47305000	      4729	800035f8	73a17893	andi	x17,x2,1850	  x2:0x00000000 x17=0x00000000
       47315000	      4730	800035fc	00a69813	slli	x16,x13,0xa	 x13:0xff800034 x16=0x0000d000
       47325000	      4731	80003600	016c5633	srl	x12,x24,x22	 x24:0xffffffff x22:0x80003464 x12=0x0fffffff
       47335000	      4732	80003604	01fa20b3	slt	x1,x20,x31	 x20:0x80009bc4 x31:0x00000000  x1=0x00000001
       47345000	      4733	80003608	01a06e33	or	x28,x0,x26	  x0:0x00000000 x26:0x8000345f x28=0x8000345f
       47355000	      4734	8000360c	40ce0433	sub	x8,x28,x12	 x28:0x8000345f x12:0x0fffffff  x8=0x70003460
       47365000	      4735	80003610	019dd813	srli	x16,x27,0x19	 x27:0x800034e5 x16=0x00000040
       47375000	      4736	80003614	0059dfb3	srl	x31,x19,x5	 x19:0x80009f48  x5:0x00000001 x31=0x40004fa4
       47385000	      4737	80003618	401dda93	srai	x21,x27,0x1	 x27:0x800034e5 x21=0xc0001a72
       47395000	      4738	8000361c	19d63313	sltiu	x6,x12,413	 x12:0x0fffffff  x6=0x00000000
       47405000	      4739	80003620	01f49c33	sll	x24,x9,x31	  x9:0xffffffff x31:0x40004fa4 x24=0xfffffff0
       47415000	      4740	80003624	00000013	addi	x0,x0,0	  x0:0x00000000
       47425000	      4741	80003628	00dab833	sltu	x16,x21,x13	 x21:0xc0001a72 x13:0xff800034 x16=0x00000001
       47435000	      4742	8000362c	002d7333	and	x6,x26,x2	 x26:0x8000345f  x2:0x00000000  x6=0x00000000
       47445000	      4743	80003630	01775863	bge	x14,x23,80003640	 x14:0x00000174 x23:0xe2dbc000
       47455000	      4744	00000000	00000013	addi	x0,x0,0	  x0:0x00000000
       47465000	      4745	8000363c	00000013	addi	x0,x0,0	  x0:0x00000000
       47475000	      4746	80003640	40c60fb3	sub	x31,x12,x12	 x12:0x0fffffff x12:0x0fffffff x31=0x00000000
       47485000	      4747	80003644	009390b3	sll	x1,x7,x9	  x7:0x00000000  x9:0xffffffff  x1=0x00000000
       47495000	      4748	80003648	008ed293	srli	x5,x29,0x8	 x29:0x00000000  x5=0x00000000
       47505000	      4749	8000364c	01745733	srl	x14,x8,x23	  x8:0x70003460 x23:0xe2dbc000 x14=0x70003460
       47515000	      4750	80003650	41230b33	sub	x22,x6,x18	  x6:0x00000000 x18:0x00000001 x22=0xffffffff
       47525000	      4751	80003654	8e3b3c37	lui	x24,0x8e3b3	 x24=0x8e3b3000
       47535000	      4752	80003658	0039da13	srli	x20,x19,0x3	 x19:0x80009f48 x20=0x100013e9
       47545000	      4753	8000365c	034fc863	blt	x31,x20,8000368c	 x31:0x00000000 x20:0x100013e9
       47555000	      4754	00000000	00000013	addi	x0,x0,0	  x0:0x00000000
       47565000	      4755	80003688	00000013	addi	x0,x0,0	  x0:0x00000000
       47575000	      4756	8000368c	41915f33	sra	x30,x2,x25	  x2:0x00000000 x25:0x00000000 x30=0x00000000
       47585000	      4757	80003690	40eed193	srai	x3,x29,0xe	 x29:0x00000000  x3=0x00000000
       47595000	      4758	80003694	017add13	srli	x26,x21,0x17	 x21:0xc0001a72 x26=0x00000180
       47605000	      4759	80003698	01b044b3	xor	x9,x0,x27	  x0:0x00000000 x27:0x800034e5  x9=0x800034e5
       47615000	      4760	8000369c	017eb633	sltu	x12,x29,x23	 x29:0x00000000 x23:0xe2dbc000 x12=0x00000001
       47625000	      4761	800036a0	8af30bb7	lui	x23,0x8af30	 x23=0x8af30000
       47635000	      4762	800036a4	005ff933	and	x18,x31,x5	 x31:0x00000000  x5:0x00000000 x18=0x00000000
       47645000	      4763	800036a8	0029d6b3	srl	x13,x19,x2	 x19:0x80009f48  x2:0x00000000 x13=0x80009f48
       47655000	      4764	800036ac	009bfe63	bgeu	x23,x9,800036c8	 x23:0x8af30000  x9:0x800034e5
       47665000	      4765	00000000	00000013	addi	x0,x0,0	  x0:0x00000000
       47675000	      4766	800036c4	00000013	addi	x0,x0,0	  x0:0x00000000
       47685000	      4767	800036c8	3f2e7c93	andi	x25,x28,1010	 x28:0x8000345f x25=0x00000052
       47695000	      4768	800036cc	04de9663	bne	x29,x13,80003718	 x29:0x00000000 x13:0x80009f48
       47705000	      4769	00000000	00000013	addi	x0,x0,0	  x0:0x00000000
       47715000	      4770	80003714	00000013	addi	x0,x0,0	  x0:0x00000000
       47725000	      4771	80003718	238e2893	slti	x17,x28,568	 x28:0x8000345f x17=0x00000001
       47735000	      4772	8000371c	01009f93	slli	x31,x1,0x10	  x1:0x00000000 x31=0x00000000
       47745000	      4773	80003720	01e12ab3	slt	x21,x2,x30	  x2:0x00000000 x30:0x00000000 x21=0x00000000
       47755000	      4774	80003724	270ef293	andi	x5,x29,624	 x29:0x00000000  x5=0x00000000
       47765000	      4775	80003728	017d9733	sll	x14,x27,x23	 x27:0x800034e5 x23:0x8af30000 x14=0x800034e5
       47775000	      4776	8000372c	6b950f13	addi	x30,x10,1721	 x10:0x00000000 x30=0x000006b9
       47785000	      4777	80003730	058bf263	bgeu	x23,x24,80003774	 x23:0x8af30000 x24:0x8e3b3000
       47795000	      4778	80003734	b911e213	ori	x4,x3,-1135	  x3:0x00000000  x4=0xfffffb91
       47805000	      4779	80003738	ede92513	slti	x10,x18,-290	 x18:0x00000000 x10=0x00000000
       47815000	      4780	8000373c	04914263	blt	x2,x9,80003780	  x2:0x00000000  x9:0x800034e5
       47825000	      4781	80003740	00e38317	auipc	x6,0xe38	  x6=0x80e3b73c
       47835000	      4782	80003744	05559263	bne	x11,x21,80003788	 x11:0x80009fc4 x21:0x00000000
       47845000	      4783	00000000	00000013	addi	x0,x0,0	  x0:0x00000000
       47855000	      4784	80003784	00000013	addi	x0,x0,0	  x0:0x00000000
       47865000	      4785	80003788	01708a33	add	x20,x1,x23	  x1:0x00000000 x23:0x8af30000 x20=0x8af30000
       47875000	      4786	8000378c	02951063	bne	x10,x9,800037ac	 x10:0x00000000  x9:0x800034e5
       47885000	      4787	00000000	00000013	addi	x0,x0,0	  x0:0x00000000
       47895000	      4788	800037a8	00000013	addi	x0,x0,0	  x0:0x00000000
       47905000	      4789	800037ac	00000013	addi	x0,x0,0	  x0:0x00000000
       47915000	      4790	800037b0	04717063	bgeu	x2,x7,800037f0	  x2:0x00000000  x7:0x00000000
       47925000	      4791	00000000	00000013	addi	x0,x0,0	  x0:0x00000000
       47935000	      4792	800037ec	00000013	addi	x0,x0,0	  x0:0x00000000
       47945000	      4793	800037f0	384e6c93	ori	x25,x28,900	 x28:0x8000345f x25=0x800037df
       47955000	      4794	800037f4	40600bb3	sub	x23,x0,x6	  x0:0x00000000  x6:0x80e3b73c x23=0x7f1c48c4
       47965000	      4795	800037f8	edd40b93	addi	x23,x8,-291	  x8:0x70003460 x23=0x7000333d
       47975000	      4796	800037fc	02940663	beq	x8,x9,80003828	  x8:0x70003460  x9:0x800034e5
       47985000	      4797	80003800	400e8f33	sub	x30,x29,x0	 x29:0x00000000  x0:0x00000000 x30=0x00000000
       47995000	      4798	80003804	0293e263	bltu	x7,x9,80003828	  x7:0x00000000  x9:0x800034e5
       48005000	      4799	00000000	00000013	addi	x0,x0,0	  x0:0x00000000
       48015000	      4800	80003824	00000013	addi	x0,x0,0	  x0:0x00000000
       48025000	      4801	80003828	009cf433	and	x8,x25,x9	 x25:0x800037df  x9:0x800034e5  x8=0x800034c5
       48035000	      4802	8000382c	00cc1133	sll	x2,x24,x12	 x24:0x8e3b3000 x12:0x00000001  x2=0x1c766000
       48045000	      4803	80003830	0385f863	bgeu	x11,x24,80003860	 x11:0x80009fc4 x24:0x8e3b3000
       48055000	      4804	80003834	0254d263	bge	x9,x5,80003858	  x9:0x800034e5  x5:0x00000000
       48065000	      4805	80003838	03af4263	blt	x30,x26,8000385c	 x30:0x00000000 x26:0x00000180
       48075000	      4806	00000000	00000013	addi	x0,x0,0	  x0:0x00000000
       48085000	      4807	80003858	00000013	addi	x0,x0,0	  x0:0x00000000
       48095000	      4808	8000385c	00177433	and	x8,x14,x1	 x14:0x800034e5  x1:0x00000000  x8=0x00000000
       48105000	      4809	80003860	01949ab3	sll	x21,x9,x25	  x9:0x800034e5 x25:0x800037df x21=0x80000000
       48115000	      4810	80003864	49206813	ori	x16,x0,1170	  x0:0x00000000 x16=0x00000492
       48125000	      4811	80003868	f4e0c613	xori	x12,x1,-178	  x1:0x00000000 x12=0xffffff4e
       48135000	      4812	8000386c	4ea01717	auipc	x14,0x4ea01	 x14=0xcea04868
       48145000	      4813	80003870	ffc5a793	slti	x15,x11,-4	 x11:0x80009fc4 x15=0x00000001
       48155000	      4814	80003874	005356b3	srl	x13,x6,x5	  x6:0x80e3b73c  x5:0x00000000 x13=0x80e3b73c
       48165000	      4815	80003878	41425c13	srai	x24,x4,0x14	  x4:0xfffffb91 x24=0xffffffff
       48175000	      4816	8000387c	e68f2513	slti	x10,x30,-408	 x30:0x00000000 x10=0x00000000
       48185000	      4817	80003880	0275f263	bgeu	x11,x7,800038a4	 x11:0x80009fc4  x7:0x00000000
       48195000	      4818	00000000	00000013	addi	x0,x0,0	  x0:0x00000000
       48205000	      4819	800038a0	00000013	addi	x0,x0,0	  x0:0x00000000
       48215000	      4820	800038a4	01458c33	add	x24,x11,x20	 x11:0x80009fc4 x20:0x8af30000 x24=0x0af39fc4
       48225000	      4821	800038a8	015d9a13	slli	x20,x27,0x15	 x27:0x800034e5 x20=0x9ca00000
       48235000	      4822	800038ac	00ebde63	bge	x23,x14,800038c8	 x23:0x7000333d x14:0xcea04868
       48245000	      4823	00000000	00000013	addi	x0,x0,0	  x0:0x00000000
       48255000	      4824	800038c4	00000013	addi	x0,x0,0	  x0:0x00000000
       48265000	      4825	800038c8	00e543b3	xor	x7,x10,x14	 x10:0x00000000 x14:0xcea04868  x7=0xcea04868
       48275000	      4826	800038cc	01e44a63	blt	x8,x30,800038e0	  x8:0x00000000 x30:0x00000000
       48285000	      4827	800038d0	fa7ca513	slti	x10,x25,-89	 x25:0x800037df x10=0x00000001
       48295000	      4828	800038d4	17a4e697	auipc	x13,0x17a4e	 x13=0x97a518d0
       48305000	      4829	800038d8	00d012b3	sll	x5,x0,x13	  x0:0x00000000 x13:0x97a518d0  x5=0x00000000
       48315000	      4830	800038dc	0197c233	xor	x4,x15,x25	 x15:0x00000001 x25:0x800037df  x4=0x800037de
       48325000	      4831	800038e0	c1febc97	auipc	x25,0xc1feb	 x25=0x41fee8dc
       48335000	      4832	800038e4	40f106b3	sub	x13,x2,x15	  x2:0x1c766000 x15:0x00000001 x13=0x1c765fff
       48345000	      4833	800038e8	40fa0fb3	sub	x31,x20,x15	 x20:0x9ca00000 x15:0x00000001 x31=0x9c9fffff
       48355000	      4834	800038ec	40ead233	sra	x4,x21,x14	 x21:0x80000000 x14:0xcea04868  x4=0xff800000
       48365000	      4835	800038f0	4f358413	addi	x8,x11,1267	 x11:0x80009fc4  x8=0x8000a4b7
       48375000	      4836	800038f4	00244c63	blt	x8,x2,8000390c	  x8:0x8000a4b7  x2:0x1c766000
       48385000	      4837	00000000	00000013	addi	x0,x0,0	  x0:0x00000000
       48395000	      4838	80003908	00000013	addi	x0,x0,0	  x0:0x00000000
       48405000	      4839	8000390c	f30c7893	andi	x17,x24,-208	 x24:0x0af39fc4 x17=0x0af39f00
       48415000	      4840	80003910	d2c09d37	lui	x26,0xd2c09	 x26=0xd2c09000
       48425000	      4841	80003914	00dc4833	xor	x16,x24,x13	 x24:0x0af39fc4 x13:0x1c765fff x16=0x1685c03b
       48435000	      4842	80003918	007571b3	and	x3,x10,x7	 x10:0x00000001  x7:0xcea04868  x3=0x00000000
       48445000	      4843	8000391c	00000013	addi	x0,x0,0	  x0:0x00000000
       48455000	      4844	80003920	16baba93	sltiu	x21,x21,363	 x21:0x80000000 x21=0x00000000
       48465000	      4845	80003924	01b1e733	or	x14,x3,x27	  x3:0x00000000 x27:0x800034e5 x14=0x800034e5
       48475000	      4846	80003928	720afe37	lui	x28,0x720af	 x28=0x720af000
       48485000	      4847	8000392c	000c5a63	bge	x24,x0,80003940	 x24:0x0af39fc4  x0:0x00000000
       48495000	      4848	00000000	00000013	addi	x0,x0,0	  x0:0x00000000
       48505000	      4849	8000393c	00000013	addi	x0,x0,0	  x0:0x00000000
       48515000	      4850	80003940	0075f333	and	x6,x11,x7	 x11:0x80009fc4  x7:0xcea04868  x6=0x80000840
       48525000	      4851	80003944	00000013	addi	x0,x0,0	  x0:0x00000000
       48535000	      4852	80003948	007ac913	xori	x18,x21,7	 x21:0x00000000 x18=0x00000007
       48545000	      4853	8000394c	01a71693	slli	x13,x14,0x1a	 x14:0x800034e5 x13=0x94000000
       48555000	      4854	80003950	177d7513	andi	x10,x26,375	 x26:0xd2c09000 x10=0x00000000
       48565000	      4855	80003954	00000013	addi	x0,x0,0	  x0:0x00000000
       48575000	      4856	80003958	0446e263	bltu	x13,x4,8000399c	 x13:0x94000000  x4:0xff800000
       48585000	      4857	00000000	00000013	addi	x0,x0,0	  x0:0x00000000
       48595000	      4858	80003998	00000013	addi	x0,x0,0	  x0:0x00000000
       48605000	      4859	8000399c	004e03b3	add	x7,x28,x4	 x28:0x720af000  x4:0xff800000  x7=0x718af000
       48615000	      4860	800039a0	41938333	sub	x6,x7,x25	  x7:0x718af000 x25:0x41fee8dc  x6=0x2f8c0724
       48625000	      4861	800039a4	05558663	beq	x11,x21,800039f0	 x11:0x80009fc4 x21:0x00000000
       48635000	      4862	800039a8	0041d2b3	srl	x5,x3,x4	  x3:0x00000000  x4:0xff800000  x5=0x00000000
       48645000	      4863	800039ac	41288f33	sub	x30,x17,x18	 x17:0x0af39f00 x18:0x00000007 x30=0x0af39ef9
       48655000	      4864	800039b0	0307d663	bge	x15,x16,800039dc	 x15:0x00000001 x16:0x1685c03b
       48665000	      4865	800039b4	00fd4733	xor	x14,x26,x15	 x26:0xd2c09000 x15:0x00000001 x14=0xd2c09001
       48675000	      4866	800039b8	00782633	slt	x12,x16,x7	 x16:0x1685c03b  x7:0x718af000 x12=0x00000001
       48685000	      4867	800039bc	041fe863	bltu	x31,x1,80003a0c	 x31:0x9c9fffff  x1:0x00000000
       48695000	      4868	800039c0	40715113	srai	x2,x2,0x7	  x2:0x1c766000  x2=0x0038ecc0
       48705000	      4869	800039c4	01415633	srl	x12,x2,x20	  x2:0x0038ecc0 x20:0x9ca00000 x12=0x0038ecc0
       48715000	      4870	800039c8	0002d293	srli	x5,x5,0x0	  x5:0x00000000  x5=0x00000000
       48725000	      4871	800039cc	e2cc8f37	lui	x30,0xe2cc8	 x30=0xe2cc8000
       48735000	      4872	800039d0	40a3ddb3	sra	x27,x7,x10	  x7:0x718af000 x10:0x00000000 x27=0x718af000
       48745000	      4873	800039d4	408103b3	sub	x7,x2,x8	  x2:0x0038ecc0  x8:0x8000a4b7  x7=0x80384809
       48755000	      4874	800039d8	001c5d93	srli	x27,x24,0x1	 x24:0x0af39fc4 x27=0x0579cfe2
       48765000	      4875	800039dc	01a204b3	add	x9,x4,x26	  x4:0xff800000 x26:0xd2c09000  x9=0xd2409000
       48775000	      4876	800039e0	01e18d33	add	x26,x3,x30	  x3:0x00000000 x30:0xe2cc8000 x26=0xe2cc8000
       48785000	      4877	800039e4	03c8e663	bltu	x17,x28,80003a10	 x17:0x0af39f00 x28:0x720af000
       48795000	      4878	00000000	00000013	addi	x0,x0,0	  x0:0x00000000
       48805000	      4879	80003a0c	00000013	addi	x0,x0,0	  x0:0x00000000
       48815000	      4880	80003a10	00000013	addi	x0,x0,0	  x0:0x00000000
       48825000	      4881	80003a14	01a32cb3	slt	x25,x6,x26	  x6:0x2f8c0724 x26:0xe2cc8000 x25=0x00000000
       48835000	      4882	80003a18	05666263	bltu	x12,x22,80003a5c	 x12:0x0038ecc0 x22:0xffffffff
       48845000	      4883	00000000	00000013	addi	x0,x0,0	  x0:0x00000000
       48855000	      4884	80003a58	00000013	addi	x0,x0,0	  x0:0x00000000
       48865000	      4885	80003a5c	2038aa13	slti	x20,x17,515	 x17:0x0af39f00 x20=0x00000000
       48875000	      4886	80003a60	02366e63	bltu	x12,x3,80003a9c	 x12:0x0038ecc0  x3:0x00000000
       48885000	      4887	80003a64	000684b3	add	x9,x13,x0	 x13:0x94000000  x0:0x00000000  x9=0x94000000
       48895000	      4888	80003a68	00b86863	bltu	x16,x11,80003a78	 x16:0x1685c03b x11:0x80009fc4
       48905000	      4889	00000000	00000013	addi	x0,x0,0	  x0:0x00000000
       48915000	      4890	80003a74	00000013	addi	x0,x0,0	  x0:0x00000000
       48925000	      4891	80003a78	014fb8b3	sltu	x17,x31,x20	 x31:0x9c9fffff x20:0x00000000 x17=0x00000000
       48935000	      4892	80003a7c	00b951b3	srl	x3,x18,x11	 x18:0x00000007 x11:0x80009fc4  x3=0x00000000
       48945000	      4893	80003a80	00c71d13	slli	x26,x14,0xc	 x14:0xd2c09001 x26=0x09001000
       48955000	      4894	80003a84	a219c237	lui	x4,0xa219c	  x4=0xa219c000
       48965000	      4895	80003a88	2d216b93	ori	x23,x2,722	  x2:0x0038ecc0 x23=0x0038eed2
       48975000	      4896	80003a8c	41cc84b3	sub	x9,x25,x28	 x25:0x00000000 x28:0x720af000  x9=0x8df51000
       48985000	      4897	80003a90	0110a8b3	slt	x17,x1,x17	  x1:0x00000000 x17:0x00000000 x17=0x00000000
       48995000	      4898	80003a94	4179dab3	sra	x21,x19,x23	 x19:0x80009f48 x23:0x0038eed2 x21=0xffffe000
       49005000	      4899	80003a98	012941b3	xor	x3,x18,x18	 x18:0x00000007 x18:0x00000007  x3=0x00000000
       49015000	      4900	80003a9c	00000013	addi	x0,x0,0	  x0:0x00000000
       49025000	      4901	80003aa0	01f7d033	srl	x0,x15,x31	 x15:0x00000001 x31:0x9c9fffff
       49035000	      4902	80003aa4	415b07b3	sub	x15,x22,x21	 x22:0xffffffff x21:0xffffe000 x15=0x00001fff
       49045000	      4903	80003aa8	19610a93	addi	x21,x2,406	  x2:0x0038ecc0 x21=0x0038ee56
       49055000	      4904	80003aac	00680733	add	x14,x16,x6	 x16:0x1685c03b  x6:0x2f8c0724 x14=0x4611c75f
       49065000	      4905	80003ab0	00568a63	beq	x13,x5,80003ac4	 x13:0x94000000  x5:0x00000000
       49075000	      4906	80003ab4	00225e33	srl	x28,x4,x2	  x4:0xa219c000  x2:0x0038ecc0 x28=0xa219c000
       49085000	      4907	80003ab8	001bdd33	srl	x26,x23,x1	 x23:0x0038eed2  x1:0x00000000 x26=0x0038eed2
       49095000	      4908	80003abc	0190c6b3	xor	x13,x1,x25	  x1:0x00000000 x25:0x00000000 x13=0x00000000
       49105000	      4909	80003ac0	1d6e6313	ori	x6,x28,470	 x28:0xa219c000  x6=0xa219c1d6
       49115000	      4910	80003ac4	7b681e17	auipc	x28,0x7b681	 x28=0xfb684ac0
       49125000	      4911	80003ac8	bf103313	sltiu	x6,x0,-1039	  x0:0x00000000  x6=0x00000001
       49135000	      4912	80003acc	01a6ffb3	and	x31,x13,x26	 x13:0x00000000 x26:0x0038eed2 x31=0x00000000
       49145000	      4913	80003ad0	00760133	add	x2,x12,x7	 x12:0x0038ecc0  x7:0x80384809  x2=0x807134c9
       49155000	      4914	80003ad4	00f671b3	and	x3,x12,x15	 x12:0x0038ecc0 x15:0x00001fff  x3=0x00000cc0
       49165000	      4915	80003ad8	35d3ca93	xori	x21,x7,861	  x7:0x80384809 x21=0x80384b54
       49175000	      4916	80003adc	00000013	addi	x0,x0,0	  x0:0x00000000
       49185000	      4917	80003ae0	00e978b3	and	x17,x18,x14	 x18:0x00000007 x14:0x4611c75f x17=0x00000007
       49195000	      4918	80003ae4	02864063	blt	x12,x8,80003b04	 x12:0x0038ecc0  x8:0x8000a4b7
       49205000	      4919	80003ae8	00ad7033	and	x0,x26,x10	 x26:0x0038eed2 x10:0x00000000
       49215000	      4920	80003aec	001ba933	slt	x18,x23,x1	 x23:0x0038eed2  x1:0x00000000 x18=0x00000000
       49225000	      4921	80003af0	41b65293	srai	x5,x12,0x1b	 x12:0x0038ecc0  x5=0x00000000
       49235000	      4922	80003af4	00000013	addi	x0,x0,0	  x0:0x00000000
       49245000	      4923	80003af8	02c56063	bltu	x10,x12,80003b18	 x10:0x00000000 x12:0x0038ecc0
       49255000	      4924	00000000	00000013	addi	x0,x0,0	  x0:0x00000000
       49265000	      4925	80003b14	00000013	addi	x0,x0,0	  x0:0x00000000
       49275000	      4926	80003b18	03a9c863	blt	x19,x26,80003b48	 x19:0x80009f48 x26:0x0038eed2
       49285000	      4927	00000000	00000013	addi	x0,x0,0	  x0:0x00000000
       49295000	      4928	80003b44	00000013	addi	x0,x0,0	  x0:0x00000000
       49305000	      4929	80003b48	00186033	or	x0,x16,x1	 x16:0x1685c03b  x1:0x00000000
       49315000	      4930	80003b4c	41628cb3	sub	x25,x5,x22	  x5:0x00000000 x22:0xffffffff x25=0x00000001
       49325000	      4931	80003b50	e4122a93	slti	x21,x4,-447	  x4:0xa219c000 x21=0x00000001
       49335000	      4932	80003b54	40ec5733	sra	x14,x24,x14	 x24:0x0af39fc4 x14:0x4611c75f x14=0x00000000
       49345000	      4933	80003b58	00000013	addi	x0,x0,0	  x0:0x00000000
       49355000	      4934	80003b5c	0048f433	and	x8,x17,x4	 x17:0x00000007  x4:0xa219c000  x8=0x00000000
       49365000	      4935	80003b60	0350c063	blt	x1,x21,80003b80	  x1:0x00000000 x21:0x00000001
       49375000	      4936	00000000	00000013	addi	x0,x0,0	  x0:0x00000000
       49385000	      4937	80003b7c	00000013	addi	x0,x0,0	  x0:0x00000000
       49395000	      4938	80003b80	41620833	sub	x16,x4,x22	  x4:0xa219c000 x22:0xffffffff x16=0xa219c001
       49405000	      4939	80003b84	01d5cbb3	xor	x23,x11,x29	 x11:0x80009fc4 x29:0x00000000 x23=0x80009fc4
       49415000	      4940	80003b88	2501c113	xori	x2,x3,592	  x3:0x00000cc0  x2=0x00000e90
       49425000	      4941	80003b8c	01008b33	add	x22,x1,x16	  x1:0x00000000 x16:0xa219c001 x22=0xa219c001
       49435000	      4942	80003b90	00a27e63	bgeu	x4,x10,80003bac	  x4:0xa219c000 x10:0x00000000
       49445000	      4943	00000000	00000013	addi	x0,x0,0	  x0:0x00000000
       49455000	      4944	80003ba8	00000013	addi	x0,x0,0	  x0:0x00000000
       49465000	      4945	80003bac	0056e933	or	x18,x13,x5	 x13:0x00000000  x5:0x00000000 x18=0x00000000
       49475000	      4946	80003bb0	03f45c63	bge	x8,x31,80003be8	  x8:0x00000000 x31:0x00000000
       49485000	      4947	00000000	00000013	addi	x0,x0,0	  x0:0x00000000
       49495000	      4948	80003be4	00000013	addi	x0,x0,0	  x0:0x00000000
       49505000	      4949	80003be8	0081b433	sltu	x8,x3,x8	  x3:0x00000cc0  x8:0x00000000  x8=0x00000000
       49515000	      4950	80003bec	01511db3	sll	x27,x2,x21	  x2:0x00000e90 x21:0x00000001 x27=0x00001d20
       49525000	      4951	80003bf0	5708e613	ori	x12,x17,1392	 x17:0x00000007 x12=0x00000577
       49535000	      4952	80003bf4	012977b3	and	x15,x18,x18	 x18:0x00000000 x18:0x00000000 x15=0x00000000
       49545000	      4953	80003bf8	400d0d33	sub	x26,x26,x0	 x26:0x0038eed2  x0:0x00000000 x26=0x0038eed2
       49555000	      4954	80003bfc	0119f663	bgeu	x19,x17,80003c08	 x19:0x80009f48 x17:0x00000007
       49565000	      4955	00000000	00000013	addi	x0,x0,0	  x0:0x00000000
       49575000	      4956	80003c04	00000013	addi	x0,x0,0	  x0:0x00000000
       49585000	      4957	80003c08	011afcb3	and	x25,x21,x17	 x21:0x00000001 x17:0x00000007 x25=0x00000001
       49595000	      4958	80003c0c	0049a303	lw	x6,4(x19)	 x19:0x80009f48  x6=0x80000148 PA:0x80009f4c
       49605000	      4959	80003c10	00000013	addi	x0,x0,0	  x0:0x00000000
       49615000	      4960	80003c14	e6fea4b7	lui	x9,0xe6fea	  x9=0xe6fea000
       49625000	      4961	80003c18	03c98993	addi	x19,x19,60	 x19:0x80009f48 x19=0x80009f84
       49635000	      4962	80003c1c	00a91213	slli	x4,x18,0xa	 x18:0x00000000  x4=0x00000000
       49645000	      4963	80003c20	00130913	addi	x18,x6,1	  x6:0x80000148 x18=0x80000149
       49655000	      4964	80003c24	00090967	jalr	x18,x18,0	 x18:0x80000149 x18=0x80003c24
       49665000	      4965	00000000	00000013	addi	x0,x0,0	  x0:0x00000000
       49675000	      4966	80000148	00000013	addi	x0,x0,0	  x0:0x00000000
       49685000	      4967	8000014c	0540036f	jal	x6,8000014c	  x6=0x8000014c
       49695000	      4968	00000000	00000013	addi	x0,x0,0	  x0:0x00000000
       49705000	      4969	8000019c	00000013	addi	x0,x0,0	  x0:0x00000000
       49715000	      4970	800001a0	fe1ff26f	jal	x4,800001a0	  x4=0x800001a0
       49725000	      4971	00000000	00000013	addi	x0,x0,0	  x0:0x00000000
       49735000	      4972	8000017c	00000013	addi	x0,x0,0	  x0:0x00000000
       49745000	      4973	80000180	ffdff26f	jal	x4,80000180	  x4=0x80000180
       49755000	      4974	00000000	00000013	addi	x0,x0,0	  x0:0x00000000
       49765000	      4975	80000178	00000013	addi	x0,x0,0	  x0:0x00000000
       49775000	      4976	8000017c	ff5ff36f	jal	x6,8000017c	  x6=0x8000017c
       49785000	      4977	00000000	00000013	addi	x0,x0,0	  x0:0x00000000
       49795000	      4978	8000016c	00000013	addi	x0,x0,0	  x0:0x00000000
       49805000	      4979	80000170	ff5ff0ef	jal	x1,80000170	  x1=0x80000170
       49815000	      4980	00000000	00000013	addi	x0,x0,0	  x0:0x00000000
       49825000	      4981	80000160	00000013	addi	x0,x0,0	  x0:0x00000000
       49835000	      4982	80000164	044000ef	jal	x1,80000164	  x1=0x80000164
       49845000	      4983	00000000	00000013	addi	x0,x0,0	  x0:0x00000000
       49855000	      4984	800001a4	00000013	addi	x0,x0,0	  x0:0x00000000
       49865000	      4985	800001a8	fa9ff0ef	jal	x1,800001a8	  x1=0x800001a8
       49875000	      4986	00000000	00000013	addi	x0,x0,0	  x0:0x00000000
       49885000	      4987	8000014c	00000013	addi	x0,x0,0	  x0:0x00000000
       49895000	      4988	80000150	0280036f	jal	x6,80000150	  x6=0x80000150
       49905000	      4989	00000000	00000013	addi	x0,x0,0	  x0:0x00000000
       49915000	      4990	80000174	00000013	addi	x0,x0,0	  x0:0x00000000
       49925000	      4991	80000178	ffdfff6f	jal	x30,80000178	 x30=0x80000178
       49935000	      4992	00000000	00000013	addi	x0,x0,0	  x0:0x00000000
       49945000	      4993	80000170	00000013	addi	x0,x0,0	  x0:0x00000000
       49955000	      4994	80000174	030000ef	jal	x1,80000174	  x1=0x80000174
       49965000	      4995	00000000	00000013	addi	x0,x0,0	  x0:0x00000000
       49975000	      4996	800001a0	00000013	addi	x0,x0,0	  x0:0x00000000
       49985000	      4997	800001a4	fbdff0ef	jal	x1,800001a4	  x1=0x800001a4
       49995000	      4998	00000000	00000013	addi	x0,x0,0	  x0:0x00000000
       50005000	      4999	8000015c	00000013	addi	x0,x0,0	  x0:0x00000000
       50015000	      5000	80000160	0380036f	jal	x6,80000160	  x6=0x80000160
       50025000	      5001	00000000	00000013	addi	x0,x0,0	  x0:0x00000000
       50035000	      5002	80000194	00000013	addi	x0,x0,0	  x0:0x00000000
       50045000	      5003	80000198	fd1ff36f	jal	x6,80000198	  x6=0x80000198
       50055000	      5004	00000000	00000013	addi	x0,x0,0	  x0:0x00000000
       50065000	      5005	80000164	00000013	addi	x0,x0,0	  x0:0x00000000
       50075000	      5006	80000168	fedff0ef	jal	x1,80000168	  x1=0x80000168
       50085000	      5007	00000000	00000013	addi	x0,x0,0	  x0:0x00000000
       50095000	      5008	80000150	00000013	addi	x0,x0,0	  x0:0x00000000
       50105000	      5009	80000154	0300036f	jal	x6,80000154	  x6=0x80000154
       50115000	      5010	00000000	00000013	addi	x0,x0,0	  x0:0x00000000
       50125000	      5011	80000180	00000013	addi	x0,x0,0	  x0:0x00000000
       50135000	      5012	80000184	fd5ff36f	jal	x6,80000184	  x6=0x80000184
       50145000	      5013	00000000	00000013	addi	x0,x0,0	  x0:0x00000000
       50155000	      5014	80000154	00000013	addi	x0,x0,0	  x0:0x00000000
       50165000	      5015	80000158	03c000ef	jal	x1,80000158	  x1=0x80000158
       50175000	      5016	00000000	00000013	addi	x0,x0,0	  x0:0x00000000
       50185000	      5017	80000190	00000013	addi	x0,x0,0	  x0:0x00000000
       50195000	      5018	80000194	018000ef	jal	x1,80000194	  x1=0x80000194
       50205000	      5019	00000000	00000013	addi	x0,x0,0	  x0:0x00000000
       50215000	      5020	800001a8	00000013	addi	x0,x0,0	  x0:0x00000000
       50225000	      5021	800001ac	fe1ff0ef	jal	x1,800001ac	  x1=0x800001ac
       50235000	      5022	00000000	00000013	addi	x0,x0,0	  x0:0x00000000
       50245000	      5023	80000188	00000013	addi	x0,x0,0	  x0:0x00000000
       50255000	      5024	8000018c	fe1ff0ef	jal	x1,8000018c	  x1=0x8000018c
       50265000	      5025	00000000	00000013	addi	x0,x0,0	  x0:0x00000000
       50275000	      5026	80000168	00000013	addi	x0,x0,0	  x0:0x00000000
       50285000	      5027	8000016c	024000ef	jal	x1,8000016c	  x1=0x8000016c
       50295000	      5028	00000000	00000013	addi	x0,x0,0	  x0:0x00000000
       50305000	      5029	8000018c	00000013	addi	x0,x0,0	  x0:0x00000000
       50315000	      5030	80000190	00c000ef	jal	x1,80000190	  x1=0x80000190
       50325000	      5031	00000000	00000013	addi	x0,x0,0	  x0:0x00000000
       50335000	      5032	80000198	00000013	addi	x0,x0,0	  x0:0x00000000
       50345000	      5033	8000019c	fc1ff0ef	jal	x1,8000019c	  x1=0x8000019c
       50355000	      5034	00000000	00000013	addi	x0,x0,0	  x0:0x00000000
       50365000	      5035	80000158	00000013	addi	x0,x0,0	  x0:0x00000000
       50375000	      5036	8000015c	02c00fef	jal	x31,8000015c	 x31=0x8000015c
       50385000	      5037	00000000	00000013	addi	x0,x0,0	  x0:0x00000000
       50395000	      5038	80000184	00000013	addi	x0,x0,0	  x0:0x00000000
       50405000	      5039	80000188	028001ef	jal	x3,80000188	  x3=0x80000188
       50415000	      5040	00000000	00000013	addi	x0,x0,0	  x0:0x00000000
       50425000	      5041	800001ac	00000013	addi	x0,x0,0	  x0:0x00000000
       50435000	      5042	800001b0	005d22b3	slt	x5,x26,x5	 x26:0x0038eed2  x5:0x00000000  x5=0x00000000
       50445000	      5043	800001b4	00ddd493	srli	x9,x27,0xd	 x27:0x00001d20  x9=0x00000000
       50455000	      5044	800001b8	00ee8cb3	add	x25,x29,x14	 x29:0x00000000 x14:0x00000000 x25=0x00000000
       50465000	      5045	800001bc	017c2e33	slt	x28,x24,x23	 x24:0x0af39fc4 x23:0x80009fc4 x28=0x00000000
       50475000	      5046	800001c0	95aee013	ori	x0,x29,-1702	 x29:0x00000000
       50485000	      5047	800001c4	00162033	slt	x0,x12,x1	 x12:0x00000577  x1:0x8000019c
       50495000	      5048	800001c8	01c50fb3	add	x31,x10,x28	 x10:0x00000000 x28:0x00000000 x31=0x00000000
       50505000	      5049	800001cc	051fc863	blt	x31,x17,8000021c	 x31:0x00000000 x17:0x00000007
       50515000	      5050	00000000	00000013	addi	x0,x0,0	  x0:0x00000000
       50525000	      5051	80000218	00000013	addi	x0,x0,0	  x0:0x00000000
       50535000	      5052	8000021c	012720b3	slt	x1,x14,x18	 x14:0x00000000 x18:0x80003c24  x1=0x00000000
       50545000	      5053	80000220	003eb433	sltu	x8,x29,x3	 x29:0x00000000  x3:0x80000188  x8=0x00000001
       50555000	      5054	80000224	00000013	addi	x0,x0,0	  x0:0x00000000
       50565000	      5055	80000228	6dc71d17	auipc	x26,0x6dc71	 x26=0xedc71224
       50575000	      5056	8000022c	f97a8d93	addi	x27,x21,-105	 x21:0x00000001 x27=0xffffff98
       50585000	      5057	80000230	ae147a93	andi	x21,x8,-1311	  x8:0x00000001 x21=0x00000001
       50595000	      5058	80000234	8ff7f913	andi	x18,x15,-1793	 x15:0x00000000 x18=0x00000000
       50605000	      5059	80000238	00bfacb3	slt	x25,x31,x11	 x31:0x00000000 x11:0x80009fc4 x25=0x00000000
       50615000	      5060	8000023c	000ed933	srl	x18,x29,x0	 x29:0x00000000  x0:0x00000000 x18=0x00000000
       50625000	      5061	80000240	41668833	sub	x16,x13,x22	 x13:0x00000000 x22:0xa219c001 x16=0x5de63fff
       50635000	      5062	80000244	019448b3	xor	x17,x8,x25	  x8:0x00000001 x25:0x00000000 x17=0x00000001
       50645000	      5063	80000248	01555a63	bge	x10,x21,8000025c	 x10:0x00000000 x21:0x00000001
       50655000	      5064	8000024c	01d562b3	or	x5,x10,x29	 x10:0x00000000 x29:0x00000000  x5=0x00000000
       50665000	      5065	80000250	00aae933	or	x18,x21,x10	 x21:0x00000001 x10:0x00000000 x18=0x00000001
       50675000	      5066	80000254	0328d663	bge	x17,x18,80000280	 x17:0x00000001 x18:0x00000001
       50685000	      5067	00000000	00000013	addi	x0,x0,0	  x0:0x00000000
       50695000	      5068	8000027c	00000013	addi	x0,x0,0	  x0:0x00000000
       50705000	      5069	80000280	00f04fb3	xor	x31,x0,x15	  x0:0x00000000 x15:0x00000000 x31=0x00000000
       50715000	      5070	80000284	36edf913	andi	x18,x27,878	 x27:0xffffff98 x18=0x00000308
       50725000	      5071	80000288	16a71837	lui	x16,0x16a71	 x16=0x16a71000
       50735000	      5072	8000028c	015516b3	sll	x13,x10,x21	 x10:0x00000000 x21:0x00000001 x13=0x00000000
       50745000	      5073	80000290	008d70b3	and	x1,x26,x8	 x26:0xedc71224  x8:0x00000001  x1=0x00000000
       50755000	      5074	80000294	008d4a63	blt	x26,x8,800002a8	 x26:0xedc71224  x8:0x00000001
       50765000	      5075	00000000	00000013	addi	x0,x0,0	  x0:0x00000000
       50775000	      5076	800002a4	00000013	addi	x0,x0,0	  x0:0x00000000
       50785000	      5077	800002a8	007b7e63	bgeu	x22,x7,800002c4	 x22:0xa219c001  x7:0x80384809
       50795000	      5078	00000000	00000013	addi	x0,x0,0	  x0:0x00000000
       50805000	      5079	800002c0	00000013	addi	x0,x0,0	  x0:0x00000000
       50815000	      5080	800002c4	18bee293	ori	x5,x29,395	 x29:0x00000000  x5=0x0000018b
       50825000	      5081	800002c8	416c8e33	sub	x28,x25,x22	 x25:0x00000000 x22:0xa219c001 x28=0x5de63fff
       50835000	      5082	800002cc	00000013	addi	x0,x0,0	  x0:0x00000000
       50845000	      5083	800002d0	015dfbb3	and	x23,x27,x21	 x27:0xffffff98 x21:0x00000001 x23=0x00000000
       50855000	      5084	800002d4	000ad413	srli	x8,x21,0x0	 x21:0x00000001  x8=0x00000001
       50865000	      5085	800002d8	bd2d3237	lui	x4,0xbd2d3	  x4=0xbd2d3000
       50875000	      5086	800002dc	01fa62b3	or	x5,x20,x31	 x20:0x00000000 x31:0x00000000  x5=0x00000000
       50885000	      5087	800002e0	00468233	add	x4,x13,x4	 x13:0x00000000  x4:0xbd2d3000  x4=0xbd2d3000
       50895000	      5088	800002e4	01dbc663	blt	x23,x29,800002f0	 x23:0x00000000 x29:0x00000000
       50905000	      5089	800002e8	0187d493	srli	x9,x15,0x18	 x15:0x00000000  x9=0x00000000
       50915000	      5090	800002ec	d3990d13	addi	x26,x18,-711	 x18:0x00000308 x26=0x00000041
       50925000	      5091	800002f0	00a7e463	bltu	x15,x10,800002f8	 x15:0x00000000 x10:0x00000000
       50935000	      5092	800002f4	40715893	srai	x17,x2,0x7	  x2:0x00000e90 x17=0x0000001d
       50945000	      5093	800002f8	011ac3b3	xor	x7,x21,x17	 x21:0x00000001 x17:0x0000001d  x7=0x0000001c
       50955000	      5094	800002fc	00000e97	auipc	x29,0x0	 x29=0x800002f8
       50965000	      5095	80000300	00ce8e93	addi	x29,x29,12	 x29:0x800002f8 x29=0x80000304
       50975000	      5096	80000304	000e8067	jalr	x0,x29,0	 x29:0x80000304
       50985000	      5097	00000000	00000013	addi	x0,x0,0	  x0:0x00000000
       50995000	      5098	80000304	00000013	addi	x0,x0,0	  x0:0x00000000
       51005000	      5099	80000308	00100193	addi	x3,x0,1	  x0:0x00000000  x3=0x00000001
       51015000	      5100	8000030c	00000073	ecall	
       51025000	      5101	80000310	00000013	addi	x0,x0,0	  x0:0x00000000
