		Time			Cycle	PC		Insn	Decoded instruction	Register and memory contents
          65000	         5	80000004	00000293	addi	x5,x0,0	  x0:0x00000000  x5=0x00000000
          75000	         6	80000008	00000313	addi	x6,x0,0	  x0:0x00000000  x6=0x00000000
          85000	         7	8000000c	00628263	beq	x5,x6,80000010	  x5:0x00000000  x6:0x00000000
          95000	         8	00000000	00000013	addi	x0,x0,0	  x0:0x00000000
         105000	         9	8000000c	00000013	addi	x0,x0,0	  x0:0x00000000
         115000	        10	80000010	00000217	auipc	x4,0x0	  x4=0x8000000c
         125000	        11	80000014	00c20213	addi	x4,x4,12	  x4:0x8000000c  x4=0x80000018
         135000	        12	80000018	00020067	jalr	x0,x4,0	  x4:0x80000018
         145000	        13	00000000	00000013	addi	x0,x0,0	  x0:0x00000000
         155000	        14	80000018	00000013	addi	x0,x0,0	  x0:0x00000000
         165000	        15	8000001c	400003b7	lui	x7,0x40000	  x7=0x40000000
         175000	        16	80000020	10038393	addi	x7,x7,256	  x7:0x40000000  x7=0x40000100
         185000	        17	80000024	00000013	addi	x0,x0,0	  x0:0x00000000
         195000	        18	80000028	0000a897	auipc	x17,0xa	 x17=0x8000a024
         205000	        19	8000002c	fa088893	addi	x17,x17,-96	 x17:0x8000a024 x17=0x80009fc4
         215000	        20	80000030	00005397	auipc	x7,0x5	  x7=0x8000502c
         225000	        21	80000034	00438393	addi	x7,x7,4	  x7:0x8000502c  x7=0x80005030
         235000	        22	80000038	0013e393	ori	x7,x7,1	  x7:0x80005030  x7=0x80005031
         245000	        23	8000003c	00000013	addi	x0,x0,0	  x0:0x00000000
         255000	        24	80000040	00000397	auipc	x7,0x0	  x7=0x8000003c
         265000	        25	80000044	02038393	addi	x7,x7,32	  x7:0x8000003c  x7=0x8000005c
         275000	        26	80000048	00000013	addi	x0,x0,0	  x0:0x00000000
         285000	        27	8000004c	00000013	addi	x0,x0,0	  x0:0x00000000
         295000	        28	80000050	000023b7	lui	x7,0x2	  x7=0x00002000
         305000	        29	80000054	80038393	addi	x7,x7,-2048	  x7:0x00002000  x7=0x00001800
         315000	        30	80000058	00000013	addi	x0,x0,0	  x0:0x00000000
         325000	        31	8000005c	00000013	addi	x0,x0,0	  x0:0x00000000
         335000	        32	80000060	44216037	lui	x0,0x44216	
         345000	        33	80000064	f5d00013	addi	x0,x0,-163	  x0:0x00000000
         355000	        34	80000068	800000b7	lui	x1,0x80000	  x1=0x80000000
         365000	        35	8000006c	6231c137	lui	x2,0x6231c	  x2=0x6231c000
         375000	        36	80000070	70710113	addi	x2,x2,1799	  x2:0x6231c000  x2=0x6231c707
         385000	        37	80000074	00000193	addi	x3,x0,0	  x0:0x00000000  x3=0x00000000
         395000	        38	80000078	e9ba9237	lui	x4,0xe9ba9	  x4=0xe9ba9000
         405000	        39	8000007c	1f520213	addi	x4,x4,501	  x4:0xe9ba9000  x4=0xe9ba91f5
         415000	        40	80000080	00000293	addi	x5,x0,0	  x0:0x00000000  x5=0x00000000
         425000	        41	80000084	00a00313	addi	x6,x0,10	  x0:0x00000000  x6=0x0000000a
         435000	        42	80000088	00200393	addi	x7,x0,2	  x0:0x00000000  x7=0x00000002
         445000	        43	8000008c	00600413	addi	x8,x0,6	  x0:0x00000000  x8=0x00000006
         455000	        44	80000090	00000493	addi	x9,x0,0	  x0:0x00000000  x9=0x00000000
         465000	        45	80000094	fabc6537	lui	x10,0xfabc6	 x10=0xfabc6000
         475000	        46	80000098	45d50513	addi	x10,x10,1117	 x10:0xfabc6000 x10=0xfabc645d
         485000	        47	8000009c	800005b7	lui	x11,0x80000	 x11=0x80000000
         495000	        48	800000a0	00000613	addi	x12,x0,0	  x0:0x00000000 x12=0x00000000
         505000	        49	800000a4	00000693	addi	x13,x0,0	  x0:0x00000000 x13=0x00000000
         515000	        50	800000a8	597dd737	lui	x14,0x597dd	 x14=0x597dd000
         525000	        51	800000ac	90670713	addi	x14,x14,-1786	 x14:0x597dd000 x14=0x597dc906
         535000	        52	800000b0	f7ee67b7	lui	x15,0xf7ee6	 x15=0xf7ee6000
         545000	        53	800000b4	52378793	addi	x15,x15,1315	 x15:0xf7ee6000 x15=0xf7ee6523
         555000	        54	800000b8	00700813	addi	x16,x0,7	  x0:0x00000000 x16=0x00000007
         565000	        55	800000bc	00000913	addi	x18,x0,0	  x0:0x00000000 x18=0x00000000
         575000	        56	800000c0	800009b7	lui	x19,0x80000	 x19=0x80000000
         585000	        57	800000c4	00000a13	addi	x20,x0,0	  x0:0x00000000 x20=0x00000000
         595000	        58	800000c8	00000a93	addi	x21,x0,0	  x0:0x00000000 x21=0x00000000
         605000	        59	800000cc	00c00b13	addi	x22,x0,12	  x0:0x00000000 x22=0x0000000c
         615000	        60	800000d0	c6cb8bb7	lui	x23,0xc6cb8	 x23=0xc6cb8000
         625000	        61	800000d4	400b8b93	addi	x23,x23,1024	 x23:0xc6cb8000 x23=0xc6cb8400
         635000	        62	800000d8	80000c37	lui	x24,0x80000	 x24=0x80000000
         645000	        63	800000dc	80000cb7	lui	x25,0x80000	 x25=0x80000000
         655000	        64	800000e0	f43d4d37	lui	x26,0xf43d4	 x26=0xf43d4000
         665000	        65	800000e4	520d0d13	addi	x26,x26,1312	 x26:0xf43d4000 x26=0xf43d4520
         675000	        66	800000e8	152fedb7	lui	x27,0x152fe	 x27=0x152fe000
         685000	        67	800000ec	3ced8d93	addi	x27,x27,974	 x27:0x152fe000 x27=0x152fe3ce
         695000	        68	800000f0	ab696e37	lui	x28,0xab696	 x28=0xab696000
         705000	        69	800000f4	800e0e13	addi	x28,x28,-2048	 x28:0xab696000 x28=0xab695800
         715000	        70	800000f8	00000e93	addi	x29,x0,0	  x0:0x00000000 x29=0x00000000
         725000	        71	800000fc	64000f37	lui	x30,0x64000	 x30=0x64000000
         735000	        72	80000100	7abf0f13	addi	x30,x30,1963	 x30:0x64000000 x30=0x640007ab
         745000	        73	80000104	0000af97	auipc	x31,0xa	 x31=0x8000a100
         755000	        74	80000108	e84f8f93	addi	x31,x31,-380	 x31:0x8000a100 x31=0x80009f84
         765000	        75	8000010c	01c43db3	sltu	x27,x8,x28	  x8:0x00000006 x28:0xab695800 x27=0x00000001
         775000	        76	80000110	00003417	auipc	x8,0x3	  x8=0x8000310c
         785000	        77	80000114	5c040413	addi	x8,x8,1472	  x8:0x8000310c  x8=0x800036cc
         795000	        78	80000118	00c0e4b3	or	x9,x1,x12	  x1:0x80000000 x12:0x00000000  x9=0x80000000
         805000	        79	8000011c	41addf13	srai	x30,x27,0x1a	 x27:0x00000001 x30=0x00000000
         815000	        80	80000120	4d8fd617	auipc	x12,0x4d8fd	 x12=0xcd8fd11c
         825000	        81	80000124	014af033	and	x0,x21,x20	 x21:0x00000000 x20:0x00000000
         835000	        82	80000128	01bd9b13	slli	x22,x27,0x1b	 x27:0x00000001 x22=0x08000000
         845000	        83	8000012c	ec8f8d93	addi	x27,x31,-312	 x31:0x80009f84 x27=0x80009e4c
         855000	        84	80000130	01b115b3	sll	x11,x2,x27	  x2:0x6231c707 x27:0x80009e4c x11=0x1c707000
         865000	        85	80000134	26d40413	addi	x8,x8,621	  x8:0x800036cc  x8=0x80003939
         875000	        86	80000138	4d088693	addi	x13,x17,1232	 x17:0x80009fc4 x13=0x8000a494
         885000	        87	8000013c	d93407e7	jalr	x15,x8,-621	  x8:0x80003939 x15=0x8000013c
         895000	        88	00000000	00000013	addi	x0,x0,0	  x0:0x00000000
         905000	        89	800036cc	00000013	addi	x0,x0,0	  x0:0x00000000
         915000	        90	800036d0	01865913	srli	x18,x12,0x18	 x12:0xcd8fd11c x18=0x000000cd
         925000	        91	800036d4	00b12eb3	slt	x29,x2,x11	  x2:0x6231c707 x11:0x1c707000 x29=0x00000000
         935000	        92	800036d8	7f64eb93	ori	x23,x9,2038	  x9:0x80000000 x23=0x800007f6
         945000	        93	800036dc	01ee9463	bne	x29,x30,800036e4	 x29:0x00000000 x30:0x00000000
         955000	        94	800036e0	06262717	auipc	x14,0x6262	 x14=0x862656dc
         965000	        95	800036e4	fe8f8f93	addi	x31,x31,-24	 x31:0x80009f84 x31=0x80009f6c
         975000	        96	800036e8	da938613	addi	x12,x7,-599	  x7:0x00000002 x12=0xfffffdab
         985000	        97	800036ec	00ffa223	sw	x15,4(x31)	 x31:0x80009f6c x15:0x8000013c PA:0x80009f70
         995000	        98	800036f0	0136d5b3	srl	x11,x13,x19	 x13:0x8000a494 x19:0x80000000 x11=0x8000a494
        1005000	        99	800036f4	006a3133	sltu	x2,x20,x6	 x20:0x00000000  x6:0x0000000a  x2=0x00000001
        1015000	       100	800036f8	01588833	add	x16,x17,x21	 x17:0x80009fc4 x21:0x00000000 x16=0x80009fc4
        1025000	       101	800036fc	80964513	xori	x10,x12,-2039	 x12:0xfffffdab x10=0x000005a2
        1035000	       102	80003700	015241b3	xor	x3,x4,x21	  x4:0xe9ba91f5 x21:0x00000000  x3=0xe9ba91f5
        1045000	       103	80003704	01e713b3	sll	x7,x14,x30	 x14:0x862656dc x30:0x00000000  x7=0x862656dc
        1055000	       104	80003708	1c9945b7	lui	x11,0x1c994	 x11=0x1c994000
        1065000	       105	8000370c	aad2a593	slti	x11,x5,-1363	  x5:0x00000000 x11=0x00000000
        1075000	       106	80003710	fcca4e17	auipc	x28,0xfcca4	 x28=0x7cca770c
        1085000	       107	80003714	72ad8d93	addi	x27,x27,1834	 x27:0x80009e4c x27=0x8000a576
        1095000	       108	80003718	68c38a93	addi	x21,x7,1676	  x7:0x862656dc x21=0x86265d68
        1105000	       109	8000371c	01f3dc13	srli	x24,x7,0x1f	  x7:0x862656dc x24=0x00000001
        1115000	       110	80003720	b15fc7ef	jal	x15,80003720	 x15=0x80003720
        1125000	       111	00000000	00000013	addi	x0,x0,0	  x0:0x00000000
        1135000	       112	80000230	00000013	addi	x0,x0,0	  x0:0x00000000
        1145000	       113	80000234	01bdbeb3	sltu	x29,x27,x27	 x27:0x8000a576 x27:0x8000a576 x29=0x00000000
        1155000	       114	80000238	d2428193	addi	x3,x5,-732	  x5:0x00000000  x3=0xfffffd24
        1165000	       115	8000023c	d1653017	auipc	x0,0xd1653	
        1175000	       116	80000240	01a0bbb3	sltu	x23,x1,x26	  x1:0x80000000 x26:0xf43d4520 x23=0x00000001
        1185000	       117	80000244	fecf8f93	addi	x31,x31,-20	 x31:0x80009f6c x31=0x80009f58
        1195000	       118	80000248	00ffa223	sw	x15,4(x31)	 x31:0x80009f58 x15:0x80003720 PA:0x80009f5c
        1205000	       119	8000024c	00f59433	sll	x8,x11,x15	 x11:0x00000000 x15:0x80003720  x8=0x00000000
        1215000	       120	80000250	01c007ef	jal	x15,80000250	 x15=0x80000250
        1225000	       121	00000000	00000013	addi	x0,x0,0	  x0:0x00000000
        1235000	       122	80000268	00000013	addi	x0,x0,0	  x0:0x00000000
        1245000	       123	8000026c	ff5ff36f	jal	x6,8000026c	  x6=0x8000026c
        1255000	       124	00000000	00000013	addi	x0,x0,0	  x0:0x00000000
        1265000	       125	8000025c	00000013	addi	x0,x0,0	  x0:0x00000000
        1275000	       126	80000260	ff9ff36f	jal	x6,80000260	  x6=0x80000260
        1285000	       127	00000000	00000013	addi	x0,x0,0	  x0:0x00000000
        1295000	       128	80000254	00000013	addi	x0,x0,0	  x0:0x00000000
        1305000	       129	80000258	00c000ef	jal	x1,80000258	  x1=0x80000258
        1315000	       130	00000000	00000013	addi	x0,x0,0	  x0:0x00000000
        1325000	       131	80000260	00000013	addi	x0,x0,0	  x0:0x00000000
        1335000	       132	80000264	014000ef	jal	x1,80000264	  x1=0x80000264
        1345000	       133	00000000	00000013	addi	x0,x0,0	  x0:0x00000000
        1355000	       134	80000274	00000013	addi	x0,x0,0	  x0:0x00000000
        1365000	       135	80000278	ff1ff0ef	jal	x1,80000278	  x1=0x80000278
        1375000	       136	00000000	00000013	addi	x0,x0,0	  x0:0x00000000
        1385000	       137	80000264	00000013	addi	x0,x0,0	  x0:0x00000000
        1395000	       138	80000268	0180036f	jal	x6,80000268	  x6=0x80000268
        1405000	       139	00000000	00000013	addi	x0,x0,0	  x0:0x00000000
        1415000	       140	8000027c	00000013	addi	x0,x0,0	  x0:0x00000000
        1425000	       141	80000280	004000ef	jal	x1,80000280	  x1=0x80000280
        1435000	       142	00000000	00000013	addi	x0,x0,0	  x0:0x00000000
        1445000	       143	80000280	00000013	addi	x0,x0,0	  x0:0x00000000
        1455000	       144	80000284	ff9ff86f	jal	x16,80000284	 x16=0x80000284
        1465000	       145	00000000	00000013	addi	x0,x0,0	  x0:0x00000000
        1475000	       146	80000278	00000013	addi	x0,x0,0	  x0:0x00000000
        1485000	       147	8000027c	fe1ff36f	jal	x6,8000027c	  x6=0x8000027c
        1495000	       148	00000000	00000013	addi	x0,x0,0	  x0:0x00000000
        1505000	       149	80000258	00000013	addi	x0,x0,0	  x0:0x00000000
        1515000	       150	8000025c	018005ef	jal	x11,8000025c	 x11=0x8000025c
        1525000	       151	00000000	00000013	addi	x0,x0,0	  x0:0x00000000
        1535000	       152	80000270	00000013	addi	x0,x0,0	  x0:0x00000000
        1545000	       153	80000274	ffdff0ef	jal	x1,80000274	  x1=0x80000274
        1555000	       154	00000000	00000013	addi	x0,x0,0	  x0:0x00000000
        1565000	       155	8000026c	00000013	addi	x0,x0,0	  x0:0x00000000
        1575000	       156	80000270	fe5ff0ef	jal	x1,80000270	  x1=0x80000270
        1585000	       157	00000000	00000013	addi	x0,x0,0	  x0:0x00000000
        1595000	       158	80000250	00000013	addi	x0,x0,0	  x0:0x00000000
        1605000	       159	80000254	0340036f	jal	x6,80000254	  x6=0x80000254
        1615000	       160	00000000	00000013	addi	x0,x0,0	  x0:0x00000000
        1625000	       161	80000284	00000013	addi	x0,x0,0	  x0:0x00000000
        1635000	       162	80000288	0165adb3	slt	x27,x11,x22	 x11:0x8000025c x22:0x08000000 x27=0x00000001
        1645000	       163	8000028c	038007ef	jal	x15,8000028c	 x15=0x8000028c
        1655000	       164	00000000	00000013	addi	x0,x0,0	  x0:0x00000000
        1665000	       165	800002c0	00000013	addi	x0,x0,0	  x0:0x00000000
        1675000	       166	800002c4	018000ef	jal	x1,800002c4	  x1=0x800002c4
        1685000	       167	00000000	00000013	addi	x0,x0,0	  x0:0x00000000
        1695000	       168	800002d8	00000013	addi	x0,x0,0	  x0:0x00000000
        1705000	       169	800002dc	fedff0ef	jal	x1,800002dc	  x1=0x800002dc
        1715000	       170	00000000	00000013	addi	x0,x0,0	  x0:0x00000000
        1725000	       171	800002c4	00000013	addi	x0,x0,0	  x0:0x00000000
        1735000	       172	800002c8	fd1ff36f	jal	x6,800002c8	  x6=0x800002c8
        1745000	       173	00000000	00000013	addi	x0,x0,0	  x0:0x00000000
        1755000	       174	80000294	00000013	addi	x0,x0,0	  x0:0x00000000
        1765000	       175	80000298	ff9ff36f	jal	x6,80000298	  x6=0x80000298
        1775000	       176	00000000	00000013	addi	x0,x0,0	  x0:0x00000000
        1785000	       177	8000028c	00000013	addi	x0,x0,0	  x0:0x00000000
        1795000	       178	80000290	02c0036f	jal	x6,80000290	  x6=0x80000290
        1805000	       179	00000000	00000013	addi	x0,x0,0	  x0:0x00000000
        1815000	       180	800002b8	00000013	addi	x0,x0,0	  x0:0x00000000
        1825000	       181	800002bc	fd9ff0ef	jal	x1,800002bc	  x1=0x800002bc
        1835000	       182	00000000	00000013	addi	x0,x0,0	  x0:0x00000000
        1845000	       183	80000290	00000013	addi	x0,x0,0	  x0:0x00000000
        1855000	       184	80000294	040007ef	jal	x15,80000294	 x15=0x80000294
        1865000	       185	00000000	00000013	addi	x0,x0,0	  x0:0x00000000
        1875000	       186	800002d0	00000013	addi	x0,x0,0	  x0:0x00000000
        1885000	       187	800002d4	fd1ff1ef	jal	x3,800002d4	  x3=0x800002d4
        1895000	       188	00000000	00000013	addi	x0,x0,0	  x0:0x00000000
        1905000	       189	800002a0	00000013	addi	x0,x0,0	  x0:0x00000000
        1915000	       190	800002a4	0400046f	jal	x8,800002a4	  x8=0x800002a4
        1925000	       191	00000000	00000013	addi	x0,x0,0	  x0:0x00000000
        1935000	       192	800002e0	00000013	addi	x0,x0,0	  x0:0x00000000
        1945000	       193	800002e4	ffdff0ef	jal	x1,800002e4	  x1=0x800002e4
        1955000	       194	00000000	00000013	addi	x0,x0,0	  x0:0x00000000
        1965000	       195	800002dc	00000013	addi	x0,x0,0	  x0:0x00000000
        1975000	       196	800002e0	ff9ff36f	jal	x6,800002e0	  x6=0x800002e0
        1985000	       197	00000000	00000013	addi	x0,x0,0	  x0:0x00000000
        1995000	       198	800002d4	00000013	addi	x0,x0,0	  x0:0x00000000
        2005000	       199	800002d8	ff9ff0ef	jal	x1,800002d8	  x1=0x800002d8
        2015000	       200	00000000	00000013	addi	x0,x0,0	  x0:0x00000000
        2025000	       201	800002cc	00000013	addi	x0,x0,0	  x0:0x00000000
        2035000	       202	800002d0	ff1ff36f	jal	x6,800002d0	  x6=0x800002d0
        2045000	       203	00000000	00000013	addi	x0,x0,0	  x0:0x00000000
        2055000	       204	800002bc	00000013	addi	x0,x0,0	  x0:0x00000000
        2065000	       205	800002c0	fe1ff36f	jal	x6,800002c0	  x6=0x800002c0
        2075000	       206	00000000	00000013	addi	x0,x0,0	  x0:0x00000000
        2085000	       207	8000029c	00000013	addi	x0,x0,0	  x0:0x00000000
        2095000	       208	800002a0	00c000ef	jal	x1,800002a0	  x1=0x800002a0
        2105000	       209	00000000	00000013	addi	x0,x0,0	  x0:0x00000000
        2115000	       210	800002a8	00000013	addi	x0,x0,0	  x0:0x00000000
        2125000	       211	800002ac	ff1ff0ef	jal	x1,800002ac	  x1=0x800002ac
        2135000	       212	00000000	00000013	addi	x0,x0,0	  x0:0x00000000
        2145000	       213	80000298	00000013	addi	x0,x0,0	  x0:0x00000000
        2155000	       214	8000029c	014000ef	jal	x1,8000029c	  x1=0x8000029c
        2165000	       215	00000000	00000013	addi	x0,x0,0	  x0:0x00000000
        2175000	       216	800002ac	00000013	addi	x0,x0,0	  x0:0x00000000
        2185000	       217	800002b0	008000ef	jal	x1,800002b0	  x1=0x800002b0
        2195000	       218	00000000	00000013	addi	x0,x0,0	  x0:0x00000000
        2205000	       219	800002b4	00000013	addi	x0,x0,0	  x0:0x00000000
        2215000	       220	800002b8	ff1ff0ef	jal	x1,800002b8	  x1=0x800002b8
        2225000	       221	00000000	00000013	addi	x0,x0,0	  x0:0x00000000
        2235000	       222	800002a4	00000013	addi	x0,x0,0	  x0:0x00000000
        2245000	       223	800002a8	00c000ef	jal	x1,800002a8	  x1=0x800002a8
        2255000	       224	00000000	00000013	addi	x0,x0,0	  x0:0x00000000
        2265000	       225	800002b0	00000013	addi	x0,x0,0	  x0:0x00000000
        2275000	       226	800002b4	018000ef	jal	x1,800002b4	  x1=0x800002b4
        2285000	       227	00000000	00000013	addi	x0,x0,0	  x0:0x00000000
        2295000	       228	800002c8	00000013	addi	x0,x0,0	  x0:0x00000000
        2305000	       229	800002cc	01c000ef	jal	x1,800002cc	  x1=0x800002cc
        2315000	       230	00000000	00000013	addi	x0,x0,0	  x0:0x00000000
        2325000	       231	800002e4	00000013	addi	x0,x0,0	  x0:0x00000000
        2335000	       232	800002e8	40a15ab3	sra	x21,x2,x10	  x2:0x00000001 x10:0x000005a2 x21=0x00000000
        2345000	       233	800002ec	034007ef	jal	x15,800002ec	 x15=0x800002ec
        2355000	       234	00000000	00000013	addi	x0,x0,0	  x0:0x00000000
        2365000	       235	8000031c	00000013	addi	x0,x0,0	  x0:0x00000000
        2375000	       236	80000320	02800bef	jal	x23,80000320	 x23=0x80000320
        2385000	       237	00000000	00000013	addi	x0,x0,0	  x0:0x00000000
        2395000	       238	80000344	00000013	addi	x0,x0,0	  x0:0x00000000
        2405000	       239	80000348	fbdffbef	jal	x23,80000348	 x23=0x80000348
        2415000	       240	00000000	00000013	addi	x0,x0,0	  x0:0x00000000
        2425000	       241	80000300	00000013	addi	x0,x0,0	  x0:0x00000000
        2435000	       242	80000304	01400a6f	jal	x20,80000304	 x20=0x80000304
        2445000	       243	00000000	00000013	addi	x0,x0,0	  x0:0x00000000
        2455000	       244	80000314	00000013	addi	x0,x0,0	  x0:0x00000000
        2465000	       245	80000318	040000ef	jal	x1,80000318	  x1=0x80000318
        2475000	       246	00000000	00000013	addi	x0,x0,0	  x0:0x00000000
        2485000	       247	80000354	00000013	addi	x0,x0,0	  x0:0x00000000
        2495000	       248	80000358	fd5ff0ef	jal	x1,80000358	  x1=0x80000358
        2505000	       249	00000000	00000013	addi	x0,x0,0	  x0:0x00000000
        2515000	       250	80000328	00000013	addi	x0,x0,0	  x0:0x00000000
        2525000	       251	8000032c	018000ef	jal	x1,8000032c	  x1=0x8000032c
        2535000	       252	00000000	00000013	addi	x0,x0,0	  x0:0x00000000
        2545000	       253	80000340	00000013	addi	x0,x0,0	  x0:0x00000000
        2555000	       254	80000344	fd9ff0ef	jal	x1,80000344	  x1=0x80000344
        2565000	       255	00000000	00000013	addi	x0,x0,0	  x0:0x00000000
        2575000	       256	80000318	00000013	addi	x0,x0,0	  x0:0x00000000
        2585000	       257	8000031c	00c00c6f	jal	x24,8000031c	 x24=0x8000031c
        2595000	       258	00000000	00000013	addi	x0,x0,0	  x0:0x00000000
        2605000	       259	80000324	00000013	addi	x0,x0,0	  x0:0x00000000
        2615000	       260	80000328	fd9ff0ef	jal	x1,80000328	  x1=0x80000328
        2625000	       261	00000000	00000013	addi	x0,x0,0	  x0:0x00000000
        2635000	       262	800002fc	00000013	addi	x0,x0,0	  x0:0x00000000
        2645000	       263	80000300	0300036f	jal	x6,80000300	  x6=0x80000300
        2655000	       264	00000000	00000013	addi	x0,x0,0	  x0:0x00000000
        2665000	       265	8000032c	00000013	addi	x0,x0,0	  x0:0x00000000
        2675000	       266	80000330	fcdff0ef	jal	x1,80000330	  x1=0x80000330
        2685000	       267	00000000	00000013	addi	x0,x0,0	  x0:0x00000000
        2695000	       268	800002f8	00000013	addi	x0,x0,0	  x0:0x00000000
        2705000	       269	800002fc	03c000ef	jal	x1,800002fc	  x1=0x800002fc
        2715000	       270	00000000	00000013	addi	x0,x0,0	  x0:0x00000000
        2725000	       271	80000334	00000013	addi	x0,x0,0	  x0:0x00000000
        2735000	       272	80000338	018000ef	jal	x1,80000338	  x1=0x80000338
        2745000	       273	00000000	00000013	addi	x0,x0,0	  x0:0x00000000
        2755000	       274	8000034c	00000013	addi	x0,x0,0	  x0:0x00000000
        2765000	       275	80000350	fb9ff0ef	jal	x1,80000350	  x1=0x80000350
        2775000	       276	00000000	00000013	addi	x0,x0,0	  x0:0x00000000
        2785000	       277	80000304	00000013	addi	x0,x0,0	  x0:0x00000000
        2795000	       278	80000308	0040036f	jal	x6,80000308	  x6=0x80000308
        2805000	       279	00000000	00000013	addi	x0,x0,0	  x0:0x00000000
        2815000	       280	80000308	00000013	addi	x0,x0,0	  x0:0x00000000
        2825000	       281	8000030c	0180036f	jal	x6,8000030c	  x6=0x8000030c
        2835000	       282	00000000	00000013	addi	x0,x0,0	  x0:0x00000000
        2845000	       283	80000320	00000013	addi	x0,x0,0	  x0:0x00000000
        2855000	       284	80000324	0300016f	jal	x2,80000324	  x2=0x80000324
        2865000	       285	00000000	00000013	addi	x0,x0,0	  x0:0x00000000
        2875000	       286	80000350	00000013	addi	x0,x0,0	  x0:0x00000000
        2885000	       287	80000354	ff9ff66f	jal	x12,80000354	 x12=0x80000354
        2895000	       288	00000000	00000013	addi	x0,x0,0	  x0:0x00000000
        2905000	       289	80000348	00000013	addi	x0,x0,0	  x0:0x00000000
        2915000	       290	8000034c	fadff0ef	jal	x1,8000034c	  x1=0x8000034c
        2925000	       291	00000000	00000013	addi	x0,x0,0	  x0:0x00000000
        2935000	       292	800002f4	00000013	addi	x0,x0,0	  x0:0x00000000
        2945000	       293	800002f8	048000ef	jal	x1,800002f8	  x1=0x800002f8
        2955000	       294	00000000	00000013	addi	x0,x0,0	  x0:0x00000000
        2965000	       295	8000033c	00000013	addi	x0,x0,0	  x0:0x00000000
        2975000	       296	80000340	ffdff0ef	jal	x1,80000340	  x1=0x80000340
        2985000	       297	00000000	00000013	addi	x0,x0,0	  x0:0x00000000
        2995000	       298	80000338	00000013	addi	x0,x0,0	  x0:0x00000000
        3005000	       299	8000033c	fb5ff0ef	jal	x1,8000033c	  x1=0x8000033c
        3015000	       300	00000000	00000013	addi	x0,x0,0	  x0:0x00000000
        3025000	       301	800002ec	00000013	addi	x0,x0,0	  x0:0x00000000
        3035000	       302	800002f0	02000e6f	jal	x28,800002f0	 x28=0x800002f0
        3045000	       303	00000000	00000013	addi	x0,x0,0	  x0:0x00000000
        3055000	       304	8000030c	00000013	addi	x0,x0,0	  x0:0x00000000
        3065000	       305	80000310	fe5ff0ef	jal	x1,80000310	  x1=0x80000310
        3075000	       306	00000000	00000013	addi	x0,x0,0	  x0:0x00000000
        3085000	       307	800002f0	00000013	addi	x0,x0,0	  x0:0x00000000
        3095000	       308	800002f4	0400036f	jal	x6,800002f4	  x6=0x800002f4
        3105000	       309	00000000	00000013	addi	x0,x0,0	  x0:0x00000000
        3115000	       310	80000330	00000013	addi	x0,x0,0	  x0:0x00000000
        3125000	       311	80000334	fe1ff0ef	jal	x1,80000334	  x1=0x80000334
        3135000	       312	00000000	00000013	addi	x0,x0,0	  x0:0x00000000
        3145000	       313	80000310	00000013	addi	x0,x0,0	  x0:0x00000000
        3155000	       314	80000314	0480036f	jal	x6,80000314	  x6=0x80000314
        3165000	       315	00000000	00000013	addi	x0,x0,0	  x0:0x00000000
        3175000	       316	80000358	00000013	addi	x0,x0,0	  x0:0x00000000
        3185000	       317	8000035c	00f0dc33	srl	x24,x1,x15	  x1:0x80000334 x15:0x800002ec x24=0x00080000
        3195000	       318	80000360	004007ef	jal	x15,80000360	 x15=0x80000360
        3205000	       319	00000000	00000013	addi	x0,x0,0	  x0:0x00000000
        3215000	       320	80000360	00000013	addi	x0,x0,0	  x0:0x00000000
        3225000	       321	80000364	030000ef	jal	x1,80000364	  x1=0x80000364
        3235000	       322	00000000	00000013	addi	x0,x0,0	  x0:0x00000000
        3245000	       323	80000390	00000013	addi	x0,x0,0	  x0:0x00000000
        3255000	       324	80000394	0040096f	jal	x18,80000394	 x18=0x80000394
        3265000	       325	00000000	00000013	addi	x0,x0,0	  x0:0x00000000
        3275000	       326	80000394	00000013	addi	x0,x0,0	  x0:0x00000000
        3285000	       327	80000398	fe9ff36f	jal	x6,80000398	  x6=0x80000398
        3295000	       328	00000000	00000013	addi	x0,x0,0	  x0:0x00000000
        3305000	       329	8000037c	00000013	addi	x0,x0,0	  x0:0x00000000
        3315000	       330	80000380	ff9ff0ef	jal	x1,80000380	  x1=0x80000380
        3325000	       331	00000000	00000013	addi	x0,x0,0	  x0:0x00000000
        3335000	       332	80000374	00000013	addi	x0,x0,0	  x0:0x00000000
        3345000	       333	80000378	00c000ef	jal	x1,80000378	  x1=0x80000378
        3355000	       334	00000000	00000013	addi	x0,x0,0	  x0:0x00000000
        3365000	       335	80000380	00000013	addi	x0,x0,0	  x0:0x00000000
        3375000	       336	80000384	0040036f	jal	x6,80000384	  x6=0x80000384
        3385000	       337	00000000	00000013	addi	x0,x0,0	  x0:0x00000000
        3395000	       338	80000384	00000013	addi	x0,x0,0	  x0:0x00000000
        3405000	       339	80000388	fe9ff0ef	jal	x1,80000388	  x1=0x80000388
        3415000	       340	00000000	00000013	addi	x0,x0,0	  x0:0x00000000
        3425000	       341	8000036c	00000013	addi	x0,x0,0	  x0:0x00000000
        3435000	       342	80000370	ffdff6ef	jal	x13,80000370	 x13=0x80000370
        3445000	       343	00000000	00000013	addi	x0,x0,0	  x0:0x00000000
        3455000	       344	80000368	00000013	addi	x0,x0,0	  x0:0x00000000
        3465000	       345	8000036c	020000ef	jal	x1,8000036c	  x1=0x8000036c
        3475000	       346	00000000	00000013	addi	x0,x0,0	  x0:0x00000000
        3485000	       347	80000388	00000013	addi	x0,x0,0	  x0:0x00000000
        3495000	       348	8000038c	ff1ff36f	jal	x6,8000038c	  x6=0x8000038c
        3505000	       349	00000000	00000013	addi	x0,x0,0	  x0:0x00000000
        3515000	       350	80000378	00000013	addi	x0,x0,0	  x0:0x00000000
        3525000	       351	8000037c	ff9ff0ef	jal	x1,8000037c	  x1=0x8000037c
        3535000	       352	00000000	00000013	addi	x0,x0,0	  x0:0x00000000
        3545000	       353	80000370	00000013	addi	x0,x0,0	  x0:0x00000000
        3555000	       354	80000374	01c0016f	jal	x2,80000374	  x2=0x80000374
        3565000	       355	00000000	00000013	addi	x0,x0,0	  x0:0x00000000
        3575000	       356	8000038c	00000013	addi	x0,x0,0	  x0:0x00000000
        3585000	       357	80000390	fd9ff0ef	jal	x1,80000390	  x1=0x80000390
        3595000	       358	00000000	00000013	addi	x0,x0,0	  x0:0x00000000
        3605000	       359	80000364	00000013	addi	x0,x0,0	  x0:0x00000000
        3615000	       360	80000368	034000ef	jal	x1,80000368	  x1=0x80000368
        3625000	       361	00000000	00000013	addi	x0,x0,0	  x0:0x00000000
        3635000	       362	80000398	00000013	addi	x0,x0,0	  x0:0x00000000
        3645000	       363	8000039c	86b4f097	auipc	x1,0x86b4f	  x1=0x06b4f398
        3655000	       364	800003a0	008007ef	jal	x15,800003a0	 x15=0x800003a0
        3665000	       365	00000000	00000013	addi	x0,x0,0	  x0:0x00000000
        3675000	       366	800003a4	00000013	addi	x0,x0,0	  x0:0x00000000
        3685000	       367	800003a8	ffdff1ef	jal	x3,800003a8	  x3=0x800003a8
        3695000	       368	00000000	00000013	addi	x0,x0,0	  x0:0x00000000
        3705000	       369	800003a0	00000013	addi	x0,x0,0	  x0:0x00000000
        3715000	       370	800003a4	0200046f	jal	x8,800003a4	  x8=0x800003a4
        3725000	       371	00000000	00000013	addi	x0,x0,0	  x0:0x00000000
        3735000	       372	800003c0	00000013	addi	x0,x0,0	  x0:0x00000000
        3745000	       373	800003c4	014000ef	jal	x1,800003c4	  x1=0x800003c4
        3755000	       374	00000000	00000013	addi	x0,x0,0	  x0:0x00000000
        3765000	       375	800003d4	00000013	addi	x0,x0,0	  x0:0x00000000
        3775000	       376	800003d8	fddff3ef	jal	x7,800003d8	  x7=0x800003d8
        3785000	       377	00000000	00000013	addi	x0,x0,0	  x0:0x00000000
        3795000	       378	800003b0	00000013	addi	x0,x0,0	  x0:0x00000000
        3805000	       379	800003b4	02c000ef	jal	x1,800003b4	  x1=0x800003b4
        3815000	       380	00000000	00000013	addi	x0,x0,0	  x0:0x00000000
        3825000	       381	800003dc	00000013	addi	x0,x0,0	  x0:0x00000000
        3835000	       382	800003e0	fe1ff36f	jal	x6,800003e0	  x6=0x800003e0
        3845000	       383	00000000	00000013	addi	x0,x0,0	  x0:0x00000000
        3855000	       384	800003bc	00000013	addi	x0,x0,0	  x0:0x00000000
        3865000	       385	800003c0	010004ef	jal	x9,800003c0	  x9=0x800003c0
        3875000	       386	00000000	00000013	addi	x0,x0,0	  x0:0x00000000
        3885000	       387	800003cc	00000013	addi	x0,x0,0	  x0:0x00000000
        3895000	       388	800003d0	00c0036f	jal	x6,800003d0	  x6=0x800003d0
        3905000	       389	00000000	00000013	addi	x0,x0,0	  x0:0x00000000
        3915000	       390	800003d8	00000013	addi	x0,x0,0	  x0:0x00000000
        3925000	       391	800003dc	008009ef	jal	x19,800003dc	 x19=0x800003dc
        3935000	       392	00000000	00000013	addi	x0,x0,0	  x0:0x00000000
        3945000	       393	800003e0	00000013	addi	x0,x0,0	  x0:0x00000000
        3955000	       394	800003e4	0080036f	jal	x6,800003e4	  x6=0x800003e4
        3965000	       395	00000000	00000013	addi	x0,x0,0	  x0:0x00000000
        3975000	       396	800003e8	00000013	addi	x0,x0,0	  x0:0x00000000
        3985000	       397	800003ec	fe1ff76f	jal	x14,800003ec	 x14=0x800003ec
        3995000	       398	00000000	00000013	addi	x0,x0,0	  x0:0x00000000
        4005000	       399	800003c8	00000013	addi	x0,x0,0	  x0:0x00000000
        4015000	       400	800003cc	01c0036f	jal	x6,800003cc	  x6=0x800003cc
        4025000	       401	00000000	00000013	addi	x0,x0,0	  x0:0x00000000
        4035000	       402	800003e4	00000013	addi	x0,x0,0	  x0:0x00000000
        4045000	       403	800003e8	fedff0ef	jal	x1,800003e8	  x1=0x800003e8
        4055000	       404	00000000	00000013	addi	x0,x0,0	  x0:0x00000000
        4065000	       405	800003d0	00000013	addi	x0,x0,0	  x0:0x00000000
        4075000	       406	800003d4	fe9ff0ef	jal	x1,800003d4	  x1=0x800003d4
        4085000	       407	00000000	00000013	addi	x0,x0,0	  x0:0x00000000
        4095000	       408	800003b8	00000013	addi	x0,x0,0	  x0:0x00000000
        4105000	       409	800003bc	ff1ff56f	jal	x10,800003bc	 x10=0x800003bc
        4115000	       410	00000000	00000013	addi	x0,x0,0	  x0:0x00000000
        4125000	       411	800003a8	00000013	addi	x0,x0,0	  x0:0x00000000
        4135000	       412	800003ac	00400cef	jal	x25,800003ac	 x25=0x800003ac
        4145000	       413	00000000	00000013	addi	x0,x0,0	  x0:0x00000000
        4155000	       414	800003ac	00000013	addi	x0,x0,0	  x0:0x00000000
        4165000	       415	800003b0	008009ef	jal	x19,800003b0	 x19=0x800003b0
        4175000	       416	00000000	00000013	addi	x0,x0,0	  x0:0x00000000
        4185000	       417	800003b4	00000013	addi	x0,x0,0	  x0:0x00000000
        4195000	       418	800003b8	010002ef	jal	x5,800003b8	  x5=0x800003b8
        4205000	       419	00000000	00000013	addi	x0,x0,0	  x0:0x00000000
        4215000	       420	800003c4	00000013	addi	x0,x0,0	  x0:0x00000000
        4225000	       421	800003c8	028000ef	jal	x1,800003c8	  x1=0x800003c8
        4235000	       422	00000000	00000013	addi	x0,x0,0	  x0:0x00000000
        4245000	       423	800003ec	00000013	addi	x0,x0,0	  x0:0x00000000
        4255000	       424	800003f0	004000ef	jal	x1,800003f0	  x1=0x800003f0
        4265000	       425	00000000	00000013	addi	x0,x0,0	  x0:0x00000000
        4275000	       426	800003f0	00000013	addi	x0,x0,0	  x0:0x00000000
        4285000	       427	800003f4	a0533eb7	lui	x29,0xa0533	 x29=0xa0533000
        4295000	       428	800003f8	014007ef	jal	x15,800003f8	 x15=0x800003f8
        4305000	       429	00000000	00000013	addi	x0,x0,0	  x0:0x00000000
        4315000	       430	80000408	00000013	addi	x0,x0,0	  x0:0x00000000
        4325000	       431	8000040c	ff1ff36f	jal	x6,8000040c	  x6=0x8000040c
        4335000	       432	00000000	00000013	addi	x0,x0,0	  x0:0x00000000
        4345000	       433	800003f8	00000013	addi	x0,x0,0	  x0:0x00000000
        4355000	       434	800003fc	03400a6f	jal	x20,800003fc	 x20=0x800003fc
        4365000	       435	00000000	00000013	addi	x0,x0,0	  x0:0x00000000
        4375000	       436	8000042c	00000013	addi	x0,x0,0	  x0:0x00000000
        4385000	       437	80000430	fe9ff0ef	jal	x1,80000430	  x1=0x80000430
        4395000	       438	00000000	00000013	addi	x0,x0,0	  x0:0x00000000
        4405000	       439	80000414	00000013	addi	x0,x0,0	  x0:0x00000000
        4415000	       440	80000418	fe9ff0ef	jal	x1,80000418	  x1=0x80000418
        4425000	       441	00000000	00000013	addi	x0,x0,0	  x0:0x00000000
        4435000	       442	800003fc	00000013	addi	x0,x0,0	  x0:0x00000000
        4445000	       443	80000400	038000ef	jal	x1,80000400	  x1=0x80000400
        4455000	       444	00000000	00000013	addi	x0,x0,0	  x0:0x00000000
        4465000	       445	80000434	00000013	addi	x0,x0,0	  x0:0x00000000
        4475000	       446	80000438	fe5ff0ef	jal	x1,80000438	  x1=0x80000438
        4485000	       447	00000000	00000013	addi	x0,x0,0	  x0:0x00000000
        4495000	       448	80000418	00000013	addi	x0,x0,0	  x0:0x00000000
        4505000	       449	8000041c	010002ef	jal	x5,8000041c	  x5=0x8000041c
        4515000	       450	00000000	00000013	addi	x0,x0,0	  x0:0x00000000
        4525000	       451	80000428	00000013	addi	x0,x0,0	  x0:0x00000000
        4535000	       452	8000042c	ffdff1ef	jal	x3,8000042c	  x3=0x8000042c
        4545000	       453	00000000	00000013	addi	x0,x0,0	  x0:0x00000000
        4555000	       454	80000424	00000013	addi	x0,x0,0	  x0:0x00000000
        4565000	       455	80000428	fe1ff66f	jal	x12,80000428	 x12=0x80000428
        4575000	       456	00000000	00000013	addi	x0,x0,0	  x0:0x00000000
        4585000	       457	80000404	00000013	addi	x0,x0,0	  x0:0x00000000
        4595000	       458	80000408	ffdff0ef	jal	x1,80000408	  x1=0x80000408
        4605000	       459	00000000	00000013	addi	x0,x0,0	  x0:0x00000000
        4615000	       460	80000400	00000013	addi	x0,x0,0	  x0:0x00000000
        4625000	       461	80000404	0100036f	jal	x6,80000404	  x6=0x80000404
        4635000	       462	00000000	00000013	addi	x0,x0,0	  x0:0x00000000
        4645000	       463	80000410	00000013	addi	x0,x0,0	  x0:0x00000000
        4655000	       464	80000414	00c0096f	jal	x18,80000414	 x18=0x80000414
        4665000	       465	00000000	00000013	addi	x0,x0,0	  x0:0x00000000
        4675000	       466	8000041c	00000013	addi	x0,x0,0	  x0:0x00000000
        4685000	       467	80000420	ff1ff96f	jal	x18,80000420	 x18=0x80000420
        4695000	       468	00000000	00000013	addi	x0,x0,0	  x0:0x00000000
        4705000	       469	8000040c	00000013	addi	x0,x0,0	  x0:0x00000000
        4715000	       470	80000410	024000ef	jal	x1,80000410	  x1=0x80000410
        4725000	       471	00000000	00000013	addi	x0,x0,0	  x0:0x00000000
        4735000	       472	80000430	00000013	addi	x0,x0,0	  x0:0x00000000
        4745000	       473	80000434	ff1ff1ef	jal	x3,80000434	  x3=0x80000434
        4755000	       474	00000000	00000013	addi	x0,x0,0	  x0:0x00000000
        4765000	       475	80000420	00000013	addi	x0,x0,0	  x0:0x00000000
        4775000	       476	80000424	0180066f	jal	x12,80000424	 x12=0x80000424
        4785000	       477	00000000	00000013	addi	x0,x0,0	  x0:0x00000000
        4795000	       478	80000438	00000013	addi	x0,x0,0	  x0:0x00000000
        4805000	       479	8000043c	00319813	slli	x16,x3,0x3	  x3:0x80000434 x16=0x000021a0
        4815000	       480	80000440	034007ef	jal	x15,80000440	 x15=0x80000440
        4825000	       481	00000000	00000013	addi	x0,x0,0	  x0:0x00000000
        4835000	       482	80000470	00000013	addi	x0,x0,0	  x0:0x00000000
        4845000	       483	80000474	fddff36f	jal	x6,80000474	  x6=0x80000474
        4855000	       484	00000000	00000013	addi	x0,x0,0	  x0:0x00000000
        4865000	       485	8000044c	00000013	addi	x0,x0,0	  x0:0x00000000
        4875000	       486	80000450	028000ef	jal	x1,80000450	  x1=0x80000450
        4885000	       487	00000000	00000013	addi	x0,x0,0	  x0:0x00000000
        4895000	       488	80000474	00000013	addi	x0,x0,0	  x0:0x00000000
        4905000	       489	80000478	fd1ff2ef	jal	x5,80000478	  x5=0x80000478
        4915000	       490	00000000	00000013	addi	x0,x0,0	  x0:0x00000000
        4925000	       491	80000444	00000013	addi	x0,x0,0	  x0:0x00000000
        4935000	       492	80000448	040001ef	jal	x3,80000448	  x3=0x80000448
        4945000	       493	00000000	00000013	addi	x0,x0,0	  x0:0x00000000
        4955000	       494	80000484	00000013	addi	x0,x0,0	  x0:0x00000000
        4965000	       495	80000488	fc5ff0ef	jal	x1,80000488	  x1=0x80000488
        4975000	       496	00000000	00000013	addi	x0,x0,0	  x0:0x00000000
        4985000	       497	80000448	00000013	addi	x0,x0,0	  x0:0x00000000
        4995000	       498	8000044c	030000ef	jal	x1,8000044c	  x1=0x8000044c
        5005000	       499	00000000	00000013	addi	x0,x0,0	  x0:0x00000000
        5015000	       500	80000478	00000013	addi	x0,x0,0	  x0:0x00000000
        5025000	       501	8000047c	fe1ff0ef	jal	x1,8000047c	  x1=0x8000047c
        5035000	       502	00000000	00000013	addi	x0,x0,0	  x0:0x00000000
        5045000	       503	80000458	00000013	addi	x0,x0,0	  x0:0x00000000
        5055000	       504	8000045c	fe9ff0ef	jal	x1,8000045c	  x1=0x8000045c
        5065000	       505	00000000	00000013	addi	x0,x0,0	  x0:0x00000000
        5075000	       506	80000440	00000013	addi	x0,x0,0	  x0:0x00000000
        5085000	       507	80000444	048000ef	jal	x1,80000444	  x1=0x80000444
        5095000	       508	00000000	00000013	addi	x0,x0,0	  x0:0x00000000
        5105000	       509	80000488	00000013	addi	x0,x0,0	  x0:0x00000000
        5115000	       510	8000048c	ff9ff0ef	jal	x1,8000048c	  x1=0x8000048c
        5125000	       511	00000000	00000013	addi	x0,x0,0	  x0:0x00000000
        5135000	       512	80000480	00000013	addi	x0,x0,0	  x0:0x00000000
        5145000	       513	80000484	ffdff16f	jal	x2,80000484	  x2=0x80000484
        5155000	       514	00000000	00000013	addi	x0,x0,0	  x0:0x00000000
        5165000	       515	8000047c	00000013	addi	x0,x0,0	  x0:0x00000000
        5175000	       516	80000480	fd9ff0ef	jal	x1,80000480	  x1=0x80000480
        5185000	       517	00000000	00000013	addi	x0,x0,0	  x0:0x00000000
        5195000	       518	80000454	00000013	addi	x0,x0,0	  x0:0x00000000
        5205000	       519	80000458	0180036f	jal	x6,80000458	  x6=0x80000458
        5215000	       520	00000000	00000013	addi	x0,x0,0	  x0:0x00000000
        5225000	       521	8000046c	00000013	addi	x0,x0,0	  x0:0x00000000
        5235000	       522	80000470	03000def	jal	x27,80000470	 x27=0x80000470
        5245000	       523	00000000	00000013	addi	x0,x0,0	  x0:0x00000000
        5255000	       524	8000049c	00000013	addi	x0,x0,0	  x0:0x00000000
        5265000	       525	800004a0	ffdff0ef	jal	x1,800004a0	  x1=0x800004a0
        5275000	       526	00000000	00000013	addi	x0,x0,0	  x0:0x00000000
        5285000	       527	80000498	00000013	addi	x0,x0,0	  x0:0x00000000
        5295000	       528	8000049c	ff9ff0ef	jal	x1,8000049c	  x1=0x8000049c
        5305000	       529	00000000	00000013	addi	x0,x0,0	  x0:0x00000000
        5315000	       530	80000490	00000013	addi	x0,x0,0	  x0:0x00000000
        5325000	       531	80000494	fd5ff0ef	jal	x1,80000494	  x1=0x80000494
        5335000	       532	00000000	00000013	addi	x0,x0,0	  x0:0x00000000
        5345000	       533	80000464	00000013	addi	x0,x0,0	  x0:0x00000000
        5355000	       534	80000468	ffdff0ef	jal	x1,80000468	  x1=0x80000468
        5365000	       535	00000000	00000013	addi	x0,x0,0	  x0:0x00000000
        5375000	       536	80000460	00000013	addi	x0,x0,0	  x0:0x00000000
        5385000	       537	80000464	ffdff0ef	jal	x1,80000464	  x1=0x80000464
        5395000	       538	00000000	00000013	addi	x0,x0,0	  x0:0x00000000
        5405000	       539	8000045c	00000013	addi	x0,x0,0	  x0:0x00000000
        5415000	       540	80000460	038000ef	jal	x1,80000460	  x1=0x80000460
        5425000	       541	00000000	00000013	addi	x0,x0,0	  x0:0x00000000
        5435000	       542	80000494	00000013	addi	x0,x0,0	  x0:0x00000000
        5445000	       543	80000498	fd5ff0ef	jal	x1,80000498	  x1=0x80000498
        5455000	       544	00000000	00000013	addi	x0,x0,0	  x0:0x00000000
        5465000	       545	80000468	00000013	addi	x0,x0,0	  x0:0x00000000
        5475000	       546	8000046c	fe9ff4ef	jal	x9,8000046c	  x9=0x8000046c
        5485000	       547	00000000	00000013	addi	x0,x0,0	  x0:0x00000000
        5495000	       548	80000450	00000013	addi	x0,x0,0	  x0:0x00000000
        5505000	       549	80000454	03c000ef	jal	x1,80000454	  x1=0x80000454
        5515000	       550	00000000	00000013	addi	x0,x0,0	  x0:0x00000000
        5525000	       551	8000048c	00000013	addi	x0,x0,0	  x0:0x00000000
        5535000	       552	80000490	01400eef	jal	x29,80000490	 x29=0x80000490
        5545000	       553	00000000	00000013	addi	x0,x0,0	  x0:0x00000000
        5555000	       554	800004a0	00000013	addi	x0,x0,0	  x0:0x00000000
        5565000	       555	800004a4	4026e417	auipc	x8,0x4026e	  x8=0xc026e4a0
        5575000	       556	800004a8	014007ef	jal	x15,800004a8	 x15=0x800004a8
        5585000	       557	00000000	00000013	addi	x0,x0,0	  x0:0x00000000
        5595000	       558	800004b8	00000013	addi	x0,x0,0	  x0:0x00000000
        5605000	       559	800004bc	0040036f	jal	x6,800004bc	  x6=0x800004bc
        5615000	       560	00000000	00000013	addi	x0,x0,0	  x0:0x00000000
        5625000	       561	800004bc	00000013	addi	x0,x0,0	  x0:0x00000000
        5635000	       562	800004c0	010000ef	jal	x1,800004c0	  x1=0x800004c0
        5645000	       563	00000000	00000013	addi	x0,x0,0	  x0:0x00000000
        5655000	       564	800004cc	00000013	addi	x0,x0,0	  x0:0x00000000
        5665000	       565	800004d0	ff5ffcef	jal	x25,800004d0	 x25=0x800004d0
        5675000	       566	00000000	00000013	addi	x0,x0,0	  x0:0x00000000
        5685000	       567	800004c0	00000013	addi	x0,x0,0	  x0:0x00000000
        5695000	       568	800004c4	024000ef	jal	x1,800004c4	  x1=0x800004c4
        5705000	       569	00000000	00000013	addi	x0,x0,0	  x0:0x00000000
        5715000	       570	800004e4	00000013	addi	x0,x0,0	  x0:0x00000000
        5725000	       571	800004e8	008000ef	jal	x1,800004e8	  x1=0x800004e8
        5735000	       572	00000000	00000013	addi	x0,x0,0	  x0:0x00000000
        5745000	       573	800004ec	00000013	addi	x0,x0,0	  x0:0x00000000
        5755000	       574	800004f0	fe9ff36f	jal	x6,800004f0	  x6=0x800004f0
        5765000	       575	00000000	00000013	addi	x0,x0,0	  x0:0x00000000
        5775000	       576	800004d4	00000013	addi	x0,x0,0	  x0:0x00000000
        5785000	       577	800004d8	ff5ff96f	jal	x18,800004d8	 x18=0x800004d8
        5795000	       578	00000000	00000013	addi	x0,x0,0	  x0:0x00000000
        5805000	       579	800004c8	00000013	addi	x0,x0,0	  x0:0x00000000
        5815000	       580	800004cc	0200036f	jal	x6,800004cc	  x6=0x800004cc
        5825000	       581	00000000	00000013	addi	x0,x0,0	  x0:0x00000000
        5835000	       582	800004e8	00000013	addi	x0,x0,0	  x0:0x00000000
        5845000	       583	800004ec	fc1ff0ef	jal	x1,800004ec	  x1=0x800004ec
        5855000	       584	00000000	00000013	addi	x0,x0,0	  x0:0x00000000
        5865000	       585	800004a8	00000013	addi	x0,x0,0	  x0:0x00000000
        5875000	       586	800004ac	030003ef	jal	x7,800004ac	  x7=0x800004ac
        5885000	       587	00000000	00000013	addi	x0,x0,0	  x0:0x00000000
        5895000	       588	800004d8	00000013	addi	x0,x0,0	  x0:0x00000000
        5905000	       589	800004dc	fd5ff0ef	jal	x1,800004dc	  x1=0x800004dc
        5915000	       590	00000000	00000013	addi	x0,x0,0	  x0:0x00000000
        5925000	       591	800004ac	00000013	addi	x0,x0,0	  x0:0x00000000
        5935000	       592	800004b0	0240036f	jal	x6,800004b0	  x6=0x800004b0
        5945000	       593	00000000	00000013	addi	x0,x0,0	  x0:0x00000000
        5955000	       594	800004d0	00000013	addi	x0,x0,0	  x0:0x00000000
        5965000	       595	800004d4	0100036f	jal	x6,800004d4	  x6=0x800004d4
        5975000	       596	00000000	00000013	addi	x0,x0,0	  x0:0x00000000
        5985000	       597	800004e0	00000013	addi	x0,x0,0	  x0:0x00000000
        5995000	       598	800004e4	fd1ff0ef	jal	x1,800004e4	  x1=0x800004e4
        6005000	       599	00000000	00000013	addi	x0,x0,0	  x0:0x00000000
        6015000	       600	800004b0	00000013	addi	x0,x0,0	  x0:0x00000000
        6025000	       601	800004b4	004000ef	jal	x1,800004b4	  x1=0x800004b4
        6035000	       602	00000000	00000013	addi	x0,x0,0	  x0:0x00000000
        6045000	       603	800004b4	00000013	addi	x0,x0,0	  x0:0x00000000
        6055000	       604	800004b8	02800a6f	jal	x20,800004b8	 x20=0x800004b8
        6065000	       605	00000000	00000013	addi	x0,x0,0	  x0:0x00000000
        6075000	       606	800004dc	00000013	addi	x0,x0,0	  x0:0x00000000
        6085000	       607	800004e0	fe9ff5ef	jal	x11,800004e0	 x11=0x800004e0
        6095000	       608	00000000	00000013	addi	x0,x0,0	  x0:0x00000000
        6105000	       609	800004c4	00000013	addi	x0,x0,0	  x0:0x00000000
        6115000	       610	800004c8	02c00f6f	jal	x30,800004c8	 x30=0x800004c8
        6125000	       611	00000000	00000013	addi	x0,x0,0	  x0:0x00000000
        6135000	       612	800004f0	00000013	addi	x0,x0,0	  x0:0x00000000
        6145000	       613	800004f4	a6485e17	auipc	x28,0xa6485	 x28=0x264854f0
        6155000	       614	800004f8	030007ef	jal	x15,800004f8	 x15=0x800004f8
        6165000	       615	00000000	00000013	addi	x0,x0,0	  x0:0x00000000
        6175000	       616	80000524	00000013	addi	x0,x0,0	  x0:0x00000000
        6185000	       617	80000528	fe5ff0ef	jal	x1,80000528	  x1=0x80000528
        6195000	       618	00000000	00000013	addi	x0,x0,0	  x0:0x00000000
        6205000	       619	80000508	00000013	addi	x0,x0,0	  x0:0x00000000
        6215000	       620	8000050c	ff1ff0ef	jal	x1,8000050c	  x1=0x8000050c
        6225000	       621	00000000	00000013	addi	x0,x0,0	  x0:0x00000000
        6235000	       622	800004f8	00000013	addi	x0,x0,0	  x0:0x00000000
        6245000	       623	800004fc	054000ef	jal	x1,800004fc	  x1=0x800004fc
        6255000	       624	00000000	00000013	addi	x0,x0,0	  x0:0x00000000
        6265000	       625	8000054c	00000013	addi	x0,x0,0	  x0:0x00000000
        6275000	       626	80000550	fddff0ef	jal	x1,80000550	  x1=0x80000550
        6285000	       627	00000000	00000013	addi	x0,x0,0	  x0:0x00000000
        6295000	       628	80000528	00000013	addi	x0,x0,0	  x0:0x00000000
        6305000	       629	8000052c	01c003ef	jal	x7,8000052c	  x7=0x8000052c
        6315000	       630	00000000	00000013	addi	x0,x0,0	  x0:0x00000000
        6325000	       631	80000544	00000013	addi	x0,x0,0	  x0:0x00000000
        6335000	       632	80000548	fe9ff0ef	jal	x1,80000548	  x1=0x80000548
        6345000	       633	00000000	00000013	addi	x0,x0,0	  x0:0x00000000
        6355000	       634	8000052c	00000013	addi	x0,x0,0	  x0:0x00000000
        6365000	       635	80000530	fd1ff0ef	jal	x1,80000530	  x1=0x80000530
        6375000	       636	00000000	00000013	addi	x0,x0,0	  x0:0x00000000
        6385000	       637	800004fc	00000013	addi	x0,x0,0	  x0:0x00000000
        6395000	       638	80000500	004000ef	jal	x1,80000500	  x1=0x80000500
        6405000	       639	00000000	00000013	addi	x0,x0,0	  x0:0x00000000
        6415000	       640	80000500	00000013	addi	x0,x0,0	  x0:0x00000000
        6425000	       641	80000504	0040036f	jal	x6,80000504	  x6=0x80000504
        6435000	       642	00000000	00000013	addi	x0,x0,0	  x0:0x00000000
        6445000	       643	80000504	00000013	addi	x0,x0,0	  x0:0x00000000
        6455000	       644	80000508	02c000ef	jal	x1,80000508	  x1=0x80000508
        6465000	       645	00000000	00000013	addi	x0,x0,0	  x0:0x00000000
        6475000	       646	80000530	00000013	addi	x0,x0,0	  x0:0x00000000
        6485000	       647	80000534	018000ef	jal	x1,80000534	  x1=0x80000534
        6495000	       648	00000000	00000013	addi	x0,x0,0	  x0:0x00000000
        6505000	       649	80000548	00000013	addi	x0,x0,0	  x0:0x00000000
        6515000	       650	8000054c	fd1ff2ef	jal	x5,8000054c	  x5=0x8000054c
        6525000	       651	00000000	00000013	addi	x0,x0,0	  x0:0x00000000
        6535000	       652	80000518	00000013	addi	x0,x0,0	  x0:0x00000000
        6545000	       653	8000051c	028000ef	jal	x1,8000051c	  x1=0x8000051c
        6555000	       654	00000000	00000013	addi	x0,x0,0	  x0:0x00000000
        6565000	       655	80000540	00000013	addi	x0,x0,0	  x0:0x00000000
        6575000	       656	80000544	fd1ff0ef	jal	x1,80000544	  x1=0x80000544
        6585000	       657	00000000	00000013	addi	x0,x0,0	  x0:0x00000000
        6595000	       658	80000510	00000013	addi	x0,x0,0	  x0:0x00000000
        6605000	       659	80000514	01000d6f	jal	x26,80000514	 x26=0x80000514
        6615000	       660	00000000	00000013	addi	x0,x0,0	  x0:0x00000000
        6625000	       661	80000520	00000013	addi	x0,x0,0	  x0:0x00000000
        6635000	       662	80000524	ffdffb6f	jal	x22,80000524	 x22=0x80000524
        6645000	       663	00000000	00000013	addi	x0,x0,0	  x0:0x00000000
        6655000	       664	8000051c	00000013	addi	x0,x0,0	  x0:0x00000000
        6665000	       665	80000520	0180046f	jal	x8,80000520	  x8=0x80000520
        6675000	       666	00000000	00000013	addi	x0,x0,0	  x0:0x00000000
        6685000	       667	80000534	00000013	addi	x0,x0,0	  x0:0x00000000
        6695000	       668	80000538	00800def	jal	x27,80000538	 x27=0x80000538
        6705000	       669	00000000	00000013	addi	x0,x0,0	  x0:0x00000000
        6715000	       670	8000053c	00000013	addi	x0,x0,0	  x0:0x00000000
        6725000	       671	80000540	fd9ff16f	jal	x2,80000540	  x2=0x80000540
        6735000	       672	00000000	00000013	addi	x0,x0,0	  x0:0x00000000
        6745000	       673	80000514	00000013	addi	x0,x0,0	  x0:0x00000000
        6755000	       674	80000518	024000ef	jal	x1,80000518	  x1=0x80000518
        6765000	       675	00000000	00000013	addi	x0,x0,0	  x0:0x00000000
        6775000	       676	80000538	00000013	addi	x0,x0,0	  x0:0x00000000
        6785000	       677	8000053c	fd5ff0ef	jal	x1,8000053c	  x1=0x8000053c
        6795000	       678	00000000	00000013	addi	x0,x0,0	  x0:0x00000000
        6805000	       679	8000050c	00000013	addi	x0,x0,0	  x0:0x00000000
        6815000	       680	80000510	04400def	jal	x27,80000510	 x27=0x80000510
        6825000	       681	00000000	00000013	addi	x0,x0,0	  x0:0x00000000
        6835000	       682	80000550	00000013	addi	x0,x0,0	  x0:0x00000000
        6845000	       683	80000554	00c83c33	sltu	x24,x16,x12	 x16:0x000021a0 x12:0x80000424 x24=0x00000001
        6855000	       684	80000558	01a099b3	sll	x19,x1,x26	  x1:0x8000053c x26:0x80000514 x19=0x53c00000
        6865000	       685	8000055c	00c900b3	add	x1,x18,x12	 x18:0x800004d8 x12:0x80000424  x1=0x000008fc
        6875000	       686	80000560	01ad7733	and	x14,x26,x26	 x26:0x80000514 x26:0x80000514 x14=0x80000514
        6885000	       687	80000564	01b09433	sll	x8,x1,x27	  x1:0x000008fc x27:0x80000510  x8=0x08fc0000
        6895000	       688	80000568	03ed0e63	beq	x26,x30,800005a4	 x26:0x80000514 x30:0x800004c8
        6905000	       689	8000056c	4081d713	srai	x14,x3,0x8	  x3:0x80000448 x14=0xff800004
        6915000	       690	80000570	016df333	and	x6,x27,x22	 x27:0x80000510 x22:0x80000524  x6=0x80000500
        6925000	       691	80000574	261ecb93	xori	x23,x29,609	 x29:0x80000490 x23=0x800006f1
        6935000	       692	80000578	0023ecb3	or	x25,x7,x2	  x7:0x8000052c  x2:0x80000540 x25=0x8000056c
        6945000	       693	8000057c	8f9bab13	slti	x22,x23,-1799	 x23:0x800006f1 x22=0x00000001
        6955000	       694	80000580	033f7663	bgeu	x30,x19,800005ac	 x30:0x800004c8 x19:0x53c00000
        6965000	       695	00000000	00000013	addi	x0,x0,0	  x0:0x00000000
        6975000	       696	800005a8	00000013	addi	x0,x0,0	  x0:0x00000000
        6985000	       697	800005ac	03d5e063	bltu	x11,x29,800005cc	 x11:0x800004e0 x29:0x80000490
        6995000	       698	800005b0	0373da63	bge	x7,x23,800005e4	  x7:0x8000052c x23:0x800006f1
        7005000	       699	800005b4	012317b3	sll	x15,x6,x18	  x6:0x80000500 x18:0x800004d8 x15=0x00000000
        7015000	       700	800005b8	004d9c93	slli	x25,x27,0x4	 x27:0x80000510 x25=0x00005100
        7025000	       701	800005bc	04e85263	bge	x16,x14,80000600	 x16:0x000021a0 x14:0xff800004
        7035000	       702	00000000	00000013	addi	x0,x0,0	  x0:0x00000000
        7045000	       703	800005fc	00000013	addi	x0,x0,0	  x0:0x00000000
        7055000	       704	80000600	005141b3	xor	x3,x2,x5	  x2:0x80000540  x5:0x8000054c  x3=0x0000000c
        7065000	       705	80000604	03665e63	bge	x12,x22,80000640	 x12:0x80000424 x22:0x00000001
        7075000	       706	80000608	00000013	addi	x0,x0,0	  x0:0x00000000
        7085000	       707	8000060c	015e8cb3	add	x25,x29,x21	 x29:0x80000490 x21:0x00000000 x25=0x80000490
        7095000	       708	80000610	04d6c663	blt	x13,x13,8000065c	 x13:0x80000370 x13:0x80000370
        7105000	       709	80000614	00d19663	bne	x3,x13,80000620	  x3:0x0000000c x13:0x80000370
        7115000	       710	00000000	00000013	addi	x0,x0,0	  x0:0x00000000
        7125000	       711	8000061c	00000013	addi	x0,x0,0	  x0:0x00000000
        7135000	       712	80000620	00adc6b3	xor	x13,x27,x10	 x27:0x80000510 x10:0x800003bc x13=0x000006ac
        7145000	       713	80000624	04f10863	beq	x2,x15,80000674	  x2:0x80000540 x15:0x00000000
        7155000	       714	80000628	0193b133	sltu	x2,x7,x25	  x7:0x8000052c x25:0x80000490  x2=0x00000000
        7165000	       715	8000062c	05cb9863	bne	x23,x28,8000067c	 x23:0x800006f1 x28:0x264854f0
        7175000	       716	00000000	00000013	addi	x0,x0,0	  x0:0x00000000
        7185000	       717	80000678	00000013	addi	x0,x0,0	  x0:0x00000000
        7195000	       718	8000067c	00be0e33	add	x28,x28,x11	 x28:0x264854f0 x11:0x800004e0 x28=0xa64859d0
        7205000	       719	80000680	020c6063	bltu	x24,x0,800006a0	 x24:0x00000001  x0:0x00000000
        7215000	       720	80000684	41c486b3	sub	x13,x9,x28	  x9:0x8000046c x28:0xa64859d0 x13=0xd9b7aa9c
        7225000	       721	80000688	6dfc3e93	sltiu	x29,x24,1759	 x24:0x00000001 x29=0x00000001
        7235000	       722	8000068c	00fe0db3	add	x27,x28,x15	 x28:0xa64859d0 x15:0x00000000 x27=0xa64859d0
        7245000	       723	80000690	c0449517	auipc	x10,0xc0449	 x10=0x4044968c
        7255000	       724	80000694	bbc5cc17	auipc	x24,0xbbc5c	 x24=0x3bc5c690
        7265000	       725	80000698	d7db2313	slti	x6,x22,-643	 x22:0x00000001  x6=0x00000000
        7275000	       726	8000069c	40545a13	srai	x20,x8,0x5	  x8:0x08fc0000 x20=0x0047e000
        7285000	       727	800006a0	018f4533	xor	x10,x30,x24	 x30:0x800004c8 x24:0x3bc5c690 x10=0xbbc5c258
        7295000	       728	800006a4	8ef60713	addi	x14,x12,-1809	 x12:0x80000424 x14=0x7ffffd13
        7305000	       729	800006a8	018a5d93	srli	x27,x20,0x18	 x20:0x0047e000 x27=0x00000000
        7315000	       730	800006ac	039e6263	bltu	x28,x25,800006d0	 x28:0xa64859d0 x25:0x80000490
        7325000	       731	800006b0	41170eb3	sub	x29,x14,x17	 x14:0x7ffffd13 x17:0x80009fc4 x29=0xffff5d4f
        7335000	       732	800006b4	007e7cb3	and	x25,x28,x7	 x28:0xa64859d0  x7:0x8000052c x25=0x80000100
        7345000	       733	800006b8	03879a63	bne	x15,x24,800006ec	 x15:0x00000000 x24:0x3bc5c690
        7355000	       734	00000000	00000013	addi	x0,x0,0	  x0:0x00000000
        7365000	       735	800006e8	00000013	addi	x0,x0,0	  x0:0x00000000
        7375000	       736	800006ec	40cf5a33	sra	x20,x30,x12	 x30:0x800004c8 x12:0x80000424 x20=0xf800004c
        7385000	       737	800006f0	01f10433	add	x8,x2,x31	  x2:0x00000000 x31:0x80009f58  x8=0x80009f58
        7395000	       738	800006f4	0582e113	ori	x2,x5,88	  x5:0x8000054c  x2=0x8000055c
        7405000	       739	800006f8	00a15493	srli	x9,x2,0xa	  x2:0x8000055c  x9=0x00200001
        7415000	       740	800006fc	01e21a93	slli	x21,x4,0x1e	  x4:0xe9ba91f5 x21=0x40000000
        7425000	       741	80000700	01cd17b3	sll	x15,x26,x28	 x26:0x80000514 x28:0xa64859d0 x15=0x05140000
        7435000	       742	80000704	0078e863	bltu	x17,x7,80000714	 x17:0x80009fc4  x7:0x8000052c
        7445000	       743	80000708	a3b18b13	addi	x22,x3,-1477	  x3:0x0000000c x22=0xfffffa47
        7455000	       744	8000070c	400bde93	srai	x29,x23,0x0	 x23:0x800006f1 x29=0x800006f1
        7465000	       745	80000710	9fdde913	ori	x18,x27,-1539	 x27:0x00000000 x18=0xfffff9fd
        7475000	       746	80000714	00b50933	add	x18,x10,x11	 x10:0xbbc5c258 x11:0x800004e0 x18=0x3bc5c738
        7485000	       747	80000718	4116dab3	sra	x21,x13,x17	 x13:0xd9b7aa9c x17:0x80009fc4 x21=0xfd9b7aa9
        7495000	       748	8000071c	02576463	bltu	x14,x5,80000744	 x14:0x7ffffd13  x5:0x8000054c
        7505000	       749	00000000	00000013	addi	x0,x0,0	  x0:0x00000000
        7515000	       750	80000740	00000013	addi	x0,x0,0	  x0:0x00000000
        7525000	       751	80000744	a3275017	auipc	x0,0xa3275	
        7535000	       752	80000748	4153d6b3	sra	x13,x7,x21	  x7:0x8000052c x21:0xfd9b7aa9 x13=0xffc00002
        7545000	       753	8000074c	19248c97	auipc	x25,0x19248	 x25=0x99248748
        7555000	       754	80000750	00000013	addi	x0,x0,0	  x0:0x00000000
        7565000	       755	80000754	020d1863	bne	x26,x0,80000784	 x26:0x80000514  x0:0x00000000
        7575000	       756	00000000	00000013	addi	x0,x0,0	  x0:0x00000000
        7585000	       757	80000780	00000013	addi	x0,x0,0	  x0:0x00000000
        7595000	       758	80000784	01a33633	sltu	x12,x6,x26	  x6:0x00000000 x26:0x80000514 x12=0x00000001
        7605000	       759	80000788	01ea3a33	sltu	x20,x20,x30	 x20:0xf800004c x30:0x800004c8 x20=0x00000000
        7615000	       760	8000078c	028c5463	bge	x24,x8,800007b4	 x24:0x3bc5c690  x8:0x80009f58
        7625000	       761	00000000	00000013	addi	x0,x0,0	  x0:0x00000000
        7635000	       762	800007b0	00000013	addi	x0,x0,0	  x0:0x00000000
        7645000	       763	800007b4	0182cb33	xor	x22,x5,x24	  x5:0x8000054c x24:0x3bc5c690 x22=0xbbc5c3dc
        7655000	       764	800007b8	40a20bb3	sub	x23,x4,x10	  x4:0xe9ba91f5 x10:0xbbc5c258 x23=0x2df4cf9d
        7665000	       765	800007bc	5ef18e13	addi	x28,x3,1519	  x3:0x0000000c x28=0x000005fb
        7675000	       766	800007c0	024fd863	bge	x31,x4,800007f0	 x31:0x80009f58  x4:0xe9ba91f5
        7685000	       767	800007c4	004fa7b3	slt	x15,x31,x4	 x31:0x80009f58  x4:0xe9ba91f5 x15=0x00000001
        7695000	       768	800007c8	d456ad93	slti	x27,x13,-699	 x13:0xffc00002 x27=0x00000001
        7705000	       769	800007cc	05abc863	blt	x23,x26,8000081c	 x23:0x2df4cf9d x26:0x80000514
        7715000	       770	800007d0	01dd9e13	slli	x28,x27,0x1d	 x27:0x00000001 x28=0x20000000
        7725000	       771	800007d4	01f17263	bgeu	x2,x31,800007d8	  x2:0x8000055c x31:0x80009f58
        7735000	       772	800007d8	311a4337	lui	x6,0x311a4	  x6=0x311a4000
        7745000	       773	800007dc	01eb96b3	sll	x13,x23,x30	 x23:0x2df4cf9d x30:0x800004c8 x13=0xf4cf9d00
        7755000	       774	800007e0	4164d533	sra	x10,x9,x22	  x9:0x00200001 x22:0xbbc5c3dc x10=0x00000000
        7765000	       775	800007e4	40908133	sub	x2,x1,x9	  x1:0x000008fc  x9:0x00200001  x2=0xffe008fb
        7775000	       776	800007e8	04bf8413	addi	x8,x31,75	 x31:0x80009f58  x8=0x80009fa3
        7785000	       777	800007ec	00580db3	add	x27,x16,x5	 x16:0x000021a0  x5:0x8000054c x27=0x800026ec
        7795000	       778	800007f0	82b14913	xori	x18,x2,-2005	  x2:0xffe008fb x18=0x001ff0d0
        7805000	       779	800007f4	0086cc33	xor	x24,x13,x8	 x13:0xf4cf9d00  x8:0x80009fa3 x24=0x74cf02a3
        7815000	       780	800007f8	01044e33	xor	x28,x8,x16	  x8:0x80009fa3 x16:0x000021a0 x28=0x8000be03
        7825000	       781	800007fc	001e84b3	add	x9,x29,x1	 x29:0x800006f1  x1:0x000008fc  x9=0x80000fed
        7835000	       782	80000800	018c2ab3	slt	x21,x24,x24	 x24:0x74cf02a3 x24:0x74cf02a3 x21=0x00000000
        7845000	       783	80000804	01809b33	sll	x22,x1,x24	  x1:0x000008fc x24:0x74cf02a3 x22=0x000047e0
        7855000	       784	80000808	01793833	sltu	x16,x18,x23	 x18:0x001ff0d0 x23:0x2df4cf9d x16=0x00000001
        7865000	       785	8000080c	0102f533	and	x10,x5,x16	  x5:0x8000054c x16:0x00000001 x10=0x00000000
        7875000	       786	80000810	0078bb33	sltu	x22,x17,x7	 x17:0x80009fc4  x7:0x8000052c x22=0x00000000
        7885000	       787	80000814	0391ce63	blt	x3,x25,80000850	  x3:0x0000000c x25:0x99248748
        7895000	       788	80000818	1e7f2193	slti	x3,x30,487	 x30:0x800004c8  x3=0x00000001
        7905000	       789	8000081c	0a744813	xori	x16,x8,167	  x8:0x80009fa3 x16=0x80009f04
        7915000	       790	80000820	00600663	beq	x0,x6,8000082c	  x0:0x00000000  x6:0x311a4000
        7925000	       791	80000824	416305b3	sub	x11,x6,x22	  x6:0x311a4000 x22:0x00000000 x11=0x311a4000
        7935000	       792	80000828	03709e63	bne	x1,x23,80000864	  x1:0x000008fc x23:0x2df4cf9d
        7945000	       793	00000000	00000013	addi	x0,x0,0	  x0:0x00000000
        7955000	       794	80000860	00000013	addi	x0,x0,0	  x0:0x00000000
        7965000	       795	80000864	af087d17	auipc	x26,0xaf087	 x26=0x2f087860
        7975000	       796	80000868	0175ce63	blt	x11,x23,80000884	 x11:0x311a4000 x23:0x2df4cf9d
        7985000	       797	8000086c	84b5bd93	sltiu	x27,x11,-1973	 x11:0x311a4000 x27=0x00000001
        7995000	       798	80000870	01a51b13	slli	x22,x10,0x1a	 x10:0x00000000 x22=0x00000000
        8005000	       799	80000874	005d23b3	slt	x7,x26,x5	 x26:0x2f087860  x5:0x8000054c  x7=0x00000000
        8015000	       800	80000878	a2e62493	slti	x9,x12,-1490	 x12:0x00000001  x9=0x00000000
        8025000	       801	8000087c	0140d663	bge	x1,x20,80000888	  x1:0x000008fc x20:0x00000000
        8035000	       802	00000000	00000013	addi	x0,x0,0	  x0:0x00000000
        8045000	       803	80000884	00000013	addi	x0,x0,0	  x0:0x00000000
        8055000	       804	80000888	00e21663	bne	x4,x14,80000894	  x4:0xe9ba91f5 x14:0x7ffffd13
        8065000	       805	00000000	00000013	addi	x0,x0,0	  x0:0x00000000
        8075000	       806	80000890	00000013	addi	x0,x0,0	  x0:0x00000000
        8085000	       807	80000894	0140d013	srli	x0,x1,0x14	  x1:0x000008fc
        8095000	       808	80000898	64492513	slti	x10,x18,1604	 x18:0x001ff0d0 x10=0x00000000
        8105000	       809	8000089c	020007ef	jal	x15,8000089c	 x15=0x8000089c
        8115000	       810	00000000	00000013	addi	x0,x0,0	  x0:0x00000000
        8125000	       811	800008b8	00000013	addi	x0,x0,0	  x0:0x00000000
        8135000	       812	800008bc	0080036f	jal	x6,800008bc	  x6=0x800008bc
        8145000	       813	00000000	00000013	addi	x0,x0,0	  x0:0x00000000
        8155000	       814	800008c0	00000013	addi	x0,x0,0	  x0:0x00000000
        8165000	       815	800008c4	02400f6f	jal	x30,800008c4	 x30=0x800008c4
        8175000	       816	00000000	00000013	addi	x0,x0,0	  x0:0x00000000
        8185000	       817	800008e4	00000013	addi	x0,x0,0	  x0:0x00000000
        8195000	       818	800008e8	fc1ff0ef	jal	x1,800008e8	  x1=0x800008e8
        8205000	       819	00000000	00000013	addi	x0,x0,0	  x0:0x00000000
        8215000	       820	800008a4	00000013	addi	x0,x0,0	  x0:0x00000000
        8225000	       821	800008a8	ff9ff4ef	jal	x9,800008a8	  x9=0x800008a8
        8235000	       822	00000000	00000013	addi	x0,x0,0	  x0:0x00000000
        8245000	       823	8000089c	00000013	addi	x0,x0,0	  x0:0x00000000
        8255000	       824	800008a0	0440036f	jal	x6,800008a0	  x6=0x800008a0
        8265000	       825	00000000	00000013	addi	x0,x0,0	  x0:0x00000000
        8275000	       826	800008e0	00000013	addi	x0,x0,0	  x0:0x00000000
        8285000	       827	800008e4	fddff0ef	jal	x1,800008e4	  x1=0x800008e4
        8295000	       828	00000000	00000013	addi	x0,x0,0	  x0:0x00000000
        8305000	       829	800008bc	00000013	addi	x0,x0,0	  x0:0x00000000
        8315000	       830	800008c0	0200036f	jal	x6,800008c0	  x6=0x800008c0
        8325000	       831	00000000	00000013	addi	x0,x0,0	  x0:0x00000000
        8335000	       832	800008dc	00000013	addi	x0,x0,0	  x0:0x00000000
        8345000	       833	800008e0	ff1ff0ef	jal	x1,800008e0	  x1=0x800008e0
        8355000	       834	00000000	00000013	addi	x0,x0,0	  x0:0x00000000
        8365000	       835	800008cc	00000013	addi	x0,x0,0	  x0:0x00000000
        8375000	       836	800008d0	fe1ffd6f	jal	x26,800008d0	 x26=0x800008d0
        8385000	       837	00000000	00000013	addi	x0,x0,0	  x0:0x00000000
        8395000	       838	800008ac	00000013	addi	x0,x0,0	  x0:0x00000000
        8405000	       839	800008b0	0080036f	jal	x6,800008b0	  x6=0x800008b0
        8415000	       840	00000000	00000013	addi	x0,x0,0	  x0:0x00000000
        8425000	       841	800008b4	00000013	addi	x0,x0,0	  x0:0x00000000
        8435000	       842	800008b8	ff5ff0ef	jal	x1,800008b8	  x1=0x800008b8
        8445000	       843	00000000	00000013	addi	x0,x0,0	  x0:0x00000000
        8455000	       844	800008a8	00000013	addi	x0,x0,0	  x0:0x00000000
        8465000	       845	800008ac	02c000ef	jal	x1,800008ac	  x1=0x800008ac
        8475000	       846	00000000	00000013	addi	x0,x0,0	  x0:0x00000000
        8485000	       847	800008d4	00000013	addi	x0,x0,0	  x0:0x00000000
        8495000	       848	800008d8	ffdff36f	jal	x6,800008d8	  x6=0x800008d8
        8505000	       849	00000000	00000013	addi	x0,x0,0	  x0:0x00000000
        8515000	       850	800008d0	00000013	addi	x0,x0,0	  x0:0x00000000
        8525000	       851	800008d4	ff9ff0ef	jal	x1,800008d4	  x1=0x800008d4
        8535000	       852	00000000	00000013	addi	x0,x0,0	  x0:0x00000000
        8545000	       853	800008c8	00000013	addi	x0,x0,0	  x0:0x00000000
        8555000	       854	800008cc	fd9ff2ef	jal	x5,800008cc	  x5=0x800008cc
        8565000	       855	00000000	00000013	addi	x0,x0,0	  x0:0x00000000
        8575000	       856	800008a0	00000013	addi	x0,x0,0	  x0:0x00000000
        8585000	       857	800008a4	0240036f	jal	x6,800008a4	  x6=0x800008a4
        8595000	       858	00000000	00000013	addi	x0,x0,0	  x0:0x00000000
        8605000	       859	800008c4	00000013	addi	x0,x0,0	  x0:0x00000000
        8615000	       860	800008c8	024000ef	jal	x1,800008c8	  x1=0x800008c8
        8625000	       861	00000000	00000013	addi	x0,x0,0	  x0:0x00000000
        8635000	       862	800008e8	00000013	addi	x0,x0,0	  x0:0x00000000
        8645000	       863	800008ec	ff1ff0ef	jal	x1,800008ec	  x1=0x800008ec
        8655000	       864	00000000	00000013	addi	x0,x0,0	  x0:0x00000000
        8665000	       865	800008d8	00000013	addi	x0,x0,0	  x0:0x00000000
        8675000	       866	800008dc	fd9ff36f	jal	x6,800008dc	  x6=0x800008dc
        8685000	       867	00000000	00000013	addi	x0,x0,0	  x0:0x00000000
        8695000	       868	800008b0	00000013	addi	x0,x0,0	  x0:0x00000000
        8705000	       869	800008b4	03c000ef	jal	x1,800008b4	  x1=0x800008b4
        8715000	       870	00000000	00000013	addi	x0,x0,0	  x0:0x00000000
        8725000	       871	800008ec	00000013	addi	x0,x0,0	  x0:0x00000000
        8735000	       872	800008f0	00900833	add	x16,x0,x9	  x0:0x00000000  x9:0x800008a8 x16=0x800008a8
        8745000	       873	800008f4	011fb7b3	sltu	x15,x31,x17	 x31:0x80009f58 x17:0x80009fc4 x15=0x00000001
        8755000	       874	800008f8	001e61b3	or	x3,x28,x1	 x28:0x8000be03  x1:0x800008b4  x3=0x8000beb7
        8765000	       875	800008fc	018bf333	and	x6,x23,x24	 x23:0x2df4cf9d x24:0x74cf02a3  x6=0x24c40281
        8775000	       876	80000900	01dc9113	slli	x2,x25,0x1d	 x25:0x99248748  x2=0x00000000
        8785000	       877	80000904	41190733	sub	x14,x18,x17	 x18:0x001ff0d0 x17:0x80009fc4 x14=0x801f510c
        8795000	       878	80000908	02786e63	bltu	x16,x7,80000944	 x16:0x800008a8  x7:0x00000000
        8805000	       879	8000090c	76b9e393	ori	x7,x19,1899	 x19:0x53c00000  x7=0x53c0076b
        8815000	       880	80000910	01a43f33	sltu	x30,x8,x26	  x8:0x80009fa3 x26:0x800008d0 x30=0x00000000
        8825000	       881	80000914	01330463	beq	x6,x19,8000091c	  x6:0x24c40281 x19:0x53c00000
        8835000	       882	80000918	05184863	blt	x16,x17,80000968	 x16:0x800008a8 x17:0x80009fc4
        8845000	       883	00000000	00000013	addi	x0,x0,0	  x0:0x00000000
        8855000	       884	80000964	00000013	addi	x0,x0,0	  x0:0x00000000
        8865000	       885	80000968	00000013	addi	x0,x0,0	  x0:0x00000000
        8875000	       886	8000096c	6849a013	slti	x0,x19,1668	 x19:0x53c00000
        8885000	       887	80000970	00c61913	slli	x18,x12,0xc	 x12:0x00000001 x18=0x00001000
        8895000	       888	80000974	ff6aeeb7	lui	x29,0xff6ae	 x29=0xff6ae000
        8905000	       889	80000978	00f0c333	xor	x6,x1,x15	  x1:0x800008b4 x15:0x00000001  x6=0x800008b5
        8915000	       890	8000097c	4126dc33	sra	x24,x13,x18	 x13:0xf4cf9d00 x18:0x00001000 x24=0xf4cf9d00
        8925000	       891	80000980	01d89eb3	sll	x29,x17,x29	 x17:0x80009fc4 x29:0xff6ae000 x29=0x80009fc4
        8935000	       892	80000984	00e02e33	slt	x28,x0,x14	  x0:0x00000000 x14:0x801f510c x28=0x00000000
        8945000	       893	80000988	003d5663	bge	x26,x3,80000994	 x26:0x800008d0  x3:0x8000beb7
        8955000	       894	8000098c	00000013	addi	x0,x0,0	  x0:0x00000000
        8965000	       895	80000990	016466b3	or	x13,x8,x22	  x8:0x80009fa3 x22:0x00000000 x13=0x80009fa3
        8975000	       896	80000994	00b6e0b3	or	x1,x13,x11	 x13:0x80009fa3 x11:0x311a4000  x1=0xb11adfa3
        8985000	       897	80000998	01097a63	bgeu	x18,x16,800009ac	 x18:0x00001000 x16:0x800008a8
        8995000	       898	8000099c	00001b33	sll	x22,x0,x0	  x0:0x00000000  x0:0x00000000 x22=0x00000000
        9005000	       899	800009a0	01f86863	bltu	x16,x31,800009b0	 x16:0x800008a8 x31:0x80009f58
        9015000	       900	00000000	00000013	addi	x0,x0,0	  x0:0x00000000
        9025000	       901	800009ac	00000013	addi	x0,x0,0	  x0:0x00000000
        9035000	       902	800009b0	01a54a33	xor	x20,x10,x26	 x10:0x00000000 x26:0x800008d0 x20=0x800008d0
        9045000	       903	800009b4	41c25a13	srai	x20,x4,0x1c	  x4:0xe9ba91f5 x20=0xfffffffe
        9055000	       904	800009b8	41a55193	srai	x3,x10,0x1a	 x10:0x00000000  x3=0x00000000
        9065000	       905	800009bc	03ad9a63	bne	x27,x26,800009f0	 x27:0x00000001 x26:0x800008d0
        9075000	       906	00000000	00000013	addi	x0,x0,0	  x0:0x00000000
        9085000	       907	800009ec	00000013	addi	x0,x0,0	  x0:0x00000000
        9095000	       908	800009f0	00761eb3	sll	x29,x12,x7	 x12:0x00000001  x7:0x53c0076b x29=0x00000800
        9105000	       909	800009f4	e4af2b37	lui	x22,0xe4af2	 x22=0xe4af2000
        9115000	       910	800009f8	01742d33	slt	x26,x8,x23	  x8:0x80009fa3 x23:0x2df4cf9d x26=0x00000001
        9125000	       911	800009fc	0389e263	bltu	x19,x24,80000a20	 x19:0x53c00000 x24:0xf4cf9d00
        9135000	       912	00000000	00000013	addi	x0,x0,0	  x0:0x00000000
        9145000	       913	80000a1c	00000013	addi	x0,x0,0	  x0:0x00000000
        9155000	       914	80000a20	05f8e663	bltu	x17,x31,80000a6c	 x17:0x80009fc4 x31:0x80009f58
        9165000	       915	80000a24	00451663	bne	x10,x4,80000a30	 x10:0x00000000  x4:0xe9ba91f5
        9175000	       916	00000000	00000013	addi	x0,x0,0	  x0:0x00000000
        9185000	       917	80000a2c	00000013	addi	x0,x0,0	  x0:0x00000000
        9195000	       918	80000a30	00691ab3	sll	x21,x18,x6	 x18:0x00001000  x6:0x800008b5 x21=0x00000000
        9205000	       919	80000a34	015cbe33	sltu	x28,x25,x21	 x25:0x99248748 x21:0x00000000 x28=0x00000000
        9215000	       920	80000a38	41c08433	sub	x8,x1,x28	  x1:0xb11adfa3 x28:0x00000000  x8=0xb11adfa3
        9225000	       921	80000a3c	d4402413	slti	x8,x0,-700	  x0:0x00000000  x8=0x00000000
        9235000	       922	80000a40	00a4edb3	or	x27,x9,x10	  x9:0x800008a8 x10:0x00000000 x27=0x800008a8
        9245000	       923	80000a44	05b60663	beq	x12,x27,80000a90	 x12:0x00000001 x27:0x800008a8
        9255000	       924	80000a48	04f8e463	bltu	x17,x15,80000a90	 x17:0x80009fc4 x15:0x00000001
        9265000	       925	80000a4c	014639b3	sltu	x19,x12,x20	 x12:0x00000001 x20:0xfffffffe x19=0x00000001
        9275000	       926	80000a50	00d9c863	blt	x19,x13,80000a60	 x19:0x00000001 x13:0x80009fa3
        9285000	       927	80000a54	41ca8a33	sub	x20,x21,x28	 x21:0x00000000 x28:0x00000000 x20=0x00000000
        9295000	       928	80000a58	01265a63	bge	x12,x18,80000a6c	 x12:0x00000001 x18:0x00001000
        9305000	       929	80000a5c	02907863	bgeu	x0,x9,80000a8c	  x0:0x00000000  x9:0x800008a8
        9315000	       930	80000a60	40f28733	sub	x14,x5,x15	  x5:0x800008cc x15:0x00000001 x14=0x800008cb
        9325000	       931	80000a64	00241b93	slli	x23,x8,0x2	  x8:0x00000000 x23=0x00000000
        9335000	       932	80000a68	00000013	addi	x0,x0,0	  x0:0x00000000
        9345000	       933	80000a6c	449e6f13	ori	x30,x28,1097	 x28:0x00000000 x30=0x00000449
        9355000	       934	80000a70	01878ab3	add	x21,x15,x24	 x15:0x00000001 x24:0xf4cf9d00 x21=0xf4cf9d01
        9365000	       935	80000a74	00eb5533	srl	x10,x22,x14	 x22:0xe4af2000 x14:0x800008cb x10=0x001c95e4
        9375000	       936	80000a78	03320263	beq	x4,x19,80000a9c	  x4:0xe9ba91f5 x19:0x00000001
        9385000	       937	80000a7c	00f01913	slli	x18,x0,0xf	  x0:0x00000000 x18=0x00000000
        9395000	       938	80000a80	00a09933	sll	x18,x1,x10	  x1:0xb11adfa3 x10:0x001c95e4 x18=0x11adfa30
        9405000	       939	80000a84	787afb13	andi	x22,x21,1927	 x21:0xf4cf9d01 x22=0x00000501
        9415000	       940	80000a88	0080a833	slt	x16,x1,x8	  x1:0xb11adfa3  x8:0x00000000 x16=0x00000001
        9425000	       941	80000a8c	00000013	addi	x0,x0,0	  x0:0x00000000
        9435000	       942	80000a90	02cd6063	bltu	x26,x12,80000ab0	 x26:0x00000001 x12:0x00000001
        9445000	       943	80000a94	03030a63	beq	x6,x16,80000ac8	  x6:0x800008b5 x16:0x00000001
        9455000	       944	80000a98	d99fa313	slti	x6,x31,-615	 x31:0x80009f58  x6=0x00000001
        9465000	       945	80000a9c	00151f13	slli	x30,x10,0x1	 x10:0x001c95e4 x30=0x00392bc8
        9475000	       946	80000aa0	00ad1933	sll	x18,x26,x10	 x26:0x00000001 x10:0x001c95e4 x18=0x00000010
        9485000	       947	80000aa4	00ab1ab3	sll	x21,x22,x10	 x22:0x00000501 x10:0x001c95e4 x21=0x00005010
        9495000	       948	80000aa8	02485063	bge	x16,x4,80000ac8	 x16:0x00000001  x4:0xe9ba91f5
        9505000	       949	00000000	00000013	addi	x0,x0,0	  x0:0x00000000
        9515000	       950	80000ac4	00000013	addi	x0,x0,0	  x0:0x00000000
        9525000	       951	80000ac8	00818cb3	add	x25,x3,x8	  x3:0x00000000  x8:0x00000000 x25=0x00000000
        9535000	       952	80000acc	000f4433	xor	x8,x30,x0	 x30:0x00392bc8  x0:0x00000000  x8=0x00392bc8
        9545000	       953	80000ad0	86fb4337	lui	x6,0x86fb4	  x6=0x86fb4000
        9555000	       954	80000ad4	01f52033	slt	x0,x10,x31	 x10:0x001c95e4 x31:0x80009f58
        9565000	       955	80000ad8	011d59b3	srl	x19,x26,x17	 x26:0x00000001 x17:0x80009fc4 x19=0x00000000
        9575000	       956	80000adc	02f56e63	bltu	x10,x15,80000b18	 x10:0x001c95e4 x15:0x00000001
        9585000	       957	80000ae0	2989a693	slti	x13,x19,664	 x19:0x00000000 x13=0x00000001
        9595000	       958	80000ae4	d1000597	auipc	x11,0xd1000	 x11=0x51000ae0
        9605000	       959	80000ae8	012c8663	beq	x25,x18,80000af4	 x25:0x00000000 x18:0x00000010
        9615000	       960	80000aec	66673c93	sltiu	x25,x14,1638	 x14:0x800008cb x25=0x00000000
        9625000	       961	80000af0	413a8533	sub	x10,x21,x19	 x21:0x00005010 x19:0x00000000 x10=0x00005010
        9635000	       962	80000af4	023a0463	beq	x20,x3,80000b1c	 x20:0x00000000  x3:0x00000000
        9645000	       963	00000000	00000013	addi	x0,x0,0	  x0:0x00000000
        9655000	       964	80000b18	00000013	addi	x0,x0,0	  x0:0x00000000
        9665000	       965	80000b1c	00f0e5b3	or	x11,x1,x15	  x1:0xb11adfa3 x15:0x00000001 x11=0xb11adfa3
        9675000	       966	80000b20	00f984b3	add	x9,x19,x15	 x19:0x00000000 x15:0x00000001  x9=0x00000001
        9685000	       967	80000b24	01f2eab3	or	x21,x5,x31	  x5:0x800008cc x31:0x80009f58 x21=0x80009fdc
        9695000	       968	80000b28	4044d413	srai	x8,x9,0x4	  x9:0x00000001  x8=0x00000000
        9705000	       969	80000b2c	01ee4cb3	xor	x25,x28,x30	 x28:0x00000000 x30:0x00392bc8 x25=0x00392bc8
        9715000	       970	80000b30	012c6a63	bltu	x24,x18,80000b44	 x24:0xf4cf9d00 x18:0x00000010
        9725000	       971	80000b34	113df337	lui	x6,0x113df	  x6=0x113df000
        9735000	       972	80000b38	001171b3	and	x3,x2,x1	  x2:0x00000000  x1:0xb11adfa3  x3=0x00000000
        9745000	       973	80000b3c	fa7d7b93	andi	x23,x26,-89	 x26:0x00000001 x23=0x00000001
        9755000	       974	80000b40	406f8c33	sub	x24,x31,x6	 x31:0x80009f58  x6:0x113df000 x24=0x6ec2af58
        9765000	       975	80000b44	01387bb3	and	x23,x16,x19	 x16:0x00000001 x19:0x00000000 x23=0x00000000
        9775000	       976	80000b48	0103d613	srli	x12,x7,0x10	  x7:0x53c0076b x12=0x000053c0
        9785000	       977	80000b4c	02501e63	bne	x0,x5,80000b88	  x0:0x00000000  x5:0x800008cc
        9795000	       978	00000000	00000013	addi	x0,x0,0	  x0:0x00000000
        9805000	       979	80000b84	00000013	addi	x0,x0,0	  x0:0x00000000
        9815000	       980	80000b88	65188e93	addi	x29,x17,1617	 x17:0x80009fc4 x29=0x8000a615
        9825000	       981	80000b8c	40e10db3	sub	x27,x2,x14	  x2:0x00000000 x14:0x800008cb x27=0x7ffff735
        9835000	       982	80000b90	00a812b3	sll	x5,x16,x10	 x16:0x00000001 x10:0x00005010  x5=0x00010000
        9845000	       983	80000b94	0463d663	bge	x7,x6,80000be0	  x7:0x53c0076b  x6:0x113df000
        9855000	       984	00000000	00000013	addi	x0,x0,0	  x0:0x00000000
        9865000	       985	80000bdc	00000013	addi	x0,x0,0	  x0:0x00000000
        9875000	       986	80000be0	03c19663	bne	x3,x28,80000c0c	  x3:0x00000000 x28:0x00000000
        9885000	       987	80000be4	0053e663	bltu	x7,x5,80000bf0	  x7:0x53c0076b  x5:0x00010000
        9895000	       988	80000be8	40955d33	sra	x26,x10,x9	 x10:0x00005010  x9:0x00000001 x26=0x00002808
        9905000	       989	80000bec	04f5d863	bge	x11,x15,80000c3c	 x11:0xb11adfa3 x15:0x00000001
        9915000	       990	80000bf0	00475393	srli	x7,x14,0x4	 x14:0x800008cb  x7=0x0800008c
        9925000	       991	80000bf4	0091a933	slt	x18,x3,x9	  x3:0x00000000  x9:0x00000001 x18=0x00000001
        9935000	       992	80000bf8	4936f693	andi	x13,x13,1171	 x13:0x00000001 x13=0x00000001
        9945000	       993	80000bfc	00f64db3	xor	x27,x12,x15	 x12:0x000053c0 x15:0x00000001 x27=0x000053c1
        9955000	       994	80000c00	00fb1e63	bne	x22,x15,80000c1c	 x22:0x00000501 x15:0x00000001
        9965000	       995	00000000	00000013	addi	x0,x0,0	  x0:0x00000000
        9975000	       996	80000c18	00000013	addi	x0,x0,0	  x0:0x00000000
        9985000	       997	80000c1c	40265f33	sra	x30,x12,x2	 x12:0x000053c0  x2:0x00000000 x30=0x000053c0
        9995000	       998	80000c20	40d95713	srai	x14,x18,0xd	 x18:0x00000001 x14=0x00000000
       10005000	       999	80000c24	00000013	addi	x0,x0,0	  x0:0x00000000
       10015000	      1000	80000c28	01281b93	slli	x23,x16,0x12	 x16:0x00000001 x23=0x00040000
       10025000	      1001	80000c2c	006b5293	srli	x5,x22,0x6	 x22:0x00000501  x5=0x00000014
       10035000	      1002	80000c30	01514a63	blt	x2,x21,80000c44	  x2:0x00000000 x21:0x80009fdc
       10045000	      1003	80000c34	017f9013	slli	x0,x31,0x17	 x31:0x80009f58
       10055000	      1004	80000c38	00813f33	sltu	x30,x2,x8	  x2:0x00000000  x8:0x00000000 x30=0x00000000
       10065000	      1005	80000c3c	a3cc8297	auipc	x5,0xa3cc8	  x5=0x23cc8c38
       10075000	      1006	80000c40	00345613	srli	x12,x8,0x3	  x8:0x00000000 x12=0x00000000
       10085000	      1007	80000c44	40548333	sub	x6,x9,x5	  x9:0x00000001  x5:0x23cc8c38  x6=0xdc3373c9
       10095000	      1008	80000c48	402789b3	sub	x19,x15,x2	 x15:0x00000001  x2:0x00000000 x19=0x00000001
       10105000	      1009	80000c4c	3d394493	xori	x9,x18,979	 x18:0x00000001  x9=0x000003d2
       10115000	      1010	80000c50	01756633	or	x12,x10,x23	 x10:0x00005010 x23:0x00040000 x12=0x00045010
       10125000	      1011	80000c54	0023ddb3	srl	x27,x7,x2	  x7:0x0800008c  x2:0x00000000 x27=0x0800008c
       10135000	      1012	80000c58	e79ff613	andi	x12,x31,-391	 x31:0x80009f58 x12=0x80009e58
       10145000	      1013	80000c5c	1b38bd13	sltiu	x26,x17,435	 x17:0x80009fc4 x26=0x00000000
       10155000	      1014	80000c60	02dc7063	bgeu	x24,x13,80000c80	 x24:0x6ec2af58 x13:0x00000001
       10165000	      1015	00000000	00000013	addi	x0,x0,0	  x0:0x00000000
       10175000	      1016	80000c7c	00000013	addi	x0,x0,0	  x0:0x00000000
       10185000	      1017	80000c80	00184863	blt	x16,x1,80000c90	 x16:0x00000001  x1:0xb11adfa3
       10195000	      1018	80000c84	03d2c463	blt	x5,x29,80000cac	  x5:0x23cc8c38 x29:0x8000a615
       10205000	      1019	80000c88	2de42913	slti	x18,x8,734	  x8:0x00000000 x18=0x00000001
       10215000	      1020	80000c8c	4086de33	sra	x28,x13,x8	 x13:0x00000001  x8:0x00000000 x28=0x00000001
       10225000	      1021	80000c90	0359e063	bltu	x19,x21,80000cb0	 x19:0x00000001 x21:0x80009fdc
       10235000	      1022	00000000	00000013	addi	x0,x0,0	  x0:0x00000000
       10245000	      1023	80000cac	00000013	addi	x0,x0,0	  x0:0x00000000
       10255000	      1024	80000cb0	01cbda13	srli	x20,x23,0x1c	 x23:0x00040000 x20=0x00000000
       10265000	      1025	80000cb4	408f5d13	srai	x26,x30,0x8	 x30:0x00000000 x26=0x00000000
       10275000	      1026	80000cb8	c9386d13	ori	x26,x16,-877	 x16:0x00000001 x26=0xfffffc93
       10285000	      1027	80000cbc	013342b3	xor	x5,x6,x19	  x6:0xdc3373c9 x19:0x00000001  x5=0xdc3373c8
       10295000	      1028	80000cc0	017bcc33	xor	x24,x23,x23	 x23:0x00040000 x23:0x00040000 x24=0x00000000
       10305000	      1029	80000cc4	0081b333	sltu	x6,x3,x8	  x3:0x00000000  x8:0x00000000  x6=0x00000000
       10315000	      1030	80000cc8	0081af33	slt	x30,x3,x8	  x3:0x00000000  x8:0x00000000 x30=0x00000000
       10325000	      1031	80000ccc	f7a60f13	addi	x30,x12,-134	 x12:0x80009e58 x30=0x80009dd2
       10335000	      1032	80000cd0	f70db813	sltiu	x16,x27,-144	 x27:0x0800008c x16=0x00000001
       10345000	      1033	80000cd4	010aab33	slt	x22,x21,x16	 x21:0x80009fdc x16:0x00000001 x22=0x00000001
       10355000	      1034	80000cd8	01b05663	bge	x0,x27,80000ce4	  x0:0x00000000 x27:0x0800008c
       10365000	      1035	80000cdc	00a08a63	beq	x1,x10,80000cf0	  x1:0xb11adfa3 x10:0x00005010
       10375000	      1036	80000ce0	00441c93	slli	x25,x8,0x4	  x8:0x00000000 x25=0x00000000
       10385000	      1037	80000ce4	0004a9b3	slt	x19,x9,x0	  x9:0x000003d2  x0:0x00000000 x19=0x00000000
       10395000	      1038	80000ce8	00c3ce63	blt	x7,x12,80000d04	  x7:0x0800008c x12:0x80009e58
       10405000	      1039	80000cec	0126a2b3	slt	x5,x13,x18	 x13:0x00000001 x18:0x00000001  x5=0x00000000
       10415000	      1040	80000cf0	00fd5933	srl	x18,x26,x15	 x26:0xfffffc93 x15:0x00000001 x18=0x7ffffe49
       10425000	      1041	80000cf4	007e6db3	or	x27,x28,x7	 x28:0x00000001  x7:0x0800008c x27=0x0800008d
       10435000	      1042	80000cf8	03df0a63	beq	x30,x29,80000d2c	 x30:0x80009dd2 x29:0x8000a615
       10445000	      1043	80000cfc	418902b3	sub	x5,x18,x24	 x18:0x7ffffe49 x24:0x00000000  x5=0x7ffffe49
       10455000	      1044	80000d00	116ac6b7	lui	x13,0x116ac	 x13=0x116ac000
       10465000	      1045	80000d04	a97feb93	ori	x23,x31,-1385	 x31:0x80009f58 x23=0xffffffdf
       10475000	      1046	80000d08	0362ee63	bltu	x5,x22,80000d44	  x5:0x7ffffe49 x22:0x00000001
       10485000	      1047	80000d0c	0760ab93	slti	x23,x1,118	  x1:0xb11adfa3 x23=0x00000001
       10495000	      1048	80000d10	047a9863	bne	x21,x7,80000d60	 x21:0x80009fdc  x7:0x0800008c
       10505000	      1049	00000000	00000013	addi	x0,x0,0	  x0:0x00000000
       10515000	      1050	80000d5c	00000013	addi	x0,x0,0	  x0:0x00000000
       10525000	      1051	80000d60	3e6ee9b7	lui	x19,0x3e6ee	 x19=0x3e6ee000
       10535000	      1052	80000d64	6054bc93	sltiu	x25,x9,1541	  x9:0x000003d2 x25=0x00000001
       10545000	      1053	80000d68	00fea3b3	slt	x7,x29,x15	 x29:0x8000a615 x15:0x00000001  x7=0x00000001
       10555000	      1054	80000d6c	01495b13	srli	x22,x18,0x14	 x18:0x7ffffe49 x22=0x000007ff
       10565000	      1055	80000d70	4148de93	srai	x29,x17,0x14	 x17:0x80009fc4 x29=0xfffff800
       10575000	      1056	80000d74	41a50e33	sub	x28,x10,x26	 x10:0x00005010 x26:0xfffffc93 x28=0x0000537d
       10585000	      1057	80000d78	352d8693	addi	x13,x27,850	 x27:0x0800008d x13=0x080003df
       10595000	      1058	80000d7c	417d5d93	srai	x27,x26,0x17	 x26:0xfffffc93 x27=0xffffffff
       10605000	      1059	80000d80	011d1113	slli	x2,x26,0x11	 x26:0xfffffc93  x2=0xf9260000
       10615000	      1060	80000d84	1fa6cb93	xori	x23,x13,506	 x13:0x080003df x23=0x08000225
       10625000	      1061	80000d88	00491e13	slli	x28,x18,0x4	 x18:0x7ffffe49 x28=0xffffe490
       10635000	      1062	80000d8c	004963b3	or	x7,x18,x4	 x18:0x7ffffe49  x4:0xe9ba91f5  x7=0xfffffffd
       10645000	      1063	80000d90	03dc9663	bne	x25,x29,80000dbc	 x25:0x00000001 x29:0xfffff800
       10655000	      1064	00000000	00000013	addi	x0,x0,0	  x0:0x00000000
       10665000	      1065	80000db8	00000013	addi	x0,x0,0	  x0:0x00000000
       10675000	      1066	80000dbc	000f1663	bne	x30,x0,80000dc8	 x30:0x80009dd2  x0:0x00000000
       10685000	      1067	00000000	00000013	addi	x0,x0,0	  x0:0x00000000
       10695000	      1068	80000dc4	00000013	addi	x0,x0,0	  x0:0x00000000
       10705000	      1069	80000dc8	01156bb3	or	x23,x10,x17	 x10:0x00005010 x17:0x80009fc4 x23=0x8000dfd4
       10715000	      1070	80000dcc	00ac8863	beq	x25,x10,80000ddc	 x25:0x00000001 x10:0x00005010
       10725000	      1071	80000dd0	dcc46a13	ori	x20,x8,-564	  x8:0x00000000 x20=0xfffffdcc
       10735000	      1072	80000dd4	01751393	slli	x7,x10,0x17	 x10:0x00005010  x7=0x08000000
       10745000	      1073	80000dd8	690da517	auipc	x10,0x690da	 x10=0xe90dadd4
       10755000	      1074	80000ddc	00747663	bgeu	x8,x7,80000de8	  x8:0x00000000  x7:0x08000000
       10765000	      1075	80000de0	418887b3	sub	x15,x17,x24	 x17:0x80009fc4 x24:0x00000000 x15=0x80009fc4
       10775000	      1076	80000de4	00b752b3	srl	x5,x14,x11	 x14:0x00000000 x11:0xb11adfa3  x5=0x00000000
       10785000	      1077	80000de8	00ab5e33	srl	x28,x22,x10	 x22:0x000007ff x10:0xe90dadd4 x28=0x00000000
       10795000	      1078	80000dec	5ea74c13	xori	x24,x14,1514	 x14:0x00000000 x24=0x000005ea
       10805000	      1079	80000df0	864f6093	ori	x1,x30,-1948	 x30:0x80009dd2  x1=0xfffffdf6
       10815000	      1080	80000df4	032e6a63	bltu	x28,x18,80000e28	 x28:0x00000000 x18:0x7ffffe49
       10825000	      1081	00000000	00000013	addi	x0,x0,0	  x0:0x00000000
       10835000	      1082	80000e24	00000013	addi	x0,x0,0	  x0:0x00000000
       10845000	      1083	80000e28	0011d533	srl	x10,x3,x1	  x3:0x00000000  x1:0xfffffdf6 x10=0x00000000
       10855000	      1084	80000e2c	b4777c17	auipc	x24,0xb4777	 x24=0x34777e28
       10865000	      1085	80000e30	417ad6b3	sra	x13,x21,x23	 x21:0x80009fdc x23:0x8000dfd4 x13=0xfffff800
       10875000	      1086	80000e34	019c2633	slt	x12,x24,x25	 x24:0x34777e28 x25:0x00000001 x12=0x00000000
       10885000	      1087	80000e38	ec8f6993	ori	x19,x30,-312	 x30:0x80009dd2 x19=0xffffffda
       10895000	      1088	80000e3c	815c4593	xori	x11,x24,-2027	 x24:0x34777e28 x11=0xcb88863d
       10905000	      1089	80000e40	0038de13	srli	x28,x17,0x3	 x17:0x80009fc4 x28=0x100013f8
       10915000	      1090	80000e44	01229eb3	sll	x29,x5,x18	  x5:0x00000000 x18:0x7ffffe49 x29=0x00000000
       10925000	      1091	80000e48	020007ef	jal	x15,80000e48	 x15=0x80000e48
       10935000	      1092	00000000	00000013	addi	x0,x0,0	  x0:0x00000000
       10945000	      1093	80000e64	00000013	addi	x0,x0,0	  x0:0x00000000
       10955000	      1094	80000e68	01c0036f	jal	x6,80000e68	  x6=0x80000e68
       10965000	      1095	00000000	00000013	addi	x0,x0,0	  x0:0x00000000
       10975000	      1096	80000e80	00000013	addi	x0,x0,0	  x0:0x00000000
       10985000	      1097	80000e84	fd1ff2ef	jal	x5,80000e84	  x5=0x80000e84
       10995000	      1098	00000000	00000013	addi	x0,x0,0	  x0:0x00000000
       11005000	      1099	80000e50	00000013	addi	x0,x0,0	  x0:0x00000000
       11015000	      1100	80000e54	048000ef	jal	x1,80000e54	  x1=0x80000e54
       11025000	      1101	00000000	00000013	addi	x0,x0,0	  x0:0x00000000
       11035000	      1102	80000e98	00000013	addi	x0,x0,0	  x0:0x00000000
       11045000	      1103	80000e9c	ff1ff0ef	jal	x1,80000e9c	  x1=0x80000e9c
       11055000	      1104	00000000	00000013	addi	x0,x0,0	  x0:0x00000000
       11065000	      1105	80000e88	00000013	addi	x0,x0,0	  x0:0x00000000
       11075000	      1106	80000e8c	014002ef	jal	x5,80000e8c	  x5=0x80000e8c
       11085000	      1107	00000000	00000013	addi	x0,x0,0	  x0:0x00000000
       11095000	      1108	80000e9c	00000013	addi	x0,x0,0	  x0:0x00000000
       11105000	      1109	80000ea0	ff9ff0ef	jal	x1,80000ea0	  x1=0x80000ea0
       11115000	      1110	00000000	00000013	addi	x0,x0,0	  x0:0x00000000
       11125000	      1111	80000e94	00000013	addi	x0,x0,0	  x0:0x00000000
       11135000	      1112	80000e98	fc1ff36f	jal	x6,80000e98	  x6=0x80000e98
       11145000	      1113	00000000	00000013	addi	x0,x0,0	  x0:0x00000000
       11155000	      1114	80000e54	00000013	addi	x0,x0,0	  x0:0x00000000
       11165000	      1115	80000e58	00c0036f	jal	x6,80000e58	  x6=0x80000e58
       11175000	      1116	00000000	00000013	addi	x0,x0,0	  x0:0x00000000
       11185000	      1117	80000e60	00000013	addi	x0,x0,0	  x0:0x00000000
       11195000	      1118	80000e64	030000ef	jal	x1,80000e64	  x1=0x80000e64
       11205000	      1119	00000000	00000013	addi	x0,x0,0	  x0:0x00000000
       11215000	      1120	80000e90	00000013	addi	x0,x0,0	  x0:0x00000000
       11225000	      1121	80000e94	fedff0ef	jal	x1,80000e94	  x1=0x80000e94
       11235000	      1122	00000000	00000013	addi	x0,x0,0	  x0:0x00000000
       11245000	      1123	80000e7c	00000013	addi	x0,x0,0	  x0:0x00000000
       11255000	      1124	80000e80	fe1ff0ef	jal	x1,80000e80	  x1=0x80000e80
       11265000	      1125	00000000	00000013	addi	x0,x0,0	  x0:0x00000000
       11275000	      1126	80000e5c	00000013	addi	x0,x0,0	  x0:0x00000000
       11285000	      1127	80000e60	014007ef	jal	x15,80000e60	 x15=0x80000e60
       11295000	      1128	00000000	00000013	addi	x0,x0,0	  x0:0x00000000
       11305000	      1129	80000e70	00000013	addi	x0,x0,0	  x0:0x00000000
       11315000	      1130	80000e74	034000ef	jal	x1,80000e74	  x1=0x80000e74
       11325000	      1131	00000000	00000013	addi	x0,x0,0	  x0:0x00000000
       11335000	      1132	80000ea4	00000013	addi	x0,x0,0	  x0:0x00000000
       11345000	      1133	80000ea8	fa5ff36f	jal	x6,80000ea8	  x6=0x80000ea8
       11355000	      1134	00000000	00000013	addi	x0,x0,0	  x0:0x00000000
       11365000	      1135	80000e48	00000013	addi	x0,x0,0	  x0:0x00000000
       11375000	      1136	80000e4c	0580036f	jal	x6,80000e4c	  x6=0x80000e4c
       11385000	      1137	00000000	00000013	addi	x0,x0,0	  x0:0x00000000
       11395000	      1138	80000ea0	00000013	addi	x0,x0,0	  x0:0x00000000
       11405000	      1139	80000ea4	fc9ff0ef	jal	x1,80000ea4	  x1=0x80000ea4
       11415000	      1140	00000000	00000013	addi	x0,x0,0	  x0:0x00000000
       11425000	      1141	80000e68	00000013	addi	x0,x0,0	  x0:0x00000000
       11435000	      1142	80000e6c	ff1ff0ef	jal	x1,80000e6c	  x1=0x80000e6c
       11445000	      1143	00000000	00000013	addi	x0,x0,0	  x0:0x00000000
       11455000	      1144	80000e58	00000013	addi	x0,x0,0	  x0:0x00000000
       11465000	      1145	80000e5c	0140016f	jal	x2,80000e5c	  x2=0x80000e5c
       11475000	      1146	00000000	00000013	addi	x0,x0,0	  x0:0x00000000
       11485000	      1147	80000e6c	00000013	addi	x0,x0,0	  x0:0x00000000
       11495000	      1148	80000e70	018000ef	jal	x1,80000e70	  x1=0x80000e70
       11505000	      1149	00000000	00000013	addi	x0,x0,0	  x0:0x00000000
       11515000	      1150	80000e84	00000013	addi	x0,x0,0	  x0:0x00000000
       11525000	      1151	80000e88	ff1ffbef	jal	x23,80000e88	 x23=0x80000e88
       11535000	      1152	00000000	00000013	addi	x0,x0,0	  x0:0x00000000
       11545000	      1153	80000e74	00000013	addi	x0,x0,0	  x0:0x00000000
       11555000	      1154	80000e78	fd9ff0ef	jal	x1,80000e78	  x1=0x80000e78
       11565000	      1155	00000000	00000013	addi	x0,x0,0	  x0:0x00000000
       11575000	      1156	80000e4c	00000013	addi	x0,x0,0	  x0:0x00000000
       11585000	      1157	80000e50	02c0036f	jal	x6,80000e50	  x6=0x80000e50
       11595000	      1158	00000000	00000013	addi	x0,x0,0	  x0:0x00000000
       11605000	      1159	80000e78	00000013	addi	x0,x0,0	  x0:0x00000000
       11615000	      1160	80000e7c	0140036f	jal	x6,80000e7c	  x6=0x80000e7c
       11625000	      1161	00000000	00000013	addi	x0,x0,0	  x0:0x00000000
       11635000	      1162	80000e8c	00000013	addi	x0,x0,0	  x0:0x00000000
       11645000	      1163	80000e90	01c0036f	jal	x6,80000e90	  x6=0x80000e90
       11655000	      1164	00000000	00000013	addi	x0,x0,0	  x0:0x00000000
       11665000	      1165	80000ea8	00000013	addi	x0,x0,0	  x0:0x00000000
       11675000	      1166	80000eac	73c42717	auipc	x14,0x73c42	 x14=0xf3c42ea8
       11685000	      1167	80000eb0	e24a6b13	ori	x22,x20,-476	 x20:0xfffffdcc x22=0xffffffec
       11695000	      1168	80000eb4	01e3c663	blt	x7,x30,80000ec0	  x7:0x08000000 x30:0x80009dd2
       11705000	      1169	80000eb8	59bcbdb7	lui	x27,0x59bcb	 x27=0x59bcb000
       11715000	      1170	80000ebc	eac80a13	addi	x20,x16,-340	 x16:0x00000001 x20=0xfffffead
       11725000	      1171	80000ec0	01de8a63	beq	x29,x29,80000ed4	 x29:0x00000000 x29:0x00000000
       11735000	      1172	00000000	00000013	addi	x0,x0,0	  x0:0x00000000
       11745000	      1173	80000ed0	00000013	addi	x0,x0,0	  x0:0x00000000
       11755000	      1174	80000ed4	96cbee93	ori	x29,x23,-1684	 x23:0x80000e88 x29=0xffffffec
       11765000	      1175	80000ed8	00615433	srl	x8,x2,x6	  x2:0x80000e5c  x6:0x80000e90  x8=0x00008000
       11775000	      1176	80000edc	014845b3	xor	x11,x16,x20	 x16:0x00000001 x20:0xfffffead x11=0xfffffeac
       11785000	      1177	80000ee0	c038fc13	andi	x24,x17,-1021	 x17:0x80009fc4 x24=0x80009c00
       11795000	      1178	80000ee4	00301513	slli	x10,x0,0x3	  x0:0x00000000 x10=0x00000000
       11805000	      1179	80000ee8	01b99593	slli	x11,x19,0x1b	 x19:0xffffffda x11=0xd0000000
       11815000	      1180	80000eec	01017d33	and	x26,x2,x16	  x2:0x80000e5c x16:0x00000001 x26=0x00000000
       11825000	      1181	80000ef0	41e2d7b3	sra	x15,x5,x30	  x5:0x80000e8c x30:0x80009dd2 x15=0xffffe000
       11835000	      1182	80000ef4	60f53193	sltiu	x3,x10,1551	 x10:0x00000000  x3=0x00000001
       11845000	      1183	80000ef8	00ef5663	bge	x30,x14,80000f04	 x30:0x80009dd2 x14:0xf3c42ea8
       11855000	      1184	80000efc	002159b3	srl	x19,x2,x2	  x2:0x80000e5c  x2:0x80000e5c x19=0x00000008
       11865000	      1185	80000f00	01d99993	slli	x19,x19,0x1d	 x19:0x00000008 x19=0x00000000
       11875000	      1186	80000f04	632d6493	ori	x9,x26,1586	 x26:0x00000000  x9=0x00000632
       11885000	      1187	80000f08	00000013	addi	x0,x0,0	  x0:0x00000000
       11895000	      1188	80000f0c	00000013	addi	x0,x0,0	  x0:0x00000000
       11905000	      1189	80000f10	00801263	bne	x0,x8,80000f14	  x0:0x00000000  x8:0x00008000
       11915000	      1190	00000000	00000013	addi	x0,x0,0	  x0:0x00000000
       11925000	      1191	80000f10	00000013	addi	x0,x0,0	  x0:0x00000000
       11935000	      1192	80000f14	417bd1b3	sra	x3,x23,x23	 x23:0x80000e88 x23:0x80000e88  x3=0xff80000e
       11945000	      1193	80000f18	004fa783	lw	x15,4(x31)	 x31:0x80009f58 x15=0x80003720 PA:0x80009f5c
       11955000	      1194	80000f1c	012890b3	sll	x1,x17,x18	 x17:0x80009fc4 x18:0x7ffffe49  x1=0x013f8800
       11965000	      1195	80000f20	004b3e33	sltu	x28,x22,x4	 x22:0xffffffec  x4:0xe9ba91f5 x28=0x00000000
       11975000	      1196	80000f24	1c8c0313	addi	x6,x24,456	 x24:0x80009c00  x6=0x80009dc8
       11985000	      1197	80000f28	014f8f93	addi	x31,x31,20	 x31:0x80009f58 x31=0x80009f6c
       11995000	      1198	80000f2c	01a646b3	xor	x13,x12,x26	 x12:0x00000000 x26:0x00000000 x13=0x00000000
       12005000	      1199	80000f30	00078e93	addi	x29,x15,0	 x15:0x80003720 x29=0x80003720
       12015000	      1200	80000f34	000e8ee7	jalr	x29,x29,0	 x29:0x80003720 x29=0x80000f34
       12025000	      1201	00000000	00000013	addi	x0,x0,0	  x0:0x00000000
       12035000	      1202	80003720	00000013	addi	x0,x0,0	  x0:0x00000000
       12045000	      1203	80003724	024007ef	jal	x15,80003724	 x15=0x80003724
       12055000	      1204	00000000	00000013	addi	x0,x0,0	  x0:0x00000000
       12065000	      1205	80003744	00000013	addi	x0,x0,0	  x0:0x00000000
       12075000	      1206	80003748	fe1ff0ef	jal	x1,80003748	  x1=0x80003748
       12085000	      1207	00000000	00000013	addi	x0,x0,0	  x0:0x00000000
       12095000	      1208	80003724	00000013	addi	x0,x0,0	  x0:0x00000000
       12105000	      1209	80003728	00c000ef	jal	x1,80003728	  x1=0x80003728
       12115000	      1210	00000000	00000013	addi	x0,x0,0	  x0:0x00000000
       12125000	      1211	80003730	00000013	addi	x0,x0,0	  x0:0x00000000
       12135000	      1212	80003734	028000ef	jal	x1,80003734	  x1=0x80003734
       12145000	      1213	00000000	00000013	addi	x0,x0,0	  x0:0x00000000
       12155000	      1214	80003758	00000013	addi	x0,x0,0	  x0:0x00000000
       12165000	      1215	8000375c	ff5ff36f	jal	x6,8000375c	  x6=0x8000375c
       12175000	      1216	00000000	00000013	addi	x0,x0,0	  x0:0x00000000
       12185000	      1217	8000374c	00000013	addi	x0,x0,0	  x0:0x00000000
       12195000	      1218	80003750	fedff1ef	jal	x3,80003750	  x3=0x80003750
       12205000	      1219	00000000	00000013	addi	x0,x0,0	  x0:0x00000000
       12215000	      1220	80003738	00000013	addi	x0,x0,0	  x0:0x00000000
       12225000	      1221	8000373c	01c000ef	jal	x1,8000373c	  x1=0x8000373c
       12235000	      1222	00000000	00000013	addi	x0,x0,0	  x0:0x00000000
       12245000	      1223	80003754	00000013	addi	x0,x0,0	  x0:0x00000000
       12255000	      1224	80003758	fd5ff0ef	jal	x1,80003758	  x1=0x80003758
       12265000	      1225	00000000	00000013	addi	x0,x0,0	  x0:0x00000000
       12275000	      1226	80003728	00000013	addi	x0,x0,0	  x0:0x00000000
       12285000	      1227	8000372c	00c0036f	jal	x6,8000372c	  x6=0x8000372c
       12295000	      1228	00000000	00000013	addi	x0,x0,0	  x0:0x00000000
       12305000	      1229	80003734	00000013	addi	x0,x0,0	  x0:0x00000000
       12315000	      1230	80003738	0140036f	jal	x6,80003738	  x6=0x80003738
       12325000	      1231	00000000	00000013	addi	x0,x0,0	  x0:0x00000000
       12335000	      1232	80003748	00000013	addi	x0,x0,0	  x0:0x00000000
       12345000	      1233	8000374c	fe5ffdef	jal	x27,8000374c	 x27=0x8000374c
       12355000	      1234	00000000	00000013	addi	x0,x0,0	  x0:0x00000000
       12365000	      1235	8000372c	00000013	addi	x0,x0,0	  x0:0x00000000
       12375000	      1236	80003730	024000ef	jal	x1,80003730	  x1=0x80003730
       12385000	      1237	00000000	00000013	addi	x0,x0,0	  x0:0x00000000
       12395000	      1238	80003750	00000013	addi	x0,x0,0	  x0:0x00000000
       12405000	      1239	80003754	ff1ff0ef	jal	x1,80003754	  x1=0x80003754
       12415000	      1240	00000000	00000013	addi	x0,x0,0	  x0:0x00000000
       12425000	      1241	80003740	00000013	addi	x0,x0,0	  x0:0x00000000
       12435000	      1242	80003744	ffdff1ef	jal	x3,80003744	  x3=0x80003744
       12445000	      1243	00000000	00000013	addi	x0,x0,0	  x0:0x00000000
       12455000	      1244	8000373c	00000013	addi	x0,x0,0	  x0:0x00000000
       12465000	      1245	80003740	0200036f	jal	x6,80003740	  x6=0x80003740
       12475000	      1246	00000000	00000013	addi	x0,x0,0	  x0:0x00000000
       12485000	      1247	8000375c	00000013	addi	x0,x0,0	  x0:0x00000000
       12495000	      1248	80003760	ef25fa37	lui	x20,0xef25f	 x20=0xef25f000
       12505000	      1249	80003764	02f65263	bge	x12,x15,80003788	 x12:0x00000000 x15:0x80003724
       12515000	      1250	00000000	00000013	addi	x0,x0,0	  x0:0x00000000
       12525000	      1251	80003784	00000013	addi	x0,x0,0	  x0:0x00000000
       12535000	      1252	80003788	413886b3	sub	x13,x17,x19	 x17:0x80009fc4 x19:0x00000000 x13=0x80009fc4
       12545000	      1253	8000378c	db004613	xori	x12,x0,-592	  x0:0x00000000 x12=0xfffffdb0
       12555000	      1254	80003790	015acc63	blt	x21,x21,800037a8	 x21:0x80009fdc x21:0x80009fdc
       12565000	      1255	80003794	57a0c413	xori	x8,x1,1402	  x1:0x80003754  x8=0x8000322e
       12575000	      1256	80003798	00000013	addi	x0,x0,0	  x0:0x00000000
       12585000	      1257	8000379c	41b45313	srai	x6,x8,0x1b	  x8:0x8000322e  x6=0xfffffff0
       12595000	      1258	800037a0	a5404a93	xori	x21,x0,-1452	  x0:0x00000000 x21=0xfffffa54
       12605000	      1259	800037a4	00b61db3	sll	x27,x12,x11	 x12:0xfffffdb0 x11:0xd0000000 x27=0xfffffdb0
       12615000	      1260	800037a8	2fba8593	addi	x11,x21,763	 x21:0xfffffa54 x11=0xfffffd4f
       12625000	      1261	800037ac	00000013	addi	x0,x0,0	  x0:0x00000000
       12635000	      1262	800037b0	018d72b3	and	x5,x26,x24	 x26:0x00000000 x24:0x80009c00  x5=0x00000000
       12645000	      1263	800037b4	056cf863	bgeu	x25,x22,80003804	 x25:0x00000001 x22:0xffffffec
       12655000	      1264	800037b8	ae3c4493	xori	x9,x24,-1309	 x24:0x80009c00  x9=0x7fff66e3
       12665000	      1265	800037bc	85871997	auipc	x19,0x85871	 x19=0x058747b8
       12675000	      1266	800037c0	00d39793	slli	x15,x7,0xd	  x7:0x08000000 x15=0x00000000
       12685000	      1267	800037c4	70328b13	addi	x22,x5,1795	  x5:0x00000000 x22=0x00000703
       12695000	      1268	800037c8	013826b3	slt	x13,x16,x19	 x16:0x00000001 x19:0x058747b8 x13=0x00000001
       12705000	      1269	800037cc	00000013	addi	x0,x0,0	  x0:0x00000000
       12715000	      1270	800037d0	9c7bd337	lui	x6,0x9c7bd	  x6=0x9c7bd000
       12725000	      1271	800037d4	01441493	slli	x9,x8,0x14	  x8:0x8000322e  x9=0x22e00000
       12735000	      1272	800037d8	0077cc63	blt	x15,x7,800037f0	 x15:0x00000000  x7:0x08000000
       12745000	      1273	00000000	00000013	addi	x0,x0,0	  x0:0x00000000
       12755000	      1274	800037ec	00000013	addi	x0,x0,0	  x0:0x00000000
       12765000	      1275	800037f0	41a38933	sub	x18,x7,x26	  x7:0x08000000 x26:0x00000000 x18=0x08000000
       12775000	      1276	800037f4	4b287c93	andi	x25,x16,1202	 x16:0x00000001 x25=0x00000000
       12785000	      1277	800037f8	2766b593	sltiu	x11,x13,630	 x13:0x00000001 x11=0x00000001
       12795000	      1278	800037fc	7f013393	sltiu	x7,x2,2032	  x2:0x80000e5c  x7=0x00000000
       12805000	      1279	80003800	02916063	bltu	x2,x9,80003820	  x2:0x80000e5c  x9:0x22e00000
       12815000	      1280	80003804	03976e63	bltu	x14,x25,80003840	 x14:0xf3c42ea8 x25:0x00000000
       12825000	      1281	80003808	017051b3	srl	x3,x0,x23	  x0:0x00000000 x23:0x80000e88  x3=0x00000000
       12835000	      1282	8000380c	001a5433	srl	x8,x20,x1	 x20:0xef25f000  x1:0x80003754  x8=0x00000ef2
       12845000	      1283	80003810	71c7df37	lui	x30,0x71c7d	 x30=0x71c7d000
       12855000	      1284	80003814	407f5e13	srai	x28,x30,0x7	 x30:0x71c7d000 x28=0x00e38fa0
       12865000	      1285	80003818	0181d2b3	srl	x5,x3,x24	  x3:0x00000000 x24:0x80009c00  x5=0x00000000
       12875000	      1286	8000381c	d8fb5f37	lui	x30,0xd8fb5	 x30=0xd8fb5000
       12885000	      1287	80003820	00bfd433	srl	x8,x31,x11	 x31:0x80009f6c x11:0x00000001  x8=0x40004fb6
       12895000	      1288	80003824	408cd433	sra	x8,x25,x8	 x25:0x00000000  x8:0x40004fb6  x8=0x00000000
       12905000	      1289	80003828	01af1033	sll	x0,x30,x26	 x30:0xd8fb5000 x26:0x00000000
       12915000	      1290	8000382c	0089bb33	sltu	x22,x19,x8	 x19:0x058747b8  x8:0x00000000 x22=0x00000000
       12925000	      1291	80003830	002e3bb3	sltu	x23,x28,x2	 x28:0x00e38fa0  x2:0x80000e5c x23=0x00000001
       12935000	      1292	80003834	02058d37	lui	x26,0x2058	 x26=0x02058000
       12945000	      1293	80003838	035a4463	blt	x20,x21,80003860	 x20:0xef25f000 x21:0xfffffa54
       12955000	      1294	00000000	00000013	addi	x0,x0,0	  x0:0x00000000
       12965000	      1295	8000385c	00000013	addi	x0,x0,0	  x0:0x00000000
       12975000	      1296	80003860	015a1e13	slli	x28,x20,0x15	 x20:0xef25f000 x28=0x00000000
       12985000	      1297	80003864	050f6263	bltu	x30,x16,800038a8	 x30:0xd8fb5000 x16:0x00000001
       12995000	      1298	80003868	f60e7d93	andi	x27,x28,-160	 x28:0x00000000 x27=0x00000000
       13005000	      1299	8000386c	729c2093	slti	x1,x24,1833	 x24:0x80009c00  x1=0x00000001
       13015000	      1300	80003870	41018933	sub	x18,x3,x16	  x3:0x00000000 x16:0x00000001 x18=0xffffffff
       13025000	      1301	80003874	a62ef313	andi	x6,x29,-1438	 x29:0x80000f34  x6=0x80000a20
       13035000	      1302	80003878	01393633	sltu	x12,x18,x19	 x18:0xffffffff x19:0x058747b8 x12=0x00000000
       13045000	      1303	8000387c	d4c2c793	xori	x15,x5,-692	  x5:0x00000000 x15=0xfffffd4c
       13055000	      1304	80003880	001ef4b3	and	x9,x29,x1	 x29:0x80000f34  x1:0x00000001  x9=0x00000000
       13065000	      1305	80003884	52676b13	ori	x22,x14,1318	 x14:0xf3c42ea8 x22=0xf3c42fae
       13075000	      1306	80003888	c5b5f093	andi	x1,x11,-933	 x11:0x00000001  x1=0x00000001
       13085000	      1307	8000388c	00000013	addi	x0,x0,0	  x0:0x00000000
       13095000	      1308	80003890	b1ebf993	andi	x19,x23,-1250	 x23:0x00000001 x19=0x00000000
       13105000	      1309	80003894	35a7a797	auipc	x15,0x35a7a	 x15=0xb5a7d890
       13115000	      1310	80003898	05de5463	bge	x28,x29,800038e0	 x28:0x00000000 x29:0x80000f34
       13125000	      1311	00000000	00000013	addi	x0,x0,0	  x0:0x00000000
       13135000	      1312	800038dc	00000013	addi	x0,x0,0	  x0:0x00000000
       13145000	      1313	800038e0	01853e33	sltu	x28,x10,x24	 x10:0x00000000 x24:0x80009c00 x28=0x00000001
       13155000	      1314	800038e4	004fa783	lw	x15,4(x31)	 x31:0x80009f6c x15=0x8000013c PA:0x80009f70
       13165000	      1315	800038e8	01626033	or	x0,x4,x22	  x4:0xe9ba91f5 x22:0xf3c42fae
       13175000	      1316	800038ec	018f8f93	addi	x31,x31,24	 x31:0x80009f6c x31=0x80009f84
       13185000	      1317	800038f0	016c1d33	sll	x26,x24,x22	 x24:0x80009c00 x22:0xf3c42fae x26=0x27000000
       13195000	      1318	800038f4	00000013	addi	x0,x0,0	  x0:0x00000000
       13205000	      1319	800038f8	01cf0ab3	add	x21,x30,x28	 x30:0xd8fb5000 x28:0x00000001 x21=0xd8fb5001
       13215000	      1320	800038fc	00178193	addi	x3,x15,1	 x15:0x8000013c  x3=0x8000013d
       13225000	      1321	80003900	000181e7	jalr	x3,x3,0	  x3:0x8000013d  x3=0x80003900
       13235000	      1322	00000000	00000013	addi	x0,x0,0	  x0:0x00000000
       13245000	      1323	8000013c	00000013	addi	x0,x0,0	  x0:0x00000000
       13255000	      1324	80000140	00001397	auipc	x7,0x1	  x7=0x8000113c
       13265000	      1325	80000144	f7438393	addi	x7,x7,-140	  x7:0x8000113c  x7=0x800010b0
       13275000	      1326	80000148	b1596d93	ori	x27,x18,-1259	 x18:0xffffffff x27=0xffffffff
       13285000	      1327	8000014c	019782b3	add	x5,x15,x25	 x15:0x8000013c x25:0x00000000  x5=0x8000013c
       13295000	      1328	80000150	c3d38393	addi	x7,x7,-963	  x7:0x800010b0  x7=0x80000ced
       13305000	      1329	80000154	50bca493	slti	x9,x25,1291	 x25:0x00000000  x9=0x00000001
       13315000	      1330	80000158	40390133	sub	x2,x18,x3	 x18:0xffffffff  x3:0x80003900  x2=0x7fffc6ff
       13325000	      1331	8000015c	001cee63	bltu	x25,x1,80000178	 x25:0x00000000  x1:0x00000001
       13335000	      1332	00000000	00000013	addi	x0,x0,0	  x0:0x00000000
       13345000	      1333	80000174	00000013	addi	x0,x0,0	  x0:0x00000000
       13355000	      1334	80000178	3c4387e7	jalr	x15,x7,964	  x7:0x80000ced x15=0x80000178
       13365000	      1335	00000000	00000013	addi	x0,x0,0	  x0:0x00000000
       13375000	      1336	800010b0	00000013	addi	x0,x0,0	  x0:0x00000000
       13385000	      1337	800010b4	01c04463	blt	x0,x28,800010bc	  x0:0x00000000 x28:0x00000001
       13395000	      1338	00000000	00000013	addi	x0,x0,0	  x0:0x00000000
       13405000	      1339	800010b8	00000013	addi	x0,x0,0	  x0:0x00000000
       13415000	      1340	800010bc	fd0f8f93	addi	x31,x31,-48	 x31:0x80009f84 x31=0x80009f54
       13425000	      1341	800010c0	43f94617	auipc	x12,0x43f94	 x12=0xc3f950bc
       13435000	      1342	800010c4	00ffa223	sw	x15,4(x31)	 x31:0x80009f54 x15:0x80000178 PA:0x80009f58
       13445000	      1343	800010c8	41ac06b3	sub	x13,x24,x26	 x24:0x80009c00 x26:0x27000000 x13=0x59009c00
       13455000	      1344	800010cc	00968033	add	x0,x13,x9	 x13:0x59009c00  x9:0x00000001
       13465000	      1345	800010d0	40afd0b3	sra	x1,x31,x10	 x31:0x80009f54 x10:0x00000000  x1=0x80009f54
       13475000	      1346	800010d4	00000013	addi	x0,x0,0	  x0:0x00000000
       13485000	      1347	800010d8	0178bab3	sltu	x21,x17,x23	 x17:0x80009fc4 x23:0x00000001 x21=0x00000000
       13495000	      1348	800010dc	417f8133	sub	x2,x31,x23	 x31:0x80009f54 x23:0x00000001  x2=0x80009f53
       13505000	      1349	800010e0	024007ef	jal	x15,800010e0	 x15=0x800010e0
       13515000	      1350	00000000	00000013	addi	x0,x0,0	  x0:0x00000000
       13525000	      1351	80001100	00000013	addi	x0,x0,0	  x0:0x00000000
       13535000	      1352	80001104	010001ef	jal	x3,80001104	  x3=0x80001104
       13545000	      1353	00000000	00000013	addi	x0,x0,0	  x0:0x00000000
       13555000	      1354	80001110	00000013	addi	x0,x0,0	  x0:0x00000000
       13565000	      1355	80001114	fd5ff0ef	jal	x1,80001114	  x1=0x80001114
       13575000	      1356	00000000	00000013	addi	x0,x0,0	  x0:0x00000000
       13585000	      1357	800010e4	00000013	addi	x0,x0,0	  x0:0x00000000
       13595000	      1358	800010e8	048000ef	jal	x1,800010e8	  x1=0x800010e8
       13605000	      1359	00000000	00000013	addi	x0,x0,0	  x0:0x00000000
       13615000	      1360	8000112c	00000013	addi	x0,x0,0	  x0:0x00000000
       13625000	      1361	80001130	ff1ff3ef	jal	x7,80001130	  x7=0x80001130
       13635000	      1362	00000000	00000013	addi	x0,x0,0	  x0:0x00000000
       13645000	      1363	8000111c	00000013	addi	x0,x0,0	  x0:0x00000000
       13655000	      1364	80001120	0180036f	jal	x6,80001120	  x6=0x80001120
       13665000	      1365	00000000	00000013	addi	x0,x0,0	  x0:0x00000000
       13675000	      1366	80001134	00000013	addi	x0,x0,0	  x0:0x00000000
       13685000	      1367	80001138	fd5ff0ef	jal	x1,80001138	  x1=0x80001138
       13695000	      1368	00000000	00000013	addi	x0,x0,0	  x0:0x00000000
       13705000	      1369	80001108	00000013	addi	x0,x0,0	  x0:0x00000000
       13715000	      1370	8000110c	ff5ff0ef	jal	x1,8000110c	  x1=0x8000110c
       13725000	      1371	00000000	00000013	addi	x0,x0,0	  x0:0x00000000
       13735000	      1372	800010fc	00000013	addi	x0,x0,0	  x0:0x00000000
       13745000	      1373	80001100	ff9ff96f	jal	x18,80001100	 x18=0x80001100
       13755000	      1374	00000000	00000013	addi	x0,x0,0	  x0:0x00000000
       13765000	      1375	800010f4	00000013	addi	x0,x0,0	  x0:0x00000000
       13775000	      1376	800010f8	02c000ef	jal	x1,800010f8	  x1=0x800010f8
       13785000	      1377	00000000	00000013	addi	x0,x0,0	  x0:0x00000000
       13795000	      1378	80001120	00000013	addi	x0,x0,0	  x0:0x00000000
       13805000	      1379	80001124	fd1ff36f	jal	x6,80001124	  x6=0x80001124
       13815000	      1380	00000000	00000013	addi	x0,x0,0	  x0:0x00000000
       13825000	      1381	800010f0	00000013	addi	x0,x0,0	  x0:0x00000000
       13835000	      1382	800010f4	040000ef	jal	x1,800010f4	  x1=0x800010f4
       13845000	      1383	00000000	00000013	addi	x0,x0,0	  x0:0x00000000
       13855000	      1384	80001130	00000013	addi	x0,x0,0	  x0:0x00000000
       13865000	      1385	80001134	fbdff0ef	jal	x1,80001134	  x1=0x80001134
       13875000	      1386	00000000	00000013	addi	x0,x0,0	  x0:0x00000000
       13885000	      1387	800010ec	00000013	addi	x0,x0,0	  x0:0x00000000
       13895000	      1388	800010f0	ff5ff0ef	jal	x1,800010f0	  x1=0x800010f0
       13905000	      1389	00000000	00000013	addi	x0,x0,0	  x0:0x00000000
       13915000	      1390	800010e0	00000013	addi	x0,x0,0	  x0:0x00000000
       13925000	      1391	800010e4	0440046f	jal	x8,800010e4	  x8=0x800010e4
       13935000	      1392	00000000	00000013	addi	x0,x0,0	  x0:0x00000000
       13945000	      1393	80001124	00000013	addi	x0,x0,0	  x0:0x00000000
       13955000	      1394	80001128	fc5ff56f	jal	x10,80001128	 x10=0x80001128
       13965000	      1395	00000000	00000013	addi	x0,x0,0	  x0:0x00000000
       13975000	      1396	800010e8	00000013	addi	x0,x0,0	  x0:0x00000000
       13985000	      1397	800010ec	010000ef	jal	x1,800010ec	  x1=0x800010ec
       13995000	      1398	00000000	00000013	addi	x0,x0,0	  x0:0x00000000
       14005000	      1399	800010f8	00000013	addi	x0,x0,0	  x0:0x00000000
       14015000	      1400	800010fc	01c002ef	jal	x5,800010fc	  x5=0x800010fc
       14025000	      1401	00000000	00000013	addi	x0,x0,0	  x0:0x00000000
       14035000	      1402	80001114	00000013	addi	x0,x0,0	  x0:0x00000000
       14045000	      1403	80001118	ff9ff96f	jal	x18,80001118	 x18=0x80001118
       14055000	      1404	00000000	00000013	addi	x0,x0,0	  x0:0x00000000
       14065000	      1405	8000110c	00000013	addi	x0,x0,0	  x0:0x00000000
       14075000	      1406	80001110	01c000ef	jal	x1,80001110	  x1=0x80001110
       14085000	      1407	00000000	00000013	addi	x0,x0,0	  x0:0x00000000
       14095000	      1408	80001128	00000013	addi	x0,x0,0	  x0:0x00000000
       14105000	      1409	8000112c	fddff0ef	jal	x1,8000112c	  x1=0x8000112c
       14115000	      1410	00000000	00000013	addi	x0,x0,0	  x0:0x00000000
       14125000	      1411	80001104	00000013	addi	x0,x0,0	  x0:0x00000000
       14135000	      1412	80001108	014000ef	jal	x1,80001108	  x1=0x80001108
       14145000	      1413	00000000	00000013	addi	x0,x0,0	  x0:0x00000000
       14155000	      1414	80001118	00000013	addi	x0,x0,0	  x0:0x00000000
       14165000	      1415	8000111c	020002ef	jal	x5,8000111c	  x5=0x8000111c
       14175000	      1416	00000000	00000013	addi	x0,x0,0	  x0:0x00000000
       14185000	      1417	80001138	00000013	addi	x0,x0,0	  x0:0x00000000
       14195000	      1418	8000113c	77ad6193	ori	x3,x26,1914	 x26:0x27000000  x3=0x2700077a
       14205000	      1419	80001140	02c007ef	jal	x15,80001140	 x15=0x80001140
       14215000	      1420	00000000	00000013	addi	x0,x0,0	  x0:0x00000000
       14225000	      1421	80001168	00000013	addi	x0,x0,0	  x0:0x00000000
       14235000	      1422	8000116c	ff5ff0ef	jal	x1,8000116c	  x1=0x8000116c
       14245000	      1423	00000000	00000013	addi	x0,x0,0	  x0:0x00000000
       14255000	      1424	8000115c	00000013	addi	x0,x0,0	  x0:0x00000000
       14265000	      1425	80001160	0200036f	jal	x6,80001160	  x6=0x80001160
       14275000	      1426	00000000	00000013	addi	x0,x0,0	  x0:0x00000000
       14285000	      1427	8000117c	00000013	addi	x0,x0,0	  x0:0x00000000
       14295000	      1428	80001180	fc5ff0ef	jal	x1,80001180	  x1=0x80001180
       14305000	      1429	00000000	00000013	addi	x0,x0,0	  x0:0x00000000
       14315000	      1430	80001140	00000013	addi	x0,x0,0	  x0:0x00000000
       14325000	      1431	80001144	01400aef	jal	x21,80001144	 x21=0x80001144
       14335000	      1432	00000000	00000013	addi	x0,x0,0	  x0:0x00000000
       14345000	      1433	80001154	00000013	addi	x0,x0,0	  x0:0x00000000
       14355000	      1434	80001158	ff1ff0ef	jal	x1,80001158	  x1=0x80001158
       14365000	      1435	00000000	00000013	addi	x0,x0,0	  x0:0x00000000
       14375000	      1436	80001144	00000013	addi	x0,x0,0	  x0:0x00000000
       14385000	      1437	80001148	0200086f	jal	x16,80001148	 x16=0x80001148
       14395000	      1438	00000000	00000013	addi	x0,x0,0	  x0:0x00000000
       14405000	      1439	80001164	00000013	addi	x0,x0,0	  x0:0x00000000
       14415000	      1440	80001168	01c000ef	jal	x1,80001168	  x1=0x80001168
       14425000	      1441	00000000	00000013	addi	x0,x0,0	  x0:0x00000000
       14435000	      1442	80001180	00000013	addi	x0,x0,0	  x0:0x00000000
       14445000	      1443	80001184	fe1ff0ef	jal	x1,80001184	  x1=0x80001184
       14455000	      1444	00000000	00000013	addi	x0,x0,0	  x0:0x00000000
       14465000	      1445	80001160	00000013	addi	x0,x0,0	  x0:0x00000000
       14475000	      1446	80001164	0280036f	jal	x6,80001164	  x6=0x80001164
       14485000	      1447	00000000	00000013	addi	x0,x0,0	  x0:0x00000000
       14495000	      1448	80001188	00000013	addi	x0,x0,0	  x0:0x00000000
       14505000	      1449	8000118c	fe9ff0ef	jal	x1,8000118c	  x1=0x8000118c
       14515000	      1450	00000000	00000013	addi	x0,x0,0	  x0:0x00000000
       14525000	      1451	80001170	00000013	addi	x0,x0,0	  x0:0x00000000
       14535000	      1452	80001174	fddff0ef	jal	x1,80001174	  x1=0x80001174
       14545000	      1453	00000000	00000013	addi	x0,x0,0	  x0:0x00000000
       14555000	      1454	8000114c	00000013	addi	x0,x0,0	  x0:0x00000000
       14565000	      1455	80001150	020000ef	jal	x1,80001150	  x1=0x80001150
       14575000	      1456	00000000	00000013	addi	x0,x0,0	  x0:0x00000000
       14585000	      1457	8000116c	00000013	addi	x0,x0,0	  x0:0x00000000
       14595000	      1458	80001170	fedff0ef	jal	x1,80001170	  x1=0x80001170
       14605000	      1459	00000000	00000013	addi	x0,x0,0	  x0:0x00000000
       14615000	      1460	80001158	00000013	addi	x0,x0,0	  x0:0x00000000
       14625000	      1461	8000115c	02c000ef	jal	x1,8000115c	  x1=0x8000115c
       14635000	      1462	00000000	00000013	addi	x0,x0,0	  x0:0x00000000
       14645000	      1463	80001184	00000013	addi	x0,x0,0	  x0:0x00000000
       14655000	      1464	80001188	ff5ff0ef	jal	x1,80001188	  x1=0x80001188
       14665000	      1465	00000000	00000013	addi	x0,x0,0	  x0:0x00000000
       14675000	      1466	80001178	00000013	addi	x0,x0,0	  x0:0x00000000
       14685000	      1467	8000117c	ffdff36f	jal	x6,8000117c	  x6=0x8000117c
       14695000	      1468	00000000	00000013	addi	x0,x0,0	  x0:0x00000000
       14705000	      1469	80001174	00000013	addi	x0,x0,0	  x0:0x00000000
       14715000	      1470	80001178	fd5ff0ef	jal	x1,80001178	  x1=0x80001178
       14725000	      1471	00000000	00000013	addi	x0,x0,0	  x0:0x00000000
       14735000	      1472	80001148	00000013	addi	x0,x0,0	  x0:0x00000000
       14745000	      1473	8000114c	0080016f	jal	x2,8000114c	  x2=0x8000114c
       14755000	      1474	00000000	00000013	addi	x0,x0,0	  x0:0x00000000
       14765000	      1475	80001150	00000013	addi	x0,x0,0	  x0:0x00000000
       14775000	      1476	80001154	03c0036f	jal	x6,80001154	  x6=0x80001154
       14785000	      1477	00000000	00000013	addi	x0,x0,0	  x0:0x00000000
       14795000	      1478	8000118c	00000013	addi	x0,x0,0	  x0:0x00000000
       14805000	      1479	80001190	00000013	addi	x0,x0,0	  x0:0x00000000
       14815000	      1480	80001194	00c007ef	jal	x15,80001194	 x15=0x80001194
       14825000	      1481	00000000	00000013	addi	x0,x0,0	  x0:0x00000000
       14835000	      1482	8000119c	00000013	addi	x0,x0,0	  x0:0x00000000
       14845000	      1483	800011a0	010000ef	jal	x1,800011a0	  x1=0x800011a0
       14855000	      1484	00000000	00000013	addi	x0,x0,0	  x0:0x00000000
       14865000	      1485	800011ac	00000013	addi	x0,x0,0	  x0:0x00000000
       14875000	      1486	800011b0	028003ef	jal	x7,800011b0	  x7=0x800011b0
       14885000	      1487	00000000	00000013	addi	x0,x0,0	  x0:0x00000000
       14895000	      1488	800011d4	00000013	addi	x0,x0,0	  x0:0x00000000
       14905000	      1489	800011d8	ff9ff36f	jal	x6,800011d8	  x6=0x800011d8
       14915000	      1490	00000000	00000013	addi	x0,x0,0	  x0:0x00000000
       14925000	      1491	800011cc	00000013	addi	x0,x0,0	  x0:0x00000000
       14935000	      1492	800011d0	fc9ffa6f	jal	x20,800011d0	 x20=0x800011d0
       14945000	      1493	00000000	00000013	addi	x0,x0,0	  x0:0x00000000
       14955000	      1494	80001194	00000013	addi	x0,x0,0	  x0:0x00000000
       14965000	      1495	80001198	00c004ef	jal	x9,80001198	  x9=0x80001198
       14975000	      1496	00000000	00000013	addi	x0,x0,0	  x0:0x00000000
       14985000	      1497	800011a0	00000013	addi	x0,x0,0	  x0:0x00000000
       14995000	      1498	800011a4	024000ef	jal	x1,800011a4	  x1=0x800011a4
       15005000	      1499	00000000	00000013	addi	x0,x0,0	  x0:0x00000000
       15015000	      1500	800011c4	00000013	addi	x0,x0,0	  x0:0x00000000
       15025000	      1501	800011c8	fedff0ef	jal	x1,800011c8	  x1=0x800011c8
       15035000	      1502	00000000	00000013	addi	x0,x0,0	  x0:0x00000000
       15045000	      1503	800011b0	00000013	addi	x0,x0,0	  x0:0x00000000
       15055000	      1504	800011b4	ff9ff0ef	jal	x1,800011b4	  x1=0x800011b4
       15065000	      1505	00000000	00000013	addi	x0,x0,0	  x0:0x00000000
       15075000	      1506	800011a8	00000013	addi	x0,x0,0	  x0:0x00000000
       15085000	      1507	800011ac	ffdff36f	jal	x6,800011ac	  x6=0x800011ac
       15095000	      1508	00000000	00000013	addi	x0,x0,0	  x0:0x00000000
       15105000	      1509	800011a4	00000013	addi	x0,x0,0	  x0:0x00000000
       15115000	      1510	800011a8	018000ef	jal	x1,800011a8	  x1=0x800011a8
       15125000	      1511	00000000	00000013	addi	x0,x0,0	  x0:0x00000000
       15135000	      1512	800011bc	00000013	addi	x0,x0,0	  x0:0x00000000
       15145000	      1513	800011c0	ffdff2ef	jal	x5,800011c0	  x5=0x800011c0
       15155000	      1514	00000000	00000013	addi	x0,x0,0	  x0:0x00000000
       15165000	      1515	800011b8	00000013	addi	x0,x0,0	  x0:0x00000000
       15175000	      1516	800011bc	0200036f	jal	x6,800011bc	  x6=0x800011bc
       15185000	      1517	00000000	00000013	addi	x0,x0,0	  x0:0x00000000
       15195000	      1518	800011d8	00000013	addi	x0,x0,0	  x0:0x00000000
       15205000	      1519	800011dc	ff1ff0ef	jal	x1,800011dc	  x1=0x800011dc
       15215000	      1520	00000000	00000013	addi	x0,x0,0	  x0:0x00000000
       15225000	      1521	800011c8	00000013	addi	x0,x0,0	  x0:0x00000000
       15235000	      1522	800011cc	ff9ff0ef	jal	x1,800011cc	  x1=0x800011cc
       15245000	      1523	00000000	00000013	addi	x0,x0,0	  x0:0x00000000
       15255000	      1524	800011c0	00000013	addi	x0,x0,0	  x0:0x00000000
       15265000	      1525	800011c4	fd9ffd6f	jal	x26,800011c4	 x26=0x800011c4
       15275000	      1526	00000000	00000013	addi	x0,x0,0	  x0:0x00000000
       15285000	      1527	80001198	00000013	addi	x0,x0,0	  x0:0x00000000
       15295000	      1528	8000119c	038000ef	jal	x1,8000119c	  x1=0x8000119c
       15305000	      1529	00000000	00000013	addi	x0,x0,0	  x0:0x00000000
       15315000	      1530	800011d0	00000013	addi	x0,x0,0	  x0:0x00000000
       15325000	      1531	800011d4	fe5ff0ef	jal	x1,800011d4	  x1=0x800011d4
       15335000	      1532	00000000	00000013	addi	x0,x0,0	  x0:0x00000000
       15345000	      1533	800011b4	00000013	addi	x0,x0,0	  x0:0x00000000
       15355000	      1534	800011b8	028000ef	jal	x1,800011b8	  x1=0x800011b8
       15365000	      1535	00000000	00000013	addi	x0,x0,0	  x0:0x00000000
       15375000	      1536	800011dc	00000013	addi	x0,x0,0	  x0:0x00000000
       15385000	      1537	800011e0	004000ef	jal	x1,800011e0	  x1=0x800011e0
       15395000	      1538	00000000	00000013	addi	x0,x0,0	  x0:0x00000000
       15405000	      1539	800011e0	00000013	addi	x0,x0,0	  x0:0x00000000
       15415000	      1540	800011e4	688f7493	andi	x9,x30,1672	 x30:0xd8fb5000  x9=0x00000000
       15425000	      1541	800011e8	00c007ef	jal	x15,800011e8	 x15=0x800011e8
       15435000	      1542	00000000	00000013	addi	x0,x0,0	  x0:0x00000000
       15445000	      1543	800011f0	00000013	addi	x0,x0,0	  x0:0x00000000
       15455000	      1544	800011f4	0140096f	jal	x18,800011f4	 x18=0x800011f4
       15465000	      1545	00000000	00000013	addi	x0,x0,0	  x0:0x00000000
       15475000	      1546	80001204	00000013	addi	x0,x0,0	  x0:0x00000000
       15485000	      1547	80001208	fe9ff0ef	jal	x1,80001208	  x1=0x80001208
       15495000	      1548	00000000	00000013	addi	x0,x0,0	  x0:0x00000000
       15505000	      1549	800011ec	00000013	addi	x0,x0,0	  x0:0x00000000
       15515000	      1550	800011f0	01c000ef	jal	x1,800011f0	  x1=0x800011f0
       15525000	      1551	00000000	00000013	addi	x0,x0,0	  x0:0x00000000
       15535000	      1552	80001208	00000013	addi	x0,x0,0	  x0:0x00000000
       15545000	      1553	8000120c	fedff36f	jal	x6,8000120c	  x6=0x8000120c
       15555000	      1554	00000000	00000013	addi	x0,x0,0	  x0:0x00000000
       15565000	      1555	800011f4	00000013	addi	x0,x0,0	  x0:0x00000000
       15575000	      1556	800011f8	0180016f	jal	x2,800011f8	  x2=0x800011f8
       15585000	      1557	00000000	00000013	addi	x0,x0,0	  x0:0x00000000
       15595000	      1558	8000120c	00000013	addi	x0,x0,0	  x0:0x00000000
       15605000	      1559	80001210	0100036f	jal	x6,80001210	  x6=0x80001210
       15615000	      1560	00000000	00000013	addi	x0,x0,0	  x0:0x00000000
       15625000	      1561	8000121c	00000013	addi	x0,x0,0	  x0:0x00000000
       15635000	      1562	80001220	008000ef	jal	x1,80001220	  x1=0x80001220
       15645000	      1563	00000000	00000013	addi	x0,x0,0	  x0:0x00000000
       15655000	      1564	80001224	00000013	addi	x0,x0,0	  x0:0x00000000
       15665000	      1565	80001228	fc5ff36f	jal	x6,80001228	  x6=0x80001228
       15675000	      1566	00000000	00000013	addi	x0,x0,0	  x0:0x00000000
       15685000	      1567	800011e8	00000013	addi	x0,x0,0	  x0:0x00000000
       15695000	      1568	800011ec	010000ef	jal	x1,800011ec	  x1=0x800011ec
       15705000	      1569	00000000	00000013	addi	x0,x0,0	  x0:0x00000000
       15715000	      1570	800011f8	00000013	addi	x0,x0,0	  x0:0x00000000
       15725000	      1571	800011fc	0300036f	jal	x6,800011fc	  x6=0x800011fc
       15735000	      1572	00000000	00000013	addi	x0,x0,0	  x0:0x00000000
       15745000	      1573	80001228	00000013	addi	x0,x0,0	  x0:0x00000000
       15755000	      1574	8000122c	fd9ff0ef	jal	x1,8000122c	  x1=0x8000122c
       15765000	      1575	00000000	00000013	addi	x0,x0,0	  x0:0x00000000
       15775000	      1576	80001200	00000013	addi	x0,x0,0	  x0:0x00000000
       15785000	      1577	80001204	0100036f	jal	x6,80001204	  x6=0x80001204
       15795000	      1578	00000000	00000013	addi	x0,x0,0	  x0:0x00000000
       15805000	      1579	80001210	00000013	addi	x0,x0,0	  x0:0x00000000
       15815000	      1580	80001214	008007ef	jal	x15,80001214	 x15=0x80001214
       15825000	      1581	00000000	00000013	addi	x0,x0,0	  x0:0x00000000
       15835000	      1582	80001218	00000013	addi	x0,x0,0	  x0:0x00000000
       15845000	      1583	8000121c	ffdff0ef	jal	x1,8000121c	  x1=0x8000121c
       15855000	      1584	00000000	00000013	addi	x0,x0,0	  x0:0x00000000
       15865000	      1585	80001214	00000013	addi	x0,x0,0	  x0:0x00000000
       15875000	      1586	80001218	fe9ffeef	jal	x29,80001218	 x29=0x80001218
       15885000	      1587	00000000	00000013	addi	x0,x0,0	  x0:0x00000000
       15895000	      1588	800011fc	00000013	addi	x0,x0,0	  x0:0x00000000
       15905000	      1589	80001200	0240046f	jal	x8,80001200	  x8=0x80001200
       15915000	      1590	00000000	00000013	addi	x0,x0,0	  x0:0x00000000
       15925000	      1591	80001220	00000013	addi	x0,x0,0	  x0:0x00000000
       15935000	      1592	80001224	00c002ef	jal	x5,80001224	  x5=0x80001224
       15945000	      1593	00000000	00000013	addi	x0,x0,0	  x0:0x00000000
       15955000	      1594	8000122c	00000013	addi	x0,x0,0	  x0:0x00000000
       15965000	      1595	80001230	00d3b6b3	sltu	x13,x7,x13	  x7:0x800011b0 x13:0x59009c00 x13=0x00000000
       15975000	      1596	80001234	014007ef	jal	x15,80001234	 x15=0x80001234
       15985000	      1597	00000000	00000013	addi	x0,x0,0	  x0:0x00000000
       15995000	      1598	80001244	00000013	addi	x0,x0,0	  x0:0x00000000
       16005000	      1599	80001248	004000ef	jal	x1,80001248	  x1=0x80001248
       16015000	      1600	00000000	00000013	addi	x0,x0,0	  x0:0x00000000
       16025000	      1601	80001248	00000013	addi	x0,x0,0	  x0:0x00000000
       16035000	      1602	8000124c	ff9ff0ef	jal	x1,8000124c	  x1=0x8000124c
       16045000	      1603	00000000	00000013	addi	x0,x0,0	  x0:0x00000000
       16055000	      1604	80001240	00000013	addi	x0,x0,0	  x0:0x00000000
       16065000	      1605	80001244	02400bef	jal	x23,80001244	 x23=0x80001244
       16075000	      1606	00000000	00000013	addi	x0,x0,0	  x0:0x00000000
       16085000	      1607	80001264	00000013	addi	x0,x0,0	  x0:0x00000000
       16095000	      1608	80001268	fd9ff1ef	jal	x3,80001268	  x3=0x80001268
       16105000	      1609	00000000	00000013	addi	x0,x0,0	  x0:0x00000000
       16115000	      1610	8000123c	00000013	addi	x0,x0,0	  x0:0x00000000
       16125000	      1611	80001240	0380036f	jal	x6,80001240	  x6=0x80001240
       16135000	      1612	00000000	00000013	addi	x0,x0,0	  x0:0x00000000
       16145000	      1613	80001274	00000013	addi	x0,x0,0	  x0:0x00000000
       16155000	      1614	80001278	008006ef	jal	x13,80001278	 x13=0x80001278
       16165000	      1615	00000000	00000013	addi	x0,x0,0	  x0:0x00000000
       16175000	      1616	8000127c	00000013	addi	x0,x0,0	  x0:0x00000000
       16185000	      1617	80001280	ff5ff36f	jal	x6,80001280	  x6=0x80001280
       16195000	      1618	00000000	00000013	addi	x0,x0,0	  x0:0x00000000
       16205000	      1619	80001270	00000013	addi	x0,x0,0	  x0:0x00000000
       16215000	      1620	80001274	0080036f	jal	x6,80001274	  x6=0x80001274
       16225000	      1621	00000000	00000013	addi	x0,x0,0	  x0:0x00000000
       16235000	      1622	80001278	00000013	addi	x0,x0,0	  x0:0x00000000
       16245000	      1623	8000127c	fd5ff0ef	jal	x1,8000127c	  x1=0x8000127c
       16255000	      1624	00000000	00000013	addi	x0,x0,0	  x0:0x00000000
       16265000	      1625	8000124c	00000013	addi	x0,x0,0	  x0:0x00000000
       16275000	      1626	80001250	020000ef	jal	x1,80001250	  x1=0x80001250
       16285000	      1627	00000000	00000013	addi	x0,x0,0	  x0:0x00000000
       16295000	      1628	8000126c	00000013	addi	x0,x0,0	  x0:0x00000000
       16305000	      1629	80001270	ff1ff0ef	jal	x1,80001270	  x1=0x80001270
       16315000	      1630	00000000	00000013	addi	x0,x0,0	  x0:0x00000000
       16325000	      1631	8000125c	00000013	addi	x0,x0,0	  x0:0x00000000
       16335000	      1632	80001260	ffdff0ef	jal	x1,80001260	  x1=0x80001260
       16345000	      1633	00000000	00000013	addi	x0,x0,0	  x0:0x00000000
       16355000	      1634	80001258	00000013	addi	x0,x0,0	  x0:0x00000000
       16365000	      1635	8000125c	ff9ff2ef	jal	x5,8000125c	  x5=0x8000125c
       16375000	      1636	00000000	00000013	addi	x0,x0,0	  x0:0x00000000
       16385000	      1637	80001250	00000013	addi	x0,x0,0	  x0:0x00000000
       16395000	      1638	80001254	030000ef	jal	x1,80001254	  x1=0x80001254
       16405000	      1639	00000000	00000013	addi	x0,x0,0	  x0:0x00000000
       16415000	      1640	80001280	00000013	addi	x0,x0,0	  x0:0x00000000
       16425000	      1641	80001284	0040046f	jal	x8,80001284	  x8=0x80001284
       16435000	      1642	00000000	00000013	addi	x0,x0,0	  x0:0x00000000
       16445000	      1643	80001284	00000013	addi	x0,x0,0	  x0:0x00000000
       16455000	      1644	80001288	fb5ff7ef	jal	x15,80001288	 x15=0x80001288
       16465000	      1645	00000000	00000013	addi	x0,x0,0	  x0:0x00000000
       16475000	      1646	80001238	00000013	addi	x0,x0,0	  x0:0x00000000
       16485000	      1647	8000123c	028003ef	jal	x7,8000123c	  x7=0x8000123c
       16495000	      1648	00000000	00000013	addi	x0,x0,0	  x0:0x00000000
       16505000	      1649	80001260	00000013	addi	x0,x0,0	  x0:0x00000000
       16515000	      1650	80001264	0080036f	jal	x6,80001264	  x6=0x80001264
       16525000	      1651	00000000	00000013	addi	x0,x0,0	  x0:0x00000000
       16535000	      1652	80001268	00000013	addi	x0,x0,0	  x0:0x00000000
       16545000	      1653	8000126c	fedff2ef	jal	x5,8000126c	  x5=0x8000126c
       16555000	      1654	00000000	00000013	addi	x0,x0,0	  x0:0x00000000
       16565000	      1655	80001254	00000013	addi	x0,x0,0	  x0:0x00000000
       16575000	      1656	80001258	fe1ff36f	jal	x6,80001258	  x6=0x80001258
       16585000	      1657	00000000	00000013	addi	x0,x0,0	  x0:0x00000000
       16595000	      1658	80001234	00000013	addi	x0,x0,0	  x0:0x00000000
       16605000	      1659	80001238	054000ef	jal	x1,80001238	  x1=0x80001238
       16615000	      1660	00000000	00000013	addi	x0,x0,0	  x0:0x00000000
       16625000	      1661	80001288	00000013	addi	x0,x0,0	  x0:0x00000000
       16635000	      1662	8000128c	00000013	addi	x0,x0,0	  x0:0x00000000
       16645000	      1663	80001290	050007ef	jal	x15,80001290	 x15=0x80001290
       16655000	      1664	00000000	00000013	addi	x0,x0,0	  x0:0x00000000
       16665000	      1665	800012dc	00000013	addi	x0,x0,0	  x0:0x00000000
       16675000	      1666	800012e0	ffdff36f	jal	x6,800012e0	  x6=0x800012e0
       16685000	      1667	00000000	00000013	addi	x0,x0,0	  x0:0x00000000
       16695000	      1668	800012d8	00000013	addi	x0,x0,0	  x0:0x00000000
       16705000	      1669	800012dc	0100036f	jal	x6,800012dc	  x6=0x800012dc
       16715000	      1670	00000000	00000013	addi	x0,x0,0	  x0:0x00000000
       16725000	      1671	800012e8	00000013	addi	x0,x0,0	  x0:0x00000000
       16735000	      1672	800012ec	fa9ff7ef	jal	x15,800012ec	 x15=0x800012ec
       16745000	      1673	00000000	00000013	addi	x0,x0,0	  x0:0x00000000
       16755000	      1674	80001290	00000013	addi	x0,x0,0	  x0:0x00000000
       16765000	      1675	80001294	034000ef	jal	x1,80001294	  x1=0x80001294
       16775000	      1676	00000000	00000013	addi	x0,x0,0	  x0:0x00000000
       16785000	      1677	800012c4	00000013	addi	x0,x0,0	  x0:0x00000000
       16795000	      1678	800012c8	00c002ef	jal	x5,800012c8	  x5=0x800012c8
       16805000	      1679	00000000	00000013	addi	x0,x0,0	  x0:0x00000000
       16815000	      1680	800012d0	00000013	addi	x0,x0,0	  x0:0x00000000
       16825000	      1681	800012d4	ff9ff0ef	jal	x1,800012d4	  x1=0x800012d4
       16835000	      1682	00000000	00000013	addi	x0,x0,0	  x0:0x00000000
       16845000	      1683	800012c8	00000013	addi	x0,x0,0	  x0:0x00000000
       16855000	      1684	800012cc	fe9ff7ef	jal	x15,800012cc	 x15=0x800012cc
       16865000	      1685	00000000	00000013	addi	x0,x0,0	  x0:0x00000000
       16875000	      1686	800012b0	00000013	addi	x0,x0,0	  x0:0x00000000
       16885000	      1687	800012b4	ff5ffbef	jal	x23,800012b4	 x23=0x800012b4
       16895000	      1688	00000000	00000013	addi	x0,x0,0	  x0:0x00000000
       16905000	      1689	800012a4	00000013	addi	x0,x0,0	  x0:0x00000000
       16915000	      1690	800012a8	ff1ff0ef	jal	x1,800012a8	  x1=0x800012a8
       16925000	      1691	00000000	00000013	addi	x0,x0,0	  x0:0x00000000
       16935000	      1692	80001294	00000013	addi	x0,x0,0	  x0:0x00000000
       16945000	      1693	80001298	038000ef	jal	x1,80001298	  x1=0x80001298
       16955000	      1694	00000000	00000013	addi	x0,x0,0	  x0:0x00000000
       16965000	      1695	800012cc	00000013	addi	x0,x0,0	  x0:0x00000000
       16975000	      1696	800012d0	fedffe6f	jal	x28,800012d0	 x28=0x800012d0
       16985000	      1697	00000000	00000013	addi	x0,x0,0	  x0:0x00000000
       16995000	      1698	800012b8	00000013	addi	x0,x0,0	  x0:0x00000000
       17005000	      1699	800012bc	ff1ff0ef	jal	x1,800012bc	  x1=0x800012bc
       17015000	      1700	00000000	00000013	addi	x0,x0,0	  x0:0x00000000
       17025000	      1701	800012a8	00000013	addi	x0,x0,0	  x0:0x00000000
       17035000	      1702	800012ac	03c0046f	jal	x8,800012ac	  x8=0x800012ac
       17045000	      1703	00000000	00000013	addi	x0,x0,0	  x0:0x00000000
       17055000	      1704	800012e4	00000013	addi	x0,x0,0	  x0:0x00000000
       17065000	      1705	800012e8	fd1ff1ef	jal	x3,800012e8	  x3=0x800012e8
       17075000	      1706	00000000	00000013	addi	x0,x0,0	  x0:0x00000000
       17085000	      1707	800012b4	00000013	addi	x0,x0,0	  x0:0x00000000
       17095000	      1708	800012b8	020000ef	jal	x1,800012b8	  x1=0x800012b8
       17105000	      1709	00000000	00000013	addi	x0,x0,0	  x0:0x00000000
       17115000	      1710	800012d4	00000013	addi	x0,x0,0	  x0:0x00000000
       17125000	      1711	800012d8	fc9ff46f	jal	x8,800012d8	  x8=0x800012d8
       17135000	      1712	00000000	00000013	addi	x0,x0,0	  x0:0x00000000
       17145000	      1713	8000129c	00000013	addi	x0,x0,0	  x0:0x00000000
       17155000	      1714	800012a0	020000ef	jal	x1,800012a0	  x1=0x800012a0
       17165000	      1715	00000000	00000013	addi	x0,x0,0	  x0:0x00000000
       17175000	      1716	800012bc	00000013	addi	x0,x0,0	  x0:0x00000000
       17185000	      1717	800012c0	fddff0ef	jal	x1,800012c0	  x1=0x800012c0
       17195000	      1718	00000000	00000013	addi	x0,x0,0	  x0:0x00000000
       17205000	      1719	80001298	00000013	addi	x0,x0,0	  x0:0x00000000
       17215000	      1720	8000129c	0280036f	jal	x6,8000129c	  x6=0x8000129c
       17225000	      1721	00000000	00000013	addi	x0,x0,0	  x0:0x00000000
       17235000	      1722	800012c0	00000013	addi	x0,x0,0	  x0:0x00000000
       17245000	      1723	800012c4	fe1ff0ef	jal	x1,800012c4	  x1=0x800012c4
       17255000	      1724	00000000	00000013	addi	x0,x0,0	  x0:0x00000000
       17265000	      1725	800012a0	00000013	addi	x0,x0,0	  x0:0x00000000
       17275000	      1726	800012a4	040000ef	jal	x1,800012a4	  x1=0x800012a4
       17285000	      1727	00000000	00000013	addi	x0,x0,0	  x0:0x00000000
       17295000	      1728	800012e0	00000013	addi	x0,x0,0	  x0:0x00000000
       17305000	      1729	800012e4	fcdff6ef	jal	x13,800012e4	 x13=0x800012e4
       17315000	      1730	00000000	00000013	addi	x0,x0,0	  x0:0x00000000
       17325000	      1731	800012ac	00000013	addi	x0,x0,0	  x0:0x00000000
       17335000	      1732	800012b0	040000ef	jal	x1,800012b0	  x1=0x800012b0
       17345000	      1733	00000000	00000013	addi	x0,x0,0	  x0:0x00000000
       17355000	      1734	800012ec	00000013	addi	x0,x0,0	  x0:0x00000000
       17365000	      1735	800012f0	0040036f	jal	x6,800012f0	  x6=0x800012f0
       17375000	      1736	00000000	00000013	addi	x0,x0,0	  x0:0x00000000
       17385000	      1737	800012f0	00000013	addi	x0,x0,0	  x0:0x00000000
       17395000	      1738	800012f4	3969e313	ori	x6,x19,918	 x19:0x00000000  x6=0x00000396
       17405000	      1739	800012f8	00c007ef	jal	x15,800012f8	 x15=0x800012f8
       17415000	      1740	00000000	00000013	addi	x0,x0,0	  x0:0x00000000
       17425000	      1741	80001300	00000013	addi	x0,x0,0	  x0:0x00000000
       17435000	      1742	80001304	010000ef	jal	x1,80001304	  x1=0x80001304
       17445000	      1743	00000000	00000013	addi	x0,x0,0	  x0:0x00000000
       17455000	      1744	80001310	00000013	addi	x0,x0,0	  x0:0x00000000
       17465000	      1745	80001314	ff5ff0ef	jal	x1,80001314	  x1=0x80001314
       17475000	      1746	00000000	00000013	addi	x0,x0,0	  x0:0x00000000
       17485000	      1747	80001304	00000013	addi	x0,x0,0	  x0:0x00000000
       17495000	      1748	80001308	ff5ff0ef	jal	x1,80001308	  x1=0x80001308
       17505000	      1749	00000000	00000013	addi	x0,x0,0	  x0:0x00000000
       17515000	      1750	800012f8	00000013	addi	x0,x0,0	  x0:0x00000000
       17525000	      1751	800012fc	01c009ef	jal	x19,800012fc	 x19=0x800012fc
       17535000	      1752	00000000	00000013	addi	x0,x0,0	  x0:0x00000000
       17545000	      1753	80001314	00000013	addi	x0,x0,0	  x0:0x00000000
       17555000	      1754	80001318	ff5ff2ef	jal	x5,80001318	  x5=0x80001318
       17565000	      1755	00000000	00000013	addi	x0,x0,0	  x0:0x00000000
       17575000	      1756	80001308	00000013	addi	x0,x0,0	  x0:0x00000000
       17585000	      1757	8000130c	0040036f	jal	x6,8000130c	  x6=0x8000130c
       17595000	      1758	00000000	00000013	addi	x0,x0,0	  x0:0x00000000
       17605000	      1759	8000130c	00000013	addi	x0,x0,0	  x0:0x00000000
       17615000	      1760	80001310	ff1ff0ef	jal	x1,80001310	  x1=0x80001310
       17625000	      1761	00000000	00000013	addi	x0,x0,0	  x0:0x00000000
       17635000	      1762	800012fc	00000013	addi	x0,x0,0	  x0:0x00000000
       17645000	      1763	80001300	01c000ef	jal	x1,80001300	  x1=0x80001300
       17655000	      1764	00000000	00000013	addi	x0,x0,0	  x0:0x00000000
       17665000	      1765	80001318	00000013	addi	x0,x0,0	  x0:0x00000000
       17675000	      1766	8000131c	008000ef	jal	x1,8000131c	  x1=0x8000131c
       17685000	      1767	00000000	00000013	addi	x0,x0,0	  x0:0x00000000
       17695000	      1768	80001320	00000013	addi	x0,x0,0	  x0:0x00000000
       17705000	      1769	80001324	ffdff76f	jal	x14,80001324	 x14=0x80001324
       17715000	      1770	00000000	00000013	addi	x0,x0,0	  x0:0x00000000
       17725000	      1771	8000131c	00000013	addi	x0,x0,0	  x0:0x00000000
       17735000	      1772	80001320	0080036f	jal	x6,80001320	  x6=0x80001320
       17745000	      1773	00000000	00000013	addi	x0,x0,0	  x0:0x00000000
       17755000	      1774	80001324	00000013	addi	x0,x0,0	  x0:0x00000000
       17765000	      1775	80001328	407d01b3	sub	x3,x26,x7	 x26:0x800011c4  x7:0x8000123c  x3=0xffffff88
       17775000	      1776	8000132c	030007ef	jal	x15,8000132c	 x15=0x8000132c
       17785000	      1777	00000000	00000013	addi	x0,x0,0	  x0:0x00000000
       17795000	      1778	80001358	00000013	addi	x0,x0,0	  x0:0x00000000
       17805000	      1779	8000135c	fe1ff0ef	jal	x1,8000135c	  x1=0x8000135c
       17815000	      1780	00000000	00000013	addi	x0,x0,0	  x0:0x00000000
       17825000	      1781	80001338	00000013	addi	x0,x0,0	  x0:0x00000000
       17835000	      1782	8000133c	034001ef	jal	x3,8000133c	  x3=0x8000133c
       17845000	      1783	00000000	00000013	addi	x0,x0,0	  x0:0x00000000
       17855000	      1784	8000136c	00000013	addi	x0,x0,0	  x0:0x00000000
       17865000	      1785	80001370	ff5ff0ef	jal	x1,80001370	  x1=0x80001370
       17875000	      1786	00000000	00000013	addi	x0,x0,0	  x0:0x00000000
       17885000	      1787	80001360	00000013	addi	x0,x0,0	  x0:0x00000000
       17895000	      1788	80001364	fd5ffc6f	jal	x24,80001364	 x24=0x80001364
       17905000	      1789	00000000	00000013	addi	x0,x0,0	  x0:0x00000000
       17915000	      1790	80001334	00000013	addi	x0,x0,0	  x0:0x00000000
       17925000	      1791	80001338	0080046f	jal	x8,80001338	  x8=0x80001338
       17935000	      1792	00000000	00000013	addi	x0,x0,0	  x0:0x00000000
       17945000	      1793	8000133c	00000013	addi	x0,x0,0	  x0:0x00000000
       17955000	      1794	80001340	038005ef	jal	x11,80001340	 x11=0x80001340
       17965000	      1795	00000000	00000013	addi	x0,x0,0	  x0:0x00000000
       17975000	      1796	80001374	00000013	addi	x0,x0,0	  x0:0x00000000
       17985000	      1797	80001378	fb9ff36f	jal	x6,80001378	  x6=0x80001378
       17995000	      1798	00000000	00000013	addi	x0,x0,0	  x0:0x00000000
       18005000	      1799	8000132c	00000013	addi	x0,x0,0	  x0:0x00000000
       18015000	      1800	80001330	0380036f	jal	x6,80001330	  x6=0x80001330
       18025000	      1801	00000000	00000013	addi	x0,x0,0	  x0:0x00000000
       18035000	      1802	80001364	00000013	addi	x0,x0,0	  x0:0x00000000
       18045000	      1803	80001368	fe1ff0ef	jal	x1,80001368	  x1=0x80001368
       18055000	      1804	00000000	00000013	addi	x0,x0,0	  x0:0x00000000
       18065000	      1805	80001344	00000013	addi	x0,x0,0	  x0:0x00000000
       18075000	      1806	80001348	010000ef	jal	x1,80001348	  x1=0x80001348
       18085000	      1807	00000000	00000013	addi	x0,x0,0	  x0:0x00000000
       18095000	      1808	80001354	00000013	addi	x0,x0,0	  x0:0x00000000
       18105000	      1809	80001358	fedffeef	jal	x29,80001358	 x29=0x80001358
       18115000	      1810	00000000	00000013	addi	x0,x0,0	  x0:0x00000000
       18125000	      1811	80001340	00000013	addi	x0,x0,0	  x0:0x00000000
       18135000	      1812	80001344	01c00bef	jal	x23,80001344	 x23=0x80001344
       18145000	      1813	00000000	00000013	addi	x0,x0,0	  x0:0x00000000
       18155000	      1814	8000135c	00000013	addi	x0,x0,0	  x0:0x00000000
       18165000	      1815	80001360	fedff0ef	jal	x1,80001360	  x1=0x80001360
       18175000	      1816	00000000	00000013	addi	x0,x0,0	  x0:0x00000000
       18185000	      1817	80001348	00000013	addi	x0,x0,0	  x0:0x00000000
       18195000	      1818	8000134c	008000ef	jal	x1,8000134c	  x1=0x8000134c
       18205000	      1819	00000000	00000013	addi	x0,x0,0	  x0:0x00000000
       18215000	      1820	80001350	00000013	addi	x0,x0,0	  x0:0x00000000
       18225000	      1821	80001354	02c00d6f	jal	x26,80001354	 x26=0x80001354
       18235000	      1822	00000000	00000013	addi	x0,x0,0	  x0:0x00000000
       18245000	      1823	8000137c	00000013	addi	x0,x0,0	  x0:0x00000000
       18255000	      1824	80001380	fedff36f	jal	x6,80001380	  x6=0x80001380
       18265000	      1825	00000000	00000013	addi	x0,x0,0	  x0:0x00000000
       18275000	      1826	80001368	00000013	addi	x0,x0,0	  x0:0x00000000
       18285000	      1827	8000136c	fe5ff0ef	jal	x1,8000136c	  x1=0x8000136c
       18295000	      1828	00000000	00000013	addi	x0,x0,0	  x0:0x00000000
       18305000	      1829	8000134c	00000013	addi	x0,x0,0	  x0:0x00000000
       18315000	      1830	80001350	fe5ff0ef	jal	x1,80001350	  x1=0x80001350
       18325000	      1831	00000000	00000013	addi	x0,x0,0	  x0:0x00000000
       18335000	      1832	80001330	00000013	addi	x0,x0,0	  x0:0x00000000
       18345000	      1833	80001334	040000ef	jal	x1,80001334	  x1=0x80001334
       18355000	      1834	00000000	00000013	addi	x0,x0,0	  x0:0x00000000
       18365000	      1835	80001370	00000013	addi	x0,x0,0	  x0:0x00000000
       18375000	      1836	80001374	008000ef	jal	x1,80001374	  x1=0x80001374
       18385000	      1837	00000000	00000013	addi	x0,x0,0	  x0:0x00000000
       18395000	      1838	80001378	00000013	addi	x0,x0,0	  x0:0x00000000
       18405000	      1839	8000137c	008000ef	jal	x1,8000137c	  x1=0x8000137c
       18415000	      1840	00000000	00000013	addi	x0,x0,0	  x0:0x00000000
       18425000	      1841	80001380	00000013	addi	x0,x0,0	  x0:0x00000000
       18435000	      1842	80001384	01739693	slli	x13,x7,0x17	  x7:0x8000123c x13=0x1e000000
       18445000	      1843	80001388	014007ef	jal	x15,80001388	 x15=0x80001388
       18455000	      1844	00000000	00000013	addi	x0,x0,0	  x0:0x00000000
       18465000	      1845	80001398	00000013	addi	x0,x0,0	  x0:0x00000000
       18475000	      1846	8000139c	05c000ef	jal	x1,8000139c	  x1=0x8000139c
       18485000	      1847	00000000	00000013	addi	x0,x0,0	  x0:0x00000000
       18495000	      1848	800013f4	00000013	addi	x0,x0,0	  x0:0x00000000
       18505000	      1849	800013f8	f99ff0ef	jal	x1,800013f8	  x1=0x800013f8
       18515000	      1850	00000000	00000013	addi	x0,x0,0	  x0:0x00000000
       18525000	      1851	8000138c	00000013	addi	x0,x0,0	  x0:0x00000000
       18535000	      1852	80001390	030000ef	jal	x1,80001390	  x1=0x80001390
       18545000	      1853	00000000	00000013	addi	x0,x0,0	  x0:0x00000000
       18555000	      1854	800013bc	00000013	addi	x0,x0,0	  x0:0x00000000
       18565000	      1855	800013c0	024000ef	jal	x1,800013c0	  x1=0x800013c0
       18575000	      1856	00000000	00000013	addi	x0,x0,0	  x0:0x00000000
       18585000	      1857	800013e0	00000013	addi	x0,x0,0	  x0:0x00000000
       18595000	      1858	800013e4	fe5ff16f	jal	x2,800013e4	  x2=0x800013e4
       18605000	      1859	00000000	00000013	addi	x0,x0,0	  x0:0x00000000
       18615000	      1860	800013c4	00000013	addi	x0,x0,0	  x0:0x00000000
       18625000	      1861	800013c8	02c000ef	jal	x1,800013c8	  x1=0x800013c8
       18635000	      1862	00000000	00000013	addi	x0,x0,0	  x0:0x00000000
       18645000	      1863	800013f0	00000013	addi	x0,x0,0	  x0:0x00000000
       18655000	      1864	800013f4	fe1ff0ef	jal	x1,800013f4	  x1=0x800013f4
       18665000	      1865	00000000	00000013	addi	x0,x0,0	  x0:0x00000000
       18675000	      1866	800013d0	00000013	addi	x0,x0,0	  x0:0x00000000
       18685000	      1867	800013d4	fe5ff0ef	jal	x1,800013d4	  x1=0x800013d4
       18695000	      1868	00000000	00000013	addi	x0,x0,0	  x0:0x00000000
       18705000	      1869	800013b4	00000013	addi	x0,x0,0	  x0:0x00000000
       18715000	      1870	800013b8	ffdff36f	jal	x6,800013b8	  x6=0x800013b8
       18725000	      1871	00000000	00000013	addi	x0,x0,0	  x0:0x00000000
       18735000	      1872	800013b0	00000013	addi	x0,x0,0	  x0:0x00000000
       18745000	      1873	800013b4	03c00a6f	jal	x20,800013b4	 x20=0x800013b4
       18755000	      1874	00000000	00000013	addi	x0,x0,0	  x0:0x00000000
       18765000	      1875	800013ec	00000013	addi	x0,x0,0	  x0:0x00000000
       18775000	      1876	800013f0	fbdff46f	jal	x8,800013f0	  x8=0x800013f0
       18785000	      1877	00000000	00000013	addi	x0,x0,0	  x0:0x00000000
       18795000	      1878	800013a8	00000013	addi	x0,x0,0	  x0:0x00000000
       18805000	      1879	800013ac	0340036f	jal	x6,800013ac	  x6=0x800013ac
       18815000	      1880	00000000	00000013	addi	x0,x0,0	  x0:0x00000000
       18825000	      1881	800013dc	00000013	addi	x0,x0,0	  x0:0x00000000
       18835000	      1882	800013e0	fb5ff0ef	jal	x1,800013e0	  x1=0x800013e0
       18845000	      1883	00000000	00000013	addi	x0,x0,0	  x0:0x00000000
       18855000	      1884	80001390	00000013	addi	x0,x0,0	  x0:0x00000000
       18865000	      1885	80001394	004000ef	jal	x1,80001394	  x1=0x80001394
       18875000	      1886	00000000	00000013	addi	x0,x0,0	  x0:0x00000000
       18885000	      1887	80001394	00000013	addi	x0,x0,0	  x0:0x00000000
       18895000	      1888	80001398	0540036f	jal	x6,80001398	  x6=0x80001398
       18905000	      1889	00000000	00000013	addi	x0,x0,0	  x0:0x00000000
       18915000	      1890	800013e8	00000013	addi	x0,x0,0	  x0:0x00000000
       18925000	      1891	800013ec	fbdff0ef	jal	x1,800013ec	  x1=0x800013ec
       18935000	      1892	00000000	00000013	addi	x0,x0,0	  x0:0x00000000
       18945000	      1893	800013a4	00000013	addi	x0,x0,0	  x0:0x00000000
       18955000	      1894	800013a8	028000ef	jal	x1,800013a8	  x1=0x800013a8
       18965000	      1895	00000000	00000013	addi	x0,x0,0	  x0:0x00000000
       18975000	      1896	800013cc	00000013	addi	x0,x0,0	  x0:0x00000000
       18985000	      1897	800013d0	fedff16f	jal	x2,800013d0	  x2=0x800013d0
       18995000	      1898	00000000	00000013	addi	x0,x0,0	  x0:0x00000000
       19005000	      1899	800013b8	00000013	addi	x0,x0,0	  x0:0x00000000
       19015000	      1900	800013bc	02000f6f	jal	x30,800013bc	 x30=0x800013bc
       19025000	      1901	00000000	00000013	addi	x0,x0,0	  x0:0x00000000
       19035000	      1902	800013d8	00000013	addi	x0,x0,0	  x0:0x00000000
       19045000	      1903	800013dc	fd5ff56f	jal	x10,800013dc	 x10=0x800013dc
       19055000	      1904	00000000	00000013	addi	x0,x0,0	  x0:0x00000000
       19065000	      1905	800013ac	00000013	addi	x0,x0,0	  x0:0x00000000
       19075000	      1906	800013b0	fddffa6f	jal	x20,800013b0	 x20=0x800013b0
       19085000	      1907	00000000	00000013	addi	x0,x0,0	  x0:0x00000000
       19095000	      1908	80001388	00000013	addi	x0,x0,0	  x0:0x00000000
       19105000	      1909	8000138c	0140036f	jal	x6,8000138c	  x6=0x8000138c
       19115000	      1910	00000000	00000013	addi	x0,x0,0	  x0:0x00000000
       19125000	      1911	8000139c	00000013	addi	x0,x0,0	  x0:0x00000000
       19135000	      1912	800013a0	02c000ef	jal	x1,800013a0	  x1=0x800013a0
       19145000	      1913	00000000	00000013	addi	x0,x0,0	  x0:0x00000000
       19155000	      1914	800013c8	00000013	addi	x0,x0,0	  x0:0x00000000
       19165000	      1915	800013cc	ff9ff0ef	jal	x1,800013cc	  x1=0x800013cc
       19175000	      1916	00000000	00000013	addi	x0,x0,0	  x0:0x00000000
       19185000	      1917	800013c0	00000013	addi	x0,x0,0	  x0:0x00000000
       19195000	      1918	800013c4	fe1ff36f	jal	x6,800013c4	  x6=0x800013c4
       19205000	      1919	00000000	00000013	addi	x0,x0,0	  x0:0x00000000
       19215000	      1920	800013a0	00000013	addi	x0,x0,0	  x0:0x00000000
       19225000	      1921	800013a4	0440036f	jal	x6,800013a4	  x6=0x800013a4
       19235000	      1922	00000000	00000013	addi	x0,x0,0	  x0:0x00000000
       19245000	      1923	800013e4	00000013	addi	x0,x0,0	  x0:0x00000000
       19255000	      1924	800013e8	ff1ff0ef	jal	x1,800013e8	  x1=0x800013e8
       19265000	      1925	00000000	00000013	addi	x0,x0,0	  x0:0x00000000
       19275000	      1926	800013d4	00000013	addi	x0,x0,0	  x0:0x00000000
       19285000	      1927	800013d8	024000ef	jal	x1,800013d8	  x1=0x800013d8
       19295000	      1928	00000000	00000013	addi	x0,x0,0	  x0:0x00000000
       19305000	      1929	800013f8	00000013	addi	x0,x0,0	  x0:0x00000000
       19315000	      1930	800013fc	3169ec93	ori	x25,x19,790	 x19:0x800012fc x25=0x800013fe
       19325000	      1931	80001400	034007ef	jal	x15,80001400	 x15=0x80001400
       19335000	      1932	00000000	00000013	addi	x0,x0,0	  x0:0x00000000
       19345000	      1933	80001430	00000013	addi	x0,x0,0	  x0:0x00000000
       19355000	      1934	80001434	fd1ff36f	jal	x6,80001434	  x6=0x80001434
       19365000	      1935	00000000	00000013	addi	x0,x0,0	  x0:0x00000000
       19375000	      1936	80001400	00000013	addi	x0,x0,0	  x0:0x00000000
       19385000	      1937	80001404	048000ef	jal	x1,80001404	  x1=0x80001404
       19395000	      1938	00000000	00000013	addi	x0,x0,0	  x0:0x00000000
       19405000	      1939	80001448	00000013	addi	x0,x0,0	  x0:0x00000000
       19415000	      1940	8000144c	010000ef	jal	x1,8000144c	  x1=0x8000144c
       19425000	      1941	00000000	00000013	addi	x0,x0,0	  x0:0x00000000
       19435000	      1942	80001458	00000013	addi	x0,x0,0	  x0:0x00000000
       19445000	      1943	8000145c	fddff0ef	jal	x1,8000145c	  x1=0x8000145c
       19455000	      1944	00000000	00000013	addi	x0,x0,0	  x0:0x00000000
       19465000	      1945	80001434	00000013	addi	x0,x0,0	  x0:0x00000000
       19475000	      1946	80001438	fd1ff0ef	jal	x1,80001438	  x1=0x80001438
       19485000	      1947	00000000	00000013	addi	x0,x0,0	  x0:0x00000000
       19495000	      1948	80001404	00000013	addi	x0,x0,0	  x0:0x00000000
       19505000	      1949	80001408	0500036f	jal	x6,80001408	  x6=0x80001408
       19515000	      1950	00000000	00000013	addi	x0,x0,0	  x0:0x00000000
       19525000	      1951	80001454	00000013	addi	x0,x0,0	  x0:0x00000000
       19535000	      1952	80001458	0080036f	jal	x6,80001458	  x6=0x80001458
       19545000	      1953	00000000	00000013	addi	x0,x0,0	  x0:0x00000000
       19555000	      1954	8000145c	00000013	addi	x0,x0,0	  x0:0x00000000
       19565000	      1955	80001460	00400def	jal	x27,80001460	 x27=0x80001460
       19575000	      1956	00000000	00000013	addi	x0,x0,0	  x0:0x00000000
       19585000	      1957	80001460	00000013	addi	x0,x0,0	  x0:0x00000000
       19595000	      1958	80001464	fddff0ef	jal	x1,80001464	  x1=0x80001464
       19605000	      1959	00000000	00000013	addi	x0,x0,0	  x0:0x00000000
       19615000	      1960	8000143c	00000013	addi	x0,x0,0	  x0:0x00000000
       19625000	      1961	80001440	fedff0ef	jal	x1,80001440	  x1=0x80001440
       19635000	      1962	00000000	00000013	addi	x0,x0,0	  x0:0x00000000
       19645000	      1963	80001428	00000013	addi	x0,x0,0	  x0:0x00000000
       19655000	      1964	8000142c	fedffd6f	jal	x26,8000142c	 x26=0x8000142c
       19665000	      1965	00000000	00000013	addi	x0,x0,0	  x0:0x00000000
       19675000	      1966	80001414	00000013	addi	x0,x0,0	  x0:0x00000000
       19685000	      1967	80001418	ff5ff0ef	jal	x1,80001418	  x1=0x80001418
       19695000	      1968	00000000	00000013	addi	x0,x0,0	  x0:0x00000000
       19705000	      1969	80001408	00000013	addi	x0,x0,0	  x0:0x00000000
       19715000	      1970	8000140c	0640036f	jal	x6,8000140c	  x6=0x8000140c
       19725000	      1971	00000000	00000013	addi	x0,x0,0	  x0:0x00000000
       19735000	      1972	8000146c	00000013	addi	x0,x0,0	  x0:0x00000000
       19745000	      1973	80001470	ff9ff0ef	jal	x1,80001470	  x1=0x80001470
       19755000	      1974	00000000	00000013	addi	x0,x0,0	  x0:0x00000000
       19765000	      1975	80001464	00000013	addi	x0,x0,0	  x0:0x00000000
       19775000	      1976	80001468	fd5ff1ef	jal	x3,80001468	  x3=0x80001468
       19785000	      1977	00000000	00000013	addi	x0,x0,0	  x0:0x00000000
       19795000	      1978	80001438	00000013	addi	x0,x0,0	  x0:0x00000000
       19805000	      1979	8000143c	030000ef	jal	x1,8000143c	  x1=0x8000143c
       19815000	      1980	00000000	00000013	addi	x0,x0,0	  x0:0x00000000
       19825000	      1981	80001468	00000013	addi	x0,x0,0	  x0:0x00000000
       19835000	      1982	8000146c	fe5ff0ef	jal	x1,8000146c	  x1=0x8000146c
       19845000	      1983	00000000	00000013	addi	x0,x0,0	  x0:0x00000000
       19855000	      1984	8000144c	00000013	addi	x0,x0,0	  x0:0x00000000
       19865000	      1985	80001450	fc5ff0ef	jal	x1,80001450	  x1=0x80001450
       19875000	      1986	00000000	00000013	addi	x0,x0,0	  x0:0x00000000
       19885000	      1987	80001410	00000013	addi	x0,x0,0	  x0:0x00000000
       19895000	      1988	80001414	00c00d6f	jal	x26,80001414	 x26=0x80001414
       19905000	      1989	00000000	00000013	addi	x0,x0,0	  x0:0x00000000
       19915000	      1990	8000141c	00000013	addi	x0,x0,0	  x0:0x00000000
       19925000	      1991	80001420	03400a6f	jal	x20,80001420	 x20=0x80001420
       19935000	      1992	00000000	00000013	addi	x0,x0,0	  x0:0x00000000
       19945000	      1993	80001450	00000013	addi	x0,x0,0	  x0:0x00000000
       19955000	      1994	80001454	fd1ff0ef	jal	x1,80001454	  x1=0x80001454
       19965000	      1995	00000000	00000013	addi	x0,x0,0	  x0:0x00000000
       19975000	      1996	80001420	00000013	addi	x0,x0,0	  x0:0x00000000
       19985000	      1997	80001424	ff9ff0ef	jal	x1,80001424	  x1=0x80001424
       19995000	      1998	00000000	00000013	addi	x0,x0,0	  x0:0x00000000
       20005000	      1999	80001418	00000013	addi	x0,x0,0	  x0:0x00000000
       20015000	      2000	8000141c	ff5ff36f	jal	x6,8000141c	  x6=0x8000141c
       20025000	      2001	00000000	00000013	addi	x0,x0,0	  x0:0x00000000
       20035000	      2002	8000140c	00000013	addi	x0,x0,0	  x0:0x00000000
       20045000	      2003	80001410	0200036f	jal	x6,80001410	  x6=0x80001410
       20055000	      2004	00000000	00000013	addi	x0,x0,0	  x0:0x00000000
       20065000	      2005	8000142c	00000013	addi	x0,x0,0	  x0:0x00000000
       20075000	      2006	80001430	0180036f	jal	x6,80001430	  x6=0x80001430
       20085000	      2007	00000000	00000013	addi	x0,x0,0	  x0:0x00000000
       20095000	      2008	80001444	00000013	addi	x0,x0,0	  x0:0x00000000
       20105000	      2009	80001448	fe1ff0ef	jal	x1,80001448	  x1=0x80001448
       20115000	      2010	00000000	00000013	addi	x0,x0,0	  x0:0x00000000
       20125000	      2011	80001424	00000013	addi	x0,x0,0	  x0:0x00000000
       20135000	      2012	80001428	01c0056f	jal	x10,80001428	 x10=0x80001428
       20145000	      2013	00000000	00000013	addi	x0,x0,0	  x0:0x00000000
       20155000	      2014	80001440	00000013	addi	x0,x0,0	  x0:0x00000000
       20165000	      2015	80001444	0300016f	jal	x2,80001444	  x2=0x80001444
       20175000	      2016	00000000	00000013	addi	x0,x0,0	  x0:0x00000000
       20185000	      2017	80001470	00000013	addi	x0,x0,0	  x0:0x00000000
       20195000	      2018	80001474	24150c37	lui	x24,0x24150	 x24=0x24150000
       20205000	      2019	80001478	03c007ef	jal	x15,80001478	 x15=0x80001478
       20215000	      2020	00000000	00000013	addi	x0,x0,0	  x0:0x00000000
       20225000	      2021	800014b0	00000013	addi	x0,x0,0	  x0:0x00000000
       20235000	      2022	800014b4	004000ef	jal	x1,800014b4	  x1=0x800014b4
       20245000	      2023	00000000	00000013	addi	x0,x0,0	  x0:0x00000000
       20255000	      2024	800014b4	00000013	addi	x0,x0,0	  x0:0x00000000
       20265000	      2025	800014b8	018000ef	jal	x1,800014b8	  x1=0x800014b8
       20275000	      2026	00000000	00000013	addi	x0,x0,0	  x0:0x00000000
       20285000	      2027	800014cc	00000013	addi	x0,x0,0	  x0:0x00000000
       20295000	      2028	800014d0	fbdff36f	jal	x6,800014d0	  x6=0x800014d0
       20305000	      2029	00000000	00000013	addi	x0,x0,0	  x0:0x00000000
       20315000	      2030	80001488	00000013	addi	x0,x0,0	  x0:0x00000000
       20325000	      2031	8000148c	ffdff76f	jal	x14,8000148c	 x14=0x8000148c
       20335000	      2032	00000000	00000013	addi	x0,x0,0	  x0:0x00000000
       20345000	      2033	80001484	00000013	addi	x0,x0,0	  x0:0x00000000
       20355000	      2034	80001488	050002ef	jal	x5,80001488	  x5=0x80001488
       20365000	      2035	00000000	00000013	addi	x0,x0,0	  x0:0x00000000
       20375000	      2036	800014d4	00000013	addi	x0,x0,0	  x0:0x00000000
       20385000	      2037	800014d8	fb9ff0ef	jal	x1,800014d8	  x1=0x800014d8
       20395000	      2038	00000000	00000013	addi	x0,x0,0	  x0:0x00000000
       20405000	      2039	8000148c	00000013	addi	x0,x0,0	  x0:0x00000000
       20415000	      2040	80001490	02c0036f	jal	x6,80001490	  x6=0x80001490
       20425000	      2041	00000000	00000013	addi	x0,x0,0	  x0:0x00000000
       20435000	      2042	800014b8	00000013	addi	x0,x0,0	  x0:0x00000000
       20445000	      2043	800014bc	01800cef	jal	x25,800014bc	 x25=0x800014bc
       20455000	      2044	00000000	00000013	addi	x0,x0,0	  x0:0x00000000
       20465000	      2045	800014d0	00000013	addi	x0,x0,0	  x0:0x00000000
       20475000	      2046	800014d4	fc1ff16f	jal	x2,800014d4	  x2=0x800014d4
       20485000	      2047	00000000	00000013	addi	x0,x0,0	  x0:0x00000000
       20495000	      2048	80001490	00000013	addi	x0,x0,0	  x0:0x00000000
       20505000	      2049	80001494	01c0036f	jal	x6,80001494	  x6=0x80001494
       20515000	      2050	00000000	00000013	addi	x0,x0,0	  x0:0x00000000
       20525000	      2051	800014ac	00000013	addi	x0,x0,0	  x0:0x00000000
       20535000	      2052	800014b0	fedff36f	jal	x6,800014b0	  x6=0x800014b0
       20545000	      2053	00000000	00000013	addi	x0,x0,0	  x0:0x00000000
       20555000	      2054	80001498	00000013	addi	x0,x0,0	  x0:0x00000000
       20565000	      2055	8000149c	fe5ff66f	jal	x12,8000149c	 x12=0x8000149c
       20575000	      2056	00000000	00000013	addi	x0,x0,0	  x0:0x00000000
       20585000	      2057	8000147c	00000013	addi	x0,x0,0	  x0:0x00000000
       20595000	      2058	80001480	020000ef	jal	x1,80001480	  x1=0x80001480
       20605000	      2059	00000000	00000013	addi	x0,x0,0	  x0:0x00000000
       20615000	      2060	8000149c	00000013	addi	x0,x0,0	  x0:0x00000000
       20625000	      2061	800014a0	00c00def	jal	x27,800014a0	 x27=0x800014a0
       20635000	      2062	00000000	00000013	addi	x0,x0,0	  x0:0x00000000
       20645000	      2063	800014a8	00000013	addi	x0,x0,0	  x0:0x00000000
       20655000	      2064	800014ac	0200016f	jal	x2,800014ac	  x2=0x800014ac
       20665000	      2065	00000000	00000013	addi	x0,x0,0	  x0:0x00000000
       20675000	      2066	800014c8	00000013	addi	x0,x0,0	  x0:0x00000000
       20685000	      2067	800014cc	ffdff0ef	jal	x1,800014cc	  x1=0x800014cc
       20695000	      2068	00000000	00000013	addi	x0,x0,0	  x0:0x00000000
       20705000	      2069	800014c4	00000013	addi	x0,x0,0	  x0:0x00000000
       20715000	      2070	800014c8	ffdff66f	jal	x12,800014c8	 x12=0x800014c8
       20725000	      2071	00000000	00000013	addi	x0,x0,0	  x0:0x00000000
       20735000	      2072	800014c0	00000013	addi	x0,x0,0	  x0:0x00000000
       20745000	      2073	800014c4	fe5ff16f	jal	x2,800014c4	  x2=0x800014c4
       20755000	      2074	00000000	00000013	addi	x0,x0,0	  x0:0x00000000
       20765000	      2075	800014a4	00000013	addi	x0,x0,0	  x0:0x00000000
       20775000	      2076	800014a8	0180036f	jal	x6,800014a8	  x6=0x800014a8
       20785000	      2077	00000000	00000013	addi	x0,x0,0	  x0:0x00000000
       20795000	      2078	800014bc	00000013	addi	x0,x0,0	  x0:0x00000000
       20805000	      2079	800014c0	fc5ff16f	jal	x2,800014c0	  x2=0x800014c0
       20815000	      2080	00000000	00000013	addi	x0,x0,0	  x0:0x00000000
       20825000	      2081	80001480	00000013	addi	x0,x0,0	  x0:0x00000000
       20835000	      2082	80001484	01400a6f	jal	x20,80001484	 x20=0x80001484
       20845000	      2083	00000000	00000013	addi	x0,x0,0	  x0:0x00000000
       20855000	      2084	80001494	00000013	addi	x0,x0,0	  x0:0x00000000
       20865000	      2085	80001498	fe5ff0ef	jal	x1,80001498	  x1=0x80001498
       20875000	      2086	00000000	00000013	addi	x0,x0,0	  x0:0x00000000
       20885000	      2087	80001478	00000013	addi	x0,x0,0	  x0:0x00000000
       20895000	      2088	8000147c	028000ef	jal	x1,8000147c	  x1=0x8000147c
       20905000	      2089	00000000	00000013	addi	x0,x0,0	  x0:0x00000000
       20915000	      2090	800014a0	00000013	addi	x0,x0,0	  x0:0x00000000
       20925000	      2091	800014a4	038000ef	jal	x1,800014a4	  x1=0x800014a4
       20935000	      2092	00000000	00000013	addi	x0,x0,0	  x0:0x00000000
       20945000	      2093	800014d8	00000013	addi	x0,x0,0	  x0:0x00000000
       20955000	      2094	800014dc	01c0c7b3	xor	x15,x1,x28	  x1:0x800014a4 x28:0x800012d0 x15=0x00000674
       20965000	      2095	800014e0	010007ef	jal	x15,800014e0	 x15=0x800014e0
       20975000	      2096	00000000	00000013	addi	x0,x0,0	  x0:0x00000000
       20985000	      2097	800014ec	00000013	addi	x0,x0,0	  x0:0x00000000
       20995000	      2098	800014f0	0480036f	jal	x6,800014f0	  x6=0x800014f0
       21005000	      2099	00000000	00000013	addi	x0,x0,0	  x0:0x00000000
       21015000	      2100	80001534	00000013	addi	x0,x0,0	  x0:0x00000000
       21025000	      2101	80001538	fd9ff0ef	jal	x1,80001538	  x1=0x80001538
       21035000	      2102	00000000	00000013	addi	x0,x0,0	  x0:0x00000000
       21045000	      2103	8000150c	00000013	addi	x0,x0,0	  x0:0x00000000
       21055000	      2104	80001510	fedff36f	jal	x6,80001510	  x6=0x80001510
       21065000	      2105	00000000	00000013	addi	x0,x0,0	  x0:0x00000000
       21075000	      2106	800014f8	00000013	addi	x0,x0,0	  x0:0x00000000
       21085000	      2107	800014fc	020000ef	jal	x1,800014fc	  x1=0x800014fc
       21095000	      2108	00000000	00000013	addi	x0,x0,0	  x0:0x00000000
       21105000	      2109	80001518	00000013	addi	x0,x0,0	  x0:0x00000000
       21115000	      2110	8000151c	fd9ffbef	jal	x23,8000151c	 x23=0x8000151c
       21125000	      2111	00000000	00000013	addi	x0,x0,0	  x0:0x00000000
       21135000	      2112	800014f0	00000013	addi	x0,x0,0	  x0:0x00000000
       21145000	      2113	800014f4	030000ef	jal	x1,800014f4	  x1=0x800014f4
       21155000	      2114	00000000	00000013	addi	x0,x0,0	  x0:0x00000000
       21165000	      2115	80001520	00000013	addi	x0,x0,0	  x0:0x00000000
       21175000	      2116	80001524	fddff0ef	jal	x1,80001524	  x1=0x80001524
       21185000	      2117	00000000	00000013	addi	x0,x0,0	  x0:0x00000000
       21195000	      2118	800014fc	00000013	addi	x0,x0,0	  x0:0x00000000
       21205000	      2119	80001500	040000ef	jal	x1,80001500	  x1=0x80001500
       21215000	      2120	00000000	00000013	addi	x0,x0,0	  x0:0x00000000
       21225000	      2121	8000153c	00000013	addi	x0,x0,0	  x0:0x00000000
       21235000	      2122	80001540	fb9ff0ef	jal	x1,80001540	  x1=0x80001540
       21245000	      2123	00000000	00000013	addi	x0,x0,0	  x0:0x00000000
       21255000	      2124	800014f4	00000013	addi	x0,x0,0	  x0:0x00000000
       21265000	      2125	800014f8	0200046f	jal	x8,800014f8	  x8=0x800014f8
       21275000	      2126	00000000	00000013	addi	x0,x0,0	  x0:0x00000000
       21285000	      2127	80001514	00000013	addi	x0,x0,0	  x0:0x00000000
       21295000	      2128	80001518	fedff36f	jal	x6,80001518	  x6=0x80001518
       21305000	      2129	00000000	00000013	addi	x0,x0,0	  x0:0x00000000
       21315000	      2130	80001500	00000013	addi	x0,x0,0	  x0:0x00000000
       21325000	      2131	80001504	02c007ef	jal	x15,80001504	 x15=0x80001504
       21335000	      2132	00000000	00000013	addi	x0,x0,0	  x0:0x00000000
       21345000	      2133	8000152c	00000013	addi	x0,x0,0	  x0:0x00000000
       21355000	      2134	80001530	fd9ff0ef	jal	x1,80001530	  x1=0x80001530
       21365000	      2135	00000000	00000013	addi	x0,x0,0	  x0:0x00000000
       21375000	      2136	80001504	00000013	addi	x0,x0,0	  x0:0x00000000
       21385000	      2137	80001508	018001ef	jal	x3,80001508	  x3=0x80001508
       21395000	      2138	00000000	00000013	addi	x0,x0,0	  x0:0x00000000
       21405000	      2139	8000151c	00000013	addi	x0,x0,0	  x0:0x00000000
       21415000	      2140	80001520	014000ef	jal	x1,80001520	  x1=0x80001520
       21425000	      2141	00000000	00000013	addi	x0,x0,0	  x0:0x00000000
       21435000	      2142	80001530	00000013	addi	x0,x0,0	  x0:0x00000000
       21445000	      2143	80001534	fb1ffdef	jal	x27,80001534	 x27=0x80001534
       21455000	      2144	00000000	00000013	addi	x0,x0,0	  x0:0x00000000
       21465000	      2145	800014e0	00000013	addi	x0,x0,0	  x0:0x00000000
       21475000	      2146	800014e4	008000ef	jal	x1,800014e4	  x1=0x800014e4
       21485000	      2147	00000000	00000013	addi	x0,x0,0	  x0:0x00000000
       21495000	      2148	800014e8	00000013	addi	x0,x0,0	  x0:0x00000000
       21505000	      2149	800014ec	040000ef	jal	x1,800014ec	  x1=0x800014ec
       21515000	      2150	00000000	00000013	addi	x0,x0,0	  x0:0x00000000
       21525000	      2151	80001528	00000013	addi	x0,x0,0	  x0:0x00000000
       21535000	      2152	8000152c	fe9ff36f	jal	x6,8000152c	  x6=0x8000152c
       21545000	      2153	00000000	00000013	addi	x0,x0,0	  x0:0x00000000
       21555000	      2154	80001510	00000013	addi	x0,x0,0	  x0:0x00000000
       21565000	      2155	80001514	fd5ff0ef	jal	x1,80001514	  x1=0x80001514
       21575000	      2156	00000000	00000013	addi	x0,x0,0	  x0:0x00000000
       21585000	      2157	800014e4	00000013	addi	x0,x0,0	  x0:0x00000000
       21595000	      2158	800014e8	0400036f	jal	x6,800014e8	  x6=0x800014e8
       21605000	      2159	00000000	00000013	addi	x0,x0,0	  x0:0x00000000
       21615000	      2160	80001524	00000013	addi	x0,x0,0	  x0:0x00000000
       21625000	      2161	80001528	fe5ff1ef	jal	x3,80001528	  x3=0x80001528
       21635000	      2162	00000000	00000013	addi	x0,x0,0	  x0:0x00000000
       21645000	      2163	80001508	00000013	addi	x0,x0,0	  x0:0x00000000
       21655000	      2164	8000150c	030001ef	jal	x3,8000150c	  x3=0x8000150c
       21665000	      2165	00000000	00000013	addi	x0,x0,0	  x0:0x00000000
       21675000	      2166	80001538	00000013	addi	x0,x0,0	  x0:0x00000000
       21685000	      2167	8000153c	008000ef	jal	x1,8000153c	  x1=0x8000153c
       21695000	      2168	00000000	00000013	addi	x0,x0,0	  x0:0x00000000
       21705000	      2169	80001540	00000013	addi	x0,x0,0	  x0:0x00000000
       21715000	      2170	80001544	001fd393	srli	x7,x31,0x1	 x31:0x80009f54  x7=0x40004faa
       21725000	      2171	80001548	03c007ef	jal	x15,80001548	 x15=0x80001548
       21735000	      2172	00000000	00000013	addi	x0,x0,0	  x0:0x00000000
       21745000	      2173	80001580	00000013	addi	x0,x0,0	  x0:0x00000000
       21755000	      2174	80001584	02000b6f	jal	x22,80001584	 x22=0x80001584
       21765000	      2175	00000000	00000013	addi	x0,x0,0	  x0:0x00000000
       21775000	      2176	800015a0	00000013	addi	x0,x0,0	  x0:0x00000000
       21785000	      2177	800015a4	fb5ff0ef	jal	x1,800015a4	  x1=0x800015a4
       21795000	      2178	00000000	00000013	addi	x0,x0,0	  x0:0x00000000
       21805000	      2179	80001554	00000013	addi	x0,x0,0	  x0:0x00000000
       21815000	      2180	80001558	024000ef	jal	x1,80001558	  x1=0x80001558
       21825000	      2181	00000000	00000013	addi	x0,x0,0	  x0:0x00000000
       21835000	      2182	80001578	00000013	addi	x0,x0,0	  x0:0x00000000
       21845000	      2183	8000157c	00c00c6f	jal	x24,8000157c	 x24=0x8000157c
       21855000	      2184	00000000	00000013	addi	x0,x0,0	  x0:0x00000000
       21865000	      2185	80001584	00000013	addi	x0,x0,0	  x0:0x00000000
       21875000	      2186	80001588	fd9ff36f	jal	x6,80001588	  x6=0x80001588
       21885000	      2187	00000000	00000013	addi	x0,x0,0	  x0:0x00000000
       21895000	      2188	8000155c	00000013	addi	x0,x0,0	  x0:0x00000000
       21905000	      2189	80001560	ffdffc6f	jal	x24,80001560	 x24=0x80001560
       21915000	      2190	00000000	00000013	addi	x0,x0,0	  x0:0x00000000
       21925000	      2191	80001558	00000013	addi	x0,x0,0	  x0:0x00000000
       21935000	      2192	8000155c	ff1ff36f	jal	x6,8000155c	  x6=0x8000155c
       21945000	      2193	00000000	00000013	addi	x0,x0,0	  x0:0x00000000
       21955000	      2194	80001548	00000013	addi	x0,x0,0	  x0:0x00000000
       21965000	      2195	8000154c	05c000ef	jal	x1,8000154c	  x1=0x8000154c
       21975000	      2196	00000000	00000013	addi	x0,x0,0	  x0:0x00000000
       21985000	      2197	800015a4	00000013	addi	x0,x0,0	  x0:0x00000000
       21995000	      2198	800015a8	fedff0ef	jal	x1,800015a8	  x1=0x800015a8
       22005000	      2199	00000000	00000013	addi	x0,x0,0	  x0:0x00000000
       22015000	      2200	80001590	00000013	addi	x0,x0,0	  x0:0x00000000
       22025000	      2201	80001594	fe1ff0ef	jal	x1,80001594	  x1=0x80001594
       22035000	      2202	00000000	00000013	addi	x0,x0,0	  x0:0x00000000
       22045000	      2203	80001570	00000013	addi	x0,x0,0	  x0:0x00000000
       22055000	      2204	80001574	00c000ef	jal	x1,80001574	  x1=0x80001574
       22065000	      2205	00000000	00000013	addi	x0,x0,0	  x0:0x00000000
       22075000	      2206	8000157c	00000013	addi	x0,x0,0	  x0:0x00000000
       22085000	      2207	80001580	fe9ff0ef	jal	x1,80001580	  x1=0x80001580
       22095000	      2208	00000000	00000013	addi	x0,x0,0	  x0:0x00000000
       22105000	      2209	80001564	00000013	addi	x0,x0,0	  x0:0x00000000
       22115000	      2210	80001568	ffdffbef	jal	x23,80001568	 x23=0x80001568
       22125000	      2211	00000000	00000013	addi	x0,x0,0	  x0:0x00000000
       22135000	      2212	80001560	00000013	addi	x0,x0,0	  x0:0x00000000
       22145000	      2213	80001564	03c000ef	jal	x1,80001564	  x1=0x80001564
       22155000	      2214	00000000	00000013	addi	x0,x0,0	  x0:0x00000000
       22165000	      2215	8000159c	00000013	addi	x0,x0,0	  x0:0x00000000
       22175000	      2216	800015a0	fd1ff0ef	jal	x1,800015a0	  x1=0x800015a0
       22185000	      2217	00000000	00000013	addi	x0,x0,0	  x0:0x00000000
       22195000	      2218	8000156c	00000013	addi	x0,x0,0	  x0:0x00000000
       22205000	      2219	80001570	fe1ff36f	jal	x6,80001570	  x6=0x80001570
       22215000	      2220	00000000	00000013	addi	x0,x0,0	  x0:0x00000000
       22225000	      2221	8000154c	00000013	addi	x0,x0,0	  x0:0x00000000
       22235000	      2222	80001550	03c000ef	jal	x1,80001550	  x1=0x80001550
       22245000	      2223	00000000	00000013	addi	x0,x0,0	  x0:0x00000000
       22255000	      2224	80001588	00000013	addi	x0,x0,0	  x0:0x00000000
       22265000	      2225	8000158c	fedff0ef	jal	x1,8000158c	  x1=0x8000158c
       22275000	      2226	00000000	00000013	addi	x0,x0,0	  x0:0x00000000
       22285000	      2227	80001574	00000013	addi	x0,x0,0	  x0:0x00000000
       22295000	      2228	80001578	fddffbef	jal	x23,80001578	 x23=0x80001578
       22305000	      2229	00000000	00000013	addi	x0,x0,0	  x0:0x00000000
       22315000	      2230	80001550	00000013	addi	x0,x0,0	  x0:0x00000000
       22325000	      2231	80001554	048000ef	jal	x1,80001554	  x1=0x80001554
       22335000	      2232	00000000	00000013	addi	x0,x0,0	  x0:0x00000000
       22345000	      2233	80001598	00000013	addi	x0,x0,0	  x0:0x00000000
       22355000	      2234	8000159c	ffdff0ef	jal	x1,8000159c	  x1=0x8000159c
       22365000	      2235	00000000	00000013	addi	x0,x0,0	  x0:0x00000000
       22375000	      2236	80001594	00000013	addi	x0,x0,0	  x0:0x00000000
       22385000	      2237	80001598	ff9ff16f	jal	x2,80001598	  x2=0x80001598
       22395000	      2238	00000000	00000013	addi	x0,x0,0	  x0:0x00000000
       22405000	      2239	8000158c	00000013	addi	x0,x0,0	  x0:0x00000000
       22415000	      2240	80001590	fddff2ef	jal	x5,80001590	  x5=0x80001590
       22425000	      2241	00000000	00000013	addi	x0,x0,0	  x0:0x00000000
       22435000	      2242	80001568	00000013	addi	x0,x0,0	  x0:0x00000000
       22445000	      2243	8000156c	04000eef	jal	x29,8000156c	 x29=0x8000156c
       22455000	      2244	00000000	00000013	addi	x0,x0,0	  x0:0x00000000
       22465000	      2245	800015a8	00000013	addi	x0,x0,0	  x0:0x00000000
       22475000	      2246	800015ac	0067b6b3	sltu	x13,x15,x6	 x15:0x80001548  x6:0x80001570 x13=0x00000001
       22485000	      2247	800015b0	00c007ef	jal	x15,800015b0	 x15=0x800015b0
       22495000	      2248	00000000	00000013	addi	x0,x0,0	  x0:0x00000000
       22505000	      2249	800015b8	00000013	addi	x0,x0,0	  x0:0x00000000
       22515000	      2250	800015bc	ffdff0ef	jal	x1,800015bc	  x1=0x800015bc
       22525000	      2251	00000000	00000013	addi	x0,x0,0	  x0:0x00000000
       22535000	      2252	800015b4	00000013	addi	x0,x0,0	  x0:0x00000000
       22545000	      2253	800015b8	028000ef	jal	x1,800015b8	  x1=0x800015b8
       22555000	      2254	00000000	00000013	addi	x0,x0,0	  x0:0x00000000
       22565000	      2255	800015dc	00000013	addi	x0,x0,0	  x0:0x00000000
       22575000	      2256	800015e0	fedff1ef	jal	x3,800015e0	  x3=0x800015e0
       22585000	      2257	00000000	00000013	addi	x0,x0,0	  x0:0x00000000
       22595000	      2258	800015c8	00000013	addi	x0,x0,0	  x0:0x00000000
       22605000	      2259	800015cc	0240036f	jal	x6,800015cc	  x6=0x800015cc
       22615000	      2260	00000000	00000013	addi	x0,x0,0	  x0:0x00000000
       22625000	      2261	800015ec	00000013	addi	x0,x0,0	  x0:0x00000000
       22635000	      2262	800015f0	fe5ff0ef	jal	x1,800015f0	  x1=0x800015f0
       22645000	      2263	00000000	00000013	addi	x0,x0,0	  x0:0x00000000
       22655000	      2264	800015d0	00000013	addi	x0,x0,0	  x0:0x00000000
       22665000	      2265	800015d4	ffdffeef	jal	x29,800015d4	 x29=0x800015d4
       22675000	      2266	00000000	00000013	addi	x0,x0,0	  x0:0x00000000
       22685000	      2267	800015cc	00000013	addi	x0,x0,0	  x0:0x00000000
       22695000	      2268	800015d0	ff5ff0ef	jal	x1,800015d0	  x1=0x800015d0
       22705000	      2269	00000000	00000013	addi	x0,x0,0	  x0:0x00000000
       22715000	      2270	800015c0	00000013	addi	x0,x0,0	  x0:0x00000000
       22725000	      2271	800015c4	0240036f	jal	x6,800015c4	  x6=0x800015c4
       22735000	      2272	00000000	00000013	addi	x0,x0,0	  x0:0x00000000
       22745000	      2273	800015e4	00000013	addi	x0,x0,0	  x0:0x00000000
       22755000	      2274	800015e8	fd9ff0ef	jal	x1,800015e8	  x1=0x800015e8
       22765000	      2275	00000000	00000013	addi	x0,x0,0	  x0:0x00000000
       22775000	      2276	800015bc	00000013	addi	x0,x0,0	  x0:0x00000000
       22785000	      2277	800015c0	ff5ff0ef	jal	x1,800015c0	  x1=0x800015c0
       22795000	      2278	00000000	00000013	addi	x0,x0,0	  x0:0x00000000
       22805000	      2279	800015b0	00000013	addi	x0,x0,0	  x0:0x00000000
       22815000	      2280	800015b4	0140036f	jal	x6,800015b4	  x6=0x800015b4
       22825000	      2281	00000000	00000013	addi	x0,x0,0	  x0:0x00000000
       22835000	      2282	800015c4	00000013	addi	x0,x0,0	  x0:0x00000000
       22845000	      2283	800015c8	0240076f	jal	x14,800015c8	 x14=0x800015c8
       22855000	      2284	00000000	00000013	addi	x0,x0,0	  x0:0x00000000
       22865000	      2285	800015e8	00000013	addi	x0,x0,0	  x0:0x00000000
       22875000	      2286	800015ec	ff1ff0ef	jal	x1,800015ec	  x1=0x800015ec
       22885000	      2287	00000000	00000013	addi	x0,x0,0	  x0:0x00000000
       22895000	      2288	800015d8	00000013	addi	x0,x0,0	  x0:0x00000000
       22905000	      2289	800015dc	008000ef	jal	x1,800015dc	  x1=0x800015dc
       22915000	      2290	00000000	00000013	addi	x0,x0,0	  x0:0x00000000
       22925000	      2291	800015e0	00000013	addi	x0,x0,0	  x0:0x00000000
       22935000	      2292	800015e4	ff5ff36f	jal	x6,800015e4	  x6=0x800015e4
       22945000	      2293	00000000	00000013	addi	x0,x0,0	  x0:0x00000000
       22955000	      2294	800015d4	00000013	addi	x0,x0,0	  x0:0x00000000
       22965000	      2295	800015d8	01c000ef	jal	x1,800015d8	  x1=0x800015d8
       22975000	      2296	00000000	00000013	addi	x0,x0,0	  x0:0x00000000
       22985000	      2297	800015f0	00000013	addi	x0,x0,0	  x0:0x00000000
       22995000	      2298	800015f4	00c7ff33	and	x30,x15,x12	 x15:0x800015b0 x12:0x800014c8 x30=0x80001480
       23005000	      2299	800015f8	054007ef	jal	x15,800015f8	 x15=0x800015f8
       23015000	      2300	00000000	00000013	addi	x0,x0,0	  x0:0x00000000
       23025000	      2301	80001648	00000013	addi	x0,x0,0	  x0:0x00000000
       23035000	      2302	8000164c	ff1ff56f	jal	x10,8000164c	 x10=0x8000164c
       23045000	      2303	00000000	00000013	addi	x0,x0,0	  x0:0x00000000
       23055000	      2304	80001638	00000013	addi	x0,x0,0	  x0:0x00000000
       23065000	      2305	8000163c	ffdff0ef	jal	x1,8000163c	  x1=0x8000163c
       23075000	      2306	00000000	00000013	addi	x0,x0,0	  x0:0x00000000
       23085000	      2307	80001634	00000013	addi	x0,x0,0	  x0:0x00000000
       23095000	      2308	80001638	008000ef	jal	x1,80001638	  x1=0x80001638
       23105000	      2309	00000000	00000013	addi	x0,x0,0	  x0:0x00000000
       23115000	      2310	8000163c	00000013	addi	x0,x0,0	  x0:0x00000000
       23125000	      2311	80001640	ff1ff36f	jal	x6,80001640	  x6=0x80001640
       23135000	      2312	00000000	00000013	addi	x0,x0,0	  x0:0x00000000
       23145000	      2313	8000162c	00000013	addi	x0,x0,0	  x0:0x00000000
       23155000	      2314	80001630	fcdff0ef	jal	x1,80001630	  x1=0x80001630
       23165000	      2315	00000000	00000013	addi	x0,x0,0	  x0:0x00000000
       23175000	      2316	800015f8	00000013	addi	x0,x0,0	  x0:0x00000000
       23185000	      2317	800015fc	018002ef	jal	x5,800015fc	  x5=0x800015fc
       23195000	      2318	00000000	00000013	addi	x0,x0,0	  x0:0x00000000
       23205000	      2319	80001610	00000013	addi	x0,x0,0	  x0:0x00000000
       23215000	      2320	80001614	ffdff36f	jal	x6,80001614	  x6=0x80001614
       23225000	      2321	00000000	00000013	addi	x0,x0,0	  x0:0x00000000
       23235000	      2322	8000160c	00000013	addi	x0,x0,0	  x0:0x00000000
       23245000	      2323	80001610	0180036f	jal	x6,80001610	  x6=0x80001610
       23255000	      2324	00000000	00000013	addi	x0,x0,0	  x0:0x00000000
       23265000	      2325	80001624	00000013	addi	x0,x0,0	  x0:0x00000000
       23275000	      2326	80001628	fe1ff2ef	jal	x5,80001628	  x5=0x80001628
       23285000	      2327	00000000	00000013	addi	x0,x0,0	  x0:0x00000000
       23295000	      2328	80001604	00000013	addi	x0,x0,0	  x0:0x00000000
       23305000	      2329	80001608	ff9ffeef	jal	x29,80001608	 x29=0x80001608
       23315000	      2330	00000000	00000013	addi	x0,x0,0	  x0:0x00000000
       23325000	      2331	800015fc	00000013	addi	x0,x0,0	  x0:0x00000000
       23335000	      2332	80001600	01c000ef	jal	x1,80001600	  x1=0x80001600
       23345000	      2333	00000000	00000013	addi	x0,x0,0	  x0:0x00000000
       23355000	      2334	80001618	00000013	addi	x0,x0,0	  x0:0x00000000
       23365000	      2335	8000161c	ffdff0ef	jal	x1,8000161c	  x1=0x8000161c
       23375000	      2336	00000000	00000013	addi	x0,x0,0	  x0:0x00000000
       23385000	      2337	80001614	00000013	addi	x0,x0,0	  x0:0x00000000
       23395000	      2338	80001618	ff5ff0ef	jal	x1,80001618	  x1=0x80001618
       23405000	      2339	00000000	00000013	addi	x0,x0,0	  x0:0x00000000
       23415000	      2340	80001608	00000013	addi	x0,x0,0	  x0:0x00000000
       23425000	      2341	8000160c	0180046f	jal	x8,8000160c	  x8=0x8000160c
       23435000	      2342	00000000	00000013	addi	x0,x0,0	  x0:0x00000000
       23445000	      2343	80001620	00000013	addi	x0,x0,0	  x0:0x00000000
       23455000	      2344	80001624	010000ef	jal	x1,80001624	  x1=0x80001624
       23465000	      2345	00000000	00000013	addi	x0,x0,0	  x0:0x00000000
       23475000	      2346	80001630	00000013	addi	x0,x0,0	  x0:0x00000000
       23485000	      2347	80001634	01c00a6f	jal	x20,80001634	 x20=0x80001634
       23495000	      2348	00000000	00000013	addi	x0,x0,0	  x0:0x00000000
       23505000	      2349	8000164c	00000013	addi	x0,x0,0	  x0:0x00000000
       23515000	      2350	80001650	fb5ff36f	jal	x6,80001650	  x6=0x80001650
       23525000	      2351	00000000	00000013	addi	x0,x0,0	  x0:0x00000000
       23535000	      2352	80001600	00000013	addi	x0,x0,0	  x0:0x00000000
       23545000	      2353	80001604	01c0036f	jal	x6,80001604	  x6=0x80001604
       23555000	      2354	00000000	00000013	addi	x0,x0,0	  x0:0x00000000
       23565000	      2355	8000161c	00000013	addi	x0,x0,0	  x0:0x00000000
       23575000	      2356	80001620	028000ef	jal	x1,80001620	  x1=0x80001620
       23585000	      2357	00000000	00000013	addi	x0,x0,0	  x0:0x00000000
       23595000	      2358	80001644	00000013	addi	x0,x0,0	  x0:0x00000000
       23605000	      2359	80001648	ffdff3ef	jal	x7,80001648	  x7=0x80001648
       23615000	      2360	00000000	00000013	addi	x0,x0,0	  x0:0x00000000
       23625000	      2361	80001640	00000013	addi	x0,x0,0	  x0:0x00000000
       23635000	      2362	80001644	fe9ff0ef	jal	x1,80001644	  x1=0x80001644
       23645000	      2363	00000000	00000013	addi	x0,x0,0	  x0:0x00000000
       23655000	      2364	80001628	00000013	addi	x0,x0,0	  x0:0x00000000
       23665000	      2365	8000162c	028000ef	jal	x1,8000162c	  x1=0x8000162c
       23675000	      2366	00000000	00000013	addi	x0,x0,0	  x0:0x00000000
       23685000	      2367	80001650	00000013	addi	x0,x0,0	  x0:0x00000000
       23695000	      2368	80001654	0040096f	jal	x18,80001654	 x18=0x80001654
       23705000	      2369	00000000	00000013	addi	x0,x0,0	  x0:0x00000000
       23715000	      2370	80001654	00000013	addi	x0,x0,0	  x0:0x00000000
       23725000	      2371	80001658	0040066f	jal	x12,80001658	 x12=0x80001658
       23735000	      2372	00000000	00000013	addi	x0,x0,0	  x0:0x00000000
       23745000	      2373	80001658	00000013	addi	x0,x0,0	  x0:0x00000000
       23755000	      2374	8000165c	0b1d5c17	auipc	x24,0xb1d5	 x24=0x8b1d6658
       23765000	      2375	80001660	05c007ef	jal	x15,80001660	 x15=0x80001660
       23775000	      2376	00000000	00000013	addi	x0,x0,0	  x0:0x00000000
       23785000	      2377	800016b8	00000013	addi	x0,x0,0	  x0:0x00000000
       23795000	      2378	800016bc	fddff36f	jal	x6,800016bc	  x6=0x800016bc
       23805000	      2379	00000000	00000013	addi	x0,x0,0	  x0:0x00000000
       23815000	      2380	80001694	00000013	addi	x0,x0,0	  x0:0x00000000
       23825000	      2381	80001698	008000ef	jal	x1,80001698	  x1=0x80001698
       23835000	      2382	00000000	00000013	addi	x0,x0,0	  x0:0x00000000
       23845000	      2383	8000169c	00000013	addi	x0,x0,0	  x0:0x00000000
       23855000	      2384	800016a0	fd1ff36f	jal	x6,800016a0	  x6=0x800016a0
       23865000	      2385	00000000	00000013	addi	x0,x0,0	  x0:0x00000000
       23875000	      2386	8000166c	00000013	addi	x0,x0,0	  x0:0x00000000
       23885000	      2387	80001670	014003ef	jal	x7,80001670	  x7=0x80001670
       23895000	      2388	00000000	00000013	addi	x0,x0,0	  x0:0x00000000
       23905000	      2389	80001680	00000013	addi	x0,x0,0	  x0:0x00000000
       23915000	      2390	80001684	fe9ff36f	jal	x6,80001684	  x6=0x80001684
       23925000	      2391	00000000	00000013	addi	x0,x0,0	  x0:0x00000000
       23935000	      2392	80001668	00000013	addi	x0,x0,0	  x0:0x00000000
       23945000	      2393	8000166c	0400086f	jal	x16,8000166c	 x16=0x8000166c
       23955000	      2394	00000000	00000013	addi	x0,x0,0	  x0:0x00000000
       23965000	      2395	800016a8	00000013	addi	x0,x0,0	  x0:0x00000000
       23975000	      2396	800016ac	ffdff0ef	jal	x1,800016ac	  x1=0x800016ac
       23985000	      2397	00000000	00000013	addi	x0,x0,0	  x0:0x00000000
       23995000	      2398	800016a4	00000013	addi	x0,x0,0	  x0:0x00000000
       24005000	      2399	800016a8	00c000ef	jal	x1,800016a8	  x1=0x800016a8
       24015000	      2400	00000000	00000013	addi	x0,x0,0	  x0:0x00000000
       24025000	      2401	800016b0	00000013	addi	x0,x0,0	  x0:0x00000000
       24035000	      2402	800016b4	fd9ff36f	jal	x6,800016b4	  x6=0x800016b4
       24045000	      2403	00000000	00000013	addi	x0,x0,0	  x0:0x00000000
       24055000	      2404	80001688	00000013	addi	x0,x0,0	  x0:0x00000000
       24065000	      2405	8000168c	fd9ffe6f	jal	x28,8000168c	 x28=0x8000168c
       24075000	      2406	00000000	00000013	addi	x0,x0,0	  x0:0x00000000
       24085000	      2407	80001660	00000013	addi	x0,x0,0	  x0:0x00000000
       24095000	      2408	80001664	01c0036f	jal	x6,80001664	  x6=0x80001664
       24105000	      2409	00000000	00000013	addi	x0,x0,0	  x0:0x00000000
       24115000	      2410	8000167c	00000013	addi	x0,x0,0	  x0:0x00000000
       24125000	      2411	80001680	01400f6f	jal	x30,80001680	 x30=0x80001680
       24135000	      2412	00000000	00000013	addi	x0,x0,0	  x0:0x00000000
       24145000	      2413	80001690	00000013	addi	x0,x0,0	  x0:0x00000000
       24155000	      2414	80001694	fe9ff36f	jal	x6,80001694	  x6=0x80001694
       24165000	      2415	00000000	00000013	addi	x0,x0,0	  x0:0x00000000
       24175000	      2416	80001678	00000013	addi	x0,x0,0	  x0:0x00000000
       24185000	      2417	8000167c	ff9ff0ef	jal	x1,8000167c	  x1=0x8000167c
       24195000	      2418	00000000	00000013	addi	x0,x0,0	  x0:0x00000000
       24205000	      2419	80001670	00000013	addi	x0,x0,0	  x0:0x00000000
       24215000	      2420	80001674	03000c6f	jal	x24,80001674	 x24=0x80001674
       24225000	      2421	00000000	00000013	addi	x0,x0,0	  x0:0x00000000
       24235000	      2422	800016a0	00000013	addi	x0,x0,0	  x0:0x00000000
       24245000	      2423	800016a4	ff9ff0ef	jal	x1,800016a4	  x1=0x800016a4
       24255000	      2424	00000000	00000013	addi	x0,x0,0	  x0:0x00000000
       24265000	      2425	80001698	00000013	addi	x0,x0,0	  x0:0x00000000
       24275000	      2426	8000169c	01c001ef	jal	x3,8000169c	  x3=0x8000169c
       24285000	      2427	00000000	00000013	addi	x0,x0,0	  x0:0x00000000
       24295000	      2428	800016b4	00000013	addi	x0,x0,0	  x0:0x00000000
       24305000	      2429	800016b8	ff9ff0ef	jal	x1,800016b8	  x1=0x800016b8
       24315000	      2430	00000000	00000013	addi	x0,x0,0	  x0:0x00000000
       24325000	      2431	800016ac	00000013	addi	x0,x0,0	  x0:0x00000000
       24335000	      2432	800016b0	fd9ff6ef	jal	x13,800016b0	 x13=0x800016b0
       24345000	      2433	00000000	00000013	addi	x0,x0,0	  x0:0x00000000
       24355000	      2434	80001684	00000013	addi	x0,x0,0	  x0:0x00000000
       24365000	      2435	80001688	0080036f	jal	x6,80001688	  x6=0x80001688
       24375000	      2436	00000000	00000013	addi	x0,x0,0	  x0:0x00000000
       24385000	      2437	8000168c	00000013	addi	x0,x0,0	  x0:0x00000000
       24395000	      2438	80001690	0300036f	jal	x6,80001690	  x6=0x80001690
       24405000	      2439	00000000	00000013	addi	x0,x0,0	  x0:0x00000000
       24415000	      2440	800016bc	00000013	addi	x0,x0,0	  x0:0x00000000
       24425000	      2441	800016c0	fb9ff0ef	jal	x1,800016c0	  x1=0x800016c0
       24435000	      2442	00000000	00000013	addi	x0,x0,0	  x0:0x00000000
       24445000	      2443	80001674	00000013	addi	x0,x0,0	  x0:0x00000000
       24455000	      2444	80001678	ff1ff16f	jal	x2,80001678	  x2=0x80001678
       24465000	      2445	00000000	00000013	addi	x0,x0,0	  x0:0x00000000
       24475000	      2446	80001664	00000013	addi	x0,x0,0	  x0:0x00000000
       24485000	      2447	80001668	05c000ef	jal	x1,80001668	  x1=0x80001668
       24495000	      2448	00000000	00000013	addi	x0,x0,0	  x0:0x00000000
       24505000	      2449	800016c0	00000013	addi	x0,x0,0	  x0:0x00000000
       24515000	      2450	800016c4	004000ef	jal	x1,800016c4	  x1=0x800016c4
       24525000	      2451	00000000	00000013	addi	x0,x0,0	  x0:0x00000000
       24535000	      2452	800016c4	00000013	addi	x0,x0,0	  x0:0x00000000
       24545000	      2453	800016c8	41c5dd13	srai	x26,x11,0x1c	 x11:0x80001340 x26=0xfffffff8
       24555000	      2454	800016cc	028007ef	jal	x15,800016cc	 x15=0x800016cc
       24565000	      2455	00000000	00000013	addi	x0,x0,0	  x0:0x00000000
       24575000	      2456	800016f0	00000013	addi	x0,x0,0	  x0:0x00000000
       24585000	      2457	800016f4	fddffaef	jal	x21,800016f4	 x21=0x800016f4
       24595000	      2458	00000000	00000013	addi	x0,x0,0	  x0:0x00000000
       24605000	      2459	800016cc	00000013	addi	x0,x0,0	  x0:0x00000000
       24615000	      2460	800016d0	0040036f	jal	x6,800016d0	  x6=0x800016d0
       24625000	      2461	00000000	00000013	addi	x0,x0,0	  x0:0x00000000
       24635000	      2462	800016d0	00000013	addi	x0,x0,0	  x0:0x00000000
       24645000	      2463	800016d4	008000ef	jal	x1,800016d4	  x1=0x800016d4
       24655000	      2464	00000000	00000013	addi	x0,x0,0	  x0:0x00000000
       24665000	      2465	800016d8	00000013	addi	x0,x0,0	  x0:0x00000000
       24675000	      2466	800016dc	010000ef	jal	x1,800016dc	  x1=0x800016dc
       24685000	      2467	00000000	00000013	addi	x0,x0,0	  x0:0x00000000
       24695000	      2468	800016e8	00000013	addi	x0,x0,0	  x0:0x00000000
       24705000	      2469	800016ec	ffdff0ef	jal	x1,800016ec	  x1=0x800016ec
       24715000	      2470	00000000	00000013	addi	x0,x0,0	  x0:0x00000000
       24725000	      2471	800016e4	00000013	addi	x0,x0,0	  x0:0x00000000
       24735000	      2472	800016e8	0100036f	jal	x6,800016e8	  x6=0x800016e8
       24745000	      2473	00000000	00000013	addi	x0,x0,0	  x0:0x00000000
       24755000	      2474	800016f4	00000013	addi	x0,x0,0	  x0:0x00000000
       24765000	      2475	800016f8	fe1ff0ef	jal	x1,800016f8	  x1=0x800016f8
       24775000	      2476	00000000	00000013	addi	x0,x0,0	  x0:0x00000000
       24785000	      2477	800016d4	00000013	addi	x0,x0,0	  x0:0x00000000
       24795000	      2478	800016d8	018000ef	jal	x1,800016d8	  x1=0x800016d8
       24805000	      2479	00000000	00000013	addi	x0,x0,0	  x0:0x00000000
       24815000	      2480	800016ec	00000013	addi	x0,x0,0	  x0:0x00000000
       24825000	      2481	800016f0	ff1ff0ef	jal	x1,800016f0	  x1=0x800016f0
       24835000	      2482	00000000	00000013	addi	x0,x0,0	  x0:0x00000000
       24845000	      2483	800016dc	00000013	addi	x0,x0,0	  x0:0x00000000
       24855000	      2484	800016e0	00400e6f	jal	x28,800016e0	 x28=0x800016e0
       24865000	      2485	00000000	00000013	addi	x0,x0,0	  x0:0x00000000
       24875000	      2486	800016e0	00000013	addi	x0,x0,0	  x0:0x00000000
       24885000	      2487	800016e4	0180036f	jal	x6,800016e4	  x6=0x800016e4
       24895000	      2488	00000000	00000013	addi	x0,x0,0	  x0:0x00000000
       24905000	      2489	800016f8	00000013	addi	x0,x0,0	  x0:0x00000000
       24915000	      2490	800016fc	010a2b33	slt	x22,x20,x16	 x20:0x80001634 x16:0x8000166c x22=0x00000001
       24925000	      2491	80001700	01c007ef	jal	x15,80001700	 x15=0x80001700
       24935000	      2492	00000000	00000013	addi	x0,x0,0	  x0:0x00000000
       24945000	      2493	80001718	00000013	addi	x0,x0,0	  x0:0x00000000
       24955000	      2494	8000171c	0100036f	jal	x6,8000171c	  x6=0x8000171c
       24965000	      2495	00000000	00000013	addi	x0,x0,0	  x0:0x00000000
       24975000	      2496	80001728	00000013	addi	x0,x0,0	  x0:0x00000000
       24985000	      2497	8000172c	fe9ff0ef	jal	x1,8000172c	  x1=0x8000172c
       24995000	      2498	00000000	00000013	addi	x0,x0,0	  x0:0x00000000
       25005000	      2499	80001710	00000013	addi	x0,x0,0	  x0:0x00000000
       25015000	      2500	80001714	00c002ef	jal	x5,80001714	  x5=0x80001714
       25025000	      2501	00000000	00000013	addi	x0,x0,0	  x0:0x00000000
       25035000	      2502	8000171c	00000013	addi	x0,x0,0	  x0:0x00000000
       25045000	      2503	80001720	004000ef	jal	x1,80001720	  x1=0x80001720
       25055000	      2504	00000000	00000013	addi	x0,x0,0	  x0:0x00000000
       25065000	      2505	80001720	00000013	addi	x0,x0,0	  x0:0x00000000
       25075000	      2506	80001724	00c0036f	jal	x6,80001724	  x6=0x80001724
       25085000	      2507	00000000	00000013	addi	x0,x0,0	  x0:0x00000000
       25095000	      2508	8000172c	00000013	addi	x0,x0,0	  x0:0x00000000
       25105000	      2509	80001730	fe1ffaef	jal	x21,80001730	 x21=0x80001730
       25115000	      2510	00000000	00000013	addi	x0,x0,0	  x0:0x00000000
       25125000	      2511	8000170c	00000013	addi	x0,x0,0	  x0:0x00000000
       25135000	      2512	80001710	ff5ff36f	jal	x6,80001710	  x6=0x80001710
       25145000	      2513	00000000	00000013	addi	x0,x0,0	  x0:0x00000000
       25155000	      2514	80001700	00000013	addi	x0,x0,0	  x0:0x00000000
       25165000	      2515	80001704	02400b6f	jal	x22,80001704	 x22=0x80001704
       25175000	      2516	00000000	00000013	addi	x0,x0,0	  x0:0x00000000
       25185000	      2517	80001724	00000013	addi	x0,x0,0	  x0:0x00000000
       25195000	      2518	80001728	fe5ff2ef	jal	x5,80001728	  x5=0x80001728
       25205000	      2519	00000000	00000013	addi	x0,x0,0	  x0:0x00000000
       25215000	      2520	80001708	00000013	addi	x0,x0,0	  x0:0x00000000
       25225000	      2521	8000170c	00c0076f	jal	x14,8000170c	 x14=0x8000170c
       25235000	      2522	00000000	00000013	addi	x0,x0,0	  x0:0x00000000
       25245000	      2523	80001714	00000013	addi	x0,x0,0	  x0:0x00000000
       25255000	      2524	80001718	ff1ff0ef	jal	x1,80001718	  x1=0x80001718
       25265000	      2525	00000000	00000013	addi	x0,x0,0	  x0:0x00000000
       25275000	      2526	80001704	00000013	addi	x0,x0,0	  x0:0x00000000
       25285000	      2527	80001708	02c000ef	jal	x1,80001708	  x1=0x80001708
       25295000	      2528	00000000	00000013	addi	x0,x0,0	  x0:0x00000000
       25305000	      2529	80001730	00000013	addi	x0,x0,0	  x0:0x00000000
       25315000	      2530	80001734	8a1bfc13	andi	x24,x23,-1887	 x23:0x80001578 x24=0x80001020
       25325000	      2531	80001738	054007ef	jal	x15,80001738	 x15=0x80001738
       25335000	      2532	00000000	00000013	addi	x0,x0,0	  x0:0x00000000
       25345000	      2533	80001788	00000013	addi	x0,x0,0	  x0:0x00000000
       25355000	      2534	8000178c	ff5ff0ef	jal	x1,8000178c	  x1=0x8000178c
       25365000	      2535	00000000	00000013	addi	x0,x0,0	  x0:0x00000000
       25375000	      2536	8000177c	00000013	addi	x0,x0,0	  x0:0x00000000
       25385000	      2537	80001780	fbdff1ef	jal	x3,80001780	  x3=0x80001780
       25395000	      2538	00000000	00000013	addi	x0,x0,0	  x0:0x00000000
       25405000	      2539	80001738	00000013	addi	x0,x0,0	  x0:0x00000000
       25415000	      2540	8000173c	074000ef	jal	x1,8000173c	  x1=0x8000173c
       25425000	      2541	00000000	00000013	addi	x0,x0,0	  x0:0x00000000
       25435000	      2542	800017ac	00000013	addi	x0,x0,0	  x0:0x00000000
       25445000	      2543	800017b0	ff1ff0ef	jal	x1,800017b0	  x1=0x800017b0
       25455000	      2544	00000000	00000013	addi	x0,x0,0	  x0:0x00000000
       25465000	      2545	8000179c	00000013	addi	x0,x0,0	  x0:0x00000000
       25475000	      2546	800017a0	ff1ff0ef	jal	x1,800017a0	  x1=0x800017a0
       25485000	      2547	00000000	00000013	addi	x0,x0,0	  x0:0x00000000
       25495000	      2548	8000178c	00000013	addi	x0,x0,0	  x0:0x00000000
       25505000	      2549	80001790	fc9ff0ef	jal	x1,80001790	  x1=0x80001790
       25515000	      2550	00000000	00000013	addi	x0,x0,0	  x0:0x00000000
       25525000	      2551	80001754	00000013	addi	x0,x0,0	  x0:0x00000000
       25535000	      2552	80001758	ff9ff4ef	jal	x9,80001758	  x9=0x80001758
       25545000	      2553	00000000	00000013	addi	x0,x0,0	  x0:0x00000000
       25555000	      2554	8000174c	00000013	addi	x0,x0,0	  x0:0x00000000
       25565000	      2555	80001750	04800eef	jal	x29,80001750	 x29=0x80001750
       25575000	      2556	00000000	00000013	addi	x0,x0,0	  x0:0x00000000
       25585000	      2557	80001794	00000013	addi	x0,x0,0	  x0:0x00000000
       25595000	      2558	80001798	fe5ff0ef	jal	x1,80001798	  x1=0x80001798
       25605000	      2559	00000000	00000013	addi	x0,x0,0	  x0:0x00000000
       25615000	      2560	80001778	00000013	addi	x0,x0,0	  x0:0x00000000
       25625000	      2561	8000177c	008003ef	jal	x7,8000177c	  x7=0x8000177c
       25635000	      2562	00000000	00000013	addi	x0,x0,0	  x0:0x00000000
       25645000	      2563	80001780	00000013	addi	x0,x0,0	  x0:0x00000000
       25655000	      2564	80001784	fe9ff0ef	jal	x1,80001784	  x1=0x80001784
       25665000	      2565	00000000	00000013	addi	x0,x0,0	  x0:0x00000000
       25675000	      2566	80001768	00000013	addi	x0,x0,0	  x0:0x00000000
       25685000	      2567	8000176c	ffdff6ef	jal	x13,8000176c	 x13=0x8000176c
       25695000	      2568	00000000	00000013	addi	x0,x0,0	  x0:0x00000000
       25705000	      2569	80001764	00000013	addi	x0,x0,0	  x0:0x00000000
       25715000	      2570	80001768	fedff0ef	jal	x1,80001768	  x1=0x80001768
       25725000	      2571	00000000	00000013	addi	x0,x0,0	  x0:0x00000000
       25735000	      2572	80001750	00000013	addi	x0,x0,0	  x0:0x00000000
       25745000	      2573	80001754	024000ef	jal	x1,80001754	  x1=0x80001754
       25755000	      2574	00000000	00000013	addi	x0,x0,0	  x0:0x00000000
       25765000	      2575	80001774	00000013	addi	x0,x0,0	  x0:0x00000000
       25775000	      2576	80001778	02c00cef	jal	x25,80001778	 x25=0x80001778
       25785000	      2577	00000000	00000013	addi	x0,x0,0	  x0:0x00000000
       25795000	      2578	800017a0	00000013	addi	x0,x0,0	  x0:0x00000000
       25805000	      2579	800017a4	fbdff0ef	jal	x1,800017a4	  x1=0x800017a4
       25815000	      2580	00000000	00000013	addi	x0,x0,0	  x0:0x00000000
       25825000	      2581	8000175c	00000013	addi	x0,x0,0	  x0:0x00000000
       25835000	      2582	80001760	ffdff0ef	jal	x1,80001760	  x1=0x80001760
       25845000	      2583	00000000	00000013	addi	x0,x0,0	  x0:0x00000000
       25855000	      2584	80001758	00000013	addi	x0,x0,0	  x0:0x00000000
       25865000	      2585	8000175c	04000eef	jal	x29,8000175c	 x29=0x8000175c
       25875000	      2586	00000000	00000013	addi	x0,x0,0	  x0:0x00000000
       25885000	      2587	80001798	00000013	addi	x0,x0,0	  x0:0x00000000
       25895000	      2588	8000179c	fd5ffc6f	jal	x24,8000179c	 x24=0x8000179c
       25905000	      2589	00000000	00000013	addi	x0,x0,0	  x0:0x00000000
       25915000	      2590	8000176c	00000013	addi	x0,x0,0	  x0:0x00000000
       25925000	      2591	80001770	fd1ff0ef	jal	x1,80001770	  x1=0x80001770
       25935000	      2592	00000000	00000013	addi	x0,x0,0	  x0:0x00000000
       25945000	      2593	8000173c	00000013	addi	x0,x0,0	  x0:0x00000000
       25955000	      2594	80001740	00c000ef	jal	x1,80001740	  x1=0x80001740
       25965000	      2595	00000000	00000013	addi	x0,x0,0	  x0:0x00000000
       25975000	      2596	80001748	00000013	addi	x0,x0,0	  x0:0x00000000
       25985000	      2597	8000174c	048000ef	jal	x1,8000174c	  x1=0x8000174c
       25995000	      2598	00000000	00000013	addi	x0,x0,0	  x0:0x00000000
       26005000	      2599	80001790	00000013	addi	x0,x0,0	  x0:0x00000000
       26015000	      2600	80001794	fe1ff0ef	jal	x1,80001794	  x1=0x80001794
       26025000	      2601	00000000	00000013	addi	x0,x0,0	  x0:0x00000000
       26035000	      2602	80001770	00000013	addi	x0,x0,0	  x0:0x00000000
       26045000	      2603	80001774	ff1ffbef	jal	x23,80001774	 x23=0x80001774
       26055000	      2604	00000000	00000013	addi	x0,x0,0	  x0:0x00000000
       26065000	      2605	80001760	00000013	addi	x0,x0,0	  x0:0x00000000
       26075000	      2606	80001764	fe1ff36f	jal	x6,80001764	  x6=0x80001764
       26085000	      2607	00000000	00000013	addi	x0,x0,0	  x0:0x00000000
       26095000	      2608	80001740	00000013	addi	x0,x0,0	  x0:0x00000000
       26105000	      2609	80001744	064000ef	jal	x1,80001744	  x1=0x80001744
       26115000	      2610	00000000	00000013	addi	x0,x0,0	  x0:0x00000000
       26125000	      2611	800017a4	00000013	addi	x0,x0,0	  x0:0x00000000
       26135000	      2612	800017a8	00400cef	jal	x25,800017a8	 x25=0x800017a8
       26145000	      2613	00000000	00000013	addi	x0,x0,0	  x0:0x00000000
       26155000	      2614	800017a8	00000013	addi	x0,x0,0	  x0:0x00000000
       26165000	      2615	800017ac	f9dff0ef	jal	x1,800017ac	  x1=0x800017ac
       26175000	      2616	00000000	00000013	addi	x0,x0,0	  x0:0x00000000
       26185000	      2617	80001744	00000013	addi	x0,x0,0	  x0:0x00000000
       26195000	      2618	80001748	040000ef	jal	x1,80001748	  x1=0x80001748
       26205000	      2619	00000000	00000013	addi	x0,x0,0	  x0:0x00000000
       26215000	      2620	80001784	00000013	addi	x0,x0,0	  x0:0x00000000
       26225000	      2621	80001788	02c000ef	jal	x1,80001788	  x1=0x80001788
       26235000	      2622	00000000	00000013	addi	x0,x0,0	  x0:0x00000000
       26245000	      2623	800017b0	00000013	addi	x0,x0,0	  x0:0x00000000
       26255000	      2624	800017b4	01004933	xor	x18,x0,x16	  x0:0x00000000 x16:0x8000166c x18=0x8000166c
       26265000	      2625	800017b8	00c007ef	jal	x15,800017b8	 x15=0x800017b8
       26275000	      2626	00000000	00000013	addi	x0,x0,0	  x0:0x00000000
       26285000	      2627	800017c0	00000013	addi	x0,x0,0	  x0:0x00000000
       26295000	      2628	800017c4	ffdff0ef	jal	x1,800017c4	  x1=0x800017c4
       26305000	      2629	00000000	00000013	addi	x0,x0,0	  x0:0x00000000
       26315000	      2630	800017bc	00000013	addi	x0,x0,0	  x0:0x00000000
       26325000	      2631	800017c0	014000ef	jal	x1,800017c0	  x1=0x800017c0
       26335000	      2632	00000000	00000013	addi	x0,x0,0	  x0:0x00000000
       26345000	      2633	800017d0	00000013	addi	x0,x0,0	  x0:0x00000000
       26355000	      2634	800017d4	008000ef	jal	x1,800017d4	  x1=0x800017d4
       26365000	      2635	00000000	00000013	addi	x0,x0,0	  x0:0x00000000
       26375000	      2636	800017d8	00000013	addi	x0,x0,0	  x0:0x00000000
       26385000	      2637	800017dc	0040036f	jal	x6,800017dc	  x6=0x800017dc
       26395000	      2638	00000000	00000013	addi	x0,x0,0	  x0:0x00000000
       26405000	      2639	800017dc	00000013	addi	x0,x0,0	  x0:0x00000000
       26415000	      2640	800017e0	fe9ff0ef	jal	x1,800017e0	  x1=0x800017e0
       26425000	      2641	00000000	00000013	addi	x0,x0,0	  x0:0x00000000
       26435000	      2642	800017c4	00000013	addi	x0,x0,0	  x0:0x00000000
       26445000	      2643	800017c8	004000ef	jal	x1,800017c8	  x1=0x800017c8
       26455000	      2644	00000000	00000013	addi	x0,x0,0	  x0:0x00000000
       26465000	      2645	800017c8	00000013	addi	x0,x0,0	  x0:0x00000000
       26475000	      2646	800017cc	ff1ff0ef	jal	x1,800017cc	  x1=0x800017cc
       26485000	      2647	00000000	00000013	addi	x0,x0,0	  x0:0x00000000
       26495000	      2648	800017b8	00000013	addi	x0,x0,0	  x0:0x00000000
       26505000	      2649	800017bc	01c000ef	jal	x1,800017bc	  x1=0x800017bc
       26515000	      2650	00000000	00000013	addi	x0,x0,0	  x0:0x00000000
       26525000	      2651	800017d4	00000013	addi	x0,x0,0	  x0:0x00000000
       26535000	      2652	800017d8	ff9ff0ef	jal	x1,800017d8	  x1=0x800017d8
       26545000	      2653	00000000	00000013	addi	x0,x0,0	  x0:0x00000000
       26555000	      2654	800017cc	00000013	addi	x0,x0,0	  x0:0x00000000
       26565000	      2655	800017d0	014000ef	jal	x1,800017d0	  x1=0x800017d0
       26575000	      2656	00000000	00000013	addi	x0,x0,0	  x0:0x00000000
       26585000	      2657	800017e0	00000013	addi	x0,x0,0	  x0:0x00000000
       26595000	      2658	800017e4	471782b7	lui	x5,0x47178	  x5=0x47178000
       26605000	      2659	800017e8	06c007ef	jal	x15,800017e8	 x15=0x800017e8
       26615000	      2660	00000000	00000013	addi	x0,x0,0	  x0:0x00000000
       26625000	      2661	80001850	00000013	addi	x0,x0,0	  x0:0x00000000
       26635000	      2662	80001854	fb1ffcef	jal	x25,80001854	 x25=0x80001854
       26645000	      2663	00000000	00000013	addi	x0,x0,0	  x0:0x00000000
       26655000	      2664	80001800	00000013	addi	x0,x0,0	  x0:0x00000000
       26665000	      2665	80001804	03800f6f	jal	x30,80001804	 x30=0x80001804
       26675000	      2666	00000000	00000013	addi	x0,x0,0	  x0:0x00000000
       26685000	      2667	80001838	00000013	addi	x0,x0,0	  x0:0x00000000
       26695000	      2668	8000183c	fbdff0ef	jal	x1,8000183c	  x1=0x8000183c
       26705000	      2669	00000000	00000013	addi	x0,x0,0	  x0:0x00000000
       26715000	      2670	800017f4	00000013	addi	x0,x0,0	  x0:0x00000000
       26725000	      2671	800017f8	ff5ff0ef	jal	x1,800017f8	  x1=0x800017f8
       26735000	      2672	00000000	00000013	addi	x0,x0,0	  x0:0x00000000
       26745000	      2673	800017e8	00000013	addi	x0,x0,0	  x0:0x00000000
       26755000	      2674	800017ec	014000ef	jal	x1,800017ec	  x1=0x800017ec
       26765000	      2675	00000000	00000013	addi	x0,x0,0	  x0:0x00000000
       26775000	      2676	800017fc	00000013	addi	x0,x0,0	  x0:0x00000000
       26785000	      2677	80001800	010000ef	jal	x1,80001800	  x1=0x80001800
       26795000	      2678	00000000	00000013	addi	x0,x0,0	  x0:0x00000000
       26805000	      2679	8000180c	00000013	addi	x0,x0,0	  x0:0x00000000
       26815000	      2680	80001810	03c000ef	jal	x1,80001810	  x1=0x80001810
       26825000	      2681	00000000	00000013	addi	x0,x0,0	  x0:0x00000000
       26835000	      2682	80001848	00000013	addi	x0,x0,0	  x0:0x00000000
       26845000	      2683	8000184c	fd9ff1ef	jal	x3,8000184c	  x3=0x8000184c
       26855000	      2684	00000000	00000013	addi	x0,x0,0	  x0:0x00000000
       26865000	      2685	80001820	00000013	addi	x0,x0,0	  x0:0x00000000
       26875000	      2686	80001824	03c006ef	jal	x13,80001824	 x13=0x80001824
       26885000	      2687	00000000	00000013	addi	x0,x0,0	  x0:0x00000000
       26895000	      2688	8000185c	00000013	addi	x0,x0,0	  x0:0x00000000
       26905000	      2689	80001860	ff9ff36f	jal	x6,80001860	  x6=0x80001860
       26915000	      2690	00000000	00000013	addi	x0,x0,0	  x0:0x00000000
       26925000	      2691	80001854	00000013	addi	x0,x0,0	  x0:0x00000000
       26935000	      2692	80001858	fb1fff6f	jal	x30,80001858	 x30=0x80001858
       26945000	      2693	00000000	00000013	addi	x0,x0,0	  x0:0x00000000
       26955000	      2694	80001804	00000013	addi	x0,x0,0	  x0:0x00000000
       26965000	      2695	80001808	030000ef	jal	x1,80001808	  x1=0x80001808
       26975000	      2696	00000000	00000013	addi	x0,x0,0	  x0:0x00000000
       26985000	      2697	80001834	00000013	addi	x0,x0,0	  x0:0x00000000
       26995000	      2698	80001838	00c0086f	jal	x16,80001838	 x16=0x80001838
       27005000	      2699	00000000	00000013	addi	x0,x0,0	  x0:0x00000000
       27015000	      2700	80001840	00000013	addi	x0,x0,0	  x0:0x00000000
       27025000	      2701	80001844	fddff0ef	jal	x1,80001844	  x1=0x80001844
       27035000	      2702	00000000	00000013	addi	x0,x0,0	  x0:0x00000000
       27045000	      2703	8000181c	00000013	addi	x0,x0,0	  x0:0x00000000
       27055000	      2704	80001820	010000ef	jal	x1,80001820	  x1=0x80001820
       27065000	      2705	00000000	00000013	addi	x0,x0,0	  x0:0x00000000
       27075000	      2706	8000182c	00000013	addi	x0,x0,0	  x0:0x00000000
       27085000	      2707	80001830	fe9ff36f	jal	x6,80001830	  x6=0x80001830
       27095000	      2708	00000000	00000013	addi	x0,x0,0	  x0:0x00000000
       27105000	      2709	80001814	00000013	addi	x0,x0,0	  x0:0x00000000
       27115000	      2710	80001818	044000ef	jal	x1,80001818	  x1=0x80001818
       27125000	      2711	00000000	00000013	addi	x0,x0,0	  x0:0x00000000
       27135000	      2712	80001858	00000013	addi	x0,x0,0	  x0:0x00000000
       27145000	      2713	8000185c	fb1ff2ef	jal	x5,8000185c	  x5=0x8000185c
       27155000	      2714	00000000	00000013	addi	x0,x0,0	  x0:0x00000000
       27165000	      2715	80001808	00000013	addi	x0,x0,0	  x0:0x00000000
       27175000	      2716	8000180c	fe5ff2ef	jal	x5,8000180c	  x5=0x8000180c
       27185000	      2717	00000000	00000013	addi	x0,x0,0	  x0:0x00000000
       27195000	      2718	800017ec	00000013	addi	x0,x0,0	  x0:0x00000000
       27205000	      2719	800017f0	02c000ef	jal	x1,800017f0	  x1=0x800017f0
       27215000	      2720	00000000	00000013	addi	x0,x0,0	  x0:0x00000000
       27225000	      2721	80001818	00000013	addi	x0,x0,0	  x0:0x00000000
       27235000	      2722	8000181c	02c0016f	jal	x2,8000181c	  x2=0x8000181c
       27245000	      2723	00000000	00000013	addi	x0,x0,0	  x0:0x00000000
       27255000	      2724	80001844	00000013	addi	x0,x0,0	  x0:0x00000000
       27265000	      2725	80001848	fe5ff6ef	jal	x13,80001848	 x13=0x80001848
       27275000	      2726	00000000	00000013	addi	x0,x0,0	  x0:0x00000000
       27285000	      2727	80001828	00000013	addi	x0,x0,0	  x0:0x00000000
       27295000	      2728	8000182c	ffdff0ef	jal	x1,8000182c	  x1=0x8000182c
       27305000	      2729	00000000	00000013	addi	x0,x0,0	  x0:0x00000000
       27315000	      2730	80001824	00000013	addi	x0,x0,0	  x0:0x00000000
       27325000	      2731	80001828	fcdff0ef	jal	x1,80001828	  x1=0x80001828
       27335000	      2732	00000000	00000013	addi	x0,x0,0	  x0:0x00000000
       27345000	      2733	800017f0	00000013	addi	x0,x0,0	  x0:0x00000000
       27355000	      2734	800017f4	008000ef	jal	x1,800017f4	  x1=0x800017f4
       27365000	      2735	00000000	00000013	addi	x0,x0,0	  x0:0x00000000
       27375000	      2736	800017f8	00000013	addi	x0,x0,0	  x0:0x00000000
       27385000	      2737	800017fc	054000ef	jal	x1,800017fc	  x1=0x800017fc
       27395000	      2738	00000000	00000013	addi	x0,x0,0	  x0:0x00000000
       27405000	      2739	8000184c	00000013	addi	x0,x0,0	  x0:0x00000000
       27415000	      2740	80001850	fe5ff0ef	jal	x1,80001850	  x1=0x80001850
       27425000	      2741	00000000	00000013	addi	x0,x0,0	  x0:0x00000000
       27435000	      2742	80001830	00000013	addi	x0,x0,0	  x0:0x00000000
       27445000	      2743	80001834	00c000ef	jal	x1,80001834	  x1=0x80001834
       27455000	      2744	00000000	00000013	addi	x0,x0,0	  x0:0x00000000
       27465000	      2745	8000183c	00000013	addi	x0,x0,0	  x0:0x00000000
       27475000	      2746	80001840	fd5ff0ef	jal	x1,80001840	  x1=0x80001840
       27485000	      2747	00000000	00000013	addi	x0,x0,0	  x0:0x00000000
       27495000	      2748	80001810	00000013	addi	x0,x0,0	  x0:0x00000000
       27505000	      2749	80001814	0500076f	jal	x14,80001814	 x14=0x80001814
       27515000	      2750	00000000	00000013	addi	x0,x0,0	  x0:0x00000000
       27525000	      2751	80001860	00000013	addi	x0,x0,0	  x0:0x00000000
       27535000	      2752	80001864	00000013	addi	x0,x0,0	  x0:0x00000000
       27545000	      2753	80001868	014007ef	jal	x15,80001868	 x15=0x80001868
       27555000	      2754	00000000	00000013	addi	x0,x0,0	  x0:0x00000000
       27565000	      2755	80001878	00000013	addi	x0,x0,0	  x0:0x00000000
       27575000	      2756	8000187c	0100036f	jal	x6,8000187c	  x6=0x8000187c
       27585000	      2757	00000000	00000013	addi	x0,x0,0	  x0:0x00000000
       27595000	      2758	80001888	00000013	addi	x0,x0,0	  x0:0x00000000
       27605000	      2759	8000188c	fe9ff36f	jal	x6,8000188c	  x6=0x8000188c
       27615000	      2760	00000000	00000013	addi	x0,x0,0	  x0:0x00000000
       27625000	      2761	80001870	00000013	addi	x0,x0,0	  x0:0x00000000
       27635000	      2762	80001874	ffdffe6f	jal	x28,80001874	 x28=0x80001874
       27645000	      2763	00000000	00000013	addi	x0,x0,0	  x0:0x00000000
       27655000	      2764	8000186c	00000013	addi	x0,x0,0	  x0:0x00000000
       27665000	      2765	80001870	01000e6f	jal	x28,80001870	 x28=0x80001870
       27675000	      2766	00000000	00000013	addi	x0,x0,0	  x0:0x00000000
       27685000	      2767	8000187c	00000013	addi	x0,x0,0	  x0:0x00000000
       27695000	      2768	80001880	004000ef	jal	x1,80001880	  x1=0x80001880
       27705000	      2769	00000000	00000013	addi	x0,x0,0	  x0:0x00000000
       27715000	      2770	80001880	00000013	addi	x0,x0,0	  x0:0x00000000
       27725000	      2771	80001884	fe9ff0ef	jal	x1,80001884	  x1=0x80001884
       27735000	      2772	00000000	00000013	addi	x0,x0,0	  x0:0x00000000
       27745000	      2773	80001868	00000013	addi	x0,x0,0	  x0:0x00000000
       27755000	      2774	8000186c	00c004ef	jal	x9,8000186c	  x9=0x8000186c
       27765000	      2775	00000000	00000013	addi	x0,x0,0	  x0:0x00000000
       27775000	      2776	80001874	00000013	addi	x0,x0,0	  x0:0x00000000
       27785000	      2777	80001878	018000ef	jal	x1,80001878	  x1=0x80001878
       27795000	      2778	00000000	00000013	addi	x0,x0,0	  x0:0x00000000
       27805000	      2779	8000188c	00000013	addi	x0,x0,0	  x0:0x00000000
       27815000	      2780	80001890	ff9ff16f	jal	x2,80001890	  x2=0x80001890
       27825000	      2781	00000000	00000013	addi	x0,x0,0	  x0:0x00000000
       27835000	      2782	80001884	00000013	addi	x0,x0,0	  x0:0x00000000
       27845000	      2783	80001888	00c000ef	jal	x1,80001888	  x1=0x80001888
       27855000	      2784	00000000	00000013	addi	x0,x0,0	  x0:0x00000000
       27865000	      2785	80001890	00000013	addi	x0,x0,0	  x0:0x00000000
       27875000	      2786	80001894	acd545b7	lui	x11,0xacd54	 x11=0xacd54000
       27885000	      2787	80001898	038007ef	jal	x15,80001898	 x15=0x80001898
       27895000	      2788	00000000	00000013	addi	x0,x0,0	  x0:0x00000000
       27905000	      2789	800018cc	00000013	addi	x0,x0,0	  x0:0x00000000
       27915000	      2790	800018d0	0140036f	jal	x6,800018d0	  x6=0x800018d0
       27925000	      2791	00000000	00000013	addi	x0,x0,0	  x0:0x00000000
       27935000	      2792	800018e0	00000013	addi	x0,x0,0	  x0:0x00000000
       27945000	      2793	800018e4	fcdff0ef	jal	x1,800018e4	  x1=0x800018e4
       27955000	      2794	00000000	00000013	addi	x0,x0,0	  x0:0x00000000
       27965000	      2795	800018ac	00000013	addi	x0,x0,0	  x0:0x00000000
       27975000	      2796	800018b0	014004ef	jal	x9,800018b0	  x9=0x800018b0
       27985000	      2797	00000000	00000013	addi	x0,x0,0	  x0:0x00000000
       27995000	      2798	800018c0	00000013	addi	x0,x0,0	  x0:0x00000000
       28005000	      2799	800018c4	02c00d6f	jal	x26,800018c4	 x26=0x800018c4
       28015000	      2800	00000000	00000013	addi	x0,x0,0	  x0:0x00000000
       28025000	      2801	800018ec	00000013	addi	x0,x0,0	  x0:0x00000000
       28035000	      2802	800018f0	fedff36f	jal	x6,800018f0	  x6=0x800018f0
       28045000	      2803	00000000	00000013	addi	x0,x0,0	  x0:0x00000000
       28055000	      2804	800018d8	00000013	addi	x0,x0,0	  x0:0x00000000
       28065000	      2805	800018dc	fd9ff0ef	jal	x1,800018dc	  x1=0x800018dc
       28075000	      2806	00000000	00000013	addi	x0,x0,0	  x0:0x00000000
       28085000	      2807	800018b0	00000013	addi	x0,x0,0	  x0:0x00000000
       28095000	      2808	800018b4	024000ef	jal	x1,800018b4	  x1=0x800018b4
       28105000	      2809	00000000	00000013	addi	x0,x0,0	  x0:0x00000000
       28115000	      2810	800018d4	00000013	addi	x0,x0,0	  x0:0x00000000
       28125000	      2811	800018d8	0140046f	jal	x8,800018d8	  x8=0x800018d8
       28135000	      2812	00000000	00000013	addi	x0,x0,0	  x0:0x00000000
       28145000	      2813	800018e8	00000013	addi	x0,x0,0	  x0:0x00000000
       28155000	      2814	800018ec	ffdff0ef	jal	x1,800018ec	  x1=0x800018ec
       28165000	      2815	00000000	00000013	addi	x0,x0,0	  x0:0x00000000
       28175000	      2816	800018e4	00000013	addi	x0,x0,0	  x0:0x00000000
       28185000	      2817	800018e8	fd9ff0ef	jal	x1,800018e8	  x1=0x800018e8
       28195000	      2818	00000000	00000013	addi	x0,x0,0	  x0:0x00000000
       28205000	      2819	800018bc	00000013	addi	x0,x0,0	  x0:0x00000000
       28215000	      2820	800018c0	ffdff0ef	jal	x1,800018c0	  x1=0x800018c0
       28225000	      2821	00000000	00000013	addi	x0,x0,0	  x0:0x00000000
       28235000	      2822	800018b8	00000013	addi	x0,x0,0	  x0:0x00000000
       28245000	      2823	800018bc	018000ef	jal	x1,800018bc	  x1=0x800018bc
       28255000	      2824	00000000	00000013	addi	x0,x0,0	  x0:0x00000000
       28265000	      2825	800018d0	00000013	addi	x0,x0,0	  x0:0x00000000
       28275000	      2826	800018d4	fe5ff36f	jal	x6,800018d4	  x6=0x800018d4
       28285000	      2827	00000000	00000013	addi	x0,x0,0	  x0:0x00000000
       28295000	      2828	800018b4	00000013	addi	x0,x0,0	  x0:0x00000000
       28305000	      2829	800018b8	0100076f	jal	x14,800018b8	 x14=0x800018b8
       28315000	      2830	00000000	00000013	addi	x0,x0,0	  x0:0x00000000
       28325000	      2831	800018c4	00000013	addi	x0,x0,0	  x0:0x00000000
       28335000	      2832	800018c8	fe1ff0ef	jal	x1,800018c8	  x1=0x800018c8
       28345000	      2833	00000000	00000013	addi	x0,x0,0	  x0:0x00000000
       28355000	      2834	800018a4	00000013	addi	x0,x0,0	  x0:0x00000000
       28365000	      2835	800018a8	ff5ffbef	jal	x23,800018a8	 x23=0x800018a8
       28375000	      2836	00000000	00000013	addi	x0,x0,0	  x0:0x00000000
       28385000	      2837	80001898	00000013	addi	x0,x0,0	  x0:0x00000000
       28395000	      2838	8000189c	0100016f	jal	x2,8000189c	  x2=0x8000189c
       28405000	      2839	00000000	00000013	addi	x0,x0,0	  x0:0x00000000
       28415000	      2840	800018a8	00000013	addi	x0,x0,0	  x0:0x00000000
       28425000	      2841	800018ac	ff5ff36f	jal	x6,800018ac	  x6=0x800018ac
       28435000	      2842	00000000	00000013	addi	x0,x0,0	  x0:0x00000000
       28445000	      2843	8000189c	00000013	addi	x0,x0,0	  x0:0x00000000
       28455000	      2844	800018a0	02c000ef	jal	x1,800018a0	  x1=0x800018a0
       28465000	      2845	00000000	00000013	addi	x0,x0,0	  x0:0x00000000
       28475000	      2846	800018c8	00000013	addi	x0,x0,0	  x0:0x00000000
       28485000	      2847	800018cc	fd9ff0ef	jal	x1,800018cc	  x1=0x800018cc
       28495000	      2848	00000000	00000013	addi	x0,x0,0	  x0:0x00000000
       28505000	      2849	800018a0	00000013	addi	x0,x0,0	  x0:0x00000000
       28515000	      2850	800018a4	03c006ef	jal	x13,800018a4	 x13=0x800018a4
       28525000	      2851	00000000	00000013	addi	x0,x0,0	  x0:0x00000000
       28535000	      2852	800018dc	00000013	addi	x0,x0,0	  x0:0x00000000
       28545000	      2853	800018e0	0140076f	jal	x14,800018e0	 x14=0x800018e0
       28555000	      2854	00000000	00000013	addi	x0,x0,0	  x0:0x00000000
       28565000	      2855	800018f0	00000013	addi	x0,x0,0	  x0:0x00000000
       28575000	      2856	800018f4	5b92c113	xori	x2,x5,1465	  x5:0x8000180c  x2=0x80001db5
       28585000	      2857	800018f8	044007ef	jal	x15,800018f8	 x15=0x800018f8
       28595000	      2858	00000000	00000013	addi	x0,x0,0	  x0:0x00000000
       28605000	      2859	80001938	00000013	addi	x0,x0,0	  x0:0x00000000
       28615000	      2860	8000193c	ff9ff36f	jal	x6,8000193c	  x6=0x8000193c
       28625000	      2861	00000000	00000013	addi	x0,x0,0	  x0:0x00000000
       28635000	      2862	80001930	00000013	addi	x0,x0,0	  x0:0x00000000
       28645000	      2863	80001934	00400e6f	jal	x28,80001934	 x28=0x80001934
       28655000	      2864	00000000	00000013	addi	x0,x0,0	  x0:0x00000000
       28665000	      2865	80001934	00000013	addi	x0,x0,0	  x0:0x00000000
       28675000	      2866	80001938	fc5ff0ef	jal	x1,80001938	  x1=0x80001938
       28685000	      2867	00000000	00000013	addi	x0,x0,0	  x0:0x00000000
       28695000	      2868	800018f8	00000013	addi	x0,x0,0	  x0:0x00000000
       28705000	      2869	800018fc	044000ef	jal	x1,800018fc	  x1=0x800018fc
       28715000	      2870	00000000	00000013	addi	x0,x0,0	  x0:0x00000000
       28725000	      2871	8000193c	00000013	addi	x0,x0,0	  x0:0x00000000
       28735000	      2872	80001940	fc9ff96f	jal	x18,80001940	 x18=0x80001940
       28745000	      2873	00000000	00000013	addi	x0,x0,0	  x0:0x00000000
       28755000	      2874	80001904	00000013	addi	x0,x0,0	  x0:0x00000000
       28765000	      2875	80001908	024000ef	jal	x1,80001908	  x1=0x80001908
       28775000	      2876	00000000	00000013	addi	x0,x0,0	  x0:0x00000000
       28785000	      2877	80001928	00000013	addi	x0,x0,0	  x0:0x00000000
       28795000	      2878	8000192c	fedff0ef	jal	x1,8000192c	  x1=0x8000192c
       28805000	      2879	00000000	00000013	addi	x0,x0,0	  x0:0x00000000
       28815000	      2880	80001914	00000013	addi	x0,x0,0	  x0:0x00000000
       28825000	      2881	80001918	008002ef	jal	x5,80001918	  x5=0x80001918
       28835000	      2882	00000000	00000013	addi	x0,x0,0	  x0:0x00000000
       28845000	      2883	8000191c	00000013	addi	x0,x0,0	  x0:0x00000000
       28855000	      2884	80001920	024005ef	jal	x11,80001920	 x11=0x80001920
       28865000	      2885	00000000	00000013	addi	x0,x0,0	  x0:0x00000000
       28875000	      2886	80001940	00000013	addi	x0,x0,0	  x0:0x00000000
       28885000	      2887	80001944	fcdff0ef	jal	x1,80001944	  x1=0x80001944
       28895000	      2888	00000000	00000013	addi	x0,x0,0	  x0:0x00000000
       28905000	      2889	8000190c	00000013	addi	x0,x0,0	  x0:0x00000000
       28915000	      2890	80001910	ffdff46f	jal	x8,80001910	  x8=0x80001910
       28925000	      2891	00000000	00000013	addi	x0,x0,0	  x0:0x00000000
       28935000	      2892	80001908	00000013	addi	x0,x0,0	  x0:0x00000000
       28945000	      2893	8000190c	010000ef	jal	x1,8000190c	  x1=0x8000190c
       28955000	      2894	00000000	00000013	addi	x0,x0,0	  x0:0x00000000
       28965000	      2895	80001918	00000013	addi	x0,x0,0	  x0:0x00000000
       28975000	      2896	8000191c	014000ef	jal	x1,8000191c	  x1=0x8000191c
       28985000	      2897	00000000	00000013	addi	x0,x0,0	  x0:0x00000000
       28995000	      2898	8000192c	00000013	addi	x0,x0,0	  x0:0x00000000
       29005000	      2899	80001930	fd1ffb6f	jal	x22,80001930	 x22=0x80001930
       29015000	      2900	00000000	00000013	addi	x0,x0,0	  x0:0x00000000
       29025000	      2901	800018fc	00000013	addi	x0,x0,0	  x0:0x00000000
       29035000	      2902	80001900	004000ef	jal	x1,80001900	  x1=0x80001900
       29045000	      2903	00000000	00000013	addi	x0,x0,0	  x0:0x00000000
       29055000	      2904	80001900	00000013	addi	x0,x0,0	  x0:0x00000000
       29065000	      2905	80001904	024003ef	jal	x7,80001904	  x7=0x80001904
       29075000	      2906	00000000	00000013	addi	x0,x0,0	  x0:0x00000000
       29085000	      2907	80001924	00000013	addi	x0,x0,0	  x0:0x00000000
       29095000	      2908	80001928	ffdff0ef	jal	x1,80001928	  x1=0x80001928
       29105000	      2909	00000000	00000013	addi	x0,x0,0	  x0:0x00000000
       29115000	      2910	80001920	00000013	addi	x0,x0,0	  x0:0x00000000
       29125000	      2911	80001924	ff1ff0ef	jal	x1,80001924	  x1=0x80001924
       29135000	      2912	00000000	00000013	addi	x0,x0,0	  x0:0x00000000
       29145000	      2913	80001910	00000013	addi	x0,x0,0	  x0:0x00000000
       29155000	      2914	80001914	034000ef	jal	x1,80001914	  x1=0x80001914
       29165000	      2915	00000000	00000013	addi	x0,x0,0	  x0:0x00000000
       29175000	      2916	80001944	00000013	addi	x0,x0,0	  x0:0x00000000
       29185000	      2917	80001948	00a7aa33	slt	x20,x15,x10	 x15:0x800018f8 x10:0x8000164c x20=0x00000000
       29195000	      2918	8000194c	01c007ef	jal	x15,8000194c	 x15=0x8000194c
       29205000	      2919	00000000	00000013	addi	x0,x0,0	  x0:0x00000000
       29215000	      2920	80001964	00000013	addi	x0,x0,0	  x0:0x00000000
       29225000	      2921	80001968	00c000ef	jal	x1,80001968	  x1=0x80001968
       29235000	      2922	00000000	00000013	addi	x0,x0,0	  x0:0x00000000
       29245000	      2923	80001970	00000013	addi	x0,x0,0	  x0:0x00000000
       29255000	      2924	80001974	018002ef	jal	x5,80001974	  x5=0x80001974
       29265000	      2925	00000000	00000013	addi	x0,x0,0	  x0:0x00000000
       29275000	      2926	80001988	00000013	addi	x0,x0,0	  x0:0x00000000
       29285000	      2927	8000198c	008001ef	jal	x3,8000198c	  x3=0x8000198c
       29295000	      2928	00000000	00000013	addi	x0,x0,0	  x0:0x00000000
       29305000	      2929	80001990	00000013	addi	x0,x0,0	  x0:0x00000000
       29315000	      2930	80001994	ff1ff0ef	jal	x1,80001994	  x1=0x80001994
       29325000	      2931	00000000	00000013	addi	x0,x0,0	  x0:0x00000000
       29335000	      2932	80001980	00000013	addi	x0,x0,0	  x0:0x00000000
       29345000	      2933	80001984	fe1ff0ef	jal	x1,80001984	  x1=0x80001984
       29355000	      2934	00000000	00000013	addi	x0,x0,0	  x0:0x00000000
       29365000	      2935	80001960	00000013	addi	x0,x0,0	  x0:0x00000000
       29375000	      2936	80001964	ff5ff46f	jal	x8,80001964	  x8=0x80001964
       29385000	      2937	00000000	00000013	addi	x0,x0,0	  x0:0x00000000
       29395000	      2938	80001954	00000013	addi	x0,x0,0	  x0:0x00000000
       29405000	      2939	80001958	ffdff36f	jal	x6,80001958	  x6=0x80001958
       29415000	      2940	00000000	00000013	addi	x0,x0,0	  x0:0x00000000
       29425000	      2941	80001950	00000013	addi	x0,x0,0	  x0:0x00000000
       29435000	      2942	80001954	028000ef	jal	x1,80001954	  x1=0x80001954
       29445000	      2943	00000000	00000013	addi	x0,x0,0	  x0:0x00000000
       29455000	      2944	80001978	00000013	addi	x0,x0,0	  x0:0x00000000
       29465000	      2945	8000197c	00c00cef	jal	x25,8000197c	 x25=0x8000197c
       29475000	      2946	00000000	00000013	addi	x0,x0,0	  x0:0x00000000
       29485000	      2947	80001984	00000013	addi	x0,x0,0	  x0:0x00000000
       29495000	      2948	80001988	008001ef	jal	x3,80001988	  x3=0x80001988
       29505000	      2949	00000000	00000013	addi	x0,x0,0	  x0:0x00000000
       29515000	      2950	8000198c	00000013	addi	x0,x0,0	  x0:0x00000000
       29525000	      2951	80001990	ff1ff0ef	jal	x1,80001990	  x1=0x80001990
       29535000	      2952	00000000	00000013	addi	x0,x0,0	  x0:0x00000000
       29545000	      2953	8000197c	00000013	addi	x0,x0,0	  x0:0x00000000
       29555000	      2954	80001980	ff1ff16f	jal	x2,80001980	  x2=0x80001980
       29565000	      2955	00000000	00000013	addi	x0,x0,0	  x0:0x00000000
       29575000	      2956	8000196c	00000013	addi	x0,x0,0	  x0:0x00000000
       29585000	      2957	80001970	fedff36f	jal	x6,80001970	  x6=0x80001970
       29595000	      2958	00000000	00000013	addi	x0,x0,0	  x0:0x00000000
       29605000	      2959	80001958	00000013	addi	x0,x0,0	  x0:0x00000000
       29615000	      2960	8000195c	ff5fff6f	jal	x30,8000195c	 x30=0x8000195c
       29625000	      2961	00000000	00000013	addi	x0,x0,0	  x0:0x00000000
       29635000	      2962	8000194c	00000013	addi	x0,x0,0	  x0:0x00000000
       29645000	      2963	80001950	028000ef	jal	x1,80001950	  x1=0x80001950
       29655000	      2964	00000000	00000013	addi	x0,x0,0	  x0:0x00000000
       29665000	      2965	80001974	00000013	addi	x0,x0,0	  x0:0x00000000
       29675000	      2966	80001978	fe9ff0ef	jal	x1,80001978	  x1=0x80001978
       29685000	      2967	00000000	00000013	addi	x0,x0,0	  x0:0x00000000
       29695000	      2968	8000195c	00000013	addi	x0,x0,0	  x0:0x00000000
       29705000	      2969	80001960	00c000ef	jal	x1,80001960	  x1=0x80001960
       29715000	      2970	00000000	00000013	addi	x0,x0,0	  x0:0x00000000
       29725000	      2971	80001968	00000013	addi	x0,x0,0	  x0:0x00000000
       29735000	      2972	8000196c	02c0036f	jal	x6,8000196c	  x6=0x8000196c
       29745000	      2973	00000000	00000013	addi	x0,x0,0	  x0:0x00000000
       29755000	      2974	80001994	00000013	addi	x0,x0,0	  x0:0x00000000
       29765000	      2975	80001998	41778133	sub	x2,x15,x23	 x15:0x8000194c x23:0x800018a8  x2=0x000000a4
       29775000	      2976	8000199c	007744b3	xor	x9,x14,x7	 x14:0x800018e0  x7:0x80001904  x9=0x000001e4
       29785000	      2977	800019a0	00725993	srli	x19,x4,0x7	  x4:0xe9ba91f5 x19=0x01d37523
       29795000	      2978	800019a4	00a78533	add	x10,x15,x10	 x15:0x8000194c x10:0x8000164c x10=0x00002f98
       29805000	      2979	800019a8	e0a93e13	sltiu	x28,x18,-502	 x18:0x80001940 x28=0x00000001
       29815000	      2980	800019ac	00d43533	sltu	x10,x8,x13	  x8:0x80001964 x13:0x800018a4 x10=0x00000000
       29825000	      2981	800019b0	018af733	and	x14,x21,x24	 x21:0x80001730 x24:0x8000179c x14=0x80001710
       29835000	      2982	800019b4	00169f33	sll	x30,x13,x1	 x13:0x800018a4  x1:0x80001960 x30=0x800018a4
       29845000	      2983	800019b8	0007d033	srl	x0,x15,x0	 x15:0x8000194c  x0:0x00000000
       29855000	      2984	800019bc	00998db3	add	x27,x19,x9	 x19:0x01d37523  x9:0x000001e4 x27=0x01d37707
       29865000	      2985	800019c0	036c5a63	bge	x24,x22,800019f4	 x24:0x8000179c x22:0x80001930
       29875000	      2986	800019c4	40fc5333	sra	x6,x24,x15	 x24:0x8000179c x15:0x8000194c  x6=0xfff80001
       29885000	      2987	800019c8	03a49a63	bne	x9,x26,800019fc	  x9:0x000001e4 x26:0x800018c4
       29895000	      2988	00000000	00000013	addi	x0,x0,0	  x0:0x00000000
       29905000	      2989	800019f8	00000013	addi	x0,x0,0	  x0:0x00000000
       29915000	      2990	800019fc	72b8be13	sltiu	x28,x17,1835	 x17:0x80009fc4 x28=0x00000000
       29925000	      2991	80001a00	768b8513	addi	x10,x23,1896	 x23:0x800018a8 x10=0x80002010
       29935000	      2992	80001a04	014d9393	slli	x7,x27,0x14	 x27:0x01d37707  x7=0x70700000
       29945000	      2993	80001a08	415d5d93	srai	x27,x26,0x15	 x26:0x800018c4 x27=0xfffffc00
       29955000	      2994	80001a0c	01f78eb3	add	x29,x15,x31	 x15:0x8000194c x31:0x80009f54 x29=0x0000b8a0
       29965000	      2995	80001a10	40e85ab3	sra	x21,x16,x14	 x16:0x80001838 x14:0x80001710 x21=0xffff8000
       29975000	      2996	80001a14	04cd3793	sltiu	x15,x26,76	 x26:0x800018c4 x15=0x00000000
       29985000	      2997	80001a18	015ecab3	xor	x21,x29,x21	 x29:0x0000b8a0 x21:0xffff8000 x21=0xffff38a0
       29995000	      2998	80001a1c	181e6393	ori	x7,x28,385	 x28:0x00000000  x7=0x00000181
       30005000	      2999	80001a20	05547063	bgeu	x8,x21,80001a60	  x8:0x80001964 x21:0xffff38a0
       30015000	      3000	80001a24	040b8063	beq	x23,x0,80001a64	 x23:0x800018a8  x0:0x00000000
       30025000	      3001	80001a28	04ee1463	bne	x28,x14,80001a70	 x28:0x00000000 x14:0x80001710
       30035000	      3002	00000000	00000013	addi	x0,x0,0	  x0:0x00000000
       30045000	      3003	80001a6c	00000013	addi	x0,x0,0	  x0:0x00000000
       30055000	      3004	80001a70	01756e33	or	x28,x10,x23	 x10:0x80002010 x23:0x800018a8 x28=0x800038b8
       30065000	      3005	80001a74	00011993	slli	x19,x2,0x0	  x2:0x000000a4 x19=0x000000a4
       30075000	      3006	80001a78	413a8ab3	sub	x21,x21,x19	 x21:0xffff38a0 x19:0x000000a4 x21=0xffff37fc
       30085000	      3007	80001a7c	00645013	srli	x0,x8,0x6	  x8:0x80001964
       30095000	      3008	80001a80	02424863	blt	x4,x4,80001ab0	  x4:0xe9ba91f5  x4:0xe9ba91f5
       30105000	      3009	80001a84	47be7593	andi	x11,x28,1147	 x28:0x800038b8 x11=0x00000038
       30115000	      3010	80001a88	6ee0fab7	lui	x21,0x6ee0f	 x21=0x6ee0f000
       30125000	      3011	80001a8c	010b1e33	sll	x28,x22,x16	 x22:0x80001930 x16:0x80001838 x28=0x30000000
       30135000	      3012	80001a90	03e3e063	bltu	x7,x30,80001ab0	  x7:0x00000181 x30:0x800018a4
       30145000	      3013	00000000	00000013	addi	x0,x0,0	  x0:0x00000000
       30155000	      3014	80001aac	00000013	addi	x0,x0,0	  x0:0x00000000
       30165000	      3015	80001ab0	735e2a13	slti	x20,x28,1845	 x28:0x30000000 x20=0x00000000
       30175000	      3016	80001ab4	01cb6a63	bltu	x22,x28,80001ac8	 x22:0x80001930 x28:0x30000000
       30185000	      3017	80001ab8	f6bec793	xori	x15,x29,-149	 x29:0x0000b8a0 x15=0xffff47cb
       30195000	      3018	80001abc	e8b83113	sltiu	x2,x16,-373	 x16:0x80001838  x2=0x00000001
       30205000	      3019	80001ac0	ef628513	addi	x10,x5,-266	  x5:0x80001974 x10=0x8000186a
       30215000	      3020	80001ac4	01140eb3	add	x29,x8,x17	  x8:0x80001964 x17:0x80009fc4 x29=0x0000b928
       30225000	      3021	80001ac8	69cd2917	auipc	x18,0x69cd2	 x18=0xe9cd3ac4
       30235000	      3022	80001acc	0137dbb3	srl	x23,x15,x19	 x15:0xffff47cb x19:0x000000a4 x23=0x0ffff47c
       30245000	      3023	80001ad0	003c3633	sltu	x12,x24,x3	 x24:0x8000179c  x3:0x80001988 x12=0x00000001
       30255000	      3024	80001ad4	246d2037	lui	x0,0x246d2	
       30265000	      3025	80001ad8	013b7733	and	x14,x22,x19	 x22:0x80001930 x19:0x000000a4 x14=0x00000020
       30275000	      3026	80001adc	01874e63	blt	x14,x24,80001af8	 x14:0x00000020 x24:0x8000179c
       30285000	      3027	80001ae0	97f60813	addi	x16,x12,-1665	 x12:0x00000001 x16=0xfffff980
       30295000	      3028	80001ae4	01b6c993	xori	x19,x13,27	 x13:0x800018a4 x19=0x800018bf
       30305000	      3029	80001ae8	4167d193	srai	x3,x15,0x16	 x15:0xffff47cb  x3=0xffffffff
       30315000	      3030	80001aec	01889d33	sll	x26,x17,x24	 x17:0x80009fc4 x24:0x8000179c x26=0x40000000
       30325000	      3031	80001af0	e6a170b7	lui	x1,0xe6a17	  x1=0xe6a17000
       30335000	      3032	80001af4	271a2093	slti	x1,x20,625	 x20:0x00000000  x1=0x00000001
       30345000	      3033	80001af8	00b28c63	beq	x5,x11,80001b10	  x5:0x80001974 x11:0x00000038
       30355000	      3034	80001afc	e792e313	ori	x6,x5,-391	  x5:0x80001974  x6=0xffffff7d
       30365000	      3035	80001b00	019e6a63	bltu	x28,x25,80001b14	 x28:0x30000000 x25:0x8000197c
       30375000	      3036	00000000	00000013	addi	x0,x0,0	  x0:0x00000000
       30385000	      3037	80001b10	00000013	addi	x0,x0,0	  x0:0x00000000
       30395000	      3038	80001b14	0000a133	slt	x2,x1,x0	  x1:0x00000001  x0:0x00000000  x2=0x00000000
       30405000	      3039	80001b18	00a36633	or	x12,x6,x10	  x6:0xffffff7d x10:0x8000186a x12=0xffffff7f
       30415000	      3040	80001b1c	0324ee63	bltu	x9,x18,80001b58	  x9:0x000001e4 x18:0xe9cd3ac4
       30425000	      3041	00000000	00000013	addi	x0,x0,0	  x0:0x00000000
       30435000	      3042	80001b54	00000013	addi	x0,x0,0	  x0:0x00000000
       30445000	      3043	80001b58	40e65b33	sra	x22,x12,x14	 x12:0xffffff7f x14:0x00000020 x22=0xffffff7f
       30455000	      3044	80001b5c	5bec6e17	auipc	x28,0x5bec6	 x28=0xdbec7b58
       30465000	      3045	80001b60	401bd913	srai	x18,x23,0x1	 x23:0x0ffff47c x18=0x07fffa3e
       30475000	      3046	80001b64	01165c33	srl	x24,x12,x17	 x12:0xffffff7f x17:0x80009fc4 x24=0x0ffffff7
       30485000	      3047	80001b68	018df6b3	and	x13,x27,x24	 x27:0xfffffc00 x24:0x0ffffff7 x13=0x0ffffc00
       30495000	      3048	80001b6c	00061c63	bne	x12,x0,80001b84	 x12:0xffffff7f  x0:0x00000000
       30505000	      3049	00000000	00000013	addi	x0,x0,0	  x0:0x00000000
       30515000	      3050	80001b80	00000013	addi	x0,x0,0	  x0:0x00000000
       30525000	      3051	80001b84	00367c63	bgeu	x12,x3,80001b9c	 x12:0xffffff7f  x3:0xffffffff
       30535000	      3052	80001b88	00407133	and	x2,x0,x4	  x0:0x00000000  x4:0xe9ba91f5  x2=0x00000000
       30545000	      3053	80001b8c	5e784b93	xori	x23,x16,1511	 x16:0xfffff980 x23=0xfffffc67
       30555000	      3054	80001b90	406a5433	sra	x8,x20,x6	 x20:0x00000000  x6:0xffffff7d  x8=0x00000000
       30565000	      3055	80001b94	c3d3c313	xori	x6,x7,-963	  x7:0x00000181  x6=0xfffffdbc
       30575000	      3056	80001b98	00000013	addi	x0,x0,0	  x0:0x00000000
       30585000	      3057	80001b9c	00ed5113	srli	x2,x26,0xe	 x26:0x40000000  x2=0x00010000
       30595000	      3058	80001ba0	415782b3	sub	x5,x15,x21	 x15:0xffff47cb x21:0x6ee0f000  x5=0x911e57cb
       30605000	      3059	80001ba4	8556c113	xori	x2,x13,-1963	 x13:0x0ffffc00  x2=0xf0000455
       30615000	      3060	80001ba8	4179d5b3	sra	x11,x19,x23	 x19:0x800018bf x23:0xfffffc67 x11=0xff000031
       30625000	      3061	80001bac	dadecb13	xori	x22,x29,-595	 x29:0x0000b928 x22=0xffff4485
       30635000	      3062	80001bb0	2bc41bb7	lui	x23,0x2bc41	 x23=0x2bc41000
       30645000	      3063	80001bb4	02d7f863	bgeu	x15,x13,80001be4	 x15:0xffff47cb x13:0x0ffffc00
       30655000	      3064	00000000	00000013	addi	x0,x0,0	  x0:0x00000000
       30665000	      3065	80001be0	00000013	addi	x0,x0,0	  x0:0x00000000
       30675000	      3066	80001be4	d827bb13	sltiu	x22,x15,-638	 x15:0xffff47cb x22=0x00000001
       30685000	      3067	80001be8	01bb5f13	srli	x30,x22,0x1b	 x22:0x00000001 x30=0x00000000
       30695000	      3068	80001bec	5d544493	xori	x9,x8,1493	  x8:0x00000000  x9=0x000005d5
       30705000	      3069	80001bf0	00bfdc63	bge	x31,x11,80001c08	 x31:0x80009f54 x11:0xff000031
       30715000	      3070	80001bf4	001d66b3	or	x13,x26,x1	 x26:0x40000000  x1:0x00000001 x13=0x40000001
       30725000	      3071	80001bf8	008ebeb3	sltu	x29,x29,x8	 x29:0x0000b928  x8:0x00000000 x29=0x00000000
       30735000	      3072	80001bfc	01b7d463	bge	x15,x27,80001c04	 x15:0xffff47cb x27:0xfffffc00
       30745000	      3073	80001c00	05de1263	bne	x28,x29,80001c44	 x28:0xdbec7b58 x29:0x00000000
       30755000	      3074	00000000	00000013	addi	x0,x0,0	  x0:0x00000000
       30765000	      3075	80001c40	00000013	addi	x0,x0,0	  x0:0x00000000
       30775000	      3076	80001c44	003846b3	xor	x13,x16,x3	 x16:0xfffff980  x3:0xffffffff x13=0x0000067f
       30785000	      3077	80001c48	01b67db3	and	x27,x12,x27	 x12:0xffffff7f x27:0xfffffc00 x27=0xfffffc00
       30795000	      3078	80001c4c	77a64193	xori	x3,x12,1914	 x12:0xffffff7f  x3=0xfffff805
       30805000	      3079	80001c50	d6f0c993	xori	x19,x1,-657	  x1:0x00000001 x19=0xfffffd6e
       30815000	      3080	80001c54	01cd5e33	srl	x28,x26,x28	 x26:0x40000000 x28:0xdbec7b58 x28=0x00000040
       30825000	      3081	80001c58	fdf29b97	auipc	x23,0xfdf29	 x23=0x7df2ac54
       30835000	      3082	80001c5c	016ada63	bge	x21,x22,80001c70	 x21:0x6ee0f000 x22:0x00000001
       30845000	      3083	00000000	00000013	addi	x0,x0,0	  x0:0x00000000
       30855000	      3084	80001c6c	00000013	addi	x0,x0,0	  x0:0x00000000
       30865000	      3085	80001c70	01f78833	add	x16,x15,x31	 x15:0xffff47cb x31:0x80009f54 x16=0x7fffe71f
       30875000	      3086	80001c74	c3c38593	addi	x11,x7,-964	  x7:0x00000181 x11=0xfffffdbd
       30885000	      3087	80001c78	005c4c63	blt	x24,x5,80001c90	 x24:0x0ffffff7  x5:0x911e57cb
       30895000	      3088	80001c7c	01a3c333	xor	x6,x7,x26	  x7:0x00000181 x26:0x40000000  x6=0x40000181
       30905000	      3089	80001c80	0047e4b3	or	x9,x15,x4	 x15:0xffff47cb  x4:0xe9ba91f5  x9=0xffffd7ff
       30915000	      3090	80001c84	009516b3	sll	x13,x10,x9	 x10:0x8000186a  x9:0xffffd7ff x13=0x00000000
       30925000	      3091	80001c88	9dbce597	auipc	x11,0x9dbce	 x11=0x1dbcfc84
       30935000	      3092	80001c8c	01ee1393	slli	x7,x28,0x1e	 x28:0x00000040  x7=0x00000000
       30945000	      3093	80001c90	01a8a533	slt	x10,x17,x26	 x17:0x80009fc4 x26:0x40000000 x10=0x00000001
       30955000	      3094	80001c94	03381e63	bne	x16,x19,80001cd0	 x16:0x7fffe71f x19:0xfffffd6e
       30965000	      3095	00000000	00000013	addi	x0,x0,0	  x0:0x00000000
       30975000	      3096	80001ccc	00000013	addi	x0,x0,0	  x0:0x00000000
       30985000	      3097	80001cd0	00069b13	slli	x22,x13,0x0	 x13:0x00000000 x22=0x00000000
       30995000	      3098	80001cd4	223f3293	sltiu	x5,x30,547	 x30:0x00000000  x5=0x00000001
       31005000	      3099	80001cd8	00011bb3	sll	x23,x2,x0	  x2:0xf0000455  x0:0x00000000 x23=0xf0000455
       31015000	      3100	80001cdc	00259e93	slli	x29,x11,0x2	 x11:0x1dbcfc84 x29=0x76f3f210
       31025000	      3101	80001ce0	7569b517	auipc	x10,0x7569b	 x10=0xf569ccdc
       31035000	      3102	80001ce4	41406613	ori	x12,x0,1044	  x0:0x00000000 x12=0x00000414
       31045000	      3103	80001ce8	0171bab3	sltu	x21,x3,x23	  x3:0xfffff805 x23:0xf0000455 x21=0x00000000
       31055000	      3104	80001cec	01c2a1b3	slt	x3,x5,x28	  x5:0x00000001 x28:0x00000040  x3=0x00000001
       31065000	      3105	80001cf0	000b6433	or	x8,x22,x0	 x22:0x00000000  x0:0x00000000  x8=0x00000000
       31075000	      3106	80001cf4	00bf2bb3	slt	x23,x30,x11	 x30:0x00000000 x11:0x1dbcfc84 x23=0x00000001
       31085000	      3107	80001cf8	7e934e93	xori	x29,x6,2025	  x6:0x40000181 x29=0x40000668
       31095000	      3108	80001cfc	02b4ea63	bltu	x9,x11,80001d30	  x9:0xffffd7ff x11:0x1dbcfc84
       31105000	      3109	80001d00	184e6e13	ori	x28,x28,388	 x28:0x00000040 x28=0x000001c4
       31115000	      3110	80001d04	044f1663	bne	x30,x4,80001d50	 x30:0x00000000  x4:0xe9ba91f5
       31125000	      3111	00000000	00000013	addi	x0,x0,0	  x0:0x00000000
       31135000	      3112	80001d4c	00000013	addi	x0,x0,0	  x0:0x00000000
       31145000	      3113	80001d50	412f5433	sra	x8,x30,x18	 x30:0x00000000 x18:0x07fffa3e  x8=0x00000000
       31155000	      3114	80001d54	017d9113	slli	x2,x27,0x17	 x27:0xfffffc00  x2=0x00000000
       31165000	      3115	80001d58	41f58f33	sub	x30,x11,x31	 x11:0x1dbcfc84 x31:0x80009f54 x30=0x9dbc5d30
       31175000	      3116	80001d5c	034b6263	bltu	x22,x20,80001d80	 x22:0x00000000 x20:0x00000000
       31185000	      3117	80001d60	ba50ee93	ori	x29,x1,-1115	  x1:0x00000001 x29=0xfffffba5
       31195000	      3118	80001d64	00000013	addi	x0,x0,0	  x0:0x00000000
       31205000	      3119	80001d68	00000013	addi	x0,x0,0	  x0:0x00000000
       31215000	      3120	80001d6c	00dbf863	bgeu	x23,x13,80001d7c	 x23:0x00000001 x13:0x00000000
       31225000	      3121	00000000	00000013	addi	x0,x0,0	  x0:0x00000000
       31235000	      3122	80001d78	00000013	addi	x0,x0,0	  x0:0x00000000
       31245000	      3123	80001d7c	40ad5b13	srai	x22,x26,0xa	 x26:0x40000000 x22=0x00100000
       31255000	      3124	80001d80	00b36133	or	x2,x6,x11	  x6:0x40000181 x11:0x1dbcfc84  x2=0x5dbcfd85
       31265000	      3125	80001d84	021e7063	bgeu	x28,x1,80001da4	 x28:0x000001c4  x1:0x00000001
       31275000	      3126	00000000	00000013	addi	x0,x0,0	  x0:0x00000000
       31285000	      3127	80001da0	00000013	addi	x0,x0,0	  x0:0x00000000
       31295000	      3128	80001da4	43993513	sltiu	x10,x18,1081	 x18:0x07fffa3e x10=0x00000000
       31305000	      3129	80001da8	0494f463	bgeu	x9,x9,80001df0	  x9:0xffffd7ff  x9:0xffffd7ff
       31315000	      3130	00000000	00000013	addi	x0,x0,0	  x0:0x00000000
       31325000	      3131	80001dec	00000013	addi	x0,x0,0	  x0:0x00000000
       31335000	      3132	80001df0	0010bcb3	sltu	x25,x1,x1	  x1:0x00000001  x1:0x00000001 x25=0x00000000
       31345000	      3133	80001df4	cb11ab93	slti	x23,x3,-847	  x3:0x00000001 x23=0x00000000
       31355000	      3134	80001df8	03b39a63	bne	x7,x27,80001e2c	  x7:0x00000000 x27:0xfffffc00
       31365000	      3135	00000000	00000013	addi	x0,x0,0	  x0:0x00000000
       31375000	      3136	80001e28	00000013	addi	x0,x0,0	  x0:0x00000000
       31385000	      3137	80001e2c	011a95b3	sll	x11,x21,x17	 x21:0x00000000 x17:0x80009fc4 x11=0x00000000
       31395000	      3138	80001e30	01ce1c13	slli	x24,x28,0x1c	 x28:0x000001c4 x24=0x40000000
       31405000	      3139	80001e34	856a7e17	auipc	x28,0x856a7	 x28=0x056a8e30
       31415000	      3140	80001e38	010300b3	add	x1,x6,x16	  x6:0x40000181 x16:0x7fffe71f  x1=0xbfffe8a0
       31425000	      3141	80001e3c	01b37c63	bgeu	x6,x27,80001e54	  x6:0x40000181 x27:0xfffffc00
       31435000	      3142	80001e40	00631a13	slli	x20,x6,0x6	  x6:0x40000181 x20=0x00006040
       31445000	      3143	80001e44	02f51e63	bne	x10,x15,80001e80	 x10:0x00000000 x15:0xffff47cb
       31455000	      3144	00000000	00000013	addi	x0,x0,0	  x0:0x00000000
       31465000	      3145	80001e7c	00000013	addi	x0,x0,0	  x0:0x00000000
       31475000	      3146	80001e80	00471113	slli	x2,x14,0x4	 x14:0x00000020  x2=0x00000200
       31485000	      3147	80001e84	0307d863	bge	x15,x16,80001eb4	 x15:0xffff47cb x16:0x7fffe71f
       31495000	      3148	80001e88	4098d413	srai	x8,x17,0x9	 x17:0x80009fc4  x8=0xffc0004f
       31505000	      3149	80001e8c	7e8d9397	auipc	x7,0x7e8d9	  x7=0xfe8dae88
       31515000	      3150	80001e90	40b90433	sub	x8,x18,x11	 x18:0x07fffa3e x11:0x00000000  x8=0x07fffa3e
       31525000	      3151	80001e94	00861933	sll	x18,x12,x8	 x12:0x00000414  x8:0x07fffa3e x18=0x00000000
       31535000	      3152	80001e98	3ca2c1b7	lui	x3,0x3ca2c	  x3=0x3ca2c000
       31545000	      3153	80001e9c	0457c063	blt	x15,x5,80001edc	 x15:0xffff47cb  x5:0x00000001
       31555000	      3154	00000000	00000013	addi	x0,x0,0	  x0:0x00000000
       31565000	      3155	80001ed8	00000013	addi	x0,x0,0	  x0:0x00000000
       31575000	      3156	80001edc	2d790913	addi	x18,x18,727	 x18:0x00000000 x18=0x000002d7
       31585000	      3157	80001ee0	0427d463	bge	x15,x2,80001f28	 x15:0xffff47cb  x2:0x00000200
       31595000	      3158	80001ee4	02c37863	bgeu	x6,x12,80001f14	  x6:0x40000181 x12:0x00000414
       31605000	      3159	00000000	00000013	addi	x0,x0,0	  x0:0x00000000
       31615000	      3160	80001f10	00000013	addi	x0,x0,0	  x0:0x00000000
       31625000	      3161	80001f14	d4bf4537	lui	x10,0xd4bf4	 x10=0xd4bf4000
       31635000	      3162	80001f18	005cdc63	bge	x25,x5,80001f30	 x25:0x00000000  x5:0x00000001
       31645000	      3163	80001f1c	005625b3	slt	x11,x12,x5	 x12:0x00000414  x5:0x00000001 x11=0x00000000
       31655000	      3164	80001f20	5d063d13	sltiu	x26,x12,1488	 x12:0x00000414 x26=0x00000001
       31665000	      3165	80001f24	00968033	add	x0,x13,x9	 x13:0x00000000  x9:0xffffd7ff
       31675000	      3166	80001f28	0004f933	and	x18,x9,x0	  x9:0xffffd7ff  x0:0x00000000 x18=0x00000000
       31685000	      3167	80001f2c	0082ed33	or	x26,x5,x8	  x5:0x00000001  x8:0x07fffa3e x26=0x07fffa3f
       31695000	      3168	80001f30	01abd413	srli	x8,x23,0x1a	 x23:0x00000000  x8=0x00000000
       31705000	      3169	80001f34	00cd5313	srli	x6,x26,0xc	 x26:0x07fffa3f  x6=0x00007fff
       31715000	      3170	80001f38	00e8a4b3	slt	x9,x17,x14	 x17:0x80009fc4 x14:0x00000020  x9=0x00000001
       31725000	      3171	80001f3c	01a29713	slli	x14,x5,0x1a	  x5:0x00000001 x14=0x04000000
       31735000	      3172	80001f40	00bae6b3	or	x13,x21,x11	 x21:0x00000000 x11:0x00000000 x13=0x00000000
       31745000	      3173	80001f44	40a25833	sra	x16,x4,x10	  x4:0xe9ba91f5 x10:0xd4bf4000 x16=0xe9ba91f5
       31755000	      3174	80001f48	00625eb3	srl	x29,x4,x6	  x4:0xe9ba91f5  x6:0x00007fff x29=0x00000001
       31765000	      3175	80001f4c	02154263	blt	x10,x1,80001f70	 x10:0xd4bf4000  x1:0xbfffe8a0
       31775000	      3176	80001f50	77a7b617	auipc	x12,0x77a7b	 x12=0xf7a7cf4c
       31785000	      3177	80001f54	ee9fca93	xori	x21,x31,-279	 x31:0x80009f54 x21=0x7fff61bd
       31795000	      3178	80001f58	01bb6a63	bltu	x22,x27,80001f6c	 x22:0x00100000 x27:0xfffffc00
       31805000	      3179	00000000	00000013	addi	x0,x0,0	  x0:0x00000000
       31815000	      3180	80001f68	00000013	addi	x0,x0,0	  x0:0x00000000
       31825000	      3181	80001f6c	01cf1bb3	sll	x23,x30,x28	 x30:0x9dbc5d30 x28:0x056a8e30 x23=0x5d300000
       31835000	      3182	80001f70	d1d2f4b7	lui	x9,0xd1d2f	  x9=0xd1d2f000
       31845000	      3183	80001f74	f16d3413	sltiu	x8,x26,-234	 x26:0x07fffa3f  x8=0x00000001
       31855000	      3184	80001f78	01361a63	bne	x12,x19,80001f8c	 x12:0xf7a7cf4c x19:0xfffffd6e
       31865000	      3185	00000000	00000013	addi	x0,x0,0	  x0:0x00000000
       31875000	      3186	80001f88	00000013	addi	x0,x0,0	  x0:0x00000000
       31885000	      3187	80001f8c	00000013	addi	x0,x0,0	  x0:0x00000000
       31895000	      3188	80001f90	0365de63	bge	x11,x22,80001fcc	 x11:0x00000000 x22:0x00100000
       31905000	      3189	80001f94	00f9d863	bge	x19,x15,80001fa4	 x19:0xfffffd6e x15:0xffff47cb
       31915000	      3190	00000000	00000013	addi	x0,x0,0	  x0:0x00000000
       31925000	      3191	80001fa0	00000013	addi	x0,x0,0	  x0:0x00000000
       31935000	      3192	80001fa4	050dd063	bge	x27,x16,80001fe4	 x27:0xfffffc00 x16:0xe9ba91f5
       31945000	      3193	00000000	00000013	addi	x0,x0,0	  x0:0x00000000
       31955000	      3194	80001fe0	00000013	addi	x0,x0,0	  x0:0x00000000
       31965000	      3195	80001fe4	005dddb3	srl	x27,x27,x5	 x27:0xfffffc00  x5:0x00000001 x27=0x7ffffe00
       31975000	      3196	80001fe8	4f31be17	auipc	x28,0x4f31b	 x28=0xcf31cfe4
       31985000	      3197	80001fec	329a8313	addi	x6,x21,809	 x21:0x7fff61bd  x6=0x7fff64e6
       31995000	      3198	80001ff0	01279d33	sll	x26,x15,x18	 x15:0xffff47cb x18:0x00000000 x26=0xffff47cb
       32005000	      3199	80001ff4	00d2d593	srli	x11,x5,0xd	  x5:0x00000001 x11=0x00000000
       32015000	      3200	80001ff8	a5c92f13	slti	x30,x18,-1444	 x18:0x00000000 x30=0x00000000
       32025000	      3201	80001ffc	02ad7863	bgeu	x26,x10,8000202c	 x26:0xffff47cb x10:0xd4bf4000
       32035000	      3202	00000000	00000013	addi	x0,x0,0	  x0:0x00000000
       32045000	      3203	80002028	00000013	addi	x0,x0,0	  x0:0x00000000
       32055000	      3204	8000202c	01079613	slli	x12,x15,0x10	 x15:0xffff47cb x12=0x47cb0000
       32065000	      3205	80002030	054ce263	bltu	x25,x20,80002074	 x25:0x00000000 x20:0x00006040
       32075000	      3206	00000000	00000013	addi	x0,x0,0	  x0:0x00000000
       32085000	      3207	80002070	00000013	addi	x0,x0,0	  x0:0x00000000
       32095000	      3208	80002074	81200d93	addi	x27,x0,-2030	  x0:0x00000000 x27=0xfffff812
       32105000	      3209	80002078	419f85b3	sub	x11,x31,x25	 x31:0x80009f54 x25:0x00000000 x11=0x80009f54
       32115000	      3210	8000207c	031f4e63	blt	x30,x17,800020b8	 x30:0x00000000 x17:0x80009fc4
       32125000	      3211	80002080	d52c7e13	andi	x28,x24,-686	 x24:0x40000000 x28=0x40000000
       32135000	      3212	80002084	41f65a33	sra	x20,x12,x31	 x12:0x47cb0000 x31:0x80009f54 x20=0x0000047c
       32145000	      3213	80002088	b69a4537	lui	x10,0xb69a4	 x10=0xb69a4000
       32155000	      3214	8000208c	00000013	addi	x0,x0,0	  x0:0x00000000
       32165000	      3215	80002090	eae2ec93	ori	x25,x5,-338	  x5:0x00000001 x25=0xfffffeaf
       32175000	      3216	80002094	03148a63	beq	x9,x17,800020c8	  x9:0xd1d2f000 x17:0x80009fc4
       32185000	      3217	80002098	c409fd13	andi	x26,x19,-960	 x19:0xfffffd6e x26=0xfffffc40
       32195000	      3218	8000209c	0067fa33	and	x20,x15,x6	 x15:0xffff47cb  x6:0x7fff64e6 x20=0x7fff44c2
       32205000	      3219	800020a0	00bb1d33	sll	x26,x22,x11	 x22:0x00100000 x11:0x80009f54 x26=0x00000000
       32215000	      3220	800020a4	00e79c63	bne	x15,x14,800020bc	 x15:0xffff47cb x14:0x04000000
       32225000	      3221	00000000	00000013	addi	x0,x0,0	  x0:0x00000000
       32235000	      3222	800020b8	00000013	addi	x0,x0,0	  x0:0x00000000
       32245000	      3223	800020bc	00000013	addi	x0,x0,0	  x0:0x00000000
       32255000	      3224	800020c0	002cf7b3	and	x15,x25,x2	 x25:0xfffffeaf  x2:0x00000200 x15=0x00000200
       32265000	      3225	800020c4	0149d1b3	srl	x3,x19,x20	 x19:0xfffffd6e x20:0x7fff44c2  x3=0x3fffff5b
       32275000	      3226	800020c8	44d1cd93	xori	x27,x3,1101	  x3:0x3fffff5b x27=0x3ffffb16
       32285000	      3227	800020cc	01221c13	slli	x24,x4,0x12	  x4:0xe9ba91f5 x24=0x47d40000
       32295000	      3228	800020d0	a1618413	addi	x8,x3,-1514	  x3:0x3fffff5b  x8=0x3ffff971
       32305000	      3229	800020d4	16ec0393	addi	x7,x24,366	 x24:0x47d40000  x7=0x47d4016e
       32315000	      3230	800020d8	0a496c63	bltu	x18,x4,80002190	 x18:0x00000000  x4:0xe9ba91f5
       32325000	      3231	00000000	00000013	addi	x0,x0,0	  x0:0x00000000
       32335000	      3232	8000218c	00000013	addi	x0,x0,0	  x0:0x00000000
       32345000	      3233	80002190	038d1063	bne	x26,x24,800021b0	 x26:0x00000000 x24:0x47d40000
       32355000	      3234	00000000	00000013	addi	x0,x0,0	  x0:0x00000000
       32365000	      3235	800021ac	00000013	addi	x0,x0,0	  x0:0x00000000
       32375000	      3236	800021b0	03244263	blt	x8,x18,800021d4	  x8:0x3ffff971 x18:0x00000000
       32385000	      3237	800021b4	006be463	bltu	x23,x6,800021bc	 x23:0x5d300000  x6:0x7fff64e6
       32395000	      3238	00000000	00000013	addi	x0,x0,0	  x0:0x00000000
       32405000	      3239	800021b8	00000013	addi	x0,x0,0	  x0:0x00000000
       32415000	      3240	800021bc	8aa03513	sltiu	x10,x0,-1878	  x0:0x00000000 x10=0x00000001
       32425000	      3241	800021c0	00000013	addi	x0,x0,0	  x0:0x00000000
       32435000	      3242	800021c4	001ad333	srl	x6,x21,x1	 x21:0x7fff61bd  x1:0xbfffe8a0  x6=0x7fff61bd
       32445000	      3243	800021c8	08a24a97	auipc	x21,0x8a24	 x21=0x88a261c4
       32455000	      3244	800021cc	0196e7b3	or	x15,x13,x25	 x13:0x00000000 x25:0xfffffeaf x15=0xfffffeaf
       32465000	      3245	800021d0	00000013	addi	x0,x0,0	  x0:0x00000000
       32475000	      3246	800021d4	05f6a913	slti	x18,x13,95	 x13:0x00000000 x18=0x00000001
       32485000	      3247	800021d8	41f9d2b3	sra	x5,x19,x31	 x19:0xfffffd6e x31:0x80009f54  x5=0xffffffff
       32495000	      3248	800021dc	1aa13193	sltiu	x3,x2,426	  x2:0x00000200  x3=0x00000000
       32505000	      3249	800021e0	828a3793	sltiu	x15,x20,-2008	 x20:0x7fff44c2 x15=0x00000001
       32515000	      3250	800021e4	4c7ab613	sltiu	x12,x21,1223	 x21:0x88a261c4 x12=0x00000000
       32525000	      3251	800021e8	30bebd93	sltiu	x27,x29,779	 x29:0x00000001 x27=0x00000001
       32535000	      3252	800021ec	012f5693	srli	x13,x30,0x12	 x30:0x00000000 x13=0x00000000
       32545000	      3253	800021f0	09a85063	bge	x16,x26,80002270	 x16:0xe9ba91f5 x26:0x00000000
       32555000	      3254	800021f4	00dac1b3	xor	x3,x21,x13	 x21:0x88a261c4 x13:0x00000000  x3=0x88a261c4
       32565000	      3255	800021f8	0419ca63	blt	x19,x1,8000224c	 x19:0xfffffd6e  x1:0xbfffe8a0
       32575000	      3256	800021fc	08b08263	beq	x1,x11,80002280	  x1:0xbfffe8a0 x11:0x80009f54
       32585000	      3257	80002200	0164bab3	sltu	x21,x9,x22	  x9:0xd1d2f000 x22:0x00100000 x21=0x00000000
       32595000	      3258	80002204	08124263	blt	x4,x1,80002288	  x4:0xe9ba91f5  x1:0xbfffe8a0
       32605000	      3259	80002208	014007ef	jal	x15,80002208	 x15=0x80002208
       32615000	      3260	00000000	00000013	addi	x0,x0,0	  x0:0x00000000
       32625000	      3261	80002218	00000013	addi	x0,x0,0	  x0:0x00000000
       32635000	      3262	8000221c	02000f6f	jal	x30,8000221c	 x30=0x8000221c
       32645000	      3263	00000000	00000013	addi	x0,x0,0	  x0:0x00000000
       32655000	      3264	80002238	00000013	addi	x0,x0,0	  x0:0x00000000
       32665000	      3265	8000223c	fedff36f	jal	x6,8000223c	  x6=0x8000223c
       32675000	      3266	00000000	00000013	addi	x0,x0,0	  x0:0x00000000
       32685000	      3267	80002224	00000013	addi	x0,x0,0	  x0:0x00000000
       32695000	      3268	80002228	018002ef	jal	x5,80002228	  x5=0x80002228
       32705000	      3269	00000000	00000013	addi	x0,x0,0	  x0:0x00000000
       32715000	      3270	8000223c	00000013	addi	x0,x0,0	  x0:0x00000000
       32725000	      3271	80002240	fd5ff0ef	jal	x1,80002240	  x1=0x80002240
       32735000	      3272	00000000	00000013	addi	x0,x0,0	  x0:0x00000000
       32745000	      3273	80002210	00000013	addi	x0,x0,0	  x0:0x00000000
       32755000	      3274	80002214	020000ef	jal	x1,80002214	  x1=0x80002214
       32765000	      3275	00000000	00000013	addi	x0,x0,0	  x0:0x00000000
       32775000	      3276	80002230	00000013	addi	x0,x0,0	  x0:0x00000000
       32785000	      3277	80002234	fedff0ef	jal	x1,80002234	  x1=0x80002234
       32795000	      3278	00000000	00000013	addi	x0,x0,0	  x0:0x00000000
       32805000	      3279	8000221c	00000013	addi	x0,x0,0	  x0:0x00000000
       32815000	      3280	80002220	fedffbef	jal	x23,80002220	 x23=0x80002220
       32825000	      3281	00000000	00000013	addi	x0,x0,0	  x0:0x00000000
       32835000	      3282	80002208	00000013	addi	x0,x0,0	  x0:0x00000000
       32845000	      3283	8000220c	024001ef	jal	x3,8000220c	  x3=0x8000220c
       32855000	      3284	00000000	00000013	addi	x0,x0,0	  x0:0x00000000
       32865000	      3285	8000222c	00000013	addi	x0,x0,0	  x0:0x00000000
       32875000	      3286	80002230	fe9ffa6f	jal	x20,80002230	 x20=0x80002230
       32885000	      3287	00000000	00000013	addi	x0,x0,0	  x0:0x00000000
       32895000	      3288	80002214	00000013	addi	x0,x0,0	  x0:0x00000000
       32905000	      3289	80002218	02c000ef	jal	x1,80002218	  x1=0x80002218
       32915000	      3290	00000000	00000013	addi	x0,x0,0	  x0:0x00000000
       32925000	      3291	80002240	00000013	addi	x0,x0,0	  x0:0x00000000
       32935000	      3292	80002244	fe1ff0ef	jal	x1,80002244	  x1=0x80002244
       32945000	      3293	00000000	00000013	addi	x0,x0,0	  x0:0x00000000
       32955000	      3294	80002220	00000013	addi	x0,x0,0	  x0:0x00000000
       32965000	      3295	80002224	008000ef	jal	x1,80002224	  x1=0x80002224
       32975000	      3296	00000000	00000013	addi	x0,x0,0	  x0:0x00000000
       32985000	      3297	80002228	00000013	addi	x0,x0,0	  x0:0x00000000
       32995000	      3298	8000222c	fe5ff0ef	jal	x1,8000222c	  x1=0x8000222c
       33005000	      3299	00000000	00000013	addi	x0,x0,0	  x0:0x00000000
       33015000	      3300	8000220c	00000013	addi	x0,x0,0	  x0:0x00000000
       33025000	      3301	80002210	028000ef	jal	x1,80002210	  x1=0x80002210
       33035000	      3302	00000000	00000013	addi	x0,x0,0	  x0:0x00000000
       33045000	      3303	80002234	00000013	addi	x0,x0,0	  x0:0x00000000
       33055000	      3304	80002238	01000def	jal	x27,80002238	 x27=0x80002238
       33065000	      3305	00000000	00000013	addi	x0,x0,0	  x0:0x00000000
       33075000	      3306	80002244	00000013	addi	x0,x0,0	  x0:0x00000000
       33085000	      3307	80002248	00febf33	sltu	x30,x29,x15	 x29:0x00000001 x15:0x80002208 x30=0x00000001
       33095000	      3308	8000224c	01aacc63	blt	x21,x26,80002264	 x21:0x00000000 x26:0x00000000
       33105000	      3309	80002250	00a24a63	blt	x4,x10,80002264	  x4:0xe9ba91f5 x10:0x00000001
       33115000	      3310	00000000	00000013	addi	x0,x0,0	  x0:0x00000000
       33125000	      3311	80002260	00000013	addi	x0,x0,0	  x0:0x00000000
       33135000	      3312	80002264	007e03b3	add	x7,x28,x7	 x28:0x40000000  x7:0x47d4016e  x7=0x87d4016e
       33145000	      3313	80002268	00ec63b3	or	x7,x24,x14	 x24:0x47d40000 x14:0x04000000  x7=0x47d40000
       33155000	      3314	8000226c	f9ca2e93	slti	x29,x20,-100	 x20:0x80002230 x29=0x00000001
       33165000	      3315	80002270	c1d4b197	auipc	x3,0xc1d4b	  x3=0x41d4d26c
       33175000	      3316	80002274	009d16b3	sll	x13,x26,x9	 x26:0x00000000  x9:0xd1d2f000 x13=0x00000000
       33185000	      3317	80002278	0037b2b3	sltu	x5,x15,x3	 x15:0x80002208  x3:0x41d4d26c  x5=0x00000000
       33195000	      3318	8000227c	a7bb7717	auipc	x14,0xa7bb7	 x14=0x27bb9278
       33205000	      3319	80002280	018d1e63	bne	x26,x24,8000229c	 x26:0x00000000 x24:0x47d40000
       33215000	      3320	00000000	00000013	addi	x0,x0,0	  x0:0x00000000
       33225000	      3321	80002298	00000013	addi	x0,x0,0	  x0:0x00000000
       33235000	      3322	8000229c	366a8e17	auipc	x28,0x366a8	 x28=0xb66aa298
       33245000	      3323	800022a0	01b5cc63	blt	x11,x27,800022b8	 x11:0x80009f54 x27:0x80002238
       33255000	      3324	800022a4	04954463	blt	x10,x9,800022ec	 x10:0x00000001  x9:0xd1d2f000
       33265000	      3325	800022a8	01e4e663	bltu	x9,x30,800022b4	  x9:0xd1d2f000 x30:0x00000001
       33275000	      3326	800022ac	047ac137	lui	x2,0x47ac	  x2=0x047ac000
       33285000	      3327	800022b0	40c15613	srai	x12,x2,0xc	  x2:0x047ac000 x12=0x000047ac
       33295000	      3328	800022b4	00000013	addi	x0,x0,0	  x0:0x00000000
       33305000	      3329	800022b8	7345bdb7	lui	x27,0x7345b	 x27=0x7345b000
       33315000	      3330	800022bc	01e6acb3	slt	x25,x13,x30	 x13:0x00000000 x30:0x00000001 x25=0x00000001
       33325000	      3331	800022c0	0ed6ce17	auipc	x28,0xed6c	 x28=0x8ed6e2bc
       33335000	      3332	800022c4	01310eb3	add	x29,x2,x19	  x2:0x047ac000 x19:0xfffffd6e x29=0x047abd6e
       33345000	      3333	800022c8	01954bb3	xor	x23,x10,x25	 x10:0x00000001 x25:0x00000001 x23=0x00000000
       33355000	      3334	800022cc	030a6863	bltu	x20,x16,800022fc	 x20:0x80002230 x16:0xe9ba91f5
       33365000	      3335	00000000	00000013	addi	x0,x0,0	  x0:0x00000000
       33375000	      3336	800022f8	00000013	addi	x0,x0,0	  x0:0x00000000
       33385000	      3337	800022fc	01ab1733	sll	x14,x22,x26	 x22:0x00100000 x26:0x00000000 x14=0x00100000
       33395000	      3338	80002300	014f9513	slli	x10,x31,0x14	 x31:0x80009f54 x10=0xf5400000
       33405000	      3339	80002304	00314863	blt	x2,x3,80002314	  x2:0x047ac000  x3:0x41d4d26c
       33415000	      3340	00000000	00000013	addi	x0,x0,0	  x0:0x00000000
       33425000	      3341	80002310	00000013	addi	x0,x0,0	  x0:0x00000000
       33435000	      3342	80002314	01d1e833	or	x16,x3,x29	  x3:0x41d4d26c x29:0x047abd6e x16=0x45feff6e
       33445000	      3343	80002318	00388633	add	x12,x17,x3	 x17:0x80009fc4  x3:0x41d4d26c x12=0xc1d57230
       33455000	      3344	8000231c	7187c5b7	lui	x11,0x7187c	 x11=0x7187c000
       33465000	      3345	80002320	00000013	addi	x0,x0,0	  x0:0x00000000
       33475000	      3346	80002324	0149d913	srli	x18,x19,0x14	 x19:0xfffffd6e x18=0x00000fff
       33485000	      3347	80002328	05e94863	blt	x18,x30,80002378	 x18:0x00000fff x30:0x00000001
       33495000	      3348	8000232c	0013b7b3	sltu	x15,x7,x1	  x7:0x47d40000  x1:0x80002210 x15=0x00000001
       33505000	      3349	80002330	0180f633	and	x12,x1,x24	  x1:0x80002210 x24:0x47d40000 x12=0x00000000
       33515000	      3350	80002334	012283b3	add	x7,x5,x18	  x5:0x00000000 x18:0x00000fff  x7=0x00000fff
       33525000	      3351	80002338	01d8d933	srl	x18,x17,x29	 x17:0x80009fc4 x29:0x047abd6e x18=0x00020002
       33535000	      3352	8000233c	68ffeb93	ori	x23,x31,1679	 x31:0x80009f54 x23=0x80009fdf
       33545000	      3353	80002340	f3081c97	auipc	x25,0xf3081	 x25=0x7308333c
       33555000	      3354	80002344	edce6593	ori	x11,x28,-292	 x28:0x8ed6e2bc x11=0xfffffefc
       33565000	      3355	80002348	c4052e93	slti	x29,x10,-960	 x10:0xf5400000 x29=0x00000001
       33575000	      3356	8000234c	40fdd5b3	sra	x11,x27,x15	 x27:0x7345b000 x15:0x00000001 x11=0x39a2d800
       33585000	      3357	80002350	04406063	bltu	x0,x4,80002390	  x0:0x00000000  x4:0xe9ba91f5
       33595000	      3358	00000000	00000013	addi	x0,x0,0	  x0:0x00000000
       33605000	      3359	8000238c	00000013	addi	x0,x0,0	  x0:0x00000000
       33615000	      3360	80002390	5438e713	ori	x14,x17,1347	 x17:0x80009fc4 x14=0x80009fc7
       33625000	      3361	80002394	01d1d113	srli	x2,x3,0x1d	  x3:0x41d4d26c  x2=0x00000002
       33635000	      3362	80002398	00000013	addi	x0,x0,0	  x0:0x00000000
       33645000	      3363	8000239c	00b597b3	sll	x15,x11,x11	 x11:0x39a2d800 x11:0x39a2d800 x15=0x39a2d800
       33655000	      3364	800023a0	006d3933	sltu	x18,x26,x6	 x26:0x00000000  x6:0x8000223c x18=0x00000001
       33665000	      3365	800023a4	010a3333	sltu	x6,x20,x16	 x20:0x80002230 x16:0x45feff6e  x6=0x00000000
       33675000	      3366	800023a8	c9e74713	xori	x14,x14,-866	 x14:0x80009fc7 x14=0x7fff6359
       33685000	      3367	800023ac	7903c613	xori	x12,x7,1936	  x7:0x00000fff x12=0x0000086f
       33695000	      3368	800023b0	b5a7f793	andi	x15,x15,-1190	 x15:0x39a2d800 x15=0x39a2d800
       33705000	      3369	800023b4	f5136913	ori	x18,x6,-175	  x6:0x00000000 x18=0xffffff51
       33715000	      3370	800023b8	00bdfc33	and	x24,x27,x11	 x27:0x7345b000 x11:0x39a2d800 x24=0x31009000
       33725000	      3371	800023bc	00676c63	bltu	x14,x6,800023d4	 x14:0x7fff6359  x6:0x00000000
       33735000	      3372	800023c0	0082be33	sltu	x28,x5,x8	  x5:0x00000000  x8:0x3ffff971 x28=0x00000001
       33745000	      3373	800023c4	0028da13	srli	x20,x17,0x2	 x17:0x80009fc4 x20=0x200027f1
       33755000	      3374	800023c8	047ec063	blt	x29,x7,80002408	 x29:0x00000001  x7:0x00000fff
       33765000	      3375	00000000	00000013	addi	x0,x0,0	  x0:0x00000000
       33775000	      3376	80002404	00000013	addi	x0,x0,0	  x0:0x00000000
       33785000	      3377	80002408	4005deb3	sra	x29,x11,x0	 x11:0x39a2d800  x0:0x00000000 x29=0x39a2d800
       33795000	      3378	8000240c	cd336a93	ori	x21,x6,-813	  x6:0x00000000 x21=0xfffffcd3
       33805000	      3379	80002410	40a30bb3	sub	x23,x6,x10	  x6:0x00000000 x10:0xf5400000 x23=0x0ac00000
       33815000	      3380	80002414	03b04263	blt	x0,x27,80002438	  x0:0x00000000 x27:0x7345b000
       33825000	      3381	00000000	00000013	addi	x0,x0,0	  x0:0x00000000
       33835000	      3382	80002434	00000013	addi	x0,x0,0	  x0:0x00000000
       33845000	      3383	80002438	003e5863	bge	x28,x3,80002448	 x28:0x00000001  x3:0x41d4d26c
       33855000	      3384	8000243c	02758e63	beq	x11,x7,80002478	 x11:0x39a2d800  x7:0x00000fff
       33865000	      3385	80002440	49f1a093	slti	x1,x3,1183	  x3:0x41d4d26c  x1=0x00000000
       33875000	      3386	80002444	0188feb3	and	x29,x17,x24	 x17:0x80009fc4 x24:0x31009000 x29=0x00009000
       33885000	      3387	80002448	00e66a33	or	x20,x12,x14	 x12:0x0000086f x14:0x7fff6359 x20=0x7fff6b7f
       33895000	      3388	8000244c	7e2ef293	andi	x5,x29,2018	 x29:0x00009000  x5=0x00000000
       33905000	      3389	80002450	0bc3f517	auipc	x10,0xbc3f	 x10=0x8bc4144c
       33915000	      3390	80002454	0048c433	xor	x8,x17,x4	 x17:0x80009fc4  x4:0xe9ba91f5  x8=0x69ba0e31
       33925000	      3391	80002458	20c4f117	auipc	x2,0x20c4f	  x2=0xa0c51454
       33935000	      3392	8000245c	01f2a833	slt	x16,x5,x31	  x5:0x00000000 x31:0x80009f54 x16=0x00000000
       33945000	      3393	80002460	0124c033	xor	x0,x9,x18	  x9:0xd1d2f000 x18:0xffffff51
       33955000	      3394	80002464	54061997	auipc	x19,0x54061	 x19=0xd4063460
       33965000	      3395	80002468	0767a837	lui	x16,0x767a	 x16=0x0767a000
       33975000	      3396	8000246c	20bc1317	auipc	x6,0x20bc1	  x6=0xa0bc3468
       33985000	      3397	80002470	e8ef4093	xori	x1,x30,-370	 x30:0x00000001  x1=0xfffffe8f
       33995000	      3398	80002474	00747a63	bgeu	x8,x7,80002488	  x8:0x69ba0e31  x7:0x00000fff
       34005000	      3399	00000000	00000013	addi	x0,x0,0	  x0:0x00000000
       34015000	      3400	80002484	00000013	addi	x0,x0,0	  x0:0x00000000
       34025000	      3401	80002488	010e9d93	slli	x27,x29,0x10	 x29:0x00009000 x27=0x90000000
       34035000	      3402	8000248c	012591b3	sll	x3,x11,x18	 x11:0x39a2d800 x18:0xffffff51  x3=0xb0000000
       34045000	      3403	80002490	b4ab4813	xori	x16,x22,-1206	 x22:0x00100000 x16=0xffeffb4a
       34055000	      3404	80002494	1b460b93	addi	x23,x12,436	 x12:0x0000086f x23=0x00000a23
       34065000	      3405	80002498	40580e33	sub	x28,x16,x5	 x16:0xffeffb4a  x5:0x00000000 x28=0xffeffb4a
       34075000	      3406	8000249c	0034d663	bge	x9,x3,800024a8	  x9:0xd1d2f000  x3:0xb0000000
       34085000	      3407	00000000	00000013	addi	x0,x0,0	  x0:0x00000000
       34095000	      3408	800024a4	00000013	addi	x0,x0,0	  x0:0x00000000
       34105000	      3409	800024a8	7b858b93	addi	x23,x11,1976	 x11:0x39a2d800 x23=0x39a2dfb8
       34115000	      3410	800024ac	034ff863	bgeu	x31,x20,800024dc	 x31:0x80009f54 x20:0x7fff6b7f
       34125000	      3411	00000000	00000013	addi	x0,x0,0	  x0:0x00000000
       34135000	      3412	800024d8	00000013	addi	x0,x0,0	  x0:0x00000000
       34145000	      3413	800024dc	01cc76b3	and	x13,x24,x28	 x24:0x31009000 x28:0xffeffb4a x13=0x31009000
       34155000	      3414	800024e0	00421333	sll	x6,x4,x4	  x4:0xe9ba91f5  x4:0xe9ba91f5  x6=0x3ea00000
       34165000	      3415	800024e4	011cc433	xor	x8,x25,x17	 x25:0x7308333c x17:0x80009fc4  x8=0xf308acf8
       34175000	      3416	800024e8	05dc4263	blt	x24,x29,8000252c	 x24:0x31009000 x29:0x00009000
       34185000	      3417	800024ec	01564833	xor	x16,x12,x21	 x12:0x0000086f x21:0xfffffcd3 x16=0xfffff4bc
       34195000	      3418	800024f0	ca326d97	auipc	x27,0xca326	 x27=0x4a3284ec
       34205000	      3419	800024f4	0101b133	sltu	x2,x3,x16	  x3:0xb0000000 x16:0xfffff4bc  x2=0x00000001
       34215000	      3420	800024f8	41f505b3	sub	x11,x10,x31	 x10:0x8bc4144c x31:0x80009f54 x11=0x0bc374f8
       34225000	      3421	800024fc	e50f0113	addi	x2,x30,-432	 x30:0x00000001  x2=0xfffffe51
       34235000	      3422	80002500	6ac63493	sltiu	x9,x12,1708	 x12:0x0000086f  x9=0x00000000
       34245000	      3423	80002504	413587b3	sub	x15,x11,x19	 x11:0x0bc374f8 x19:0xd4063460 x15=0x37bd4098
       34255000	      3424	80002508	01b00f33	add	x30,x0,x27	  x0:0x00000000 x27:0x4a3284ec x30=0x4a3284ec
       34265000	      3425	8000250c	028b4a63	blt	x22,x8,80002540	 x22:0x00100000  x8:0xf308acf8
       34275000	      3426	80002510	41b05693	srai	x13,x0,0x1b	  x0:0x00000000 x13=0x00000000
       34285000	      3427	80002514	8864ae13	slti	x28,x9,-1914	  x9:0x00000000 x28=0x00000000
       34295000	      3428	80002518	41625f33	sra	x30,x4,x22	  x4:0xe9ba91f5 x22:0x00100000 x30=0xe9ba91f5
       34305000	      3429	8000251c	40f20033	sub	x0,x4,x15	  x4:0xe9ba91f5 x15:0x37bd4098
       34315000	      3430	80002520	410e8733	sub	x14,x29,x16	 x29:0x00009000 x16:0xfffff4bc x14=0x00009b44
       34325000	      3431	80002524	408e06b3	sub	x13,x28,x8	 x28:0x00000000  x8:0xf308acf8 x13=0x0cf75308
       34335000	      3432	80002528	416b0533	sub	x10,x22,x22	 x22:0x00100000 x22:0x00100000 x10=0x00000000
       34345000	      3433	8000252c	f624e693	ori	x13,x9,-158	  x9:0x00000000 x13=0xffffff62
       34355000	      3434	80002530	012b9433	sll	x8,x23,x18	 x23:0x39a2dfb8 x18:0xffffff51  x8=0xbf700000
       34365000	      3435	80002534	810fb117	auipc	x2,0x810fb	  x2=0x010fd530
       34375000	      3436	80002538	25edfe13	andi	x28,x27,606	 x27:0x4a3284ec x28=0x0000004c
       34385000	      3437	8000253c	f768fd93	andi	x27,x17,-138	 x17:0x80009fc4 x27=0x80009f44
       34395000	      3438	80002540	011f0933	add	x18,x30,x17	 x30:0xe9ba91f5 x17:0x80009fc4 x18=0x69bb31b9
       34405000	      3439	80002544	40edd313	srai	x6,x27,0xe	 x27:0x80009f44  x6=0xfffe0002
       34415000	      3440	80002548	0065a633	slt	x12,x11,x6	 x11:0x0bc374f8  x6:0xfffe0002 x12=0x00000000
       34425000	      3441	8000254c	0411c463	blt	x3,x1,80002594	  x3:0xb0000000  x1:0xfffffe8f
       34435000	      3442	00000000	00000013	addi	x0,x0,0	  x0:0x00000000
       34445000	      3443	80002590	00000013	addi	x0,x0,0	  x0:0x00000000
       34455000	      3444	80002594	401ad093	srai	x1,x21,0x1	 x21:0xfffffcd3  x1=0xfffffe69
       34465000	      3445	80002598	f1a30593	addi	x11,x6,-230	  x6:0xfffe0002 x11=0xfffdff1c
       34475000	      3446	8000259c	004df333	and	x6,x27,x4	 x27:0x80009f44  x4:0xe9ba91f5  x6=0x80009144
       34485000	      3447	800025a0	00d7ad33	slt	x26,x15,x13	 x15:0x37bd4098 x13:0xffffff62 x26=0x00000000
       34495000	      3448	800025a4	6d52ab93	slti	x23,x5,1749	  x5:0x00000000 x23=0x00000001
       34505000	      3449	800025a8	013c3c33	sltu	x24,x24,x19	 x24:0x31009000 x19:0xd4063460 x24=0x00000001
       34515000	      3450	800025ac	52800c93	addi	x25,x0,1320	  x0:0x00000000 x25=0x00000528
       34525000	      3451	800025b0	003cd7b3	srl	x15,x25,x3	 x25:0x00000528  x3:0xb0000000 x15=0x00000528
       34535000	      3452	800025b4	40add0b3	sra	x1,x27,x10	 x27:0x80009f44 x10:0x00000000  x1=0x80009f44
       34545000	      3453	800025b8	002d6633	or	x12,x26,x2	 x26:0x00000000  x2:0x010fd530 x12=0x010fd530
       34555000	      3454	800025bc	f04fc313	xori	x6,x31,-252	 x31:0x80009f54  x6=0x7fff6050
       34565000	      3455	800025c0	01527c63	bgeu	x4,x21,800025d8	  x4:0xe9ba91f5 x21:0xfffffcd3
       34575000	      3456	800025c4	01a3d4b3	srl	x9,x7,x26	  x7:0x00000fff x26:0x00000000  x9=0x00000fff
       34585000	      3457	800025c8	8366c517	auipc	x10,0x8366c	 x10=0x0366e5c4
       34595000	      3458	800025cc	008640b3	xor	x1,x12,x8	 x12:0x010fd530  x8:0xbf700000  x1=0xbe7fd530
       34605000	      3459	800025d0	01943033	sltu	x0,x8,x25	  x8:0xbf700000 x25:0x00000528
       34615000	      3460	800025d4	bc643493	sltiu	x9,x8,-1082	  x8:0xbf700000  x9=0x00000001
       34625000	      3461	800025d8	defa1d97	auipc	x27,0xdefa1	 x27=0x5efa35d4
       34635000	      3462	800025dc	007e0833	add	x16,x28,x7	 x28:0x0000004c  x7:0x00000fff x16=0x0000104b
       34645000	      3463	800025e0	41268eb3	sub	x29,x13,x18	 x13:0xffffff62 x18:0x69bb31b9 x29=0x9644cda9
       34655000	      3464	800025e4	016f6863	bltu	x30,x22,800025f4	 x30:0xe9ba91f5 x22:0x00100000
       34665000	      3465	800025e8	40aa5093	srai	x1,x20,0xa	 x20:0x7fff6b7f  x1=0x001fffda
       34675000	      3466	800025ec	001c1cb3	sll	x25,x24,x1	 x24:0x00000001  x1:0x001fffda x25=0x04000000
       34685000	      3467	800025f0	b7543a93	sltiu	x21,x8,-1163	  x8:0xbf700000 x21=0x00000001
       34695000	      3468	800025f4	02bf8863	beq	x31,x11,80002624	 x31:0x80009f54 x11:0xfffdff1c
       34705000	      3469	800025f8	00f8a033	slt	x0,x17,x15	 x17:0x80009fc4 x15:0x00000528
       34715000	      3470	800025fc	006e0833	add	x16,x28,x6	 x28:0x0000004c  x6:0x7fff6050 x16=0x7fff609c
       34725000	      3471	80002600	003871b3	and	x3,x16,x3	 x16:0x7fff609c  x3:0xb0000000  x3=0x30000000
       34735000	      3472	80002604	3caec293	xori	x5,x29,970	 x29:0x9644cda9  x5=0x9644ce63
       34745000	      3473	80002608	012c1513	slli	x10,x24,0x12	 x24:0x00000001 x10=0x00040000
       34755000	      3474	8000260c	d19cc913	xori	x18,x25,-743	 x25:0x04000000 x18=0xfbfffd19
       34765000	      3475	80002610	009f5733	srl	x14,x30,x9	 x30:0xe9ba91f5  x9:0x00000001 x14=0x74dd48fa
       34775000	      3476	80002614	d890a013	slti	x0,x1,-631	  x1:0x001fffda
       34785000	      3477	80002618	00fe3c33	sltu	x24,x28,x15	 x28:0x0000004c x15:0x00000528 x24=0x00000001
       34795000	      3478	8000261c	4039d193	srai	x3,x19,0x3	 x19:0xd4063460  x3=0xfa80c68c
       34805000	      3479	80002620	2d7af913	andi	x18,x21,727	 x21:0x00000001 x18=0x00000001
       34815000	      3480	80002624	00921ab3	sll	x21,x4,x9	  x4:0xe9ba91f5  x9:0x00000001 x21=0xd37523ea
       34825000	      3481	80002628	b2864913	xori	x18,x12,-1240	 x12:0x010fd530 x18=0xfef02e18
       34835000	      3482	8000262c	01dcb833	sltu	x16,x25,x29	 x25:0x04000000 x29:0x9644cda9 x16=0x00000001
       34845000	      3483	80002630	41a4d433	sra	x8,x9,x26	  x9:0x00000001 x26:0x00000000  x8=0x00000001
       34855000	      3484	80002634	01c16cb3	or	x25,x2,x28	  x2:0x010fd530 x28:0x0000004c x25=0x010fd57c
       34865000	      3485	80002638	0021dc63	bge	x3,x2,80002650	  x3:0xfa80c68c  x2:0x010fd530
       34875000	      3486	8000263c	3d6f7a93	andi	x21,x30,982	 x30:0xe9ba91f5 x21=0x000001d4
       34885000	      3487	80002640	01c0de33	srl	x28,x1,x28	  x1:0x001fffda x28:0x0000004c x28=0x000001ff
       34895000	      3488	80002644	01a39d33	sll	x26,x7,x26	  x7:0x00000fff x26:0x00000000 x26=0x00000fff
       34905000	      3489	80002648	01e57c63	bgeu	x10,x30,80002660	 x10:0x00040000 x30:0xe9ba91f5
       34915000	      3490	8000264c	41415293	srai	x5,x2,0x14	  x2:0x010fd530  x5=0x00000010
       34925000	      3491	80002650	35e9be13	sltiu	x28,x19,862	 x19:0xd4063460 x28=0x00000000
       34935000	      3492	80002654	00000013	addi	x0,x0,0	  x0:0x00000000
       34945000	      3493	80002658	02a85a63	bge	x16,x10,8000268c	 x16:0x00000001 x10:0x00040000
       34955000	      3494	8000265c	379af013	andi	x0,x21,889	 x21:0x000001d4
       34965000	      3495	80002660	03a28263	beq	x5,x26,80002684	  x5:0x00000010 x26:0x00000fff
       34975000	      3496	80002664	c53c8b93	addi	x23,x25,-941	 x25:0x010fd57c x23=0x010fd1cf
       34985000	      3497	80002668	006b6db3	or	x27,x22,x6	 x22:0x00100000  x6:0x7fff6050 x27=0x7fff6050
       34995000	      3498	8000266c	001dfa63	bgeu	x27,x1,80002680	 x27:0x7fff6050  x1:0x001fffda
       35005000	      3499	00000000	00000013	addi	x0,x0,0	  x0:0x00000000
       35015000	      3500	8000267c	00000013	addi	x0,x0,0	  x0:0x00000000
       35025000	      3501	80002680	1ba62d13	slti	x26,x12,442	 x12:0x010fd530 x26=0x00000000
       35035000	      3502	80002684	4be86393	ori	x7,x16,1214	 x16:0x00000001  x7=0x000004bf
       35045000	      3503	80002688	d8de6137	lui	x2,0xd8de6	  x2=0xd8de6000
       35055000	      3504	8000268c	a205b713	sltiu	x14,x11,-1504	 x11:0xfffdff1c x14=0x00000001
       35065000	      3505	80002690	01a646b3	xor	x13,x12,x26	 x12:0x010fd530 x26:0x00000000 x13=0x010fd530
       35075000	      3506	80002694	01d75113	srli	x2,x14,0x1d	 x14:0x00000001  x2=0x00000000
       35085000	      3507	80002698	40685d93	srai	x27,x16,0x6	 x16:0x00000001 x27=0x00000000
       35095000	      3508	8000269c	39aa2613	slti	x12,x20,922	 x20:0x7fff6b7f x12=0x00000000
       35105000	      3509	800026a0	ec6fc993	xori	x19,x31,-314	 x31:0x80009f54 x19=0x7fff6192
       35115000	      3510	800026a4	d8522a13	slti	x20,x4,-635	  x4:0xe9ba91f5 x20=0x00000001
       35125000	      3511	800026a8	04cb8663	beq	x23,x12,800026f4	 x23:0x010fd1cf x12:0x00000000
       35135000	      3512	800026ac	40cfd393	srai	x7,x31,0xc	 x31:0x80009f54  x7=0xfff80009
       35145000	      3513	800026b0	ea65bc93	sltiu	x25,x11,-346	 x11:0xfffdff1c x25=0x00000001
       35155000	      3514	800026b4	41c953b3	sra	x7,x18,x28	 x18:0xfef02e18 x28:0x00000000  x7=0xfef02e18
       35165000	      3515	800026b8	0585f063	bgeu	x11,x24,800026f8	 x11:0xfffdff1c x24:0x00000001
       35175000	      3516	00000000	00000013	addi	x0,x0,0	  x0:0x00000000
       35185000	      3517	800026f4	00000013	addi	x0,x0,0	  x0:0x00000000
       35195000	      3518	800026f8	007f7633	and	x12,x30,x7	 x30:0xe9ba91f5  x7:0xfef02e18 x12=0xe8b00010
       35205000	      3519	800026fc	01e46c63	bltu	x8,x30,80002714	  x8:0x00000001 x30:0xe9ba91f5
       35215000	      3520	00000000	00000013	addi	x0,x0,0	  x0:0x00000000
       35225000	      3521	80002710	00000013	addi	x0,x0,0	  x0:0x00000000
       35235000	      3522	80002714	0019acb3	slt	x25,x19,x1	 x19:0x7fff6192  x1:0x001fffda x25=0x00000000
       35245000	      3523	80002718	9f42f137	lui	x2,0x9f42f	  x2=0x9f42f000
       35255000	      3524	8000271c	006997b3	sll	x15,x19,x6	 x19:0x7fff6192  x6:0x7fff6050 x15=0x61920000
       35265000	      3525	80002720	014b9ab3	sll	x21,x23,x20	 x23:0x010fd1cf x20:0x00000001 x21=0x021fa39e
       35275000	      3526	80002724	01cf5b33	srl	x22,x30,x28	 x30:0xe9ba91f5 x28:0x00000000 x22=0xe9ba91f5
       35285000	      3527	80002728	0faa7813	andi	x16,x20,250	 x20:0x00000001 x16=0x00000000
       35295000	      3528	8000272c	3849e813	ori	x16,x19,900	 x19:0x7fff6192 x16=0x7fff6396
       35305000	      3529	80002730	41c4d313	srai	x6,x9,0x1c	  x9:0x00000001  x6=0x00000000
       35315000	      3530	80002734	01ecea63	bltu	x25,x30,80002748	 x25:0x00000000 x30:0xe9ba91f5
       35325000	      3531	00000000	00000013	addi	x0,x0,0	  x0:0x00000000
       35335000	      3532	80002744	00000013	addi	x0,x0,0	  x0:0x00000000
       35345000	      3533	80002748	035c0e63	beq	x24,x21,80002784	 x24:0x00000001 x21:0x021fa39e
       35355000	      3534	8000274c	4163da13	srai	x20,x7,0x16	  x7:0xfef02e18 x20=0xfffffffb
       35365000	      3535	80002750	00ba3e33	sltu	x28,x20,x11	 x20:0xfffffffb x11:0xfffdff1c x28=0x00000000
       35375000	      3536	80002754	05dc5063	bge	x24,x29,80002794	 x24:0x00000001 x29:0x9644cda9
       35385000	      3537	00000000	00000013	addi	x0,x0,0	  x0:0x00000000
       35395000	      3538	80002790	00000013	addi	x0,x0,0	  x0:0x00000000
       35405000	      3539	80002794	00665093	srli	x1,x12,0x6	 x12:0xe8b00010  x1=0x03a2c000
       35415000	      3540	80002798	017f5833	srl	x16,x30,x23	 x30:0xe9ba91f5 x23:0x010fd1cf x16=0x0001d375
       35425000	      3541	8000279c	016e8c33	add	x24,x29,x22	 x29:0x9644cda9 x22:0xe9ba91f5 x24=0x7fff5f9e
       35435000	      3542	800027a0	40170d33	sub	x26,x14,x1	 x14:0x00000001  x1:0x03a2c000 x26=0xfc5d4001
       35445000	      3543	800027a4	010d65b3	or	x11,x26,x16	 x26:0xfc5d4001 x16:0x0001d375 x11=0xfc5dd375
       35455000	      3544	800027a8	48a92e93	slti	x29,x18,1162	 x18:0xfef02e18 x29=0x00000001
       35465000	      3545	800027ac	ed0cf913	andi	x18,x25,-304	 x25:0x00000000 x18=0x00000000
       35475000	      3546	800027b0	5bfa0913	addi	x18,x20,1471	 x20:0xfffffffb x18=0x000005ba
       35485000	      3547	800027b4	0121d833	srl	x16,x3,x18	  x3:0xfa80c68c x18:0x000005ba x16=0x0000003e
       35495000	      3548	800027b8	818c1597	auipc	x11,0x818c1	 x11=0x018c37b4
       35505000	      3549	800027bc	35ea6a13	ori	x20,x20,862	 x20:0xfffffffb x20=0xffffffff
       35515000	      3550	800027c0	023c5063	bge	x24,x3,800027e0	 x24:0x7fff5f9e  x3:0xfa80c68c
       35525000	      3551	00000000	00000013	addi	x0,x0,0	  x0:0x00000000
       35535000	      3552	800027dc	00000013	addi	x0,x0,0	  x0:0x00000000
       35545000	      3553	800027e0	6bc5df17	auipc	x30,0x6bc5d	 x30=0xebc5f7dc
       35555000	      3554	800027e4	fd4bc693	xori	x13,x23,-44	 x23:0x010fd1cf x13=0xfef02e1b
       35565000	      3555	800027e8	0020aeb3	slt	x29,x1,x2	  x1:0x03a2c000  x2:0x9f42f000 x29=0x00000000
       35575000	      3556	800027ec	04f7e263	bltu	x15,x15,80002830	 x15:0x61920000 x15:0x61920000
       35585000	      3557	800027f0	01e12bb3	slt	x23,x2,x30	  x2:0x9f42f000 x30:0xebc5f7dc x23=0x00000001
       35595000	      3558	800027f4	012637b3	sltu	x15,x12,x18	 x12:0xe8b00010 x18:0x000005ba x15=0x00000000
       35605000	      3559	800027f8	415a5db3	sra	x27,x20,x21	 x20:0xffffffff x21:0x021fa39e x27=0xffffffff
       35615000	      3560	800027fc	01909a93	slli	x21,x1,0x19	  x1:0x03a2c000 x21=0x00000000
       35625000	      3561	80002800	019c4a33	xor	x20,x24,x25	 x24:0x7fff5f9e x25:0x00000000 x20=0x7fff5f9e
       35635000	      3562	80002804	a5a6cc93	xori	x25,x13,-1446	 x13:0xfef02e1b x25=0x010fd441
       35645000	      3563	80002808	01a78e63	beq	x15,x26,80002824	 x15:0x00000000 x26:0xfc5d4001
       35655000	      3564	8000280c	44a18313	addi	x6,x3,1098	  x3:0xfa80c68c  x6=0xfa80cad6
       35665000	      3565	80002810	00000013	addi	x0,x0,0	  x0:0x00000000
       35675000	      3566	80002814	00805e33	srl	x28,x0,x8	  x0:0x00000000  x8:0x00000001 x28=0x00000000
       35685000	      3567	80002818	698e6e13	ori	x28,x28,1688	 x28:0x00000000 x28=0x00000698
       35695000	      3568	8000281c	059de863	bltu	x27,x25,8000286c	 x27:0xffffffff x25:0x010fd441
       35705000	      3569	80002820	034aa813	slti	x16,x21,52	 x21:0x00000000 x16=0x00000001
       35715000	      3570	80002824	004cbab3	sltu	x21,x25,x4	 x25:0x010fd441  x4:0xe9ba91f5 x21=0x00000001
       35725000	      3571	80002828	a75b6617	auipc	x12,0xa75b6	 x12=0x275b8824
       35735000	      3572	8000282c	0124e4b3	or	x9,x9,x18	  x9:0x00000001 x18:0x000005ba  x9=0x000005bb
       35745000	      3573	80002830	79dd2d13	slti	x26,x26,1949	 x26:0xfc5d4001 x26=0x00000001
       35755000	      3574	80002834	00000013	addi	x0,x0,0	  x0:0x00000000
       35765000	      3575	80002838	b9cd0693	addi	x13,x26,-1124	 x26:0x00000001 x13=0xfffffb9d
       35775000	      3576	8000283c	00dcf463	bgeu	x25,x13,80002844	 x25:0x010fd441 x13:0xfffffb9d
       35785000	      3577	80002840	41858593	addi	x11,x11,1048	 x11:0x018c37b4 x11=0x018c3bcc
       35795000	      3578	80002844	4056d793	srai	x15,x13,0x5	 x13:0xfffffb9d x15=0xffffffdc
       35805000	      3579	80002848	f44ef193	andi	x3,x29,-188	 x29:0x00000000  x3=0x00000000
       35815000	      3580	8000284c	01314863	blt	x2,x19,8000285c	  x2:0x9f42f000 x19:0x7fff6192
       35825000	      3581	00000000	00000013	addi	x0,x0,0	  x0:0x00000000
       35835000	      3582	80002858	00000013	addi	x0,x0,0	  x0:0x00000000
       35845000	      3583	8000285c	415ad813	srai	x16,x21,0x15	 x21:0x00000001 x16=0x00000000
       35855000	      3584	80002860	04d31463	bne	x6,x13,800028a8	  x6:0xfa80cad6 x13:0xfffffb9d
       35865000	      3585	00000000	00000013	addi	x0,x0,0	  x0:0x00000000
       35875000	      3586	800028a4	00000013	addi	x0,x0,0	  x0:0x00000000
       35885000	      3587	800028a8	00434433	xor	x8,x6,x4	  x6:0xfa80cad6  x4:0xe9ba91f5  x8=0x133a5b23
       35895000	      3588	800028ac	40590cb3	sub	x25,x18,x5	 x18:0x000005ba  x5:0x00000010 x25=0x000005aa
       35905000	      3589	800028b0	00ce6863	bltu	x28,x12,800028c0	 x28:0x00000698 x12:0x275b8824
       35915000	      3590	00000000	00000013	addi	x0,x0,0	  x0:0x00000000
       35925000	      3591	800028bc	00000013	addi	x0,x0,0	  x0:0x00000000
       35935000	      3592	800028c0	41980033	sub	x0,x16,x25	 x16:0x00000000 x25:0x000005aa
       35945000	      3593	800028c4	01734333	xor	x6,x6,x23	  x6:0xfa80cad6 x23:0x00000001  x6=0xfa80cad7
       35955000	      3594	800028c8	3b35f117	auipc	x2,0x3b35f	  x2=0xbb3618c4
       35965000	      3595	800028cc	3b316397	auipc	x7,0x3b316	  x7=0xbb3188c8
       35975000	      3596	800028d0	414c8533	sub	x10,x25,x20	 x25:0x000005aa x20:0x7fff5f9e x10=0x8000a60c
       35985000	      3597	800028d4	3fdf2e93	slti	x29,x30,1021	 x30:0xebc5f7dc x29=0x00000001
       35995000	      3598	800028d8	056d1063	bne	x26,x22,80002918	 x26:0x00000001 x22:0xe9ba91f5
       36005000	      3599	00000000	00000013	addi	x0,x0,0	  x0:0x00000000
       36015000	      3600	80002914	00000013	addi	x0,x0,0	  x0:0x00000000
       36025000	      3601	80002918	00425193	srli	x3,x4,0x4	  x4:0xe9ba91f5  x3=0x0e9ba91f
       36035000	      3602	8000291c	452c4313	xori	x6,x24,1106	 x24:0x7fff5f9e  x6=0x7fff5bcc
       36045000	      3603	80002920	00cdb6b3	sltu	x13,x27,x12	 x27:0xffffffff x12:0x275b8824 x13=0x00000000
       36055000	      3604	80002924	f9a18c13	addi	x24,x3,-102	  x3:0x0e9ba91f x24=0x0e9ba8b9
       36065000	      3605	80002928	01fd7863	bgeu	x26,x31,80002938	 x26:0x00000001 x31:0x80009f54
       36075000	      3606	8000292c	00000013	addi	x0,x0,0	  x0:0x00000000
       36085000	      3607	80002930	4134df33	sra	x30,x9,x19	  x9:0x000005bb x19:0x7fff6192 x30=0x00000000
       36095000	      3608	80002934	003717b3	sll	x15,x14,x3	 x14:0x00000001  x3:0x0e9ba91f x15=0x80000000
       36105000	      3609	80002938	0b5e4063	blt	x28,x21,800029d8	 x28:0x00000698 x21:0x00000001
       36115000	      3610	8000293c	00dbea33	or	x20,x23,x13	 x23:0x00000001 x13:0x00000000 x20=0x00000001
       36125000	      3611	80002940	00676133	or	x2,x14,x6	 x14:0x00000001  x6:0x7fff5bcc  x2=0x7fff5bcd
       36135000	      3612	80002944	00011b13	slli	x22,x2,0x0	  x2:0x7fff5bcd x22=0x7fff5bcd
       36145000	      3613	80002948	034007ef	jal	x15,80002948	 x15=0x80002948
       36155000	      3614	00000000	00000013	addi	x0,x0,0	  x0:0x00000000
       36165000	      3615	80002978	00000013	addi	x0,x0,0	  x0:0x00000000
       36175000	      3616	8000297c	0100036f	jal	x6,8000297c	  x6=0x8000297c
       36185000	      3617	00000000	00000013	addi	x0,x0,0	  x0:0x00000000
       36195000	      3618	80002988	00000013	addi	x0,x0,0	  x0:0x00000000
       36205000	      3619	8000298c	fc1ff5ef	jal	x11,8000298c	 x11=0x8000298c
       36215000	      3620	00000000	00000013	addi	x0,x0,0	  x0:0x00000000
       36225000	      3621	80002948	00000013	addi	x0,x0,0	  x0:0x00000000
       36235000	      3622	8000294c	048000ef	jal	x1,8000294c	  x1=0x8000294c
       36245000	      3623	00000000	00000013	addi	x0,x0,0	  x0:0x00000000
       36255000	      3624	80002990	00000013	addi	x0,x0,0	  x0:0x00000000
       36265000	      3625	80002994	fddff0ef	jal	x1,80002994	  x1=0x80002994
       36275000	      3626	00000000	00000013	addi	x0,x0,0	  x0:0x00000000
       36285000	      3627	8000296c	00000013	addi	x0,x0,0	  x0:0x00000000
       36295000	      3628	80002970	ffdff0ef	jal	x1,80002970	  x1=0x80002970
       36305000	      3629	00000000	00000013	addi	x0,x0,0	  x0:0x00000000
       36315000	      3630	80002968	00000013	addi	x0,x0,0	  x0:0x00000000
       36325000	      3631	8000296c	fedff0ef	jal	x1,8000296c	  x1=0x8000296c
       36335000	      3632	00000000	00000013	addi	x0,x0,0	  x0:0x00000000
       36345000	      3633	80002954	00000013	addi	x0,x0,0	  x0:0x00000000
       36355000	      3634	80002958	04c0036f	jal	x6,80002958	  x6=0x80002958
       36365000	      3635	00000000	00000013	addi	x0,x0,0	  x0:0x00000000
       36375000	      3636	800029a0	00000013	addi	x0,x0,0	  x0:0x00000000
       36385000	      3637	800029a4	fadff0ef	jal	x1,800029a4	  x1=0x800029a4
       36395000	      3638	00000000	00000013	addi	x0,x0,0	  x0:0x00000000
       36405000	      3639	8000294c	00000013	addi	x0,x0,0	  x0:0x00000000
       36415000	      3640	80002950	04c000ef	jal	x1,80002950	  x1=0x80002950
       36425000	      3641	00000000	00000013	addi	x0,x0,0	  x0:0x00000000
       36435000	      3642	80002998	00000013	addi	x0,x0,0	  x0:0x00000000
       36445000	      3643	8000299c	fc1ff0ef	jal	x1,8000299c	  x1=0x8000299c
       36455000	      3644	00000000	00000013	addi	x0,x0,0	  x0:0x00000000
       36465000	      3645	80002958	00000013	addi	x0,x0,0	  x0:0x00000000
       36475000	      3646	8000295c	028000ef	jal	x1,8000295c	  x1=0x8000295c
       36485000	      3647	00000000	00000013	addi	x0,x0,0	  x0:0x00000000
       36495000	      3648	80002980	00000013	addi	x0,x0,0	  x0:0x00000000
       36505000	      3649	80002984	01c0036f	jal	x6,80002984	  x6=0x80002984
       36515000	      3650	00000000	00000013	addi	x0,x0,0	  x0:0x00000000
       36525000	      3651	8000299c	00000013	addi	x0,x0,0	  x0:0x00000000
       36535000	      3652	800029a0	fc1ff0ef	jal	x1,800029a0	  x1=0x800029a0
       36545000	      3653	00000000	00000013	addi	x0,x0,0	  x0:0x00000000
       36555000	      3654	8000295c	00000013	addi	x0,x0,0	  x0:0x00000000
       36565000	      3655	80002960	028000ef	jal	x1,80002960	  x1=0x80002960
       36575000	      3656	00000000	00000013	addi	x0,x0,0	  x0:0x00000000
       36585000	      3657	80002984	00000013	addi	x0,x0,0	  x0:0x00000000
       36595000	      3658	80002988	fddffc6f	jal	x24,80002988	 x24=0x80002988
       36605000	      3659	00000000	00000013	addi	x0,x0,0	  x0:0x00000000
       36615000	      3660	80002960	00000013	addi	x0,x0,0	  x0:0x00000000
       36625000	      3661	80002964	034000ef	jal	x1,80002964	  x1=0x80002964
       36635000	      3662	00000000	00000013	addi	x0,x0,0	  x0:0x00000000
       36645000	      3663	80002994	00000013	addi	x0,x0,0	  x0:0x00000000
       36655000	      3664	80002998	fe1ff36f	jal	x6,80002998	  x6=0x80002998
       36665000	      3665	00000000	00000013	addi	x0,x0,0	  x0:0x00000000
       36675000	      3666	80002974	00000013	addi	x0,x0,0	  x0:0x00000000
       36685000	      3667	80002978	fddff0ef	jal	x1,80002978	  x1=0x80002978
       36695000	      3668	00000000	00000013	addi	x0,x0,0	  x0:0x00000000
       36705000	      3669	80002950	00000013	addi	x0,x0,0	  x0:0x00000000
       36715000	      3670	80002954	020000ef	jal	x1,80002954	  x1=0x80002954
       36725000	      3671	00000000	00000013	addi	x0,x0,0	  x0:0x00000000
       36735000	      3672	80002970	00000013	addi	x0,x0,0	  x0:0x00000000
       36745000	      3673	80002974	00c00f6f	jal	x30,80002974	 x30=0x80002974
       36755000	      3674	00000000	00000013	addi	x0,x0,0	  x0:0x00000000
       36765000	      3675	8000297c	00000013	addi	x0,x0,0	  x0:0x00000000
       36775000	      3676	80002980	0100036f	jal	x6,80002980	  x6=0x80002980
       36785000	      3677	00000000	00000013	addi	x0,x0,0	  x0:0x00000000
       36795000	      3678	8000298c	00000013	addi	x0,x0,0	  x0:0x00000000
       36805000	      3679	80002990	fd9ff46f	jal	x8,80002990	  x8=0x80002990
       36815000	      3680	00000000	00000013	addi	x0,x0,0	  x0:0x00000000
       36825000	      3681	80002964	00000013	addi	x0,x0,0	  x0:0x00000000
       36835000	      3682	80002968	040000ef	jal	x1,80002968	  x1=0x80002968
       36845000	      3683	00000000	00000013	addi	x0,x0,0	  x0:0x00000000
       36855000	      3684	800029a4	00000013	addi	x0,x0,0	  x0:0x00000000
       36865000	      3685	800029a8	00000013	addi	x0,x0,0	  x0:0x00000000
       36875000	      3686	800029ac	01af1c63	bne	x30,x26,800029c4	 x30:0x80002974 x26:0x00000001
       36885000	      3687	00000000	00000013	addi	x0,x0,0	  x0:0x00000000
       36895000	      3688	800029c0	00000013	addi	x0,x0,0	  x0:0x00000000
       36905000	      3689	800029c4	01956733	or	x14,x10,x25	 x10:0x8000a60c x25:0x000005aa x14=0x8000a7ae
       36915000	      3690	800029c8	05fc3c17	auipc	x24,0x5fc3	 x24=0x85fc59c4
       36925000	      3691	800029cc	29a4b593	sltiu	x11,x9,666	  x9:0x000005bb x11=0x00000000
       36935000	      3692	800029d0	5a54f437	lui	x8,0x5a54f	  x8=0x5a54f000
       36945000	      3693	800029d4	016df5b3	and	x11,x27,x22	 x27:0xffffffff x22:0x7fff5bcd x11=0x7fff5bcd
       36955000	      3694	800029d8	01c3cc63	blt	x7,x28,800029f0	  x7:0xbb3188c8 x28:0x00000698
       36965000	      3695	00000000	00000013	addi	x0,x0,0	  x0:0x00000000
       36975000	      3696	800029ec	00000013	addi	x0,x0,0	  x0:0x00000000
       36985000	      3697	800029f0	01635a13	srli	x20,x6,0x16	  x6:0x80002980 x20=0x00000200
       36995000	      3698	800029f4	01358e33	add	x28,x11,x19	 x11:0x7fff5bcd x19:0x7fff6192 x28=0xfffebd5f
       37005000	      3699	800029f8	01ad1d13	slli	x26,x26,0x1a	 x26:0x00000001 x26=0x04000000
       37015000	      3700	800029fc	59e4ee93	ori	x29,x9,1438	  x9:0x000005bb x29=0x000005bf
       37025000	      3701	80002a00	ee9f8193	addi	x3,x31,-279	 x31:0x80009f54  x3=0x80009e3d
       37035000	      3702	80002a04	09017863	bgeu	x2,x16,80002a94	  x2:0x7fff5bcd x16:0x00000000
       37045000	      3703	00000000	00000013	addi	x0,x0,0	  x0:0x00000000
       37055000	      3704	80002a90	00000013	addi	x0,x0,0	  x0:0x00000000
       37065000	      3705	80002a94	048ec063	blt	x29,x8,80002ad4	 x29:0x000005bf  x8:0x5a54f000
       37075000	      3706	00000000	00000013	addi	x0,x0,0	  x0:0x00000000
       37085000	      3707	80002ad0	00000013	addi	x0,x0,0	  x0:0x00000000
       37095000	      3708	80002ad4	ba0b7913	andi	x18,x22,-1120	 x22:0x7fff5bcd x18=0x7fff5b80
       37105000	      3709	80002ad8	01ed5a63	bge	x26,x30,80002aec	 x26:0x04000000 x30:0x80002974
       37115000	      3710	00000000	00000013	addi	x0,x0,0	  x0:0x00000000
       37125000	      3711	80002ae8	00000013	addi	x0,x0,0	  x0:0x00000000
       37135000	      3712	80002aec	005dd493	srli	x9,x27,0x5	 x27:0xffffffff  x9=0x07ffffff
       37145000	      3713	80002af0	b8aef393	andi	x7,x29,-1142	 x29:0x000005bf  x7=0x0000018a
       37155000	      3714	80002af4	0190cdb3	xor	x27,x1,x25	  x1:0x80002968 x25:0x000005aa x27=0x80002cc2
       37165000	      3715	80002af8	c34c6f37	lui	x30,0xc34c6	 x30=0xc34c6000
       37175000	      3716	80002afc	0007b333	sltu	x6,x15,x0	 x15:0x80002948  x0:0x00000000  x6=0x00000000
       37185000	      3717	80002b00	0350d263	bge	x1,x21,80002b24	  x1:0x80002968 x21:0x00000001
       37195000	      3718	80002b04	01081c63	bne	x16,x16,80002b1c	 x16:0x00000000 x16:0x00000000
       37205000	      3719	80002b08	009f1013	slli	x0,x30,0x9	 x30:0xc34c6000
       37215000	      3720	80002b0c	94352c13	slti	x24,x10,-1725	 x10:0x8000a60c x24=0x00000001
       37225000	      3721	80002b10	015ab6b3	sltu	x13,x21,x21	 x21:0x00000001 x21:0x00000001 x13=0x00000000
       37235000	      3722	80002b14	40885b33	sra	x22,x16,x8	 x16:0x00000000  x8:0x5a54f000 x22=0x00000000
       37245000	      3723	80002b18	f8fb6c17	auipc	x24,0xf8fb6	 x24=0x78fb8b14
       37255000	      3724	80002b1c	035d7863	bgeu	x26,x21,80002b4c	 x26:0x04000000 x21:0x00000001
       37265000	      3725	00000000	00000013	addi	x0,x0,0	  x0:0x00000000
       37275000	      3726	80002b48	00000013	addi	x0,x0,0	  x0:0x00000000
       37285000	      3727	80002b4c	0009ea33	or	x20,x19,x0	 x19:0x7fff6192  x0:0x00000000 x20=0x7fff6192
       37295000	      3728	80002b50	53906d93	ori	x27,x0,1337	  x0:0x00000000 x27=0x00000539
       37305000	      3729	80002b54	00335a63	bge	x6,x3,80002b68	  x6:0x00000000  x3:0x80009e3d
       37315000	      3730	00000000	00000013	addi	x0,x0,0	  x0:0x00000000
       37325000	      3731	80002b64	00000013	addi	x0,x0,0	  x0:0x00000000
       37335000	      3732	80002b68	00c11d13	slli	x26,x2,0xc	  x2:0x7fff5bcd x26=0xf5bcd000
       37345000	      3733	80002b6c	01b4ea63	bltu	x9,x27,80002b80	  x9:0x07ffffff x27:0x00000539
       37355000	      3734	80002b70	251be297	auipc	x5,0x251be	  x5=0xa51c0b6c
       37365000	      3735	80002b74	3c956137	lui	x2,0x3c956	  x2=0x3c956000
       37375000	      3736	80002b78	006d1e63	bne	x26,x6,80002b94	 x26:0xf5bcd000  x6:0x00000000
       37385000	      3737	00000000	00000013	addi	x0,x0,0	  x0:0x00000000
       37395000	      3738	80002b90	00000013	addi	x0,x0,0	  x0:0x00000000
       37405000	      3739	80002b94	00000013	addi	x0,x0,0	  x0:0x00000000
       37415000	      3740	80002b98	03fa8a63	beq	x21,x31,80002bcc	 x21:0x00000001 x31:0x80009f54
       37425000	      3741	80002b9c	0108b5b3	sltu	x11,x17,x16	 x17:0x80009fc4 x16:0x00000000 x11=0x00000000
       37435000	      3742	80002ba0	0043fab3	and	x21,x7,x4	  x7:0x0000018a  x4:0xe9ba91f5 x21=0x00000180
       37445000	      3743	80002ba4	01ee9693	slli	x13,x29,0x1e	 x29:0x000005bf x13=0xc0000000
       37455000	      3744	80002ba8	52bea413	slti	x8,x29,1323	 x29:0x000005bf  x8=0x00000000
       37465000	      3745	80002bac	01f5e133	or	x2,x11,x31	 x11:0x00000000 x31:0x80009f54  x2=0x80009f54
       37475000	      3746	80002bb0	01bb07b3	add	x15,x22,x27	 x22:0x00000000 x27:0x00000539 x15=0x00000539
       37485000	      3747	80002bb4	55391ab7	lui	x21,0x55391	 x21=0x55391000
       37495000	      3748	80002bb8	83a20613	addi	x12,x4,-1990	  x4:0xe9ba91f5 x12=0xe9ba8a2f
       37505000	      3749	80002bbc	0303e063	bltu	x7,x16,80002bdc	  x7:0x0000018a x16:0x00000000
       37515000	      3750	80002bc0	406e8f33	sub	x30,x29,x6	 x29:0x000005bf  x6:0x00000000 x30=0x000005bf
       37525000	      3751	80002bc4	00d5dc63	bge	x11,x13,80002bdc	 x11:0x00000000 x13:0xc0000000
       37535000	      3752	00000000	00000013	addi	x0,x0,0	  x0:0x00000000
       37545000	      3753	80002bd8	00000013	addi	x0,x0,0	  x0:0x00000000
       37555000	      3754	80002bdc	00000013	addi	x0,x0,0	  x0:0x00000000
       37565000	      3755	80002be0	0100ab33	slt	x22,x1,x16	  x1:0x80002968 x16:0x00000000 x22=0x00000001
       37575000	      3756	80002be4	02e0c663	blt	x1,x14,80002c10	  x1:0x80002968 x14:0x8000a7ae
       37585000	      3757	00000000	00000013	addi	x0,x0,0	  x0:0x00000000
       37595000	      3758	80002c0c	00000013	addi	x0,x0,0	  x0:0x00000000
       37605000	      3759	80002c10	01a7dc93	srli	x25,x15,0x1a	 x15:0x00000539 x25=0x00000000
       37615000	      3760	80002c14	b7168393	addi	x7,x13,-1167	 x13:0xc0000000  x7=0xbffffb71
       37625000	      3761	80002c18	01cf1593	slli	x11,x30,0x1c	 x30:0x000005bf x11=0xf0000000
       37635000	      3762	80002c1c	00b65c33	srl	x24,x12,x11	 x12:0xe9ba8a2f x11:0xf0000000 x24=0xe9ba8a2f
       37645000	      3763	80002c20	05d84863	blt	x16,x29,80002c70	 x16:0x00000000 x29:0x000005bf
       37655000	      3764	00000000	00000013	addi	x0,x0,0	  x0:0x00000000
       37665000	      3765	80002c6c	00000013	addi	x0,x0,0	  x0:0x00000000
       37675000	      3766	80002c70	00000013	addi	x0,x0,0	  x0:0x00000000
       37685000	      3767	80002c74	409fdcb3	sra	x25,x31,x9	 x31:0x80009f54  x9:0x07ffffff x25=0xffffffff
       37695000	      3768	80002c78	043dc313	xori	x6,x27,67	 x27:0x00000539  x6=0x0000057a
       37705000	      3769	80002c7c	01f047b3	xor	x15,x0,x31	  x0:0x00000000 x31:0x80009f54 x15=0x80009f54
       37715000	      3770	80002c80	004e7f33	and	x30,x28,x4	 x28:0xfffebd5f  x4:0xe9ba91f5 x30=0xe9ba9155
       37725000	      3771	80002c84	01f23bb3	sltu	x23,x4,x31	  x4:0xe9ba91f5 x31:0x80009f54 x23=0x00000000
       37735000	      3772	80002c88	02fa6863	bltu	x20,x15,80002cb8	 x20:0x7fff6192 x15:0x80009f54
       37745000	      3773	00000000	00000013	addi	x0,x0,0	  x0:0x00000000
       37755000	      3774	80002cb4	00000013	addi	x0,x0,0	  x0:0x00000000
       37765000	      3775	80002cb8	00a4ccb3	xor	x25,x9,x10	  x9:0x07ffffff x10:0x8000a60c x25=0x87ff59f3
       37775000	      3776	80002cbc	d3394b93	xori	x23,x18,-717	 x18:0x7fff5b80 x23=0x8000a6b3
       37785000	      3777	80002cc0	006d90b3	sll	x1,x27,x6	 x27:0x00000539  x6:0x0000057a  x1=0xe4000000
       37795000	      3778	80002cc4	33fba813	slti	x16,x23,831	 x23:0x8000a6b3 x16=0x00000001
       37805000	      3779	80002cc8	c4e3bd13	sltiu	x26,x7,-946	  x7:0xbffffb71 x26=0x00000001
       37815000	      3780	80002ccc	408ad333	sra	x6,x21,x8	 x21:0x55391000  x8:0x00000000  x6=0x55391000
       37825000	      3781	80002cd0	b5621017	auipc	x0,0xb5621	
       37835000	      3782	80002cd4	68ccc493	xori	x9,x25,1676	 x25:0x87ff59f3  x9=0x87ff5f7f
       37845000	      3783	80002cd8	00a71093	slli	x1,x14,0xa	 x14:0x8000a7ae  x1=0x029eb800
       37855000	      3784	80002cdc	01820f33	add	x30,x4,x24	  x4:0xe9ba91f5 x24:0xe9ba8a2f x30=0xd3751c24
       37865000	      3785	80002ce0	01643ab3	sltu	x21,x8,x22	  x8:0x00000000 x22:0x00000001 x21=0x00000001
       37875000	      3786	80002ce4	013cda93	srli	x21,x25,0x13	 x25:0x87ff59f3 x21=0x000010ff
       37885000	      3787	80002ce8	116bf813	andi	x16,x23,278	 x23:0x8000a6b3 x16=0x00000012
       37895000	      3788	80002cec	01e79bb3	sll	x23,x15,x30	 x15:0x80009f54 x30:0xd3751c24 x23=0x0009f540
       37905000	      3789	80002cf0	000b8933	add	x18,x23,x0	 x23:0x0009f540  x0:0x00000000 x18=0x0009f540
       37915000	      3790	80002cf4	019a02b3	add	x5,x20,x25	 x20:0x7fff6192 x25:0x87ff59f3  x5=0x07febb85
       37925000	      3791	80002cf8	003b41b3	xor	x3,x22,x3	 x22:0x00000001  x3:0x80009e3d  x3=0x80009e3c
       37935000	      3792	80002cfc	4a77f593	andi	x11,x15,1191	 x15:0x80009f54 x11=0x00000404
       37945000	      3793	80002d00	01ae5313	srli	x6,x28,0x1a	 x28:0xfffebd5f  x6=0x0000003f
       37955000	      3794	80002d04	00fef333	and	x6,x29,x15	 x29:0x000005bf x15:0x80009f54  x6=0x00000514
       37965000	      3795	80002d08	02497e63	bgeu	x18,x4,80002d44	 x18:0x0009f540  x4:0xe9ba91f5
       37975000	      3796	80002d0c	04497463	bgeu	x18,x4,80002d54	 x18:0x0009f540  x4:0xe9ba91f5
       37985000	      3797	80002d10	050d1463	bne	x26,x16,80002d58	 x26:0x00000001 x16:0x00000012
       37995000	      3798	00000000	00000013	addi	x0,x0,0	  x0:0x00000000
       38005000	      3799	80002d54	00000013	addi	x0,x0,0	  x0:0x00000000
       38015000	      3800	80002d58	01575733	srl	x14,x14,x21	 x14:0x8000a7ae x21:0x000010ff x14=0x00000001
       38025000	      3801	80002d5c	007f0c63	beq	x30,x7,80002d74	 x30:0xd3751c24  x7:0xbffffb71
       38035000	      3802	80002d60	006f5f33	srl	x30,x30,x6	 x30:0xd3751c24  x6:0x00000514 x30=0x00000d37
       38045000	      3803	80002d64	03d8ca63	blt	x17,x29,80002d98	 x17:0x80009fc4 x29:0x000005bf
       38055000	      3804	00000000	00000013	addi	x0,x0,0	  x0:0x00000000
       38065000	      3805	80002d94	00000013	addi	x0,x0,0	  x0:0x00000000
       38075000	      3806	80002d98	63c70093	addi	x1,x14,1596	 x14:0x00000001  x1=0x0000063d
       38085000	      3807	80002d9c	006d9193	slli	x3,x27,0x6	 x27:0x00000539  x3=0x00014e40
       38095000	      3808	80002da0	41388033	sub	x0,x17,x19	 x17:0x80009fc4 x19:0x7fff6192
       38105000	      3809	80002da4	98e23813	sltiu	x16,x4,-1650	  x4:0xe9ba91f5 x16=0x00000001
       38115000	      3810	80002da8	f0225d17	auipc	x26,0xf0225	 x26=0x70227da4
       38125000	      3811	80002dac	03315863	bge	x2,x19,80002ddc	  x2:0x80009f54 x19:0x7fff6192
       38135000	      3812	80002db0	008b3f33	sltu	x30,x22,x8	 x22:0x00000001  x8:0x00000000 x30=0x00000000
       38145000	      3813	80002db4	fa7507b7	lui	x15,0xfa750	 x15=0xfa750000
       38155000	      3814	80002db8	00e4ef33	or	x30,x9,x14	  x9:0x87ff5f7f x14:0x00000001 x30=0x87ff5f7f
       38165000	      3815	80002dbc	e268a393	slti	x7,x17,-474	 x17:0x80009fc4  x7=0x00000001
       38175000	      3816	80002dc0	6a514093	xori	x1,x2,1701	  x2:0x80009f54  x1=0x800099f1
       38185000	      3817	80002dc4	8b8bf413	andi	x8,x23,-1864	 x23:0x0009f540  x8=0x0009f000
       38195000	      3818	80002dc8	00000013	addi	x0,x0,0	  x0:0x00000000
       38205000	      3819	80002dcc	136d9063	bne	x27,x22,80002eec	 x27:0x00000539 x22:0x00000001
       38215000	      3820	00000000	00000013	addi	x0,x0,0	  x0:0x00000000
       38225000	      3821	80002ee8	00000013	addi	x0,x0,0	  x0:0x00000000
       38235000	      3822	80002eec	03700e63	beq	x0,x23,80002f28	  x0:0x00000000 x23:0x0009f540
       38245000	      3823	80002ef0	b74da493	slti	x9,x27,-1164	 x27:0x00000539  x9=0x00000000
       38255000	      3824	80002ef4	e7e53e93	sltiu	x29,x10,-386	 x10:0x8000a60c x29=0x00000001
       38265000	      3825	80002ef8	0125c133	xor	x2,x11,x18	 x11:0x00000404 x18:0x0009f540  x2=0x0009f144
       38275000	      3826	80002efc	02e74863	blt	x14,x14,80002f2c	 x14:0x00000001 x14:0x00000001
       38285000	      3827	80002f00	db888e13	addi	x28,x17,-584	 x17:0x80009fc4 x28=0x80009d7c
       38295000	      3828	80002f04	01a42cb3	slt	x25,x8,x26	  x8:0x0009f000 x26:0x70227da4 x25=0x00000001
       38305000	      3829	80002f08	00000013	addi	x0,x0,0	  x0:0x00000000
       38315000	      3830	80002f0c	4a763eb7	lui	x29,0x4a763	 x29=0x4a763000
       38325000	      3831	80002f10	a1359a37	lui	x20,0xa1359	 x20=0xa1359000
       38335000	      3832	80002f14	03b8f663	bgeu	x17,x27,80002f40	 x17:0x80009fc4 x27:0x00000539
       38345000	      3833	00000000	00000013	addi	x0,x0,0	  x0:0x00000000
       38355000	      3834	80002f3c	00000013	addi	x0,x0,0	  x0:0x00000000
       38365000	      3835	80002f40	00acdab3	srl	x21,x25,x10	 x25:0x00000001 x10:0x8000a60c x21=0x00000000
       38375000	      3836	80002f44	43e07e13	andi	x28,x0,1086	  x0:0x00000000 x28=0x00000000
       38385000	      3837	80002f48	0f87a113	slti	x2,x15,248	 x15:0xfa750000  x2=0x00000001
       38395000	      3838	80002f4c	2eba2a93	slti	x21,x20,747	 x20:0xa1359000 x21=0x00000001
       38405000	      3839	80002f50	31bc1517	auipc	x10,0x31bc1	 x10=0xb1bc3f4c
       38415000	      3840	80002f54	01b7da33	srl	x20,x15,x27	 x15:0xfa750000 x27:0x00000539 x20=0x0000007d
       38425000	      3841	80002f58	00864c63	blt	x12,x8,80002f70	 x12:0xe9ba8a2f  x8:0x0009f000
       38435000	      3842	00000000	00000013	addi	x0,x0,0	  x0:0x00000000
       38445000	      3843	80002f6c	00000013	addi	x0,x0,0	  x0:0x00000000
       38455000	      3844	80002f70	651e8a93	addi	x21,x29,1617	 x29:0x4a763000 x21=0x4a763651
       38465000	      3845	80002f74	016e9793	slli	x15,x29,0x16	 x29:0x4a763000 x15=0x00000000
       38475000	      3846	80002f78	00e94a33	xor	x20,x18,x14	 x18:0x0009f540 x14:0x00000001 x20=0x0009f541
       38485000	      3847	80002f7c	0f179063	bne	x15,x17,8000305c	 x15:0x00000000 x17:0x80009fc4
       38495000	      3848	00000000	00000013	addi	x0,x0,0	  x0:0x00000000
       38505000	      3849	80003058	00000013	addi	x0,x0,0	  x0:0x00000000
       38515000	      3850	8000305c	40e8da13	srai	x20,x17,0xe	 x17:0x80009fc4 x20=0xfffe0002
       38525000	      3851	80003060	01916663	bltu	x2,x25,8000306c	  x2:0x00000001 x25:0x00000001
       38535000	      3852	80003064	12433793	sltiu	x15,x6,292	  x6:0x00000514 x15=0x00000000
       38545000	      3853	80003068	0097f6b3	and	x13,x15,x9	 x15:0x00000000  x9:0x00000000 x13=0x00000000
       38555000	      3854	8000306c	c5438713	addi	x14,x7,-940	  x7:0x00000001 x14=0xfffffc55
       38565000	      3855	80003070	01dcfa63	bgeu	x25,x29,80003084	 x25:0x00000001 x29:0x4a763000
       38575000	      3856	80003074	c9d5c413	xori	x8,x11,-867	 x11:0x00000404  x8=0xfffff899
       38585000	      3857	80003078	c30f7413	andi	x8,x30,-976	 x30:0x87ff5f7f  x8=0x87ff5c30
       38595000	      3858	8000307c	005fb833	sltu	x16,x31,x5	 x31:0x80009f54  x5:0x07febb85 x16=0x00000000
       38605000	      3859	80003080	014d9b93	slli	x23,x27,0x14	 x27:0x00000539 x23=0x53900000
       38615000	      3860	80003084	01444863	blt	x8,x20,80003094	  x8:0x87ff5c30 x20:0xfffe0002
       38625000	      3861	00000000	00000013	addi	x0,x0,0	  x0:0x00000000
       38635000	      3862	80003090	00000013	addi	x0,x0,0	  x0:0x00000000
       38645000	      3863	80003094	b3aa4c13	xori	x24,x20,-1222	 x20:0xfffe0002 x24=0x0001fb38
       38655000	      3864	80003098	a471ce93	xori	x29,x3,-1465	  x3:0x00014e40 x29=0xfffeb407
       38665000	      3865	8000309c	014dfb33	and	x22,x27,x20	 x27:0x00000539 x20:0xfffe0002 x22=0x00000000
       38675000	      3866	800030a0	71c48413	addi	x8,x9,1820	  x9:0x00000000  x8=0x0000071c
       38685000	      3867	800030a4	00d24733	xor	x14,x4,x13	  x4:0xe9ba91f5 x13:0x00000000 x14=0xe9ba91f5
       38695000	      3868	800030a8	8d5b7d93	andi	x27,x22,-1835	 x22:0x00000000 x27=0x00000000
       38705000	      3869	800030ac	6e5a0093	addi	x1,x20,1765	 x20:0xfffe0002  x1=0xfffe06e7
       38715000	      3870	800030b0	8e0e2293	slti	x5,x28,-1824	 x28:0x00000000  x5=0x00000000
       38725000	      3871	800030b4	410b5613	srai	x12,x22,0x10	 x22:0x00000000 x12=0x00000000
       38735000	      3872	800030b8	dc390d93	addi	x27,x18,-573	 x18:0x0009f540 x27=0x0009f303
       38745000	      3873	800030bc	1a9c3813	sltiu	x16,x24,425	 x24:0x0001fb38 x16=0x00000000
       38755000	      3874	800030c0	41e802b3	sub	x5,x16,x30	 x16:0x00000000 x30:0x87ff5f7f  x5=0x7800a081
       38765000	      3875	800030c4	17840693	addi	x13,x8,376	  x8:0x0000071c x13=0x00000894
       38775000	      3876	800030c8	417e0ab3	sub	x21,x28,x23	 x28:0x00000000 x23:0x53900000 x21=0xac700000
       38785000	      3877	800030cc	041e7663	bgeu	x28,x1,80003118	 x28:0x00000000  x1:0xfffe06e7
       38795000	      3878	800030d0	03f1f863	bgeu	x3,x31,80003100	  x3:0x00014e40 x31:0x80009f54
       38805000	      3879	800030d4	00b2a833	slt	x16,x5,x11	  x5:0x7800a081 x11:0x00000404 x16=0x00000000
       38815000	      3880	800030d8	05384463	blt	x16,x19,80003120	 x16:0x00000000 x19:0x7fff6192
       38825000	      3881	00000000	00000013	addi	x0,x0,0	  x0:0x00000000
       38835000	      3882	8000311c	00000013	addi	x0,x0,0	  x0:0x00000000
       38845000	      3883	80003120	bc85c117	auipc	x2,0xbc85c	  x2=0x3c85f11c
       38855000	      3884	80003124	0029f9b3	and	x19,x19,x2	 x19:0x7fff6192  x2:0x3c85f11c x19=0x3c856110
       38865000	      3885	80003128	017687b3	add	x15,x13,x23	 x13:0x00000894 x23:0x53900000 x15=0x53900894
       38875000	      3886	8000312c	0024dd33	srl	x26,x9,x2	  x9:0x00000000  x2:0x3c85f11c x26=0x00000000
       38885000	      3887	80003130	34996693	ori	x13,x18,841	 x18:0x0009f540 x13=0x0009f749
       38895000	      3888	80003134	005f86b3	add	x13,x31,x5	 x31:0x80009f54  x5:0x7800a081 x13=0xf8013fd5
       38905000	      3889	80003138	3bd3bb93	sltiu	x23,x7,957	  x7:0x00000001 x23=0x00000001
       38915000	      3890	8000313c	475f8e13	addi	x28,x31,1141	 x31:0x80009f54 x28=0x8000a3c9
       38925000	      3891	80003140	46607013	andi	x0,x0,1126	  x0:0x00000000
       38935000	      3892	80003144	6166ab93	slti	x23,x13,1558	 x13:0xf8013fd5 x23=0x00000001
       38945000	      3893	80003148	f2b42db7	lui	x27,0xf2b42	 x27=0xf2b42000
       38955000	      3894	8000314c	90de4b93	xori	x23,x28,-1779	 x28:0x8000a3c9 x23=0x7fff5ac4
       38965000	      3895	80003150	7b153d13	sltiu	x26,x10,1969	 x10:0xb1bc3f4c x26=0x00000000
       38975000	      3896	80003154	000cd333	srl	x6,x25,x0	 x25:0x00000001  x0:0x00000000  x6=0x00000001
       38985000	      3897	80003158	04274063	blt	x14,x2,80003198	 x14:0xe9ba91f5  x2:0x3c85f11c
       38995000	      3898	00000000	00000013	addi	x0,x0,0	  x0:0x00000000
       39005000	      3899	80003194	00000013	addi	x0,x0,0	  x0:0x00000000
       39015000	      3900	80003198	002f5e63	bge	x30,x2,800031b4	 x30:0x87ff5f7f  x2:0x3c85f11c
       39025000	      3901	8000319c	04734863	blt	x6,x7,800031ec	  x6:0x00000001  x7:0x00000001
       39035000	      3902	800031a0	4110d493	srai	x9,x1,0x11	  x1:0xfffe06e7  x9=0xffffffff
       39045000	      3903	800031a4	5b11c713	xori	x14,x3,1457	  x3:0x00014e40 x14=0x00014bf1
       39055000	      3904	800031a8	0586c663	blt	x13,x24,800031f4	 x13:0xf8013fd5 x24:0x0001fb38
       39065000	      3905	00000000	00000013	addi	x0,x0,0	  x0:0x00000000
       39075000	      3906	800031f0	00000013	addi	x0,x0,0	  x0:0x00000000
       39085000	      3907	800031f4	00486033	or	x0,x16,x4	 x16:0x00000000  x4:0xe9ba91f5
       39095000	      3908	800031f8	04fac463	blt	x21,x15,80003240	 x21:0xac700000 x15:0x53900894
       39105000	      3909	00000000	00000013	addi	x0,x0,0	  x0:0x00000000
       39115000	      3910	8000323c	00000013	addi	x0,x0,0	  x0:0x00000000
       39125000	      3911	80003240	1e040e93	addi	x29,x8,480	  x8:0x0000071c x29=0x000008fc
       39135000	      3912	80003244	023e9863	bne	x29,x3,80003274	 x29:0x000008fc  x3:0x00014e40
       39145000	      3913	00000000	00000013	addi	x0,x0,0	  x0:0x00000000
       39155000	      3914	80003270	00000013	addi	x0,x0,0	  x0:0x00000000
       39165000	      3915	80003274	04ddf063	bgeu	x27,x13,800032b4	 x27:0xf2b42000 x13:0xf8013fd5
       39175000	      3916	80003278	01c05833	srl	x16,x0,x28	  x0:0x00000000 x28:0x8000a3c9 x16=0x00000000
       39185000	      3917	8000327c	02010063	beq	x2,x0,8000329c	  x2:0x3c85f11c  x0:0x00000000
       39195000	      3918	80003280	4ef06713	ori	x14,x0,1263	  x0:0x00000000 x14=0x000004ef
       39205000	      3919	80003284	00606a63	bltu	x0,x6,80003298	  x0:0x00000000  x6:0x00000001
       39215000	      3920	00000000	00000013	addi	x0,x0,0	  x0:0x00000000
       39225000	      3921	80003294	00000013	addi	x0,x0,0	  x0:0x00000000
       39235000	      3922	80003298	000a7433	and	x8,x20,x0	 x20:0xfffe0002  x0:0x00000000  x8=0x00000000
       39245000	      3923	8000329c	3c98b413	sltiu	x8,x17,969	 x17:0x80009fc4  x8=0x00000000
       39255000	      3924	800032a0	014dd693	srli	x13,x27,0x14	 x27:0xf2b42000 x13=0x00000f2b
       39265000	      3925	800032a4	03d45863	bge	x8,x29,800032d4	  x8:0x00000000 x29:0x000008fc
       39275000	      3926	800032a8	b5dbc517	auipc	x10,0xb5dbc	 x10=0x35dbf2a4
       39285000	      3927	800032ac	04084063	blt	x16,x0,800032ec	 x16:0x00000000  x0:0x00000000
       39295000	      3928	800032b0	01850a63	beq	x10,x24,800032c4	 x10:0x35dbf2a4 x24:0x0001fb38
       39305000	      3929	800032b4	00db7863	bgeu	x22,x13,800032c4	 x22:0x00000000 x13:0x00000f2b
       39315000	      3930	800032b8	00ba8733	add	x14,x21,x11	 x21:0xac700000 x11:0x00000404 x14=0xac700404
       39325000	      3931	800032bc	01a15993	srli	x19,x2,0x1a	  x2:0x3c85f11c x19=0x0000000f
       39335000	      3932	800032c0	004bfa63	bgeu	x23,x4,800032d4	 x23:0x7fff5ac4  x4:0xe9ba91f5
       39345000	      3933	800032c4	013ff663	bgeu	x31,x19,800032d0	 x31:0x80009f54 x19:0x0000000f
       39355000	      3934	00000000	00000013	addi	x0,x0,0	  x0:0x00000000
       39365000	      3935	800032cc	00000013	addi	x0,x0,0	  x0:0x00000000
       39375000	      3936	800032d0	41420633	sub	x12,x4,x20	  x4:0xe9ba91f5 x20:0xfffe0002 x12=0xe9bc91f3
       39385000	      3937	800032d4	00ff6533	or	x10,x30,x15	 x30:0x87ff5f7f x15:0x53900894 x10=0xd7ff5fff
       39395000	      3938	800032d8	0454c463	blt	x9,x5,80003320	  x9:0xffffffff  x5:0x7800a081
       39405000	      3939	00000000	00000013	addi	x0,x0,0	  x0:0x00000000
       39415000	      3940	8000331c	00000013	addi	x0,x0,0	  x0:0x00000000
       39425000	      3941	80003320	40ae0533	sub	x10,x28,x10	 x28:0x8000a3c9 x10:0xd7ff5fff x10=0xa80143ca
       39435000	      3942	80003324	01427733	and	x14,x4,x20	  x4:0xe9ba91f5 x20:0xfffe0002 x14=0xe9ba0000
       39445000	      3943	80003328	56452b97	auipc	x23,0x56452	 x23=0xd6455324
       39455000	      3944	8000332c	59313693	sltiu	x13,x2,1427	  x2:0x3c85f11c x13=0x00000000
       39465000	      3945	80003330	00880e33	add	x28,x16,x8	 x16:0x00000000  x8:0x00000000 x28=0x00000000
       39475000	      3946	80003334	4e20fe13	andi	x28,x1,1250	  x1:0xfffe06e7 x28=0x000004e2
       39485000	      3947	80003338	01936913	ori	x18,x6,25	  x6:0x00000001 x18=0x00000019
       39495000	      3948	8000333c	09c90713	addi	x14,x18,156	 x18:0x00000019 x14=0x000000b5
       39505000	      3949	80003340	414282b3	sub	x5,x5,x20	  x5:0x7800a081 x20:0xfffe0002  x5=0x7802a07f
       39515000	      3950	80003344	9ca23293	sltiu	x5,x4,-1590	  x4:0xe9ba91f5  x5=0x00000001
       39525000	      3951	80003348	00c5e933	or	x18,x11,x12	 x11:0x00000404 x12:0xe9bc91f3 x18=0xe9bc95f7
       39535000	      3952	8000334c	00445863	bge	x8,x4,8000335c	  x8:0x00000000  x4:0xe9ba91f5
       39545000	      3953	00000000	00000013	addi	x0,x0,0	  x0:0x00000000
       39555000	      3954	80003358	00000013	addi	x0,x0,0	  x0:0x00000000
       39565000	      3955	8000335c	f1a2e713	ori	x14,x5,-230	  x5:0x00000001 x14=0xffffff1b
       39575000	      3956	80003360	07ab2c13	slti	x24,x22,122	 x22:0x00000000 x24=0x00000001
       39585000	      3957	80003364	00e98333	add	x6,x19,x14	 x19:0x0000000f x14:0xffffff1b  x6=0xffffff2a
       39595000	      3958	80003368	015646b3	xor	x13,x12,x21	 x12:0xe9bc91f3 x21:0xac700000 x13=0x45cc91f3
       39605000	      3959	8000336c	013c1db3	sll	x27,x24,x19	 x24:0x00000001 x19:0x0000000f x27=0x00008000
       39615000	      3960	80003370	00566863	bltu	x12,x5,80003380	 x12:0xe9bc91f3  x5:0x00000001
       39625000	      3961	80003374	001e16b3	sll	x13,x28,x1	 x28:0x000004e2  x1:0xfffe06e7 x13=0x00027100
       39635000	      3962	80003378	002295b3	sll	x11,x5,x2	  x5:0x00000001  x2:0x3c85f11c x11=0x10000000
       39645000	      3963	8000337c	0147fc63	bgeu	x15,x20,80003394	 x15:0x53900894 x20:0xfffe0002
       39655000	      3964	80003380	01639433	sll	x8,x7,x22	  x7:0x00000001 x22:0x00000000  x8=0x00000001
       39665000	      3965	80003384	02ef5a63	bge	x30,x14,800033b8	 x30:0x87ff5f7f x14:0xffffff1b
       39675000	      3966	80003388	02c51663	bne	x10,x12,800033b4	 x10:0xa80143ca x12:0xe9bc91f3
       39685000	      3967	00000000	00000013	addi	x0,x0,0	  x0:0x00000000
       39695000	      3968	800033b0	00000013	addi	x0,x0,0	  x0:0x00000000
       39705000	      3969	800033b4	500bee13	ori	x28,x23,1280	 x23:0xd6455324 x28=0xd6455724
       39715000	      3970	800033b8	0168da13	srli	x20,x17,0x16	 x17:0x80009fc4 x20=0x00000200
       39725000	      3971	800033bc	9b803d13	sltiu	x26,x0,-1608	  x0:0x00000000 x26=0x00000001
       39735000	      3972	800033c0	030f8a63	beq	x31,x16,800033f4	 x31:0x80009f54 x16:0x00000000
       39745000	      3973	800033c4	3f2efb93	andi	x23,x29,1010	 x29:0x000008fc x23=0x000000f0
       39755000	      3974	800033c8	00cafa63	bgeu	x21,x12,800033dc	 x21:0xac700000 x12:0xe9bc91f3
       39765000	      3975	800033cc	1aea60b7	lui	x1,0x1aea6	  x1=0x1aea6000
       39775000	      3976	800033d0	00271ab3	sll	x21,x14,x2	 x14:0xffffff1b  x2:0x3c85f11c x21=0xb0000000
       39785000	      3977	800033d4	05197263	bgeu	x18,x17,80003418	 x18:0xe9bc95f7 x17:0x80009fc4
       39795000	      3978	00000000	00000013	addi	x0,x0,0	  x0:0x00000000
       39805000	      3979	80003414	00000013	addi	x0,x0,0	  x0:0x00000000
       39815000	      3980	80003418	00581193	slli	x3,x16,0x5	 x16:0x00000000  x3=0x00000000
       39825000	      3981	8000341c	045c0063	beq	x24,x5,8000345c	 x24:0x00000001  x5:0x00000001
       39835000	      3982	00000000	00000013	addi	x0,x0,0	  x0:0x00000000
       39845000	      3983	80003458	00000013	addi	x0,x0,0	  x0:0x00000000
       39855000	      3984	8000345c	016896b3	sll	x13,x17,x22	 x17:0x80009fc4 x22:0x00000000 x13=0x80009fc4
       39865000	      3985	80003460	00c2ca63	blt	x5,x12,80003474	  x5:0x00000001 x12:0xe9bc91f3
       39875000	      3986	80003464	00439bb3	sll	x23,x7,x4	  x7:0x00000001  x4:0xe9ba91f5 x23=0x00200000
       39885000	      3987	80003468	015251b3	srl	x3,x4,x21	  x4:0xe9ba91f5 x21:0xb0000000  x3=0xe9ba91f5
       39895000	      3988	8000346c	05817063	bgeu	x2,x24,800034ac	  x2:0x3c85f11c x24:0x00000001
       39905000	      3989	00000000	00000013	addi	x0,x0,0	  x0:0x00000000
       39915000	      3990	800034a8	00000013	addi	x0,x0,0	  x0:0x00000000
       39925000	      3991	800034ac	40db5993	srai	x19,x22,0xd	 x22:0x00000000 x19=0x00000000
       39935000	      3992	800034b0	002fc2b3	xor	x5,x31,x2	 x31:0x80009f54  x2:0x3c85f11c  x5=0xbc856e48
       39945000	      3993	800034b4	56016813	ori	x16,x2,1376	  x2:0x3c85f11c x16=0x3c85f57c
       39955000	      3994	800034b8	015e7633	and	x12,x28,x21	 x28:0xd6455724 x21:0xb0000000 x12=0x90000000
       39965000	      3995	800034bc	01028c37	lui	x24,0x1028	 x24=0x01028000
       39975000	      3996	800034c0	db0c0e13	addi	x28,x24,-592	 x24:0x01028000 x28=0x01027db0
       39985000	      3997	800034c4	00000013	addi	x0,x0,0	  x0:0x00000000
       39995000	      3998	800034c8	cecb7193	andi	x3,x22,-788	 x22:0x00000000  x3=0x00000000
       40005000	      3999	800034cc	01471c63	bne	x14,x20,800034e4	 x14:0xffffff1b x20:0x00000200
       40015000	      4000	00000000	00000013	addi	x0,x0,0	  x0:0x00000000
       40025000	      4001	800034e0	00000013	addi	x0,x0,0	  x0:0x00000000
       40035000	      4002	800034e4	00fb5493	srli	x9,x22,0xf	 x22:0x00000000  x9=0x00000000
       40045000	      4003	800034e8	40b6dd93	srai	x27,x13,0xb	 x13:0x80009fc4 x27=0xfff00013
       40055000	      4004	800034ec	058e4113	xori	x2,x28,88	 x28:0x01027db0  x2=0x01027de8
       40065000	      4005	800034f0	21cb8193	addi	x3,x23,540	 x23:0x00200000  x3=0x0020021c
       40075000	      4006	800034f4	00c481b3	add	x3,x9,x12	  x9:0x00000000 x12:0x90000000  x3=0x90000000
       40085000	      4007	800034f8	652ce713	ori	x14,x25,1618	 x25:0x00000001 x14=0x00000653
       40095000	      4008	800034fc	01a70c63	beq	x14,x26,80003514	 x14:0x00000653 x26:0x00000001
       40105000	      4009	80003500	7611cf13	xori	x30,x3,1889	  x3:0x90000000 x30=0x90000761
       40115000	      4010	80003504	bef0e413	ori	x8,x1,-1041	  x1:0x1aea6000  x8=0xfffffbef
       40125000	      4011	80003508	007c5033	srl	x0,x24,x7	 x24:0x01028000  x7:0x00000001
       40135000	      4012	8000350c	6f76ca13	xori	x20,x13,1783	 x13:0x80009fc4 x20=0x80009933
       40145000	      4013	80003510	01dc4e33	xor	x28,x24,x29	 x24:0x01028000 x29:0x000008fc x28=0x010288fc
       40155000	      4014	80003514	00b262b3	or	x5,x4,x11	  x4:0xe9ba91f5 x11:0x10000000  x5=0xf9ba91f5
       40165000	      4015	80003518	bc55a493	slti	x9,x11,-1083	 x11:0x10000000  x9=0x00000000
       40175000	      4016	8000351c	009f9f33	sll	x30,x31,x9	 x31:0x80009f54  x9:0x00000000 x30=0x80009f54
       40185000	      4017	80003520	404d8433	sub	x8,x27,x4	 x27:0xfff00013  x4:0xe9ba91f5  x8=0x16356e1e
       40195000	      4018	80003524	05026463	bltu	x4,x16,8000356c	  x4:0xe9ba91f5 x16:0x3c85f57c
       40205000	      4019	80003528	0030f733	and	x14,x1,x3	  x1:0x1aea6000  x3:0x90000000 x14=0x10000000
       40215000	      4020	8000352c	38f4a1b7	lui	x3,0x38f4a	  x3=0x38f4a000
       40225000	      4021	80003530	3861e713	ori	x14,x3,902	  x3:0x38f4a000 x14=0x38f4a386
       40235000	      4022	80003534	058d9663	bne	x27,x24,80003580	 x27:0xfff00013 x24:0x01028000
       40245000	      4023	00000000	00000013	addi	x0,x0,0	  x0:0x00000000
       40255000	      4024	8000357c	00000013	addi	x0,x0,0	  x0:0x00000000
       40265000	      4025	80003580	704bd137	lui	x2,0x704bd	  x2=0x704bd000
       40275000	      4026	80003584	0099d663	bge	x19,x9,80003590	 x19:0x00000000  x9:0x00000000
       40285000	      4027	00000000	00000013	addi	x0,x0,0	  x0:0x00000000
       40295000	      4028	8000358c	00000013	addi	x0,x0,0	  x0:0x00000000
       40305000	      4029	80003590	036ede63	bge	x29,x22,800035cc	 x29:0x000008fc x22:0x00000000
       40315000	      4030	00000000	00000013	addi	x0,x0,0	  x0:0x00000000
       40325000	      4031	800035c8	00000013	addi	x0,x0,0	  x0:0x00000000
       40335000	      4032	800035cc	01b06e33	or	x28,x0,x27	  x0:0x00000000 x27:0xfff00013 x28=0xfff00013
       40345000	      4033	800035d0	0186dd33	srl	x26,x13,x24	 x13:0x80009fc4 x24:0x01028000 x26=0x80009fc4
       40355000	      4034	800035d4	0079f863	bgeu	x19,x7,800035e4	 x19:0x00000000  x7:0x00000001
       40365000	      4035	800035d8	00185793	srli	x15,x16,0x1	 x16:0x3c85f57c x15=0x1e42fabe
       40375000	      4036	800035dc	e99c9037	lui	x0,0xe99c9	
       40385000	      4037	800035e0	00000013	addi	x0,x0,0	  x0:0x00000000
       40395000	      4038	800035e4	7c8c8593	addi	x11,x25,1992	 x25:0x00000001 x11=0x000007c9
       40405000	      4039	800035e8	00f100b3	add	x1,x2,x15	  x2:0x704bd000 x15:0x1e42fabe  x1=0x8e8ecabe
       40415000	      4040	800035ec	000b9863	bne	x23,x0,800035fc	 x23:0x00200000  x0:0x00000000
       40425000	      4041	00000000	00000013	addi	x0,x0,0	  x0:0x00000000
       40435000	      4042	800035f8	00000013	addi	x0,x0,0	  x0:0x00000000
       40445000	      4043	800035fc	0125d5b3	srl	x11,x11,x18	 x11:0x000007c9 x18:0xe9bc95f7 x11=0x00000000
       40455000	      4044	80003600	019379b3	and	x19,x6,x25	  x6:0xffffff2a x25:0x00000001 x19=0x00000000
       40465000	      4045	80003604	00795b13	srli	x22,x18,0x7	 x18:0xe9bc95f7 x22=0x01d3792b
       40475000	      4046	80003608	38ff0517	auipc	x10,0x38ff0	 x10=0xb8ff3604
       40485000	      4047	8000360c	d461c913	xori	x18,x3,-698	  x3:0x38f4a000 x18=0xc70b5d46
       40495000	      4048	80003610	02adee63	bltu	x27,x10,8000364c	 x27:0xfff00013 x10:0xb8ff3604
       40505000	      4049	80003614	0258c863	blt	x17,x5,80003644	 x17:0x80009fc4  x5:0xf9ba91f5
       40515000	      4050	00000000	00000013	addi	x0,x0,0	  x0:0x00000000
       40525000	      4051	80003640	00000013	addi	x0,x0,0	  x0:0x00000000
       40535000	      4052	80003644	d608e313	ori	x6,x17,-672	 x17:0x80009fc4  x6=0xffffffe4
       40545000	      4053	80003648	00463a33	sltu	x20,x12,x4	 x12:0x90000000  x4:0xe9ba91f5 x20=0x00000001
       40555000	      4054	8000364c	00b73eb3	sltu	x29,x14,x11	 x14:0x38f4a386 x11:0x00000000 x29=0x00000000
       40565000	      4055	80003650	d34ccc13	xori	x24,x25,-716	 x25:0x00000001 x24=0xfffffd35
       40575000	      4056	80003654	41b3d733	sra	x14,x7,x27	  x7:0x00000001 x27:0xfff00013 x14=0x00000000
       40585000	      4057	80003658	40765d13	srai	x26,x12,0x7	 x12:0x90000000 x26=0xff200000
       40595000	      4058	8000365c	00474833	xor	x16,x14,x4	 x14:0x00000000  x4:0xe9ba91f5 x16=0xe9ba91f5
       40605000	      4059	80003660	01a51633	sll	x12,x10,x26	 x10:0xb8ff3604 x26:0xff200000 x12=0xb8ff3604
       40615000	      4060	80003664	f8100993	addi	x19,x0,-127	  x0:0x00000000 x19=0xffffff81
       40625000	      4061	80003668	009365b3	or	x11,x6,x9	  x6:0xffffffe4  x9:0x00000000 x11=0xffffffe4
       40635000	      4062	8000366c	9a683993	sltiu	x19,x16,-1626	 x16:0xe9ba91f5 x19=0x00000001
       40645000	      4063	80003670	00133033	sltu	x0,x6,x1	  x6:0xffffffe4  x1:0x8e8ecabe
       40655000	      4064	80003674	0377f263	bgeu	x15,x23,80003698	 x15:0x1e42fabe x23:0x00200000
       40665000	      4065	00000000	00000013	addi	x0,x0,0	  x0:0x00000000
       40675000	      4066	80003694	00000013	addi	x0,x0,0	  x0:0x00000000
       40685000	      4067	80003698	bd827c13	andi	x24,x4,-1064	  x4:0xe9ba91f5 x24=0xe9ba91d0
       40695000	      4068	8000369c	5b130d13	addi	x26,x6,1457	  x6:0xffffffe4 x26=0x00000595
       40705000	      4069	800036a0	0157ce33	xor	x28,x15,x21	 x15:0x1e42fabe x21:0xb0000000 x28=0xae42fabe
       40715000	      4070	800036a4	2a87ad93	slti	x27,x15,680	 x15:0x1e42fabe x27=0x00000000
       40725000	      4071	800036a8	add80c13	addi	x24,x16,-1315	 x16:0xe9ba91f5 x24=0xe9ba8cd2
       40735000	      4072	800036ac	01eec3b3	xor	x7,x29,x30	 x29:0x00000000 x30:0x80009f54  x7=0x80009f54
       40745000	      4073	800036b0	f9e2cc93	xori	x25,x5,-98	  x5:0xf9ba91f5 x25=0x06456e6b
       40755000	      4074	800036b4	004fa783	lw	x15,4(x31)	 x31:0x80009f54 x15=0x80000178 PA:0x80009f58
       40765000	      4075	800036b8	6d844c13	xori	x24,x8,1752	  x8:0x16356e1e x24=0x163568c6
       40775000	      4076	800036bc	01ccdb93	srli	x23,x25,0x1c	 x25:0x06456e6b x23=0x00000000
       40785000	      4077	800036c0	030f8f93	addi	x31,x31,48	 x31:0x80009f54 x31=0x80009f84
       40795000	      4078	800036c4	4a9dfd13	andi	x26,x27,1193	 x27:0x00000000 x26=0x00000000
       40805000	      4079	800036c8	00078e13	addi	x28,x15,0	 x15:0x80000178 x28=0x80000178
       40815000	      4080	800036cc	000e0e67	jalr	x28,x28,0	 x28:0x80000178 x28=0x800036cc
       40825000	      4081	00000000	00000013	addi	x0,x0,0	  x0:0x00000000
       40835000	      4082	80000178	00000013	addi	x0,x0,0	  x0:0x00000000
       40845000	      4083	8000017c	028007ef	jal	x15,8000017c	 x15=0x8000017c
       40855000	      4084	00000000	00000013	addi	x0,x0,0	  x0:0x00000000
       40865000	      4085	800001a0	00000013	addi	x0,x0,0	  x0:0x00000000
       40875000	      4086	800001a4	fedff36f	jal	x6,800001a4	  x6=0x800001a4
       40885000	      4087	00000000	00000013	addi	x0,x0,0	  x0:0x00000000
       40895000	      4088	8000018c	00000013	addi	x0,x0,0	  x0:0x00000000
       40905000	      4089	80000190	ffdffaef	jal	x21,80000190	 x21=0x80000190
       40915000	      4090	00000000	00000013	addi	x0,x0,0	  x0:0x00000000
       40925000	      4091	80000188	00000013	addi	x0,x0,0	  x0:0x00000000
       40935000	      4092	8000018c	01c0036f	jal	x6,8000018c	  x6=0x8000018c
       40945000	      4093	00000000	00000013	addi	x0,x0,0	  x0:0x00000000
       40955000	      4094	800001a4	00000013	addi	x0,x0,0	  x0:0x00000000
       40965000	      4095	800001a8	ff5ffdef	jal	x27,800001a8	 x27=0x800001a8
       40975000	      4096	00000000	00000013	addi	x0,x0,0	  x0:0x00000000
       40985000	      4097	80000198	00000013	addi	x0,x0,0	  x0:0x00000000
       40995000	      4098	8000019c	01c000ef	jal	x1,8000019c	  x1=0x8000019c
       41005000	      4099	00000000	00000013	addi	x0,x0,0	  x0:0x00000000
       41015000	      4100	800001b4	00000013	addi	x0,x0,0	  x0:0x00000000
       41025000	      4101	800001b8	ff5ffb6f	jal	x22,800001b8	 x22=0x800001b8
       41035000	      4102	00000000	00000013	addi	x0,x0,0	  x0:0x00000000
       41045000	      4103	800001a8	00000013	addi	x0,x0,0	  x0:0x00000000
       41055000	      4104	800001ac	008000ef	jal	x1,800001ac	  x1=0x800001ac
       41065000	      4105	00000000	00000013	addi	x0,x0,0	  x0:0x00000000
       41075000	      4106	800001b0	00000013	addi	x0,x0,0	  x0:0x00000000
       41085000	      4107	800001b4	fe5ff36f	jal	x6,800001b4	  x6=0x800001b4
       41095000	      4108	00000000	00000013	addi	x0,x0,0	  x0:0x00000000
       41105000	      4109	80000194	00000013	addi	x0,x0,0	  x0:0x00000000
       41115000	      4110	80000198	0180016f	jal	x2,80000198	  x2=0x80000198
       41125000	      4111	00000000	00000013	addi	x0,x0,0	  x0:0x00000000
       41135000	      4112	800001ac	00000013	addi	x0,x0,0	  x0:0x00000000
       41145000	      4113	800001b0	ff1ff0ef	jal	x1,800001b0	  x1=0x800001b0
       41155000	      4114	00000000	00000013	addi	x0,x0,0	  x0:0x00000000
       41165000	      4115	8000019c	00000013	addi	x0,x0,0	  x0:0x00000000
       41175000	      4116	800001a0	fe1ff36f	jal	x6,800001a0	  x6=0x800001a0
       41185000	      4117	00000000	00000013	addi	x0,x0,0	  x0:0x00000000
       41195000	      4118	8000017c	00000013	addi	x0,x0,0	  x0:0x00000000
       41205000	      4119	80000180	014000ef	jal	x1,80000180	  x1=0x80000180
       41215000	      4120	00000000	00000013	addi	x0,x0,0	  x0:0x00000000
       41225000	      4121	80000190	00000013	addi	x0,x0,0	  x0:0x00000000
       41235000	      4122	80000194	ff1ff0ef	jal	x1,80000194	  x1=0x80000194
       41245000	      4123	00000000	00000013	addi	x0,x0,0	  x0:0x00000000
       41255000	      4124	80000180	00000013	addi	x0,x0,0	  x0:0x00000000
       41265000	      4125	80000184	004000ef	jal	x1,80000184	  x1=0x80000184
       41275000	      4126	00000000	00000013	addi	x0,x0,0	  x0:0x00000000
       41285000	      4127	80000184	00000013	addi	x0,x0,0	  x0:0x00000000
       41295000	      4128	80000188	0340066f	jal	x12,80000188	 x12=0x80000188
       41305000	      4129	00000000	00000013	addi	x0,x0,0	  x0:0x00000000
       41315000	      4130	800001b8	00000013	addi	x0,x0,0	  x0:0x00000000
       41325000	      4131	800001bc	017a2633	slt	x12,x20,x23	 x20:0x00000001 x23:0x00000000 x12=0x00000000
       41335000	      4132	800001c0	0139cbb3	xor	x23,x19,x19	 x19:0x00000001 x19:0x00000001 x23=0x00000000
       41345000	      4133	800001c4	00694733	xor	x14,x18,x6	 x18:0xc70b5d46  x6:0x800001a0 x14=0x470b5ce6
       41355000	      4134	800001c8	73e5f793	andi	x15,x11,1854	 x11:0xffffffe4 x15=0x00000724
       41365000	      4135	800001cc	f2658693	addi	x13,x11,-218	 x11:0xffffffe4 x13=0xffffff0a
       41375000	      4136	800001d0	2866b297	auipc	x5,0x2866b	  x5=0xa866b1cc
       41385000	      4137	800001d4	00003c17	auipc	x24,0x3	 x24=0x800031d0
       41395000	      4138	800001d8	730c0c13	addi	x24,x24,1840	 x24:0x800031d0 x24=0x80003900
       41405000	      4139	800001dc	013f54b3	srl	x9,x30,x19	 x30:0x80009f54 x19:0x00000001  x9=0x40004faa
       41415000	      4140	800001e0	ee2c0c13	addi	x24,x24,-286	 x24:0x80003900 x24=0x800037e2
       41425000	      4141	800001e4	00214a63	blt	x2,x2,800001f8	  x2:0x80000198  x2:0x80000198
       41435000	      4142	800001e8	19a03d97	auipc	x27,0x19a03	 x27=0x99a031e4
       41445000	      4143	800001ec	00c98933	add	x18,x19,x12	 x19:0x00000001 x12:0x00000000 x18=0x00000001
       41455000	      4144	800001f0	0093ecb3	or	x25,x7,x9	  x7:0x80009f54  x9:0x40004faa x25=0xc000dffe
       41465000	      4145	800001f4	01b5d7b3	srl	x15,x11,x27	 x11:0xffffffe4 x27:0x99a031e4 x15=0x0ffffffe
       41475000	      4146	800001f8	11ec07e7	jalr	x15,x24,286	 x24:0x800037e2 x15=0x800001f8
       41485000	      4147	00000000	00000013	addi	x0,x0,0	  x0:0x00000000
       41495000	      4148	80003900	00000013	addi	x0,x0,0	  x0:0x00000000
       41505000	      4149	80003904	415bda13	srai	x20,x23,0x15	 x23:0x00000000 x20=0x00000000
       41515000	      4150	80003908	01347ab3	and	x21,x8,x19	  x8:0x16356e1e x19:0x00000001 x21=0x00000000
       41525000	      4151	8000390c	40b25bb3	sra	x23,x4,x11	  x4:0xe9ba91f5 x11:0xffffffe4 x23=0xfe9ba91f
       41535000	      4152	80003910	00367b33	and	x22,x12,x3	 x12:0x00000000  x3:0x38f4a000 x22=0x00000000
       41545000	      4153	80003914	a98e4313	xori	x6,x28,-1384	 x28:0x800036cc  x6=0x7fffcc54
       41555000	      4154	80003918	0064deb3	srl	x29,x9,x6	  x9:0x40004faa  x6:0x7fffcc54 x29=0x00000400
       41565000	      4155	8000391c	00e24333	xor	x6,x4,x14	  x4:0xe9ba91f5 x14:0x470b5ce6  x6=0xaeb1cd13
       41575000	      4156	80003920	00193033	sltu	x0,x18,x1	 x18:0x00000001  x1:0x80000184
       41585000	      4157	80003924	fccf8f93	addi	x31,x31,-52	 x31:0x80009f84 x31=0x80009f50
       41595000	      4158	80003928	01a71d93	slli	x27,x14,0x1a	 x14:0x470b5ce6 x27=0x98000000
       41605000	      4159	8000392c	00ffa223	sw	x15,4(x31)	 x31:0x80009f50 x15:0x800001f8 PA:0x80009f54
       41615000	      4160	80003930	406cd5b3	sra	x11,x25,x6	 x25:0xc000dffe  x6:0xaeb1cd13 x11=0xfffff800
       41625000	      4161	80003934	00a85ab3	srl	x21,x16,x10	 x16:0xe9ba91f5 x10:0xb8ff3604 x21=0x0e9ba91f
       41635000	      4162	80003938	01ad14b3	sll	x9,x26,x26	 x26:0x00000000 x26:0x00000000  x9=0x00000000
       41645000	      4163	8000393c	68600f13	addi	x30,x0,1670	  x0:0x00000000 x30=0x00000686
       41655000	      4164	80003940	9864bd93	sltiu	x27,x9,-1658	  x9:0x00000000 x27=0x00000001
       41665000	      4165	80003944	9c64ba13	sltiu	x20,x9,-1594	  x9:0x00000000 x20=0x00000001
       41675000	      4166	80003948	001f7c33	and	x24,x30,x1	 x30:0x00000686  x1:0x80000184 x24=0x00000084
       41685000	      4167	8000394c	8e9fc7ef	jal	x15,8000394c	 x15=0x8000394c
       41695000	      4168	00000000	00000013	addi	x0,x0,0	  x0:0x00000000
       41705000	      4169	80000230	00000013	addi	x0,x0,0	  x0:0x00000000
       41715000	      4170	80000234	01bdbeb3	sltu	x29,x27,x27	 x27:0x00000001 x27:0x00000001 x29=0x00000000
       41725000	      4171	80000238	d2428193	addi	x3,x5,-732	  x5:0xa866b1cc  x3=0xa866aef0
       41735000	      4172	8000023c	d1653017	auipc	x0,0xd1653	
       41745000	      4173	80000240	01a0bbb3	sltu	x23,x1,x26	  x1:0x80000184 x26:0x00000000 x23=0x00000000
       41755000	      4174	80000244	fecf8f93	addi	x31,x31,-20	 x31:0x80009f50 x31=0x80009f3c
       41765000	      4175	80000248	00ffa223	sw	x15,4(x31)	 x31:0x80009f3c x15:0x8000394c PA:0x80009f40
       41775000	      4176	8000024c	00f59433	sll	x8,x11,x15	 x11:0xfffff800 x15:0x8000394c  x8=0xff800000
       41785000	      4177	80000250	01c007ef	jal	x15,80000250	 x15=0x80000250
       41795000	      4178	00000000	00000013	addi	x0,x0,0	  x0:0x00000000
       41805000	      4179	80000268	00000013	addi	x0,x0,0	  x0:0x00000000
       41815000	      4180	8000026c	ff5ff36f	jal	x6,8000026c	  x6=0x8000026c
       41825000	      4181	00000000	00000013	addi	x0,x0,0	  x0:0x00000000
       41835000	      4182	8000025c	00000013	addi	x0,x0,0	  x0:0x00000000
       41845000	      4183	80000260	ff9ff36f	jal	x6,80000260	  x6=0x80000260
       41855000	      4184	00000000	00000013	addi	x0,x0,0	  x0:0x00000000
       41865000	      4185	80000254	00000013	addi	x0,x0,0	  x0:0x00000000
       41875000	      4186	80000258	00c000ef	jal	x1,80000258	  x1=0x80000258
       41885000	      4187	00000000	00000013	addi	x0,x0,0	  x0:0x00000000
       41895000	      4188	80000260	00000013	addi	x0,x0,0	  x0:0x00000000
       41905000	      4189	80000264	014000ef	jal	x1,80000264	  x1=0x80000264
       41915000	      4190	00000000	00000013	addi	x0,x0,0	  x0:0x00000000
       41925000	      4191	80000274	00000013	addi	x0,x0,0	  x0:0x00000000
       41935000	      4192	80000278	ff1ff0ef	jal	x1,80000278	  x1=0x80000278
       41945000	      4193	00000000	00000013	addi	x0,x0,0	  x0:0x00000000
       41955000	      4194	80000264	00000013	addi	x0,x0,0	  x0:0x00000000
       41965000	      4195	80000268	0180036f	jal	x6,80000268	  x6=0x80000268
       41975000	      4196	00000000	00000013	addi	x0,x0,0	  x0:0x00000000
       41985000	      4197	8000027c	00000013	addi	x0,x0,0	  x0:0x00000000
       41995000	      4198	80000280	004000ef	jal	x1,80000280	  x1=0x80000280
       42005000	      4199	00000000	00000013	addi	x0,x0,0	  x0:0x00000000
       42015000	      4200	80000280	00000013	addi	x0,x0,0	  x0:0x00000000
       42025000	      4201	80000284	ff9ff86f	jal	x16,80000284	 x16=0x80000284
       42035000	      4202	00000000	00000013	addi	x0,x0,0	  x0:0x00000000
       42045000	      4203	80000278	00000013	addi	x0,x0,0	  x0:0x00000000
       42055000	      4204	8000027c	fe1ff36f	jal	x6,8000027c	  x6=0x8000027c
       42065000	      4205	00000000	00000013	addi	x0,x0,0	  x0:0x00000000
       42075000	      4206	80000258	00000013	addi	x0,x0,0	  x0:0x00000000
       42085000	      4207	8000025c	018005ef	jal	x11,8000025c	 x11=0x8000025c
       42095000	      4208	00000000	00000013	addi	x0,x0,0	  x0:0x00000000
       42105000	      4209	80000270	00000013	addi	x0,x0,0	  x0:0x00000000
       42115000	      4210	80000274	ffdff0ef	jal	x1,80000274	  x1=0x80000274
       42125000	      4211	00000000	00000013	addi	x0,x0,0	  x0:0x00000000
       42135000	      4212	8000026c	00000013	addi	x0,x0,0	  x0:0x00000000
       42145000	      4213	80000270	fe5ff0ef	jal	x1,80000270	  x1=0x80000270
       42155000	      4214	00000000	00000013	addi	x0,x0,0	  x0:0x00000000
       42165000	      4215	80000250	00000013	addi	x0,x0,0	  x0:0x00000000
       42175000	      4216	80000254	0340036f	jal	x6,80000254	  x6=0x80000254
       42185000	      4217	00000000	00000013	addi	x0,x0,0	  x0:0x00000000
       42195000	      4218	80000284	00000013	addi	x0,x0,0	  x0:0x00000000
       42205000	      4219	80000288	0165adb3	slt	x27,x11,x22	 x11:0x8000025c x22:0x00000000 x27=0x00000001
       42215000	      4220	8000028c	038007ef	jal	x15,8000028c	 x15=0x8000028c
       42225000	      4221	00000000	00000013	addi	x0,x0,0	  x0:0x00000000
       42235000	      4222	800002c0	00000013	addi	x0,x0,0	  x0:0x00000000
       42245000	      4223	800002c4	018000ef	jal	x1,800002c4	  x1=0x800002c4
       42255000	      4224	00000000	00000013	addi	x0,x0,0	  x0:0x00000000
       42265000	      4225	800002d8	00000013	addi	x0,x0,0	  x0:0x00000000
       42275000	      4226	800002dc	fedff0ef	jal	x1,800002dc	  x1=0x800002dc
       42285000	      4227	00000000	00000013	addi	x0,x0,0	  x0:0x00000000
       42295000	      4228	800002c4	00000013	addi	x0,x0,0	  x0:0x00000000
       42305000	      4229	800002c8	fd1ff36f	jal	x6,800002c8	  x6=0x800002c8
       42315000	      4230	00000000	00000013	addi	x0,x0,0	  x0:0x00000000
       42325000	      4231	80000294	00000013	addi	x0,x0,0	  x0:0x00000000
       42335000	      4232	80000298	ff9ff36f	jal	x6,80000298	  x6=0x80000298
       42345000	      4233	00000000	00000013	addi	x0,x0,0	  x0:0x00000000
       42355000	      4234	8000028c	00000013	addi	x0,x0,0	  x0:0x00000000
       42365000	      4235	80000290	02c0036f	jal	x6,80000290	  x6=0x80000290
       42375000	      4236	00000000	00000013	addi	x0,x0,0	  x0:0x00000000
       42385000	      4237	800002b8	00000013	addi	x0,x0,0	  x0:0x00000000
       42395000	      4238	800002bc	fd9ff0ef	jal	x1,800002bc	  x1=0x800002bc
       42405000	      4239	00000000	00000013	addi	x0,x0,0	  x0:0x00000000
       42415000	      4240	80000290	00000013	addi	x0,x0,0	  x0:0x00000000
       42425000	      4241	80000294	040007ef	jal	x15,80000294	 x15=0x80000294
       42435000	      4242	00000000	00000013	addi	x0,x0,0	  x0:0x00000000
       42445000	      4243	800002d0	00000013	addi	x0,x0,0	  x0:0x00000000
       42455000	      4244	800002d4	fd1ff1ef	jal	x3,800002d4	  x3=0x800002d4
       42465000	      4245	00000000	00000013	addi	x0,x0,0	  x0:0x00000000
       42475000	      4246	800002a0	00000013	addi	x0,x0,0	  x0:0x00000000
       42485000	      4247	800002a4	0400046f	jal	x8,800002a4	  x8=0x800002a4
       42495000	      4248	00000000	00000013	addi	x0,x0,0	  x0:0x00000000
       42505000	      4249	800002e0	00000013	addi	x0,x0,0	  x0:0x00000000
       42515000	      4250	800002e4	ffdff0ef	jal	x1,800002e4	  x1=0x800002e4
       42525000	      4251	00000000	00000013	addi	x0,x0,0	  x0:0x00000000
       42535000	      4252	800002dc	00000013	addi	x0,x0,0	  x0:0x00000000
       42545000	      4253	800002e0	ff9ff36f	jal	x6,800002e0	  x6=0x800002e0
       42555000	      4254	00000000	00000013	addi	x0,x0,0	  x0:0x00000000
       42565000	      4255	800002d4	00000013	addi	x0,x0,0	  x0:0x00000000
       42575000	      4256	800002d8	ff9ff0ef	jal	x1,800002d8	  x1=0x800002d8
       42585000	      4257	00000000	00000013	addi	x0,x0,0	  x0:0x00000000
       42595000	      4258	800002cc	00000013	addi	x0,x0,0	  x0:0x00000000
       42605000	      4259	800002d0	ff1ff36f	jal	x6,800002d0	  x6=0x800002d0
       42615000	      4260	00000000	00000013	addi	x0,x0,0	  x0:0x00000000
       42625000	      4261	800002bc	00000013	addi	x0,x0,0	  x0:0x00000000
       42635000	      4262	800002c0	fe1ff36f	jal	x6,800002c0	  x6=0x800002c0
       42645000	      4263	00000000	00000013	addi	x0,x0,0	  x0:0x00000000
       42655000	      4264	8000029c	00000013	addi	x0,x0,0	  x0:0x00000000
       42665000	      4265	800002a0	00c000ef	jal	x1,800002a0	  x1=0x800002a0
       42675000	      4266	00000000	00000013	addi	x0,x0,0	  x0:0x00000000
       42685000	      4267	800002a8	00000013	addi	x0,x0,0	  x0:0x00000000
       42695000	      4268	800002ac	ff1ff0ef	jal	x1,800002ac	  x1=0x800002ac
       42705000	      4269	00000000	00000013	addi	x0,x0,0	  x0:0x00000000
       42715000	      4270	80000298	00000013	addi	x0,x0,0	  x0:0x00000000
       42725000	      4271	8000029c	014000ef	jal	x1,8000029c	  x1=0x8000029c
       42735000	      4272	00000000	00000013	addi	x0,x0,0	  x0:0x00000000
       42745000	      4273	800002ac	00000013	addi	x0,x0,0	  x0:0x00000000
       42755000	      4274	800002b0	008000ef	jal	x1,800002b0	  x1=0x800002b0
       42765000	      4275	00000000	00000013	addi	x0,x0,0	  x0:0x00000000
       42775000	      4276	800002b4	00000013	addi	x0,x0,0	  x0:0x00000000
       42785000	      4277	800002b8	ff1ff0ef	jal	x1,800002b8	  x1=0x800002b8
       42795000	      4278	00000000	00000013	addi	x0,x0,0	  x0:0x00000000
       42805000	      4279	800002a4	00000013	addi	x0,x0,0	  x0:0x00000000
       42815000	      4280	800002a8	00c000ef	jal	x1,800002a8	  x1=0x800002a8
       42825000	      4281	00000000	00000013	addi	x0,x0,0	  x0:0x00000000
       42835000	      4282	800002b0	00000013	addi	x0,x0,0	  x0:0x00000000
       42845000	      4283	800002b4	018000ef	jal	x1,800002b4	  x1=0x800002b4
       42855000	      4284	00000000	00000013	addi	x0,x0,0	  x0:0x00000000
       42865000	      4285	800002c8	00000013	addi	x0,x0,0	  x0:0x00000000
       42875000	      4286	800002cc	01c000ef	jal	x1,800002cc	  x1=0x800002cc
       42885000	      4287	00000000	00000013	addi	x0,x0,0	  x0:0x00000000
       42895000	      4288	800002e4	00000013	addi	x0,x0,0	  x0:0x00000000
       42905000	      4289	800002e8	40a15ab3	sra	x21,x2,x10	  x2:0x80000198 x10:0xb8ff3604 x21=0xf8000019
       42915000	      4290	800002ec	034007ef	jal	x15,800002ec	 x15=0x800002ec
       42925000	      4291	00000000	00000013	addi	x0,x0,0	  x0:0x00000000
       42935000	      4292	8000031c	00000013	addi	x0,x0,0	  x0:0x00000000
       42945000	      4293	80000320	02800bef	jal	x23,80000320	 x23=0x80000320
       42955000	      4294	00000000	00000013	addi	x0,x0,0	  x0:0x00000000
       42965000	      4295	80000344	00000013	addi	x0,x0,0	  x0:0x00000000
       42975000	      4296	80000348	fbdffbef	jal	x23,80000348	 x23=0x80000348
       42985000	      4297	00000000	00000013	addi	x0,x0,0	  x0:0x00000000
       42995000	      4298	80000300	00000013	addi	x0,x0,0	  x0:0x00000000
       43005000	      4299	80000304	01400a6f	jal	x20,80000304	 x20=0x80000304
       43015000	      4300	00000000	00000013	addi	x0,x0,0	  x0:0x00000000
       43025000	      4301	80000314	00000013	addi	x0,x0,0	  x0:0x00000000
       43035000	      4302	80000318	040000ef	jal	x1,80000318	  x1=0x80000318
       43045000	      4303	00000000	00000013	addi	x0,x0,0	  x0:0x00000000
       43055000	      4304	80000354	00000013	addi	x0,x0,0	  x0:0x00000000
       43065000	      4305	80000358	fd5ff0ef	jal	x1,80000358	  x1=0x80000358
       43075000	      4306	00000000	00000013	addi	x0,x0,0	  x0:0x00000000
       43085000	      4307	80000328	00000013	addi	x0,x0,0	  x0:0x00000000
       43095000	      4308	8000032c	018000ef	jal	x1,8000032c	  x1=0x8000032c
       43105000	      4309	00000000	00000013	addi	x0,x0,0	  x0:0x00000000
       43115000	      4310	80000340	00000013	addi	x0,x0,0	  x0:0x00000000
       43125000	      4311	80000344	fd9ff0ef	jal	x1,80000344	  x1=0x80000344
       43135000	      4312	00000000	00000013	addi	x0,x0,0	  x0:0x00000000
       43145000	      4313	80000318	00000013	addi	x0,x0,0	  x0:0x00000000
       43155000	      4314	8000031c	00c00c6f	jal	x24,8000031c	 x24=0x8000031c
       43165000	      4315	00000000	00000013	addi	x0,x0,0	  x0:0x00000000
       43175000	      4316	80000324	00000013	addi	x0,x0,0	  x0:0x00000000
       43185000	      4317	80000328	fd9ff0ef	jal	x1,80000328	  x1=0x80000328
       43195000	      4318	00000000	00000013	addi	x0,x0,0	  x0:0x00000000
       43205000	      4319	800002fc	00000013	addi	x0,x0,0	  x0:0x00000000
       43215000	      4320	80000300	0300036f	jal	x6,80000300	  x6=0x80000300
       43225000	      4321	00000000	00000013	addi	x0,x0,0	  x0:0x00000000
       43235000	      4322	8000032c	00000013	addi	x0,x0,0	  x0:0x00000000
       43245000	      4323	80000330	fcdff0ef	jal	x1,80000330	  x1=0x80000330
       43255000	      4324	00000000	00000013	addi	x0,x0,0	  x0:0x00000000
       43265000	      4325	800002f8	00000013	addi	x0,x0,0	  x0:0x00000000
       43275000	      4326	800002fc	03c000ef	jal	x1,800002fc	  x1=0x800002fc
       43285000	      4327	00000000	00000013	addi	x0,x0,0	  x0:0x00000000
       43295000	      4328	80000334	00000013	addi	x0,x0,0	  x0:0x00000000
       43305000	      4329	80000338	018000ef	jal	x1,80000338	  x1=0x80000338
       43315000	      4330	00000000	00000013	addi	x0,x0,0	  x0:0x00000000
       43325000	      4331	8000034c	00000013	addi	x0,x0,0	  x0:0x00000000
       43335000	      4332	80000350	fb9ff0ef	jal	x1,80000350	  x1=0x80000350
       43345000	      4333	00000000	00000013	addi	x0,x0,0	  x0:0x00000000
       43355000	      4334	80000304	00000013	addi	x0,x0,0	  x0:0x00000000
       43365000	      4335	80000308	0040036f	jal	x6,80000308	  x6=0x80000308
       43375000	      4336	00000000	00000013	addi	x0,x0,0	  x0:0x00000000
       43385000	      4337	80000308	00000013	addi	x0,x0,0	  x0:0x00000000
       43395000	      4338	8000030c	0180036f	jal	x6,8000030c	  x6=0x8000030c
       43405000	      4339	00000000	00000013	addi	x0,x0,0	  x0:0x00000000
       43415000	      4340	80000320	00000013	addi	x0,x0,0	  x0:0x00000000
       43425000	      4341	80000324	0300016f	jal	x2,80000324	  x2=0x80000324
       43435000	      4342	00000000	00000013	addi	x0,x0,0	  x0:0x00000000
       43445000	      4343	80000350	00000013	addi	x0,x0,0	  x0:0x00000000
       43455000	      4344	80000354	ff9ff66f	jal	x12,80000354	 x12=0x80000354
       43465000	      4345	00000000	00000013	addi	x0,x0,0	  x0:0x00000000
       43475000	      4346	80000348	00000013	addi	x0,x0,0	  x0:0x00000000
       43485000	      4347	8000034c	fadff0ef	jal	x1,8000034c	  x1=0x8000034c
       43495000	      4348	00000000	00000013	addi	x0,x0,0	  x0:0x00000000
       43505000	      4349	800002f4	00000013	addi	x0,x0,0	  x0:0x00000000
       43515000	      4350	800002f8	048000ef	jal	x1,800002f8	  x1=0x800002f8
       43525000	      4351	00000000	00000013	addi	x0,x0,0	  x0:0x00000000
       43535000	      4352	8000033c	00000013	addi	x0,x0,0	  x0:0x00000000
       43545000	      4353	80000340	ffdff0ef	jal	x1,80000340	  x1=0x80000340
       43555000	      4354	00000000	00000013	addi	x0,x0,0	  x0:0x00000000
       43565000	      4355	80000338	00000013	addi	x0,x0,0	  x0:0x00000000
       43575000	      4356	8000033c	fb5ff0ef	jal	x1,8000033c	  x1=0x8000033c
       43585000	      4357	00000000	00000013	addi	x0,x0,0	  x0:0x00000000
       43595000	      4358	800002ec	00000013	addi	x0,x0,0	  x0:0x00000000
       43605000	      4359	800002f0	02000e6f	jal	x28,800002f0	 x28=0x800002f0
       43615000	      4360	00000000	00000013	addi	x0,x0,0	  x0:0x00000000
       43625000	      4361	8000030c	00000013	addi	x0,x0,0	  x0:0x00000000
       43635000	      4362	80000310	fe5ff0ef	jal	x1,80000310	  x1=0x80000310
       43645000	      4363	00000000	00000013	addi	x0,x0,0	  x0:0x00000000
       43655000	      4364	800002f0	00000013	addi	x0,x0,0	  x0:0x00000000
       43665000	      4365	800002f4	0400036f	jal	x6,800002f4	  x6=0x800002f4
       43675000	      4366	00000000	00000013	addi	x0,x0,0	  x0:0x00000000
       43685000	      4367	80000330	00000013	addi	x0,x0,0	  x0:0x00000000
       43695000	      4368	80000334	fe1ff0ef	jal	x1,80000334	  x1=0x80000334
       43705000	      4369	00000000	00000013	addi	x0,x0,0	  x0:0x00000000
       43715000	      4370	80000310	00000013	addi	x0,x0,0	  x0:0x00000000
       43725000	      4371	80000314	0480036f	jal	x6,80000314	  x6=0x80000314
       43735000	      4372	00000000	00000013	addi	x0,x0,0	  x0:0x00000000
       43745000	      4373	80000358	00000013	addi	x0,x0,0	  x0:0x00000000
       43755000	      4374	8000035c	00f0dc33	srl	x24,x1,x15	  x1:0x80000334 x15:0x800002ec x24=0x00080000
       43765000	      4375	80000360	004007ef	jal	x15,80000360	 x15=0x80000360
       43775000	      4376	00000000	00000013	addi	x0,x0,0	  x0:0x00000000
       43785000	      4377	80000360	00000013	addi	x0,x0,0	  x0:0x00000000
       43795000	      4378	80000364	030000ef	jal	x1,80000364	  x1=0x80000364
       43805000	      4379	00000000	00000013	addi	x0,x0,0	  x0:0x00000000
       43815000	      4380	80000390	00000013	addi	x0,x0,0	  x0:0x00000000
       43825000	      4381	80000394	0040096f	jal	x18,80000394	 x18=0x80000394
       43835000	      4382	00000000	00000013	addi	x0,x0,0	  x0:0x00000000
       43845000	      4383	80000394	00000013	addi	x0,x0,0	  x0:0x00000000
       43855000	      4384	80000398	fe9ff36f	jal	x6,80000398	  x6=0x80000398
       43865000	      4385	00000000	00000013	addi	x0,x0,0	  x0:0x00000000
       43875000	      4386	8000037c	00000013	addi	x0,x0,0	  x0:0x00000000
       43885000	      4387	80000380	ff9ff0ef	jal	x1,80000380	  x1=0x80000380
       43895000	      4388	00000000	00000013	addi	x0,x0,0	  x0:0x00000000
       43905000	      4389	80000374	00000013	addi	x0,x0,0	  x0:0x00000000
       43915000	      4390	80000378	00c000ef	jal	x1,80000378	  x1=0x80000378
       43925000	      4391	00000000	00000013	addi	x0,x0,0	  x0:0x00000000
       43935000	      4392	80000380	00000013	addi	x0,x0,0	  x0:0x00000000
       43945000	      4393	80000384	0040036f	jal	x6,80000384	  x6=0x80000384
       43955000	      4394	00000000	00000013	addi	x0,x0,0	  x0:0x00000000
       43965000	      4395	80000384	00000013	addi	x0,x0,0	  x0:0x00000000
       43975000	      4396	80000388	fe9ff0ef	jal	x1,80000388	  x1=0x80000388
       43985000	      4397	00000000	00000013	addi	x0,x0,0	  x0:0x00000000
       43995000	      4398	8000036c	00000013	addi	x0,x0,0	  x0:0x00000000
       44005000	      4399	80000370	ffdff6ef	jal	x13,80000370	 x13=0x80000370
       44015000	      4400	00000000	00000013	addi	x0,x0,0	  x0:0x00000000
       44025000	      4401	80000368	00000013	addi	x0,x0,0	  x0:0x00000000
       44035000	      4402	8000036c	020000ef	jal	x1,8000036c	  x1=0x8000036c
       44045000	      4403	00000000	00000013	addi	x0,x0,0	  x0:0x00000000
       44055000	      4404	80000388	00000013	addi	x0,x0,0	  x0:0x00000000
       44065000	      4405	8000038c	ff1ff36f	jal	x6,8000038c	  x6=0x8000038c
       44075000	      4406	00000000	00000013	addi	x0,x0,0	  x0:0x00000000
       44085000	      4407	80000378	00000013	addi	x0,x0,0	  x0:0x00000000
       44095000	      4408	8000037c	ff9ff0ef	jal	x1,8000037c	  x1=0x8000037c
       44105000	      4409	00000000	00000013	addi	x0,x0,0	  x0:0x00000000
       44115000	      4410	80000370	00000013	addi	x0,x0,0	  x0:0x00000000
       44125000	      4411	80000374	01c0016f	jal	x2,80000374	  x2=0x80000374
       44135000	      4412	00000000	00000013	addi	x0,x0,0	  x0:0x00000000
       44145000	      4413	8000038c	00000013	addi	x0,x0,0	  x0:0x00000000
       44155000	      4414	80000390	fd9ff0ef	jal	x1,80000390	  x1=0x80000390
       44165000	      4415	00000000	00000013	addi	x0,x0,0	  x0:0x00000000
       44175000	      4416	80000364	00000013	addi	x0,x0,0	  x0:0x00000000
       44185000	      4417	80000368	034000ef	jal	x1,80000368	  x1=0x80000368
       44195000	      4418	00000000	00000013	addi	x0,x0,0	  x0:0x00000000
       44205000	      4419	80000398	00000013	addi	x0,x0,0	  x0:0x00000000
       44215000	      4420	8000039c	86b4f097	auipc	x1,0x86b4f	  x1=0x06b4f398
       44225000	      4421	800003a0	008007ef	jal	x15,800003a0	 x15=0x800003a0
       44235000	      4422	00000000	00000013	addi	x0,x0,0	  x0:0x00000000
       44245000	      4423	800003a4	00000013	addi	x0,x0,0	  x0:0x00000000
       44255000	      4424	800003a8	ffdff1ef	jal	x3,800003a8	  x3=0x800003a8
       44265000	      4425	00000000	00000013	addi	x0,x0,0	  x0:0x00000000
       44275000	      4426	800003a0	00000013	addi	x0,x0,0	  x0:0x00000000
       44285000	      4427	800003a4	0200046f	jal	x8,800003a4	  x8=0x800003a4
       44295000	      4428	00000000	00000013	addi	x0,x0,0	  x0:0x00000000
       44305000	      4429	800003c0	00000013	addi	x0,x0,0	  x0:0x00000000
       44315000	      4430	800003c4	014000ef	jal	x1,800003c4	  x1=0x800003c4
       44325000	      4431	00000000	00000013	addi	x0,x0,0	  x0:0x00000000
       44335000	      4432	800003d4	00000013	addi	x0,x0,0	  x0:0x00000000
       44345000	      4433	800003d8	fddff3ef	jal	x7,800003d8	  x7=0x800003d8
       44355000	      4434	00000000	00000013	addi	x0,x0,0	  x0:0x00000000
       44365000	      4435	800003b0	00000013	addi	x0,x0,0	  x0:0x00000000
       44375000	      4436	800003b4	02c000ef	jal	x1,800003b4	  x1=0x800003b4
       44385000	      4437	00000000	00000013	addi	x0,x0,0	  x0:0x00000000
       44395000	      4438	800003dc	00000013	addi	x0,x0,0	  x0:0x00000000
       44405000	      4439	800003e0	fe1ff36f	jal	x6,800003e0	  x6=0x800003e0
       44415000	      4440	00000000	00000013	addi	x0,x0,0	  x0:0x00000000
       44425000	      4441	800003bc	00000013	addi	x0,x0,0	  x0:0x00000000
       44435000	      4442	800003c0	010004ef	jal	x9,800003c0	  x9=0x800003c0
       44445000	      4443	00000000	00000013	addi	x0,x0,0	  x0:0x00000000
       44455000	      4444	800003cc	00000013	addi	x0,x0,0	  x0:0x00000000
       44465000	      4445	800003d0	00c0036f	jal	x6,800003d0	  x6=0x800003d0
       44475000	      4446	00000000	00000013	addi	x0,x0,0	  x0:0x00000000
       44485000	      4447	800003d8	00000013	addi	x0,x0,0	  x0:0x00000000
       44495000	      4448	800003dc	008009ef	jal	x19,800003dc	 x19=0x800003dc
       44505000	      4449	00000000	00000013	addi	x0,x0,0	  x0:0x00000000
       44515000	      4450	800003e0	00000013	addi	x0,x0,0	  x0:0x00000000
       44525000	      4451	800003e4	0080036f	jal	x6,800003e4	  x6=0x800003e4
       44535000	      4452	00000000	00000013	addi	x0,x0,0	  x0:0x00000000
       44545000	      4453	800003e8	00000013	addi	x0,x0,0	  x0:0x00000000
       44555000	      4454	800003ec	fe1ff76f	jal	x14,800003ec	 x14=0x800003ec
       44565000	      4455	00000000	00000013	addi	x0,x0,0	  x0:0x00000000
       44575000	      4456	800003c8	00000013	addi	x0,x0,0	  x0:0x00000000
       44585000	      4457	800003cc	01c0036f	jal	x6,800003cc	  x6=0x800003cc
       44595000	      4458	00000000	00000013	addi	x0,x0,0	  x0:0x00000000
       44605000	      4459	800003e4	00000013	addi	x0,x0,0	  x0:0x00000000
       44615000	      4460	800003e8	fedff0ef	jal	x1,800003e8	  x1=0x800003e8
       44625000	      4461	00000000	00000013	addi	x0,x0,0	  x0:0x00000000
       44635000	      4462	800003d0	00000013	addi	x0,x0,0	  x0:0x00000000
       44645000	      4463	800003d4	fe9ff0ef	jal	x1,800003d4	  x1=0x800003d4
       44655000	      4464	00000000	00000013	addi	x0,x0,0	  x0:0x00000000
       44665000	      4465	800003b8	00000013	addi	x0,x0,0	  x0:0x00000000
       44675000	      4466	800003bc	ff1ff56f	jal	x10,800003bc	 x10=0x800003bc
       44685000	      4467	00000000	00000013	addi	x0,x0,0	  x0:0x00000000
       44695000	      4468	800003a8	00000013	addi	x0,x0,0	  x0:0x00000000
       44705000	      4469	800003ac	00400cef	jal	x25,800003ac	 x25=0x800003ac
       44715000	      4470	00000000	00000013	addi	x0,x0,0	  x0:0x00000000
       44725000	      4471	800003ac	00000013	addi	x0,x0,0	  x0:0x00000000
       44735000	      4472	800003b0	008009ef	jal	x19,800003b0	 x19=0x800003b0
       44745000	      4473	00000000	00000013	addi	x0,x0,0	  x0:0x00000000
       44755000	      4474	800003b4	00000013	addi	x0,x0,0	  x0:0x00000000
       44765000	      4475	800003b8	010002ef	jal	x5,800003b8	  x5=0x800003b8
       44775000	      4476	00000000	00000013	addi	x0,x0,0	  x0:0x00000000
       44785000	      4477	800003c4	00000013	addi	x0,x0,0	  x0:0x00000000
       44795000	      4478	800003c8	028000ef	jal	x1,800003c8	  x1=0x800003c8
       44805000	      4479	00000000	00000013	addi	x0,x0,0	  x0:0x00000000
       44815000	      4480	800003ec	00000013	addi	x0,x0,0	  x0:0x00000000
       44825000	      4481	800003f0	004000ef	jal	x1,800003f0	  x1=0x800003f0
       44835000	      4482	00000000	00000013	addi	x0,x0,0	  x0:0x00000000
       44845000	      4483	800003f0	00000013	addi	x0,x0,0	  x0:0x00000000
       44855000	      4484	800003f4	a0533eb7	lui	x29,0xa0533	 x29=0xa0533000
       44865000	      4485	800003f8	014007ef	jal	x15,800003f8	 x15=0x800003f8
       44875000	      4486	00000000	00000013	addi	x0,x0,0	  x0:0x00000000
       44885000	      4487	80000408	00000013	addi	x0,x0,0	  x0:0x00000000
       44895000	      4488	8000040c	ff1ff36f	jal	x6,8000040c	  x6=0x8000040c
       44905000	      4489	00000000	00000013	addi	x0,x0,0	  x0:0x00000000
       44915000	      4490	800003f8	00000013	addi	x0,x0,0	  x0:0x00000000
       44925000	      4491	800003fc	03400a6f	jal	x20,800003fc	 x20=0x800003fc
       44935000	      4492	00000000	00000013	addi	x0,x0,0	  x0:0x00000000
       44945000	      4493	8000042c	00000013	addi	x0,x0,0	  x0:0x00000000
       44955000	      4494	80000430	fe9ff0ef	jal	x1,80000430	  x1=0x80000430
       44965000	      4495	00000000	00000013	addi	x0,x0,0	  x0:0x00000000
       44975000	      4496	80000414	00000013	addi	x0,x0,0	  x0:0x00000000
       44985000	      4497	80000418	fe9ff0ef	jal	x1,80000418	  x1=0x80000418
       44995000	      4498	00000000	00000013	addi	x0,x0,0	  x0:0x00000000
       45005000	      4499	800003fc	00000013	addi	x0,x0,0	  x0:0x00000000
       45015000	      4500	80000400	038000ef	jal	x1,80000400	  x1=0x80000400
       45025000	      4501	00000000	00000013	addi	x0,x0,0	  x0:0x00000000
       45035000	      4502	80000434	00000013	addi	x0,x0,0	  x0:0x00000000
       45045000	      4503	80000438	fe5ff0ef	jal	x1,80000438	  x1=0x80000438
       45055000	      4504	00000000	00000013	addi	x0,x0,0	  x0:0x00000000
       45065000	      4505	80000418	00000013	addi	x0,x0,0	  x0:0x00000000
       45075000	      4506	8000041c	010002ef	jal	x5,8000041c	  x5=0x8000041c
       45085000	      4507	00000000	00000013	addi	x0,x0,0	  x0:0x00000000
       45095000	      4508	80000428	00000013	addi	x0,x0,0	  x0:0x00000000
       45105000	      4509	8000042c	ffdff1ef	jal	x3,8000042c	  x3=0x8000042c
       45115000	      4510	00000000	00000013	addi	x0,x0,0	  x0:0x00000000
       45125000	      4511	80000424	00000013	addi	x0,x0,0	  x0:0x00000000
       45135000	      4512	80000428	fe1ff66f	jal	x12,80000428	 x12=0x80000428
       45145000	      4513	00000000	00000013	addi	x0,x0,0	  x0:0x00000000
       45155000	      4514	80000404	00000013	addi	x0,x0,0	  x0:0x00000000
       45165000	      4515	80000408	ffdff0ef	jal	x1,80000408	  x1=0x80000408
       45175000	      4516	00000000	00000013	addi	x0,x0,0	  x0:0x00000000
       45185000	      4517	80000400	00000013	addi	x0,x0,0	  x0:0x00000000
       45195000	      4518	80000404	0100036f	jal	x6,80000404	  x6=0x80000404
       45205000	      4519	00000000	00000013	addi	x0,x0,0	  x0:0x00000000
       45215000	      4520	80000410	00000013	addi	x0,x0,0	  x0:0x00000000
       45225000	      4521	80000414	00c0096f	jal	x18,80000414	 x18=0x80000414
       45235000	      4522	00000000	00000013	addi	x0,x0,0	  x0:0x00000000
       45245000	      4523	8000041c	00000013	addi	x0,x0,0	  x0:0x00000000
       45255000	      4524	80000420	ff1ff96f	jal	x18,80000420	 x18=0x80000420
       45265000	      4525	00000000	00000013	addi	x0,x0,0	  x0:0x00000000
       45275000	      4526	8000040c	00000013	addi	x0,x0,0	  x0:0x00000000
       45285000	      4527	80000410	024000ef	jal	x1,80000410	  x1=0x80000410
       45295000	      4528	00000000	00000013	addi	x0,x0,0	  x0:0x00000000
       45305000	      4529	80000430	00000013	addi	x0,x0,0	  x0:0x00000000
       45315000	      4530	80000434	ff1ff1ef	jal	x3,80000434	  x3=0x80000434
       45325000	      4531	00000000	00000013	addi	x0,x0,0	  x0:0x00000000
       45335000	      4532	80000420	00000013	addi	x0,x0,0	  x0:0x00000000
       45345000	      4533	80000424	0180066f	jal	x12,80000424	 x12=0x80000424
       45355000	      4534	00000000	00000013	addi	x0,x0,0	  x0:0x00000000
       45365000	      4535	80000438	00000013	addi	x0,x0,0	  x0:0x00000000
       45375000	      4536	8000043c	00319813	slli	x16,x3,0x3	  x3:0x80000434 x16=0x000021a0
       45385000	      4537	80000440	034007ef	jal	x15,80000440	 x15=0x80000440
       45395000	      4538	00000000	00000013	addi	x0,x0,0	  x0:0x00000000
       45405000	      4539	80000470	00000013	addi	x0,x0,0	  x0:0x00000000
       45415000	      4540	80000474	fddff36f	jal	x6,80000474	  x6=0x80000474
       45425000	      4541	00000000	00000013	addi	x0,x0,0	  x0:0x00000000
       45435000	      4542	8000044c	00000013	addi	x0,x0,0	  x0:0x00000000
       45445000	      4543	80000450	028000ef	jal	x1,80000450	  x1=0x80000450
       45455000	      4544	00000000	00000013	addi	x0,x0,0	  x0:0x00000000
       45465000	      4545	80000474	00000013	addi	x0,x0,0	  x0:0x00000000
       45475000	      4546	80000478	fd1ff2ef	jal	x5,80000478	  x5=0x80000478
       45485000	      4547	00000000	00000013	addi	x0,x0,0	  x0:0x00000000
       45495000	      4548	80000444	00000013	addi	x0,x0,0	  x0:0x00000000
       45505000	      4549	80000448	040001ef	jal	x3,80000448	  x3=0x80000448
       45515000	      4550	00000000	00000013	addi	x0,x0,0	  x0:0x00000000
       45525000	      4551	80000484	00000013	addi	x0,x0,0	  x0:0x00000000
       45535000	      4552	80000488	fc5ff0ef	jal	x1,80000488	  x1=0x80000488
       45545000	      4553	00000000	00000013	addi	x0,x0,0	  x0:0x00000000
       45555000	      4554	80000448	00000013	addi	x0,x0,0	  x0:0x00000000
       45565000	      4555	8000044c	030000ef	jal	x1,8000044c	  x1=0x8000044c
       45575000	      4556	00000000	00000013	addi	x0,x0,0	  x0:0x00000000
       45585000	      4557	80000478	00000013	addi	x0,x0,0	  x0:0x00000000
       45595000	      4558	8000047c	fe1ff0ef	jal	x1,8000047c	  x1=0x8000047c
       45605000	      4559	00000000	00000013	addi	x0,x0,0	  x0:0x00000000
       45615000	      4560	80000458	00000013	addi	x0,x0,0	  x0:0x00000000
       45625000	      4561	8000045c	fe9ff0ef	jal	x1,8000045c	  x1=0x8000045c
       45635000	      4562	00000000	00000013	addi	x0,x0,0	  x0:0x00000000
       45645000	      4563	80000440	00000013	addi	x0,x0,0	  x0:0x00000000
       45655000	      4564	80000444	048000ef	jal	x1,80000444	  x1=0x80000444
       45665000	      4565	00000000	00000013	addi	x0,x0,0	  x0:0x00000000
       45675000	      4566	80000488	00000013	addi	x0,x0,0	  x0:0x00000000
       45685000	      4567	8000048c	ff9ff0ef	jal	x1,8000048c	  x1=0x8000048c
       45695000	      4568	00000000	00000013	addi	x0,x0,0	  x0:0x00000000
       45705000	      4569	80000480	00000013	addi	x0,x0,0	  x0:0x00000000
       45715000	      4570	80000484	ffdff16f	jal	x2,80000484	  x2=0x80000484
       45725000	      4571	00000000	00000013	addi	x0,x0,0	  x0:0x00000000
       45735000	      4572	8000047c	00000013	addi	x0,x0,0	  x0:0x00000000
       45745000	      4573	80000480	fd9ff0ef	jal	x1,80000480	  x1=0x80000480
       45755000	      4574	00000000	00000013	addi	x0,x0,0	  x0:0x00000000
       45765000	      4575	80000454	00000013	addi	x0,x0,0	  x0:0x00000000
       45775000	      4576	80000458	0180036f	jal	x6,80000458	  x6=0x80000458
       45785000	      4577	00000000	00000013	addi	x0,x0,0	  x0:0x00000000
       45795000	      4578	8000046c	00000013	addi	x0,x0,0	  x0:0x00000000
       45805000	      4579	80000470	03000def	jal	x27,80000470	 x27=0x80000470
       45815000	      4580	00000000	00000013	addi	x0,x0,0	  x0:0x00000000
       45825000	      4581	8000049c	00000013	addi	x0,x0,0	  x0:0x00000000
       45835000	      4582	800004a0	ffdff0ef	jal	x1,800004a0	  x1=0x800004a0
       45845000	      4583	00000000	00000013	addi	x0,x0,0	  x0:0x00000000
       45855000	      4584	80000498	00000013	addi	x0,x0,0	  x0:0x00000000
       45865000	      4585	8000049c	ff9ff0ef	jal	x1,8000049c	  x1=0x8000049c
       45875000	      4586	00000000	00000013	addi	x0,x0,0	  x0:0x00000000
       45885000	      4587	80000490	00000013	addi	x0,x0,0	  x0:0x00000000
       45895000	      4588	80000494	fd5ff0ef	jal	x1,80000494	  x1=0x80000494
       45905000	      4589	00000000	00000013	addi	x0,x0,0	  x0:0x00000000
       45915000	      4590	80000464	00000013	addi	x0,x0,0	  x0:0x00000000
       45925000	      4591	80000468	ffdff0ef	jal	x1,80000468	  x1=0x80000468
       45935000	      4592	00000000	00000013	addi	x0,x0,0	  x0:0x00000000
       45945000	      4593	80000460	00000013	addi	x0,x0,0	  x0:0x00000000
       45955000	      4594	80000464	ffdff0ef	jal	x1,80000464	  x1=0x80000464
       45965000	      4595	00000000	00000013	addi	x0,x0,0	  x0:0x00000000
       45975000	      4596	8000045c	00000013	addi	x0,x0,0	  x0:0x00000000
       45985000	      4597	80000460	038000ef	jal	x1,80000460	  x1=0x80000460
       45995000	      4598	00000000	00000013	addi	x0,x0,0	  x0:0x00000000
       46005000	      4599	80000494	00000013	addi	x0,x0,0	  x0:0x00000000
       46015000	      4600	80000498	fd5ff0ef	jal	x1,80000498	  x1=0x80000498
       46025000	      4601	00000000	00000013	addi	x0,x0,0	  x0:0x00000000
       46035000	      4602	80000468	00000013	addi	x0,x0,0	  x0:0x00000000
       46045000	      4603	8000046c	fe9ff4ef	jal	x9,8000046c	  x9=0x8000046c
       46055000	      4604	00000000	00000013	addi	x0,x0,0	  x0:0x00000000
       46065000	      4605	80000450	00000013	addi	x0,x0,0	  x0:0x00000000
       46075000	      4606	80000454	03c000ef	jal	x1,80000454	  x1=0x80000454
       46085000	      4607	00000000	00000013	addi	x0,x0,0	  x0:0x00000000
       46095000	      4608	8000048c	00000013	addi	x0,x0,0	  x0:0x00000000
       46105000	      4609	80000490	01400eef	jal	x29,80000490	 x29=0x80000490
       46115000	      4610	00000000	00000013	addi	x0,x0,0	  x0:0x00000000
       46125000	      4611	800004a0	00000013	addi	x0,x0,0	  x0:0x00000000
       46135000	      4612	800004a4	4026e417	auipc	x8,0x4026e	  x8=0xc026e4a0
       46145000	      4613	800004a8	014007ef	jal	x15,800004a8	 x15=0x800004a8
       46155000	      4614	00000000	00000013	addi	x0,x0,0	  x0:0x00000000
       46165000	      4615	800004b8	00000013	addi	x0,x0,0	  x0:0x00000000
       46175000	      4616	800004bc	0040036f	jal	x6,800004bc	  x6=0x800004bc
       46185000	      4617	00000000	00000013	addi	x0,x0,0	  x0:0x00000000
       46195000	      4618	800004bc	00000013	addi	x0,x0,0	  x0:0x00000000
       46205000	      4619	800004c0	010000ef	jal	x1,800004c0	  x1=0x800004c0
       46215000	      4620	00000000	00000013	addi	x0,x0,0	  x0:0x00000000
       46225000	      4621	800004cc	00000013	addi	x0,x0,0	  x0:0x00000000
       46235000	      4622	800004d0	ff5ffcef	jal	x25,800004d0	 x25=0x800004d0
       46245000	      4623	00000000	00000013	addi	x0,x0,0	  x0:0x00000000
       46255000	      4624	800004c0	00000013	addi	x0,x0,0	  x0:0x00000000
       46265000	      4625	800004c4	024000ef	jal	x1,800004c4	  x1=0x800004c4
       46275000	      4626	00000000	00000013	addi	x0,x0,0	  x0:0x00000000
       46285000	      4627	800004e4	00000013	addi	x0,x0,0	  x0:0x00000000
       46295000	      4628	800004e8	008000ef	jal	x1,800004e8	  x1=0x800004e8
       46305000	      4629	00000000	00000013	addi	x0,x0,0	  x0:0x00000000
       46315000	      4630	800004ec	00000013	addi	x0,x0,0	  x0:0x00000000
       46325000	      4631	800004f0	fe9ff36f	jal	x6,800004f0	  x6=0x800004f0
       46335000	      4632	00000000	00000013	addi	x0,x0,0	  x0:0x00000000
       46345000	      4633	800004d4	00000013	addi	x0,x0,0	  x0:0x00000000
       46355000	      4634	800004d8	ff5ff96f	jal	x18,800004d8	 x18=0x800004d8
       46365000	      4635	00000000	00000013	addi	x0,x0,0	  x0:0x00000000
       46375000	      4636	800004c8	00000013	addi	x0,x0,0	  x0:0x00000000
       46385000	      4637	800004cc	0200036f	jal	x6,800004cc	  x6=0x800004cc
       46395000	      4638	00000000	00000013	addi	x0,x0,0	  x0:0x00000000
       46405000	      4639	800004e8	00000013	addi	x0,x0,0	  x0:0x00000000
       46415000	      4640	800004ec	fc1ff0ef	jal	x1,800004ec	  x1=0x800004ec
       46425000	      4641	00000000	00000013	addi	x0,x0,0	  x0:0x00000000
       46435000	      4642	800004a8	00000013	addi	x0,x0,0	  x0:0x00000000
       46445000	      4643	800004ac	030003ef	jal	x7,800004ac	  x7=0x800004ac
       46455000	      4644	00000000	00000013	addi	x0,x0,0	  x0:0x00000000
       46465000	      4645	800004d8	00000013	addi	x0,x0,0	  x0:0x00000000
       46475000	      4646	800004dc	fd5ff0ef	jal	x1,800004dc	  x1=0x800004dc
       46485000	      4647	00000000	00000013	addi	x0,x0,0	  x0:0x00000000
       46495000	      4648	800004ac	00000013	addi	x0,x0,0	  x0:0x00000000
       46505000	      4649	800004b0	0240036f	jal	x6,800004b0	  x6=0x800004b0
       46515000	      4650	00000000	00000013	addi	x0,x0,0	  x0:0x00000000
       46525000	      4651	800004d0	00000013	addi	x0,x0,0	  x0:0x00000000
       46535000	      4652	800004d4	0100036f	jal	x6,800004d4	  x6=0x800004d4
       46545000	      4653	00000000	00000013	addi	x0,x0,0	  x0:0x00000000
       46555000	      4654	800004e0	00000013	addi	x0,x0,0	  x0:0x00000000
       46565000	      4655	800004e4	fd1ff0ef	jal	x1,800004e4	  x1=0x800004e4
       46575000	      4656	00000000	00000013	addi	x0,x0,0	  x0:0x00000000
       46585000	      4657	800004b0	00000013	addi	x0,x0,0	  x0:0x00000000
       46595000	      4658	800004b4	004000ef	jal	x1,800004b4	  x1=0x800004b4
       46605000	      4659	00000000	00000013	addi	x0,x0,0	  x0:0x00000000
       46615000	      4660	800004b4	00000013	addi	x0,x0,0	  x0:0x00000000
       46625000	      4661	800004b8	02800a6f	jal	x20,800004b8	 x20=0x800004b8
       46635000	      4662	00000000	00000013	addi	x0,x0,0	  x0:0x00000000
       46645000	      4663	800004dc	00000013	addi	x0,x0,0	  x0:0x00000000
       46655000	      4664	800004e0	fe9ff5ef	jal	x11,800004e0	 x11=0x800004e0
       46665000	      4665	00000000	00000013	addi	x0,x0,0	  x0:0x00000000
       46675000	      4666	800004c4	00000013	addi	x0,x0,0	  x0:0x00000000
       46685000	      4667	800004c8	02c00f6f	jal	x30,800004c8	 x30=0x800004c8
       46695000	      4668	00000000	00000013	addi	x0,x0,0	  x0:0x00000000
       46705000	      4669	800004f0	00000013	addi	x0,x0,0	  x0:0x00000000
       46715000	      4670	800004f4	a6485e17	auipc	x28,0xa6485	 x28=0x264854f0
       46725000	      4671	800004f8	030007ef	jal	x15,800004f8	 x15=0x800004f8
       46735000	      4672	00000000	00000013	addi	x0,x0,0	  x0:0x00000000
       46745000	      4673	80000524	00000013	addi	x0,x0,0	  x0:0x00000000
       46755000	      4674	80000528	fe5ff0ef	jal	x1,80000528	  x1=0x80000528
       46765000	      4675	00000000	00000013	addi	x0,x0,0	  x0:0x00000000
       46775000	      4676	80000508	00000013	addi	x0,x0,0	  x0:0x00000000
       46785000	      4677	8000050c	ff1ff0ef	jal	x1,8000050c	  x1=0x8000050c
       46795000	      4678	00000000	00000013	addi	x0,x0,0	  x0:0x00000000
       46805000	      4679	800004f8	00000013	addi	x0,x0,0	  x0:0x00000000
       46815000	      4680	800004fc	054000ef	jal	x1,800004fc	  x1=0x800004fc
       46825000	      4681	00000000	00000013	addi	x0,x0,0	  x0:0x00000000
       46835000	      4682	8000054c	00000013	addi	x0,x0,0	  x0:0x00000000
       46845000	      4683	80000550	fddff0ef	jal	x1,80000550	  x1=0x80000550
       46855000	      4684	00000000	00000013	addi	x0,x0,0	  x0:0x00000000
       46865000	      4685	80000528	00000013	addi	x0,x0,0	  x0:0x00000000
       46875000	      4686	8000052c	01c003ef	jal	x7,8000052c	  x7=0x8000052c
       46885000	      4687	00000000	00000013	addi	x0,x0,0	  x0:0x00000000
       46895000	      4688	80000544	00000013	addi	x0,x0,0	  x0:0x00000000
       46905000	      4689	80000548	fe9ff0ef	jal	x1,80000548	  x1=0x80000548
       46915000	      4690	00000000	00000013	addi	x0,x0,0	  x0:0x00000000
       46925000	      4691	8000052c	00000013	addi	x0,x0,0	  x0:0x00000000
       46935000	      4692	80000530	fd1ff0ef	jal	x1,80000530	  x1=0x80000530
       46945000	      4693	00000000	00000013	addi	x0,x0,0	  x0:0x00000000
       46955000	      4694	800004fc	00000013	addi	x0,x0,0	  x0:0x00000000
       46965000	      4695	80000500	004000ef	jal	x1,80000500	  x1=0x80000500
       46975000	      4696	00000000	00000013	addi	x0,x0,0	  x0:0x00000000
       46985000	      4697	80000500	00000013	addi	x0,x0,0	  x0:0x00000000
       46995000	      4698	80000504	0040036f	jal	x6,80000504	  x6=0x80000504
       47005000	      4699	00000000	00000013	addi	x0,x0,0	  x0:0x00000000
       47015000	      4700	80000504	00000013	addi	x0,x0,0	  x0:0x00000000
       47025000	      4701	80000508	02c000ef	jal	x1,80000508	  x1=0x80000508
       47035000	      4702	00000000	00000013	addi	x0,x0,0	  x0:0x00000000
       47045000	      4703	80000530	00000013	addi	x0,x0,0	  x0:0x00000000
       47055000	      4704	80000534	018000ef	jal	x1,80000534	  x1=0x80000534
       47065000	      4705	00000000	00000013	addi	x0,x0,0	  x0:0x00000000
       47075000	      4706	80000548	00000013	addi	x0,x0,0	  x0:0x00000000
       47085000	      4707	8000054c	fd1ff2ef	jal	x5,8000054c	  x5=0x8000054c
       47095000	      4708	00000000	00000013	addi	x0,x0,0	  x0:0x00000000
       47105000	      4709	80000518	00000013	addi	x0,x0,0	  x0:0x00000000
       47115000	      4710	8000051c	028000ef	jal	x1,8000051c	  x1=0x8000051c
       47125000	      4711	00000000	00000013	addi	x0,x0,0	  x0:0x00000000
       47135000	      4712	80000540	00000013	addi	x0,x0,0	  x0:0x00000000
       47145000	      4713	80000544	fd1ff0ef	jal	x1,80000544	  x1=0x80000544
       47155000	      4714	00000000	00000013	addi	x0,x0,0	  x0:0x00000000
       47165000	      4715	80000510	00000013	addi	x0,x0,0	  x0:0x00000000
       47175000	      4716	80000514	01000d6f	jal	x26,80000514	 x26=0x80000514
       47185000	      4717	00000000	00000013	addi	x0,x0,0	  x0:0x00000000
       47195000	      4718	80000520	00000013	addi	x0,x0,0	  x0:0x00000000
       47205000	      4719	80000524	ffdffb6f	jal	x22,80000524	 x22=0x80000524
       47215000	      4720	00000000	00000013	addi	x0,x0,0	  x0:0x00000000
       47225000	      4721	8000051c	00000013	addi	x0,x0,0	  x0:0x00000000
       47235000	      4722	80000520	0180046f	jal	x8,80000520	  x8=0x80000520
       47245000	      4723	00000000	00000013	addi	x0,x0,0	  x0:0x00000000
       47255000	      4724	80000534	00000013	addi	x0,x0,0	  x0:0x00000000
       47265000	      4725	80000538	00800def	jal	x27,80000538	 x27=0x80000538
       47275000	      4726	00000000	00000013	addi	x0,x0,0	  x0:0x00000000
       47285000	      4727	8000053c	00000013	addi	x0,x0,0	  x0:0x00000000
       47295000	      4728	80000540	fd9ff16f	jal	x2,80000540	  x2=0x80000540
       47305000	      4729	00000000	00000013	addi	x0,x0,0	  x0:0x00000000
       47315000	      4730	80000514	00000013	addi	x0,x0,0	  x0:0x00000000
       47325000	      4731	80000518	024000ef	jal	x1,80000518	  x1=0x80000518
       47335000	      4732	00000000	00000013	addi	x0,x0,0	  x0:0x00000000
       47345000	      4733	80000538	00000013	addi	x0,x0,0	  x0:0x00000000
       47355000	      4734	8000053c	fd5ff0ef	jal	x1,8000053c	  x1=0x8000053c
       47365000	      4735	00000000	00000013	addi	x0,x0,0	  x0:0x00000000
       47375000	      4736	8000050c	00000013	addi	x0,x0,0	  x0:0x00000000
       47385000	      4737	80000510	04400def	jal	x27,80000510	 x27=0x80000510
       47395000	      4738	00000000	00000013	addi	x0,x0,0	  x0:0x00000000
       47405000	      4739	80000550	00000013	addi	x0,x0,0	  x0:0x00000000
       47415000	      4740	80000554	00c83c33	sltu	x24,x16,x12	 x16:0x000021a0 x12:0x80000424 x24=0x00000001
       47425000	      4741	80000558	01a099b3	sll	x19,x1,x26	  x1:0x8000053c x26:0x80000514 x19=0x53c00000
       47435000	      4742	8000055c	00c900b3	add	x1,x18,x12	 x18:0x800004d8 x12:0x80000424  x1=0x000008fc
       47445000	      4743	80000560	01ad7733	and	x14,x26,x26	 x26:0x80000514 x26:0x80000514 x14=0x80000514
       47455000	      4744	80000564	01b09433	sll	x8,x1,x27	  x1:0x000008fc x27:0x80000510  x8=0x08fc0000
       47465000	      4745	80000568	03ed0e63	beq	x26,x30,800005a4	 x26:0x80000514 x30:0x800004c8
       47475000	      4746	8000056c	4081d713	srai	x14,x3,0x8	  x3:0x80000448 x14=0xff800004
       47485000	      4747	80000570	016df333	and	x6,x27,x22	 x27:0x80000510 x22:0x80000524  x6=0x80000500
       47495000	      4748	80000574	261ecb93	xori	x23,x29,609	 x29:0x80000490 x23=0x800006f1
       47505000	      4749	80000578	0023ecb3	or	x25,x7,x2	  x7:0x8000052c  x2:0x80000540 x25=0x8000056c
       47515000	      4750	8000057c	8f9bab13	slti	x22,x23,-1799	 x23:0x800006f1 x22=0x00000001
       47525000	      4751	80000580	033f7663	bgeu	x30,x19,800005ac	 x30:0x800004c8 x19:0x53c00000
       47535000	      4752	00000000	00000013	addi	x0,x0,0	  x0:0x00000000
       47545000	      4753	800005a8	00000013	addi	x0,x0,0	  x0:0x00000000
       47555000	      4754	800005ac	03d5e063	bltu	x11,x29,800005cc	 x11:0x800004e0 x29:0x80000490
       47565000	      4755	800005b0	0373da63	bge	x7,x23,800005e4	  x7:0x8000052c x23:0x800006f1
       47575000	      4756	800005b4	012317b3	sll	x15,x6,x18	  x6:0x80000500 x18:0x800004d8 x15=0x00000000
       47585000	      4757	800005b8	004d9c93	slli	x25,x27,0x4	 x27:0x80000510 x25=0x00005100
       47595000	      4758	800005bc	04e85263	bge	x16,x14,80000600	 x16:0x000021a0 x14:0xff800004
       47605000	      4759	00000000	00000013	addi	x0,x0,0	  x0:0x00000000
       47615000	      4760	800005fc	00000013	addi	x0,x0,0	  x0:0x00000000
       47625000	      4761	80000600	005141b3	xor	x3,x2,x5	  x2:0x80000540  x5:0x8000054c  x3=0x0000000c
       47635000	      4762	80000604	03665e63	bge	x12,x22,80000640	 x12:0x80000424 x22:0x00000001
       47645000	      4763	80000608	00000013	addi	x0,x0,0	  x0:0x00000000
       47655000	      4764	8000060c	015e8cb3	add	x25,x29,x21	 x29:0x80000490 x21:0xf8000019 x25=0x780004a9
       47665000	      4765	80000610	04d6c663	blt	x13,x13,8000065c	 x13:0x80000370 x13:0x80000370
       47675000	      4766	80000614	00d19663	bne	x3,x13,80000620	  x3:0x0000000c x13:0x80000370
       47685000	      4767	00000000	00000013	addi	x0,x0,0	  x0:0x00000000
       47695000	      4768	8000061c	00000013	addi	x0,x0,0	  x0:0x00000000
       47705000	      4769	80000620	00adc6b3	xor	x13,x27,x10	 x27:0x80000510 x10:0x800003bc x13=0x000006ac
       47715000	      4770	80000624	04f10863	beq	x2,x15,80000674	  x2:0x80000540 x15:0x00000000
       47725000	      4771	80000628	0193b133	sltu	x2,x7,x25	  x7:0x8000052c x25:0x780004a9  x2=0x00000000
       47735000	      4772	8000062c	05cb9863	bne	x23,x28,8000067c	 x23:0x800006f1 x28:0x264854f0
       47745000	      4773	00000000	00000013	addi	x0,x0,0	  x0:0x00000000
       47755000	      4774	80000678	00000013	addi	x0,x0,0	  x0:0x00000000
       47765000	      4775	8000067c	00be0e33	add	x28,x28,x11	 x28:0x264854f0 x11:0x800004e0 x28=0xa64859d0
       47775000	      4776	80000680	020c6063	bltu	x24,x0,800006a0	 x24:0x00000001  x0:0x00000000
       47785000	      4777	80000684	41c486b3	sub	x13,x9,x28	  x9:0x8000046c x28:0xa64859d0 x13=0xd9b7aa9c
       47795000	      4778	80000688	6dfc3e93	sltiu	x29,x24,1759	 x24:0x00000001 x29=0x00000001
       47805000	      4779	8000068c	00fe0db3	add	x27,x28,x15	 x28:0xa64859d0 x15:0x00000000 x27=0xa64859d0
       47815000	      4780	80000690	c0449517	auipc	x10,0xc0449	 x10=0x4044968c
       47825000	      4781	80000694	bbc5cc17	auipc	x24,0xbbc5c	 x24=0x3bc5c690
       47835000	      4782	80000698	d7db2313	slti	x6,x22,-643	 x22:0x00000001  x6=0x00000000
       47845000	      4783	8000069c	40545a13	srai	x20,x8,0x5	  x8:0x08fc0000 x20=0x0047e000
       47855000	      4784	800006a0	018f4533	xor	x10,x30,x24	 x30:0x800004c8 x24:0x3bc5c690 x10=0xbbc5c258
       47865000	      4785	800006a4	8ef60713	addi	x14,x12,-1809	 x12:0x80000424 x14=0x7ffffd13
       47875000	      4786	800006a8	018a5d93	srli	x27,x20,0x18	 x20:0x0047e000 x27=0x00000000
       47885000	      4787	800006ac	039e6263	bltu	x28,x25,800006d0	 x28:0xa64859d0 x25:0x780004a9
       47895000	      4788	800006b0	41170eb3	sub	x29,x14,x17	 x14:0x7ffffd13 x17:0x80009fc4 x29=0xffff5d4f
       47905000	      4789	800006b4	007e7cb3	and	x25,x28,x7	 x28:0xa64859d0  x7:0x8000052c x25=0x80000100
       47915000	      4790	800006b8	03879a63	bne	x15,x24,800006ec	 x15:0x00000000 x24:0x3bc5c690
       47925000	      4791	00000000	00000013	addi	x0,x0,0	  x0:0x00000000
       47935000	      4792	800006e8	00000013	addi	x0,x0,0	  x0:0x00000000
       47945000	      4793	800006ec	40cf5a33	sra	x20,x30,x12	 x30:0x800004c8 x12:0x80000424 x20=0xf800004c
       47955000	      4794	800006f0	01f10433	add	x8,x2,x31	  x2:0x00000000 x31:0x80009f3c  x8=0x80009f3c
       47965000	      4795	800006f4	0582e113	ori	x2,x5,88	  x5:0x8000054c  x2=0x8000055c
       47975000	      4796	800006f8	00a15493	srli	x9,x2,0xa	  x2:0x8000055c  x9=0x00200001
       47985000	      4797	800006fc	01e21a93	slli	x21,x4,0x1e	  x4:0xe9ba91f5 x21=0x40000000
       47995000	      4798	80000700	01cd17b3	sll	x15,x26,x28	 x26:0x80000514 x28:0xa64859d0 x15=0x05140000
       48005000	      4799	80000704	0078e863	bltu	x17,x7,80000714	 x17:0x80009fc4  x7:0x8000052c
       48015000	      4800	80000708	a3b18b13	addi	x22,x3,-1477	  x3:0x0000000c x22=0xfffffa47
       48025000	      4801	8000070c	400bde93	srai	x29,x23,0x0	 x23:0x800006f1 x29=0x800006f1
       48035000	      4802	80000710	9fdde913	ori	x18,x27,-1539	 x27:0x00000000 x18=0xfffff9fd
       48045000	      4803	80000714	00b50933	add	x18,x10,x11	 x10:0xbbc5c258 x11:0x800004e0 x18=0x3bc5c738
       48055000	      4804	80000718	4116dab3	sra	x21,x13,x17	 x13:0xd9b7aa9c x17:0x80009fc4 x21=0xfd9b7aa9
       48065000	      4805	8000071c	02576463	bltu	x14,x5,80000744	 x14:0x7ffffd13  x5:0x8000054c
       48075000	      4806	00000000	00000013	addi	x0,x0,0	  x0:0x00000000
       48085000	      4807	80000740	00000013	addi	x0,x0,0	  x0:0x00000000
       48095000	      4808	80000744	a3275017	auipc	x0,0xa3275	
       48105000	      4809	80000748	4153d6b3	sra	x13,x7,x21	  x7:0x8000052c x21:0xfd9b7aa9 x13=0xffc00002
       48115000	      4810	8000074c	19248c97	auipc	x25,0x19248	 x25=0x99248748
       48125000	      4811	80000750	00000013	addi	x0,x0,0	  x0:0x00000000
       48135000	      4812	80000754	020d1863	bne	x26,x0,80000784	 x26:0x80000514  x0:0x00000000
       48145000	      4813	00000000	00000013	addi	x0,x0,0	  x0:0x00000000
       48155000	      4814	80000780	00000013	addi	x0,x0,0	  x0:0x00000000
       48165000	      4815	80000784	01a33633	sltu	x12,x6,x26	  x6:0x00000000 x26:0x80000514 x12=0x00000001
       48175000	      4816	80000788	01ea3a33	sltu	x20,x20,x30	 x20:0xf800004c x30:0x800004c8 x20=0x00000000
       48185000	      4817	8000078c	028c5463	bge	x24,x8,800007b4	 x24:0x3bc5c690  x8:0x80009f3c
       48195000	      4818	00000000	00000013	addi	x0,x0,0	  x0:0x00000000
       48205000	      4819	800007b0	00000013	addi	x0,x0,0	  x0:0x00000000
       48215000	      4820	800007b4	0182cb33	xor	x22,x5,x24	  x5:0x8000054c x24:0x3bc5c690 x22=0xbbc5c3dc
       48225000	      4821	800007b8	40a20bb3	sub	x23,x4,x10	  x4:0xe9ba91f5 x10:0xbbc5c258 x23=0x2df4cf9d
       48235000	      4822	800007bc	5ef18e13	addi	x28,x3,1519	  x3:0x0000000c x28=0x000005fb
       48245000	      4823	800007c0	024fd863	bge	x31,x4,800007f0	 x31:0x80009f3c  x4:0xe9ba91f5
       48255000	      4824	800007c4	004fa7b3	slt	x15,x31,x4	 x31:0x80009f3c  x4:0xe9ba91f5 x15=0x00000001
       48265000	      4825	800007c8	d456ad93	slti	x27,x13,-699	 x13:0xffc00002 x27=0x00000001
       48275000	      4826	800007cc	05abc863	blt	x23,x26,8000081c	 x23:0x2df4cf9d x26:0x80000514
       48285000	      4827	800007d0	01dd9e13	slli	x28,x27,0x1d	 x27:0x00000001 x28=0x20000000
       48295000	      4828	800007d4	01f17263	bgeu	x2,x31,800007d8	  x2:0x8000055c x31:0x80009f3c
       48305000	      4829	800007d8	311a4337	lui	x6,0x311a4	  x6=0x311a4000
       48315000	      4830	800007dc	01eb96b3	sll	x13,x23,x30	 x23:0x2df4cf9d x30:0x800004c8 x13=0xf4cf9d00
       48325000	      4831	800007e0	4164d533	sra	x10,x9,x22	  x9:0x00200001 x22:0xbbc5c3dc x10=0x00000000
       48335000	      4832	800007e4	40908133	sub	x2,x1,x9	  x1:0x000008fc  x9:0x00200001  x2=0xffe008fb
       48345000	      4833	800007e8	04bf8413	addi	x8,x31,75	 x31:0x80009f3c  x8=0x80009f87
       48355000	      4834	800007ec	00580db3	add	x27,x16,x5	 x16:0x000021a0  x5:0x8000054c x27=0x800026ec
       48365000	      4835	800007f0	82b14913	xori	x18,x2,-2005	  x2:0xffe008fb x18=0x001ff0d0
       48375000	      4836	800007f4	0086cc33	xor	x24,x13,x8	 x13:0xf4cf9d00  x8:0x80009f87 x24=0x74cf0287
       48385000	      4837	800007f8	01044e33	xor	x28,x8,x16	  x8:0x80009f87 x16:0x000021a0 x28=0x8000be27
       48395000	      4838	800007fc	001e84b3	add	x9,x29,x1	 x29:0x800006f1  x1:0x000008fc  x9=0x80000fed
       48405000	      4839	80000800	018c2ab3	slt	x21,x24,x24	 x24:0x74cf0287 x24:0x74cf0287 x21=0x00000000
       48415000	      4840	80000804	01809b33	sll	x22,x1,x24	  x1:0x000008fc x24:0x74cf0287 x22=0x00047e00
       48425000	      4841	80000808	01793833	sltu	x16,x18,x23	 x18:0x001ff0d0 x23:0x2df4cf9d x16=0x00000001
       48435000	      4842	8000080c	0102f533	and	x10,x5,x16	  x5:0x8000054c x16:0x00000001 x10=0x00000000
       48445000	      4843	80000810	0078bb33	sltu	x22,x17,x7	 x17:0x80009fc4  x7:0x8000052c x22=0x00000000
       48455000	      4844	80000814	0391ce63	blt	x3,x25,80000850	  x3:0x0000000c x25:0x99248748
       48465000	      4845	80000818	1e7f2193	slti	x3,x30,487	 x30:0x800004c8  x3=0x00000001
       48475000	      4846	8000081c	0a744813	xori	x16,x8,167	  x8:0x80009f87 x16=0x80009f20
       48485000	      4847	80000820	00600663	beq	x0,x6,8000082c	  x0:0x00000000  x6:0x311a4000
       48495000	      4848	80000824	416305b3	sub	x11,x6,x22	  x6:0x311a4000 x22:0x00000000 x11=0x311a4000
       48505000	      4849	80000828	03709e63	bne	x1,x23,80000864	  x1:0x000008fc x23:0x2df4cf9d
       48515000	      4850	00000000	00000013	addi	x0,x0,0	  x0:0x00000000
       48525000	      4851	80000860	00000013	addi	x0,x0,0	  x0:0x00000000
       48535000	      4852	80000864	af087d17	auipc	x26,0xaf087	 x26=0x2f087860
       48545000	      4853	80000868	0175ce63	blt	x11,x23,80000884	 x11:0x311a4000 x23:0x2df4cf9d
       48555000	      4854	8000086c	84b5bd93	sltiu	x27,x11,-1973	 x11:0x311a4000 x27=0x00000001
       48565000	      4855	80000870	01a51b13	slli	x22,x10,0x1a	 x10:0x00000000 x22=0x00000000
       48575000	      4856	80000874	005d23b3	slt	x7,x26,x5	 x26:0x2f087860  x5:0x8000054c  x7=0x00000000
       48585000	      4857	80000878	a2e62493	slti	x9,x12,-1490	 x12:0x00000001  x9=0x00000000
       48595000	      4858	8000087c	0140d663	bge	x1,x20,80000888	  x1:0x000008fc x20:0x00000000
       48605000	      4859	00000000	00000013	addi	x0,x0,0	  x0:0x00000000
       48615000	      4860	80000884	00000013	addi	x0,x0,0	  x0:0x00000000
       48625000	      4861	80000888	00e21663	bne	x4,x14,80000894	  x4:0xe9ba91f5 x14:0x7ffffd13
       48635000	      4862	00000000	00000013	addi	x0,x0,0	  x0:0x00000000
       48645000	      4863	80000890	00000013	addi	x0,x0,0	  x0:0x00000000
       48655000	      4864	80000894	0140d013	srli	x0,x1,0x14	  x1:0x000008fc
       48665000	      4865	80000898	64492513	slti	x10,x18,1604	 x18:0x001ff0d0 x10=0x00000000
       48675000	      4866	8000089c	020007ef	jal	x15,8000089c	 x15=0x8000089c
       48685000	      4867	00000000	00000013	addi	x0,x0,0	  x0:0x00000000
       48695000	      4868	800008b8	00000013	addi	x0,x0,0	  x0:0x00000000
       48705000	      4869	800008bc	0080036f	jal	x6,800008bc	  x6=0x800008bc
       48715000	      4870	00000000	00000013	addi	x0,x0,0	  x0:0x00000000
       48725000	      4871	800008c0	00000013	addi	x0,x0,0	  x0:0x00000000
       48735000	      4872	800008c4	02400f6f	jal	x30,800008c4	 x30=0x800008c4
       48745000	      4873	00000000	00000013	addi	x0,x0,0	  x0:0x00000000
       48755000	      4874	800008e4	00000013	addi	x0,x0,0	  x0:0x00000000
       48765000	      4875	800008e8	fc1ff0ef	jal	x1,800008e8	  x1=0x800008e8
       48775000	      4876	00000000	00000013	addi	x0,x0,0	  x0:0x00000000
       48785000	      4877	800008a4	00000013	addi	x0,x0,0	  x0:0x00000000
       48795000	      4878	800008a8	ff9ff4ef	jal	x9,800008a8	  x9=0x800008a8
       48805000	      4879	00000000	00000013	addi	x0,x0,0	  x0:0x00000000
       48815000	      4880	8000089c	00000013	addi	x0,x0,0	  x0:0x00000000
       48825000	      4881	800008a0	0440036f	jal	x6,800008a0	  x6=0x800008a0
       48835000	      4882	00000000	00000013	addi	x0,x0,0	  x0:0x00000000
       48845000	      4883	800008e0	00000013	addi	x0,x0,0	  x0:0x00000000
       48855000	      4884	800008e4	fddff0ef	jal	x1,800008e4	  x1=0x800008e4
       48865000	      4885	00000000	00000013	addi	x0,x0,0	  x0:0x00000000
       48875000	      4886	800008bc	00000013	addi	x0,x0,0	  x0:0x00000000
       48885000	      4887	800008c0	0200036f	jal	x6,800008c0	  x6=0x800008c0
       48895000	      4888	00000000	00000013	addi	x0,x0,0	  x0:0x00000000
       48905000	      4889	800008dc	00000013	addi	x0,x0,0	  x0:0x00000000
       48915000	      4890	800008e0	ff1ff0ef	jal	x1,800008e0	  x1=0x800008e0
       48925000	      4891	00000000	00000013	addi	x0,x0,0	  x0:0x00000000
       48935000	      4892	800008cc	00000013	addi	x0,x0,0	  x0:0x00000000
       48945000	      4893	800008d0	fe1ffd6f	jal	x26,800008d0	 x26=0x800008d0
       48955000	      4894	00000000	00000013	addi	x0,x0,0	  x0:0x00000000
       48965000	      4895	800008ac	00000013	addi	x0,x0,0	  x0:0x00000000
       48975000	      4896	800008b0	0080036f	jal	x6,800008b0	  x6=0x800008b0
       48985000	      4897	00000000	00000013	addi	x0,x0,0	  x0:0x00000000
       48995000	      4898	800008b4	00000013	addi	x0,x0,0	  x0:0x00000000
       49005000	      4899	800008b8	ff5ff0ef	jal	x1,800008b8	  x1=0x800008b8
       49015000	      4900	00000000	00000013	addi	x0,x0,0	  x0:0x00000000
       49025000	      4901	800008a8	00000013	addi	x0,x0,0	  x0:0x00000000
       49035000	      4902	800008ac	02c000ef	jal	x1,800008ac	  x1=0x800008ac
       49045000	      4903	00000000	00000013	addi	x0,x0,0	  x0:0x00000000
       49055000	      4904	800008d4	00000013	addi	x0,x0,0	  x0:0x00000000
       49065000	      4905	800008d8	ffdff36f	jal	x6,800008d8	  x6=0x800008d8
       49075000	      4906	00000000	00000013	addi	x0,x0,0	  x0:0x00000000
       49085000	      4907	800008d0	00000013	addi	x0,x0,0	  x0:0x00000000
       49095000	      4908	800008d4	ff9ff0ef	jal	x1,800008d4	  x1=0x800008d4
       49105000	      4909	00000000	00000013	addi	x0,x0,0	  x0:0x00000000
       49115000	      4910	800008c8	00000013	addi	x0,x0,0	  x0:0x00000000
       49125000	      4911	800008cc	fd9ff2ef	jal	x5,800008cc	  x5=0x800008cc
       49135000	      4912	00000000	00000013	addi	x0,x0,0	  x0:0x00000000
       49145000	      4913	800008a0	00000013	addi	x0,x0,0	  x0:0x00000000
       49155000	      4914	800008a4	0240036f	jal	x6,800008a4	  x6=0x800008a4
       49165000	      4915	00000000	00000013	addi	x0,x0,0	  x0:0x00000000
       49175000	      4916	800008c4	00000013	addi	x0,x0,0	  x0:0x00000000
       49185000	      4917	800008c8	024000ef	jal	x1,800008c8	  x1=0x800008c8
       49195000	      4918	00000000	00000013	addi	x0,x0,0	  x0:0x00000000
       49205000	      4919	800008e8	00000013	addi	x0,x0,0	  x0:0x00000000
       49215000	      4920	800008ec	ff1ff0ef	jal	x1,800008ec	  x1=0x800008ec
       49225000	      4921	00000000	00000013	addi	x0,x0,0	  x0:0x00000000
       49235000	      4922	800008d8	00000013	addi	x0,x0,0	  x0:0x00000000
       49245000	      4923	800008dc	fd9ff36f	jal	x6,800008dc	  x6=0x800008dc
       49255000	      4924	00000000	00000013	addi	x0,x0,0	  x0:0x00000000
       49265000	      4925	800008b0	00000013	addi	x0,x0,0	  x0:0x00000000
       49275000	      4926	800008b4	03c000ef	jal	x1,800008b4	  x1=0x800008b4
       49285000	      4927	00000000	00000013	addi	x0,x0,0	  x0:0x00000000
       49295000	      4928	800008ec	00000013	addi	x0,x0,0	  x0:0x00000000
       49305000	      4929	800008f0	00900833	add	x16,x0,x9	  x0:0x00000000  x9:0x800008a8 x16=0x800008a8
       49315000	      4930	800008f4	011fb7b3	sltu	x15,x31,x17	 x31:0x80009f3c x17:0x80009fc4 x15=0x00000001
       49325000	      4931	800008f8	001e61b3	or	x3,x28,x1	 x28:0x8000be27  x1:0x800008b4  x3=0x8000beb7
       49335000	      4932	800008fc	018bf333	and	x6,x23,x24	 x23:0x2df4cf9d x24:0x74cf0287  x6=0x24c40285
       49345000	      4933	80000900	01dc9113	slli	x2,x25,0x1d	 x25:0x99248748  x2=0x00000000
       49355000	      4934	80000904	41190733	sub	x14,x18,x17	 x18:0x001ff0d0 x17:0x80009fc4 x14=0x801f510c
       49365000	      4935	80000908	02786e63	bltu	x16,x7,80000944	 x16:0x800008a8  x7:0x00000000
       49375000	      4936	8000090c	76b9e393	ori	x7,x19,1899	 x19:0x53c00000  x7=0x53c0076b
       49385000	      4937	80000910	01a43f33	sltu	x30,x8,x26	  x8:0x80009f87 x26:0x800008d0 x30=0x00000000
       49395000	      4938	80000914	01330463	beq	x6,x19,8000091c	  x6:0x24c40285 x19:0x53c00000
       49405000	      4939	80000918	05184863	blt	x16,x17,80000968	 x16:0x800008a8 x17:0x80009fc4
       49415000	      4940	00000000	00000013	addi	x0,x0,0	  x0:0x00000000
       49425000	      4941	80000964	00000013	addi	x0,x0,0	  x0:0x00000000
       49435000	      4942	80000968	00000013	addi	x0,x0,0	  x0:0x00000000
       49445000	      4943	8000096c	6849a013	slti	x0,x19,1668	 x19:0x53c00000
       49455000	      4944	80000970	00c61913	slli	x18,x12,0xc	 x12:0x00000001 x18=0x00001000
       49465000	      4945	80000974	ff6aeeb7	lui	x29,0xff6ae	 x29=0xff6ae000
       49475000	      4946	80000978	00f0c333	xor	x6,x1,x15	  x1:0x800008b4 x15:0x00000001  x6=0x800008b5
       49485000	      4947	8000097c	4126dc33	sra	x24,x13,x18	 x13:0xf4cf9d00 x18:0x00001000 x24=0xf4cf9d00
       49495000	      4948	80000980	01d89eb3	sll	x29,x17,x29	 x17:0x80009fc4 x29:0xff6ae000 x29=0x80009fc4
       49505000	      4949	80000984	00e02e33	slt	x28,x0,x14	  x0:0x00000000 x14:0x801f510c x28=0x00000000
       49515000	      4950	80000988	003d5663	bge	x26,x3,80000994	 x26:0x800008d0  x3:0x8000beb7
       49525000	      4951	8000098c	00000013	addi	x0,x0,0	  x0:0x00000000
       49535000	      4952	80000990	016466b3	or	x13,x8,x22	  x8:0x80009f87 x22:0x00000000 x13=0x80009f87
       49545000	      4953	80000994	00b6e0b3	or	x1,x13,x11	 x13:0x80009f87 x11:0x311a4000  x1=0xb11adf87
       49555000	      4954	80000998	01097a63	bgeu	x18,x16,800009ac	 x18:0x00001000 x16:0x800008a8
       49565000	      4955	8000099c	00001b33	sll	x22,x0,x0	  x0:0x00000000  x0:0x00000000 x22=0x00000000
       49575000	      4956	800009a0	01f86863	bltu	x16,x31,800009b0	 x16:0x800008a8 x31:0x80009f3c
       49585000	      4957	00000000	00000013	addi	x0,x0,0	  x0:0x00000000
       49595000	      4958	800009ac	00000013	addi	x0,x0,0	  x0:0x00000000
       49605000	      4959	800009b0	01a54a33	xor	x20,x10,x26	 x10:0x00000000 x26:0x800008d0 x20=0x800008d0
       49615000	      4960	800009b4	41c25a13	srai	x20,x4,0x1c	  x4:0xe9ba91f5 x20=0xfffffffe
       49625000	      4961	800009b8	41a55193	srai	x3,x10,0x1a	 x10:0x00000000  x3=0x00000000
       49635000	      4962	800009bc	03ad9a63	bne	x27,x26,800009f0	 x27:0x00000001 x26:0x800008d0
       49645000	      4963	00000000	00000013	addi	x0,x0,0	  x0:0x00000000
       49655000	      4964	800009ec	00000013	addi	x0,x0,0	  x0:0x00000000
       49665000	      4965	800009f0	00761eb3	sll	x29,x12,x7	 x12:0x00000001  x7:0x53c0076b x29=0x00000800
       49675000	      4966	800009f4	e4af2b37	lui	x22,0xe4af2	 x22=0xe4af2000
       49685000	      4967	800009f8	01742d33	slt	x26,x8,x23	  x8:0x80009f87 x23:0x2df4cf9d x26=0x00000001
       49695000	      4968	800009fc	0389e263	bltu	x19,x24,80000a20	 x19:0x53c00000 x24:0xf4cf9d00
       49705000	      4969	00000000	00000013	addi	x0,x0,0	  x0:0x00000000
       49715000	      4970	80000a1c	00000013	addi	x0,x0,0	  x0:0x00000000
       49725000	      4971	80000a20	05f8e663	bltu	x17,x31,80000a6c	 x17:0x80009fc4 x31:0x80009f3c
       49735000	      4972	80000a24	00451663	bne	x10,x4,80000a30	 x10:0x00000000  x4:0xe9ba91f5
       49745000	      4973	00000000	00000013	addi	x0,x0,0	  x0:0x00000000
       49755000	      4974	80000a2c	00000013	addi	x0,x0,0	  x0:0x00000000
       49765000	      4975	80000a30	00691ab3	sll	x21,x18,x6	 x18:0x00001000  x6:0x800008b5 x21=0x00000000
       49775000	      4976	80000a34	015cbe33	sltu	x28,x25,x21	 x25:0x99248748 x21:0x00000000 x28=0x00000000
       49785000	      4977	80000a38	41c08433	sub	x8,x1,x28	  x1:0xb11adf87 x28:0x00000000  x8=0xb11adf87
       49795000	      4978	80000a3c	d4402413	slti	x8,x0,-700	  x0:0x00000000  x8=0x00000000
       49805000	      4979	80000a40	00a4edb3	or	x27,x9,x10	  x9:0x800008a8 x10:0x00000000 x27=0x800008a8
       49815000	      4980	80000a44	05b60663	beq	x12,x27,80000a90	 x12:0x00000001 x27:0x800008a8
       49825000	      4981	80000a48	04f8e463	bltu	x17,x15,80000a90	 x17:0x80009fc4 x15:0x00000001
       49835000	      4982	80000a4c	014639b3	sltu	x19,x12,x20	 x12:0x00000001 x20:0xfffffffe x19=0x00000001
       49845000	      4983	80000a50	00d9c863	blt	x19,x13,80000a60	 x19:0x00000001 x13:0x80009f87
       49855000	      4984	80000a54	41ca8a33	sub	x20,x21,x28	 x21:0x00000000 x28:0x00000000 x20=0x00000000
       49865000	      4985	80000a58	01265a63	bge	x12,x18,80000a6c	 x12:0x00000001 x18:0x00001000
       49875000	      4986	80000a5c	02907863	bgeu	x0,x9,80000a8c	  x0:0x00000000  x9:0x800008a8
       49885000	      4987	80000a60	40f28733	sub	x14,x5,x15	  x5:0x800008cc x15:0x00000001 x14=0x800008cb
       49895000	      4988	80000a64	00241b93	slli	x23,x8,0x2	  x8:0x00000000 x23=0x00000000
       49905000	      4989	80000a68	00000013	addi	x0,x0,0	  x0:0x00000000
       49915000	      4990	80000a6c	449e6f13	ori	x30,x28,1097	 x28:0x00000000 x30=0x00000449
       49925000	      4991	80000a70	01878ab3	add	x21,x15,x24	 x15:0x00000001 x24:0xf4cf9d00 x21=0xf4cf9d01
       49935000	      4992	80000a74	00eb5533	srl	x10,x22,x14	 x22:0xe4af2000 x14:0x800008cb x10=0x001c95e4
       49945000	      4993	80000a78	03320263	beq	x4,x19,80000a9c	  x4:0xe9ba91f5 x19:0x00000001
       49955000	      4994	80000a7c	00f01913	slli	x18,x0,0xf	  x0:0x00000000 x18=0x00000000
       49965000	      4995	80000a80	00a09933	sll	x18,x1,x10	  x1:0xb11adf87 x10:0x001c95e4 x18=0x11adf870
       49975000	      4996	80000a84	787afb13	andi	x22,x21,1927	 x21:0xf4cf9d01 x22=0x00000501
       49985000	      4997	80000a88	0080a833	slt	x16,x1,x8	  x1:0xb11adf87  x8:0x00000000 x16=0x00000001
       49995000	      4998	80000a8c	00000013	addi	x0,x0,0	  x0:0x00000000
       50005000	      4999	80000a90	02cd6063	bltu	x26,x12,80000ab0	 x26:0x00000001 x12:0x00000001
       50015000	      5000	80000a94	03030a63	beq	x6,x16,80000ac8	  x6:0x800008b5 x16:0x00000001
       50025000	      5001	80000a98	d99fa313	slti	x6,x31,-615	 x31:0x80009f3c  x6=0x00000001
       50035000	      5002	80000a9c	00151f13	slli	x30,x10,0x1	 x10:0x001c95e4 x30=0x00392bc8
       50045000	      5003	80000aa0	00ad1933	sll	x18,x26,x10	 x26:0x00000001 x10:0x001c95e4 x18=0x00000010
       50055000	      5004	80000aa4	00ab1ab3	sll	x21,x22,x10	 x22:0x00000501 x10:0x001c95e4 x21=0x00005010
       50065000	      5005	80000aa8	02485063	bge	x16,x4,80000ac8	 x16:0x00000001  x4:0xe9ba91f5
       50075000	      5006	00000000	00000013	addi	x0,x0,0	  x0:0x00000000
       50085000	      5007	80000ac4	00000013	addi	x0,x0,0	  x0:0x00000000
       50095000	      5008	80000ac8	00818cb3	add	x25,x3,x8	  x3:0x00000000  x8:0x00000000 x25=0x00000000
       50105000	      5009	80000acc	000f4433	xor	x8,x30,x0	 x30:0x00392bc8  x0:0x00000000  x8=0x00392bc8
       50115000	      5010	80000ad0	86fb4337	lui	x6,0x86fb4	  x6=0x86fb4000
       50125000	      5011	80000ad4	01f52033	slt	x0,x10,x31	 x10:0x001c95e4 x31:0x80009f3c
       50135000	      5012	80000ad8	011d59b3	srl	x19,x26,x17	 x26:0x00000001 x17:0x80009fc4 x19=0x00000000
       50145000	      5013	80000adc	02f56e63	bltu	x10,x15,80000b18	 x10:0x001c95e4 x15:0x00000001
       50155000	      5014	80000ae0	2989a693	slti	x13,x19,664	 x19:0x00000000 x13=0x00000001
       50165000	      5015	80000ae4	d1000597	auipc	x11,0xd1000	 x11=0x51000ae0
       50175000	      5016	80000ae8	012c8663	beq	x25,x18,80000af4	 x25:0x00000000 x18:0x00000010
       50185000	      5017	80000aec	66673c93	sltiu	x25,x14,1638	 x14:0x800008cb x25=0x00000000
       50195000	      5018	80000af0	413a8533	sub	x10,x21,x19	 x21:0x00005010 x19:0x00000000 x10=0x00005010
       50205000	      5019	80000af4	023a0463	beq	x20,x3,80000b1c	 x20:0x00000000  x3:0x00000000
       50215000	      5020	00000000	00000013	addi	x0,x0,0	  x0:0x00000000
       50225000	      5021	80000b18	00000013	addi	x0,x0,0	  x0:0x00000000
       50235000	      5022	80000b1c	00f0e5b3	or	x11,x1,x15	  x1:0xb11adf87 x15:0x00000001 x11=0xb11adf87
       50245000	      5023	80000b20	00f984b3	add	x9,x19,x15	 x19:0x00000000 x15:0x00000001  x9=0x00000001
       50255000	      5024	80000b24	01f2eab3	or	x21,x5,x31	  x5:0x800008cc x31:0x80009f3c x21=0x80009ffc
       50265000	      5025	80000b28	4044d413	srai	x8,x9,0x4	  x9:0x00000001  x8=0x00000000
       50275000	      5026	80000b2c	01ee4cb3	xor	x25,x28,x30	 x28:0x00000000 x30:0x00392bc8 x25=0x00392bc8
       50285000	      5027	80000b30	012c6a63	bltu	x24,x18,80000b44	 x24:0xf4cf9d00 x18:0x00000010
       50295000	      5028	80000b34	113df337	lui	x6,0x113df	  x6=0x113df000
       50305000	      5029	80000b38	001171b3	and	x3,x2,x1	  x2:0x00000000  x1:0xb11adf87  x3=0x00000000
       50315000	      5030	80000b3c	fa7d7b93	andi	x23,x26,-89	 x26:0x00000001 x23=0x00000001
       50325000	      5031	80000b40	406f8c33	sub	x24,x31,x6	 x31:0x80009f3c  x6:0x113df000 x24=0x6ec2af3c
       50335000	      5032	80000b44	01387bb3	and	x23,x16,x19	 x16:0x00000001 x19:0x00000000 x23=0x00000000
       50345000	      5033	80000b48	0103d613	srli	x12,x7,0x10	  x7:0x53c0076b x12=0x000053c0
       50355000	      5034	80000b4c	02501e63	bne	x0,x5,80000b88	  x0:0x00000000  x5:0x800008cc
       50365000	      5035	00000000	00000013	addi	x0,x0,0	  x0:0x00000000
       50375000	      5036	80000b84	00000013	addi	x0,x0,0	  x0:0x00000000
       50385000	      5037	80000b88	65188e93	addi	x29,x17,1617	 x17:0x80009fc4 x29=0x8000a615
       50395000	      5038	80000b8c	40e10db3	sub	x27,x2,x14	  x2:0x00000000 x14:0x800008cb x27=0x7ffff735
       50405000	      5039	80000b90	00a812b3	sll	x5,x16,x10	 x16:0x00000001 x10:0x00005010  x5=0x00010000
       50415000	      5040	80000b94	0463d663	bge	x7,x6,80000be0	  x7:0x53c0076b  x6:0x113df000
       50425000	      5041	00000000	00000013	addi	x0,x0,0	  x0:0x00000000
       50435000	      5042	80000bdc	00000013	addi	x0,x0,0	  x0:0x00000000
       50445000	      5043	80000be0	03c19663	bne	x3,x28,80000c0c	  x3:0x00000000 x28:0x00000000
       50455000	      5044	80000be4	0053e663	bltu	x7,x5,80000bf0	  x7:0x53c0076b  x5:0x00010000
       50465000	      5045	80000be8	40955d33	sra	x26,x10,x9	 x10:0x00005010  x9:0x00000001 x26=0x00002808
       50475000	      5046	80000bec	04f5d863	bge	x11,x15,80000c3c	 x11:0xb11adf87 x15:0x00000001
       50485000	      5047	80000bf0	00475393	srli	x7,x14,0x4	 x14:0x800008cb  x7=0x0800008c
       50495000	      5048	80000bf4	0091a933	slt	x18,x3,x9	  x3:0x00000000  x9:0x00000001 x18=0x00000001
       50505000	      5049	80000bf8	4936f693	andi	x13,x13,1171	 x13:0x00000001 x13=0x00000001
       50515000	      5050	80000bfc	00f64db3	xor	x27,x12,x15	 x12:0x000053c0 x15:0x00000001 x27=0x000053c1
       50525000	      5051	80000c00	00fb1e63	bne	x22,x15,80000c1c	 x22:0x00000501 x15:0x00000001
       50535000	      5052	00000000	00000013	addi	x0,x0,0	  x0:0x00000000
       50545000	      5053	80000c18	00000013	addi	x0,x0,0	  x0:0x00000000
       50555000	      5054	80000c1c	40265f33	sra	x30,x12,x2	 x12:0x000053c0  x2:0x00000000 x30=0x000053c0
       50565000	      5055	80000c20	40d95713	srai	x14,x18,0xd	 x18:0x00000001 x14=0x00000000
       50575000	      5056	80000c24	00000013	addi	x0,x0,0	  x0:0x00000000
       50585000	      5057	80000c28	01281b93	slli	x23,x16,0x12	 x16:0x00000001 x23=0x00040000
       50595000	      5058	80000c2c	006b5293	srli	x5,x22,0x6	 x22:0x00000501  x5=0x00000014
       50605000	      5059	80000c30	01514a63	blt	x2,x21,80000c44	  x2:0x00000000 x21:0x80009ffc
       50615000	      5060	80000c34	017f9013	slli	x0,x31,0x17	 x31:0x80009f3c
       50625000	      5061	80000c38	00813f33	sltu	x30,x2,x8	  x2:0x00000000  x8:0x00000000 x30=0x00000000
       50635000	      5062	80000c3c	a3cc8297	auipc	x5,0xa3cc8	  x5=0x23cc8c38
       50645000	      5063	80000c40	00345613	srli	x12,x8,0x3	  x8:0x00000000 x12=0x00000000
       50655000	      5064	80000c44	40548333	sub	x6,x9,x5	  x9:0x00000001  x5:0x23cc8c38  x6=0xdc3373c9
       50665000	      5065	80000c48	402789b3	sub	x19,x15,x2	 x15:0x00000001  x2:0x00000000 x19=0x00000001
       50675000	      5066	80000c4c	3d394493	xori	x9,x18,979	 x18:0x00000001  x9=0x000003d2
       50685000	      5067	80000c50	01756633	or	x12,x10,x23	 x10:0x00005010 x23:0x00040000 x12=0x00045010
       50695000	      5068	80000c54	0023ddb3	srl	x27,x7,x2	  x7:0x0800008c  x2:0x00000000 x27=0x0800008c
       50705000	      5069	80000c58	e79ff613	andi	x12,x31,-391	 x31:0x80009f3c x12=0x80009e38
       50715000	      5070	80000c5c	1b38bd13	sltiu	x26,x17,435	 x17:0x80009fc4 x26=0x00000000
       50725000	      5071	80000c60	02dc7063	bgeu	x24,x13,80000c80	 x24:0x6ec2af3c x13:0x00000001
       50735000	      5072	00000000	00000013	addi	x0,x0,0	  x0:0x00000000
       50745000	      5073	80000c7c	00000013	addi	x0,x0,0	  x0:0x00000000
       50755000	      5074	80000c80	00184863	blt	x16,x1,80000c90	 x16:0x00000001  x1:0xb11adf87
       50765000	      5075	80000c84	03d2c463	blt	x5,x29,80000cac	  x5:0x23cc8c38 x29:0x8000a615
       50775000	      5076	80000c88	2de42913	slti	x18,x8,734	  x8:0x00000000 x18=0x00000001
       50785000	      5077	80000c8c	4086de33	sra	x28,x13,x8	 x13:0x00000001  x8:0x00000000 x28=0x00000001
       50795000	      5078	80000c90	0359e063	bltu	x19,x21,80000cb0	 x19:0x00000001 x21:0x80009ffc
       50805000	      5079	00000000	00000013	addi	x0,x0,0	  x0:0x00000000
       50815000	      5080	80000cac	00000013	addi	x0,x0,0	  x0:0x00000000
       50825000	      5081	80000cb0	01cbda13	srli	x20,x23,0x1c	 x23:0x00040000 x20=0x00000000
       50835000	      5082	80000cb4	408f5d13	srai	x26,x30,0x8	 x30:0x00000000 x26=0x00000000
       50845000	      5083	80000cb8	c9386d13	ori	x26,x16,-877	 x16:0x00000001 x26=0xfffffc93
       50855000	      5084	80000cbc	013342b3	xor	x5,x6,x19	  x6:0xdc3373c9 x19:0x00000001  x5=0xdc3373c8
       50865000	      5085	80000cc0	017bcc33	xor	x24,x23,x23	 x23:0x00040000 x23:0x00040000 x24=0x00000000
       50875000	      5086	80000cc4	0081b333	sltu	x6,x3,x8	  x3:0x00000000  x8:0x00000000  x6=0x00000000
       50885000	      5087	80000cc8	0081af33	slt	x30,x3,x8	  x3:0x00000000  x8:0x00000000 x30=0x00000000
       50895000	      5088	80000ccc	f7a60f13	addi	x30,x12,-134	 x12:0x80009e38 x30=0x80009db2
       50905000	      5089	80000cd0	f70db813	sltiu	x16,x27,-144	 x27:0x0800008c x16=0x00000001
       50915000	      5090	80000cd4	010aab33	slt	x22,x21,x16	 x21:0x80009ffc x16:0x00000001 x22=0x00000001
       50925000	      5091	80000cd8	01b05663	bge	x0,x27,80000ce4	  x0:0x00000000 x27:0x0800008c
       50935000	      5092	80000cdc	00a08a63	beq	x1,x10,80000cf0	  x1:0xb11adf87 x10:0x00005010
       50945000	      5093	80000ce0	00441c93	slli	x25,x8,0x4	  x8:0x00000000 x25=0x00000000
       50955000	      5094	80000ce4	0004a9b3	slt	x19,x9,x0	  x9:0x000003d2  x0:0x00000000 x19=0x00000000
       50965000	      5095	80000ce8	00c3ce63	blt	x7,x12,80000d04	  x7:0x0800008c x12:0x80009e38
       50975000	      5096	80000cec	0126a2b3	slt	x5,x13,x18	 x13:0x00000001 x18:0x00000001  x5=0x00000000
       50985000	      5097	80000cf0	00fd5933	srl	x18,x26,x15	 x26:0xfffffc93 x15:0x00000001 x18=0x7ffffe49
       50995000	      5098	80000cf4	007e6db3	or	x27,x28,x7	 x28:0x00000001  x7:0x0800008c x27=0x0800008d
       51005000	      5099	80000cf8	03df0a63	beq	x30,x29,80000d2c	 x30:0x80009db2 x29:0x8000a615
       51015000	      5100	80000cfc	418902b3	sub	x5,x18,x24	 x18:0x7ffffe49 x24:0x00000000  x5=0x7ffffe49
       51025000	      5101	80000d00	116ac6b7	lui	x13,0x116ac	 x13=0x116ac000
       51035000	      5102	80000d04	a97feb93	ori	x23,x31,-1385	 x31:0x80009f3c x23=0xffffffbf
       51045000	      5103	80000d08	0362ee63	bltu	x5,x22,80000d44	  x5:0x7ffffe49 x22:0x00000001
       51055000	      5104	80000d0c	0760ab93	slti	x23,x1,118	  x1:0xb11adf87 x23=0x00000001
       51065000	      5105	80000d10	047a9863	bne	x21,x7,80000d60	 x21:0x80009ffc  x7:0x0800008c
       51075000	      5106	00000000	00000013	addi	x0,x0,0	  x0:0x00000000
       51085000	      5107	80000d5c	00000013	addi	x0,x0,0	  x0:0x00000000
       51095000	      5108	80000d60	3e6ee9b7	lui	x19,0x3e6ee	 x19=0x3e6ee000
       51105000	      5109	80000d64	6054bc93	sltiu	x25,x9,1541	  x9:0x000003d2 x25=0x00000001
       51115000	      5110	80000d68	00fea3b3	slt	x7,x29,x15	 x29:0x8000a615 x15:0x00000001  x7=0x00000001
       51125000	      5111	80000d6c	01495b13	srli	x22,x18,0x14	 x18:0x7ffffe49 x22=0x000007ff
       51135000	      5112	80000d70	4148de93	srai	x29,x17,0x14	 x17:0x80009fc4 x29=0xfffff800
       51145000	      5113	80000d74	41a50e33	sub	x28,x10,x26	 x10:0x00005010 x26:0xfffffc93 x28=0x0000537d
       51155000	      5114	80000d78	352d8693	addi	x13,x27,850	 x27:0x0800008d x13=0x080003df
       51165000	      5115	80000d7c	417d5d93	srai	x27,x26,0x17	 x26:0xfffffc93 x27=0xffffffff
       51175000	      5116	80000d80	011d1113	slli	x2,x26,0x11	 x26:0xfffffc93  x2=0xf9260000
       51185000	      5117	80000d84	1fa6cb93	xori	x23,x13,506	 x13:0x080003df x23=0x08000225
       51195000	      5118	80000d88	00491e13	slli	x28,x18,0x4	 x18:0x7ffffe49 x28=0xffffe490
       51205000	      5119	80000d8c	004963b3	or	x7,x18,x4	 x18:0x7ffffe49  x4:0xe9ba91f5  x7=0xfffffffd
       51215000	      5120	80000d90	03dc9663	bne	x25,x29,80000dbc	 x25:0x00000001 x29:0xfffff800
       51225000	      5121	00000000	00000013	addi	x0,x0,0	  x0:0x00000000
       51235000	      5122	80000db8	00000013	addi	x0,x0,0	  x0:0x00000000
       51245000	      5123	80000dbc	000f1663	bne	x30,x0,80000dc8	 x30:0x80009db2  x0:0x00000000
       51255000	      5124	00000000	00000013	addi	x0,x0,0	  x0:0x00000000
       51265000	      5125	80000dc4	00000013	addi	x0,x0,0	  x0:0x00000000
       51275000	      5126	80000dc8	01156bb3	or	x23,x10,x17	 x10:0x00005010 x17:0x80009fc4 x23=0x8000dfd4
       51285000	      5127	80000dcc	00ac8863	beq	x25,x10,80000ddc	 x25:0x00000001 x10:0x00005010
       51295000	      5128	80000dd0	dcc46a13	ori	x20,x8,-564	  x8:0x00000000 x20=0xfffffdcc
       51305000	      5129	80000dd4	01751393	slli	x7,x10,0x17	 x10:0x00005010  x7=0x08000000
       51315000	      5130	80000dd8	690da517	auipc	x10,0x690da	 x10=0xe90dadd4
       51325000	      5131	80000ddc	00747663	bgeu	x8,x7,80000de8	  x8:0x00000000  x7:0x08000000
       51335000	      5132	80000de0	418887b3	sub	x15,x17,x24	 x17:0x80009fc4 x24:0x00000000 x15=0x80009fc4
       51345000	      5133	80000de4	00b752b3	srl	x5,x14,x11	 x14:0x00000000 x11:0xb11adf87  x5=0x00000000
       51355000	      5134	80000de8	00ab5e33	srl	x28,x22,x10	 x22:0x000007ff x10:0xe90dadd4 x28=0x00000000
       51365000	      5135	80000dec	5ea74c13	xori	x24,x14,1514	 x14:0x00000000 x24=0x000005ea
       51375000	      5136	80000df0	864f6093	ori	x1,x30,-1948	 x30:0x80009db2  x1=0xfffffdf6
       51385000	      5137	80000df4	032e6a63	bltu	x28,x18,80000e28	 x28:0x00000000 x18:0x7ffffe49
       51395000	      5138	00000000	00000013	addi	x0,x0,0	  x0:0x00000000
       51405000	      5139	80000e24	00000013	addi	x0,x0,0	  x0:0x00000000
       51415000	      5140	80000e28	0011d533	srl	x10,x3,x1	  x3:0x00000000  x1:0xfffffdf6 x10=0x00000000
       51425000	      5141	80000e2c	b4777c17	auipc	x24,0xb4777	 x24=0x34777e28
       51435000	      5142	80000e30	417ad6b3	sra	x13,x21,x23	 x21:0x80009ffc x23:0x8000dfd4 x13=0xfffff800
       51445000	      5143	80000e34	019c2633	slt	x12,x24,x25	 x24:0x34777e28 x25:0x00000001 x12=0x00000000
       51455000	      5144	80000e38	ec8f6993	ori	x19,x30,-312	 x30:0x80009db2 x19=0xfffffffa
       51465000	      5145	80000e3c	815c4593	xori	x11,x24,-2027	 x24:0x34777e28 x11=0xcb88863d
       51475000	      5146	80000e40	0038de13	srli	x28,x17,0x3	 x17:0x80009fc4 x28=0x100013f8
       51485000	      5147	80000e44	01229eb3	sll	x29,x5,x18	  x5:0x00000000 x18:0x7ffffe49 x29=0x00000000
       51495000	      5148	80000e48	020007ef	jal	x15,80000e48	 x15=0x80000e48
       51505000	      5149	00000000	00000013	addi	x0,x0,0	  x0:0x00000000
       51515000	      5150	80000e64	00000013	addi	x0,x0,0	  x0:0x00000000
       51525000	      5151	80000e68	01c0036f	jal	x6,80000e68	  x6=0x80000e68
       51535000	      5152	00000000	00000013	addi	x0,x0,0	  x0:0x00000000
       51545000	      5153	80000e80	00000013	addi	x0,x0,0	  x0:0x00000000
       51555000	      5154	80000e84	fd1ff2ef	jal	x5,80000e84	  x5=0x80000e84
       51565000	      5155	00000000	00000013	addi	x0,x0,0	  x0:0x00000000
       51575000	      5156	80000e50	00000013	addi	x0,x0,0	  x0:0x00000000
       51585000	      5157	80000e54	048000ef	jal	x1,80000e54	  x1=0x80000e54
       51595000	      5158	00000000	00000013	addi	x0,x0,0	  x0:0x00000000
       51605000	      5159	80000e98	00000013	addi	x0,x0,0	  x0:0x00000000
       51615000	      5160	80000e9c	ff1ff0ef	jal	x1,80000e9c	  x1=0x80000e9c
       51625000	      5161	00000000	00000013	addi	x0,x0,0	  x0:0x00000000
       51635000	      5162	80000e88	00000013	addi	x0,x0,0	  x0:0x00000000
       51645000	      5163	80000e8c	014002ef	jal	x5,80000e8c	  x5=0x80000e8c
       51655000	      5164	00000000	00000013	addi	x0,x0,0	  x0:0x00000000
       51665000	      5165	80000e9c	00000013	addi	x0,x0,0	  x0:0x00000000
       51675000	      5166	80000ea0	ff9ff0ef	jal	x1,80000ea0	  x1=0x80000ea0
       51685000	      5167	00000000	00000013	addi	x0,x0,0	  x0:0x00000000
       51695000	      5168	80000e94	00000013	addi	x0,x0,0	  x0:0x00000000
       51705000	      5169	80000e98	fc1ff36f	jal	x6,80000e98	  x6=0x80000e98
       51715000	      5170	00000000	00000013	addi	x0,x0,0	  x0:0x00000000
       51725000	      5171	80000e54	00000013	addi	x0,x0,0	  x0:0x00000000
       51735000	      5172	80000e58	00c0036f	jal	x6,80000e58	  x6=0x80000e58
       51745000	      5173	00000000	00000013	addi	x0,x0,0	  x0:0x00000000
       51755000	      5174	80000e60	00000013	addi	x0,x0,0	  x0:0x00000000
       51765000	      5175	80000e64	030000ef	jal	x1,80000e64	  x1=0x80000e64
       51775000	      5176	00000000	00000013	addi	x0,x0,0	  x0:0x00000000
       51785000	      5177	80000e90	00000013	addi	x0,x0,0	  x0:0x00000000
       51795000	      5178	80000e94	fedff0ef	jal	x1,80000e94	  x1=0x80000e94
       51805000	      5179	00000000	00000013	addi	x0,x0,0	  x0:0x00000000
       51815000	      5180	80000e7c	00000013	addi	x0,x0,0	  x0:0x00000000
       51825000	      5181	80000e80	fe1ff0ef	jal	x1,80000e80	  x1=0x80000e80
       51835000	      5182	00000000	00000013	addi	x0,x0,0	  x0:0x00000000
       51845000	      5183	80000e5c	00000013	addi	x0,x0,0	  x0:0x00000000
       51855000	      5184	80000e60	014007ef	jal	x15,80000e60	 x15=0x80000e60
       51865000	      5185	00000000	00000013	addi	x0,x0,0	  x0:0x00000000
       51875000	      5186	80000e70	00000013	addi	x0,x0,0	  x0:0x00000000
       51885000	      5187	80000e74	034000ef	jal	x1,80000e74	  x1=0x80000e74
       51895000	      5188	00000000	00000013	addi	x0,x0,0	  x0:0x00000000
       51905000	      5189	80000ea4	00000013	addi	x0,x0,0	  x0:0x00000000
       51915000	      5190	80000ea8	fa5ff36f	jal	x6,80000ea8	  x6=0x80000ea8
       51925000	      5191	00000000	00000013	addi	x0,x0,0	  x0:0x00000000
       51935000	      5192	80000e48	00000013	addi	x0,x0,0	  x0:0x00000000
       51945000	      5193	80000e4c	0580036f	jal	x6,80000e4c	  x6=0x80000e4c
       51955000	      5194	00000000	00000013	addi	x0,x0,0	  x0:0x00000000
       51965000	      5195	80000ea0	00000013	addi	x0,x0,0	  x0:0x00000000
       51975000	      5196	80000ea4	fc9ff0ef	jal	x1,80000ea4	  x1=0x80000ea4
       51985000	      5197	00000000	00000013	addi	x0,x0,0	  x0:0x00000000
       51995000	      5198	80000e68	00000013	addi	x0,x0,0	  x0:0x00000000
       52005000	      5199	80000e6c	ff1ff0ef	jal	x1,80000e6c	  x1=0x80000e6c
       52015000	      5200	00000000	00000013	addi	x0,x0,0	  x0:0x00000000
       52025000	      5201	80000e58	00000013	addi	x0,x0,0	  x0:0x00000000
       52035000	      5202	80000e5c	0140016f	jal	x2,80000e5c	  x2=0x80000e5c
       52045000	      5203	00000000	00000013	addi	x0,x0,0	  x0:0x00000000
       52055000	      5204	80000e6c	00000013	addi	x0,x0,0	  x0:0x00000000
       52065000	      5205	80000e70	018000ef	jal	x1,80000e70	  x1=0x80000e70
       52075000	      5206	00000000	00000013	addi	x0,x0,0	  x0:0x00000000
       52085000	      5207	80000e84	00000013	addi	x0,x0,0	  x0:0x00000000
       52095000	      5208	80000e88	ff1ffbef	jal	x23,80000e88	 x23=0x80000e88
       52105000	      5209	00000000	00000013	addi	x0,x0,0	  x0:0x00000000
       52115000	      5210	80000e74	00000013	addi	x0,x0,0	  x0:0x00000000
       52125000	      5211	80000e78	fd9ff0ef	jal	x1,80000e78	  x1=0x80000e78
       52135000	      5212	00000000	00000013	addi	x0,x0,0	  x0:0x00000000
       52145000	      5213	80000e4c	00000013	addi	x0,x0,0	  x0:0x00000000
       52155000	      5214	80000e50	02c0036f	jal	x6,80000e50	  x6=0x80000e50
       52165000	      5215	00000000	00000013	addi	x0,x0,0	  x0:0x00000000
       52175000	      5216	80000e78	00000013	addi	x0,x0,0	  x0:0x00000000
       52185000	      5217	80000e7c	0140036f	jal	x6,80000e7c	  x6=0x80000e7c
       52195000	      5218	00000000	00000013	addi	x0,x0,0	  x0:0x00000000
       52205000	      5219	80000e8c	00000013	addi	x0,x0,0	  x0:0x00000000
       52215000	      5220	80000e90	01c0036f	jal	x6,80000e90	  x6=0x80000e90
       52225000	      5221	00000000	00000013	addi	x0,x0,0	  x0:0x00000000
       52235000	      5222	80000ea8	00000013	addi	x0,x0,0	  x0:0x00000000
       52245000	      5223	80000eac	73c42717	auipc	x14,0x73c42	 x14=0xf3c42ea8
       52255000	      5224	80000eb0	e24a6b13	ori	x22,x20,-476	 x20:0xfffffdcc x22=0xffffffec
       52265000	      5225	80000eb4	01e3c663	blt	x7,x30,80000ec0	  x7:0x08000000 x30:0x80009db2
       52275000	      5226	80000eb8	59bcbdb7	lui	x27,0x59bcb	 x27=0x59bcb000
       52285000	      5227	80000ebc	eac80a13	addi	x20,x16,-340	 x16:0x00000001 x20=0xfffffead
       52295000	      5228	80000ec0	01de8a63	beq	x29,x29,80000ed4	 x29:0x00000000 x29:0x00000000
       52305000	      5229	00000000	00000013	addi	x0,x0,0	  x0:0x00000000
       52315000	      5230	80000ed0	00000013	addi	x0,x0,0	  x0:0x00000000
       52325000	      5231	80000ed4	96cbee93	ori	x29,x23,-1684	 x23:0x80000e88 x29=0xffffffec
       52335000	      5232	80000ed8	00615433	srl	x8,x2,x6	  x2:0x80000e5c  x6:0x80000e90  x8=0x00008000
       52345000	      5233	80000edc	014845b3	xor	x11,x16,x20	 x16:0x00000001 x20:0xfffffead x11=0xfffffeac
       52355000	      5234	80000ee0	c038fc13	andi	x24,x17,-1021	 x17:0x80009fc4 x24=0x80009c00
       52365000	      5235	80000ee4	00301513	slli	x10,x0,0x3	  x0:0x00000000 x10=0x00000000
       52375000	      5236	80000ee8	01b99593	slli	x11,x19,0x1b	 x19:0xfffffffa x11=0xd0000000
       52385000	      5237	80000eec	01017d33	and	x26,x2,x16	  x2:0x80000e5c x16:0x00000001 x26=0x00000000
       52395000	      5238	80000ef0	41e2d7b3	sra	x15,x5,x30	  x5:0x80000e8c x30:0x80009db2 x15=0xffffe000
       52405000	      5239	80000ef4	60f53193	sltiu	x3,x10,1551	 x10:0x00000000  x3=0x00000001
       52415000	      5240	80000ef8	00ef5663	bge	x30,x14,80000f04	 x30:0x80009db2 x14:0xf3c42ea8
       52425000	      5241	80000efc	002159b3	srl	x19,x2,x2	  x2:0x80000e5c  x2:0x80000e5c x19=0x00000008
       52435000	      5242	80000f00	01d99993	slli	x19,x19,0x1d	 x19:0x00000008 x19=0x00000000
       52445000	      5243	80000f04	632d6493	ori	x9,x26,1586	 x26:0x00000000  x9=0x00000632
       52455000	      5244	80000f08	00000013	addi	x0,x0,0	  x0:0x00000000
       52465000	      5245	80000f0c	00000013	addi	x0,x0,0	  x0:0x00000000
       52475000	      5246	80000f10	00801263	bne	x0,x8,80000f14	  x0:0x00000000  x8:0x00008000
       52485000	      5247	00000000	00000013	addi	x0,x0,0	  x0:0x00000000
       52495000	      5248	80000f10	00000013	addi	x0,x0,0	  x0:0x00000000
       52505000	      5249	80000f14	417bd1b3	sra	x3,x23,x23	 x23:0x80000e88 x23:0x80000e88  x3=0xff80000e
       52515000	      5250	80000f18	004fa783	lw	x15,4(x31)	 x31:0x80009f3c x15=0x8000394c PA:0x80009f40
       52525000	      5251	80000f1c	012890b3	sll	x1,x17,x18	 x17:0x80009fc4 x18:0x7ffffe49  x1=0x013f8800
       52535000	      5252	80000f20	004b3e33	sltu	x28,x22,x4	 x22:0xffffffec  x4:0xe9ba91f5 x28=0x00000000
       52545000	      5253	80000f24	1c8c0313	addi	x6,x24,456	 x24:0x80009c00  x6=0x80009dc8
       52555000	      5254	80000f28	014f8f93	addi	x31,x31,20	 x31:0x80009f3c x31=0x80009f50
       52565000	      5255	80000f2c	01a646b3	xor	x13,x12,x26	 x12:0x00000000 x26:0x00000000 x13=0x00000000
       52575000	      5256	80000f30	00078e93	addi	x29,x15,0	 x15:0x8000394c x29=0x8000394c
       52585000	      5257	80000f34	000e8ee7	jalr	x29,x29,0	 x29:0x8000394c x29=0x80000f34
       52595000	      5258	00000000	00000013	addi	x0,x0,0	  x0:0x00000000
       52605000	      5259	8000394c	00000013	addi	x0,x0,0	  x0:0x00000000
       52615000	      5260	80003950	02c007ef	jal	x15,80003950	 x15=0x80003950
       52625000	      5261	00000000	00000013	addi	x0,x0,0	  x0:0x00000000
       52635000	      5262	80003978	00000013	addi	x0,x0,0	  x0:0x00000000
       52645000	      5263	8000397c	fe9ff96f	jal	x18,8000397c	 x18=0x8000397c
       52655000	      5264	00000000	00000013	addi	x0,x0,0	  x0:0x00000000
       52665000	      5265	80003960	00000013	addi	x0,x0,0	  x0:0x00000000
       52675000	      5266	80003964	ff9ffbef	jal	x23,80003964	 x23=0x80003964
       52685000	      5267	00000000	00000013	addi	x0,x0,0	  x0:0x00000000
       52695000	      5268	80003958	00000013	addi	x0,x0,0	  x0:0x00000000
       52705000	      5269	8000395c	060000ef	jal	x1,8000395c	  x1=0x8000395c
       52715000	      5270	00000000	00000013	addi	x0,x0,0	  x0:0x00000000
       52725000	      5271	800039b8	00000013	addi	x0,x0,0	  x0:0x00000000
       52735000	      5272	800039bc	fc9ff0ef	jal	x1,800039bc	  x1=0x800039bc
       52745000	      5273	00000000	00000013	addi	x0,x0,0	  x0:0x00000000
       52755000	      5274	80003980	00000013	addi	x0,x0,0	  x0:0x00000000
       52765000	      5275	80003984	01c0036f	jal	x6,80003984	  x6=0x80003984
       52775000	      5276	00000000	00000013	addi	x0,x0,0	  x0:0x00000000
       52785000	      5277	8000399c	00000013	addi	x0,x0,0	  x0:0x00000000
       52795000	      5278	800039a0	fe1ff0ef	jal	x1,800039a0	  x1=0x800039a0
       52805000	      5279	00000000	00000013	addi	x0,x0,0	  x0:0x00000000
       52815000	      5280	8000397c	00000013	addi	x0,x0,0	  x0:0x00000000
       52825000	      5281	80003980	ff1ff0ef	jal	x1,80003980	  x1=0x80003980
       52835000	      5282	00000000	00000013	addi	x0,x0,0	  x0:0x00000000
       52845000	      5283	8000396c	00000013	addi	x0,x0,0	  x0:0x00000000
       52855000	      5284	80003970	028000ef	jal	x1,80003970	  x1=0x80003970
       52865000	      5285	00000000	00000013	addi	x0,x0,0	  x0:0x00000000
       52875000	      5286	80003994	00000013	addi	x0,x0,0	  x0:0x00000000
       52885000	      5287	80003998	fe1ff36f	jal	x6,80003998	  x6=0x80003998
       52895000	      5288	00000000	00000013	addi	x0,x0,0	  x0:0x00000000
       52905000	      5289	80003974	00000013	addi	x0,x0,0	  x0:0x00000000
       52915000	      5290	80003978	0400036f	jal	x6,80003978	  x6=0x80003978
       52925000	      5291	00000000	00000013	addi	x0,x0,0	  x0:0x00000000
       52935000	      5292	800039b4	00000013	addi	x0,x0,0	  x0:0x00000000
       52945000	      5293	800039b8	f9dff36f	jal	x6,800039b8	  x6=0x800039b8
       52955000	      5294	00000000	00000013	addi	x0,x0,0	  x0:0x00000000
       52965000	      5295	80003950	00000013	addi	x0,x0,0	  x0:0x00000000
       52975000	      5296	80003954	038000ef	jal	x1,80003954	  x1=0x80003954
       52985000	      5297	00000000	00000013	addi	x0,x0,0	  x0:0x00000000
       52995000	      5298	80003988	00000013	addi	x0,x0,0	  x0:0x00000000
       53005000	      5299	8000398c	008000ef	jal	x1,8000398c	  x1=0x8000398c
       53015000	      5300	00000000	00000013	addi	x0,x0,0	  x0:0x00000000
       53025000	      5301	80003990	00000013	addi	x0,x0,0	  x0:0x00000000
       53035000	      5302	80003994	fcdff0ef	jal	x1,80003994	  x1=0x80003994
       53045000	      5303	00000000	00000013	addi	x0,x0,0	  x0:0x00000000
       53055000	      5304	8000395c	00000013	addi	x0,x0,0	  x0:0x00000000
       53065000	      5305	80003960	0080016f	jal	x2,80003960	  x2=0x80003960
       53075000	      5306	00000000	00000013	addi	x0,x0,0	  x0:0x00000000
       53085000	      5307	80003964	00000013	addi	x0,x0,0	  x0:0x00000000
       53095000	      5308	80003968	00c000ef	jal	x1,80003968	  x1=0x80003968
       53105000	      5309	00000000	00000013	addi	x0,x0,0	  x0:0x00000000
       53115000	      5310	80003970	00000013	addi	x0,x0,0	  x0:0x00000000
       53125000	      5311	80003974	050001ef	jal	x3,80003974	  x3=0x80003974
       53135000	      5312	00000000	00000013	addi	x0,x0,0	  x0:0x00000000
       53145000	      5313	800039c0	00000013	addi	x0,x0,0	  x0:0x00000000
       53155000	      5314	800039c4	fe9ff0ef	jal	x1,800039c4	  x1=0x800039c4
       53165000	      5315	00000000	00000013	addi	x0,x0,0	  x0:0x00000000
       53175000	      5316	800039a8	00000013	addi	x0,x0,0	  x0:0x00000000
       53185000	      5317	800039ac	fe5ffdef	jal	x27,800039ac	 x27=0x800039ac
       53195000	      5318	00000000	00000013	addi	x0,x0,0	  x0:0x00000000
       53205000	      5319	8000398c	00000013	addi	x0,x0,0	  x0:0x00000000
       53215000	      5320	80003990	0240036f	jal	x6,80003990	  x6=0x80003990
       53225000	      5321	00000000	00000013	addi	x0,x0,0	  x0:0x00000000
       53235000	      5322	800039b0	00000013	addi	x0,x0,0	  x0:0x00000000
       53245000	      5323	800039b4	ff5ff5ef	jal	x11,800039b4	 x11=0x800039b4
       53255000	      5324	00000000	00000013	addi	x0,x0,0	  x0:0x00000000
       53265000	      5325	800039a4	00000013	addi	x0,x0,0	  x0:0x00000000
       53275000	      5326	800039a8	ff5ff36f	jal	x6,800039a8	  x6=0x800039a8
       53285000	      5327	00000000	00000013	addi	x0,x0,0	  x0:0x00000000
       53295000	      5328	80003998	00000013	addi	x0,x0,0	  x0:0x00000000
       53305000	      5329	8000399c	00800cef	jal	x25,8000399c	 x25=0x8000399c
       53315000	      5330	00000000	00000013	addi	x0,x0,0	  x0:0x00000000
       53325000	      5331	800039a0	00000013	addi	x0,x0,0	  x0:0x00000000
       53335000	      5332	800039a4	fe5ff0ef	jal	x1,800039a4	  x1=0x800039a4
       53345000	      5333	00000000	00000013	addi	x0,x0,0	  x0:0x00000000
       53355000	      5334	80003984	00000013	addi	x0,x0,0	  x0:0x00000000
       53365000	      5335	80003988	fd1ff9ef	jal	x19,80003988	 x19=0x80003988
       53375000	      5336	00000000	00000013	addi	x0,x0,0	  x0:0x00000000
       53385000	      5337	80003954	00000013	addi	x0,x0,0	  x0:0x00000000
       53395000	      5338	80003958	014000ef	jal	x1,80003958	  x1=0x80003958
       53405000	      5339	00000000	00000013	addi	x0,x0,0	  x0:0x00000000
       53415000	      5340	80003968	00000013	addi	x0,x0,0	  x0:0x00000000
       53425000	      5341	8000396c	044000ef	jal	x1,8000396c	  x1=0x8000396c
       53435000	      5342	00000000	00000013	addi	x0,x0,0	  x0:0x00000000
       53445000	      5343	800039ac	00000013	addi	x0,x0,0	  x0:0x00000000
       53455000	      5344	800039b0	010001ef	jal	x3,800039b0	  x3=0x800039b0
       53465000	      5345	00000000	00000013	addi	x0,x0,0	  x0:0x00000000
       53475000	      5346	800039bc	00000013	addi	x0,x0,0	  x0:0x00000000
       53485000	      5347	800039c0	0080036f	jal	x6,800039c0	  x6=0x800039c0
       53495000	      5348	00000000	00000013	addi	x0,x0,0	  x0:0x00000000
       53505000	      5349	800039c4	00000013	addi	x0,x0,0	  x0:0x00000000
       53515000	      5350	800039c8	0b6117b7	lui	x15,0xb611	 x15=0x0b611000
       53525000	      5351	800039cc	044007ef	jal	x15,800039cc	 x15=0x800039cc
       53535000	      5352	00000000	00000013	addi	x0,x0,0	  x0:0x00000000
       53545000	      5353	80003a0c	00000013	addi	x0,x0,0	  x0:0x00000000
       53555000	      5354	80003a10	ff5ff0ef	jal	x1,80003a10	  x1=0x80003a10
       53565000	      5355	00000000	00000013	addi	x0,x0,0	  x0:0x00000000
       53575000	      5356	80003a00	00000013	addi	x0,x0,0	  x0:0x00000000
       53585000	      5357	80003a04	fd5ff0ef	jal	x1,80003a04	  x1=0x80003a04
       53595000	      5358	00000000	00000013	addi	x0,x0,0	  x0:0x00000000
       53605000	      5359	800039d4	00000013	addi	x0,x0,0	  x0:0x00000000
       53615000	      5360	800039d8	0140036f	jal	x6,800039d8	  x6=0x800039d8
       53625000	      5361	00000000	00000013	addi	x0,x0,0	  x0:0x00000000
       53635000	      5362	800039e8	00000013	addi	x0,x0,0	  x0:0x00000000
       53645000	      5363	800039ec	ff5ff36f	jal	x6,800039ec	  x6=0x800039ec
       53655000	      5364	00000000	00000013	addi	x0,x0,0	  x0:0x00000000
       53665000	      5365	800039dc	00000013	addi	x0,x0,0	  x0:0x00000000
       53675000	      5366	800039e0	008000ef	jal	x1,800039e0	  x1=0x800039e0
       53685000	      5367	00000000	00000013	addi	x0,x0,0	  x0:0x00000000
       53695000	      5368	800039e4	00000013	addi	x0,x0,0	  x0:0x00000000
       53705000	      5369	800039e8	00c000ef	jal	x1,800039e8	  x1=0x800039e8
       53715000	      5370	00000000	00000013	addi	x0,x0,0	  x0:0x00000000
       53725000	      5371	800039f0	00000013	addi	x0,x0,0	  x0:0x00000000
       53735000	      5372	800039f4	ffdff0ef	jal	x1,800039f4	  x1=0x800039f4
       53745000	      5373	00000000	00000013	addi	x0,x0,0	  x0:0x00000000
       53755000	      5374	800039ec	00000013	addi	x0,x0,0	  x0:0x00000000
       53765000	      5375	800039f0	008000ef	jal	x1,800039f0	  x1=0x800039f0
       53775000	      5376	00000000	00000013	addi	x0,x0,0	  x0:0x00000000
       53785000	      5377	800039f4	00000013	addi	x0,x0,0	  x0:0x00000000
       53795000	      5378	800039f8	fd9ffdef	jal	x27,800039f8	 x27=0x800039f8
       53805000	      5379	00000000	00000013	addi	x0,x0,0	  x0:0x00000000
       53815000	      5380	800039cc	00000013	addi	x0,x0,0	  x0:0x00000000
       53825000	      5381	800039d0	0300036f	jal	x6,800039d0	  x6=0x800039d0
       53835000	      5382	00000000	00000013	addi	x0,x0,0	  x0:0x00000000
       53845000	      5383	800039fc	00000013	addi	x0,x0,0	  x0:0x00000000
       53855000	      5384	80003a00	0140076f	jal	x14,80003a00	 x14=0x80003a00
       53865000	      5385	00000000	00000013	addi	x0,x0,0	  x0:0x00000000
       53875000	      5386	80003a10	00000013	addi	x0,x0,0	  x0:0x00000000
       53885000	      5387	80003a14	fc1ff46f	jal	x8,80003a14	  x8=0x80003a14
       53895000	      5388	00000000	00000013	addi	x0,x0,0	  x0:0x00000000
       53905000	      5389	800039d0	00000013	addi	x0,x0,0	  x0:0x00000000
       53915000	      5390	800039d4	0340036f	jal	x6,800039d4	  x6=0x800039d4
       53925000	      5391	00000000	00000013	addi	x0,x0,0	  x0:0x00000000
       53935000	      5392	80003a04	00000013	addi	x0,x0,0	  x0:0x00000000
       53945000	      5393	80003a08	004000ef	jal	x1,80003a08	  x1=0x80003a08
       53955000	      5394	00000000	00000013	addi	x0,x0,0	  x0:0x00000000
       53965000	      5395	80003a08	00000013	addi	x0,x0,0	  x0:0x00000000
       53975000	      5396	80003a0c	fd9ff0ef	jal	x1,80003a0c	  x1=0x80003a0c
       53985000	      5397	00000000	00000013	addi	x0,x0,0	  x0:0x00000000
       53995000	      5398	800039e0	00000013	addi	x0,x0,0	  x0:0x00000000
       54005000	      5399	800039e4	ff9ff0ef	jal	x1,800039e4	  x1=0x800039e4
       54015000	      5400	00000000	00000013	addi	x0,x0,0	  x0:0x00000000
       54025000	      5401	800039d8	00000013	addi	x0,x0,0	  x0:0x00000000
       54035000	      5402	800039dc	020000ef	jal	x1,800039dc	  x1=0x800039dc
       54045000	      5403	00000000	00000013	addi	x0,x0,0	  x0:0x00000000
       54055000	      5404	800039f8	00000013	addi	x0,x0,0	  x0:0x00000000
       54065000	      5405	800039fc	01c0046f	jal	x8,800039fc	  x8=0x800039fc
       54075000	      5406	00000000	00000013	addi	x0,x0,0	  x0:0x00000000
       54085000	      5407	80003a14	00000013	addi	x0,x0,0	  x0:0x00000000
       54095000	      5408	80003a18	ddbec917	auipc	x18,0xddbec	 x18=0x5dbefa14
       54105000	      5409	80003a1c	020007ef	jal	x15,80003a1c	 x15=0x80003a1c
       54115000	      5410	00000000	00000013	addi	x0,x0,0	  x0:0x00000000
       54125000	      5411	80003a38	00000013	addi	x0,x0,0	  x0:0x00000000
       54135000	      5412	80003a3c	040000ef	jal	x1,80003a3c	  x1=0x80003a3c
       54145000	      5413	00000000	00000013	addi	x0,x0,0	  x0:0x00000000
       54155000	      5414	80003a78	00000013	addi	x0,x0,0	  x0:0x00000000
       54165000	      5415	80003a7c	fe5ff0ef	jal	x1,80003a7c	  x1=0x80003a7c
       54175000	      5416	00000000	00000013	addi	x0,x0,0	  x0:0x00000000
       54185000	      5417	80003a5c	00000013	addi	x0,x0,0	  x0:0x00000000
       54195000	      5418	80003a60	018000ef	jal	x1,80003a60	  x1=0x80003a60
       54205000	      5419	00000000	00000013	addi	x0,x0,0	  x0:0x00000000
       54215000	      5420	80003a74	00000013	addi	x0,x0,0	  x0:0x00000000
       54225000	      5421	80003a78	fb1ff16f	jal	x2,80003a78	  x2=0x80003a78
       54235000	      5422	00000000	00000013	addi	x0,x0,0	  x0:0x00000000
       54245000	      5423	80003a24	00000013	addi	x0,x0,0	  x0:0x00000000
       54255000	      5424	80003a28	03c009ef	jal	x19,80003a28	 x19=0x80003a28
       54265000	      5425	00000000	00000013	addi	x0,x0,0	  x0:0x00000000
       54275000	      5426	80003a60	00000013	addi	x0,x0,0	  x0:0x00000000
       54285000	      5427	80003a64	020000ef	jal	x1,80003a64	  x1=0x80003a64
       54295000	      5428	00000000	00000013	addi	x0,x0,0	  x0:0x00000000
       54305000	      5429	80003a80	00000013	addi	x0,x0,0	  x0:0x00000000
       54315000	      5430	80003a84	fbdff36f	jal	x6,80003a84	  x6=0x80003a84
       54325000	      5431	00000000	00000013	addi	x0,x0,0	  x0:0x00000000
       54335000	      5432	80003a3c	00000013	addi	x0,x0,0	  x0:0x00000000
       54345000	      5433	80003a40	0100036f	jal	x6,80003a40	  x6=0x80003a40
       54355000	      5434	00000000	00000013	addi	x0,x0,0	  x0:0x00000000
       54365000	      5435	80003a4c	00000013	addi	x0,x0,0	  x0:0x00000000
       54375000	      5436	80003a50	0080036f	jal	x6,80003a50	  x6=0x80003a50
       54385000	      5437	00000000	00000013	addi	x0,x0,0	  x0:0x00000000
       54395000	      5438	80003a54	00000013	addi	x0,x0,0	  x0:0x00000000
       54405000	      5439	80003a58	fc9ffdef	jal	x27,80003a58	 x27=0x80003a58
       54415000	      5440	00000000	00000013	addi	x0,x0,0	  x0:0x00000000
       54425000	      5441	80003a1c	00000013	addi	x0,x0,0	  x0:0x00000000
       54435000	      5442	80003a20	028009ef	jal	x19,80003a20	 x19=0x80003a20
       54445000	      5443	00000000	00000013	addi	x0,x0,0	  x0:0x00000000
       54455000	      5444	80003a44	00000013	addi	x0,x0,0	  x0:0x00000000
       54465000	      5445	80003a48	fe5ff36f	jal	x6,80003a48	  x6=0x80003a48
       54475000	      5446	00000000	00000013	addi	x0,x0,0	  x0:0x00000000
       54485000	      5447	80003a28	00000013	addi	x0,x0,0	  x0:0x00000000
       54495000	      5448	80003a2c	0540036f	jal	x6,80003a2c	  x6=0x80003a2c
       54505000	      5449	00000000	00000013	addi	x0,x0,0	  x0:0x00000000
       54515000	      5450	80003a7c	00000013	addi	x0,x0,0	  x0:0x00000000
       54525000	      5451	80003a80	fc5ff36f	jal	x6,80003a80	  x6=0x80003a80
       54535000	      5452	00000000	00000013	addi	x0,x0,0	  x0:0x00000000
       54545000	      5453	80003a40	00000013	addi	x0,x0,0	  x0:0x00000000
       54555000	      5454	80003a44	fe1ffa6f	jal	x20,80003a44	 x20=0x80003a44
       54565000	      5455	00000000	00000013	addi	x0,x0,0	  x0:0x00000000
       54575000	      5456	80003a20	00000013	addi	x0,x0,0	  x0:0x00000000
       54585000	      5457	80003a24	028000ef	jal	x1,80003a24	  x1=0x80003a24
       54595000	      5458	00000000	00000013	addi	x0,x0,0	  x0:0x00000000
       54605000	      5459	80003a48	00000013	addi	x0,x0,0	  x0:0x00000000
       54615000	      5460	80003a4c	fedff0ef	jal	x1,80003a4c	  x1=0x80003a4c
       54625000	      5461	00000000	00000013	addi	x0,x0,0	  x0:0x00000000
       54635000	      5462	80003a34	00000013	addi	x0,x0,0	  x0:0x00000000
       54645000	      5463	80003a38	030000ef	jal	x1,80003a38	  x1=0x80003a38
       54655000	      5464	00000000	00000013	addi	x0,x0,0	  x0:0x00000000
       54665000	      5465	80003a64	00000013	addi	x0,x0,0	  x0:0x00000000
       54675000	      5466	80003a68	0040036f	jal	x6,80003a68	  x6=0x80003a68
       54685000	      5467	00000000	00000013	addi	x0,x0,0	  x0:0x00000000
       54695000	      5468	80003a68	00000013	addi	x0,x0,0	  x0:0x00000000
       54705000	      5469	80003a6c	00400bef	jal	x23,80003a6c	 x23=0x80003a6c
       54715000	      5470	00000000	00000013	addi	x0,x0,0	  x0:0x00000000
       54725000	      5471	80003a6c	00000013	addi	x0,x0,0	  x0:0x00000000
       54735000	      5472	80003a70	fc1ff36f	jal	x6,80003a70	  x6=0x80003a70
       54745000	      5473	00000000	00000013	addi	x0,x0,0	  x0:0x00000000
       54755000	      5474	80003a2c	00000013	addi	x0,x0,0	  x0:0x00000000
       54765000	      5475	80003a30	004000ef	jal	x1,80003a30	  x1=0x80003a30
       54775000	      5476	00000000	00000013	addi	x0,x0,0	  x0:0x00000000
       54785000	      5477	80003a30	00000013	addi	x0,x0,0	  x0:0x00000000
       54795000	      5478	80003a34	0280036f	jal	x6,80003a34	  x6=0x80003a34
       54805000	      5479	00000000	00000013	addi	x0,x0,0	  x0:0x00000000
       54815000	      5480	80003a58	00000013	addi	x0,x0,0	  x0:0x00000000
       54825000	      5481	80003a5c	ff9ff0ef	jal	x1,80003a5c	  x1=0x80003a5c
       54835000	      5482	00000000	00000013	addi	x0,x0,0	  x0:0x00000000
       54845000	      5483	80003a50	00000013	addi	x0,x0,0	  x0:0x00000000
       54855000	      5484	80003a54	020000ef	jal	x1,80003a54	  x1=0x80003a54
       54865000	      5485	00000000	00000013	addi	x0,x0,0	  x0:0x00000000
       54875000	      5486	80003a70	00000013	addi	x0,x0,0	  x0:0x00000000
       54885000	      5487	80003a74	014000ef	jal	x1,80003a74	  x1=0x80003a74
       54895000	      5488	00000000	00000013	addi	x0,x0,0	  x0:0x00000000
       54905000	      5489	80003a84	00000013	addi	x0,x0,0	  x0:0x00000000
       54915000	      5490	80003a88	004d4a33	xor	x20,x26,x4	 x26:0x00000000  x4:0xe9ba91f5 x20=0xe9ba91f5
       54925000	      5491	80003a8c	018007ef	jal	x15,80003a8c	 x15=0x80003a8c
       54935000	      5492	00000000	00000013	addi	x0,x0,0	  x0:0x00000000
       54945000	      5493	80003aa0	00000013	addi	x0,x0,0	  x0:0x00000000
       54955000	      5494	80003aa4	044000ef	jal	x1,80003aa4	  x1=0x80003aa4
       54965000	      5495	00000000	00000013	addi	x0,x0,0	  x0:0x00000000
       54975000	      5496	80003ae4	00000013	addi	x0,x0,0	  x0:0x00000000
       54985000	      5497	80003ae8	fe1ff36f	jal	x6,80003ae8	  x6=0x80003ae8
       54995000	      5498	00000000	00000013	addi	x0,x0,0	  x0:0x00000000
       55005000	      5499	80003ac4	00000013	addi	x0,x0,0	  x0:0x00000000
       55015000	      5500	80003ac8	0300036f	jal	x6,80003ac8	  x6=0x80003ac8
       55025000	      5501	00000000	00000013	addi	x0,x0,0	  x0:0x00000000
       55035000	      5502	80003af4	00000013	addi	x0,x0,0	  x0:0x00000000
       55045000	      5503	80003af8	fc9ffd6f	jal	x26,80003af8	 x26=0x80003af8
       55055000	      5504	00000000	00000013	addi	x0,x0,0	  x0:0x00000000
       55065000	      5505	80003abc	00000013	addi	x0,x0,0	  x0:0x00000000
       55075000	      5506	80003ac0	020000ef	jal	x1,80003ac0	  x1=0x80003ac0
       55085000	      5507	00000000	00000013	addi	x0,x0,0	  x0:0x00000000
       55095000	      5508	80003adc	00000013	addi	x0,x0,0	  x0:0x00000000
       55105000	      5509	80003ae0	0040036f	jal	x6,80003ae0	  x6=0x80003ae0
       55115000	      5510	00000000	00000013	addi	x0,x0,0	  x0:0x00000000
       55125000	      5511	80003ae0	00000013	addi	x0,x0,0	  x0:0x00000000
       55135000	      5512	80003ae4	fbdff0ef	jal	x1,80003ae4	  x1=0x80003ae4
       55145000	      5513	00000000	00000013	addi	x0,x0,0	  x0:0x00000000
       55155000	      5514	80003a9c	00000013	addi	x0,x0,0	  x0:0x00000000
       55165000	      5515	80003aa0	03c0036f	jal	x6,80003aa0	  x6=0x80003aa0
       55175000	      5516	00000000	00000013	addi	x0,x0,0	  x0:0x00000000
       55185000	      5517	80003ad8	00000013	addi	x0,x0,0	  x0:0x00000000
       55195000	      5518	80003adc	fe1ff36f	jal	x6,80003adc	  x6=0x80003adc
       55205000	      5519	00000000	00000013	addi	x0,x0,0	  x0:0x00000000
       55215000	      5520	80003ab8	00000013	addi	x0,x0,0	  x0:0x00000000
       55225000	      5521	80003abc	0300056f	jal	x10,80003abc	 x10=0x80003abc
       55235000	      5522	00000000	00000013	addi	x0,x0,0	  x0:0x00000000
       55245000	      5523	80003ae8	00000013	addi	x0,x0,0	  x0:0x00000000
       55255000	      5524	80003aec	fe9ff0ef	jal	x1,80003aec	  x1=0x80003aec
       55265000	      5525	00000000	00000013	addi	x0,x0,0	  x0:0x00000000
       55275000	      5526	80003ad0	00000013	addi	x0,x0,0	  x0:0x00000000
       55285000	      5527	80003ad4	fe5ff0ef	jal	x1,80003ad4	  x1=0x80003ad4
       55295000	      5528	00000000	00000013	addi	x0,x0,0	  x0:0x00000000
       55305000	      5529	80003ab4	00000013	addi	x0,x0,0	  x0:0x00000000
       55315000	      5530	80003ab8	0200036f	jal	x6,80003ab8	  x6=0x80003ab8
       55325000	      5531	00000000	00000013	addi	x0,x0,0	  x0:0x00000000
       55335000	      5532	80003ad4	00000013	addi	x0,x0,0	  x0:0x00000000
       55345000	      5533	80003ad8	fc5ff36f	jal	x6,80003ad8	  x6=0x80003ad8
       55355000	      5534	00000000	00000013	addi	x0,x0,0	  x0:0x00000000
       55365000	      5535	80003a98	00000013	addi	x0,x0,0	  x0:0x00000000
       55375000	      5536	80003a9c	0100036f	jal	x6,80003a9c	  x6=0x80003a9c
       55385000	      5537	00000000	00000013	addi	x0,x0,0	  x0:0x00000000
       55395000	      5538	80003aa8	00000013	addi	x0,x0,0	  x0:0x00000000
       55405000	      5539	80003aac	fe9ff0ef	jal	x1,80003aac	  x1=0x80003aac
       55415000	      5540	00000000	00000013	addi	x0,x0,0	  x0:0x00000000
       55425000	      5541	80003a90	00000013	addi	x0,x0,0	  x0:0x00000000
       55435000	      5542	80003a94	038000ef	jal	x1,80003a94	  x1=0x80003a94
       55445000	      5543	00000000	00000013	addi	x0,x0,0	  x0:0x00000000
       55455000	      5544	80003ac8	00000013	addi	x0,x0,0	  x0:0x00000000
       55465000	      5545	80003acc	0040036f	jal	x6,80003acc	  x6=0x80003acc
       55475000	      5546	00000000	00000013	addi	x0,x0,0	  x0:0x00000000
       55485000	      5547	80003acc	00000013	addi	x0,x0,0	  x0:0x00000000
       55495000	      5548	80003ad0	fc9ff1ef	jal	x3,80003ad0	  x3=0x80003ad0
       55505000	      5549	00000000	00000013	addi	x0,x0,0	  x0:0x00000000
       55515000	      5550	80003a94	00000013	addi	x0,x0,0	  x0:0x00000000
       55525000	      5551	80003a98	02c00d6f	jal	x26,80003a98	 x26=0x80003a98
       55535000	      5552	00000000	00000013	addi	x0,x0,0	  x0:0x00000000
       55545000	      5553	80003ac0	00000013	addi	x0,x0,0	  x0:0x00000000
       55555000	      5554	80003ac4	030009ef	jal	x19,80003ac4	 x19=0x80003ac4
       55565000	      5555	00000000	00000013	addi	x0,x0,0	  x0:0x00000000
       55575000	      5556	80003af0	00000013	addi	x0,x0,0	  x0:0x00000000
       55585000	      5557	80003af4	f9dff0ef	jal	x1,80003af4	  x1=0x80003af4
       55595000	      5558	00000000	00000013	addi	x0,x0,0	  x0:0x00000000
       55605000	      5559	80003a8c	00000013	addi	x0,x0,0	  x0:0x00000000
       55615000	      5560	80003a90	02400f6f	jal	x30,80003a90	 x30=0x80003a90
       55625000	      5561	00000000	00000013	addi	x0,x0,0	  x0:0x00000000
       55635000	      5562	80003ab0	00000013	addi	x0,x0,0	  x0:0x00000000
       55645000	      5563	80003ab4	ff5ff0ef	jal	x1,80003ab4	  x1=0x80003ab4
       55655000	      5564	00000000	00000013	addi	x0,x0,0	  x0:0x00000000
       55665000	      5565	80003aa4	00000013	addi	x0,x0,0	  x0:0x00000000
       55675000	      5566	80003aa8	048000ef	jal	x1,80003aa8	  x1=0x80003aa8
       55685000	      5567	00000000	00000013	addi	x0,x0,0	  x0:0x00000000
       55695000	      5568	80003aec	00000013	addi	x0,x0,0	  x0:0x00000000
       55705000	      5569	80003af0	fc1ff0ef	jal	x1,80003af0	  x1=0x80003af0
       55715000	      5570	00000000	00000013	addi	x0,x0,0	  x0:0x00000000
       55725000	      5571	80003aac	00000013	addi	x0,x0,0	  x0:0x00000000
       55735000	      5572	80003ab0	04c000ef	jal	x1,80003ab0	  x1=0x80003ab0
       55745000	      5573	00000000	00000013	addi	x0,x0,0	  x0:0x00000000
       55755000	      5574	80003af8	00000013	addi	x0,x0,0	  x0:0x00000000
       55765000	      5575	80003afc	000d4a33	xor	x20,x26,x0	 x26:0x80003a98  x0:0x00000000 x20=0x80003a98
       55775000	      5576	80003b00	01c007ef	jal	x15,80003b00	 x15=0x80003b00
       55785000	      5577	00000000	00000013	addi	x0,x0,0	  x0:0x00000000
       55795000	      5578	80003b18	00000013	addi	x0,x0,0	  x0:0x00000000
       55805000	      5579	80003b1c	0240036f	jal	x6,80003b1c	  x6=0x80003b1c
       55815000	      5580	00000000	00000013	addi	x0,x0,0	  x0:0x00000000
       55825000	      5581	80003b3c	00000013	addi	x0,x0,0	  x0:0x00000000
       55835000	      5582	80003b40	fc9ff0ef	jal	x1,80003b40	  x1=0x80003b40
       55845000	      5583	00000000	00000013	addi	x0,x0,0	  x0:0x00000000
       55855000	      5584	80003b04	00000013	addi	x0,x0,0	  x0:0x00000000
       55865000	      5585	80003b08	00c000ef	jal	x1,80003b08	  x1=0x80003b08
       55875000	      5586	00000000	00000013	addi	x0,x0,0	  x0:0x00000000
       55885000	      5587	80003b10	00000013	addi	x0,x0,0	  x0:0x00000000
       55895000	      5588	80003b14	00c000ef	jal	x1,80003b14	  x1=0x80003b14
       55905000	      5589	00000000	00000013	addi	x0,x0,0	  x0:0x00000000
       55915000	      5590	80003b1c	00000013	addi	x0,x0,0	  x0:0x00000000
       55925000	      5591	80003b20	008000ef	jal	x1,80003b20	  x1=0x80003b20
       55935000	      5592	00000000	00000013	addi	x0,x0,0	  x0:0x00000000
       55945000	      5593	80003b24	00000013	addi	x0,x0,0	  x0:0x00000000
       55955000	      5594	80003b28	fddff0ef	jal	x1,80003b28	  x1=0x80003b28
       55965000	      5595	00000000	00000013	addi	x0,x0,0	  x0:0x00000000
       55975000	      5596	80003b00	00000013	addi	x0,x0,0	  x0:0x00000000
       55985000	      5597	80003b04	00c000ef	jal	x1,80003b04	  x1=0x80003b04
       55995000	      5598	00000000	00000013	addi	x0,x0,0	  x0:0x00000000
       56005000	      5599	80003b0c	00000013	addi	x0,x0,0	  x0:0x00000000
       56015000	      5600	80003b10	014000ef	jal	x1,80003b10	  x1=0x80003b10
       56025000	      5601	00000000	00000013	addi	x0,x0,0	  x0:0x00000000
       56035000	      5602	80003b20	00000013	addi	x0,x0,0	  x0:0x00000000
       56045000	      5603	80003b24	0140036f	jal	x6,80003b24	  x6=0x80003b24
       56055000	      5604	00000000	00000013	addi	x0,x0,0	  x0:0x00000000
       56065000	      5605	80003b34	00000013	addi	x0,x0,0	  x0:0x00000000
       56075000	      5606	80003b38	010002ef	jal	x5,80003b38	  x5=0x80003b38
       56085000	      5607	00000000	00000013	addi	x0,x0,0	  x0:0x00000000
       56095000	      5608	80003b44	00000013	addi	x0,x0,0	  x0:0x00000000
       56105000	      5609	80003b48	fedffd6f	jal	x26,80003b48	 x26=0x80003b48
       56115000	      5610	00000000	00000013	addi	x0,x0,0	  x0:0x00000000
       56125000	      5611	80003b30	00000013	addi	x0,x0,0	  x0:0x00000000
       56135000	      5612	80003b34	008000ef	jal	x1,80003b34	  x1=0x80003b34
       56145000	      5613	00000000	00000013	addi	x0,x0,0	  x0:0x00000000
       56155000	      5614	80003b38	00000013	addi	x0,x0,0	  x0:0x00000000
       56165000	      5615	80003b3c	ff5ff0ef	jal	x1,80003b3c	  x1=0x80003b3c
       56175000	      5616	00000000	00000013	addi	x0,x0,0	  x0:0x00000000
       56185000	      5617	80003b2c	00000013	addi	x0,x0,0	  x0:0x00000000
       56195000	      5618	80003b30	014000ef	jal	x1,80003b30	  x1=0x80003b30
       56205000	      5619	00000000	00000013	addi	x0,x0,0	  x0:0x00000000
       56215000	      5620	80003b40	00000013	addi	x0,x0,0	  x0:0x00000000
       56225000	      5621	80003b44	fc9ff0ef	jal	x1,80003b44	  x1=0x80003b44
       56235000	      5622	00000000	00000013	addi	x0,x0,0	  x0:0x00000000
       56245000	      5623	80003b08	00000013	addi	x0,x0,0	  x0:0x00000000
       56255000	      5624	80003b0c	020003ef	jal	x7,80003b0c	  x7=0x80003b0c
       56265000	      5625	00000000	00000013	addi	x0,x0,0	  x0:0x00000000
       56275000	      5626	80003b28	00000013	addi	x0,x0,0	  x0:0x00000000
       56285000	      5627	80003b2c	fedff0ef	jal	x1,80003b2c	  x1=0x80003b2c
       56295000	      5628	00000000	00000013	addi	x0,x0,0	  x0:0x00000000
       56305000	      5629	80003b14	00000013	addi	x0,x0,0	  x0:0x00000000
       56315000	      5630	80003b18	034000ef	jal	x1,80003b18	  x1=0x80003b18
       56325000	      5631	00000000	00000013	addi	x0,x0,0	  x0:0x00000000
       56335000	      5632	80003b48	00000013	addi	x0,x0,0	  x0:0x00000000
       56345000	      5633	80003b4c	00c49013	slli	x0,x9,0xc	  x9:0x00000632
       56355000	      5634	80003b50	018007ef	jal	x15,80003b50	 x15=0x80003b50
       56365000	      5635	00000000	00000013	addi	x0,x0,0	  x0:0x00000000
       56375000	      5636	80003b64	00000013	addi	x0,x0,0	  x0:0x00000000
       56385000	      5637	80003b68	02400def	jal	x27,80003b68	 x27=0x80003b68
       56395000	      5638	00000000	00000013	addi	x0,x0,0	  x0:0x00000000
       56405000	      5639	80003b88	00000013	addi	x0,x0,0	  x0:0x00000000
       56415000	      5640	80003b8c	fedff7ef	jal	x15,80003b8c	 x15=0x80003b8c
       56425000	      5641	00000000	00000013	addi	x0,x0,0	  x0:0x00000000
       56435000	      5642	80003b74	00000013	addi	x0,x0,0	  x0:0x00000000
       56445000	      5643	80003b78	004000ef	jal	x1,80003b78	  x1=0x80003b78
       56455000	      5644	00000000	00000013	addi	x0,x0,0	  x0:0x00000000
       56465000	      5645	80003b78	00000013	addi	x0,x0,0	  x0:0x00000000
       56475000	      5646	80003b7c	00c000ef	jal	x1,80003b7c	  x1=0x80003b7c
       56485000	      5647	00000000	00000013	addi	x0,x0,0	  x0:0x00000000
       56495000	      5648	80003b84	00000013	addi	x0,x0,0	  x0:0x00000000
       56505000	      5649	80003b88	fddff0ef	jal	x1,80003b88	  x1=0x80003b88
       56515000	      5650	00000000	00000013	addi	x0,x0,0	  x0:0x00000000
       56525000	      5651	80003b60	00000013	addi	x0,x0,0	  x0:0x00000000
       56535000	      5652	80003b64	010000ef	jal	x1,80003b64	  x1=0x80003b64
       56545000	      5653	00000000	00000013	addi	x0,x0,0	  x0:0x00000000
       56555000	      5654	80003b70	00000013	addi	x0,x0,0	  x0:0x00000000
       56565000	      5655	80003b74	fedff0ef	jal	x1,80003b74	  x1=0x80003b74
       56575000	      5656	00000000	00000013	addi	x0,x0,0	  x0:0x00000000
       56585000	      5657	80003b5c	00000013	addi	x0,x0,0	  x0:0x00000000
       56595000	      5658	80003b60	03c000ef	jal	x1,80003b60	  x1=0x80003b60
       56605000	      5659	00000000	00000013	addi	x0,x0,0	  x0:0x00000000
       56615000	      5660	80003b98	00000013	addi	x0,x0,0	  x0:0x00000000
       56625000	      5661	80003b9c	fbdff0ef	jal	x1,80003b9c	  x1=0x80003b9c
       56635000	      5662	00000000	00000013	addi	x0,x0,0	  x0:0x00000000
       56645000	      5663	80003b54	00000013	addi	x0,x0,0	  x0:0x00000000
       56655000	      5664	80003b58	0280016f	jal	x2,80003b58	  x2=0x80003b58
       56665000	      5665	00000000	00000013	addi	x0,x0,0	  x0:0x00000000
       56675000	      5666	80003b7c	00000013	addi	x0,x0,0	  x0:0x00000000
       56685000	      5667	80003b80	01000c6f	jal	x24,80003b80	 x24=0x80003b80
       56695000	      5668	00000000	00000013	addi	x0,x0,0	  x0:0x00000000
       56705000	      5669	80003b8c	00000013	addi	x0,x0,0	  x0:0x00000000
       56715000	      5670	80003b90	ff5ff7ef	jal	x15,80003b90	 x15=0x80003b90
       56725000	      5671	00000000	00000013	addi	x0,x0,0	  x0:0x00000000
       56735000	      5672	80003b80	00000013	addi	x0,x0,0	  x0:0x00000000
       56745000	      5673	80003b84	fd1ff0ef	jal	x1,80003b84	  x1=0x80003b84
       56755000	      5674	00000000	00000013	addi	x0,x0,0	  x0:0x00000000
       56765000	      5675	80003b50	00000013	addi	x0,x0,0	  x0:0x00000000
       56775000	      5676	80003b54	040000ef	jal	x1,80003b54	  x1=0x80003b54
       56785000	      5677	00000000	00000013	addi	x0,x0,0	  x0:0x00000000
       56795000	      5678	80003b90	00000013	addi	x0,x0,0	  x0:0x00000000
       56805000	      5679	80003b94	fddff0ef	jal	x1,80003b94	  x1=0x80003b94
       56815000	      5680	00000000	00000013	addi	x0,x0,0	  x0:0x00000000
       56825000	      5681	80003b6c	00000013	addi	x0,x0,0	  x0:0x00000000
       56835000	      5682	80003b70	ffdff0ef	jal	x1,80003b70	  x1=0x80003b70
       56845000	      5683	00000000	00000013	addi	x0,x0,0	  x0:0x00000000
       56855000	      5684	80003b68	00000013	addi	x0,x0,0	  x0:0x00000000
       56865000	      5685	80003b6c	ff1ff0ef	jal	x1,80003b6c	  x1=0x80003b6c
       56875000	      5686	00000000	00000013	addi	x0,x0,0	  x0:0x00000000
       56885000	      5687	80003b58	00000013	addi	x0,x0,0	  x0:0x00000000
       56895000	      5688	80003b5c	0440036f	jal	x6,80003b5c	  x6=0x80003b5c
       56905000	      5689	00000000	00000013	addi	x0,x0,0	  x0:0x00000000
       56915000	      5690	80003b9c	00000013	addi	x0,x0,0	  x0:0x00000000
       56925000	      5691	80003ba0	ff9ff0ef	jal	x1,80003ba0	  x1=0x80003ba0
       56935000	      5692	00000000	00000013	addi	x0,x0,0	  x0:0x00000000
       56945000	      5693	80003b94	00000013	addi	x0,x0,0	  x0:0x00000000
       56955000	      5694	80003b98	00c000ef	jal	x1,80003b98	  x1=0x80003b98
       56965000	      5695	00000000	00000013	addi	x0,x0,0	  x0:0x00000000
       56975000	      5696	80003ba0	00000013	addi	x0,x0,0	  x0:0x00000000
       56985000	      5697	80003ba4	003e3c33	sltu	x24,x28,x3	 x28:0x00000000  x3:0x80003ad0 x24=0x00000001
       56995000	      5698	80003ba8	050007ef	jal	x15,80003ba8	 x15=0x80003ba8
       57005000	      5699	00000000	00000013	addi	x0,x0,0	  x0:0x00000000
       57015000	      5700	80003bf4	00000013	addi	x0,x0,0	  x0:0x00000000
       57025000	      5701	80003bf8	fc1ff0ef	jal	x1,80003bf8	  x1=0x80003bf8
       57035000	      5702	00000000	00000013	addi	x0,x0,0	  x0:0x00000000
       57045000	      5703	80003bb4	00000013	addi	x0,x0,0	  x0:0x00000000
       57055000	      5704	80003bb8	02c000ef	jal	x1,80003bb8	  x1=0x80003bb8
       57065000	      5705	00000000	00000013	addi	x0,x0,0	  x0:0x00000000
       57075000	      5706	80003be0	00000013	addi	x0,x0,0	  x0:0x00000000
       57085000	      5707	80003be4	010000ef	jal	x1,80003be4	  x1=0x80003be4
       57095000	      5708	00000000	00000013	addi	x0,x0,0	  x0:0x00000000
       57105000	      5709	80003bf0	00000013	addi	x0,x0,0	  x0:0x00000000
       57115000	      5710	80003bf4	fc9ff0ef	jal	x1,80003bf4	  x1=0x80003bf4
       57125000	      5711	00000000	00000013	addi	x0,x0,0	  x0:0x00000000
       57135000	      5712	80003bb8	00000013	addi	x0,x0,0	  x0:0x00000000
       57145000	      5713	80003bbc	0040036f	jal	x6,80003bbc	  x6=0x80003bbc
       57155000	      5714	00000000	00000013	addi	x0,x0,0	  x0:0x00000000
       57165000	      5715	80003bbc	00000013	addi	x0,x0,0	  x0:0x00000000
       57175000	      5716	80003bc0	0040046f	jal	x8,80003bc0	  x8=0x80003bc0
       57185000	      5717	00000000	00000013	addi	x0,x0,0	  x0:0x00000000
       57195000	      5718	80003bc0	00000013	addi	x0,x0,0	  x0:0x00000000
       57205000	      5719	80003bc4	0140036f	jal	x6,80003bc4	  x6=0x80003bc4
       57215000	      5720	00000000	00000013	addi	x0,x0,0	  x0:0x00000000
       57225000	      5721	80003bd4	00000013	addi	x0,x0,0	  x0:0x00000000
       57235000	      5722	80003bd8	fd5ff16f	jal	x2,80003bd8	  x2=0x80003bd8
       57245000	      5723	00000000	00000013	addi	x0,x0,0	  x0:0x00000000
       57255000	      5724	80003ba8	00000013	addi	x0,x0,0	  x0:0x00000000
       57265000	      5725	80003bac	0340046f	jal	x8,80003bac	  x8=0x80003bac
       57275000	      5726	00000000	00000013	addi	x0,x0,0	  x0:0x00000000
       57285000	      5727	80003bdc	00000013	addi	x0,x0,0	  x0:0x00000000
       57295000	      5728	80003be0	fe9ff36f	jal	x6,80003be0	  x6=0x80003be0
       57305000	      5729	00000000	00000013	addi	x0,x0,0	  x0:0x00000000
       57315000	      5730	80003bc4	00000013	addi	x0,x0,0	  x0:0x00000000
       57325000	      5731	80003bc8	fe9ff0ef	jal	x1,80003bc8	  x1=0x80003bc8
       57335000	      5732	00000000	00000013	addi	x0,x0,0	  x0:0x00000000
       57345000	      5733	80003bac	00000013	addi	x0,x0,0	  x0:0x00000000
       57355000	      5734	80003bb0	0380036f	jal	x6,80003bb0	  x6=0x80003bb0
       57365000	      5735	00000000	00000013	addi	x0,x0,0	  x0:0x00000000
       57375000	      5736	80003be4	00000013	addi	x0,x0,0	  x0:0x00000000
       57385000	      5737	80003be8	fcdff36f	jal	x6,80003be8	  x6=0x80003be8
       57395000	      5738	00000000	00000013	addi	x0,x0,0	  x0:0x00000000
       57405000	      5739	80003bb0	00000013	addi	x0,x0,0	  x0:0x00000000
       57415000	      5740	80003bb4	02800bef	jal	x23,80003bb4	 x23=0x80003bb4
       57425000	      5741	00000000	00000013	addi	x0,x0,0	  x0:0x00000000
       57435000	      5742	80003bd8	00000013	addi	x0,x0,0	  x0:0x00000000
       57445000	      5743	80003bdc	ff9ff0ef	jal	x1,80003bdc	  x1=0x80003bdc
       57455000	      5744	00000000	00000013	addi	x0,x0,0	  x0:0x00000000
       57465000	      5745	80003bd0	00000013	addi	x0,x0,0	  x0:0x00000000
       57475000	      5746	80003bd4	ff9ff0ef	jal	x1,80003bd4	  x1=0x80003bd4
       57485000	      5747	00000000	00000013	addi	x0,x0,0	  x0:0x00000000
       57495000	      5748	80003bc8	00000013	addi	x0,x0,0	  x0:0x00000000
       57505000	      5749	80003bcc	02000e6f	jal	x28,80003bcc	 x28=0x80003bcc
       57515000	      5750	00000000	00000013	addi	x0,x0,0	  x0:0x00000000
       57525000	      5751	80003be8	00000013	addi	x0,x0,0	  x0:0x00000000
       57535000	      5752	80003bec	fe5ff36f	jal	x6,80003bec	  x6=0x80003bec
       57545000	      5753	00000000	00000013	addi	x0,x0,0	  x0:0x00000000
       57555000	      5754	80003bcc	00000013	addi	x0,x0,0	  x0:0x00000000
       57565000	      5755	80003bd0	020000ef	jal	x1,80003bd0	  x1=0x80003bd0
       57575000	      5756	00000000	00000013	addi	x0,x0,0	  x0:0x00000000
       57585000	      5757	80003bec	00000013	addi	x0,x0,0	  x0:0x00000000
       57595000	      5758	80003bf0	00c000ef	jal	x1,80003bf0	  x1=0x80003bf0
       57605000	      5759	00000000	00000013	addi	x0,x0,0	  x0:0x00000000
       57615000	      5760	80003bf8	00000013	addi	x0,x0,0	  x0:0x00000000
       57625000	      5761	80003bfc	41608d33	sub	x26,x1,x22	  x1:0x80003bf0 x22:0xffffffec x26=0x80003c04
       57635000	      5762	80003c00	03c007ef	jal	x15,80003c00	 x15=0x80003c00
       57645000	      5763	00000000	00000013	addi	x0,x0,0	  x0:0x00000000
       57655000	      5764	80003c38	00000013	addi	x0,x0,0	  x0:0x00000000
       57665000	      5765	80003c3c	fe9ff0ef	jal	x1,80003c3c	  x1=0x80003c3c
       57675000	      5766	00000000	00000013	addi	x0,x0,0	  x0:0x00000000
       57685000	      5767	80003c20	00000013	addi	x0,x0,0	  x0:0x00000000
       57695000	      5768	80003c24	ffdffc6f	jal	x24,80003c24	 x24=0x80003c24
       57705000	      5769	00000000	00000013	addi	x0,x0,0	  x0:0x00000000
       57715000	      5770	80003c1c	00000013	addi	x0,x0,0	  x0:0x00000000
       57725000	      5771	80003c20	00c000ef	jal	x1,80003c20	  x1=0x80003c20
       57735000	      5772	00000000	00000013	addi	x0,x0,0	  x0:0x00000000
       57745000	      5773	80003c28	00000013	addi	x0,x0,0	  x0:0x00000000
       57755000	      5774	80003c2c	00c0036f	jal	x6,80003c2c	  x6=0x80003c2c
       57765000	      5775	00000000	00000013	addi	x0,x0,0	  x0:0x00000000
       57775000	      5776	80003c34	00000013	addi	x0,x0,0	  x0:0x00000000
       57785000	      5777	80003c38	fd5ff36f	jal	x6,80003c38	  x6=0x80003c38
       57795000	      5778	00000000	00000013	addi	x0,x0,0	  x0:0x00000000
       57805000	      5779	80003c08	00000013	addi	x0,x0,0	  x0:0x00000000
       57815000	      5780	80003c0c	010000ef	jal	x1,80003c0c	  x1=0x80003c0c
       57825000	      5781	00000000	00000013	addi	x0,x0,0	  x0:0x00000000
       57835000	      5782	80003c18	00000013	addi	x0,x0,0	  x0:0x00000000
       57845000	      5783	80003c1c	fedff2ef	jal	x5,80003c1c	  x5=0x80003c1c
       57855000	      5784	00000000	00000013	addi	x0,x0,0	  x0:0x00000000
       57865000	      5785	80003c04	00000013	addi	x0,x0,0	  x0:0x00000000
       57875000	      5786	80003c08	0080036f	jal	x6,80003c08	  x6=0x80003c08
       57885000	      5787	00000000	00000013	addi	x0,x0,0	  x0:0x00000000
       57895000	      5788	80003c0c	00000013	addi	x0,x0,0	  x0:0x00000000
       57905000	      5789	80003c10	004000ef	jal	x1,80003c10	  x1=0x80003c10
       57915000	      5790	00000000	00000013	addi	x0,x0,0	  x0:0x00000000
       57925000	      5791	80003c10	00000013	addi	x0,x0,0	  x0:0x00000000
       57935000	      5792	80003c14	004000ef	jal	x1,80003c14	  x1=0x80003c14
       57945000	      5793	00000000	00000013	addi	x0,x0,0	  x0:0x00000000
       57955000	      5794	80003c14	00000013	addi	x0,x0,0	  x0:0x00000000
       57965000	      5795	80003c18	010000ef	jal	x1,80003c18	  x1=0x80003c18
       57975000	      5796	00000000	00000013	addi	x0,x0,0	  x0:0x00000000
       57985000	      5797	80003c24	00000013	addi	x0,x0,0	  x0:0x00000000
       57995000	      5798	80003c28	00c001ef	jal	x3,80003c28	  x3=0x80003c28
       58005000	      5799	00000000	00000013	addi	x0,x0,0	  x0:0x00000000
       58015000	      5800	80003c30	00000013	addi	x0,x0,0	  x0:0x00000000
       58025000	      5801	80003c34	ffdff36f	jal	x6,80003c34	  x6=0x80003c34
       58035000	      5802	00000000	00000013	addi	x0,x0,0	  x0:0x00000000
       58045000	      5803	80003c2c	00000013	addi	x0,x0,0	  x0:0x00000000
       58055000	      5804	80003c30	fd5ff9ef	jal	x19,80003c30	 x19=0x80003c30
       58065000	      5805	00000000	00000013	addi	x0,x0,0	  x0:0x00000000
       58075000	      5806	80003c00	00000013	addi	x0,x0,0	  x0:0x00000000
       58085000	      5807	80003c04	03c0036f	jal	x6,80003c04	  x6=0x80003c04
       58095000	      5808	00000000	00000013	addi	x0,x0,0	  x0:0x00000000
       58105000	      5809	80003c3c	00000013	addi	x0,x0,0	  x0:0x00000000
       58115000	      5810	80003c40	00ab4c33	xor	x24,x22,x10	 x22:0xffffffec x10:0x80003abc x24=0x7fffc550
       58125000	      5811	80003c44	02c007ef	jal	x15,80003c44	 x15=0x80003c44
       58135000	      5812	00000000	00000013	addi	x0,x0,0	  x0:0x00000000
       58145000	      5813	80003c6c	00000013	addi	x0,x0,0	  x0:0x00000000
       58155000	      5814	80003c70	fe1ff2ef	jal	x5,80003c70	  x5=0x80003c70
       58165000	      5815	00000000	00000013	addi	x0,x0,0	  x0:0x00000000
       58175000	      5816	80003c4c	00000013	addi	x0,x0,0	  x0:0x00000000
       58185000	      5817	80003c50	028000ef	jal	x1,80003c50	  x1=0x80003c50
       58195000	      5818	00000000	00000013	addi	x0,x0,0	  x0:0x00000000
       58205000	      5819	80003c74	00000013	addi	x0,x0,0	  x0:0x00000000
       58215000	      5820	80003c78	fddff0ef	jal	x1,80003c78	  x1=0x80003c78
       58225000	      5821	00000000	00000013	addi	x0,x0,0	  x0:0x00000000
       58235000	      5822	80003c50	00000013	addi	x0,x0,0	  x0:0x00000000
       58245000	      5823	80003c54	00c0016f	jal	x2,80003c54	  x2=0x80003c54
       58255000	      5824	00000000	00000013	addi	x0,x0,0	  x0:0x00000000
       58265000	      5825	80003c5c	00000013	addi	x0,x0,0	  x0:0x00000000
       58275000	      5826	80003c60	020000ef	jal	x1,80003c60	  x1=0x80003c60
       58285000	      5827	00000000	00000013	addi	x0,x0,0	  x0:0x00000000
       58295000	      5828	80003c7c	00000013	addi	x0,x0,0	  x0:0x00000000
       58305000	      5829	80003c80	ff5ff0ef	jal	x1,80003c80	  x1=0x80003c80
       58315000	      5830	00000000	00000013	addi	x0,x0,0	  x0:0x00000000
       58325000	      5831	80003c70	00000013	addi	x0,x0,0	  x0:0x00000000
       58335000	      5832	80003c74	008009ef	jal	x19,80003c74	 x19=0x80003c74
       58345000	      5833	00000000	00000013	addi	x0,x0,0	  x0:0x00000000
       58355000	      5834	80003c78	00000013	addi	x0,x0,0	  x0:0x00000000
       58365000	      5835	80003c7c	fe9ff1ef	jal	x3,80003c7c	  x3=0x80003c7c
       58375000	      5836	00000000	00000013	addi	x0,x0,0	  x0:0x00000000
       58385000	      5837	80003c60	00000013	addi	x0,x0,0	  x0:0x00000000
       58395000	      5838	80003c64	004004ef	jal	x9,80003c64	  x9=0x80003c64
       58405000	      5839	00000000	00000013	addi	x0,x0,0	  x0:0x00000000
       58415000	      5840	80003c64	00000013	addi	x0,x0,0	  x0:0x00000000
       58425000	      5841	80003c68	fe5ff0ef	jal	x1,80003c68	  x1=0x80003c68
       58435000	      5842	00000000	00000013	addi	x0,x0,0	  x0:0x00000000
       58445000	      5843	80003c48	00000013	addi	x0,x0,0	  x0:0x00000000
       58455000	      5844	80003c4c	010000ef	jal	x1,80003c4c	  x1=0x80003c4c
       58465000	      5845	00000000	00000013	addi	x0,x0,0	  x0:0x00000000
       58475000	      5846	80003c58	00000013	addi	x0,x0,0	  x0:0x00000000
       58485000	      5847	80003c5c	010002ef	jal	x5,80003c5c	  x5=0x80003c5c
       58495000	      5848	00000000	00000013	addi	x0,x0,0	  x0:0x00000000
       58505000	      5849	80003c68	00000013	addi	x0,x0,0	  x0:0x00000000
       58515000	      5850	80003c6c	018000ef	jal	x1,80003c6c	  x1=0x80003c6c
       58525000	      5851	00000000	00000013	addi	x0,x0,0	  x0:0x00000000
       58535000	      5852	80003c80	00000013	addi	x0,x0,0	  x0:0x00000000
       58545000	      5853	80003c84	fd5ff0ef	jal	x1,80003c84	  x1=0x80003c84
       58555000	      5854	00000000	00000013	addi	x0,x0,0	  x0:0x00000000
       58565000	      5855	80003c54	00000013	addi	x0,x0,0	  x0:0x00000000
       58575000	      5856	80003c58	ff1ff0ef	jal	x1,80003c58	  x1=0x80003c58
       58585000	      5857	00000000	00000013	addi	x0,x0,0	  x0:0x00000000
       58595000	      5858	80003c44	00000013	addi	x0,x0,0	  x0:0x00000000
       58605000	      5859	80003c48	040000ef	jal	x1,80003c48	  x1=0x80003c48
       58615000	      5860	00000000	00000013	addi	x0,x0,0	  x0:0x00000000
       58625000	      5861	80003c84	00000013	addi	x0,x0,0	  x0:0x00000000
       58635000	      5862	80003c88	15068c93	addi	x25,x13,336	 x13:0x00000000 x25=0x00000150
       58645000	      5863	80003c8c	014007ef	jal	x15,80003c8c	 x15=0x80003c8c
       58655000	      5864	00000000	00000013	addi	x0,x0,0	  x0:0x00000000
       58665000	      5865	80003c9c	00000013	addi	x0,x0,0	  x0:0x00000000
       58675000	      5866	80003ca0	ff1ff7ef	jal	x15,80003ca0	 x15=0x80003ca0
       58685000	      5867	00000000	00000013	addi	x0,x0,0	  x0:0x00000000
       58695000	      5868	80003c8c	00000013	addi	x0,x0,0	  x0:0x00000000
       58705000	      5869	80003c90	024000ef	jal	x1,80003c90	  x1=0x80003c90
       58715000	      5870	00000000	00000013	addi	x0,x0,0	  x0:0x00000000
       58725000	      5871	80003cb0	00000013	addi	x0,x0,0	  x0:0x00000000
       58735000	      5872	80003cb4	fe9ffe6f	jal	x28,80003cb4	 x28=0x80003cb4
       58745000	      5873	00000000	00000013	addi	x0,x0,0	  x0:0x00000000
       58755000	      5874	80003c98	00000013	addi	x0,x0,0	  x0:0x00000000
       58765000	      5875	80003c9c	ff9ffa6f	jal	x20,80003c9c	 x20=0x80003c9c
       58775000	      5876	00000000	00000013	addi	x0,x0,0	  x0:0x00000000
       58785000	      5877	80003c90	00000013	addi	x0,x0,0	  x0:0x00000000
       58795000	      5878	80003c94	0140036f	jal	x6,80003c94	  x6=0x80003c94
       58805000	      5879	00000000	00000013	addi	x0,x0,0	  x0:0x00000000
       58815000	      5880	80003ca4	00000013	addi	x0,x0,0	  x0:0x00000000
       58825000	      5881	80003ca8	ffdff0ef	jal	x1,80003ca8	  x1=0x80003ca8
       58835000	      5882	00000000	00000013	addi	x0,x0,0	  x0:0x00000000
       58845000	      5883	80003ca0	00000013	addi	x0,x0,0	  x0:0x00000000
       58855000	      5884	80003ca4	0080036f	jal	x6,80003ca4	  x6=0x80003ca4
       58865000	      5885	00000000	00000013	addi	x0,x0,0	  x0:0x00000000
       58875000	      5886	80003ca8	00000013	addi	x0,x0,0	  x0:0x00000000
       58885000	      5887	80003cac	fedff0ef	jal	x1,80003cac	  x1=0x80003cac
       58895000	      5888	00000000	00000013	addi	x0,x0,0	  x0:0x00000000
       58905000	      5889	80003c94	00000013	addi	x0,x0,0	  x0:0x00000000
       58915000	      5890	80003c98	018005ef	jal	x11,80003c98	 x11=0x80003c98
       58925000	      5891	00000000	00000013	addi	x0,x0,0	  x0:0x00000000
       58935000	      5892	80003cac	00000013	addi	x0,x0,0	  x0:0x00000000
       58945000	      5893	80003cb0	008000ef	jal	x1,80003cb0	  x1=0x80003cb0
       58955000	      5894	00000000	00000013	addi	x0,x0,0	  x0:0x00000000
       58965000	      5895	80003cb4	00000013	addi	x0,x0,0	  x0:0x00000000
       58975000	      5896	80003cb8	00000013	addi	x0,x0,0	  x0:0x00000000
       58985000	      5897	80003cbc	054007ef	jal	x15,80003cbc	 x15=0x80003cbc
       58995000	      5898	00000000	00000013	addi	x0,x0,0	  x0:0x00000000
       59005000	      5899	80003d0c	00000013	addi	x0,x0,0	  x0:0x00000000
       59015000	      5900	80003d10	fc9ff0ef	jal	x1,80003d10	  x1=0x80003d10
       59025000	      5901	00000000	00000013	addi	x0,x0,0	  x0:0x00000000
       59035000	      5902	80003cd4	00000013	addi	x0,x0,0	  x0:0x00000000
       59045000	      5903	80003cd8	01c0036f	jal	x6,80003cd8	  x6=0x80003cd8
       59055000	      5904	00000000	00000013	addi	x0,x0,0	  x0:0x00000000
       59065000	      5905	80003cf0	00000013	addi	x0,x0,0	  x0:0x00000000
       59075000	      5906	80003cf4	0180036f	jal	x6,80003cf4	  x6=0x80003cf4
       59085000	      5907	00000000	00000013	addi	x0,x0,0	  x0:0x00000000
       59095000	      5908	80003d08	00000013	addi	x0,x0,0	  x0:0x00000000
       59105000	      5909	80003d0c	ff5ff16f	jal	x2,80003d0c	  x2=0x80003d0c
       59115000	      5910	00000000	00000013	addi	x0,x0,0	  x0:0x00000000
       59125000	      5911	80003cfc	00000013	addi	x0,x0,0	  x0:0x00000000
       59135000	      5912	80003d00	ff9ff0ef	jal	x1,80003d00	  x1=0x80003d00
       59145000	      5913	00000000	00000013	addi	x0,x0,0	  x0:0x00000000
       59155000	      5914	80003cf4	00000013	addi	x0,x0,0	  x0:0x00000000
       59165000	      5915	80003cf8	fd1ff0ef	jal	x1,80003cf8	  x1=0x80003cf8
       59175000	      5916	00000000	00000013	addi	x0,x0,0	  x0:0x00000000
       59185000	      5917	80003cc4	00000013	addi	x0,x0,0	  x0:0x00000000
       59195000	      5918	80003cc8	004009ef	jal	x19,80003cc8	 x19=0x80003cc8
       59205000	      5919	00000000	00000013	addi	x0,x0,0	  x0:0x00000000
       59215000	      5920	80003cc8	00000013	addi	x0,x0,0	  x0:0x00000000
       59225000	      5921	80003ccc	018001ef	jal	x3,80003ccc	  x3=0x80003ccc
       59235000	      5922	00000000	00000013	addi	x0,x0,0	  x0:0x00000000
       59245000	      5923	80003ce0	00000013	addi	x0,x0,0	  x0:0x00000000
       59255000	      5924	80003ce4	00c000ef	jal	x1,80003ce4	  x1=0x80003ce4
       59265000	      5925	00000000	00000013	addi	x0,x0,0	  x0:0x00000000
       59275000	      5926	80003cec	00000013	addi	x0,x0,0	  x0:0x00000000
       59285000	      5927	80003cf0	fd5ff36f	jal	x6,80003cf0	  x6=0x80003cf0
       59295000	      5928	00000000	00000013	addi	x0,x0,0	  x0:0x00000000
       59305000	      5929	80003cc0	00000013	addi	x0,x0,0	  x0:0x00000000
       59315000	      5930	80003cc4	044000ef	jal	x1,80003cc4	  x1=0x80003cc4
       59325000	      5931	00000000	00000013	addi	x0,x0,0	  x0:0x00000000
       59335000	      5932	80003d04	00000013	addi	x0,x0,0	  x0:0x00000000
       59345000	      5933	80003d08	fe5ff0ef	jal	x1,80003d08	  x1=0x80003d08
       59355000	      5934	00000000	00000013	addi	x0,x0,0	  x0:0x00000000
       59365000	      5935	80003ce8	00000013	addi	x0,x0,0	  x0:0x00000000
       59375000	      5936	80003cec	ff1ff0ef	jal	x1,80003cec	  x1=0x80003cec
       59385000	      5937	00000000	00000013	addi	x0,x0,0	  x0:0x00000000
       59395000	      5938	80003cd8	00000013	addi	x0,x0,0	  x0:0x00000000
       59405000	      5939	80003cdc	028000ef	jal	x1,80003cdc	  x1=0x80003cdc
       59415000	      5940	00000000	00000013	addi	x0,x0,0	  x0:0x00000000
       59425000	      5941	80003d00	00000013	addi	x0,x0,0	  x0:0x00000000
       59435000	      5942	80003d04	fe5ff36f	jal	x6,80003d04	  x6=0x80003d04
       59445000	      5943	00000000	00000013	addi	x0,x0,0	  x0:0x00000000
       59455000	      5944	80003ce4	00000013	addi	x0,x0,0	  x0:0x00000000
       59465000	      5945	80003ce8	014009ef	jal	x19,80003ce8	 x19=0x80003ce8
       59475000	      5946	00000000	00000013	addi	x0,x0,0	  x0:0x00000000
       59485000	      5947	80003cf8	00000013	addi	x0,x0,0	  x0:0x00000000
       59495000	      5948	80003cfc	fe5ff36f	jal	x6,80003cfc	  x6=0x80003cfc
       59505000	      5949	00000000	00000013	addi	x0,x0,0	  x0:0x00000000
       59515000	      5950	80003cdc	00000013	addi	x0,x0,0	  x0:0x00000000
       59525000	      5951	80003ce0	ff5ff0ef	jal	x1,80003ce0	  x1=0x80003ce0
       59535000	      5952	00000000	00000013	addi	x0,x0,0	  x0:0x00000000
       59545000	      5953	80003cd0	00000013	addi	x0,x0,0	  x0:0x00000000
       59555000	      5954	80003cd4	fedff0ef	jal	x1,80003cd4	  x1=0x80003cd4
       59565000	      5955	00000000	00000013	addi	x0,x0,0	  x0:0x00000000
       59575000	      5956	80003cbc	00000013	addi	x0,x0,0	  x0:0x00000000
       59585000	      5957	80003cc0	010000ef	jal	x1,80003cc0	  x1=0x80003cc0
       59595000	      5958	00000000	00000013	addi	x0,x0,0	  x0:0x00000000
       59605000	      5959	80003ccc	00000013	addi	x0,x0,0	  x0:0x00000000
       59615000	      5960	80003cd0	0440086f	jal	x16,80003cd0	 x16=0x80003cd0
       59625000	      5961	00000000	00000013	addi	x0,x0,0	  x0:0x00000000
       59635000	      5962	80003d10	00000013	addi	x0,x0,0	  x0:0x00000000
       59645000	      5963	80003d14	001a2493	slti	x9,x20,1	 x20:0x80003c9c  x9=0x00000001
       59655000	      5964	80003d18	14e6a293	slti	x5,x13,334	 x13:0x00000000  x5=0x00000001
       59665000	      5965	80003d1c	0b078313	addi	x6,x15,176	 x15:0x80003cbc  x6=0x80003d6c
       59675000	      5966	80003d20	96c40397	auipc	x7,0x96c40	  x7=0x16c43d1c
       59685000	      5967	80003d24	01525c13	srli	x24,x4,0x15	  x4:0xe9ba91f5 x24=0x0000074d
       59695000	      5968	80003d28	00a223b3	slt	x7,x4,x10	  x4:0xe9ba91f5 x10:0x80003abc  x7=0x00000000
       59705000	      5969	80003d2c	00a1b6b3	sltu	x13,x3,x10	  x3:0x80003ccc x10:0x80003abc x13=0x00000000
       59715000	      5970	80003d30	00e61663	bne	x12,x14,80003d3c	 x12:0x00000000 x14:0x80003a00
       59725000	      5971	00000000	00000013	addi	x0,x0,0	  x0:0x00000000
       59735000	      5972	80003d38	00000013	addi	x0,x0,0	  x0:0x00000000
       59745000	      5973	80003d3c	5a1aef13	ori	x30,x21,1441	 x21:0x80009ffc x30=0x80009ffd
       59755000	      5974	80003d40	01207533	and	x10,x0,x18	  x0:0x00000000 x18:0x5dbefa14 x10=0x00000000
       59765000	      5975	80003d44	02a09e63	bne	x1,x10,80003d80	  x1:0x80003cc0 x10:0x00000000
       59775000	      5976	00000000	00000013	addi	x0,x0,0	  x0:0x00000000
       59785000	      5977	80003d7c	00000013	addi	x0,x0,0	  x0:0x00000000
       59795000	      5978	80003d80	0085d393	srli	x7,x11,0x8	 x11:0x80003c98  x7=0x0080003c
       59805000	      5979	80003d84	405dd113	srai	x2,x27,0x5	 x27:0x80003b68  x2=0xfc0001db
       59815000	      5980	80003d88	016b5333	srl	x6,x22,x22	 x22:0xffffffec x22:0xffffffec  x6=0x000fffff
       59825000	      5981	80003d8c	01e6f333	and	x6,x13,x30	 x13:0x00000000 x30:0x80009ffd  x6=0x00000000
       59835000	      5982	80003d90	409a09b3	sub	x19,x20,x9	 x20:0x80003c9c  x9:0x00000001 x19=0x80003c9b
       59845000	      5983	80003d94	032ac063	blt	x21,x18,80003db4	 x21:0x80009ffc x18:0x5dbefa14
       59855000	      5984	00000000	00000013	addi	x0,x0,0	  x0:0x00000000
       59865000	      5985	80003db0	00000013	addi	x0,x0,0	  x0:0x00000000
       59875000	      5986	80003db4	2e6abf13	sltiu	x30,x21,742	 x21:0x80009ffc x30=0x00000000
       59885000	      5987	80003db8	002aabb3	slt	x23,x21,x2	 x21:0x80009ffc  x2:0xfc0001db x23=0x00000001
       59895000	      5988	80003dbc	40c15713	srai	x14,x2,0xc	  x2:0xfc0001db x14=0xffffc000
       59905000	      5989	80003dc0	01f75db3	srl	x27,x14,x31	 x14:0xffffc000 x31:0x80009f50 x27=0x0000ffff
       59915000	      5990	80003dc4	46abf393	andi	x7,x23,1130	 x23:0x00000001  x7=0x00000000
       59925000	      5991	80003dc8	40218033	sub	x0,x3,x2	  x3:0x80003ccc  x2:0xfc0001db
       59935000	      5992	80003dcc	01aad413	srli	x8,x21,0x1a	 x21:0x80009ffc  x8=0x00000020
       59945000	      5993	80003dd0	885eab13	slti	x22,x29,-1915	 x29:0x80000f34 x22=0x00000001
       59955000	      5994	80003dd4	008a8263	beq	x21,x8,80003dd8	 x21:0x80009ffc  x8:0x00000020
       59965000	      5995	80003dd8	059af863	bgeu	x21,x25,80003e28	 x21:0x80009ffc x25:0x00000150
       59975000	      5996	00000000	00000013	addi	x0,x0,0	  x0:0x00000000
       59985000	      5997	80003e24	00000013	addi	x0,x0,0	  x0:0x00000000
       59995000	      5998	80003e28	0088e4b3	or	x9,x17,x8	 x17:0x80009fc4  x8:0x00000020  x9=0x80009fe4
       60005000	      5999	80003e2c	01ac2133	slt	x2,x24,x26	 x24:0x0000074d x26:0x80003c04  x2=0x00000000
       60015000	      6000	80003e30	0139e333	or	x6,x19,x19	 x19:0x80003c9b x19:0x80003c9b  x6=0x80003c9b
       60025000	      6001	80003e34	32037793	andi	x15,x6,800	  x6:0x80003c9b x15=0x00000000
       60035000	      6002	80003e38	05ccc263	blt	x25,x28,80003e7c	 x25:0x00000150 x28:0x80003cb4
       60045000	      6003	80003e3c	4170d4b3	sra	x9,x1,x23	  x1:0x80003cc0 x23:0x00000001  x9=0xc0001e60
       60055000	      6004	80003e40	8d9aa193	slti	x3,x21,-1831	 x21:0x80009ffc  x3=0x00000001
       60065000	      6005	80003e44	41c5d7b7	lui	x15,0x41c5d	 x15=0x41c5d000
       60075000	      6006	80003e48	01235e93	srli	x29,x6,0x12	  x6:0x80003c9b x29=0x00002000
       60085000	      6007	80003e4c	40d00e33	sub	x28,x0,x13	  x0:0x00000000 x13:0x00000000 x28=0x00000000
       60095000	      6008	80003e50	403f07b3	sub	x15,x30,x3	 x30:0x00000000  x3:0x00000001 x15=0xffffffff
       60105000	      6009	80003e54	93c5a593	slti	x11,x11,-1732	 x11:0x80003c98 x11=0x00000001
       60115000	      6010	80003e58	e71312b7	lui	x5,0xe7131	  x5=0xe7131000
       60125000	      6011	80003e5c	b0a86813	ori	x16,x16,-1270	 x16:0x80003cd0 x16=0xffffffda
       60135000	      6012	80003e60	018001b3	add	x3,x0,x24	  x0:0x00000000 x24:0x0000074d  x3=0x0000074d
       60145000	      6013	80003e64	00c079b3	and	x19,x0,x12	  x0:0x00000000 x12:0x00000000 x19=0x00000000
       60155000	      6014	80003e68	00cf5e13	srli	x28,x30,0xc	 x30:0x00000000 x28=0x00000000
       60165000	      6015	80003e6c	05639263	bne	x7,x22,80003eb0	  x7:0x00000000 x22:0x00000001
       60175000	      6016	00000000	00000013	addi	x0,x0,0	  x0:0x00000000
       60185000	      6017	80003eac	00000013	addi	x0,x0,0	  x0:0x00000000
       60195000	      6018	80003eb0	01b49a33	sll	x20,x9,x27	  x9:0xc0001e60 x27:0x0000ffff x20=0x00000000
       60205000	      6019	80003eb4	00cbe6b3	or	x13,x23,x12	 x23:0x00000001 x12:0x00000000 x13=0x00000001
       60215000	      6020	80003eb8	40280633	sub	x12,x16,x2	 x16:0xffffffda  x2:0x00000000 x12=0xffffffda
       60225000	      6021	80003ebc	00000013	addi	x0,x0,0	  x0:0x00000000
       60235000	      6022	80003ec0	01669c33	sll	x24,x13,x22	 x13:0x00000001 x22:0x00000001 x24=0x00000002
       60245000	      6023	80003ec4	05d17263	bgeu	x2,x29,80003f08	  x2:0x00000000 x29:0x00002000
       60255000	      6024	80003ec8	03615a63	bge	x2,x22,80003efc	  x2:0x00000000 x22:0x00000001
       60265000	      6025	80003ecc	4d014613	xori	x12,x2,1232	  x2:0x00000000 x12=0x000004d0
       60275000	      6026	80003ed0	01fa1093	slli	x1,x20,0x1f	 x20:0x00000000  x1=0x00000000
       60285000	      6027	80003ed4	6ea37b13	andi	x22,x6,1770	  x6:0x80003c9b x22=0x0000048a
       60295000	      6028	80003ed8	403a5b13	srai	x22,x20,0x3	 x20:0x00000000 x22=0x00000000
       60305000	      6029	80003edc	ab43e713	ori	x14,x7,-1356	  x7:0x00000000 x14=0xfffffab4
       60315000	      6030	80003ee0	40a4d413	srai	x8,x9,0xa	  x9:0xc0001e60  x8=0xfff00007
       60325000	      6031	80003ee4	00ff9193	slli	x3,x31,0xf	 x31:0x80009f50  x3=0x4fa80000
       60335000	      6032	80003ee8	00ae06b3	add	x13,x28,x10	 x28:0x00000000 x10:0x00000000 x13=0x00000000
       60345000	      6033	80003eec	00000013	addi	x0,x0,0	  x0:0x00000000
       60355000	      6034	80003ef0	41150bb3	sub	x23,x10,x17	 x10:0x00000000 x17:0x80009fc4 x23=0x7fff603c
       60365000	      6035	80003ef4	03291a63	bne	x18,x18,80003f28	 x18:0x5dbefa14 x18:0x5dbefa14
       60375000	      6036	80003ef8	044ee463	bltu	x29,x4,80003f40	 x29:0x00002000  x4:0xe9ba91f5
       60385000	      6037	00000000	00000013	addi	x0,x0,0	  x0:0x00000000
       60395000	      6038	80003f3c	00000013	addi	x0,x0,0	  x0:0x00000000
       60405000	      6039	80003f40	41c88cb3	sub	x25,x17,x28	 x17:0x80009fc4 x28:0x00000000 x25=0x80009fc4
       60415000	      6040	80003f44	03081a63	bne	x16,x16,80003f78	 x16:0xffffffda x16:0xffffffda
       60425000	      6041	80003f48	716562b7	lui	x5,0x71656	  x5=0x71656000
       60435000	      6042	80003f4c	012f1733	sll	x14,x30,x18	 x30:0x00000000 x18:0x5dbefa14 x14=0x00000000
       60445000	      6043	80003f50	a31b3013	sltiu	x0,x22,-1487	 x22:0x00000000
       60455000	      6044	80003f54	91023d93	sltiu	x27,x4,-1776	  x4:0xe9ba91f5 x27=0x00000001
       60465000	      6045	80003f58	d1e03c13	sltiu	x24,x0,-738	  x0:0x00000000 x24=0x00000001
       60475000	      6046	80003f5c	1d76c493	xori	x9,x13,471	 x13:0x00000000  x9=0x000001d7
       60485000	      6047	80003f60	01e6e733	or	x14,x13,x30	 x13:0x00000000 x30:0x00000000 x14=0x00000000
       60495000	      6048	80003f64	01ea8663	beq	x21,x30,80003f70	 x21:0x80009ffc x30:0x00000000
       60505000	      6049	80003f68	01f8a033	slt	x0,x17,x31	 x17:0x80009fc4 x31:0x80009f50
       60515000	      6050	80003f6c	004b9d13	slli	x26,x23,0x4	 x23:0x7fff603c x26=0xfff603c0
       60525000	      6051	80003f70	022b8863	beq	x23,x2,80003fa0	 x23:0x7fff603c  x2:0x00000000
       60535000	      6052	80003f74	01ce0933	add	x18,x28,x28	 x28:0x00000000 x28:0x00000000 x18=0x00000000
       60545000	      6053	80003f78	b3812d13	slti	x26,x2,-1224	  x2:0x00000000 x26=0x00000000
       60555000	      6054	80003f7c	40bb5833	sra	x16,x22,x11	 x22:0x00000000 x11:0x00000001 x16=0x00000000
       60565000	      6055	80003f80	04afd463	bge	x31,x10,80003fc8	 x31:0x80009f50 x10:0x00000000
       60575000	      6056	80003f84	00321413	slli	x8,x4,0x3	  x4:0xe9ba91f5  x8=0x4dd48fa8
       60585000	      6057	80003f88	da5d3b93	sltiu	x23,x26,-603	 x26:0x00000000 x23=0x00000001
       60595000	      6058	80003f8c	02a81e63	bne	x16,x10,80003fc8	 x16:0x00000000 x10:0x00000000
       60605000	      6059	80003f90	00f21c63	bne	x4,x15,80003fa8	  x4:0xe9ba91f5 x15:0xffffffff
       60615000	      6060	00000000	00000013	addi	x0,x0,0	  x0:0x00000000
       60625000	      6061	80003fa4	00000013	addi	x0,x0,0	  x0:0x00000000
       60635000	      6062	80003fa8	007cd733	srl	x14,x25,x7	 x25:0x80009fc4  x7:0x00000000 x14=0x80009fc4
       60645000	      6063	80003fac	01319993	slli	x19,x3,0x13	  x3:0x4fa80000 x19=0x00000000
       60655000	      6064	80003fb0	003371b3	and	x3,x6,x3	  x6:0x80003c9b  x3:0x4fa80000  x3=0x00000000
       60665000	      6065	80003fb4	04107063	bgeu	x0,x1,80003ff4	  x0:0x00000000  x1:0x00000000
       60675000	      6066	00000000	00000013	addi	x0,x0,0	  x0:0x00000000
       60685000	      6067	80003ff0	00000013	addi	x0,x0,0	  x0:0x00000000
       60695000	      6068	80003ff4	43f58113	addi	x2,x11,1087	 x11:0x00000001  x2=0x00000440
       60705000	      6069	80003ff8	68bc7d93	andi	x27,x24,1675	 x24:0x00000001 x27=0x00000001
       60715000	      6070	80003ffc	b630f693	andi	x13,x1,-1181	  x1:0x00000000 x13=0x00000000
       60725000	      6071	80004000	04d68063	beq	x13,x13,80004040	 x13:0x00000000 x13:0x00000000
       60735000	      6072	00000000	00000013	addi	x0,x0,0	  x0:0x00000000
       60745000	      6073	8000403c	00000013	addi	x0,x0,0	  x0:0x00000000
       60755000	      6074	80004040	009c5a93	srli	x21,x24,0x9	 x24:0x00000001 x21=0x00000000
       60765000	      6075	80004044	01205013	srli	x0,x0,0x12	  x0:0x00000000
       60775000	      6076	80004048	03dc0a63	beq	x24,x29,8000407c	 x24:0x00000001 x29:0x00002000
       60785000	      6077	8000404c	34456193	ori	x3,x10,836	 x10:0x00000000  x3=0x00000344
       60795000	      6078	80004050	40d953b3	sra	x7,x18,x13	 x18:0x00000000 x13:0x00000000  x7=0x00000000
       60805000	      6079	80004054	71b53613	sltiu	x12,x10,1819	 x10:0x00000000 x12=0x00000001
       60815000	      6080	80004058	0024a133	slt	x2,x9,x2	  x9:0x000001d7  x2:0x00000440  x2=0x00000001
       60825000	      6081	8000405c	03bada63	bge	x21,x27,80004090	 x21:0x00000000 x27:0x00000001
       60835000	      6082	80004060	0358c463	blt	x17,x21,80004088	 x17:0x80009fc4 x21:0x00000000
       60845000	      6083	00000000	00000013	addi	x0,x0,0	  x0:0x00000000
       60855000	      6084	80004084	00000013	addi	x0,x0,0	  x0:0x00000000
       60865000	      6085	80004088	01afcd33	xor	x26,x31,x26	 x31:0x80009f50 x26:0x00000000 x26=0x80009f50
       60875000	      6086	8000408c	40758033	sub	x0,x11,x7	 x11:0x00000001  x7:0x00000000
       60885000	      6087	80004090	40b70eb3	sub	x29,x14,x11	 x14:0x80009fc4 x11:0x00000001 x29=0x80009fc3
       60895000	      6088	80004094	c580e693	ori	x13,x1,-936	  x1:0x00000000 x13=0xfffffc58
       60905000	      6089	80004098	d959b393	sltiu	x7,x19,-619	 x19:0x00000000  x7=0x00000001
       60915000	      6090	8000409c	07d60663	beq	x12,x29,80004108	 x12:0x00000001 x29:0x80009fc3
       60925000	      6091	800040a0	07d80663	beq	x16,x29,8000410c	 x16:0x00000000 x29:0x80009fc3
       60935000	      6092	800040a4	06a4e263	bltu	x9,x10,80004108	  x9:0x000001d7 x10:0x00000000
       60945000	      6093	800040a8	01b3d493	srli	x9,x7,0x1b	  x7:0x00000001  x9=0x00000000
       60955000	      6094	800040ac	0067d613	srli	x12,x15,0x6	 x15:0xffffffff x12=0x03ffffff
       60965000	      6095	800040b0	b2ee0e93	addi	x29,x28,-1234	 x28:0x00000000 x29=0xfffffb2e
       60975000	      6096	800040b4	004f1d13	slli	x26,x30,0x4	 x30:0x00000000 x26=0x00000000
       60985000	      6097	800040b8	01432d33	slt	x26,x6,x20	  x6:0x80003c9b x20:0x00000000 x26=0x00000001
       60995000	      6098	800040bc	00000013	addi	x0,x0,0	  x0:0x00000000
       61005000	      6099	800040c0	40805f13	srai	x30,x0,0x8	  x0:0x00000000 x30=0x00000000
       61015000	      6100	800040c4	6474a613	slti	x12,x9,1607	  x9:0x00000000 x12=0x00000001
       61025000	      6101	800040c8	0763ec63	bltu	x7,x22,80004140	  x7:0x00000001 x22:0x00000000
       61035000	      6102	800040cc	00bd6d33	or	x26,x26,x11	 x26:0x00000001 x11:0x00000001 x26=0x00000001
       61045000	      6103	800040d0	00c46b33	or	x22,x8,x12	  x8:0x4dd48fa8 x12:0x00000001 x22=0x4dd48fa9
       61055000	      6104	800040d4	01f6beb3	sltu	x29,x13,x31	 x13:0xfffffc58 x31:0x80009f50 x29=0x00000000
       61065000	      6105	800040d8	02898063	beq	x19,x8,800040f8	 x19:0x00000000  x8:0x4dd48fa8
       61075000	      6106	800040dc	10edf697	auipc	x13,0x10edf	 x13=0x90ee30d8
       61085000	      6107	800040e0	41f70833	sub	x16,x14,x31	 x14:0x80009fc4 x31:0x80009f50 x16=0x00000074
       61095000	      6108	800040e4	01afe333	or	x6,x31,x26	 x31:0x80009f50 x26:0x00000001  x6=0x80009f51
       61105000	      6109	800040e8	4102d013	srai	x0,x5,0x10	  x5:0x71656000
       61115000	      6110	800040ec	004c4f33	xor	x30,x24,x4	 x24:0x00000001  x4:0xe9ba91f5 x30=0xe9ba91f4
       61125000	      6111	800040f0	01271a93	slli	x21,x14,0x12	 x14:0x80009fc4 x21=0x7f100000
       61135000	      6112	800040f4	016d5693	srli	x13,x26,0x16	 x26:0x00000001 x13=0x00000000
       61145000	      6113	800040f8	e41fc7ef	jal	x15,800040f8	 x15=0x800040f8
       61155000	      6114	00000000	00000013	addi	x0,x0,0	  x0:0x00000000
       61165000	      6115	80000f34	00000013	addi	x0,x0,0	  x0:0x00000000
       61175000	      6116	80000f38	010cd713	srli	x14,x25,0x10	 x25:0x80009fc4 x14=0x00008000
       61185000	      6117	80000f3c	00c5e033	or	x0,x11,x12	 x11:0x00000001 x12:0x00000001
       61195000	      6118	80000f40	827fed13	ori	x26,x31,-2009	 x31:0x80009f50 x26=0xffffff77
       61205000	      6119	80000f44	01884463	blt	x16,x24,80000f4c	 x16:0x00000074 x24:0x00000001
       61215000	      6120	80000f48	41135f33	sra	x30,x6,x17	  x6:0x80009f51 x17:0x80009fc4 x30=0xf80009f5
       61225000	      6121	80000f4c	fd4f8f93	addi	x31,x31,-44	 x31:0x80009f50 x31=0x80009f24
       61235000	      6122	80000f50	8b781b37	lui	x22,0x8b781	 x22=0x8b781000
       61245000	      6123	80000f54	00ffa223	sw	x15,4(x31)	 x31:0x80009f24 x15:0x800040f8 PA:0x80009f28
       61255000	      6124	80000f58	01680533	add	x10,x16,x22	 x16:0x00000074 x22:0x8b781000 x10=0x8b781074
       61265000	      6125	80000f5c	ab465497	auipc	x9,0xab465	  x9=0x2b465f58
       61275000	      6126	80000f60	415a5c13	srai	x24,x20,0x15	 x20:0x00000000 x24=0x00000000
       61285000	      6127	80000f64	008007ef	jal	x15,80000f64	 x15=0x80000f64
       61295000	      6128	00000000	00000013	addi	x0,x0,0	  x0:0x00000000
       61305000	      6129	80000f68	00000013	addi	x0,x0,0	  x0:0x00000000
       61315000	      6130	80000f6c	0140036f	jal	x6,80000f6c	  x6=0x80000f6c
       61325000	      6131	00000000	00000013	addi	x0,x0,0	  x0:0x00000000
       61335000	      6132	80000f7c	00000013	addi	x0,x0,0	  x0:0x00000000
       61345000	      6133	80000f80	014000ef	jal	x1,80000f80	  x1=0x80000f80
       61355000	      6134	00000000	00000013	addi	x0,x0,0	  x0:0x00000000
       61365000	      6135	80000f90	00000013	addi	x0,x0,0	  x0:0x00000000
       61375000	      6136	80000f94	00c000ef	jal	x1,80000f94	  x1=0x80000f94
       61385000	      6137	00000000	00000013	addi	x0,x0,0	  x0:0x00000000
       61395000	      6138	80000f9c	00000013	addi	x0,x0,0	  x0:0x00000000
       61405000	      6139	80000fa0	ff1ff0ef	jal	x1,80000fa0	  x1=0x80000fa0
       61415000	      6140	00000000	00000013	addi	x0,x0,0	  x0:0x00000000
       61425000	      6141	80000f8c	00000013	addi	x0,x0,0	  x0:0x00000000
       61435000	      6142	80000f90	ffdff0ef	jal	x1,80000f90	  x1=0x80000f90
       61445000	      6143	00000000	00000013	addi	x0,x0,0	  x0:0x00000000
       61455000	      6144	80000f88	00000013	addi	x0,x0,0	  x0:0x00000000
       61465000	      6145	80000f8c	ffdff36f	jal	x6,80000f8c	  x6=0x80000f8c
       61475000	      6146	00000000	00000013	addi	x0,x0,0	  x0:0x00000000
       61485000	      6147	80000f84	00000013	addi	x0,x0,0	  x0:0x00000000
       61495000	      6148	80000f88	ff1ff1ef	jal	x3,80000f88	  x3=0x80000f88
       61505000	      6149	00000000	00000013	addi	x0,x0,0	  x0:0x00000000
       61515000	      6150	80000f74	00000013	addi	x0,x0,0	  x0:0x00000000
       61525000	      6151	80000f78	ff9ff36f	jal	x6,80000f78	  x6=0x80000f78
       61535000	      6152	00000000	00000013	addi	x0,x0,0	  x0:0x00000000
       61545000	      6153	80000f6c	00000013	addi	x0,x0,0	  x0:0x00000000
       61555000	      6154	80000f70	028000ef	jal	x1,80000f70	  x1=0x80000f70
       61565000	      6155	00000000	00000013	addi	x0,x0,0	  x0:0x00000000
       61575000	      6156	80000f94	00000013	addi	x0,x0,0	  x0:0x00000000
       61585000	      6157	80000f98	fd1ffbef	jal	x23,80000f98	 x23=0x80000f98
       61595000	      6158	00000000	00000013	addi	x0,x0,0	  x0:0x00000000
       61605000	      6159	80000f64	00000013	addi	x0,x0,0	  x0:0x00000000
       61615000	      6160	80000f68	0400096f	jal	x18,80000f68	 x18=0x80000f68
       61625000	      6161	00000000	00000013	addi	x0,x0,0	  x0:0x00000000
       61635000	      6162	80000fa4	00000013	addi	x0,x0,0	  x0:0x00000000
       61645000	      6163	80000fa8	fddff0ef	jal	x1,80000fa8	  x1=0x80000fa8
       61655000	      6164	00000000	00000013	addi	x0,x0,0	  x0:0x00000000
       61665000	      6165	80000f80	00000013	addi	x0,x0,0	  x0:0x00000000
       61675000	      6166	80000f84	018000ef	jal	x1,80000f84	  x1=0x80000f84
       61685000	      6167	00000000	00000013	addi	x0,x0,0	  x0:0x00000000
       61695000	      6168	80000f98	00000013	addi	x0,x0,0	  x0:0x00000000
       61705000	      6169	80000f9c	00800c6f	jal	x24,80000f9c	 x24=0x80000f9c
       61715000	      6170	00000000	00000013	addi	x0,x0,0	  x0:0x00000000
       61725000	      6171	80000fa0	00000013	addi	x0,x0,0	  x0:0x00000000
       61735000	      6172	80000fa4	fd1ff36f	jal	x6,80000fa4	  x6=0x80000fa4
       61745000	      6173	00000000	00000013	addi	x0,x0,0	  x0:0x00000000
       61755000	      6174	80000f70	00000013	addi	x0,x0,0	  x0:0x00000000
       61765000	      6175	80000f74	008000ef	jal	x1,80000f74	  x1=0x80000f74
       61775000	      6176	00000000	00000013	addi	x0,x0,0	  x0:0x00000000
       61785000	      6177	80000f78	00000013	addi	x0,x0,0	  x0:0x00000000
       61795000	      6178	80000f7c	0300036f	jal	x6,80000f7c	  x6=0x80000f7c
       61805000	      6179	00000000	00000013	addi	x0,x0,0	  x0:0x00000000
       61815000	      6180	80000fa8	00000013	addi	x0,x0,0	  x0:0x00000000
       61825000	      6181	80000fac	0013dc33	srl	x24,x7,x1	  x7:0x00000001  x1:0x80000f74 x24=0x00000000
       61835000	      6182	80000fb0	0126ea63	bltu	x13,x18,80000fc4	 x13:0x00000000 x18:0x80000f68
       61845000	      6183	00000000	00000013	addi	x0,x0,0	  x0:0x00000000
       61855000	      6184	80000fc0	00000013	addi	x0,x0,0	  x0:0x00000000
       61865000	      6185	80000fc4	41560133	sub	x2,x12,x21	 x12:0x00000001 x21:0x7f100000  x2=0x80f00001
       61875000	      6186	80000fc8	32beea93	ori	x21,x29,811	 x29:0x00000000 x21=0x0000032b
       61885000	      6187	80000fcc	015c4663	blt	x24,x21,80000fd8	 x24:0x00000000 x21:0x0000032b
       61895000	      6188	00000000	00000013	addi	x0,x0,0	  x0:0x00000000
       61905000	      6189	80000fd4	00000013	addi	x0,x0,0	  x0:0x00000000
       61915000	      6190	80000fd8	1ac35b97	auipc	x23,0x1ac35	 x23=0x9ac35fd4
       61925000	      6191	80000fdc	00c874b3	and	x9,x16,x12	 x16:0x00000074 x12:0x00000001  x9=0x00000000
       61935000	      6192	80000fe0	005fa633	slt	x12,x31,x5	 x31:0x80009f24  x5:0x71656000 x12=0x00000001
       61945000	      6193	80000fe4	40d3d333	sra	x6,x7,x13	  x7:0x00000001 x13:0x00000000  x6=0x00000001
       61955000	      6194	80000fe8	405c5133	sra	x2,x24,x5	 x24:0x00000000  x5:0x71656000  x2=0x00000000
       61965000	      6195	80000fec	5c808e93	addi	x29,x1,1480	  x1:0x80000f74 x29=0x8000153c
       61975000	      6196	80000ff0	017a4b33	xor	x22,x20,x23	 x20:0x00000000 x23:0x9ac35fd4 x22=0x9ac35fd4
       61985000	      6197	80000ff4	366e4293	xori	x5,x28,870	 x28:0x00000000  x5=0x00000366
       61995000	      6198	80000ff8	415ad5b3	sra	x11,x21,x21	 x21:0x0000032b x21:0x0000032b x11=0x00000000
       62005000	      6199	80000ffc	73446d37	lui	x26,0x73446	 x26=0x73446000
       62015000	      6200	80001000	7ce93b93	sltiu	x23,x18,1998	 x18:0x80000f68 x23=0x00000000
       62025000	      6201	80001004	01c85663	bge	x16,x28,80001010	 x16:0x00000074 x28:0x00000000
       62035000	      6202	00000000	00000013	addi	x0,x0,0	  x0:0x00000000
       62045000	      6203	8000100c	00000013	addi	x0,x0,0	  x0:0x00000000
       62055000	      6204	80001010	415d0533	sub	x10,x26,x21	 x26:0x73446000 x21:0x0000032b x10=0x73445cd5
       62065000	      6205	80001014	0239c263	blt	x19,x3,80001038	 x19:0x00000000  x3:0x80000f88
       62075000	      6206	80001018	01545493	srli	x9,x8,0x15	  x8:0x4dd48fa8  x9=0x0000026e
       62085000	      6207	8000101c	4010de93	srai	x29,x1,0x1	  x1:0x80000f74 x29=0xc00007ba
       62095000	      6208	80001020	0410e063	bltu	x1,x1,80001060	  x1:0x80000f74  x1:0x80000f74
       62105000	      6209	80001024	01a65013	srli	x0,x12,0x1a	 x12:0x00000001
       62115000	      6210	80001028	4034d093	srai	x1,x9,0x3	  x9:0x0000026e  x1=0x0000004d
       62125000	      6211	8000102c	00d1ba33	sltu	x20,x3,x13	  x3:0x80000f88 x13:0x00000000 x20=0x00000000
       62135000	      6212	80001030	011a1c93	slli	x25,x20,0x11	 x20:0x00000000 x25=0x00000000
       62145000	      6213	80001034	03ee0c63	beq	x28,x30,8000106c	 x28:0x00000000 x30:0xf80009f5
       62155000	      6214	80001038	00307463	bgeu	x0,x3,80001040	  x0:0x00000000  x3:0x80000f88
       62165000	      6215	8000103c	754bf393	andi	x7,x23,1876	 x23:0x00000000  x7=0x00000000
       62175000	      6216	80001040	01918863	beq	x3,x25,80001050	  x3:0x80000f88 x25:0x00000000
       62185000	      6217	80001044	01b3f833	and	x16,x7,x27	  x7:0x00000000 x27:0x00000001 x16=0x00000000
       62195000	      6218	80001048	002924b3	slt	x9,x18,x2	 x18:0x80000f68  x2:0x00000000  x9=0x00000001
       62205000	      6219	8000104c	01f8af33	slt	x30,x17,x31	 x17:0x80009fc4 x31:0x80009f24 x30=0x00000000
       62215000	      6220	80001050	00c35d33	srl	x26,x6,x12	  x6:0x00000001 x12:0x00000001 x26=0x00000000
       62225000	      6221	80001054	01a959b3	srl	x19,x18,x26	 x18:0x80000f68 x26:0x00000000 x19=0x80000f68
       62235000	      6222	80001058	019b34b3	sltu	x9,x22,x25	 x22:0x9ac35fd4 x25:0x00000000  x9=0x00000000
       62245000	      6223	8000105c	91250393	addi	x7,x10,-1774	 x10:0x73445cd5  x7=0x734455e7
       62255000	      6224	80001060	548d8a13	addi	x20,x27,1352	 x27:0x00000001 x20=0x00000549
       62265000	      6225	80001064	00f166b3	or	x13,x2,x15	  x2:0x00000000 x15:0x80000f64 x13=0x80000f64
       62275000	      6226	80001068	1979c037	lui	x0,0x1979c	
       62285000	      6227	8000106c	03230263	beq	x6,x18,80001090	  x6:0x00000001 x18:0x80000f68
       62295000	      6228	80001070	003eaa33	slt	x20,x29,x3	 x29:0xc00007ba  x3:0x80000f88 x20=0x00000000
       62305000	      6229	80001074	00bf9f33	sll	x30,x31,x11	 x31:0x80009f24 x11:0x00000000 x30=0x80009f24
       62315000	      6230	80001078	28b80293	addi	x5,x16,651	 x16:0x00000000  x5=0x0000028b
       62325000	      6231	8000107c	0099fa63	bgeu	x19,x9,80001090	 x19:0x80000f68  x9:0x00000000
       62335000	      6232	00000000	00000013	addi	x0,x0,0	  x0:0x00000000
       62345000	      6233	8000108c	00000013	addi	x0,x0,0	  x0:0x00000000
       62355000	      6234	80001090	00833ab3	sltu	x21,x6,x8	  x6:0x00000001  x8:0x4dd48fa8 x21=0x00000001
       62365000	      6235	80001094	01e0df33	srl	x30,x1,x30	  x1:0x0000004d x30:0x80009f24 x30=0x00000004
       62375000	      6236	80001098	001d1b93	slli	x23,x26,0x1	 x26:0x00000000 x23=0x00000000
       62385000	      6237	8000109c	004fa783	lw	x15,4(x31)	 x31:0x80009f24 x15=0x800040f8 PA:0x80009f28
       62395000	      6238	800010a0	01388433	add	x8,x17,x19	 x17:0x80009fc4 x19:0x80000f68  x8=0x0000af2c
       62405000	      6239	800010a4	02cf8f93	addi	x31,x31,44	 x31:0x80009f24 x31=0x80009f50
       62415000	      6240	800010a8	01d11033	sll	x0,x2,x29	  x2:0x00000000 x29:0xc00007ba
       62425000	      6241	800010ac	00078993	addi	x19,x15,0	 x15:0x800040f8 x19=0x800040f8
       62435000	      6242	800010b0	000989e7	jalr	x19,x19,0	 x19:0x800040f8 x19=0x800010b0
       62445000	      6243	00000000	00000013	addi	x0,x0,0	  x0:0x00000000
       62455000	      6244	800040f8	00000013	addi	x0,x0,0	  x0:0x00000000
       62465000	      6245	800040fc	05bfc463	blt	x31,x27,80004144	 x31:0x80009f50 x27:0x00000001
       62475000	      6246	00000000	00000013	addi	x0,x0,0	  x0:0x00000000
       62485000	      6247	80004140	00000013	addi	x0,x0,0	  x0:0x00000000
       62495000	      6248	80004144	00043e33	sltu	x28,x8,x0	  x8:0x0000af2c  x0:0x00000000 x28=0x00000000
       62505000	      6249	80004148	00475393	srli	x7,x14,0x4	 x14:0x00008000  x7=0x00000800
       62515000	      6250	8000414c	016046b3	xor	x13,x0,x22	  x0:0x00000000 x22:0x9ac35fd4 x13=0x9ac35fd4
       62525000	      6251	80004150	005e1663	bne	x28,x5,8000415c	 x28:0x00000000  x5:0x0000028b
       62535000	      6252	00000000	00000013	addi	x0,x0,0	  x0:0x00000000
       62545000	      6253	80004158	00000013	addi	x0,x0,0	  x0:0x00000000
       62555000	      6254	8000415c	34574713	xori	x14,x14,837	 x14:0x00008000 x14=0x00008345
       62565000	      6255	80004160	00a04db3	xor	x27,x0,x10	  x0:0x00000000 x10:0x73445cd5 x27=0x73445cd5
       62575000	      6256	80004164	003e2d33	slt	x26,x28,x3	 x28:0x00000000  x3:0x80000f88 x26=0x00000000
       62585000	      6257	80004168	24d0f593	andi	x11,x1,589	  x1:0x0000004d x11=0x0000004d
       62595000	      6258	8000416c	09daf193	andi	x3,x21,157	 x21:0x00000001  x3=0x00000001
       62605000	      6259	80004170	00309f33	sll	x30,x1,x3	  x1:0x0000004d  x3:0x00000001 x30=0x0000009a
       62615000	      6260	80004174	b0528593	addi	x11,x5,-1275	  x5:0x0000028b x11=0xfffffd90
       62625000	      6261	80004178	01ed9a93	slli	x21,x27,0x1e	 x27:0x73445cd5 x21=0x40000000
       62635000	      6262	8000417c	0181feb3	and	x29,x3,x24	  x3:0x00000001 x24:0x00000000 x29=0x00000000
       62645000	      6263	80004180	04ec4863	blt	x24,x14,800041d0	 x24:0x00000000 x14:0x00008345
       62655000	      6264	00000000	00000013	addi	x0,x0,0	  x0:0x00000000
       62665000	      6265	800041cc	00000013	addi	x0,x0,0	  x0:0x00000000
       62675000	      6266	800041d0	54f9be37	lui	x28,0x54f9b	 x28=0x54f9b000
       62685000	      6267	800041d4	00d3a7b3	slt	x15,x7,x13	  x7:0x00000800 x13:0x9ac35fd4 x15=0x00000000
       62695000	      6268	800041d8	00000013	addi	x0,x0,0	  x0:0x00000000
       62705000	      6269	800041dc	04fd8863	beq	x27,x15,8000422c	 x27:0x73445cd5 x15:0x00000000
       62715000	      6270	800041e0	83c7ee93	ori	x29,x15,-1988	 x15:0x00000000 x29=0xfffff83c
       62725000	      6271	800041e4	4468e593	ori	x11,x17,1094	 x17:0x80009fc4 x11=0x80009fc6
       62735000	      6272	800041e8	c9347513	andi	x10,x8,-877	  x8:0x0000af2c x10=0x0000ac00
       62745000	      6273	800041ec	047f7463	bgeu	x30,x7,80004234	 x30:0x0000009a  x7:0x00000800
       62755000	      6274	800041f0	00cb1733	sll	x14,x22,x12	 x22:0x9ac35fd4 x12:0x00000001 x14=0x3586bfa8
       62765000	      6275	800041f4	0370d463	bge	x1,x23,8000421c	  x1:0x0000004d x23:0x00000000
       62775000	      6276	00000000	00000013	addi	x0,x0,0	  x0:0x00000000
       62785000	      6277	80004218	00000013	addi	x0,x0,0	  x0:0x00000000
       62795000	      6278	8000421c	96ac0a93	addi	x21,x24,-1686	 x24:0x00000000 x21=0xfffff96a
       62805000	      6279	80004220	f8822093	slti	x1,x4,-120	  x4:0xe9ba91f5  x1=0x00000001
       62815000	      6280	80004224	945a6c93	ori	x25,x20,-1723	 x20:0x00000000 x25=0xfffff945
       62825000	      6281	80004228	13d51bb7	lui	x23,0x13d51	 x23=0x13d51000
       62835000	      6282	8000422c	eafd4493	xori	x9,x26,-337	 x26:0x00000000  x9=0xfffffeaf
       62845000	      6283	80004230	49b52513	slti	x10,x10,1179	 x10:0x0000ac00 x10=0x00000000
       62855000	      6284	80004234	011a5db3	srl	x27,x20,x17	 x20:0x00000000 x17:0x80009fc4 x27=0x00000000
       62865000	      6285	80004238	0aed7513	andi	x10,x26,174	 x26:0x00000000 x10=0x00000000
       62875000	      6286	8000423c	013b10b3	sll	x1,x22,x19	 x22:0x9ac35fd4 x19:0x800010b0  x1=0x5fd40000
       62885000	      6287	80004240	db77e193	ori	x3,x15,-585	 x15:0x00000000  x3=0xfffffdb7
       62895000	      6288	80004244	00b2a533	slt	x10,x5,x11	  x5:0x0000028b x11:0x80009fc6 x10=0x00000000
       62905000	      6289	80004248	eb43b513	sltiu	x10,x7,-332	  x7:0x00000800 x10=0x00000001
       62915000	      6290	8000424c	0413f863	bgeu	x7,x1,8000429c	  x7:0x00000800  x1:0x5fd40000
       62925000	      6291	80004250	01ae9633	sll	x12,x29,x26	 x29:0xfffff83c x26:0x00000000 x12=0xfffff83c
       62935000	      6292	80004254	97b73193	sltiu	x3,x14,-1669	 x14:0x3586bfa8  x3=0x00000001
       62945000	      6293	80004258	00e84d33	xor	x26,x16,x14	 x16:0x00000000 x14:0x3586bfa8 x26=0x3586bfa8
       62955000	      6294	8000425c	f1746913	ori	x18,x8,-233	  x8:0x0000af2c x18=0xffffff3f
       62965000	      6295	80004260	01ce0cb3	add	x25,x28,x28	 x28:0x54f9b000 x28:0x54f9b000 x25=0xa9f36000
       62975000	      6296	80004264	8eff6813	ori	x16,x30,-1809	 x30:0x0000009a x16=0xfffff8ff
       62985000	      6297	80004268	0260ec63	bltu	x1,x6,800042a0	  x1:0x5fd40000  x6:0x00000001
       62995000	      6298	8000426c	0397de63	bge	x15,x25,800042a8	 x15:0x00000000 x25:0xa9f36000
       63005000	      6299	00000000	00000013	addi	x0,x0,0	  x0:0x00000000
       63015000	      6300	800042a4	00000013	addi	x0,x0,0	  x0:0x00000000
       63025000	      6301	800042a8	000c8433	add	x8,x25,x0	 x25:0xa9f36000  x0:0x00000000  x8=0xa9f36000
       63035000	      6302	800042ac	00b6de13	srli	x28,x13,0xb	 x13:0x9ac35fd4 x28=0x0013586b
       63045000	      6303	800042b0	0135f2b3	and	x5,x11,x19	 x11:0x80009fc6 x19:0x800010b0  x5=0x80001080
       63055000	      6304	800042b4	00dd07b3	add	x15,x26,x13	 x26:0x3586bfa8 x13:0x9ac35fd4 x15=0xd04a1f7c
       63065000	      6305	800042b8	01d81533	sll	x10,x16,x29	 x16:0xfffff8ff x29:0xfffff83c x10=0xf0000000
       63075000	      6306	800042bc	4175dcb3	sra	x25,x11,x23	 x11:0x80009fc6 x23:0x13d51000 x25=0x80009fc6
       63085000	      6307	800042c0	00d3d5b3	srl	x11,x7,x13	  x7:0x00000800 x13:0x9ac35fd4 x11=0x00000000
       63095000	      6308	800042c4	da3eea93	ori	x21,x29,-605	 x29:0xfffff83c x21=0xfffffdbf
       63105000	      6309	800042c8	41428733	sub	x14,x5,x20	  x5:0x80001080 x20:0x00000000 x14=0x80001080
       63115000	      6310	800042cc	05c87463	bgeu	x16,x28,80004314	 x16:0xfffff8ff x28:0x0013586b
       63125000	      6311	00000000	00000013	addi	x0,x0,0	  x0:0x00000000
       63135000	      6312	80004310	00000013	addi	x0,x0,0	  x0:0x00000000
       63145000	      6313	80004314	00000013	addi	x0,x0,0	  x0:0x00000000
       63155000	      6314	80004318	9ad94e37	lui	x28,0x9ad94	 x28=0x9ad94000
       63165000	      6315	8000431c	6fa2b413	sltiu	x8,x5,1786	  x5:0x80001080  x8=0x00000000
       63175000	      6316	80004320	00000013	addi	x0,x0,0	  x0:0x00000000
       63185000	      6317	80004324	00c40663	beq	x8,x12,80004330	  x8:0x00000000 x12:0xfffff83c
       63195000	      6318	80004328	2f82f737	lui	x14,0x2f82f	 x14=0x2f82f000
       63205000	      6319	8000432c	be242a17	auipc	x20,0xbe242	 x20=0x3e246328
       63215000	      6320	80004330	6b657693	andi	x13,x10,1718	 x10:0xf0000000 x13=0x00000000
       63225000	      6321	80004334	00c59733	sll	x14,x11,x12	 x11:0x00000000 x12:0xfffff83c x14=0x00000000
       63235000	      6322	80004338	01ee87b3	add	x15,x29,x30	 x29:0xfffff83c x30:0x0000009a x15=0xfffff8d6
       63245000	      6323	8000433c	012472b3	and	x5,x8,x18	  x8:0x00000000 x18:0xffffff3f  x5=0x00000000
       63255000	      6324	80004340	41d55713	srai	x14,x10,0x1d	 x10:0xf0000000 x14=0xffffffff
       63265000	      6325	80004344	000570b3	and	x1,x10,x0	 x10:0xf0000000  x0:0x00000000  x1=0x00000000
       63275000	      6326	80004348	e1924717	auipc	x14,0xe1924	 x14=0x61928344
       63285000	      6327	8000434c	026f4e63	blt	x30,x6,80004388	 x30:0x0000009a  x6:0x00000001
       63295000	      6328	80004350	01d69b13	slli	x22,x13,0x1d	 x13:0x00000000 x22=0x00000000
       63305000	      6329	80004354	054c7263	bgeu	x24,x20,80004398	 x24:0x00000000 x20:0x3e246328
       63315000	      6330	80004358	046ad263	bge	x21,x6,8000439c	 x21:0xfffffdbf  x6:0x00000001
       63325000	      6331	8000435c	04569863	bne	x13,x5,800043ac	 x13:0x00000000  x5:0x00000000
       63335000	      6332	80004360	89543493	sltiu	x9,x8,-1899	  x8:0x00000000  x9=0x00000001
       63345000	      6333	80004364	00000013	addi	x0,x0,0	  x0:0x00000000
       63355000	      6334	80004368	0091a3b3	slt	x7,x3,x9	  x3:0x00000001  x9:0x00000001  x7=0x00000000
       63365000	      6335	8000436c	04eaf063	bgeu	x21,x14,800043ac	 x21:0xfffffdbf x14:0x61928344
       63375000	      6336	00000000	00000013	addi	x0,x0,0	  x0:0x00000000
       63385000	      6337	800043a8	00000013	addi	x0,x0,0	  x0:0x00000000
       63395000	      6338	800043ac	009b5a33	srl	x20,x22,x9	 x22:0x00000000  x9:0x00000001 x20=0x00000000
       63405000	      6339	800043b0	0068e7b3	or	x15,x17,x6	 x17:0x80009fc4  x6:0x00000001 x15=0x80009fc5
       63415000	      6340	800043b4	00000013	addi	x0,x0,0	  x0:0x00000000
       63425000	      6341	800043b8	011e8c63	beq	x29,x17,800043d0	 x29:0xfffff83c x17:0x80009fc4
       63435000	      6342	800043bc	014fa533	slt	x10,x31,x20	 x31:0x80009f50 x20:0x00000000 x10=0x00000001
       63445000	      6343	800043c0	00a39a93	slli	x21,x7,0xa	  x7:0x00000000 x21=0x00000000
       63455000	      6344	800043c4	b1a1dc97	auipc	x25,0xb1a1d	 x25=0x31a213c0
       63465000	      6345	800043c8	01eb1c93	slli	x25,x22,0x1e	 x22:0x00000000 x25=0x00000000
       63475000	      6346	800043cc	00034d33	xor	x26,x6,x0	  x6:0x00000001  x0:0x00000000 x26=0x00000001
       63485000	      6347	800043d0	02a16a63	bltu	x2,x10,80004404	  x2:0x00000000 x10:0x00000001
       63495000	      6348	00000000	00000013	addi	x0,x0,0	  x0:0x00000000
       63505000	      6349	80004400	00000013	addi	x0,x0,0	  x0:0x00000000
       63515000	      6350	80004404	f705cb13	xori	x22,x11,-144	 x11:0x00000000 x22=0xffffff70
       63525000	      6351	80004408	051ad463	bge	x21,x17,80004450	 x21:0x00000000 x17:0x80009fc4
       63535000	      6352	00000000	00000013	addi	x0,x0,0	  x0:0x00000000
       63545000	      6353	8000444c	00000013	addi	x0,x0,0	  x0:0x00000000
       63555000	      6354	80004450	014cd013	srli	x0,x25,0x14	 x25:0x00000000
       63565000	      6355	80004454	01a7a333	slt	x6,x15,x26	 x15:0x80009fc5 x26:0x00000001  x6=0x00000001
       63575000	      6356	80004458	00000013	addi	x0,x0,0	  x0:0x00000000
       63585000	      6357	8000445c	4eca4093	xori	x1,x20,1260	 x20:0x00000000  x1=0x000004ec
       63595000	      6358	80004460	40625093	srai	x1,x4,0x6	  x4:0xe9ba91f5  x1=0xffa6ea47
       63605000	      6359	80004464	01e3c733	xor	x14,x7,x30	  x7:0x00000000 x30:0x0000009a x14=0x0000009a
       63615000	      6360	80004468	e1e22b37	lui	x22,0xe1e22	 x22=0xe1e22000
       63625000	      6361	8000446c	415ad793	srai	x15,x21,0x15	 x21:0x00000000 x15=0x00000000
       63635000	      6362	80004470	573c6c93	ori	x25,x24,1395	 x24:0x00000000 x25=0x00000573
       63645000	      6363	80004474	04c61463	bne	x12,x12,800044bc	 x12:0xfffff83c x12:0xfffff83c
       63655000	      6364	80004478	41db82b3	sub	x5,x23,x29	 x23:0x13d51000 x29:0xfffff83c  x5=0x13d517c4
       63665000	      6365	8000447c	b2d1e093	ori	x1,x3,-1235	  x3:0x00000001  x1=0xfffffb2d
       63675000	      6366	80004480	014a2033	slt	x0,x20,x20	 x20:0x00000000 x20:0x00000000
       63685000	      6367	80004484	01129c63	bne	x5,x17,8000449c	  x5:0x13d517c4 x17:0x80009fc4
       63695000	      6368	00000000	00000013	addi	x0,x0,0	  x0:0x00000000
       63705000	      6369	80004498	00000013	addi	x0,x0,0	  x0:0x00000000
       63715000	      6370	8000449c	419e8eb3	sub	x29,x29,x25	 x29:0xfffff83c x25:0x00000573 x29=0xfffff2c9
       63725000	      6371	800044a0	414f0133	sub	x2,x30,x20	 x30:0x0000009a x20:0x00000000  x2=0x0000009a
       63735000	      6372	800044a4	00dbb4b3	sltu	x9,x23,x13	 x23:0x13d51000 x13:0x00000000  x9=0x00000000
       63745000	      6373	800044a8	401080b3	sub	x1,x1,x1	  x1:0xfffffb2d  x1:0xfffffb2d  x1=0x00000000
       63755000	      6374	800044ac	4e494d93	xori	x27,x18,1252	 x18:0xffffff3f x27=0xfffffbdb
       63765000	      6375	800044b0	012e9013	slli	x0,x29,0x12	 x29:0xfffff2c9
       63775000	      6376	800044b4	41a68eb3	sub	x29,x13,x26	 x13:0x00000000 x26:0x00000001 x29=0xffffffff
       63785000	      6377	800044b8	004677b3	and	x15,x12,x4	 x12:0xfffff83c  x4:0xe9ba91f5 x15=0xe9ba9034
       63795000	      6378	800044bc	05839863	bne	x7,x24,8000450c	  x7:0x00000000 x24:0x00000000
       63805000	      6379	800044c0	0162b433	sltu	x8,x5,x22	  x5:0x13d517c4 x22:0xe1e22000  x8=0x00000001
       63815000	      6380	800044c4	03c5ce63	blt	x11,x28,80004500	 x11:0x00000000 x28:0x9ad94000
       63825000	      6381	800044c8	00fe5793	srli	x15,x28,0xf	 x28:0x9ad94000 x15=0x000135b2
       63835000	      6382	800044cc	d1bd0113	addi	x2,x26,-741	 x26:0x00000001  x2=0xfffffd1c
       63845000	      6383	800044d0	00cfbb33	sltu	x22,x31,x12	 x31:0x80009f50 x12:0xfffff83c x22=0x00000001
       63855000	      6384	800044d4	41e35133	sra	x2,x6,x30	  x6:0x00000001 x30:0x0000009a  x2=0x00000000
       63865000	      6385	800044d8	00c98933	add	x18,x19,x12	 x19:0x800010b0 x12:0xfffff83c x18=0x800008ec
       63875000	      6386	800044dc	41aada93	srai	x21,x21,0x1a	 x21:0x00000000 x21=0x00000000
       63885000	      6387	800044e0	01da1513	slli	x10,x20,0x1d	 x20:0x00000000 x10=0x00000000
       63895000	      6388	800044e4	05c31463	bne	x6,x28,8000452c	  x6:0x00000001 x28:0x9ad94000
       63905000	      6389	00000000	00000013	addi	x0,x0,0	  x0:0x00000000
       63915000	      6390	80004528	00000013	addi	x0,x0,0	  x0:0x00000000
       63925000	      6391	8000452c	b104f913	andi	x18,x9,-1264	  x9:0x00000000 x18=0x00000000
       63935000	      6392	80004530	45873693	sltiu	x13,x14,1112	 x14:0x0000009a x13=0x00000001
       63945000	      6393	80004534	0393ce63	blt	x7,x25,80004570	  x7:0x00000000 x25:0x00000573
       63955000	      6394	00000000	00000013	addi	x0,x0,0	  x0:0x00000000
       63965000	      6395	8000456c	00000013	addi	x0,x0,0	  x0:0x00000000
       63975000	      6396	80004570	017d2e93	slti	x29,x26,23	 x26:0x00000001 x29=0x00000001
       63985000	      6397	80004574	05551337	lui	x6,0x5551	  x6=0x05551000
       63995000	      6398	80004578	00e8cdb3	xor	x27,x17,x14	 x17:0x80009fc4 x14:0x0000009a x27=0x80009f5e
       64005000	      6399	8000457c	0155fa33	and	x20,x11,x21	 x11:0x00000000 x21:0x00000000 x20=0x00000000
       64015000	      6400	80004580	41ae0733	sub	x14,x28,x26	 x28:0x9ad94000 x26:0x00000001 x14=0x9ad93fff
       64025000	      6401	80004584	cc5f3b93	sltiu	x23,x30,-827	 x30:0x0000009a x23=0x00000001
       64035000	      6402	80004588	026e1a63	bne	x28,x6,800045bc	 x28:0x9ad94000  x6:0x05551000
       64045000	      6403	00000000	00000013	addi	x0,x0,0	  x0:0x00000000
       64055000	      6404	800045b8	00000013	addi	x0,x0,0	  x0:0x00000000
       64065000	      6405	800045bc	000c9db3	sll	x27,x25,x0	 x25:0x00000573  x0:0x00000000 x27=0x00000573
       64075000	      6406	800045c0	db4d6a13	ori	x20,x26,-588	 x26:0x00000001 x20=0xfffffdb5
       64085000	      6407	800045c4	0179f733	and	x14,x19,x23	 x19:0x800010b0 x23:0x00000001 x14=0x00000000
       64095000	      6408	800045c8	01846333	or	x6,x8,x24	  x8:0x00000001 x24:0x00000000  x6=0x00000001
       64105000	      6409	800045cc	01abda13	srli	x20,x23,0x1a	 x23:0x00000001 x20=0x00000000
       64115000	      6410	800045d0	01624933	xor	x18,x4,x22	  x4:0xe9ba91f5 x22:0x00000001 x18=0xe9ba91f4
       64125000	      6411	800045d4	01801333	sll	x6,x0,x24	  x0:0x00000000 x24:0x00000000  x6=0x00000000
       64135000	      6412	800045d8	013a2333	slt	x6,x20,x19	 x20:0x00000000 x19:0x800010b0  x6=0x00000000
       64145000	      6413	800045dc	01aaa0b3	slt	x1,x21,x26	 x21:0x00000000 x26:0x00000001  x1=0x00000001
       64155000	      6414	800045e0	40f4d5b3	sra	x11,x9,x15	  x9:0x00000000 x15:0x000135b2 x11=0x00000000
       64165000	      6415	800045e4	fc5fbb17	auipc	x22,0xfc5fb	 x22=0x7c5ff5e0
       64175000	      6416	800045e8	69973513	sltiu	x10,x14,1689	 x14:0x00000000 x10=0x00000001
       64185000	      6417	800045ec	ab377813	andi	x16,x14,-1357	 x14:0x00000000 x16=0x00000000
       64195000	      6418	800045f0	003f3a33	sltu	x20,x30,x3	 x30:0x0000009a  x3:0x00000001 x20=0x00000000
       64205000	      6419	800045f4	b6a95a17	auipc	x20,0xb6a95	 x20=0x36a995f0
       64215000	      6420	800045f8	80e67c13	andi	x24,x12,-2034	 x12:0xfffff83c x24=0xfffff80c
       64225000	      6421	800045fc	d2f4eb13	ori	x22,x9,-721	  x9:0x00000000 x22=0xfffffd2f
       64235000	      6422	80004600	21ea0d97	auipc	x27,0x21ea0	 x27=0xa1ea45fc
       64245000	      6423	80004604	5160ac13	slti	x24,x1,1302	  x1:0x00000001 x24=0x00000001
       64255000	      6424	80004608	41595cb3	sra	x25,x18,x21	 x18:0xe9ba91f4 x21:0x00000000 x25=0xe9ba91f4
       64265000	      6425	8000460c	00000013	addi	x0,x0,0	  x0:0x00000000
       64275000	      6426	80004610	00df1713	slli	x14,x30,0xd	 x30:0x0000009a x14=0x00134000
       64285000	      6427	80004614	00245993	srli	x19,x8,0x2	  x8:0x00000001 x19=0x00000000
       64295000	      6428	80004618	48aa4037	lui	x0,0x48aa4	
       64305000	      6429	8000461c	f45df593	andi	x11,x27,-187	 x27:0xa1ea45fc x11=0xa1ea4544
       64315000	      6430	80004620	00f97c33	and	x24,x18,x15	 x18:0xe9ba91f4 x15:0x000135b2 x24=0x000011b0
       64325000	      6431	80004624	0172eeb3	or	x29,x5,x23	  x5:0x13d517c4 x23:0x00000001 x29=0x13d517c5
       64335000	      6432	80004628	01e1d2b3	srl	x5,x3,x30	  x3:0x00000001 x30:0x0000009a  x5=0x00000000
       64345000	      6433	8000462c	f5fa2193	slti	x3,x20,-161	 x20:0x36a995f0  x3=0x00000000
       64355000	      6434	80004630	022cf463	bgeu	x25,x2,80004658	 x25:0xe9ba91f4  x2:0x00000000
       64365000	      6435	00000000	00000013	addi	x0,x0,0	  x0:0x00000000
       64375000	      6436	80004654	00000013	addi	x0,x0,0	  x0:0x00000000
       64385000	      6437	80004658	40ccd713	srai	x14,x25,0xc	 x25:0xe9ba91f4 x14=0xfffe9ba9
       64395000	      6438	8000465c	9847fe13	andi	x28,x15,-1660	 x15:0x000135b2 x28=0x00013180
       64405000	      6439	80004660	40fed493	srai	x9,x29,0xf	 x29:0x13d517c5  x9=0x000027aa
       64415000	      6440	80004664	b7012937	lui	x18,0xb7012	 x18=0xb7012000
       64425000	      6441	80004668	8cec2613	slti	x12,x24,-1842	 x24:0x000011b0 x12=0x00000000
       64435000	      6442	8000466c	00d3ec33	or	x24,x7,x13	  x7:0x00000000 x13:0x00000001 x24=0x00000001
       64445000	      6443	80004670	41e60bb3	sub	x23,x12,x30	 x12:0x00000000 x30:0x0000009a x23=0xffffff66
       64455000	      6444	80004674	4062d7b3	sra	x15,x5,x6	  x5:0x00000000  x6:0x00000000 x15=0x00000000
       64465000	      6445	80004678	de5ff813	andi	x16,x31,-539	 x31:0x80009f50 x16=0x80009d40
       64475000	      6446	8000467c	0153c463	blt	x7,x21,80004684	  x7:0x00000000 x21:0x00000000
       64485000	      6447	80004680	000aaeb3	slt	x29,x21,x0	 x21:0x00000000  x0:0x00000000 x29=0x00000000
       64495000	      6448	80004684	ffcfec13	ori	x24,x31,-4	 x31:0x80009f50 x24=0xfffffffc
       64505000	      6449	80004688	00b19d93	slli	x27,x3,0xb	  x3:0x00000000 x27=0x00000000
       64515000	      6450	8000468c	01c256b3	srl	x13,x4,x28	  x4:0xe9ba91f5 x28:0x00013180 x13=0xe9ba91f5
       64525000	      6451	80004690	013cd193	srli	x3,x25,0x13	 x25:0xe9ba91f4  x3=0x00001d37
       64535000	      6452	80004694	0a406a13	ori	x20,x0,164	  x0:0x00000000 x20=0x000000a4
       64545000	      6453	80004698	4179d113	srai	x2,x19,0x17	 x19:0x00000000  x2=0x00000000
       64555000	      6454	8000469c	004fa783	lw	x15,4(x31)	 x31:0x80009f50 x15=0x800001f8 PA:0x80009f54
       64565000	      6455	800046a0	c9adb317	auipc	x6,0xc9adb	  x6=0x49adf69c
       64575000	      6456	800046a4	00ce2bb3	slt	x23,x28,x12	 x28:0x00013180 x12:0x00000000 x23=0x00000000
       64585000	      6457	800046a8	034f8f93	addi	x31,x31,52	 x31:0x80009f50 x31=0x80009f84
       64595000	      6458	800046ac	b2a27a13	andi	x20,x4,-1238	  x4:0xe9ba91f5 x20=0xe9ba9120
       64605000	      6459	800046b0	00178b13	addi	x22,x15,1	 x15:0x800001f8 x22=0x800001f9
       64615000	      6460	800046b4	000b0b67	jalr	x22,x22,0	 x22:0x800001f9 x22=0x800046b4
       64625000	      6461	00000000	00000013	addi	x0,x0,0	  x0:0x00000000
       64635000	      6462	800001f8	00000013	addi	x0,x0,0	  x0:0x00000000
       64645000	      6463	800001fc	e0d82a93	slti	x21,x16,-499	 x16:0x80009d40 x21=0x00000001
       64655000	      6464	80000200	007dc463	blt	x27,x7,80000208	 x27:0x00000000  x7:0x00000000
       64665000	      6465	80000204	00b03533	sltu	x10,x0,x11	  x0:0x00000000 x11:0xa1ea4544 x10=0x00000001
       64675000	      6466	80000208	01486a63	bltu	x16,x20,8000021c	 x16:0x80009d40 x20:0xe9ba9120
       64685000	      6467	00000000	00000013	addi	x0,x0,0	  x0:0x00000000
       64695000	      6468	80000218	00000013	addi	x0,x0,0	  x0:0x00000000
       64705000	      6469	8000021c	01f80e33	add	x28,x16,x31	 x16:0x80009d40 x31:0x80009f84 x28=0x00013cc4
       64715000	      6470	80000220	00000217	auipc	x4,0x0	  x4=0x8000021c
       64725000	      6471	80000224	00c20213	addi	x4,x4,12	  x4:0x8000021c  x4=0x80000228
       64735000	      6472	80000228	00020067	jalr	x0,x4,0	  x4:0x80000228
       64745000	      6473	00000000	00000013	addi	x0,x0,0	  x0:0x00000000
       64755000	      6474	80000228	00000013	addi	x0,x0,0	  x0:0x00000000
       64765000	      6475	8000022c	00100193	addi	x3,x0,1	  x0:0x00000000  x3=0x00000001
       64775000	      6476	80000230	00000073	ecall	
       64785000	      6477	80000234	01bdbeb3	sltu	x29,x27,x27	 x27:0x00000000 x27:0x00000000 x29=0x00000000
