		Time			Cycle	PC		Insn	Decoded instruction	Register and memory contents
          65000	         5	80000004	00000293	addi	x5,x0,0	  x0:0x00000000  x5=0x00000000
          75000	         6	80000008	00000313	addi	x6,x0,0	  x0:0x00000000  x6=0x00000000
          85000	         7	8000000c	00628263	beq	x5,x6,80000010	  x5:0x00000000  x6:0x00000000
          95000	         8	00000000	00000013	addi	x0,x0,0	  x0:0x00000000
         105000	         9	8000000c	00000013	addi	x0,x0,0	  x0:0x00000000
         115000	        10	80000010	00000917	auipc	x18,0x0	 x18=0x8000000c
         125000	        11	80000014	00c90913	addi	x18,x18,12	 x18:0x8000000c x18=0x80000018
         135000	        12	80000018	00090067	jalr	x0,x18,0	 x18:0x80000018
         145000	        13	00000000	00000013	addi	x0,x0,0	  x0:0x00000000
         155000	        14	80000018	00000013	addi	x0,x0,0	  x0:0x00000000
         165000	        15	8000001c	40000137	lui	x2,0x40000	  x2=0x40000000
         175000	        16	80000020	10010113	addi	x2,x2,256	  x2:0x40000000  x2=0x40000100
         185000	        17	80000024	00000013	addi	x0,x0,0	  x0:0x00000000
         195000	        18	80000028	0000a497	auipc	x9,0xa	  x9=0x8000a024
         205000	        19	8000002c	fa048493	addi	x9,x9,-96	  x9:0x8000a024  x9=0x80009fc4
         215000	        20	80000030	00004117	auipc	x2,0x4	  x2=0x8000402c
         225000	        21	80000034	72c10113	addi	x2,x2,1836	  x2:0x8000402c  x2=0x80004758
         235000	        22	80000038	00016113	ori	x2,x2,0	  x2:0x80004758  x2=0x80004758
         245000	        23	8000003c	00000013	addi	x0,x0,0	  x0:0x00000000
         255000	        24	80000040	00000117	auipc	x2,0x0	  x2=0x8000003c
         265000	        25	80000044	02010113	addi	x2,x2,32	  x2:0x8000003c  x2=0x8000005c
         275000	        26	80000048	00000013	addi	x0,x0,0	  x0:0x00000000
         285000	        27	8000004c	00000013	addi	x0,x0,0	  x0:0x00000000
         295000	        28	80000050	00002137	lui	x2,0x2	  x2=0x00002000
         305000	        29	80000054	80010113	addi	x2,x2,-2048	  x2:0x00002000  x2=0x00001800
         315000	        30	80000058	00000013	addi	x0,x0,0	  x0:0x00000000
         325000	        31	8000005c	00000013	addi	x0,x0,0	  x0:0x00000000
         335000	        32	80000060	869a2037	lui	x0,0x869a2	
         345000	        33	80000064	f9500013	addi	x0,x0,-107	  x0:0x00000000
         355000	        34	80000068	800000b7	lui	x1,0x80000	  x1=0x80000000
         365000	        35	8000006c	00000113	addi	x2,x0,0	  x0:0x00000000  x2=0x00000000
         375000	        36	80000070	ff1341b7	lui	x3,0xff134	  x3=0xff134000
         385000	        37	80000074	2c518193	addi	x3,x3,709	  x3:0xff134000  x3=0xff1342c5
         395000	        38	80000078	00300213	addi	x4,x0,3	  x0:0x00000000  x4=0x00000003
         405000	        39	8000007c	773b12b7	lui	x5,0x773b1	  x5=0x773b1000
         415000	        40	80000080	99228293	addi	x5,x5,-1646	  x5:0x773b1000  x5=0x773b0992
         425000	        41	80000084	ac07f337	lui	x6,0xac07f	  x6=0xac07f000
         435000	        42	80000088	9a130313	addi	x6,x6,-1631	  x6:0xac07f000  x6=0xac07e9a1
         445000	        43	8000008c	fc4d93b7	lui	x7,0xfc4d9	  x7=0xfc4d9000
         455000	        44	80000090	e0138393	addi	x7,x7,-511	  x7:0xfc4d9000  x7=0xfc4d8e01
         465000	        45	80000094	00d00413	addi	x8,x0,13	  x0:0x00000000  x8=0x0000000d
         475000	        46	80000098	00300513	addi	x10,x0,3	  x0:0x00000000 x10=0x00000003
         485000	        47	8000009c	b0d655b7	lui	x11,0xb0d65	 x11=0xb0d65000
         495000	        48	800000a0	7b158593	addi	x11,x11,1969	 x11:0xb0d65000 x11=0xb0d657b1
         505000	        49	800000a4	f895a637	lui	x12,0xf895a	 x12=0xf895a000
         515000	        50	800000a8	0cc60613	addi	x12,x12,204	 x12:0xf895a000 x12=0xf895a0cc
         525000	        51	800000ac	f6ab16b7	lui	x13,0xf6ab1	 x13=0xf6ab1000
         535000	        52	800000b0	49468693	addi	x13,x13,1172	 x13:0xf6ab1000 x13=0xf6ab1494
         545000	        53	800000b4	00000713	addi	x14,x0,0	  x0:0x00000000 x14=0x00000000
         555000	        54	800000b8	f1adf7b7	lui	x15,0xf1adf	 x15=0xf1adf000
         565000	        55	800000bc	89678793	addi	x15,x15,-1898	 x15:0xf1adf000 x15=0xf1ade896
         575000	        56	800000c0	ecd7d837	lui	x16,0xecd7d	 x16=0xecd7d000
         585000	        57	800000c4	0ad80813	addi	x16,x16,173	 x16:0xecd7d000 x16=0xecd7d0ad
         595000	        58	800000c8	fa4c78b7	lui	x17,0xfa4c7	 x17=0xfa4c7000
         605000	        59	800000cc	5e788893	addi	x17,x17,1511	 x17:0xfa4c7000 x17=0xfa4c75e7
         615000	        60	800000d0	00600913	addi	x18,x0,6	  x0:0x00000000 x18=0x00000006
         625000	        61	800000d4	f20fd9b7	lui	x19,0xf20fd	 x19=0xf20fd000
         635000	        62	800000d8	50598993	addi	x19,x19,1285	 x19:0xf20fd000 x19=0xf20fd505
         645000	        63	800000dc	f677dab7	lui	x21,0xf677d	 x21=0xf677d000
         655000	        64	800000e0	ad4a8a93	addi	x21,x21,-1324	 x21:0xf677d000 x21=0xf677cad4
         665000	        65	800000e4	00900b13	addi	x22,x0,9	  x0:0x00000000 x22=0x00000009
         675000	        66	800000e8	00b00b93	addi	x23,x0,11	  x0:0x00000000 x23=0x0000000b
         685000	        67	800000ec	fb0dec37	lui	x24,0xfb0de	 x24=0xfb0de000
         695000	        68	800000f0	a99c0c13	addi	x24,x24,-1383	 x24:0xfb0de000 x24=0xfb0dda99
         705000	        69	800000f4	ffaebcb7	lui	x25,0xffaeb	 x25=0xffaeb000
         715000	        70	800000f8	fedc8c93	addi	x25,x25,-19	 x25:0xffaeb000 x25=0xffaeafed
         725000	        71	800000fc	00000d13	addi	x26,x0,0	  x0:0x00000000 x26=0x00000000
         735000	        72	80000100	00300d93	addi	x27,x0,3	  x0:0x00000000 x27=0x00000003
         745000	        73	80000104	00000e13	addi	x28,x0,0	  x0:0x00000000 x28=0x00000000
         755000	        74	80000108	f6d37eb7	lui	x29,0xf6d37	 x29=0xf6d37000
         765000	        75	8000010c	9d6e8e93	addi	x29,x29,-1578	 x29:0xf6d37000 x29=0xf6d369d6
         775000	        76	80000110	f5b54f37	lui	x30,0xf5b54	 x30=0xf5b54000
         785000	        77	80000114	808f0f13	addi	x30,x30,-2040	 x30:0xf5b54000 x30=0xf5b53808
         795000	        78	80000118	f5eaffb7	lui	x31,0xf5eaf	 x31=0xf5eaf000
         805000	        79	8000011c	3c1f8f93	addi	x31,x31,961	 x31:0xf5eaf000 x31=0xf5eaf3c1
         815000	        80	80000120	0000aa17	auipc	x20,0xa	 x20=0x8000a11c
         825000	        81	80000124	e68a0a13	addi	x20,x20,-408	 x20:0x8000a11c x20=0x80009f84
         835000	        82	80000128	00001097	auipc	x1,0x1	  x1=0x80001124
         845000	        83	8000012c	f9408093	addi	x1,x1,-108	  x1:0x80001124  x1=0x800010b8
         855000	        84	80000130	00a6deb3	srl	x29,x13,x10	 x13:0xf6ab1494 x10:0x00000003 x29=0x1ed56292
         865000	        85	80000134	30b08093	addi	x1,x1,779	  x1:0x800010b8  x1=0x800013c3
         875000	        86	80000138	e0680e13	addi	x28,x16,-506	 x16:0xecd7d0ad x28=0xecd7ceb3
         885000	        87	8000013c	00b08c33	add	x24,x1,x11	  x1:0x800013c3 x11:0xb0d657b1 x24=0x30d66b74
         895000	        88	80000140	00a51fb3	sll	x31,x10,x10	 x10:0x00000003 x10:0x00000003 x31=0x00000018
         905000	        89	80000144	0165d2b3	srl	x5,x11,x22	 x11:0xb0d657b1 x22:0x00000009  x5=0x00586b2b
         915000	        90	80000148	00c251b3	srl	x3,x4,x12	  x4:0x00000003 x12:0xf895a0cc  x3=0x00000000
         925000	        91	8000014c	cf508367	jalr	x6,x1,-779	  x1:0x800013c3  x6=0x8000014c
         935000	        92	00000000	00000013	addi	x0,x0,0	  x0:0x00000000
         945000	        93	800010b8	00000013	addi	x0,x0,0	  x0:0x00000000
         955000	        94	800010bc	fd8a0a13	addi	x20,x20,-40	 x20:0x80009f84 x20=0x80009f5c
         965000	        95	800010c0	00629893	slli	x17,x5,0x6	  x5:0x00586b2b x17=0x161acac0
         975000	        96	800010c4	00091a93	slli	x21,x18,0x0	 x18:0x00000006 x21=0x00000006
         985000	        97	800010c8	b4006193	ori	x3,x0,-1216	  x0:0x00000000  x3=0xfffffb40
         995000	        98	800010cc	00394c33	xor	x24,x18,x3	 x18:0x00000006  x3:0xfffffb40 x24=0xfffffb46
        1005000	        99	800010d0	14522d37	lui	x26,0x14522	 x26=0x14522000
        1015000	       100	800010d4	2e127993	andi	x19,x4,737	  x4:0x00000003 x19=0x00000001
        1025000	       101	800010d8	006a2223	sw	x6,4(x20)	 x20:0x80009f5c  x6:0x8000014c PA:0x80009f60
        1035000	       102	800010dc	006bc433	xor	x8,x23,x6	 x23:0x0000000b  x6:0x8000014c  x8=0x80000147
        1045000	       103	800010e0	00c6e1b3	or	x3,x13,x12	 x13:0xf6ab1494 x12:0xf895a0cc  x3=0xfebfb4dc
        1055000	       104	800010e4	0030ffb3	and	x31,x1,x3	  x1:0x800013c3  x3:0xfebfb4dc x31=0x800010c0
        1065000	       105	800010e8	0080036f	jal	x6,800010e8	  x6=0x800010e8
        1075000	       106	00000000	00000013	addi	x0,x0,0	  x0:0x00000000
        1085000	       107	800010ec	00000013	addi	x0,x0,0	  x0:0x00000000
        1095000	       108	800010f0	02c000ef	jal	x1,800010f0	  x1=0x800010f0
        1105000	       109	00000000	00000013	addi	x0,x0,0	  x0:0x00000000
        1115000	       110	80001118	00000013	addi	x0,x0,0	  x0:0x00000000
        1125000	       111	8000111c	fd9ff2ef	jal	x5,8000111c	  x5=0x8000111c
        1135000	       112	00000000	00000013	addi	x0,x0,0	  x0:0x00000000
        1145000	       113	800010f0	00000013	addi	x0,x0,0	  x0:0x00000000
        1155000	       114	800010f4	00800e6f	jal	x28,800010f4	 x28=0x800010f4
        1165000	       115	00000000	00000013	addi	x0,x0,0	  x0:0x00000000
        1175000	       116	800010f8	00000013	addi	x0,x0,0	  x0:0x00000000
        1185000	       117	800010fc	ff1ff0ef	jal	x1,800010fc	  x1=0x800010fc
        1195000	       118	00000000	00000013	addi	x0,x0,0	  x0:0x00000000
        1205000	       119	800010e8	00000013	addi	x0,x0,0	  x0:0x00000000
        1215000	       120	800010ec	02800cef	jal	x25,800010ec	 x25=0x800010ec
        1225000	       121	00000000	00000013	addi	x0,x0,0	  x0:0x00000000
        1235000	       122	80001110	00000013	addi	x0,x0,0	  x0:0x00000000
        1245000	       123	80001114	fe5ff3ef	jal	x7,80001114	  x7=0x80001114
        1255000	       124	00000000	00000013	addi	x0,x0,0	  x0:0x00000000
        1265000	       125	800010f4	00000013	addi	x0,x0,0	  x0:0x00000000
        1275000	       126	800010f8	00c0036f	jal	x6,800010f8	  x6=0x800010f8
        1285000	       127	00000000	00000013	addi	x0,x0,0	  x0:0x00000000
        1295000	       128	80001100	00000013	addi	x0,x0,0	  x0:0x00000000
        1305000	       129	80001104	004000ef	jal	x1,80001104	  x1=0x80001104
        1315000	       130	00000000	00000013	addi	x0,x0,0	  x0:0x00000000
        1325000	       131	80001104	00000013	addi	x0,x0,0	  x0:0x00000000
        1335000	       132	80001108	008000ef	jal	x1,80001108	  x1=0x80001108
        1345000	       133	00000000	00000013	addi	x0,x0,0	  x0:0x00000000
        1355000	       134	8000110c	00000013	addi	x0,x0,0	  x0:0x00000000
        1365000	       135	80001110	ffdff36f	jal	x6,80001110	  x6=0x80001110
        1375000	       136	00000000	00000013	addi	x0,x0,0	  x0:0x00000000
        1385000	       137	80001108	00000013	addi	x0,x0,0	  x0:0x00000000
        1395000	       138	8000110c	ff5ff0ef	jal	x1,8000110c	  x1=0x8000110c
        1405000	       139	00000000	00000013	addi	x0,x0,0	  x0:0x00000000
        1415000	       140	800010fc	00000013	addi	x0,x0,0	  x0:0x00000000
        1425000	       141	80001100	018000ef	jal	x1,80001100	  x1=0x80001100
        1435000	       142	00000000	00000013	addi	x0,x0,0	  x0:0x00000000
        1445000	       143	80001114	00000013	addi	x0,x0,0	  x0:0x00000000
        1455000	       144	80001118	008000ef	jal	x1,80001118	  x1=0x80001118
        1465000	       145	00000000	00000013	addi	x0,x0,0	  x0:0x00000000
        1475000	       146	8000111c	00000013	addi	x0,x0,0	  x0:0x00000000
        1485000	       147	80001120	410ddf33	sra	x30,x27,x16	 x27:0x00000003 x16:0xecd7d0ad x30=0x00000000
        1495000	       148	80001124	0140036f	jal	x6,80001124	  x6=0x80001124
        1505000	       149	00000000	00000013	addi	x0,x0,0	  x0:0x00000000
        1515000	       150	80001134	00000013	addi	x0,x0,0	  x0:0x00000000
        1525000	       151	80001138	010000ef	jal	x1,80001138	  x1=0x80001138
        1535000	       152	00000000	00000013	addi	x0,x0,0	  x0:0x00000000
        1545000	       153	80001144	00000013	addi	x0,x0,0	  x0:0x00000000
        1555000	       154	80001148	ff9ffdef	jal	x27,80001148	 x27=0x80001148
        1565000	       155	00000000	00000013	addi	x0,x0,0	  x0:0x00000000
        1575000	       156	8000113c	00000013	addi	x0,x0,0	  x0:0x00000000
        1585000	       157	80001140	01c000ef	jal	x1,80001140	  x1=0x80001140
        1595000	       158	00000000	00000013	addi	x0,x0,0	  x0:0x00000000
        1605000	       159	80001158	00000013	addi	x0,x0,0	  x0:0x00000000
        1615000	       160	8000115c	ffdff0ef	jal	x1,8000115c	  x1=0x8000115c
        1625000	       161	00000000	00000013	addi	x0,x0,0	  x0:0x00000000
        1635000	       162	80001154	00000013	addi	x0,x0,0	  x0:0x00000000
        1645000	       163	80001158	fe5ff0ef	jal	x1,80001158	  x1=0x80001158
        1655000	       164	00000000	00000013	addi	x0,x0,0	  x0:0x00000000
        1665000	       165	80001138	00000013	addi	x0,x0,0	  x0:0x00000000
        1675000	       166	8000113c	008000ef	jal	x1,8000113c	  x1=0x8000113c
        1685000	       167	00000000	00000013	addi	x0,x0,0	  x0:0x00000000
        1695000	       168	80001140	00000013	addi	x0,x0,0	  x0:0x00000000
        1705000	       169	80001144	010000ef	jal	x1,80001144	  x1=0x80001144
        1715000	       170	00000000	00000013	addi	x0,x0,0	  x0:0x00000000
        1725000	       171	80001150	00000013	addi	x0,x0,0	  x0:0x00000000
        1735000	       172	80001154	fe1ff0ef	jal	x1,80001154	  x1=0x80001154
        1745000	       173	00000000	00000013	addi	x0,x0,0	  x0:0x00000000
        1755000	       174	80001130	00000013	addi	x0,x0,0	  x0:0x00000000
        1765000	       175	80001134	ff5ffb6f	jal	x22,80001134	 x22=0x80001134
        1775000	       176	00000000	00000013	addi	x0,x0,0	  x0:0x00000000
        1785000	       177	80001124	00000013	addi	x0,x0,0	  x0:0x00000000
        1795000	       178	80001128	00800aef	jal	x21,80001128	 x21=0x80001128
        1805000	       179	00000000	00000013	addi	x0,x0,0	  x0:0x00000000
        1815000	       180	8000112c	00000013	addi	x0,x0,0	  x0:0x00000000
        1825000	       181	80001130	ffdff0ef	jal	x1,80001130	  x1=0x80001130
        1835000	       182	00000000	00000013	addi	x0,x0,0	  x0:0x00000000
        1845000	       183	80001128	00000013	addi	x0,x0,0	  x0:0x00000000
        1855000	       184	8000112c	0200026f	jal	x4,8000112c	  x4=0x8000112c
        1865000	       185	00000000	00000013	addi	x0,x0,0	  x0:0x00000000
        1875000	       186	80001148	00000013	addi	x0,x0,0	  x0:0x00000000
        1885000	       187	8000114c	0040036f	jal	x6,8000114c	  x6=0x8000114c
        1895000	       188	00000000	00000013	addi	x0,x0,0	  x0:0x00000000
        1905000	       189	8000114c	00000013	addi	x0,x0,0	  x0:0x00000000
        1915000	       190	80001150	010000ef	jal	x1,80001150	  x1=0x80001150
        1925000	       191	00000000	00000013	addi	x0,x0,0	  x0:0x00000000
        1935000	       192	8000115c	00000013	addi	x0,x0,0	  x0:0x00000000
        1945000	       193	80001160	40365713	srai	x14,x12,0x3	 x12:0xf895a0cc x14=0xff12b419
        1955000	       194	80001164	0100036f	jal	x6,80001164	  x6=0x80001164
        1965000	       195	00000000	00000013	addi	x0,x0,0	  x0:0x00000000
        1975000	       196	80001170	00000013	addi	x0,x0,0	  x0:0x00000000
        1985000	       197	80001174	00c001ef	jal	x3,80001174	  x3=0x80001174
        1995000	       198	00000000	00000013	addi	x0,x0,0	  x0:0x00000000
        2005000	       199	8000117c	00000013	addi	x0,x0,0	  x0:0x00000000
        2015000	       200	80001180	ffdff36f	jal	x6,80001180	  x6=0x80001180
        2025000	       201	00000000	00000013	addi	x0,x0,0	  x0:0x00000000
        2035000	       202	80001178	00000013	addi	x0,x0,0	  x0:0x00000000
        2045000	       203	8000117c	ff5ff36f	jal	x6,8000117c	  x6=0x8000117c
        2055000	       204	00000000	00000013	addi	x0,x0,0	  x0:0x00000000
        2065000	       205	8000116c	00000013	addi	x0,x0,0	  x0:0x00000000
        2075000	       206	80001170	0140036f	jal	x6,80001170	  x6=0x80001170
        2085000	       207	00000000	00000013	addi	x0,x0,0	  x0:0x00000000
        2095000	       208	80001180	00000013	addi	x0,x0,0	  x0:0x00000000
        2105000	       209	80001184	0040036f	jal	x6,80001184	  x6=0x80001184
        2115000	       210	00000000	00000013	addi	x0,x0,0	  x0:0x00000000
        2125000	       211	80001184	00000013	addi	x0,x0,0	  x0:0x00000000
        2135000	       212	80001188	ff1ff0ef	jal	x1,80001188	  x1=0x80001188
        2145000	       213	00000000	00000013	addi	x0,x0,0	  x0:0x00000000
        2155000	       214	80001174	00000013	addi	x0,x0,0	  x0:0x00000000
        2165000	       215	80001178	ff1ff36f	jal	x6,80001178	  x6=0x80001178
        2175000	       216	00000000	00000013	addi	x0,x0,0	  x0:0x00000000
        2185000	       217	80001164	00000013	addi	x0,x0,0	  x0:0x00000000
        2195000	       218	80001168	024000ef	jal	x1,80001168	  x1=0x80001168
        2205000	       219	00000000	00000013	addi	x0,x0,0	  x0:0x00000000
        2215000	       220	80001188	00000013	addi	x0,x0,0	  x0:0x00000000
        2225000	       221	8000118c	fe1ff0ef	jal	x1,8000118c	  x1=0x8000118c
        2235000	       222	00000000	00000013	addi	x0,x0,0	  x0:0x00000000
        2245000	       223	80001168	00000013	addi	x0,x0,0	  x0:0x00000000
        2255000	       224	8000116c	02400cef	jal	x25,8000116c	 x25=0x8000116c
        2265000	       225	00000000	00000013	addi	x0,x0,0	  x0:0x00000000
        2275000	       226	8000118c	00000013	addi	x0,x0,0	  x0:0x00000000
        2285000	       227	80001190	01d4adb3	slt	x27,x9,x29	  x9:0x80009fc4 x29:0x1ed56292 x27=0x00000001
        2295000	       228	80001194	0180036f	jal	x6,80001194	  x6=0x80001194
        2305000	       229	00000000	00000013	addi	x0,x0,0	  x0:0x00000000
        2315000	       230	800011a8	00000013	addi	x0,x0,0	  x0:0x00000000
        2325000	       231	800011ac	04c000ef	jal	x1,800011ac	  x1=0x800011ac
        2335000	       232	00000000	00000013	addi	x0,x0,0	  x0:0x00000000
        2345000	       233	800011f4	00000013	addi	x0,x0,0	  x0:0x00000000
        2355000	       234	800011f8	fa9ff26f	jal	x4,800011f8	  x4=0x800011f8
        2365000	       235	00000000	00000013	addi	x0,x0,0	  x0:0x00000000
        2375000	       236	8000119c	00000013	addi	x0,x0,0	  x0:0x00000000
        2385000	       237	800011a0	020000ef	jal	x1,800011a0	  x1=0x800011a0
        2395000	       238	00000000	00000013	addi	x0,x0,0	  x0:0x00000000
        2405000	       239	800011bc	00000013	addi	x0,x0,0	  x0:0x00000000
        2415000	       240	800011c0	01000e6f	jal	x28,800011c0	 x28=0x800011c0
        2425000	       241	00000000	00000013	addi	x0,x0,0	  x0:0x00000000
        2435000	       242	800011cc	00000013	addi	x0,x0,0	  x0:0x00000000
        2445000	       243	800011d0	008000ef	jal	x1,800011d0	  x1=0x800011d0
        2455000	       244	00000000	00000013	addi	x0,x0,0	  x0:0x00000000
        2465000	       245	800011d4	00000013	addi	x0,x0,0	  x0:0x00000000
        2475000	       246	800011d8	008000ef	jal	x1,800011d8	  x1=0x800011d8
        2485000	       247	00000000	00000013	addi	x0,x0,0	  x0:0x00000000
        2495000	       248	800011dc	00000013	addi	x0,x0,0	  x0:0x00000000
        2505000	       249	800011e0	fd1ff0ef	jal	x1,800011e0	  x1=0x800011e0
        2515000	       250	00000000	00000013	addi	x0,x0,0	  x0:0x00000000
        2525000	       251	800011ac	00000013	addi	x0,x0,0	  x0:0x00000000
        2535000	       252	800011b0	0040056f	jal	x10,800011b0	 x10=0x800011b0
        2545000	       253	00000000	00000013	addi	x0,x0,0	  x0:0x00000000
        2555000	       254	800011b0	00000013	addi	x0,x0,0	  x0:0x00000000
        2565000	       255	800011b4	03c000ef	jal	x1,800011b4	  x1=0x800011b4
        2575000	       256	00000000	00000013	addi	x0,x0,0	  x0:0x00000000
        2585000	       257	800011ec	00000013	addi	x0,x0,0	  x0:0x00000000
        2595000	       258	800011f0	fd5ff16f	jal	x2,800011f0	  x2=0x800011f0
        2605000	       259	00000000	00000013	addi	x0,x0,0	  x0:0x00000000
        2615000	       260	800011c0	00000013	addi	x0,x0,0	  x0:0x00000000
        2625000	       261	800011c4	018000ef	jal	x1,800011c4	  x1=0x800011c4
        2635000	       262	00000000	00000013	addi	x0,x0,0	  x0:0x00000000
        2645000	       263	800011d8	00000013	addi	x0,x0,0	  x0:0x00000000
        2655000	       264	800011dc	0080036f	jal	x6,800011dc	  x6=0x800011dc
        2665000	       265	00000000	00000013	addi	x0,x0,0	  x0:0x00000000
        2675000	       266	800011e0	00000013	addi	x0,x0,0	  x0:0x00000000
        2685000	       267	800011e4	fb5ff0ef	jal	x1,800011e4	  x1=0x800011e4
        2695000	       268	00000000	00000013	addi	x0,x0,0	  x0:0x00000000
        2705000	       269	80001194	00000013	addi	x0,x0,0	  x0:0x00000000
        2715000	       270	80001198	034000ef	jal	x1,80001198	  x1=0x80001198
        2725000	       271	00000000	00000013	addi	x0,x0,0	  x0:0x00000000
        2735000	       272	800011c8	00000013	addi	x0,x0,0	  x0:0x00000000
        2745000	       273	800011cc	02800def	jal	x27,800011cc	 x27=0x800011cc
        2755000	       274	00000000	00000013	addi	x0,x0,0	  x0:0x00000000
        2765000	       275	800011f0	00000013	addi	x0,x0,0	  x0:0x00000000
        2775000	       276	800011f4	fd5ff56f	jal	x10,800011f4	 x10=0x800011f4
        2785000	       277	00000000	00000013	addi	x0,x0,0	  x0:0x00000000
        2795000	       278	800011c4	00000013	addi	x0,x0,0	  x0:0x00000000
        2805000	       279	800011c8	02000d6f	jal	x26,800011c8	 x26=0x800011c8
        2815000	       280	00000000	00000013	addi	x0,x0,0	  x0:0x00000000
        2825000	       281	800011e4	00000013	addi	x0,x0,0	  x0:0x00000000
        2835000	       282	800011e8	fedff36f	jal	x6,800011e8	  x6=0x800011e8
        2845000	       283	00000000	00000013	addi	x0,x0,0	  x0:0x00000000
        2855000	       284	800011d0	00000013	addi	x0,x0,0	  x0:0x00000000
        2865000	       285	800011d4	fe9ff66f	jal	x12,800011d4	 x12=0x800011d4
        2875000	       286	00000000	00000013	addi	x0,x0,0	  x0:0x00000000
        2885000	       287	800011b8	00000013	addi	x0,x0,0	  x0:0x00000000
        2895000	       288	800011bc	03000d6f	jal	x26,800011bc	 x26=0x800011bc
        2905000	       289	00000000	00000013	addi	x0,x0,0	  x0:0x00000000
        2915000	       290	800011e8	00000013	addi	x0,x0,0	  x0:0x00000000
        2925000	       291	800011ec	fcdff36f	jal	x6,800011ec	  x6=0x800011ec
        2935000	       292	00000000	00000013	addi	x0,x0,0	  x0:0x00000000
        2945000	       293	800011b4	00000013	addi	x0,x0,0	  x0:0x00000000
        2955000	       294	800011b8	fe5ff0ef	jal	x1,800011b8	  x1=0x800011b8
        2965000	       295	00000000	00000013	addi	x0,x0,0	  x0:0x00000000
        2975000	       296	80001198	00000013	addi	x0,x0,0	  x0:0x00000000
        2985000	       297	8000119c	060000ef	jal	x1,8000119c	  x1=0x8000119c
        2995000	       298	00000000	00000013	addi	x0,x0,0	  x0:0x00000000
        3005000	       299	800011f8	00000013	addi	x0,x0,0	  x0:0x00000000
        3015000	       300	800011fc	fa9ff66f	jal	x12,800011fc	 x12=0x800011fc
        3025000	       301	00000000	00000013	addi	x0,x0,0	  x0:0x00000000
        3035000	       302	800011a0	00000013	addi	x0,x0,0	  x0:0x00000000
        3045000	       303	800011a4	0040036f	jal	x6,800011a4	  x6=0x800011a4
        3055000	       304	00000000	00000013	addi	x0,x0,0	  x0:0x00000000
        3065000	       305	800011a4	00000013	addi	x0,x0,0	  x0:0x00000000
        3075000	       306	800011a8	0580036f	jal	x6,800011a8	  x6=0x800011a8
        3085000	       307	00000000	00000013	addi	x0,x0,0	  x0:0x00000000
        3095000	       308	800011fc	00000013	addi	x0,x0,0	  x0:0x00000000
        3105000	       309	80001200	32b37637	lui	x12,0x32b37	 x12=0x32b37000
        3115000	       310	80001204	0180036f	jal	x6,80001204	  x6=0x80001204
        3125000	       311	00000000	00000013	addi	x0,x0,0	  x0:0x00000000
        3135000	       312	80001218	00000013	addi	x0,x0,0	  x0:0x00000000
        3145000	       313	8000121c	ff9ff0ef	jal	x1,8000121c	  x1=0x8000121c
        3155000	       314	00000000	00000013	addi	x0,x0,0	  x0:0x00000000
        3165000	       315	80001210	00000013	addi	x0,x0,0	  x0:0x00000000
        3175000	       316	80001214	ff9ff26f	jal	x4,80001214	  x4=0x80001214
        3185000	       317	00000000	00000013	addi	x0,x0,0	  x0:0x00000000
        3195000	       318	80001208	00000013	addi	x0,x0,0	  x0:0x00000000
        3205000	       319	8000120c	004002ef	jal	x5,8000120c	  x5=0x8000120c
        3215000	       320	00000000	00000013	addi	x0,x0,0	  x0:0x00000000
        3225000	       321	8000120c	00000013	addi	x0,x0,0	  x0:0x00000000
        3235000	       322	80001210	0140026f	jal	x4,80001210	  x4=0x80001210
        3245000	       323	00000000	00000013	addi	x0,x0,0	  x0:0x00000000
        3255000	       324	80001220	00000013	addi	x0,x0,0	  x0:0x00000000
        3265000	       325	80001224	ffdff36f	jal	x6,80001224	  x6=0x80001224
        3275000	       326	00000000	00000013	addi	x0,x0,0	  x0:0x00000000
        3285000	       327	8000121c	00000013	addi	x0,x0,0	  x0:0x00000000
        3295000	       328	80001220	00c0066f	jal	x12,80001220	 x12=0x80001220
        3305000	       329	00000000	00000013	addi	x0,x0,0	  x0:0x00000000
        3315000	       330	80001228	00000013	addi	x0,x0,0	  x0:0x00000000
        3325000	       331	8000122c	fddff0ef	jal	x1,8000122c	  x1=0x8000122c
        3335000	       332	00000000	00000013	addi	x0,x0,0	  x0:0x00000000
        3345000	       333	80001204	00000013	addi	x0,x0,0	  x0:0x00000000
        3355000	       334	80001208	0200036f	jal	x6,80001208	  x6=0x80001208
        3365000	       335	00000000	00000013	addi	x0,x0,0	  x0:0x00000000
        3375000	       336	80001224	00000013	addi	x0,x0,0	  x0:0x00000000
        3385000	       337	80001228	ff1ff0ef	jal	x1,80001228	  x1=0x80001228
        3395000	       338	00000000	00000013	addi	x0,x0,0	  x0:0x00000000
        3405000	       339	80001214	00000013	addi	x0,x0,0	  x0:0x00000000
        3415000	       340	80001218	018000ef	jal	x1,80001218	  x1=0x80001218
        3425000	       341	00000000	00000013	addi	x0,x0,0	  x0:0x00000000
        3435000	       342	8000122c	00000013	addi	x0,x0,0	  x0:0x00000000
        3445000	       343	80001230	00000013	addi	x0,x0,0	  x0:0x00000000
        3455000	       344	80001234	02c0036f	jal	x6,80001234	  x6=0x80001234
        3465000	       345	00000000	00000013	addi	x0,x0,0	  x0:0x00000000
        3475000	       346	8000125c	00000013	addi	x0,x0,0	  x0:0x00000000
        3485000	       347	80001260	024000ef	jal	x1,80001260	  x1=0x80001260
        3495000	       348	00000000	00000013	addi	x0,x0,0	  x0:0x00000000
        3505000	       349	80001280	00000013	addi	x0,x0,0	  x0:0x00000000
        3515000	       350	80001284	ff5ffcef	jal	x25,80001284	 x25=0x80001284
        3525000	       351	00000000	00000013	addi	x0,x0,0	  x0:0x00000000
        3535000	       352	80001274	00000013	addi	x0,x0,0	  x0:0x00000000
        3545000	       353	80001278	fd9ff36f	jal	x6,80001278	  x6=0x80001278
        3555000	       354	00000000	00000013	addi	x0,x0,0	  x0:0x00000000
        3565000	       355	8000124c	00000013	addi	x0,x0,0	  x0:0x00000000
        3575000	       356	80001250	02c001ef	jal	x3,80001250	  x3=0x80001250
        3585000	       357	00000000	00000013	addi	x0,x0,0	  x0:0x00000000
        3595000	       358	80001278	00000013	addi	x0,x0,0	  x0:0x00000000
        3605000	       359	8000127c	fc9ff76f	jal	x14,8000127c	 x14=0x8000127c
        3615000	       360	00000000	00000013	addi	x0,x0,0	  x0:0x00000000
        3625000	       361	80001240	00000013	addi	x0,x0,0	  x0:0x00000000
        3635000	       362	80001244	050000ef	jal	x1,80001244	  x1=0x80001244
        3645000	       363	00000000	00000013	addi	x0,x0,0	  x0:0x00000000
        3655000	       364	80001290	00000013	addi	x0,x0,0	  x0:0x00000000
        3665000	       365	80001294	fe1ff0ef	jal	x1,80001294	  x1=0x80001294
        3675000	       366	00000000	00000013	addi	x0,x0,0	  x0:0x00000000
        3685000	       367	80001270	00000013	addi	x0,x0,0	  x0:0x00000000
        3695000	       368	80001274	fe1ff0ef	jal	x1,80001274	  x1=0x80001274
        3705000	       369	00000000	00000013	addi	x0,x0,0	  x0:0x00000000
        3715000	       370	80001250	00000013	addi	x0,x0,0	  x0:0x00000000
        3725000	       371	80001254	0380016f	jal	x2,80001254	  x2=0x80001254
        3735000	       372	00000000	00000013	addi	x0,x0,0	  x0:0x00000000
        3745000	       373	80001288	00000013	addi	x0,x0,0	  x0:0x00000000
        3755000	       374	8000128c	fe5ff8ef	jal	x17,8000128c	 x17=0x8000128c
        3765000	       375	00000000	00000013	addi	x0,x0,0	  x0:0x00000000
        3775000	       376	8000126c	00000013	addi	x0,x0,0	  x0:0x00000000
        3785000	       377	80001270	fddff0ef	jal	x1,80001270	  x1=0x80001270
        3795000	       378	00000000	00000013	addi	x0,x0,0	  x0:0x00000000
        3805000	       379	80001248	00000013	addi	x0,x0,0	  x0:0x00000000
        3815000	       380	8000124c	05000d6f	jal	x26,8000124c	 x26=0x8000124c
        3825000	       381	00000000	00000013	addi	x0,x0,0	  x0:0x00000000
        3835000	       382	80001298	00000013	addi	x0,x0,0	  x0:0x00000000
        3845000	       383	8000129c	fe5ff0ef	jal	x1,8000129c	  x1=0x8000129c
        3855000	       384	00000000	00000013	addi	x0,x0,0	  x0:0x00000000
        3865000	       385	8000127c	00000013	addi	x0,x0,0	  x0:0x00000000
        3875000	       386	80001280	018000ef	jal	x1,80001280	  x1=0x80001280
        3885000	       387	00000000	00000013	addi	x0,x0,0	  x0:0x00000000
        3895000	       388	80001294	00000013	addi	x0,x0,0	  x0:0x00000000
        3905000	       389	80001298	fb1ff0ef	jal	x1,80001298	  x1=0x80001298
        3915000	       390	00000000	00000013	addi	x0,x0,0	  x0:0x00000000
        3925000	       391	80001244	00000013	addi	x0,x0,0	  x0:0x00000000
        3935000	       392	80001248	040000ef	jal	x1,80001248	  x1=0x80001248
        3945000	       393	00000000	00000013	addi	x0,x0,0	  x0:0x00000000
        3955000	       394	80001284	00000013	addi	x0,x0,0	  x0:0x00000000
        3965000	       395	80001288	fb5ff0ef	jal	x1,80001288	  x1=0x80001288
        3975000	       396	00000000	00000013	addi	x0,x0,0	  x0:0x00000000
        3985000	       397	80001238	00000013	addi	x0,x0,0	  x0:0x00000000
        3995000	       398	8000123c	028000ef	jal	x1,8000123c	  x1=0x8000123c
        4005000	       399	00000000	00000013	addi	x0,x0,0	  x0:0x00000000
        4015000	       400	80001260	00000013	addi	x0,x0,0	  x0:0x00000000
        4025000	       401	80001264	fd5ff0ef	jal	x1,80001264	  x1=0x80001264
        4035000	       402	00000000	00000013	addi	x0,x0,0	  x0:0x00000000
        4045000	       403	80001234	00000013	addi	x0,x0,0	  x0:0x00000000
        4055000	       404	80001238	058000ef	jal	x1,80001238	  x1=0x80001238
        4065000	       405	00000000	00000013	addi	x0,x0,0	  x0:0x00000000
        4075000	       406	8000128c	00000013	addi	x0,x0,0	  x0:0x00000000
        4085000	       407	80001290	fcdff36f	jal	x6,80001290	  x6=0x80001290
        4095000	       408	00000000	00000013	addi	x0,x0,0	  x0:0x00000000
        4105000	       409	80001258	00000013	addi	x0,x0,0	  x0:0x00000000
        4115000	       410	8000125c	ffdff0ef	jal	x1,8000125c	  x1=0x8000125c
        4125000	       411	00000000	00000013	addi	x0,x0,0	  x0:0x00000000
        4135000	       412	80001254	00000013	addi	x0,x0,0	  x0:0x00000000
        4145000	       413	80001258	0100036f	jal	x6,80001258	  x6=0x80001258
        4155000	       414	00000000	00000013	addi	x0,x0,0	  x0:0x00000000
        4165000	       415	80001264	00000013	addi	x0,x0,0	  x0:0x00000000
        4175000	       416	80001268	0040066f	jal	x12,80001268	 x12=0x80001268
        4185000	       417	00000000	00000013	addi	x0,x0,0	  x0:0x00000000
        4195000	       418	80001268	00000013	addi	x0,x0,0	  x0:0x00000000
        4205000	       419	8000126c	fd5ff0ef	jal	x1,8000126c	  x1=0x8000126c
        4215000	       420	00000000	00000013	addi	x0,x0,0	  x0:0x00000000
        4225000	       421	8000123c	00000013	addi	x0,x0,0	  x0:0x00000000
        4235000	       422	80001240	0600036f	jal	x6,80001240	  x6=0x80001240
        4245000	       423	00000000	00000013	addi	x0,x0,0	  x0:0x00000000
        4255000	       424	8000129c	00000013	addi	x0,x0,0	  x0:0x00000000
        4265000	       425	800012a0	42528213	addi	x4,x5,1061	  x5:0x8000120c  x4=0x80001631
        4275000	       426	800012a4	0580036f	jal	x6,800012a4	  x6=0x800012a4
        4285000	       427	00000000	00000013	addi	x0,x0,0	  x0:0x00000000
        4295000	       428	800012f8	00000013	addi	x0,x0,0	  x0:0x00000000
        4305000	       429	800012fc	fb1ff0ef	jal	x1,800012fc	  x1=0x800012fc
        4315000	       430	00000000	00000013	addi	x0,x0,0	  x0:0x00000000
        4325000	       431	800012a8	00000013	addi	x0,x0,0	  x0:0x00000000
        4335000	       432	800012ac	ffdff86f	jal	x16,800012ac	 x16=0x800012ac
        4345000	       433	00000000	00000013	addi	x0,x0,0	  x0:0x00000000
        4355000	       434	800012a4	00000013	addi	x0,x0,0	  x0:0x00000000
        4365000	       435	800012a8	048000ef	jal	x1,800012a8	  x1=0x800012a8
        4375000	       436	00000000	00000013	addi	x0,x0,0	  x0:0x00000000
        4385000	       437	800012ec	00000013	addi	x0,x0,0	  x0:0x00000000
        4395000	       438	800012f0	ff9ff0ef	jal	x1,800012f0	  x1=0x800012f0
        4405000	       439	00000000	00000013	addi	x0,x0,0	  x0:0x00000000
        4415000	       440	800012e4	00000013	addi	x0,x0,0	  x0:0x00000000
        4425000	       441	800012e8	ff5ff46f	jal	x8,800012e8	  x8=0x800012e8
        4435000	       442	00000000	00000013	addi	x0,x0,0	  x0:0x00000000
        4445000	       443	800012d8	00000013	addi	x0,x0,0	  x0:0x00000000
        4455000	       444	800012dc	fddff0ef	jal	x1,800012dc	  x1=0x800012dc
        4465000	       445	00000000	00000013	addi	x0,x0,0	  x0:0x00000000
        4475000	       446	800012b4	00000013	addi	x0,x0,0	  x0:0x00000000
        4485000	       447	800012b8	02c000ef	jal	x1,800012b8	  x1=0x800012b8
        4495000	       448	00000000	00000013	addi	x0,x0,0	  x0:0x00000000
        4505000	       449	800012e0	00000013	addi	x0,x0,0	  x0:0x00000000
        4515000	       450	800012e4	fd1ff0ef	jal	x1,800012e4	  x1=0x800012e4
        4525000	       451	00000000	00000013	addi	x0,x0,0	  x0:0x00000000
        4535000	       452	800012b0	00000013	addi	x0,x0,0	  x0:0x00000000
        4545000	       453	800012b4	050000ef	jal	x1,800012b4	  x1=0x800012b4
        4555000	       454	00000000	00000013	addi	x0,x0,0	  x0:0x00000000
        4565000	       455	80001300	00000013	addi	x0,x0,0	  x0:0x00000000
        4575000	       456	80001304	fe9ffbef	jal	x23,80001304	 x23=0x80001304
        4585000	       457	00000000	00000013	addi	x0,x0,0	  x0:0x00000000
        4595000	       458	800012e8	00000013	addi	x0,x0,0	  x0:0x00000000
        4605000	       459	800012ec	fd1ffbef	jal	x23,800012ec	 x23=0x800012ec
        4615000	       460	00000000	00000013	addi	x0,x0,0	  x0:0x00000000
        4625000	       461	800012b8	00000013	addi	x0,x0,0	  x0:0x00000000
        4635000	       462	800012bc	03c0036f	jal	x6,800012bc	  x6=0x800012bc
        4645000	       463	00000000	00000013	addi	x0,x0,0	  x0:0x00000000
        4655000	       464	800012f4	00000013	addi	x0,x0,0	  x0:0x00000000
        4665000	       465	800012f8	fd5ffc6f	jal	x24,800012f8	 x24=0x800012f8
        4675000	       466	00000000	00000013	addi	x0,x0,0	  x0:0x00000000
        4685000	       467	800012c8	00000013	addi	x0,x0,0	  x0:0x00000000
        4695000	       468	800012cc	ff9ff36f	jal	x6,800012cc	  x6=0x800012cc
        4705000	       469	00000000	00000013	addi	x0,x0,0	  x0:0x00000000
        4715000	       470	800012c0	00000013	addi	x0,x0,0	  x0:0x00000000
        4725000	       471	800012c4	0040036f	jal	x6,800012c4	  x6=0x800012c4
        4735000	       472	00000000	00000013	addi	x0,x0,0	  x0:0x00000000
        4745000	       473	800012c4	00000013	addi	x0,x0,0	  x0:0x00000000
        4755000	       474	800012c8	00c0066f	jal	x12,800012c8	 x12=0x800012c8
        4765000	       475	00000000	00000013	addi	x0,x0,0	  x0:0x00000000
        4775000	       476	800012d0	00000013	addi	x0,x0,0	  x0:0x00000000
        4785000	       477	800012d4	038000ef	jal	x1,800012d4	  x1=0x800012d4
        4795000	       478	00000000	00000013	addi	x0,x0,0	  x0:0x00000000
        4805000	       479	80001308	00000013	addi	x0,x0,0	  x0:0x00000000
        4815000	       480	8000130c	fa5ff0ef	jal	x1,8000130c	  x1=0x8000130c
        4825000	       481	00000000	00000013	addi	x0,x0,0	  x0:0x00000000
        4835000	       482	800012ac	00000013	addi	x0,x0,0	  x0:0x00000000
        4845000	       483	800012b0	0440036f	jal	x6,800012b0	  x6=0x800012b0
        4855000	       484	00000000	00000013	addi	x0,x0,0	  x0:0x00000000
        4865000	       485	800012f0	00000013	addi	x0,x0,0	  x0:0x00000000
        4875000	       486	800012f4	0140036f	jal	x6,800012f4	  x6=0x800012f4
        4885000	       487	00000000	00000013	addi	x0,x0,0	  x0:0x00000000
        4895000	       488	80001304	00000013	addi	x0,x0,0	  x0:0x00000000
        4905000	       489	80001308	fd1ff36f	jal	x6,80001308	  x6=0x80001308
        4915000	       490	00000000	00000013	addi	x0,x0,0	  x0:0x00000000
        4925000	       491	800012d4	00000013	addi	x0,x0,0	  x0:0x00000000
        4935000	       492	800012d8	008000ef	jal	x1,800012d8	  x1=0x800012d8
        4945000	       493	00000000	00000013	addi	x0,x0,0	  x0:0x00000000
        4955000	       494	800012dc	00000013	addi	x0,x0,0	  x0:0x00000000
        4965000	       495	800012e0	ff1ff0ef	jal	x1,800012e0	  x1=0x800012e0
        4975000	       496	00000000	00000013	addi	x0,x0,0	  x0:0x00000000
        4985000	       497	800012cc	00000013	addi	x0,x0,0	  x0:0x00000000
        4995000	       498	800012d0	ff1ff36f	jal	x6,800012d0	  x6=0x800012d0
        5005000	       499	00000000	00000013	addi	x0,x0,0	  x0:0x00000000
        5015000	       500	800012bc	00000013	addi	x0,x0,0	  x0:0x00000000
        5025000	       501	800012c0	0400076f	jal	x14,800012c0	 x14=0x800012c0
        5035000	       502	00000000	00000013	addi	x0,x0,0	  x0:0x00000000
        5045000	       503	800012fc	00000013	addi	x0,x0,0	  x0:0x00000000
        5055000	       504	80001300	0100026f	jal	x4,80001300	  x4=0x80001300
        5065000	       505	00000000	00000013	addi	x0,x0,0	  x0:0x00000000
        5075000	       506	8000130c	00000013	addi	x0,x0,0	  x0:0x00000000
        5085000	       507	80001310	3ffab313	sltiu	x6,x21,1023	 x21:0x80001128  x6=0x00000000
        5095000	       508	80001314	0100036f	jal	x6,80001314	  x6=0x80001314
        5105000	       509	00000000	00000013	addi	x0,x0,0	  x0:0x00000000
        5115000	       510	80001320	00000013	addi	x0,x0,0	  x0:0x00000000
        5125000	       511	80001324	024000ef	jal	x1,80001324	  x1=0x80001324
        5135000	       512	00000000	00000013	addi	x0,x0,0	  x0:0x00000000
        5145000	       513	80001344	00000013	addi	x0,x0,0	  x0:0x00000000
        5155000	       514	80001348	0040036f	jal	x6,80001348	  x6=0x80001348
        5165000	       515	00000000	00000013	addi	x0,x0,0	  x0:0x00000000
        5175000	       516	80001348	00000013	addi	x0,x0,0	  x0:0x00000000
        5185000	       517	8000134c	fe1ff0ef	jal	x1,8000134c	  x1=0x8000134c
        5195000	       518	00000000	00000013	addi	x0,x0,0	  x0:0x00000000
        5205000	       519	80001328	00000013	addi	x0,x0,0	  x0:0x00000000
        5215000	       520	8000132c	0300036f	jal	x6,8000132c	  x6=0x8000132c
        5225000	       521	00000000	00000013	addi	x0,x0,0	  x0:0x00000000
        5235000	       522	80001358	00000013	addi	x0,x0,0	  x0:0x00000000
        5245000	       523	8000135c	fbdff36f	jal	x6,8000135c	  x6=0x8000135c
        5255000	       524	00000000	00000013	addi	x0,x0,0	  x0:0x00000000
        5265000	       525	80001314	00000013	addi	x0,x0,0	  x0:0x00000000
        5275000	       526	80001318	0100036f	jal	x6,80001318	  x6=0x80001318
        5285000	       527	00000000	00000013	addi	x0,x0,0	  x0:0x00000000
        5295000	       528	80001324	00000013	addi	x0,x0,0	  x0:0x00000000
        5305000	       529	80001328	0100036f	jal	x6,80001328	  x6=0x80001328
        5315000	       530	00000000	00000013	addi	x0,x0,0	  x0:0x00000000
        5325000	       531	80001334	00000013	addi	x0,x0,0	  x0:0x00000000
        5335000	       532	80001338	0200036f	jal	x6,80001338	  x6=0x80001338
        5345000	       533	00000000	00000013	addi	x0,x0,0	  x0:0x00000000
        5355000	       534	80001354	00000013	addi	x0,x0,0	  x0:0x00000000
        5365000	       535	80001358	fedff6ef	jal	x13,80001358	 x13=0x80001358
        5375000	       536	00000000	00000013	addi	x0,x0,0	  x0:0x00000000
        5385000	       537	80001340	00000013	addi	x0,x0,0	  x0:0x00000000
        5395000	       538	80001344	fddff26f	jal	x4,80001344	  x4=0x80001344
        5405000	       539	00000000	00000013	addi	x0,x0,0	  x0:0x00000000
        5415000	       540	8000131c	00000013	addi	x0,x0,0	  x0:0x00000000
        5425000	       541	80001320	030000ef	jal	x1,80001320	  x1=0x80001320
        5435000	       542	00000000	00000013	addi	x0,x0,0	  x0:0x00000000
        5445000	       543	8000134c	00000013	addi	x0,x0,0	  x0:0x00000000
        5455000	       544	80001350	fe1ff36f	jal	x6,80001350	  x6=0x80001350
        5465000	       545	00000000	00000013	addi	x0,x0,0	  x0:0x00000000
        5475000	       546	8000132c	00000013	addi	x0,x0,0	  x0:0x00000000
        5485000	       547	80001330	00c000ef	jal	x1,80001330	  x1=0x80001330
        5495000	       548	00000000	00000013	addi	x0,x0,0	  x0:0x00000000
        5505000	       549	80001338	00000013	addi	x0,x0,0	  x0:0x00000000
        5515000	       550	8000133c	fe1ff0ef	jal	x1,8000133c	  x1=0x8000133c
        5525000	       551	00000000	00000013	addi	x0,x0,0	  x0:0x00000000
        5535000	       552	80001318	00000013	addi	x0,x0,0	  x0:0x00000000
        5545000	       553	8000131c	018000ef	jal	x1,8000131c	  x1=0x8000131c
        5555000	       554	00000000	00000013	addi	x0,x0,0	  x0:0x00000000
        5565000	       555	80001330	00000013	addi	x0,x0,0	  x0:0x00000000
        5575000	       556	80001334	00c000ef	jal	x1,80001334	  x1=0x80001334
        5585000	       557	00000000	00000013	addi	x0,x0,0	  x0:0x00000000
        5595000	       558	8000133c	00000013	addi	x0,x0,0	  x0:0x00000000
        5605000	       559	80001340	014000ef	jal	x1,80001340	  x1=0x80001340
        5615000	       560	00000000	00000013	addi	x0,x0,0	  x0:0x00000000
        5625000	       561	80001350	00000013	addi	x0,x0,0	  x0:0x00000000
        5635000	       562	80001354	00c000ef	jal	x1,80001354	  x1=0x80001354
        5645000	       563	00000000	00000013	addi	x0,x0,0	  x0:0x00000000
        5655000	       564	8000135c	00000013	addi	x0,x0,0	  x0:0x00000000
        5665000	       565	80001360	bdedef13	ori	x30,x27,-1058	 x27:0x800011cc x30=0xfffffbde
        5675000	       566	80001364	0100036f	jal	x6,80001364	  x6=0x80001364
        5685000	       567	00000000	00000013	addi	x0,x0,0	  x0:0x00000000
        5695000	       568	80001370	00000013	addi	x0,x0,0	  x0:0x00000000
        5705000	       569	80001374	ff9ff7ef	jal	x15,80001374	 x15=0x80001374
        5715000	       570	00000000	00000013	addi	x0,x0,0	  x0:0x00000000
        5725000	       571	80001368	00000013	addi	x0,x0,0	  x0:0x00000000
        5735000	       572	8000136c	00c0036f	jal	x6,8000136c	  x6=0x8000136c
        5745000	       573	00000000	00000013	addi	x0,x0,0	  x0:0x00000000
        5755000	       574	80001374	00000013	addi	x0,x0,0	  x0:0x00000000
        5765000	       575	80001378	01000d6f	jal	x26,80001378	 x26=0x80001378
        5775000	       576	00000000	00000013	addi	x0,x0,0	  x0:0x00000000
        5785000	       577	80001384	00000013	addi	x0,x0,0	  x0:0x00000000
        5795000	       578	80001388	00c00def	jal	x27,80001388	 x27=0x80001388
        5805000	       579	00000000	00000013	addi	x0,x0,0	  x0:0x00000000
        5815000	       580	80001390	00000013	addi	x0,x0,0	  x0:0x00000000
        5825000	       581	80001394	004000ef	jal	x1,80001394	  x1=0x80001394
        5835000	       582	00000000	00000013	addi	x0,x0,0	  x0:0x00000000
        5845000	       583	80001394	00000013	addi	x0,x0,0	  x0:0x00000000
        5855000	       584	80001398	fe5ff0ef	jal	x1,80001398	  x1=0x80001398
        5865000	       585	00000000	00000013	addi	x0,x0,0	  x0:0x00000000
        5875000	       586	80001378	00000013	addi	x0,x0,0	  x0:0x00000000
        5885000	       587	8000137c	ff5ff0ef	jal	x1,8000137c	  x1=0x8000137c
        5895000	       588	00000000	00000013	addi	x0,x0,0	  x0:0x00000000
        5905000	       589	8000136c	00000013	addi	x0,x0,0	  x0:0x00000000
        5915000	       590	80001370	ff9ff66f	jal	x12,80001370	 x12=0x80001370
        5925000	       591	00000000	00000013	addi	x0,x0,0	  x0:0x00000000
        5935000	       592	80001364	00000013	addi	x0,x0,0	  x0:0x00000000
        5945000	       593	80001368	028002ef	jal	x5,80001368	  x5=0x80001368
        5955000	       594	00000000	00000013	addi	x0,x0,0	  x0:0x00000000
        5965000	       595	8000138c	00000013	addi	x0,x0,0	  x0:0x00000000
        5975000	       596	80001390	ff5ff36f	jal	x6,80001390	  x6=0x80001390
        5985000	       597	00000000	00000013	addi	x0,x0,0	  x0:0x00000000
        5995000	       598	80001380	00000013	addi	x0,x0,0	  x0:0x00000000
        6005000	       599	80001384	ffdff36f	jal	x6,80001384	  x6=0x80001384
        6015000	       600	00000000	00000013	addi	x0,x0,0	  x0:0x00000000
        6025000	       601	8000137c	00000013	addi	x0,x0,0	  x0:0x00000000
        6035000	       602	80001380	00c001ef	jal	x3,80001380	  x3=0x80001380
        6045000	       603	00000000	00000013	addi	x0,x0,0	  x0:0x00000000
        6055000	       604	80001388	00000013	addi	x0,x0,0	  x0:0x00000000
        6065000	       605	8000138c	0100036f	jal	x6,8000138c	  x6=0x8000138c
        6075000	       606	00000000	00000013	addi	x0,x0,0	  x0:0x00000000
        6085000	       607	80001398	00000013	addi	x0,x0,0	  x0:0x00000000
        6095000	       608	8000139c	016a52b3	srl	x5,x20,x22	 x20:0x80009f5c x22:0x80001134  x5=0x00000800
        6105000	       609	800013a0	0280036f	jal	x6,800013a0	  x6=0x800013a0
        6115000	       610	00000000	00000013	addi	x0,x0,0	  x0:0x00000000
        6125000	       611	800013c4	00000013	addi	x0,x0,0	  x0:0x00000000
        6135000	       612	800013c8	fedff66f	jal	x12,800013c8	 x12=0x800013c8
        6145000	       613	00000000	00000013	addi	x0,x0,0	  x0:0x00000000
        6155000	       614	800013b0	00000013	addi	x0,x0,0	  x0:0x00000000
        6165000	       615	800013b4	0100016f	jal	x2,800013b4	  x2=0x800013b4
        6175000	       616	00000000	00000013	addi	x0,x0,0	  x0:0x00000000
        6185000	       617	800013c0	00000013	addi	x0,x0,0	  x0:0x00000000
        6195000	       618	800013c4	fe1ff26f	jal	x4,800013c4	  x4=0x800013c4
        6205000	       619	00000000	00000013	addi	x0,x0,0	  x0:0x00000000
        6215000	       620	800013a0	00000013	addi	x0,x0,0	  x0:0x00000000
        6225000	       621	800013a4	00400d6f	jal	x26,800013a4	 x26=0x800013a4
        6235000	       622	00000000	00000013	addi	x0,x0,0	  x0:0x00000000
        6245000	       623	800013a4	00000013	addi	x0,x0,0	  x0:0x00000000
        6255000	       624	800013a8	0180036f	jal	x6,800013a8	  x6=0x800013a8
        6265000	       625	00000000	00000013	addi	x0,x0,0	  x0:0x00000000
        6275000	       626	800013bc	00000013	addi	x0,x0,0	  x0:0x00000000
        6285000	       627	800013c0	ffdff0ef	jal	x1,800013c0	  x1=0x800013c0
        6295000	       628	00000000	00000013	addi	x0,x0,0	  x0:0x00000000
        6305000	       629	800013b8	00000013	addi	x0,x0,0	  x0:0x00000000
        6315000	       630	800013bc	ffdff1ef	jal	x3,800013bc	  x3=0x800013bc
        6325000	       631	00000000	00000013	addi	x0,x0,0	  x0:0x00000000
        6335000	       632	800013b4	00000013	addi	x0,x0,0	  x0:0x00000000
        6345000	       633	800013b8	ff9ff0ef	jal	x1,800013b8	  x1=0x800013b8
        6355000	       634	00000000	00000013	addi	x0,x0,0	  x0:0x00000000
        6365000	       635	800013ac	00000013	addi	x0,x0,0	  x0:0x00000000
        6375000	       636	800013b0	ffdff6ef	jal	x13,800013b0	 x13=0x800013b0
        6385000	       637	00000000	00000013	addi	x0,x0,0	  x0:0x00000000
        6395000	       638	800013a8	00000013	addi	x0,x0,0	  x0:0x00000000
        6405000	       639	800013ac	020000ef	jal	x1,800013ac	  x1=0x800013ac
        6415000	       640	00000000	00000013	addi	x0,x0,0	  x0:0x00000000
        6425000	       641	800013c8	00000013	addi	x0,x0,0	  x0:0x00000000
        6435000	       642	800013cc	017b4833	xor	x16,x22,x23	 x22:0x80001134 x23:0x800012ec x16=0x000003d8
        6445000	       643	800013d0	03c0036f	jal	x6,800013d0	  x6=0x800013d0
        6455000	       644	00000000	00000013	addi	x0,x0,0	  x0:0x00000000
        6465000	       645	80001408	00000013	addi	x0,x0,0	  x0:0x00000000
        6475000	       646	8000140c	ffdff0ef	jal	x1,8000140c	  x1=0x8000140c
        6485000	       647	00000000	00000013	addi	x0,x0,0	  x0:0x00000000
        6495000	       648	80001404	00000013	addi	x0,x0,0	  x0:0x00000000
        6505000	       649	80001408	fd9ff0ef	jal	x1,80001408	  x1=0x80001408
        6515000	       650	00000000	00000013	addi	x0,x0,0	  x0:0x00000000
        6525000	       651	800013dc	00000013	addi	x0,x0,0	  x0:0x00000000
        6535000	       652	800013e0	01c0036f	jal	x6,800013e0	  x6=0x800013e0
        6545000	       653	00000000	00000013	addi	x0,x0,0	  x0:0x00000000
        6555000	       654	800013f8	00000013	addi	x0,x0,0	  x0:0x00000000
        6565000	       655	800013fc	ff9fffef	jal	x31,800013fc	 x31=0x800013fc
        6575000	       656	00000000	00000013	addi	x0,x0,0	  x0:0x00000000
        6585000	       657	800013f0	00000013	addi	x0,x0,0	  x0:0x00000000
        6595000	       658	800013f4	020000ef	jal	x1,800013f4	  x1=0x800013f4
        6605000	       659	00000000	00000013	addi	x0,x0,0	  x0:0x00000000
        6615000	       660	80001410	00000013	addi	x0,x0,0	  x0:0x00000000
        6625000	       661	80001414	fd5ff0ef	jal	x1,80001414	  x1=0x80001414
        6635000	       662	00000000	00000013	addi	x0,x0,0	  x0:0x00000000
        6645000	       663	800013e4	00000013	addi	x0,x0,0	  x0:0x00000000
        6655000	       664	800013e8	fedff0ef	jal	x1,800013e8	  x1=0x800013e8
        6665000	       665	00000000	00000013	addi	x0,x0,0	  x0:0x00000000
        6675000	       666	800013d0	00000013	addi	x0,x0,0	  x0:0x00000000
        6685000	       667	800013d4	030000ef	jal	x1,800013d4	  x1=0x800013d4
        6695000	       668	00000000	00000013	addi	x0,x0,0	  x0:0x00000000
        6705000	       669	80001400	00000013	addi	x0,x0,0	  x0:0x00000000
        6715000	       670	80001404	fd9ff36f	jal	x6,80001404	  x6=0x80001404
        6725000	       671	00000000	00000013	addi	x0,x0,0	  x0:0x00000000
        6735000	       672	800013d8	00000013	addi	x0,x0,0	  x0:0x00000000
        6745000	       673	800013dc	014000ef	jal	x1,800013dc	  x1=0x800013dc
        6755000	       674	00000000	00000013	addi	x0,x0,0	  x0:0x00000000
        6765000	       675	800013ec	00000013	addi	x0,x0,0	  x0:0x00000000
        6775000	       676	800013f0	028000ef	jal	x1,800013f0	  x1=0x800013f0
        6785000	       677	00000000	00000013	addi	x0,x0,0	  x0:0x00000000
        6795000	       678	80001414	00000013	addi	x0,x0,0	  x0:0x00000000
        6805000	       679	80001418	ff9ff36f	jal	x6,80001418	  x6=0x80001418
        6815000	       680	00000000	00000013	addi	x0,x0,0	  x0:0x00000000
        6825000	       681	8000140c	00000013	addi	x0,x0,0	  x0:0x00000000
        6835000	       682	80001410	00c00def	jal	x27,80001410	 x27=0x80001410
        6845000	       683	00000000	00000013	addi	x0,x0,0	  x0:0x00000000
        6855000	       684	80001418	00000013	addi	x0,x0,0	  x0:0x00000000
        6865000	       685	8000141c	fbdff0ef	jal	x1,8000141c	  x1=0x8000141c
        6875000	       686	00000000	00000013	addi	x0,x0,0	  x0:0x00000000
        6885000	       687	800013d4	00000013	addi	x0,x0,0	  x0:0x00000000
        6895000	       688	800013d8	00c00fef	jal	x31,800013d8	 x31=0x800013d8
        6905000	       689	00000000	00000013	addi	x0,x0,0	  x0:0x00000000
        6915000	       690	800013e0	00000013	addi	x0,x0,0	  x0:0x00000000
        6925000	       691	800013e4	008000ef	jal	x1,800013e4	  x1=0x800013e4
        6935000	       692	00000000	00000013	addi	x0,x0,0	  x0:0x00000000
        6945000	       693	800013e8	00000013	addi	x0,x0,0	  x0:0x00000000
        6955000	       694	800013ec	0140036f	jal	x6,800013ec	  x6=0x800013ec
        6965000	       695	00000000	00000013	addi	x0,x0,0	  x0:0x00000000
        6975000	       696	800013fc	00000013	addi	x0,x0,0	  x0:0x00000000
        6985000	       697	80001400	ff9ff0ef	jal	x1,80001400	  x1=0x80001400
        6995000	       698	00000000	00000013	addi	x0,x0,0	  x0:0x00000000
        7005000	       699	800013f4	00000013	addi	x0,x0,0	  x0:0x00000000
        7015000	       700	800013f8	028000ef	jal	x1,800013f8	  x1=0x800013f8
        7025000	       701	00000000	00000013	addi	x0,x0,0	  x0:0x00000000
        7035000	       702	8000141c	00000013	addi	x0,x0,0	  x0:0x00000000
        7045000	       703	80001420	00400def	jal	x27,80001420	 x27=0x80001420
        7055000	       704	00000000	00000013	addi	x0,x0,0	  x0:0x00000000
        7065000	       705	80001420	00000013	addi	x0,x0,0	  x0:0x00000000
        7075000	       706	80001424	00a41f13	slli	x30,x8,0xa	  x8:0x800012e8 x30=0x004ba000
        7085000	       707	80001428	0200036f	jal	x6,80001428	  x6=0x80001428
        7095000	       708	00000000	00000013	addi	x0,x0,0	  x0:0x00000000
        7105000	       709	80001444	00000013	addi	x0,x0,0	  x0:0x00000000
        7115000	       710	80001448	00c000ef	jal	x1,80001448	  x1=0x80001448
        7125000	       711	00000000	00000013	addi	x0,x0,0	  x0:0x00000000
        7135000	       712	80001450	00000013	addi	x0,x0,0	  x0:0x00000000
        7145000	       713	80001454	fe1ff0ef	jal	x1,80001454	  x1=0x80001454
        7155000	       714	00000000	00000013	addi	x0,x0,0	  x0:0x00000000
        7165000	       715	80001430	00000013	addi	x0,x0,0	  x0:0x00000000
        7175000	       716	80001434	00c0036f	jal	x6,80001434	  x6=0x80001434
        7185000	       717	00000000	00000013	addi	x0,x0,0	  x0:0x00000000
        7195000	       718	8000143c	00000013	addi	x0,x0,0	  x0:0x00000000
        7205000	       719	80001440	ff9ff36f	jal	x6,80001440	  x6=0x80001440
        7215000	       720	00000000	00000013	addi	x0,x0,0	  x0:0x00000000
        7225000	       721	80001434	00000013	addi	x0,x0,0	  x0:0x00000000
        7235000	       722	80001438	00c001ef	jal	x3,80001438	  x3=0x80001438
        7245000	       723	00000000	00000013	addi	x0,x0,0	  x0:0x00000000
        7255000	       724	80001440	00000013	addi	x0,x0,0	  x0:0x00000000
        7265000	       725	80001444	ff9ff0ef	jal	x1,80001444	  x1=0x80001444
        7275000	       726	00000000	00000013	addi	x0,x0,0	  x0:0x00000000
        7285000	       727	80001438	00000013	addi	x0,x0,0	  x0:0x00000000
        7295000	       728	8000143c	ff5ff0ef	jal	x1,8000143c	  x1=0x8000143c
        7305000	       729	00000000	00000013	addi	x0,x0,0	  x0:0x00000000
        7315000	       730	8000142c	00000013	addi	x0,x0,0	  x0:0x00000000
        7325000	       731	80001430	01c0056f	jal	x10,80001430	 x10=0x80001430
        7335000	       732	00000000	00000013	addi	x0,x0,0	  x0:0x00000000
        7345000	       733	80001448	00000013	addi	x0,x0,0	  x0:0x00000000
        7355000	       734	8000144c	fe1ff0ef	jal	x1,8000144c	  x1=0x8000144c
        7365000	       735	00000000	00000013	addi	x0,x0,0	  x0:0x00000000
        7375000	       736	80001428	00000013	addi	x0,x0,0	  x0:0x00000000
        7385000	       737	8000142c	0240046f	jal	x8,8000142c	  x8=0x8000142c
        7395000	       738	00000000	00000013	addi	x0,x0,0	  x0:0x00000000
        7405000	       739	8000144c	00000013	addi	x0,x0,0	  x0:0x00000000
        7415000	       740	80001450	008000ef	jal	x1,80001450	  x1=0x80001450
        7425000	       741	00000000	00000013	addi	x0,x0,0	  x0:0x00000000
        7435000	       742	80001454	00000013	addi	x0,x0,0	  x0:0x00000000
        7445000	       743	80001458	019b5713	srli	x14,x22,0x19	 x22:0x80001134 x14=0x00000040
        7455000	       744	8000145c	04c0036f	jal	x6,8000145c	  x6=0x8000145c
        7465000	       745	00000000	00000013	addi	x0,x0,0	  x0:0x00000000
        7475000	       746	800014a4	00000013	addi	x0,x0,0	  x0:0x00000000
        7485000	       747	800014a8	0280036f	jal	x6,800014a8	  x6=0x800014a8
        7495000	       748	00000000	00000013	addi	x0,x0,0	  x0:0x00000000
        7505000	       749	800014cc	00000013	addi	x0,x0,0	  x0:0x00000000
        7515000	       750	800014d0	ffdff0ef	jal	x1,800014d0	  x1=0x800014d0
        7525000	       751	00000000	00000013	addi	x0,x0,0	  x0:0x00000000
        7535000	       752	800014c8	00000013	addi	x0,x0,0	  x0:0x00000000
        7545000	       753	800014cc	f9dff0ef	jal	x1,800014cc	  x1=0x800014cc
        7555000	       754	00000000	00000013	addi	x0,x0,0	  x0:0x00000000
        7565000	       755	80001464	00000013	addi	x0,x0,0	  x0:0x00000000
        7575000	       756	80001468	0180036f	jal	x6,80001468	  x6=0x80001468
        7585000	       757	00000000	00000013	addi	x0,x0,0	  x0:0x00000000
        7595000	       758	8000147c	00000013	addi	x0,x0,0	  x0:0x00000000
        7605000	       759	80001480	018001ef	jal	x3,80001480	  x3=0x80001480
        7615000	       760	00000000	00000013	addi	x0,x0,0	  x0:0x00000000
        7625000	       761	80001494	00000013	addi	x0,x0,0	  x0:0x00000000
        7635000	       762	80001498	fc9ff76f	jal	x14,80001498	 x14=0x80001498
        7645000	       763	00000000	00000013	addi	x0,x0,0	  x0:0x00000000
        7655000	       764	8000145c	00000013	addi	x0,x0,0	  x0:0x00000000
        7665000	       765	80001460	024000ef	jal	x1,80001460	  x1=0x80001460
        7675000	       766	00000000	00000013	addi	x0,x0,0	  x0:0x00000000
        7685000	       767	80001480	00000013	addi	x0,x0,0	  x0:0x00000000
        7695000	       768	80001484	030000ef	jal	x1,80001484	  x1=0x80001484
        7705000	       769	00000000	00000013	addi	x0,x0,0	  x0:0x00000000
        7715000	       770	800014b0	00000013	addi	x0,x0,0	  x0:0x00000000
        7725000	       771	800014b4	02000b6f	jal	x22,800014b4	 x22=0x800014b4
        7735000	       772	00000000	00000013	addi	x0,x0,0	  x0:0x00000000
        7745000	       773	800014d0	00000013	addi	x0,x0,0	  x0:0x00000000
        7755000	       774	800014d4	fe9ff0ef	jal	x1,800014d4	  x1=0x800014d4
        7765000	       775	00000000	00000013	addi	x0,x0,0	  x0:0x00000000
        7775000	       776	800014b8	00000013	addi	x0,x0,0	  x0:0x00000000
        7785000	       777	800014bc	fe1ff26f	jal	x4,800014bc	  x4=0x800014bc
        7795000	       778	00000000	00000013	addi	x0,x0,0	  x0:0x00000000
        7805000	       779	80001498	00000013	addi	x0,x0,0	  x0:0x00000000
        7815000	       780	8000149c	ff5ff86f	jal	x16,8000149c	 x16=0x8000149c
        7825000	       781	00000000	00000013	addi	x0,x0,0	  x0:0x00000000
        7835000	       782	8000148c	00000013	addi	x0,x0,0	  x0:0x00000000
        7845000	       783	80001490	004000ef	jal	x1,80001490	  x1=0x80001490
        7855000	       784	00000000	00000013	addi	x0,x0,0	  x0:0x00000000
        7865000	       785	80001490	00000013	addi	x0,x0,0	  x0:0x00000000
        7875000	       786	80001494	ff9ff36f	jal	x6,80001494	  x6=0x80001494
        7885000	       787	00000000	00000013	addi	x0,x0,0	  x0:0x00000000
        7895000	       788	80001488	00000013	addi	x0,x0,0	  x0:0x00000000
        7905000	       789	8000148c	0380036f	jal	x6,8000148c	  x6=0x8000148c
        7915000	       790	00000000	00000013	addi	x0,x0,0	  x0:0x00000000
        7925000	       791	800014c0	00000013	addi	x0,x0,0	  x0:0x00000000
        7935000	       792	800014c4	fedfffef	jal	x31,800014c4	 x31=0x800014c4
        7945000	       793	00000000	00000013	addi	x0,x0,0	  x0:0x00000000
        7955000	       794	800014ac	00000013	addi	x0,x0,0	  x0:0x00000000
        7965000	       795	800014b0	fbdff0ef	jal	x1,800014b0	  x1=0x800014b0
        7975000	       796	00000000	00000013	addi	x0,x0,0	  x0:0x00000000
        7985000	       797	80001468	00000013	addi	x0,x0,0	  x0:0x00000000
        7995000	       798	8000146c	054008ef	jal	x17,8000146c	 x17=0x8000146c
        8005000	       799	00000000	00000013	addi	x0,x0,0	  x0:0x00000000
        8015000	       800	800014bc	00000013	addi	x0,x0,0	  x0:0x00000000
        8025000	       801	800014c0	fbdff0ef	jal	x1,800014c0	  x1=0x800014c0
        8035000	       802	00000000	00000013	addi	x0,x0,0	  x0:0x00000000
        8045000	       803	80001478	00000013	addi	x0,x0,0	  x0:0x00000000
        8055000	       804	8000147c	00c000ef	jal	x1,8000147c	  x1=0x8000147c
        8065000	       805	00000000	00000013	addi	x0,x0,0	  x0:0x00000000
        8075000	       806	80001484	00000013	addi	x0,x0,0	  x0:0x00000000
        8085000	       807	80001488	0240036f	jal	x6,80001488	  x6=0x80001488
        8095000	       808	00000000	00000013	addi	x0,x0,0	  x0:0x00000000
        8105000	       809	800014a8	00000013	addi	x0,x0,0	  x0:0x00000000
        8115000	       810	800014ac	ff5ff36f	jal	x6,800014ac	  x6=0x800014ac
        8125000	       811	00000000	00000013	addi	x0,x0,0	  x0:0x00000000
        8135000	       812	8000149c	00000013	addi	x0,x0,0	  x0:0x00000000
        8145000	       813	800014a0	018000ef	jal	x1,800014a0	  x1=0x800014a0
        8155000	       814	00000000	00000013	addi	x0,x0,0	  x0:0x00000000
        8165000	       815	800014b4	00000013	addi	x0,x0,0	  x0:0x00000000
        8175000	       816	800014b8	fc1ff36f	jal	x6,800014b8	  x6=0x800014b8
        8185000	       817	00000000	00000013	addi	x0,x0,0	  x0:0x00000000
        8195000	       818	80001474	00000013	addi	x0,x0,0	  x0:0x00000000
        8205000	       819	80001478	02c000ef	jal	x1,80001478	  x1=0x80001478
        8215000	       820	00000000	00000013	addi	x0,x0,0	  x0:0x00000000
        8225000	       821	800014a0	00000013	addi	x0,x0,0	  x0:0x00000000
        8235000	       822	800014a4	fcdff0ef	jal	x1,800014a4	  x1=0x800014a4
        8245000	       823	00000000	00000013	addi	x0,x0,0	  x0:0x00000000
        8255000	       824	8000146c	00000013	addi	x0,x0,0	  x0:0x00000000
        8265000	       825	80001470	0040046f	jal	x8,80001470	  x8=0x80001470
        8275000	       826	00000000	00000013	addi	x0,x0,0	  x0:0x00000000
        8285000	       827	80001470	00000013	addi	x0,x0,0	  x0:0x00000000
        8295000	       828	80001474	ff1ff0ef	jal	x1,80001474	  x1=0x80001474
        8305000	       829	00000000	00000013	addi	x0,x0,0	  x0:0x00000000
        8315000	       830	80001460	00000013	addi	x0,x0,0	  x0:0x00000000
        8325000	       831	80001464	0640036f	jal	x6,80001464	  x6=0x80001464
        8335000	       832	00000000	00000013	addi	x0,x0,0	  x0:0x00000000
        8345000	       833	800014c4	00000013	addi	x0,x0,0	  x0:0x00000000
        8355000	       834	800014c8	0100036f	jal	x6,800014c8	  x6=0x800014c8
        8365000	       835	00000000	00000013	addi	x0,x0,0	  x0:0x00000000
        8375000	       836	800014d4	00000013	addi	x0,x0,0	  x0:0x00000000
        8385000	       837	800014d8	611fa693	slti	x13,x31,1553	 x31:0x800014c4 x13=0x00000001
        8395000	       838	800014dc	05c0036f	jal	x6,800014dc	  x6=0x800014dc
        8405000	       839	00000000	00000013	addi	x0,x0,0	  x0:0x00000000
        8415000	       840	80001534	00000013	addi	x0,x0,0	  x0:0x00000000
        8425000	       841	80001538	fddff0ef	jal	x1,80001538	  x1=0x80001538
        8435000	       842	00000000	00000013	addi	x0,x0,0	  x0:0x00000000
        8445000	       843	80001510	00000013	addi	x0,x0,0	  x0:0x00000000
        8455000	       844	80001514	fedff16f	jal	x2,80001514	  x2=0x80001514
        8465000	       845	00000000	00000013	addi	x0,x0,0	  x0:0x00000000
        8475000	       846	800014fc	00000013	addi	x0,x0,0	  x0:0x00000000
        8485000	       847	80001500	fe1ff0ef	jal	x1,80001500	  x1=0x80001500
        8495000	       848	00000000	00000013	addi	x0,x0,0	  x0:0x00000000
        8505000	       849	800014dc	00000013	addi	x0,x0,0	  x0:0x00000000
        8515000	       850	800014e0	00c00cef	jal	x25,800014e0	 x25=0x800014e0
        8525000	       851	00000000	00000013	addi	x0,x0,0	  x0:0x00000000
        8535000	       852	800014e8	00000013	addi	x0,x0,0	  x0:0x00000000
        8545000	       853	800014ec	04000aef	jal	x21,800014ec	 x21=0x800014ec
        8555000	       854	00000000	00000013	addi	x0,x0,0	  x0:0x00000000
        8565000	       855	80001528	00000013	addi	x0,x0,0	  x0:0x00000000
        8575000	       856	8000152c	ff9ff5ef	jal	x11,8000152c	 x11=0x8000152c
        8585000	       857	00000000	00000013	addi	x0,x0,0	  x0:0x00000000
        8595000	       858	80001520	00000013	addi	x0,x0,0	  x0:0x00000000
        8605000	       859	80001524	fedff46f	jal	x8,80001524	  x8=0x80001524
        8615000	       860	00000000	00000013	addi	x0,x0,0	  x0:0x00000000
        8625000	       861	8000150c	00000013	addi	x0,x0,0	  x0:0x00000000
        8635000	       862	80001510	fe5ff0ef	jal	x1,80001510	  x1=0x80001510
        8645000	       863	00000000	00000013	addi	x0,x0,0	  x0:0x00000000
        8655000	       864	800014f0	00000013	addi	x0,x0,0	  x0:0x00000000
        8665000	       865	800014f4	ffdffc6f	jal	x24,800014f4	 x24=0x800014f4
        8675000	       866	00000000	00000013	addi	x0,x0,0	  x0:0x00000000
        8685000	       867	800014ec	00000013	addi	x0,x0,0	  x0:0x00000000
        8695000	       868	800014f0	0400076f	jal	x14,800014f0	 x14=0x800014f0
        8705000	       869	00000000	00000013	addi	x0,x0,0	  x0:0x00000000
        8715000	       870	8000152c	00000013	addi	x0,x0,0	  x0:0x00000000
        8725000	       871	80001530	ff9ff36f	jal	x6,80001530	  x6=0x80001530
        8735000	       872	00000000	00000013	addi	x0,x0,0	  x0:0x00000000
        8745000	       873	80001524	00000013	addi	x0,x0,0	  x0:0x00000000
        8755000	       874	80001528	ff9ff0ef	jal	x1,80001528	  x1=0x80001528
        8765000	       875	00000000	00000013	addi	x0,x0,0	  x0:0x00000000
        8775000	       876	8000151c	00000013	addi	x0,x0,0	  x0:0x00000000
        8785000	       877	80001520	fe5ff0ef	jal	x1,80001520	  x1=0x80001520
        8795000	       878	00000000	00000013	addi	x0,x0,0	  x0:0x00000000
        8805000	       879	80001500	00000013	addi	x0,x0,0	  x0:0x00000000
        8815000	       880	80001504	038000ef	jal	x1,80001504	  x1=0x80001504
        8825000	       881	00000000	00000013	addi	x0,x0,0	  x0:0x00000000
        8835000	       882	80001538	00000013	addi	x0,x0,0	  x0:0x00000000
        8845000	       883	8000153c	fddff0ef	jal	x1,8000153c	  x1=0x8000153c
        8855000	       884	00000000	00000013	addi	x0,x0,0	  x0:0x00000000
        8865000	       885	80001514	00000013	addi	x0,x0,0	  x0:0x00000000
        8875000	       886	80001518	fe5ff86f	jal	x16,80001518	 x16=0x80001518
        8885000	       887	00000000	00000013	addi	x0,x0,0	  x0:0x00000000
        8895000	       888	800014f8	00000013	addi	x0,x0,0	  x0:0x00000000
        8905000	       889	800014fc	fe9ff3ef	jal	x7,800014fc	  x7=0x800014fc
        8915000	       890	00000000	00000013	addi	x0,x0,0	  x0:0x00000000
        8925000	       891	800014e0	00000013	addi	x0,x0,0	  x0:0x00000000
        8935000	       892	800014e4	038000ef	jal	x1,800014e4	  x1=0x800014e4
        8945000	       893	00000000	00000013	addi	x0,x0,0	  x0:0x00000000
        8955000	       894	80001518	00000013	addi	x0,x0,0	  x0:0x00000000
        8965000	       895	8000151c	018000ef	jal	x1,8000151c	  x1=0x8000151c
        8975000	       896	00000000	00000013	addi	x0,x0,0	  x0:0x00000000
        8985000	       897	80001530	00000013	addi	x0,x0,0	  x0:0x00000000
        8995000	       898	80001534	fd5ff1ef	jal	x3,80001534	  x3=0x80001534
        9005000	       899	00000000	00000013	addi	x0,x0,0	  x0:0x00000000
        9015000	       900	80001504	00000013	addi	x0,x0,0	  x0:0x00000000
        9025000	       901	80001508	fe1ff7ef	jal	x15,80001508	 x15=0x80001508
        9035000	       902	00000000	00000013	addi	x0,x0,0	  x0:0x00000000
        9045000	       903	800014e4	00000013	addi	x0,x0,0	  x0:0x00000000
        9055000	       904	800014e8	024000ef	jal	x1,800014e8	  x1=0x800014e8
        9065000	       905	00000000	00000013	addi	x0,x0,0	  x0:0x00000000
        9075000	       906	80001508	00000013	addi	x0,x0,0	  x0:0x00000000
        9085000	       907	8000150c	fedff36f	jal	x6,8000150c	  x6=0x8000150c
        9095000	       908	00000000	00000013	addi	x0,x0,0	  x0:0x00000000
        9105000	       909	800014f4	00000013	addi	x0,x0,0	  x0:0x00000000
        9115000	       910	800014f8	0480036f	jal	x6,800014f8	  x6=0x800014f8
        9125000	       911	00000000	00000013	addi	x0,x0,0	  x0:0x00000000
        9135000	       912	8000153c	00000013	addi	x0,x0,0	  x0:0x00000000
        9145000	       913	80001540	949a5b97	auipc	x23,0x949a5	 x23=0x149a653c
        9155000	       914	80001544	0500036f	jal	x6,80001544	  x6=0x80001544
        9165000	       915	00000000	00000013	addi	x0,x0,0	  x0:0x00000000
        9175000	       916	80001590	00000013	addi	x0,x0,0	  x0:0x00000000
        9185000	       917	80001594	fe9ff0ef	jal	x1,80001594	  x1=0x80001594
        9195000	       918	00000000	00000013	addi	x0,x0,0	  x0:0x00000000
        9205000	       919	80001578	00000013	addi	x0,x0,0	  x0:0x00000000
        9215000	       920	8000157c	ff9ff0ef	jal	x1,8000157c	  x1=0x8000157c
        9225000	       921	00000000	00000013	addi	x0,x0,0	  x0:0x00000000
        9235000	       922	80001570	00000013	addi	x0,x0,0	  x0:0x00000000
        9245000	       923	80001574	014000ef	jal	x1,80001574	  x1=0x80001574
        9255000	       924	00000000	00000013	addi	x0,x0,0	  x0:0x00000000
        9265000	       925	80001584	00000013	addi	x0,x0,0	  x0:0x00000000
        9275000	       926	80001588	fddff0ef	jal	x1,80001588	  x1=0x80001588
        9285000	       927	00000000	00000013	addi	x0,x0,0	  x0:0x00000000
        9295000	       928	80001560	00000013	addi	x0,x0,0	  x0:0x00000000
        9305000	       929	80001564	028000ef	jal	x1,80001564	  x1=0x80001564
        9315000	       930	00000000	00000013	addi	x0,x0,0	  x0:0x00000000
        9325000	       931	80001588	00000013	addi	x0,x0,0	  x0:0x00000000
        9335000	       932	8000158c	fcdff56f	jal	x10,8000158c	 x10=0x8000158c
        9345000	       933	00000000	00000013	addi	x0,x0,0	  x0:0x00000000
        9355000	       934	80001554	00000013	addi	x0,x0,0	  x0:0x00000000
        9365000	       935	80001558	018000ef	jal	x1,80001558	  x1=0x80001558
        9375000	       936	00000000	00000013	addi	x0,x0,0	  x0:0x00000000
        9385000	       937	8000156c	00000013	addi	x0,x0,0	  x0:0x00000000
        9395000	       938	80001570	fddff0ef	jal	x1,80001570	  x1=0x80001570
        9405000	       939	00000000	00000013	addi	x0,x0,0	  x0:0x00000000
        9415000	       940	80001548	00000013	addi	x0,x0,0	  x0:0x00000000
        9425000	       941	8000154c	034000ef	jal	x1,8000154c	  x1=0x8000154c
        9435000	       942	00000000	00000013	addi	x0,x0,0	  x0:0x00000000
        9445000	       943	8000157c	00000013	addi	x0,x0,0	  x0:0x00000000
        9455000	       944	80001580	00400cef	jal	x25,80001580	 x25=0x80001580
        9465000	       945	00000000	00000013	addi	x0,x0,0	  x0:0x00000000
        9475000	       946	80001580	00000013	addi	x0,x0,0	  x0:0x00000000
        9485000	       947	80001584	fddffc6f	jal	x24,80001584	 x24=0x80001584
        9495000	       948	00000000	00000013	addi	x0,x0,0	  x0:0x00000000
        9505000	       949	8000155c	00000013	addi	x0,x0,0	  x0:0x00000000
        9515000	       950	80001560	fe9ffdef	jal	x27,80001560	 x27=0x80001560
        9525000	       951	00000000	00000013	addi	x0,x0,0	  x0:0x00000000
        9535000	       952	80001544	00000013	addi	x0,x0,0	  x0:0x00000000
        9545000	       953	80001548	020000ef	jal	x1,80001548	  x1=0x80001548
        9555000	       954	00000000	00000013	addi	x0,x0,0	  x0:0x00000000
        9565000	       955	80001564	00000013	addi	x0,x0,0	  x0:0x00000000
        9575000	       956	80001568	004000ef	jal	x1,80001568	  x1=0x80001568
        9585000	       957	00000000	00000013	addi	x0,x0,0	  x0:0x00000000
        9595000	       958	80001568	00000013	addi	x0,x0,0	  x0:0x00000000
        9605000	       959	8000156c	024006ef	jal	x13,8000156c	 x13=0x8000156c
        9615000	       960	00000000	00000013	addi	x0,x0,0	  x0:0x00000000
        9625000	       961	8000158c	00000013	addi	x0,x0,0	  x0:0x00000000
        9635000	       962	80001590	fe9ff0ef	jal	x1,80001590	  x1=0x80001590
        9645000	       963	00000000	00000013	addi	x0,x0,0	  x0:0x00000000
        9655000	       964	80001574	00000013	addi	x0,x0,0	  x0:0x00000000
        9665000	       965	80001578	fddff0ef	jal	x1,80001578	  x1=0x80001578
        9675000	       966	00000000	00000013	addi	x0,x0,0	  x0:0x00000000
        9685000	       967	80001550	00000013	addi	x0,x0,0	  x0:0x00000000
        9695000	       968	80001554	008000ef	jal	x1,80001554	  x1=0x80001554
        9705000	       969	00000000	00000013	addi	x0,x0,0	  x0:0x00000000
        9715000	       970	80001558	00000013	addi	x0,x0,0	  x0:0x00000000
        9725000	       971	8000155c	ff5ff26f	jal	x4,8000155c	  x4=0x8000155c
        9735000	       972	00000000	00000013	addi	x0,x0,0	  x0:0x00000000
        9745000	       973	8000154c	00000013	addi	x0,x0,0	  x0:0x00000000
        9755000	       974	80001550	048000ef	jal	x1,80001550	  x1=0x80001550
        9765000	       975	00000000	00000013	addi	x0,x0,0	  x0:0x00000000
        9775000	       976	80001594	00000013	addi	x0,x0,0	  x0:0x00000000
        9785000	       977	80001598	7a60ae93	slti	x29,x1,1958	  x1:0x80001550 x29=0x00000001
        9795000	       978	8000159c	0240036f	jal	x6,8000159c	  x6=0x8000159c
        9805000	       979	00000000	00000013	addi	x0,x0,0	  x0:0x00000000
        9815000	       980	800015bc	00000013	addi	x0,x0,0	  x0:0x00000000
        9825000	       981	800015c0	fe5ff0ef	jal	x1,800015c0	  x1=0x800015c0
        9835000	       982	00000000	00000013	addi	x0,x0,0	  x0:0x00000000
        9845000	       983	800015a0	00000013	addi	x0,x0,0	  x0:0x00000000
        9855000	       984	800015a4	044000ef	jal	x1,800015a4	  x1=0x800015a4
        9865000	       985	00000000	00000013	addi	x0,x0,0	  x0:0x00000000
        9875000	       986	800015e4	00000013	addi	x0,x0,0	  x0:0x00000000
        9885000	       987	800015e8	ff5ff0ef	jal	x1,800015e8	  x1=0x800015e8
        9895000	       988	00000000	00000013	addi	x0,x0,0	  x0:0x00000000
        9905000	       989	800015d8	00000013	addi	x0,x0,0	  x0:0x00000000
        9915000	       990	800015dc	fd5ff0ef	jal	x1,800015dc	  x1=0x800015dc
        9925000	       991	00000000	00000013	addi	x0,x0,0	  x0:0x00000000
        9935000	       992	800015ac	00000013	addi	x0,x0,0	  x0:0x00000000
        9945000	       993	800015b0	ff9ffd6f	jal	x26,800015b0	 x26=0x800015b0
        9955000	       994	00000000	00000013	addi	x0,x0,0	  x0:0x00000000
        9965000	       995	800015a4	00000013	addi	x0,x0,0	  x0:0x00000000
        9975000	       996	800015a8	030000ef	jal	x1,800015a8	  x1=0x800015a8
        9985000	       997	00000000	00000013	addi	x0,x0,0	  x0:0x00000000
        9995000	       998	800015d4	00000013	addi	x0,x0,0	  x0:0x00000000
       10005000	       999	800015d8	fe5ff0ef	jal	x1,800015d8	  x1=0x800015d8
       10015000	      1000	00000000	00000013	addi	x0,x0,0	  x0:0x00000000
       10025000	      1001	800015b8	00000013	addi	x0,x0,0	  x0:0x00000000
       10035000	      1002	800015bc	04400b6f	jal	x22,800015bc	 x22=0x800015bc
       10045000	      1003	00000000	00000013	addi	x0,x0,0	  x0:0x00000000
       10055000	      1004	800015fc	00000013	addi	x0,x0,0	  x0:0x00000000
       10065000	      1005	80001600	fa1ff0ef	jal	x1,80001600	  x1=0x80001600
       10075000	      1006	00000000	00000013	addi	x0,x0,0	  x0:0x00000000
       10085000	      1007	8000159c	00000013	addi	x0,x0,0	  x0:0x00000000
       10095000	      1008	800015a0	028000ef	jal	x1,800015a0	  x1=0x800015a0
       10105000	      1009	00000000	00000013	addi	x0,x0,0	  x0:0x00000000
       10115000	      1010	800015c4	00000013	addi	x0,x0,0	  x0:0x00000000
       10125000	      1011	800015c8	008000ef	jal	x1,800015c8	  x1=0x800015c8
       10135000	      1012	00000000	00000013	addi	x0,x0,0	  x0:0x00000000
       10145000	      1013	800015cc	00000013	addi	x0,x0,0	  x0:0x00000000
       10155000	      1014	800015d0	ff5ff36f	jal	x6,800015d0	  x6=0x800015d0
       10165000	      1015	00000000	00000013	addi	x0,x0,0	  x0:0x00000000
       10175000	      1016	800015c0	00000013	addi	x0,x0,0	  x0:0x00000000
       10185000	      1017	800015c4	0380036f	jal	x6,800015c4	  x6=0x800015c4
       10195000	      1018	00000000	00000013	addi	x0,x0,0	  x0:0x00000000
       10205000	      1019	800015f8	00000013	addi	x0,x0,0	  x0:0x00000000
       10215000	      1020	800015fc	ff5ff7ef	jal	x15,800015fc	 x15=0x800015fc
       10225000	      1021	00000000	00000013	addi	x0,x0,0	  x0:0x00000000
       10235000	      1022	800015ec	00000013	addi	x0,x0,0	  x0:0x00000000
       10245000	      1023	800015f0	00800c6f	jal	x24,800015f0	 x24=0x800015f0
       10255000	      1024	00000000	00000013	addi	x0,x0,0	  x0:0x00000000
       10265000	      1025	800015f4	00000013	addi	x0,x0,0	  x0:0x00000000
       10275000	      1026	800015f8	fbdff2ef	jal	x5,800015f8	  x5=0x800015f8
       10285000	      1027	00000000	00000013	addi	x0,x0,0	  x0:0x00000000
       10295000	      1028	800015b0	00000013	addi	x0,x0,0	  x0:0x00000000
       10305000	      1029	800015b4	04000eef	jal	x29,800015b4	 x29=0x800015b4
       10315000	      1030	00000000	00000013	addi	x0,x0,0	  x0:0x00000000
       10325000	      1031	800015f0	00000013	addi	x0,x0,0	  x0:0x00000000
       10335000	      1032	800015f4	fc5ff26f	jal	x4,800015f4	  x4=0x800015f4
       10345000	      1033	00000000	00000013	addi	x0,x0,0	  x0:0x00000000
       10355000	      1034	800015b4	00000013	addi	x0,x0,0	  x0:0x00000000
       10365000	      1035	800015b8	014000ef	jal	x1,800015b8	  x1=0x800015b8
       10375000	      1036	00000000	00000013	addi	x0,x0,0	  x0:0x00000000
       10385000	      1037	800015c8	00000013	addi	x0,x0,0	  x0:0x00000000
       10395000	      1038	800015cc	014000ef	jal	x1,800015cc	  x1=0x800015cc
       10405000	      1039	00000000	00000013	addi	x0,x0,0	  x0:0x00000000
       10415000	      1040	800015dc	00000013	addi	x0,x0,0	  x0:0x00000000
       10425000	      1041	800015e0	024000ef	jal	x1,800015e0	  x1=0x800015e0
       10435000	      1042	00000000	00000013	addi	x0,x0,0	  x0:0x00000000
       10445000	      1043	80001600	00000013	addi	x0,x0,0	  x0:0x00000000
       10455000	      1044	80001604	fe1ff0ef	jal	x1,80001604	  x1=0x80001604
       10465000	      1045	00000000	00000013	addi	x0,x0,0	  x0:0x00000000
       10475000	      1046	800015e0	00000013	addi	x0,x0,0	  x0:0x00000000
       10485000	      1047	800015e4	fc9ff0ef	jal	x1,800015e4	  x1=0x800015e4
       10495000	      1048	00000000	00000013	addi	x0,x0,0	  x0:0x00000000
       10505000	      1049	800015a8	00000013	addi	x0,x0,0	  x0:0x00000000
       10515000	      1050	800015ac	0280036f	jal	x6,800015ac	  x6=0x800015ac
       10525000	      1051	00000000	00000013	addi	x0,x0,0	  x0:0x00000000
       10535000	      1052	800015d0	00000013	addi	x0,x0,0	  x0:0x00000000
       10545000	      1053	800015d4	018005ef	jal	x11,800015d4	 x11=0x800015d4
       10555000	      1054	00000000	00000013	addi	x0,x0,0	  x0:0x00000000
       10565000	      1055	800015e8	00000013	addi	x0,x0,0	  x0:0x00000000
       10575000	      1056	800015ec	01c006ef	jal	x13,800015ec	 x13=0x800015ec
       10585000	      1057	00000000	00000013	addi	x0,x0,0	  x0:0x00000000
       10595000	      1058	80001604	00000013	addi	x0,x0,0	  x0:0x00000000
       10605000	      1059	80001608	40010733	sub	x14,x2,x0	  x2:0x80001514  x0:0x00000000 x14=0x80001514
       10615000	      1060	8000160c	0280036f	jal	x6,8000160c	  x6=0x8000160c
       10625000	      1061	00000000	00000013	addi	x0,x0,0	  x0:0x00000000
       10635000	      1062	80001630	00000013	addi	x0,x0,0	  x0:0x00000000
       10645000	      1063	80001634	ff1ff26f	jal	x4,80001634	  x4=0x80001634
       10655000	      1064	00000000	00000013	addi	x0,x0,0	  x0:0x00000000
       10665000	      1065	80001620	00000013	addi	x0,x0,0	  x0:0x00000000
       10675000	      1066	80001624	ffdff0ef	jal	x1,80001624	  x1=0x80001624
       10685000	      1067	00000000	00000013	addi	x0,x0,0	  x0:0x00000000
       10695000	      1068	8000161c	00000013	addi	x0,x0,0	  x0:0x00000000
       10705000	      1069	80001620	01c000ef	jal	x1,80001620	  x1=0x80001620
       10715000	      1070	00000000	00000013	addi	x0,x0,0	  x0:0x00000000
       10725000	      1071	80001638	00000013	addi	x0,x0,0	  x0:0x00000000
       10735000	      1072	8000163c	fd5ff0ef	jal	x1,8000163c	  x1=0x8000163c
       10745000	      1073	00000000	00000013	addi	x0,x0,0	  x0:0x00000000
       10755000	      1074	8000160c	00000013	addi	x0,x0,0	  x0:0x00000000
       10765000	      1075	80001610	020000ef	jal	x1,80001610	  x1=0x80001610
       10775000	      1076	00000000	00000013	addi	x0,x0,0	  x0:0x00000000
       10785000	      1077	8000162c	00000013	addi	x0,x0,0	  x0:0x00000000
       10795000	      1078	80001630	fe5ff0ef	jal	x1,80001630	  x1=0x80001630
       10805000	      1079	00000000	00000013	addi	x0,x0,0	  x0:0x00000000
       10815000	      1080	80001610	00000013	addi	x0,x0,0	  x0:0x00000000
       10825000	      1081	80001614	0240036f	jal	x6,80001614	  x6=0x80001614
       10835000	      1082	00000000	00000013	addi	x0,x0,0	  x0:0x00000000
       10845000	      1083	80001634	00000013	addi	x0,x0,0	  x0:0x00000000
       10855000	      1084	80001638	fe5ff36f	jal	x6,80001638	  x6=0x80001638
       10865000	      1085	00000000	00000013	addi	x0,x0,0	  x0:0x00000000
       10875000	      1086	80001618	00000013	addi	x0,x0,0	  x0:0x00000000
       10885000	      1087	8000161c	01000def	jal	x27,8000161c	 x27=0x8000161c
       10895000	      1088	00000000	00000013	addi	x0,x0,0	  x0:0x00000000
       10905000	      1089	80001628	00000013	addi	x0,x0,0	  x0:0x00000000
       10915000	      1090	8000162c	ffdff0ef	jal	x1,8000162c	  x1=0x8000162c
       10925000	      1091	00000000	00000013	addi	x0,x0,0	  x0:0x00000000
       10935000	      1092	80001624	00000013	addi	x0,x0,0	  x0:0x00000000
       10945000	      1093	80001628	ff1ff36f	jal	x6,80001628	  x6=0x80001628
       10955000	      1094	00000000	00000013	addi	x0,x0,0	  x0:0x00000000
       10965000	      1095	80001614	00000013	addi	x0,x0,0	  x0:0x00000000
       10975000	      1096	80001618	028000ef	jal	x1,80001618	  x1=0x80001618
       10985000	      1097	00000000	00000013	addi	x0,x0,0	  x0:0x00000000
       10995000	      1098	8000163c	00000013	addi	x0,x0,0	  x0:0x00000000
       11005000	      1099	80001640	40ead433	sra	x8,x21,x14	 x21:0x800014ec x14:0x80001514  x8=0xfffff800
       11015000	      1100	80001644	01c0036f	jal	x6,80001644	  x6=0x80001644
       11025000	      1101	00000000	00000013	addi	x0,x0,0	  x0:0x00000000
       11035000	      1102	8000165c	00000013	addi	x0,x0,0	  x0:0x00000000
       11045000	      1103	80001660	02c0016f	jal	x2,80001660	  x2=0x80001660
       11055000	      1104	00000000	00000013	addi	x0,x0,0	  x0:0x00000000
       11065000	      1105	80001688	00000013	addi	x0,x0,0	  x0:0x00000000
       11075000	      1106	8000168c	0040036f	jal	x6,8000168c	  x6=0x8000168c
       11085000	      1107	00000000	00000013	addi	x0,x0,0	  x0:0x00000000
       11095000	      1108	8000168c	00000013	addi	x0,x0,0	  x0:0x00000000
       11105000	      1109	80001690	fc5ff0ef	jal	x1,80001690	  x1=0x80001690
       11115000	      1110	00000000	00000013	addi	x0,x0,0	  x0:0x00000000
       11125000	      1111	80001650	00000013	addi	x0,x0,0	  x0:0x00000000
       11135000	      1112	80001654	ffdff36f	jal	x6,80001654	  x6=0x80001654
       11145000	      1113	00000000	00000013	addi	x0,x0,0	  x0:0x00000000
       11155000	      1114	8000164c	00000013	addi	x0,x0,0	  x0:0x00000000
       11165000	      1115	80001650	ff9ff0ef	jal	x1,80001650	  x1=0x80001650
       11175000	      1116	00000000	00000013	addi	x0,x0,0	  x0:0x00000000
       11185000	      1117	80001644	00000013	addi	x0,x0,0	  x0:0x00000000
       11195000	      1118	80001648	038000ef	jal	x1,80001648	  x1=0x80001648
       11205000	      1119	00000000	00000013	addi	x0,x0,0	  x0:0x00000000
       11215000	      1120	8000167c	00000013	addi	x0,x0,0	  x0:0x00000000
       11225000	      1121	80001680	ff5ff66f	jal	x12,80001680	 x12=0x80001680
       11235000	      1122	00000000	00000013	addi	x0,x0,0	  x0:0x00000000
       11245000	      1123	80001670	00000013	addi	x0,x0,0	  x0:0x00000000
       11255000	      1124	80001674	ffdff9ef	jal	x19,80001674	 x19=0x80001674
       11265000	      1125	00000000	00000013	addi	x0,x0,0	  x0:0x00000000
       11275000	      1126	8000166c	00000013	addi	x0,x0,0	  x0:0x00000000
       11285000	      1127	80001670	fe9ff0ef	jal	x1,80001670	  x1=0x80001670
       11295000	      1128	00000000	00000013	addi	x0,x0,0	  x0:0x00000000
       11305000	      1129	80001654	00000013	addi	x0,x0,0	  x0:0x00000000
       11315000	      1130	80001658	024000ef	jal	x1,80001658	  x1=0x80001658
       11325000	      1131	00000000	00000013	addi	x0,x0,0	  x0:0x00000000
       11335000	      1132	80001678	00000013	addi	x0,x0,0	  x0:0x00000000
       11345000	      1133	8000167c	00c0086f	jal	x16,8000167c	 x16=0x8000167c
       11355000	      1134	00000000	00000013	addi	x0,x0,0	  x0:0x00000000
       11365000	      1135	80001684	00000013	addi	x0,x0,0	  x0:0x00000000
       11375000	      1136	80001688	fe1ff0ef	jal	x1,80001688	  x1=0x80001688
       11385000	      1137	00000000	00000013	addi	x0,x0,0	  x0:0x00000000
       11395000	      1138	80001664	00000013	addi	x0,x0,0	  x0:0x00000000
       11405000	      1139	80001668	ff5ff2ef	jal	x5,80001668	  x5=0x80001668
       11415000	      1140	00000000	00000013	addi	x0,x0,0	  x0:0x00000000
       11425000	      1141	80001658	00000013	addi	x0,x0,0	  x0:0x00000000
       11435000	      1142	8000165c	008000ef	jal	x1,8000165c	  x1=0x8000165c
       11445000	      1143	00000000	00000013	addi	x0,x0,0	  x0:0x00000000
       11455000	      1144	80001660	00000013	addi	x0,x0,0	  x0:0x00000000
       11465000	      1145	80001664	fe9ff36f	jal	x6,80001664	  x6=0x80001664
       11475000	      1146	00000000	00000013	addi	x0,x0,0	  x0:0x00000000
       11485000	      1147	80001648	00000013	addi	x0,x0,0	  x0:0x00000000
       11495000	      1148	8000164c	048000ef	jal	x1,8000164c	  x1=0x8000164c
       11505000	      1149	00000000	00000013	addi	x0,x0,0	  x0:0x00000000
       11515000	      1150	80001690	00000013	addi	x0,x0,0	  x0:0x00000000
       11525000	      1151	80001694	ff1ff0ef	jal	x1,80001694	  x1=0x80001694
       11535000	      1152	00000000	00000013	addi	x0,x0,0	  x0:0x00000000
       11545000	      1153	80001680	00000013	addi	x0,x0,0	  x0:0x00000000
       11555000	      1154	80001684	ff5ff56f	jal	x10,80001684	 x10=0x80001684
       11565000	      1155	00000000	00000013	addi	x0,x0,0	  x0:0x00000000
       11575000	      1156	80001674	00000013	addi	x0,x0,0	  x0:0x00000000
       11585000	      1157	80001678	ff5ff0ef	jal	x1,80001678	  x1=0x80001678
       11595000	      1158	00000000	00000013	addi	x0,x0,0	  x0:0x00000000
       11605000	      1159	80001668	00000013	addi	x0,x0,0	  x0:0x00000000
       11615000	      1160	8000166c	02c0036f	jal	x6,8000166c	  x6=0x8000166c
       11625000	      1161	00000000	00000013	addi	x0,x0,0	  x0:0x00000000
       11635000	      1162	80001694	00000013	addi	x0,x0,0	  x0:0x00000000
       11645000	      1163	80001698	59b9cd93	xori	x27,x19,1435	 x19:0x80001674 x27=0x800013ef
       11655000	      1164	8000169c	0080036f	jal	x6,8000169c	  x6=0x8000169c
       11665000	      1165	00000000	00000013	addi	x0,x0,0	  x0:0x00000000
       11675000	      1166	800016a0	00000013	addi	x0,x0,0	  x0:0x00000000
       11685000	      1167	800016a4	02c0036f	jal	x6,800016a4	  x6=0x800016a4
       11695000	      1168	00000000	00000013	addi	x0,x0,0	  x0:0x00000000
       11705000	      1169	800016cc	00000013	addi	x0,x0,0	  x0:0x00000000
       11715000	      1170	800016d0	008000ef	jal	x1,800016d0	  x1=0x800016d0
       11725000	      1171	00000000	00000013	addi	x0,x0,0	  x0:0x00000000
       11735000	      1172	800016d4	00000013	addi	x0,x0,0	  x0:0x00000000
       11745000	      1173	800016d8	fd9ff0ef	jal	x1,800016d8	  x1=0x800016d8
       11755000	      1174	00000000	00000013	addi	x0,x0,0	  x0:0x00000000
       11765000	      1175	800016ac	00000013	addi	x0,x0,0	  x0:0x00000000
       11775000	      1176	800016b0	004008ef	jal	x17,800016b0	 x17=0x800016b0
       11785000	      1177	00000000	00000013	addi	x0,x0,0	  x0:0x00000000
       11795000	      1178	800016b0	00000013	addi	x0,x0,0	  x0:0x00000000
       11805000	      1179	800016b4	030000ef	jal	x1,800016b4	  x1=0x800016b4
       11815000	      1180	00000000	00000013	addi	x0,x0,0	  x0:0x00000000
       11825000	      1181	800016e0	00000013	addi	x0,x0,0	  x0:0x00000000
       11835000	      1182	800016e4	ff9ff0ef	jal	x1,800016e4	  x1=0x800016e4
       11845000	      1183	00000000	00000013	addi	x0,x0,0	  x0:0x00000000
       11855000	      1184	800016d8	00000013	addi	x0,x0,0	  x0:0x00000000
       11865000	      1185	800016dc	fc5ff0ef	jal	x1,800016dc	  x1=0x800016dc
       11875000	      1186	00000000	00000013	addi	x0,x0,0	  x0:0x00000000
       11885000	      1187	8000169c	00000013	addi	x0,x0,0	  x0:0x00000000
       11895000	      1188	800016a0	018000ef	jal	x1,800016a0	  x1=0x800016a0
       11905000	      1189	00000000	00000013	addi	x0,x0,0	  x0:0x00000000
       11915000	      1190	800016b4	00000013	addi	x0,x0,0	  x0:0x00000000
       11925000	      1191	800016b8	00c000ef	jal	x1,800016b8	  x1=0x800016b8
       11935000	      1192	00000000	00000013	addi	x0,x0,0	  x0:0x00000000
       11945000	      1193	800016c0	00000013	addi	x0,x0,0	  x0:0x00000000
       11955000	      1194	800016c4	ff9ff0ef	jal	x1,800016c4	  x1=0x800016c4
       11965000	      1195	00000000	00000013	addi	x0,x0,0	  x0:0x00000000
       11975000	      1196	800016b8	00000013	addi	x0,x0,0	  x0:0x00000000
       11985000	      1197	800016bc	fedff0ef	jal	x1,800016bc	  x1=0x800016bc
       11995000	      1198	00000000	00000013	addi	x0,x0,0	  x0:0x00000000
       12005000	      1199	800016a4	00000013	addi	x0,x0,0	  x0:0x00000000
       12015000	      1200	800016a8	024001ef	jal	x3,800016a8	  x3=0x800016a8
       12025000	      1201	00000000	00000013	addi	x0,x0,0	  x0:0x00000000
       12035000	      1202	800016c8	00000013	addi	x0,x0,0	  x0:0x00000000
       12045000	      1203	800016cc	008002ef	jal	x5,800016cc	  x5=0x800016cc
       12055000	      1204	00000000	00000013	addi	x0,x0,0	  x0:0x00000000
       12065000	      1205	800016d0	00000013	addi	x0,x0,0	  x0:0x00000000
       12075000	      1206	800016d4	fd9ff0ef	jal	x1,800016d4	  x1=0x800016d4
       12085000	      1207	00000000	00000013	addi	x0,x0,0	  x0:0x00000000
       12095000	      1208	800016a8	00000013	addi	x0,x0,0	  x0:0x00000000
       12105000	      1209	800016ac	01c000ef	jal	x1,800016ac	  x1=0x800016ac
       12115000	      1210	00000000	00000013	addi	x0,x0,0	  x0:0x00000000
       12125000	      1211	800016c4	00000013	addi	x0,x0,0	  x0:0x00000000
       12135000	      1212	800016c8	ff9ff26f	jal	x4,800016c8	  x4=0x800016c8
       12145000	      1213	00000000	00000013	addi	x0,x0,0	  x0:0x00000000
       12155000	      1214	800016bc	00000013	addi	x0,x0,0	  x0:0x00000000
       12165000	      1215	800016c0	0200066f	jal	x12,800016c0	 x12=0x800016c0
       12175000	      1216	00000000	00000013	addi	x0,x0,0	  x0:0x00000000
       12185000	      1217	800016dc	00000013	addi	x0,x0,0	  x0:0x00000000
       12195000	      1218	800016e0	008000ef	jal	x1,800016e0	  x1=0x800016e0
       12205000	      1219	00000000	00000013	addi	x0,x0,0	  x0:0x00000000
       12215000	      1220	800016e4	00000013	addi	x0,x0,0	  x0:0x00000000
       12225000	      1221	800016e8	4163d193	srai	x3,x7,0x16	  x7:0x800014fc  x3=0xfffffe00
       12235000	      1222	800016ec	0740036f	jal	x6,800016ec	  x6=0x800016ec
       12245000	      1223	00000000	00000013	addi	x0,x0,0	  x0:0x00000000
       12255000	      1224	8000175c	00000013	addi	x0,x0,0	  x0:0x00000000
       12265000	      1225	80001760	fe9ff36f	jal	x6,80001760	  x6=0x80001760
       12275000	      1226	00000000	00000013	addi	x0,x0,0	  x0:0x00000000
       12285000	      1227	80001744	00000013	addi	x0,x0,0	  x0:0x00000000
       12295000	      1228	80001748	0080056f	jal	x10,80001748	 x10=0x80001748
       12305000	      1229	00000000	00000013	addi	x0,x0,0	  x0:0x00000000
       12315000	      1230	8000174c	00000013	addi	x0,x0,0	  x0:0x00000000
       12325000	      1231	80001750	fc1ff0ef	jal	x1,80001750	  x1=0x80001750
       12335000	      1232	00000000	00000013	addi	x0,x0,0	  x0:0x00000000
       12345000	      1233	8000170c	00000013	addi	x0,x0,0	  x0:0x00000000
       12355000	      1234	80001710	018000ef	jal	x1,80001710	  x1=0x80001710
       12365000	      1235	00000000	00000013	addi	x0,x0,0	  x0:0x00000000
       12375000	      1236	80001724	00000013	addi	x0,x0,0	  x0:0x00000000
       12385000	      1237	80001728	02c002ef	jal	x5,80001728	  x5=0x80001728
       12395000	      1238	00000000	00000013	addi	x0,x0,0	  x0:0x00000000
       12405000	      1239	80001750	00000013	addi	x0,x0,0	  x0:0x00000000
       12415000	      1240	80001754	fa5ff0ef	jal	x1,80001754	  x1=0x80001754
       12425000	      1241	00000000	00000013	addi	x0,x0,0	  x0:0x00000000
       12435000	      1242	800016f4	00000013	addi	x0,x0,0	  x0:0x00000000
       12445000	      1243	800016f8	00800b6f	jal	x22,800016f8	 x22=0x800016f8
       12455000	      1244	00000000	00000013	addi	x0,x0,0	  x0:0x00000000
       12465000	      1245	800016fc	00000013	addi	x0,x0,0	  x0:0x00000000
       12475000	      1246	80001700	00c0016f	jal	x2,80001700	  x2=0x80001700
       12485000	      1247	00000000	00000013	addi	x0,x0,0	  x0:0x00000000
       12495000	      1248	80001708	00000013	addi	x0,x0,0	  x0:0x00000000
       12505000	      1249	8000170c	028000ef	jal	x1,8000170c	  x1=0x8000170c
       12515000	      1250	00000000	00000013	addi	x0,x0,0	  x0:0x00000000
       12525000	      1251	80001730	00000013	addi	x0,x0,0	  x0:0x00000000
       12535000	      1252	80001734	ffdff36f	jal	x6,80001734	  x6=0x80001734
       12545000	      1253	00000000	00000013	addi	x0,x0,0	  x0:0x00000000
       12555000	      1254	8000172c	00000013	addi	x0,x0,0	  x0:0x00000000
       12565000	      1255	80001730	0100026f	jal	x4,80001730	  x4=0x80001730
       12575000	      1256	00000000	00000013	addi	x0,x0,0	  x0:0x00000000
       12585000	      1257	8000173c	00000013	addi	x0,x0,0	  x0:0x00000000
       12595000	      1258	80001740	ffdff0ef	jal	x1,80001740	  x1=0x80001740
       12605000	      1259	00000000	00000013	addi	x0,x0,0	  x0:0x00000000
       12615000	      1260	80001738	00000013	addi	x0,x0,0	  x0:0x00000000
       12625000	      1261	8000173c	fddff0ef	jal	x1,8000173c	  x1=0x8000173c
       12635000	      1262	00000000	00000013	addi	x0,x0,0	  x0:0x00000000
       12645000	      1263	80001714	00000013	addi	x0,x0,0	  x0:0x00000000
       12655000	      1264	80001718	ff1ff0ef	jal	x1,80001718	  x1=0x80001718
       12665000	      1265	00000000	00000013	addi	x0,x0,0	  x0:0x00000000
       12675000	      1266	80001704	00000013	addi	x0,x0,0	  x0:0x00000000
       12685000	      1267	80001708	05c000ef	jal	x1,80001708	  x1=0x80001708
       12695000	      1268	00000000	00000013	addi	x0,x0,0	  x0:0x00000000
       12705000	      1269	80001760	00000013	addi	x0,x0,0	  x0:0x00000000
       12715000	      1270	80001764	fb9ffe6f	jal	x28,80001764	 x28=0x80001764
       12725000	      1271	00000000	00000013	addi	x0,x0,0	  x0:0x00000000
       12735000	      1272	80001718	00000013	addi	x0,x0,0	  x0:0x00000000
       12745000	      1273	8000171c	030005ef	jal	x11,8000171c	 x11=0x8000171c
       12755000	      1274	00000000	00000013	addi	x0,x0,0	  x0:0x00000000
       12765000	      1275	80001748	00000013	addi	x0,x0,0	  x0:0x00000000
       12775000	      1276	8000174c	fa9ffaef	jal	x21,8000174c	 x21=0x8000174c
       12785000	      1277	00000000	00000013	addi	x0,x0,0	  x0:0x00000000
       12795000	      1278	800016f0	00000013	addi	x0,x0,0	  x0:0x00000000
       12805000	      1279	800016f4	0200056f	jal	x10,800016f4	 x10=0x800016f4
       12815000	      1280	00000000	00000013	addi	x0,x0,0	  x0:0x00000000
       12825000	      1281	80001710	00000013	addi	x0,x0,0	  x0:0x00000000
       12835000	      1282	80001714	fddff0ef	jal	x1,80001714	  x1=0x80001714
       12845000	      1283	00000000	00000013	addi	x0,x0,0	  x0:0x00000000
       12855000	      1284	800016ec	00000013	addi	x0,x0,0	  x0:0x00000000
       12865000	      1285	800016f0	00c00fef	jal	x31,800016f0	 x31=0x800016f0
       12875000	      1286	00000000	00000013	addi	x0,x0,0	  x0:0x00000000
       12885000	      1287	800016f8	00000013	addi	x0,x0,0	  x0:0x00000000
       12895000	      1288	800016fc	04800fef	jal	x31,800016fc	 x31=0x800016fc
       12905000	      1289	00000000	00000013	addi	x0,x0,0	  x0:0x00000000
       12915000	      1290	80001740	00000013	addi	x0,x0,0	  x0:0x00000000
       12925000	      1291	80001744	014000ef	jal	x1,80001744	  x1=0x80001744
       12935000	      1292	00000000	00000013	addi	x0,x0,0	  x0:0x00000000
       12945000	      1293	80001754	00000013	addi	x0,x0,0	  x0:0x00000000
       12955000	      1294	80001758	fcdff1ef	jal	x3,80001758	  x3=0x80001758
       12965000	      1295	00000000	00000013	addi	x0,x0,0	  x0:0x00000000
       12975000	      1296	80001720	00000013	addi	x0,x0,0	  x0:0x00000000
       12985000	      1297	80001724	008002ef	jal	x5,80001724	  x5=0x80001724
       12995000	      1298	00000000	00000013	addi	x0,x0,0	  x0:0x00000000
       13005000	      1299	80001728	00000013	addi	x0,x0,0	  x0:0x00000000
       13015000	      1300	8000172c	fd9ffdef	jal	x27,8000172c	 x27=0x8000172c
       13025000	      1301	00000000	00000013	addi	x0,x0,0	  x0:0x00000000
       13035000	      1302	80001700	00000013	addi	x0,x0,0	  x0:0x00000000
       13045000	      1303	80001704	05800b6f	jal	x22,80001704	 x22=0x80001704
       13055000	      1304	00000000	00000013	addi	x0,x0,0	  x0:0x00000000
       13065000	      1305	80001758	00000013	addi	x0,x0,0	  x0:0x00000000
       13075000	      1306	8000175c	fc5ff0ef	jal	x1,8000175c	  x1=0x8000175c
       13085000	      1307	00000000	00000013	addi	x0,x0,0	  x0:0x00000000
       13095000	      1308	8000171c	00000013	addi	x0,x0,0	  x0:0x00000000
       13105000	      1309	80001720	0180026f	jal	x4,80001720	  x4=0x80001720
       13115000	      1310	00000000	00000013	addi	x0,x0,0	  x0:0x00000000
       13125000	      1311	80001734	00000013	addi	x0,x0,0	  x0:0x00000000
       13135000	      1312	80001738	0300036f	jal	x6,80001738	  x6=0x80001738
       13145000	      1313	00000000	00000013	addi	x0,x0,0	  x0:0x00000000
       13155000	      1314	80001764	00000013	addi	x0,x0,0	  x0:0x00000000
       13165000	      1315	80001768	58494113	xori	x2,x18,1412	 x18:0x00000006  x2=0x00000582
       13175000	      1316	8000176c	0200036f	jal	x6,8000176c	  x6=0x8000176c
       13185000	      1317	00000000	00000013	addi	x0,x0,0	  x0:0x00000000
       13195000	      1318	80001788	00000013	addi	x0,x0,0	  x0:0x00000000
       13205000	      1319	8000178c	030000ef	jal	x1,8000178c	  x1=0x8000178c
       13215000	      1320	00000000	00000013	addi	x0,x0,0	  x0:0x00000000
       13225000	      1321	800017b8	00000013	addi	x0,x0,0	  x0:0x00000000
       13235000	      1322	800017bc	ff5ff0ef	jal	x1,800017bc	  x1=0x800017bc
       13245000	      1323	00000000	00000013	addi	x0,x0,0	  x0:0x00000000
       13255000	      1324	800017ac	00000013	addi	x0,x0,0	  x0:0x00000000
       13265000	      1325	800017b0	fe9ff0ef	jal	x1,800017b0	  x1=0x800017b0
       13275000	      1326	00000000	00000013	addi	x0,x0,0	  x0:0x00000000
       13285000	      1327	80001794	00000013	addi	x0,x0,0	  x0:0x00000000
       13295000	      1328	80001798	fe1ff66f	jal	x12,80001798	 x12=0x80001798
       13305000	      1329	00000000	00000013	addi	x0,x0,0	  x0:0x00000000
       13315000	      1330	80001774	00000013	addi	x0,x0,0	  x0:0x00000000
       13325000	      1331	80001778	028000ef	jal	x1,80001778	  x1=0x80001778
       13335000	      1332	00000000	00000013	addi	x0,x0,0	  x0:0x00000000
       13345000	      1333	8000179c	00000013	addi	x0,x0,0	  x0:0x00000000
       13355000	      1334	800017a0	fd1ffb6f	jal	x22,800017a0	 x22=0x800017a0
       13365000	      1335	00000000	00000013	addi	x0,x0,0	  x0:0x00000000
       13375000	      1336	8000176c	00000013	addi	x0,x0,0	  x0:0x00000000
       13385000	      1337	80001770	0380026f	jal	x4,80001770	  x4=0x80001770
       13395000	      1338	00000000	00000013	addi	x0,x0,0	  x0:0x00000000
       13405000	      1339	800017a4	00000013	addi	x0,x0,0	  x0:0x00000000
       13415000	      1340	800017a8	fedffc6f	jal	x24,800017a8	 x24=0x800017a8
       13425000	      1341	00000000	00000013	addi	x0,x0,0	  x0:0x00000000
       13435000	      1342	80001790	00000013	addi	x0,x0,0	  x0:0x00000000
       13445000	      1343	80001794	fedff36f	jal	x6,80001794	  x6=0x80001794
       13455000	      1344	00000000	00000013	addi	x0,x0,0	  x0:0x00000000
       13465000	      1345	8000177c	00000013	addi	x0,x0,0	  x0:0x00000000
       13475000	      1346	80001780	044000ef	jal	x1,80001780	  x1=0x80001780
       13485000	      1347	00000000	00000013	addi	x0,x0,0	  x0:0x00000000
       13495000	      1348	800017c0	00000013	addi	x0,x0,0	  x0:0x00000000
       13505000	      1349	800017c4	fc5ff36f	jal	x6,800017c4	  x6=0x800017c4
       13515000	      1350	00000000	00000013	addi	x0,x0,0	  x0:0x00000000
       13525000	      1351	80001784	00000013	addi	x0,x0,0	  x0:0x00000000
       13535000	      1352	80001788	fedff0ef	jal	x1,80001788	  x1=0x80001788
       13545000	      1353	00000000	00000013	addi	x0,x0,0	  x0:0x00000000
       13555000	      1354	80001770	00000013	addi	x0,x0,0	  x0:0x00000000
       13565000	      1355	80001774	028002ef	jal	x5,80001774	  x5=0x80001774
       13575000	      1356	00000000	00000013	addi	x0,x0,0	  x0:0x00000000
       13585000	      1357	80001798	00000013	addi	x0,x0,0	  x0:0x00000000
       13595000	      1358	8000179c	010001ef	jal	x3,8000179c	  x3=0x8000179c
       13605000	      1359	00000000	00000013	addi	x0,x0,0	  x0:0x00000000
       13615000	      1360	800017a8	00000013	addi	x0,x0,0	  x0:0x00000000
       13625000	      1361	800017ac	00c0036f	jal	x6,800017ac	  x6=0x800017ac
       13635000	      1362	00000000	00000013	addi	x0,x0,0	  x0:0x00000000
       13645000	      1363	800017b4	00000013	addi	x0,x0,0	  x0:0x00000000
       13655000	      1364	800017b8	0100026f	jal	x4,800017b8	  x4=0x800017b8
       13665000	      1365	00000000	00000013	addi	x0,x0,0	  x0:0x00000000
       13675000	      1366	800017c4	00000013	addi	x0,x0,0	  x0:0x00000000
       13685000	      1367	800017c8	fbdff46f	jal	x8,800017c8	  x8=0x800017c8
       13695000	      1368	00000000	00000013	addi	x0,x0,0	  x0:0x00000000
       13705000	      1369	80001780	00000013	addi	x0,x0,0	  x0:0x00000000
       13715000	      1370	80001784	03c000ef	jal	x1,80001784	  x1=0x80001784
       13725000	      1371	00000000	00000013	addi	x0,x0,0	  x0:0x00000000
       13735000	      1372	800017bc	00000013	addi	x0,x0,0	  x0:0x00000000
       13745000	      1373	800017c0	fbdff0ef	jal	x1,800017c0	  x1=0x800017c0
       13755000	      1374	00000000	00000013	addi	x0,x0,0	  x0:0x00000000
       13765000	      1375	80001778	00000013	addi	x0,x0,0	  x0:0x00000000
       13775000	      1376	8000177c	038000ef	jal	x1,8000177c	  x1=0x8000177c
       13785000	      1377	00000000	00000013	addi	x0,x0,0	  x0:0x00000000
       13795000	      1378	800017b0	00000013	addi	x0,x0,0	  x0:0x00000000
       13805000	      1379	800017b4	fddff0ef	jal	x1,800017b4	  x1=0x800017b4
       13815000	      1380	00000000	00000013	addi	x0,x0,0	  x0:0x00000000
       13825000	      1381	8000178c	00000013	addi	x0,x0,0	  x0:0x00000000
       13835000	      1382	80001790	014000ef	jal	x1,80001790	  x1=0x80001790
       13845000	      1383	00000000	00000013	addi	x0,x0,0	  x0:0x00000000
       13855000	      1384	800017a0	00000013	addi	x0,x0,0	  x0:0x00000000
       13865000	      1385	800017a4	0280036f	jal	x6,800017a4	  x6=0x800017a4
       13875000	      1386	00000000	00000013	addi	x0,x0,0	  x0:0x00000000
       13885000	      1387	800017c8	00000013	addi	x0,x0,0	  x0:0x00000000
       13895000	      1388	800017cc	019617b3	sll	x15,x12,x25	 x12:0x80001798 x25:0x80001580 x15=0x80001798
       13905000	      1389	800017d0	0180036f	jal	x6,800017d0	  x6=0x800017d0
       13915000	      1390	00000000	00000013	addi	x0,x0,0	  x0:0x00000000
       13925000	      1391	800017e4	00000013	addi	x0,x0,0	  x0:0x00000000
       13935000	      1392	800017e8	ff5ffeef	jal	x29,800017e8	 x29=0x800017e8
       13945000	      1393	00000000	00000013	addi	x0,x0,0	  x0:0x00000000
       13955000	      1394	800017d8	00000013	addi	x0,x0,0	  x0:0x00000000
       13965000	      1395	800017dc	040000ef	jal	x1,800017dc	  x1=0x800017dc
       13975000	      1396	00000000	00000013	addi	x0,x0,0	  x0:0x00000000
       13985000	      1397	80001818	00000013	addi	x0,x0,0	  x0:0x00000000
       13995000	      1398	8000181c	ff5ff0ef	jal	x1,8000181c	  x1=0x8000181c
       14005000	      1399	00000000	00000013	addi	x0,x0,0	  x0:0x00000000
       14015000	      1400	8000180c	00000013	addi	x0,x0,0	  x0:0x00000000
       14025000	      1401	80001810	fc5ff0ef	jal	x1,80001810	  x1=0x80001810
       14035000	      1402	00000000	00000013	addi	x0,x0,0	  x0:0x00000000
       14045000	      1403	800017d0	00000013	addi	x0,x0,0	  x0:0x00000000
       14055000	      1404	800017d4	024000ef	jal	x1,800017d4	  x1=0x800017d4
       14065000	      1405	00000000	00000013	addi	x0,x0,0	  x0:0x00000000
       14075000	      1406	800017f4	00000013	addi	x0,x0,0	  x0:0x00000000
       14085000	      1407	800017f8	00c000ef	jal	x1,800017f8	  x1=0x800017f8
       14095000	      1408	00000000	00000013	addi	x0,x0,0	  x0:0x00000000
       14105000	      1409	80001800	00000013	addi	x0,x0,0	  x0:0x00000000
       14115000	      1410	80001804	fd5ff0ef	jal	x1,80001804	  x1=0x80001804
       14125000	      1411	00000000	00000013	addi	x0,x0,0	  x0:0x00000000
       14135000	      1412	800017d4	00000013	addi	x0,x0,0	  x0:0x00000000
       14145000	      1413	800017d8	008008ef	jal	x17,800017d8	 x17=0x800017d8
       14155000	      1414	00000000	00000013	addi	x0,x0,0	  x0:0x00000000
       14165000	      1415	800017dc	00000013	addi	x0,x0,0	  x0:0x00000000
       14175000	      1416	800017e0	038002ef	jal	x5,800017e0	  x5=0x800017e0
       14185000	      1417	00000000	00000013	addi	x0,x0,0	  x0:0x00000000
       14195000	      1418	80001814	00000013	addi	x0,x0,0	  x0:0x00000000
       14205000	      1419	80001818	ff1fff6f	jal	x30,80001818	 x30=0x80001818
       14215000	      1420	00000000	00000013	addi	x0,x0,0	  x0:0x00000000
       14225000	      1421	80001804	00000013	addi	x0,x0,0	  x0:0x00000000
       14235000	      1422	80001808	ff5ff0ef	jal	x1,80001808	  x1=0x80001808
       14245000	      1423	00000000	00000013	addi	x0,x0,0	  x0:0x00000000
       14255000	      1424	800017f8	00000013	addi	x0,x0,0	  x0:0x00000000
       14265000	      1425	800017fc	010000ef	jal	x1,800017fc	  x1=0x800017fc
       14275000	      1426	00000000	00000013	addi	x0,x0,0	  x0:0x00000000
       14285000	      1427	80001808	00000013	addi	x0,x0,0	  x0:0x00000000
       14295000	      1428	8000180c	ff5ff0ef	jal	x1,8000180c	  x1=0x8000180c
       14305000	      1429	00000000	00000013	addi	x0,x0,0	  x0:0x00000000
       14315000	      1430	800017fc	00000013	addi	x0,x0,0	  x0:0x00000000
       14325000	      1431	80001800	024000ef	jal	x1,80001800	  x1=0x80001800
       14335000	      1432	00000000	00000013	addi	x0,x0,0	  x0:0x00000000
       14345000	      1433	80001820	00000013	addi	x0,x0,0	  x0:0x00000000
       14355000	      1434	80001824	fc9ff0ef	jal	x1,80001824	  x1=0x80001824
       14365000	      1435	00000000	00000013	addi	x0,x0,0	  x0:0x00000000
       14375000	      1436	800017e8	00000013	addi	x0,x0,0	  x0:0x00000000
       14385000	      1437	800017ec	04000aef	jal	x21,800017ec	 x21=0x800017ec
       14395000	      1438	00000000	00000013	addi	x0,x0,0	  x0:0x00000000
       14405000	      1439	80001828	00000013	addi	x0,x0,0	  x0:0x00000000
       14415000	      1440	8000182c	fc5ff2ef	jal	x5,8000182c	  x5=0x8000182c
       14425000	      1441	00000000	00000013	addi	x0,x0,0	  x0:0x00000000
       14435000	      1442	800017ec	00000013	addi	x0,x0,0	  x0:0x00000000
       14445000	      1443	800017f0	ff5ff0ef	jal	x1,800017f0	  x1=0x800017f0
       14455000	      1444	00000000	00000013	addi	x0,x0,0	  x0:0x00000000
       14465000	      1445	800017e0	00000013	addi	x0,x0,0	  x0:0x00000000
       14475000	      1446	800017e4	0440026f	jal	x4,800017e4	  x4=0x800017e4
       14485000	      1447	00000000	00000013	addi	x0,x0,0	  x0:0x00000000
       14495000	      1448	80001824	00000013	addi	x0,x0,0	  x0:0x00000000
       14505000	      1449	80001828	ff9ff0ef	jal	x1,80001828	  x1=0x80001828
       14515000	      1450	00000000	00000013	addi	x0,x0,0	  x0:0x00000000
       14525000	      1451	8000181c	00000013	addi	x0,x0,0	  x0:0x00000000
       14535000	      1452	80001820	fd5ffeef	jal	x29,80001820	 x29=0x80001820
       14545000	      1453	00000000	00000013	addi	x0,x0,0	  x0:0x00000000
       14555000	      1454	800017f0	00000013	addi	x0,x0,0	  x0:0x00000000
       14565000	      1455	800017f4	0200056f	jal	x10,800017f4	 x10=0x800017f4
       14575000	      1456	00000000	00000013	addi	x0,x0,0	  x0:0x00000000
       14585000	      1457	80001810	00000013	addi	x0,x0,0	  x0:0x00000000
       14595000	      1458	80001814	01c002ef	jal	x5,80001814	  x5=0x80001814
       14605000	      1459	00000000	00000013	addi	x0,x0,0	  x0:0x00000000
       14615000	      1460	8000182c	00000013	addi	x0,x0,0	  x0:0x00000000
       14625000	      1461	80001830	00bd5793	srli	x15,x26,0xb	 x26:0x800015b0 x15=0x00100002
       14635000	      1462	80001834	0540036f	jal	x6,80001834	  x6=0x80001834
       14645000	      1463	00000000	00000013	addi	x0,x0,0	  x0:0x00000000
       14655000	      1464	80001884	00000013	addi	x0,x0,0	  x0:0x00000000
       14665000	      1465	80001888	fb1ff36f	jal	x6,80001888	  x6=0x80001888
       14675000	      1466	00000000	00000013	addi	x0,x0,0	  x0:0x00000000
       14685000	      1467	80001834	00000013	addi	x0,x0,0	  x0:0x00000000
       14695000	      1468	80001838	05c000ef	jal	x1,80001838	  x1=0x80001838
       14705000	      1469	00000000	00000013	addi	x0,x0,0	  x0:0x00000000
       14715000	      1470	80001890	00000013	addi	x0,x0,0	  x0:0x00000000
       14725000	      1471	80001894	ff1ff36f	jal	x6,80001894	  x6=0x80001894
       14735000	      1472	00000000	00000013	addi	x0,x0,0	  x0:0x00000000
       14745000	      1473	80001880	00000013	addi	x0,x0,0	  x0:0x00000000
       14755000	      1474	80001884	ff5ff0ef	jal	x1,80001884	  x1=0x80001884
       14765000	      1475	00000000	00000013	addi	x0,x0,0	  x0:0x00000000
       14775000	      1476	80001874	00000013	addi	x0,x0,0	  x0:0x00000000
       14785000	      1477	80001878	ff5ff0ef	jal	x1,80001878	  x1=0x80001878
       14795000	      1478	00000000	00000013	addi	x0,x0,0	  x0:0x00000000
       14805000	      1479	80001868	00000013	addi	x0,x0,0	  x0:0x00000000
       14815000	      1480	8000186c	ffdff0ef	jal	x1,8000186c	  x1=0x8000186c
       14825000	      1481	00000000	00000013	addi	x0,x0,0	  x0:0x00000000
       14835000	      1482	80001864	00000013	addi	x0,x0,0	  x0:0x00000000
       14845000	      1483	80001868	fedff46f	jal	x8,80001868	  x8=0x80001868
       14855000	      1484	00000000	00000013	addi	x0,x0,0	  x0:0x00000000
       14865000	      1485	80001850	00000013	addi	x0,x0,0	  x0:0x00000000
       14875000	      1486	80001854	01c000ef	jal	x1,80001854	  x1=0x80001854
       14885000	      1487	00000000	00000013	addi	x0,x0,0	  x0:0x00000000
       14895000	      1488	8000186c	00000013	addi	x0,x0,0	  x0:0x00000000
       14905000	      1489	80001870	fedff0ef	jal	x1,80001870	  x1=0x80001870
       14915000	      1490	00000000	00000013	addi	x0,x0,0	  x0:0x00000000
       14925000	      1491	80001858	00000013	addi	x0,x0,0	  x0:0x00000000
       14935000	      1492	8000185c	0080056f	jal	x10,8000185c	 x10=0x8000185c
       14945000	      1493	00000000	00000013	addi	x0,x0,0	  x0:0x00000000
       14955000	      1494	80001860	00000013	addi	x0,x0,0	  x0:0x00000000
       14965000	      1495	80001864	fedff36f	jal	x6,80001864	  x6=0x80001864
       14975000	      1496	00000000	00000013	addi	x0,x0,0	  x0:0x00000000
       14985000	      1497	8000184c	00000013	addi	x0,x0,0	  x0:0x00000000
       14995000	      1498	80001850	ff5ff0ef	jal	x1,80001850	  x1=0x80001850
       15005000	      1499	00000000	00000013	addi	x0,x0,0	  x0:0x00000000
       15015000	      1500	80001840	00000013	addi	x0,x0,0	  x0:0x00000000
       15025000	      1501	80001844	014000ef	jal	x1,80001844	  x1=0x80001844
       15035000	      1502	00000000	00000013	addi	x0,x0,0	  x0:0x00000000
       15045000	      1503	80001854	00000013	addi	x0,x0,0	  x0:0x00000000
       15055000	      1504	80001858	01c0086f	jal	x16,80001858	 x16=0x80001858
       15065000	      1505	00000000	00000013	addi	x0,x0,0	  x0:0x00000000
       15075000	      1506	80001870	00000013	addi	x0,x0,0	  x0:0x00000000
       15085000	      1507	80001874	024000ef	jal	x1,80001874	  x1=0x80001874
       15095000	      1508	00000000	00000013	addi	x0,x0,0	  x0:0x00000000
       15105000	      1509	80001894	00000013	addi	x0,x0,0	  x0:0x00000000
       15115000	      1510	80001898	fb1ff0ef	jal	x1,80001898	  x1=0x80001898
       15125000	      1511	00000000	00000013	addi	x0,x0,0	  x0:0x00000000
       15135000	      1512	80001844	00000013	addi	x0,x0,0	  x0:0x00000000
       15145000	      1513	80001848	0040036f	jal	x6,80001848	  x6=0x80001848
       15155000	      1514	00000000	00000013	addi	x0,x0,0	  x0:0x00000000
       15165000	      1515	80001848	00000013	addi	x0,x0,0	  x0:0x00000000
       15175000	      1516	8000184c	014000ef	jal	x1,8000184c	  x1=0x8000184c
       15185000	      1517	00000000	00000013	addi	x0,x0,0	  x0:0x00000000
       15195000	      1518	8000185c	00000013	addi	x0,x0,0	  x0:0x00000000
       15205000	      1519	80001860	fe1ff0ef	jal	x1,80001860	  x1=0x80001860
       15215000	      1520	00000000	00000013	addi	x0,x0,0	  x0:0x00000000
       15225000	      1521	8000183c	00000013	addi	x0,x0,0	  x0:0x00000000
       15235000	      1522	80001840	04c00eef	jal	x29,80001840	 x29=0x80001840
       15245000	      1523	00000000	00000013	addi	x0,x0,0	  x0:0x00000000
       15255000	      1524	80001888	00000013	addi	x0,x0,0	  x0:0x00000000
       15265000	      1525	8000188c	fb1ff0ef	jal	x1,8000188c	  x1=0x8000188c
       15275000	      1526	00000000	00000013	addi	x0,x0,0	  x0:0x00000000
       15285000	      1527	80001838	00000013	addi	x0,x0,0	  x0:0x00000000
       15295000	      1528	8000183c	040000ef	jal	x1,8000183c	  x1=0x8000183c
       15305000	      1529	00000000	00000013	addi	x0,x0,0	  x0:0x00000000
       15315000	      1530	80001878	00000013	addi	x0,x0,0	  x0:0x00000000
       15325000	      1531	8000187c	0140036f	jal	x6,8000187c	  x6=0x8000187c
       15335000	      1532	00000000	00000013	addi	x0,x0,0	  x0:0x00000000
       15345000	      1533	8000188c	00000013	addi	x0,x0,0	  x0:0x00000000
       15355000	      1534	80001890	ff1ff0ef	jal	x1,80001890	  x1=0x80001890
       15365000	      1535	00000000	00000013	addi	x0,x0,0	  x0:0x00000000
       15375000	      1536	8000187c	00000013	addi	x0,x0,0	  x0:0x00000000
       15385000	      1537	80001880	01c000ef	jal	x1,80001880	  x1=0x80001880
       15395000	      1538	00000000	00000013	addi	x0,x0,0	  x0:0x00000000
       15405000	      1539	80001898	00000013	addi	x0,x0,0	  x0:0x00000000
       15415000	      1540	8000189c	4184d2b3	sra	x5,x9,x24	  x9:0x80009fc4 x24:0x800017a8  x5=0xff80009f
       15425000	      1541	800018a0	00b21833	sll	x16,x4,x11	  x4:0x800017e4 x11:0x8000171c x16=0x40000000
       15435000	      1542	800018a4	004fda63	bge	x31,x4,800018b8	 x31:0x800016fc  x4:0x800017e4
       15445000	      1543	800018a8	00d74463	blt	x14,x13,800018b0	 x14:0x80001514 x13:0x800015ec
       15455000	      1544	00000000	00000013	addi	x0,x0,0	  x0:0x00000000
       15465000	      1545	800018ac	00000013	addi	x0,x0,0	  x0:0x00000000
       15475000	      1546	800018b0	f9b17fb7	lui	x31,0xf9b17	 x31=0xf9b17000
       15485000	      1547	800018b4	95e40093	addi	x1,x8,-1698	  x8:0x80001868  x1=0x800011c6
       15495000	      1548	800018b8	01959793	slli	x15,x11,0x19	 x11:0x8000171c x15=0x38000000
       15505000	      1549	800018bc	005b9813	slli	x16,x23,0x5	 x23:0x149a653c x16=0x934ca780
       15515000	      1550	800018c0	010232b3	sltu	x5,x4,x16	  x4:0x800017e4 x16:0x934ca780  x5=0x00000001
       15525000	      1551	800018c4	00c57eb3	and	x29,x10,x12	 x10:0x8000185c x12:0x80001798 x29=0x80001018
       15535000	      1552	800018c8	0567d063	bge	x15,x22,80001908	 x15:0x38000000 x22:0x800017a0
       15545000	      1553	00000000	00000013	addi	x0,x0,0	  x0:0x00000000
       15555000	      1554	80001904	00000013	addi	x0,x0,0	  x0:0x00000000
       15565000	      1555	80001908	017dcc33	xor	x24,x27,x23	 x27:0x8000172c x23:0x149a653c x24=0x949a7210
       15575000	      1556	8000190c	01c89013	slli	x0,x17,0x1c	 x17:0x800017d8
       15585000	      1557	80001910	a7be1d17	auipc	x26,0xa7be1	 x26=0x27be290c
       15595000	      1558	80001914	01115f33	srl	x30,x2,x17	  x2:0x00000582 x17:0x800017d8 x30=0x00000000
       15605000	      1559	80001918	01e8bbb3	sltu	x23,x17,x30	 x17:0x800017d8 x30:0x00000000 x23=0x00000000
       15615000	      1560	8000191c	00072f33	slt	x30,x14,x0	 x14:0x80001514  x0:0x00000000 x30=0x00000001
       15625000	      1561	80001920	05525863	bge	x4,x21,80001970	  x4:0x800017e4 x21:0x800017ec
       15635000	      1562	80001924	3ad0a013	slti	x0,x1,941	  x1:0x800011c6
       15645000	      1563	80001928	01e69333	sll	x6,x13,x30	 x13:0x800015ec x30:0x00000001  x6=0x00002bd8
       15655000	      1564	8000192c	40e90133	sub	x2,x18,x14	 x18:0x00000006 x14:0x80001514  x2=0x7fffeaf2
       15665000	      1565	80001930	01151193	slli	x3,x10,0x11	 x10:0x8000185c  x3=0x30b80000
       15675000	      1566	80001934	1e2c3b13	sltiu	x22,x24,482	 x24:0x949a7210 x22=0x00000000
       15685000	      1567	80001938	d2582893	slti	x17,x16,-731	 x16:0x934ca780 x17=0x00000001
       15695000	      1568	8000193c	03b09463	bne	x1,x27,80001964	  x1:0x800011c6 x27:0x8000172c
       15705000	      1569	00000000	00000013	addi	x0,x0,0	  x0:0x00000000
       15715000	      1570	80001960	00000013	addi	x0,x0,0	  x0:0x00000000
       15725000	      1571	80001964	002667b3	or	x15,x12,x2	 x12:0x80001798  x2:0x7fffeaf2 x15=0xfffffffa
       15735000	      1572	80001968	00b69863	bne	x13,x11,80001978	 x13:0x800015ec x11:0x8000171c
       15745000	      1573	00000000	00000013	addi	x0,x0,0	  x0:0x00000000
       15755000	      1574	80001974	00000013	addi	x0,x0,0	  x0:0x00000000
       15765000	      1575	80001978	001a9863	bne	x21,x1,80001988	 x21:0x800017ec  x1:0x800011c6
       15775000	      1576	00000000	00000013	addi	x0,x0,0	  x0:0x00000000
       15785000	      1577	80001984	00000013	addi	x0,x0,0	  x0:0x00000000
       15795000	      1578	80001988	00000013	addi	x0,x0,0	  x0:0x00000000
       15805000	      1579	8000198c	3f487117	auipc	x2,0x3f487	  x2=0xbf488988
       15815000	      1580	80001990	02791863	bne	x18,x7,800019c0	 x18:0x00000006  x7:0x800014fc
       15825000	      1581	00000000	00000013	addi	x0,x0,0	  x0:0x00000000
       15835000	      1582	800019bc	00000013	addi	x0,x0,0	  x0:0x00000000
       15845000	      1583	800019c0	01531293	slli	x5,x6,0x15	  x6:0x00002bd8  x5=0x7b000000
       15855000	      1584	800019c4	4057dfb3	sra	x31,x15,x5	 x15:0xfffffffa  x5:0x7b000000 x31=0xfffffffa
       15865000	      1585	800019c8	0006c233	xor	x4,x13,x0	 x13:0x800015ec  x0:0x00000000  x4=0x800015ec
       15875000	      1586	800019cc	c3e7ed93	ori	x27,x15,-962	 x15:0xfffffffa x27=0xfffffffe
       15885000	      1587	800019d0	41a5d413	srai	x8,x11,0x1a	 x11:0x8000171c  x8=0xffffffe0
       15895000	      1588	800019d4	414186b3	sub	x13,x3,x20	  x3:0x30b80000 x20:0x80009f5c x13=0xb0b760a4
       15905000	      1589	800019d8	0272e063	bltu	x5,x7,800019f8	  x5:0x7b000000  x7:0x800014fc
       15915000	      1590	00000000	00000013	addi	x0,x0,0	  x0:0x00000000
       15925000	      1591	800019f4	00000013	addi	x0,x0,0	  x0:0x00000000
       15935000	      1592	800019f8	03ff4063	blt	x30,x31,80001a18	 x30:0x00000001 x31:0xfffffffa
       15945000	      1593	800019fc	01941593	slli	x11,x8,0x19	  x8:0xffffffe0 x11=0xc0000000
       15955000	      1594	80001a00	79567197	auipc	x3,0x79567	  x3=0xf95689fc
       15965000	      1595	80001a04	00cad233	srl	x4,x21,x12	 x21:0x800017ec x12:0x80001798  x4=0x00000080
       15975000	      1596	80001a08	41c259b3	sra	x19,x4,x28	  x4:0x00000080 x28:0x80001764 x19=0x00000008
       15985000	      1597	80001a0c	01934c33	xor	x24,x6,x25	  x6:0x00002bd8 x25:0x80001580 x24=0x80003e58
       15995000	      1598	80001a10	41ec58b3	sra	x17,x24,x30	 x24:0x80003e58 x30:0x00000001 x17=0xc0001f2c
       16005000	      1599	80001a14	00d98433	add	x8,x19,x13	 x19:0x00000008 x13:0xb0b760a4  x8=0xb0b760ac
       16015000	      1600	80001a18	01790c63	beq	x18,x23,80001a30	 x18:0x00000006 x23:0x00000000
       16025000	      1601	80001a1c	02d76263	bltu	x14,x13,80001a40	 x14:0x80001514 x13:0xb0b760a4
       16035000	      1602	00000000	00000013	addi	x0,x0,0	  x0:0x00000000
       16045000	      1603	80001a3c	00000013	addi	x0,x0,0	  x0:0x00000000
       16055000	      1604	80001a40	008a1113	slli	x2,x20,0x8	 x20:0x80009f5c  x2=0x009f5c00
       16065000	      1605	80001a44	40105213	srai	x4,x0,0x1	  x0:0x00000000  x4=0x00000000
       16075000	      1606	80001a48	00eea633	slt	x12,x29,x14	 x29:0x80001018 x14:0x80001514 x12=0x00000001
       16085000	      1607	80001a4c	30472713	slti	x14,x14,772	 x14:0x80001514 x14=0x00000001
       16095000	      1608	80001a50	014b8b33	add	x22,x23,x20	 x23:0x00000000 x20:0x80009f5c x22=0x80009f5c
       16105000	      1609	80001a54	0399f463	bgeu	x19,x25,80001a7c	 x19:0x00000008 x25:0x80001580
       16115000	      1610	80001a58	017a5ab3	srl	x21,x20,x23	 x20:0x80009f5c x23:0x00000000 x21=0x80009f5c
       16125000	      1611	80001a5c	ec15a793	slti	x15,x11,-319	 x11:0xc0000000 x15=0x00000001
       16135000	      1612	80001a60	03adf463	bgeu	x27,x26,80001a88	 x27:0xfffffffe x26:0x27be290c
       16145000	      1613	00000000	00000013	addi	x0,x0,0	  x0:0x00000000
       16155000	      1614	80001a84	00000013	addi	x0,x0,0	  x0:0x00000000
       16165000	      1615	80001a88	004f1463	bne	x30,x4,80001a90	 x30:0x00000001  x4:0x00000000
       16175000	      1616	00000000	00000013	addi	x0,x0,0	  x0:0x00000000
       16185000	      1617	80001a8c	00000013	addi	x0,x0,0	  x0:0x00000000
       16195000	      1618	80001a90	015070b3	and	x1,x0,x21	  x0:0x00000000 x21:0x80009f5c  x1=0x00000000
       16205000	      1619	80001a94	410dd833	sra	x16,x27,x16	 x27:0xfffffffe x16:0x934ca780 x16=0xfffffffe
       16215000	      1620	80001a98	005089b3	add	x19,x1,x5	  x1:0x00000000  x5:0x7b000000 x19=0x7b000000
       16225000	      1621	80001a9c	00c23eb3	sltu	x29,x4,x12	  x4:0x00000000 x12:0x00000001 x29=0x00000001
       16235000	      1622	80001aa0	004d00b3	add	x1,x26,x4	 x26:0x27be290c  x4:0x00000000  x1=0x27be290c
       16245000	      1623	80001aa4	02f38a63	beq	x7,x15,80001ad8	  x7:0x800014fc x15:0x00000001
       16255000	      1624	80001aa8	007a49b3	xor	x19,x20,x7	 x20:0x80009f5c  x7:0x800014fc x19=0x00008ba0
       16265000	      1625	80001aac	013c6033	or	x0,x24,x19	 x24:0x80003e58 x19:0x00008ba0
       16275000	      1626	80001ab0	00208463	beq	x1,x2,80001ab8	  x1:0x27be290c  x2:0x009f5c00
       16285000	      1627	80001ab4	0e10a893	slti	x17,x1,225	  x1:0x27be290c x17=0x00000000
       16295000	      1628	80001ab8	01dffbb3	and	x23,x31,x29	 x31:0xfffffffa x29:0x00000001 x23=0x00000000
       16305000	      1629	80001abc	0398ca63	blt	x17,x25,80001af0	 x17:0x00000000 x25:0x80001580
       16315000	      1630	80001ac0	40815633	sra	x12,x2,x8	  x2:0x009f5c00  x8:0xb0b760ac x12=0x000009f5
       16325000	      1631	80001ac4	47300e13	addi	x28,x0,1139	  x0:0x00000000 x28=0x00000473
       16335000	      1632	80001ac8	03a89c63	bne	x17,x26,80001b00	 x17:0x00000000 x26:0x27be290c
       16345000	      1633	00000000	00000013	addi	x0,x0,0	  x0:0x00000000
       16355000	      1634	80001afc	00000013	addi	x0,x0,0	  x0:0x00000000
       16365000	      1635	80001b00	64734713	xori	x14,x6,1607	  x6:0x00002bd8 x14=0x00002d9f
       16375000	      1636	80001b04	00000013	addi	x0,x0,0	  x0:0x00000000
       16385000	      1637	80001b08	013fdc93	srli	x25,x31,0x13	 x31:0xfffffffa x25=0x00001fff
       16395000	      1638	80001b0c	d2098193	addi	x3,x19,-736	 x19:0x00008ba0  x3=0x000088c0
       16405000	      1639	80001b10	05d8d263	bge	x17,x29,80001b54	 x17:0x00000000 x29:0x00000001
       16415000	      1640	80001b14	123f7b13	andi	x22,x30,291	 x30:0x00000001 x22=0x00000001
       16425000	      1641	80001b18	01a5e863	bltu	x11,x26,80001b28	 x11:0xc0000000 x26:0x27be290c
       16435000	      1642	80001b1c	e559ef93	ori	x31,x19,-427	 x19:0x00008ba0 x31=0xfffffff5
       16445000	      1643	80001b20	0039e2b3	or	x5,x19,x3	 x19:0x00008ba0  x3:0x000088c0  x5=0x00008be0
       16455000	      1644	80001b24	056cf263	bgeu	x25,x22,80001b68	 x25:0x00001fff x22:0x00000001
       16465000	      1645	00000000	00000013	addi	x0,x0,0	  x0:0x00000000
       16475000	      1646	80001b64	00000013	addi	x0,x0,0	  x0:0x00000000
       16485000	      1647	80001b68	01672ab3	slt	x21,x14,x22	 x14:0x00002d9f x22:0x00000001 x21=0x00000000
       16495000	      1648	80001b6c	000fcc63	blt	x31,x0,80001b84	 x31:0xfffffff5  x0:0x00000000
       16505000	      1649	00000000	00000013	addi	x0,x0,0	  x0:0x00000000
       16515000	      1650	80001b80	00000013	addi	x0,x0,0	  x0:0x00000000
       16525000	      1651	80001b84	05767863	bgeu	x12,x23,80001bd4	 x12:0x000009f5 x23:0x00000000
       16535000	      1652	00000000	00000013	addi	x0,x0,0	  x0:0x00000000
       16545000	      1653	80001bd0	00000013	addi	x0,x0,0	  x0:0x00000000
       16555000	      1654	80001bd4	03090463	beq	x18,x16,80001bfc	 x18:0x00000006 x16:0xfffffffe
       16565000	      1655	80001bd8	3bf9e293	ori	x5,x19,959	 x19:0x00008ba0  x5=0x00008bbf
       16575000	      1656	80001bdc	b1668013	addi	x0,x13,-1258	 x13:0xb0b760a4
       16585000	      1657	80001be0	0120bf33	sltu	x30,x1,x18	  x1:0x27be290c x18:0x00000006 x30=0x00000000
       16595000	      1658	80001be4	e90fff13	andi	x30,x31,-368	 x31:0xfffffff5 x30=0xfffffe90
       16605000	      1659	80001be8	008b2b33	slt	x22,x22,x8	 x22:0x00000001  x8:0xb0b760ac x22=0x00000000
       16615000	      1660	80001bec	0317e863	bltu	x15,x17,80001c1c	 x15:0x00000001 x17:0x00000000
       16625000	      1661	80001bf0	0041efb3	or	x31,x3,x4	  x3:0x000088c0  x4:0x00000000 x31=0x000088c0
       16635000	      1662	80001bf4	004ba333	slt	x6,x23,x4	 x23:0x00000000  x4:0x00000000  x6=0x00000000
       16645000	      1663	80001bf8	c9bb3b13	sltiu	x22,x22,-869	 x22:0x00000000 x22=0x00000001
       16655000	      1664	80001bfc	00f3c5b3	xor	x11,x7,x15	  x7:0x800014fc x15:0x00000001 x11=0x800014fd
       16665000	      1665	80001c00	07297517	auipc	x10,0x7297	 x10=0x87298bfc
       16675000	      1666	80001c04	ac574713	xori	x14,x14,-1339	 x14:0x00002d9f x14=0xffffd75a
       16685000	      1667	80001c08	0193c0b3	xor	x1,x7,x25	  x7:0x800014fc x25:0x00001fff  x1=0x80000b03
       16695000	      1668	80001c0c	c0c06d13	ori	x26,x0,-1012	  x0:0x00000000 x26=0xfffffc0c
       16705000	      1669	80001c10	df932c13	slti	x24,x6,-519	  x6:0x00000000 x24=0x00000000
       16715000	      1670	80001c14	fdd8f693	andi	x13,x17,-35	 x17:0x00000000 x13=0x00000000
       16725000	      1671	80001c18	01a19333	sll	x6,x3,x26	  x3:0x000088c0 x26:0xfffffc0c  x6=0x088c0000
       16735000	      1672	80001c1c	00d45713	srli	x14,x8,0xd	  x8:0xb0b760ac x14=0x000585bb
       16745000	      1673	80001c20	00c1eb33	or	x22,x3,x12	  x3:0x000088c0 x12:0x000009f5 x22=0x000089f5
       16755000	      1674	80001c24	00559863	bne	x11,x5,80001c34	 x11:0x800014fd  x5:0x00008bbf
       16765000	      1675	00000000	00000013	addi	x0,x0,0	  x0:0x00000000
       16775000	      1676	80001c30	00000013	addi	x0,x0,0	  x0:0x00000000
       16785000	      1677	80001c34	0035d6b3	srl	x13,x11,x3	 x11:0x800014fd  x3:0x000088c0 x13=0x800014fd
       16795000	      1678	80001c38	41968bb3	sub	x23,x13,x25	 x13:0x800014fd x25:0x00001fff x23=0x7ffff4fe
       16805000	      1679	80001c3c	004affb3	and	x31,x21,x4	 x21:0x00000000  x4:0x00000000 x31=0x00000000
       16815000	      1680	80001c40	016e0f33	add	x30,x28,x22	 x28:0x00000473 x22:0x000089f5 x30=0x00008e68
       16825000	      1681	80001c44	04d8e063	bltu	x17,x13,80001c84	 x17:0x00000000 x13:0x800014fd
       16835000	      1682	00000000	00000013	addi	x0,x0,0	  x0:0x00000000
       16845000	      1683	80001c80	00000013	addi	x0,x0,0	  x0:0x00000000
       16855000	      1684	80001c84	00000013	addi	x0,x0,0	  x0:0x00000000
       16865000	      1685	80001c88	40080033	sub	x0,x16,x0	 x16:0xfffffffe  x0:0x00000000
       16875000	      1686	80001c8c	0019c233	xor	x4,x19,x1	 x19:0x00008ba0  x1:0x80000b03  x4=0x800080a3
       16885000	      1687	80001c90	66407e13	andi	x28,x0,1636	  x0:0x00000000 x28=0x00000000
       16895000	      1688	80001c94	403c8633	sub	x12,x25,x3	 x25:0x00001fff  x3:0x000088c0 x12=0xffff973f
       16905000	      1689	80001c98	40ec5ab3	sra	x21,x24,x14	 x24:0x00000000 x14:0x000585bb x21=0x00000000
       16915000	      1690	80001c9c	0340036f	jal	x6,80001c9c	  x6=0x80001c9c
       16925000	      1691	00000000	00000013	addi	x0,x0,0	  x0:0x00000000
       16935000	      1692	80001ccc	00000013	addi	x0,x0,0	  x0:0x00000000
       16945000	      1693	80001cd0	ff9ff0ef	jal	x1,80001cd0	  x1=0x80001cd0
       16955000	      1694	00000000	00000013	addi	x0,x0,0	  x0:0x00000000
       16965000	      1695	80001cc4	00000013	addi	x0,x0,0	  x0:0x00000000
       16975000	      1696	80001cc8	ff1ff36f	jal	x6,80001cc8	  x6=0x80001cc8
       16985000	      1697	00000000	00000013	addi	x0,x0,0	  x0:0x00000000
       16995000	      1698	80001cb4	00000013	addi	x0,x0,0	  x0:0x00000000
       17005000	      1699	80001cb8	0040036f	jal	x6,80001cb8	  x6=0x80001cb8
       17015000	      1700	00000000	00000013	addi	x0,x0,0	  x0:0x00000000
       17025000	      1701	80001cb8	00000013	addi	x0,x0,0	  x0:0x00000000
       17035000	      1702	80001cbc	010000ef	jal	x1,80001cbc	  x1=0x80001cbc
       17045000	      1703	00000000	00000013	addi	x0,x0,0	  x0:0x00000000
       17055000	      1704	80001cc8	00000013	addi	x0,x0,0	  x0:0x00000000
       17065000	      1705	80001ccc	01c0036f	jal	x6,80001ccc	  x6=0x80001ccc
       17075000	      1706	00000000	00000013	addi	x0,x0,0	  x0:0x00000000
       17085000	      1707	80001ce4	00000013	addi	x0,x0,0	  x0:0x00000000
       17095000	      1708	80001ce8	01000bef	jal	x23,80001ce8	 x23=0x80001ce8
       17105000	      1709	00000000	00000013	addi	x0,x0,0	  x0:0x00000000
       17115000	      1710	80001cf4	00000013	addi	x0,x0,0	  x0:0x00000000
       17125000	      1711	80001cf8	fe1ff0ef	jal	x1,80001cf8	  x1=0x80001cf8
       17135000	      1712	00000000	00000013	addi	x0,x0,0	  x0:0x00000000
       17145000	      1713	80001cd4	00000013	addi	x0,x0,0	  x0:0x00000000
       17155000	      1714	80001cd8	fd9ff36f	jal	x6,80001cd8	  x6=0x80001cd8
       17165000	      1715	00000000	00000013	addi	x0,x0,0	  x0:0x00000000
       17175000	      1716	80001cac	00000013	addi	x0,x0,0	  x0:0x00000000
       17185000	      1717	80001cb0	ffdfffef	jal	x31,80001cb0	 x31=0x80001cb0
       17195000	      1718	00000000	00000013	addi	x0,x0,0	  x0:0x00000000
       17205000	      1719	80001ca8	00000013	addi	x0,x0,0	  x0:0x00000000
       17215000	      1720	80001cac	034000ef	jal	x1,80001cac	  x1=0x80001cac
       17225000	      1721	00000000	00000013	addi	x0,x0,0	  x0:0x00000000
       17235000	      1722	80001cdc	00000013	addi	x0,x0,0	  x0:0x00000000
       17245000	      1723	80001ce0	0140036f	jal	x6,80001ce0	  x6=0x80001ce0
       17255000	      1724	00000000	00000013	addi	x0,x0,0	  x0:0x00000000
       17265000	      1725	80001cf0	00000013	addi	x0,x0,0	  x0:0x00000000
       17275000	      1726	80001cf4	ff1ff16f	jal	x2,80001cf4	  x2=0x80001cf4
       17285000	      1727	00000000	00000013	addi	x0,x0,0	  x0:0x00000000
       17295000	      1728	80001ce0	00000013	addi	x0,x0,0	  x0:0x00000000
       17305000	      1729	80001ce4	024000ef	jal	x1,80001ce4	  x1=0x80001ce4
       17315000	      1730	00000000	00000013	addi	x0,x0,0	  x0:0x00000000
       17325000	      1731	80001d04	00000013	addi	x0,x0,0	  x0:0x00000000
       17335000	      1732	80001d08	fd5ff0ef	jal	x1,80001d08	  x1=0x80001d08
       17345000	      1733	00000000	00000013	addi	x0,x0,0	  x0:0x00000000
       17355000	      1734	80001cd8	00000013	addi	x0,x0,0	  x0:0x00000000
       17365000	      1735	80001cdc	fd9ff46f	jal	x8,80001cdc	  x8=0x80001cdc
       17375000	      1736	00000000	00000013	addi	x0,x0,0	  x0:0x00000000
       17385000	      1737	80001cb0	00000013	addi	x0,x0,0	  x0:0x00000000
       17395000	      1738	80001cb4	04c000ef	jal	x1,80001cb4	  x1=0x80001cb4
       17405000	      1739	00000000	00000013	addi	x0,x0,0	  x0:0x00000000
       17415000	      1740	80001cfc	00000013	addi	x0,x0,0	  x0:0x00000000
       17425000	      1741	80001d00	fa9ff0ef	jal	x1,80001d00	  x1=0x80001d00
       17435000	      1742	00000000	00000013	addi	x0,x0,0	  x0:0x00000000
       17445000	      1743	80001ca4	00000013	addi	x0,x0,0	  x0:0x00000000
       17455000	      1744	80001ca8	0480036f	jal	x6,80001ca8	  x6=0x80001ca8
       17465000	      1745	00000000	00000013	addi	x0,x0,0	  x0:0x00000000
       17475000	      1746	80001cec	00000013	addi	x0,x0,0	  x0:0x00000000
       17485000	      1747	80001cf0	fe5ff0ef	jal	x1,80001cf0	  x1=0x80001cf0
       17495000	      1748	00000000	00000013	addi	x0,x0,0	  x0:0x00000000
       17505000	      1749	80001cd0	00000013	addi	x0,x0,0	  x0:0x00000000
       17515000	      1750	80001cd4	018000ef	jal	x1,80001cd4	  x1=0x80001cd4
       17525000	      1751	00000000	00000013	addi	x0,x0,0	  x0:0x00000000
       17535000	      1752	80001ce8	00000013	addi	x0,x0,0	  x0:0x00000000
       17545000	      1753	80001cec	018000ef	jal	x1,80001cec	  x1=0x80001cec
       17555000	      1754	00000000	00000013	addi	x0,x0,0	  x0:0x00000000
       17565000	      1755	80001d00	00000013	addi	x0,x0,0	  x0:0x00000000
       17575000	      1756	80001d04	fbdffcef	jal	x25,80001d04	 x25=0x80001d04
       17585000	      1757	00000000	00000013	addi	x0,x0,0	  x0:0x00000000
       17595000	      1758	80001cbc	00000013	addi	x0,x0,0	  x0:0x00000000
       17605000	      1759	80001cc0	0040036f	jal	x6,80001cc0	  x6=0x80001cc0
       17615000	      1760	00000000	00000013	addi	x0,x0,0	  x0:0x00000000
       17625000	      1761	80001cc0	00000013	addi	x0,x0,0	  x0:0x00000000
       17635000	      1762	80001cc4	fddff36f	jal	x6,80001cc4	  x6=0x80001cc4
       17645000	      1763	00000000	00000013	addi	x0,x0,0	  x0:0x00000000
       17655000	      1764	80001c9c	00000013	addi	x0,x0,0	  x0:0x00000000
       17665000	      1765	80001ca0	05c00fef	jal	x31,80001ca0	 x31=0x80001ca0
       17675000	      1766	00000000	00000013	addi	x0,x0,0	  x0:0x00000000
       17685000	      1767	80001cf8	00000013	addi	x0,x0,0	  x0:0x00000000
       17695000	      1768	80001cfc	fa9ff0ef	jal	x1,80001cfc	  x1=0x80001cfc
       17705000	      1769	00000000	00000013	addi	x0,x0,0	  x0:0x00000000
       17715000	      1770	80001ca0	00000013	addi	x0,x0,0	  x0:0x00000000
       17725000	      1771	80001ca4	068009ef	jal	x19,80001ca4	 x19=0x80001ca4
       17735000	      1772	00000000	00000013	addi	x0,x0,0	  x0:0x00000000
       17745000	      1773	80001d08	00000013	addi	x0,x0,0	  x0:0x00000000
       17755000	      1774	80001d0c	008c68b3	or	x17,x24,x8	 x24:0x00000000  x8:0x80001cdc x17=0x80001cdc
       17765000	      1775	80001d10	412c5693	srai	x13,x24,0x12	 x24:0x00000000 x13=0x00000000
       17775000	      1776	80001d14	41a10133	sub	x2,x2,x26	  x2:0x80001cf4 x26:0xfffffc0c  x2=0x800020e8
       17785000	      1777	80001d18	00272e33	slt	x28,x14,x2	 x14:0x000585bb  x2:0x800020e8 x28=0x00000000
       17795000	      1778	80001d1c	01a0c833	xor	x16,x1,x26	  x1:0x80001cfc x26:0xfffffc0c x16=0x7fffe0f0
       17805000	      1779	80001d20	00f7e863	bltu	x15,x15,80001d30	 x15:0x00000001 x15:0x00000001
       17815000	      1780	80001d24	371d8d37	lui	x26,0x371d8	 x26=0x371d8000
       17825000	      1781	80001d28	01590733	add	x14,x18,x21	 x18:0x00000006 x21:0x00000000 x14=0x00000006
       17835000	      1782	80001d2c	01ed9e93	slli	x29,x27,0x1e	 x27:0xfffffffe x29=0x80000000
       17845000	      1783	80001d30	99c07e93	andi	x29,x0,-1636	  x0:0x00000000 x29=0x00000000
       17855000	      1784	80001d34	0151d833	srl	x16,x3,x21	  x3:0x000088c0 x21:0x00000000 x16=0x000088c0
       17865000	      1785	80001d38	d5868393	addi	x7,x13,-680	 x13:0x00000000  x7=0xfffffd58
       17875000	      1786	80001d3c	00a0abb3	slt	x23,x1,x10	  x1:0x80001cfc x10:0x87298bfc x23=0x00000001
       17885000	      1787	80001d40	7b886c13	ori	x24,x16,1976	 x16:0x000088c0 x24=0x00008ff8
       17895000	      1788	80001d44	00363433	sltu	x8,x12,x3	 x12:0xffff973f  x3:0x000088c0  x8=0x00000000
       17905000	      1789	80001d48	02ebf863	bgeu	x23,x14,80001d78	 x23:0x00000001 x14:0x00000006
       17915000	      1790	80001d4c	d40a4693	xori	x13,x20,-704	 x20:0x80009f5c x13=0x7fff621c
       17925000	      1791	80001d50	40f3d313	srai	x6,x7,0xf	  x7:0xfffffd58  x6=0xffffffff
       17935000	      1792	80001d54	4018d433	sra	x8,x17,x1	 x17:0x80001cdc  x1:0x80001cfc  x8=0xfffffff8
       17945000	      1793	80001d58	401fd513	srai	x10,x31,0x1	 x31:0x80001ca0 x10=0xc0000e50
       17955000	      1794	80001d5c	00d7cbb3	xor	x23,x15,x13	 x15:0x00000001 x13:0x7fff621c x23=0x7fff621d
       17965000	      1795	80001d60	19b9dd17	auipc	x26,0x19b9d	 x26=0x99b9ed5c
       17975000	      1796	80001d64	01848863	beq	x9,x24,80001d74	  x9:0x80009fc4 x24:0x00008ff8
       17985000	      1797	80001d68	03d39a63	bne	x7,x29,80001d9c	  x7:0xfffffd58 x29:0x00000000
       17995000	      1798	00000000	00000013	addi	x0,x0,0	  x0:0x00000000
       18005000	      1799	80001d98	00000013	addi	x0,x0,0	  x0:0x00000000
       18015000	      1800	80001d9c	0107bc33	sltu	x24,x15,x16	 x15:0x00000001 x16:0x000088c0 x24=0x00000001
       18025000	      1801	80001da0	01fc5863	bge	x24,x31,80001db0	 x24:0x00000001 x31:0x80001ca0
       18035000	      1802	00000000	00000013	addi	x0,x0,0	  x0:0x00000000
       18045000	      1803	80001dac	00000013	addi	x0,x0,0	  x0:0x00000000
       18055000	      1804	80001db0	018f0eb3	add	x29,x30,x24	 x30:0x00008e68 x24:0x00000001 x29=0x00008e69
       18065000	      1805	80001db4	8eb9f513	andi	x10,x19,-1813	 x19:0x80001ca4 x10=0x800018a0
       18075000	      1806	80001db8	ff27ab13	slti	x22,x15,-14	 x15:0x00000001 x22=0x00000000
       18085000	      1807	80001dbc	00091233	sll	x4,x18,x0	 x18:0x00000006  x0:0x00000000  x4=0x00000006
       18095000	      1808	80001dc0	008f5833	srl	x16,x30,x8	 x30:0x00008e68  x8:0xfffffff8 x16=0x00000000
       18105000	      1809	80001dc4	20c9f213	andi	x4,x19,524	 x19:0x80001ca4  x4=0x00000004
       18115000	      1810	80001dc8	c1324b93	xori	x23,x4,-1005	  x4:0x00000004 x23=0xfffffc17
       18125000	      1811	80001dcc	02a68063	beq	x13,x10,80001dec	 x13:0x7fff621c x10:0x800018a0
       18135000	      1812	80001dd0	412e5e13	srai	x28,x28,0x12	 x28:0x00000000 x28=0x00000000
       18145000	      1813	80001dd4	00e65463	bge	x12,x14,80001ddc	 x12:0xffff973f x14:0x00000006
       18155000	      1814	80001dd8	1201e713	ori	x14,x3,288	  x3:0x000088c0 x14=0x000089e0
       18165000	      1815	80001ddc	dac1b9b7	lui	x19,0xdac1b	 x19=0xdac1b000
       18175000	      1816	80001de0	5318c613	xori	x12,x17,1329	 x17:0x80001cdc x12=0x800019ed
       18185000	      1817	80001de4	05317263	bgeu	x2,x19,80001e28	  x2:0x800020e8 x19:0xdac1b000
       18195000	      1818	80001de8	40ec8db3	sub	x27,x25,x14	 x25:0x80001d04 x14:0x000089e0 x27=0x7fff9324
       18205000	      1819	80001dec	8f712f13	slti	x30,x2,-1801	  x2:0x800020e8 x30=0x00000001
       18215000	      1820	80001df0	3b236713	ori	x14,x6,946	  x6:0xffffffff x14=0xffffffff
       18225000	      1821	80001df4	0cbfe313	ori	x6,x31,203	 x31:0x80001ca0  x6=0x80001ceb
       18235000	      1822	80001df8	1c893313	sltiu	x6,x18,456	 x18:0x00000006  x6=0x00000001
       18245000	      1823	80001dfc	2b474817	auipc	x16,0x2b474	 x16=0xab475df8
       18255000	      1824	80001e00	41958fb3	sub	x31,x11,x25	 x11:0x800014fd x25:0x80001d04 x31=0xfffff7f9
       18265000	      1825	80001e04	01644c63	blt	x8,x22,80001e1c	  x8:0xfffffff8 x22:0x00000000
       18275000	      1826	00000000	00000013	addi	x0,x0,0	  x0:0x00000000
       18285000	      1827	80001e18	00000013	addi	x0,x0,0	  x0:0x00000000
       18295000	      1828	80001e1c	014073b3	and	x7,x0,x20	  x0:0x00000000 x20:0x80009f5c  x7=0x00000000
       18305000	      1829	80001e20	10918393	addi	x7,x3,265	  x3:0x000088c0  x7=0x000089c9
       18315000	      1830	80001e24	41bbde93	srai	x29,x23,0x1b	 x23:0xfffffc17 x29=0xffffffff
       18325000	      1831	80001e28	9cf8ba93	sltiu	x21,x17,-1585	 x17:0x80001cdc x21=0x00000001
       18335000	      1832	80001e2c	40e40433	sub	x8,x8,x14	  x8:0xfffffff8 x14:0xffffffff  x8=0xfffffff9
       18345000	      1833	80001e30	40988e33	sub	x28,x17,x9	 x17:0x80001cdc  x9:0x80009fc4 x28=0xffff7d18
       18355000	      1834	80001e34	00e8f863	bgeu	x17,x14,80001e44	 x17:0x80001cdc x14:0xffffffff
       18365000	      1835	80001e38	8e867813	andi	x16,x12,-1816	 x12:0x800019ed x16=0x800018e8
       18375000	      1836	80001e3c	02bdd463	bge	x27,x11,80001e64	 x27:0x7fff9324 x11:0x800014fd
       18385000	      1837	00000000	00000013	addi	x0,x0,0	  x0:0x00000000
       18395000	      1838	80001e60	00000013	addi	x0,x0,0	  x0:0x00000000
       18405000	      1839	80001e64	038bd263	bge	x23,x24,80001e88	 x23:0xfffffc17 x24:0x00000001
       18415000	      1840	80001e68	0105d713	srli	x14,x11,0x10	 x11:0x800014fd x14=0x00008000
       18425000	      1841	80001e6c	87cdf013	andi	x0,x27,-1924	 x27:0x7fff9324
       18435000	      1842	80001e70	645c9bb7	lui	x23,0x645c9	 x23=0x645c9000
       18445000	      1843	80001e74	03d30463	beq	x6,x29,80001e9c	  x6:0x00000001 x29:0xffffffff
       18455000	      1844	80001e78	bb89fb13	andi	x22,x19,-1096	 x19:0xdac1b000 x22=0xdac1b000
       18465000	      1845	80001e7c	02d14463	blt	x2,x13,80001ea4	  x2:0x800020e8 x13:0x7fff621c
       18475000	      1846	00000000	00000013	addi	x0,x0,0	  x0:0x00000000
       18485000	      1847	80001ea0	00000013	addi	x0,x0,0	  x0:0x00000000
       18495000	      1848	80001ea4	40670833	sub	x16,x14,x6	 x14:0x00008000  x6:0x00000001 x16=0x00007fff
       18505000	      1849	80001ea8	b9def837	lui	x16,0xb9def	 x16=0xb9def000
       18515000	      1850	80001eac	4188db33	sra	x22,x17,x24	 x17:0x80001cdc x24:0x00000001 x22=0xc0000e6e
       18525000	      1851	80001eb0	08887693	andi	x13,x16,136	 x16:0xb9def000 x13=0x00000000
       18535000	      1852	80001eb4	ad916b93	ori	x23,x2,-1319	  x2:0x800020e8 x23=0xfffffaf9
       18545000	      1853	80001eb8	5a69f413	andi	x8,x19,1446	 x19:0xdac1b000  x8=0x00000000
       18555000	      1854	80001ebc	22df6413	ori	x8,x30,557	 x30:0x00000001  x8=0x0000022d
       18565000	      1855	80001ec0	00000013	addi	x0,x0,0	  x0:0x00000000
       18575000	      1856	80001ec4	73b4b413	sltiu	x8,x9,1851	  x9:0x80009fc4  x8=0x00000000
       18585000	      1857	80001ec8	4134ddb3	sra	x27,x9,x19	  x9:0x80009fc4 x19:0xdac1b000 x27=0x80009fc4
       18595000	      1858	80001ecc	0104d993	srli	x19,x9,0x10	  x9:0x80009fc4 x19=0x00008000
       18605000	      1859	80001ed0	00069333	sll	x6,x13,x0	 x13:0x00000000  x0:0x00000000  x6=0x00000000
       18615000	      1860	80001ed4	010086b3	add	x13,x1,x16	  x1:0x80001cfc x16:0xb9def000 x13=0x39df0cfc
       18625000	      1861	80001ed8	00108733	add	x14,x1,x1	  x1:0x80001cfc  x1:0x80001cfc x14=0x000039f8
       18635000	      1862	80001edc	dde3c413	xori	x8,x7,-546	  x7:0x000089c9  x8=0xffff7417
       18645000	      1863	80001ee0	01d48a63	beq	x9,x29,80001ef4	  x9:0x80009fc4 x29:0xffffffff
       18655000	      1864	80001ee4	6aac0313	addi	x6,x24,1706	 x24:0x00000001  x6=0x000006ab
       18665000	      1865	80001ee8	01dbfdb3	and	x27,x23,x29	 x23:0xfffffaf9 x29:0xffffffff x27=0xfffffaf9
       18675000	      1866	80001eec	01c14463	blt	x2,x28,80001ef4	  x2:0x800020e8 x28:0xffff7d18
       18685000	      1867	00000000	00000013	addi	x0,x0,0	  x0:0x00000000
       18695000	      1868	80001ef0	00000013	addi	x0,x0,0	  x0:0x00000000
       18705000	      1869	80001ef4	1f88f813	andi	x16,x17,504	 x17:0x80001cdc x16=0x000000d8
       18715000	      1870	80001ef8	68b8a537	lui	x10,0x68b8a	 x10=0x68b8a000
       18725000	      1871	80001efc	0007f333	and	x6,x15,x0	 x15:0x00000001  x0:0x00000000  x6=0x00000000
       18735000	      1872	80001f00	038c8063	beq	x25,x24,80001f20	 x25:0x80001d04 x24:0x00000001
       18745000	      1873	80001f04	6e5ec713	xori	x14,x29,1765	 x29:0xffffffff x14=0xfffff91a
       18755000	      1874	80001f08	40d35c93	srai	x25,x6,0xd	  x6:0x00000000 x25=0x00000000
       18765000	      1875	80001f0c	e50aa993	slti	x19,x21,-432	 x21:0x00000001 x19=0x00000000
       18775000	      1876	80001f10	ca028a93	addi	x21,x5,-864	  x5:0x00008bbf x21=0x0000885f
       18785000	      1877	80001f14	49990993	addi	x19,x18,1177	 x18:0x00000006 x19=0x0000049f
       18795000	      1878	80001f18	26b86313	ori	x6,x16,619	 x16:0x000000d8  x6=0x000002fb
       18805000	      1879	80001f1c	01a7c0b3	xor	x1,x15,x26	 x15:0x00000001 x26:0x99b9ed5c  x1=0x99b9ed5d
       18815000	      1880	80001f20	04980863	beq	x16,x9,80001f70	 x16:0x000000d8  x9:0x80009fc4
       18825000	      1881	80001f24	00000013	addi	x0,x0,0	  x0:0x00000000
       18835000	      1882	80001f28	013d8a63	beq	x27,x19,80001f3c	 x27:0xfffffaf9 x19:0x0000049f
       18845000	      1883	80001f2c	01031893	slli	x17,x6,0x10	  x6:0x000002fb x17=0x02fb0000
       18855000	      1884	80001f30	41b6d0b3	sra	x1,x13,x27	 x13:0x39df0cfc x27:0xfffffaf9  x1=0x0000001c
       18865000	      1885	80001f34	0151cbb3	xor	x23,x3,x21	  x3:0x000088c0 x21:0x0000885f x23=0x0000009f
       18875000	      1886	80001f38	e2adb293	sltiu	x5,x27,-470	 x27:0xfffffaf9  x5=0x00000001
       18885000	      1887	80001f3c	019245b3	xor	x11,x4,x25	  x4:0x00000004 x25:0x00000000 x11=0x00000004
       18895000	      1888	80001f40	c645f213	andi	x4,x11,-924	 x11:0x00000004  x4=0x00000004
       18905000	      1889	80001f44	0230c863	blt	x1,x3,80001f74	  x1:0x0000001c  x3:0x000088c0
       18915000	      1890	00000000	00000013	addi	x0,x0,0	  x0:0x00000000
       18925000	      1891	80001f70	00000013	addi	x0,x0,0	  x0:0x00000000
       18935000	      1892	80001f74	1eae4193	xori	x3,x28,490	 x28:0xffff7d18  x3=0xffff7cf2
       18945000	      1893	80001f78	019d83b3	add	x7,x27,x25	 x27:0xfffffaf9 x25:0x00000000  x7=0xfffffaf9
       18955000	      1894	80001f7c	008bbcb3	sltu	x25,x23,x8	 x23:0x0000009f  x8:0xffff7417 x25=0x00000001
       18965000	      1895	80001f80	0041e9b3	or	x19,x3,x4	  x3:0xffff7cf2  x4:0x00000004 x19=0xffff7cf6
       18975000	      1896	80001f84	54d4c993	xori	x19,x9,1357	  x9:0x80009fc4 x19=0x80009a89
       18985000	      1897	80001f88	21c27113	andi	x2,x4,540	  x4:0x00000004  x2=0x00000004
       18995000	      1898	80001f8c	00705ab3	srl	x21,x0,x7	  x0:0x00000000  x7:0xfffffaf9 x21=0x00000000
       19005000	      1899	80001f90	04027263	bgeu	x4,x0,80001fd4	  x4:0x00000004  x0:0x00000000
       19015000	      1900	00000000	00000013	addi	x0,x0,0	  x0:0x00000000
       19025000	      1901	80001fd0	00000013	addi	x0,x0,0	  x0:0x00000000
       19035000	      1902	80001fd4	05509263	bne	x1,x21,80002018	  x1:0x0000001c x21:0x00000000
       19045000	      1903	00000000	00000013	addi	x0,x0,0	  x0:0x00000000
       19055000	      1904	80002014	00000013	addi	x0,x0,0	  x0:0x00000000
       19065000	      1905	80002018	007b5233	srl	x4,x22,x7	 x22:0xc0000e6e  x7:0xfffffaf9  x4=0x00000060
       19075000	      1906	8000201c	49b7a597	auipc	x11,0x49b7a	 x11=0xc9b7c018
       19085000	      1907	80002020	01babeb3	sltu	x29,x21,x27	 x21:0x00000000 x27:0xfffffaf9 x29=0x00000001
       19095000	      1908	80002024	02a45463	bge	x8,x10,8000204c	  x8:0xffff7417 x10:0x68b8a000
       19105000	      1909	80002028	40fd0db3	sub	x27,x26,x15	 x26:0x99b9ed5c x15:0x00000001 x27=0x99b9ed5b
       19115000	      1910	8000202c	01ca7bb3	and	x23,x20,x28	 x20:0x80009f5c x28:0xffff7d18 x23=0x80001d18
       19125000	      1911	80002030	01add133	srl	x2,x27,x26	 x27:0x99b9ed5b x26:0x99b9ed5c  x2=0x00000009
       19135000	      1912	80002034	011608b3	add	x17,x12,x17	 x12:0x800019ed x17:0x02fb0000 x17=0x82fb19ed
       19145000	      1913	80002038	dcfea237	lui	x4,0xdcfea	  x4=0xdcfea000
       19155000	      1914	8000203c	99936c93	ori	x25,x6,-1639	  x6:0x000002fb x25=0xfffffbfb
       19165000	      1915	80002040	78bdd397	auipc	x7,0x78bdd	  x7=0xf8bdf03c
       19175000	      1916	80002044	ae798537	lui	x10,0xae798	 x10=0xae798000
       19185000	      1917	80002048	00000013	addi	x0,x0,0	  x0:0x00000000
       19195000	      1918	8000204c	00000013	addi	x0,x0,0	  x0:0x00000000
       19205000	      1919	80002050	007b31b3	sltu	x3,x22,x7	 x22:0xc0000e6e  x7:0xf8bdf03c  x3=0x00000001
       19215000	      1920	80002054	40f180b3	sub	x1,x3,x15	  x3:0x00000001 x15:0x00000001  x1=0x00000000
       19225000	      1921	80002058	02464c63	blt	x12,x4,80002090	 x12:0x800019ed  x4:0xdcfea000
       19235000	      1922	00000000	00000013	addi	x0,x0,0	  x0:0x00000000
       19245000	      1923	8000208c	00000013	addi	x0,x0,0	  x0:0x00000000
       19255000	      1924	80002090	001510b3	sll	x1,x10,x1	 x10:0xae798000  x1:0x00000000  x1=0xae798000
       19265000	      1925	80002094	008e7fb3	and	x31,x28,x8	 x28:0xffff7d18  x8:0xffff7417 x31=0xffff7410
       19275000	      1926	80002098	013e6863	bltu	x28,x19,800020a8	 x28:0xffff7d18 x19:0x80009a89
       19285000	      1927	8000209c	fc534017	auipc	x0,0xfc534	
       19295000	      1928	800020a0	0186e733	or	x14,x13,x24	 x13:0x39df0cfc x24:0x00000001 x14=0x39df0cfd
       19305000	      1929	800020a4	00000013	addi	x0,x0,0	  x0:0x00000000
       19315000	      1930	800020a8	26a80413	addi	x8,x16,618	 x16:0x000000d8  x8=0x00000342
       19325000	      1931	800020ac	4177d793	srai	x15,x15,0x17	 x15:0x00000001 x15=0x00000000
       19335000	      1932	800020b0	0294d263	bge	x9,x9,800020d4	  x9:0x80009fc4  x9:0x80009fc4
       19345000	      1933	00000000	00000013	addi	x0,x0,0	  x0:0x00000000
       19355000	      1934	800020d0	00000013	addi	x0,x0,0	  x0:0x00000000
       19365000	      1935	800020d4	e62692b7	lui	x5,0xe6269	  x5=0xe6269000
       19375000	      1936	800020d8	01451c33	sll	x24,x10,x20	 x10:0xae798000 x20:0x80009f5c x24=0x00000000
       19385000	      1937	800020dc	010ad333	srl	x6,x21,x16	 x21:0x00000000 x16:0x000000d8  x6=0x00000000
       19395000	      1938	800020e0	41ad0ab3	sub	x21,x26,x26	 x26:0x99b9ed5c x26:0x99b9ed5c x21=0x00000000
       19405000	      1939	800020e4	7bf4ed93	ori	x27,x9,1983	  x9:0x80009fc4 x27=0x80009fff
       19415000	      1940	800020e8	0cc87293	andi	x5,x16,204	 x16:0x000000d8  x5=0x000000c8
       19425000	      1941	800020ec	00b7dbb3	srl	x23,x15,x11	 x15:0x00000000 x11:0xc9b7c018 x23=0x00000000
       19435000	      1942	800020f0	016f1863	bne	x30,x22,80002100	 x30:0x00000001 x22:0xc0000e6e
       19445000	      1943	00000000	00000013	addi	x0,x0,0	  x0:0x00000000
       19455000	      1944	800020fc	00000013	addi	x0,x0,0	  x0:0x00000000
       19465000	      1945	80002100	46825ab7	lui	x21,0x46825	 x21=0x46825000
       19475000	      1946	80002104	014d6333	or	x6,x26,x20	 x26:0x99b9ed5c x20:0x80009f5c  x6=0x99b9ff5c
       19485000	      1947	80002108	018f0033	add	x0,x30,x24	 x30:0x00000001 x24:0x00000000
       19495000	      1948	8000210c	efae7313	andi	x6,x28,-262	 x28:0xffff7d18  x6=0xffff7c18
       19505000	      1949	80002110	007f67b3	or	x15,x30,x7	 x30:0x00000001  x7:0xf8bdf03c x15=0xf8bdf03d
       19515000	      1950	80002114	03716463	bltu	x2,x23,8000213c	  x2:0x00000009 x23:0x00000000
       19525000	      1951	80002118	03ea8063	beq	x21,x30,80002138	 x21:0x46825000 x30:0x00000001
       19535000	      1952	8000211c	0000b5b3	sltu	x11,x1,x0	  x1:0xae798000  x0:0x00000000 x11=0x00000000
       19545000	      1953	80002120	004593b3	sll	x7,x11,x4	 x11:0x00000000  x4:0xdcfea000  x7=0x00000000
       19555000	      1954	80002124	01eb6a63	bltu	x22,x30,80002138	 x22:0xc0000e6e x30:0x00000001
       19565000	      1955	80002128	f6283313	sltiu	x6,x16,-158	 x16:0x000000d8  x6=0x00000001
       19575000	      1956	8000212c	71d87093	andi	x1,x16,1821	 x16:0x000000d8  x1=0x00000018
       19585000	      1957	80002130	41a20eb3	sub	x29,x4,x26	  x4:0xdcfea000 x26:0x99b9ed5c x29=0x4344b2a4
       19595000	      1958	80002134	0146da63	bge	x13,x20,80002148	 x13:0x39df0cfc x20:0x80009f5c
       19605000	      1959	00000000	00000013	addi	x0,x0,0	  x0:0x00000000
       19615000	      1960	80002144	00000013	addi	x0,x0,0	  x0:0x00000000
       19625000	      1961	80002148	001e7b33	and	x22,x28,x1	 x28:0xffff7d18  x1:0x00000018 x22=0x00000018
       19635000	      1962	8000214c	92352013	slti	x0,x10,-1757	 x10:0xae798000
       19645000	      1963	80002150	01d57863	bgeu	x10,x29,80002160	 x10:0xae798000 x29:0x4344b2a4
       19655000	      1964	00000000	00000013	addi	x0,x0,0	  x0:0x00000000
       19665000	      1965	8000215c	00000013	addi	x0,x0,0	  x0:0x00000000
       19675000	      1966	80002160	03037863	bgeu	x6,x16,80002190	  x6:0x00000001 x16:0x000000d8
       19685000	      1967	80002164	01a1d293	srli	x5,x3,0x1a	  x3:0x00000001  x5=0x00000000
       19695000	      1968	80002168	d6e459b7	lui	x19,0xd6e45	 x19=0xd6e45000
       19705000	      1969	8000216c	0026c463	blt	x13,x2,80002174	 x13:0x39df0cfc  x2:0x00000009
       19715000	      1970	80002170	415bdeb3	sra	x29,x23,x21	 x23:0x00000000 x21:0x46825000 x29=0x00000000
       19725000	      1971	80002174	0040e863	bltu	x1,x4,80002184	  x1:0x00000018  x4:0xdcfea000
       19735000	      1972	00000000	00000013	addi	x0,x0,0	  x0:0x00000000
       19745000	      1973	80002180	00000013	addi	x0,x0,0	  x0:0x00000000
       19755000	      1974	80002184	01c29463	bne	x5,x28,8000218c	  x5:0x00000000 x28:0xffff7d18
       19765000	      1975	00000000	00000013	addi	x0,x0,0	  x0:0x00000000
       19775000	      1976	80002188	00000013	addi	x0,x0,0	  x0:0x00000000
       19785000	      1977	8000218c	01969233	sll	x4,x13,x25	 x13:0x39df0cfc x25:0xfffffbfb  x4=0xe0000000
       19795000	      1978	80002190	002e1d13	slli	x26,x28,0x2	 x28:0xffff7d18 x26=0xfffdf460
       19805000	      1979	80002194	00077eb3	and	x29,x14,x0	 x14:0x39df0cfd  x0:0x00000000 x29=0x00000000
       19815000	      1980	80002198	b61df093	andi	x1,x27,-1183	 x27:0x80009fff  x1=0x80009b61
       19825000	      1981	8000219c	00000013	addi	x0,x0,0	  x0:0x00000000
       19835000	      1982	800021a0	ed59cb13	xori	x22,x19,-299	 x19:0xd6e45000 x22=0x291baed5
       19845000	      1983	800021a4	00355ab3	srl	x21,x10,x3	 x10:0xae798000  x3:0x00000001 x21=0x573cc000
       19855000	      1984	800021a8	00a9c6b3	xor	x13,x19,x10	 x19:0xd6e45000 x10:0xae798000 x13=0x789dd000
       19865000	      1985	800021ac	010b2633	slt	x12,x22,x16	 x22:0x291baed5 x16:0x000000d8 x12=0x00000000
       19875000	      1986	800021b0	02605063	bge	x0,x6,800021d0	  x0:0x00000000  x6:0x00000001
       19885000	      1987	800021b4	00b4cdb3	xor	x27,x9,x11	  x9:0x80009fc4 x11:0x00000000 x27=0x80009fc4
       19895000	      1988	800021b8	02e9d663	bge	x19,x14,800021e4	 x19:0xd6e45000 x14:0x39df0cfd
       19905000	      1989	800021bc	5ebe0d93	addi	x27,x28,1515	 x28:0xffff7d18 x27=0xffff8303
       19915000	      1990	800021c0	01fa0c33	add	x24,x20,x31	 x20:0x80009f5c x31:0xffff7410 x24=0x8000136c
       19925000	      1991	800021c4	00835e33	srl	x28,x6,x8	  x6:0x00000001  x8:0x00000342 x28=0x00000000
       19935000	      1992	800021c8	9ab73e37	lui	x28,0x9ab73	 x28=0x9ab73000
       19945000	      1993	800021cc	82d145b7	lui	x11,0x82d14	 x11=0x82d14000
       19955000	      1994	800021d0	00a839b3	sltu	x19,x16,x10	 x16:0x000000d8 x10:0xae798000 x19=0x00000001
       19965000	      1995	800021d4	e84f80b7	lui	x1,0xe84f8	  x1=0xe84f8000
       19975000	      1996	800021d8	405682b3	sub	x5,x13,x5	 x13:0x789dd000  x5:0x00000000  x5=0x789dd000
       19985000	      1997	800021dc	40645c33	sra	x24,x8,x6	  x8:0x00000342  x6:0x00000001 x24=0x000001a1
       19995000	      1998	800021e0	0476c263	blt	x13,x7,80002224	 x13:0x789dd000  x7:0x00000000
       20005000	      1999	800021e4	02eb4a63	blt	x22,x14,80002218	 x22:0x291baed5 x14:0x39df0cfd
       20015000	      2000	00000000	00000013	addi	x0,x0,0	  x0:0x00000000
       20025000	      2001	80002214	00000013	addi	x0,x0,0	  x0:0x00000000
       20035000	      2002	80002218	eb8d3d37	lui	x26,0xeb8d3	 x26=0xeb8d3000
       20045000	      2003	8000221c	01779033	sll	x0,x15,x23	 x15:0xf8bdf03d x23:0x00000000
       20055000	      2004	80002220	05dbd263	bge	x23,x29,80002264	 x23:0x00000000 x29:0x00000000
       20065000	      2005	00000000	00000013	addi	x0,x0,0	  x0:0x00000000
       20075000	      2006	80002260	00000013	addi	x0,x0,0	  x0:0x00000000
       20085000	      2007	80002264	02651263	bne	x10,x6,80002288	 x10:0xae798000  x6:0x00000001
       20095000	      2008	00000000	00000013	addi	x0,x0,0	  x0:0x00000000
       20105000	      2009	80002284	00000013	addi	x0,x0,0	  x0:0x00000000
       20115000	      2010	80002288	c979f1b7	lui	x3,0xc979f	  x3=0xc979f000
       20125000	      2011	8000228c	417f8433	sub	x8,x31,x23	 x31:0xffff7410 x23:0x00000000  x8=0xffff7410
       20135000	      2012	80002290	b3acdf17	auipc	x30,0xb3acd	 x30=0x33acf28c
       20145000	      2013	80002294	011c3ab3	sltu	x21,x24,x17	 x24:0x000001a1 x17:0x82fb19ed x21=0x00000001
       20155000	      2014	80002298	013073b3	and	x7,x0,x19	  x0:0x00000000 x19:0x00000001  x7=0x00000000
       20165000	      2015	8000229c	0144f8b3	and	x17,x9,x20	  x9:0x80009fc4 x20:0x80009f5c x17=0x80009f44
       20175000	      2016	800022a0	01e66f33	or	x30,x12,x30	 x12:0x00000000 x30:0x33acf28c x30=0x33acf28c
       20185000	      2017	800022a4	02416463	bltu	x2,x4,800022cc	  x2:0x00000009  x4:0xe0000000
       20195000	      2018	00000000	00000013	addi	x0,x0,0	  x0:0x00000000
       20205000	      2019	800022c8	00000013	addi	x0,x0,0	  x0:0x00000000
       20215000	      2020	800022cc	02f54463	blt	x10,x15,800022f4	 x10:0xae798000 x15:0xf8bdf03d
       20225000	      2021	00000000	00000013	addi	x0,x0,0	  x0:0x00000000
       20235000	      2022	800022f0	00000013	addi	x0,x0,0	  x0:0x00000000
       20245000	      2023	800022f4	41840c33	sub	x24,x8,x24	  x8:0xffff7410 x24:0x000001a1 x24=0xffff726f
       20255000	      2024	800022f8	57d74093	xori	x1,x14,1405	 x14:0x39df0cfd  x1=0x39df0980
       20265000	      2025	800022fc	00945333	srl	x6,x8,x9	  x8:0xffff7410  x9:0x80009fc4  x6=0x0ffff741
       20275000	      2026	80002300	40bbd413	srai	x8,x23,0xb	 x23:0x00000000  x8=0x00000000
       20285000	      2027	80002304	01939633	sll	x12,x7,x25	  x7:0x00000000 x25:0xfffffbfb x12=0x00000000
       20295000	      2028	80002308	40c50c33	sub	x24,x10,x12	 x10:0xae798000 x12:0x00000000 x24=0xae798000
       20305000	      2029	8000230c	04b55663	bge	x10,x11,80002358	 x10:0xae798000 x11:0x82d14000
       20315000	      2030	00000000	00000013	addi	x0,x0,0	  x0:0x00000000
       20325000	      2031	80002354	00000013	addi	x0,x0,0	  x0:0x00000000
       20335000	      2032	80002358	01776463	bltu	x14,x23,80002360	 x14:0x39df0cfd x23:0x00000000
       20345000	      2033	8000235c	12e8b693	sltiu	x13,x17,302	 x17:0x80009f44 x13=0x00000000
       20355000	      2034	80002360	00000013	addi	x0,x0,0	  x0:0x00000000
       20365000	      2035	80002364	146e8f13	addi	x30,x29,326	 x29:0x00000000 x30=0x00000146
       20375000	      2036	80002368	8f543c13	sltiu	x24,x8,-1803	  x8:0x00000000 x24=0x00000001
       20385000	      2037	8000236c	830fbd93	sltiu	x27,x31,-2000	 x31:0xffff7410 x27=0x00000001
       20395000	      2038	80002370	41ffd193	srai	x3,x31,0x1f	 x31:0xffff7410  x3=0xffffffff
       20405000	      2039	80002374	9a13f593	andi	x11,x7,-1631	  x7:0x00000000 x11=0x00000000
       20415000	      2040	80002378	01873ab3	sltu	x21,x14,x24	 x14:0x39df0cfd x24:0x00000001 x21=0x00000000
       20425000	      2041	8000237c	294d9d97	auipc	x27,0x294d9	 x27=0xa94db378
       20435000	      2042	80002380	00f66133	or	x2,x12,x15	 x12:0x00000000 x15:0xf8bdf03d  x2=0xf8bdf03d
       20445000	      2043	80002384	00febeb3	sltu	x29,x29,x15	 x29:0x00000000 x15:0xf8bdf03d x29=0x00000001
       20455000	      2044	80002388	00177333	and	x6,x14,x1	 x14:0x39df0cfd  x1:0x39df0980  x6=0x39df0880
       20465000	      2045	8000238c	0261c813	xori	x16,x3,38	  x3:0xffffffff x16=0xffffffd9
       20475000	      2046	80002390	01105f93	srli	x31,x0,0x11	  x0:0x00000000 x31=0x00000000
       20485000	      2047	80002394	00677033	and	x0,x14,x6	 x14:0x39df0cfd  x6:0x39df0880
       20495000	      2048	80002398	006abc33	sltu	x24,x21,x6	 x21:0x00000000  x6:0x39df0880 x24=0x00000001
       20505000	      2049	8000239c	00695863	bge	x18,x6,800023ac	 x18:0x00000006  x6:0x39df0880
       20515000	      2050	800023a0	02c01863	bne	x0,x12,800023d0	  x0:0x00000000 x12:0x00000000
       20525000	      2051	800023a4	002442b3	xor	x5,x8,x2	  x8:0x00000000  x2:0xf8bdf03d  x5=0xf8bdf03d
       20535000	      2052	800023a8	011d7863	bgeu	x26,x17,800023b8	 x26:0xeb8d3000 x17:0x80009f44
       20545000	      2053	00000000	00000013	addi	x0,x0,0	  x0:0x00000000
       20555000	      2054	800023b4	00000013	addi	x0,x0,0	  x0:0x00000000
       20565000	      2055	800023b8	474ac213	xori	x4,x21,1140	 x21:0x00000000  x4=0x00000474
       20575000	      2056	800023bc	01112033	slt	x0,x2,x17	  x2:0xf8bdf03d x17:0x80009f44
       20585000	      2057	800023c0	04590c63	beq	x18,x5,80002418	 x18:0x00000006  x5:0xf8bdf03d
       20595000	      2058	800023c4	01c0b7b3	sltu	x15,x1,x28	  x1:0x39df0980 x28:0x9ab73000 x15=0x00000001
       20605000	      2059	800023c8	40435b93	srai	x23,x6,0x4	  x6:0x39df0880 x23=0x039df088
       20615000	      2060	800023cc	41e908b3	sub	x17,x18,x30	 x18:0x00000006 x30:0x00000146 x17=0xfffffec0
       20625000	      2061	800023d0	00add413	srli	x8,x27,0xa	 x27:0xa94db378  x8=0x002a536c
       20635000	      2062	800023d4	4194d7b3	sra	x15,x9,x25	  x9:0x80009fc4 x25:0xfffffbfb x15=0xfffffff0
       20645000	      2063	800023d8	afa96d93	ori	x27,x18,-1286	 x18:0x00000006 x27=0xfffffafe
       20655000	      2064	800023dc	72c28313	addi	x6,x5,1836	  x5:0xf8bdf03d  x6=0xf8bdf769
       20665000	      2065	800023e0	00000013	addi	x0,x0,0	  x0:0x00000000
       20675000	      2066	800023e4	5c5d6313	ori	x6,x26,1477	 x26:0xeb8d3000  x6=0xeb8d35c5
       20685000	      2067	800023e8	00002a97	auipc	x21,0x2	 x21=0x800043e4
       20695000	      2068	800023ec	264a8a93	addi	x21,x21,612	 x21:0x800043e4 x21=0x80004648
       20705000	      2069	800023f0	00000013	addi	x0,x0,0	  x0:0x00000000
       20715000	      2070	800023f4	cfaa8a93	addi	x21,x21,-774	 x21:0x80004648 x21=0x80004342
       20725000	      2071	800023f8	00e11b33	sll	x22,x2,x14	  x2:0xf8bdf03d x14:0x39df0cfd x22=0xa0000000
       20735000	      2072	800023fc	a0495c37	lui	x24,0xa0495	 x24=0xa0495000
       20745000	      2073	80002400	00f13cb3	sltu	x25,x2,x15	  x2:0xf8bdf03d x15:0xfffffff0 x25=0x00000001
       20755000	      2074	80002404	f948f737	lui	x14,0xf948f	 x14=0xf948f000
       20765000	      2075	80002408	307a8367	jalr	x6,x21,775	 x21:0x80004342  x6=0x80002408
       20775000	      2076	00000000	00000013	addi	x0,x0,0	  x0:0x00000000
       20785000	      2077	80004648	00000013	addi	x0,x0,0	  x0:0x00000000
       20795000	      2078	8000464c	0025a233	slt	x4,x11,x2	 x11:0x00000000  x2:0xf8bdf03d  x4=0x00000000
       20805000	      2079	80004650	fe8a0a13	addi	x20,x20,-24	 x20:0x80009f5c x20=0x80009f44
       20815000	      2080	80004654	006a2223	sw	x6,4(x20)	 x20:0x80009f44  x6:0x80002408 PA:0x80009f48
       20825000	      2081	80004658	013a7e33	and	x28,x20,x19	 x20:0x80009f44 x19:0x00000001 x28=0x00000000
       20835000	      2082	8000465c	019f38b3	sltu	x17,x30,x25	 x30:0x00000146 x25:0x00000001 x17=0x00000000
       20845000	      2083	80004660	a4fc2693	slti	x13,x24,-1457	 x24:0xa0495000 x13=0x00000001
       20855000	      2084	80004664	004c5233	srl	x4,x24,x4	 x24:0xa0495000  x4:0x00000000  x4=0xa0495000
       20865000	      2085	80004668	c1238d93	addi	x27,x7,-1006	  x7:0x00000000 x27=0xfffffc12
       20875000	      2086	8000466c	00000013	addi	x0,x0,0	  x0:0x00000000
       20885000	      2087	80004670	fffff617	auipc	x12,0xfffff	 x12=0x8000366c
       20895000	      2088	80004674	98460613	addi	x12,x12,-1660	 x12:0x8000366c x12=0x80002ff0
       20905000	      2089	80004678	494aae93	slti	x29,x21,1172	 x21:0x80004342 x29=0x00000001
       20915000	      2090	8000467c	2b860613	addi	x12,x12,696	 x12:0x80002ff0 x12=0x800032a8
       20925000	      2091	80004680	40fc05b3	sub	x11,x24,x15	 x24:0xa0495000 x15:0xfffffff0 x11=0xa0495010
       20935000	      2092	80004684	006542b3	xor	x5,x10,x6	 x10:0xae798000  x6:0x80002408  x5=0x2e79a408
       20945000	      2093	80004688	0098ccb3	xor	x25,x17,x9	 x17:0x00000000  x9:0x80009fc4 x25=0x80009fc4
       20955000	      2094	8000468c	017b0463	beq	x22,x23,80004694	 x22:0xa0000000 x23:0x039df088
       20965000	      2095	80004690	00ef5413	srli	x8,x30,0xe	 x30:0x00000146  x8=0x00000000
       20975000	      2096	80004694	d4960367	jalr	x6,x12,-695	 x12:0x800032a8  x6=0x80004694
       20985000	      2097	00000000	00000013	addi	x0,x0,0	  x0:0x00000000
       20995000	      2098	80002ff0	00000013	addi	x0,x0,0	  x0:0x00000000
       21005000	      2099	80002ff4	016fe463	bltu	x31,x22,80002ffc	 x31:0x00000000 x22:0xa0000000
       21015000	      2100	00000000	00000013	addi	x0,x0,0	  x0:0x00000000
       21025000	      2101	80002ff8	00000013	addi	x0,x0,0	  x0:0x00000000
       21035000	      2102	80002ffc	ff4a0a13	addi	x20,x20,-12	 x20:0x80009f44 x20=0x80009f38
       21045000	      2103	80003000	85443d13	sltiu	x26,x8,-1964	  x8:0x00000000 x26=0x00000001
       21055000	      2104	80003004	006a2223	sw	x6,4(x20)	 x20:0x80009f38  x6:0x80004694 PA:0x80009f3c
       21065000	      2105	80003008	0065a433	slt	x8,x11,x6	 x11:0xa0495010  x6:0x80004694  x8=0x00000000
       21075000	      2106	8000300c	0680036f	jal	x6,8000300c	  x6=0x8000300c
       21085000	      2107	00000000	00000013	addi	x0,x0,0	  x0:0x00000000
       21095000	      2108	80003070	00000013	addi	x0,x0,0	  x0:0x00000000
       21105000	      2109	80003074	fb5ff0ef	jal	x1,80003074	  x1=0x80003074
       21115000	      2110	00000000	00000013	addi	x0,x0,0	  x0:0x00000000
       21125000	      2111	80003024	00000013	addi	x0,x0,0	  x0:0x00000000
       21135000	      2112	80003028	05c0036f	jal	x6,80003028	  x6=0x80003028
       21145000	      2113	00000000	00000013	addi	x0,x0,0	  x0:0x00000000
       21155000	      2114	80003080	00000013	addi	x0,x0,0	  x0:0x00000000
       21165000	      2115	80003084	fa1ff0ef	jal	x1,80003084	  x1=0x80003084
       21175000	      2116	00000000	00000013	addi	x0,x0,0	  x0:0x00000000
       21185000	      2117	80003020	00000013	addi	x0,x0,0	  x0:0x00000000
       21195000	      2118	80003024	ff9ff0ef	jal	x1,80003024	  x1=0x80003024
       21205000	      2119	00000000	00000013	addi	x0,x0,0	  x0:0x00000000
       21215000	      2120	80003018	00000013	addi	x0,x0,0	  x0:0x00000000
       21225000	      2121	8000301c	03c0036f	jal	x6,8000301c	  x6=0x8000301c
       21235000	      2122	00000000	00000013	addi	x0,x0,0	  x0:0x00000000
       21245000	      2123	80003054	00000013	addi	x0,x0,0	  x0:0x00000000
       21255000	      2124	80003058	fbdff36f	jal	x6,80003058	  x6=0x80003058
       21265000	      2125	00000000	00000013	addi	x0,x0,0	  x0:0x00000000
       21275000	      2126	80003010	00000013	addi	x0,x0,0	  x0:0x00000000
       21285000	      2127	80003014	00c000ef	jal	x1,80003014	  x1=0x80003014
       21295000	      2128	00000000	00000013	addi	x0,x0,0	  x0:0x00000000
       21305000	      2129	8000301c	00000013	addi	x0,x0,0	  x0:0x00000000
       21315000	      2130	80003020	02c0036f	jal	x6,80003020	  x6=0x80003020
       21325000	      2131	00000000	00000013	addi	x0,x0,0	  x0:0x00000000
       21335000	      2132	80003048	00000013	addi	x0,x0,0	  x0:0x00000000
       21345000	      2133	8000304c	02c003ef	jal	x7,8000304c	  x7=0x8000304c
       21355000	      2134	00000000	00000013	addi	x0,x0,0	  x0:0x00000000
       21365000	      2135	80003074	00000013	addi	x0,x0,0	  x0:0x00000000
       21375000	      2136	80003078	fd1ff1ef	jal	x3,80003078	  x3=0x80003078
       21385000	      2137	00000000	00000013	addi	x0,x0,0	  x0:0x00000000
       21395000	      2138	80003044	00000013	addi	x0,x0,0	  x0:0x00000000
       21405000	      2139	80003048	014002ef	jal	x5,80003048	  x5=0x80003048
       21415000	      2140	00000000	00000013	addi	x0,x0,0	  x0:0x00000000
       21425000	      2141	80003058	00000013	addi	x0,x0,0	  x0:0x00000000
       21435000	      2142	8000305c	024000ef	jal	x1,8000305c	  x1=0x8000305c
       21445000	      2143	00000000	00000013	addi	x0,x0,0	  x0:0x00000000
       21455000	      2144	8000307c	00000013	addi	x0,x0,0	  x0:0x00000000
       21465000	      2145	80003080	fe5ff2ef	jal	x5,80003080	  x5=0x80003080
       21475000	      2146	00000000	00000013	addi	x0,x0,0	  x0:0x00000000
       21485000	      2147	80003060	00000013	addi	x0,x0,0	  x0:0x00000000
       21495000	      2148	80003064	ff1ff0ef	jal	x1,80003064	  x1=0x80003064
       21505000	      2149	00000000	00000013	addi	x0,x0,0	  x0:0x00000000
       21515000	      2150	80003050	00000013	addi	x0,x0,0	  x0:0x00000000
       21525000	      2151	80003054	fd9ff0ef	jal	x1,80003054	  x1=0x80003054
       21535000	      2152	00000000	00000013	addi	x0,x0,0	  x0:0x00000000
       21545000	      2153	80003028	00000013	addi	x0,x0,0	  x0:0x00000000
       21555000	      2154	8000302c	00c000ef	jal	x1,8000302c	  x1=0x8000302c
       21565000	      2155	00000000	00000013	addi	x0,x0,0	  x0:0x00000000
       21575000	      2156	80003034	00000013	addi	x0,x0,0	  x0:0x00000000
       21585000	      2157	80003038	00800fef	jal	x31,80003038	 x31=0x80003038
       21595000	      2158	00000000	00000013	addi	x0,x0,0	  x0:0x00000000
       21605000	      2159	8000303c	00000013	addi	x0,x0,0	  x0:0x00000000
       21615000	      2160	80003040	03c000ef	jal	x1,80003040	  x1=0x80003040
       21625000	      2161	00000000	00000013	addi	x0,x0,0	  x0:0x00000000
       21635000	      2162	80003078	00000013	addi	x0,x0,0	  x0:0x00000000
       21645000	      2163	8000307c	f9dff46f	jal	x8,8000307c	  x8=0x8000307c
       21655000	      2164	00000000	00000013	addi	x0,x0,0	  x0:0x00000000
       21665000	      2165	80003014	00000013	addi	x0,x0,0	  x0:0x00000000
       21675000	      2166	80003018	0180026f	jal	x4,80003018	  x4=0x80003018
       21685000	      2167	00000000	00000013	addi	x0,x0,0	  x0:0x00000000
       21695000	      2168	8000302c	00000013	addi	x0,x0,0	  x0:0x00000000
       21705000	      2169	80003030	03c000ef	jal	x1,80003030	  x1=0x80003030
       21715000	      2170	00000000	00000013	addi	x0,x0,0	  x0:0x00000000
       21725000	      2171	80003068	00000013	addi	x0,x0,0	  x0:0x00000000
       21735000	      2172	8000306c	0040036f	jal	x6,8000306c	  x6=0x8000306c
       21745000	      2173	00000000	00000013	addi	x0,x0,0	  x0:0x00000000
       21755000	      2174	8000306c	00000013	addi	x0,x0,0	  x0:0x00000000
       21765000	      2175	80003070	fd5ff36f	jal	x6,80003070	  x6=0x80003070
       21775000	      2176	00000000	00000013	addi	x0,x0,0	  x0:0x00000000
       21785000	      2177	80003040	00000013	addi	x0,x0,0	  x0:0x00000000
       21795000	      2178	80003044	00c000ef	jal	x1,80003044	  x1=0x80003044
       21805000	      2179	00000000	00000013	addi	x0,x0,0	  x0:0x00000000
       21815000	      2180	8000304c	00000013	addi	x0,x0,0	  x0:0x00000000
       21825000	      2181	80003050	0100016f	jal	x2,80003050	  x2=0x80003050
       21835000	      2182	00000000	00000013	addi	x0,x0,0	  x0:0x00000000
       21845000	      2183	8000305c	00000013	addi	x0,x0,0	  x0:0x00000000
       21855000	      2184	80003060	fb1ff0ef	jal	x1,80003060	  x1=0x80003060
       21865000	      2185	00000000	00000013	addi	x0,x0,0	  x0:0x00000000
       21875000	      2186	8000300c	00000013	addi	x0,x0,0	  x0:0x00000000
       21885000	      2187	80003010	024000ef	jal	x1,80003010	  x1=0x80003010
       21895000	      2188	00000000	00000013	addi	x0,x0,0	  x0:0x00000000
       21905000	      2189	80003030	00000013	addi	x0,x0,0	  x0:0x00000000
       21915000	      2190	80003034	034000ef	jal	x1,80003034	  x1=0x80003034
       21925000	      2191	00000000	00000013	addi	x0,x0,0	  x0:0x00000000
       21935000	      2192	80003064	00000013	addi	x0,x0,0	  x0:0x00000000
       21945000	      2193	80003068	fd5ff0ef	jal	x1,80003068	  x1=0x80003068
       21955000	      2194	00000000	00000013	addi	x0,x0,0	  x0:0x00000000
       21965000	      2195	80003038	00000013	addi	x0,x0,0	  x0:0x00000000
       21975000	      2196	8000303c	04c000ef	jal	x1,8000303c	  x1=0x8000303c
       21985000	      2197	00000000	00000013	addi	x0,x0,0	  x0:0x00000000
       21995000	      2198	80003084	00000013	addi	x0,x0,0	  x0:0x00000000
       22005000	      2199	80003088	04e80293	addi	x5,x16,78	 x16:0xffffffd9  x5=0x00000027
       22015000	      2200	8000308c	0180036f	jal	x6,8000308c	  x6=0x8000308c
       22025000	      2201	00000000	00000013	addi	x0,x0,0	  x0:0x00000000
       22035000	      2202	800030a0	00000013	addi	x0,x0,0	  x0:0x00000000
       22045000	      2203	800030a4	01000cef	jal	x25,800030a4	 x25=0x800030a4
       22055000	      2204	00000000	00000013	addi	x0,x0,0	  x0:0x00000000
       22065000	      2205	800030b0	00000013	addi	x0,x0,0	  x0:0x00000000
       22075000	      2206	800030b4	ff5ff26f	jal	x4,800030b4	  x4=0x800030b4
       22085000	      2207	00000000	00000013	addi	x0,x0,0	  x0:0x00000000
       22095000	      2208	800030a4	00000013	addi	x0,x0,0	  x0:0x00000000
       22105000	      2209	800030a8	01c000ef	jal	x1,800030a8	  x1=0x800030a8
       22115000	      2210	00000000	00000013	addi	x0,x0,0	  x0:0x00000000
       22125000	      2211	800030c0	00000013	addi	x0,x0,0	  x0:0x00000000
       22135000	      2212	800030c4	fd1ff26f	jal	x4,800030c4	  x4=0x800030c4
       22145000	      2213	00000000	00000013	addi	x0,x0,0	  x0:0x00000000
       22155000	      2214	80003090	00000013	addi	x0,x0,0	  x0:0x00000000
       22165000	      2215	80003094	01c009ef	jal	x19,80003094	 x19=0x80003094
       22175000	      2216	00000000	00000013	addi	x0,x0,0	  x0:0x00000000
       22185000	      2217	800030ac	00000013	addi	x0,x0,0	  x0:0x00000000
       22195000	      2218	800030b0	fe1ff0ef	jal	x1,800030b0	  x1=0x800030b0
       22205000	      2219	00000000	00000013	addi	x0,x0,0	  x0:0x00000000
       22215000	      2220	8000308c	00000013	addi	x0,x0,0	  x0:0x00000000
       22225000	      2221	80003090	030000ef	jal	x1,80003090	  x1=0x80003090
       22235000	      2222	00000000	00000013	addi	x0,x0,0	  x0:0x00000000
       22245000	      2223	800030bc	00000013	addi	x0,x0,0	  x0:0x00000000
       22255000	      2224	800030c0	fe1ff0ef	jal	x1,800030c0	  x1=0x800030c0
       22265000	      2225	00000000	00000013	addi	x0,x0,0	  x0:0x00000000
       22275000	      2226	8000309c	00000013	addi	x0,x0,0	  x0:0x00000000
       22285000	      2227	800030a0	02800b6f	jal	x22,800030a0	 x22=0x800030a0
       22295000	      2228	00000000	00000013	addi	x0,x0,0	  x0:0x00000000
       22305000	      2229	800030c4	00000013	addi	x0,x0,0	  x0:0x00000000
       22315000	      2230	800030c8	fd5ff8ef	jal	x17,800030c8	 x17=0x800030c8
       22325000	      2231	00000000	00000013	addi	x0,x0,0	  x0:0x00000000
       22335000	      2232	80003098	00000013	addi	x0,x0,0	  x0:0x00000000
       22345000	      2233	8000309c	010005ef	jal	x11,8000309c	 x11=0x8000309c
       22355000	      2234	00000000	00000013	addi	x0,x0,0	  x0:0x00000000
       22365000	      2235	800030a8	00000013	addi	x0,x0,0	  x0:0x00000000
       22375000	      2236	800030ac	020000ef	jal	x1,800030ac	  x1=0x800030ac
       22385000	      2237	00000000	00000013	addi	x0,x0,0	  x0:0x00000000
       22395000	      2238	800030c8	00000013	addi	x0,x0,0	  x0:0x00000000
       22405000	      2239	800030cc	ff1ff36f	jal	x6,800030cc	  x6=0x800030cc
       22415000	      2240	00000000	00000013	addi	x0,x0,0	  x0:0x00000000
       22425000	      2241	800030b8	00000013	addi	x0,x0,0	  x0:0x00000000
       22435000	      2242	800030bc	fddff36f	jal	x6,800030bc	  x6=0x800030bc
       22445000	      2243	00000000	00000013	addi	x0,x0,0	  x0:0x00000000
       22455000	      2244	80003094	00000013	addi	x0,x0,0	  x0:0x00000000
       22465000	      2245	80003098	020000ef	jal	x1,80003098	  x1=0x80003098
       22475000	      2246	00000000	00000013	addi	x0,x0,0	  x0:0x00000000
       22485000	      2247	800030b4	00000013	addi	x0,x0,0	  x0:0x00000000
       22495000	      2248	800030b8	0180036f	jal	x6,800030b8	  x6=0x800030b8
       22505000	      2249	00000000	00000013	addi	x0,x0,0	  x0:0x00000000
       22515000	      2250	800030cc	00000013	addi	x0,x0,0	  x0:0x00000000
       22525000	      2251	800030d0	3747a593	slti	x11,x15,884	 x15:0xfffffff0 x11=0x00000001
       22535000	      2252	800030d4	0480036f	jal	x6,800030d4	  x6=0x800030d4
       22545000	      2253	00000000	00000013	addi	x0,x0,0	  x0:0x00000000
       22555000	      2254	80003118	00000013	addi	x0,x0,0	  x0:0x00000000
       22565000	      2255	8000311c	014000ef	jal	x1,8000311c	  x1=0x8000311c
       22575000	      2256	00000000	00000013	addi	x0,x0,0	  x0:0x00000000
       22585000	      2257	8000312c	00000013	addi	x0,x0,0	  x0:0x00000000
       22595000	      2258	80003130	fcdff0ef	jal	x1,80003130	  x1=0x80003130
       22605000	      2259	00000000	00000013	addi	x0,x0,0	  x0:0x00000000
       22615000	      2260	800030f8	00000013	addi	x0,x0,0	  x0:0x00000000
       22625000	      2261	800030fc	028000ef	jal	x1,800030fc	  x1=0x800030fc
       22635000	      2262	00000000	00000013	addi	x0,x0,0	  x0:0x00000000
       22645000	      2263	80003120	00000013	addi	x0,x0,0	  x0:0x00000000
       22655000	      2264	80003124	fb5ff36f	jal	x6,80003124	  x6=0x80003124
       22665000	      2265	00000000	00000013	addi	x0,x0,0	  x0:0x00000000
       22675000	      2266	800030d4	00000013	addi	x0,x0,0	  x0:0x00000000
       22685000	      2267	800030d8	020009ef	jal	x19,800030d8	 x19=0x800030d8
       22695000	      2268	00000000	00000013	addi	x0,x0,0	  x0:0x00000000
       22705000	      2269	800030f4	00000013	addi	x0,x0,0	  x0:0x00000000
       22715000	      2270	800030f8	0480036f	jal	x6,800030f8	  x6=0x800030f8
       22725000	      2271	00000000	00000013	addi	x0,x0,0	  x0:0x00000000
       22735000	      2272	8000313c	00000013	addi	x0,x0,0	  x0:0x00000000
       22745000	      2273	80003140	fa1ff3ef	jal	x7,80003140	  x7=0x80003140
       22755000	      2274	00000000	00000013	addi	x0,x0,0	  x0:0x00000000
       22765000	      2275	800030dc	00000013	addi	x0,x0,0	  x0:0x00000000
       22775000	      2276	800030e0	05c000ef	jal	x1,800030e0	  x1=0x800030e0
       22785000	      2277	00000000	00000013	addi	x0,x0,0	  x0:0x00000000
       22795000	      2278	80003138	00000013	addi	x0,x0,0	  x0:0x00000000
       22805000	      2279	8000313c	ff1ff1ef	jal	x3,8000313c	  x3=0x8000313c
       22815000	      2280	00000000	00000013	addi	x0,x0,0	  x0:0x00000000
       22825000	      2281	80003128	00000013	addi	x0,x0,0	  x0:0x00000000
       22835000	      2282	8000312c	fb9ff0ef	jal	x1,8000312c	  x1=0x8000312c
       22845000	      2283	00000000	00000013	addi	x0,x0,0	  x0:0x00000000
       22855000	      2284	800030e0	00000013	addi	x0,x0,0	  x0:0x00000000
       22865000	      2285	800030e4	050000ef	jal	x1,800030e4	  x1=0x800030e4
       22875000	      2286	00000000	00000013	addi	x0,x0,0	  x0:0x00000000
       22885000	      2287	80003130	00000013	addi	x0,x0,0	  x0:0x00000000
       22895000	      2288	80003134	fd9ff1ef	jal	x3,80003134	  x3=0x80003134
       22905000	      2289	00000000	00000013	addi	x0,x0,0	  x0:0x00000000
       22915000	      2290	80003108	00000013	addi	x0,x0,0	  x0:0x00000000
       22925000	      2291	8000310c	fe5ff36f	jal	x6,8000310c	  x6=0x8000310c
       22935000	      2292	00000000	00000013	addi	x0,x0,0	  x0:0x00000000
       22945000	      2293	800030ec	00000013	addi	x0,x0,0	  x0:0x00000000
       22955000	      2294	800030f0	058001ef	jal	x3,800030f0	  x3=0x800030f0
       22965000	      2295	00000000	00000013	addi	x0,x0,0	  x0:0x00000000
       22975000	      2296	80003144	00000013	addi	x0,x0,0	  x0:0x00000000
       22985000	      2297	80003148	fc9ffaef	jal	x21,80003148	 x21=0x80003148
       22995000	      2298	00000000	00000013	addi	x0,x0,0	  x0:0x00000000
       23005000	      2299	8000310c	00000013	addi	x0,x0,0	  x0:0x00000000
       23015000	      2300	80003110	ff5ffaef	jal	x21,80003110	 x21=0x80003110
       23025000	      2301	00000000	00000013	addi	x0,x0,0	  x0:0x00000000
       23035000	      2302	80003100	00000013	addi	x0,x0,0	  x0:0x00000000
       23045000	      2303	80003104	fd9ffcef	jal	x25,80003104	 x25=0x80003104
       23055000	      2304	00000000	00000013	addi	x0,x0,0	  x0:0x00000000
       23065000	      2305	800030d8	00000013	addi	x0,x0,0	  x0:0x00000000
       23075000	      2306	800030dc	05c000ef	jal	x1,800030dc	  x1=0x800030dc
       23085000	      2307	00000000	00000013	addi	x0,x0,0	  x0:0x00000000
       23095000	      2308	80003134	00000013	addi	x0,x0,0	  x0:0x00000000
       23105000	      2309	80003138	fb5ff2ef	jal	x5,80003138	  x5=0x80003138
       23115000	      2310	00000000	00000013	addi	x0,x0,0	  x0:0x00000000
       23125000	      2311	800030e8	00000013	addi	x0,x0,0	  x0:0x00000000
       23135000	      2312	800030ec	02c000ef	jal	x1,800030ec	  x1=0x800030ec
       23145000	      2313	00000000	00000013	addi	x0,x0,0	  x0:0x00000000
       23155000	      2314	80003114	00000013	addi	x0,x0,0	  x0:0x00000000
       23165000	      2315	80003118	ffdff56f	jal	x10,80003118	 x10=0x80003118
       23175000	      2316	00000000	00000013	addi	x0,x0,0	  x0:0x00000000
       23185000	      2317	80003110	00000013	addi	x0,x0,0	  x0:0x00000000
       23195000	      2318	80003114	0140036f	jal	x6,80003114	  x6=0x80003114
       23205000	      2319	00000000	00000013	addi	x0,x0,0	  x0:0x00000000
       23215000	      2320	80003124	00000013	addi	x0,x0,0	  x0:0x00000000
       23225000	      2321	80003128	ff9ff36f	jal	x6,80003128	  x6=0x80003128
       23235000	      2322	00000000	00000013	addi	x0,x0,0	  x0:0x00000000
       23245000	      2323	8000311c	00000013	addi	x0,x0,0	  x0:0x00000000
       23255000	      2324	80003120	fe1ff9ef	jal	x19,80003120	 x19=0x80003120
       23265000	      2325	00000000	00000013	addi	x0,x0,0	  x0:0x00000000
       23275000	      2326	800030fc	00000013	addi	x0,x0,0	  x0:0x00000000
       23285000	      2327	80003100	008000ef	jal	x1,80003100	  x1=0x80003100
       23295000	      2328	00000000	00000013	addi	x0,x0,0	  x0:0x00000000
       23305000	      2329	80003104	00000013	addi	x0,x0,0	  x0:0x00000000
       23315000	      2330	80003108	03c0046f	jal	x8,80003108	  x8=0x80003108
       23325000	      2331	00000000	00000013	addi	x0,x0,0	  x0:0x00000000
       23335000	      2332	80003140	00000013	addi	x0,x0,0	  x0:0x00000000
       23345000	      2333	80003144	fa5ff7ef	jal	x15,80003144	 x15=0x80003144
       23355000	      2334	00000000	00000013	addi	x0,x0,0	  x0:0x00000000
       23365000	      2335	800030e4	00000013	addi	x0,x0,0	  x0:0x00000000
       23375000	      2336	800030e8	0640036f	jal	x6,800030e8	  x6=0x800030e8
       23385000	      2337	00000000	00000013	addi	x0,x0,0	  x0:0x00000000
       23395000	      2338	80003148	00000013	addi	x0,x0,0	  x0:0x00000000
       23405000	      2339	8000314c	fa9ff36f	jal	x6,8000314c	  x6=0x8000314c
       23415000	      2340	00000000	00000013	addi	x0,x0,0	  x0:0x00000000
       23425000	      2341	800030f0	00000013	addi	x0,x0,0	  x0:0x00000000
       23435000	      2342	800030f4	05c00e6f	jal	x28,800030f4	 x28=0x800030f4
       23445000	      2343	00000000	00000013	addi	x0,x0,0	  x0:0x00000000
       23455000	      2344	8000314c	00000013	addi	x0,x0,0	  x0:0x00000000
       23465000	      2345	80003150	01719333	sll	x6,x3,x23	  x3:0x800030f0 x23:0x039df088  x6=0x0030f000
       23475000	      2346	80003154	0640036f	jal	x6,80003154	  x6=0x80003154
       23485000	      2347	00000000	00000013	addi	x0,x0,0	  x0:0x00000000
       23495000	      2348	800031b4	00000013	addi	x0,x0,0	  x0:0x00000000
       23505000	      2349	800031b8	fc5ff0ef	jal	x1,800031b8	  x1=0x800031b8
       23515000	      2350	00000000	00000013	addi	x0,x0,0	  x0:0x00000000
       23525000	      2351	80003178	00000013	addi	x0,x0,0	  x0:0x00000000
       23535000	      2352	8000317c	00c000ef	jal	x1,8000317c	  x1=0x8000317c
       23545000	      2353	00000000	00000013	addi	x0,x0,0	  x0:0x00000000
       23555000	      2354	80003184	00000013	addi	x0,x0,0	  x0:0x00000000
       23565000	      2355	80003188	00c000ef	jal	x1,80003188	  x1=0x80003188
       23575000	      2356	00000000	00000013	addi	x0,x0,0	  x0:0x00000000
       23585000	      2357	80003190	00000013	addi	x0,x0,0	  x0:0x00000000
       23595000	      2358	80003194	014000ef	jal	x1,80003194	  x1=0x80003194
       23605000	      2359	00000000	00000013	addi	x0,x0,0	  x0:0x00000000
       23615000	      2360	800031a4	00000013	addi	x0,x0,0	  x0:0x00000000
       23625000	      2361	800031a8	fe5ff0ef	jal	x1,800031a8	  x1=0x800031a8
       23635000	      2362	00000000	00000013	addi	x0,x0,0	  x0:0x00000000
       23645000	      2363	80003188	00000013	addi	x0,x0,0	  x0:0x00000000
       23655000	      2364	8000318c	fedff36f	jal	x6,8000318c	  x6=0x8000318c
       23665000	      2365	00000000	00000013	addi	x0,x0,0	  x0:0x00000000
       23675000	      2366	80003174	00000013	addi	x0,x0,0	  x0:0x00000000
       23685000	      2367	80003178	fe5ff36f	jal	x6,80003178	  x6=0x80003178
       23695000	      2368	00000000	00000013	addi	x0,x0,0	  x0:0x00000000
       23705000	      2369	80003158	00000013	addi	x0,x0,0	  x0:0x00000000
       23715000	      2370	8000315c	044000ef	jal	x1,8000315c	  x1=0x8000315c
       23725000	      2371	00000000	00000013	addi	x0,x0,0	  x0:0x00000000
       23735000	      2372	8000319c	00000013	addi	x0,x0,0	  x0:0x00000000
       23745000	      2373	800031a0	fc9ff36f	jal	x6,800031a0	  x6=0x800031a0
       23755000	      2374	00000000	00000013	addi	x0,x0,0	  x0:0x00000000
       23765000	      2375	80003164	00000013	addi	x0,x0,0	  x0:0x00000000
       23775000	      2376	80003168	0300036f	jal	x6,80003168	  x6=0x80003168
       23785000	      2377	00000000	00000013	addi	x0,x0,0	  x0:0x00000000
       23795000	      2378	80003194	00000013	addi	x0,x0,0	  x0:0x00000000
       23805000	      2379	80003198	ff9ff0ef	jal	x1,80003198	  x1=0x80003198
       23815000	      2380	00000000	00000013	addi	x0,x0,0	  x0:0x00000000
       23825000	      2381	8000318c	00000013	addi	x0,x0,0	  x0:0x00000000
       23835000	      2382	80003190	ff5ff0ef	jal	x1,80003190	  x1=0x80003190
       23845000	      2383	00000000	00000013	addi	x0,x0,0	  x0:0x00000000
       23855000	      2384	80003180	00000013	addi	x0,x0,0	  x0:0x00000000
       23865000	      2385	80003184	0300036f	jal	x6,80003184	  x6=0x80003184
       23875000	      2386	00000000	00000013	addi	x0,x0,0	  x0:0x00000000
       23885000	      2387	800031b0	00000013	addi	x0,x0,0	  x0:0x00000000
       23895000	      2388	800031b4	008000ef	jal	x1,800031b4	  x1=0x800031b4
       23905000	      2389	00000000	00000013	addi	x0,x0,0	  x0:0x00000000
       23915000	      2390	800031b8	00000013	addi	x0,x0,0	  x0:0x00000000
       23925000	      2391	800031bc	fb5ff0ef	jal	x1,800031bc	  x1=0x800031bc
       23935000	      2392	00000000	00000013	addi	x0,x0,0	  x0:0x00000000
       23945000	      2393	8000316c	00000013	addi	x0,x0,0	  x0:0x00000000
       23955000	      2394	80003170	0400066f	jal	x12,80003170	 x12=0x80003170
       23965000	      2395	00000000	00000013	addi	x0,x0,0	  x0:0x00000000
       23975000	      2396	800031ac	00000013	addi	x0,x0,0	  x0:0x00000000
       23985000	      2397	800031b0	fc5ff0ef	jal	x1,800031b0	  x1=0x800031b0
       23995000	      2398	00000000	00000013	addi	x0,x0,0	  x0:0x00000000
       24005000	      2399	80003170	00000013	addi	x0,x0,0	  x0:0x00000000
       24015000	      2400	80003174	038001ef	jal	x3,80003174	  x3=0x80003174
       24025000	      2401	00000000	00000013	addi	x0,x0,0	  x0:0x00000000
       24035000	      2402	800031a8	00000013	addi	x0,x0,0	  x0:0x00000000
       24045000	      2403	800031ac	fadff0ef	jal	x1,800031ac	  x1=0x800031ac
       24055000	      2404	00000000	00000013	addi	x0,x0,0	  x0:0x00000000
       24065000	      2405	80003154	00000013	addi	x0,x0,0	  x0:0x00000000
       24075000	      2406	80003158	068009ef	jal	x19,80003158	 x19=0x80003158
       24085000	      2407	00000000	00000013	addi	x0,x0,0	  x0:0x00000000
       24095000	      2408	800031bc	00000013	addi	x0,x0,0	  x0:0x00000000
       24105000	      2409	800031c0	00400def	jal	x27,800031c0	 x27=0x800031c0
       24115000	      2410	00000000	00000013	addi	x0,x0,0	  x0:0x00000000
       24125000	      2411	800031c0	00000013	addi	x0,x0,0	  x0:0x00000000
       24135000	      2412	800031c4	fa9ffeef	jal	x29,800031c4	 x29=0x800031c4
       24145000	      2413	00000000	00000013	addi	x0,x0,0	  x0:0x00000000
       24155000	      2414	80003168	00000013	addi	x0,x0,0	  x0:0x00000000
       24165000	      2415	8000316c	030000ef	jal	x1,8000316c	  x1=0x8000316c
       24175000	      2416	00000000	00000013	addi	x0,x0,0	  x0:0x00000000
       24185000	      2417	80003198	00000013	addi	x0,x0,0	  x0:0x00000000
       24195000	      2418	8000319c	02c0026f	jal	x4,8000319c	  x4=0x8000319c
       24205000	      2419	00000000	00000013	addi	x0,x0,0	  x0:0x00000000
       24215000	      2420	800031c4	00000013	addi	x0,x0,0	  x0:0x00000000
       24225000	      2421	800031c8	004000ef	jal	x1,800031c8	  x1=0x800031c8
       24235000	      2422	00000000	00000013	addi	x0,x0,0	  x0:0x00000000
       24245000	      2423	800031c8	00000013	addi	x0,x0,0	  x0:0x00000000
       24255000	      2424	800031cc	f95ff36f	jal	x6,800031cc	  x6=0x800031cc
       24265000	      2425	00000000	00000013	addi	x0,x0,0	  x0:0x00000000
       24275000	      2426	8000315c	00000013	addi	x0,x0,0	  x0:0x00000000
       24285000	      2427	80003160	0040036f	jal	x6,80003160	  x6=0x80003160
       24295000	      2428	00000000	00000013	addi	x0,x0,0	  x0:0x00000000
       24305000	      2429	80003160	00000013	addi	x0,x0,0	  x0:0x00000000
       24315000	      2430	80003164	01c000ef	jal	x1,80003164	  x1=0x80003164
       24325000	      2431	00000000	00000013	addi	x0,x0,0	  x0:0x00000000
       24335000	      2432	8000317c	00000013	addi	x0,x0,0	  x0:0x00000000
       24345000	      2433	80003180	024000ef	jal	x1,80003180	  x1=0x80003180
       24355000	      2434	00000000	00000013	addi	x0,x0,0	  x0:0x00000000
       24365000	      2435	800031a0	00000013	addi	x0,x0,0	  x0:0x00000000
       24375000	      2436	800031a4	02c0056f	jal	x10,800031a4	 x10=0x800031a4
       24385000	      2437	00000000	00000013	addi	x0,x0,0	  x0:0x00000000
       24395000	      2438	800031cc	00000013	addi	x0,x0,0	  x0:0x00000000
       24405000	      2439	800031d0	01a09ab3	sll	x21,x1,x26	  x1:0x80003180 x26:0x00000001 x21=0x00006300
       24415000	      2440	800031d4	0300036f	jal	x6,800031d4	  x6=0x800031d4
       24425000	      2441	00000000	00000013	addi	x0,x0,0	  x0:0x00000000
       24435000	      2442	80003200	00000013	addi	x0,x0,0	  x0:0x00000000
       24445000	      2443	80003204	030000ef	jal	x1,80003204	  x1=0x80003204
       24455000	      2444	00000000	00000013	addi	x0,x0,0	  x0:0x00000000
       24465000	      2445	80003230	00000013	addi	x0,x0,0	  x0:0x00000000
       24475000	      2446	80003234	0040036f	jal	x6,80003234	  x6=0x80003234
       24485000	      2447	00000000	00000013	addi	x0,x0,0	  x0:0x00000000
       24495000	      2448	80003234	00000013	addi	x0,x0,0	  x0:0x00000000
       24505000	      2449	80003238	fc1ff26f	jal	x4,80003238	  x4=0x80003238
       24515000	      2450	00000000	00000013	addi	x0,x0,0	  x0:0x00000000
       24525000	      2451	800031f4	00000013	addi	x0,x0,0	  x0:0x00000000
       24535000	      2452	800031f8	01400f6f	jal	x30,800031f8	 x30=0x800031f8
       24545000	      2453	00000000	00000013	addi	x0,x0,0	  x0:0x00000000
       24555000	      2454	80003208	00000013	addi	x0,x0,0	  x0:0x00000000
       24565000	      2455	8000320c	0240036f	jal	x6,8000320c	  x6=0x8000320c
       24575000	      2456	00000000	00000013	addi	x0,x0,0	  x0:0x00000000
       24585000	      2457	8000322c	00000013	addi	x0,x0,0	  x0:0x00000000
       24595000	      2458	80003230	fadff5ef	jal	x11,80003230	 x11=0x80003230
       24605000	      2459	00000000	00000013	addi	x0,x0,0	  x0:0x00000000
       24615000	      2460	800031d8	00000013	addi	x0,x0,0	  x0:0x00000000
       24625000	      2461	800031dc	0500016f	jal	x2,800031dc	  x2=0x800031dc
       24635000	      2462	00000000	00000013	addi	x0,x0,0	  x0:0x00000000
       24645000	      2463	80003228	00000013	addi	x0,x0,0	  x0:0x00000000
       24655000	      2464	8000322c	010007ef	jal	x15,8000322c	 x15=0x8000322c
       24665000	      2465	00000000	00000013	addi	x0,x0,0	  x0:0x00000000
       24675000	      2466	80003238	00000013	addi	x0,x0,0	  x0:0x00000000
       24685000	      2467	8000323c	fa9ffcef	jal	x25,8000323c	 x25=0x8000323c
       24695000	      2468	00000000	00000013	addi	x0,x0,0	  x0:0x00000000
       24705000	      2469	800031e0	00000013	addi	x0,x0,0	  x0:0x00000000
       24715000	      2470	800031e4	00c000ef	jal	x1,800031e4	  x1=0x800031e4
       24725000	      2471	00000000	00000013	addi	x0,x0,0	  x0:0x00000000
       24735000	      2472	800031ec	00000013	addi	x0,x0,0	  x0:0x00000000
       24745000	      2473	800031f0	018000ef	jal	x1,800031f0	  x1=0x800031f0
       24755000	      2474	00000000	00000013	addi	x0,x0,0	  x0:0x00000000
       24765000	      2475	80003204	00000013	addi	x0,x0,0	  x0:0x00000000
       24775000	      2476	80003208	008000ef	jal	x1,80003208	  x1=0x80003208
       24785000	      2477	00000000	00000013	addi	x0,x0,0	  x0:0x00000000
       24795000	      2478	8000320c	00000013	addi	x0,x0,0	  x0:0x00000000
       24805000	      2479	80003210	fedff0ef	jal	x1,80003210	  x1=0x80003210
       24815000	      2480	00000000	00000013	addi	x0,x0,0	  x0:0x00000000
       24825000	      2481	800031f8	00000013	addi	x0,x0,0	  x0:0x00000000
       24835000	      2482	800031fc	0280036f	jal	x6,800031fc	  x6=0x800031fc
       24845000	      2483	00000000	00000013	addi	x0,x0,0	  x0:0x00000000
       24855000	      2484	80003220	00000013	addi	x0,x0,0	  x0:0x00000000
       24865000	      2485	80003224	ff1ff1ef	jal	x3,80003224	  x3=0x80003224
       24875000	      2486	00000000	00000013	addi	x0,x0,0	  x0:0x00000000
       24885000	      2487	80003210	00000013	addi	x0,x0,0	  x0:0x00000000
       24895000	      2488	80003214	004000ef	jal	x1,80003214	  x1=0x80003214
       24905000	      2489	00000000	00000013	addi	x0,x0,0	  x0:0x00000000
       24915000	      2490	80003214	00000013	addi	x0,x0,0	  x0:0x00000000
       24925000	      2491	80003218	fddff0ef	jal	x1,80003218	  x1=0x80003218
       24935000	      2492	00000000	00000013	addi	x0,x0,0	  x0:0x00000000
       24945000	      2493	800031f0	00000013	addi	x0,x0,0	  x0:0x00000000
       24955000	      2494	800031f4	fedffeef	jal	x29,800031f4	 x29=0x800031f4
       24965000	      2495	00000000	00000013	addi	x0,x0,0	  x0:0x00000000
       24975000	      2496	800031dc	00000013	addi	x0,x0,0	  x0:0x00000000
       24985000	      2497	800031e0	020000ef	jal	x1,800031e0	  x1=0x800031e0
       24995000	      2498	00000000	00000013	addi	x0,x0,0	  x0:0x00000000
       25005000	      2499	800031fc	00000013	addi	x0,x0,0	  x0:0x00000000
       25015000	      2500	80003200	fe9ff9ef	jal	x19,80003200	 x19=0x80003200
       25025000	      2501	00000000	00000013	addi	x0,x0,0	  x0:0x00000000
       25035000	      2502	800031e4	00000013	addi	x0,x0,0	  x0:0x00000000
       25045000	      2503	800031e8	040000ef	jal	x1,800031e8	  x1=0x800031e8
       25055000	      2504	00000000	00000013	addi	x0,x0,0	  x0:0x00000000
       25065000	      2505	80003224	00000013	addi	x0,x0,0	  x0:0x00000000
       25075000	      2506	80003228	ff5ff0ef	jal	x1,80003228	  x1=0x80003228
       25085000	      2507	00000000	00000013	addi	x0,x0,0	  x0:0x00000000
       25095000	      2508	80003218	00000013	addi	x0,x0,0	  x0:0x00000000
       25105000	      2509	8000321c	fbdff0ef	jal	x1,8000321c	  x1=0x8000321c
       25115000	      2510	00000000	00000013	addi	x0,x0,0	  x0:0x00000000
       25125000	      2511	800031d4	00000013	addi	x0,x0,0	  x0:0x00000000
       25135000	      2512	800031d8	014000ef	jal	x1,800031d8	  x1=0x800031d8
       25145000	      2513	00000000	00000013	addi	x0,x0,0	  x0:0x00000000
       25155000	      2514	800031e8	00000013	addi	x0,x0,0	  x0:0x00000000
       25165000	      2515	800031ec	03400cef	jal	x25,800031ec	 x25=0x800031ec
       25175000	      2516	00000000	00000013	addi	x0,x0,0	  x0:0x00000000
       25185000	      2517	8000321c	00000013	addi	x0,x0,0	  x0:0x00000000
       25195000	      2518	80003220	020000ef	jal	x1,80003220	  x1=0x80003220
       25205000	      2519	00000000	00000013	addi	x0,x0,0	  x0:0x00000000
       25215000	      2520	8000323c	00000013	addi	x0,x0,0	  x0:0x00000000
       25225000	      2521	80003240	01a60db3	add	x27,x12,x26	 x12:0x80003170 x26:0x00000001 x27=0x80003171
       25235000	      2522	80003244	0100036f	jal	x6,80003244	  x6=0x80003244
       25245000	      2523	00000000	00000013	addi	x0,x0,0	  x0:0x00000000
       25255000	      2524	80003250	00000013	addi	x0,x0,0	  x0:0x00000000
       25265000	      2525	80003254	00c0036f	jal	x6,80003254	  x6=0x80003254
       25275000	      2526	00000000	00000013	addi	x0,x0,0	  x0:0x00000000
       25285000	      2527	8000325c	00000013	addi	x0,x0,0	  x0:0x00000000
       25295000	      2528	80003260	fe9fff6f	jal	x30,80003260	 x30=0x80003260
       25305000	      2529	00000000	00000013	addi	x0,x0,0	  x0:0x00000000
       25315000	      2530	80003244	00000013	addi	x0,x0,0	  x0:0x00000000
       25325000	      2531	80003248	024000ef	jal	x1,80003248	  x1=0x80003248
       25335000	      2532	00000000	00000013	addi	x0,x0,0	  x0:0x00000000
       25345000	      2533	80003268	00000013	addi	x0,x0,0	  x0:0x00000000
       25355000	      2534	8000326c	008000ef	jal	x1,8000326c	  x1=0x8000326c
       25365000	      2535	00000000	00000013	addi	x0,x0,0	  x0:0x00000000
       25375000	      2536	80003270	00000013	addi	x0,x0,0	  x0:0x00000000
       25385000	      2537	80003274	fe5ff16f	jal	x2,80003274	  x2=0x80003274
       25395000	      2538	00000000	00000013	addi	x0,x0,0	  x0:0x00000000
       25405000	      2539	80003254	00000013	addi	x0,x0,0	  x0:0x00000000
       25415000	      2540	80003258	0100076f	jal	x14,80003258	 x14=0x80003258
       25425000	      2541	00000000	00000013	addi	x0,x0,0	  x0:0x00000000
       25435000	      2542	80003264	00000013	addi	x0,x0,0	  x0:0x00000000
       25445000	      2543	80003268	fe5ffb6f	jal	x22,80003268	 x22=0x80003268
       25455000	      2544	00000000	00000013	addi	x0,x0,0	  x0:0x00000000
       25465000	      2545	80003248	00000013	addi	x0,x0,0	  x0:0x00000000
       25475000	      2546	8000324c	0300036f	jal	x6,8000324c	  x6=0x8000324c
       25485000	      2547	00000000	00000013	addi	x0,x0,0	  x0:0x00000000
       25495000	      2548	80003278	00000013	addi	x0,x0,0	  x0:0x00000000
       25505000	      2549	8000327c	fd5ff0ef	jal	x1,8000327c	  x1=0x8000327c
       25515000	      2550	00000000	00000013	addi	x0,x0,0	  x0:0x00000000
       25525000	      2551	8000324c	00000013	addi	x0,x0,0	  x0:0x00000000
       25535000	      2552	80003250	030000ef	jal	x1,80003250	  x1=0x80003250
       25545000	      2553	00000000	00000013	addi	x0,x0,0	  x0:0x00000000
       25555000	      2554	8000327c	00000013	addi	x0,x0,0	  x0:0x00000000
       25565000	      2555	80003280	ff1ff36f	jal	x6,80003280	  x6=0x80003280
       25575000	      2556	00000000	00000013	addi	x0,x0,0	  x0:0x00000000
       25585000	      2557	8000326c	00000013	addi	x0,x0,0	  x0:0x00000000
       25595000	      2558	80003270	fedff36f	jal	x6,80003270	  x6=0x80003270
       25605000	      2559	00000000	00000013	addi	x0,x0,0	  x0:0x00000000
       25615000	      2560	80003258	00000013	addi	x0,x0,0	  x0:0x00000000
       25625000	      2561	8000325c	028000ef	jal	x1,8000325c	  x1=0x8000325c
       25635000	      2562	00000000	00000013	addi	x0,x0,0	  x0:0x00000000
       25645000	      2563	80003280	00000013	addi	x0,x0,0	  x0:0x00000000
       25655000	      2564	80003284	004001ef	jal	x3,80003284	  x3=0x80003284
       25665000	      2565	00000000	00000013	addi	x0,x0,0	  x0:0x00000000
       25675000	      2566	80003284	00000013	addi	x0,x0,0	  x0:0x00000000
       25685000	      2567	80003288	ff1ff0ef	jal	x1,80003288	  x1=0x80003288
       25695000	      2568	00000000	00000013	addi	x0,x0,0	  x0:0x00000000
       25705000	      2569	80003274	00000013	addi	x0,x0,0	  x0:0x00000000
       25715000	      2570	80003278	014000ef	jal	x1,80003278	  x1=0x80003278
       25725000	      2571	00000000	00000013	addi	x0,x0,0	  x0:0x00000000
       25735000	      2572	80003288	00000013	addi	x0,x0,0	  x0:0x00000000
       25745000	      2573	8000328c	fd9ff66f	jal	x12,8000328c	 x12=0x8000328c
       25755000	      2574	00000000	00000013	addi	x0,x0,0	  x0:0x00000000
       25765000	      2575	80003260	00000013	addi	x0,x0,0	  x0:0x00000000
       25775000	      2576	80003264	02c0036f	jal	x6,80003264	  x6=0x80003264
       25785000	      2577	00000000	00000013	addi	x0,x0,0	  x0:0x00000000
       25795000	      2578	8000328c	00000013	addi	x0,x0,0	  x0:0x00000000
       25805000	      2579	80003290	01683533	sltu	x10,x16,x22	 x16:0xffffffd9 x22:0x80003268 x10=0x00000000
       25815000	      2580	80003294	0580036f	jal	x6,80003294	  x6=0x80003294
       25825000	      2581	00000000	00000013	addi	x0,x0,0	  x0:0x00000000
       25835000	      2582	800032e8	00000013	addi	x0,x0,0	  x0:0x00000000
       25845000	      2583	800032ec	ffdff0ef	jal	x1,800032ec	  x1=0x800032ec
       25855000	      2584	00000000	00000013	addi	x0,x0,0	  x0:0x00000000
       25865000	      2585	800032e4	00000013	addi	x0,x0,0	  x0:0x00000000
       25875000	      2586	800032e8	fb5ff0ef	jal	x1,800032e8	  x1=0x800032e8
       25885000	      2587	00000000	00000013	addi	x0,x0,0	  x0:0x00000000
       25895000	      2588	80003298	00000013	addi	x0,x0,0	  x0:0x00000000
       25905000	      2589	8000329c	06000f6f	jal	x30,8000329c	 x30=0x8000329c
       25915000	      2590	00000000	00000013	addi	x0,x0,0	  x0:0x00000000
       25925000	      2591	800032f8	00000013	addi	x0,x0,0	  x0:0x00000000
       25935000	      2592	800032fc	ff9ff0ef	jal	x1,800032fc	  x1=0x800032fc
       25945000	      2593	00000000	00000013	addi	x0,x0,0	  x0:0x00000000
       25955000	      2594	800032f0	00000013	addi	x0,x0,0	  x0:0x00000000
       25965000	      2595	800032f4	ffdff2ef	jal	x5,800032f4	  x5=0x800032f4
       25975000	      2596	00000000	00000013	addi	x0,x0,0	  x0:0x00000000
       25985000	      2597	800032ec	00000013	addi	x0,x0,0	  x0:0x00000000
       25995000	      2598	800032f0	fddff0ef	jal	x1,800032f0	  x1=0x800032f0
       26005000	      2599	00000000	00000013	addi	x0,x0,0	  x0:0x00000000
       26015000	      2600	800032c8	00000013	addi	x0,x0,0	  x0:0x00000000
       26025000	      2601	800032cc	ff5ffd6f	jal	x26,800032cc	 x26=0x800032cc
       26035000	      2602	00000000	00000013	addi	x0,x0,0	  x0:0x00000000
       26045000	      2603	800032bc	00000013	addi	x0,x0,0	  x0:0x00000000
       26055000	      2604	800032c0	024000ef	jal	x1,800032c0	  x1=0x800032c0
       26065000	      2605	00000000	00000013	addi	x0,x0,0	  x0:0x00000000
       26075000	      2606	800032e0	00000013	addi	x0,x0,0	  x0:0x00000000
       26085000	      2607	800032e4	01c000ef	jal	x1,800032e4	  x1=0x800032e4
       26095000	      2608	00000000	00000013	addi	x0,x0,0	  x0:0x00000000
       26105000	      2609	800032fc	00000013	addi	x0,x0,0	  x0:0x00000000
       26115000	      2610	80003300	fb5ff36f	jal	x6,80003300	  x6=0x80003300
       26125000	      2611	00000000	00000013	addi	x0,x0,0	  x0:0x00000000
       26135000	      2612	800032b0	00000013	addi	x0,x0,0	  x0:0x00000000
       26145000	      2613	800032b4	ffdff9ef	jal	x19,800032b4	 x19=0x800032b4
       26155000	      2614	00000000	00000013	addi	x0,x0,0	  x0:0x00000000
       26165000	      2615	800032ac	00000013	addi	x0,x0,0	  x0:0x00000000
       26175000	      2616	800032b0	ff1ff0ef	jal	x1,800032b0	  x1=0x800032b0
       26185000	      2617	00000000	00000013	addi	x0,x0,0	  x0:0x00000000
       26195000	      2618	8000329c	00000013	addi	x0,x0,0	  x0:0x00000000
       26205000	      2619	800032a0	03400f6f	jal	x30,800032a0	 x30=0x800032a0
       26215000	      2620	00000000	00000013	addi	x0,x0,0	  x0:0x00000000
       26225000	      2621	800032d0	00000013	addi	x0,x0,0	  x0:0x00000000
       26235000	      2622	800032d4	fd9ff0ef	jal	x1,800032d4	  x1=0x800032d4
       26245000	      2623	00000000	00000013	addi	x0,x0,0	  x0:0x00000000
       26255000	      2624	800032a8	00000013	addi	x0,x0,0	  x0:0x00000000
       26265000	      2625	800032ac	ffdff0ef	jal	x1,800032ac	  x1=0x800032ac
       26275000	      2626	00000000	00000013	addi	x0,x0,0	  x0:0x00000000
       26285000	      2627	800032a4	00000013	addi	x0,x0,0	  x0:0x00000000
       26295000	      2628	800032a8	028000ef	jal	x1,800032a8	  x1=0x800032a8
       26305000	      2629	00000000	00000013	addi	x0,x0,0	  x0:0x00000000
       26315000	      2630	800032cc	00000013	addi	x0,x0,0	  x0:0x00000000
       26325000	      2631	800032d0	03400f6f	jal	x30,800032d0	 x30=0x800032d0
       26335000	      2632	00000000	00000013	addi	x0,x0,0	  x0:0x00000000
       26345000	      2633	80003300	00000013	addi	x0,x0,0	  x0:0x00000000
       26355000	      2634	80003304	fd9ff36f	jal	x6,80003304	  x6=0x80003304
       26365000	      2635	00000000	00000013	addi	x0,x0,0	  x0:0x00000000
       26375000	      2636	800032d8	00000013	addi	x0,x0,0	  x0:0x00000000
       26385000	      2637	800032dc	fedff0ef	jal	x1,800032dc	  x1=0x800032dc
       26395000	      2638	00000000	00000013	addi	x0,x0,0	  x0:0x00000000
       26405000	      2639	800032c4	00000013	addi	x0,x0,0	  x0:0x00000000
       26415000	      2640	800032c8	030000ef	jal	x1,800032c8	  x1=0x800032c8
       26425000	      2641	00000000	00000013	addi	x0,x0,0	  x0:0x00000000
       26435000	      2642	800032f4	00000013	addi	x0,x0,0	  x0:0x00000000
       26445000	      2643	800032f8	fe9ff0ef	jal	x1,800032f8	  x1=0x800032f8
       26455000	      2644	00000000	00000013	addi	x0,x0,0	  x0:0x00000000
       26465000	      2645	800032dc	00000013	addi	x0,x0,0	  x0:0x00000000
       26475000	      2646	800032e0	fc5ff5ef	jal	x11,800032e0	 x11=0x800032e0
       26485000	      2647	00000000	00000013	addi	x0,x0,0	  x0:0x00000000
       26495000	      2648	800032a0	00000013	addi	x0,x0,0	  x0:0x00000000
       26505000	      2649	800032a4	0140056f	jal	x10,800032a4	 x10=0x800032a4
       26515000	      2650	00000000	00000013	addi	x0,x0,0	  x0:0x00000000
       26525000	      2651	800032b4	00000013	addi	x0,x0,0	  x0:0x00000000
       26535000	      2652	800032b8	fe1ff0ef	jal	x1,800032b8	  x1=0x800032b8
       26545000	      2653	00000000	00000013	addi	x0,x0,0	  x0:0x00000000
       26555000	      2654	80003294	00000013	addi	x0,x0,0	  x0:0x00000000
       26565000	      2655	80003298	040000ef	jal	x1,80003298	  x1=0x80003298
       26575000	      2656	00000000	00000013	addi	x0,x0,0	  x0:0x00000000
       26585000	      2657	800032d4	00000013	addi	x0,x0,0	  x0:0x00000000
       26595000	      2658	800032d8	fe5ffb6f	jal	x22,800032d8	 x22=0x800032d8
       26605000	      2659	00000000	00000013	addi	x0,x0,0	  x0:0x00000000
       26615000	      2660	800032b8	00000013	addi	x0,x0,0	  x0:0x00000000
       26625000	      2661	800032bc	008000ef	jal	x1,800032bc	  x1=0x800032bc
       26635000	      2662	00000000	00000013	addi	x0,x0,0	  x0:0x00000000
       26645000	      2663	800032c0	00000013	addi	x0,x0,0	  x0:0x00000000
       26655000	      2664	800032c4	0440036f	jal	x6,800032c4	  x6=0x800032c4
       26665000	      2665	00000000	00000013	addi	x0,x0,0	  x0:0x00000000
       26675000	      2666	80003304	00000013	addi	x0,x0,0	  x0:0x00000000
       26685000	      2667	80003308	0152bbb3	sltu	x23,x5,x21	  x5:0x800032f4 x21:0x00006300 x23=0x00000000
       26695000	      2668	8000330c	0040036f	jal	x6,8000330c	  x6=0x8000330c
       26705000	      2669	00000000	00000013	addi	x0,x0,0	  x0:0x00000000
       26715000	      2670	8000330c	00000013	addi	x0,x0,0	  x0:0x00000000
       26725000	      2671	80003310	0200036f	jal	x6,80003310	  x6=0x80003310
       26735000	      2672	00000000	00000013	addi	x0,x0,0	  x0:0x00000000
       26745000	      2673	8000332c	00000013	addi	x0,x0,0	  x0:0x00000000
       26755000	      2674	80003330	004000ef	jal	x1,80003330	  x1=0x80003330
       26765000	      2675	00000000	00000013	addi	x0,x0,0	  x0:0x00000000
       26775000	      2676	80003330	00000013	addi	x0,x0,0	  x0:0x00000000
       26785000	      2677	80003334	fe1ff0ef	jal	x1,80003334	  x1=0x80003334
       26795000	      2678	00000000	00000013	addi	x0,x0,0	  x0:0x00000000
       26805000	      2679	80003310	00000013	addi	x0,x0,0	  x0:0x00000000
       26815000	      2680	80003314	010000ef	jal	x1,80003314	  x1=0x80003314
       26825000	      2681	00000000	00000013	addi	x0,x0,0	  x0:0x00000000
       26835000	      2682	80003320	00000013	addi	x0,x0,0	  x0:0x00000000
       26845000	      2683	80003324	ffdff36f	jal	x6,80003324	  x6=0x80003324
       26855000	      2684	00000000	00000013	addi	x0,x0,0	  x0:0x00000000
       26865000	      2685	8000331c	00000013	addi	x0,x0,0	  x0:0x00000000
       26875000	      2686	80003320	ff9ff0ef	jal	x1,80003320	  x1=0x80003320
       26885000	      2687	00000000	00000013	addi	x0,x0,0	  x0:0x00000000
       26895000	      2688	80003314	00000013	addi	x0,x0,0	  x0:0x00000000
       26905000	      2689	80003318	004000ef	jal	x1,80003318	  x1=0x80003318
       26915000	      2690	00000000	00000013	addi	x0,x0,0	  x0:0x00000000
       26925000	      2691	80003318	00000013	addi	x0,x0,0	  x0:0x00000000
       26935000	      2692	8000331c	0100036f	jal	x6,8000331c	  x6=0x8000331c
       26945000	      2693	00000000	00000013	addi	x0,x0,0	  x0:0x00000000
       26955000	      2694	80003328	00000013	addi	x0,x0,0	  x0:0x00000000
       26965000	      2695	8000332c	ffdfff6f	jal	x30,8000332c	 x30=0x8000332c
       26975000	      2696	00000000	00000013	addi	x0,x0,0	  x0:0x00000000
       26985000	      2697	80003324	00000013	addi	x0,x0,0	  x0:0x00000000
       26995000	      2698	80003328	0100036f	jal	x6,80003328	  x6=0x80003328
       27005000	      2699	00000000	00000013	addi	x0,x0,0	  x0:0x00000000
       27015000	      2700	80003334	00000013	addi	x0,x0,0	  x0:0x00000000
       27025000	      2701	80003338	c78deb93	ori	x23,x27,-904	 x27:0x80003171 x23=0xfffffd79
       27035000	      2702	8000333c	03c0036f	jal	x6,8000333c	  x6=0x8000333c
       27045000	      2703	00000000	00000013	addi	x0,x0,0	  x0:0x00000000
       27055000	      2704	80003374	00000013	addi	x0,x0,0	  x0:0x00000000
       27065000	      2705	80003378	0240036f	jal	x6,80003378	  x6=0x80003378
       27075000	      2706	00000000	00000013	addi	x0,x0,0	  x0:0x00000000
       27085000	      2707	80003398	00000013	addi	x0,x0,0	  x0:0x00000000
       27095000	      2708	8000339c	fc1ff0ef	jal	x1,8000339c	  x1=0x8000339c
       27105000	      2709	00000000	00000013	addi	x0,x0,0	  x0:0x00000000
       27115000	      2710	80003358	00000013	addi	x0,x0,0	  x0:0x00000000
       27125000	      2711	8000335c	ff5ff36f	jal	x6,8000335c	  x6=0x8000335c
       27135000	      2712	00000000	00000013	addi	x0,x0,0	  x0:0x00000000
       27145000	      2713	8000334c	00000013	addi	x0,x0,0	  x0:0x00000000
       27155000	      2714	80003350	ff1ff0ef	jal	x1,80003350	  x1=0x80003350
       27165000	      2715	00000000	00000013	addi	x0,x0,0	  x0:0x00000000
       27175000	      2716	8000333c	00000013	addi	x0,x0,0	  x0:0x00000000
       27185000	      2717	80003340	030000ef	jal	x1,80003340	  x1=0x80003340
       27195000	      2718	00000000	00000013	addi	x0,x0,0	  x0:0x00000000
       27205000	      2719	8000336c	00000013	addi	x0,x0,0	  x0:0x00000000
       27215000	      2720	80003370	ff5ff0ef	jal	x1,80003370	  x1=0x80003370
       27225000	      2721	00000000	00000013	addi	x0,x0,0	  x0:0x00000000
       27235000	      2722	80003360	00000013	addi	x0,x0,0	  x0:0x00000000
       27245000	      2723	80003364	ff1ff0ef	jal	x1,80003364	  x1=0x80003364
       27255000	      2724	00000000	00000013	addi	x0,x0,0	  x0:0x00000000
       27265000	      2725	80003350	00000013	addi	x0,x0,0	  x0:0x00000000
       27275000	      2726	80003354	03c00def	jal	x27,80003354	 x27=0x80003354
       27285000	      2727	00000000	00000013	addi	x0,x0,0	  x0:0x00000000
       27295000	      2728	8000338c	00000013	addi	x0,x0,0	  x0:0x00000000
       27305000	      2729	80003390	fedff0ef	jal	x1,80003390	  x1=0x80003390
       27315000	      2730	00000000	00000013	addi	x0,x0,0	  x0:0x00000000
       27325000	      2731	80003378	00000013	addi	x0,x0,0	  x0:0x00000000
       27335000	      2732	8000337c	fd1ff0ef	jal	x1,8000337c	  x1=0x8000337c
       27345000	      2733	00000000	00000013	addi	x0,x0,0	  x0:0x00000000
       27355000	      2734	80003348	00000013	addi	x0,x0,0	  x0:0x00000000
       27365000	      2735	8000334c	040000ef	jal	x1,8000334c	  x1=0x8000334c
       27375000	      2736	00000000	00000013	addi	x0,x0,0	  x0:0x00000000
       27385000	      2737	80003388	00000013	addi	x0,x0,0	  x0:0x00000000
       27395000	      2738	8000338c	fb9ff36f	jal	x6,8000338c	  x6=0x8000338c
       27405000	      2739	00000000	00000013	addi	x0,x0,0	  x0:0x00000000
       27415000	      2740	80003340	00000013	addi	x0,x0,0	  x0:0x00000000
       27425000	      2741	80003344	028000ef	jal	x1,80003344	  x1=0x80003344
       27435000	      2742	00000000	00000013	addi	x0,x0,0	  x0:0x00000000
       27445000	      2743	80003368	00000013	addi	x0,x0,0	  x0:0x00000000
       27455000	      2744	8000336c	0180036f	jal	x6,8000336c	  x6=0x8000336c
       27465000	      2745	00000000	00000013	addi	x0,x0,0	  x0:0x00000000
       27475000	      2746	80003380	00000013	addi	x0,x0,0	  x0:0x00000000
       27485000	      2747	80003384	0140036f	jal	x6,80003384	  x6=0x80003384
       27495000	      2748	00000000	00000013	addi	x0,x0,0	  x0:0x00000000
       27505000	      2749	80003394	00000013	addi	x0,x0,0	  x0:0x00000000
       27515000	      2750	80003398	ff1ff0ef	jal	x1,80003398	  x1=0x80003398
       27525000	      2751	00000000	00000013	addi	x0,x0,0	  x0:0x00000000
       27535000	      2752	80003384	00000013	addi	x0,x0,0	  x0:0x00000000
       27545000	      2753	80003388	fedff36f	jal	x6,80003388	  x6=0x80003388
       27555000	      2754	00000000	00000013	addi	x0,x0,0	  x0:0x00000000
       27565000	      2755	80003370	00000013	addi	x0,x0,0	  x0:0x00000000
       27575000	      2756	80003374	00c001ef	jal	x3,80003374	  x3=0x80003374
       27585000	      2757	00000000	00000013	addi	x0,x0,0	  x0:0x00000000
       27595000	      2758	8000337c	00000013	addi	x0,x0,0	  x0:0x00000000
       27605000	      2759	80003380	01400cef	jal	x25,80003380	 x25=0x80003380
       27615000	      2760	00000000	00000013	addi	x0,x0,0	  x0:0x00000000
       27625000	      2761	80003390	00000013	addi	x0,x0,0	  x0:0x00000000
       27635000	      2762	80003394	fd5ff36f	jal	x6,80003394	  x6=0x80003394
       27645000	      2763	00000000	00000013	addi	x0,x0,0	  x0:0x00000000
       27655000	      2764	80003364	00000013	addi	x0,x0,0	  x0:0x00000000
       27665000	      2765	80003368	fe1ff86f	jal	x16,80003368	 x16=0x80003368
       27675000	      2766	00000000	00000013	addi	x0,x0,0	  x0:0x00000000
       27685000	      2767	80003344	00000013	addi	x0,x0,0	  x0:0x00000000
       27695000	      2768	80003348	010000ef	jal	x1,80003348	  x1=0x80003348
       27705000	      2769	00000000	00000013	addi	x0,x0,0	  x0:0x00000000
       27715000	      2770	80003354	00000013	addi	x0,x0,0	  x0:0x00000000
       27725000	      2771	80003358	008000ef	jal	x1,80003358	  x1=0x80003358
       27735000	      2772	00000000	00000013	addi	x0,x0,0	  x0:0x00000000
       27745000	      2773	8000335c	00000013	addi	x0,x0,0	  x0:0x00000000
       27755000	      2774	80003360	0400026f	jal	x4,80003360	  x4=0x80003360
       27765000	      2775	00000000	00000013	addi	x0,x0,0	  x0:0x00000000
       27775000	      2776	8000339c	00000013	addi	x0,x0,0	  x0:0x00000000
       27785000	      2777	800033a0	408cd593	srai	x11,x25,0x8	 x25:0x80003380 x11=0xff800033
       27795000	      2778	800033a4	0300036f	jal	x6,800033a4	  x6=0x800033a4
       27805000	      2779	00000000	00000013	addi	x0,x0,0	  x0:0x00000000
       27815000	      2780	800033d0	00000013	addi	x0,x0,0	  x0:0x00000000
       27825000	      2781	800033d4	008000ef	jal	x1,800033d4	  x1=0x800033d4
       27835000	      2782	00000000	00000013	addi	x0,x0,0	  x0:0x00000000
       27845000	      2783	800033d8	00000013	addi	x0,x0,0	  x0:0x00000000
       27855000	      2784	800033dc	038000ef	jal	x1,800033dc	  x1=0x800033dc
       27865000	      2785	00000000	00000013	addi	x0,x0,0	  x0:0x00000000
       27875000	      2786	80003410	00000013	addi	x0,x0,0	  x0:0x00000000
       27885000	      2787	80003414	f9dff0ef	jal	x1,80003414	  x1=0x80003414
       27895000	      2788	00000000	00000013	addi	x0,x0,0	  x0:0x00000000
       27905000	      2789	800033ac	00000013	addi	x0,x0,0	  x0:0x00000000
       27915000	      2790	800033b0	020000ef	jal	x1,800033b0	  x1=0x800033b0
       27925000	      2791	00000000	00000013	addi	x0,x0,0	  x0:0x00000000
       27935000	      2792	800033cc	00000013	addi	x0,x0,0	  x0:0x00000000
       27945000	      2793	800033d0	0300016f	jal	x2,800033d0	  x2=0x800033d0
       27955000	      2794	00000000	00000013	addi	x0,x0,0	  x0:0x00000000
       27965000	      2795	800033fc	00000013	addi	x0,x0,0	  x0:0x00000000
       27975000	      2796	80003400	fe9ff9ef	jal	x19,80003400	 x19=0x80003400
       27985000	      2797	00000000	00000013	addi	x0,x0,0	  x0:0x00000000
       27995000	      2798	800033e4	00000013	addi	x0,x0,0	  x0:0x00000000
       28005000	      2799	800033e8	fd1ff6ef	jal	x13,800033e8	 x13=0x800033e8
       28015000	      2800	00000000	00000013	addi	x0,x0,0	  x0:0x00000000
       28025000	      2801	800033b4	00000013	addi	x0,x0,0	  x0:0x00000000
       28035000	      2802	800033b8	0200036f	jal	x6,800033b8	  x6=0x800033b8
       28045000	      2803	00000000	00000013	addi	x0,x0,0	  x0:0x00000000
       28055000	      2804	800033d4	00000013	addi	x0,x0,0	  x0:0x00000000
       28065000	      2805	800033d8	03000b6f	jal	x22,800033d8	 x22=0x800033d8
       28075000	      2806	00000000	00000013	addi	x0,x0,0	  x0:0x00000000
       28085000	      2807	80003404	00000013	addi	x0,x0,0	  x0:0x00000000
       28095000	      2808	80003408	0080036f	jal	x6,80003408	  x6=0x80003408
       28105000	      2809	00000000	00000013	addi	x0,x0,0	  x0:0x00000000
       28115000	      2810	8000340c	00000013	addi	x0,x0,0	  x0:0x00000000
       28125000	      2811	80003410	fedff0ef	jal	x1,80003410	  x1=0x80003410
       28135000	      2812	00000000	00000013	addi	x0,x0,0	  x0:0x00000000
       28145000	      2813	800033f8	00000013	addi	x0,x0,0	  x0:0x00000000
       28155000	      2814	800033fc	010000ef	jal	x1,800033fc	  x1=0x800033fc
       28165000	      2815	00000000	00000013	addi	x0,x0,0	  x0:0x00000000
       28175000	      2816	80003408	00000013	addi	x0,x0,0	  x0:0x00000000
       28185000	      2817	8000340c	fe1ff0ef	jal	x1,8000340c	  x1=0x8000340c
       28195000	      2818	00000000	00000013	addi	x0,x0,0	  x0:0x00000000
       28205000	      2819	800033e8	00000013	addi	x0,x0,0	  x0:0x00000000
       28215000	      2820	800033ec	fd5ff3ef	jal	x7,800033ec	  x7=0x800033ec
       28225000	      2821	00000000	00000013	addi	x0,x0,0	  x0:0x00000000
       28235000	      2822	800033bc	00000013	addi	x0,x0,0	  x0:0x00000000
       28245000	      2823	800033c0	00c000ef	jal	x1,800033c0	  x1=0x800033c0
       28255000	      2824	00000000	00000013	addi	x0,x0,0	  x0:0x00000000
       28265000	      2825	800033c8	00000013	addi	x0,x0,0	  x0:0x00000000
       28275000	      2826	800033cc	01400e6f	jal	x28,800033cc	 x28=0x800033cc
       28285000	      2827	00000000	00000013	addi	x0,x0,0	  x0:0x00000000
       28295000	      2828	800033dc	00000013	addi	x0,x0,0	  x0:0x00000000
       28305000	      2829	800033e0	fe5ff16f	jal	x2,800033e0	  x2=0x800033e0
       28315000	      2830	00000000	00000013	addi	x0,x0,0	  x0:0x00000000
       28325000	      2831	800033c0	00000013	addi	x0,x0,0	  x0:0x00000000
       28335000	      2832	800033c4	040000ef	jal	x1,800033c4	  x1=0x800033c4
       28345000	      2833	00000000	00000013	addi	x0,x0,0	  x0:0x00000000
       28355000	      2834	80003400	00000013	addi	x0,x0,0	  x0:0x00000000
       28365000	      2835	80003404	ff5ff2ef	jal	x5,80003404	  x5=0x80003404
       28375000	      2836	00000000	00000013	addi	x0,x0,0	  x0:0x00000000
       28385000	      2837	800033f4	00000013	addi	x0,x0,0	  x0:0x00000000
       28395000	      2838	800033f8	ff9ff0ef	jal	x1,800033f8	  x1=0x800033f8
       28405000	      2839	00000000	00000013	addi	x0,x0,0	  x0:0x00000000
       28415000	      2840	800033ec	00000013	addi	x0,x0,0	  x0:0x00000000
       28425000	      2841	800033f0	fbdff36f	jal	x6,800033f0	  x6=0x800033f0
       28435000	      2842	00000000	00000013	addi	x0,x0,0	  x0:0x00000000
       28445000	      2843	800033a8	00000013	addi	x0,x0,0	  x0:0x00000000
       28455000	      2844	800033ac	008000ef	jal	x1,800033ac	  x1=0x800033ac
       28465000	      2845	00000000	00000013	addi	x0,x0,0	  x0:0x00000000
       28475000	      2846	800033b0	00000013	addi	x0,x0,0	  x0:0x00000000
       28485000	      2847	800033b4	008000ef	jal	x1,800033b4	  x1=0x800033b4
       28495000	      2848	00000000	00000013	addi	x0,x0,0	  x0:0x00000000
       28505000	      2849	800033b8	00000013	addi	x0,x0,0	  x0:0x00000000
       28515000	      2850	800033bc	028000ef	jal	x1,800033bc	  x1=0x800033bc
       28525000	      2851	00000000	00000013	addi	x0,x0,0	  x0:0x00000000
       28535000	      2852	800033e0	00000013	addi	x0,x0,0	  x0:0x00000000
       28545000	      2853	800033e4	038000ef	jal	x1,800033e4	  x1=0x800033e4
       28555000	      2854	00000000	00000013	addi	x0,x0,0	  x0:0x00000000
       28565000	      2855	80003418	00000013	addi	x0,x0,0	  x0:0x00000000
       28575000	      2856	8000341c	fd9ffb6f	jal	x22,8000341c	 x22=0x8000341c
       28585000	      2857	00000000	00000013	addi	x0,x0,0	  x0:0x00000000
       28595000	      2858	800033f0	00000013	addi	x0,x0,0	  x0:0x00000000
       28605000	      2859	800033f4	fd5ff0ef	jal	x1,800033f4	  x1=0x800033f4
       28615000	      2860	00000000	00000013	addi	x0,x0,0	  x0:0x00000000
       28625000	      2861	800033c4	00000013	addi	x0,x0,0	  x0:0x00000000
       28635000	      2862	800033c8	050000ef	jal	x1,800033c8	  x1=0x800033c8
       28645000	      2863	00000000	00000013	addi	x0,x0,0	  x0:0x00000000
       28655000	      2864	80003414	00000013	addi	x0,x0,0	  x0:0x00000000
       28665000	      2865	80003418	f91ff0ef	jal	x1,80003418	  x1=0x80003418
       28675000	      2866	00000000	00000013	addi	x0,x0,0	  x0:0x00000000
       28685000	      2867	800033a4	00000013	addi	x0,x0,0	  x0:0x00000000
       28695000	      2868	800033a8	078000ef	jal	x1,800033a8	  x1=0x800033a8
       28705000	      2869	00000000	00000013	addi	x0,x0,0	  x0:0x00000000
       28715000	      2870	8000341c	00000013	addi	x0,x0,0	  x0:0x00000000
       28725000	      2871	80003420	0178de13	srli	x28,x17,0x17	 x17:0x800030c8 x28=0x00000100
       28735000	      2872	80003424	0100036f	jal	x6,80003424	  x6=0x80003424
       28745000	      2873	00000000	00000013	addi	x0,x0,0	  x0:0x00000000
       28755000	      2874	80003430	00000013	addi	x0,x0,0	  x0:0x00000000
       28765000	      2875	80003434	04c0016f	jal	x2,80003434	  x2=0x80003434
       28775000	      2876	00000000	00000013	addi	x0,x0,0	  x0:0x00000000
       28785000	      2877	8000347c	00000013	addi	x0,x0,0	  x0:0x00000000
       28795000	      2878	80003480	ffdfffef	jal	x31,80003480	 x31=0x80003480
       28805000	      2879	00000000	00000013	addi	x0,x0,0	  x0:0x00000000
       28815000	      2880	80003478	00000013	addi	x0,x0,0	  x0:0x00000000
       28825000	      2881	8000347c	fd9ff0ef	jal	x1,8000347c	  x1=0x8000347c
       28835000	      2882	00000000	00000013	addi	x0,x0,0	  x0:0x00000000
       28845000	      2883	80003450	00000013	addi	x0,x0,0	  x0:0x00000000
       28855000	      2884	80003454	0140036f	jal	x6,80003454	  x6=0x80003454
       28865000	      2885	00000000	00000013	addi	x0,x0,0	  x0:0x00000000
       28875000	      2886	80003464	00000013	addi	x0,x0,0	  x0:0x00000000
       28885000	      2887	80003468	fd9ff0ef	jal	x1,80003468	  x1=0x80003468
       28895000	      2888	00000000	00000013	addi	x0,x0,0	  x0:0x00000000
       28905000	      2889	8000343c	00000013	addi	x0,x0,0	  x0:0x00000000
       28915000	      2890	80003440	0040036f	jal	x6,80003440	  x6=0x80003440
       28925000	      2891	00000000	00000013	addi	x0,x0,0	  x0:0x00000000
       28935000	      2892	80003440	00000013	addi	x0,x0,0	  x0:0x00000000
       28945000	      2893	80003444	028000ef	jal	x1,80003444	  x1=0x80003444
       28955000	      2894	00000000	00000013	addi	x0,x0,0	  x0:0x00000000
       28965000	      2895	80003468	00000013	addi	x0,x0,0	  x0:0x00000000
       28975000	      2896	8000346c	008000ef	jal	x1,8000346c	  x1=0x8000346c
       28985000	      2897	00000000	00000013	addi	x0,x0,0	  x0:0x00000000
       28995000	      2898	80003470	00000013	addi	x0,x0,0	  x0:0x00000000
       29005000	      2899	80003474	fd5ff16f	jal	x2,80003474	  x2=0x80003474
       29015000	      2900	00000000	00000013	addi	x0,x0,0	  x0:0x00000000
       29025000	      2901	80003444	00000013	addi	x0,x0,0	  x0:0x00000000
       29035000	      2902	80003448	fe5ff0ef	jal	x1,80003448	  x1=0x80003448
       29045000	      2903	00000000	00000013	addi	x0,x0,0	  x0:0x00000000
       29055000	      2904	80003428	00000013	addi	x0,x0,0	  x0:0x00000000
       29065000	      2905	8000342c	024000ef	jal	x1,8000342c	  x1=0x8000342c
       29075000	      2906	00000000	00000013	addi	x0,x0,0	  x0:0x00000000
       29085000	      2907	8000344c	00000013	addi	x0,x0,0	  x0:0x00000000
       29095000	      2908	80003450	fedff0ef	jal	x1,80003450	  x1=0x80003450
       29105000	      2909	00000000	00000013	addi	x0,x0,0	  x0:0x00000000
       29115000	      2910	80003438	00000013	addi	x0,x0,0	  x0:0x00000000
       29125000	      2911	8000343c	ffdff0ef	jal	x1,8000343c	  x1=0x8000343c
       29135000	      2912	00000000	00000013	addi	x0,x0,0	  x0:0x00000000
       29145000	      2913	80003434	00000013	addi	x0,x0,0	  x0:0x00000000
       29155000	      2914	80003438	02400def	jal	x27,80003438	 x27=0x80003438
       29165000	      2915	00000000	00000013	addi	x0,x0,0	  x0:0x00000000
       29175000	      2916	80003458	00000013	addi	x0,x0,0	  x0:0x00000000
       29185000	      2917	8000345c	008000ef	jal	x1,8000345c	  x1=0x8000345c
       29195000	      2918	00000000	00000013	addi	x0,x0,0	  x0:0x00000000
       29205000	      2919	80003460	00000013	addi	x0,x0,0	  x0:0x00000000
       29215000	      2920	80003464	fcdff0ef	jal	x1,80003464	  x1=0x80003464
       29225000	      2921	00000000	00000013	addi	x0,x0,0	  x0:0x00000000
       29235000	      2922	8000342c	00000013	addi	x0,x0,0	  x0:0x00000000
       29245000	      2923	80003430	048000ef	jal	x1,80003430	  x1=0x80003430
       29255000	      2924	00000000	00000013	addi	x0,x0,0	  x0:0x00000000
       29265000	      2925	80003474	00000013	addi	x0,x0,0	  x0:0x00000000
       29275000	      2926	80003478	fb1ff76f	jal	x14,80003478	 x14=0x80003478
       29285000	      2927	00000000	00000013	addi	x0,x0,0	  x0:0x00000000
       29295000	      2928	80003424	00000013	addi	x0,x0,0	  x0:0x00000000
       29305000	      2929	80003428	0300036f	jal	x6,80003428	  x6=0x80003428
       29315000	      2930	00000000	00000013	addi	x0,x0,0	  x0:0x00000000
       29325000	      2931	80003454	00000013	addi	x0,x0,0	  x0:0x00000000
       29335000	      2932	80003458	ff5ff76f	jal	x14,80003458	 x14=0x80003458
       29345000	      2933	00000000	00000013	addi	x0,x0,0	  x0:0x00000000
       29355000	      2934	80003448	00000013	addi	x0,x0,0	  x0:0x00000000
       29365000	      2935	8000344c	024009ef	jal	x19,8000344c	 x19=0x8000344c
       29375000	      2936	00000000	00000013	addi	x0,x0,0	  x0:0x00000000
       29385000	      2937	8000346c	00000013	addi	x0,x0,0	  x0:0x00000000
       29395000	      2938	80003470	ff1ffcef	jal	x25,80003470	 x25=0x80003470
       29405000	      2939	00000000	00000013	addi	x0,x0,0	  x0:0x00000000
       29415000	      2940	8000345c	00000013	addi	x0,x0,0	  x0:0x00000000
       29425000	      2941	80003460	0240036f	jal	x6,80003460	  x6=0x80003460
       29435000	      2942	00000000	00000013	addi	x0,x0,0	  x0:0x00000000
       29445000	      2943	80003480	00000013	addi	x0,x0,0	  x0:0x00000000
       29455000	      2944	80003484	006d80b3	add	x1,x27,x6	 x27:0x80003438  x6:0x80003460  x1=0x00006898
       29465000	      2945	80003488	0040036f	jal	x6,80003488	  x6=0x80003488
       29475000	      2946	00000000	00000013	addi	x0,x0,0	  x0:0x00000000
       29485000	      2947	80003488	00000013	addi	x0,x0,0	  x0:0x00000000
       29495000	      2948	8000348c	034000ef	jal	x1,8000348c	  x1=0x8000348c
       29505000	      2949	00000000	00000013	addi	x0,x0,0	  x0:0x00000000
       29515000	      2950	800034bc	00000013	addi	x0,x0,0	  x0:0x00000000
       29525000	      2951	800034c0	ff1ff0ef	jal	x1,800034c0	  x1=0x800034c0
       29535000	      2952	00000000	00000013	addi	x0,x0,0	  x0:0x00000000
       29545000	      2953	800034ac	00000013	addi	x0,x0,0	  x0:0x00000000
       29555000	      2954	800034b0	024000ef	jal	x1,800034b0	  x1=0x800034b0
       29565000	      2955	00000000	00000013	addi	x0,x0,0	  x0:0x00000000
       29575000	      2956	800034d0	00000013	addi	x0,x0,0	  x0:0x00000000
       29585000	      2957	800034d4	00c000ef	jal	x1,800034d4	  x1=0x800034d4
       29595000	      2958	00000000	00000013	addi	x0,x0,0	  x0:0x00000000
       29605000	      2959	800034dc	00000013	addi	x0,x0,0	  x0:0x00000000
       29615000	      2960	800034e0	01800d6f	jal	x26,800034e0	 x26=0x800034e0
       29625000	      2961	00000000	00000013	addi	x0,x0,0	  x0:0x00000000
       29635000	      2962	800034f4	00000013	addi	x0,x0,0	  x0:0x00000000
       29645000	      2963	800034f8	fd9ff0ef	jal	x1,800034f8	  x1=0x800034f8
       29655000	      2964	00000000	00000013	addi	x0,x0,0	  x0:0x00000000
       29665000	      2965	800034cc	00000013	addi	x0,x0,0	  x0:0x00000000
       29675000	      2966	800034d0	fcdff0ef	jal	x1,800034d0	  x1=0x800034d0
       29685000	      2967	00000000	00000013	addi	x0,x0,0	  x0:0x00000000
       29695000	      2968	80003498	00000013	addi	x0,x0,0	  x0:0x00000000
       29705000	      2969	8000349c	ffdff0ef	jal	x1,8000349c	  x1=0x8000349c
       29715000	      2970	00000000	00000013	addi	x0,x0,0	  x0:0x00000000
       29725000	      2971	80003494	00000013	addi	x0,x0,0	  x0:0x00000000
       29735000	      2972	80003498	0340036f	jal	x6,80003498	  x6=0x80003498
       29745000	      2973	00000000	00000013	addi	x0,x0,0	  x0:0x00000000
       29755000	      2974	800034c8	00000013	addi	x0,x0,0	  x0:0x00000000
       29765000	      2975	800034cc	0280086f	jal	x16,800034cc	 x16=0x800034cc
       29775000	      2976	00000000	00000013	addi	x0,x0,0	  x0:0x00000000
       29785000	      2977	800034f0	00000013	addi	x0,x0,0	  x0:0x00000000
       29795000	      2978	800034f4	fadff0ef	jal	x1,800034f4	  x1=0x800034f4
       29805000	      2979	00000000	00000013	addi	x0,x0,0	  x0:0x00000000
       29815000	      2980	8000349c	00000013	addi	x0,x0,0	  x0:0x00000000
       29825000	      2981	800034a0	044000ef	jal	x1,800034a0	  x1=0x800034a0
       29835000	      2982	00000000	00000013	addi	x0,x0,0	  x0:0x00000000
       29845000	      2983	800034e0	00000013	addi	x0,x0,0	  x0:0x00000000
       29855000	      2984	800034e4	004000ef	jal	x1,800034e4	  x1=0x800034e4
       29865000	      2985	00000000	00000013	addi	x0,x0,0	  x0:0x00000000
       29875000	      2986	800034e4	00000013	addi	x0,x0,0	  x0:0x00000000
       29885000	      2987	800034e8	fc1ff1ef	jal	x3,800034e8	  x3=0x800034e8
       29895000	      2988	00000000	00000013	addi	x0,x0,0	  x0:0x00000000
       29905000	      2989	800034a4	00000013	addi	x0,x0,0	  x0:0x00000000
       29915000	      2990	800034a8	ffdff36f	jal	x6,800034a8	  x6=0x800034a8
       29925000	      2991	00000000	00000013	addi	x0,x0,0	  x0:0x00000000
       29935000	      2992	800034a0	00000013	addi	x0,x0,0	  x0:0x00000000
       29945000	      2993	800034a4	010000ef	jal	x1,800034a4	  x1=0x800034a4
       29955000	      2994	00000000	00000013	addi	x0,x0,0	  x0:0x00000000
       29965000	      2995	800034b0	00000013	addi	x0,x0,0	  x0:0x00000000
       29975000	      2996	800034b4	010000ef	jal	x1,800034b4	  x1=0x800034b4
       29985000	      2997	00000000	00000013	addi	x0,x0,0	  x0:0x00000000
       29995000	      2998	800034c0	00000013	addi	x0,x0,0	  x0:0x00000000
       30005000	      2999	800034c4	ff5ff0ef	jal	x1,800034c4	  x1=0x800034c4
       30015000	      3000	00000000	00000013	addi	x0,x0,0	  x0:0x00000000
       30025000	      3001	800034b4	00000013	addi	x0,x0,0	  x0:0x00000000
       30035000	      3002	800034b8	fddff56f	jal	x10,800034b8	 x10=0x800034b8
       30045000	      3003	00000000	00000013	addi	x0,x0,0	  x0:0x00000000
       30055000	      3004	80003490	00000013	addi	x0,x0,0	  x0:0x00000000
       30065000	      3005	80003494	02800bef	jal	x23,80003494	 x23=0x80003494
       30075000	      3006	00000000	00000013	addi	x0,x0,0	  x0:0x00000000
       30085000	      3007	800034b8	00000013	addi	x0,x0,0	  x0:0x00000000
       30095000	      3008	800034bc	fd5ff0ef	jal	x1,800034bc	  x1=0x800034bc
       30105000	      3009	00000000	00000013	addi	x0,x0,0	  x0:0x00000000
       30115000	      3010	8000348c	00000013	addi	x0,x0,0	  x0:0x00000000
       30125000	      3011	80003490	060000ef	jal	x1,80003490	  x1=0x80003490
       30135000	      3012	00000000	00000013	addi	x0,x0,0	  x0:0x00000000
       30145000	      3013	800034ec	00000013	addi	x0,x0,0	  x0:0x00000000
       30155000	      3014	800034f0	fe9ff0ef	jal	x1,800034f0	  x1=0x800034f0
       30165000	      3015	00000000	00000013	addi	x0,x0,0	  x0:0x00000000
       30175000	      3016	800034d4	00000013	addi	x0,x0,0	  x0:0x00000000
       30185000	      3017	800034d8	004000ef	jal	x1,800034d8	  x1=0x800034d8
       30195000	      3018	00000000	00000013	addi	x0,x0,0	  x0:0x00000000
       30205000	      3019	800034d8	00000013	addi	x0,x0,0	  x0:0x00000000
       30215000	      3020	800034dc	010000ef	jal	x1,800034dc	  x1=0x800034dc
       30225000	      3021	00000000	00000013	addi	x0,x0,0	  x0:0x00000000
       30235000	      3022	800034e8	00000013	addi	x0,x0,0	  x0:0x00000000
       30245000	      3023	800034ec	fc1fffef	jal	x31,800034ec	 x31=0x800034ec
       30255000	      3024	00000000	00000013	addi	x0,x0,0	  x0:0x00000000
       30265000	      3025	800034a8	00000013	addi	x0,x0,0	  x0:0x00000000
       30275000	      3026	800034ac	01c000ef	jal	x1,800034ac	  x1=0x800034ac
       30285000	      3027	00000000	00000013	addi	x0,x0,0	  x0:0x00000000
       30295000	      3028	800034c4	00000013	addi	x0,x0,0	  x0:0x00000000
       30305000	      3029	800034c8	03400bef	jal	x23,800034c8	 x23=0x800034c8
       30315000	      3030	00000000	00000013	addi	x0,x0,0	  x0:0x00000000
       30325000	      3031	800034f8	00000013	addi	x0,x0,0	  x0:0x00000000
       30335000	      3032	800034fc	0f4bf817	auipc	x16,0xf4bf	 x16=0x8f4c24f8
       30345000	      3033	80003500	0200036f	jal	x6,80003500	  x6=0x80003500
       30355000	      3034	00000000	00000013	addi	x0,x0,0	  x0:0x00000000
       30365000	      3035	8000351c	00000013	addi	x0,x0,0	  x0:0x00000000
       30375000	      3036	80003520	014000ef	jal	x1,80003520	  x1=0x80003520
       30385000	      3037	00000000	00000013	addi	x0,x0,0	  x0:0x00000000
       30395000	      3038	80003530	00000013	addi	x0,x0,0	  x0:0x00000000
       30405000	      3039	80003534	0100016f	jal	x2,80003534	  x2=0x80003534
       30415000	      3040	00000000	00000013	addi	x0,x0,0	  x0:0x00000000
       30425000	      3041	80003540	00000013	addi	x0,x0,0	  x0:0x00000000
       30435000	      3042	80003544	fe5ff0ef	jal	x1,80003544	  x1=0x80003544
       30445000	      3043	00000000	00000013	addi	x0,x0,0	  x0:0x00000000
       30455000	      3044	80003524	00000013	addi	x0,x0,0	  x0:0x00000000
       30465000	      3045	80003528	ffdff0ef	jal	x1,80003528	  x1=0x80003528
       30475000	      3046	00000000	00000013	addi	x0,x0,0	  x0:0x00000000
       30485000	      3047	80003520	00000013	addi	x0,x0,0	  x0:0x00000000
       30495000	      3048	80003524	fe1ff1ef	jal	x3,80003524	  x3=0x80003524
       30505000	      3049	00000000	00000013	addi	x0,x0,0	  x0:0x00000000
       30515000	      3050	80003500	00000013	addi	x0,x0,0	  x0:0x00000000
       30525000	      3051	80003504	010000ef	jal	x1,80003504	  x1=0x80003504
       30535000	      3052	00000000	00000013	addi	x0,x0,0	  x0:0x00000000
       30545000	      3053	80003510	00000013	addi	x0,x0,0	  x0:0x00000000
       30555000	      3054	80003514	ff9ff0ef	jal	x1,80003514	  x1=0x80003514
       30565000	      3055	00000000	00000013	addi	x0,x0,0	  x0:0x00000000
       30575000	      3056	80003508	00000013	addi	x0,x0,0	  x0:0x00000000
       30585000	      3057	8000350c	00c0026f	jal	x4,8000350c	  x4=0x8000350c
       30595000	      3058	00000000	00000013	addi	x0,x0,0	  x0:0x00000000
       30605000	      3059	80003514	00000013	addi	x0,x0,0	  x0:0x00000000
       30615000	      3060	80003518	018000ef	jal	x1,80003518	  x1=0x80003518
       30625000	      3061	00000000	00000013	addi	x0,x0,0	  x0:0x00000000
       30635000	      3062	8000352c	00000013	addi	x0,x0,0	  x0:0x00000000
       30645000	      3063	80003530	ffdff16f	jal	x2,80003530	  x2=0x80003530
       30655000	      3064	00000000	00000013	addi	x0,x0,0	  x0:0x00000000
       30665000	      3065	80003528	00000013	addi	x0,x0,0	  x0:0x00000000
       30675000	      3066	8000352c	00c0026f	jal	x4,8000352c	  x4=0x8000352c
       30685000	      3067	00000000	00000013	addi	x0,x0,0	  x0:0x00000000
       30695000	      3068	80003534	00000013	addi	x0,x0,0	  x0:0x00000000
       30705000	      3069	80003538	01c000ef	jal	x1,80003538	  x1=0x80003538
       30715000	      3070	00000000	00000013	addi	x0,x0,0	  x0:0x00000000
       30725000	      3071	80003550	00000013	addi	x0,x0,0	  x0:0x00000000
       30735000	      3072	80003554	fe9ff0ef	jal	x1,80003554	  x1=0x80003554
       30745000	      3073	00000000	00000013	addi	x0,x0,0	  x0:0x00000000
       30755000	      3074	80003538	00000013	addi	x0,x0,0	  x0:0x00000000
       30765000	      3075	8000353c	fe1ff0ef	jal	x1,8000353c	  x1=0x8000353c
       30775000	      3076	00000000	00000013	addi	x0,x0,0	  x0:0x00000000
       30785000	      3077	80003518	00000013	addi	x0,x0,0	  x0:0x00000000
       30795000	      3078	8000351c	024000ef	jal	x1,8000351c	  x1=0x8000351c
       30805000	      3079	00000000	00000013	addi	x0,x0,0	  x0:0x00000000
       30815000	      3080	8000353c	00000013	addi	x0,x0,0	  x0:0x00000000
       30825000	      3081	80003540	fd1ff7ef	jal	x15,80003540	 x15=0x80003540
       30835000	      3082	00000000	00000013	addi	x0,x0,0	  x0:0x00000000
       30845000	      3083	8000350c	00000013	addi	x0,x0,0	  x0:0x00000000
       30855000	      3084	80003510	03c0036f	jal	x6,80003510	  x6=0x80003510
       30865000	      3085	00000000	00000013	addi	x0,x0,0	  x0:0x00000000
       30875000	      3086	80003548	00000013	addi	x0,x0,0	  x0:0x00000000
       30885000	      3087	8000354c	fbdfff6f	jal	x30,8000354c	 x30=0x8000354c
       30895000	      3088	00000000	00000013	addi	x0,x0,0	  x0:0x00000000
       30905000	      3089	80003504	00000013	addi	x0,x0,0	  x0:0x00000000
       30915000	      3090	80003508	048000ef	jal	x1,80003508	  x1=0x80003508
       30925000	      3091	00000000	00000013	addi	x0,x0,0	  x0:0x00000000
       30935000	      3092	8000354c	00000013	addi	x0,x0,0	  x0:0x00000000
       30945000	      3093	80003550	ff9ff36f	jal	x6,80003550	  x6=0x80003550
       30955000	      3094	00000000	00000013	addi	x0,x0,0	  x0:0x00000000
       30965000	      3095	80003544	00000013	addi	x0,x0,0	  x0:0x00000000
       30975000	      3096	80003548	0100036f	jal	x6,80003548	  x6=0x80003548
       30985000	      3097	00000000	00000013	addi	x0,x0,0	  x0:0x00000000
       30995000	      3098	80003554	00000013	addi	x0,x0,0	  x0:0x00000000
       31005000	      3099	80003558	00576833	or	x16,x14,x5	 x14:0x80003458  x5:0x80003404 x16=0x8000345c
       31015000	      3100	8000355c	41a75d33	sra	x26,x14,x26	 x14:0x80003458 x26:0x800034e0 x26=0x80003458
       31025000	      3101	80003560	0057c033	xor	x0,x15,x5	 x15:0x80003540  x5:0x80003404
       31035000	      3102	80003564	2eaf7e93	andi	x29,x30,746	 x30:0x8000354c x29=0x00000048
       31045000	      3103	80003568	0094c7b3	xor	x15,x9,x9	  x9:0x80009fc4  x9:0x80009fc4 x15=0x00000000
       31055000	      3104	8000356c	28466713	ori	x14,x12,644	 x12:0x8000328c x14=0x8000328c
       31065000	      3105	80003570	40315f13	srai	x30,x2,0x3	  x2:0x80003530 x30=0xf00006a6
       31075000	      3106	80003574	00000013	addi	x0,x0,0	  x0:0x00000000
       31085000	      3107	80003578	01220a63	beq	x4,x18,8000358c	  x4:0x8000352c x18:0x00000006
       31095000	      3108	8000357c	0166fc33	and	x24,x13,x22	 x13:0x800033e8 x22:0x8000341c x24=0x80003008
       31105000	      3109	80003580	bb1cfe93	andi	x29,x25,-1103	 x25:0x80003470 x29=0x80003030
       31115000	      3110	80003584	01f178b3	and	x17,x2,x31	  x2:0x80003530 x31:0x800034ec x17=0x80003420
       31125000	      3111	80003588	6121a513	slti	x10,x3,1554	  x3:0x80003524 x10=0x00000001
       31135000	      3112	8000358c	0049ce63	blt	x19,x4,800035a8	 x19:0x8000344c  x4:0x8000352c
       31145000	      3113	00000000	00000013	addi	x0,x0,0	  x0:0x00000000
       31155000	      3114	800035a4	00000013	addi	x0,x0,0	  x0:0x00000000
       31165000	      3115	800035a8	3dda0b93	addi	x23,x20,989	 x20:0x80009f38 x23=0x8000a315
       31175000	      3116	800035ac	0bcb3017	auipc	x0,0xbcb3	
       31185000	      3117	800035b0	2c28cdb7	lui	x27,0x2c28c	 x27=0x2c28c000
       31195000	      3118	800035b4	00a1ff33	and	x30,x3,x10	  x3:0x80003524 x10:0x00000001 x30=0x00000000
       31205000	      3119	800035b8	00000013	addi	x0,x0,0	  x0:0x00000000
       31215000	      3120	800035bc	01835c63	bge	x6,x24,800035d4	  x6:0x80003548 x24:0x80003008
       31225000	      3121	00000000	00000013	addi	x0,x0,0	  x0:0x00000000
       31235000	      3122	800035d0	00000013	addi	x0,x0,0	  x0:0x00000000
       31245000	      3123	800035d4	01272f33	slt	x30,x14,x18	 x14:0x8000328c x18:0x00000006 x30=0x00000001
       31255000	      3124	800035d8	a18b6713	ori	x14,x22,-1512	 x22:0x8000341c x14=0xfffffe1c
       31265000	      3125	800035dc	01f87bb3	and	x23,x16,x31	 x16:0x8000345c x31:0x800034ec x23=0x8000344c
       31275000	      3126	800035e0	00f7eeb3	or	x29,x15,x15	 x15:0x00000000 x15:0x00000000 x29=0x00000000
       31285000	      3127	800035e4	00c22fb3	slt	x31,x4,x12	  x4:0x8000352c x12:0x8000328c x31=0x00000000
       31295000	      3128	800035e8	21926093	ori	x1,x4,537	  x4:0x8000352c  x1=0x8000373d
       31305000	      3129	800035ec	05279863	bne	x15,x18,8000363c	 x15:0x00000000 x18:0x00000006
       31315000	      3130	00000000	00000013	addi	x0,x0,0	  x0:0x00000000
       31325000	      3131	80003638	00000013	addi	x0,x0,0	  x0:0x00000000
       31335000	      3132	8000363c	0072efb3	or	x31,x5,x7	  x5:0x80003404  x7:0x800033ec x31=0x800037ec
       31345000	      3133	80003640	c3fbe097	auipc	x1,0xc3fbe	  x1=0x43fc163c
       31355000	      3134	80003644	006c9733	sll	x14,x25,x6	 x25:0x80003470  x6:0x80003548 x14=0x00347000
       31365000	      3135	80003648	40bbdc93	srai	x25,x23,0xb	 x23:0x8000344c x25=0xfff00006
       31375000	      3136	8000364c	411dd833	sra	x16,x27,x17	 x27:0x2c28c000 x17:0x80003420 x16=0x2c28c000
       31385000	      3137	80003650	d9e1bf13	sltiu	x30,x3,-610	  x3:0x80003524 x30=0x00000001
       31395000	      3138	80003654	00520733	add	x14,x4,x5	  x4:0x8000352c  x5:0x80003404 x14=0x00006930
       31405000	      3139	80003658	00abec63	bltu	x23,x10,80003670	 x23:0x8000344c x10:0x00000001
       31415000	      3140	8000365c	01d34633	xor	x12,x6,x29	  x6:0x80003548 x29:0x00000000 x12=0x80003548
       31425000	      3141	80003660	008d9663	bne	x27,x8,8000366c	 x27:0x2c28c000  x8:0x80003108
       31435000	      3142	00000000	00000013	addi	x0,x0,0	  x0:0x00000000
       31445000	      3143	80003668	00000013	addi	x0,x0,0	  x0:0x00000000
       31455000	      3144	8000366c	0449d063	bge	x19,x4,800036ac	 x19:0x8000344c  x4:0x8000352c
       31465000	      3145	80003670	dc3ee513	ori	x10,x29,-573	 x29:0x00000000 x10=0xfffffdc3
       31475000	      3146	80003674	02799663	bne	x19,x7,800036a0	 x19:0x8000344c  x7:0x800033ec
       31485000	      3147	00000000	00000013	addi	x0,x0,0	  x0:0x00000000
       31495000	      3148	8000369c	00000013	addi	x0,x0,0	  x0:0x00000000
       31505000	      3149	800036a0	01ccc1b3	xor	x3,x25,x28	 x25:0xfff00006 x28:0x00000100  x3=0xfff00106
       31515000	      3150	800036a4	006f2bb3	slt	x23,x30,x6	 x30:0x00000001  x6:0x80003548 x23=0x00000000
       31525000	      3151	800036a8	012b9fb3	sll	x31,x23,x18	 x23:0x00000000 x18:0x00000006 x31=0x00000000
       31535000	      3152	800036ac	01111733	sll	x14,x2,x17	  x2:0x80003530 x17:0x80003420 x14=0x80003530
       31545000	      3153	800036b0	0240036f	jal	x6,800036b0	  x6=0x800036b0
       31555000	      3154	00000000	00000013	addi	x0,x0,0	  x0:0x00000000
       31565000	      3155	800036d0	00000013	addi	x0,x0,0	  x0:0x00000000
       31575000	      3156	800036d4	0100036f	jal	x6,800036d4	  x6=0x800036d4
       31585000	      3157	00000000	00000013	addi	x0,x0,0	  x0:0x00000000
       31595000	      3158	800036e0	00000013	addi	x0,x0,0	  x0:0x00000000
       31605000	      3159	800036e4	fd5ff0ef	jal	x1,800036e4	  x1=0x800036e4
       31615000	      3160	00000000	00000013	addi	x0,x0,0	  x0:0x00000000
       31625000	      3161	800036b4	00000013	addi	x0,x0,0	  x0:0x00000000
       31635000	      3162	800036b8	010000ef	jal	x1,800036b8	  x1=0x800036b8
       31645000	      3163	00000000	00000013	addi	x0,x0,0	  x0:0x00000000
       31655000	      3164	800036c4	00000013	addi	x0,x0,0	  x0:0x00000000
       31665000	      3165	800036c8	0280086f	jal	x16,800036c8	 x16=0x800036c8
       31675000	      3166	00000000	00000013	addi	x0,x0,0	  x0:0x00000000
       31685000	      3167	800036ec	00000013	addi	x0,x0,0	  x0:0x00000000
       31695000	      3168	800036f0	fc5ff36f	jal	x6,800036f0	  x6=0x800036f0
       31705000	      3169	00000000	00000013	addi	x0,x0,0	  x0:0x00000000
       31715000	      3170	800036b0	00000013	addi	x0,x0,0	  x0:0x00000000
       31725000	      3171	800036b4	034000ef	jal	x1,800036b4	  x1=0x800036b4
       31735000	      3172	00000000	00000013	addi	x0,x0,0	  x0:0x00000000
       31745000	      3173	800036e4	00000013	addi	x0,x0,0	  x0:0x00000000
       31755000	      3174	800036e8	fd5ff16f	jal	x2,800036e8	  x2=0x800036e8
       31765000	      3175	00000000	00000013	addi	x0,x0,0	  x0:0x00000000
       31775000	      3176	800036b8	00000013	addi	x0,x0,0	  x0:0x00000000
       31785000	      3177	800036bc	008000ef	jal	x1,800036bc	  x1=0x800036bc
       31795000	      3178	00000000	00000013	addi	x0,x0,0	  x0:0x00000000
       31805000	      3179	800036c0	00000013	addi	x0,x0,0	  x0:0x00000000
       31815000	      3180	800036c4	014007ef	jal	x15,800036c4	 x15=0x800036c4
       31825000	      3181	00000000	00000013	addi	x0,x0,0	  x0:0x00000000
       31835000	      3182	800036d4	00000013	addi	x0,x0,0	  x0:0x00000000
       31845000	      3183	800036d8	014001ef	jal	x3,800036d8	  x3=0x800036d8
       31855000	      3184	00000000	00000013	addi	x0,x0,0	  x0:0x00000000
       31865000	      3185	800036e8	00000013	addi	x0,x0,0	  x0:0x00000000
       31875000	      3186	800036ec	ff5ff0ef	jal	x1,800036ec	  x1=0x800036ec
       31885000	      3187	00000000	00000013	addi	x0,x0,0	  x0:0x00000000
       31895000	      3188	800036dc	00000013	addi	x0,x0,0	  x0:0x00000000
       31905000	      3189	800036e0	fe1ff16f	jal	x2,800036e0	  x2=0x800036e0
       31915000	      3190	00000000	00000013	addi	x0,x0,0	  x0:0x00000000
       31925000	      3191	800036bc	00000013	addi	x0,x0,0	  x0:0x00000000
       31935000	      3192	800036c0	00c000ef	jal	x1,800036c0	  x1=0x800036c0
       31945000	      3193	00000000	00000013	addi	x0,x0,0	  x0:0x00000000
       31955000	      3194	800036c8	00000013	addi	x0,x0,0	  x0:0x00000000
       31965000	      3195	800036cc	004002ef	jal	x5,800036cc	  x5=0x800036cc
       31975000	      3196	00000000	00000013	addi	x0,x0,0	  x0:0x00000000
       31985000	      3197	800036cc	00000013	addi	x0,x0,0	  x0:0x00000000
       31995000	      3198	800036d0	00c000ef	jal	x1,800036d0	  x1=0x800036d0
       32005000	      3199	00000000	00000013	addi	x0,x0,0	  x0:0x00000000
       32015000	      3200	800036d8	00000013	addi	x0,x0,0	  x0:0x00000000
       32025000	      3201	800036dc	0180056f	jal	x10,800036dc	 x10=0x800036dc
       32035000	      3202	00000000	00000013	addi	x0,x0,0	  x0:0x00000000
       32045000	      3203	800036f0	00000013	addi	x0,x0,0	  x0:0x00000000
       32055000	      3204	800036f4	5d356713	ori	x14,x10,1491	 x10:0x800036dc x14=0x800037df
       32065000	      3205	800036f8	002ea433	slt	x8,x29,x2	 x29:0x00000000  x2:0x800036e0  x8=0x00000000
       32075000	      3206	800036fc	01249c33	sll	x24,x9,x18	  x9:0x80009fc4 x18:0x00000006 x24=0x0027f100
       32085000	      3207	80003700	60df8f93	addi	x31,x31,1549	 x31:0x00000000 x31=0x0000060d
       32095000	      3208	80003704	08768863	beq	x13,x7,80003794	 x13:0x800033e8  x7:0x800033ec
       32105000	      3209	80003708	00000013	addi	x0,x0,0	  x0:0x00000000
       32115000	      3210	8000370c	406ed413	srai	x8,x29,0x6	 x29:0x00000000  x8=0x00000000
       32125000	      3211	80003710	cd616993	ori	x19,x2,-810	  x2:0x800036e0 x19=0xfffffef6
       32135000	      3212	80003714	01da7e63	bgeu	x20,x29,80003730	 x20:0x80009f38 x29:0x00000000
       32145000	      3213	00000000	00000013	addi	x0,x0,0	  x0:0x00000000
       32155000	      3214	8000372c	00000013	addi	x0,x0,0	  x0:0x00000000
       32165000	      3215	80003730	000fed33	or	x26,x31,x0	 x31:0x0000060d  x0:0x00000000 x26=0x0000060d
       32175000	      3216	80003734	01b0bfb3	sltu	x31,x1,x27	  x1:0x800036d0 x27:0x2c28c000 x31=0x00000000
       32185000	      3217	80003738	00f062b3	or	x5,x0,x15	  x0:0x00000000 x15:0x800036c4  x5=0x800036c4
       32195000	      3218	8000373c	07446063	bltu	x8,x20,8000379c	  x8:0x00000000 x20:0x80009f38
       32205000	      3219	00000000	00000013	addi	x0,x0,0	  x0:0x00000000
       32215000	      3220	80003798	00000013	addi	x0,x0,0	  x0:0x00000000
       32225000	      3221	8000379c	00fdb133	sltu	x2,x27,x15	 x27:0x2c28c000 x15:0x800036c4  x2=0x00000001
       32235000	      3222	800037a0	03e2fe63	bgeu	x5,x30,800037dc	  x5:0x800036c4 x30:0x00000001
       32245000	      3223	00000000	00000013	addi	x0,x0,0	  x0:0x00000000
       32255000	      3224	800037d8	00000013	addi	x0,x0,0	  x0:0x00000000
       32265000	      3225	800037dc	0074dc33	srl	x24,x9,x7	  x9:0x80009fc4  x7:0x800033ec x24=0x00080009
       32275000	      3226	800037e0	00f0f9b3	and	x19,x1,x15	  x1:0x800036d0 x15:0x800036c4 x19=0x800036c0
       32285000	      3227	800037e4	01fa71b3	and	x3,x20,x31	 x20:0x80009f38 x31:0x00000000  x3=0x00000000
       32295000	      3228	800037e8	41da5db3	sra	x27,x20,x29	 x20:0x80009f38 x29:0x00000000 x27=0x80009f38
       32305000	      3229	800037ec	00000013	addi	x0,x0,0	  x0:0x00000000
       32315000	      3230	800037f0	03247e63	bgeu	x8,x18,8000382c	  x8:0x00000000 x18:0x00000006
       32325000	      3231	800037f4	05051663	bne	x10,x16,80003840	 x10:0x800036dc x16:0x800036c8
       32335000	      3232	00000000	00000013	addi	x0,x0,0	  x0:0x00000000
       32345000	      3233	8000383c	00000013	addi	x0,x0,0	  x0:0x00000000
       32355000	      3234	80003840	02e88393	addi	x7,x17,46	 x17:0x80003420  x7=0x8000344e
       32365000	      3235	80003844	8d6a7593	andi	x11,x20,-1834	 x20:0x80009f38 x11=0x80009810
       32375000	      3236	80003848	1ff5be13	sltiu	x28,x11,511	 x11:0x80009810 x28=0x00000000
       32385000	      3237	8000384c	c1a4ae93	slti	x29,x9,-998	  x9:0x80009fc4 x29=0x00000001
       32395000	      3238	80003850	b4ea8313	addi	x6,x21,-1202	 x21:0x00006300  x6=0x00005e4e
       32405000	      3239	80003854	40348e33	sub	x28,x9,x3	  x9:0x80009fc4  x3:0x00000000 x28=0x80009fc4
       32415000	      3240	80003858	de74f893	andi	x17,x9,-537	  x9:0x80009fc4 x17=0x80009dc4
       32425000	      3241	8000385c	badb50b7	lui	x1,0xbadb5	  x1=0xbadb5000
       32435000	      3242	80003860	0ae97a93	andi	x21,x18,174	 x18:0x00000006 x21=0x00000006
       32445000	      3243	80003864	f9208793	addi	x15,x1,-110	  x1:0xbadb5000 x15=0xbadb4f92
       32455000	      3244	80003868	416cd393	srai	x7,x25,0x16	 x25:0xfff00006  x7=0xffffffff
       32465000	      3245	8000386c	00000013	addi	x0,x0,0	  x0:0x00000000
       32475000	      3246	80003870	01cb5213	srli	x4,x22,0x1c	 x22:0x8000341c  x4=0x00000008
       32485000	      3247	80003874	04aed063	bge	x29,x10,800038b4	 x29:0x00000001 x10:0x800036dc
       32495000	      3248	00000000	00000013	addi	x0,x0,0	  x0:0x00000000
       32505000	      3249	800038b0	00000013	addi	x0,x0,0	  x0:0x00000000
       32515000	      3250	800038b4	1a127b13	andi	x22,x4,417	  x4:0x00000008 x22=0x00000000
       32525000	      3251	800038b8	01f38cb3	add	x25,x7,x31	  x7:0xffffffff x31:0x00000000 x25=0xffffffff
       32535000	      3252	800038bc	00be6263	bltu	x28,x11,800038c0	 x28:0x80009fc4 x11:0x80009810
       32545000	      3253	800038c0	00a67863	bgeu	x12,x10,800038d0	 x12:0x80003548 x10:0x800036dc
       32555000	      3254	800038c4	01b37033	and	x0,x6,x27	  x6:0x00005e4e x27:0x80009f38
       32565000	      3255	800038c8	0075cc33	xor	x24,x11,x7	 x11:0x80009810  x7:0xffffffff x24=0x7fff67ef
       32575000	      3256	800038cc	003fa7b3	slt	x15,x31,x3	 x31:0x00000000  x3:0x00000000 x15=0x00000000
       32585000	      3257	800038d0	01070263	beq	x14,x16,800038d4	 x14:0x800037df x16:0x800036c8
       32595000	      3258	800038d4	e83a7693	andi	x13,x20,-381	 x20:0x80009f38 x13=0x80009e00
       32605000	      3259	800038d8	01f91fb3	sll	x31,x18,x31	 x18:0x00000006 x31:0x00000000 x31=0x00000006
       32615000	      3260	800038dc	416cdb13	srai	x22,x25,0x16	 x25:0xffffffff x22=0xffffffff
       32625000	      3261	800038e0	01c5ea63	bltu	x11,x28,800038f4	 x11:0x80009810 x28:0x80009fc4
       32635000	      3262	00000000	00000013	addi	x0,x0,0	  x0:0x00000000
       32645000	      3263	800038f0	00000013	addi	x0,x0,0	  x0:0x00000000
       32655000	      3264	800038f4	019f5c63	bge	x30,x25,8000390c	 x30:0x00000001 x25:0xffffffff
       32665000	      3265	00000000	00000013	addi	x0,x0,0	  x0:0x00000000
       32675000	      3266	80003908	00000013	addi	x0,x0,0	  x0:0x00000000
       32685000	      3267	8000390c	00a0f833	and	x16,x1,x10	  x1:0xbadb5000 x10:0x800036dc x16=0x80001000
       32695000	      3268	80003910	547b3613	sltiu	x12,x22,1351	 x22:0xffffffff x12=0x00000000
       32705000	      3269	80003914	ffd1fa93	andi	x21,x3,-3	  x3:0x00000000 x21=0x00000000
       32715000	      3270	80003918	01ff9b33	sll	x22,x31,x31	 x31:0x00000006 x31:0x00000006 x22=0x00000180
       32725000	      3271	8000391c	02fe4063	blt	x28,x15,8000393c	 x28:0x80009fc4 x15:0x00000000
       32735000	      3272	00000000	00000013	addi	x0,x0,0	  x0:0x00000000
       32745000	      3273	80003938	00000013	addi	x0,x0,0	  x0:0x00000000
       32755000	      3274	8000393c	079f6063	bltu	x30,x25,8000399c	 x30:0x00000001 x25:0xffffffff
       32765000	      3275	00000000	00000013	addi	x0,x0,0	  x0:0x00000000
       32775000	      3276	80003998	00000013	addi	x0,x0,0	  x0:0x00000000
       32785000	      3277	8000399c	01c57533	and	x10,x10,x28	 x10:0x800036dc x28:0x80009fc4 x10=0x800016c4
       32795000	      3278	800039a0	08295863	bge	x18,x2,80003a30	 x18:0x00000006  x2:0x00000001
       32805000	      3279	00000000	00000013	addi	x0,x0,0	  x0:0x00000000
       32815000	      3280	80003a2c	00000013	addi	x0,x0,0	  x0:0x00000000
       32825000	      3281	80003a30	032bc663	blt	x23,x18,80003a5c	 x23:0x00000000 x18:0x00000006
       32835000	      3282	00000000	00000013	addi	x0,x0,0	  x0:0x00000000
       32845000	      3283	80003a58	00000013	addi	x0,x0,0	  x0:0x00000000
       32855000	      3284	80003a5c	001a1033	sll	x0,x20,x1	 x20:0x80009f38  x1:0xbadb5000
       32865000	      3285	80003a60	0409d063	bge	x19,x0,80003aa0	 x19:0x800036c0  x0:0x00000000
       32875000	      3286	80003a64	01031733	sll	x14,x6,x16	  x6:0x00005e4e x16:0x80001000 x14=0x00005e4e
       32885000	      3287	80003a68	2af1f993	andi	x19,x3,687	  x3:0x00000000 x19=0x00000000
       32895000	      3288	80003a6c	2ab1e313	ori	x6,x3,683	  x3:0x00000000  x6=0x000002ab
       32905000	      3289	80003a70	03945463	bge	x8,x25,80003a98	  x8:0x00000000 x25:0xffffffff
       32915000	      3290	00000000	00000013	addi	x0,x0,0	  x0:0x00000000
       32925000	      3291	80003a94	00000013	addi	x0,x0,0	  x0:0x00000000
       32935000	      3292	80003a98	01081f13	slli	x30,x16,0x10	 x16:0x80001000 x30=0x10000000
       32945000	      3293	80003a9c	00000013	addi	x0,x0,0	  x0:0x00000000
       32955000	      3294	80003aa0	4043dbb3	sra	x23,x7,x4	  x7:0xffffffff  x4:0x00000008 x23=0xffffffff
       32965000	      3295	80003aa4	01c0dc93	srli	x25,x1,0x1c	  x1:0xbadb5000 x25=0x0000000b
       32975000	      3296	80003aa8	41ccdab3	sra	x21,x25,x28	 x25:0x0000000b x28:0x80009fc4 x21=0x00000000
       32985000	      3297	80003aac	00ba4c63	blt	x20,x11,80003ac4	 x20:0x80009f38 x11:0x80009810
       32995000	      3298	80003ab0	004cc663	blt	x25,x4,80003abc	 x25:0x0000000b  x4:0x00000008
       33005000	      3299	80003ab4	01ab48b3	xor	x17,x22,x26	 x22:0x00000180 x26:0x0000060d x17=0x0000078d
       33015000	      3300	80003ab8	01cc4f33	xor	x30,x24,x28	 x24:0x7fff67ef x28:0x80009fc4 x30=0xfffff82b
       33025000	      3301	80003abc	01e71293	slli	x5,x14,0x1e	 x14:0x00005e4e  x5=0x80000000
       33035000	      3302	80003ac0	01cef3b3	and	x7,x29,x28	 x29:0x00000001 x28:0x80009fc4  x7=0x00000000
       33045000	      3303	80003ac4	00105633	srl	x12,x0,x1	  x0:0x00000000  x1:0xbadb5000 x12=0x00000000
       33055000	      3304	80003ac8	0167a333	slt	x6,x15,x22	 x15:0x00000000 x22:0x00000180  x6=0x00000001
       33065000	      3305	80003acc	00169cb3	sll	x25,x13,x1	 x13:0x80009e00  x1:0xbadb5000 x25=0x80009e00
       33075000	      3306	80003ad0	0018dbb3	srl	x23,x17,x1	 x17:0x0000078d  x1:0xbadb5000 x23=0x0000078d
       33085000	      3307	80003ad4	03a78463	beq	x15,x26,80003afc	 x15:0x00000000 x26:0x0000060d
       33095000	      3308	80003ad8	00344263	blt	x8,x3,80003adc	  x8:0x00000000  x3:0x00000000
       33105000	      3309	80003adc	00959c63	bne	x11,x9,80003af4	 x11:0x80009810  x9:0x80009fc4
       33115000	      3310	00000000	00000013	addi	x0,x0,0	  x0:0x00000000
       33125000	      3311	80003af0	00000013	addi	x0,x0,0	  x0:0x00000000
       33135000	      3312	80003af4	011ff3b3	and	x7,x31,x17	 x31:0x00000006 x17:0x0000078d  x7=0x00000004
       33145000	      3313	80003af8	03e30663	beq	x6,x30,80003b24	  x6:0x00000001 x30:0xfffff82b
       33155000	      3314	80003afc	40b1d6b3	sra	x13,x3,x11	  x3:0x00000000 x11:0x80009810 x13=0x00000000
       33165000	      3315	80003b00	03765a63	bge	x12,x23,80003b34	 x12:0x00000000 x23:0x0000078d
       33175000	      3316	80003b04	c5e98793	addi	x15,x19,-930	 x19:0x00000000 x15=0xfffffc5e
       33185000	      3317	80003b08	01b83e13	sltiu	x28,x16,27	 x16:0x80001000 x28=0x00000000
       33195000	      3318	80003b0c	5815e397	auipc	x7,0x5815e	  x7=0xd8161b08
       33205000	      3319	80003b10	00d07e63	bgeu	x0,x13,80003b2c	  x0:0x00000000 x13:0x00000000
       33215000	      3320	00000000	00000013	addi	x0,x0,0	  x0:0x00000000
       33225000	      3321	80003b28	00000013	addi	x0,x0,0	  x0:0x00000000
       33235000	      3322	80003b2c	01139693	slli	x13,x7,0x11	  x7:0xd8161b08 x13=0x36100000
       33245000	      3323	80003b30	01b8a2b3	slt	x5,x17,x27	 x17:0x0000078d x27:0x80009f38  x5=0x00000000
       33255000	      3324	80003b34	01ceadb3	slt	x27,x29,x28	 x29:0x00000001 x28:0x00000000 x27=0x00000000
       33265000	      3325	80003b38	17b86513	ori	x10,x16,379	 x16:0x80001000 x10=0x8000117b
       33275000	      3326	80003b3c	00000013	addi	x0,x0,0	  x0:0x00000000
       33285000	      3327	80003b40	01f7ebb3	or	x23,x15,x31	 x15:0xfffffc5e x31:0x00000006 x23=0xfffffc5e
       33295000	      3328	80003b44	41b0df13	srai	x30,x1,0x1b	  x1:0xbadb5000 x30=0xfffffff7
       33305000	      3329	80003b48	00000013	addi	x0,x0,0	  x0:0x00000000
       33315000	      3330	80003b4c	00551e33	sll	x28,x10,x5	 x10:0x8000117b  x5:0x00000000 x28=0x8000117b
       33325000	      3331	80003b50	00251a93	slli	x21,x10,0x2	 x10:0x8000117b x21=0x000045ec
       33335000	      3332	80003b54	0019dc63	bge	x19,x1,80003b6c	 x19:0x00000000  x1:0xbadb5000
       33345000	      3333	00000000	00000013	addi	x0,x0,0	  x0:0x00000000
       33355000	      3334	80003b68	00000013	addi	x0,x0,0	  x0:0x00000000
       33365000	      3335	80003b6c	4573b413	sltiu	x8,x7,1111	  x7:0xd8161b08  x8=0x00000000
       33375000	      3336	80003b70	021efe63	bgeu	x29,x1,80003bac	 x29:0x00000001  x1:0xbadb5000
       33385000	      3337	80003b74	026b1663	bne	x22,x6,80003ba0	 x22:0x00000180  x6:0x00000001
       33395000	      3338	00000000	00000013	addi	x0,x0,0	  x0:0x00000000
       33405000	      3339	80003b9c	00000013	addi	x0,x0,0	  x0:0x00000000
       33415000	      3340	80003ba0	41440bb3	sub	x23,x8,x20	  x8:0x00000000 x20:0x80009f38 x23=0x7fff60c8
       33425000	      3341	80003ba4	01bd8863	beq	x27,x27,80003bb4	 x27:0x00000000 x27:0x00000000
       33435000	      3342	00000000	00000013	addi	x0,x0,0	  x0:0x00000000
       33445000	      3343	80003bb0	00000013	addi	x0,x0,0	  x0:0x00000000
       33455000	      3344	80003bb4	005e9133	sll	x2,x29,x5	 x29:0x00000001  x5:0x00000000  x2=0x00000001
       33465000	      3345	80003bb8	01cd8c33	add	x24,x27,x28	 x27:0x00000000 x28:0x8000117b x24=0x8000117b
       33475000	      3346	80003bbc	003c58b3	srl	x17,x24,x3	 x24:0x8000117b  x3:0x00000000 x17=0x8000117b
       33485000	      3347	80003bc0	690d3e13	sltiu	x28,x26,1680	 x26:0x0000060d x28=0x00000001
       33495000	      3348	80003bc4	f695aa93	slti	x21,x11,-151	 x11:0x80009810 x21=0x00000001
       33505000	      3349	80003bc8	4119d833	sra	x16,x19,x17	 x19:0x00000000 x17:0x8000117b x16=0x00000000
       33515000	      3350	80003bcc	01c61033	sll	x0,x12,x28	 x12:0x00000000 x28:0x00000001
       33525000	      3351	80003bd0	01017533	and	x10,x2,x16	  x2:0x00000001 x16:0x00000000 x10=0x00000000
       33535000	      3352	80003bd4	01c79233	sll	x4,x15,x28	 x15:0xfffffc5e x28:0x00000001  x4=0xfffff8bc
       33545000	      3353	80003bd8	05cb1863	bne	x22,x28,80003c28	 x22:0x00000180 x28:0x00000001
       33555000	      3354	00000000	00000013	addi	x0,x0,0	  x0:0x00000000
       33565000	      3355	80003c24	00000013	addi	x0,x0,0	  x0:0x00000000
       33575000	      3356	80003c28	017131b3	sltu	x3,x2,x23	  x2:0x00000001 x23:0x7fff60c8  x3=0x00000001
       33585000	      3357	80003c2c	d2413b93	sltiu	x23,x2,-732	  x2:0x00000001 x23=0x00000001
       33595000	      3358	80003c30	007975b3	and	x11,x18,x7	 x18:0x00000006  x7:0xd8161b08 x11=0x00000000
       33605000	      3359	80003c34	2637c513	xori	x10,x15,611	 x15:0xfffffc5e x10=0xfffffe3d
       33615000	      3360	80003c38	016957b3	srl	x15,x18,x22	 x18:0x00000006 x22:0x00000180 x15=0x00000006
       33625000	      3361	80003c3c	4075db13	srai	x22,x11,0x7	 x11:0x00000000 x22=0x00000000
       33635000	      3362	80003c40	a41803b7	lui	x7,0xa4180	  x7=0xa4180000
       33645000	      3363	80003c44	01259233	sll	x4,x11,x18	 x11:0x00000000 x18:0x00000006  x4=0x00000000
       33655000	      3364	80003c48	001c8833	add	x16,x25,x1	 x25:0x80009e00  x1:0xbadb5000 x16=0x3adbee00
       33665000	      3365	80003c4c	017625b3	slt	x11,x12,x23	 x12:0x00000000 x23:0x00000001 x11=0x00000001
       33675000	      3366	80003c50	1943c1b7	lui	x3,0x1943c	  x3=0x1943c000
       33685000	      3367	80003c54	41a75f13	srai	x30,x14,0x1a	 x14:0x00005e4e x30=0x00000000
       33695000	      3368	80003c58	131db217	auipc	x4,0x131db	  x4=0x931dec54
       33705000	      3369	80003c5c	04050863	beq	x10,x0,80003cac	 x10:0xfffffe3d  x0:0x00000000
       33715000	      3370	80003c60	01face33	xor	x28,x21,x31	 x21:0x00000001 x31:0x00000006 x28=0x00000007
       33725000	      3371	80003c64	e833c693	xori	x13,x7,-381	  x7:0xa4180000 x13=0x5be7fe83
       33735000	      3372	80003c68	b420ce97	auipc	x29,0xb420c	 x29=0x3420fc64
       33745000	      3373	80003c6c	00381eb3	sll	x29,x16,x3	 x16:0x3adbee00  x3:0x1943c000 x29=0x3adbee00
       33755000	      3374	80003c70	01911233	sll	x4,x2,x25	  x2:0x00000001 x25:0x80009e00  x4=0x00000001
       33765000	      3375	80003c74	053fd063	bge	x31,x19,80003cb4	 x31:0x00000006 x19:0x00000000
       33775000	      3376	00000000	00000013	addi	x0,x0,0	  x0:0x00000000
       33785000	      3377	80003cb0	00000013	addi	x0,x0,0	  x0:0x00000000
       33795000	      3378	80003cb4	b826e293	ori	x5,x13,-1150	 x13:0x5be7fe83  x5=0xffffff83
       33805000	      3379	80003cb8	55c56213	ori	x4,x10,1372	 x10:0xfffffe3d  x4=0xffffff7d
       33815000	      3380	80003cbc	00bebeb3	sltu	x29,x29,x11	 x29:0x3adbee00 x11:0x00000001 x29=0x00000000
       33825000	      3381	80003cc0	3060b993	sltiu	x19,x1,774	  x1:0xbadb5000 x19=0x00000000
       33835000	      3382	80003cc4	000a7c63	bgeu	x20,x0,80003cdc	 x20:0x80009f38  x0:0x00000000
       33845000	      3383	00000000	00000013	addi	x0,x0,0	  x0:0x00000000
       33855000	      3384	80003cd8	00000013	addi	x0,x0,0	  x0:0x00000000
       33865000	      3385	80003cdc	009d50b3	srl	x1,x26,x9	 x26:0x0000060d  x9:0x80009fc4  x1=0x00000060
       33875000	      3386	80003ce0	412dd393	srai	x7,x27,0x12	 x27:0x00000000  x7=0x00000000
       33885000	      3387	80003ce4	01165663	bge	x12,x17,80003cf0	 x12:0x00000000 x17:0x8000117b
       33895000	      3388	00000000	00000013	addi	x0,x0,0	  x0:0x00000000
       33905000	      3389	80003cec	00000013	addi	x0,x0,0	  x0:0x00000000
       33915000	      3390	80003cf0	01e95f33	srl	x30,x18,x30	 x18:0x00000006 x30:0x00000000 x30=0x00000006
       33925000	      3391	80003cf4	00f9d5b3	srl	x11,x19,x15	 x19:0x00000000 x15:0x00000006 x11=0x00000000
       33935000	      3392	80003cf8	fb650013	addi	x0,x10,-74	 x10:0xfffffe3d
       33945000	      3393	80003cfc	019511b3	sll	x3,x10,x25	 x10:0xfffffe3d x25:0x80009e00  x3=0xfffffe3d
       33955000	      3394	80003d00	018f5263	bge	x30,x24,80003d04	 x30:0x00000006 x24:0x8000117b
       33965000	      3395	00000000	00000013	addi	x0,x0,0	  x0:0x00000000
       33975000	      3396	80003d00	00000013	addi	x0,x0,0	  x0:0x00000000
       33985000	      3397	80003d04	90263293	sltiu	x5,x12,-1790	 x12:0x00000000  x5=0x00000001
       33995000	      3398	80003d08	0041e9b3	or	x19,x3,x4	  x3:0xfffffe3d  x4:0xffffff7d x19=0xffffff7d
       34005000	      3399	80003d0c	00e0db93	srli	x23,x1,0xe	  x1:0x00000060 x23=0x00000000
       34015000	      3400	80003d10	014fa2b3	slt	x5,x31,x20	 x31:0x00000006 x20:0x80009f38  x5=0x00000000
       34025000	      3401	80003d14	ba4a8e93	addi	x29,x21,-1116	 x21:0x00000001 x29=0xfffffba5
       34035000	      3402	80003d18	f0faa513	slti	x10,x21,-241	 x21:0x00000001 x10=0x00000000
       34045000	      3403	80003d1c	00c546b3	xor	x13,x10,x12	 x10:0x00000000 x12:0x00000000 x13=0x00000000
       34055000	      3404	80003d20	41f80ab3	sub	x21,x16,x31	 x16:0x3adbee00 x31:0x00000006 x21=0x3adbedfa
       34065000	      3405	80003d24	00e812b3	sll	x5,x16,x14	 x16:0x3adbee00 x14:0x00005e4e  x5=0xfb800000
       34075000	      3406	80003d28	4a99bc93	sltiu	x25,x19,1193	 x19:0xffffff7d x25=0x00000000
       34085000	      3407	80003d2c	ff36ba93	sltiu	x21,x13,-13	 x13:0x00000000 x21=0x00000001
       34095000	      3408	80003d30	00e5a5b3	slt	x11,x11,x14	 x11:0x00000000 x14:0x00005e4e x11=0x00000001
       34105000	      3409	80003d34	168d7a93	andi	x21,x26,360	 x26:0x0000060d x21=0x00000008
       34115000	      3410	80003d38	8e18f313	andi	x6,x17,-1823	 x17:0x8000117b  x6=0x80001061
       34125000	      3411	80003d3c	4b91a437	lui	x8,0x4b91a	  x8=0x4b91a000
       34135000	      3412	80003d40	3e23bd93	sltiu	x27,x7,994	  x7:0x00000000 x27=0x00000001
       34145000	      3413	80003d44	0193deb3	srl	x29,x7,x25	  x7:0x00000000 x25:0x00000000 x29=0x00000000
       34155000	      3414	80003d48	09f78c63	beq	x15,x31,80003de0	 x15:0x00000006 x31:0x00000006
       34165000	      3415	00000000	00000013	addi	x0,x0,0	  x0:0x00000000
       34175000	      3416	80003ddc	00000013	addi	x0,x0,0	  x0:0x00000000
       34185000	      3417	80003de0	01c75e63	bge	x14,x28,80003dfc	 x14:0x00005e4e x28:0x00000007
       34195000	      3418	00000000	00000013	addi	x0,x0,0	  x0:0x00000000
       34205000	      3419	80003df8	00000013	addi	x0,x0,0	  x0:0x00000000
       34215000	      3420	80003dfc	00915f13	srli	x30,x2,0x9	  x2:0x00000001 x30=0x00000000
       34225000	      3421	80003e00	022e7a63	bgeu	x28,x2,80003e34	 x28:0x00000007  x2:0x00000001
       34235000	      3422	00000000	00000013	addi	x0,x0,0	  x0:0x00000000
       34245000	      3423	80003e30	00000013	addi	x0,x0,0	  x0:0x00000000
       34255000	      3424	80003e34	00000013	addi	x0,x0,0	  x0:0x00000000
       34265000	      3425	80003e38	408500b3	sub	x1,x10,x8	 x10:0x00000000  x8:0x4b91a000  x1=0xb46e6000
       34275000	      3426	80003e3c	01acd433	srl	x8,x25,x26	 x25:0x00000000 x26:0x0000060d  x8=0x00000000
       34285000	      3427	80003e40	006d7ab3	and	x21,x26,x6	 x26:0x0000060d  x6:0x80001061 x21=0x00000001
       34295000	      3428	80003e44	40cb0fb3	sub	x31,x22,x12	 x22:0x00000000 x12:0x00000000 x31=0x00000000
       34305000	      3429	80003e48	c22909b7	lui	x19,0xc2290	 x19=0xc2290000
       34315000	      3430	80003e4c	5e69a013	slti	x0,x19,1510	 x19:0xc2290000
       34325000	      3431	80003e50	035b6463	bltu	x22,x21,80003e78	 x22:0x00000000 x21:0x00000001
       34335000	      3432	00000000	00000013	addi	x0,x0,0	  x0:0x00000000
       34345000	      3433	80003e74	00000013	addi	x0,x0,0	  x0:0x00000000
       34355000	      3434	80003e78	02859e63	bne	x11,x8,80003eb4	 x11:0x00000001  x8:0x00000000
       34365000	      3435	00000000	00000013	addi	x0,x0,0	  x0:0x00000000
       34375000	      3436	80003eb0	00000013	addi	x0,x0,0	  x0:0x00000000
       34385000	      3437	80003eb4	026b7463	bgeu	x22,x6,80003edc	 x22:0x00000000  x6:0x80001061
       34395000	      3438	80003eb8	5c518393	addi	x7,x3,1477	  x3:0xfffffe3d  x7=0x00000402
       34405000	      3439	80003ebc	527ba313	slti	x6,x23,1319	 x23:0x00000000  x6=0x00000001
       34415000	      3440	80003ec0	4d25f517	auipc	x10,0x4d25f	 x10=0xcd262ebc
       34425000	      3441	80003ec4	0316e463	bltu	x13,x17,80003eec	 x13:0x00000000 x17:0x8000117b
       34435000	      3442	00000000	00000013	addi	x0,x0,0	  x0:0x00000000
       34445000	      3443	80003ee8	00000013	addi	x0,x0,0	  x0:0x00000000
       34455000	      3444	80003eec	6382c313	xori	x6,x5,1592	  x5:0xfb800000  x6=0xfb800638
       34465000	      3445	80003ef0	0096fc63	bgeu	x13,x9,80003f08	 x13:0x00000000  x9:0x80009fc4
       34475000	      3446	80003ef4	01df1833	sll	x16,x30,x29	 x30:0x00000000 x29:0x00000000 x16=0x00000000
       34485000	      3447	80003ef8	00000013	addi	x0,x0,0	  x0:0x00000000
       34495000	      3448	80003efc	00000013	addi	x0,x0,0	  x0:0x00000000
       34505000	      3449	80003f00	34861197	auipc	x3,0x34861	  x3=0xb4864efc
       34515000	      3450	80003f04	00e8cb33	xor	x22,x17,x14	 x17:0x8000117b x14:0x00005e4e x22=0x80004f35
       34525000	      3451	80003f08	007cdc63	bge	x25,x7,80003f20	 x25:0x00000000  x7:0x00000402
       34535000	      3452	80003f0c	ea3a3637	lui	x12,0xea3a3	 x12=0xea3a3000
       34545000	      3453	80003f10	00508433	add	x8,x1,x5	  x1:0xb46e6000  x5:0xfb800000  x8=0xafee6000
       34555000	      3454	80003f14	03dc0463	beq	x24,x29,80003f3c	 x24:0x8000117b x29:0x00000000
       34565000	      3455	80003f18	00d2d033	srl	x0,x5,x13	  x5:0xfb800000 x13:0x00000000
       34575000	      3456	80003f1c	e486f993	andi	x19,x13,-440	 x13:0x00000000 x19=0x00000000
       34585000	      3457	80003f20	017b1c93	slli	x25,x22,0x17	 x22:0x80004f35 x25=0x9a800000
       34595000	      3458	80003f24	01bbb3b3	sltu	x7,x23,x27	 x23:0x00000000 x27:0x00000001  x7=0x00000001
       34605000	      3459	80003f28	6f2a6793	ori	x15,x20,1778	 x20:0x80009f38 x15=0x80009ffa
       34615000	      3460	80003f2c	00000013	addi	x0,x0,0	  x0:0x00000000
       34625000	      3461	80003f30	03458463	beq	x11,x20,80003f58	 x11:0x00000001 x20:0x80009f38
       34635000	      3462	80003f34	7a4315b7	lui	x11,0x7a431	 x11=0x7a431000
       34645000	      3463	80003f38	006f8663	beq	x31,x6,80003f44	 x31:0x00000000  x6:0xfb800638
       34655000	      3464	80003f3c	5899cd93	xori	x27,x19,1417	 x19:0x00000000 x27=0x00000589
       34665000	      3465	80003f40	04bcc063	blt	x25,x11,80003f80	 x25:0x9a800000 x11:0x7a431000
       34675000	      3466	00000000	00000013	addi	x0,x0,0	  x0:0x00000000
       34685000	      3467	80003f7c	00000013	addi	x0,x0,0	  x0:0x00000000
       34695000	      3468	80003f80	0161fc63	bgeu	x3,x22,80003f98	  x3:0xb4864efc x22:0x80004f35
       34705000	      3469	00000000	00000013	addi	x0,x0,0	  x0:0x00000000
       34715000	      3470	80003f94	00000013	addi	x0,x0,0	  x0:0x00000000
       34725000	      3471	80003f98	9c46b893	sltiu	x17,x13,-1596	 x13:0x00000000 x17=0x00000001
       34735000	      3472	80003f9c	01554833	xor	x16,x10,x21	 x10:0xcd262ebc x21:0x00000001 x16=0xcd262ebd
       34745000	      3473	80003fa0	0faecc93	xori	x25,x29,250	 x29:0x00000000 x25=0x000000fa
       34755000	      3474	80003fa4	002b66b3	or	x13,x22,x2	 x22:0x80004f35  x2:0x00000001 x13=0x80004f35
       34765000	      3475	80003fa8	00039133	sll	x2,x7,x0	  x7:0x00000001  x0:0x00000000  x2=0x00000001
       34775000	      3476	80003fac	00cf2633	slt	x12,x30,x12	 x30:0x00000000 x12:0xea3a3000 x12=0x00000000
       34785000	      3477	80003fb0	01ea6c33	or	x24,x20,x30	 x20:0x80009f38 x30:0x00000000 x24=0x80009f38
       34795000	      3478	80003fb4	56ac0793	addi	x15,x24,1386	 x24:0x80009f38 x15=0x8000a4a2
       34805000	      3479	80003fb8	f3da7393	andi	x7,x20,-195	 x20:0x80009f38  x7=0x80009f38
       34815000	      3480	80003fbc	00000013	addi	x0,x0,0	  x0:0x00000000
       34825000	      3481	80003fc0	0061ce63	blt	x3,x6,80003fdc	  x3:0xb4864efc  x6:0xfb800638
       34835000	      3482	00000000	00000013	addi	x0,x0,0	  x0:0x00000000
       34845000	      3483	80003fd8	00000013	addi	x0,x0,0	  x0:0x00000000
       34855000	      3484	80003fdc	05678863	beq	x15,x22,8000402c	 x15:0x8000a4a2 x22:0x80004f35
       34865000	      3485	80003fe0	0105aeb3	slt	x29,x11,x16	 x11:0x7a431000 x16:0xcd262ebd x29=0x00000000
       34875000	      3486	80003fe4	004b66b3	or	x13,x22,x4	 x22:0x80004f35  x4:0xffffff7d x13=0xffffff7d
       34885000	      3487	80003fe8	00abd193	srli	x3,x23,0xa	 x23:0x00000000  x3=0x00000000
       34895000	      3488	80003fec	00be8863	beq	x29,x11,80003ffc	 x29:0x00000000 x11:0x7a431000
       34905000	      3489	80003ff0	27013793	sltiu	x15,x2,624	  x2:0x00000001 x15=0x00000001
       34915000	      3490	80003ff4	410a0433	sub	x8,x20,x16	 x20:0x80009f38 x16:0xcd262ebd  x8=0xb2da707b
       34925000	      3491	80003ff8	1bc47613	andi	x12,x8,444	  x8:0xb2da707b x12=0x00000038
       34935000	      3492	80003ffc	5e387f93	andi	x31,x16,1507	 x16:0xcd262ebd x31=0x000004a1
       34945000	      3493	80004000	47cc2693	slti	x13,x24,1148	 x24:0x80009f38 x13=0x00000001
       34955000	      3494	80004004	01f19e63	bne	x3,x31,80004020	  x3:0x00000000 x31:0x000004a1
       34965000	      3495	00000000	00000013	addi	x0,x0,0	  x0:0x00000000
       34975000	      3496	8000401c	00000013	addi	x0,x0,0	  x0:0x00000000
       34985000	      3497	80004020	8d81b513	sltiu	x10,x3,-1832	  x3:0x00000000 x10=0x00000001
       34995000	      3498	80004024	40e00cb3	sub	x25,x0,x14	  x0:0x00000000 x14:0x00005e4e x25=0xffffa1b2
       35005000	      3499	80004028	002c5f13	srli	x30,x24,0x2	 x24:0x80009f38 x30=0x200027ce
       35015000	      3500	8000402c	04ed7863	bgeu	x26,x14,8000407c	 x26:0x0000060d x14:0x00005e4e
       35025000	      3501	80004030	40be5f33	sra	x30,x28,x11	 x28:0x00000007 x11:0x7a431000 x30=0x00000007
       35035000	      3502	80004034	00094ab3	xor	x21,x18,x0	 x18:0x00000006  x0:0x00000000 x21=0x00000006
       35045000	      3503	80004038	732f4d93	xori	x27,x30,1842	 x30:0x00000007 x27=0x00000735
       35055000	      3504	8000403c	00e89d13	slli	x26,x17,0xe	 x17:0x00000001 x26=0x00004000
       35065000	      3505	80004040	e40bf413	andi	x8,x23,-448	 x23:0x00000000  x8=0x00000000
       35075000	      3506	80004044	00aa19b3	sll	x19,x20,x10	 x20:0x80009f38 x10:0x00000001 x19=0x00013e70
       35085000	      3507	80004048	41425233	sra	x4,x4,x20	  x4:0xffffff7d x20:0x80009f38  x4=0xffffffff
       35095000	      3508	8000404c	798d4593	xori	x11,x26,1944	 x26:0x00004000 x11=0x00004798
       35105000	      3509	80004050	00589813	slli	x16,x17,0x5	 x17:0x00000001 x16=0x00000020
       35115000	      3510	80004054	c84c9697	auipc	x13,0xc84c9	 x13=0x484cd050
       35125000	      3511	80004058	a1290c93	addi	x25,x18,-1518	 x18:0x00000006 x25=0xfffffa18
       35135000	      3512	8000405c	00094b33	xor	x22,x18,x0	 x18:0x00000006  x0:0x00000000 x22=0x00000006
       35145000	      3513	80004060	01501f13	slli	x30,x0,0x15	  x0:0x00000000 x30=0x00000000
       35155000	      3514	80004064	38933d93	sltiu	x27,x6,905	  x6:0xfb800638 x27=0x00000000
       35165000	      3515	80004068	007d77b3	and	x15,x26,x7	 x26:0x00004000  x7:0x80009f38 x15=0x00000000
       35175000	      3516	8000406c	01729a93	slli	x21,x5,0x17	  x5:0xfb800000 x21=0x00000000
       35185000	      3517	80004070	03f31663	bne	x6,x31,8000409c	  x6:0xfb800638 x31:0x000004a1
       35195000	      3518	00000000	00000013	addi	x0,x0,0	  x0:0x00000000
       35205000	      3519	80004098	00000013	addi	x0,x0,0	  x0:0x00000000
       35215000	      3520	8000409c	00548e33	add	x28,x9,x5	  x9:0x80009fc4  x5:0xfb800000 x28=0x7b809fc4
       35225000	      3521	800040a0	00627e63	bgeu	x4,x6,800040bc	  x4:0xffffffff  x6:0xfb800638
       35235000	      3522	00000000	00000013	addi	x0,x0,0	  x0:0x00000000
       35245000	      3523	800040b8	00000013	addi	x0,x0,0	  x0:0x00000000
       35255000	      3524	800040bc	40c5d2b3	sra	x5,x11,x12	 x11:0x00004798 x12:0x00000038  x5=0x00000000
       35265000	      3525	800040c0	40fb89b3	sub	x19,x23,x15	 x23:0x00000000 x15:0x00000000 x19=0x00000000
       35275000	      3526	800040c4	0424acb7	lui	x25,0x424a	 x25=0x0424a000
       35285000	      3527	800040c8	05c94063	blt	x18,x28,80004108	 x18:0x00000006 x28:0x7b809fc4
       35295000	      3528	00000000	00000013	addi	x0,x0,0	  x0:0x00000000
       35305000	      3529	80004104	00000013	addi	x0,x0,0	  x0:0x00000000
       35315000	      3530	80004108	415cd633	sra	x12,x25,x21	 x25:0x0424a000 x21:0x00000000 x12=0x0424a000
       35325000	      3531	8000410c	06215663	bge	x2,x2,80004178	  x2:0x00000001  x2:0x00000001
       35335000	      3532	00000000	00000013	addi	x0,x0,0	  x0:0x00000000
       35345000	      3533	80004174	00000013	addi	x0,x0,0	  x0:0x00000000
       35355000	      3534	80004178	03477463	bgeu	x14,x20,800041a0	 x14:0x00005e4e x20:0x80009f38
       35365000	      3535	8000417c	01771113	slli	x2,x14,0x17	 x14:0x00005e4e  x2=0x27000000
       35375000	      3536	80004180	00f2dc33	srl	x24,x5,x15	  x5:0x00000000 x15:0x00000000 x24=0x00000000
       35385000	      3537	80004184	9a4e1117	auipc	x2,0x9a4e1	  x2=0x1a4e5180
       35395000	      3538	80004188	000ab033	sltu	x0,x21,x0	 x21:0x00000000  x0:0x00000000
       35405000	      3539	8000418c	0064e7b3	or	x15,x9,x6	  x9:0x80009fc4  x6:0xfb800638 x15=0xfb809ffc
       35415000	      3540	80004190	00799db3	sll	x27,x19,x7	 x19:0x00000000  x7:0x80009f38 x27=0x00000000
       35425000	      3541	80004194	01956ab3	or	x21,x10,x25	 x10:0x00000001 x25:0x0424a000 x21=0x0424a001
       35435000	      3542	80004198	4111d593	srai	x11,x3,0x11	  x3:0x00000000 x11=0x00000000
       35445000	      3543	8000419c	00999b33	sll	x22,x19,x9	 x19:0x00000000  x9:0x80009fc4 x22=0x00000000
       35455000	      3544	800041a0	419753b3	sra	x7,x14,x25	 x14:0x00005e4e x25:0x0424a000  x7=0x00005e4e
       35465000	      3545	800041a4	b90f6813	ori	x16,x30,-1136	 x30:0x00000000 x16=0xfffffb90
       35475000	      3546	800041a8	010bbcb3	sltu	x25,x23,x16	 x23:0x00000000 x16:0xfffffb90 x25=0x00000001
       35485000	      3547	800041ac	01d5a0b3	slt	x1,x11,x29	 x11:0x00000000 x29:0x00000000  x1=0x00000000
       35495000	      3548	800041b0	011d5193	srli	x3,x26,0x11	 x26:0x00004000  x3=0x00000000
       35505000	      3549	800041b4	00687833	and	x16,x16,x6	 x16:0xfffffb90  x6:0xfb800638 x16=0xfb800210
       35515000	      3550	800041b8	01ea0e33	add	x28,x20,x30	 x20:0x80009f38 x30:0x00000000 x28=0x80009f38
       35525000	      3551	800041bc	0310e063	bltu	x1,x17,800041dc	  x1:0x00000000 x17:0x00000001
       35535000	      3552	00000000	00000013	addi	x0,x0,0	  x0:0x00000000
       35545000	      3553	800041d8	00000013	addi	x0,x0,0	  x0:0x00000000
       35555000	      3554	800041dc	17f0f6b7	lui	x13,0x17f0f	 x13=0x17f0f000
       35565000	      3555	800041e0	7e1a0813	addi	x16,x20,2017	 x20:0x80009f38 x16=0x8000a719
       35575000	      3556	800041e4	00aa9c93	slli	x25,x21,0xa	 x21:0x0424a001 x25=0x92800400
       35585000	      3557	800041e8	8517b293	sltiu	x5,x15,-1967	 x15:0xfb809ffc  x5=0x00000001
       35595000	      3558	800041ec	b56cb413	sltiu	x8,x25,-1194	 x25:0x92800400  x8=0x00000001
       35605000	      3559	800041f0	00b81733	sll	x14,x16,x11	 x16:0x8000a719 x11:0x00000000 x14=0x8000a719
       35615000	      3560	800041f4	042be063	bltu	x23,x2,80004234	 x23:0x00000000  x2:0x1a4e5180
       35625000	      3561	00000000	00000013	addi	x0,x0,0	  x0:0x00000000
       35635000	      3562	80004230	00000013	addi	x0,x0,0	  x0:0x00000000
       35645000	      3563	80004234	da63b813	sltiu	x16,x7,-602	  x7:0x00005e4e x16=0x00000001
       35655000	      3564	80004238	94ef3f13	sltiu	x30,x30,-1714	 x30:0x00000000 x30=0x00000001
       35665000	      3565	8000423c	00a3dd33	srl	x26,x7,x10	  x7:0x00005e4e x10:0x00000001 x26=0x00002f27
       35675000	      3566	80004240	0012c733	xor	x14,x5,x1	  x5:0x00000001  x1:0x00000000 x14=0x00000001
       35685000	      3567	80004244	00985d93	srli	x27,x16,0x9	 x16:0x00000001 x27=0x00000000
       35695000	      3568	80004248	81f1c393	xori	x7,x3,-2017	  x3:0x00000000  x7=0xfffff81f
       35705000	      3569	8000424c	55f86e93	ori	x29,x16,1375	 x16:0x00000001 x29=0x0000055f
       35715000	      3570	80004250	00000013	addi	x0,x0,0	  x0:0x00000000
       35725000	      3571	80004254	004d9c63	bne	x27,x4,8000426c	 x27:0x00000000  x4:0xffffffff
       35735000	      3572	00000000	00000013	addi	x0,x0,0	  x0:0x00000000
       35745000	      3573	80004268	00000013	addi	x0,x0,0	  x0:0x00000000
       35755000	      3574	8000426c	9b77bf17	auipc	x30,0x9b77b	 x30=0x1b77f268
       35765000	      3575	80004270	02f56e63	bltu	x10,x15,800042ac	 x10:0x00000001 x15:0xfb809ffc
       35775000	      3576	00000000	00000013	addi	x0,x0,0	  x0:0x00000000
       35785000	      3577	800042a8	00000013	addi	x0,x0,0	  x0:0x00000000
       35795000	      3578	800042ac	0124a733	slt	x14,x9,x18	  x9:0x80009fc4 x18:0x00000006 x14=0x00000001
       35805000	      3579	800042b0	00000013	addi	x0,x0,0	  x0:0x00000000
       35815000	      3580	800042b4	400addb3	sra	x27,x21,x0	 x21:0x0424a001  x0:0x00000000 x27=0x0424a001
       35825000	      3581	800042b8	00b3b2b3	sltu	x5,x7,x11	  x7:0xfffff81f x11:0x00000000  x5=0x00000000
       35835000	      3582	800042bc	018a10b3	sll	x1,x20,x24	 x20:0x80009f38 x24:0x00000000  x1=0x80009f38
       35845000	      3583	800042c0	407d8eb3	sub	x29,x27,x7	 x27:0x0424a001  x7:0xfffff81f x29=0x0424a7e2
       35855000	      3584	800042c4	012fa8b3	slt	x17,x31,x18	 x31:0x000004a1 x18:0x00000006 x17=0x00000000
       35865000	      3585	800042c8	de853393	sltiu	x7,x10,-536	 x10:0x00000001  x7=0x00000001
       35875000	      3586	800042cc	0523f663	bgeu	x7,x18,80004318	  x7:0x00000001 x18:0x00000006
       35885000	      3587	800042d0	64d96013	ori	x0,x18,1613	 x18:0x00000006
       35895000	      3588	800042d4	1baf3513	sltiu	x10,x30,442	 x30:0x1b77f268 x10=0x00000000
       35905000	      3589	800042d8	0037a133	slt	x2,x15,x3	 x15:0xfb809ffc  x3:0x00000000  x2=0x00000001
       35915000	      3590	800042dc	011040b3	xor	x1,x0,x17	  x0:0x00000000 x17:0x00000000  x1=0x00000000
       35925000	      3591	800042e0	00619393	slli	x7,x3,0x6	  x3:0x00000000  x7=0x00000000
       35935000	      3592	800042e4	00d0e1b3	or	x3,x1,x13	  x1:0x00000000 x13:0x17f0f000  x3=0x17f0f000
       35945000	      3593	800042e8	01275663	bge	x14,x18,800042f4	 x14:0x00000001 x18:0x00000006
       35955000	      3594	800042ec	d91ab313	sltiu	x6,x21,-623	 x21:0x0424a001  x6=0x00000001
       35965000	      3595	800042f0	0001adb3	slt	x27,x3,x0	  x3:0x17f0f000  x0:0x00000000 x27=0x00000000
       35975000	      3596	800042f4	fefa2537	lui	x10,0xfefa2	 x10=0xfefa2000
       35985000	      3597	800042f8	011662b3	or	x5,x12,x17	 x12:0x0424a000 x17:0x00000000  x5=0x0424a000
       35995000	      3598	800042fc	404c81b3	sub	x3,x25,x4	 x25:0x92800400  x4:0xffffffff  x3=0x92800401
       36005000	      3599	80004300	01e25e33	srl	x28,x4,x30	  x4:0xffffffff x30:0x1b77f268 x28=0x00ffffff
       36015000	      3600	80004304	0368f663	bgeu	x17,x22,80004330	 x17:0x00000000 x22:0x00000000
       36025000	      3601	00000000	00000013	addi	x0,x0,0	  x0:0x00000000
       36035000	      3602	8000432c	00000013	addi	x0,x0,0	  x0:0x00000000
       36045000	      3603	80004330	a78cbe13	sltiu	x28,x25,-1416	 x25:0x92800400 x28=0x00000001
       36055000	      3604	80004334	41920533	sub	x10,x4,x25	  x4:0xffffffff x25:0x92800400 x10=0x6d7ffbff
       36065000	      3605	80004338	007a50b3	srl	x1,x20,x7	 x20:0x80009f38  x7:0x00000000  x1=0x80009f38
       36075000	      3606	8000433c	00c06863	bltu	x0,x12,8000434c	  x0:0x00000000 x12:0x0424a000
       36085000	      3607	00000000	00000013	addi	x0,x0,0	  x0:0x00000000
       36095000	      3608	80004348	00000013	addi	x0,x0,0	  x0:0x00000000
       36105000	      3609	8000434c	50492b93	slti	x23,x18,1284	 x18:0x00000006 x23=0x00000001
       36115000	      3610	80004350	03db9463	bne	x23,x29,80004378	 x23:0x00000001 x29:0x0424a7e2
       36125000	      3611	00000000	00000013	addi	x0,x0,0	  x0:0x00000000
       36135000	      3612	80004374	00000013	addi	x0,x0,0	  x0:0x00000000
       36145000	      3613	80004378	031ac663	blt	x21,x17,800043a4	 x21:0x0424a001 x17:0x00000000
       36155000	      3614	8000437c	02c51e63	bne	x10,x12,800043b8	 x10:0x6d7ffbff x12:0x0424a000
       36165000	      3615	00000000	00000013	addi	x0,x0,0	  x0:0x00000000
       36175000	      3616	800043b4	00000013	addi	x0,x0,0	  x0:0x00000000
       36185000	      3617	800043b8	e391fb13	andi	x22,x3,-455	  x3:0x92800401 x22=0x92800401
       36195000	      3618	800043bc	f364e313	ori	x6,x9,-202	  x9:0x80009fc4  x6=0xfffffff6
       36205000	      3619	800043c0	01ea1a93	slli	x21,x20,0x1e	 x20:0x80009f38 x21=0x00000000
       36215000	      3620	800043c4	406f6313	ori	x6,x30,1030	 x30:0x1b77f268  x6=0x1b77f66e
       36225000	      3621	800043c8	013da5b3	slt	x11,x27,x19	 x27:0x00000000 x19:0x00000000 x11=0x00000000
       36235000	      3622	800043cc	01f31833	sll	x16,x6,x31	  x6:0x1b77f66e x31:0x000004a1 x16=0x36efecdc
       36245000	      3623	800043d0	d5af2c13	slti	x24,x30,-678	 x30:0x1b77f268 x24=0x00000000
       36255000	      3624	800043d4	002a4263	blt	x20,x2,800043d8	 x20:0x80009f38  x2:0x00000001
       36265000	      3625	00000000	00000013	addi	x0,x0,0	  x0:0x00000000
       36275000	      3626	800043d4	00000013	addi	x0,x0,0	  x0:0x00000000
       36285000	      3627	800043d8	025e7713	andi	x14,x28,37	 x28:0x00000001 x14=0x00000001
       36295000	      3628	800043dc	eba4bf13	sltiu	x30,x9,-326	  x9:0x80009fc4 x30=0x00000001
       36305000	      3629	800043e0	00000013	addi	x0,x0,0	  x0:0x00000000
       36315000	      3630	800043e4	0100c663	blt	x1,x16,800043f0	  x1:0x80009f38 x16:0x36efecdc
       36325000	      3631	00000000	00000013	addi	x0,x0,0	  x0:0x00000000
       36335000	      3632	800043ec	00000013	addi	x0,x0,0	  x0:0x00000000
       36345000	      3633	800043f0	010a9e93	slli	x29,x21,0x10	 x21:0x00000000 x29=0x00000000
       36355000	      3634	800043f4	5461ef93	ori	x31,x3,1350	  x3:0x92800401 x31=0x92800547
       36365000	      3635	800043f8	02d17e63	bgeu	x2,x13,80004434	  x2:0x00000001 x13:0x17f0f000
       36375000	      3636	800043fc	00a65133	srl	x2,x12,x10	 x12:0x0424a000 x10:0x6d7ffbff  x2=0x00000000
       36385000	      3637	80004400	0152f6b3	and	x13,x5,x21	  x5:0x0424a000 x21:0x00000000 x13=0x00000000
       36395000	      3638	80004404	00c36fb3	or	x31,x6,x12	  x6:0x1b77f66e x12:0x0424a000 x31=0x1f77f66e
       36405000	      3639	80004408	00062833	slt	x16,x12,x0	 x12:0x0424a000  x0:0x00000000 x16=0x00000000
       36415000	      3640	8000440c	11ccce13	xori	x28,x25,284	 x25:0x92800400 x28=0x9280051c
       36425000	      3641	80004410	00f02f33	slt	x30,x0,x15	  x0:0x00000000 x15:0xfb809ffc x30=0x00000000
       36435000	      3642	80004414	01dc5d33	srl	x26,x24,x29	 x24:0x00000000 x29:0x00000000 x26=0x00000000
       36445000	      3643	80004418	c427ca93	xori	x21,x15,-958	 x15:0xfb809ffc x21=0x047f63be
       36455000	      3644	8000441c	004fee63	bltu	x31,x4,80004438	 x31:0x1f77f66e  x4:0xffffffff
       36465000	      3645	00000000	00000013	addi	x0,x0,0	  x0:0x00000000
       36475000	      3646	80004434	00000013	addi	x0,x0,0	  x0:0x00000000
       36485000	      3647	80004438	402e5093	srai	x1,x28,0x2	 x28:0x9280051c  x1=0xe4a00147
       36495000	      3648	8000443c	4052dcb3	sra	x25,x5,x5	  x5:0x0424a000  x5:0x0424a000 x25=0x0424a000
       36505000	      3649	80004440	00abf033	and	x0,x23,x10	 x23:0x00000001 x10:0x6d7ffbff
       36515000	      3650	80004444	019bec63	bltu	x23,x25,8000445c	 x23:0x00000001 x25:0x0424a000
       36525000	      3651	00000000	00000013	addi	x0,x0,0	  x0:0x00000000
       36535000	      3652	80004458	00000013	addi	x0,x0,0	  x0:0x00000000
       36545000	      3653	8000445c	03df5663	bge	x30,x29,80004488	 x30:0x00000000 x29:0x00000000
       36555000	      3654	00000000	00000013	addi	x0,x0,0	  x0:0x00000000
       36565000	      3655	80004484	00000013	addi	x0,x0,0	  x0:0x00000000
       36575000	      3656	80004488	40b55213	srai	x4,x10,0xb	 x10:0x6d7ffbff  x4=0x000dafff
       36585000	      3657	8000448c	57b3a013	slti	x0,x7,1403	  x7:0x00000000
       36595000	      3658	80004490	481df193	andi	x3,x27,1153	 x27:0x00000000  x3=0x00000000
       36605000	      3659	80004494	e9adbf13	sltiu	x30,x27,-358	 x27:0x00000000 x30=0x00000001
       36615000	      3660	80004498	01435093	srli	x1,x6,0x14	  x6:0x1b77f66e  x1=0x000001b7
       36625000	      3661	8000449c	00480c63	beq	x16,x4,800044b4	 x16:0x00000000  x4:0x000dafff
       36635000	      3662	800044a0	41f685b3	sub	x11,x13,x31	 x13:0x00000000 x31:0x1f77f66e x11=0xe0880992
       36645000	      3663	800044a4	41058633	sub	x12,x11,x16	 x11:0xe0880992 x16:0x00000000 x12=0xe0880992
       36655000	      3664	800044a8	01021c63	bne	x4,x16,800044c0	  x4:0x000dafff x16:0x00000000
       36665000	      3665	00000000	00000013	addi	x0,x0,0	  x0:0x00000000
       36675000	      3666	800044bc	00000013	addi	x0,x0,0	  x0:0x00000000
       36685000	      3667	800044c0	009360b3	or	x1,x6,x9	  x6:0x1b77f66e  x9:0x80009fc4  x1=0x9b77ffee
       36695000	      3668	800044c4	03bcd663	bge	x25,x27,800044f0	 x25:0x0424a000 x27:0x00000000
       36705000	      3669	00000000	00000013	addi	x0,x0,0	  x0:0x00000000
       36715000	      3670	800044ec	00000013	addi	x0,x0,0	  x0:0x00000000
       36725000	      3671	800044f0	01644863	blt	x8,x22,80004500	  x8:0x00000001 x22:0x92800401
       36735000	      3672	800044f4	00ceadb3	slt	x27,x29,x12	 x29:0x00000000 x12:0xe0880992 x27=0x00000000
       36745000	      3673	800044f8	36884093	xori	x1,x16,872	 x16:0x00000000  x1=0x00000368
       36755000	      3674	800044fc	00cbe5b3	or	x11,x23,x12	 x23:0x00000001 x12:0xe0880992 x11=0xe0880993
       36765000	      3675	80004500	00997f33	and	x30,x18,x9	 x18:0x00000006  x9:0x80009fc4 x30=0x00000004
       36775000	      3676	80004504	00071233	sll	x4,x14,x0	 x14:0x00000001  x0:0x00000000  x4=0x00000001
       36785000	      3677	80004508	41d95fb3	sra	x31,x18,x29	 x18:0x00000006 x29:0x00000000 x31=0x00000006
       36795000	      3678	8000450c	00768013	addi	x0,x13,7	 x13:0x00000000
       36805000	      3679	80004510	7b0d4f93	xori	x31,x26,1968	 x26:0x00000000 x31=0x000007b0
       36815000	      3680	80004514	01859333	sll	x6,x11,x24	 x11:0xe0880993 x24:0x00000000  x6=0xe0880993
       36825000	      3681	80004518	60174437	lui	x8,0x60174	  x8=0x60174000
       36835000	      3682	8000451c	00d67663	bgeu	x12,x13,80004528	 x12:0xe0880992 x13:0x00000000
       36845000	      3683	00000000	00000013	addi	x0,x0,0	  x0:0x00000000
       36855000	      3684	80004524	00000013	addi	x0,x0,0	  x0:0x00000000
       36865000	      3685	80004528	00b27263	bgeu	x4,x11,8000452c	  x4:0x00000001 x11:0xe0880993
       36875000	      3686	8000452c	01c14eb3	xor	x29,x2,x28	  x2:0x00000000 x28:0x9280051c x29=0x9280051c
       36885000	      3687	80004530	41d9df33	sra	x30,x19,x29	 x19:0x00000000 x29:0x9280051c x30=0x00000000
       36895000	      3688	80004534	026c8e63	beq	x25,x6,80004570	 x25:0x0424a000  x6:0xe0880993
       36905000	      3689	80004538	40b65ab3	sra	x21,x12,x11	 x12:0xe0880992 x11:0xe0880993 x21=0xfffffc11
       36915000	      3690	8000453c	41405533	sra	x10,x0,x20	  x0:0x00000000 x20:0x80009f38 x10=0x00000000
       36925000	      3691	80004540	f1993e93	sltiu	x29,x18,-231	 x18:0x00000006 x29=0x00000001
       36935000	      3692	80004544	01e75663	bge	x14,x30,80004550	 x14:0x00000001 x30:0x00000000
       36945000	      3693	00000000	00000013	addi	x0,x0,0	  x0:0x00000000
       36955000	      3694	8000454c	00000013	addi	x0,x0,0	  x0:0x00000000
       36965000	      3695	80004550	009136b3	sltu	x13,x2,x9	  x2:0x00000000  x9:0x80009fc4 x13=0x00000001
       36975000	      3696	80004554	d400bf13	sltiu	x30,x1,-704	  x1:0x00000368 x30=0x00000001
       36985000	      3697	80004558	01473ab3	sltu	x21,x14,x20	 x14:0x00000001 x20:0x80009f38 x21=0x00000001
       36995000	      3698	8000455c	4037d333	sra	x6,x15,x3	 x15:0xfb809ffc  x3:0x00000000  x6=0xfb809ffc
       37005000	      3699	80004560	0012d313	srli	x6,x5,0x1	  x5:0x0424a000  x6=0x02125000
       37015000	      3700	80004564	035b7a63	bgeu	x22,x21,80004598	 x22:0x92800401 x21:0x00000001
       37025000	      3701	00000000	00000013	addi	x0,x0,0	  x0:0x00000000
       37035000	      3702	80004594	00000013	addi	x0,x0,0	  x0:0x00000000
       37045000	      3703	80004598	002c6263	bltu	x24,x2,8000459c	 x24:0x00000000  x2:0x00000000
       37055000	      3704	8000459c	00fbd813	srli	x16,x23,0xf	 x23:0x00000001 x16=0x00000000
       37065000	      3705	800045a0	00036033	or	x0,x6,x0	  x6:0x02125000  x0:0x00000000
       37075000	      3706	800045a4	01680c33	add	x24,x16,x22	 x16:0x00000000 x22:0x92800401 x24=0x92800401
       37085000	      3707	800045a8	00181863	bne	x16,x1,800045b8	 x16:0x00000000  x1:0x00000368
       37095000	      3708	00000000	00000013	addi	x0,x0,0	  x0:0x00000000
       37105000	      3709	800045b4	00000013	addi	x0,x0,0	  x0:0x00000000
       37115000	      3710	800045b8	0099c2b3	xor	x5,x19,x9	 x19:0x00000000  x9:0x80009fc4  x5=0x80009fc4
       37125000	      3711	800045bc	5b270293	addi	x5,x14,1458	 x14:0x00000001  x5=0x000005b3
       37135000	      3712	800045c0	009e5793	srli	x15,x28,0x9	 x28:0x9280051c x15=0x00494002
       37145000	      3713	800045c4	aac5ab93	slti	x23,x11,-1364	 x11:0xe0880993 x23=0x00000001
       37155000	      3714	800045c8	01c7d663	bge	x15,x28,800045d4	 x15:0x00494002 x28:0x9280051c
       37165000	      3715	00000000	00000013	addi	x0,x0,0	  x0:0x00000000
       37175000	      3716	800045d0	00000013	addi	x0,x0,0	  x0:0x00000000
       37185000	      3717	800045d4	077bc837	lui	x16,0x77bc	 x16=0x077bc000
       37195000	      3718	800045d8	00000013	addi	x0,x0,0	  x0:0x00000000
       37205000	      3719	800045dc	00000013	addi	x0,x0,0	  x0:0x00000000
       37215000	      3720	800045e0	41ddd813	srai	x16,x27,0x1d	 x27:0x00000000 x16=0x00000000
       37225000	      3721	800045e4	013dbb33	sltu	x22,x27,x19	 x27:0x00000000 x19:0x00000000 x22=0x00000000
       37235000	      3722	800045e8	00595b93	srli	x23,x18,0x5	 x18:0x00000006 x23=0x00000000
       37245000	      3723	800045ec	008088b3	add	x17,x1,x8	  x1:0x00000368  x8:0x60174000 x17=0x60174368
       37255000	      3724	800045f0	90a87393	andi	x7,x16,-1782	 x16:0x00000000  x7=0x00000000
       37265000	      3725	800045f4	1ff43013	sltiu	x0,x8,511	  x8:0x60174000
       37275000	      3726	800045f8	40a806b3	sub	x13,x16,x10	 x16:0x00000000 x10:0x00000000 x13=0x00000000
       37285000	      3727	800045fc	00c80c63	beq	x16,x12,80004614	 x16:0x00000000 x12:0xe0880992
       37295000	      3728	80004600	006219b3	sll	x19,x4,x6	  x4:0x00000001  x6:0x02125000 x19=0x00000001
       37305000	      3729	80004604	3538bf37	lui	x30,0x3538b	 x30=0x3538b000
       37315000	      3730	80004608	015b9f13	slli	x30,x23,0x15	 x23:0x00000000 x30=0x00000000
       37325000	      3731	8000460c	e33a3d13	sltiu	x26,x20,-461	 x20:0x80009f38 x26=0x00000001
       37335000	      3732	80004610	010ec233	xor	x4,x29,x16	 x29:0x00000001 x16:0x00000000  x4=0x00000001
       37345000	      3733	80004614	0157de13	srli	x28,x15,0x15	 x15:0x00494002 x28=0x00000002
       37355000	      3734	80004618	01587463	bgeu	x16,x21,80004620	 x16:0x00000000 x21:0x00000001
       37365000	      3735	8000461c	004f8263	beq	x31,x4,80004620	 x31:0x000007b0  x4:0x00000001
       37375000	      3736	80004620	413c8433	sub	x8,x25,x19	 x25:0x0424a000 x19:0x00000001  x8=0x04249fff
       37385000	      3737	80004624	0094cab3	xor	x21,x9,x9	  x9:0x80009fc4  x9:0x80009fc4 x21=0x00000000
       37395000	      3738	80004628	f95a0717	auipc	x14,0xf95a0	 x14=0x795a4624
       37405000	      3739	8000462c	004a2303	lw	x6,4(x20)	 x20:0x80009f38  x6=0x80004694 PA:0x80009f3c
       37415000	      3740	80004630	00ca0a13	addi	x20,x20,12	 x20:0x80009f38 x20=0x80009f44
       37425000	      3741	80004634	40a481b3	sub	x3,x9,x10	  x9:0x80009fc4 x10:0x00000000  x3=0x80009fc4
       37435000	      3742	80004638	00a036b3	sltu	x13,x0,x10	  x0:0x00000000 x10:0x00000000 x13=0x00000000
       37445000	      3743	8000463c	00000013	addi	x0,x0,0	  x0:0x00000000
       37455000	      3744	80004640	01779433	sll	x8,x15,x23	 x15:0x00494002 x23:0x00000000  x8=0x00494002
       37465000	      3745	80004644	00030513	addi	x10,x6,0	  x6:0x80004694 x10=0x80004694
       37475000	      3746	80004648	00050567	jalr	x10,x10,0	 x10:0x80004694 x10=0x80004648
       37485000	      3747	00000000	00000013	addi	x0,x0,0	  x0:0x00000000
       37495000	      3748	80004694	00000013	addi	x0,x0,0	  x0:0x00000000
       37505000	      3749	80004698	c985e213	ori	x4,x11,-872	 x11:0xe0880993  x4=0xfffffd9b
       37515000	      3750	8000469c	00447ab3	and	x21,x8,x4	  x8:0x00494002  x4:0xfffffd9b x21=0x00494002
       37525000	      3751	800046a0	014053b3	srl	x7,x0,x20	  x0:0x00000000 x20:0x80009f44  x7=0x00000000
       37535000	      3752	800046a4	00a1d9b3	srl	x19,x3,x10	  x3:0x80009fc4 x10:0x80004648 x19=0x0080009f
       37545000	      3753	800046a8	f39fa197	auipc	x3,0xf39fa	  x3=0x739fe6a4
       37555000	      3754	800046ac	014ece33	xor	x28,x29,x20	 x29:0x00000001 x20:0x80009f44 x28=0x80009f45
       37565000	      3755	800046b0	ffffff17	auipc	x30,0xfffff	 x30=0x800036ac
       37575000	      3756	800046b4	944f0f13	addi	x30,x30,-1724	 x30:0x800036ac x30=0x80002ff0
       37585000	      3757	800046b8	00785c93	srli	x25,x16,0x7	 x16:0x00000000 x25=0x00000000
       37595000	      3758	800046bc	16ff0f13	addi	x30,x30,367	 x30:0x80002ff0 x30=0x8000315f
       37605000	      3759	800046c0	053265b7	lui	x11,0x5326	 x11=0x05326000
       37615000	      3760	800046c4	fc83ee97	auipc	x29,0xfc83e	 x29=0x7c8426c0
       37625000	      3761	800046c8	01a1c6b3	xor	x13,x3,x26	  x3:0x739fe6a4 x26:0x00000001 x13=0x739fe6a5
       37635000	      3762	800046cc	e92f0367	jalr	x6,x30,-366	 x30:0x8000315f  x6=0x800046cc
       37645000	      3763	00000000	00000013	addi	x0,x0,0	  x0:0x00000000
       37655000	      3764	80002ff0	00000013	addi	x0,x0,0	  x0:0x00000000
       37665000	      3765	80002ff4	016fe463	bltu	x31,x22,80002ffc	 x31:0x000007b0 x22:0x00000000
       37675000	      3766	80002ff8	01f966b3	or	x13,x18,x31	 x18:0x00000006 x31:0x000007b0 x13=0x000007b6
       37685000	      3767	80002ffc	ff4a0a13	addi	x20,x20,-12	 x20:0x80009f44 x20=0x80009f38
       37695000	      3768	80003000	85443d13	sltiu	x26,x8,-1964	  x8:0x00494002 x26=0x00000001
       37705000	      3769	80003004	006a2223	sw	x6,4(x20)	 x20:0x80009f38  x6:0x800046cc PA:0x80009f3c
       37715000	      3770	80003008	0065a433	slt	x8,x11,x6	 x11:0x05326000  x6:0x800046cc  x8=0x00000000
       37725000	      3771	8000300c	0680036f	jal	x6,8000300c	  x6=0x8000300c
       37735000	      3772	00000000	00000013	addi	x0,x0,0	  x0:0x00000000
       37745000	      3773	80003070	00000013	addi	x0,x0,0	  x0:0x00000000
       37755000	      3774	80003074	fb5ff0ef	jal	x1,80003074	  x1=0x80003074
       37765000	      3775	00000000	00000013	addi	x0,x0,0	  x0:0x00000000
       37775000	      3776	80003024	00000013	addi	x0,x0,0	  x0:0x00000000
       37785000	      3777	80003028	05c0036f	jal	x6,80003028	  x6=0x80003028
       37795000	      3778	00000000	00000013	addi	x0,x0,0	  x0:0x00000000
       37805000	      3779	80003080	00000013	addi	x0,x0,0	  x0:0x00000000
       37815000	      3780	80003084	fa1ff0ef	jal	x1,80003084	  x1=0x80003084
       37825000	      3781	00000000	00000013	addi	x0,x0,0	  x0:0x00000000
       37835000	      3782	80003020	00000013	addi	x0,x0,0	  x0:0x00000000
       37845000	      3783	80003024	ff9ff0ef	jal	x1,80003024	  x1=0x80003024
       37855000	      3784	00000000	00000013	addi	x0,x0,0	  x0:0x00000000
       37865000	      3785	80003018	00000013	addi	x0,x0,0	  x0:0x00000000
       37875000	      3786	8000301c	03c0036f	jal	x6,8000301c	  x6=0x8000301c
       37885000	      3787	00000000	00000013	addi	x0,x0,0	  x0:0x00000000
       37895000	      3788	80003054	00000013	addi	x0,x0,0	  x0:0x00000000
       37905000	      3789	80003058	fbdff36f	jal	x6,80003058	  x6=0x80003058
       37915000	      3790	00000000	00000013	addi	x0,x0,0	  x0:0x00000000
       37925000	      3791	80003010	00000013	addi	x0,x0,0	  x0:0x00000000
       37935000	      3792	80003014	00c000ef	jal	x1,80003014	  x1=0x80003014
       37945000	      3793	00000000	00000013	addi	x0,x0,0	  x0:0x00000000
       37955000	      3794	8000301c	00000013	addi	x0,x0,0	  x0:0x00000000
       37965000	      3795	80003020	02c0036f	jal	x6,80003020	  x6=0x80003020
       37975000	      3796	00000000	00000013	addi	x0,x0,0	  x0:0x00000000
       37985000	      3797	80003048	00000013	addi	x0,x0,0	  x0:0x00000000
       37995000	      3798	8000304c	02c003ef	jal	x7,8000304c	  x7=0x8000304c
       38005000	      3799	00000000	00000013	addi	x0,x0,0	  x0:0x00000000
       38015000	      3800	80003074	00000013	addi	x0,x0,0	  x0:0x00000000
       38025000	      3801	80003078	fd1ff1ef	jal	x3,80003078	  x3=0x80003078
       38035000	      3802	00000000	00000013	addi	x0,x0,0	  x0:0x00000000
       38045000	      3803	80003044	00000013	addi	x0,x0,0	  x0:0x00000000
       38055000	      3804	80003048	014002ef	jal	x5,80003048	  x5=0x80003048
       38065000	      3805	00000000	00000013	addi	x0,x0,0	  x0:0x00000000
       38075000	      3806	80003058	00000013	addi	x0,x0,0	  x0:0x00000000
       38085000	      3807	8000305c	024000ef	jal	x1,8000305c	  x1=0x8000305c
       38095000	      3808	00000000	00000013	addi	x0,x0,0	  x0:0x00000000
       38105000	      3809	8000307c	00000013	addi	x0,x0,0	  x0:0x00000000
       38115000	      3810	80003080	fe5ff2ef	jal	x5,80003080	  x5=0x80003080
       38125000	      3811	00000000	00000013	addi	x0,x0,0	  x0:0x00000000
       38135000	      3812	80003060	00000013	addi	x0,x0,0	  x0:0x00000000
       38145000	      3813	80003064	ff1ff0ef	jal	x1,80003064	  x1=0x80003064
       38155000	      3814	00000000	00000013	addi	x0,x0,0	  x0:0x00000000
       38165000	      3815	80003050	00000013	addi	x0,x0,0	  x0:0x00000000
       38175000	      3816	80003054	fd9ff0ef	jal	x1,80003054	  x1=0x80003054
       38185000	      3817	00000000	00000013	addi	x0,x0,0	  x0:0x00000000
       38195000	      3818	80003028	00000013	addi	x0,x0,0	  x0:0x00000000
       38205000	      3819	8000302c	00c000ef	jal	x1,8000302c	  x1=0x8000302c
       38215000	      3820	00000000	00000013	addi	x0,x0,0	  x0:0x00000000
       38225000	      3821	80003034	00000013	addi	x0,x0,0	  x0:0x00000000
       38235000	      3822	80003038	00800fef	jal	x31,80003038	 x31=0x80003038
       38245000	      3823	00000000	00000013	addi	x0,x0,0	  x0:0x00000000
       38255000	      3824	8000303c	00000013	addi	x0,x0,0	  x0:0x00000000
       38265000	      3825	80003040	03c000ef	jal	x1,80003040	  x1=0x80003040
       38275000	      3826	00000000	00000013	addi	x0,x0,0	  x0:0x00000000
       38285000	      3827	80003078	00000013	addi	x0,x0,0	  x0:0x00000000
       38295000	      3828	8000307c	f9dff46f	jal	x8,8000307c	  x8=0x8000307c
       38305000	      3829	00000000	00000013	addi	x0,x0,0	  x0:0x00000000
       38315000	      3830	80003014	00000013	addi	x0,x0,0	  x0:0x00000000
       38325000	      3831	80003018	0180026f	jal	x4,80003018	  x4=0x80003018
       38335000	      3832	00000000	00000013	addi	x0,x0,0	  x0:0x00000000
       38345000	      3833	8000302c	00000013	addi	x0,x0,0	  x0:0x00000000
       38355000	      3834	80003030	03c000ef	jal	x1,80003030	  x1=0x80003030
       38365000	      3835	00000000	00000013	addi	x0,x0,0	  x0:0x00000000
       38375000	      3836	80003068	00000013	addi	x0,x0,0	  x0:0x00000000
       38385000	      3837	8000306c	0040036f	jal	x6,8000306c	  x6=0x8000306c
       38395000	      3838	00000000	00000013	addi	x0,x0,0	  x0:0x00000000
       38405000	      3839	8000306c	00000013	addi	x0,x0,0	  x0:0x00000000
       38415000	      3840	80003070	fd5ff36f	jal	x6,80003070	  x6=0x80003070
       38425000	      3841	00000000	00000013	addi	x0,x0,0	  x0:0x00000000
       38435000	      3842	80003040	00000013	addi	x0,x0,0	  x0:0x00000000
       38445000	      3843	80003044	00c000ef	jal	x1,80003044	  x1=0x80003044
       38455000	      3844	00000000	00000013	addi	x0,x0,0	  x0:0x00000000
       38465000	      3845	8000304c	00000013	addi	x0,x0,0	  x0:0x00000000
       38475000	      3846	80003050	0100016f	jal	x2,80003050	  x2=0x80003050
       38485000	      3847	00000000	00000013	addi	x0,x0,0	  x0:0x00000000
       38495000	      3848	8000305c	00000013	addi	x0,x0,0	  x0:0x00000000
       38505000	      3849	80003060	fb1ff0ef	jal	x1,80003060	  x1=0x80003060
       38515000	      3850	00000000	00000013	addi	x0,x0,0	  x0:0x00000000
       38525000	      3851	8000300c	00000013	addi	x0,x0,0	  x0:0x00000000
       38535000	      3852	80003010	024000ef	jal	x1,80003010	  x1=0x80003010
       38545000	      3853	00000000	00000013	addi	x0,x0,0	  x0:0x00000000
       38555000	      3854	80003030	00000013	addi	x0,x0,0	  x0:0x00000000
       38565000	      3855	80003034	034000ef	jal	x1,80003034	  x1=0x80003034
       38575000	      3856	00000000	00000013	addi	x0,x0,0	  x0:0x00000000
       38585000	      3857	80003064	00000013	addi	x0,x0,0	  x0:0x00000000
       38595000	      3858	80003068	fd5ff0ef	jal	x1,80003068	  x1=0x80003068
       38605000	      3859	00000000	00000013	addi	x0,x0,0	  x0:0x00000000
       38615000	      3860	80003038	00000013	addi	x0,x0,0	  x0:0x00000000
       38625000	      3861	8000303c	04c000ef	jal	x1,8000303c	  x1=0x8000303c
       38635000	      3862	00000000	00000013	addi	x0,x0,0	  x0:0x00000000
       38645000	      3863	80003084	00000013	addi	x0,x0,0	  x0:0x00000000
       38655000	      3864	80003088	04e80293	addi	x5,x16,78	 x16:0x00000000  x5=0x0000004e
       38665000	      3865	8000308c	0180036f	jal	x6,8000308c	  x6=0x8000308c
       38675000	      3866	00000000	00000013	addi	x0,x0,0	  x0:0x00000000
       38685000	      3867	800030a0	00000013	addi	x0,x0,0	  x0:0x00000000
       38695000	      3868	800030a4	01000cef	jal	x25,800030a4	 x25=0x800030a4
       38705000	      3869	00000000	00000013	addi	x0,x0,0	  x0:0x00000000
       38715000	      3870	800030b0	00000013	addi	x0,x0,0	  x0:0x00000000
       38725000	      3871	800030b4	ff5ff26f	jal	x4,800030b4	  x4=0x800030b4
       38735000	      3872	00000000	00000013	addi	x0,x0,0	  x0:0x00000000
       38745000	      3873	800030a4	00000013	addi	x0,x0,0	  x0:0x00000000
       38755000	      3874	800030a8	01c000ef	jal	x1,800030a8	  x1=0x800030a8
       38765000	      3875	00000000	00000013	addi	x0,x0,0	  x0:0x00000000
       38775000	      3876	800030c0	00000013	addi	x0,x0,0	  x0:0x00000000
       38785000	      3877	800030c4	fd1ff26f	jal	x4,800030c4	  x4=0x800030c4
       38795000	      3878	00000000	00000013	addi	x0,x0,0	  x0:0x00000000
       38805000	      3879	80003090	00000013	addi	x0,x0,0	  x0:0x00000000
       38815000	      3880	80003094	01c009ef	jal	x19,80003094	 x19=0x80003094
       38825000	      3881	00000000	00000013	addi	x0,x0,0	  x0:0x00000000
       38835000	      3882	800030ac	00000013	addi	x0,x0,0	  x0:0x00000000
       38845000	      3883	800030b0	fe1ff0ef	jal	x1,800030b0	  x1=0x800030b0
       38855000	      3884	00000000	00000013	addi	x0,x0,0	  x0:0x00000000
       38865000	      3885	8000308c	00000013	addi	x0,x0,0	  x0:0x00000000
       38875000	      3886	80003090	030000ef	jal	x1,80003090	  x1=0x80003090
       38885000	      3887	00000000	00000013	addi	x0,x0,0	  x0:0x00000000
       38895000	      3888	800030bc	00000013	addi	x0,x0,0	  x0:0x00000000
       38905000	      3889	800030c0	fe1ff0ef	jal	x1,800030c0	  x1=0x800030c0
       38915000	      3890	00000000	00000013	addi	x0,x0,0	  x0:0x00000000
       38925000	      3891	8000309c	00000013	addi	x0,x0,0	  x0:0x00000000
       38935000	      3892	800030a0	02800b6f	jal	x22,800030a0	 x22=0x800030a0
       38945000	      3893	00000000	00000013	addi	x0,x0,0	  x0:0x00000000
       38955000	      3894	800030c4	00000013	addi	x0,x0,0	  x0:0x00000000
       38965000	      3895	800030c8	fd5ff8ef	jal	x17,800030c8	 x17=0x800030c8
       38975000	      3896	00000000	00000013	addi	x0,x0,0	  x0:0x00000000
       38985000	      3897	80003098	00000013	addi	x0,x0,0	  x0:0x00000000
       38995000	      3898	8000309c	010005ef	jal	x11,8000309c	 x11=0x8000309c
       39005000	      3899	00000000	00000013	addi	x0,x0,0	  x0:0x00000000
       39015000	      3900	800030a8	00000013	addi	x0,x0,0	  x0:0x00000000
       39025000	      3901	800030ac	020000ef	jal	x1,800030ac	  x1=0x800030ac
       39035000	      3902	00000000	00000013	addi	x0,x0,0	  x0:0x00000000
       39045000	      3903	800030c8	00000013	addi	x0,x0,0	  x0:0x00000000
       39055000	      3904	800030cc	ff1ff36f	jal	x6,800030cc	  x6=0x800030cc
       39065000	      3905	00000000	00000013	addi	x0,x0,0	  x0:0x00000000
       39075000	      3906	800030b8	00000013	addi	x0,x0,0	  x0:0x00000000
       39085000	      3907	800030bc	fddff36f	jal	x6,800030bc	  x6=0x800030bc
       39095000	      3908	00000000	00000013	addi	x0,x0,0	  x0:0x00000000
       39105000	      3909	80003094	00000013	addi	x0,x0,0	  x0:0x00000000
       39115000	      3910	80003098	020000ef	jal	x1,80003098	  x1=0x80003098
       39125000	      3911	00000000	00000013	addi	x0,x0,0	  x0:0x00000000
       39135000	      3912	800030b4	00000013	addi	x0,x0,0	  x0:0x00000000
       39145000	      3913	800030b8	0180036f	jal	x6,800030b8	  x6=0x800030b8
       39155000	      3914	00000000	00000013	addi	x0,x0,0	  x0:0x00000000
       39165000	      3915	800030cc	00000013	addi	x0,x0,0	  x0:0x00000000
       39175000	      3916	800030d0	3747a593	slti	x11,x15,884	 x15:0x00494002 x11=0x00000000
       39185000	      3917	800030d4	0480036f	jal	x6,800030d4	  x6=0x800030d4
       39195000	      3918	00000000	00000013	addi	x0,x0,0	  x0:0x00000000
       39205000	      3919	80003118	00000013	addi	x0,x0,0	  x0:0x00000000
       39215000	      3920	8000311c	014000ef	jal	x1,8000311c	  x1=0x8000311c
       39225000	      3921	00000000	00000013	addi	x0,x0,0	  x0:0x00000000
       39235000	      3922	8000312c	00000013	addi	x0,x0,0	  x0:0x00000000
       39245000	      3923	80003130	fcdff0ef	jal	x1,80003130	  x1=0x80003130
       39255000	      3924	00000000	00000013	addi	x0,x0,0	  x0:0x00000000
       39265000	      3925	800030f8	00000013	addi	x0,x0,0	  x0:0x00000000
       39275000	      3926	800030fc	028000ef	jal	x1,800030fc	  x1=0x800030fc
       39285000	      3927	00000000	00000013	addi	x0,x0,0	  x0:0x00000000
       39295000	      3928	80003120	00000013	addi	x0,x0,0	  x0:0x00000000
       39305000	      3929	80003124	fb5ff36f	jal	x6,80003124	  x6=0x80003124
       39315000	      3930	00000000	00000013	addi	x0,x0,0	  x0:0x00000000
       39325000	      3931	800030d4	00000013	addi	x0,x0,0	  x0:0x00000000
       39335000	      3932	800030d8	020009ef	jal	x19,800030d8	 x19=0x800030d8
       39345000	      3933	00000000	00000013	addi	x0,x0,0	  x0:0x00000000
       39355000	      3934	800030f4	00000013	addi	x0,x0,0	  x0:0x00000000
       39365000	      3935	800030f8	0480036f	jal	x6,800030f8	  x6=0x800030f8
       39375000	      3936	00000000	00000013	addi	x0,x0,0	  x0:0x00000000
       39385000	      3937	8000313c	00000013	addi	x0,x0,0	  x0:0x00000000
       39395000	      3938	80003140	fa1ff3ef	jal	x7,80003140	  x7=0x80003140
       39405000	      3939	00000000	00000013	addi	x0,x0,0	  x0:0x00000000
       39415000	      3940	800030dc	00000013	addi	x0,x0,0	  x0:0x00000000
       39425000	      3941	800030e0	05c000ef	jal	x1,800030e0	  x1=0x800030e0
       39435000	      3942	00000000	00000013	addi	x0,x0,0	  x0:0x00000000
       39445000	      3943	80003138	00000013	addi	x0,x0,0	  x0:0x00000000
       39455000	      3944	8000313c	ff1ff1ef	jal	x3,8000313c	  x3=0x8000313c
       39465000	      3945	00000000	00000013	addi	x0,x0,0	  x0:0x00000000
       39475000	      3946	80003128	00000013	addi	x0,x0,0	  x0:0x00000000
       39485000	      3947	8000312c	fb9ff0ef	jal	x1,8000312c	  x1=0x8000312c
       39495000	      3948	00000000	00000013	addi	x0,x0,0	  x0:0x00000000
       39505000	      3949	800030e0	00000013	addi	x0,x0,0	  x0:0x00000000
       39515000	      3950	800030e4	050000ef	jal	x1,800030e4	  x1=0x800030e4
       39525000	      3951	00000000	00000013	addi	x0,x0,0	  x0:0x00000000
       39535000	      3952	80003130	00000013	addi	x0,x0,0	  x0:0x00000000
       39545000	      3953	80003134	fd9ff1ef	jal	x3,80003134	  x3=0x80003134
       39555000	      3954	00000000	00000013	addi	x0,x0,0	  x0:0x00000000
       39565000	      3955	80003108	00000013	addi	x0,x0,0	  x0:0x00000000
       39575000	      3956	8000310c	fe5ff36f	jal	x6,8000310c	  x6=0x8000310c
       39585000	      3957	00000000	00000013	addi	x0,x0,0	  x0:0x00000000
       39595000	      3958	800030ec	00000013	addi	x0,x0,0	  x0:0x00000000
       39605000	      3959	800030f0	058001ef	jal	x3,800030f0	  x3=0x800030f0
       39615000	      3960	00000000	00000013	addi	x0,x0,0	  x0:0x00000000
       39625000	      3961	80003144	00000013	addi	x0,x0,0	  x0:0x00000000
       39635000	      3962	80003148	fc9ffaef	jal	x21,80003148	 x21=0x80003148
       39645000	      3963	00000000	00000013	addi	x0,x0,0	  x0:0x00000000
       39655000	      3964	8000310c	00000013	addi	x0,x0,0	  x0:0x00000000
       39665000	      3965	80003110	ff5ffaef	jal	x21,80003110	 x21=0x80003110
       39675000	      3966	00000000	00000013	addi	x0,x0,0	  x0:0x00000000
       39685000	      3967	80003100	00000013	addi	x0,x0,0	  x0:0x00000000
       39695000	      3968	80003104	fd9ffcef	jal	x25,80003104	 x25=0x80003104
       39705000	      3969	00000000	00000013	addi	x0,x0,0	  x0:0x00000000
       39715000	      3970	800030d8	00000013	addi	x0,x0,0	  x0:0x00000000
       39725000	      3971	800030dc	05c000ef	jal	x1,800030dc	  x1=0x800030dc
       39735000	      3972	00000000	00000013	addi	x0,x0,0	  x0:0x00000000
       39745000	      3973	80003134	00000013	addi	x0,x0,0	  x0:0x00000000
       39755000	      3974	80003138	fb5ff2ef	jal	x5,80003138	  x5=0x80003138
       39765000	      3975	00000000	00000013	addi	x0,x0,0	  x0:0x00000000
       39775000	      3976	800030e8	00000013	addi	x0,x0,0	  x0:0x00000000
       39785000	      3977	800030ec	02c000ef	jal	x1,800030ec	  x1=0x800030ec
       39795000	      3978	00000000	00000013	addi	x0,x0,0	  x0:0x00000000
       39805000	      3979	80003114	00000013	addi	x0,x0,0	  x0:0x00000000
       39815000	      3980	80003118	ffdff56f	jal	x10,80003118	 x10=0x80003118
       39825000	      3981	00000000	00000013	addi	x0,x0,0	  x0:0x00000000
       39835000	      3982	80003110	00000013	addi	x0,x0,0	  x0:0x00000000
       39845000	      3983	80003114	0140036f	jal	x6,80003114	  x6=0x80003114
       39855000	      3984	00000000	00000013	addi	x0,x0,0	  x0:0x00000000
       39865000	      3985	80003124	00000013	addi	x0,x0,0	  x0:0x00000000
       39875000	      3986	80003128	ff9ff36f	jal	x6,80003128	  x6=0x80003128
       39885000	      3987	00000000	00000013	addi	x0,x0,0	  x0:0x00000000
       39895000	      3988	8000311c	00000013	addi	x0,x0,0	  x0:0x00000000
       39905000	      3989	80003120	fe1ff9ef	jal	x19,80003120	 x19=0x80003120
       39915000	      3990	00000000	00000013	addi	x0,x0,0	  x0:0x00000000
       39925000	      3991	800030fc	00000013	addi	x0,x0,0	  x0:0x00000000
       39935000	      3992	80003100	008000ef	jal	x1,80003100	  x1=0x80003100
       39945000	      3993	00000000	00000013	addi	x0,x0,0	  x0:0x00000000
       39955000	      3994	80003104	00000013	addi	x0,x0,0	  x0:0x00000000
       39965000	      3995	80003108	03c0046f	jal	x8,80003108	  x8=0x80003108
       39975000	      3996	00000000	00000013	addi	x0,x0,0	  x0:0x00000000
       39985000	      3997	80003140	00000013	addi	x0,x0,0	  x0:0x00000000
       39995000	      3998	80003144	fa5ff7ef	jal	x15,80003144	 x15=0x80003144
       40005000	      3999	00000000	00000013	addi	x0,x0,0	  x0:0x00000000
       40015000	      4000	800030e4	00000013	addi	x0,x0,0	  x0:0x00000000
       40025000	      4001	800030e8	0640036f	jal	x6,800030e8	  x6=0x800030e8
       40035000	      4002	00000000	00000013	addi	x0,x0,0	  x0:0x00000000
       40045000	      4003	80003148	00000013	addi	x0,x0,0	  x0:0x00000000
       40055000	      4004	8000314c	fa9ff36f	jal	x6,8000314c	  x6=0x8000314c
       40065000	      4005	00000000	00000013	addi	x0,x0,0	  x0:0x00000000
       40075000	      4006	800030f0	00000013	addi	x0,x0,0	  x0:0x00000000
       40085000	      4007	800030f4	05c00e6f	jal	x28,800030f4	 x28=0x800030f4
       40095000	      4008	00000000	00000013	addi	x0,x0,0	  x0:0x00000000
       40105000	      4009	8000314c	00000013	addi	x0,x0,0	  x0:0x00000000
       40115000	      4010	80003150	01719333	sll	x6,x3,x23	  x3:0x800030f0 x23:0x00000000  x6=0x800030f0
       40125000	      4011	80003154	0640036f	jal	x6,80003154	  x6=0x80003154
       40135000	      4012	00000000	00000013	addi	x0,x0,0	  x0:0x00000000
       40145000	      4013	800031b4	00000013	addi	x0,x0,0	  x0:0x00000000
       40155000	      4014	800031b8	fc5ff0ef	jal	x1,800031b8	  x1=0x800031b8
       40165000	      4015	00000000	00000013	addi	x0,x0,0	  x0:0x00000000
       40175000	      4016	80003178	00000013	addi	x0,x0,0	  x0:0x00000000
       40185000	      4017	8000317c	00c000ef	jal	x1,8000317c	  x1=0x8000317c
       40195000	      4018	00000000	00000013	addi	x0,x0,0	  x0:0x00000000
       40205000	      4019	80003184	00000013	addi	x0,x0,0	  x0:0x00000000
       40215000	      4020	80003188	00c000ef	jal	x1,80003188	  x1=0x80003188
       40225000	      4021	00000000	00000013	addi	x0,x0,0	  x0:0x00000000
       40235000	      4022	80003190	00000013	addi	x0,x0,0	  x0:0x00000000
       40245000	      4023	80003194	014000ef	jal	x1,80003194	  x1=0x80003194
       40255000	      4024	00000000	00000013	addi	x0,x0,0	  x0:0x00000000
       40265000	      4025	800031a4	00000013	addi	x0,x0,0	  x0:0x00000000
       40275000	      4026	800031a8	fe5ff0ef	jal	x1,800031a8	  x1=0x800031a8
       40285000	      4027	00000000	00000013	addi	x0,x0,0	  x0:0x00000000
       40295000	      4028	80003188	00000013	addi	x0,x0,0	  x0:0x00000000
       40305000	      4029	8000318c	fedff36f	jal	x6,8000318c	  x6=0x8000318c
       40315000	      4030	00000000	00000013	addi	x0,x0,0	  x0:0x00000000
       40325000	      4031	80003174	00000013	addi	x0,x0,0	  x0:0x00000000
       40335000	      4032	80003178	fe5ff36f	jal	x6,80003178	  x6=0x80003178
       40345000	      4033	00000000	00000013	addi	x0,x0,0	  x0:0x00000000
       40355000	      4034	80003158	00000013	addi	x0,x0,0	  x0:0x00000000
       40365000	      4035	8000315c	044000ef	jal	x1,8000315c	  x1=0x8000315c
       40375000	      4036	00000000	00000013	addi	x0,x0,0	  x0:0x00000000
       40385000	      4037	8000319c	00000013	addi	x0,x0,0	  x0:0x00000000
       40395000	      4038	800031a0	fc9ff36f	jal	x6,800031a0	  x6=0x800031a0
       40405000	      4039	00000000	00000013	addi	x0,x0,0	  x0:0x00000000
       40415000	      4040	80003164	00000013	addi	x0,x0,0	  x0:0x00000000
       40425000	      4041	80003168	0300036f	jal	x6,80003168	  x6=0x80003168
       40435000	      4042	00000000	00000013	addi	x0,x0,0	  x0:0x00000000
       40445000	      4043	80003194	00000013	addi	x0,x0,0	  x0:0x00000000
       40455000	      4044	80003198	ff9ff0ef	jal	x1,80003198	  x1=0x80003198
       40465000	      4045	00000000	00000013	addi	x0,x0,0	  x0:0x00000000
       40475000	      4046	8000318c	00000013	addi	x0,x0,0	  x0:0x00000000
       40485000	      4047	80003190	ff5ff0ef	jal	x1,80003190	  x1=0x80003190
       40495000	      4048	00000000	00000013	addi	x0,x0,0	  x0:0x00000000
       40505000	      4049	80003180	00000013	addi	x0,x0,0	  x0:0x00000000
       40515000	      4050	80003184	0300036f	jal	x6,80003184	  x6=0x80003184
       40525000	      4051	00000000	00000013	addi	x0,x0,0	  x0:0x00000000
       40535000	      4052	800031b0	00000013	addi	x0,x0,0	  x0:0x00000000
       40545000	      4053	800031b4	008000ef	jal	x1,800031b4	  x1=0x800031b4
       40555000	      4054	00000000	00000013	addi	x0,x0,0	  x0:0x00000000
       40565000	      4055	800031b8	00000013	addi	x0,x0,0	  x0:0x00000000
       40575000	      4056	800031bc	fb5ff0ef	jal	x1,800031bc	  x1=0x800031bc
       40585000	      4057	00000000	00000013	addi	x0,x0,0	  x0:0x00000000
       40595000	      4058	8000316c	00000013	addi	x0,x0,0	  x0:0x00000000
       40605000	      4059	80003170	0400066f	jal	x12,80003170	 x12=0x80003170
       40615000	      4060	00000000	00000013	addi	x0,x0,0	  x0:0x00000000
       40625000	      4061	800031ac	00000013	addi	x0,x0,0	  x0:0x00000000
       40635000	      4062	800031b0	fc5ff0ef	jal	x1,800031b0	  x1=0x800031b0
       40645000	      4063	00000000	00000013	addi	x0,x0,0	  x0:0x00000000
       40655000	      4064	80003170	00000013	addi	x0,x0,0	  x0:0x00000000
       40665000	      4065	80003174	038001ef	jal	x3,80003174	  x3=0x80003174
       40675000	      4066	00000000	00000013	addi	x0,x0,0	  x0:0x00000000
       40685000	      4067	800031a8	00000013	addi	x0,x0,0	  x0:0x00000000
       40695000	      4068	800031ac	fadff0ef	jal	x1,800031ac	  x1=0x800031ac
       40705000	      4069	00000000	00000013	addi	x0,x0,0	  x0:0x00000000
       40715000	      4070	80003154	00000013	addi	x0,x0,0	  x0:0x00000000
       40725000	      4071	80003158	068009ef	jal	x19,80003158	 x19=0x80003158
       40735000	      4072	00000000	00000013	addi	x0,x0,0	  x0:0x00000000
       40745000	      4073	800031bc	00000013	addi	x0,x0,0	  x0:0x00000000
       40755000	      4074	800031c0	00400def	jal	x27,800031c0	 x27=0x800031c0
       40765000	      4075	00000000	00000013	addi	x0,x0,0	  x0:0x00000000
       40775000	      4076	800031c0	00000013	addi	x0,x0,0	  x0:0x00000000
       40785000	      4077	800031c4	fa9ffeef	jal	x29,800031c4	 x29=0x800031c4
       40795000	      4078	00000000	00000013	addi	x0,x0,0	  x0:0x00000000
       40805000	      4079	80003168	00000013	addi	x0,x0,0	  x0:0x00000000
       40815000	      4080	8000316c	030000ef	jal	x1,8000316c	  x1=0x8000316c
       40825000	      4081	00000000	00000013	addi	x0,x0,0	  x0:0x00000000
       40835000	      4082	80003198	00000013	addi	x0,x0,0	  x0:0x00000000
       40845000	      4083	8000319c	02c0026f	jal	x4,8000319c	  x4=0x8000319c
       40855000	      4084	00000000	00000013	addi	x0,x0,0	  x0:0x00000000
       40865000	      4085	800031c4	00000013	addi	x0,x0,0	  x0:0x00000000
       40875000	      4086	800031c8	004000ef	jal	x1,800031c8	  x1=0x800031c8
       40885000	      4087	00000000	00000013	addi	x0,x0,0	  x0:0x00000000
       40895000	      4088	800031c8	00000013	addi	x0,x0,0	  x0:0x00000000
       40905000	      4089	800031cc	f95ff36f	jal	x6,800031cc	  x6=0x800031cc
       40915000	      4090	00000000	00000013	addi	x0,x0,0	  x0:0x00000000
       40925000	      4091	8000315c	00000013	addi	x0,x0,0	  x0:0x00000000
       40935000	      4092	80003160	0040036f	jal	x6,80003160	  x6=0x80003160
       40945000	      4093	00000000	00000013	addi	x0,x0,0	  x0:0x00000000
       40955000	      4094	80003160	00000013	addi	x0,x0,0	  x0:0x00000000
       40965000	      4095	80003164	01c000ef	jal	x1,80003164	  x1=0x80003164
       40975000	      4096	00000000	00000013	addi	x0,x0,0	  x0:0x00000000
       40985000	      4097	8000317c	00000013	addi	x0,x0,0	  x0:0x00000000
       40995000	      4098	80003180	024000ef	jal	x1,80003180	  x1=0x80003180
       41005000	      4099	00000000	00000013	addi	x0,x0,0	  x0:0x00000000
       41015000	      4100	800031a0	00000013	addi	x0,x0,0	  x0:0x00000000
       41025000	      4101	800031a4	02c0056f	jal	x10,800031a4	 x10=0x800031a4
       41035000	      4102	00000000	00000013	addi	x0,x0,0	  x0:0x00000000
       41045000	      4103	800031cc	00000013	addi	x0,x0,0	  x0:0x00000000
       41055000	      4104	800031d0	01a09ab3	sll	x21,x1,x26	  x1:0x80003180 x26:0x00000001 x21=0x00006300
       41065000	      4105	800031d4	0300036f	jal	x6,800031d4	  x6=0x800031d4
       41075000	      4106	00000000	00000013	addi	x0,x0,0	  x0:0x00000000
       41085000	      4107	80003200	00000013	addi	x0,x0,0	  x0:0x00000000
       41095000	      4108	80003204	030000ef	jal	x1,80003204	  x1=0x80003204
       41105000	      4109	00000000	00000013	addi	x0,x0,0	  x0:0x00000000
       41115000	      4110	80003230	00000013	addi	x0,x0,0	  x0:0x00000000
       41125000	      4111	80003234	0040036f	jal	x6,80003234	  x6=0x80003234
       41135000	      4112	00000000	00000013	addi	x0,x0,0	  x0:0x00000000
       41145000	      4113	80003234	00000013	addi	x0,x0,0	  x0:0x00000000
       41155000	      4114	80003238	fc1ff26f	jal	x4,80003238	  x4=0x80003238
       41165000	      4115	00000000	00000013	addi	x0,x0,0	  x0:0x00000000
       41175000	      4116	800031f4	00000013	addi	x0,x0,0	  x0:0x00000000
       41185000	      4117	800031f8	01400f6f	jal	x30,800031f8	 x30=0x800031f8
       41195000	      4118	00000000	00000013	addi	x0,x0,0	  x0:0x00000000
       41205000	      4119	80003208	00000013	addi	x0,x0,0	  x0:0x00000000
       41215000	      4120	8000320c	0240036f	jal	x6,8000320c	  x6=0x8000320c
       41225000	      4121	00000000	00000013	addi	x0,x0,0	  x0:0x00000000
       41235000	      4122	8000322c	00000013	addi	x0,x0,0	  x0:0x00000000
       41245000	      4123	80003230	fadff5ef	jal	x11,80003230	 x11=0x80003230
       41255000	      4124	00000000	00000013	addi	x0,x0,0	  x0:0x00000000
       41265000	      4125	800031d8	00000013	addi	x0,x0,0	  x0:0x00000000
       41275000	      4126	800031dc	0500016f	jal	x2,800031dc	  x2=0x800031dc
       41285000	      4127	00000000	00000013	addi	x0,x0,0	  x0:0x00000000
       41295000	      4128	80003228	00000013	addi	x0,x0,0	  x0:0x00000000
       41305000	      4129	8000322c	010007ef	jal	x15,8000322c	 x15=0x8000322c
       41315000	      4130	00000000	00000013	addi	x0,x0,0	  x0:0x00000000
       41325000	      4131	80003238	00000013	addi	x0,x0,0	  x0:0x00000000
       41335000	      4132	8000323c	fa9ffcef	jal	x25,8000323c	 x25=0x8000323c
       41345000	      4133	00000000	00000013	addi	x0,x0,0	  x0:0x00000000
       41355000	      4134	800031e0	00000013	addi	x0,x0,0	  x0:0x00000000
       41365000	      4135	800031e4	00c000ef	jal	x1,800031e4	  x1=0x800031e4
       41375000	      4136	00000000	00000013	addi	x0,x0,0	  x0:0x00000000
       41385000	      4137	800031ec	00000013	addi	x0,x0,0	  x0:0x00000000
       41395000	      4138	800031f0	018000ef	jal	x1,800031f0	  x1=0x800031f0
       41405000	      4139	00000000	00000013	addi	x0,x0,0	  x0:0x00000000
       41415000	      4140	80003204	00000013	addi	x0,x0,0	  x0:0x00000000
       41425000	      4141	80003208	008000ef	jal	x1,80003208	  x1=0x80003208
       41435000	      4142	00000000	00000013	addi	x0,x0,0	  x0:0x00000000
       41445000	      4143	8000320c	00000013	addi	x0,x0,0	  x0:0x00000000
       41455000	      4144	80003210	fedff0ef	jal	x1,80003210	  x1=0x80003210
       41465000	      4145	00000000	00000013	addi	x0,x0,0	  x0:0x00000000
       41475000	      4146	800031f8	00000013	addi	x0,x0,0	  x0:0x00000000
       41485000	      4147	800031fc	0280036f	jal	x6,800031fc	  x6=0x800031fc
       41495000	      4148	00000000	00000013	addi	x0,x0,0	  x0:0x00000000
       41505000	      4149	80003220	00000013	addi	x0,x0,0	  x0:0x00000000
       41515000	      4150	80003224	ff1ff1ef	jal	x3,80003224	  x3=0x80003224
       41525000	      4151	00000000	00000013	addi	x0,x0,0	  x0:0x00000000
       41535000	      4152	80003210	00000013	addi	x0,x0,0	  x0:0x00000000
       41545000	      4153	80003214	004000ef	jal	x1,80003214	  x1=0x80003214
       41555000	      4154	00000000	00000013	addi	x0,x0,0	  x0:0x00000000
       41565000	      4155	80003214	00000013	addi	x0,x0,0	  x0:0x00000000
       41575000	      4156	80003218	fddff0ef	jal	x1,80003218	  x1=0x80003218
       41585000	      4157	00000000	00000013	addi	x0,x0,0	  x0:0x00000000
       41595000	      4158	800031f0	00000013	addi	x0,x0,0	  x0:0x00000000
       41605000	      4159	800031f4	fedffeef	jal	x29,800031f4	 x29=0x800031f4
       41615000	      4160	00000000	00000013	addi	x0,x0,0	  x0:0x00000000
       41625000	      4161	800031dc	00000013	addi	x0,x0,0	  x0:0x00000000
       41635000	      4162	800031e0	020000ef	jal	x1,800031e0	  x1=0x800031e0
       41645000	      4163	00000000	00000013	addi	x0,x0,0	  x0:0x00000000
       41655000	      4164	800031fc	00000013	addi	x0,x0,0	  x0:0x00000000
       41665000	      4165	80003200	fe9ff9ef	jal	x19,80003200	 x19=0x80003200
       41675000	      4166	00000000	00000013	addi	x0,x0,0	  x0:0x00000000
       41685000	      4167	800031e4	00000013	addi	x0,x0,0	  x0:0x00000000
       41695000	      4168	800031e8	040000ef	jal	x1,800031e8	  x1=0x800031e8
       41705000	      4169	00000000	00000013	addi	x0,x0,0	  x0:0x00000000
       41715000	      4170	80003224	00000013	addi	x0,x0,0	  x0:0x00000000
       41725000	      4171	80003228	ff5ff0ef	jal	x1,80003228	  x1=0x80003228
       41735000	      4172	00000000	00000013	addi	x0,x0,0	  x0:0x00000000
       41745000	      4173	80003218	00000013	addi	x0,x0,0	  x0:0x00000000
       41755000	      4174	8000321c	fbdff0ef	jal	x1,8000321c	  x1=0x8000321c
       41765000	      4175	00000000	00000013	addi	x0,x0,0	  x0:0x00000000
       41775000	      4176	800031d4	00000013	addi	x0,x0,0	  x0:0x00000000
       41785000	      4177	800031d8	014000ef	jal	x1,800031d8	  x1=0x800031d8
       41795000	      4178	00000000	00000013	addi	x0,x0,0	  x0:0x00000000
       41805000	      4179	800031e8	00000013	addi	x0,x0,0	  x0:0x00000000
       41815000	      4180	800031ec	03400cef	jal	x25,800031ec	 x25=0x800031ec
       41825000	      4181	00000000	00000013	addi	x0,x0,0	  x0:0x00000000
       41835000	      4182	8000321c	00000013	addi	x0,x0,0	  x0:0x00000000
       41845000	      4183	80003220	020000ef	jal	x1,80003220	  x1=0x80003220
       41855000	      4184	00000000	00000013	addi	x0,x0,0	  x0:0x00000000
       41865000	      4185	8000323c	00000013	addi	x0,x0,0	  x0:0x00000000
       41875000	      4186	80003240	01a60db3	add	x27,x12,x26	 x12:0x80003170 x26:0x00000001 x27=0x80003171
       41885000	      4187	80003244	0100036f	jal	x6,80003244	  x6=0x80003244
       41895000	      4188	00000000	00000013	addi	x0,x0,0	  x0:0x00000000
       41905000	      4189	80003250	00000013	addi	x0,x0,0	  x0:0x00000000
       41915000	      4190	80003254	00c0036f	jal	x6,80003254	  x6=0x80003254
       41925000	      4191	00000000	00000013	addi	x0,x0,0	  x0:0x00000000
       41935000	      4192	8000325c	00000013	addi	x0,x0,0	  x0:0x00000000
       41945000	      4193	80003260	fe9fff6f	jal	x30,80003260	 x30=0x80003260
       41955000	      4194	00000000	00000013	addi	x0,x0,0	  x0:0x00000000
       41965000	      4195	80003244	00000013	addi	x0,x0,0	  x0:0x00000000
       41975000	      4196	80003248	024000ef	jal	x1,80003248	  x1=0x80003248
       41985000	      4197	00000000	00000013	addi	x0,x0,0	  x0:0x00000000
       41995000	      4198	80003268	00000013	addi	x0,x0,0	  x0:0x00000000
       42005000	      4199	8000326c	008000ef	jal	x1,8000326c	  x1=0x8000326c
       42015000	      4200	00000000	00000013	addi	x0,x0,0	  x0:0x00000000
       42025000	      4201	80003270	00000013	addi	x0,x0,0	  x0:0x00000000
       42035000	      4202	80003274	fe5ff16f	jal	x2,80003274	  x2=0x80003274
       42045000	      4203	00000000	00000013	addi	x0,x0,0	  x0:0x00000000
       42055000	      4204	80003254	00000013	addi	x0,x0,0	  x0:0x00000000
       42065000	      4205	80003258	0100076f	jal	x14,80003258	 x14=0x80003258
       42075000	      4206	00000000	00000013	addi	x0,x0,0	  x0:0x00000000
       42085000	      4207	80003264	00000013	addi	x0,x0,0	  x0:0x00000000
       42095000	      4208	80003268	fe5ffb6f	jal	x22,80003268	 x22=0x80003268
       42105000	      4209	00000000	00000013	addi	x0,x0,0	  x0:0x00000000
       42115000	      4210	80003248	00000013	addi	x0,x0,0	  x0:0x00000000
       42125000	      4211	8000324c	0300036f	jal	x6,8000324c	  x6=0x8000324c
       42135000	      4212	00000000	00000013	addi	x0,x0,0	  x0:0x00000000
       42145000	      4213	80003278	00000013	addi	x0,x0,0	  x0:0x00000000
       42155000	      4214	8000327c	fd5ff0ef	jal	x1,8000327c	  x1=0x8000327c
       42165000	      4215	00000000	00000013	addi	x0,x0,0	  x0:0x00000000
       42175000	      4216	8000324c	00000013	addi	x0,x0,0	  x0:0x00000000
       42185000	      4217	80003250	030000ef	jal	x1,80003250	  x1=0x80003250
       42195000	      4218	00000000	00000013	addi	x0,x0,0	  x0:0x00000000
       42205000	      4219	8000327c	00000013	addi	x0,x0,0	  x0:0x00000000
       42215000	      4220	80003280	ff1ff36f	jal	x6,80003280	  x6=0x80003280
       42225000	      4221	00000000	00000013	addi	x0,x0,0	  x0:0x00000000
       42235000	      4222	8000326c	00000013	addi	x0,x0,0	  x0:0x00000000
       42245000	      4223	80003270	fedff36f	jal	x6,80003270	  x6=0x80003270
       42255000	      4224	00000000	00000013	addi	x0,x0,0	  x0:0x00000000
       42265000	      4225	80003258	00000013	addi	x0,x0,0	  x0:0x00000000
       42275000	      4226	8000325c	028000ef	jal	x1,8000325c	  x1=0x8000325c
       42285000	      4227	00000000	00000013	addi	x0,x0,0	  x0:0x00000000
       42295000	      4228	80003280	00000013	addi	x0,x0,0	  x0:0x00000000
       42305000	      4229	80003284	004001ef	jal	x3,80003284	  x3=0x80003284
       42315000	      4230	00000000	00000013	addi	x0,x0,0	  x0:0x00000000
       42325000	      4231	80003284	00000013	addi	x0,x0,0	  x0:0x00000000
       42335000	      4232	80003288	ff1ff0ef	jal	x1,80003288	  x1=0x80003288
       42345000	      4233	00000000	00000013	addi	x0,x0,0	  x0:0x00000000
       42355000	      4234	80003274	00000013	addi	x0,x0,0	  x0:0x00000000
       42365000	      4235	80003278	014000ef	jal	x1,80003278	  x1=0x80003278
       42375000	      4236	00000000	00000013	addi	x0,x0,0	  x0:0x00000000
       42385000	      4237	80003288	00000013	addi	x0,x0,0	  x0:0x00000000
       42395000	      4238	8000328c	fd9ff66f	jal	x12,8000328c	 x12=0x8000328c
       42405000	      4239	00000000	00000013	addi	x0,x0,0	  x0:0x00000000
       42415000	      4240	80003260	00000013	addi	x0,x0,0	  x0:0x00000000
       42425000	      4241	80003264	02c0036f	jal	x6,80003264	  x6=0x80003264
       42435000	      4242	00000000	00000013	addi	x0,x0,0	  x0:0x00000000
       42445000	      4243	8000328c	00000013	addi	x0,x0,0	  x0:0x00000000
       42455000	      4244	80003290	01683533	sltu	x10,x16,x22	 x16:0x00000000 x22:0x80003268 x10=0x00000001
       42465000	      4245	80003294	0580036f	jal	x6,80003294	  x6=0x80003294
       42475000	      4246	00000000	00000013	addi	x0,x0,0	  x0:0x00000000
       42485000	      4247	800032e8	00000013	addi	x0,x0,0	  x0:0x00000000
       42495000	      4248	800032ec	ffdff0ef	jal	x1,800032ec	  x1=0x800032ec
       42505000	      4249	00000000	00000013	addi	x0,x0,0	  x0:0x00000000
       42515000	      4250	800032e4	00000013	addi	x0,x0,0	  x0:0x00000000
       42525000	      4251	800032e8	fb5ff0ef	jal	x1,800032e8	  x1=0x800032e8
       42535000	      4252	00000000	00000013	addi	x0,x0,0	  x0:0x00000000
       42545000	      4253	80003298	00000013	addi	x0,x0,0	  x0:0x00000000
       42555000	      4254	8000329c	06000f6f	jal	x30,8000329c	 x30=0x8000329c
       42565000	      4255	00000000	00000013	addi	x0,x0,0	  x0:0x00000000
       42575000	      4256	800032f8	00000013	addi	x0,x0,0	  x0:0x00000000
       42585000	      4257	800032fc	ff9ff0ef	jal	x1,800032fc	  x1=0x800032fc
       42595000	      4258	00000000	00000013	addi	x0,x0,0	  x0:0x00000000
       42605000	      4259	800032f0	00000013	addi	x0,x0,0	  x0:0x00000000
       42615000	      4260	800032f4	ffdff2ef	jal	x5,800032f4	  x5=0x800032f4
       42625000	      4261	00000000	00000013	addi	x0,x0,0	  x0:0x00000000
       42635000	      4262	800032ec	00000013	addi	x0,x0,0	  x0:0x00000000
       42645000	      4263	800032f0	fddff0ef	jal	x1,800032f0	  x1=0x800032f0
       42655000	      4264	00000000	00000013	addi	x0,x0,0	  x0:0x00000000
       42665000	      4265	800032c8	00000013	addi	x0,x0,0	  x0:0x00000000
       42675000	      4266	800032cc	ff5ffd6f	jal	x26,800032cc	 x26=0x800032cc
       42685000	      4267	00000000	00000013	addi	x0,x0,0	  x0:0x00000000
       42695000	      4268	800032bc	00000013	addi	x0,x0,0	  x0:0x00000000
       42705000	      4269	800032c0	024000ef	jal	x1,800032c0	  x1=0x800032c0
       42715000	      4270	00000000	00000013	addi	x0,x0,0	  x0:0x00000000
       42725000	      4271	800032e0	00000013	addi	x0,x0,0	  x0:0x00000000
       42735000	      4272	800032e4	01c000ef	jal	x1,800032e4	  x1=0x800032e4
       42745000	      4273	00000000	00000013	addi	x0,x0,0	  x0:0x00000000
       42755000	      4274	800032fc	00000013	addi	x0,x0,0	  x0:0x00000000
       42765000	      4275	80003300	fb5ff36f	jal	x6,80003300	  x6=0x80003300
       42775000	      4276	00000000	00000013	addi	x0,x0,0	  x0:0x00000000
       42785000	      4277	800032b0	00000013	addi	x0,x0,0	  x0:0x00000000
       42795000	      4278	800032b4	ffdff9ef	jal	x19,800032b4	 x19=0x800032b4
       42805000	      4279	00000000	00000013	addi	x0,x0,0	  x0:0x00000000
       42815000	      4280	800032ac	00000013	addi	x0,x0,0	  x0:0x00000000
       42825000	      4281	800032b0	ff1ff0ef	jal	x1,800032b0	  x1=0x800032b0
       42835000	      4282	00000000	00000013	addi	x0,x0,0	  x0:0x00000000
       42845000	      4283	8000329c	00000013	addi	x0,x0,0	  x0:0x00000000
       42855000	      4284	800032a0	03400f6f	jal	x30,800032a0	 x30=0x800032a0
       42865000	      4285	00000000	00000013	addi	x0,x0,0	  x0:0x00000000
       42875000	      4286	800032d0	00000013	addi	x0,x0,0	  x0:0x00000000
       42885000	      4287	800032d4	fd9ff0ef	jal	x1,800032d4	  x1=0x800032d4
       42895000	      4288	00000000	00000013	addi	x0,x0,0	  x0:0x00000000
       42905000	      4289	800032a8	00000013	addi	x0,x0,0	  x0:0x00000000
       42915000	      4290	800032ac	ffdff0ef	jal	x1,800032ac	  x1=0x800032ac
       42925000	      4291	00000000	00000013	addi	x0,x0,0	  x0:0x00000000
       42935000	      4292	800032a4	00000013	addi	x0,x0,0	  x0:0x00000000
       42945000	      4293	800032a8	028000ef	jal	x1,800032a8	  x1=0x800032a8
       42955000	      4294	00000000	00000013	addi	x0,x0,0	  x0:0x00000000
       42965000	      4295	800032cc	00000013	addi	x0,x0,0	  x0:0x00000000
       42975000	      4296	800032d0	03400f6f	jal	x30,800032d0	 x30=0x800032d0
       42985000	      4297	00000000	00000013	addi	x0,x0,0	  x0:0x00000000
       42995000	      4298	80003300	00000013	addi	x0,x0,0	  x0:0x00000000
       43005000	      4299	80003304	fd9ff36f	jal	x6,80003304	  x6=0x80003304
       43015000	      4300	00000000	00000013	addi	x0,x0,0	  x0:0x00000000
       43025000	      4301	800032d8	00000013	addi	x0,x0,0	  x0:0x00000000
       43035000	      4302	800032dc	fedff0ef	jal	x1,800032dc	  x1=0x800032dc
       43045000	      4303	00000000	00000013	addi	x0,x0,0	  x0:0x00000000
       43055000	      4304	800032c4	00000013	addi	x0,x0,0	  x0:0x00000000
       43065000	      4305	800032c8	030000ef	jal	x1,800032c8	  x1=0x800032c8
       43075000	      4306	00000000	00000013	addi	x0,x0,0	  x0:0x00000000
       43085000	      4307	800032f4	00000013	addi	x0,x0,0	  x0:0x00000000
       43095000	      4308	800032f8	fe9ff0ef	jal	x1,800032f8	  x1=0x800032f8
       43105000	      4309	00000000	00000013	addi	x0,x0,0	  x0:0x00000000
       43115000	      4310	800032dc	00000013	addi	x0,x0,0	  x0:0x00000000
       43125000	      4311	800032e0	fc5ff5ef	jal	x11,800032e0	 x11=0x800032e0
       43135000	      4312	00000000	00000013	addi	x0,x0,0	  x0:0x00000000
       43145000	      4313	800032a0	00000013	addi	x0,x0,0	  x0:0x00000000
       43155000	      4314	800032a4	0140056f	jal	x10,800032a4	 x10=0x800032a4
       43165000	      4315	00000000	00000013	addi	x0,x0,0	  x0:0x00000000
       43175000	      4316	800032b4	00000013	addi	x0,x0,0	  x0:0x00000000
       43185000	      4317	800032b8	fe1ff0ef	jal	x1,800032b8	  x1=0x800032b8
       43195000	      4318	00000000	00000013	addi	x0,x0,0	  x0:0x00000000
       43205000	      4319	80003294	00000013	addi	x0,x0,0	  x0:0x00000000
       43215000	      4320	80003298	040000ef	jal	x1,80003298	  x1=0x80003298
       43225000	      4321	00000000	00000013	addi	x0,x0,0	  x0:0x00000000
       43235000	      4322	800032d4	00000013	addi	x0,x0,0	  x0:0x00000000
       43245000	      4323	800032d8	fe5ffb6f	jal	x22,800032d8	 x22=0x800032d8
       43255000	      4324	00000000	00000013	addi	x0,x0,0	  x0:0x00000000
       43265000	      4325	800032b8	00000013	addi	x0,x0,0	  x0:0x00000000
       43275000	      4326	800032bc	008000ef	jal	x1,800032bc	  x1=0x800032bc
       43285000	      4327	00000000	00000013	addi	x0,x0,0	  x0:0x00000000
       43295000	      4328	800032c0	00000013	addi	x0,x0,0	  x0:0x00000000
       43305000	      4329	800032c4	0440036f	jal	x6,800032c4	  x6=0x800032c4
       43315000	      4330	00000000	00000013	addi	x0,x0,0	  x0:0x00000000
       43325000	      4331	80003304	00000013	addi	x0,x0,0	  x0:0x00000000
       43335000	      4332	80003308	0152bbb3	sltu	x23,x5,x21	  x5:0x800032f4 x21:0x00006300 x23=0x00000000
       43345000	      4333	8000330c	0040036f	jal	x6,8000330c	  x6=0x8000330c
       43355000	      4334	00000000	00000013	addi	x0,x0,0	  x0:0x00000000
       43365000	      4335	8000330c	00000013	addi	x0,x0,0	  x0:0x00000000
       43375000	      4336	80003310	0200036f	jal	x6,80003310	  x6=0x80003310
       43385000	      4337	00000000	00000013	addi	x0,x0,0	  x0:0x00000000
       43395000	      4338	8000332c	00000013	addi	x0,x0,0	  x0:0x00000000
       43405000	      4339	80003330	004000ef	jal	x1,80003330	  x1=0x80003330
       43415000	      4340	00000000	00000013	addi	x0,x0,0	  x0:0x00000000
       43425000	      4341	80003330	00000013	addi	x0,x0,0	  x0:0x00000000
       43435000	      4342	80003334	fe1ff0ef	jal	x1,80003334	  x1=0x80003334
       43445000	      4343	00000000	00000013	addi	x0,x0,0	  x0:0x00000000
       43455000	      4344	80003310	00000013	addi	x0,x0,0	  x0:0x00000000
       43465000	      4345	80003314	010000ef	jal	x1,80003314	  x1=0x80003314
       43475000	      4346	00000000	00000013	addi	x0,x0,0	  x0:0x00000000
       43485000	      4347	80003320	00000013	addi	x0,x0,0	  x0:0x00000000
       43495000	      4348	80003324	ffdff36f	jal	x6,80003324	  x6=0x80003324
       43505000	      4349	00000000	00000013	addi	x0,x0,0	  x0:0x00000000
       43515000	      4350	8000331c	00000013	addi	x0,x0,0	  x0:0x00000000
       43525000	      4351	80003320	ff9ff0ef	jal	x1,80003320	  x1=0x80003320
       43535000	      4352	00000000	00000013	addi	x0,x0,0	  x0:0x00000000
       43545000	      4353	80003314	00000013	addi	x0,x0,0	  x0:0x00000000
       43555000	      4354	80003318	004000ef	jal	x1,80003318	  x1=0x80003318
       43565000	      4355	00000000	00000013	addi	x0,x0,0	  x0:0x00000000
       43575000	      4356	80003318	00000013	addi	x0,x0,0	  x0:0x00000000
       43585000	      4357	8000331c	0100036f	jal	x6,8000331c	  x6=0x8000331c
       43595000	      4358	00000000	00000013	addi	x0,x0,0	  x0:0x00000000
       43605000	      4359	80003328	00000013	addi	x0,x0,0	  x0:0x00000000
       43615000	      4360	8000332c	ffdfff6f	jal	x30,8000332c	 x30=0x8000332c
       43625000	      4361	00000000	00000013	addi	x0,x0,0	  x0:0x00000000
       43635000	      4362	80003324	00000013	addi	x0,x0,0	  x0:0x00000000
       43645000	      4363	80003328	0100036f	jal	x6,80003328	  x6=0x80003328
       43655000	      4364	00000000	00000013	addi	x0,x0,0	  x0:0x00000000
       43665000	      4365	80003334	00000013	addi	x0,x0,0	  x0:0x00000000
       43675000	      4366	80003338	c78deb93	ori	x23,x27,-904	 x27:0x80003171 x23=0xfffffd79
       43685000	      4367	8000333c	03c0036f	jal	x6,8000333c	  x6=0x8000333c
       43695000	      4368	00000000	00000013	addi	x0,x0,0	  x0:0x00000000
       43705000	      4369	80003374	00000013	addi	x0,x0,0	  x0:0x00000000
       43715000	      4370	80003378	0240036f	jal	x6,80003378	  x6=0x80003378
       43725000	      4371	00000000	00000013	addi	x0,x0,0	  x0:0x00000000
       43735000	      4372	80003398	00000013	addi	x0,x0,0	  x0:0x00000000
       43745000	      4373	8000339c	fc1ff0ef	jal	x1,8000339c	  x1=0x8000339c
       43755000	      4374	00000000	00000013	addi	x0,x0,0	  x0:0x00000000
       43765000	      4375	80003358	00000013	addi	x0,x0,0	  x0:0x00000000
       43775000	      4376	8000335c	ff5ff36f	jal	x6,8000335c	  x6=0x8000335c
       43785000	      4377	00000000	00000013	addi	x0,x0,0	  x0:0x00000000
       43795000	      4378	8000334c	00000013	addi	x0,x0,0	  x0:0x00000000
       43805000	      4379	80003350	ff1ff0ef	jal	x1,80003350	  x1=0x80003350
       43815000	      4380	00000000	00000013	addi	x0,x0,0	  x0:0x00000000
       43825000	      4381	8000333c	00000013	addi	x0,x0,0	  x0:0x00000000
       43835000	      4382	80003340	030000ef	jal	x1,80003340	  x1=0x80003340
       43845000	      4383	00000000	00000013	addi	x0,x0,0	  x0:0x00000000
       43855000	      4384	8000336c	00000013	addi	x0,x0,0	  x0:0x00000000
       43865000	      4385	80003370	ff5ff0ef	jal	x1,80003370	  x1=0x80003370
       43875000	      4386	00000000	00000013	addi	x0,x0,0	  x0:0x00000000
       43885000	      4387	80003360	00000013	addi	x0,x0,0	  x0:0x00000000
       43895000	      4388	80003364	ff1ff0ef	jal	x1,80003364	  x1=0x80003364
       43905000	      4389	00000000	00000013	addi	x0,x0,0	  x0:0x00000000
       43915000	      4390	80003350	00000013	addi	x0,x0,0	  x0:0x00000000
       43925000	      4391	80003354	03c00def	jal	x27,80003354	 x27=0x80003354
       43935000	      4392	00000000	00000013	addi	x0,x0,0	  x0:0x00000000
       43945000	      4393	8000338c	00000013	addi	x0,x0,0	  x0:0x00000000
       43955000	      4394	80003390	fedff0ef	jal	x1,80003390	  x1=0x80003390
       43965000	      4395	00000000	00000013	addi	x0,x0,0	  x0:0x00000000
       43975000	      4396	80003378	00000013	addi	x0,x0,0	  x0:0x00000000
       43985000	      4397	8000337c	fd1ff0ef	jal	x1,8000337c	  x1=0x8000337c
       43995000	      4398	00000000	00000013	addi	x0,x0,0	  x0:0x00000000
       44005000	      4399	80003348	00000013	addi	x0,x0,0	  x0:0x00000000
       44015000	      4400	8000334c	040000ef	jal	x1,8000334c	  x1=0x8000334c
       44025000	      4401	00000000	00000013	addi	x0,x0,0	  x0:0x00000000
       44035000	      4402	80003388	00000013	addi	x0,x0,0	  x0:0x00000000
       44045000	      4403	8000338c	fb9ff36f	jal	x6,8000338c	  x6=0x8000338c
       44055000	      4404	00000000	00000013	addi	x0,x0,0	  x0:0x00000000
       44065000	      4405	80003340	00000013	addi	x0,x0,0	  x0:0x00000000
       44075000	      4406	80003344	028000ef	jal	x1,80003344	  x1=0x80003344
       44085000	      4407	00000000	00000013	addi	x0,x0,0	  x0:0x00000000
       44095000	      4408	80003368	00000013	addi	x0,x0,0	  x0:0x00000000
       44105000	      4409	8000336c	0180036f	jal	x6,8000336c	  x6=0x8000336c
       44115000	      4410	00000000	00000013	addi	x0,x0,0	  x0:0x00000000
       44125000	      4411	80003380	00000013	addi	x0,x0,0	  x0:0x00000000
       44135000	      4412	80003384	0140036f	jal	x6,80003384	  x6=0x80003384
       44145000	      4413	00000000	00000013	addi	x0,x0,0	  x0:0x00000000
       44155000	      4414	80003394	00000013	addi	x0,x0,0	  x0:0x00000000
       44165000	      4415	80003398	ff1ff0ef	jal	x1,80003398	  x1=0x80003398
       44175000	      4416	00000000	00000013	addi	x0,x0,0	  x0:0x00000000
       44185000	      4417	80003384	00000013	addi	x0,x0,0	  x0:0x00000000
       44195000	      4418	80003388	fedff36f	jal	x6,80003388	  x6=0x80003388
       44205000	      4419	00000000	00000013	addi	x0,x0,0	  x0:0x00000000
       44215000	      4420	80003370	00000013	addi	x0,x0,0	  x0:0x00000000
       44225000	      4421	80003374	00c001ef	jal	x3,80003374	  x3=0x80003374
       44235000	      4422	00000000	00000013	addi	x0,x0,0	  x0:0x00000000
       44245000	      4423	8000337c	00000013	addi	x0,x0,0	  x0:0x00000000
       44255000	      4424	80003380	01400cef	jal	x25,80003380	 x25=0x80003380
       44265000	      4425	00000000	00000013	addi	x0,x0,0	  x0:0x00000000
       44275000	      4426	80003390	00000013	addi	x0,x0,0	  x0:0x00000000
       44285000	      4427	80003394	fd5ff36f	jal	x6,80003394	  x6=0x80003394
       44295000	      4428	00000000	00000013	addi	x0,x0,0	  x0:0x00000000
       44305000	      4429	80003364	00000013	addi	x0,x0,0	  x0:0x00000000
       44315000	      4430	80003368	fe1ff86f	jal	x16,80003368	 x16=0x80003368
       44325000	      4431	00000000	00000013	addi	x0,x0,0	  x0:0x00000000
       44335000	      4432	80003344	00000013	addi	x0,x0,0	  x0:0x00000000
       44345000	      4433	80003348	010000ef	jal	x1,80003348	  x1=0x80003348
       44355000	      4434	00000000	00000013	addi	x0,x0,0	  x0:0x00000000
       44365000	      4435	80003354	00000013	addi	x0,x0,0	  x0:0x00000000
       44375000	      4436	80003358	008000ef	jal	x1,80003358	  x1=0x80003358
       44385000	      4437	00000000	00000013	addi	x0,x0,0	  x0:0x00000000
       44395000	      4438	8000335c	00000013	addi	x0,x0,0	  x0:0x00000000
       44405000	      4439	80003360	0400026f	jal	x4,80003360	  x4=0x80003360
       44415000	      4440	00000000	00000013	addi	x0,x0,0	  x0:0x00000000
       44425000	      4441	8000339c	00000013	addi	x0,x0,0	  x0:0x00000000
       44435000	      4442	800033a0	408cd593	srai	x11,x25,0x8	 x25:0x80003380 x11=0xff800033
       44445000	      4443	800033a4	0300036f	jal	x6,800033a4	  x6=0x800033a4
       44455000	      4444	00000000	00000013	addi	x0,x0,0	  x0:0x00000000
       44465000	      4445	800033d0	00000013	addi	x0,x0,0	  x0:0x00000000
       44475000	      4446	800033d4	008000ef	jal	x1,800033d4	  x1=0x800033d4
       44485000	      4447	00000000	00000013	addi	x0,x0,0	  x0:0x00000000
       44495000	      4448	800033d8	00000013	addi	x0,x0,0	  x0:0x00000000
       44505000	      4449	800033dc	038000ef	jal	x1,800033dc	  x1=0x800033dc
       44515000	      4450	00000000	00000013	addi	x0,x0,0	  x0:0x00000000
       44525000	      4451	80003410	00000013	addi	x0,x0,0	  x0:0x00000000
       44535000	      4452	80003414	f9dff0ef	jal	x1,80003414	  x1=0x80003414
       44545000	      4453	00000000	00000013	addi	x0,x0,0	  x0:0x00000000
       44555000	      4454	800033ac	00000013	addi	x0,x0,0	  x0:0x00000000
       44565000	      4455	800033b0	020000ef	jal	x1,800033b0	  x1=0x800033b0
       44575000	      4456	00000000	00000013	addi	x0,x0,0	  x0:0x00000000
       44585000	      4457	800033cc	00000013	addi	x0,x0,0	  x0:0x00000000
       44595000	      4458	800033d0	0300016f	jal	x2,800033d0	  x2=0x800033d0
       44605000	      4459	00000000	00000013	addi	x0,x0,0	  x0:0x00000000
       44615000	      4460	800033fc	00000013	addi	x0,x0,0	  x0:0x00000000
       44625000	      4461	80003400	fe9ff9ef	jal	x19,80003400	 x19=0x80003400
       44635000	      4462	00000000	00000013	addi	x0,x0,0	  x0:0x00000000
       44645000	      4463	800033e4	00000013	addi	x0,x0,0	  x0:0x00000000
       44655000	      4464	800033e8	fd1ff6ef	jal	x13,800033e8	 x13=0x800033e8
       44665000	      4465	00000000	00000013	addi	x0,x0,0	  x0:0x00000000
       44675000	      4466	800033b4	00000013	addi	x0,x0,0	  x0:0x00000000
       44685000	      4467	800033b8	0200036f	jal	x6,800033b8	  x6=0x800033b8
       44695000	      4468	00000000	00000013	addi	x0,x0,0	  x0:0x00000000
       44705000	      4469	800033d4	00000013	addi	x0,x0,0	  x0:0x00000000
       44715000	      4470	800033d8	03000b6f	jal	x22,800033d8	 x22=0x800033d8
       44725000	      4471	00000000	00000013	addi	x0,x0,0	  x0:0x00000000
       44735000	      4472	80003404	00000013	addi	x0,x0,0	  x0:0x00000000
       44745000	      4473	80003408	0080036f	jal	x6,80003408	  x6=0x80003408
       44755000	      4474	00000000	00000013	addi	x0,x0,0	  x0:0x00000000
       44765000	      4475	8000340c	00000013	addi	x0,x0,0	  x0:0x00000000
       44775000	      4476	80003410	fedff0ef	jal	x1,80003410	  x1=0x80003410
       44785000	      4477	00000000	00000013	addi	x0,x0,0	  x0:0x00000000
       44795000	      4478	800033f8	00000013	addi	x0,x0,0	  x0:0x00000000
       44805000	      4479	800033fc	010000ef	jal	x1,800033fc	  x1=0x800033fc
       44815000	      4480	00000000	00000013	addi	x0,x0,0	  x0:0x00000000
       44825000	      4481	80003408	00000013	addi	x0,x0,0	  x0:0x00000000
       44835000	      4482	8000340c	fe1ff0ef	jal	x1,8000340c	  x1=0x8000340c
       44845000	      4483	00000000	00000013	addi	x0,x0,0	  x0:0x00000000
       44855000	      4484	800033e8	00000013	addi	x0,x0,0	  x0:0x00000000
       44865000	      4485	800033ec	fd5ff3ef	jal	x7,800033ec	  x7=0x800033ec
       44875000	      4486	00000000	00000013	addi	x0,x0,0	  x0:0x00000000
       44885000	      4487	800033bc	00000013	addi	x0,x0,0	  x0:0x00000000
       44895000	      4488	800033c0	00c000ef	jal	x1,800033c0	  x1=0x800033c0
       44905000	      4489	00000000	00000013	addi	x0,x0,0	  x0:0x00000000
       44915000	      4490	800033c8	00000013	addi	x0,x0,0	  x0:0x00000000
       44925000	      4491	800033cc	01400e6f	jal	x28,800033cc	 x28=0x800033cc
       44935000	      4492	00000000	00000013	addi	x0,x0,0	  x0:0x00000000
       44945000	      4493	800033dc	00000013	addi	x0,x0,0	  x0:0x00000000
       44955000	      4494	800033e0	fe5ff16f	jal	x2,800033e0	  x2=0x800033e0
       44965000	      4495	00000000	00000013	addi	x0,x0,0	  x0:0x00000000
       44975000	      4496	800033c0	00000013	addi	x0,x0,0	  x0:0x00000000
       44985000	      4497	800033c4	040000ef	jal	x1,800033c4	  x1=0x800033c4
       44995000	      4498	00000000	00000013	addi	x0,x0,0	  x0:0x00000000
       45005000	      4499	80003400	00000013	addi	x0,x0,0	  x0:0x00000000
       45015000	      4500	80003404	ff5ff2ef	jal	x5,80003404	  x5=0x80003404
       45025000	      4501	00000000	00000013	addi	x0,x0,0	  x0:0x00000000
       45035000	      4502	800033f4	00000013	addi	x0,x0,0	  x0:0x00000000
       45045000	      4503	800033f8	ff9ff0ef	jal	x1,800033f8	  x1=0x800033f8
       45055000	      4504	00000000	00000013	addi	x0,x0,0	  x0:0x00000000
       45065000	      4505	800033ec	00000013	addi	x0,x0,0	  x0:0x00000000
       45075000	      4506	800033f0	fbdff36f	jal	x6,800033f0	  x6=0x800033f0
       45085000	      4507	00000000	00000013	addi	x0,x0,0	  x0:0x00000000
       45095000	      4508	800033a8	00000013	addi	x0,x0,0	  x0:0x00000000
       45105000	      4509	800033ac	008000ef	jal	x1,800033ac	  x1=0x800033ac
       45115000	      4510	00000000	00000013	addi	x0,x0,0	  x0:0x00000000
       45125000	      4511	800033b0	00000013	addi	x0,x0,0	  x0:0x00000000
       45135000	      4512	800033b4	008000ef	jal	x1,800033b4	  x1=0x800033b4
       45145000	      4513	00000000	00000013	addi	x0,x0,0	  x0:0x00000000
       45155000	      4514	800033b8	00000013	addi	x0,x0,0	  x0:0x00000000
       45165000	      4515	800033bc	028000ef	jal	x1,800033bc	  x1=0x800033bc
       45175000	      4516	00000000	00000013	addi	x0,x0,0	  x0:0x00000000
       45185000	      4517	800033e0	00000013	addi	x0,x0,0	  x0:0x00000000
       45195000	      4518	800033e4	038000ef	jal	x1,800033e4	  x1=0x800033e4
       45205000	      4519	00000000	00000013	addi	x0,x0,0	  x0:0x00000000
       45215000	      4520	80003418	00000013	addi	x0,x0,0	  x0:0x00000000
       45225000	      4521	8000341c	fd9ffb6f	jal	x22,8000341c	 x22=0x8000341c
       45235000	      4522	00000000	00000013	addi	x0,x0,0	  x0:0x00000000
       45245000	      4523	800033f0	00000013	addi	x0,x0,0	  x0:0x00000000
       45255000	      4524	800033f4	fd5ff0ef	jal	x1,800033f4	  x1=0x800033f4
       45265000	      4525	00000000	00000013	addi	x0,x0,0	  x0:0x00000000
       45275000	      4526	800033c4	00000013	addi	x0,x0,0	  x0:0x00000000
       45285000	      4527	800033c8	050000ef	jal	x1,800033c8	  x1=0x800033c8
       45295000	      4528	00000000	00000013	addi	x0,x0,0	  x0:0x00000000
       45305000	      4529	80003414	00000013	addi	x0,x0,0	  x0:0x00000000
       45315000	      4530	80003418	f91ff0ef	jal	x1,80003418	  x1=0x80003418
       45325000	      4531	00000000	00000013	addi	x0,x0,0	  x0:0x00000000
       45335000	      4532	800033a4	00000013	addi	x0,x0,0	  x0:0x00000000
       45345000	      4533	800033a8	078000ef	jal	x1,800033a8	  x1=0x800033a8
       45355000	      4534	00000000	00000013	addi	x0,x0,0	  x0:0x00000000
       45365000	      4535	8000341c	00000013	addi	x0,x0,0	  x0:0x00000000
       45375000	      4536	80003420	0178de13	srli	x28,x17,0x17	 x17:0x800030c8 x28=0x00000100
       45385000	      4537	80003424	0100036f	jal	x6,80003424	  x6=0x80003424
       45395000	      4538	00000000	00000013	addi	x0,x0,0	  x0:0x00000000
       45405000	      4539	80003430	00000013	addi	x0,x0,0	  x0:0x00000000
       45415000	      4540	80003434	04c0016f	jal	x2,80003434	  x2=0x80003434
       45425000	      4541	00000000	00000013	addi	x0,x0,0	  x0:0x00000000
       45435000	      4542	8000347c	00000013	addi	x0,x0,0	  x0:0x00000000
       45445000	      4543	80003480	ffdfffef	jal	x31,80003480	 x31=0x80003480
       45455000	      4544	00000000	00000013	addi	x0,x0,0	  x0:0x00000000
       45465000	      4545	80003478	00000013	addi	x0,x0,0	  x0:0x00000000
       45475000	      4546	8000347c	fd9ff0ef	jal	x1,8000347c	  x1=0x8000347c
       45485000	      4547	00000000	00000013	addi	x0,x0,0	  x0:0x00000000
       45495000	      4548	80003450	00000013	addi	x0,x0,0	  x0:0x00000000
       45505000	      4549	80003454	0140036f	jal	x6,80003454	  x6=0x80003454
       45515000	      4550	00000000	00000013	addi	x0,x0,0	  x0:0x00000000
       45525000	      4551	80003464	00000013	addi	x0,x0,0	  x0:0x00000000
       45535000	      4552	80003468	fd9ff0ef	jal	x1,80003468	  x1=0x80003468
       45545000	      4553	00000000	00000013	addi	x0,x0,0	  x0:0x00000000
       45555000	      4554	8000343c	00000013	addi	x0,x0,0	  x0:0x00000000
       45565000	      4555	80003440	0040036f	jal	x6,80003440	  x6=0x80003440
       45575000	      4556	00000000	00000013	addi	x0,x0,0	  x0:0x00000000
       45585000	      4557	80003440	00000013	addi	x0,x0,0	  x0:0x00000000
       45595000	      4558	80003444	028000ef	jal	x1,80003444	  x1=0x80003444
       45605000	      4559	00000000	00000013	addi	x0,x0,0	  x0:0x00000000
       45615000	      4560	80003468	00000013	addi	x0,x0,0	  x0:0x00000000
       45625000	      4561	8000346c	008000ef	jal	x1,8000346c	  x1=0x8000346c
       45635000	      4562	00000000	00000013	addi	x0,x0,0	  x0:0x00000000
       45645000	      4563	80003470	00000013	addi	x0,x0,0	  x0:0x00000000
       45655000	      4564	80003474	fd5ff16f	jal	x2,80003474	  x2=0x80003474
       45665000	      4565	00000000	00000013	addi	x0,x0,0	  x0:0x00000000
       45675000	      4566	80003444	00000013	addi	x0,x0,0	  x0:0x00000000
       45685000	      4567	80003448	fe5ff0ef	jal	x1,80003448	  x1=0x80003448
       45695000	      4568	00000000	00000013	addi	x0,x0,0	  x0:0x00000000
       45705000	      4569	80003428	00000013	addi	x0,x0,0	  x0:0x00000000
       45715000	      4570	8000342c	024000ef	jal	x1,8000342c	  x1=0x8000342c
       45725000	      4571	00000000	00000013	addi	x0,x0,0	  x0:0x00000000
       45735000	      4572	8000344c	00000013	addi	x0,x0,0	  x0:0x00000000
       45745000	      4573	80003450	fedff0ef	jal	x1,80003450	  x1=0x80003450
       45755000	      4574	00000000	00000013	addi	x0,x0,0	  x0:0x00000000
       45765000	      4575	80003438	00000013	addi	x0,x0,0	  x0:0x00000000
       45775000	      4576	8000343c	ffdff0ef	jal	x1,8000343c	  x1=0x8000343c
       45785000	      4577	00000000	00000013	addi	x0,x0,0	  x0:0x00000000
       45795000	      4578	80003434	00000013	addi	x0,x0,0	  x0:0x00000000
       45805000	      4579	80003438	02400def	jal	x27,80003438	 x27=0x80003438
       45815000	      4580	00000000	00000013	addi	x0,x0,0	  x0:0x00000000
       45825000	      4581	80003458	00000013	addi	x0,x0,0	  x0:0x00000000
       45835000	      4582	8000345c	008000ef	jal	x1,8000345c	  x1=0x8000345c
       45845000	      4583	00000000	00000013	addi	x0,x0,0	  x0:0x00000000
       45855000	      4584	80003460	00000013	addi	x0,x0,0	  x0:0x00000000
       45865000	      4585	80003464	fcdff0ef	jal	x1,80003464	  x1=0x80003464
       45875000	      4586	00000000	00000013	addi	x0,x0,0	  x0:0x00000000
       45885000	      4587	8000342c	00000013	addi	x0,x0,0	  x0:0x00000000
       45895000	      4588	80003430	048000ef	jal	x1,80003430	  x1=0x80003430
       45905000	      4589	00000000	00000013	addi	x0,x0,0	  x0:0x00000000
       45915000	      4590	80003474	00000013	addi	x0,x0,0	  x0:0x00000000
       45925000	      4591	80003478	fb1ff76f	jal	x14,80003478	 x14=0x80003478
       45935000	      4592	00000000	00000013	addi	x0,x0,0	  x0:0x00000000
       45945000	      4593	80003424	00000013	addi	x0,x0,0	  x0:0x00000000
       45955000	      4594	80003428	0300036f	jal	x6,80003428	  x6=0x80003428
       45965000	      4595	00000000	00000013	addi	x0,x0,0	  x0:0x00000000
       45975000	      4596	80003454	00000013	addi	x0,x0,0	  x0:0x00000000
       45985000	      4597	80003458	ff5ff76f	jal	x14,80003458	 x14=0x80003458
       45995000	      4598	00000000	00000013	addi	x0,x0,0	  x0:0x00000000
       46005000	      4599	80003448	00000013	addi	x0,x0,0	  x0:0x00000000
       46015000	      4600	8000344c	024009ef	jal	x19,8000344c	 x19=0x8000344c
       46025000	      4601	00000000	00000013	addi	x0,x0,0	  x0:0x00000000
       46035000	      4602	8000346c	00000013	addi	x0,x0,0	  x0:0x00000000
       46045000	      4603	80003470	ff1ffcef	jal	x25,80003470	 x25=0x80003470
       46055000	      4604	00000000	00000013	addi	x0,x0,0	  x0:0x00000000
       46065000	      4605	8000345c	00000013	addi	x0,x0,0	  x0:0x00000000
       46075000	      4606	80003460	0240036f	jal	x6,80003460	  x6=0x80003460
       46085000	      4607	00000000	00000013	addi	x0,x0,0	  x0:0x00000000
       46095000	      4608	80003480	00000013	addi	x0,x0,0	  x0:0x00000000
       46105000	      4609	80003484	006d80b3	add	x1,x27,x6	 x27:0x80003438  x6:0x80003460  x1=0x00006898
       46115000	      4610	80003488	0040036f	jal	x6,80003488	  x6=0x80003488
       46125000	      4611	00000000	00000013	addi	x0,x0,0	  x0:0x00000000
       46135000	      4612	80003488	00000013	addi	x0,x0,0	  x0:0x00000000
       46145000	      4613	8000348c	034000ef	jal	x1,8000348c	  x1=0x8000348c
       46155000	      4614	00000000	00000013	addi	x0,x0,0	  x0:0x00000000
       46165000	      4615	800034bc	00000013	addi	x0,x0,0	  x0:0x00000000
       46175000	      4616	800034c0	ff1ff0ef	jal	x1,800034c0	  x1=0x800034c0
       46185000	      4617	00000000	00000013	addi	x0,x0,0	  x0:0x00000000
       46195000	      4618	800034ac	00000013	addi	x0,x0,0	  x0:0x00000000
       46205000	      4619	800034b0	024000ef	jal	x1,800034b0	  x1=0x800034b0
       46215000	      4620	00000000	00000013	addi	x0,x0,0	  x0:0x00000000
       46225000	      4621	800034d0	00000013	addi	x0,x0,0	  x0:0x00000000
       46235000	      4622	800034d4	00c000ef	jal	x1,800034d4	  x1=0x800034d4
       46245000	      4623	00000000	00000013	addi	x0,x0,0	  x0:0x00000000
       46255000	      4624	800034dc	00000013	addi	x0,x0,0	  x0:0x00000000
       46265000	      4625	800034e0	01800d6f	jal	x26,800034e0	 x26=0x800034e0
       46275000	      4626	00000000	00000013	addi	x0,x0,0	  x0:0x00000000
       46285000	      4627	800034f4	00000013	addi	x0,x0,0	  x0:0x00000000
       46295000	      4628	800034f8	fd9ff0ef	jal	x1,800034f8	  x1=0x800034f8
       46305000	      4629	00000000	00000013	addi	x0,x0,0	  x0:0x00000000
       46315000	      4630	800034cc	00000013	addi	x0,x0,0	  x0:0x00000000
       46325000	      4631	800034d0	fcdff0ef	jal	x1,800034d0	  x1=0x800034d0
       46335000	      4632	00000000	00000013	addi	x0,x0,0	  x0:0x00000000
       46345000	      4633	80003498	00000013	addi	x0,x0,0	  x0:0x00000000
       46355000	      4634	8000349c	ffdff0ef	jal	x1,8000349c	  x1=0x8000349c
       46365000	      4635	00000000	00000013	addi	x0,x0,0	  x0:0x00000000
       46375000	      4636	80003494	00000013	addi	x0,x0,0	  x0:0x00000000
       46385000	      4637	80003498	0340036f	jal	x6,80003498	  x6=0x80003498
       46395000	      4638	00000000	00000013	addi	x0,x0,0	  x0:0x00000000
       46405000	      4639	800034c8	00000013	addi	x0,x0,0	  x0:0x00000000
       46415000	      4640	800034cc	0280086f	jal	x16,800034cc	 x16=0x800034cc
       46425000	      4641	00000000	00000013	addi	x0,x0,0	  x0:0x00000000
       46435000	      4642	800034f0	00000013	addi	x0,x0,0	  x0:0x00000000
       46445000	      4643	800034f4	fadff0ef	jal	x1,800034f4	  x1=0x800034f4
       46455000	      4644	00000000	00000013	addi	x0,x0,0	  x0:0x00000000
       46465000	      4645	8000349c	00000013	addi	x0,x0,0	  x0:0x00000000
       46475000	      4646	800034a0	044000ef	jal	x1,800034a0	  x1=0x800034a0
       46485000	      4647	00000000	00000013	addi	x0,x0,0	  x0:0x00000000
       46495000	      4648	800034e0	00000013	addi	x0,x0,0	  x0:0x00000000
       46505000	      4649	800034e4	004000ef	jal	x1,800034e4	  x1=0x800034e4
       46515000	      4650	00000000	00000013	addi	x0,x0,0	  x0:0x00000000
       46525000	      4651	800034e4	00000013	addi	x0,x0,0	  x0:0x00000000
       46535000	      4652	800034e8	fc1ff1ef	jal	x3,800034e8	  x3=0x800034e8
       46545000	      4653	00000000	00000013	addi	x0,x0,0	  x0:0x00000000
       46555000	      4654	800034a4	00000013	addi	x0,x0,0	  x0:0x00000000
       46565000	      4655	800034a8	ffdff36f	jal	x6,800034a8	  x6=0x800034a8
       46575000	      4656	00000000	00000013	addi	x0,x0,0	  x0:0x00000000
       46585000	      4657	800034a0	00000013	addi	x0,x0,0	  x0:0x00000000
       46595000	      4658	800034a4	010000ef	jal	x1,800034a4	  x1=0x800034a4
       46605000	      4659	00000000	00000013	addi	x0,x0,0	  x0:0x00000000
       46615000	      4660	800034b0	00000013	addi	x0,x0,0	  x0:0x00000000
       46625000	      4661	800034b4	010000ef	jal	x1,800034b4	  x1=0x800034b4
       46635000	      4662	00000000	00000013	addi	x0,x0,0	  x0:0x00000000
       46645000	      4663	800034c0	00000013	addi	x0,x0,0	  x0:0x00000000
       46655000	      4664	800034c4	ff5ff0ef	jal	x1,800034c4	  x1=0x800034c4
       46665000	      4665	00000000	00000013	addi	x0,x0,0	  x0:0x00000000
       46675000	      4666	800034b4	00000013	addi	x0,x0,0	  x0:0x00000000
       46685000	      4667	800034b8	fddff56f	jal	x10,800034b8	 x10=0x800034b8
       46695000	      4668	00000000	00000013	addi	x0,x0,0	  x0:0x00000000
       46705000	      4669	80003490	00000013	addi	x0,x0,0	  x0:0x00000000
       46715000	      4670	80003494	02800bef	jal	x23,80003494	 x23=0x80003494
       46725000	      4671	00000000	00000013	addi	x0,x0,0	  x0:0x00000000
       46735000	      4672	800034b8	00000013	addi	x0,x0,0	  x0:0x00000000
       46745000	      4673	800034bc	fd5ff0ef	jal	x1,800034bc	  x1=0x800034bc
       46755000	      4674	00000000	00000013	addi	x0,x0,0	  x0:0x00000000
       46765000	      4675	8000348c	00000013	addi	x0,x0,0	  x0:0x00000000
       46775000	      4676	80003490	060000ef	jal	x1,80003490	  x1=0x80003490
       46785000	      4677	00000000	00000013	addi	x0,x0,0	  x0:0x00000000
       46795000	      4678	800034ec	00000013	addi	x0,x0,0	  x0:0x00000000
       46805000	      4679	800034f0	fe9ff0ef	jal	x1,800034f0	  x1=0x800034f0
       46815000	      4680	00000000	00000013	addi	x0,x0,0	  x0:0x00000000
       46825000	      4681	800034d4	00000013	addi	x0,x0,0	  x0:0x00000000
       46835000	      4682	800034d8	004000ef	jal	x1,800034d8	  x1=0x800034d8
       46845000	      4683	00000000	00000013	addi	x0,x0,0	  x0:0x00000000
       46855000	      4684	800034d8	00000013	addi	x0,x0,0	  x0:0x00000000
       46865000	      4685	800034dc	010000ef	jal	x1,800034dc	  x1=0x800034dc
       46875000	      4686	00000000	00000013	addi	x0,x0,0	  x0:0x00000000
       46885000	      4687	800034e8	00000013	addi	x0,x0,0	  x0:0x00000000
       46895000	      4688	800034ec	fc1fffef	jal	x31,800034ec	 x31=0x800034ec
       46905000	      4689	00000000	00000013	addi	x0,x0,0	  x0:0x00000000
       46915000	      4690	800034a8	00000013	addi	x0,x0,0	  x0:0x00000000
       46925000	      4691	800034ac	01c000ef	jal	x1,800034ac	  x1=0x800034ac
       46935000	      4692	00000000	00000013	addi	x0,x0,0	  x0:0x00000000
       46945000	      4693	800034c4	00000013	addi	x0,x0,0	  x0:0x00000000
       46955000	      4694	800034c8	03400bef	jal	x23,800034c8	 x23=0x800034c8
       46965000	      4695	00000000	00000013	addi	x0,x0,0	  x0:0x00000000
       46975000	      4696	800034f8	00000013	addi	x0,x0,0	  x0:0x00000000
       46985000	      4697	800034fc	0f4bf817	auipc	x16,0xf4bf	 x16=0x8f4c24f8
       46995000	      4698	80003500	0200036f	jal	x6,80003500	  x6=0x80003500
       47005000	      4699	00000000	00000013	addi	x0,x0,0	  x0:0x00000000
       47015000	      4700	8000351c	00000013	addi	x0,x0,0	  x0:0x00000000
       47025000	      4701	80003520	014000ef	jal	x1,80003520	  x1=0x80003520
       47035000	      4702	00000000	00000013	addi	x0,x0,0	  x0:0x00000000
       47045000	      4703	80003530	00000013	addi	x0,x0,0	  x0:0x00000000
       47055000	      4704	80003534	0100016f	jal	x2,80003534	  x2=0x80003534
       47065000	      4705	00000000	00000013	addi	x0,x0,0	  x0:0x00000000
       47075000	      4706	80003540	00000013	addi	x0,x0,0	  x0:0x00000000
       47085000	      4707	80003544	fe5ff0ef	jal	x1,80003544	  x1=0x80003544
       47095000	      4708	00000000	00000013	addi	x0,x0,0	  x0:0x00000000
       47105000	      4709	80003524	00000013	addi	x0,x0,0	  x0:0x00000000
       47115000	      4710	80003528	ffdff0ef	jal	x1,80003528	  x1=0x80003528
       47125000	      4711	00000000	00000013	addi	x0,x0,0	  x0:0x00000000
       47135000	      4712	80003520	00000013	addi	x0,x0,0	  x0:0x00000000
       47145000	      4713	80003524	fe1ff1ef	jal	x3,80003524	  x3=0x80003524
       47155000	      4714	00000000	00000013	addi	x0,x0,0	  x0:0x00000000
       47165000	      4715	80003500	00000013	addi	x0,x0,0	  x0:0x00000000
       47175000	      4716	80003504	010000ef	jal	x1,80003504	  x1=0x80003504
       47185000	      4717	00000000	00000013	addi	x0,x0,0	  x0:0x00000000
       47195000	      4718	80003510	00000013	addi	x0,x0,0	  x0:0x00000000
       47205000	      4719	80003514	ff9ff0ef	jal	x1,80003514	  x1=0x80003514
       47215000	      4720	00000000	00000013	addi	x0,x0,0	  x0:0x00000000
       47225000	      4721	80003508	00000013	addi	x0,x0,0	  x0:0x00000000
       47235000	      4722	8000350c	00c0026f	jal	x4,8000350c	  x4=0x8000350c
       47245000	      4723	00000000	00000013	addi	x0,x0,0	  x0:0x00000000
       47255000	      4724	80003514	00000013	addi	x0,x0,0	  x0:0x00000000
       47265000	      4725	80003518	018000ef	jal	x1,80003518	  x1=0x80003518
       47275000	      4726	00000000	00000013	addi	x0,x0,0	  x0:0x00000000
       47285000	      4727	8000352c	00000013	addi	x0,x0,0	  x0:0x00000000
       47295000	      4728	80003530	ffdff16f	jal	x2,80003530	  x2=0x80003530
       47305000	      4729	00000000	00000013	addi	x0,x0,0	  x0:0x00000000
       47315000	      4730	80003528	00000013	addi	x0,x0,0	  x0:0x00000000
       47325000	      4731	8000352c	00c0026f	jal	x4,8000352c	  x4=0x8000352c
       47335000	      4732	00000000	00000013	addi	x0,x0,0	  x0:0x00000000
       47345000	      4733	80003534	00000013	addi	x0,x0,0	  x0:0x00000000
       47355000	      4734	80003538	01c000ef	jal	x1,80003538	  x1=0x80003538
       47365000	      4735	00000000	00000013	addi	x0,x0,0	  x0:0x00000000
       47375000	      4736	80003550	00000013	addi	x0,x0,0	  x0:0x00000000
       47385000	      4737	80003554	fe9ff0ef	jal	x1,80003554	  x1=0x80003554
       47395000	      4738	00000000	00000013	addi	x0,x0,0	  x0:0x00000000
       47405000	      4739	80003538	00000013	addi	x0,x0,0	  x0:0x00000000
       47415000	      4740	8000353c	fe1ff0ef	jal	x1,8000353c	  x1=0x8000353c
       47425000	      4741	00000000	00000013	addi	x0,x0,0	  x0:0x00000000
       47435000	      4742	80003518	00000013	addi	x0,x0,0	  x0:0x00000000
       47445000	      4743	8000351c	024000ef	jal	x1,8000351c	  x1=0x8000351c
       47455000	      4744	00000000	00000013	addi	x0,x0,0	  x0:0x00000000
       47465000	      4745	8000353c	00000013	addi	x0,x0,0	  x0:0x00000000
       47475000	      4746	80003540	fd1ff7ef	jal	x15,80003540	 x15=0x80003540
       47485000	      4747	00000000	00000013	addi	x0,x0,0	  x0:0x00000000
       47495000	      4748	8000350c	00000013	addi	x0,x0,0	  x0:0x00000000
       47505000	      4749	80003510	03c0036f	jal	x6,80003510	  x6=0x80003510
       47515000	      4750	00000000	00000013	addi	x0,x0,0	  x0:0x00000000
       47525000	      4751	80003548	00000013	addi	x0,x0,0	  x0:0x00000000
       47535000	      4752	8000354c	fbdfff6f	jal	x30,8000354c	 x30=0x8000354c
       47545000	      4753	00000000	00000013	addi	x0,x0,0	  x0:0x00000000
       47555000	      4754	80003504	00000013	addi	x0,x0,0	  x0:0x00000000
       47565000	      4755	80003508	048000ef	jal	x1,80003508	  x1=0x80003508
       47575000	      4756	00000000	00000013	addi	x0,x0,0	  x0:0x00000000
       47585000	      4757	8000354c	00000013	addi	x0,x0,0	  x0:0x00000000
       47595000	      4758	80003550	ff9ff36f	jal	x6,80003550	  x6=0x80003550
       47605000	      4759	00000000	00000013	addi	x0,x0,0	  x0:0x00000000
       47615000	      4760	80003544	00000013	addi	x0,x0,0	  x0:0x00000000
       47625000	      4761	80003548	0100036f	jal	x6,80003548	  x6=0x80003548
       47635000	      4762	00000000	00000013	addi	x0,x0,0	  x0:0x00000000
       47645000	      4763	80003554	00000013	addi	x0,x0,0	  x0:0x00000000
       47655000	      4764	80003558	00576833	or	x16,x14,x5	 x14:0x80003458  x5:0x80003404 x16=0x8000345c
       47665000	      4765	8000355c	41a75d33	sra	x26,x14,x26	 x14:0x80003458 x26:0x800034e0 x26=0x80003458
       47675000	      4766	80003560	0057c033	xor	x0,x15,x5	 x15:0x80003540  x5:0x80003404
       47685000	      4767	80003564	2eaf7e93	andi	x29,x30,746	 x30:0x8000354c x29=0x00000048
       47695000	      4768	80003568	0094c7b3	xor	x15,x9,x9	  x9:0x80009fc4  x9:0x80009fc4 x15=0x00000000
       47705000	      4769	8000356c	28466713	ori	x14,x12,644	 x12:0x8000328c x14=0x8000328c
       47715000	      4770	80003570	40315f13	srai	x30,x2,0x3	  x2:0x80003530 x30=0xf00006a6
       47725000	      4771	80003574	00000013	addi	x0,x0,0	  x0:0x00000000
       47735000	      4772	80003578	01220a63	beq	x4,x18,8000358c	  x4:0x8000352c x18:0x00000006
       47745000	      4773	8000357c	0166fc33	and	x24,x13,x22	 x13:0x800033e8 x22:0x8000341c x24=0x80003008
       47755000	      4774	80003580	bb1cfe93	andi	x29,x25,-1103	 x25:0x80003470 x29=0x80003030
       47765000	      4775	80003584	01f178b3	and	x17,x2,x31	  x2:0x80003530 x31:0x800034ec x17=0x80003420
       47775000	      4776	80003588	6121a513	slti	x10,x3,1554	  x3:0x80003524 x10=0x00000001
       47785000	      4777	8000358c	0049ce63	blt	x19,x4,800035a8	 x19:0x8000344c  x4:0x8000352c
       47795000	      4778	00000000	00000013	addi	x0,x0,0	  x0:0x00000000
       47805000	      4779	800035a4	00000013	addi	x0,x0,0	  x0:0x00000000
       47815000	      4780	800035a8	3dda0b93	addi	x23,x20,989	 x20:0x80009f38 x23=0x8000a315
       47825000	      4781	800035ac	0bcb3017	auipc	x0,0xbcb3	
       47835000	      4782	800035b0	2c28cdb7	lui	x27,0x2c28c	 x27=0x2c28c000
       47845000	      4783	800035b4	00a1ff33	and	x30,x3,x10	  x3:0x80003524 x10:0x00000001 x30=0x00000000
       47855000	      4784	800035b8	00000013	addi	x0,x0,0	  x0:0x00000000
       47865000	      4785	800035bc	01835c63	bge	x6,x24,800035d4	  x6:0x80003548 x24:0x80003008
       47875000	      4786	00000000	00000013	addi	x0,x0,0	  x0:0x00000000
       47885000	      4787	800035d0	00000013	addi	x0,x0,0	  x0:0x00000000
       47895000	      4788	800035d4	01272f33	slt	x30,x14,x18	 x14:0x8000328c x18:0x00000006 x30=0x00000001
       47905000	      4789	800035d8	a18b6713	ori	x14,x22,-1512	 x22:0x8000341c x14=0xfffffe1c
       47915000	      4790	800035dc	01f87bb3	and	x23,x16,x31	 x16:0x8000345c x31:0x800034ec x23=0x8000344c
       47925000	      4791	800035e0	00f7eeb3	or	x29,x15,x15	 x15:0x00000000 x15:0x00000000 x29=0x00000000
       47935000	      4792	800035e4	00c22fb3	slt	x31,x4,x12	  x4:0x8000352c x12:0x8000328c x31=0x00000000
       47945000	      4793	800035e8	21926093	ori	x1,x4,537	  x4:0x8000352c  x1=0x8000373d
       47955000	      4794	800035ec	05279863	bne	x15,x18,8000363c	 x15:0x00000000 x18:0x00000006
       47965000	      4795	00000000	00000013	addi	x0,x0,0	  x0:0x00000000
       47975000	      4796	80003638	00000013	addi	x0,x0,0	  x0:0x00000000
       47985000	      4797	8000363c	0072efb3	or	x31,x5,x7	  x5:0x80003404  x7:0x800033ec x31=0x800037ec
       47995000	      4798	80003640	c3fbe097	auipc	x1,0xc3fbe	  x1=0x43fc163c
       48005000	      4799	80003644	006c9733	sll	x14,x25,x6	 x25:0x80003470  x6:0x80003548 x14=0x00347000
       48015000	      4800	80003648	40bbdc93	srai	x25,x23,0xb	 x23:0x8000344c x25=0xfff00006
       48025000	      4801	8000364c	411dd833	sra	x16,x27,x17	 x27:0x2c28c000 x17:0x80003420 x16=0x2c28c000
       48035000	      4802	80003650	d9e1bf13	sltiu	x30,x3,-610	  x3:0x80003524 x30=0x00000001
       48045000	      4803	80003654	00520733	add	x14,x4,x5	  x4:0x8000352c  x5:0x80003404 x14=0x00006930
       48055000	      4804	80003658	00abec63	bltu	x23,x10,80003670	 x23:0x8000344c x10:0x00000001
       48065000	      4805	8000365c	01d34633	xor	x12,x6,x29	  x6:0x80003548 x29:0x00000000 x12=0x80003548
       48075000	      4806	80003660	008d9663	bne	x27,x8,8000366c	 x27:0x2c28c000  x8:0x80003108
       48085000	      4807	00000000	00000013	addi	x0,x0,0	  x0:0x00000000
       48095000	      4808	80003668	00000013	addi	x0,x0,0	  x0:0x00000000
       48105000	      4809	8000366c	0449d063	bge	x19,x4,800036ac	 x19:0x8000344c  x4:0x8000352c
       48115000	      4810	80003670	dc3ee513	ori	x10,x29,-573	 x29:0x00000000 x10=0xfffffdc3
       48125000	      4811	80003674	02799663	bne	x19,x7,800036a0	 x19:0x8000344c  x7:0x800033ec
       48135000	      4812	00000000	00000013	addi	x0,x0,0	  x0:0x00000000
       48145000	      4813	8000369c	00000013	addi	x0,x0,0	  x0:0x00000000
       48155000	      4814	800036a0	01ccc1b3	xor	x3,x25,x28	 x25:0xfff00006 x28:0x00000100  x3=0xfff00106
       48165000	      4815	800036a4	006f2bb3	slt	x23,x30,x6	 x30:0x00000001  x6:0x80003548 x23=0x00000000
       48175000	      4816	800036a8	012b9fb3	sll	x31,x23,x18	 x23:0x00000000 x18:0x00000006 x31=0x00000000
       48185000	      4817	800036ac	01111733	sll	x14,x2,x17	  x2:0x80003530 x17:0x80003420 x14=0x80003530
       48195000	      4818	800036b0	0240036f	jal	x6,800036b0	  x6=0x800036b0
       48205000	      4819	00000000	00000013	addi	x0,x0,0	  x0:0x00000000
       48215000	      4820	800036d0	00000013	addi	x0,x0,0	  x0:0x00000000
       48225000	      4821	800036d4	0100036f	jal	x6,800036d4	  x6=0x800036d4
       48235000	      4822	00000000	00000013	addi	x0,x0,0	  x0:0x00000000
       48245000	      4823	800036e0	00000013	addi	x0,x0,0	  x0:0x00000000
       48255000	      4824	800036e4	fd5ff0ef	jal	x1,800036e4	  x1=0x800036e4
       48265000	      4825	00000000	00000013	addi	x0,x0,0	  x0:0x00000000
       48275000	      4826	800036b4	00000013	addi	x0,x0,0	  x0:0x00000000
       48285000	      4827	800036b8	010000ef	jal	x1,800036b8	  x1=0x800036b8
       48295000	      4828	00000000	00000013	addi	x0,x0,0	  x0:0x00000000
       48305000	      4829	800036c4	00000013	addi	x0,x0,0	  x0:0x00000000
       48315000	      4830	800036c8	0280086f	jal	x16,800036c8	 x16=0x800036c8
       48325000	      4831	00000000	00000013	addi	x0,x0,0	  x0:0x00000000
       48335000	      4832	800036ec	00000013	addi	x0,x0,0	  x0:0x00000000
       48345000	      4833	800036f0	fc5ff36f	jal	x6,800036f0	  x6=0x800036f0
       48355000	      4834	00000000	00000013	addi	x0,x0,0	  x0:0x00000000
       48365000	      4835	800036b0	00000013	addi	x0,x0,0	  x0:0x00000000
       48375000	      4836	800036b4	034000ef	jal	x1,800036b4	  x1=0x800036b4
       48385000	      4837	00000000	00000013	addi	x0,x0,0	  x0:0x00000000
       48395000	      4838	800036e4	00000013	addi	x0,x0,0	  x0:0x00000000
       48405000	      4839	800036e8	fd5ff16f	jal	x2,800036e8	  x2=0x800036e8
       48415000	      4840	00000000	00000013	addi	x0,x0,0	  x0:0x00000000
       48425000	      4841	800036b8	00000013	addi	x0,x0,0	  x0:0x00000000
       48435000	      4842	800036bc	008000ef	jal	x1,800036bc	  x1=0x800036bc
       48445000	      4843	00000000	00000013	addi	x0,x0,0	  x0:0x00000000
       48455000	      4844	800036c0	00000013	addi	x0,x0,0	  x0:0x00000000
       48465000	      4845	800036c4	014007ef	jal	x15,800036c4	 x15=0x800036c4
       48475000	      4846	00000000	00000013	addi	x0,x0,0	  x0:0x00000000
       48485000	      4847	800036d4	00000013	addi	x0,x0,0	  x0:0x00000000
       48495000	      4848	800036d8	014001ef	jal	x3,800036d8	  x3=0x800036d8
       48505000	      4849	00000000	00000013	addi	x0,x0,0	  x0:0x00000000
       48515000	      4850	800036e8	00000013	addi	x0,x0,0	  x0:0x00000000
       48525000	      4851	800036ec	ff5ff0ef	jal	x1,800036ec	  x1=0x800036ec
       48535000	      4852	00000000	00000013	addi	x0,x0,0	  x0:0x00000000
       48545000	      4853	800036dc	00000013	addi	x0,x0,0	  x0:0x00000000
       48555000	      4854	800036e0	fe1ff16f	jal	x2,800036e0	  x2=0x800036e0
       48565000	      4855	00000000	00000013	addi	x0,x0,0	  x0:0x00000000
       48575000	      4856	800036bc	00000013	addi	x0,x0,0	  x0:0x00000000
       48585000	      4857	800036c0	00c000ef	jal	x1,800036c0	  x1=0x800036c0
       48595000	      4858	00000000	00000013	addi	x0,x0,0	  x0:0x00000000
       48605000	      4859	800036c8	00000013	addi	x0,x0,0	  x0:0x00000000
       48615000	      4860	800036cc	004002ef	jal	x5,800036cc	  x5=0x800036cc
       48625000	      4861	00000000	00000013	addi	x0,x0,0	  x0:0x00000000
       48635000	      4862	800036cc	00000013	addi	x0,x0,0	  x0:0x00000000
       48645000	      4863	800036d0	00c000ef	jal	x1,800036d0	  x1=0x800036d0
       48655000	      4864	00000000	00000013	addi	x0,x0,0	  x0:0x00000000
       48665000	      4865	800036d8	00000013	addi	x0,x0,0	  x0:0x00000000
       48675000	      4866	800036dc	0180056f	jal	x10,800036dc	 x10=0x800036dc
       48685000	      4867	00000000	00000013	addi	x0,x0,0	  x0:0x00000000
       48695000	      4868	800036f0	00000013	addi	x0,x0,0	  x0:0x00000000
       48705000	      4869	800036f4	5d356713	ori	x14,x10,1491	 x10:0x800036dc x14=0x800037df
       48715000	      4870	800036f8	002ea433	slt	x8,x29,x2	 x29:0x00000000  x2:0x800036e0  x8=0x00000000
       48725000	      4871	800036fc	01249c33	sll	x24,x9,x18	  x9:0x80009fc4 x18:0x00000006 x24=0x0027f100
       48735000	      4872	80003700	60df8f93	addi	x31,x31,1549	 x31:0x00000000 x31=0x0000060d
       48745000	      4873	80003704	08768863	beq	x13,x7,80003794	 x13:0x800033e8  x7:0x800033ec
       48755000	      4874	80003708	00000013	addi	x0,x0,0	  x0:0x00000000
       48765000	      4875	8000370c	406ed413	srai	x8,x29,0x6	 x29:0x00000000  x8=0x00000000
       48775000	      4876	80003710	cd616993	ori	x19,x2,-810	  x2:0x800036e0 x19=0xfffffef6
       48785000	      4877	80003714	01da7e63	bgeu	x20,x29,80003730	 x20:0x80009f38 x29:0x00000000
       48795000	      4878	00000000	00000013	addi	x0,x0,0	  x0:0x00000000
       48805000	      4879	8000372c	00000013	addi	x0,x0,0	  x0:0x00000000
       48815000	      4880	80003730	000fed33	or	x26,x31,x0	 x31:0x0000060d  x0:0x00000000 x26=0x0000060d
       48825000	      4881	80003734	01b0bfb3	sltu	x31,x1,x27	  x1:0x800036d0 x27:0x2c28c000 x31=0x00000000
       48835000	      4882	80003738	00f062b3	or	x5,x0,x15	  x0:0x00000000 x15:0x800036c4  x5=0x800036c4
       48845000	      4883	8000373c	07446063	bltu	x8,x20,8000379c	  x8:0x00000000 x20:0x80009f38
       48855000	      4884	00000000	00000013	addi	x0,x0,0	  x0:0x00000000
       48865000	      4885	80003798	00000013	addi	x0,x0,0	  x0:0x00000000
       48875000	      4886	8000379c	00fdb133	sltu	x2,x27,x15	 x27:0x2c28c000 x15:0x800036c4  x2=0x00000001
       48885000	      4887	800037a0	03e2fe63	bgeu	x5,x30,800037dc	  x5:0x800036c4 x30:0x00000001
       48895000	      4888	00000000	00000013	addi	x0,x0,0	  x0:0x00000000
       48905000	      4889	800037d8	00000013	addi	x0,x0,0	  x0:0x00000000
       48915000	      4890	800037dc	0074dc33	srl	x24,x9,x7	  x9:0x80009fc4  x7:0x800033ec x24=0x00080009
       48925000	      4891	800037e0	00f0f9b3	and	x19,x1,x15	  x1:0x800036d0 x15:0x800036c4 x19=0x800036c0
       48935000	      4892	800037e4	01fa71b3	and	x3,x20,x31	 x20:0x80009f38 x31:0x00000000  x3=0x00000000
       48945000	      4893	800037e8	41da5db3	sra	x27,x20,x29	 x20:0x80009f38 x29:0x00000000 x27=0x80009f38
       48955000	      4894	800037ec	00000013	addi	x0,x0,0	  x0:0x00000000
       48965000	      4895	800037f0	03247e63	bgeu	x8,x18,8000382c	  x8:0x00000000 x18:0x00000006
       48975000	      4896	800037f4	05051663	bne	x10,x16,80003840	 x10:0x800036dc x16:0x800036c8
       48985000	      4897	00000000	00000013	addi	x0,x0,0	  x0:0x00000000
       48995000	      4898	8000383c	00000013	addi	x0,x0,0	  x0:0x00000000
       49005000	      4899	80003840	02e88393	addi	x7,x17,46	 x17:0x80003420  x7=0x8000344e
       49015000	      4900	80003844	8d6a7593	andi	x11,x20,-1834	 x20:0x80009f38 x11=0x80009810
       49025000	      4901	80003848	1ff5be13	sltiu	x28,x11,511	 x11:0x80009810 x28=0x00000000
       49035000	      4902	8000384c	c1a4ae93	slti	x29,x9,-998	  x9:0x80009fc4 x29=0x00000001
       49045000	      4903	80003850	b4ea8313	addi	x6,x21,-1202	 x21:0x00006300  x6=0x00005e4e
       49055000	      4904	80003854	40348e33	sub	x28,x9,x3	  x9:0x80009fc4  x3:0x00000000 x28=0x80009fc4
       49065000	      4905	80003858	de74f893	andi	x17,x9,-537	  x9:0x80009fc4 x17=0x80009dc4
       49075000	      4906	8000385c	badb50b7	lui	x1,0xbadb5	  x1=0xbadb5000
       49085000	      4907	80003860	0ae97a93	andi	x21,x18,174	 x18:0x00000006 x21=0x00000006
       49095000	      4908	80003864	f9208793	addi	x15,x1,-110	  x1:0xbadb5000 x15=0xbadb4f92
       49105000	      4909	80003868	416cd393	srai	x7,x25,0x16	 x25:0xfff00006  x7=0xffffffff
       49115000	      4910	8000386c	00000013	addi	x0,x0,0	  x0:0x00000000
       49125000	      4911	80003870	01cb5213	srli	x4,x22,0x1c	 x22:0x8000341c  x4=0x00000008
       49135000	      4912	80003874	04aed063	bge	x29,x10,800038b4	 x29:0x00000001 x10:0x800036dc
       49145000	      4913	00000000	00000013	addi	x0,x0,0	  x0:0x00000000
       49155000	      4914	800038b0	00000013	addi	x0,x0,0	  x0:0x00000000
       49165000	      4915	800038b4	1a127b13	andi	x22,x4,417	  x4:0x00000008 x22=0x00000000
       49175000	      4916	800038b8	01f38cb3	add	x25,x7,x31	  x7:0xffffffff x31:0x00000000 x25=0xffffffff
       49185000	      4917	800038bc	00be6263	bltu	x28,x11,800038c0	 x28:0x80009fc4 x11:0x80009810
       49195000	      4918	800038c0	00a67863	bgeu	x12,x10,800038d0	 x12:0x80003548 x10:0x800036dc
       49205000	      4919	800038c4	01b37033	and	x0,x6,x27	  x6:0x00005e4e x27:0x80009f38
       49215000	      4920	800038c8	0075cc33	xor	x24,x11,x7	 x11:0x80009810  x7:0xffffffff x24=0x7fff67ef
       49225000	      4921	800038cc	003fa7b3	slt	x15,x31,x3	 x31:0x00000000  x3:0x00000000 x15=0x00000000
       49235000	      4922	800038d0	01070263	beq	x14,x16,800038d4	 x14:0x800037df x16:0x800036c8
       49245000	      4923	800038d4	e83a7693	andi	x13,x20,-381	 x20:0x80009f38 x13=0x80009e00
       49255000	      4924	800038d8	01f91fb3	sll	x31,x18,x31	 x18:0x00000006 x31:0x00000000 x31=0x00000006
       49265000	      4925	800038dc	416cdb13	srai	x22,x25,0x16	 x25:0xffffffff x22=0xffffffff
       49275000	      4926	800038e0	01c5ea63	bltu	x11,x28,800038f4	 x11:0x80009810 x28:0x80009fc4
       49285000	      4927	00000000	00000013	addi	x0,x0,0	  x0:0x00000000
       49295000	      4928	800038f0	00000013	addi	x0,x0,0	  x0:0x00000000
       49305000	      4929	800038f4	019f5c63	bge	x30,x25,8000390c	 x30:0x00000001 x25:0xffffffff
       49315000	      4930	00000000	00000013	addi	x0,x0,0	  x0:0x00000000
       49325000	      4931	80003908	00000013	addi	x0,x0,0	  x0:0x00000000
       49335000	      4932	8000390c	00a0f833	and	x16,x1,x10	  x1:0xbadb5000 x10:0x800036dc x16=0x80001000
       49345000	      4933	80003910	547b3613	sltiu	x12,x22,1351	 x22:0xffffffff x12=0x00000000
       49355000	      4934	80003914	ffd1fa93	andi	x21,x3,-3	  x3:0x00000000 x21=0x00000000
       49365000	      4935	80003918	01ff9b33	sll	x22,x31,x31	 x31:0x00000006 x31:0x00000006 x22=0x00000180
       49375000	      4936	8000391c	02fe4063	blt	x28,x15,8000393c	 x28:0x80009fc4 x15:0x00000000
       49385000	      4937	00000000	00000013	addi	x0,x0,0	  x0:0x00000000
       49395000	      4938	80003938	00000013	addi	x0,x0,0	  x0:0x00000000
       49405000	      4939	8000393c	079f6063	bltu	x30,x25,8000399c	 x30:0x00000001 x25:0xffffffff
       49415000	      4940	00000000	00000013	addi	x0,x0,0	  x0:0x00000000
       49425000	      4941	80003998	00000013	addi	x0,x0,0	  x0:0x00000000
       49435000	      4942	8000399c	01c57533	and	x10,x10,x28	 x10:0x800036dc x28:0x80009fc4 x10=0x800016c4
       49445000	      4943	800039a0	08295863	bge	x18,x2,80003a30	 x18:0x00000006  x2:0x00000001
       49455000	      4944	00000000	00000013	addi	x0,x0,0	  x0:0x00000000
       49465000	      4945	80003a2c	00000013	addi	x0,x0,0	  x0:0x00000000
       49475000	      4946	80003a30	032bc663	blt	x23,x18,80003a5c	 x23:0x00000000 x18:0x00000006
       49485000	      4947	00000000	00000013	addi	x0,x0,0	  x0:0x00000000
       49495000	      4948	80003a58	00000013	addi	x0,x0,0	  x0:0x00000000
       49505000	      4949	80003a5c	001a1033	sll	x0,x20,x1	 x20:0x80009f38  x1:0xbadb5000
       49515000	      4950	80003a60	0409d063	bge	x19,x0,80003aa0	 x19:0x800036c0  x0:0x00000000
       49525000	      4951	80003a64	01031733	sll	x14,x6,x16	  x6:0x00005e4e x16:0x80001000 x14=0x00005e4e
       49535000	      4952	80003a68	2af1f993	andi	x19,x3,687	  x3:0x00000000 x19=0x00000000
       49545000	      4953	80003a6c	2ab1e313	ori	x6,x3,683	  x3:0x00000000  x6=0x000002ab
       49555000	      4954	80003a70	03945463	bge	x8,x25,80003a98	  x8:0x00000000 x25:0xffffffff
       49565000	      4955	00000000	00000013	addi	x0,x0,0	  x0:0x00000000
       49575000	      4956	80003a94	00000013	addi	x0,x0,0	  x0:0x00000000
       49585000	      4957	80003a98	01081f13	slli	x30,x16,0x10	 x16:0x80001000 x30=0x10000000
       49595000	      4958	80003a9c	00000013	addi	x0,x0,0	  x0:0x00000000
       49605000	      4959	80003aa0	4043dbb3	sra	x23,x7,x4	  x7:0xffffffff  x4:0x00000008 x23=0xffffffff
       49615000	      4960	80003aa4	01c0dc93	srli	x25,x1,0x1c	  x1:0xbadb5000 x25=0x0000000b
       49625000	      4961	80003aa8	41ccdab3	sra	x21,x25,x28	 x25:0x0000000b x28:0x80009fc4 x21=0x00000000
       49635000	      4962	80003aac	00ba4c63	blt	x20,x11,80003ac4	 x20:0x80009f38 x11:0x80009810
       49645000	      4963	80003ab0	004cc663	blt	x25,x4,80003abc	 x25:0x0000000b  x4:0x00000008
       49655000	      4964	80003ab4	01ab48b3	xor	x17,x22,x26	 x22:0x00000180 x26:0x0000060d x17=0x0000078d
       49665000	      4965	80003ab8	01cc4f33	xor	x30,x24,x28	 x24:0x7fff67ef x28:0x80009fc4 x30=0xfffff82b
       49675000	      4966	80003abc	01e71293	slli	x5,x14,0x1e	 x14:0x00005e4e  x5=0x80000000
       49685000	      4967	80003ac0	01cef3b3	and	x7,x29,x28	 x29:0x00000001 x28:0x80009fc4  x7=0x00000000
       49695000	      4968	80003ac4	00105633	srl	x12,x0,x1	  x0:0x00000000  x1:0xbadb5000 x12=0x00000000
       49705000	      4969	80003ac8	0167a333	slt	x6,x15,x22	 x15:0x00000000 x22:0x00000180  x6=0x00000001
       49715000	      4970	80003acc	00169cb3	sll	x25,x13,x1	 x13:0x80009e00  x1:0xbadb5000 x25=0x80009e00
       49725000	      4971	80003ad0	0018dbb3	srl	x23,x17,x1	 x17:0x0000078d  x1:0xbadb5000 x23=0x0000078d
       49735000	      4972	80003ad4	03a78463	beq	x15,x26,80003afc	 x15:0x00000000 x26:0x0000060d
       49745000	      4973	80003ad8	00344263	blt	x8,x3,80003adc	  x8:0x00000000  x3:0x00000000
       49755000	      4974	80003adc	00959c63	bne	x11,x9,80003af4	 x11:0x80009810  x9:0x80009fc4
       49765000	      4975	00000000	00000013	addi	x0,x0,0	  x0:0x00000000
       49775000	      4976	80003af0	00000013	addi	x0,x0,0	  x0:0x00000000
       49785000	      4977	80003af4	011ff3b3	and	x7,x31,x17	 x31:0x00000006 x17:0x0000078d  x7=0x00000004
       49795000	      4978	80003af8	03e30663	beq	x6,x30,80003b24	  x6:0x00000001 x30:0xfffff82b
       49805000	      4979	80003afc	40b1d6b3	sra	x13,x3,x11	  x3:0x00000000 x11:0x80009810 x13=0x00000000
       49815000	      4980	80003b00	03765a63	bge	x12,x23,80003b34	 x12:0x00000000 x23:0x0000078d
       49825000	      4981	80003b04	c5e98793	addi	x15,x19,-930	 x19:0x00000000 x15=0xfffffc5e
       49835000	      4982	80003b08	01b83e13	sltiu	x28,x16,27	 x16:0x80001000 x28=0x00000000
       49845000	      4983	80003b0c	5815e397	auipc	x7,0x5815e	  x7=0xd8161b08
       49855000	      4984	80003b10	00d07e63	bgeu	x0,x13,80003b2c	  x0:0x00000000 x13:0x00000000
       49865000	      4985	00000000	00000013	addi	x0,x0,0	  x0:0x00000000
       49875000	      4986	80003b28	00000013	addi	x0,x0,0	  x0:0x00000000
       49885000	      4987	80003b2c	01139693	slli	x13,x7,0x11	  x7:0xd8161b08 x13=0x36100000
       49895000	      4988	80003b30	01b8a2b3	slt	x5,x17,x27	 x17:0x0000078d x27:0x80009f38  x5=0x00000000
       49905000	      4989	80003b34	01ceadb3	slt	x27,x29,x28	 x29:0x00000001 x28:0x00000000 x27=0x00000000
       49915000	      4990	80003b38	17b86513	ori	x10,x16,379	 x16:0x80001000 x10=0x8000117b
       49925000	      4991	80003b3c	00000013	addi	x0,x0,0	  x0:0x00000000
       49935000	      4992	80003b40	01f7ebb3	or	x23,x15,x31	 x15:0xfffffc5e x31:0x00000006 x23=0xfffffc5e
       49945000	      4993	80003b44	41b0df13	srai	x30,x1,0x1b	  x1:0xbadb5000 x30=0xfffffff7
       49955000	      4994	80003b48	00000013	addi	x0,x0,0	  x0:0x00000000
       49965000	      4995	80003b4c	00551e33	sll	x28,x10,x5	 x10:0x8000117b  x5:0x00000000 x28=0x8000117b
       49975000	      4996	80003b50	00251a93	slli	x21,x10,0x2	 x10:0x8000117b x21=0x000045ec
       49985000	      4997	80003b54	0019dc63	bge	x19,x1,80003b6c	 x19:0x00000000  x1:0xbadb5000
       49995000	      4998	00000000	00000013	addi	x0,x0,0	  x0:0x00000000
       50005000	      4999	80003b68	00000013	addi	x0,x0,0	  x0:0x00000000
       50015000	      5000	80003b6c	4573b413	sltiu	x8,x7,1111	  x7:0xd8161b08  x8=0x00000000
       50025000	      5001	80003b70	021efe63	bgeu	x29,x1,80003bac	 x29:0x00000001  x1:0xbadb5000
       50035000	      5002	80003b74	026b1663	bne	x22,x6,80003ba0	 x22:0x00000180  x6:0x00000001
       50045000	      5003	00000000	00000013	addi	x0,x0,0	  x0:0x00000000
       50055000	      5004	80003b9c	00000013	addi	x0,x0,0	  x0:0x00000000
       50065000	      5005	80003ba0	41440bb3	sub	x23,x8,x20	  x8:0x00000000 x20:0x80009f38 x23=0x7fff60c8
       50075000	      5006	80003ba4	01bd8863	beq	x27,x27,80003bb4	 x27:0x00000000 x27:0x00000000
       50085000	      5007	00000000	00000013	addi	x0,x0,0	  x0:0x00000000
       50095000	      5008	80003bb0	00000013	addi	x0,x0,0	  x0:0x00000000
       50105000	      5009	80003bb4	005e9133	sll	x2,x29,x5	 x29:0x00000001  x5:0x00000000  x2=0x00000001
       50115000	      5010	80003bb8	01cd8c33	add	x24,x27,x28	 x27:0x00000000 x28:0x8000117b x24=0x8000117b
       50125000	      5011	80003bbc	003c58b3	srl	x17,x24,x3	 x24:0x8000117b  x3:0x00000000 x17=0x8000117b
       50135000	      5012	80003bc0	690d3e13	sltiu	x28,x26,1680	 x26:0x0000060d x28=0x00000001
       50145000	      5013	80003bc4	f695aa93	slti	x21,x11,-151	 x11:0x80009810 x21=0x00000001
       50155000	      5014	80003bc8	4119d833	sra	x16,x19,x17	 x19:0x00000000 x17:0x8000117b x16=0x00000000
       50165000	      5015	80003bcc	01c61033	sll	x0,x12,x28	 x12:0x00000000 x28:0x00000001
       50175000	      5016	80003bd0	01017533	and	x10,x2,x16	  x2:0x00000001 x16:0x00000000 x10=0x00000000
       50185000	      5017	80003bd4	01c79233	sll	x4,x15,x28	 x15:0xfffffc5e x28:0x00000001  x4=0xfffff8bc
       50195000	      5018	80003bd8	05cb1863	bne	x22,x28,80003c28	 x22:0x00000180 x28:0x00000001
       50205000	      5019	00000000	00000013	addi	x0,x0,0	  x0:0x00000000
       50215000	      5020	80003c24	00000013	addi	x0,x0,0	  x0:0x00000000
       50225000	      5021	80003c28	017131b3	sltu	x3,x2,x23	  x2:0x00000001 x23:0x7fff60c8  x3=0x00000001
       50235000	      5022	80003c2c	d2413b93	sltiu	x23,x2,-732	  x2:0x00000001 x23=0x00000001
       50245000	      5023	80003c30	007975b3	and	x11,x18,x7	 x18:0x00000006  x7:0xd8161b08 x11=0x00000000
       50255000	      5024	80003c34	2637c513	xori	x10,x15,611	 x15:0xfffffc5e x10=0xfffffe3d
       50265000	      5025	80003c38	016957b3	srl	x15,x18,x22	 x18:0x00000006 x22:0x00000180 x15=0x00000006
       50275000	      5026	80003c3c	4075db13	srai	x22,x11,0x7	 x11:0x00000000 x22=0x00000000
       50285000	      5027	80003c40	a41803b7	lui	x7,0xa4180	  x7=0xa4180000
       50295000	      5028	80003c44	01259233	sll	x4,x11,x18	 x11:0x00000000 x18:0x00000006  x4=0x00000000
       50305000	      5029	80003c48	001c8833	add	x16,x25,x1	 x25:0x80009e00  x1:0xbadb5000 x16=0x3adbee00
       50315000	      5030	80003c4c	017625b3	slt	x11,x12,x23	 x12:0x00000000 x23:0x00000001 x11=0x00000001
       50325000	      5031	80003c50	1943c1b7	lui	x3,0x1943c	  x3=0x1943c000
       50335000	      5032	80003c54	41a75f13	srai	x30,x14,0x1a	 x14:0x00005e4e x30=0x00000000
       50345000	      5033	80003c58	131db217	auipc	x4,0x131db	  x4=0x931dec54
       50355000	      5034	80003c5c	04050863	beq	x10,x0,80003cac	 x10:0xfffffe3d  x0:0x00000000
       50365000	      5035	80003c60	01face33	xor	x28,x21,x31	 x21:0x00000001 x31:0x00000006 x28=0x00000007
       50375000	      5036	80003c64	e833c693	xori	x13,x7,-381	  x7:0xa4180000 x13=0x5be7fe83
       50385000	      5037	80003c68	b420ce97	auipc	x29,0xb420c	 x29=0x3420fc64
       50395000	      5038	80003c6c	00381eb3	sll	x29,x16,x3	 x16:0x3adbee00  x3:0x1943c000 x29=0x3adbee00
       50405000	      5039	80003c70	01911233	sll	x4,x2,x25	  x2:0x00000001 x25:0x80009e00  x4=0x00000001
       50415000	      5040	80003c74	053fd063	bge	x31,x19,80003cb4	 x31:0x00000006 x19:0x00000000
       50425000	      5041	00000000	00000013	addi	x0,x0,0	  x0:0x00000000
       50435000	      5042	80003cb0	00000013	addi	x0,x0,0	  x0:0x00000000
       50445000	      5043	80003cb4	b826e293	ori	x5,x13,-1150	 x13:0x5be7fe83  x5=0xffffff83
       50455000	      5044	80003cb8	55c56213	ori	x4,x10,1372	 x10:0xfffffe3d  x4=0xffffff7d
       50465000	      5045	80003cbc	00bebeb3	sltu	x29,x29,x11	 x29:0x3adbee00 x11:0x00000001 x29=0x00000000
       50475000	      5046	80003cc0	3060b993	sltiu	x19,x1,774	  x1:0xbadb5000 x19=0x00000000
       50485000	      5047	80003cc4	000a7c63	bgeu	x20,x0,80003cdc	 x20:0x80009f38  x0:0x00000000
       50495000	      5048	00000000	00000013	addi	x0,x0,0	  x0:0x00000000
       50505000	      5049	80003cd8	00000013	addi	x0,x0,0	  x0:0x00000000
       50515000	      5050	80003cdc	009d50b3	srl	x1,x26,x9	 x26:0x0000060d  x9:0x80009fc4  x1=0x00000060
       50525000	      5051	80003ce0	412dd393	srai	x7,x27,0x12	 x27:0x00000000  x7=0x00000000
       50535000	      5052	80003ce4	01165663	bge	x12,x17,80003cf0	 x12:0x00000000 x17:0x8000117b
       50545000	      5053	00000000	00000013	addi	x0,x0,0	  x0:0x00000000
       50555000	      5054	80003cec	00000013	addi	x0,x0,0	  x0:0x00000000
       50565000	      5055	80003cf0	01e95f33	srl	x30,x18,x30	 x18:0x00000006 x30:0x00000000 x30=0x00000006
       50575000	      5056	80003cf4	00f9d5b3	srl	x11,x19,x15	 x19:0x00000000 x15:0x00000006 x11=0x00000000
       50585000	      5057	80003cf8	fb650013	addi	x0,x10,-74	 x10:0xfffffe3d
       50595000	      5058	80003cfc	019511b3	sll	x3,x10,x25	 x10:0xfffffe3d x25:0x80009e00  x3=0xfffffe3d
       50605000	      5059	80003d00	018f5263	bge	x30,x24,80003d04	 x30:0x00000006 x24:0x8000117b
       50615000	      5060	00000000	00000013	addi	x0,x0,0	  x0:0x00000000
       50625000	      5061	80003d00	00000013	addi	x0,x0,0	  x0:0x00000000
       50635000	      5062	80003d04	90263293	sltiu	x5,x12,-1790	 x12:0x00000000  x5=0x00000001
       50645000	      5063	80003d08	0041e9b3	or	x19,x3,x4	  x3:0xfffffe3d  x4:0xffffff7d x19=0xffffff7d
       50655000	      5064	80003d0c	00e0db93	srli	x23,x1,0xe	  x1:0x00000060 x23=0x00000000
       50665000	      5065	80003d10	014fa2b3	slt	x5,x31,x20	 x31:0x00000006 x20:0x80009f38  x5=0x00000000
       50675000	      5066	80003d14	ba4a8e93	addi	x29,x21,-1116	 x21:0x00000001 x29=0xfffffba5
       50685000	      5067	80003d18	f0faa513	slti	x10,x21,-241	 x21:0x00000001 x10=0x00000000
       50695000	      5068	80003d1c	00c546b3	xor	x13,x10,x12	 x10:0x00000000 x12:0x00000000 x13=0x00000000
       50705000	      5069	80003d20	41f80ab3	sub	x21,x16,x31	 x16:0x3adbee00 x31:0x00000006 x21=0x3adbedfa
       50715000	      5070	80003d24	00e812b3	sll	x5,x16,x14	 x16:0x3adbee00 x14:0x00005e4e  x5=0xfb800000
       50725000	      5071	80003d28	4a99bc93	sltiu	x25,x19,1193	 x19:0xffffff7d x25=0x00000000
       50735000	      5072	80003d2c	ff36ba93	sltiu	x21,x13,-13	 x13:0x00000000 x21=0x00000001
       50745000	      5073	80003d30	00e5a5b3	slt	x11,x11,x14	 x11:0x00000000 x14:0x00005e4e x11=0x00000001
       50755000	      5074	80003d34	168d7a93	andi	x21,x26,360	 x26:0x0000060d x21=0x00000008
       50765000	      5075	80003d38	8e18f313	andi	x6,x17,-1823	 x17:0x8000117b  x6=0x80001061
       50775000	      5076	80003d3c	4b91a437	lui	x8,0x4b91a	  x8=0x4b91a000
       50785000	      5077	80003d40	3e23bd93	sltiu	x27,x7,994	  x7:0x00000000 x27=0x00000001
       50795000	      5078	80003d44	0193deb3	srl	x29,x7,x25	  x7:0x00000000 x25:0x00000000 x29=0x00000000
       50805000	      5079	80003d48	09f78c63	beq	x15,x31,80003de0	 x15:0x00000006 x31:0x00000006
       50815000	      5080	00000000	00000013	addi	x0,x0,0	  x0:0x00000000
       50825000	      5081	80003ddc	00000013	addi	x0,x0,0	  x0:0x00000000
       50835000	      5082	80003de0	01c75e63	bge	x14,x28,80003dfc	 x14:0x00005e4e x28:0x00000007
       50845000	      5083	00000000	00000013	addi	x0,x0,0	  x0:0x00000000
       50855000	      5084	80003df8	00000013	addi	x0,x0,0	  x0:0x00000000
       50865000	      5085	80003dfc	00915f13	srli	x30,x2,0x9	  x2:0x00000001 x30=0x00000000
       50875000	      5086	80003e00	022e7a63	bgeu	x28,x2,80003e34	 x28:0x00000007  x2:0x00000001
       50885000	      5087	00000000	00000013	addi	x0,x0,0	  x0:0x00000000
       50895000	      5088	80003e30	00000013	addi	x0,x0,0	  x0:0x00000000
       50905000	      5089	80003e34	00000013	addi	x0,x0,0	  x0:0x00000000
       50915000	      5090	80003e38	408500b3	sub	x1,x10,x8	 x10:0x00000000  x8:0x4b91a000  x1=0xb46e6000
       50925000	      5091	80003e3c	01acd433	srl	x8,x25,x26	 x25:0x00000000 x26:0x0000060d  x8=0x00000000
       50935000	      5092	80003e40	006d7ab3	and	x21,x26,x6	 x26:0x0000060d  x6:0x80001061 x21=0x00000001
       50945000	      5093	80003e44	40cb0fb3	sub	x31,x22,x12	 x22:0x00000000 x12:0x00000000 x31=0x00000000
       50955000	      5094	80003e48	c22909b7	lui	x19,0xc2290	 x19=0xc2290000
       50965000	      5095	80003e4c	5e69a013	slti	x0,x19,1510	 x19:0xc2290000
       50975000	      5096	80003e50	035b6463	bltu	x22,x21,80003e78	 x22:0x00000000 x21:0x00000001
       50985000	      5097	00000000	00000013	addi	x0,x0,0	  x0:0x00000000
       50995000	      5098	80003e74	00000013	addi	x0,x0,0	  x0:0x00000000
       51005000	      5099	80003e78	02859e63	bne	x11,x8,80003eb4	 x11:0x00000001  x8:0x00000000
       51015000	      5100	00000000	00000013	addi	x0,x0,0	  x0:0x00000000
       51025000	      5101	80003eb0	00000013	addi	x0,x0,0	  x0:0x00000000
       51035000	      5102	80003eb4	026b7463	bgeu	x22,x6,80003edc	 x22:0x00000000  x6:0x80001061
       51045000	      5103	80003eb8	5c518393	addi	x7,x3,1477	  x3:0xfffffe3d  x7=0x00000402
       51055000	      5104	80003ebc	527ba313	slti	x6,x23,1319	 x23:0x00000000  x6=0x00000001
       51065000	      5105	80003ec0	4d25f517	auipc	x10,0x4d25f	 x10=0xcd262ebc
       51075000	      5106	80003ec4	0316e463	bltu	x13,x17,80003eec	 x13:0x00000000 x17:0x8000117b
       51085000	      5107	00000000	00000013	addi	x0,x0,0	  x0:0x00000000
       51095000	      5108	80003ee8	00000013	addi	x0,x0,0	  x0:0x00000000
       51105000	      5109	80003eec	6382c313	xori	x6,x5,1592	  x5:0xfb800000  x6=0xfb800638
       51115000	      5110	80003ef0	0096fc63	bgeu	x13,x9,80003f08	 x13:0x00000000  x9:0x80009fc4
       51125000	      5111	80003ef4	01df1833	sll	x16,x30,x29	 x30:0x00000000 x29:0x00000000 x16=0x00000000
       51135000	      5112	80003ef8	00000013	addi	x0,x0,0	  x0:0x00000000
       51145000	      5113	80003efc	00000013	addi	x0,x0,0	  x0:0x00000000
       51155000	      5114	80003f00	34861197	auipc	x3,0x34861	  x3=0xb4864efc
       51165000	      5115	80003f04	00e8cb33	xor	x22,x17,x14	 x17:0x8000117b x14:0x00005e4e x22=0x80004f35
       51175000	      5116	80003f08	007cdc63	bge	x25,x7,80003f20	 x25:0x00000000  x7:0x00000402
       51185000	      5117	80003f0c	ea3a3637	lui	x12,0xea3a3	 x12=0xea3a3000
       51195000	      5118	80003f10	00508433	add	x8,x1,x5	  x1:0xb46e6000  x5:0xfb800000  x8=0xafee6000
       51205000	      5119	80003f14	03dc0463	beq	x24,x29,80003f3c	 x24:0x8000117b x29:0x00000000
       51215000	      5120	80003f18	00d2d033	srl	x0,x5,x13	  x5:0xfb800000 x13:0x00000000
       51225000	      5121	80003f1c	e486f993	andi	x19,x13,-440	 x13:0x00000000 x19=0x00000000
       51235000	      5122	80003f20	017b1c93	slli	x25,x22,0x17	 x22:0x80004f35 x25=0x9a800000
       51245000	      5123	80003f24	01bbb3b3	sltu	x7,x23,x27	 x23:0x00000000 x27:0x00000001  x7=0x00000001
       51255000	      5124	80003f28	6f2a6793	ori	x15,x20,1778	 x20:0x80009f38 x15=0x80009ffa
       51265000	      5125	80003f2c	00000013	addi	x0,x0,0	  x0:0x00000000
       51275000	      5126	80003f30	03458463	beq	x11,x20,80003f58	 x11:0x00000001 x20:0x80009f38
       51285000	      5127	80003f34	7a4315b7	lui	x11,0x7a431	 x11=0x7a431000
       51295000	      5128	80003f38	006f8663	beq	x31,x6,80003f44	 x31:0x00000000  x6:0xfb800638
       51305000	      5129	80003f3c	5899cd93	xori	x27,x19,1417	 x19:0x00000000 x27=0x00000589
       51315000	      5130	80003f40	04bcc063	blt	x25,x11,80003f80	 x25:0x9a800000 x11:0x7a431000
       51325000	      5131	00000000	00000013	addi	x0,x0,0	  x0:0x00000000
       51335000	      5132	80003f7c	00000013	addi	x0,x0,0	  x0:0x00000000
       51345000	      5133	80003f80	0161fc63	bgeu	x3,x22,80003f98	  x3:0xb4864efc x22:0x80004f35
       51355000	      5134	00000000	00000013	addi	x0,x0,0	  x0:0x00000000
       51365000	      5135	80003f94	00000013	addi	x0,x0,0	  x0:0x00000000
       51375000	      5136	80003f98	9c46b893	sltiu	x17,x13,-1596	 x13:0x00000000 x17=0x00000001
       51385000	      5137	80003f9c	01554833	xor	x16,x10,x21	 x10:0xcd262ebc x21:0x00000001 x16=0xcd262ebd
       51395000	      5138	80003fa0	0faecc93	xori	x25,x29,250	 x29:0x00000000 x25=0x000000fa
       51405000	      5139	80003fa4	002b66b3	or	x13,x22,x2	 x22:0x80004f35  x2:0x00000001 x13=0x80004f35
       51415000	      5140	80003fa8	00039133	sll	x2,x7,x0	  x7:0x00000001  x0:0x00000000  x2=0x00000001
       51425000	      5141	80003fac	00cf2633	slt	x12,x30,x12	 x30:0x00000000 x12:0xea3a3000 x12=0x00000000
       51435000	      5142	80003fb0	01ea6c33	or	x24,x20,x30	 x20:0x80009f38 x30:0x00000000 x24=0x80009f38
       51445000	      5143	80003fb4	56ac0793	addi	x15,x24,1386	 x24:0x80009f38 x15=0x8000a4a2
       51455000	      5144	80003fb8	f3da7393	andi	x7,x20,-195	 x20:0x80009f38  x7=0x80009f38
       51465000	      5145	80003fbc	00000013	addi	x0,x0,0	  x0:0x00000000
       51475000	      5146	80003fc0	0061ce63	blt	x3,x6,80003fdc	  x3:0xb4864efc  x6:0xfb800638
       51485000	      5147	00000000	00000013	addi	x0,x0,0	  x0:0x00000000
       51495000	      5148	80003fd8	00000013	addi	x0,x0,0	  x0:0x00000000
       51505000	      5149	80003fdc	05678863	beq	x15,x22,8000402c	 x15:0x8000a4a2 x22:0x80004f35
       51515000	      5150	80003fe0	0105aeb3	slt	x29,x11,x16	 x11:0x7a431000 x16:0xcd262ebd x29=0x00000000
       51525000	      5151	80003fe4	004b66b3	or	x13,x22,x4	 x22:0x80004f35  x4:0xffffff7d x13=0xffffff7d
       51535000	      5152	80003fe8	00abd193	srli	x3,x23,0xa	 x23:0x00000000  x3=0x00000000
       51545000	      5153	80003fec	00be8863	beq	x29,x11,80003ffc	 x29:0x00000000 x11:0x7a431000
       51555000	      5154	80003ff0	27013793	sltiu	x15,x2,624	  x2:0x00000001 x15=0x00000001
       51565000	      5155	80003ff4	410a0433	sub	x8,x20,x16	 x20:0x80009f38 x16:0xcd262ebd  x8=0xb2da707b
       51575000	      5156	80003ff8	1bc47613	andi	x12,x8,444	  x8:0xb2da707b x12=0x00000038
       51585000	      5157	80003ffc	5e387f93	andi	x31,x16,1507	 x16:0xcd262ebd x31=0x000004a1
       51595000	      5158	80004000	47cc2693	slti	x13,x24,1148	 x24:0x80009f38 x13=0x00000001
       51605000	      5159	80004004	01f19e63	bne	x3,x31,80004020	  x3:0x00000000 x31:0x000004a1
       51615000	      5160	00000000	00000013	addi	x0,x0,0	  x0:0x00000000
       51625000	      5161	8000401c	00000013	addi	x0,x0,0	  x0:0x00000000
       51635000	      5162	80004020	8d81b513	sltiu	x10,x3,-1832	  x3:0x00000000 x10=0x00000001
       51645000	      5163	80004024	40e00cb3	sub	x25,x0,x14	  x0:0x00000000 x14:0x00005e4e x25=0xffffa1b2
       51655000	      5164	80004028	002c5f13	srli	x30,x24,0x2	 x24:0x80009f38 x30=0x200027ce
       51665000	      5165	8000402c	04ed7863	bgeu	x26,x14,8000407c	 x26:0x0000060d x14:0x00005e4e
       51675000	      5166	80004030	40be5f33	sra	x30,x28,x11	 x28:0x00000007 x11:0x7a431000 x30=0x00000007
       51685000	      5167	80004034	00094ab3	xor	x21,x18,x0	 x18:0x00000006  x0:0x00000000 x21=0x00000006
       51695000	      5168	80004038	732f4d93	xori	x27,x30,1842	 x30:0x00000007 x27=0x00000735
       51705000	      5169	8000403c	00e89d13	slli	x26,x17,0xe	 x17:0x00000001 x26=0x00004000
       51715000	      5170	80004040	e40bf413	andi	x8,x23,-448	 x23:0x00000000  x8=0x00000000
       51725000	      5171	80004044	00aa19b3	sll	x19,x20,x10	 x20:0x80009f38 x10:0x00000001 x19=0x00013e70
       51735000	      5172	80004048	41425233	sra	x4,x4,x20	  x4:0xffffff7d x20:0x80009f38  x4=0xffffffff
       51745000	      5173	8000404c	798d4593	xori	x11,x26,1944	 x26:0x00004000 x11=0x00004798
       51755000	      5174	80004050	00589813	slli	x16,x17,0x5	 x17:0x00000001 x16=0x00000020
       51765000	      5175	80004054	c84c9697	auipc	x13,0xc84c9	 x13=0x484cd050
       51775000	      5176	80004058	a1290c93	addi	x25,x18,-1518	 x18:0x00000006 x25=0xfffffa18
       51785000	      5177	8000405c	00094b33	xor	x22,x18,x0	 x18:0x00000006  x0:0x00000000 x22=0x00000006
       51795000	      5178	80004060	01501f13	slli	x30,x0,0x15	  x0:0x00000000 x30=0x00000000
       51805000	      5179	80004064	38933d93	sltiu	x27,x6,905	  x6:0xfb800638 x27=0x00000000
       51815000	      5180	80004068	007d77b3	and	x15,x26,x7	 x26:0x00004000  x7:0x80009f38 x15=0x00000000
       51825000	      5181	8000406c	01729a93	slli	x21,x5,0x17	  x5:0xfb800000 x21=0x00000000
       51835000	      5182	80004070	03f31663	bne	x6,x31,8000409c	  x6:0xfb800638 x31:0x000004a1
       51845000	      5183	00000000	00000013	addi	x0,x0,0	  x0:0x00000000
       51855000	      5184	80004098	00000013	addi	x0,x0,0	  x0:0x00000000
       51865000	      5185	8000409c	00548e33	add	x28,x9,x5	  x9:0x80009fc4  x5:0xfb800000 x28=0x7b809fc4
       51875000	      5186	800040a0	00627e63	bgeu	x4,x6,800040bc	  x4:0xffffffff  x6:0xfb800638
       51885000	      5187	00000000	00000013	addi	x0,x0,0	  x0:0x00000000
       51895000	      5188	800040b8	00000013	addi	x0,x0,0	  x0:0x00000000
       51905000	      5189	800040bc	40c5d2b3	sra	x5,x11,x12	 x11:0x00004798 x12:0x00000038  x5=0x00000000
       51915000	      5190	800040c0	40fb89b3	sub	x19,x23,x15	 x23:0x00000000 x15:0x00000000 x19=0x00000000
       51925000	      5191	800040c4	0424acb7	lui	x25,0x424a	 x25=0x0424a000
       51935000	      5192	800040c8	05c94063	blt	x18,x28,80004108	 x18:0x00000006 x28:0x7b809fc4
       51945000	      5193	00000000	00000013	addi	x0,x0,0	  x0:0x00000000
       51955000	      5194	80004104	00000013	addi	x0,x0,0	  x0:0x00000000
       51965000	      5195	80004108	415cd633	sra	x12,x25,x21	 x25:0x0424a000 x21:0x00000000 x12=0x0424a000
       51975000	      5196	8000410c	06215663	bge	x2,x2,80004178	  x2:0x00000001  x2:0x00000001
       51985000	      5197	00000000	00000013	addi	x0,x0,0	  x0:0x00000000
       51995000	      5198	80004174	00000013	addi	x0,x0,0	  x0:0x00000000
       52005000	      5199	80004178	03477463	bgeu	x14,x20,800041a0	 x14:0x00005e4e x20:0x80009f38
       52015000	      5200	8000417c	01771113	slli	x2,x14,0x17	 x14:0x00005e4e  x2=0x27000000
       52025000	      5201	80004180	00f2dc33	srl	x24,x5,x15	  x5:0x00000000 x15:0x00000000 x24=0x00000000
       52035000	      5202	80004184	9a4e1117	auipc	x2,0x9a4e1	  x2=0x1a4e5180
       52045000	      5203	80004188	000ab033	sltu	x0,x21,x0	 x21:0x00000000  x0:0x00000000
       52055000	      5204	8000418c	0064e7b3	or	x15,x9,x6	  x9:0x80009fc4  x6:0xfb800638 x15=0xfb809ffc
       52065000	      5205	80004190	00799db3	sll	x27,x19,x7	 x19:0x00000000  x7:0x80009f38 x27=0x00000000
       52075000	      5206	80004194	01956ab3	or	x21,x10,x25	 x10:0x00000001 x25:0x0424a000 x21=0x0424a001
       52085000	      5207	80004198	4111d593	srai	x11,x3,0x11	  x3:0x00000000 x11=0x00000000
       52095000	      5208	8000419c	00999b33	sll	x22,x19,x9	 x19:0x00000000  x9:0x80009fc4 x22=0x00000000
       52105000	      5209	800041a0	419753b3	sra	x7,x14,x25	 x14:0x00005e4e x25:0x0424a000  x7=0x00005e4e
       52115000	      5210	800041a4	b90f6813	ori	x16,x30,-1136	 x30:0x00000000 x16=0xfffffb90
       52125000	      5211	800041a8	010bbcb3	sltu	x25,x23,x16	 x23:0x00000000 x16:0xfffffb90 x25=0x00000001
       52135000	      5212	800041ac	01d5a0b3	slt	x1,x11,x29	 x11:0x00000000 x29:0x00000000  x1=0x00000000
       52145000	      5213	800041b0	011d5193	srli	x3,x26,0x11	 x26:0x00004000  x3=0x00000000
       52155000	      5214	800041b4	00687833	and	x16,x16,x6	 x16:0xfffffb90  x6:0xfb800638 x16=0xfb800210
       52165000	      5215	800041b8	01ea0e33	add	x28,x20,x30	 x20:0x80009f38 x30:0x00000000 x28=0x80009f38
       52175000	      5216	800041bc	0310e063	bltu	x1,x17,800041dc	  x1:0x00000000 x17:0x00000001
       52185000	      5217	00000000	00000013	addi	x0,x0,0	  x0:0x00000000
       52195000	      5218	800041d8	00000013	addi	x0,x0,0	  x0:0x00000000
       52205000	      5219	800041dc	17f0f6b7	lui	x13,0x17f0f	 x13=0x17f0f000
       52215000	      5220	800041e0	7e1a0813	addi	x16,x20,2017	 x20:0x80009f38 x16=0x8000a719
       52225000	      5221	800041e4	00aa9c93	slli	x25,x21,0xa	 x21:0x0424a001 x25=0x92800400
       52235000	      5222	800041e8	8517b293	sltiu	x5,x15,-1967	 x15:0xfb809ffc  x5=0x00000001
       52245000	      5223	800041ec	b56cb413	sltiu	x8,x25,-1194	 x25:0x92800400  x8=0x00000001
       52255000	      5224	800041f0	00b81733	sll	x14,x16,x11	 x16:0x8000a719 x11:0x00000000 x14=0x8000a719
       52265000	      5225	800041f4	042be063	bltu	x23,x2,80004234	 x23:0x00000000  x2:0x1a4e5180
       52275000	      5226	00000000	00000013	addi	x0,x0,0	  x0:0x00000000
       52285000	      5227	80004230	00000013	addi	x0,x0,0	  x0:0x00000000
       52295000	      5228	80004234	da63b813	sltiu	x16,x7,-602	  x7:0x00005e4e x16=0x00000001
       52305000	      5229	80004238	94ef3f13	sltiu	x30,x30,-1714	 x30:0x00000000 x30=0x00000001
       52315000	      5230	8000423c	00a3dd33	srl	x26,x7,x10	  x7:0x00005e4e x10:0x00000001 x26=0x00002f27
       52325000	      5231	80004240	0012c733	xor	x14,x5,x1	  x5:0x00000001  x1:0x00000000 x14=0x00000001
       52335000	      5232	80004244	00985d93	srli	x27,x16,0x9	 x16:0x00000001 x27=0x00000000
       52345000	      5233	80004248	81f1c393	xori	x7,x3,-2017	  x3:0x00000000  x7=0xfffff81f
       52355000	      5234	8000424c	55f86e93	ori	x29,x16,1375	 x16:0x00000001 x29=0x0000055f
       52365000	      5235	80004250	00000013	addi	x0,x0,0	  x0:0x00000000
       52375000	      5236	80004254	004d9c63	bne	x27,x4,8000426c	 x27:0x00000000  x4:0xffffffff
       52385000	      5237	00000000	00000013	addi	x0,x0,0	  x0:0x00000000
       52395000	      5238	80004268	00000013	addi	x0,x0,0	  x0:0x00000000
       52405000	      5239	8000426c	9b77bf17	auipc	x30,0x9b77b	 x30=0x1b77f268
       52415000	      5240	80004270	02f56e63	bltu	x10,x15,800042ac	 x10:0x00000001 x15:0xfb809ffc
       52425000	      5241	00000000	00000013	addi	x0,x0,0	  x0:0x00000000
       52435000	      5242	800042a8	00000013	addi	x0,x0,0	  x0:0x00000000
       52445000	      5243	800042ac	0124a733	slt	x14,x9,x18	  x9:0x80009fc4 x18:0x00000006 x14=0x00000001
       52455000	      5244	800042b0	00000013	addi	x0,x0,0	  x0:0x00000000
       52465000	      5245	800042b4	400addb3	sra	x27,x21,x0	 x21:0x0424a001  x0:0x00000000 x27=0x0424a001
       52475000	      5246	800042b8	00b3b2b3	sltu	x5,x7,x11	  x7:0xfffff81f x11:0x00000000  x5=0x00000000
       52485000	      5247	800042bc	018a10b3	sll	x1,x20,x24	 x20:0x80009f38 x24:0x00000000  x1=0x80009f38
       52495000	      5248	800042c0	407d8eb3	sub	x29,x27,x7	 x27:0x0424a001  x7:0xfffff81f x29=0x0424a7e2
       52505000	      5249	800042c4	012fa8b3	slt	x17,x31,x18	 x31:0x000004a1 x18:0x00000006 x17=0x00000000
       52515000	      5250	800042c8	de853393	sltiu	x7,x10,-536	 x10:0x00000001  x7=0x00000001
       52525000	      5251	800042cc	0523f663	bgeu	x7,x18,80004318	  x7:0x00000001 x18:0x00000006
       52535000	      5252	800042d0	64d96013	ori	x0,x18,1613	 x18:0x00000006
       52545000	      5253	800042d4	1baf3513	sltiu	x10,x30,442	 x30:0x1b77f268 x10=0x00000000
       52555000	      5254	800042d8	0037a133	slt	x2,x15,x3	 x15:0xfb809ffc  x3:0x00000000  x2=0x00000001
       52565000	      5255	800042dc	011040b3	xor	x1,x0,x17	  x0:0x00000000 x17:0x00000000  x1=0x00000000
       52575000	      5256	800042e0	00619393	slli	x7,x3,0x6	  x3:0x00000000  x7=0x00000000
       52585000	      5257	800042e4	00d0e1b3	or	x3,x1,x13	  x1:0x00000000 x13:0x17f0f000  x3=0x17f0f000
       52595000	      5258	800042e8	01275663	bge	x14,x18,800042f4	 x14:0x00000001 x18:0x00000006
       52605000	      5259	800042ec	d91ab313	sltiu	x6,x21,-623	 x21:0x0424a001  x6=0x00000001
       52615000	      5260	800042f0	0001adb3	slt	x27,x3,x0	  x3:0x17f0f000  x0:0x00000000 x27=0x00000000
       52625000	      5261	800042f4	fefa2537	lui	x10,0xfefa2	 x10=0xfefa2000
       52635000	      5262	800042f8	011662b3	or	x5,x12,x17	 x12:0x0424a000 x17:0x00000000  x5=0x0424a000
       52645000	      5263	800042fc	404c81b3	sub	x3,x25,x4	 x25:0x92800400  x4:0xffffffff  x3=0x92800401
       52655000	      5264	80004300	01e25e33	srl	x28,x4,x30	  x4:0xffffffff x30:0x1b77f268 x28=0x00ffffff
       52665000	      5265	80004304	0368f663	bgeu	x17,x22,80004330	 x17:0x00000000 x22:0x00000000
       52675000	      5266	00000000	00000013	addi	x0,x0,0	  x0:0x00000000
       52685000	      5267	8000432c	00000013	addi	x0,x0,0	  x0:0x00000000
       52695000	      5268	80004330	a78cbe13	sltiu	x28,x25,-1416	 x25:0x92800400 x28=0x00000001
       52705000	      5269	80004334	41920533	sub	x10,x4,x25	  x4:0xffffffff x25:0x92800400 x10=0x6d7ffbff
       52715000	      5270	80004338	007a50b3	srl	x1,x20,x7	 x20:0x80009f38  x7:0x00000000  x1=0x80009f38
       52725000	      5271	8000433c	00c06863	bltu	x0,x12,8000434c	  x0:0x00000000 x12:0x0424a000
       52735000	      5272	00000000	00000013	addi	x0,x0,0	  x0:0x00000000
       52745000	      5273	80004348	00000013	addi	x0,x0,0	  x0:0x00000000
       52755000	      5274	8000434c	50492b93	slti	x23,x18,1284	 x18:0x00000006 x23=0x00000001
       52765000	      5275	80004350	03db9463	bne	x23,x29,80004378	 x23:0x00000001 x29:0x0424a7e2
       52775000	      5276	00000000	00000013	addi	x0,x0,0	  x0:0x00000000
       52785000	      5277	80004374	00000013	addi	x0,x0,0	  x0:0x00000000
       52795000	      5278	80004378	031ac663	blt	x21,x17,800043a4	 x21:0x0424a001 x17:0x00000000
       52805000	      5279	8000437c	02c51e63	bne	x10,x12,800043b8	 x10:0x6d7ffbff x12:0x0424a000
       52815000	      5280	00000000	00000013	addi	x0,x0,0	  x0:0x00000000
       52825000	      5281	800043b4	00000013	addi	x0,x0,0	  x0:0x00000000
       52835000	      5282	800043b8	e391fb13	andi	x22,x3,-455	  x3:0x92800401 x22=0x92800401
       52845000	      5283	800043bc	f364e313	ori	x6,x9,-202	  x9:0x80009fc4  x6=0xfffffff6
       52855000	      5284	800043c0	01ea1a93	slli	x21,x20,0x1e	 x20:0x80009f38 x21=0x00000000
       52865000	      5285	800043c4	406f6313	ori	x6,x30,1030	 x30:0x1b77f268  x6=0x1b77f66e
       52875000	      5286	800043c8	013da5b3	slt	x11,x27,x19	 x27:0x00000000 x19:0x00000000 x11=0x00000000
       52885000	      5287	800043cc	01f31833	sll	x16,x6,x31	  x6:0x1b77f66e x31:0x000004a1 x16=0x36efecdc
       52895000	      5288	800043d0	d5af2c13	slti	x24,x30,-678	 x30:0x1b77f268 x24=0x00000000
       52905000	      5289	800043d4	002a4263	blt	x20,x2,800043d8	 x20:0x80009f38  x2:0x00000001
       52915000	      5290	00000000	00000013	addi	x0,x0,0	  x0:0x00000000
       52925000	      5291	800043d4	00000013	addi	x0,x0,0	  x0:0x00000000
       52935000	      5292	800043d8	025e7713	andi	x14,x28,37	 x28:0x00000001 x14=0x00000001
       52945000	      5293	800043dc	eba4bf13	sltiu	x30,x9,-326	  x9:0x80009fc4 x30=0x00000001
       52955000	      5294	800043e0	00000013	addi	x0,x0,0	  x0:0x00000000
       52965000	      5295	800043e4	0100c663	blt	x1,x16,800043f0	  x1:0x80009f38 x16:0x36efecdc
       52975000	      5296	00000000	00000013	addi	x0,x0,0	  x0:0x00000000
       52985000	      5297	800043ec	00000013	addi	x0,x0,0	  x0:0x00000000
       52995000	      5298	800043f0	010a9e93	slli	x29,x21,0x10	 x21:0x00000000 x29=0x00000000
       53005000	      5299	800043f4	5461ef93	ori	x31,x3,1350	  x3:0x92800401 x31=0x92800547
       53015000	      5300	800043f8	02d17e63	bgeu	x2,x13,80004434	  x2:0x00000001 x13:0x17f0f000
       53025000	      5301	800043fc	00a65133	srl	x2,x12,x10	 x12:0x0424a000 x10:0x6d7ffbff  x2=0x00000000
       53035000	      5302	80004400	0152f6b3	and	x13,x5,x21	  x5:0x0424a000 x21:0x00000000 x13=0x00000000
       53045000	      5303	80004404	00c36fb3	or	x31,x6,x12	  x6:0x1b77f66e x12:0x0424a000 x31=0x1f77f66e
       53055000	      5304	80004408	00062833	slt	x16,x12,x0	 x12:0x0424a000  x0:0x00000000 x16=0x00000000
       53065000	      5305	8000440c	11ccce13	xori	x28,x25,284	 x25:0x92800400 x28=0x9280051c
       53075000	      5306	80004410	00f02f33	slt	x30,x0,x15	  x0:0x00000000 x15:0xfb809ffc x30=0x00000000
       53085000	      5307	80004414	01dc5d33	srl	x26,x24,x29	 x24:0x00000000 x29:0x00000000 x26=0x00000000
       53095000	      5308	80004418	c427ca93	xori	x21,x15,-958	 x15:0xfb809ffc x21=0x047f63be
       53105000	      5309	8000441c	004fee63	bltu	x31,x4,80004438	 x31:0x1f77f66e  x4:0xffffffff
       53115000	      5310	00000000	00000013	addi	x0,x0,0	  x0:0x00000000
       53125000	      5311	80004434	00000013	addi	x0,x0,0	  x0:0x00000000
       53135000	      5312	80004438	402e5093	srai	x1,x28,0x2	 x28:0x9280051c  x1=0xe4a00147
       53145000	      5313	8000443c	4052dcb3	sra	x25,x5,x5	  x5:0x0424a000  x5:0x0424a000 x25=0x0424a000
       53155000	      5314	80004440	00abf033	and	x0,x23,x10	 x23:0x00000001 x10:0x6d7ffbff
       53165000	      5315	80004444	019bec63	bltu	x23,x25,8000445c	 x23:0x00000001 x25:0x0424a000
       53175000	      5316	00000000	00000013	addi	x0,x0,0	  x0:0x00000000
       53185000	      5317	80004458	00000013	addi	x0,x0,0	  x0:0x00000000
       53195000	      5318	8000445c	03df5663	bge	x30,x29,80004488	 x30:0x00000000 x29:0x00000000
       53205000	      5319	00000000	00000013	addi	x0,x0,0	  x0:0x00000000
       53215000	      5320	80004484	00000013	addi	x0,x0,0	  x0:0x00000000
       53225000	      5321	80004488	40b55213	srai	x4,x10,0xb	 x10:0x6d7ffbff  x4=0x000dafff
       53235000	      5322	8000448c	57b3a013	slti	x0,x7,1403	  x7:0x00000000
       53245000	      5323	80004490	481df193	andi	x3,x27,1153	 x27:0x00000000  x3=0x00000000
       53255000	      5324	80004494	e9adbf13	sltiu	x30,x27,-358	 x27:0x00000000 x30=0x00000001
       53265000	      5325	80004498	01435093	srli	x1,x6,0x14	  x6:0x1b77f66e  x1=0x000001b7
       53275000	      5326	8000449c	00480c63	beq	x16,x4,800044b4	 x16:0x00000000  x4:0x000dafff
       53285000	      5327	800044a0	41f685b3	sub	x11,x13,x31	 x13:0x00000000 x31:0x1f77f66e x11=0xe0880992
       53295000	      5328	800044a4	41058633	sub	x12,x11,x16	 x11:0xe0880992 x16:0x00000000 x12=0xe0880992
       53305000	      5329	800044a8	01021c63	bne	x4,x16,800044c0	  x4:0x000dafff x16:0x00000000
       53315000	      5330	00000000	00000013	addi	x0,x0,0	  x0:0x00000000
       53325000	      5331	800044bc	00000013	addi	x0,x0,0	  x0:0x00000000
       53335000	      5332	800044c0	009360b3	or	x1,x6,x9	  x6:0x1b77f66e  x9:0x80009fc4  x1=0x9b77ffee
       53345000	      5333	800044c4	03bcd663	bge	x25,x27,800044f0	 x25:0x0424a000 x27:0x00000000
       53355000	      5334	00000000	00000013	addi	x0,x0,0	  x0:0x00000000
       53365000	      5335	800044ec	00000013	addi	x0,x0,0	  x0:0x00000000
       53375000	      5336	800044f0	01644863	blt	x8,x22,80004500	  x8:0x00000001 x22:0x92800401
       53385000	      5337	800044f4	00ceadb3	slt	x27,x29,x12	 x29:0x00000000 x12:0xe0880992 x27=0x00000000
       53395000	      5338	800044f8	36884093	xori	x1,x16,872	 x16:0x00000000  x1=0x00000368
       53405000	      5339	800044fc	00cbe5b3	or	x11,x23,x12	 x23:0x00000001 x12:0xe0880992 x11=0xe0880993
       53415000	      5340	80004500	00997f33	and	x30,x18,x9	 x18:0x00000006  x9:0x80009fc4 x30=0x00000004
       53425000	      5341	80004504	00071233	sll	x4,x14,x0	 x14:0x00000001  x0:0x00000000  x4=0x00000001
       53435000	      5342	80004508	41d95fb3	sra	x31,x18,x29	 x18:0x00000006 x29:0x00000000 x31=0x00000006
       53445000	      5343	8000450c	00768013	addi	x0,x13,7	 x13:0x00000000
       53455000	      5344	80004510	7b0d4f93	xori	x31,x26,1968	 x26:0x00000000 x31=0x000007b0
       53465000	      5345	80004514	01859333	sll	x6,x11,x24	 x11:0xe0880993 x24:0x00000000  x6=0xe0880993
       53475000	      5346	80004518	60174437	lui	x8,0x60174	  x8=0x60174000
       53485000	      5347	8000451c	00d67663	bgeu	x12,x13,80004528	 x12:0xe0880992 x13:0x00000000
       53495000	      5348	00000000	00000013	addi	x0,x0,0	  x0:0x00000000
       53505000	      5349	80004524	00000013	addi	x0,x0,0	  x0:0x00000000
       53515000	      5350	80004528	00b27263	bgeu	x4,x11,8000452c	  x4:0x00000001 x11:0xe0880993
       53525000	      5351	8000452c	01c14eb3	xor	x29,x2,x28	  x2:0x00000000 x28:0x9280051c x29=0x9280051c
       53535000	      5352	80004530	41d9df33	sra	x30,x19,x29	 x19:0x00000000 x29:0x9280051c x30=0x00000000
       53545000	      5353	80004534	026c8e63	beq	x25,x6,80004570	 x25:0x0424a000  x6:0xe0880993
       53555000	      5354	80004538	40b65ab3	sra	x21,x12,x11	 x12:0xe0880992 x11:0xe0880993 x21=0xfffffc11
       53565000	      5355	8000453c	41405533	sra	x10,x0,x20	  x0:0x00000000 x20:0x80009f38 x10=0x00000000
       53575000	      5356	80004540	f1993e93	sltiu	x29,x18,-231	 x18:0x00000006 x29=0x00000001
       53585000	      5357	80004544	01e75663	bge	x14,x30,80004550	 x14:0x00000001 x30:0x00000000
       53595000	      5358	00000000	00000013	addi	x0,x0,0	  x0:0x00000000
       53605000	      5359	8000454c	00000013	addi	x0,x0,0	  x0:0x00000000
       53615000	      5360	80004550	009136b3	sltu	x13,x2,x9	  x2:0x00000000  x9:0x80009fc4 x13=0x00000001
       53625000	      5361	80004554	d400bf13	sltiu	x30,x1,-704	  x1:0x00000368 x30=0x00000001
       53635000	      5362	80004558	01473ab3	sltu	x21,x14,x20	 x14:0x00000001 x20:0x80009f38 x21=0x00000001
       53645000	      5363	8000455c	4037d333	sra	x6,x15,x3	 x15:0xfb809ffc  x3:0x00000000  x6=0xfb809ffc
       53655000	      5364	80004560	0012d313	srli	x6,x5,0x1	  x5:0x0424a000  x6=0x02125000
       53665000	      5365	80004564	035b7a63	bgeu	x22,x21,80004598	 x22:0x92800401 x21:0x00000001
       53675000	      5366	00000000	00000013	addi	x0,x0,0	  x0:0x00000000
       53685000	      5367	80004594	00000013	addi	x0,x0,0	  x0:0x00000000
       53695000	      5368	80004598	002c6263	bltu	x24,x2,8000459c	 x24:0x00000000  x2:0x00000000
       53705000	      5369	8000459c	00fbd813	srli	x16,x23,0xf	 x23:0x00000001 x16=0x00000000
       53715000	      5370	800045a0	00036033	or	x0,x6,x0	  x6:0x02125000  x0:0x00000000
       53725000	      5371	800045a4	01680c33	add	x24,x16,x22	 x16:0x00000000 x22:0x92800401 x24=0x92800401
       53735000	      5372	800045a8	00181863	bne	x16,x1,800045b8	 x16:0x00000000  x1:0x00000368
       53745000	      5373	00000000	00000013	addi	x0,x0,0	  x0:0x00000000
       53755000	      5374	800045b4	00000013	addi	x0,x0,0	  x0:0x00000000
       53765000	      5375	800045b8	0099c2b3	xor	x5,x19,x9	 x19:0x00000000  x9:0x80009fc4  x5=0x80009fc4
       53775000	      5376	800045bc	5b270293	addi	x5,x14,1458	 x14:0x00000001  x5=0x000005b3
       53785000	      5377	800045c0	009e5793	srli	x15,x28,0x9	 x28:0x9280051c x15=0x00494002
       53795000	      5378	800045c4	aac5ab93	slti	x23,x11,-1364	 x11:0xe0880993 x23=0x00000001
       53805000	      5379	800045c8	01c7d663	bge	x15,x28,800045d4	 x15:0x00494002 x28:0x9280051c
       53815000	      5380	00000000	00000013	addi	x0,x0,0	  x0:0x00000000
       53825000	      5381	800045d0	00000013	addi	x0,x0,0	  x0:0x00000000
       53835000	      5382	800045d4	077bc837	lui	x16,0x77bc	 x16=0x077bc000
       53845000	      5383	800045d8	00000013	addi	x0,x0,0	  x0:0x00000000
       53855000	      5384	800045dc	00000013	addi	x0,x0,0	  x0:0x00000000
       53865000	      5385	800045e0	41ddd813	srai	x16,x27,0x1d	 x27:0x00000000 x16=0x00000000
       53875000	      5386	800045e4	013dbb33	sltu	x22,x27,x19	 x27:0x00000000 x19:0x00000000 x22=0x00000000
       53885000	      5387	800045e8	00595b93	srli	x23,x18,0x5	 x18:0x00000006 x23=0x00000000
       53895000	      5388	800045ec	008088b3	add	x17,x1,x8	  x1:0x00000368  x8:0x60174000 x17=0x60174368
       53905000	      5389	800045f0	90a87393	andi	x7,x16,-1782	 x16:0x00000000  x7=0x00000000
       53915000	      5390	800045f4	1ff43013	sltiu	x0,x8,511	  x8:0x60174000
       53925000	      5391	800045f8	40a806b3	sub	x13,x16,x10	 x16:0x00000000 x10:0x00000000 x13=0x00000000
       53935000	      5392	800045fc	00c80c63	beq	x16,x12,80004614	 x16:0x00000000 x12:0xe0880992
       53945000	      5393	80004600	006219b3	sll	x19,x4,x6	  x4:0x00000001  x6:0x02125000 x19=0x00000001
       53955000	      5394	80004604	3538bf37	lui	x30,0x3538b	 x30=0x3538b000
       53965000	      5395	80004608	015b9f13	slli	x30,x23,0x15	 x23:0x00000000 x30=0x00000000
       53975000	      5396	8000460c	e33a3d13	sltiu	x26,x20,-461	 x20:0x80009f38 x26=0x00000001
       53985000	      5397	80004610	010ec233	xor	x4,x29,x16	 x29:0x00000001 x16:0x00000000  x4=0x00000001
       53995000	      5398	80004614	0157de13	srli	x28,x15,0x15	 x15:0x00494002 x28=0x00000002
       54005000	      5399	80004618	01587463	bgeu	x16,x21,80004620	 x16:0x00000000 x21:0x00000001
       54015000	      5400	8000461c	004f8263	beq	x31,x4,80004620	 x31:0x000007b0  x4:0x00000001
       54025000	      5401	80004620	413c8433	sub	x8,x25,x19	 x25:0x0424a000 x19:0x00000001  x8=0x04249fff
       54035000	      5402	80004624	0094cab3	xor	x21,x9,x9	  x9:0x80009fc4  x9:0x80009fc4 x21=0x00000000
       54045000	      5403	80004628	f95a0717	auipc	x14,0xf95a0	 x14=0x795a4624
       54055000	      5404	8000462c	004a2303	lw	x6,4(x20)	 x20:0x80009f38  x6=0x800046cc PA:0x80009f3c
       54065000	      5405	80004630	00ca0a13	addi	x20,x20,12	 x20:0x80009f38 x20=0x80009f44
       54075000	      5406	80004634	40a481b3	sub	x3,x9,x10	  x9:0x80009fc4 x10:0x00000000  x3=0x80009fc4
       54085000	      5407	80004638	00a036b3	sltu	x13,x0,x10	  x0:0x00000000 x10:0x00000000 x13=0x00000000
       54095000	      5408	8000463c	00000013	addi	x0,x0,0	  x0:0x00000000
       54105000	      5409	80004640	01779433	sll	x8,x15,x23	 x15:0x00494002 x23:0x00000000  x8=0x00494002
       54115000	      5410	80004644	00030513	addi	x10,x6,0	  x6:0x800046cc x10=0x800046cc
       54125000	      5411	80004648	00050567	jalr	x10,x10,0	 x10:0x800046cc x10=0x80004648
       54135000	      5412	00000000	00000013	addi	x0,x0,0	  x0:0x00000000
       54145000	      5413	800046cc	00000013	addi	x0,x0,0	  x0:0x00000000
       54155000	      5414	800046d0	ce542c93	slti	x25,x8,-795	  x8:0x00494002 x25=0x00000000
       54165000	      5415	800046d4	41e08db3	sub	x27,x1,x30	  x1:0x00000368 x30:0x00000000 x27=0x00000368
       54175000	      5416	800046d8	01c67863	bgeu	x12,x28,800046e8	 x12:0xe0880992 x28:0x00000002
       54185000	      5417	00000000	00000013	addi	x0,x0,0	  x0:0x00000000
       54195000	      5418	800046e4	00000013	addi	x0,x0,0	  x0:0x00000000
       54205000	      5419	800046e8	1316f593	andi	x11,x13,305	 x13:0x00000000 x11=0x00000000
       54215000	      5420	800046ec	01518433	add	x8,x3,x21	  x3:0x80009fc4 x21:0x00000000  x8=0x80009fc4
       54225000	      5421	800046f0	01975193	srli	x3,x14,0x19	 x14:0x795a4624  x3=0x0000003c
       54235000	      5422	800046f4	04e28597	auipc	x11,0x4e28	 x11=0x84e2c6f0
       54245000	      5423	800046f8	6c700e13	addi	x28,x0,1735	  x0:0x00000000 x28=0x000006c7
       54255000	      5424	800046fc	018b2133	slt	x2,x22,x24	 x22:0x00000000 x24:0x92800401  x2=0x00000000
       54265000	      5425	80004700	002c1893	slli	x17,x24,0x2	 x24:0x92800401 x17=0x4a001004
       54275000	      5426	80004704	00575a63	bge	x14,x5,80004718	 x14:0x795a4624  x5:0x000005b3
       54285000	      5427	00000000	00000013	addi	x0,x0,0	  x0:0x00000000
       54295000	      5428	80004714	00000013	addi	x0,x0,0	  x0:0x00000000
       54305000	      5429	80004718	00c0c863	blt	x1,x12,80004728	  x1:0x00000368 x12:0xe0880992
       54315000	      5430	8000471c	0029db93	srli	x23,x19,0x2	 x19:0x00000001 x23=0x00000000
       54325000	      5431	80004720	01142233	slt	x4,x8,x17	  x8:0x80009fc4 x17:0x4a001004  x4=0x00000001
       54335000	      5432	80004724	012715b3	sll	x11,x14,x18	 x14:0x795a4624 x18:0x00000006 x11=0x56918900
       54345000	      5433	80004728	01899713	slli	x14,x19,0x18	 x19:0x00000001 x14=0x01000000
       54355000	      5434	8000472c	004a2303	lw	x6,4(x20)	 x20:0x80009f44  x6=0x80002408 PA:0x80009f48
       54365000	      5435	80004730	e03a8293	addi	x5,x21,-509	 x21:0x00000000  x5=0xfffffe03
       54375000	      5436	80004734	00e0bdb3	sltu	x27,x1,x14	  x1:0x00000368 x14:0x01000000 x27=0x00000001
       54385000	      5437	80004738	018a0a13	addi	x20,x20,24	 x20:0x80009f44 x20=0x80009f5c
       54395000	      5438	8000473c	00279413	slli	x8,x15,0x2	 x15:0x00494002  x8=0x01250008
       54405000	      5439	80004740	00e4ffb3	and	x31,x9,x14	  x9:0x80009fc4 x14:0x01000000 x31=0x00000000
       54415000	      5440	80004744	00030b13	addi	x22,x6,0	  x6:0x80002408 x22=0x80002408
       54425000	      5441	80004748	000b0b67	jalr	x22,x22,0	 x22:0x80002408 x22=0x80004748
       54435000	      5442	00000000	00000013	addi	x0,x0,0	  x0:0x00000000
       54445000	      5443	80002408	00000013	addi	x0,x0,0	  x0:0x00000000
       54455000	      5444	8000240c	03cc9c63	bne	x25,x28,80002444	 x25:0x00000000 x28:0x000006c7
       54465000	      5445	00000000	00000013	addi	x0,x0,0	  x0:0x00000000
       54475000	      5446	80002440	00000013	addi	x0,x0,0	  x0:0x00000000
       54485000	      5447	80002444	0571f263	bgeu	x3,x23,80002488	  x3:0x0000003c x23:0x00000000
       54495000	      5448	00000000	00000013	addi	x0,x0,0	  x0:0x00000000
       54505000	      5449	80002484	00000013	addi	x0,x0,0	  x0:0x00000000
       54515000	      5450	80002488	95f86c93	ori	x25,x16,-1697	 x16:0x00000000 x25=0xfffff95f
       54525000	      5451	8000248c	00487c63	bgeu	x16,x4,800024a4	 x16:0x00000000  x4:0x00000001
       54535000	      5452	80002490	411a7413	andi	x8,x20,1041	 x20:0x80009f5c  x8=0x00000410
       54545000	      5453	80002494	00d9bcb3	sltu	x25,x19,x13	 x19:0x00000001 x13:0x00000000 x25=0x00000000
       54555000	      5454	80002498	40a309b3	sub	x19,x6,x10	  x6:0x80002408 x10:0x80004648 x19=0xffffddc0
       54565000	      5455	8000249c	6b123593	sltiu	x11,x4,1713	  x4:0x00000001 x11=0x00000001
       54575000	      5456	800024a0	00c5d7b3	srl	x15,x11,x12	 x11:0x00000001 x12:0xe0880992 x15=0x00000000
       54585000	      5457	800024a4	00346d33	or	x26,x8,x3	  x8:0x00000410  x3:0x0000003c x26=0x0000043c
       54595000	      5458	800024a8	00099513	slli	x10,x19,0x0	 x19:0xffffddc0 x10=0xffffddc0
       54605000	      5459	800024ac	001fa1b3	slt	x3,x31,x1	 x31:0x00000000  x1:0x00000368  x3=0x00000001
       54615000	      5460	800024b0	01b4deb3	srl	x29,x9,x27	  x9:0x80009fc4 x27:0x00000001 x29=0x40004fe2
       54625000	      5461	800024b4	922c6693	ori	x13,x24,-1758	 x24:0x92800401 x13=0xfffffd23
       54635000	      5462	800024b8	03be5863	bge	x28,x27,800024e8	 x28:0x000006c7 x27:0x00000001
       54645000	      5463	00000000	00000013	addi	x0,x0,0	  x0:0x00000000
       54655000	      5464	800024e4	00000013	addi	x0,x0,0	  x0:0x00000000
       54665000	      5465	800024e8	011a77b3	and	x15,x20,x17	 x20:0x80009f5c x17:0x4a001004 x15=0x00001004
       54675000	      5466	800024ec	a69d0c13	addi	x24,x26,-1431	 x26:0x0000043c x24=0xfffffea5
       54685000	      5467	800024f0	00670863	beq	x14,x6,80002500	 x14:0x01000000  x6:0x80002408
       54695000	      5468	800024f4	043d4063	blt	x26,x3,80002534	 x26:0x0000043c  x3:0x00000001
       54705000	      5469	800024f8	001f4863	blt	x30,x1,80002508	 x30:0x00000000  x1:0x00000368
       54715000	      5470	00000000	00000013	addi	x0,x0,0	  x0:0x00000000
       54725000	      5471	80002504	00000013	addi	x0,x0,0	  x0:0x00000000
       54735000	      5472	80002508	017ed313	srli	x6,x29,0x17	 x29:0x40004fe2  x6=0x00000080
       54745000	      5473	8000250c	04829663	bne	x5,x8,80002558	  x5:0xfffffe03  x8:0x00000410
       54755000	      5474	00000000	00000013	addi	x0,x0,0	  x0:0x00000000
       54765000	      5475	80002554	00000013	addi	x0,x0,0	  x0:0x00000000
       54775000	      5476	80002558	018d9463	bne	x27,x24,80002560	 x27:0x00000001 x24:0xfffffea5
       54785000	      5477	00000000	00000013	addi	x0,x0,0	  x0:0x00000000
       54795000	      5478	8000255c	00000013	addi	x0,x0,0	  x0:0x00000000
       54805000	      5479	80002560	41280d33	sub	x26,x16,x18	 x16:0x00000000 x18:0x00000006 x26=0xfffffffa
       54815000	      5480	80002564	00000013	addi	x0,x0,0	  x0:0x00000000
       54825000	      5481	80002568	028f4c63	blt	x30,x8,800025a0	 x30:0x00000000  x8:0x00000410
       54835000	      5482	00000000	00000013	addi	x0,x0,0	  x0:0x00000000
       54845000	      5483	8000259c	00000013	addi	x0,x0,0	  x0:0x00000000
       54855000	      5484	800025a0	a03812b7	lui	x5,0xa0381	  x5=0xa0381000
       54865000	      5485	800025a4	004db6b3	sltu	x13,x27,x4	 x27:0x00000001  x4:0x00000001 x13=0x00000000
       54875000	      5486	800025a8	95cc3713	sltiu	x14,x24,-1700	 x24:0xfffffea5 x14=0x00000000
       54885000	      5487	800025ac	010d68b3	or	x17,x26,x16	 x26:0xfffffffa x16:0x00000000 x17=0xfffffffa
       54895000	      5488	800025b0	001a12b3	sll	x5,x20,x1	 x20:0x80009f5c  x1:0x00000368  x5=0x009f5c00
       54905000	      5489	800025b4	6846eb13	ori	x22,x13,1668	 x13:0x00000000 x22=0x00000684
       54915000	      5490	800025b8	40f700b3	sub	x1,x14,x15	 x14:0x00000000 x15:0x00001004  x1=0xffffeffc
       54925000	      5491	800025bc	00db1333	sll	x6,x22,x13	 x22:0x00000684 x13:0x00000000  x6=0x00000684
       54935000	      5492	800025c0	002c62b3	or	x5,x24,x2	 x24:0xfffffea5  x2:0x00000000  x5=0xfffffea5
       54945000	      5493	800025c4	405e5333	sra	x6,x28,x5	 x28:0x000006c7  x5:0xfffffea5  x6=0x00000036
       54955000	      5494	800025c8	04b8c463	blt	x17,x11,80002610	 x17:0xfffffffa x11:0x00000001
       54965000	      5495	00000000	00000013	addi	x0,x0,0	  x0:0x00000000
       54975000	      5496	8000260c	00000013	addi	x0,x0,0	  x0:0x00000000
       54985000	      5497	80002610	026c5463	bge	x24,x6,80002638	 x24:0xfffffea5  x6:0x00000036
       54995000	      5498	80002614	02040463	beq	x8,x0,8000263c	  x8:0x00000410  x0:0x00000000
       55005000	      5499	80002618	007259b3	srl	x19,x4,x7	  x4:0x00000001  x7:0x00000000 x19=0x00000001
       55015000	      5500	8000261c	00597ab3	and	x21,x18,x5	 x18:0x00000006  x5:0xfffffea5 x21=0x00000004
       55025000	      5501	80002620	d30df313	andi	x6,x27,-720	 x27:0x00000001  x6=0x00000000
       55035000	      5502	80002624	2ce31837	lui	x16,0x2ce31	 x16=0x2ce31000
       55045000	      5503	80002628	017ffdb3	and	x27,x31,x23	 x31:0x00000000 x23:0x00000000 x27=0x00000000
       55055000	      5504	8000262c	00000013	addi	x0,x0,0	  x0:0x00000000
       55065000	      5505	80002630	b0524893	xori	x17,x4,-1275	  x4:0x00000001 x17=0xfffffb04
       55075000	      5506	80002634	00a28733	add	x14,x5,x10	  x5:0xfffffea5 x10:0xffffddc0 x14=0xffffdc65
       55085000	      5507	80002638	01f34b33	xor	x22,x6,x31	  x6:0x00000000 x31:0x00000000 x22=0x00000000
       55095000	      5508	8000263c	018dfa63	bgeu	x27,x24,80002650	 x27:0x00000000 x24:0xfffffea5
       55105000	      5509	80002640	1fd50f93	addi	x31,x10,509	 x10:0xffffddc0 x31=0xffffdfbd
       55115000	      5510	80002644	bc04a697	auipc	x13,0xbc04a	 x13=0x3c04c640
       55125000	      5511	80002648	92987393	andi	x7,x16,-1751	 x16:0x2ce31000  x7=0x2ce31000
       55135000	      5512	8000264c	019b5d93	srli	x27,x22,0x19	 x22:0x00000000 x27=0x00000000
       55145000	      5513	80002650	021bc063	blt	x23,x1,80002670	 x23:0x00000000  x1:0xffffeffc
       55155000	      5514	80002654	40730db3	sub	x27,x6,x7	  x6:0x00000000  x7:0x2ce31000 x27=0xd31cf000
       55165000	      5515	80002658	0c550793	addi	x15,x10,197	 x10:0xffffddc0 x15=0xffffde85
       55175000	      5516	8000265c	01c13b33	sltu	x22,x2,x28	  x2:0x00000000 x28:0x000006c7 x22=0x00000001
       55185000	      5517	80002660	edf8e213	ori	x4,x17,-289	 x17:0xfffffb04  x4=0xffffffdf
       55195000	      5518	80002664	00b085b3	add	x11,x1,x11	  x1:0xffffeffc x11:0x00000001 x11=0xffffeffd
       55205000	      5519	80002668	40fad213	srai	x4,x21,0xf	 x21:0x00000004  x4=0x00000000
       55215000	      5520	8000266c	00000013	addi	x0,x0,0	  x0:0x00000000
       55225000	      5521	80002670	0b157263	bgeu	x10,x17,80002714	 x10:0xffffddc0 x17:0xfffffb04
       55235000	      5522	80002674	4ccd3e93	sltiu	x29,x26,1228	 x26:0xfffffffa x29=0x00000000
       55245000	      5523	80002678	0931fa63	bgeu	x3,x19,8000270c	  x3:0x00000001 x19:0x00000001
       55255000	      5524	00000000	00000013	addi	x0,x0,0	  x0:0x00000000
       55265000	      5525	80002708	00000013	addi	x0,x0,0	  x0:0x00000000
       55275000	      5526	8000270c	002dfdb3	and	x27,x27,x2	 x27:0xd31cf000  x2:0x00000000 x27=0x00000000
       55285000	      5527	80002710	25e96f13	ori	x30,x18,606	 x18:0x00000006 x30=0x0000025e
       55295000	      5528	80002714	d65ee813	ori	x16,x29,-667	 x29:0x00000000 x16=0xfffffd65
       55305000	      5529	80002718	41d9deb3	sra	x29,x19,x29	 x19:0x00000001 x29:0x00000000 x29=0x00000001
       55315000	      5530	8000271c	c41e0c93	addi	x25,x28,-959	 x28:0x000006c7 x25=0x00000308
       55325000	      5531	80002720	01165b13	srli	x22,x12,0x11	 x12:0xe0880992 x22=0x00007044
       55335000	      5532	80002724	00505893	srli	x17,x0,0x5	  x0:0x00000000 x17=0x00000000
       55345000	      5533	80002728	0723ec63	bltu	x7,x18,800027a0	  x7:0x2ce31000 x18:0x00000006
       55355000	      5534	8000272c	006db433	sltu	x8,x27,x6	 x27:0x00000000  x6:0x00000000  x8=0x00000000
       55365000	      5535	80002730	022f7c63	bgeu	x30,x2,80002768	 x30:0x0000025e  x2:0x00000000
       55375000	      5536	00000000	00000013	addi	x0,x0,0	  x0:0x00000000
       55385000	      5537	80002764	00000013	addi	x0,x0,0	  x0:0x00000000
       55395000	      5538	80002768	01ea6463	bltu	x20,x30,80002770	 x20:0x80009f5c x30:0x0000025e
       55405000	      5539	8000276c	01585d13	srli	x26,x16,0x15	 x16:0xfffffd65 x26=0x000007ff
       55415000	      5540	80002770	00072fb3	slt	x31,x14,x0	 x14:0xffffdc65  x0:0x00000000 x31=0x00000001
       55425000	      5541	80002774	97d6ca93	xori	x21,x13,-1667	 x13:0x3c04c640 x21=0xc3fb3f3d
       55435000	      5542	80002778	01cdd113	srli	x2,x27,0x1c	 x27:0x00000000  x2=0x00000000
       55445000	      5543	8000277c	0433e263	bltu	x7,x3,800027c0	  x7:0x2ce31000  x3:0x00000001
       55455000	      5544	80002780	031d6a63	bltu	x26,x17,800027b4	 x26:0x000007ff x17:0x00000000
       55465000	      5545	80002784	b040a013	slti	x0,x1,-1276	  x1:0xffffeffc
       55475000	      5546	80002788	01420033	add	x0,x4,x20	  x4:0x00000000 x20:0x80009f5c
       55485000	      5547	8000278c	16922013	slti	x0,x4,361	  x4:0x00000000
       55495000	      5548	80002790	40a9db93	srai	x23,x19,0xa	 x19:0x00000001 x23=0x00000000
       55505000	      5549	80002794	d0778d13	addi	x26,x15,-761	 x15:0xffffde85 x26=0xffffdb8c
       55515000	      5550	80002798	009955b3	srl	x11,x18,x9	 x18:0x00000006  x9:0x80009fc4 x11=0x00000000
       55525000	      5551	8000279c	f9dbe793	ori	x15,x23,-99	 x23:0x00000000 x15=0xffffff9d
       55535000	      5552	800027a0	405bd813	srai	x16,x23,0x5	 x23:0x00000000 x16=0x00000000
       55545000	      5553	800027a4	bd7e7313	andi	x6,x28,-1065	 x28:0x000006c7  x6=0x000002c7
       55555000	      5554	800027a8	02caf863	bgeu	x21,x12,800027d8	 x21:0xc3fb3f3d x12:0xe0880992
       55565000	      5555	800027ac	016fe863	bltu	x31,x22,800027bc	 x31:0x00000001 x22:0x00007044
       55575000	      5556	00000000	00000013	addi	x0,x0,0	  x0:0x00000000
       55585000	      5557	800027b8	00000013	addi	x0,x0,0	  x0:0x00000000
       55595000	      5558	800027bc	001c4e33	xor	x28,x24,x1	 x24:0xfffffea5  x1:0xffffeffc x28=0x00001159
       55605000	      5559	800027c0	006e5a63	bge	x28,x6,800027d4	 x28:0x00001159  x6:0x000002c7
       55615000	      5560	00000000	00000013	addi	x0,x0,0	  x0:0x00000000
       55625000	      5561	800027d0	00000013	addi	x0,x0,0	  x0:0x00000000
       55635000	      5562	800027d4	01b75813	srli	x16,x14,0x1b	 x14:0xffffdc65 x16=0x0000001f
       55645000	      5563	800027d8	01164533	xor	x10,x12,x17	 x12:0xe0880992 x17:0x00000000 x10=0xe0880992
       55655000	      5564	800027dc	ebc63597	auipc	x11,0xebc63	 x11=0x6bc657d8
       55665000	      5565	800027e0	415e52b3	sra	x5,x28,x21	 x28:0x00001159 x21:0xc3fb3f3d  x5=0x00000000
       55675000	      5566	800027e4	012fe8b3	or	x17,x31,x18	 x31:0x00000001 x18:0x00000006 x17=0x00000007
       55685000	      5567	800027e8	00457033	and	x0,x10,x4	 x10:0xe0880992  x4:0x00000000
       55695000	      5568	800027ec	00666463	bltu	x12,x6,800027f4	 x12:0xe0880992  x6:0x000002c7
       55705000	      5569	800027f0	01e400b3	add	x1,x8,x30	  x8:0x00000000 x30:0x0000025e  x1=0x0000025e
       55715000	      5570	800027f4	eb318293	addi	x5,x3,-333	  x3:0x00000001  x5=0xfffffeb4
       55725000	      5571	800027f8	08e28263	beq	x5,x14,8000287c	  x5:0xfffffeb4 x14:0xffffdc65
       55735000	      5572	800027fc	6d391797	auipc	x15,0x6d391	 x15=0xed3937f8
       55745000	      5573	80002800	008302b3	add	x5,x6,x8	  x6:0x000002c7  x8:0x00000000  x5=0x000002c7
       55755000	      5574	80002804	dc0f8193	addi	x3,x31,-576	 x31:0x00000001  x3=0xfffffdc1
       55765000	      5575	80002808	003e73b3	and	x7,x28,x3	 x28:0x00001159  x3:0xfffffdc1  x7=0x00001141
       55775000	      5576	8000280c	a3b32793	slti	x15,x6,-1477	  x6:0x000002c7 x15=0x00000000
       55785000	      5577	80002810	bd737f17	auipc	x30,0xbd737	 x30=0x3d73980c
       55795000	      5578	80002814	002bbfb3	sltu	x31,x23,x2	 x23:0x00000000  x2:0x00000000 x31=0x00000000
       55805000	      5579	80002818	07c8dc63	bge	x17,x28,80002890	 x17:0x00000007 x28:0x00001159
       55815000	      5580	8000281c	045fc863	blt	x31,x5,8000286c	 x31:0x00000000  x5:0x000002c7
       55825000	      5581	00000000	00000013	addi	x0,x0,0	  x0:0x00000000
       55835000	      5582	80002868	00000013	addi	x0,x0,0	  x0:0x00000000
       55845000	      5583	8000286c	da146813	ori	x16,x8,-607	  x8:0x00000000 x16=0xfffffda1
       55855000	      5584	80002870	bfa4bd93	sltiu	x27,x9,-1030	  x9:0x80009fc4 x27=0x00000001
       55865000	      5585	80002874	009fe7b3	or	x15,x31,x9	 x31:0x00000000  x9:0x80009fc4 x15=0x80009fc4
       55875000	      5586	80002878	6fa1ef93	ori	x31,x3,1786	  x3:0xfffffdc1 x31=0xfffffffb
       55885000	      5587	8000287c	015995b3	sll	x11,x19,x21	 x19:0x00000001 x21:0xc3fb3f3d x11=0x20000000
       55895000	      5588	80002880	012cadb3	slt	x27,x25,x18	 x25:0x00000308 x18:0x00000006 x27=0x00000000
       55905000	      5589	80002884	013887b3	add	x15,x17,x19	 x17:0x00000007 x19:0x00000001 x15=0x00000008
       55915000	      5590	80002888	016813b3	sll	x7,x16,x22	 x16:0xfffffda1 x22:0x00007044  x7=0xffffda10
       55925000	      5591	8000288c	008b0033	add	x0,x22,x8	 x22:0x00007044  x8:0x00000000
       55935000	      5592	80002890	00b29f13	slli	x30,x5,0xb	  x5:0x000002c7 x30=0x00163800
       55945000	      5593	80002894	016dd8b3	srl	x17,x27,x22	 x27:0x00000000 x22:0x00007044 x17=0x00000000
       55955000	      5594	80002898	023c6863	bltu	x24,x3,800028c8	 x24:0xfffffea5  x3:0xfffffdc1
       55965000	      5595	8000289c	4035d2b3	sra	x5,x11,x3	 x11:0x20000000  x3:0xfffffdc1  x5=0x10000000
       55975000	      5596	800028a0	057f5263	bge	x30,x23,800028e4	 x30:0x00163800 x23:0x00000000
       55985000	      5597	00000000	00000013	addi	x0,x0,0	  x0:0x00000000
       55995000	      5598	800028e0	00000013	addi	x0,x0,0	  x0:0x00000000
       56005000	      5599	800028e4	00a94ab3	xor	x21,x18,x10	 x18:0x00000006 x10:0xe0880992 x21=0xe0880994
       56015000	      5600	800028e8	014a0633	add	x12,x20,x20	 x20:0x80009f5c x20:0x80009f5c x12=0x00013eb8
       56025000	      5601	800028ec	00a9f833	and	x16,x19,x10	 x19:0x00000001 x10:0xe0880992 x16=0x00000000
       56035000	      5602	800028f0	014ac5b3	xor	x11,x21,x20	 x21:0xe0880994 x20:0x80009f5c x11=0x608896c8
       56045000	      5603	800028f4	dbd50993	addi	x19,x10,-579	 x10:0xe0880992 x19=0xe088074f
       56055000	      5604	800028f8	001a27b3	slt	x15,x20,x1	 x20:0x80009f5c  x1:0x0000025e x15=0x00000001
       56065000	      5605	800028fc	7bc02413	slti	x8,x0,1980	  x0:0x00000000  x8=0x00000001
       56075000	      5606	80002900	00543eb3	sltu	x29,x8,x5	  x8:0x00000001  x5:0x10000000 x29=0x00000001
       56085000	      5607	80002904	01b01db3	sll	x27,x0,x27	  x0:0x00000000 x27:0x00000000 x27=0x00000000
       56095000	      5608	80002908	62fcc393	xori	x7,x25,1583	 x25:0x00000308  x7=0x00000527
       56105000	      5609	8000290c	000a6bb3	or	x23,x20,x0	 x20:0x80009f5c  x0:0x00000000 x23=0x80009f5c
       56115000	      5610	80002910	007a5463	bge	x20,x7,80002918	 x20:0x80009f5c  x7:0x00000527
       56125000	      5611	80002914	06116e63	bltu	x2,x1,80002990	  x2:0x00000000  x1:0x0000025e
       56135000	      5612	00000000	00000013	addi	x0,x0,0	  x0:0x00000000
       56145000	      5613	8000298c	00000013	addi	x0,x0,0	  x0:0x00000000
       56155000	      5614	80002990	01aa9c93	slli	x25,x21,0x1a	 x21:0xe0880994 x25=0x50000000
       56165000	      5615	80002994	7e9d0e93	addi	x29,x26,2025	 x26:0xffffdb8c x29=0xffffe375
       56175000	      5616	80002998	02b6f463	bgeu	x13,x11,800029c0	 x13:0x3c04c640 x11:0x608896c8
       56185000	      5617	8000299c	f3e5b197	auipc	x3,0xf3e5b	  x3=0x73e5d998
       56195000	      5618	800029a0	042b4463	blt	x22,x2,800029e8	 x22:0x00007044  x2:0x00000000
       56205000	      5619	800029a4	0125d533	srl	x10,x11,x18	 x11:0x608896c8 x18:0x00000006 x10=0x0182225b
       56215000	      5620	800029a8	01eb5d33	srl	x26,x22,x30	 x22:0x00007044 x30:0x00163800 x26=0x00007044
       56225000	      5621	800029ac	03766863	bltu	x12,x23,800029dc	 x12:0x00013eb8 x23:0x80009f5c
       56235000	      5622	00000000	00000013	addi	x0,x0,0	  x0:0x00000000
       56245000	      5623	800029d8	00000013	addi	x0,x0,0	  x0:0x00000000
       56255000	      5624	800029dc	007a6863	bltu	x20,x7,800029ec	 x20:0x80009f5c  x7:0x00000527
       56265000	      5625	800029e0	41f25313	srai	x6,x4,0x1f	  x4:0x00000000  x6=0x00000000
       56275000	      5626	800029e4	41e38eb3	sub	x29,x7,x30	  x7:0x00000527 x30:0x00163800 x29=0xffe9cd27
       56285000	      5627	800029e8	3cd53793	sltiu	x15,x10,973	 x10:0x0182225b x15=0x00000000
       56295000	      5628	800029ec	40705fb3	sra	x31,x0,x7	  x0:0x00000000  x7:0x00000527 x31=0x00000000
       56305000	      5629	800029f0	01678db3	add	x27,x15,x22	 x15:0x00000000 x22:0x00007044 x27=0x00007044
       56315000	      5630	800029f4	013dd3b3	srl	x7,x27,x19	 x27:0x00007044 x19:0xe088074f  x7=0x00000000
       56325000	      5631	800029f8	01c3fc63	bgeu	x7,x28,80002a10	  x7:0x00000000 x28:0x00001159
       56335000	      5632	800029fc	01a51d33	sll	x26,x10,x26	 x10:0x0182225b x26:0x00007044 x26=0x182225b0
       56345000	      5633	80002a00	01513d33	sltu	x26,x2,x21	  x2:0x00000000 x21:0xe0880994 x26=0x00000001
       56355000	      5634	80002a04	b5c0a693	slti	x13,x1,-1188	  x1:0x0000025e x13=0x00000000
       56365000	      5635	80002a08	001bcdb3	xor	x27,x23,x1	 x23:0x80009f5c  x1:0x0000025e x27=0x80009d02
       56375000	      5636	80002a0c	00099b13	slli	x22,x19,0x0	 x19:0xe088074f x22=0xe088074f
       56385000	      5637	80002a10	05f40063	beq	x8,x31,80002a50	  x8:0x00000001 x31:0x00000000
       56395000	      5638	80002a14	c4c27413	andi	x8,x4,-948	  x4:0x00000000  x8=0x00000000
       56405000	      5639	80002a18	00bc4d33	xor	x26,x24,x11	 x24:0xfffffea5 x11:0x608896c8 x26=0x9f77686d
       56415000	      5640	80002a1c	01ca2033	slt	x0,x20,x28	 x20:0x80009f5c x28:0x00001159
       56425000	      5641	80002a20	00ce1863	bne	x28,x12,80002a30	 x28:0x00001159 x12:0x00013eb8
       56435000	      5642	00000000	00000013	addi	x0,x0,0	  x0:0x00000000
       56445000	      5643	80002a2c	00000013	addi	x0,x0,0	  x0:0x00000000
       56455000	      5644	80002a30	00000013	addi	x0,x0,0	  x0:0x00000000
       56465000	      5645	80002a34	1e90f613	andi	x12,x1,489	  x1:0x0000025e x12=0x00000048
       56475000	      5646	80002a38	00c097b3	sll	x15,x1,x12	  x1:0x0000025e x12:0x00000048 x15=0x00025e00
       56485000	      5647	80002a3c	01561693	slli	x13,x12,0x15	 x12:0x00000048 x13=0x09000000
       56495000	      5648	80002a40	008d6133	or	x2,x26,x8	 x26:0x9f77686d  x8:0x00000000  x2=0x9f77686d
       56505000	      5649	80002a44	05745263	bge	x8,x23,80002a88	  x8:0x00000000 x23:0x80009f5c
       56515000	      5650	00000000	00000013	addi	x0,x0,0	  x0:0x00000000
       56525000	      5651	80002a84	00000013	addi	x0,x0,0	  x0:0x00000000
       56535000	      5652	80002a88	3d5dfd13	andi	x26,x27,981	 x27:0x80009d02 x26=0x00000100
       56545000	      5653	80002a8c	7c85a613	slti	x12,x11,1992	 x11:0x608896c8 x12=0x00000000
       56555000	      5654	80002a90	01f0db13	srli	x22,x1,0x1f	  x1:0x0000025e x22=0x00000000
       56565000	      5655	80002a94	00420a63	beq	x4,x4,80002aa8	  x4:0x00000000  x4:0x00000000
       56575000	      5656	00000000	00000013	addi	x0,x0,0	  x0:0x00000000
       56585000	      5657	80002aa4	00000013	addi	x0,x0,0	  x0:0x00000000
       56595000	      5658	80002aa8	00412033	slt	x0,x2,x4	  x2:0x9f77686d  x4:0x00000000
       56605000	      5659	80002aac	ca1fb793	sltiu	x15,x31,-863	 x31:0x00000000 x15=0x00000001
       56615000	      5660	80002ab0	009b33b3	sltu	x7,x22,x9	 x22:0x00000000  x9:0x80009fc4  x7=0x00000001
       56625000	      5661	80002ab4	0265b993	sltiu	x19,x11,38	 x11:0x608896c8 x19=0x00000000
       56635000	      5662	80002ab8	0112ae33	slt	x28,x5,x17	  x5:0x10000000 x17:0x00000000 x28=0x00000000
       56645000	      5663	80002abc	41bfddb3	sra	x27,x31,x27	 x31:0x00000000 x27:0x80009d02 x27=0x00000000
       56655000	      5664	80002ac0	01c083b3	add	x7,x1,x28	  x1:0x0000025e x28:0x00000000  x7=0x0000025e
       56665000	      5665	80002ac4	f0bc0437	lui	x8,0xf0bc0	  x8=0xf0bc0000
       56675000	      5666	80002ac8	30f13213	sltiu	x4,x2,783	  x2:0x9f77686d  x4=0x00000000
       56685000	      5667	80002acc	01fee833	or	x16,x29,x31	 x29:0xffe9cd27 x31:0x00000000 x16=0xffe9cd27
       56695000	      5668	80002ad0	0081e463	bltu	x3,x8,80002ad8	  x3:0x73e5d998  x8:0xf0bc0000
       56705000	      5669	00000000	00000013	addi	x0,x0,0	  x0:0x00000000
       56715000	      5670	80002ad4	00000013	addi	x0,x0,0	  x0:0x00000000
       56725000	      5671	80002ad8	042c5663	bge	x24,x2,80002b24	 x24:0xfffffea5  x2:0x9f77686d
       56735000	      5672	00000000	00000013	addi	x0,x0,0	  x0:0x00000000
       56745000	      5673	80002b20	00000013	addi	x0,x0,0	  x0:0x00000000
       56755000	      5674	80002b24	003ee863	bltu	x29,x3,80002b34	 x29:0xffe9cd27  x3:0x73e5d998
       56765000	      5675	80002b28	336d8537	lui	x10,0x336d8	 x10=0x336d8000
       56775000	      5676	80002b2c	00c4fd33	and	x26,x9,x12	  x9:0x80009fc4 x12:0x00000000 x26=0x00000000
       56785000	      5677	80002b30	00925193	srli	x3,x4,0x9	  x4:0x00000000  x3=0x00000000
       56795000	      5678	80002b34	40408733	sub	x14,x1,x4	  x1:0x0000025e  x4:0x00000000 x14=0x0000025e
       56805000	      5679	80002b38	01cf6833	or	x16,x30,x28	 x30:0x00163800 x28:0x00000000 x16=0x00163800
       56815000	      5680	80002b3c	02d38593	addi	x11,x7,45	  x7:0x0000025e x11=0x0000028b
       56825000	      5681	80002b40	afc14837	lui	x16,0xafc14	 x16=0xafc14000
       56835000	      5682	80002b44	41525633	sra	x12,x4,x21	  x4:0x00000000 x21:0xe0880994 x12=0x00000000
       56845000	      5683	80002b48	0080d813	srli	x16,x1,0x8	  x1:0x0000025e x16=0x00000002
       56855000	      5684	80002b4c	8d97bb37	lui	x22,0x8d97b	 x22=0x8d97b000
       56865000	      5685	80002b50	9847c613	xori	x12,x15,-1660	 x15:0x00000001 x12=0xfffff985
       56875000	      5686	80002b54	621e6613	ori	x12,x28,1569	 x28:0x00000000 x12=0x00000621
       56885000	      5687	80002b58	ce558a93	addi	x21,x11,-795	 x11:0x0000028b x21=0xffffff70
       56895000	      5688	80002b5c	407ed033	sra	x0,x29,x7	 x29:0xffe9cd27  x7:0x0000025e
       56905000	      5689	80002b60	018cb8b3	sltu	x17,x25,x24	 x25:0x50000000 x24:0xfffffea5 x17=0x00000001
       56915000	      5690	80002b64	003f02b3	add	x5,x30,x3	 x30:0x00163800  x3:0x00000000  x5=0x00163800
       56925000	      5691	80002b68	02dbc663	blt	x23,x13,80002b94	 x23:0x80009f5c x13:0x09000000
       56935000	      5692	00000000	00000013	addi	x0,x0,0	  x0:0x00000000
       56945000	      5693	80002b90	00000013	addi	x0,x0,0	  x0:0x00000000
       56955000	      5694	80002b94	883fd537	lui	x10,0x883fd	 x10=0x883fd000
       56965000	      5695	80002b98	de8a2f13	slti	x30,x20,-536	 x20:0x80009f5c x30=0x00000001
       56975000	      5696	80002b9c	02576263	bltu	x14,x5,80002bc0	 x14:0x0000025e  x5:0x00163800
       56985000	      5697	00000000	00000013	addi	x0,x0,0	  x0:0x00000000
       56995000	      5698	80002bbc	00000013	addi	x0,x0,0	  x0:0x00000000
       57005000	      5699	80002bc0	01910463	beq	x2,x25,80002bc8	  x2:0x9f77686d x25:0x50000000
       57015000	      5700	80002bc4	001a3eb3	sltu	x29,x20,x1	 x20:0x80009f5c  x1:0x0000025e x29=0x00000000
       57025000	      5701	80002bc8	ddd24b97	auipc	x23,0xddd24	 x23=0x5dd26bc4
       57035000	      5702	80002bcc	9d5b5ab7	lui	x21,0x9d5b5	 x21=0x9d5b5000
       57045000	      5703	80002bd0	00000013	addi	x0,x0,0	  x0:0x00000000
       57055000	      5704	80002bd4	01767233	and	x4,x12,x23	 x12:0x00000621 x23:0x5dd26bc4  x4=0x00000200
       57065000	      5705	80002bd8	000f5e93	srli	x29,x30,0x0	 x30:0x00000001 x29=0x00000001
       57075000	      5706	80002bdc	00000013	addi	x0,x0,0	  x0:0x00000000
       57085000	      5707	80002be0	10fee993	ori	x19,x29,271	 x29:0x00000001 x19=0x0000010f
       57095000	      5708	80002be4	0196b9b3	sltu	x19,x13,x25	 x13:0x09000000 x25:0x50000000 x19=0x00000001
       57105000	      5709	80002be8	016e1e13	slli	x28,x28,0x16	 x28:0x00000000 x28=0x00000000
       57115000	      5710	80002bec	8054e413	ori	x8,x9,-2043	  x9:0x80009fc4  x8=0xffffffc5
       57125000	      5711	80002bf0	e7feca93	xori	x21,x29,-385	 x29:0x00000001 x21=0xfffffe7e
       57135000	      5712	80002bf4	02e70a63	beq	x14,x14,80002c28	 x14:0x0000025e x14:0x0000025e
       57145000	      5713	00000000	00000013	addi	x0,x0,0	  x0:0x00000000
       57155000	      5714	80002c24	00000013	addi	x0,x0,0	  x0:0x00000000
       57165000	      5715	80002c28	40a78ab3	sub	x21,x15,x10	 x15:0x00000001 x10:0x883fd000 x21=0x77c03001
       57175000	      5716	80002c2c	9ebf0c13	addi	x24,x30,-1557	 x30:0x00000001 x24=0xfffff9ec
       57185000	      5717	80002c30	03e19863	bne	x3,x30,80002c60	  x3:0x00000000 x30:0x00000001
       57195000	      5718	00000000	00000013	addi	x0,x0,0	  x0:0x00000000
       57205000	      5719	80002c5c	00000013	addi	x0,x0,0	  x0:0x00000000
       57215000	      5720	80002c60	040a5263	bge	x20,x0,80002ca4	 x20:0x80009f5c  x0:0x00000000
       57225000	      5721	80002c64	38cc6e13	ori	x28,x24,908	 x24:0xfffff9ec x28=0xfffffbec
       57235000	      5722	80002c68	015a5393	srli	x7,x20,0x15	 x20:0x80009f5c  x7=0x00000400
       57245000	      5723	80002c6c	01a97cb3	and	x25,x18,x26	 x18:0x00000006 x26:0x00000000 x25=0x00000000
       57255000	      5724	80002c70	01301fb3	sll	x31,x0,x19	  x0:0x00000000 x19:0x00000001 x31=0x00000000
       57265000	      5725	80002c74	00b50863	beq	x10,x11,80002c84	 x10:0x883fd000 x11:0x0000028b
       57275000	      5726	80002c78	02beea63	bltu	x29,x11,80002cac	 x29:0x00000001 x11:0x0000028b
       57285000	      5727	00000000	00000013	addi	x0,x0,0	  x0:0x00000000
       57295000	      5728	80002ca8	00000013	addi	x0,x0,0	  x0:0x00000000
       57305000	      5729	80002cac	01558a63	beq	x11,x21,80002cc0	 x11:0x0000028b x21:0x77c03001
       57315000	      5730	80002cb0	0168a1b3	slt	x3,x17,x22	 x17:0x00000001 x22:0x8d97b000  x3=0x00000000
       57325000	      5731	80002cb4	00000013	addi	x0,x0,0	  x0:0x00000000
       57335000	      5732	80002cb8	d2d7fa93	andi	x21,x15,-723	 x15:0x00000001 x21=0x00000001
       57345000	      5733	80002cbc	7667e113	ori	x2,x15,1894	 x15:0x00000001  x2=0x00000767
       57355000	      5734	80002cc0	daddc613	xori	x12,x27,-595	 x27:0x00000000 x12=0xfffffdad
       57365000	      5735	80002cc4	01f88463	beq	x17,x31,80002ccc	 x17:0x00000001 x31:0x00000000
       57375000	      5736	80002cc8	01f10333	add	x6,x2,x31	  x2:0x00000767 x31:0x00000000  x6=0x00000767
       57385000	      5737	80002ccc	01641213	slli	x4,x8,0x16	  x8:0xffffffc5  x4=0xf1400000
       57395000	      5738	80002cd0	00176863	bltu	x14,x1,80002ce0	 x14:0x0000025e  x1:0x0000025e
       57405000	      5739	80002cd4	d9f60d93	addi	x27,x12,-609	 x12:0xfffffdad x27=0xfffffb4c
       57415000	      5740	80002cd8	03657a63	bgeu	x10,x22,80002d0c	 x10:0x883fd000 x22:0x8d97b000
       57425000	      5741	80002cdc	00071c93	slli	x25,x14,0x0	 x14:0x0000025e x25=0x0000025e
       57435000	      5742	80002ce0	76194693	xori	x13,x18,1889	 x18:0x00000006 x13=0x00000767
       57445000	      5743	80002ce4	01be5433	srl	x8,x28,x27	 x28:0xfffffbec x27:0xfffffb4c  x8=0x000fffff
       57455000	      5744	80002ce8	00000013	addi	x0,x0,0	  x0:0x00000000
       57465000	      5745	80002cec	ca68f213	andi	x4,x17,-858	 x17:0x00000001  x4=0x00000000
       57475000	      5746	80002cf0	41d9de93	srai	x29,x19,0x1d	 x19:0x00000001 x29=0x00000000
       57485000	      5747	80002cf4	01248863	beq	x9,x18,80002d04	  x9:0x80009fc4 x18:0x00000006
       57495000	      5748	80002cf8	0237f463	bgeu	x15,x3,80002d20	 x15:0x00000001  x3:0x00000000
       57505000	      5749	00000000	00000013	addi	x0,x0,0	  x0:0x00000000
       57515000	      5750	80002d1c	00000013	addi	x0,x0,0	  x0:0x00000000
       57525000	      5751	80002d20	62774e93	xori	x29,x14,1575	 x14:0x0000025e x29=0x00000479
       57535000	      5752	80002d24	b539f793	andi	x15,x19,-1197	 x19:0x00000001 x15=0x00000001
       57545000	      5753	80002d28	01b4aeb3	slt	x29,x9,x27	  x9:0x80009fc4 x27:0xfffffb4c x29=0x00000001
       57555000	      5754	80002d2c	d311ac13	slti	x24,x3,-719	  x3:0x00000000 x24=0x00000000
       57565000	      5755	80002d30	855ef813	andi	x16,x29,-1963	 x29:0x00000001 x16=0x00000001
       57575000	      5756	80002d34	0144b233	sltu	x4,x9,x20	  x9:0x80009fc4 x20:0x80009f5c  x4=0x00000000
       57585000	      5757	80002d38	00a4f863	bgeu	x9,x10,80002d48	  x9:0x80009fc4 x10:0x883fd000
       57595000	      5758	80002d3c	73a7cb93	xori	x23,x15,1850	 x15:0x00000001 x23=0x0000073b
       57605000	      5759	80002d40	403d02b3	sub	x5,x26,x3	 x26:0x00000000  x3:0x00000000  x5=0x00000000
       57615000	      5760	80002d44	3bbb0b93	addi	x23,x22,955	 x22:0x8d97b000 x23=0x8d97b3bb
       57625000	      5761	80002d48	01621e13	slli	x28,x4,0x16	  x4:0x00000000 x28=0x00000000
       57635000	      5762	80002d4c	41ea5993	srai	x19,x20,0x1e	 x20:0x80009f5c x19=0xfffffffe
       57645000	      5763	80002d50	80d32d13	slti	x26,x6,-2035	  x6:0x00000767 x26=0x00000000
       57655000	      5764	80002d54	4124d733	sra	x14,x9,x18	  x9:0x80009fc4 x18:0x00000006 x14=0xfe00027f
       57665000	      5765	80002d58	05730063	beq	x6,x23,80002d98	  x6:0x00000767 x23:0x8d97b3bb
       57675000	      5766	80002d5c	9e3a8213	addi	x4,x21,-1565	 x21:0x00000001  x4=0xfffff9e4
       57685000	      5767	80002d60	401f59b3	sra	x19,x30,x1	 x30:0x00000001  x1:0x0000025e x19=0x00000000
       57695000	      5768	80002d64	00000013	addi	x0,x0,0	  x0:0x00000000
       57705000	      5769	80002d68	0181f863	bgeu	x3,x24,80002d78	  x3:0x00000000 x24:0x00000000
       57715000	      5770	00000000	00000013	addi	x0,x0,0	  x0:0x00000000
       57725000	      5771	80002d74	00000013	addi	x0,x0,0	  x0:0x00000000
       57735000	      5772	80002d78	71dc3213	sltiu	x4,x24,1821	 x24:0x00000000  x4=0x00000001
       57745000	      5773	80002d7c	3a07ff17	auipc	x30,0x3a07f	 x30=0xba081d78
       57755000	      5774	80002d80	394a7897	auipc	x17,0x394a7	 x17=0xb94a9d7c
       57765000	      5775	80002d84	04db6463	bltu	x22,x13,80002dcc	 x22:0x8d97b000 x13:0x00000767
       57775000	      5776	80002d88	e6dc4fb7	lui	x31,0xe6dc4	 x31=0xe6dc4000
       57785000	      5777	80002d8c	00db2bb3	slt	x23,x22,x13	 x22:0x8d97b000 x13:0x00000767 x23=0x00000001
       57795000	      5778	80002d90	1bf16413	ori	x8,x2,447	  x2:0x00000767  x8=0x000007ff
       57805000	      5779	80002d94	32042617	auipc	x12,0x32042	 x12=0xb2044d90
       57815000	      5780	80002d98	f14df593	andi	x11,x27,-236	 x27:0xfffffb4c x11=0xfffffb04
       57825000	      5781	80002d9c	002272b3	and	x5,x4,x2	  x4:0x00000001  x2:0x00000767  x5=0x00000001
       57835000	      5782	80002da0	00a60bb3	add	x23,x12,x10	 x12:0xb2044d90 x10:0x883fd000 x23=0x3a441d90
       57845000	      5783	80002da4	662d7593	andi	x11,x26,1634	 x26:0x00000000 x11=0x00000000
       57855000	      5784	80002da8	517f4d13	xori	x26,x30,1303	 x30:0xba081d78 x26=0xba08186f
       57865000	      5785	80002dac	02c2c863	blt	x5,x12,80002ddc	  x5:0x00000001 x12:0xb2044d90
       57875000	      5786	80002db0	013b9c63	bne	x23,x19,80002dc8	 x23:0x3a441d90 x19:0x00000000
       57885000	      5787	00000000	00000013	addi	x0,x0,0	  x0:0x00000000
       57895000	      5788	80002dc4	00000013	addi	x0,x0,0	  x0:0x00000000
       57905000	      5789	80002dc8	40805eb3	sra	x29,x0,x8	  x0:0x00000000  x8:0x000007ff x29=0x00000000
       57915000	      5790	80002dcc	7f12f213	andi	x4,x5,2033	  x5:0x00000001  x4=0x00000001
       57925000	      5791	80002dd0	007ddd33	srl	x26,x27,x7	 x27:0xfffffb4c  x7:0x00000400 x26=0xfffffb4c
       57935000	      5792	80002dd4	01a2d633	srl	x12,x5,x26	  x5:0x00000001 x26:0xfffffb4c x12=0x00000000
       57945000	      5793	80002dd8	74660593	addi	x11,x12,1862	 x12:0x00000000 x11=0x00000746
       57955000	      5794	80002ddc	d63c3013	sltiu	x0,x24,-669	 x24:0x00000000
       57965000	      5795	80002de0	41510cb3	sub	x25,x2,x21	  x2:0x00000767 x21:0x00000001 x25=0x00000766
       57975000	      5796	80002de4	006bbe33	sltu	x28,x23,x6	 x23:0x3a441d90  x6:0x00000767 x28=0x00000000
       57985000	      5797	80002de8	0100e833	or	x16,x1,x16	  x1:0x0000025e x16:0x00000001 x16=0x0000025f
       57995000	      5798	80002dec	01cb9f33	sll	x30,x23,x28	 x23:0x3a441d90 x28:0x00000000 x30=0x3a441d90
       58005000	      5799	80002df0	01407633	and	x12,x0,x20	  x0:0x00000000 x20:0x80009f5c x12=0x00000000
       58015000	      5800	80002df4	01b65193	srli	x3,x12,0x1b	 x12:0x00000000  x3=0x00000000
       58025000	      5801	80002df8	03878463	beq	x15,x24,80002e20	 x15:0x00000001 x24:0x00000000
       58035000	      5802	80002dfc	4ff8c137	lui	x2,0x4ff8c	  x2=0x4ff8c000
       58045000	      5803	80002e00	b99f2393	slti	x7,x30,-1127	 x30:0x3a441d90  x7=0x00000000
       58055000	      5804	80002e04	013b6133	or	x2,x22,x19	 x22:0x8d97b000 x19:0x00000000  x2=0x8d97b000
       58065000	      5805	80002e08	007b53b3	srl	x7,x22,x7	 x22:0x8d97b000  x7:0x00000000  x7=0x8d97b000
       58075000	      5806	80002e0c	0e7bbe93	sltiu	x29,x23,231	 x23:0x3a441d90 x29=0x00000000
       58085000	      5807	80002e10	03691c63	bne	x18,x22,80002e48	 x18:0x00000006 x22:0x8d97b000
       58095000	      5808	00000000	00000013	addi	x0,x0,0	  x0:0x00000000
       58105000	      5809	80002e44	00000013	addi	x0,x0,0	  x0:0x00000000
       58115000	      5810	80002e48	00000013	addi	x0,x0,0	  x0:0x00000000
       58125000	      5811	80002e4c	40ffd517	auipc	x10,0x40ffd	 x10=0xc0fffe48
       58135000	      5812	80002e50	022f0063	beq	x30,x2,80002e70	 x30:0x3a441d90  x2:0x8d97b000
       58145000	      5813	80002e54	00f51333	sll	x6,x10,x15	 x10:0xc0fffe48 x15:0x00000001  x6=0x81fffc90
       58155000	      5814	80002e58	015b2e33	slt	x28,x22,x21	 x22:0x8d97b000 x21:0x00000001 x28=0x00000001
       58165000	      5815	80002e5c	a2390813	addi	x16,x18,-1501	 x18:0x00000006 x16=0xfffffa29
       58175000	      5816	80002e60	011c6c33	or	x24,x24,x17	 x24:0x00000000 x17:0xb94a9d7c x24=0xb94a9d7c
       58185000	      5817	80002e64	00ccbd33	sltu	x26,x25,x12	 x25:0x00000766 x12:0x00000000 x26=0x00000000
       58195000	      5818	80002e68	4d3cf993	andi	x19,x25,1235	 x25:0x00000766 x19=0x00000442
       58205000	      5819	80002e6c	41ecd113	srai	x2,x25,0x1e	 x25:0x00000766  x2=0x00000000
       58215000	      5820	80002e70	41f10eb3	sub	x29,x2,x31	  x2:0x00000000 x31:0xe6dc4000 x29=0x1923c000
       58225000	      5821	80002e74	0039ddb3	srl	x27,x19,x3	 x19:0x00000442  x3:0x00000000 x27=0x00000442
       58235000	      5822	80002e78	04ebe063	bltu	x23,x14,80002eb8	 x23:0x3a441d90 x14:0xfe00027f
       58245000	      5823	00000000	00000013	addi	x0,x0,0	  x0:0x00000000
       58255000	      5824	80002eb4	00000013	addi	x0,x0,0	  x0:0x00000000
       58265000	      5825	80002eb8	739b4c93	xori	x25,x22,1849	 x22:0x8d97b000 x25=0x8d97b739
       58275000	      5826	80002ebc	00aa7433	and	x8,x20,x10	 x20:0x80009f5c x10:0xc0fffe48  x8=0x80009e48
       58285000	      5827	80002ec0	010c9113	slli	x2,x25,0x10	 x25:0x8d97b739  x2=0xb7390000
       58295000	      5828	80002ec4	40e2dc93	srai	x25,x5,0xe	  x5:0x00000001 x25=0x00000000
       58305000	      5829	80002ec8	01705863	bge	x0,x23,80002ed8	  x0:0x00000000 x23:0x3a441d90
       58315000	      5830	80002ecc	61eb8693	addi	x13,x23,1566	 x23:0x3a441d90 x13=0x3a4423ae
       58325000	      5831	80002ed0	41185513	srai	x10,x16,0x11	 x16:0xfffffa29 x10=0xffffffff
       58335000	      5832	80002ed4	55178593	addi	x11,x15,1361	 x15:0x00000001 x11=0x00000552
       58345000	      5833	80002ed8	00eedcb3	srl	x25,x29,x14	 x29:0x1923c000 x14:0xfe00027f x25=0x00000000
       58355000	      5834	80002edc	0188e033	or	x0,x17,x24	 x17:0xb94a9d7c x24:0xb94a9d7c
       58365000	      5835	80002ee0	01d0e463	bltu	x1,x29,80002ee8	  x1:0x0000025e x29:0x1923c000
       58375000	      5836	00000000	00000013	addi	x0,x0,0	  x0:0x00000000
       58385000	      5837	80002ee4	00000013	addi	x0,x0,0	  x0:0x00000000
       58395000	      5838	80002ee8	404d8bb3	sub	x23,x27,x4	 x27:0x00000442  x4:0x00000001 x23=0x00000441
       58405000	      5839	80002eec	003cffb3	and	x31,x25,x3	 x25:0x00000000  x3:0x00000000 x31=0x00000000
       58415000	      5840	80002ef0	6d28eb93	ori	x23,x17,1746	 x17:0xb94a9d7c x23=0xb94a9ffe
       58425000	      5841	80002ef4	40d9d7b3	sra	x15,x19,x13	 x19:0x00000442 x13:0x3a4423ae x15=0x00000000
       58435000	      5842	80002ef8	80494d93	xori	x27,x18,-2044	 x18:0x00000006 x27=0xfffff802
       58445000	      5843	80002efc	004f8863	beq	x31,x4,80002f0c	 x31:0x00000000  x4:0x00000001
       58455000	      5844	80002f00	0199d033	srl	x0,x19,x25	 x19:0x00000442 x25:0x00000000
       58465000	      5845	80002f04	bb6af813	andi	x16,x21,-1098	 x21:0x00000001 x16=0x00000000
       58475000	      5846	80002f08	01527c33	and	x24,x4,x21	  x4:0x00000001 x21:0x00000001 x24=0x00000001
       58485000	      5847	80002f0c	0101cc63	blt	x3,x16,80002f24	  x3:0x00000000 x16:0x00000000
       58495000	      5848	80002f10	00b79233	sll	x4,x15,x11	 x15:0x00000000 x11:0x00000552  x4=0x00000000
       58505000	      5849	80002f14	01ae5bb3	srl	x23,x28,x26	 x28:0x00000001 x26:0x00000000 x23=0x00000001
       58515000	      5850	80002f18	9c8c7c13	andi	x24,x24,-1592	 x24:0x00000001 x24=0x00000000
       58525000	      5851	80002f1c	007edbb3	srl	x23,x29,x7	 x29:0x1923c000  x7:0x8d97b000 x23=0x1923c000
       58535000	      5852	80002f20	00c59a63	bne	x11,x12,80002f34	 x11:0x00000552 x12:0x00000000
       58545000	      5853	00000000	00000013	addi	x0,x0,0	  x0:0x00000000
       58555000	      5854	80002f30	00000013	addi	x0,x0,0	  x0:0x00000000
       58565000	      5855	80002f34	00809b33	sll	x22,x1,x8	  x1:0x0000025e  x8:0x80009e48 x22=0x00025e00
       58575000	      5856	80002f38	04e40263	beq	x8,x14,80002f7c	  x8:0x80009e48 x14:0xfe00027f
       58585000	      5857	80002f3c	8b6e0d93	addi	x27,x28,-1866	 x28:0x00000001 x27=0xfffff8b7
       58595000	      5858	80002f40	3f386313	ori	x6,x16,1011	 x16:0x00000000  x6=0x000003f3
       58605000	      5859	80002f44	3b512ab7	lui	x21,0x3b512	 x21=0x3b512000
       58615000	      5860	80002f48	00ddd693	srli	x13,x27,0xd	 x27:0xfffff8b7 x13=0x0007ffff
       58625000	      5861	80002f4c	ecd4ec93	ori	x25,x9,-307	  x9:0x80009fc4 x25=0xffffffcd
       58635000	      5862	80002f50	40ce5eb3	sra	x29,x28,x12	 x28:0x00000001 x12:0x00000000 x29=0x00000001
       58645000	      5863	80002f54	0081e0b3	or	x1,x3,x8	  x3:0x00000000  x8:0x80009e48  x1=0x80009e48
       58655000	      5864	80002f58	a3e80993	addi	x19,x16,-1474	 x16:0x00000000 x19=0xfffffa3e
       58665000	      5865	80002f5c	009e5a93	srli	x21,x28,0x9	 x28:0x00000001 x21=0x00000000
       58675000	      5866	80002f60	018a88b3	add	x17,x21,x24	 x21:0x00000000 x24:0x00000000 x17=0x00000000
       58685000	      5867	80002f64	40fdec13	ori	x24,x27,1039	 x27:0xfffff8b7 x24=0xfffffcbf
       58695000	      5868	80002f68	0027db33	srl	x22,x15,x2	 x15:0x00000000  x2:0xb7390000 x22=0x00000000
       58705000	      5869	80002f6c	f58ab793	sltiu	x15,x21,-168	 x21:0x00000000 x15=0x00000001
       58715000	      5870	80002f70	00000013	addi	x0,x0,0	  x0:0x00000000
       58725000	      5871	80002f74	01fdd713	srli	x14,x27,0x1f	 x27:0xfffff8b7 x14=0x00000001
       58735000	      5872	80002f78	01929693	slli	x13,x5,0x19	  x5:0x00000001 x13=0x02000000
       58745000	      5873	80002f7c	2e5e3137	lui	x2,0x2e5e3	  x2=0x2e5e3000
       58755000	      5874	80002f80	dce22993	slti	x19,x4,-562	  x4:0x00000000 x19=0x00000000
       58765000	      5875	80002f84	41335c13	srai	x24,x6,0x13	  x6:0x000003f3 x24=0x00000000
       58775000	      5876	80002f88	5ae7cf93	xori	x31,x15,1454	 x15:0x00000001 x31=0x000005af
       58785000	      5877	80002f8c	41d80833	sub	x16,x16,x29	 x16:0x00000000 x29:0x00000001 x16=0xffffffff
       58795000	      5878	80002f90	b8767413	andi	x8,x12,-1145	 x12:0x00000000  x8=0x00000000
       58805000	      5879	80002f94	01e6c333	xor	x6,x13,x30	 x13:0x02000000 x30:0x3a441d90  x6=0x38441d90
       58815000	      5880	80002f98	be1c1117	auipc	x2,0xbe1c1	  x2=0x3e1c3f94
       58825000	      5881	80002f9c	014b7433	and	x8,x22,x20	 x22:0x00000000 x20:0x80009f5c  x8=0x00000000
       58835000	      5882	80002fa0	014b2bb3	slt	x23,x22,x20	 x22:0x00000000 x20:0x80009f5c x23=0x00000000
       58845000	      5883	80002fa4	00e17133	and	x2,x2,x14	  x2:0x3e1c3f94 x14:0x00000001  x2=0x00000000
       58855000	      5884	80002fa8	01c54533	xor	x10,x10,x28	 x10:0xffffffff x28:0x00000001 x10=0xfffffffe
       58865000	      5885	80002fac	3256ff13	andi	x30,x13,805	 x13:0x02000000 x30=0x00000000
       58875000	      5886	80002fb0	01a81d33	sll	x26,x16,x26	 x16:0xffffffff x26:0x00000000 x26=0xffffffff
       58885000	      5887	80002fb4	1dc00b93	addi	x23,x0,476	  x0:0x00000000 x23=0x000001dc
       58895000	      5888	80002fb8	fc944793	xori	x15,x8,-55	  x8:0x00000000 x15=0xffffffc9
       58905000	      5889	80002fbc	003d4ab3	xor	x21,x26,x3	 x26:0xffffffff  x3:0x00000000 x21=0xffffffff
       58915000	      5890	80002fc0	a5ffd797	auipc	x15,0xa5ffd	 x15=0x25ffffbc
       58925000	      5891	80002fc4	0061de13	srli	x28,x3,0x6	  x3:0x00000000 x28=0x00000000
       58935000	      5892	80002fc8	b6ac0437	lui	x8,0xb6ac0	  x8=0xb6ac0000
       58945000	      5893	80002fcc	015e6263	bltu	x28,x21,80002fd0	 x28:0x00000000 x21:0xffffffff
       58955000	      5894	00000000	00000013	addi	x0,x0,0	  x0:0x00000000
       58965000	      5895	80002fcc	00000013	addi	x0,x0,0	  x0:0x00000000
       58975000	      5896	80002fd0	41980f33	sub	x30,x16,x25	 x16:0xffffffff x25:0xffffffcd x30=0x00000032
       58985000	      5897	80002fd4	f01f96b7	lui	x13,0xf01f9	 x13=0xf01f9000
       58995000	      5898	80002fd8	004a2303	lw	x6,4(x20)	 x20:0x80009f5c  x6=0x8000014c PA:0x80009f60
       59005000	      5899	80002fdc	41b1dc33	sra	x24,x3,x27	  x3:0x00000000 x27:0xfffff8b7 x24=0x00000000
       59015000	      5900	80002fe0	0075eab3	or	x21,x11,x7	 x11:0x00000552  x7:0x8d97b000 x21=0x8d97b552
       59025000	      5901	80002fe4	028a0a13	addi	x20,x20,40	 x20:0x80009f5c x20=0x80009f84
       59035000	      5902	80002fe8	0022c633	xor	x12,x5,x2	  x5:0x00000001  x2:0x00000000 x12=0x00000001
       59045000	      5903	80002fec	00030d93	addi	x27,x6,0	  x6:0x8000014c x27=0x8000014c
       59055000	      5904	80002ff0	000d8de7	jalr	x27,x27,0	 x27:0x8000014c x27=0x80002ff0
       59065000	      5905	00000000	00000013	addi	x0,x0,0	  x0:0x00000000
       59075000	      5906	8000014c	00000013	addi	x0,x0,0	  x0:0x00000000
       59085000	      5907	80000150	b0540e93	addi	x29,x8,-1275	  x8:0xb6ac0000 x29=0xb6abfb05
       59095000	      5908	80000154	006da433	slt	x8,x27,x6	 x27:0x80002ff0  x6:0x8000014c  x8=0x00000000
       59105000	      5909	80000158	00a4de13	srli	x28,x9,0xa	  x9:0x80009fc4 x28=0x00200027
       59115000	      5910	8000015c	0042d333	srl	x6,x5,x4	  x5:0x00000001  x4:0x00000000  x6=0x00000001
       59125000	      5911	80000160	41be3393	sltiu	x7,x28,1051	 x28:0x00200027  x7=0x00000000
       59135000	      5912	80000164	00000f97	auipc	x31,0x0	 x31=0x80000160
       59145000	      5913	80000168	3c8f8f93	addi	x31,x31,968	 x31:0x80000160 x31=0x80000528
       59155000	      5914	8000016c	d25f8f93	addi	x31,x31,-731	 x31:0x80000528 x31=0x8000024d
       59165000	      5915	80000170	bfccbb93	sltiu	x23,x25,-1028	 x25:0xffffffcd x23=0x00000000
       59175000	      5916	80000174	cb430893	addi	x17,x6,-844	  x6:0x00000001 x17=0xfffffcb5
       59185000	      5917	80000178	55886837	lui	x16,0x55886	 x16=0x55886000
       59195000	      5918	8000017c	2dbf8367	jalr	x6,x31,731	 x31:0x8000024d  x6=0x8000017c
       59205000	      5919	00000000	00000013	addi	x0,x0,0	  x0:0x00000000
       59215000	      5920	80000528	00000013	addi	x0,x0,0	  x0:0x00000000
       59225000	      5921	8000052c	413ed813	srai	x16,x29,0x13	 x29:0xb6abfb05 x16=0xfffff6d5
       59235000	      5922	80000530	279ffd93	andi	x27,x31,633	 x31:0x8000024d x27=0x00000249
       59245000	      5923	80000534	ff0a0a13	addi	x20,x20,-16	 x20:0x80009f84 x20=0x80009f74
       59255000	      5924	80000538	006a2223	sw	x6,4(x20)	 x20:0x80009f74  x6:0x8000017c PA:0x80009f78
       59265000	      5925	8000053c	a2499db7	lui	x27,0xa2499	 x27=0xa2499000
       59275000	      5926	80000540	003053b3	srl	x7,x0,x3	  x0:0x00000000  x3:0x00000000  x7=0x00000000
       59285000	      5927	80000544	e98a0e93	addi	x29,x20,-360	 x20:0x80009f74 x29=0x80009e0c
       59295000	      5928	80000548	002dbdb3	sltu	x27,x27,x2	 x27:0xa2499000  x2:0x00000000 x27=0x00000000
       59305000	      5929	8000054c	0100036f	jal	x6,8000054c	  x6=0x8000054c
       59315000	      5930	00000000	00000013	addi	x0,x0,0	  x0:0x00000000
       59325000	      5931	80000558	00000013	addi	x0,x0,0	  x0:0x00000000
       59335000	      5932	8000055c	014000ef	jal	x1,8000055c	  x1=0x8000055c
       59345000	      5933	00000000	00000013	addi	x0,x0,0	  x0:0x00000000
       59355000	      5934	8000056c	00000013	addi	x0,x0,0	  x0:0x00000000
       59365000	      5935	80000570	ff9ff0ef	jal	x1,80000570	  x1=0x80000570
       59375000	      5936	00000000	00000013	addi	x0,x0,0	  x0:0x00000000
       59385000	      5937	80000564	00000013	addi	x0,x0,0	  x0:0x00000000
       59395000	      5938	80000568	fe9ff0ef	jal	x1,80000568	  x1=0x80000568
       59405000	      5939	00000000	00000013	addi	x0,x0,0	  x0:0x00000000
       59415000	      5940	8000054c	00000013	addi	x0,x0,0	  x0:0x00000000
       59425000	      5941	80000550	028007ef	jal	x15,80000550	 x15=0x80000550
       59435000	      5942	00000000	00000013	addi	x0,x0,0	  x0:0x00000000
       59445000	      5943	80000574	00000013	addi	x0,x0,0	  x0:0x00000000
       59455000	      5944	80000578	fe1ff8ef	jal	x17,80000578	 x17=0x80000578
       59465000	      5945	00000000	00000013	addi	x0,x0,0	  x0:0x00000000
       59475000	      5946	80000554	00000013	addi	x0,x0,0	  x0:0x00000000
       59485000	      5947	80000558	024001ef	jal	x3,80000558	  x3=0x80000558
       59495000	      5948	00000000	00000013	addi	x0,x0,0	  x0:0x00000000
       59505000	      5949	80000578	00000013	addi	x0,x0,0	  x0:0x00000000
       59515000	      5950	8000057c	ff9ff0ef	jal	x1,8000057c	  x1=0x8000057c
       59525000	      5951	00000000	00000013	addi	x0,x0,0	  x0:0x00000000
       59535000	      5952	80000570	00000013	addi	x0,x0,0	  x0:0x00000000
       59545000	      5953	80000574	fedff0ef	jal	x1,80000574	  x1=0x80000574
       59555000	      5954	00000000	00000013	addi	x0,x0,0	  x0:0x00000000
       59565000	      5955	8000055c	00000013	addi	x0,x0,0	  x0:0x00000000
       59575000	      5956	80000560	0040036f	jal	x6,80000560	  x6=0x80000560
       59585000	      5957	00000000	00000013	addi	x0,x0,0	  x0:0x00000000
       59595000	      5958	80000560	00000013	addi	x0,x0,0	  x0:0x00000000
       59605000	      5959	80000564	ff1ffdef	jal	x27,80000564	 x27=0x80000564
       59615000	      5960	00000000	00000013	addi	x0,x0,0	  x0:0x00000000
       59625000	      5961	80000550	00000013	addi	x0,x0,0	  x0:0x00000000
       59635000	      5962	80000554	0180036f	jal	x6,80000554	  x6=0x80000554
       59645000	      5963	00000000	00000013	addi	x0,x0,0	  x0:0x00000000
       59655000	      5964	80000568	00000013	addi	x0,x0,0	  x0:0x00000000
       59665000	      5965	8000056c	014000ef	jal	x1,8000056c	  x1=0x8000056c
       59675000	      5966	00000000	00000013	addi	x0,x0,0	  x0:0x00000000
       59685000	      5967	8000057c	00000013	addi	x0,x0,0	  x0:0x00000000
       59695000	      5968	80000580	6a7e7e13	andi	x28,x28,1703	 x28:0x00200027 x28=0x00000027
       59705000	      5969	80000584	0200036f	jal	x6,80000584	  x6=0x80000584
       59715000	      5970	00000000	00000013	addi	x0,x0,0	  x0:0x00000000
       59725000	      5971	800005a0	00000013	addi	x0,x0,0	  x0:0x00000000
       59735000	      5972	800005a4	020000ef	jal	x1,800005a4	  x1=0x800005a4
       59745000	      5973	00000000	00000013	addi	x0,x0,0	  x0:0x00000000
       59755000	      5974	800005c0	00000013	addi	x0,x0,0	  x0:0x00000000
       59765000	      5975	800005c4	ffdff0ef	jal	x1,800005c4	  x1=0x800005c4
       59775000	      5976	00000000	00000013	addi	x0,x0,0	  x0:0x00000000
       59785000	      5977	800005bc	00000013	addi	x0,x0,0	  x0:0x00000000
       59795000	      5978	800005c0	fc9ff8ef	jal	x17,800005c0	 x17=0x800005c0
       59805000	      5979	00000000	00000013	addi	x0,x0,0	  x0:0x00000000
       59815000	      5980	80000584	00000013	addi	x0,x0,0	  x0:0x00000000
       59825000	      5981	80000588	058000ef	jal	x1,80000588	  x1=0x80000588
       59835000	      5982	00000000	00000013	addi	x0,x0,0	  x0:0x00000000
       59845000	      5983	800005dc	00000013	addi	x0,x0,0	  x0:0x00000000
       59855000	      5984	800005e0	fd5ff0ef	jal	x1,800005e0	  x1=0x800005e0
       59865000	      5985	00000000	00000013	addi	x0,x0,0	  x0:0x00000000
       59875000	      5986	800005b0	00000013	addi	x0,x0,0	  x0:0x00000000
       59885000	      5987	800005b4	030000ef	jal	x1,800005b4	  x1=0x800005b4
       59895000	      5988	00000000	00000013	addi	x0,x0,0	  x0:0x00000000
       59905000	      5989	800005e0	00000013	addi	x0,x0,0	  x0:0x00000000
       59915000	      5990	800005e4	fe9ff36f	jal	x6,800005e4	  x6=0x800005e4
       59925000	      5991	00000000	00000013	addi	x0,x0,0	  x0:0x00000000
       59935000	      5992	800005c8	00000013	addi	x0,x0,0	  x0:0x00000000
       59945000	      5993	800005cc	ffdff0ef	jal	x1,800005cc	  x1=0x800005cc
       59955000	      5994	00000000	00000013	addi	x0,x0,0	  x0:0x00000000
       59965000	      5995	800005c4	00000013	addi	x0,x0,0	  x0:0x00000000
       59975000	      5996	800005c8	fc9ff0ef	jal	x1,800005c8	  x1=0x800005c8
       59985000	      5997	00000000	00000013	addi	x0,x0,0	  x0:0x00000000
       59995000	      5998	8000058c	00000013	addi	x0,x0,0	  x0:0x00000000
       60005000	      5999	80000590	020000ef	jal	x1,80000590	  x1=0x80000590
       60015000	      6000	00000000	00000013	addi	x0,x0,0	  x0:0x00000000
       60025000	      6001	800005ac	00000013	addi	x0,x0,0	  x0:0x00000000
       60035000	      6002	800005b0	fedff36f	jal	x6,800005b0	  x6=0x800005b0
       60045000	      6003	00000000	00000013	addi	x0,x0,0	  x0:0x00000000
       60055000	      6004	80000598	00000013	addi	x0,x0,0	  x0:0x00000000
       60065000	      6005	8000059c	01c000ef	jal	x1,8000059c	  x1=0x8000059c
       60075000	      6006	00000000	00000013	addi	x0,x0,0	  x0:0x00000000
       60085000	      6007	800005b4	00000013	addi	x0,x0,0	  x0:0x00000000
       60095000	      6008	800005b8	fddff1ef	jal	x3,800005b8	  x3=0x800005b8
       60105000	      6009	00000000	00000013	addi	x0,x0,0	  x0:0x00000000
       60115000	      6010	80000590	00000013	addi	x0,x0,0	  x0:0x00000000
       60125000	      6011	80000594	004000ef	jal	x1,80000594	  x1=0x80000594
       60135000	      6012	00000000	00000013	addi	x0,x0,0	  x0:0x00000000
       60145000	      6013	80000594	00000013	addi	x0,x0,0	  x0:0x00000000
       60155000	      6014	80000598	03c002ef	jal	x5,80000598	  x5=0x80000598
       60165000	      6015	00000000	00000013	addi	x0,x0,0	  x0:0x00000000
       60175000	      6016	800005d0	00000013	addi	x0,x0,0	  x0:0x00000000
       60185000	      6017	800005d4	fcdfffef	jal	x31,800005d4	 x31=0x800005d4
       60195000	      6018	00000000	00000013	addi	x0,x0,0	  x0:0x00000000
       60205000	      6019	8000059c	00000013	addi	x0,x0,0	  x0:0x00000000
       60215000	      6020	800005a0	0480036f	jal	x6,800005a0	  x6=0x800005a0
       60225000	      6021	00000000	00000013	addi	x0,x0,0	  x0:0x00000000
       60235000	      6022	800005e4	00000013	addi	x0,x0,0	  x0:0x00000000
       60245000	      6023	800005e8	fc1ff86f	jal	x16,800005e8	 x16=0x800005e8
       60255000	      6024	00000000	00000013	addi	x0,x0,0	  x0:0x00000000
       60265000	      6025	800005a4	00000013	addi	x0,x0,0	  x0:0x00000000
       60275000	      6026	800005a8	03400f6f	jal	x30,800005a8	 x30=0x800005a8
       60285000	      6027	00000000	00000013	addi	x0,x0,0	  x0:0x00000000
       60295000	      6028	800005d8	00000013	addi	x0,x0,0	  x0:0x00000000
       60305000	      6029	800005dc	fb1ffcef	jal	x25,800005dc	 x25=0x800005dc
       60315000	      6030	00000000	00000013	addi	x0,x0,0	  x0:0x00000000
       60325000	      6031	80000588	00000013	addi	x0,x0,0	  x0:0x00000000
       60335000	      6032	8000058c	0600026f	jal	x4,8000058c	  x4=0x8000058c
       60345000	      6033	00000000	00000013	addi	x0,x0,0	  x0:0x00000000
       60355000	      6034	800005e8	00000013	addi	x0,x0,0	  x0:0x00000000
       60365000	      6035	800005ec	fc1ff0ef	jal	x1,800005ec	  x1=0x800005ec
       60375000	      6036	00000000	00000013	addi	x0,x0,0	  x0:0x00000000
       60385000	      6037	800005a8	00000013	addi	x0,x0,0	  x0:0x00000000
       60395000	      6038	800005ac	02c00b6f	jal	x22,800005ac	 x22=0x800005ac
       60405000	      6039	00000000	00000013	addi	x0,x0,0	  x0:0x00000000
       60415000	      6040	800005d4	00000013	addi	x0,x0,0	  x0:0x00000000
       60425000	      6041	800005d8	ff9ff76f	jal	x14,800005d8	 x14=0x800005d8
       60435000	      6042	00000000	00000013	addi	x0,x0,0	  x0:0x00000000
       60445000	      6043	800005cc	00000013	addi	x0,x0,0	  x0:0x00000000
       60455000	      6044	800005d0	fedff0ef	jal	x1,800005d0	  x1=0x800005d0
       60465000	      6045	00000000	00000013	addi	x0,x0,0	  x0:0x00000000
       60475000	      6046	800005b8	00000013	addi	x0,x0,0	  x0:0x00000000
       60485000	      6047	800005bc	0340036f	jal	x6,800005bc	  x6=0x800005bc
       60495000	      6048	00000000	00000013	addi	x0,x0,0	  x0:0x00000000
       60505000	      6049	800005ec	00000013	addi	x0,x0,0	  x0:0x00000000
       60515000	      6050	800005f0	b650fd93	andi	x27,x1,-1179	  x1:0x800005d0 x27=0x80000140
       60525000	      6051	800005f4	0280036f	jal	x6,800005f4	  x6=0x800005f4
       60535000	      6052	00000000	00000013	addi	x0,x0,0	  x0:0x00000000
       60545000	      6053	80000618	00000013	addi	x0,x0,0	  x0:0x00000000
       60555000	      6054	8000061c	fedffbef	jal	x23,8000061c	 x23=0x8000061c
       60565000	      6055	00000000	00000013	addi	x0,x0,0	  x0:0x00000000
       60575000	      6056	80000604	00000013	addi	x0,x0,0	  x0:0x00000000
       60585000	      6057	80000608	ffdff8ef	jal	x17,80000608	 x17=0x80000608
       60595000	      6058	00000000	00000013	addi	x0,x0,0	  x0:0x00000000
       60605000	      6059	80000600	00000013	addi	x0,x0,0	  x0:0x00000000
       60615000	      6060	80000604	ff5ff0ef	jal	x1,80000604	  x1=0x80000604
       60625000	      6061	00000000	00000013	addi	x0,x0,0	  x0:0x00000000
       60635000	      6062	800005f4	00000013	addi	x0,x0,0	  x0:0x00000000
       60645000	      6063	800005f8	008000ef	jal	x1,800005f8	  x1=0x800005f8
       60655000	      6064	00000000	00000013	addi	x0,x0,0	  x0:0x00000000
       60665000	      6065	800005fc	00000013	addi	x0,x0,0	  x0:0x00000000
       60675000	      6066	80000600	034000ef	jal	x1,80000600	  x1=0x80000600
       60685000	      6067	00000000	00000013	addi	x0,x0,0	  x0:0x00000000
       60695000	      6068	80000630	00000013	addi	x0,x0,0	  x0:0x00000000
       60705000	      6069	80000634	00400bef	jal	x23,80000634	 x23=0x80000634
       60715000	      6070	00000000	00000013	addi	x0,x0,0	  x0:0x00000000
       60725000	      6071	80000634	00000013	addi	x0,x0,0	  x0:0x00000000
       60735000	      6072	80000638	0040036f	jal	x6,80000638	  x6=0x80000638
       60745000	      6073	00000000	00000013	addi	x0,x0,0	  x0:0x00000000
       60755000	      6074	80000638	00000013	addi	x0,x0,0	  x0:0x00000000
       60765000	      6075	8000063c	0040036f	jal	x6,8000063c	  x6=0x8000063c
       60775000	      6076	00000000	00000013	addi	x0,x0,0	  x0:0x00000000
       60785000	      6077	8000063c	00000013	addi	x0,x0,0	  x0:0x00000000
       60795000	      6078	80000640	fcdffaef	jal	x21,80000640	 x21=0x80000640
       60805000	      6079	00000000	00000013	addi	x0,x0,0	  x0:0x00000000
       60815000	      6080	80000608	00000013	addi	x0,x0,0	  x0:0x00000000
       60825000	      6081	8000060c	01400eef	jal	x29,8000060c	 x29=0x8000060c
       60835000	      6082	00000000	00000013	addi	x0,x0,0	  x0:0x00000000
       60845000	      6083	8000061c	00000013	addi	x0,x0,0	  x0:0x00000000
       60855000	      6084	80000620	ff1ff1ef	jal	x3,80000620	  x3=0x80000620
       60865000	      6085	00000000	00000013	addi	x0,x0,0	  x0:0x00000000
       60875000	      6086	8000060c	00000013	addi	x0,x0,0	  x0:0x00000000
       60885000	      6087	80000610	01c000ef	jal	x1,80000610	  x1=0x80000610
       60895000	      6088	00000000	00000013	addi	x0,x0,0	  x0:0x00000000
       60905000	      6089	80000628	00000013	addi	x0,x0,0	  x0:0x00000000
       60915000	      6090	8000062c	ff9ffe6f	jal	x28,8000062c	 x28=0x8000062c
       60925000	      6091	00000000	00000013	addi	x0,x0,0	  x0:0x00000000
       60935000	      6092	80000620	00000013	addi	x0,x0,0	  x0:0x00000000
       60945000	      6093	80000624	00c000ef	jal	x1,80000624	  x1=0x80000624
       60955000	      6094	00000000	00000013	addi	x0,x0,0	  x0:0x00000000
       60965000	      6095	8000062c	00000013	addi	x0,x0,0	  x0:0x00000000
       60975000	      6096	80000630	fe9ff0ef	jal	x1,80000630	  x1=0x80000630
       60985000	      6097	00000000	00000013	addi	x0,x0,0	  x0:0x00000000
       60995000	      6098	80000614	00000013	addi	x0,x0,0	  x0:0x00000000
       61005000	      6099	80000618	ffdff0ef	jal	x1,80000618	  x1=0x80000618
       61015000	      6100	00000000	00000013	addi	x0,x0,0	  x0:0x00000000
       61025000	      6101	80000610	00000013	addi	x0,x0,0	  x0:0x00000000
       61035000	      6102	80000614	fe9ffbef	jal	x23,80000614	 x23=0x80000614
       61045000	      6103	00000000	00000013	addi	x0,x0,0	  x0:0x00000000
       61055000	      6104	800005f8	00000013	addi	x0,x0,0	  x0:0x00000000
       61065000	      6105	800005fc	02c000ef	jal	x1,800005fc	  x1=0x800005fc
       61075000	      6106	00000000	00000013	addi	x0,x0,0	  x0:0x00000000
       61085000	      6107	80000624	00000013	addi	x0,x0,0	  x0:0x00000000
       61095000	      6108	80000628	01c000ef	jal	x1,80000628	  x1=0x80000628
       61105000	      6109	00000000	00000013	addi	x0,x0,0	  x0:0x00000000
       61115000	      6110	80000640	00000013	addi	x0,x0,0	  x0:0x00000000
       61125000	      6111	80000644	01db5c13	srli	x24,x22,0x1d	 x22:0x800005ac x24=0x00000004
       61135000	      6112	80000648	0700036f	jal	x6,80000648	  x6=0x80000648
       61145000	      6113	00000000	00000013	addi	x0,x0,0	  x0:0x00000000
       61155000	      6114	800006b4	00000013	addi	x0,x0,0	  x0:0x00000000
       61165000	      6115	800006b8	fddff46f	jal	x8,800006b8	  x8=0x800006b8
       61175000	      6116	00000000	00000013	addi	x0,x0,0	  x0:0x00000000
       61185000	      6117	80000690	00000013	addi	x0,x0,0	  x0:0x00000000
       61195000	      6118	80000694	ff5ff5ef	jal	x11,80000694	 x11=0x80000694
       61205000	      6119	00000000	00000013	addi	x0,x0,0	  x0:0x00000000
       61215000	      6120	80000684	00000013	addi	x0,x0,0	  x0:0x00000000
       61225000	      6121	80000688	02c0086f	jal	x16,80000688	 x16=0x80000688
       61235000	      6122	00000000	00000013	addi	x0,x0,0	  x0:0x00000000
       61245000	      6123	800006b0	00000013	addi	x0,x0,0	  x0:0x00000000
       61255000	      6124	800006b4	fa9ff0ef	jal	x1,800006b4	  x1=0x800006b4
       61265000	      6125	00000000	00000013	addi	x0,x0,0	  x0:0x00000000
       61275000	      6126	80000658	00000013	addi	x0,x0,0	  x0:0x00000000
       61285000	      6127	8000065c	04c00e6f	jal	x28,8000065c	 x28=0x8000065c
       61295000	      6128	00000000	00000013	addi	x0,x0,0	  x0:0x00000000
       61305000	      6129	800006a4	00000013	addi	x0,x0,0	  x0:0x00000000
       61315000	      6130	800006a8	ff1ff16f	jal	x2,800006a8	  x2=0x800006a8
       61325000	      6131	00000000	00000013	addi	x0,x0,0	  x0:0x00000000
       61335000	      6132	80000694	00000013	addi	x0,x0,0	  x0:0x00000000
       61345000	      6133	80000698	fe5ff8ef	jal	x17,80000698	 x17=0x80000698
       61355000	      6134	00000000	00000013	addi	x0,x0,0	  x0:0x00000000
       61365000	      6135	80000678	00000013	addi	x0,x0,0	  x0:0x00000000
       61375000	      6136	8000067c	004000ef	jal	x1,8000067c	  x1=0x8000067c
       61385000	      6137	00000000	00000013	addi	x0,x0,0	  x0:0x00000000
       61395000	      6138	8000067c	00000013	addi	x0,x0,0	  x0:0x00000000
       61405000	      6139	80000680	fcdffaef	jal	x21,80000680	 x21=0x80000680
       61415000	      6140	00000000	00000013	addi	x0,x0,0	  x0:0x00000000
       61425000	      6141	80000648	00000013	addi	x0,x0,0	  x0:0x00000000
       61435000	      6142	8000064c	0440026f	jal	x4,8000064c	  x4=0x8000064c
       61445000	      6143	00000000	00000013	addi	x0,x0,0	  x0:0x00000000
       61455000	      6144	8000068c	00000013	addi	x0,x0,0	  x0:0x00000000
       61465000	      6145	80000690	014000ef	jal	x1,80000690	  x1=0x80000690
       61475000	      6146	00000000	00000013	addi	x0,x0,0	  x0:0x00000000
       61485000	      6147	800006a0	00000013	addi	x0,x0,0	  x0:0x00000000
       61495000	      6148	800006a4	fb1ff0ef	jal	x1,800006a4	  x1=0x800006a4
       61505000	      6149	00000000	00000013	addi	x0,x0,0	  x0:0x00000000
       61515000	      6150	80000650	00000013	addi	x0,x0,0	  x0:0x00000000
       61525000	      6151	80000654	0100016f	jal	x2,80000654	  x2=0x80000654
       61535000	      6152	00000000	00000013	addi	x0,x0,0	  x0:0x00000000
       61545000	      6153	80000660	00000013	addi	x0,x0,0	  x0:0x00000000
       61555000	      6154	80000664	048000ef	jal	x1,80000664	  x1=0x80000664
       61565000	      6155	00000000	00000013	addi	x0,x0,0	  x0:0x00000000
       61575000	      6156	800006a8	00000013	addi	x0,x0,0	  x0:0x00000000
       61585000	      6157	800006ac	ff1ff0ef	jal	x1,800006ac	  x1=0x800006ac
       61595000	      6158	00000000	00000013	addi	x0,x0,0	  x0:0x00000000
       61605000	      6159	80000698	00000013	addi	x0,x0,0	  x0:0x00000000
       61615000	      6160	8000069c	fcdff0ef	jal	x1,8000069c	  x1=0x8000069c
       61625000	      6161	00000000	00000013	addi	x0,x0,0	  x0:0x00000000
       61635000	      6162	80000664	00000013	addi	x0,x0,0	  x0:0x00000000
       61645000	      6163	80000668	0480036f	jal	x6,80000668	  x6=0x80000668
       61655000	      6164	00000000	00000013	addi	x0,x0,0	  x0:0x00000000
       61665000	      6165	800006ac	00000013	addi	x0,x0,0	  x0:0x00000000
       61675000	      6166	800006b0	fb1ff0ef	jal	x1,800006b0	  x1=0x800006b0
       61685000	      6167	00000000	00000013	addi	x0,x0,0	  x0:0x00000000
       61695000	      6168	8000065c	00000013	addi	x0,x0,0	  x0:0x00000000
       61705000	      6169	80000660	ff1ffb6f	jal	x22,80000660	 x22=0x80000660
       61715000	      6170	00000000	00000013	addi	x0,x0,0	  x0:0x00000000
       61725000	      6171	8000064c	00000013	addi	x0,x0,0	  x0:0x00000000
       61735000	      6172	80000650	020000ef	jal	x1,80000650	  x1=0x80000650
       61745000	      6173	00000000	00000013	addi	x0,x0,0	  x0:0x00000000
       61755000	      6174	8000066c	00000013	addi	x0,x0,0	  x0:0x00000000
       61765000	      6175	80000670	008000ef	jal	x1,80000670	  x1=0x80000670
       61775000	      6176	00000000	00000013	addi	x0,x0,0	  x0:0x00000000
       61785000	      6177	80000674	00000013	addi	x0,x0,0	  x0:0x00000000
       61795000	      6178	80000678	0440036f	jal	x6,80000678	  x6=0x80000678
       61805000	      6179	00000000	00000013	addi	x0,x0,0	  x0:0x00000000
       61815000	      6180	800006b8	00000013	addi	x0,x0,0	  x0:0x00000000
       61825000	      6181	800006bc	f9dff36f	jal	x6,800006bc	  x6=0x800006bc
       61835000	      6182	00000000	00000013	addi	x0,x0,0	  x0:0x00000000
       61845000	      6183	80000654	00000013	addi	x0,x0,0	  x0:0x00000000
       61855000	      6184	80000658	02c000ef	jal	x1,80000658	  x1=0x80000658
       61865000	      6185	00000000	00000013	addi	x0,x0,0	  x0:0x00000000
       61875000	      6186	80000680	00000013	addi	x0,x0,0	  x0:0x00000000
       61885000	      6187	80000684	008002ef	jal	x5,80000684	  x5=0x80000684
       61895000	      6188	00000000	00000013	addi	x0,x0,0	  x0:0x00000000
       61905000	      6189	80000688	00000013	addi	x0,x0,0	  x0:0x00000000
       61915000	      6190	8000068c	fe1ff0ef	jal	x1,8000068c	  x1=0x8000068c
       61925000	      6191	00000000	00000013	addi	x0,x0,0	  x0:0x00000000
       61935000	      6192	80000668	00000013	addi	x0,x0,0	  x0:0x00000000
       61945000	      6193	8000066c	008000ef	jal	x1,8000066c	  x1=0x8000066c
       61955000	      6194	00000000	00000013	addi	x0,x0,0	  x0:0x00000000
       61965000	      6195	80000670	00000013	addi	x0,x0,0	  x0:0x00000000
       61975000	      6196	80000674	02c0036f	jal	x6,80000674	  x6=0x80000674
       61985000	      6197	00000000	00000013	addi	x0,x0,0	  x0:0x00000000
       61995000	      6198	8000069c	00000013	addi	x0,x0,0	  x0:0x00000000
       62005000	      6199	800006a0	020000ef	jal	x1,800006a0	  x1=0x800006a0
       62015000	      6200	00000000	00000013	addi	x0,x0,0	  x0:0x00000000
       62025000	      6201	800006bc	00000013	addi	x0,x0,0	  x0:0x00000000
       62035000	      6202	800006c0	01b3aab3	slt	x21,x7,x27	  x7:0x00000000 x27:0x80000140 x21=0x00000000
       62045000	      6203	800006c4	01c0036f	jal	x6,800006c4	  x6=0x800006c4
       62055000	      6204	00000000	00000013	addi	x0,x0,0	  x0:0x00000000
       62065000	      6205	800006dc	00000013	addi	x0,x0,0	  x0:0x00000000
       62075000	      6206	800006e0	ff9ff36f	jal	x6,800006e0	  x6=0x800006e0
       62085000	      6207	00000000	00000013	addi	x0,x0,0	  x0:0x00000000
       62095000	      6208	800006d4	00000013	addi	x0,x0,0	  x0:0x00000000
       62105000	      6209	800006d8	ff5ff36f	jal	x6,800006d8	  x6=0x800006d8
       62115000	      6210	00000000	00000013	addi	x0,x0,0	  x0:0x00000000
       62125000	      6211	800006c8	00000013	addi	x0,x0,0	  x0:0x00000000
       62135000	      6212	800006cc	00800f6f	jal	x30,800006cc	 x30=0x800006cc
       62145000	      6213	00000000	00000013	addi	x0,x0,0	  x0:0x00000000
       62155000	      6214	800006d0	00000013	addi	x0,x0,0	  x0:0x00000000
       62165000	      6215	800006d4	018000ef	jal	x1,800006d4	  x1=0x800006d4
       62175000	      6216	00000000	00000013	addi	x0,x0,0	  x0:0x00000000
       62185000	      6217	800006e8	00000013	addi	x0,x0,0	  x0:0x00000000
       62195000	      6218	800006ec	fddff0ef	jal	x1,800006ec	  x1=0x800006ec
       62205000	      6219	00000000	00000013	addi	x0,x0,0	  x0:0x00000000
       62215000	      6220	800006c4	00000013	addi	x0,x0,0	  x0:0x00000000
       62225000	      6221	800006c8	01c000ef	jal	x1,800006c8	  x1=0x800006c8
       62235000	      6222	00000000	00000013	addi	x0,x0,0	  x0:0x00000000
       62245000	      6223	800006e0	00000013	addi	x0,x0,0	  x0:0x00000000
       62255000	      6224	800006e4	fedff8ef	jal	x17,800006e4	 x17=0x800006e4
       62265000	      6225	00000000	00000013	addi	x0,x0,0	  x0:0x00000000
       62275000	      6226	800006cc	00000013	addi	x0,x0,0	  x0:0x00000000
       62285000	      6227	800006d0	00c0056f	jal	x10,800006d0	 x10=0x800006d0
       62295000	      6228	00000000	00000013	addi	x0,x0,0	  x0:0x00000000
       62305000	      6229	800006d8	00000013	addi	x0,x0,0	  x0:0x00000000
       62315000	      6230	800006dc	00c000ef	jal	x1,800006dc	  x1=0x800006dc
       62325000	      6231	00000000	00000013	addi	x0,x0,0	  x0:0x00000000
       62335000	      6232	800006e4	00000013	addi	x0,x0,0	  x0:0x00000000
       62345000	      6233	800006e8	008000ef	jal	x1,800006e8	  x1=0x800006e8
       62355000	      6234	00000000	00000013	addi	x0,x0,0	  x0:0x00000000
       62365000	      6235	800006ec	00000013	addi	x0,x0,0	  x0:0x00000000
       62375000	      6236	800006f0	409100b3	sub	x1,x2,x9	  x2:0x80000654  x9:0x80009fc4  x1=0xffff6690
       62385000	      6237	800006f4	0440036f	jal	x6,800006f4	  x6=0x800006f4
       62395000	      6238	00000000	00000013	addi	x0,x0,0	  x0:0x00000000
       62405000	      6239	80000734	00000013	addi	x0,x0,0	  x0:0x00000000
       62415000	      6240	80000738	ff5ff7ef	jal	x15,80000738	 x15=0x80000738
       62425000	      6241	00000000	00000013	addi	x0,x0,0	  x0:0x00000000
       62435000	      6242	80000728	00000013	addi	x0,x0,0	  x0:0x00000000
       62445000	      6243	8000072c	fedff36f	jal	x6,8000072c	  x6=0x8000072c
       62455000	      6244	00000000	00000013	addi	x0,x0,0	  x0:0x00000000
       62465000	      6245	80000714	00000013	addi	x0,x0,0	  x0:0x00000000
       62475000	      6246	80000718	ff1ff0ef	jal	x1,80000718	  x1=0x80000718
       62485000	      6247	00000000	00000013	addi	x0,x0,0	  x0:0x00000000
       62495000	      6248	80000704	00000013	addi	x0,x0,0	  x0:0x00000000
       62505000	      6249	80000708	0180046f	jal	x8,80000708	  x8=0x80000708
       62515000	      6250	00000000	00000013	addi	x0,x0,0	  x0:0x00000000
       62525000	      6251	8000071c	00000013	addi	x0,x0,0	  x0:0x00000000
       62535000	      6252	80000720	0240036f	jal	x6,80000720	  x6=0x80000720
       62545000	      6253	00000000	00000013	addi	x0,x0,0	  x0:0x00000000
       62555000	      6254	80000740	00000013	addi	x0,x0,0	  x0:0x00000000
       62565000	      6255	80000744	020000ef	jal	x1,80000744	  x1=0x80000744
       62575000	      6256	00000000	00000013	addi	x0,x0,0	  x0:0x00000000
       62585000	      6257	80000760	00000013	addi	x0,x0,0	  x0:0x00000000
       62595000	      6258	80000764	ff9ff46f	jal	x8,80000764	  x8=0x80000764
       62605000	      6259	00000000	00000013	addi	x0,x0,0	  x0:0x00000000
       62615000	      6260	80000758	00000013	addi	x0,x0,0	  x0:0x00000000
       62625000	      6261	8000075c	ff1ffb6f	jal	x22,8000075c	 x22=0x8000075c
       62635000	      6262	00000000	00000013	addi	x0,x0,0	  x0:0x00000000
       62645000	      6263	80000748	00000013	addi	x0,x0,0	  x0:0x00000000
       62655000	      6264	8000074c	fb1ff0ef	jal	x1,8000074c	  x1=0x8000074c
       62665000	      6265	00000000	00000013	addi	x0,x0,0	  x0:0x00000000
       62675000	      6266	800006f8	00000013	addi	x0,x0,0	  x0:0x00000000
       62685000	      6267	800006fc	010000ef	jal	x1,800006fc	  x1=0x800006fc
       62695000	      6268	00000000	00000013	addi	x0,x0,0	  x0:0x00000000
       62705000	      6269	80000708	00000013	addi	x0,x0,0	  x0:0x00000000
       62715000	      6270	8000070c	0180036f	jal	x6,8000070c	  x6=0x8000070c
       62725000	      6271	00000000	00000013	addi	x0,x0,0	  x0:0x00000000
       62735000	      6272	80000720	00000013	addi	x0,x0,0	  x0:0x00000000
       62745000	      6273	80000724	fe1ff0ef	jal	x1,80000724	  x1=0x80000724
       62755000	      6274	00000000	00000013	addi	x0,x0,0	  x0:0x00000000
       62765000	      6275	80000700	00000013	addi	x0,x0,0	  x0:0x00000000
       62775000	      6276	80000704	04c000ef	jal	x1,80000704	  x1=0x80000704
       62785000	      6277	00000000	00000013	addi	x0,x0,0	  x0:0x00000000
       62795000	      6278	8000074c	00000013	addi	x0,x0,0	  x0:0x00000000
       62805000	      6279	80000750	00400fef	jal	x31,80000750	 x31=0x80000750
       62815000	      6280	00000000	00000013	addi	x0,x0,0	  x0:0x00000000
       62825000	      6281	80000750	00000013	addi	x0,x0,0	  x0:0x00000000
       62835000	      6282	80000754	fa5ff1ef	jal	x3,80000754	  x3=0x80000754
       62845000	      6283	00000000	00000013	addi	x0,x0,0	  x0:0x00000000
       62855000	      6284	800006f4	00000013	addi	x0,x0,0	  x0:0x00000000
       62865000	      6285	800006f8	06000d6f	jal	x26,800006f8	 x26=0x800006f8
       62875000	      6286	00000000	00000013	addi	x0,x0,0	  x0:0x00000000
       62885000	      6287	80000754	00000013	addi	x0,x0,0	  x0:0x00000000
       62895000	      6288	80000758	fa9ff0ef	jal	x1,80000758	  x1=0x80000758
       62905000	      6289	00000000	00000013	addi	x0,x0,0	  x0:0x00000000
       62915000	      6290	800006fc	00000013	addi	x0,x0,0	  x0:0x00000000
       62925000	      6291	80000700	0480026f	jal	x4,80000700	  x4=0x80000700
       62935000	      6292	00000000	00000013	addi	x0,x0,0	  x0:0x00000000
       62945000	      6293	80000744	00000013	addi	x0,x0,0	  x0:0x00000000
       62955000	      6294	80000748	018000ef	jal	x1,80000748	  x1=0x80000748
       62965000	      6295	00000000	00000013	addi	x0,x0,0	  x0:0x00000000
       62975000	      6296	8000075c	00000013	addi	x0,x0,0	  x0:0x00000000
       62985000	      6297	80000760	fd1ff36f	jal	x6,80000760	  x6=0x80000760
       62995000	      6298	00000000	00000013	addi	x0,x0,0	  x0:0x00000000
       63005000	      6299	8000072c	00000013	addi	x0,x0,0	  x0:0x00000000
       63015000	      6300	80000730	010008ef	jal	x17,80000730	 x17=0x80000730
       63025000	      6301	00000000	00000013	addi	x0,x0,0	  x0:0x00000000
       63035000	      6302	8000073c	00000013	addi	x0,x0,0	  x0:0x00000000
       63045000	      6303	80000740	028000ef	jal	x1,80000740	  x1=0x80000740
       63055000	      6304	00000000	00000013	addi	x0,x0,0	  x0:0x00000000
       63065000	      6305	80000764	00000013	addi	x0,x0,0	  x0:0x00000000
       63075000	      6306	80000768	fadff0ef	jal	x1,80000768	  x1=0x80000768
       63085000	      6307	00000000	00000013	addi	x0,x0,0	  x0:0x00000000
       63095000	      6308	80000710	00000013	addi	x0,x0,0	  x0:0x00000000
       63105000	      6309	80000714	ffdff16f	jal	x2,80000714	  x2=0x80000714
       63115000	      6310	00000000	00000013	addi	x0,x0,0	  x0:0x00000000
       63125000	      6311	8000070c	00000013	addi	x0,x0,0	  x0:0x00000000
       63135000	      6312	80000710	05c00b6f	jal	x22,80000710	 x22=0x80000710
       63145000	      6313	00000000	00000013	addi	x0,x0,0	  x0:0x00000000
       63155000	      6314	80000768	00000013	addi	x0,x0,0	  x0:0x00000000
       63165000	      6315	8000076c	fd1ff0ef	jal	x1,8000076c	  x1=0x8000076c
       63175000	      6316	00000000	00000013	addi	x0,x0,0	  x0:0x00000000
       63185000	      6317	80000738	00000013	addi	x0,x0,0	  x0:0x00000000
       63195000	      6318	8000073c	ff9ff0ef	jal	x1,8000073c	  x1=0x8000073c
       63205000	      6319	00000000	00000013	addi	x0,x0,0	  x0:0x00000000
       63215000	      6320	80000730	00000013	addi	x0,x0,0	  x0:0x00000000
       63225000	      6321	80000734	ff5ffaef	jal	x21,80000734	 x21=0x80000734
       63235000	      6322	00000000	00000013	addi	x0,x0,0	  x0:0x00000000
       63245000	      6323	80000724	00000013	addi	x0,x0,0	  x0:0x00000000
       63255000	      6324	80000728	ff5ff0ef	jal	x1,80000728	  x1=0x80000728
       63265000	      6325	00000000	00000013	addi	x0,x0,0	  x0:0x00000000
       63275000	      6326	80000718	00000013	addi	x0,x0,0	  x0:0x00000000
       63285000	      6327	8000071c	0540076f	jal	x14,8000071c	 x14=0x8000071c
       63295000	      6328	00000000	00000013	addi	x0,x0,0	  x0:0x00000000
       63305000	      6329	8000076c	00000013	addi	x0,x0,0	  x0:0x00000000
       63315000	      6330	80000770	2ac27e13	andi	x28,x4,684	  x4:0x80000700 x28=0x00000200
       63325000	      6331	80000774	0040036f	jal	x6,80000774	  x6=0x80000774
       63335000	      6332	00000000	00000013	addi	x0,x0,0	  x0:0x00000000
       63345000	      6333	80000774	00000013	addi	x0,x0,0	  x0:0x00000000
       63355000	      6334	80000778	044000ef	jal	x1,80000778	  x1=0x80000778
       63365000	      6335	00000000	00000013	addi	x0,x0,0	  x0:0x00000000
       63375000	      6336	800007b8	00000013	addi	x0,x0,0	  x0:0x00000000
       63385000	      6337	800007bc	fcdff0ef	jal	x1,800007bc	  x1=0x800007bc
       63395000	      6338	00000000	00000013	addi	x0,x0,0	  x0:0x00000000
       63405000	      6339	80000784	00000013	addi	x0,x0,0	  x0:0x00000000
       63415000	      6340	80000788	04c0036f	jal	x6,80000788	  x6=0x80000788
       63425000	      6341	00000000	00000013	addi	x0,x0,0	  x0:0x00000000
       63435000	      6342	800007d0	00000013	addi	x0,x0,0	  x0:0x00000000
       63445000	      6343	800007d4	fc9ff0ef	jal	x1,800007d4	  x1=0x800007d4
       63455000	      6344	00000000	00000013	addi	x0,x0,0	  x0:0x00000000
       63465000	      6345	80000798	00000013	addi	x0,x0,0	  x0:0x00000000
       63475000	      6346	8000079c	008000ef	jal	x1,8000079c	  x1=0x8000079c
       63485000	      6347	00000000	00000013	addi	x0,x0,0	  x0:0x00000000
       63495000	      6348	800007a0	00000013	addi	x0,x0,0	  x0:0x00000000
       63505000	      6349	800007a4	008000ef	jal	x1,800007a4	  x1=0x800007a4
       63515000	      6350	00000000	00000013	addi	x0,x0,0	  x0:0x00000000
       63525000	      6351	800007a8	00000013	addi	x0,x0,0	  x0:0x00000000
       63535000	      6352	800007ac	fd1ff0ef	jal	x1,800007ac	  x1=0x800007ac
       63545000	      6353	00000000	00000013	addi	x0,x0,0	  x0:0x00000000
       63555000	      6354	80000778	00000013	addi	x0,x0,0	  x0:0x00000000
       63565000	      6355	8000077c	03800e6f	jal	x28,8000077c	 x28=0x8000077c
       63575000	      6356	00000000	00000013	addi	x0,x0,0	  x0:0x00000000
       63585000	      6357	800007b0	00000013	addi	x0,x0,0	  x0:0x00000000
       63595000	      6358	800007b4	0180036f	jal	x6,800007b4	  x6=0x800007b4
       63605000	      6359	00000000	00000013	addi	x0,x0,0	  x0:0x00000000
       63615000	      6360	800007c8	00000013	addi	x0,x0,0	  x0:0x00000000
       63625000	      6361	800007cc	ff5ff2ef	jal	x5,800007cc	  x5=0x800007cc
       63635000	      6362	00000000	00000013	addi	x0,x0,0	  x0:0x00000000
       63645000	      6363	800007bc	00000013	addi	x0,x0,0	  x0:0x00000000
       63655000	      6364	800007c0	0080036f	jal	x6,800007c0	  x6=0x800007c0
       63665000	      6365	00000000	00000013	addi	x0,x0,0	  x0:0x00000000
       63675000	      6366	800007c4	00000013	addi	x0,x0,0	  x0:0x00000000
       63685000	      6367	800007c8	fd1ff36f	jal	x6,800007c8	  x6=0x800007c8
       63695000	      6368	00000000	00000013	addi	x0,x0,0	  x0:0x00000000
       63705000	      6369	80000794	00000013	addi	x0,x0,0	  x0:0x00000000
       63715000	      6370	80000798	008000ef	jal	x1,80000798	  x1=0x80000798
       63725000	      6371	00000000	00000013	addi	x0,x0,0	  x0:0x00000000
       63735000	      6372	8000079c	00000013	addi	x0,x0,0	  x0:0x00000000
       63745000	      6373	800007a0	0080036f	jal	x6,800007a0	  x6=0x800007a0
       63755000	      6374	00000000	00000013	addi	x0,x0,0	  x0:0x00000000
       63765000	      6375	800007a4	00000013	addi	x0,x0,0	  x0:0x00000000
       63775000	      6376	800007a8	fe9ff0ef	jal	x1,800007a8	  x1=0x800007a8
       63785000	      6377	00000000	00000013	addi	x0,x0,0	  x0:0x00000000
       63795000	      6378	8000078c	00000013	addi	x0,x0,0	  x0:0x00000000
       63805000	      6379	80000790	028000ef	jal	x1,80000790	  x1=0x80000790
       63815000	      6380	00000000	00000013	addi	x0,x0,0	  x0:0x00000000
       63825000	      6381	800007b4	00000013	addi	x0,x0,0	  x0:0x00000000
       63835000	      6382	800007b8	fc9ff0ef	jal	x1,800007b8	  x1=0x800007b8
       63845000	      6383	00000000	00000013	addi	x0,x0,0	  x0:0x00000000
       63855000	      6384	8000077c	00000013	addi	x0,x0,0	  x0:0x00000000
       63865000	      6385	80000780	0040036f	jal	x6,80000780	  x6=0x80000780
       63875000	      6386	00000000	00000013	addi	x0,x0,0	  x0:0x00000000
       63885000	      6387	80000780	00000013	addi	x0,x0,0	  x0:0x00000000
       63895000	      6388	80000784	0580036f	jal	x6,80000784	  x6=0x80000784
       63905000	      6389	00000000	00000013	addi	x0,x0,0	  x0:0x00000000
       63915000	      6390	800007d8	00000013	addi	x0,x0,0	  x0:0x00000000
       63925000	      6391	800007dc	fd5ff0ef	jal	x1,800007dc	  x1=0x800007dc
       63935000	      6392	00000000	00000013	addi	x0,x0,0	  x0:0x00000000
       63945000	      6393	800007ac	00000013	addi	x0,x0,0	  x0:0x00000000
       63955000	      6394	800007b0	0200036f	jal	x6,800007b0	  x6=0x800007b0
       63965000	      6395	00000000	00000013	addi	x0,x0,0	  x0:0x00000000
       63975000	      6396	800007cc	00000013	addi	x0,x0,0	  x0:0x00000000
       63985000	      6397	800007d0	fc5ff0ef	jal	x1,800007d0	  x1=0x800007d0
       63995000	      6398	00000000	00000013	addi	x0,x0,0	  x0:0x00000000
       64005000	      6399	80000790	00000013	addi	x0,x0,0	  x0:0x00000000
       64015000	      6400	80000794	03000cef	jal	x25,80000794	 x25=0x80000794
       64025000	      6401	00000000	00000013	addi	x0,x0,0	  x0:0x00000000
       64035000	      6402	800007c0	00000013	addi	x0,x0,0	  x0:0x00000000
       64045000	      6403	800007c4	014000ef	jal	x1,800007c4	  x1=0x800007c4
       64055000	      6404	00000000	00000013	addi	x0,x0,0	  x0:0x00000000
       64065000	      6405	800007d4	00000013	addi	x0,x0,0	  x0:0x00000000
       64075000	      6406	800007d8	fb5ff0ef	jal	x1,800007d8	  x1=0x800007d8
       64085000	      6407	00000000	00000013	addi	x0,x0,0	  x0:0x00000000
       64095000	      6408	80000788	00000013	addi	x0,x0,0	  x0:0x00000000
       64105000	      6409	8000078c	054000ef	jal	x1,8000078c	  x1=0x8000078c
       64115000	      6410	00000000	00000013	addi	x0,x0,0	  x0:0x00000000
       64125000	      6411	800007dc	00000013	addi	x0,x0,0	  x0:0x00000000
       64135000	      6412	800007e0	a19b21b7	lui	x3,0xa19b2	  x3=0xa19b2000
       64145000	      6413	800007e4	0140036f	jal	x6,800007e4	  x6=0x800007e4
       64155000	      6414	00000000	00000013	addi	x0,x0,0	  x0:0x00000000
       64165000	      6415	800007f4	00000013	addi	x0,x0,0	  x0:0x00000000
       64175000	      6416	800007f8	01c000ef	jal	x1,800007f8	  x1=0x800007f8
       64185000	      6417	00000000	00000013	addi	x0,x0,0	  x0:0x00000000
       64195000	      6418	80000810	00000013	addi	x0,x0,0	  x0:0x00000000
       64205000	      6419	80000814	fe9ff86f	jal	x16,80000814	 x16=0x80000814
       64215000	      6420	00000000	00000013	addi	x0,x0,0	  x0:0x00000000
       64225000	      6421	800007f8	00000013	addi	x0,x0,0	  x0:0x00000000
       64235000	      6422	800007fc	ff5ff0ef	jal	x1,800007fc	  x1=0x800007fc
       64245000	      6423	00000000	00000013	addi	x0,x0,0	  x0:0x00000000
       64255000	      6424	800007ec	00000013	addi	x0,x0,0	  x0:0x00000000
       64265000	      6425	800007f0	018000ef	jal	x1,800007f0	  x1=0x800007f0
       64275000	      6426	00000000	00000013	addi	x0,x0,0	  x0:0x00000000
       64285000	      6427	80000804	00000013	addi	x0,x0,0	  x0:0x00000000
       64295000	      6428	80000808	004009ef	jal	x19,80000808	 x19=0x80000808
       64305000	      6429	00000000	00000013	addi	x0,x0,0	  x0:0x00000000
       64315000	      6430	80000808	00000013	addi	x0,x0,0	  x0:0x00000000
       64325000	      6431	8000080c	0040036f	jal	x6,8000080c	  x6=0x8000080c
       64335000	      6432	00000000	00000013	addi	x0,x0,0	  x0:0x00000000
       64345000	      6433	8000080c	00000013	addi	x0,x0,0	  x0:0x00000000
       64355000	      6434	80000810	fe5ff16f	jal	x2,80000810	  x2=0x80000810
       64365000	      6435	00000000	00000013	addi	x0,x0,0	  x0:0x00000000
       64375000	      6436	800007f0	00000013	addi	x0,x0,0	  x0:0x00000000
       64385000	      6437	800007f4	00c000ef	jal	x1,800007f4	  x1=0x800007f4
       64395000	      6438	00000000	00000013	addi	x0,x0,0	  x0:0x00000000
       64405000	      6439	800007fc	00000013	addi	x0,x0,0	  x0:0x00000000
       64415000	      6440	80000800	fe9ff0ef	jal	x1,80000800	  x1=0x80000800
       64425000	      6441	00000000	00000013	addi	x0,x0,0	  x0:0x00000000
       64435000	      6442	800007e4	00000013	addi	x0,x0,0	  x0:0x00000000
       64445000	      6443	800007e8	0300016f	jal	x2,800007e8	  x2=0x800007e8
       64455000	      6444	00000000	00000013	addi	x0,x0,0	  x0:0x00000000
       64465000	      6445	80000814	00000013	addi	x0,x0,0	  x0:0x00000000
       64475000	      6446	80000818	0040036f	jal	x6,80000818	  x6=0x80000818
       64485000	      6447	00000000	00000013	addi	x0,x0,0	  x0:0x00000000
       64495000	      6448	80000818	00000013	addi	x0,x0,0	  x0:0x00000000
       64505000	      6449	8000081c	fe9ff86f	jal	x16,8000081c	 x16=0x8000081c
       64515000	      6450	00000000	00000013	addi	x0,x0,0	  x0:0x00000000
       64525000	      6451	80000800	00000013	addi	x0,x0,0	  x0:0x00000000
       64535000	      6452	80000804	fe9ff36f	jal	x6,80000804	  x6=0x80000804
       64545000	      6453	00000000	00000013	addi	x0,x0,0	  x0:0x00000000
       64555000	      6454	800007e8	00000013	addi	x0,x0,0	  x0:0x00000000
       64565000	      6455	800007ec	03400c6f	jal	x24,800007ec	 x24=0x800007ec
       64575000	      6456	00000000	00000013	addi	x0,x0,0	  x0:0x00000000
       64585000	      6457	8000081c	00000013	addi	x0,x0,0	  x0:0x00000000
       64595000	      6458	80000820	01969393	slli	x7,x13,0x19	 x13:0xf01f9000  x7=0x00000000
       64605000	      6459	80000824	0191d293	srli	x5,x3,0x19	  x3:0xa19b2000  x5=0x00000050
       64615000	      6460	80000828	053ce863	bltu	x25,x19,80000878	 x25:0x80000794 x19:0x80000808
       64625000	      6461	00000000	00000013	addi	x0,x0,0	  x0:0x00000000
       64635000	      6462	80000874	00000013	addi	x0,x0,0	  x0:0x00000000
       64645000	      6463	80000878	1a9e7193	andi	x3,x28,425	 x28:0x8000077c  x3=0x00000128
       64655000	      6464	8000087c	0a487e93	andi	x29,x16,164	 x16:0x8000081c x29=0x00000004
       64665000	      6465	80000880	62782813	slti	x16,x16,1575	 x16:0x8000081c x16=0x00000001
       64675000	      6466	80000884	275a6d93	ori	x27,x20,629	 x20:0x80009f74 x27=0x80009f75
       64685000	      6467	80000888	019f3eb3	sltu	x29,x30,x25	 x30:0x800006cc x25:0x80000794 x29=0x00000001
       64695000	      6468	8000088c	35a6b213	sltiu	x4,x13,858	 x13:0xf01f9000  x4=0x00000000
       64705000	      6469	80000890	02ae9c63	bne	x29,x10,800008c8	 x29:0x00000001 x10:0x800006d0
       64715000	      6470	00000000	00000013	addi	x0,x0,0	  x0:0x00000000
       64725000	      6471	800008c4	00000013	addi	x0,x0,0	  x0:0x00000000
       64735000	      6472	800008c8	5433a893	slti	x17,x7,1347	  x7:0x00000000 x17=0x00000001
       64745000	      6473	800008cc	854c4c93	xori	x25,x24,-1964	 x24:0x800007ec x25=0x7fffffb8
       64755000	      6474	800008d0	00000013	addi	x0,x0,0	  x0:0x00000000
       64765000	      6475	800008d4	4085d193	srai	x3,x11,0x8	 x11:0x80000694  x3=0xff800006
       64775000	      6476	800008d8	56878e93	addi	x29,x15,1384	 x15:0x80000738 x29=0x80000ca0
       64785000	      6477	800008dc	00a79663	bne	x15,x10,800008e8	 x15:0x80000738 x10:0x800006d0
       64795000	      6478	00000000	00000013	addi	x0,x0,0	  x0:0x00000000
       64805000	      6479	800008e4	00000013	addi	x0,x0,0	  x0:0x00000000
       64815000	      6480	800008e8	004c5f33	srl	x30,x24,x4	 x24:0x800007ec  x4:0x00000000 x30=0x800007ec
       64825000	      6481	800008ec	01aae9b3	or	x19,x21,x26	 x21:0x80000734 x26:0x800006f8 x19=0x800007fc
       64835000	      6482	800008f0	00000013	addi	x0,x0,0	  x0:0x00000000
       64845000	      6483	800008f4	66bca213	slti	x4,x25,1643	 x25:0x7fffffb8  x4=0x00000000
       64855000	      6484	800008f8	5b0ac897	auipc	x17,0x5b0ac	 x17=0xdb0ac8f4
       64865000	      6485	800008fc	039c1663	bne	x24,x25,80000928	 x24:0x800007ec x25:0x7fffffb8
       64875000	      6486	00000000	00000013	addi	x0,x0,0	  x0:0x00000000
       64885000	      6487	80000924	00000013	addi	x0,x0,0	  x0:0x00000000
       64895000	      6488	80000928	167acd13	xori	x26,x21,359	 x21:0x80000734 x26=0x80000653
       64905000	      6489	8000092c	00721ab3	sll	x21,x4,x7	  x4:0x00000000  x7:0x00000000 x21=0x00000000
       64915000	      6490	80000930	002bda63	bge	x23,x2,80000944	 x23:0x80000614  x2:0x800007e8
       64925000	      6491	80000934	003fdeb3	srl	x29,x31,x3	 x31:0x80000750  x3:0xff800006 x29=0x0200001d
       64935000	      6492	80000938	940e6893	ori	x17,x28,-1728	 x28:0x8000077c x17=0xffffff7c
       64945000	      6493	8000093c	41738cb3	sub	x25,x7,x23	  x7:0x00000000 x23:0x80000614 x25=0x7ffff9ec
       64955000	      6494	80000940	05b9d463	bge	x19,x27,80000988	 x19:0x800007fc x27:0x80009f75
       64965000	      6495	80000944	002a90b3	sll	x1,x21,x2	 x21:0x00000000  x2:0x800007e8  x1=0x00000000
       64975000	      6496	80000948	01d61463	bne	x12,x29,80000950	 x12:0x00000001 x29:0x0200001d
       64985000	      6497	00000000	00000013	addi	x0,x0,0	  x0:0x00000000
       64995000	      6498	8000094c	00000013	addi	x0,x0,0	  x0:0x00000000
       65005000	      6499	80000950	019295b3	sll	x11,x5,x25	  x5:0x00000050 x25:0x7ffff9ec x11=0x00050000
       65015000	      6500	80000954	030c4263	blt	x24,x16,80000978	 x24:0x800007ec x16:0x00000001
       65025000	      6501	00000000	00000013	addi	x0,x0,0	  x0:0x00000000
       65035000	      6502	80000974	00000013	addi	x0,x0,0	  x0:0x00000000
       65045000	      6503	80000978	e1140517	auipc	x10,0xe1140	 x10=0x61140974
       65055000	      6504	8000097c	01cce233	or	x4,x25,x28	 x25:0x7ffff9ec x28:0x8000077c  x4=0xfffffffc
       65065000	      6505	80000980	041f7d93	andi	x27,x30,65	 x30:0x800007ec x27=0x00000040
       65075000	      6506	80000984	40afd3b3	sra	x7,x31,x10	 x31:0x80000750 x10:0x61140974  x7=0xfffff800
       65085000	      6507	80000988	0a261063	bne	x12,x2,80000a28	 x12:0x00000001  x2:0x800007e8
       65095000	      6508	00000000	00000013	addi	x0,x0,0	  x0:0x00000000
       65105000	      6509	80000a24	00000013	addi	x0,x0,0	  x0:0x00000000
       65115000	      6510	80000a28	007005b3	add	x11,x0,x7	  x0:0x00000000  x7:0xfffff800 x11=0xfffff800
       65125000	      6511	80000a2c	01cbf863	bgeu	x23,x28,80000a3c	 x23:0x80000614 x28:0x8000077c
       65135000	      6512	80000a30	54bdc813	xori	x16,x27,1355	 x27:0x00000040 x16=0x0000050b
       65145000	      6513	80000a34	40f48033	sub	x0,x9,x15	  x9:0x80009fc4 x15:0x80000738
       65155000	      6514	80000a38	0123fe33	and	x28,x7,x18	  x7:0xfffff800 x18:0x00000006 x28=0x00000000
       65165000	      6515	80000a3c	01ab7cb3	and	x25,x22,x26	 x22:0x80000710 x26:0x80000653 x25=0x80000610
       65175000	      6516	80000a40	00356d33	or	x26,x10,x3	 x10:0x61140974  x3:0xff800006 x26=0xff940976
       65185000	      6517	80000a44	01ed37b3	sltu	x15,x26,x30	 x26:0xff940976 x30:0x800007ec x15=0x00000000
       65195000	      6518	80000a48	009833b3	sltu	x7,x16,x9	 x16:0x0000050b  x9:0x80009fc4  x7=0x00000001
       65205000	      6519	80000a4c	007cf0b3	and	x1,x25,x7	 x25:0x80000610  x7:0x00000001  x1=0x00000000
       65215000	      6520	80000a50	0053deb3	srl	x29,x7,x5	  x7:0x00000001  x5:0x00000050 x29=0x00000000
       65225000	      6521	80000a54	00edd8b3	srl	x17,x27,x14	 x27:0x00000040 x14:0x8000071c x17=0x00000000
       65235000	      6522	80000a58	05335463	bge	x6,x19,80000aa0	  x6:0x80000804 x19:0x800007fc
       65245000	      6523	00000000	00000013	addi	x0,x0,0	  x0:0x00000000
       65255000	      6524	80000a9c	00000013	addi	x0,x0,0	  x0:0x00000000
       65265000	      6525	80000aa0	0117bfb3	sltu	x31,x15,x17	 x15:0x00000000 x17:0x00000000 x31=0x00000000
       65275000	      6526	80000aa4	02aef063	bgeu	x29,x10,80000ac4	 x29:0x00000000 x10:0x61140974
       65285000	      6527	80000aa8	80acd9b7	lui	x19,0x80acd	 x19=0x80acd000
       65295000	      6528	80000aac	01d79533	sll	x10,x15,x29	 x15:0x00000000 x29:0x00000000 x10=0x00000000
       65305000	      6529	80000ab0	00854463	blt	x10,x8,80000ab8	 x10:0x00000000  x8:0x80000764
       65315000	      6530	80000ab4	0083f463	bgeu	x7,x8,80000abc	  x7:0x00000001  x8:0x80000764
       65325000	      6531	80000ab8	677d1f17	auipc	x30,0x677d1	 x30=0xe77d1ab4
       65335000	      6532	80000abc	e9cb3693	sltiu	x13,x22,-356	 x22:0x80000710 x13=0x00000001
       65345000	      6533	80000ac0	8d242513	slti	x10,x8,-1838	  x8:0x80000764 x10=0x00000001
       65355000	      6534	80000ac4	0237fa63	bgeu	x15,x3,80000af8	 x15:0x00000000  x3:0xff800006
       65365000	      6535	80000ac8	00d91893	slli	x17,x18,0xd	 x18:0x00000006 x17=0x0000c000
       65375000	      6536	80000acc	015c4463	blt	x24,x21,80000ad4	 x24:0x800007ec x21:0x00000000
       65385000	      6537	00000000	00000013	addi	x0,x0,0	  x0:0x00000000
       65395000	      6538	80000ad0	00000013	addi	x0,x0,0	  x0:0x00000000
       65405000	      6539	80000ad4	01e9d813	srli	x16,x19,0x1e	 x19:0x80acd000 x16=0x00000002
       65415000	      6540	80000ad8	014e6833	or	x16,x28,x20	 x28:0x00000000 x20:0x80009f74 x16=0x80009f74
       65425000	      6541	80000adc	c4e36413	ori	x8,x6,-946	  x6:0x80000804  x8=0xfffffc4e
       65435000	      6542	80000ae0	b455c597	auipc	x11,0xb455c	 x11=0x3455cadc
       65445000	      6543	80000ae4	4300c713	xori	x14,x1,1072	  x1:0x00000000 x14=0x00000430
       65455000	      6544	80000ae8	2dc1ff97	auipc	x31,0x2dc1f	 x31=0xadc1fae4
       65465000	      6545	80000aec	05749863	bne	x9,x23,80000b3c	  x9:0x80009fc4 x23:0x80000614
       65475000	      6546	00000000	00000013	addi	x0,x0,0	  x0:0x00000000
       65485000	      6547	80000b38	00000013	addi	x0,x0,0	  x0:0x00000000
       65495000	      6548	80000b3c	01fc8633	add	x12,x25,x31	 x25:0x80000610 x31:0xadc1fae4 x12=0x2dc200f4
       65505000	      6549	80000b40	8c216e13	ori	x28,x2,-1854	  x2:0x800007e8 x28=0xffffffea
       65515000	      6550	80000b44	062bc793	xori	x15,x23,98	 x23:0x80000614 x15=0x80000676
       65525000	      6551	80000b48	cb7d7613	andi	x12,x26,-841	 x26:0xff940976 x12=0xff940836
       65535000	      6552	80000b4c	00000013	addi	x0,x0,0	  x0:0x00000000
       65545000	      6553	80000b50	05a14663	blt	x2,x26,80000b9c	  x2:0x800007e8 x26:0xff940976
       65555000	      6554	00000000	00000013	addi	x0,x0,0	  x0:0x00000000
       65565000	      6555	80000b98	00000013	addi	x0,x0,0	  x0:0x00000000
       65575000	      6556	80000b9c	05168463	beq	x13,x17,80000be4	 x13:0x00000001 x17:0x0000c000
       65585000	      6557	80000ba0	2b2def93	ori	x31,x27,690	 x27:0x00000040 x31=0x000002f2
       65595000	      6558	80000ba4	02c46e63	bltu	x8,x12,80000be0	  x8:0xfffffc4e x12:0xff940836
       65605000	      6559	80000ba8	05927263	bgeu	x4,x25,80000bec	  x4:0xfffffffc x25:0x80000610
       65615000	      6560	00000000	00000013	addi	x0,x0,0	  x0:0x00000000
       65625000	      6561	80000be8	00000013	addi	x0,x0,0	  x0:0x00000000
       65635000	      6562	80000bec	00f80263	beq	x16,x15,80000bf0	 x16:0x80009f74 x15:0x80000676
       65645000	      6563	80000bf0	05fa1263	bne	x20,x31,80000c34	 x20:0x80009f74 x31:0x000002f2
       65655000	      6564	00000000	00000013	addi	x0,x0,0	  x0:0x00000000
       65665000	      6565	80000c30	00000013	addi	x0,x0,0	  x0:0x00000000
       65675000	      6566	80000c34	01334463	blt	x6,x19,80000c3c	  x6:0x80000804 x19:0x80acd000
       65685000	      6567	00000000	00000013	addi	x0,x0,0	  x0:0x00000000
       65695000	      6568	80000c38	00000013	addi	x0,x0,0	  x0:0x00000000
       65705000	      6569	80000c3c	766a4b13	xori	x22,x20,1894	 x20:0x80009f74 x22=0x80009812
       65715000	      6570	80000c40	41c80833	sub	x16,x16,x28	 x16:0x80009f74 x28:0xffffffea x16=0x80009f8a
       65725000	      6571	80000c44	01a79293	slli	x5,x15,0x1a	 x15:0x80000676  x5=0xd8000000
       65735000	      6572	80000c48	42d17513	andi	x10,x2,1069	  x2:0x800007e8 x10=0x00000428
       65745000	      6573	80000c4c	00fa1033	sll	x0,x20,x15	 x20:0x80009f74 x15:0x80000676
       65755000	      6574	80000c50	40640b33	sub	x22,x8,x6	  x8:0xfffffc4e  x6:0x80000804 x22=0x7ffff44a
       65765000	      6575	80000c54	03394a63	blt	x18,x19,80000c88	 x18:0x00000006 x19:0x80acd000
       65775000	      6576	80000c58	01dd9233	sll	x4,x27,x29	 x27:0x00000040 x29:0x00000000  x4=0x00000040
       65785000	      6577	80000c5c	015e4733	xor	x14,x28,x21	 x28:0xffffffea x21:0x00000000 x14=0xffffffea
       65795000	      6578	80000c60	0196bf33	sltu	x30,x13,x25	 x13:0x00000001 x25:0x80000610 x30=0x00000001
       65805000	      6579	80000c64	00000013	addi	x0,x0,0	  x0:0x00000000
       65815000	      6580	80000c68	bde25537	lui	x10,0xbde25	 x10=0xbde25000
       65825000	      6581	80000c6c	02481e63	bne	x16,x4,80000ca8	 x16:0x80009f8a  x4:0x00000040
       65835000	      6582	00000000	00000013	addi	x0,x0,0	  x0:0x00000000
       65845000	      6583	80000ca4	00000013	addi	x0,x0,0	  x0:0x00000000
       65855000	      6584	80000ca8	036b9663	bne	x23,x22,80000cd4	 x23:0x80000614 x22:0x7ffff44a
       65865000	      6585	00000000	00000013	addi	x0,x0,0	  x0:0x00000000
       65875000	      6586	80000cd0	00000013	addi	x0,x0,0	  x0:0x00000000
       65885000	      6587	80000cd4	01039093	slli	x1,x7,0x10	  x7:0x00000001  x1=0x00010000
       65895000	      6588	80000cd8	011571b3	and	x3,x10,x17	 x10:0xbde25000 x17:0x0000c000  x3=0x00004000
       65905000	      6589	80000cdc	00e421b3	slt	x3,x8,x14	  x8:0xfffffc4e x14:0xffffffea  x3=0x00000001
       65915000	      6590	80000ce0	408fdf13	srai	x30,x31,0x8	 x31:0x000002f2 x30=0x00000002
       65925000	      6591	80000ce4	00bd65b3	or	x11,x26,x11	 x26:0xff940976 x11:0x3455cadc x11=0xffd5cbfe
       65935000	      6592	80000ce8	9d5bf313	andi	x6,x23,-1579	 x23:0x80000614  x6=0x80000014
       65945000	      6593	80000cec	403ada93	srai	x21,x21,0x3	 x21:0x00000000 x21=0x00000000
       65955000	      6594	80000cf0	0551e863	bltu	x3,x21,80000d40	  x3:0x00000001 x21:0x00000000
       65965000	      6595	80000cf4	e2722093	slti	x1,x4,-473	  x4:0x00000040  x1=0x00000000
       65975000	      6596	80000cf8	01b437b3	sltu	x15,x8,x27	  x8:0xfffffc4e x27:0x00000040 x15=0x00000000
       65985000	      6597	80000cfc	4091c793	xori	x15,x3,1033	  x3:0x00000001 x15=0x00000408
       65995000	      6598	80000d00	01da9433	sll	x8,x21,x29	 x21:0x00000000 x29:0x00000000  x8=0x00000000
       66005000	      6599	80000d04	4012d693	srai	x13,x5,0x1	  x5:0xd8000000 x13=0xec000000
       66015000	      6600	80000d08	41ac5993	srai	x19,x24,0x1a	 x24:0x800007ec x19=0xffffffe0
       66025000	      6601	80000d0c	41e2d133	sra	x2,x5,x30	  x5:0xd8000000 x30:0x00000002  x2=0xf6000000
       66035000	      6602	80000d10	0411e663	bltu	x3,x1,80000d5c	  x3:0x00000001  x1:0x00000000
       66045000	      6603	80000d14	407bd193	srai	x3,x23,0x7	 x23:0x80000614  x3=0xff00000c
       66055000	      6604	80000d18	8a838813	addi	x16,x7,-1880	  x7:0x00000001 x16=0xfffff8a9
       66065000	      6605	80000d1c	00cad663	bge	x21,x12,80000d28	 x21:0x00000000 x12:0xff940836
       66075000	      6606	00000000	00000013	addi	x0,x0,0	  x0:0x00000000
       66085000	      6607	80000d24	00000013	addi	x0,x0,0	  x0:0x00000000
       66095000	      6608	80000d28	01fac633	xor	x12,x21,x31	 x21:0x00000000 x31:0x000002f2 x12=0x000002f2
       66105000	      6609	80000d2c	5976c013	xori	x0,x13,1431	 x13:0xec000000
       66115000	      6610	80000d30	5ceac713	xori	x14,x21,1486	 x21:0x00000000 x14=0x000005ce
       66125000	      6611	80000d34	40d888b3	sub	x17,x17,x13	 x17:0x0000c000 x13:0xec000000 x17=0x1400c000
       66135000	      6612	80000d38	ef2bee37	lui	x28,0xef2be	 x28=0xef2be000
       66145000	      6613	80000d3c	03b11063	bne	x2,x27,80000d5c	  x2:0xf6000000 x27:0x00000040
       66155000	      6614	00000000	00000013	addi	x0,x0,0	  x0:0x00000000
       66165000	      6615	80000d58	00000013	addi	x0,x0,0	  x0:0x00000000
       66175000	      6616	80000d5c	014248b3	xor	x17,x4,x20	  x4:0x00000040 x20:0x80009f74 x17=0x80009f34
       66185000	      6617	80000d60	b8e1b393	sltiu	x7,x3,-1138	  x3:0xff00000c  x7=0x00000001
       66195000	      6618	80000d64	a9208e13	addi	x28,x1,-1390	  x1:0x00000000 x28=0xfffffa92
       66205000	      6619	80000d68	4948b013	sltiu	x0,x17,1172	 x17:0x80009f34
       66215000	      6620	80000d6c	0115b0b3	sltu	x1,x11,x17	 x11:0xffd5cbfe x17:0x80009f34  x1=0x00000000
       66225000	      6621	80000d70	01b0db33	srl	x22,x1,x27	  x1:0x00000000 x27:0x00000040 x22=0x00000000
       66235000	      6622	80000d74	29967d13	andi	x26,x12,665	 x12:0x000002f2 x26=0x00000290
       66245000	      6623	80000d78	00e551b3	srl	x3,x10,x14	 x10:0xbde25000 x14:0x000005ce  x3=0x0002f789
       66255000	      6624	80000d7c	0011e863	bltu	x3,x1,80000d8c	  x3:0x0002f789  x1:0x00000000
       66265000	      6625	80000d80	40955393	srai	x7,x10,0x9	 x10:0xbde25000  x7=0xffdef128
       66275000	      6626	80000d84	028f8263	beq	x31,x8,80000da8	 x31:0x000002f2  x8:0x00000000
       66285000	      6627	80000d88	008bc463	blt	x23,x8,80000d90	 x23:0x80000614  x8:0x00000000
       66295000	      6628	00000000	00000013	addi	x0,x0,0	  x0:0x00000000
       66305000	      6629	80000d8c	00000013	addi	x0,x0,0	  x0:0x00000000
       66315000	      6630	80000d90	41035593	srai	x11,x6,0x10	  x6:0x80000014 x11=0xffff8000
       66325000	      6631	80000d94	406e0233	sub	x4,x28,x6	 x28:0xfffffa92  x6:0x80000014  x4=0x7ffffa7e
       66335000	      6632	80000d98	4035d313	srai	x6,x11,0x3	 x11:0xffff8000  x6=0xfffff000
       66345000	      6633	80000d9c	41dd5233	sra	x4,x26,x29	 x26:0x00000290 x29:0x00000000  x4=0x00000290
       66355000	      6634	80000da0	01faa033	slt	x0,x21,x31	 x21:0x00000000 x31:0x000002f2
       66365000	      6635	80000da4	6777a793	slti	x15,x15,1655	 x15:0x00000408 x15=0x00000001
       66375000	      6636	80000da8	020d8c63	beq	x27,x0,80000de0	 x27:0x00000040  x0:0x00000000
       66385000	      6637	80000dac	c5d0a893	slti	x17,x1,-931	  x1:0x00000000 x17=0x00000000
       66395000	      6638	80000db0	de852737	lui	x14,0xde852	 x14=0xde852000
       66405000	      6639	80000db4	40915e33	sra	x28,x2,x9	  x2:0xf6000000  x9:0x80009fc4 x28=0xff600000
       66415000	      6640	80000db8	fef13f93	sltiu	x31,x2,-17	  x2:0xf6000000 x31=0x00000001
       66425000	      6641	80000dbc	0295e063	bltu	x11,x9,80000ddc	 x11:0xffff8000  x9:0x80009fc4
       66435000	      6642	80000dc0	04b4c463	blt	x9,x11,80000e08	  x9:0x80009fc4 x11:0xffff8000
       66445000	      6643	00000000	00000013	addi	x0,x0,0	  x0:0x00000000
       66455000	      6644	80000e04	00000013	addi	x0,x0,0	  x0:0x00000000
       66465000	      6645	80000e08	1cfdd837	lui	x16,0x1cfdd	 x16=0x1cfdd000
       66475000	      6646	80000e0c	01a3c663	blt	x7,x26,80000e18	  x7:0xffdef128 x26:0x00000290
       66485000	      6647	00000000	00000013	addi	x0,x0,0	  x0:0x00000000
       66495000	      6648	80000e14	00000013	addi	x0,x0,0	  x0:0x00000000
       66505000	      6649	80000e18	e2592193	slti	x3,x18,-475	 x18:0x00000006  x3=0x00000000
       66515000	      6650	80000e1c	01e25833	srl	x16,x4,x30	  x4:0x00000290 x30:0x00000002 x16=0x000000a4
       66525000	      6651	80000e20	0010b433	sltu	x8,x1,x1	  x1:0x00000000  x1:0x00000000  x8=0x00000000
       66535000	      6652	80000e24	0a6bc713	xori	x14,x23,166	 x23:0x80000614 x14=0x800006b2
       66545000	      6653	80000e28	002fe833	or	x16,x31,x2	 x31:0x00000001  x2:0xf6000000 x16=0xf6000001
       66555000	      6654	80000e2c	033f5863	bge	x30,x19,80000e5c	 x30:0x00000002 x19:0xffffffe0
       66565000	      6655	00000000	00000013	addi	x0,x0,0	  x0:0x00000000
       66575000	      6656	80000e58	00000013	addi	x0,x0,0	  x0:0x00000000
       66585000	      6657	80000e5c	01bd0033	add	x0,x26,x27	 x26:0x00000290 x27:0x00000040
       66595000	      6658	80000e60	03706263	bltu	x0,x23,80000e84	  x0:0x00000000 x23:0x80000614
       66605000	      6659	00000000	00000013	addi	x0,x0,0	  x0:0x00000000
       66615000	      6660	80000e80	00000013	addi	x0,x0,0	  x0:0x00000000
       66625000	      6661	80000e84	013f3fb3	sltu	x31,x30,x19	 x30:0x00000002 x19:0xffffffe0 x31=0x00000001
       66635000	      6662	80000e88	08e09463	bne	x1,x14,80000f10	  x1:0x00000000 x14:0x800006b2
       66645000	      6663	00000000	00000013	addi	x0,x0,0	  x0:0x00000000
       66655000	      6664	80000f0c	00000013	addi	x0,x0,0	  x0:0x00000000
       66665000	      6665	80000f10	41aade13	srai	x28,x21,0x1a	 x21:0x00000000 x28=0x00000000
       66675000	      6666	80000f14	00e44a63	blt	x8,x14,80000f28	  x8:0x00000000 x14:0x800006b2
       66685000	      6667	80000f18	00000013	addi	x0,x0,0	  x0:0x00000000
       66695000	      6668	80000f1c	d05e41b7	lui	x3,0xd05e4	  x3=0xd05e4000
       66705000	      6669	80000f20	0093ceb3	xor	x29,x7,x9	  x7:0xffdef128  x9:0x80009fc4 x29=0x7fde6eec
       66715000	      6670	80000f24	00a35fb3	srl	x31,x6,x10	  x6:0xfffff000 x10:0xbde25000 x31=0xfffff000
       66725000	      6671	80000f28	a6a22d13	slti	x26,x4,-1430	  x4:0x00000290 x26=0x00000000
       66735000	      6672	80000f2c	ad3a8d13	addi	x26,x21,-1325	 x21:0x00000000 x26=0xfffffad3
       66745000	      6673	80000f30	5ebc0593	addi	x11,x24,1515	 x24:0x800007ec x11=0x80000dd7
       66755000	      6674	80000f34	be13e097	auipc	x1,0xbe13e	  x1=0x3e13ef30
       66765000	      6675	80000f38	000c2233	slt	x4,x24,x0	 x24:0x800007ec  x0:0x00000000  x4=0x00000001
       66775000	      6676	80000f3c	00a25ab3	srl	x21,x4,x10	  x4:0x00000001 x10:0xbde25000 x21=0x00000001
       66785000	      6677	80000f40	0525c863	blt	x11,x18,80000f90	 x11:0x80000dd7 x18:0x00000006
       66795000	      6678	00000000	00000013	addi	x0,x0,0	  x0:0x00000000
       66805000	      6679	80000f8c	00000013	addi	x0,x0,0	  x0:0x00000000
       66815000	      6680	80000f90	a0f5e213	ori	x4,x11,-1521	 x11:0x80000dd7  x4=0xffffffdf
       66825000	      6681	80000f94	83e84193	xori	x3,x16,-1986	 x16:0xf6000001  x3=0x09fff83f
       66835000	      6682	80000f98	6cb84c93	xori	x25,x16,1739	 x16:0xf6000001 x25=0xf60006ca
       66845000	      6683	80000f9c	006f1cb3	sll	x25,x30,x6	 x30:0x00000002  x6:0xfffff000 x25=0x00000002
       66855000	      6684	80000fa0	a7642313	slti	x6,x8,-1418	  x8:0x00000000  x6=0x00000000
       66865000	      6685	80000fa4	00000013	addi	x0,x0,0	  x0:0x00000000
       66875000	      6686	80000fa8	40df0fb3	sub	x31,x30,x13	 x30:0x00000002 x13:0xec000000 x31=0x14000002
       66885000	      6687	80000fac	013c28b3	slt	x17,x24,x19	 x24:0x800007ec x19:0xffffffe0 x17=0x00000001
       66895000	      6688	80000fb0	01138233	add	x4,x7,x17	  x7:0xffdef128 x17:0x00000001  x4=0xffdef129
       66905000	      6689	80000fb4	00f3edb3	or	x27,x7,x15	  x7:0xffdef128 x15:0x00000001 x27=0xffdef129
       66915000	      6690	80000fb8	2d3de113	ori	x2,x27,723	 x27:0xffdef129  x2=0xffdef3fb
       66925000	      6691	80000fbc	01ca4c33	xor	x24,x20,x28	 x20:0x80009f74 x28:0x00000000 x24=0x80009f74
       66935000	      6692	80000fc0	04f91263	bne	x18,x15,80001004	 x18:0x00000006 x15:0x00000001
       66945000	      6693	00000000	00000013	addi	x0,x0,0	  x0:0x00000000
       66955000	      6694	80001000	00000013	addi	x0,x0,0	  x0:0x00000000
       66965000	      6695	80001004	01cba2b3	slt	x5,x23,x28	 x23:0x80000614 x28:0x00000000  x5=0x00000001
       66975000	      6696	80001008	418000b3	sub	x1,x0,x24	  x0:0x00000000 x24:0x80009f74  x1=0x7fff608c
       66985000	      6697	8000100c	397ea213	slti	x4,x29,919	 x29:0x7fde6eec  x4=0x00000000
       66995000	      6698	80001010	b946fb93	andi	x23,x13,-1132	 x13:0xec000000 x23=0xec000000
       67005000	      6699	80001014	01fa2033	slt	x0,x20,x31	 x20:0x80009f74 x31:0x14000002
       67015000	      6700	80001018	75840893	addi	x17,x8,1880	  x8:0x00000000 x17=0x00000758
       67025000	      6701	8000101c	7cf24793	xori	x15,x4,1999	  x4:0x00000000 x15=0x000007cf
       67035000	      6702	80001020	00b75393	srli	x7,x14,0xb	 x14:0x800006b2  x7=0x00100000
       67045000	      6703	80001024	356def13	ori	x30,x27,854	 x27:0xffdef129 x30=0xffdef37f
       67055000	      6704	80001028	01599eb3	sll	x29,x19,x21	 x19:0xffffffe0 x21:0x00000001 x29=0xffffffc0
       67065000	      6705	8000102c	413c57b3	sra	x15,x24,x19	 x24:0x80009f74 x19:0xffffffe0 x15=0x80009f74
       67075000	      6706	80001030	cb896e13	ori	x28,x18,-840	 x18:0x00000006 x28=0xfffffcbe
       67085000	      6707	80001034	000e1db3	sll	x27,x28,x0	 x28:0xfffffcbe  x0:0x00000000 x27=0xfffffcbe
       67095000	      6708	80001038	43425e97	auipc	x29,0x43425	 x29=0xc3426034
       67105000	      6709	8000103c	01222fb3	slt	x31,x4,x18	  x4:0x00000000 x18:0x00000006 x31=0x00000001
       67115000	      6710	80001040	015b5863	bge	x22,x21,80001050	 x22:0x00000000 x21:0x00000001
       67125000	      6711	80001044	03404e63	blt	x0,x20,80001080	  x0:0x00000000 x20:0x80009f74
       67135000	      6712	80001048	00149e13	slli	x28,x9,0x1	  x9:0x80009fc4 x28=0x00013f88
       67145000	      6713	8000104c	02890a63	beq	x18,x8,80001080	 x18:0x00000006  x8:0x00000000
       67155000	      6714	80001050	3c186e37	lui	x28,0x3c186	 x28=0x3c186000
       67165000	      6715	80001054	cd310e93	addi	x29,x2,-813	  x2:0xffdef3fb x29=0xffdef0ce
       67175000	      6716	80001058	02347063	bgeu	x8,x3,80001078	  x8:0x00000000  x3:0x09fff83f
       67185000	      6717	8000105c	56a1f113	andi	x2,x3,1386	  x3:0x09fff83f  x2=0x0000002a
       67195000	      6718	80001060	009cf2b3	and	x5,x25,x9	 x25:0x00000002  x9:0x80009fc4  x5=0x00000000
       67205000	      6719	80001064	40585e93	srai	x29,x16,0x5	 x16:0xf6000001 x29=0xffb00000
       67215000	      6720	80001068	00dac6b3	xor	x13,x21,x13	 x21:0x00000001 x13:0xec000000 x13=0xec000001
       67225000	      6721	8000106c	01f059b3	srl	x19,x0,x31	  x0:0x00000000 x31:0x00000001 x19=0x00000000
       67235000	      6722	80001070	0139cab3	xor	x21,x19,x19	 x19:0x00000000 x19:0x00000000 x21=0x00000000
       67245000	      6723	80001074	019a9033	sll	x0,x21,x25	 x21:0x00000000 x25:0x00000002
       67255000	      6724	80001078	01195833	srl	x16,x18,x17	 x18:0x00000006 x17:0x00000758 x16=0x00000000
       67265000	      6725	8000107c	4182df13	srai	x30,x5,0x18	  x5:0x00000000 x30=0x00000000
       67275000	      6726	80001080	012d06b3	add	x13,x26,x18	 x26:0xfffffad3 x18:0x00000006 x13=0xfffffad9
       67285000	      6727	80001084	007f3133	sltu	x2,x30,x7	 x30:0x00000000  x7:0x00100000  x2=0x00000001
       67295000	      6728	80001088	01753433	sltu	x8,x10,x23	 x10:0xbde25000 x23:0xec000000  x8=0x00000001
       67305000	      6729	8000108c	3e6aa517	auipc	x10,0x3e6aa	 x10=0xbe6ab088
       67315000	      6730	80001090	004a2303	lw	x6,4(x20)	 x20:0x80009f74  x6=0x8000017c PA:0x80009f78
       67325000	      6731	80001094	b1e66f13	ori	x30,x12,-1250	 x12:0x000002f2 x30=0xfffffbfe
       67335000	      6732	80001098	010a0a13	addi	x20,x20,16	 x20:0x80009f74 x20=0x80009f84
       67345000	      6733	8000109c	90d1b793	sltiu	x15,x3,-1779	  x3:0x09fff83f x15=0x00000001
       67355000	      6734	800010a0	00f0d593	srli	x11,x1,0xf	  x1:0x7fff608c x11=0x0000fffe
       67365000	      6735	800010a4	00b91e33	sll	x28,x18,x11	 x18:0x00000006 x11:0x0000fffe x28=0x80000000
       67375000	      6736	800010a8	c88a6893	ori	x17,x20,-888	 x20:0x80009f84 x17=0xffffff8c
       67385000	      6737	800010ac	01f0fdb3	and	x27,x1,x31	  x1:0x7fff608c x31:0x00000001 x27=0x00000000
       67395000	      6738	800010b0	01b3b733	sltu	x14,x7,x27	  x7:0x00100000 x27:0x00000000 x14=0x00000000
       67405000	      6739	800010b4	00130313	addi	x6,x6,1	  x6:0x8000017c  x6=0x8000017d
       67415000	      6740	800010b8	00030367	jalr	x6,x6,0	  x6:0x8000017d  x6=0x800010b8
       67425000	      6741	00000000	00000013	addi	x0,x0,0	  x0:0x00000000
       67435000	      6742	8000017c	00000013	addi	x0,x0,0	  x0:0x00000000
       67445000	      6743	80000180	48464613	xori	x12,x12,1156	 x12:0x000002f2 x12=0x00000676
       67455000	      6744	80000184	f676c393	xori	x7,x13,-153	 x13:0xfffffad9  x7=0x000005be
       67465000	      6745	80000188	00000597	auipc	x11,0x0	 x11=0x80000184
       67475000	      6746	8000018c	2dc58593	addi	x11,x11,732	 x11:0x80000184 x11=0x80000460
       67485000	      6747	80000190	017cd393	srli	x7,x25,0x17	 x25:0x00000002  x7=0x00000000
       67495000	      6748	80000194	404ad393	srai	x7,x21,0x4	 x21:0x00000000  x7=0x00000000
       67505000	      6749	80000198	21258593	addi	x11,x11,530	 x11:0x80000460 x11=0x80000672
       67515000	      6750	8000019c	01a17533	and	x10,x2,x26	  x2:0x00000001 x26:0xfffffad3 x10=0x00000001
       67525000	      6751	800001a0	42c30813	addi	x16,x6,1068	  x6:0x800010b8 x16=0x800014e4
       67535000	      6752	800001a4	014621b3	slt	x3,x12,x20	 x12:0x00000676 x20:0x80009f84  x3=0x00000000
       67545000	      6753	800001a8	01b6d633	srl	x12,x13,x27	 x13:0xfffffad9 x27:0x00000000 x12=0xfffffad9
       67555000	      6754	800001ac	26db3793	sltiu	x15,x22,621	 x22:0x00000000 x15=0x00000001
       67565000	      6755	800001b0	01c780b3	add	x1,x15,x28	 x15:0x00000001 x28:0x80000000  x1=0x80000001
       67575000	      6756	800001b4	def58367	jalr	x6,x11,-529	 x11:0x80000672  x6=0x800001b4
       67585000	      6757	00000000	00000013	addi	x0,x0,0	  x0:0x00000000
       67595000	      6758	80000460	00000013	addi	x0,x0,0	  x0:0x00000000
       67605000	      6759	80000464	fd4a0a13	addi	x20,x20,-44	 x20:0x80009f84 x20=0x80009f58
       67615000	      6760	80000468	01a430b3	sltu	x1,x8,x26	  x8:0x00000001 x26:0xfffffad3  x1=0x00000001
       67625000	      6761	8000046c	5945c737	lui	x14,0x5945c	 x14=0x5945c000
       67635000	      6762	80000470	15ab0e93	addi	x29,x22,346	 x22:0x00000000 x29=0x0000015a
       67645000	      6763	80000474	c1fbcd13	xori	x26,x23,-993	 x23:0xec000000 x26=0x13fffc1f
       67655000	      6764	80000478	006a2223	sw	x6,4(x20)	 x20:0x80009f58  x6:0x800001b4 PA:0x80009f5c
       67665000	      6765	8000047c	c4797717	auipc	x14,0xc4797	 x14=0x44797478
       67675000	      6766	80000480	ff1f5db7	lui	x27,0xff1f5	 x27=0xff1f5000
       67685000	      6767	80000484	001fe5b3	or	x11,x31,x1	 x31:0x00000001  x1:0x00000001 x11=0x00000001
       67695000	      6768	80000488	402b0033	sub	x0,x22,x2	 x22:0x00000000  x2:0x00000001
       67705000	      6769	8000048c	00ca99b3	sll	x19,x21,x12	 x21:0x00000000 x12:0xfffffad9 x19=0x00000000
       67715000	      6770	80000490	1ab24113	xori	x2,x4,427	  x4:0x00000000  x2=0x000001ab
       67725000	      6771	80000494	00be5e13	srli	x28,x28,0xb	 x28:0x80000000 x28=0x00100000
       67735000	      6772	80000498	bfb78393	addi	x7,x15,-1029	 x15:0x00000001  x7=0xfffffbfc
       67745000	      6773	8000049c	005873b3	and	x7,x16,x5	 x16:0x800014e4  x5:0x00000000  x7=0x00000000
       67755000	      6774	800004a0	006a00b3	add	x1,x20,x6	 x20:0x80009f58  x6:0x800001b4  x1=0x0000a10c
       67765000	      6775	800004a4	017c2cb3	slt	x25,x24,x23	 x24:0x80009f74 x23:0xec000000 x25=0x00000001
       67775000	      6776	800004a8	40380633	sub	x12,x16,x3	 x16:0x800014e4  x3:0x00000000 x12=0x800014e4
       67785000	      6777	800004ac	2affa893	slti	x17,x31,687	 x31:0x00000001 x17=0x00000001
       67795000	      6778	800004b0	03a08a63	beq	x1,x26,800004e4	  x1:0x0000a10c x26:0x13fffc1f
       67805000	      6779	800004b4	231a6a93	ori	x21,x20,561	 x20:0x80009f58 x21=0x80009f79
       67815000	      6780	800004b8	01b1fc63	bgeu	x3,x27,800004d0	  x3:0x00000000 x27:0xff1f5000
       67825000	      6781	800004bc	979c8b93	addi	x23,x25,-1671	 x25:0x00000001 x23=0xfffff97a
       67835000	      6782	800004c0	00a6a833	slt	x16,x13,x10	 x13:0xfffffad9 x10:0x00000001 x16=0x00000001
       67845000	      6783	800004c4	41b68633	sub	x12,x13,x27	 x13:0xfffffad9 x27:0xff1f5000 x12=0x00e0aad9
       67855000	      6784	800004c8	00147433	and	x8,x8,x1	  x8:0x00000001  x1:0x0000a10c  x8=0x00000000
       67865000	      6785	800004cc	41ed00b3	sub	x1,x26,x30	 x26:0x13fffc1f x30:0xfffffbfe  x1=0x14000021
       67875000	      6786	800004d0	844ee693	ori	x13,x29,-1980	 x29:0x0000015a x13=0xfffff95e
       67885000	      6787	800004d4	01a993b3	sll	x7,x19,x26	 x19:0x00000000 x26:0x13fffc1f  x7=0x00000000
       67895000	      6788	800004d8	00899833	sll	x16,x19,x8	 x19:0x00000000  x8:0x00000000 x16=0x00000000
       67905000	      6789	800004dc	0189cc63	blt	x19,x24,800004f4	 x19:0x00000000 x24:0x80009f74
       67915000	      6790	800004e0	00e051b3	srl	x3,x0,x14	  x0:0x00000000 x14:0x44797478  x3=0x00000000
       67925000	      6791	800004e4	a6d14b13	xori	x22,x2,-1427	  x2:0x000001ab x22=0xfffffbc6
       67935000	      6792	800004e8	005f6663	bltu	x30,x5,800004f4	 x30:0xfffffbfe  x5:0x00000000
       67945000	      6793	800004ec	01a4d313	srli	x6,x9,0x1a	  x9:0x80009fc4  x6=0x00000020
       67955000	      6794	800004f0	79c1af13	slti	x30,x3,1948	  x3:0x00000000 x30=0x00000001
       67965000	      6795	800004f4	000f9293	slli	x5,x31,0x0	 x31:0x00000001  x5=0x00000001
       67975000	      6796	800004f8	004a2303	lw	x6,4(x20)	 x20:0x80009f58  x6=0x800001b4 PA:0x80009f5c
       67985000	      6797	800004fc	01edd8b3	srl	x17,x27,x30	 x27:0xff1f5000 x30:0x00000001 x17=0x7f8fa800
       67995000	      6798	80000500	dfa74037	lui	x0,0xdfa74	
       68005000	      6799	80000504	a2187793	andi	x15,x16,-1503	 x16:0x00000000 x15=0x00000000
       68015000	      6800	80000508	0171dcb3	srl	x25,x3,x23	  x3:0x00000000 x23:0xfffff97a x25=0x00000000
       68025000	      6801	8000050c	02ca0a13	addi	x20,x20,44	 x20:0x80009f58 x20=0x80009f84
       68035000	      6802	80000510	0f17f793	andi	x15,x15,241	 x15:0x00000000 x15=0x00000000
       68045000	      6803	80000514	83c77613	andi	x12,x14,-1988	 x14:0x44797478 x12=0x44797038
       68055000	      6804	80000518	40075f13	srai	x30,x14,0x0	 x14:0x44797478 x30=0x44797478
       68065000	      6805	8000051c	00000013	addi	x0,x0,0	  x0:0x00000000
       68075000	      6806	80000520	7a597f17	auipc	x30,0x7a597	 x30=0xfa59751c
       68085000	      6807	80000524	00130c13	addi	x24,x6,1	  x6:0x800001b4 x24=0x800001b5
       68095000	      6808	80000528	000c0c67	jalr	x24,x24,0	 x24:0x800001b5 x24=0x80000528
       68105000	      6809	00000000	00000013	addi	x0,x0,0	  x0:0x00000000
       68115000	      6810	800001b4	00000013	addi	x0,x0,0	  x0:0x00000000
       68125000	      6811	800001b8	0240036f	jal	x6,800001b8	  x6=0x800001b8
       68135000	      6812	00000000	00000013	addi	x0,x0,0	  x0:0x00000000
       68145000	      6813	800001d8	00000013	addi	x0,x0,0	  x0:0x00000000
       68155000	      6814	800001dc	fedff0ef	jal	x1,800001dc	  x1=0x800001dc
       68165000	      6815	00000000	00000013	addi	x0,x0,0	  x0:0x00000000
       68175000	      6816	800001c4	00000013	addi	x0,x0,0	  x0:0x00000000
       68185000	      6817	800001c8	0380086f	jal	x16,800001c8	 x16=0x800001c8
       68195000	      6818	00000000	00000013	addi	x0,x0,0	  x0:0x00000000
       68205000	      6819	800001fc	00000013	addi	x0,x0,0	  x0:0x00000000
       68215000	      6820	80000200	fc5ff1ef	jal	x3,80000200	  x3=0x80000200
       68225000	      6821	00000000	00000013	addi	x0,x0,0	  x0:0x00000000
       68235000	      6822	800001c0	00000013	addi	x0,x0,0	  x0:0x00000000
       68245000	      6823	800001c4	0340036f	jal	x6,800001c4	  x6=0x800001c4
       68255000	      6824	00000000	00000013	addi	x0,x0,0	  x0:0x00000000
       68265000	      6825	800001f4	00000013	addi	x0,x0,0	  x0:0x00000000
       68275000	      6826	800001f8	fd9ff1ef	jal	x3,800001f8	  x3=0x800001f8
       68285000	      6827	00000000	00000013	addi	x0,x0,0	  x0:0x00000000
       68295000	      6828	800001cc	00000013	addi	x0,x0,0	  x0:0x00000000
       68305000	      6829	800001d0	0200036f	jal	x6,800001d0	  x6=0x800001d0
       68315000	      6830	00000000	00000013	addi	x0,x0,0	  x0:0x00000000
       68325000	      6831	800001ec	00000013	addi	x0,x0,0	  x0:0x00000000
       68335000	      6832	800001f0	ff9ff5ef	jal	x11,800001f0	 x11=0x800001f0
       68345000	      6833	00000000	00000013	addi	x0,x0,0	  x0:0x00000000
       68355000	      6834	800001e4	00000013	addi	x0,x0,0	  x0:0x00000000
       68365000	      6835	800001e8	fd5ff36f	jal	x6,800001e8	  x6=0x800001e8
       68375000	      6836	00000000	00000013	addi	x0,x0,0	  x0:0x00000000
       68385000	      6837	800001b8	00000013	addi	x0,x0,0	  x0:0x00000000
       68395000	      6838	800001bc	018000ef	jal	x1,800001bc	  x1=0x800001bc
       68405000	      6839	00000000	00000013	addi	x0,x0,0	  x0:0x00000000
       68415000	      6840	800001d0	00000013	addi	x0,x0,0	  x0:0x00000000
       68425000	      6841	800001d4	00c000ef	jal	x1,800001d4	  x1=0x800001d4
       68435000	      6842	00000000	00000013	addi	x0,x0,0	  x0:0x00000000
       68445000	      6843	800001dc	00000013	addi	x0,x0,0	  x0:0x00000000
       68455000	      6844	800001e0	004000ef	jal	x1,800001e0	  x1=0x800001e0
       68465000	      6845	00000000	00000013	addi	x0,x0,0	  x0:0x00000000
       68475000	      6846	800001e0	00000013	addi	x0,x0,0	  x0:0x00000000
       68485000	      6847	800001e4	020001ef	jal	x3,800001e4	  x3=0x800001e4
       68495000	      6848	00000000	00000013	addi	x0,x0,0	  x0:0x00000000
       68505000	      6849	80000200	00000013	addi	x0,x0,0	  x0:0x00000000
       68515000	      6850	80000204	ff9ff0ef	jal	x1,80000204	  x1=0x80000204
       68525000	      6851	00000000	00000013	addi	x0,x0,0	  x0:0x00000000
       68535000	      6852	800001f8	00000013	addi	x0,x0,0	  x0:0x00000000
       68545000	      6853	800001fc	fc5ff7ef	jal	x15,800001fc	 x15=0x800001fc
       68555000	      6854	00000000	00000013	addi	x0,x0,0	  x0:0x00000000
       68565000	      6855	800001bc	00000013	addi	x0,x0,0	  x0:0x00000000
       68575000	      6856	800001c0	00c008ef	jal	x17,800001c0	 x17=0x800001c0
       68585000	      6857	00000000	00000013	addi	x0,x0,0	  x0:0x00000000
       68595000	      6858	800001c8	00000013	addi	x0,x0,0	  x0:0x00000000
       68605000	      6859	800001cc	00c0076f	jal	x14,800001cc	 x14=0x800001cc
       68615000	      6860	00000000	00000013	addi	x0,x0,0	  x0:0x00000000
       68625000	      6861	800001d4	00000013	addi	x0,x0,0	  x0:0x00000000
       68635000	      6862	800001d8	01c0036f	jal	x6,800001d8	  x6=0x800001d8
       68645000	      6863	00000000	00000013	addi	x0,x0,0	  x0:0x00000000
       68655000	      6864	800001f0	00000013	addi	x0,x0,0	  x0:0x00000000
       68665000	      6865	800001f4	ff9ff0ef	jal	x1,800001f4	  x1=0x800001f4
       68675000	      6866	00000000	00000013	addi	x0,x0,0	  x0:0x00000000
       68685000	      6867	800001e8	00000013	addi	x0,x0,0	  x0:0x00000000
       68695000	      6868	800001ec	01c007ef	jal	x15,800001ec	 x15=0x800001ec
       68705000	      6869	00000000	00000013	addi	x0,x0,0	  x0:0x00000000
       68715000	      6870	80000204	00000013	addi	x0,x0,0	  x0:0x00000000
       68725000	      6871	80000208	74136993	ori	x19,x6,1857	  x6:0x800001d8 x19=0x800007d9
       68735000	      6872	8000020c	0180036f	jal	x6,8000020c	  x6=0x8000020c
       68745000	      6873	00000000	00000013	addi	x0,x0,0	  x0:0x00000000
       68755000	      6874	80000220	00000013	addi	x0,x0,0	  x0:0x00000000
       68765000	      6875	80000224	018000ef	jal	x1,80000224	  x1=0x80000224
       68775000	      6876	00000000	00000013	addi	x0,x0,0	  x0:0x00000000
       68785000	      6877	80000238	00000013	addi	x0,x0,0	  x0:0x00000000
       68795000	      6878	8000023c	fd5ff36f	jal	x6,8000023c	  x6=0x8000023c
       68805000	      6879	00000000	00000013	addi	x0,x0,0	  x0:0x00000000
       68815000	      6880	8000020c	00000013	addi	x0,x0,0	  x0:0x00000000
       68825000	      6881	80000210	028000ef	jal	x1,80000210	  x1=0x80000210
       68835000	      6882	00000000	00000013	addi	x0,x0,0	  x0:0x00000000
       68845000	      6883	80000234	00000013	addi	x0,x0,0	  x0:0x00000000
       68855000	      6884	80000238	ffdff0ef	jal	x1,80000238	  x1=0x80000238
       68865000	      6885	00000000	00000013	addi	x0,x0,0	  x0:0x00000000
       68875000	      6886	80000230	00000013	addi	x0,x0,0	  x0:0x00000000
       68885000	      6887	80000234	fedff26f	jal	x4,80000234	  x4=0x80000234
       68895000	      6888	00000000	00000013	addi	x0,x0,0	  x0:0x00000000
       68905000	      6889	8000021c	00000013	addi	x0,x0,0	  x0:0x00000000
       68915000	      6890	80000220	00c00e6f	jal	x28,80000220	 x28=0x80000220
       68925000	      6891	00000000	00000013	addi	x0,x0,0	  x0:0x00000000
       68935000	      6892	80000228	00000013	addi	x0,x0,0	  x0:0x00000000
       68945000	      6893	8000022c	fe9ff0ef	jal	x1,8000022c	  x1=0x8000022c
       68955000	      6894	00000000	00000013	addi	x0,x0,0	  x0:0x00000000
       68965000	      6895	80000210	00000013	addi	x0,x0,0	  x0:0x00000000
       68975000	      6896	80000214	008000ef	jal	x1,80000214	  x1=0x80000214
       68985000	      6897	00000000	00000013	addi	x0,x0,0	  x0:0x00000000
       68995000	      6898	80000218	00000013	addi	x0,x0,0	  x0:0x00000000
       69005000	      6899	8000021c	024000ef	jal	x1,8000021c	  x1=0x8000021c
       69015000	      6900	00000000	00000013	addi	x0,x0,0	  x0:0x00000000
       69025000	      6901	8000023c	00000013	addi	x0,x0,0	  x0:0x00000000
       69035000	      6902	80000240	ff1ff5ef	jal	x11,80000240	 x11=0x80000240
       69045000	      6903	00000000	00000013	addi	x0,x0,0	  x0:0x00000000
       69055000	      6904	8000022c	00000013	addi	x0,x0,0	  x0:0x00000000
       69065000	      6905	80000230	fe9ff0ef	jal	x1,80000230	  x1=0x80000230
       69075000	      6906	00000000	00000013	addi	x0,x0,0	  x0:0x00000000
       69085000	      6907	80000214	00000013	addi	x0,x0,0	  x0:0x00000000
       69095000	      6908	80000218	010000ef	jal	x1,80000218	  x1=0x80000218
       69105000	      6909	00000000	00000013	addi	x0,x0,0	  x0:0x00000000
       69115000	      6910	80000224	00000013	addi	x0,x0,0	  x0:0x00000000
       69125000	      6911	80000228	01c0036f	jal	x6,80000228	  x6=0x80000228
       69135000	      6912	00000000	00000013	addi	x0,x0,0	  x0:0x00000000
       69145000	      6913	80000240	00000013	addi	x0,x0,0	  x0:0x00000000
       69155000	      6914	80000244	00be1cb3	sll	x25,x28,x11	 x28:0x80000220 x11:0x80000240 x25=0x80000220
       69165000	      6915	80000248	94b40d13	addi	x26,x8,-1717	  x8:0x00000000 x26=0xfffff94b
       69175000	      6916	8000024c	cd419117	auipc	x2,0xcd419	  x2=0x4d419248
       69185000	      6917	80000250	b7ba7b13	andi	x22,x20,-1157	 x20:0x80009f84 x22=0x80009b00
       69195000	      6918	80000254	03c45063	bge	x8,x28,80000274	  x8:0x00000000 x28:0x80000220
       69205000	      6919	00000000	00000013	addi	x0,x0,0	  x0:0x00000000
       69215000	      6920	80000270	00000013	addi	x0,x0,0	  x0:0x00000000
       69225000	      6921	80000274	00bd5cb3	srl	x25,x26,x11	 x26:0xfffff94b x11:0x80000240 x25=0xfffff94b
       69235000	      6922	80000278	01c9d313	srli	x6,x19,0x1c	 x19:0x800007d9  x6=0x00000008
       69245000	      6923	8000027c	01582d33	slt	x26,x16,x21	 x16:0x800001c8 x21:0x80009f79 x26=0x00000001
       69255000	      6924	80000280	017c05b3	add	x11,x24,x23	 x24:0x80000528 x23:0xfffff97a x11=0x7ffffea2
       69265000	      6925	80000284	019f5993	srli	x19,x30,0x19	 x30:0xfa59751c x19=0x0000007d
       69275000	      6926	80000288	01e71a63	bne	x14,x30,8000029c	 x14:0x800001cc x30:0xfa59751c
       69285000	      6927	00000000	00000013	addi	x0,x0,0	  x0:0x00000000
       69295000	      6928	80000298	00000013	addi	x0,x0,0	  x0:0x00000000
       69305000	      6929	8000029c	9f5a2893	slti	x17,x20,-1547	 x20:0x80009f84 x17=0x00000001
       69315000	      6930	800002a0	734e7697	auipc	x13,0x734e7	 x13=0xf34e729c
       69325000	      6931	800002a4	13a56c93	ori	x25,x10,314	 x10:0x00000001 x25=0x0000013b
       69335000	      6932	800002a8	03521a63	bne	x4,x21,800002dc	  x4:0x80000234 x21:0x80009f79
       69345000	      6933	00000000	00000013	addi	x0,x0,0	  x0:0x00000000
       69355000	      6934	800002d8	00000013	addi	x0,x0,0	  x0:0x00000000
       69365000	      6935	800002dc	0105b133	sltu	x2,x11,x16	 x11:0x7ffffea2 x16:0x800001c8  x2=0x00000001
       69375000	      6936	800002e0	008e4663	blt	x28,x8,800002ec	 x28:0x80000220  x8:0x00000000
       69385000	      6937	00000000	00000013	addi	x0,x0,0	  x0:0x00000000
       69395000	      6938	800002e8	00000013	addi	x0,x0,0	  x0:0x00000000
       69405000	      6939	800002ec	00ff9233	sll	x4,x31,x15	 x31:0x00000001 x15:0x800001ec  x4=0x00001000
       69415000	      6940	800002f0	0183fe63	bgeu	x7,x24,8000030c	  x7:0x00000000 x24:0x80000528
       69425000	      6941	800002f4	03484a63	blt	x16,x20,80000328	 x16:0x800001c8 x20:0x80009f84
       69435000	      6942	00000000	00000013	addi	x0,x0,0	  x0:0x00000000
       69445000	      6943	80000324	00000013	addi	x0,x0,0	  x0:0x00000000
       69455000	      6944	80000328	0124c833	xor	x16,x9,x18	  x9:0x80009fc4 x18:0x00000006 x16=0x80009fc2
       69465000	      6945	8000032c	21dccb97	auipc	x23,0x21dcc	 x23=0xa1dcc328
       69475000	      6946	80000330	bf1eb837	lui	x16,0xbf1eb	 x16=0xbf1eb000
       69485000	      6947	80000334	014686b3	add	x13,x13,x20	 x13:0xf34e729c x20:0x80009f84 x13=0x734f1220
       69495000	      6948	80000338	006703b3	add	x7,x14,x6	 x14:0x800001cc  x6:0x00000008  x7=0x800001d4
       69505000	      6949	8000033c	0192b1b3	sltu	x3,x5,x25	  x5:0x00000001 x25:0x0000013b  x3=0x00000001
       69515000	      6950	80000340	012bd463	bge	x23,x18,80000348	 x23:0xa1dcc328 x18:0x00000006
       69525000	      6951	80000344	01e4ec33	or	x24,x9,x30	  x9:0x80009fc4 x30:0xfa59751c x24=0xfa59ffdc
       69535000	      6952	80000348	0336da63	bge	x13,x19,8000037c	 x13:0x734f1220 x19:0x0000007d
       69545000	      6953	00000000	00000013	addi	x0,x0,0	  x0:0x00000000
       69555000	      6954	80000378	00000013	addi	x0,x0,0	  x0:0x00000000
       69565000	      6955	8000037c	00afdbb3	srl	x23,x31,x10	 x31:0x00000001 x10:0x00000001 x23=0x00000000
       69575000	      6956	80000380	00721833	sll	x16,x4,x7	  x4:0x00001000  x7:0x800001d4 x16=0x00000000
       69585000	      6957	80000384	00dc2c33	slt	x24,x24,x13	 x24:0xfa59ffdc x13:0x734f1220 x24=0x00000001
       69595000	      6958	80000388	01f8e033	or	x0,x17,x31	 x17:0x00000001 x31:0x00000001
       69605000	      6959	8000038c	04cd0263	beq	x26,x12,800003d0	 x26:0x00000001 x12:0x44797038
       69615000	      6960	80000390	4038d793	srai	x15,x17,0x3	 x17:0x00000001 x15=0x00000000
       69625000	      6961	80000394	00739613	slli	x12,x7,0x7	  x7:0x800001d4 x12=0x0000ea00
       69635000	      6962	80000398	400c5fb3	sra	x31,x24,x0	 x24:0x00000001  x0:0x00000000 x31=0x00000001
       69645000	      6963	8000039c	c5be0013	addi	x0,x28,-933	 x28:0x80000220
       69655000	      6964	800003a0	016140b3	xor	x1,x2,x22	  x2:0x00000001 x22:0x80009b00  x1=0x80009b01
       69665000	      6965	800003a4	00e94333	xor	x6,x18,x14	 x18:0x00000006 x14:0x800001cc  x6=0x800001ca
       69675000	      6966	800003a8	d0f8b513	sltiu	x10,x17,-753	 x17:0x00000001 x10=0x00000001
       69685000	      6967	800003ac	0449d463	bge	x19,x4,800003f4	 x19:0x0000007d  x4:0x00001000
       69695000	      6968	800003b0	41b8d2b3	sra	x5,x17,x27	 x17:0x00000001 x27:0xff1f5000  x5=0x00000001
       69705000	      6969	800003b4	00000013	addi	x0,x0,0	  x0:0x00000000
       69715000	      6970	800003b8	4cd28793	addi	x15,x5,1229	  x5:0x00000001 x15=0x000004ce
       69725000	      6971	800003bc	00000013	addi	x0,x0,0	  x0:0x00000000
       69735000	      6972	800003c0	5cef3393	sltiu	x7,x30,1486	 x30:0xfa59751c  x7=0x00000000
       69745000	      6973	800003c4	0189d7b3	srl	x15,x19,x24	 x19:0x0000007d x24:0x00000001 x15=0x0000003e
       69755000	      6974	800003c8	533653b7	lui	x7,0x53365	  x7=0x53365000
       69765000	      6975	800003cc	60dba013	slti	x0,x23,1549	 x23:0x00000000
       69775000	      6976	800003d0	0124bc33	sltu	x24,x9,x18	  x9:0x80009fc4 x18:0x00000006 x24=0x00000000
       69785000	      6977	800003d4	00245263	bge	x8,x2,800003d8	  x8:0x00000000  x2:0x00000001
       69795000	      6978	800003d8	41e05e93	srai	x29,x0,0x1e	  x0:0x00000000 x29=0x00000000
       69805000	      6979	800003dc	04cf5c63	bge	x30,x12,80000434	 x30:0xfa59751c x12:0x0000ea00
       69815000	      6980	800003e0	05e8fc63	bgeu	x17,x30,80000438	 x17:0x00000001 x30:0xfa59751c
       69825000	      6981	800003e4	05009863	bne	x1,x16,80000434	  x1:0x80009b01 x16:0x00000000
       69835000	      6982	00000000	00000013	addi	x0,x0,0	  x0:0x00000000
       69845000	      6983	80000430	00000013	addi	x0,x0,0	  x0:0x00000000
       69855000	      6984	80000434	00c59e13	slli	x28,x11,0xc	 x11:0x7ffffea2 x28=0xffea2000
       69865000	      6985	80000438	00345e93	srli	x29,x8,0x3	  x8:0x00000000 x29=0x00000000
       69875000	      6986	8000043c	cbe87593	andi	x11,x16,-834	 x16:0x00000000 x11=0x00000000
       69885000	      6987	80000440	407dd793	srai	x15,x27,0x7	 x27:0xff1f5000 x15=0xfffe3ea0
       69895000	      6988	80000444	86363b13	sltiu	x22,x12,-1949	 x12:0x0000ea00 x22=0x00000001
       69905000	      6989	80000448	f85ca217	auipc	x4,0xf85ca	  x4=0x785ca444
       69915000	      6990	8000044c	016fecb3	or	x25,x31,x22	 x31:0x00000001 x22:0x00000001 x25=0x00000001
       69925000	      6991	80000450	00000917	auipc	x18,0x0	 x18=0x8000044c
       69935000	      6992	80000454	00c90913	addi	x18,x18,12	 x18:0x8000044c x18=0x80000458
       69945000	      6993	80000458	00090067	jalr	x0,x18,0	 x18:0x80000458
       69955000	      6994	00000000	00000013	addi	x0,x0,0	  x0:0x00000000
       69965000	      6995	80000458	00000013	addi	x0,x0,0	  x0:0x00000000
       69975000	      6996	8000045c	00100193	addi	x3,x0,1	  x0:0x00000000  x3=0x00000001
       69985000	      6997	80000460	00000073	ecall	
       69995000	      6998	80000464	fd4a0a13	addi	x20,x20,-44	 x20:0x80009f84 x20=0x80009f58
