		Time			Cycle	PC		Insn	Decoded instruction	Register and memory contents
          65000	         5	80000004	00000293	addi	x5,x0,0	  x0:0x00000000  x5=0x00000000
          75000	         6	80000008	00000313	addi	x6,x0,0	  x0:0x00000000  x6=0x00000000
          85000	         7	8000000c	00628263	beq	x5,x6,80000010	  x5:0x00000000  x6:0x00000000
          95000	         8	00000000	00000013	addi	x0,x0,0	  x0:0x00000000
         105000	         9	8000000c	00000013	addi	x0,x0,0	  x0:0x00000000
         115000	        10	80000010	00000817	auipc	x16,0x0	 x16=0x8000000c
         125000	        11	80000014	00c80813	addi	x16,x16,12	 x16:0x8000000c x16=0x80000018
         135000	        12	80000018	00080067	jalr	x0,x16,0	 x16:0x80000018
         145000	        13	00000000	00000013	addi	x0,x0,0	  x0:0x00000000
         155000	        14	80000018	00000013	addi	x0,x0,0	  x0:0x00000000
         165000	        15	8000001c	40000db7	lui	x27,0x40000	 x27=0x40000000
         175000	        16	80000020	100d8d93	addi	x27,x27,256	 x27:0x40000000 x27=0x40000100
         185000	        17	80000024	00000013	addi	x0,x0,0	  x0:0x00000000
         195000	        18	80000028	0000a417	auipc	x8,0xa	  x8=0x8000a024
         205000	        19	8000002c	fa040413	addi	x8,x8,-96	  x8:0x8000a024  x8=0x80009fc4
         215000	        20	80000030	00005d97	auipc	x27,0x5	 x27=0x8000502c
         225000	        21	80000034	fc4d8d93	addi	x27,x27,-60	 x27:0x8000502c x27=0x80004ff0
         235000	        22	80000038	001ded93	ori	x27,x27,1	 x27:0x80004ff0 x27=0x80004ff1
         245000	        23	8000003c	00000013	addi	x0,x0,0	  x0:0x00000000
         255000	        24	80000040	00000d97	auipc	x27,0x0	 x27=0x8000003c
         265000	        25	80000044	020d8d93	addi	x27,x27,32	 x27:0x8000003c x27=0x8000005c
         275000	        26	80000048	00000013	addi	x0,x0,0	  x0:0x00000000
         285000	        27	8000004c	00000013	addi	x0,x0,0	  x0:0x00000000
         295000	        28	80000050	00002db7	lui	x27,0x2	 x27=0x00002000
         305000	        29	80000054	800d8d93	addi	x27,x27,-2048	 x27:0x00002000 x27=0x00001800
         315000	        30	80000058	00000013	addi	x0,x0,0	  x0:0x00000000
         325000	        31	8000005c	00000013	addi	x0,x0,0	  x0:0x00000000
         335000	        32	80000060	80000037	lui	x0,0x80000	
         345000	        33	80000064	00000013	addi	x0,x0,0	  x0:0x00000000
         355000	        34	80000068	f48830b7	lui	x1,0xf4883	  x1=0xf4883000
         365000	        35	8000006c	a1108093	addi	x1,x1,-1519	  x1:0xf4883000  x1=0xf4882a11
         375000	        36	80000070	80000137	lui	x2,0x80000	  x2=0x80000000
         385000	        37	80000074	800001b7	lui	x3,0x80000	  x3=0x80000000
         395000	        38	80000078	f5979237	lui	x4,0xf5979	  x4=0xf5979000
         405000	        39	8000007c	7fe20213	addi	x4,x4,2046	  x4:0xf5979000  x4=0xf59797fe
         415000	        40	80000080	00000293	addi	x5,x0,0	  x0:0x00000000  x5=0x00000000
         425000	        41	80000084	00500313	addi	x6,x0,5	  x0:0x00000000  x6=0x00000005
         435000	        42	80000088	00000393	addi	x7,x0,0	  x0:0x00000000  x7=0x00000000
         445000	        43	8000008c	fadc84b7	lui	x9,0xfadc8	  x9=0xfadc8000
         455000	        44	80000090	c2b48493	addi	x9,x9,-981	  x9:0xfadc8000  x9=0xfadc7c2b
         465000	        45	80000094	00600513	addi	x10,x0,6	  x0:0x00000000 x10=0x00000006
         475000	        46	80000098	cc3f15b7	lui	x11,0xcc3f1	 x11=0xcc3f1000
         485000	        47	8000009c	d7558593	addi	x11,x11,-651	 x11:0xcc3f1000 x11=0xcc3f0d75
         495000	        48	800000a0	00d00613	addi	x12,x0,13	  x0:0x00000000 x12=0x0000000d
         505000	        49	800000a4	c81da6b7	lui	x13,0xc81da	 x13=0xc81da000
         515000	        50	800000a8	b1b68693	addi	x13,x13,-1253	 x13:0xc81da000 x13=0xc81d9b1b
         525000	        51	800000ac	80000737	lui	x14,0x80000	 x14=0x80000000
         535000	        52	800000b0	800007b7	lui	x15,0x80000	 x15=0x80000000
         545000	        53	800000b4	00000813	addi	x16,x0,0	  x0:0x00000000 x16=0x00000000
         555000	        54	800000b8	00000893	addi	x17,x0,0	  x0:0x00000000 x17=0x00000000
         565000	        55	800000bc	f3d19937	lui	x18,0xf3d19	 x18=0xf3d19000
         575000	        56	800000c0	70b90913	addi	x18,x18,1803	 x18:0xf3d19000 x18=0xf3d1970b
         585000	        57	800000c4	753a39b7	lui	x19,0x753a3	 x19=0x753a3000
         595000	        58	800000c8	c5898993	addi	x19,x19,-936	 x19:0x753a3000 x19=0x753a2c58
         605000	        59	800000cc	f853aa37	lui	x20,0xf853a	 x20=0xf853a000
         615000	        60	800000d0	b81a0a13	addi	x20,x20,-1151	 x20:0xf853a000 x20=0xf8539b81
         625000	        61	800000d4	00200a93	addi	x21,x0,2	  x0:0x00000000 x21=0x00000002
         635000	        62	800000d8	f6e10b37	lui	x22,0xf6e10	 x22=0xf6e10000
         645000	        63	800000dc	964b0b13	addi	x22,x22,-1692	 x22:0xf6e10000 x22=0xf6e0f964
         655000	        64	800000e0	80000bb7	lui	x23,0x80000	 x23=0x80000000
         665000	        65	800000e4	00500c13	addi	x24,x0,5	  x0:0x00000000 x24=0x00000005
         675000	        66	800000e8	afe06cb7	lui	x25,0xafe06	 x25=0xafe06000
         685000	        67	800000ec	606c8c93	addi	x25,x25,1542	 x25:0xafe06000 x25=0xafe06606
         695000	        68	800000f0	d2efed37	lui	x26,0xd2efe	 x26=0xd2efe000
         705000	        69	800000f4	fd7d0d13	addi	x26,x26,-41	 x26:0xd2efe000 x26=0xd2efdfd7
         715000	        70	800000f8	00000d93	addi	x27,x0,0	  x0:0x00000000 x27=0x00000000
         725000	        71	800000fc	80000eb7	lui	x29,0x80000	 x29=0x80000000
         735000	        72	80000100	00000f13	addi	x30,x0,0	  x0:0x00000000 x30=0x00000000
         745000	        73	80000104	00000f93	addi	x31,x0,0	  x0:0x00000000 x31=0x00000000
         755000	        74	80000108	0000ae17	auipc	x28,0xa	 x28=0x8000a104
         765000	        75	8000010c	e80e0e13	addi	x28,x28,-384	 x28:0x8000a104 x28=0x80009f84
         775000	        76	80000110	01800c6f	jal	x24,80000110	 x24=0x80000110
         785000	        77	00000000	00000013	addi	x0,x0,0	  x0:0x00000000
         795000	        78	80000124	00000013	addi	x0,x0,0	  x0:0x00000000
         805000	        79	80000128	fedff36f	jal	x6,80000128	  x6=0x80000128
         815000	        80	00000000	00000013	addi	x0,x0,0	  x0:0x00000000
         825000	        81	80000110	00000013	addi	x0,x0,0	  x0:0x00000000
         835000	        82	80000114	0080036f	jal	x6,80000114	  x6=0x80000114
         845000	        83	00000000	00000013	addi	x0,x0,0	  x0:0x00000000
         855000	        84	80000118	00000013	addi	x0,x0,0	  x0:0x00000000
         865000	        85	8000011c	ffdff36f	jal	x6,8000011c	  x6=0x8000011c
         875000	        86	00000000	00000013	addi	x0,x0,0	  x0:0x00000000
         885000	        87	80000114	00000013	addi	x0,x0,0	  x0:0x00000000
         895000	        88	80000118	01c001ef	jal	x3,80000118	  x3=0x80000118
         905000	        89	00000000	00000013	addi	x0,x0,0	  x0:0x00000000
         915000	        90	80000130	00000013	addi	x0,x0,0	  x0:0x00000000
         925000	        91	80000134	008000ef	jal	x1,80000134	  x1=0x80000134
         935000	        92	00000000	00000013	addi	x0,x0,0	  x0:0x00000000
         945000	        93	80000138	00000013	addi	x0,x0,0	  x0:0x00000000
         955000	        94	8000013c	fe5ff36f	jal	x6,8000013c	  x6=0x8000013c
         965000	        95	00000000	00000013	addi	x0,x0,0	  x0:0x00000000
         975000	        96	8000011c	00000013	addi	x0,x0,0	  x0:0x00000000
         985000	        97	80000120	00c000ef	jal	x1,80000120	  x1=0x80000120
         995000	        98	00000000	00000013	addi	x0,x0,0	  x0:0x00000000
        1005000	        99	80000128	00000013	addi	x0,x0,0	  x0:0x00000000
        1015000	       100	8000012c	004000ef	jal	x1,8000012c	  x1=0x8000012c
        1025000	       101	00000000	00000013	addi	x0,x0,0	  x0:0x00000000
        1035000	       102	8000012c	00000013	addi	x0,x0,0	  x0:0x00000000
        1045000	       103	80000130	008000ef	jal	x1,80000130	  x1=0x80000130
        1055000	       104	00000000	00000013	addi	x0,x0,0	  x0:0x00000000
        1065000	       105	80000134	00000013	addi	x0,x0,0	  x0:0x00000000
        1075000	       106	80000138	fedff0ef	jal	x1,80000138	  x1=0x80000138
        1085000	       107	00000000	00000013	addi	x0,x0,0	  x0:0x00000000
        1095000	       108	80000120	00000013	addi	x0,x0,0	  x0:0x00000000
        1105000	       109	80000124	01c000ef	jal	x1,80000124	  x1=0x80000124
        1115000	       110	00000000	00000013	addi	x0,x0,0	  x0:0x00000000
        1125000	       111	8000013c	00000013	addi	x0,x0,0	  x0:0x00000000
        1135000	       112	80000140	01fd0633	add	x12,x26,x31	 x26:0xd2efdfd7 x31:0x00000000 x12=0xd2efdfd7
        1145000	       113	80000144	02400c6f	jal	x24,80000144	 x24=0x80000144
        1155000	       114	00000000	00000013	addi	x0,x0,0	  x0:0x00000000
        1165000	       115	80000164	00000013	addi	x0,x0,0	  x0:0x00000000
        1175000	       116	80000168	ff1ff16f	jal	x2,80000168	  x2=0x80000168
        1185000	       117	00000000	00000013	addi	x0,x0,0	  x0:0x00000000
        1195000	       118	80000154	00000013	addi	x0,x0,0	  x0:0x00000000
        1205000	       119	80000158	014000ef	jal	x1,80000158	  x1=0x80000158
        1215000	       120	00000000	00000013	addi	x0,x0,0	  x0:0x00000000
        1225000	       121	80000168	00000013	addi	x0,x0,0	  x0:0x00000000
        1235000	       122	8000016c	ff1ffeef	jal	x29,8000016c	 x29=0x8000016c
        1245000	       123	00000000	00000013	addi	x0,x0,0	  x0:0x00000000
        1255000	       124	80000158	00000013	addi	x0,x0,0	  x0:0x00000000
        1265000	       125	8000015c	0200036f	jal	x6,8000015c	  x6=0x8000015c
        1275000	       126	00000000	00000013	addi	x0,x0,0	  x0:0x00000000
        1285000	       127	80000178	00000013	addi	x0,x0,0	  x0:0x00000000
        1295000	       128	8000017c	008000ef	jal	x1,8000017c	  x1=0x8000017c
        1305000	       129	00000000	00000013	addi	x0,x0,0	  x0:0x00000000
        1315000	       130	80000180	00000013	addi	x0,x0,0	  x0:0x00000000
        1325000	       131	80000184	ff5ff0ef	jal	x1,80000184	  x1=0x80000184
        1335000	       132	00000000	00000013	addi	x0,x0,0	  x0:0x00000000
        1345000	       133	80000174	00000013	addi	x0,x0,0	  x0:0x00000000
        1355000	       134	80000178	ffdffc6f	jal	x24,80000178	 x24=0x80000178
        1365000	       135	00000000	00000013	addi	x0,x0,0	  x0:0x00000000
        1375000	       136	80000170	00000013	addi	x0,x0,0	  x0:0x00000000
        1385000	       137	80000174	fe1ff36f	jal	x6,80000174	  x6=0x80000174
        1395000	       138	00000000	00000013	addi	x0,x0,0	  x0:0x00000000
        1405000	       139	80000150	00000013	addi	x0,x0,0	  x0:0x00000000
        1415000	       140	80000154	0100036f	jal	x6,80000154	  x6=0x80000154
        1425000	       141	00000000	00000013	addi	x0,x0,0	  x0:0x00000000
        1435000	       142	80000160	00000013	addi	x0,x0,0	  x0:0x00000000
        1445000	       143	80000164	ffdff0ef	jal	x1,80000164	  x1=0x80000164
        1455000	       144	00000000	00000013	addi	x0,x0,0	  x0:0x00000000
        1465000	       145	8000015c	00000013	addi	x0,x0,0	  x0:0x00000000
        1475000	       146	80000160	0100026f	jal	x4,80000160	  x4=0x80000160
        1485000	       147	00000000	00000013	addi	x0,x0,0	  x0:0x00000000
        1495000	       148	8000016c	00000013	addi	x0,x0,0	  x0:0x00000000
        1505000	       149	80000170	fd9ff36f	jal	x6,80000170	  x6=0x80000170
        1515000	       150	00000000	00000013	addi	x0,x0,0	  x0:0x00000000
        1525000	       151	80000144	00000013	addi	x0,x0,0	  x0:0x00000000
        1535000	       152	80000148	0380036f	jal	x6,80000148	  x6=0x80000148
        1545000	       153	00000000	00000013	addi	x0,x0,0	  x0:0x00000000
        1555000	       154	8000017c	00000013	addi	x0,x0,0	  x0:0x00000000
        1565000	       155	80000180	fd1ff0ef	jal	x1,80000180	  x1=0x80000180
        1575000	       156	00000000	00000013	addi	x0,x0,0	  x0:0x00000000
        1585000	       157	8000014c	00000013	addi	x0,x0,0	  x0:0x00000000
        1595000	       158	80000150	ffdff0ef	jal	x1,80000150	  x1=0x80000150
        1605000	       159	00000000	00000013	addi	x0,x0,0	  x0:0x00000000
        1615000	       160	80000148	00000013	addi	x0,x0,0	  x0:0x00000000
        1625000	       161	8000014c	03c006ef	jal	x13,8000014c	 x13=0x8000014c
        1635000	       162	00000000	00000013	addi	x0,x0,0	  x0:0x00000000
        1645000	       163	80000184	00000013	addi	x0,x0,0	  x0:0x00000000
        1655000	       164	80000188	017426b3	slt	x13,x8,x23	  x8:0x80009fc4 x23:0x80000000 x13=0x00000000
        1665000	       165	8000018c	00c00c6f	jal	x24,8000018c	 x24=0x8000018c
        1675000	       166	00000000	00000013	addi	x0,x0,0	  x0:0x00000000
        1685000	       167	80000194	00000013	addi	x0,x0,0	  x0:0x00000000
        1695000	       168	80000198	024000ef	jal	x1,80000198	  x1=0x80000198
        1705000	       169	00000000	00000013	addi	x0,x0,0	  x0:0x00000000
        1715000	       170	800001b8	00000013	addi	x0,x0,0	  x0:0x00000000
        1725000	       171	800001bc	00c0036f	jal	x6,800001bc	  x6=0x800001bc
        1735000	       172	00000000	00000013	addi	x0,x0,0	  x0:0x00000000
        1745000	       173	800001c4	00000013	addi	x0,x0,0	  x0:0x00000000
        1755000	       174	800001c8	fedff9ef	jal	x19,800001c8	 x19=0x800001c8
        1765000	       175	00000000	00000013	addi	x0,x0,0	  x0:0x00000000
        1775000	       176	800001b0	00000013	addi	x0,x0,0	  x0:0x00000000
        1785000	       177	800001b4	02c00aef	jal	x21,800001b4	 x21=0x800001b4
        1795000	       178	00000000	00000013	addi	x0,x0,0	  x0:0x00000000
        1805000	       179	800001dc	00000013	addi	x0,x0,0	  x0:0x00000000
        1815000	       180	800001e0	ffdff0ef	jal	x1,800001e0	  x1=0x800001e0
        1825000	       181	00000000	00000013	addi	x0,x0,0	  x0:0x00000000
        1835000	       182	800001d8	00000013	addi	x0,x0,0	  x0:0x00000000
        1845000	       183	800001dc	01800def	jal	x27,800001dc	 x27=0x800001dc
        1855000	       184	00000000	00000013	addi	x0,x0,0	  x0:0x00000000
        1865000	       185	800001f0	00000013	addi	x0,x0,0	  x0:0x00000000
        1875000	       186	800001f4	ffdff0ef	jal	x1,800001f4	  x1=0x800001f4
        1885000	       187	00000000	00000013	addi	x0,x0,0	  x0:0x00000000
        1895000	       188	800001ec	00000013	addi	x0,x0,0	  x0:0x00000000
        1905000	       189	800001f0	008000ef	jal	x1,800001f0	  x1=0x800001f0
        1915000	       190	00000000	00000013	addi	x0,x0,0	  x0:0x00000000
        1925000	       191	800001f4	00000013	addi	x0,x0,0	  x0:0x00000000
        1935000	       192	800001f8	fb5ff0ef	jal	x1,800001f8	  x1=0x800001f8
        1945000	       193	00000000	00000013	addi	x0,x0,0	  x0:0x00000000
        1955000	       194	800001a8	00000013	addi	x0,x0,0	  x0:0x00000000
        1965000	       195	800001ac	00c0016f	jal	x2,800001ac	  x2=0x800001ac
        1975000	       196	00000000	00000013	addi	x0,x0,0	  x0:0x00000000
        1985000	       197	800001b4	00000013	addi	x0,x0,0	  x0:0x00000000
        1995000	       198	800001b8	01c000ef	jal	x1,800001b8	  x1=0x800001b8
        2005000	       199	00000000	00000013	addi	x0,x0,0	  x0:0x00000000
        2015000	       200	800001d0	00000013	addi	x0,x0,0	  x0:0x00000000
        2025000	       201	800001d4	ffdff96f	jal	x18,800001d4	 x18=0x800001d4
        2035000	       202	00000000	00000013	addi	x0,x0,0	  x0:0x00000000
        2045000	       203	800001cc	00000013	addi	x0,x0,0	  x0:0x00000000
        2055000	       204	800001d0	ff5ff0ef	jal	x1,800001d0	  x1=0x800001d0
        2065000	       205	00000000	00000013	addi	x0,x0,0	  x0:0x00000000
        2075000	       206	800001c0	00000013	addi	x0,x0,0	  x0:0x00000000
        2085000	       207	800001c4	fe1ff36f	jal	x6,800001c4	  x6=0x800001c4
        2095000	       208	00000000	00000013	addi	x0,x0,0	  x0:0x00000000
        2105000	       209	800001a0	00000013	addi	x0,x0,0	  x0:0x00000000
        2115000	       210	800001a4	01c002ef	jal	x5,800001a4	  x5=0x800001a4
        2125000	       211	00000000	00000013	addi	x0,x0,0	  x0:0x00000000
        2135000	       212	800001bc	00000013	addi	x0,x0,0	  x0:0x00000000
        2145000	       213	800001c0	02400f6f	jal	x30,800001c0	 x30=0x800001c0
        2155000	       214	00000000	00000013	addi	x0,x0,0	  x0:0x00000000
        2165000	       215	800001e0	00000013	addi	x0,x0,0	  x0:0x00000000
        2175000	       216	800001e4	0080016f	jal	x2,800001e4	  x2=0x800001e4
        2185000	       217	00000000	00000013	addi	x0,x0,0	  x0:0x00000000
        2195000	       218	800001e8	00000013	addi	x0,x0,0	  x0:0x00000000
        2205000	       219	800001ec	fb1ff0ef	jal	x1,800001ec	  x1=0x800001ec
        2215000	       220	00000000	00000013	addi	x0,x0,0	  x0:0x00000000
        2225000	       221	80000198	00000013	addi	x0,x0,0	  x0:0x00000000
        2235000	       222	8000019c	00c0036f	jal	x6,8000019c	  x6=0x8000019c
        2245000	       223	00000000	00000013	addi	x0,x0,0	  x0:0x00000000
        2255000	       224	800001a4	00000013	addi	x0,x0,0	  x0:0x00000000
        2265000	       225	800001a8	ff9ff0ef	jal	x1,800001a8	  x1=0x800001a8
        2275000	       226	00000000	00000013	addi	x0,x0,0	  x0:0x00000000
        2285000	       227	8000019c	00000013	addi	x0,x0,0	  x0:0x00000000
        2295000	       228	800001a0	ff5ff0ef	jal	x1,800001a0	  x1=0x800001a0
        2305000	       229	00000000	00000013	addi	x0,x0,0	  x0:0x00000000
        2315000	       230	80000190	00000013	addi	x0,x0,0	  x0:0x00000000
        2325000	       231	80000194	0540016f	jal	x2,80000194	  x2=0x80000194
        2335000	       232	00000000	00000013	addi	x0,x0,0	  x0:0x00000000
        2345000	       233	800001e4	00000013	addi	x0,x0,0	  x0:0x00000000
        2355000	       234	800001e8	ff1ff0ef	jal	x1,800001e8	  x1=0x800001e8
        2365000	       235	00000000	00000013	addi	x0,x0,0	  x0:0x00000000
        2375000	       236	800001d4	00000013	addi	x0,x0,0	  x0:0x00000000
        2385000	       237	800001d8	fb9ffc6f	jal	x24,800001d8	 x24=0x800001d8
        2395000	       238	00000000	00000013	addi	x0,x0,0	  x0:0x00000000
        2405000	       239	8000018c	00000013	addi	x0,x0,0	  x0:0x00000000
        2415000	       240	80000190	03c000ef	jal	x1,80000190	  x1=0x80000190
        2425000	       241	00000000	00000013	addi	x0,x0,0	  x0:0x00000000
        2435000	       242	800001c8	00000013	addi	x0,x0,0	  x0:0x00000000
        2445000	       243	800001cc	fe5ff0ef	jal	x1,800001cc	  x1=0x800001cc
        2455000	       244	00000000	00000013	addi	x0,x0,0	  x0:0x00000000
        2465000	       245	800001ac	00000013	addi	x0,x0,0	  x0:0x00000000
        2475000	       246	800001b0	04c000ef	jal	x1,800001b0	  x1=0x800001b0
        2485000	       247	00000000	00000013	addi	x0,x0,0	  x0:0x00000000
        2495000	       248	800001f8	00000013	addi	x0,x0,0	  x0:0x00000000
        2505000	       249	800001fc	412ad233	sra	x4,x21,x18	 x21:0x800001b4 x18:0x800001d4  x4=0xfffff800
        2515000	       250	80000200	00400c6f	jal	x24,80000200	 x24=0x80000200
        2525000	       251	00000000	00000013	addi	x0,x0,0	  x0:0x00000000
        2535000	       252	80000200	00000013	addi	x0,x0,0	  x0:0x00000000
        2545000	       253	80000204	044000ef	jal	x1,80000204	  x1=0x80000204
        2555000	       254	00000000	00000013	addi	x0,x0,0	  x0:0x00000000
        2565000	       255	80000244	00000013	addi	x0,x0,0	  x0:0x00000000
        2575000	       256	80000248	ff9ff0ef	jal	x1,80000248	  x1=0x80000248
        2585000	       257	00000000	00000013	addi	x0,x0,0	  x0:0x00000000
        2595000	       258	8000023c	00000013	addi	x0,x0,0	  x0:0x00000000
        2605000	       259	80000240	ff1ff3ef	jal	x7,80000240	  x7=0x80000240
        2615000	       260	00000000	00000013	addi	x0,x0,0	  x0:0x00000000
        2625000	       261	8000022c	00000013	addi	x0,x0,0	  x0:0x00000000
        2635000	       262	80000230	fd9ffc6f	jal	x24,80000230	 x24=0x80000230
        2645000	       263	00000000	00000013	addi	x0,x0,0	  x0:0x00000000
        2655000	       264	80000204	00000013	addi	x0,x0,0	  x0:0x00000000
        2665000	       265	80000208	04c00d6f	jal	x26,80000208	 x26=0x80000208
        2675000	       266	00000000	00000013	addi	x0,x0,0	  x0:0x00000000
        2685000	       267	80000250	00000013	addi	x0,x0,0	  x0:0x00000000
        2695000	       268	80000254	fc9ff0ef	jal	x1,80000254	  x1=0x80000254
        2705000	       269	00000000	00000013	addi	x0,x0,0	  x0:0x00000000
        2715000	       270	80000218	00000013	addi	x0,x0,0	  x0:0x00000000
        2725000	       271	8000021c	044001ef	jal	x3,8000021c	  x3=0x8000021c
        2735000	       272	00000000	00000013	addi	x0,x0,0	  x0:0x00000000
        2745000	       273	8000025c	00000013	addi	x0,x0,0	  x0:0x00000000
        2755000	       274	80000260	fd9ff0ef	jal	x1,80000260	  x1=0x80000260
        2765000	       275	00000000	00000013	addi	x0,x0,0	  x0:0x00000000
        2775000	       276	80000234	00000013	addi	x0,x0,0	  x0:0x00000000
        2785000	       277	80000238	ff1ff0ef	jal	x1,80000238	  x1=0x80000238
        2795000	       278	00000000	00000013	addi	x0,x0,0	  x0:0x00000000
        2805000	       279	80000224	00000013	addi	x0,x0,0	  x0:0x00000000
        2815000	       280	80000228	00c00f6f	jal	x30,80000228	 x30=0x80000228
        2825000	       281	00000000	00000013	addi	x0,x0,0	  x0:0x00000000
        2835000	       282	80000230	00000013	addi	x0,x0,0	  x0:0x00000000
        2845000	       283	80000234	fe1ff0ef	jal	x1,80000234	  x1=0x80000234
        2855000	       284	00000000	00000013	addi	x0,x0,0	  x0:0x00000000
        2865000	       285	80000210	00000013	addi	x0,x0,0	  x0:0x00000000
        2875000	       286	80000214	ff9ffd6f	jal	x26,80000214	 x26=0x80000214
        2885000	       287	00000000	00000013	addi	x0,x0,0	  x0:0x00000000
        2895000	       288	80000208	00000013	addi	x0,x0,0	  x0:0x00000000
        2905000	       289	8000020c	058000ef	jal	x1,8000020c	  x1=0x8000020c
        2915000	       290	00000000	00000013	addi	x0,x0,0	  x0:0x00000000
        2925000	       291	80000260	00000013	addi	x0,x0,0	  x0:0x00000000
        2935000	       292	80000264	fc9ffaef	jal	x21,80000264	 x21=0x80000264
        2945000	       293	00000000	00000013	addi	x0,x0,0	  x0:0x00000000
        2955000	       294	80000228	00000013	addi	x0,x0,0	  x0:0x00000000
        2965000	       295	8000022c	ff9ff36f	jal	x6,8000022c	  x6=0x8000022c
        2975000	       296	00000000	00000013	addi	x0,x0,0	  x0:0x00000000
        2985000	       297	80000220	00000013	addi	x0,x0,0	  x0:0x00000000
        2995000	       298	80000224	0200016f	jal	x2,80000224	  x2=0x80000224
        3005000	       299	00000000	00000013	addi	x0,x0,0	  x0:0x00000000
        3015000	       300	80000240	00000013	addi	x0,x0,0	  x0:0x00000000
        3025000	       301	80000244	fddff36f	jal	x6,80000244	  x6=0x80000244
        3035000	       302	00000000	00000013	addi	x0,x0,0	  x0:0x00000000
        3045000	       303	8000021c	00000013	addi	x0,x0,0	  x0:0x00000000
        3055000	       304	80000220	04c00eef	jal	x29,80000220	 x29=0x80000220
        3065000	       305	00000000	00000013	addi	x0,x0,0	  x0:0x00000000
        3075000	       306	80000268	00000013	addi	x0,x0,0	  x0:0x00000000
        3085000	       307	8000026c	fedff0ef	jal	x1,8000026c	  x1=0x8000026c
        3095000	       308	00000000	00000013	addi	x0,x0,0	  x0:0x00000000
        3105000	       309	80000254	00000013	addi	x0,x0,0	  x0:0x00000000
        3115000	       310	80000258	fc1ff1ef	jal	x3,80000258	  x3=0x80000258
        3125000	       311	00000000	00000013	addi	x0,x0,0	  x0:0x00000000
        3135000	       312	80000214	00000013	addi	x0,x0,0	  x0:0x00000000
        3145000	       313	80000218	02400def	jal	x27,80000218	 x27=0x80000218
        3155000	       314	00000000	00000013	addi	x0,x0,0	  x0:0x00000000
        3165000	       315	80000238	00000013	addi	x0,x0,0	  x0:0x00000000
        3175000	       316	8000023c	fd5fff6f	jal	x30,8000023c	 x30=0x8000023c
        3185000	       317	00000000	00000013	addi	x0,x0,0	  x0:0x00000000
        3195000	       318	8000020c	00000013	addi	x0,x0,0	  x0:0x00000000
        3205000	       319	80000210	058000ef	jal	x1,80000210	  x1=0x80000210
        3215000	       320	00000000	00000013	addi	x0,x0,0	  x0:0x00000000
        3225000	       321	80000264	00000013	addi	x0,x0,0	  x0:0x00000000
        3235000	       322	80000268	00800bef	jal	x23,80000268	 x23=0x80000268
        3245000	       323	00000000	00000013	addi	x0,x0,0	  x0:0x00000000
        3255000	       324	8000026c	00000013	addi	x0,x0,0	  x0:0x00000000
        3265000	       325	80000270	fddff2ef	jal	x5,80000270	  x5=0x80000270
        3275000	       326	00000000	00000013	addi	x0,x0,0	  x0:0x00000000
        3285000	       327	80000248	00000013	addi	x0,x0,0	  x0:0x00000000
        3295000	       328	8000024c	0100036f	jal	x6,8000024c	  x6=0x8000024c
        3305000	       329	00000000	00000013	addi	x0,x0,0	  x0:0x00000000
        3315000	       330	80000258	00000013	addi	x0,x0,0	  x0:0x00000000
        3325000	       331	8000025c	ff5ffb6f	jal	x22,8000025c	 x22=0x8000025c
        3335000	       332	00000000	00000013	addi	x0,x0,0	  x0:0x00000000
        3345000	       333	8000024c	00000013	addi	x0,x0,0	  x0:0x00000000
        3355000	       334	80000250	0240026f	jal	x4,80000250	  x4=0x80000250
        3365000	       335	00000000	00000013	addi	x0,x0,0	  x0:0x00000000
        3375000	       336	80000270	00000013	addi	x0,x0,0	  x0:0x00000000
        3385000	       337	80000274	011fb1b3	sltu	x3,x31,x17	 x31:0x00000000 x17:0x00000000  x3=0x00000000
        3395000	       338	80000278	04800c6f	jal	x24,80000278	 x24=0x80000278
        3405000	       339	00000000	00000013	addi	x0,x0,0	  x0:0x00000000
        3415000	       340	800002bc	00000013	addi	x0,x0,0	  x0:0x00000000
        3425000	       341	800002c0	fe9ffeef	jal	x29,800002c0	 x29=0x800002c0
        3435000	       342	00000000	00000013	addi	x0,x0,0	  x0:0x00000000
        3445000	       343	800002a4	00000013	addi	x0,x0,0	  x0:0x00000000
        3455000	       344	800002a8	030000ef	jal	x1,800002a8	  x1=0x800002a8
        3465000	       345	00000000	00000013	addi	x0,x0,0	  x0:0x00000000
        3475000	       346	800002d4	00000013	addi	x0,x0,0	  x0:0x00000000
        3485000	       347	800002d8	fb9ff0ef	jal	x1,800002d8	  x1=0x800002d8
        3495000	       348	00000000	00000013	addi	x0,x0,0	  x0:0x00000000
        3505000	       349	8000028c	00000013	addi	x0,x0,0	  x0:0x00000000
        3515000	       350	80000290	040000ef	jal	x1,80000290	  x1=0x80000290
        3525000	       351	00000000	00000013	addi	x0,x0,0	  x0:0x00000000
        3535000	       352	800002cc	00000013	addi	x0,x0,0	  x0:0x00000000
        3545000	       353	800002d0	004000ef	jal	x1,800002d0	  x1=0x800002d0
        3555000	       354	00000000	00000013	addi	x0,x0,0	  x0:0x00000000
        3565000	       355	800002d0	00000013	addi	x0,x0,0	  x0:0x00000000
        3575000	       356	800002d4	fe9ff0ef	jal	x1,800002d4	  x1=0x800002d4
        3585000	       357	00000000	00000013	addi	x0,x0,0	  x0:0x00000000
        3595000	       358	800002b8	00000013	addi	x0,x0,0	  x0:0x00000000
        3605000	       359	800002bc	fc9ff96f	jal	x18,800002bc	 x18=0x800002bc
        3615000	       360	00000000	00000013	addi	x0,x0,0	  x0:0x00000000
        3625000	       361	80000280	00000013	addi	x0,x0,0	  x0:0x00000000
        3635000	       362	80000284	05c00d6f	jal	x26,80000284	 x26=0x80000284
        3645000	       363	00000000	00000013	addi	x0,x0,0	  x0:0x00000000
        3655000	       364	800002dc	00000013	addi	x0,x0,0	  x0:0x00000000
        3665000	       365	800002e0	ffdff26f	jal	x4,800002e0	  x4=0x800002e0
        3675000	       366	00000000	00000013	addi	x0,x0,0	  x0:0x00000000
        3685000	       367	800002d8	00000013	addi	x0,x0,0	  x0:0x00000000
        3695000	       368	800002dc	fe9ff36f	jal	x6,800002dc	  x6=0x800002dc
        3705000	       369	00000000	00000013	addi	x0,x0,0	  x0:0x00000000
        3715000	       370	800002c0	00000013	addi	x0,x0,0	  x0:0x00000000
        3725000	       371	800002c4	fd9ffdef	jal	x27,800002c4	 x27=0x800002c4
        3735000	       372	00000000	00000013	addi	x0,x0,0	  x0:0x00000000
        3745000	       373	80000298	00000013	addi	x0,x0,0	  x0:0x00000000
        3755000	       374	8000029c	014000ef	jal	x1,8000029c	  x1=0x8000029c
        3765000	       375	00000000	00000013	addi	x0,x0,0	  x0:0x00000000
        3775000	       376	800002ac	00000013	addi	x0,x0,0	  x0:0x00000000
        3785000	       377	800002b0	0040036f	jal	x6,800002b0	  x6=0x800002b0
        3795000	       378	00000000	00000013	addi	x0,x0,0	  x0:0x00000000
        3805000	       379	800002b0	00000013	addi	x0,x0,0	  x0:0x00000000
        3815000	       380	800002b4	fd5ff0ef	jal	x1,800002b4	  x1=0x800002b4
        3825000	       381	00000000	00000013	addi	x0,x0,0	  x0:0x00000000
        3835000	       382	80000284	00000013	addi	x0,x0,0	  x0:0x00000000
        3845000	       383	80000288	ff5ff0ef	jal	x1,80000288	  x1=0x80000288
        3855000	       384	00000000	00000013	addi	x0,x0,0	  x0:0x00000000
        3865000	       385	80000278	00000013	addi	x0,x0,0	  x0:0x00000000
        3875000	       386	8000027c	028000ef	jal	x1,8000027c	  x1=0x8000027c
        3885000	       387	00000000	00000013	addi	x0,x0,0	  x0:0x00000000
        3895000	       388	800002a0	00000013	addi	x0,x0,0	  x0:0x00000000
        3905000	       389	800002a4	044002ef	jal	x5,800002a4	  x5=0x800002a4
        3915000	       390	00000000	00000013	addi	x0,x0,0	  x0:0x00000000
        3925000	       391	800002e4	00000013	addi	x0,x0,0	  x0:0x00000000
        3935000	       392	800002e8	fe1ff0ef	jal	x1,800002e8	  x1=0x800002e8
        3945000	       393	00000000	00000013	addi	x0,x0,0	  x0:0x00000000
        3955000	       394	800002c4	00000013	addi	x0,x0,0	  x0:0x00000000
        3965000	       395	800002c8	fcdff36f	jal	x6,800002c8	  x6=0x800002c8
        3975000	       396	00000000	00000013	addi	x0,x0,0	  x0:0x00000000
        3985000	       397	80000290	00000013	addi	x0,x0,0	  x0:0x00000000
        3995000	       398	80000294	05c00d6f	jal	x26,80000294	 x26=0x80000294
        4005000	       399	00000000	00000013	addi	x0,x0,0	  x0:0x00000000
        4015000	       400	800002ec	00000013	addi	x0,x0,0	  x0:0x00000000
        4025000	       401	800002f0	fddff0ef	jal	x1,800002f0	  x1=0x800002f0
        4035000	       402	00000000	00000013	addi	x0,x0,0	  x0:0x00000000
        4045000	       403	800002c8	00000013	addi	x0,x0,0	  x0:0x00000000
        4055000	       404	800002cc	fb5ff2ef	jal	x5,800002cc	  x5=0x800002cc
        4065000	       405	00000000	00000013	addi	x0,x0,0	  x0:0x00000000
        4075000	       406	8000027c	00000013	addi	x0,x0,0	  x0:0x00000000
        4085000	       407	80000280	018000ef	jal	x1,80000280	  x1=0x80000280
        4095000	       408	00000000	00000013	addi	x0,x0,0	  x0:0x00000000
        4105000	       409	80000294	00000013	addi	x0,x0,0	  x0:0x00000000
        4115000	       410	80000298	04c0036f	jal	x6,80000298	  x6=0x80000298
        4125000	       411	00000000	00000013	addi	x0,x0,0	  x0:0x00000000
        4135000	       412	800002e0	00000013	addi	x0,x0,0	  x0:0x00000000
        4145000	       413	800002e4	fd5ff56f	jal	x10,800002e4	 x10=0x800002e4
        4155000	       414	00000000	00000013	addi	x0,x0,0	  x0:0x00000000
        4165000	       415	800002b4	00000013	addi	x0,x0,0	  x0:0x00000000
        4175000	       416	800002b8	034000ef	jal	x1,800002b8	  x1=0x800002b8
        4185000	       417	00000000	00000013	addi	x0,x0,0	  x0:0x00000000
        4195000	       418	800002e8	00000013	addi	x0,x0,0	  x0:0x00000000
        4205000	       419	800002ec	fc1ff0ef	jal	x1,800002ec	  x1=0x800002ec
        4215000	       420	00000000	00000013	addi	x0,x0,0	  x0:0x00000000
        4225000	       421	800002a8	00000013	addi	x0,x0,0	  x0:0x00000000
        4235000	       422	800002ac	ff5ff36f	jal	x6,800002ac	  x6=0x800002ac
        4245000	       423	00000000	00000013	addi	x0,x0,0	  x0:0x00000000
        4255000	       424	8000029c	00000013	addi	x0,x0,0	  x0:0x00000000
        4265000	       425	800002a0	fedff0ef	jal	x1,800002a0	  x1=0x800002a0
        4275000	       426	00000000	00000013	addi	x0,x0,0	  x0:0x00000000
        4285000	       427	80000288	00000013	addi	x0,x0,0	  x0:0x00000000
        4295000	       428	8000028c	068000ef	jal	x1,8000028c	  x1=0x8000028c
        4305000	       429	00000000	00000013	addi	x0,x0,0	  x0:0x00000000
        4315000	       430	800002f0	00000013	addi	x0,x0,0	  x0:0x00000000
        4325000	       431	800002f4	401b02b3	sub	x5,x22,x1	 x22:0x8000025c  x1:0x8000028c  x5=0xffffffd0
        4335000	       432	800002f8	02800c6f	jal	x24,800002f8	 x24=0x800002f8
        4345000	       433	00000000	00000013	addi	x0,x0,0	  x0:0x00000000
        4355000	       434	8000031c	00000013	addi	x0,x0,0	  x0:0x00000000
        4365000	       435	80000320	fe1ffc6f	jal	x24,80000320	 x24=0x80000320
        4375000	       436	00000000	00000013	addi	x0,x0,0	  x0:0x00000000
        4385000	       437	800002fc	00000013	addi	x0,x0,0	  x0:0x00000000
        4395000	       438	80000300	008000ef	jal	x1,80000300	  x1=0x80000300
        4405000	       439	00000000	00000013	addi	x0,x0,0	  x0:0x00000000
        4415000	       440	80000304	00000013	addi	x0,x0,0	  x0:0x00000000
        4425000	       441	80000308	0200016f	jal	x2,80000308	  x2=0x80000308
        4435000	       442	00000000	00000013	addi	x0,x0,0	  x0:0x00000000
        4445000	       443	80000324	00000013	addi	x0,x0,0	  x0:0x00000000
        4455000	       444	80000328	0280016f	jal	x2,80000328	  x2=0x80000328
        4465000	       445	00000000	00000013	addi	x0,x0,0	  x0:0x00000000
        4475000	       446	8000034c	00000013	addi	x0,x0,0	  x0:0x00000000
        4485000	       447	80000350	fe1ff2ef	jal	x5,80000350	  x5=0x80000350
        4495000	       448	00000000	00000013	addi	x0,x0,0	  x0:0x00000000
        4505000	       449	8000032c	00000013	addi	x0,x0,0	  x0:0x00000000
        4515000	       450	80000330	014004ef	jal	x9,80000330	  x9=0x80000330
        4525000	       451	00000000	00000013	addi	x0,x0,0	  x0:0x00000000
        4535000	       452	80000340	00000013	addi	x0,x0,0	  x0:0x00000000
        4545000	       453	80000344	ff5ff0ef	jal	x1,80000344	  x1=0x80000344
        4555000	       454	00000000	00000013	addi	x0,x0,0	  x0:0x00000000
        4565000	       455	80000334	00000013	addi	x0,x0,0	  x0:0x00000000
        4575000	       456	80000338	010000ef	jal	x1,80000338	  x1=0x80000338
        4585000	       457	00000000	00000013	addi	x0,x0,0	  x0:0x00000000
        4595000	       458	80000344	00000013	addi	x0,x0,0	  x0:0x00000000
        4605000	       459	80000348	fd1ff0ef	jal	x1,80000348	  x1=0x80000348
        4615000	       460	00000000	00000013	addi	x0,x0,0	  x0:0x00000000
        4625000	       461	80000314	00000013	addi	x0,x0,0	  x0:0x00000000
        4635000	       462	80000318	0040036f	jal	x6,80000318	  x6=0x80000318
        4645000	       463	00000000	00000013	addi	x0,x0,0	  x0:0x00000000
        4655000	       464	80000318	00000013	addi	x0,x0,0	  x0:0x00000000
        4665000	       465	8000031c	03000c6f	jal	x24,8000031c	 x24=0x8000031c
        4675000	       466	00000000	00000013	addi	x0,x0,0	  x0:0x00000000
        4685000	       467	80000348	00000013	addi	x0,x0,0	  x0:0x00000000
        4695000	       468	8000034c	fd9ff1ef	jal	x3,8000034c	  x3=0x8000034c
        4705000	       469	00000000	00000013	addi	x0,x0,0	  x0:0x00000000
        4715000	       470	80000320	00000013	addi	x0,x0,0	  x0:0x00000000
        4725000	       471	80000324	030008ef	jal	x17,80000324	 x17=0x80000324
        4735000	       472	00000000	00000013	addi	x0,x0,0	  x0:0x00000000
        4745000	       473	80000350	00000013	addi	x0,x0,0	  x0:0x00000000
        4755000	       474	80000354	fe1ff0ef	jal	x1,80000354	  x1=0x80000354
        4765000	       475	00000000	00000013	addi	x0,x0,0	  x0:0x00000000
        4775000	       476	80000330	00000013	addi	x0,x0,0	  x0:0x00000000
        4785000	       477	80000334	fe1ff0ef	jal	x1,80000334	  x1=0x80000334
        4795000	       478	00000000	00000013	addi	x0,x0,0	  x0:0x00000000
        4805000	       479	80000310	00000013	addi	x0,x0,0	  x0:0x00000000
        4815000	       480	80000314	ff1ff36f	jal	x6,80000314	  x6=0x80000314
        4825000	       481	00000000	00000013	addi	x0,x0,0	  x0:0x00000000
        4835000	       482	80000300	00000013	addi	x0,x0,0	  x0:0x00000000
        4845000	       483	80000304	008000ef	jal	x1,80000304	  x1=0x80000304
        4855000	       484	00000000	00000013	addi	x0,x0,0	  x0:0x00000000
        4865000	       485	80000308	00000013	addi	x0,x0,0	  x0:0x00000000
        4875000	       486	8000030c	004000ef	jal	x1,8000030c	  x1=0x8000030c
        4885000	       487	00000000	00000013	addi	x0,x0,0	  x0:0x00000000
        4895000	       488	8000030c	00000013	addi	x0,x0,0	  x0:0x00000000
        4905000	       489	80000310	02c000ef	jal	x1,80000310	  x1=0x80000310
        4915000	       490	00000000	00000013	addi	x0,x0,0	  x0:0x00000000
        4925000	       491	80000338	00000013	addi	x0,x0,0	  x0:0x00000000
        4935000	       492	8000033c	fc1ff0ef	jal	x1,8000033c	  x1=0x8000033c
        4945000	       493	00000000	00000013	addi	x0,x0,0	  x0:0x00000000
        4955000	       494	800002f8	00000013	addi	x0,x0,0	  x0:0x00000000
        4965000	       495	800002fc	044000ef	jal	x1,800002fc	  x1=0x800002fc
        4975000	       496	00000000	00000013	addi	x0,x0,0	  x0:0x00000000
        4985000	       497	8000033c	00000013	addi	x0,x0,0	  x0:0x00000000
        4995000	       498	80000340	fedff1ef	jal	x3,80000340	  x3=0x80000340
        5005000	       499	00000000	00000013	addi	x0,x0,0	  x0:0x00000000
        5015000	       500	80000328	00000013	addi	x0,x0,0	  x0:0x00000000
        5025000	       501	8000032c	02c0036f	jal	x6,8000032c	  x6=0x8000032c
        5035000	       502	00000000	00000013	addi	x0,x0,0	  x0:0x00000000
        5045000	       503	80000354	00000013	addi	x0,x0,0	  x0:0x00000000
        5055000	       504	80000358	013bd513	srli	x10,x23,0x13	 x23:0x80000268 x10=0x00001000
        5065000	       505	8000035c	00c00c6f	jal	x24,8000035c	 x24=0x8000035c
        5075000	       506	00000000	00000013	addi	x0,x0,0	  x0:0x00000000
        5085000	       507	80000364	00000013	addi	x0,x0,0	  x0:0x00000000
        5095000	       508	80000368	00400d6f	jal	x26,80000368	 x26=0x80000368
        5105000	       509	00000000	00000013	addi	x0,x0,0	  x0:0x00000000
        5115000	       510	80000368	00000013	addi	x0,x0,0	  x0:0x00000000
        5125000	       511	8000036c	0500036f	jal	x6,8000036c	  x6=0x8000036c
        5135000	       512	00000000	00000013	addi	x0,x0,0	  x0:0x00000000
        5145000	       513	800003b8	00000013	addi	x0,x0,0	  x0:0x00000000
        5155000	       514	800003bc	fc5ff26f	jal	x4,800003bc	  x4=0x800003bc
        5165000	       515	00000000	00000013	addi	x0,x0,0	  x0:0x00000000
        5175000	       516	8000037c	00000013	addi	x0,x0,0	  x0:0x00000000
        5185000	       517	80000380	008002ef	jal	x5,80000380	  x5=0x80000380
        5195000	       518	00000000	00000013	addi	x0,x0,0	  x0:0x00000000
        5205000	       519	80000384	00000013	addi	x0,x0,0	  x0:0x00000000
        5215000	       520	80000388	ff1ff9ef	jal	x19,80000388	 x19=0x80000388
        5225000	       521	00000000	00000013	addi	x0,x0,0	  x0:0x00000000
        5235000	       522	80000374	00000013	addi	x0,x0,0	  x0:0x00000000
        5245000	       523	80000378	048000ef	jal	x1,80000378	  x1=0x80000378
        5255000	       524	00000000	00000013	addi	x0,x0,0	  x0:0x00000000
        5265000	       525	800003bc	00000013	addi	x0,x0,0	  x0:0x00000000
        5275000	       526	800003c0	ff1ff36f	jal	x6,800003c0	  x6=0x800003c0
        5285000	       527	00000000	00000013	addi	x0,x0,0	  x0:0x00000000
        5295000	       528	800003ac	00000013	addi	x0,x0,0	  x0:0x00000000
        5305000	       529	800003b0	fb5ffdef	jal	x27,800003b0	 x27=0x800003b0
        5315000	       530	00000000	00000013	addi	x0,x0,0	  x0:0x00000000
        5325000	       531	80000360	00000013	addi	x0,x0,0	  x0:0x00000000
        5335000	       532	80000364	02c0036f	jal	x6,80000364	  x6=0x80000364
        5345000	       533	00000000	00000013	addi	x0,x0,0	  x0:0x00000000
        5355000	       534	8000038c	00000013	addi	x0,x0,0	  x0:0x00000000
        5365000	       535	80000390	fd1ff0ef	jal	x1,80000390	  x1=0x80000390
        5375000	       536	00000000	00000013	addi	x0,x0,0	  x0:0x00000000
        5385000	       537	8000035c	00000013	addi	x0,x0,0	  x0:0x00000000
        5395000	       538	80000360	05800cef	jal	x25,80000360	 x25=0x80000360
        5405000	       539	00000000	00000013	addi	x0,x0,0	  x0:0x00000000
        5415000	       540	800003b4	00000013	addi	x0,x0,0	  x0:0x00000000
        5425000	       541	800003b8	fb9ff0ef	jal	x1,800003b8	  x1=0x800003b8
        5435000	       542	00000000	00000013	addi	x0,x0,0	  x0:0x00000000
        5445000	       543	8000036c	00000013	addi	x0,x0,0	  x0:0x00000000
        5455000	       544	80000370	028000ef	jal	x1,80000370	  x1=0x80000370
        5465000	       545	00000000	00000013	addi	x0,x0,0	  x0:0x00000000
        5475000	       546	80000394	00000013	addi	x0,x0,0	  x0:0x00000000
        5485000	       547	80000398	008000ef	jal	x1,80000398	  x1=0x80000398
        5495000	       548	00000000	00000013	addi	x0,x0,0	  x0:0x00000000
        5505000	       549	8000039c	00000013	addi	x0,x0,0	  x0:0x00000000
        5515000	       550	800003a0	fd5ff36f	jal	x6,800003a0	  x6=0x800003a0
        5525000	       551	00000000	00000013	addi	x0,x0,0	  x0:0x00000000
        5535000	       552	80000370	00000013	addi	x0,x0,0	  x0:0x00000000
        5545000	       553	80000374	0300036f	jal	x6,80000374	  x6=0x80000374
        5555000	       554	00000000	00000013	addi	x0,x0,0	  x0:0x00000000
        5565000	       555	800003a0	00000013	addi	x0,x0,0	  x0:0x00000000
        5575000	       556	800003a4	ff9ff0ef	jal	x1,800003a4	  x1=0x800003a4
        5585000	       557	00000000	00000013	addi	x0,x0,0	  x0:0x00000000
        5595000	       558	80000398	00000013	addi	x0,x0,0	  x0:0x00000000
        5605000	       559	8000039c	ff1ff66f	jal	x12,8000039c	 x12=0x8000039c
        5615000	       560	00000000	00000013	addi	x0,x0,0	  x0:0x00000000
        5625000	       561	80000388	00000013	addi	x0,x0,0	  x0:0x00000000
        5635000	       562	8000038c	01c000ef	jal	x1,8000038c	  x1=0x8000038c
        5645000	       563	00000000	00000013	addi	x0,x0,0	  x0:0x00000000
        5655000	       564	800003a4	00000013	addi	x0,x0,0	  x0:0x00000000
        5665000	       565	800003a8	fedff0ef	jal	x1,800003a8	  x1=0x800003a8
        5675000	       566	00000000	00000013	addi	x0,x0,0	  x0:0x00000000
        5685000	       567	80000390	00000013	addi	x0,x0,0	  x0:0x00000000
        5695000	       568	80000394	018000ef	jal	x1,80000394	  x1=0x80000394
        5705000	       569	00000000	00000013	addi	x0,x0,0	  x0:0x00000000
        5715000	       570	800003a8	00000013	addi	x0,x0,0	  x0:0x00000000
        5725000	       571	800003ac	fd1ff76f	jal	x14,800003ac	 x14=0x800003ac
        5735000	       572	00000000	00000013	addi	x0,x0,0	  x0:0x00000000
        5745000	       573	80000378	00000013	addi	x0,x0,0	  x0:0x00000000
        5755000	       574	8000037c	008000ef	jal	x1,8000037c	  x1=0x8000037c
        5765000	       575	00000000	00000013	addi	x0,x0,0	  x0:0x00000000
        5775000	       576	80000380	00000013	addi	x0,x0,0	  x0:0x00000000
        5785000	       577	80000384	030000ef	jal	x1,80000384	  x1=0x80000384
        5795000	       578	00000000	00000013	addi	x0,x0,0	  x0:0x00000000
        5805000	       579	800003b0	00000013	addi	x0,x0,0	  x0:0x00000000
        5815000	       580	800003b4	010000ef	jal	x1,800003b4	  x1=0x800003b4
        5825000	       581	00000000	00000013	addi	x0,x0,0	  x0:0x00000000
        5835000	       582	800003c0	00000013	addi	x0,x0,0	  x0:0x00000000
        5845000	       583	800003c4	000f1bb3	sll	x23,x30,x0	 x30:0x8000023c  x0:0x00000000 x23=0x8000023c
        5855000	       584	800003c8	03000c6f	jal	x24,800003c8	 x24=0x800003c8
        5865000	       585	00000000	00000013	addi	x0,x0,0	  x0:0x00000000
        5875000	       586	800003f4	00000013	addi	x0,x0,0	  x0:0x00000000
        5885000	       587	800003f8	fddff36f	jal	x6,800003f8	  x6=0x800003f8
        5895000	       588	00000000	00000013	addi	x0,x0,0	  x0:0x00000000
        5905000	       589	800003d0	00000013	addi	x0,x0,0	  x0:0x00000000
        5915000	       590	800003d4	030000ef	jal	x1,800003d4	  x1=0x800003d4
        5925000	       591	00000000	00000013	addi	x0,x0,0	  x0:0x00000000
        5935000	       592	80000400	00000013	addi	x0,x0,0	  x0:0x00000000
        5945000	       593	80000404	00c000ef	jal	x1,80000404	  x1=0x80000404
        5955000	       594	00000000	00000013	addi	x0,x0,0	  x0:0x00000000
        5965000	       595	8000040c	00000013	addi	x0,x0,0	  x0:0x00000000
        5975000	       596	80000410	fddff0ef	jal	x1,80000410	  x1=0x80000410
        5985000	       597	00000000	00000013	addi	x0,x0,0	  x0:0x00000000
        5995000	       598	800003e8	00000013	addi	x0,x0,0	  x0:0x00000000
        6005000	       599	800003ec	fedff16f	jal	x2,800003ec	  x2=0x800003ec
        6015000	       600	00000000	00000013	addi	x0,x0,0	  x0:0x00000000
        6025000	       601	800003d4	00000013	addi	x0,x0,0	  x0:0x00000000
        6035000	       602	800003d8	01c0036f	jal	x6,800003d8	  x6=0x800003d8
        6045000	       603	00000000	00000013	addi	x0,x0,0	  x0:0x00000000
        6055000	       604	800003f0	00000013	addi	x0,x0,0	  x0:0x00000000
        6065000	       605	800003f4	fddff36f	jal	x6,800003f4	  x6=0x800003f4
        6075000	       606	00000000	00000013	addi	x0,x0,0	  x0:0x00000000
        6085000	       607	800003cc	00000013	addi	x0,x0,0	  x0:0x00000000
        6095000	       608	800003d0	038000ef	jal	x1,800003d0	  x1=0x800003d0
        6105000	       609	00000000	00000013	addi	x0,x0,0	  x0:0x00000000
        6115000	       610	80000404	00000013	addi	x0,x0,0	  x0:0x00000000
        6125000	       611	80000408	fe9ff36f	jal	x6,80000408	  x6=0x80000408
        6135000	       612	00000000	00000013	addi	x0,x0,0	  x0:0x00000000
        6145000	       613	800003ec	00000013	addi	x0,x0,0	  x0:0x00000000
        6155000	       614	800003f0	ff5ff66f	jal	x12,800003f0	 x12=0x800003f0
        6165000	       615	00000000	00000013	addi	x0,x0,0	  x0:0x00000000
        6175000	       616	800003e0	00000013	addi	x0,x0,0	  x0:0x00000000
        6185000	       617	800003e4	03000c6f	jal	x24,800003e4	 x24=0x800003e4
        6195000	       618	00000000	00000013	addi	x0,x0,0	  x0:0x00000000
        6205000	       619	80000410	00000013	addi	x0,x0,0	  x0:0x00000000
        6215000	       620	80000414	fedff1ef	jal	x3,80000414	  x3=0x80000414
        6225000	       621	00000000	00000013	addi	x0,x0,0	  x0:0x00000000
        6235000	       622	800003fc	00000013	addi	x0,x0,0	  x0:0x00000000
        6245000	       623	80000400	fcdffb6f	jal	x22,80000400	 x22=0x80000400
        6255000	       624	00000000	00000013	addi	x0,x0,0	  x0:0x00000000
        6265000	       625	800003c8	00000013	addi	x0,x0,0	  x0:0x00000000
        6275000	       626	800003cc	030002ef	jal	x5,800003cc	  x5=0x800003cc
        6285000	       627	00000000	00000013	addi	x0,x0,0	  x0:0x00000000
        6295000	       628	800003f8	00000013	addi	x0,x0,0	  x0:0x00000000
        6305000	       629	800003fc	010000ef	jal	x1,800003fc	  x1=0x800003fc
        6315000	       630	00000000	00000013	addi	x0,x0,0	  x0:0x00000000
        6325000	       631	80000408	00000013	addi	x0,x0,0	  x0:0x00000000
        6335000	       632	8000040c	fd5ff0ef	jal	x1,8000040c	  x1=0x8000040c
        6345000	       633	00000000	00000013	addi	x0,x0,0	  x0:0x00000000
        6355000	       634	800003dc	00000013	addi	x0,x0,0	  x0:0x00000000
        6365000	       635	800003e0	ffdff0ef	jal	x1,800003e0	  x1=0x800003e0
        6375000	       636	00000000	00000013	addi	x0,x0,0	  x0:0x00000000
        6385000	       637	800003d8	00000013	addi	x0,x0,0	  x0:0x00000000
        6395000	       638	800003dc	00c0036f	jal	x6,800003dc	  x6=0x800003dc
        6405000	       639	00000000	00000013	addi	x0,x0,0	  x0:0x00000000
        6415000	       640	800003e4	00000013	addi	x0,x0,0	  x0:0x00000000
        6425000	       641	800003e8	03000a6f	jal	x20,800003e8	 x20=0x800003e8
        6435000	       642	00000000	00000013	addi	x0,x0,0	  x0:0x00000000
        6445000	       643	80000414	00000013	addi	x0,x0,0	  x0:0x00000000
        6455000	       644	80000418	dc07f797	auipc	x15,0xdc07f	 x15=0x5c07f414
        6465000	       645	8000041c	00400c6f	jal	x24,8000041c	 x24=0x8000041c
        6475000	       646	00000000	00000013	addi	x0,x0,0	  x0:0x00000000
        6485000	       647	8000041c	00000013	addi	x0,x0,0	  x0:0x00000000
        6495000	       648	80000420	04c000ef	jal	x1,80000420	  x1=0x80000420
        6505000	       649	00000000	00000013	addi	x0,x0,0	  x0:0x00000000
        6515000	       650	80000468	00000013	addi	x0,x0,0	  x0:0x00000000
        6525000	       651	8000046c	0040056f	jal	x10,8000046c	 x10=0x8000046c
        6535000	       652	00000000	00000013	addi	x0,x0,0	  x0:0x00000000
        6545000	       653	8000046c	00000013	addi	x0,x0,0	  x0:0x00000000
        6555000	       654	80000470	fd1ff0ef	jal	x1,80000470	  x1=0x80000470
        6565000	       655	00000000	00000013	addi	x0,x0,0	  x0:0x00000000
        6575000	       656	8000043c	00000013	addi	x0,x0,0	  x0:0x00000000
        6585000	       657	80000440	028000ef	jal	x1,80000440	  x1=0x80000440
        6595000	       658	00000000	00000013	addi	x0,x0,0	  x0:0x00000000
        6605000	       659	80000464	00000013	addi	x0,x0,0	  x0:0x00000000
        6615000	       660	80000468	fddff0ef	jal	x1,80000468	  x1=0x80000468
        6625000	       661	00000000	00000013	addi	x0,x0,0	  x0:0x00000000
        6635000	       662	80000440	00000013	addi	x0,x0,0	  x0:0x00000000
        6645000	       663	80000444	01c000ef	jal	x1,80000444	  x1=0x80000444
        6655000	       664	00000000	00000013	addi	x0,x0,0	  x0:0x00000000
        6665000	       665	8000045c	00000013	addi	x0,x0,0	  x0:0x00000000
        6675000	       666	80000460	0180096f	jal	x18,80000460	 x18=0x80000460
        6685000	       667	00000000	00000013	addi	x0,x0,0	  x0:0x00000000
        6695000	       668	80000474	00000013	addi	x0,x0,0	  x0:0x00000000
        6705000	       669	80000478	fedff36f	jal	x6,80000478	  x6=0x80000478
        6715000	       670	00000000	00000013	addi	x0,x0,0	  x0:0x00000000
        6725000	       671	80000460	00000013	addi	x0,x0,0	  x0:0x00000000
        6735000	       672	80000464	ff5ff0ef	jal	x1,80000464	  x1=0x80000464
        6745000	       673	00000000	00000013	addi	x0,x0,0	  x0:0x00000000
        6755000	       674	80000454	00000013	addi	x0,x0,0	  x0:0x00000000
        6765000	       675	80000458	004009ef	jal	x19,80000458	 x19=0x80000458
        6775000	       676	00000000	00000013	addi	x0,x0,0	  x0:0x00000000
        6785000	       677	80000458	00000013	addi	x0,x0,0	  x0:0x00000000
        6795000	       678	8000045c	fedff0ef	jal	x1,8000045c	  x1=0x8000045c
        6805000	       679	00000000	00000013	addi	x0,x0,0	  x0:0x00000000
        6815000	       680	80000444	00000013	addi	x0,x0,0	  x0:0x00000000
        6825000	       681	80000448	fe5ff0ef	jal	x1,80000448	  x1=0x80000448
        6835000	       682	00000000	00000013	addi	x0,x0,0	  x0:0x00000000
        6845000	       683	80000428	00000013	addi	x0,x0,0	  x0:0x00000000
        6855000	       684	8000042c	048000ef	jal	x1,8000042c	  x1=0x8000042c
        6865000	       685	00000000	00000013	addi	x0,x0,0	  x0:0x00000000
        6875000	       686	80000470	00000013	addi	x0,x0,0	  x0:0x00000000
        6885000	       687	80000474	fb5ff0ef	jal	x1,80000474	  x1=0x80000474
        6895000	       688	00000000	00000013	addi	x0,x0,0	  x0:0x00000000
        6905000	       689	80000424	00000013	addi	x0,x0,0	  x0:0x00000000
        6915000	       690	80000428	0100036f	jal	x6,80000428	  x6=0x80000428
        6925000	       691	00000000	00000013	addi	x0,x0,0	  x0:0x00000000
        6935000	       692	80000434	00000013	addi	x0,x0,0	  x0:0x00000000
        6945000	       693	80000438	ffdff0ef	jal	x1,80000438	  x1=0x80000438
        6955000	       694	00000000	00000013	addi	x0,x0,0	  x0:0x00000000
        6965000	       695	80000430	00000013	addi	x0,x0,0	  x0:0x00000000
        6975000	       696	80000434	0180016f	jal	x2,80000434	  x2=0x80000434
        6985000	       697	00000000	00000013	addi	x0,x0,0	  x0:0x00000000
        6995000	       698	80000448	00000013	addi	x0,x0,0	  x0:0x00000000
        7005000	       699	8000044c	fe5ff0ef	jal	x1,8000044c	  x1=0x8000044c
        7015000	       700	00000000	00000013	addi	x0,x0,0	  x0:0x00000000
        7025000	       701	8000042c	00000013	addi	x0,x0,0	  x0:0x00000000
        7035000	       702	80000430	ff5ff0ef	jal	x1,80000430	  x1=0x80000430
        7045000	       703	00000000	00000013	addi	x0,x0,0	  x0:0x00000000
        7055000	       704	80000420	00000013	addi	x0,x0,0	  x0:0x00000000
        7065000	       705	80000424	0300036f	jal	x6,80000424	  x6=0x80000424
        7075000	       706	00000000	00000013	addi	x0,x0,0	  x0:0x00000000
        7085000	       707	80000450	00000013	addi	x0,x0,0	  x0:0x00000000
        7095000	       708	80000454	ffdff0ef	jal	x1,80000454	  x1=0x80000454
        7105000	       709	00000000	00000013	addi	x0,x0,0	  x0:0x00000000
        7115000	       710	8000044c	00000013	addi	x0,x0,0	  x0:0x00000000
        7125000	       711	80000450	fedff56f	jal	x10,80000450	 x10=0x80000450
        7135000	       712	00000000	00000013	addi	x0,x0,0	  x0:0x00000000
        7145000	       713	80000438	00000013	addi	x0,x0,0	  x0:0x00000000
        7155000	       714	8000043c	040000ef	jal	x1,8000043c	  x1=0x8000043c
        7165000	       715	00000000	00000013	addi	x0,x0,0	  x0:0x00000000
        7175000	       716	80000478	00000013	addi	x0,x0,0	  x0:0x00000000
        7185000	       717	8000047c	115ead93	slti	x27,x29,277	 x29:0x800002c0 x27=0x00000001
        7195000	       718	80000480	05000c6f	jal	x24,80000480	 x24=0x80000480
        7205000	       719	00000000	00000013	addi	x0,x0,0	  x0:0x00000000
        7215000	       720	800004cc	00000013	addi	x0,x0,0	  x0:0x00000000
        7225000	       721	800004d0	fddff26f	jal	x4,800004d0	  x4=0x800004d0
        7235000	       722	00000000	00000013	addi	x0,x0,0	  x0:0x00000000
        7245000	       723	800004a8	00000013	addi	x0,x0,0	  x0:0x00000000
        7255000	       724	800004ac	fddff0ef	jal	x1,800004ac	  x1=0x800004ac
        7265000	       725	00000000	00000013	addi	x0,x0,0	  x0:0x00000000
        7275000	       726	80000484	00000013	addi	x0,x0,0	  x0:0x00000000
        7285000	       727	80000488	0140026f	jal	x4,80000488	  x4=0x80000488
        7295000	       728	00000000	00000013	addi	x0,x0,0	  x0:0x00000000
        7305000	       729	80000498	00000013	addi	x0,x0,0	  x0:0x00000000
        7315000	       730	8000049c	ffdff0ef	jal	x1,8000049c	  x1=0x8000049c
        7325000	       731	00000000	00000013	addi	x0,x0,0	  x0:0x00000000
        7335000	       732	80000494	00000013	addi	x0,x0,0	  x0:0x00000000
        7345000	       733	80000498	0300036f	jal	x6,80000498	  x6=0x80000498
        7355000	       734	00000000	00000013	addi	x0,x0,0	  x0:0x00000000
        7365000	       735	800004c4	00000013	addi	x0,x0,0	  x0:0x00000000
        7375000	       736	800004c8	004000ef	jal	x1,800004c8	  x1=0x800004c8
        7385000	       737	00000000	00000013	addi	x0,x0,0	  x0:0x00000000
        7395000	       738	800004c8	00000013	addi	x0,x0,0	  x0:0x00000000
        7405000	       739	800004cc	fb9ff26f	jal	x4,800004cc	  x4=0x800004cc
        7415000	       740	00000000	00000013	addi	x0,x0,0	  x0:0x00000000
        7425000	       741	80000480	00000013	addi	x0,x0,0	  x0:0x00000000
        7435000	       742	80000484	024000ef	jal	x1,80000484	  x1=0x80000484
        7445000	       743	00000000	00000013	addi	x0,x0,0	  x0:0x00000000
        7455000	       744	800004a4	00000013	addi	x0,x0,0	  x0:0x00000000
        7465000	       745	800004a8	02c0036f	jal	x6,800004a8	  x6=0x800004a8
        7475000	       746	00000000	00000013	addi	x0,x0,0	  x0:0x00000000
        7485000	       747	800004d0	00000013	addi	x0,x0,0	  x0:0x00000000
        7495000	       748	800004d4	fb9ff16f	jal	x2,800004d4	  x2=0x800004d4
        7505000	       749	00000000	00000013	addi	x0,x0,0	  x0:0x00000000
        7515000	       750	80000488	00000013	addi	x0,x0,0	  x0:0x00000000
        7525000	       751	8000048c	04c000ef	jal	x1,8000048c	  x1=0x8000048c
        7535000	       752	00000000	00000013	addi	x0,x0,0	  x0:0x00000000
        7545000	       753	800004d4	00000013	addi	x0,x0,0	  x0:0x00000000
        7555000	       754	800004d8	fe1ff0ef	jal	x1,800004d8	  x1=0x800004d8
        7565000	       755	00000000	00000013	addi	x0,x0,0	  x0:0x00000000
        7575000	       756	800004b4	00000013	addi	x0,x0,0	  x0:0x00000000
        7585000	       757	800004b8	fe9ff0ef	jal	x1,800004b8	  x1=0x800004b8
        7595000	       758	00000000	00000013	addi	x0,x0,0	  x0:0x00000000
        7605000	       759	8000049c	00000013	addi	x0,x0,0	  x0:0x00000000
        7615000	       760	800004a0	020002ef	jal	x5,800004a0	  x5=0x800004a0
        7625000	       761	00000000	00000013	addi	x0,x0,0	  x0:0x00000000
        7635000	       762	800004bc	00000013	addi	x0,x0,0	  x0:0x00000000
        7645000	       763	800004c0	fe5ff36f	jal	x6,800004c0	  x6=0x800004c0
        7655000	       764	00000000	00000013	addi	x0,x0,0	  x0:0x00000000
        7665000	       765	800004a0	00000013	addi	x0,x0,0	  x0:0x00000000
        7675000	       766	800004a4	ff1ff36f	jal	x6,800004a4	  x6=0x800004a4
        7685000	       767	00000000	00000013	addi	x0,x0,0	  x0:0x00000000
        7695000	       768	80000490	00000013	addi	x0,x0,0	  x0:0x00000000
        7705000	       769	80000494	0200066f	jal	x12,80000494	 x12=0x80000494
        7715000	       770	00000000	00000013	addi	x0,x0,0	  x0:0x00000000
        7725000	       771	800004b0	00000013	addi	x0,x0,0	  x0:0x00000000
        7735000	       772	800004b4	008000ef	jal	x1,800004b4	  x1=0x800004b4
        7745000	       773	00000000	00000013	addi	x0,x0,0	  x0:0x00000000
        7755000	       774	800004b8	00000013	addi	x0,x0,0	  x0:0x00000000
        7765000	       775	800004bc	fd5ff0ef	jal	x1,800004bc	  x1=0x800004bc
        7775000	       776	00000000	00000013	addi	x0,x0,0	  x0:0x00000000
        7785000	       777	8000048c	00000013	addi	x0,x0,0	  x0:0x00000000
        7795000	       778	80000490	020000ef	jal	x1,80000490	  x1=0x80000490
        7805000	       779	00000000	00000013	addi	x0,x0,0	  x0:0x00000000
        7815000	       780	800004ac	00000013	addi	x0,x0,0	  x0:0x00000000
        7825000	       781	800004b0	014000ef	jal	x1,800004b0	  x1=0x800004b0
        7835000	       782	00000000	00000013	addi	x0,x0,0	  x0:0x00000000
        7845000	       783	800004c0	00000013	addi	x0,x0,0	  x0:0x00000000
        7855000	       784	800004c4	0180036f	jal	x6,800004c4	  x6=0x800004c4
        7865000	       785	00000000	00000013	addi	x0,x0,0	  x0:0x00000000
        7875000	       786	800004d8	00000013	addi	x0,x0,0	  x0:0x00000000
        7885000	       787	800004dc	004c1a93	slli	x21,x24,0x4	 x24:0x80000480 x21=0x00004800
        7895000	       788	800004e0	01c00c6f	jal	x24,800004e0	 x24=0x800004e0
        7905000	       789	00000000	00000013	addi	x0,x0,0	  x0:0x00000000
        7915000	       790	800004f8	00000013	addi	x0,x0,0	  x0:0x00000000
        7925000	       791	800004fc	ff5ff0ef	jal	x1,800004fc	  x1=0x800004fc
        7935000	       792	00000000	00000013	addi	x0,x0,0	  x0:0x00000000
        7945000	       793	800004ec	00000013	addi	x0,x0,0	  x0:0x00000000
        7955000	       794	800004f0	018000ef	jal	x1,800004f0	  x1=0x800004f0
        7965000	       795	00000000	00000013	addi	x0,x0,0	  x0:0x00000000
        7975000	       796	80000504	00000013	addi	x0,x0,0	  x0:0x00000000
        7985000	       797	80000508	fddff76f	jal	x14,80000508	 x14=0x80000508
        7995000	       798	00000000	00000013	addi	x0,x0,0	  x0:0x00000000
        8005000	       799	800004e0	00000013	addi	x0,x0,0	  x0:0x00000000
        8015000	       800	800004e4	02000bef	jal	x23,800004e4	 x23=0x800004e4
        8025000	       801	00000000	00000013	addi	x0,x0,0	  x0:0x00000000
        8035000	       802	80000500	00000013	addi	x0,x0,0	  x0:0x00000000
        8045000	       803	80000504	01400d6f	jal	x26,80000504	 x26=0x80000504
        8055000	       804	00000000	00000013	addi	x0,x0,0	  x0:0x00000000
        8065000	       805	80000514	00000013	addi	x0,x0,0	  x0:0x00000000
        8075000	       806	80000518	fe9ff0ef	jal	x1,80000518	  x1=0x80000518
        8085000	       807	00000000	00000013	addi	x0,x0,0	  x0:0x00000000
        8095000	       808	800004fc	00000013	addi	x0,x0,0	  x0:0x00000000
        8105000	       809	80000500	ff9ff26f	jal	x4,80000500	  x4=0x80000500
        8115000	       810	00000000	00000013	addi	x0,x0,0	  x0:0x00000000
        8125000	       811	800004f4	00000013	addi	x0,x0,0	  x0:0x00000000
        8135000	       812	800004f8	024000ef	jal	x1,800004f8	  x1=0x800004f8
        8145000	       813	00000000	00000013	addi	x0,x0,0	  x0:0x00000000
        8155000	       814	80000518	00000013	addi	x0,x0,0	  x0:0x00000000
        8165000	       815	8000051c	fd9ff0ef	jal	x1,8000051c	  x1=0x8000051c
        8175000	       816	00000000	00000013	addi	x0,x0,0	  x0:0x00000000
        8185000	       817	800004f0	00000013	addi	x0,x0,0	  x0:0x00000000
        8195000	       818	800004f4	ff5ff0ef	jal	x1,800004f4	  x1=0x800004f4
        8205000	       819	00000000	00000013	addi	x0,x0,0	  x0:0x00000000
        8215000	       820	800004e4	00000013	addi	x0,x0,0	  x0:0x00000000
        8225000	       821	800004e8	02800d6f	jal	x26,800004e8	 x26=0x800004e8
        8235000	       822	00000000	00000013	addi	x0,x0,0	  x0:0x00000000
        8245000	       823	8000050c	00000013	addi	x0,x0,0	  x0:0x00000000
        8255000	       824	80000510	ffdff36f	jal	x6,80000510	  x6=0x80000510
        8265000	       825	00000000	00000013	addi	x0,x0,0	  x0:0x00000000
        8275000	       826	80000508	00000013	addi	x0,x0,0	  x0:0x00000000
        8285000	       827	8000050c	fe1ff0ef	jal	x1,8000050c	  x1=0x8000050c
        8295000	       828	00000000	00000013	addi	x0,x0,0	  x0:0x00000000
        8305000	       829	800004e8	00000013	addi	x0,x0,0	  x0:0x00000000
        8315000	       830	800004ec	034000ef	jal	x1,800004ec	  x1=0x800004ec
        8325000	       831	00000000	00000013	addi	x0,x0,0	  x0:0x00000000
        8335000	       832	8000051c	00000013	addi	x0,x0,0	  x0:0x00000000
        8345000	       833	80000520	ff5ff0ef	jal	x1,80000520	  x1=0x80000520
        8355000	       834	00000000	00000013	addi	x0,x0,0	  x0:0x00000000
        8365000	       835	80000510	00000013	addi	x0,x0,0	  x0:0x00000000
        8375000	       836	80000514	0100016f	jal	x2,80000514	  x2=0x80000514
        8385000	       837	00000000	00000013	addi	x0,x0,0	  x0:0x00000000
        8395000	       838	80000520	00000013	addi	x0,x0,0	  x0:0x00000000
        8405000	       839	80000524	002e9bb3	sll	x23,x29,x2	 x29:0x800002c0  x2:0x80000514 x23=0x2c000000
        8415000	       840	80000528	04800c6f	jal	x24,80000528	 x24=0x80000528
        8425000	       841	00000000	00000013	addi	x0,x0,0	  x0:0x00000000
        8435000	       842	8000056c	00000013	addi	x0,x0,0	  x0:0x00000000
        8445000	       843	80000570	018000ef	jal	x1,80000570	  x1=0x80000570
        8455000	       844	00000000	00000013	addi	x0,x0,0	  x0:0x00000000
        8465000	       845	80000584	00000013	addi	x0,x0,0	  x0:0x00000000
        8475000	       846	80000588	fedff36f	jal	x6,80000588	  x6=0x80000588
        8485000	       847	00000000	00000013	addi	x0,x0,0	  x0:0x00000000
        8495000	       848	80000570	00000013	addi	x0,x0,0	  x0:0x00000000
        8505000	       849	80000574	fcdff26f	jal	x4,80000574	  x4=0x80000574
        8515000	       850	00000000	00000013	addi	x0,x0,0	  x0:0x00000000
        8525000	       851	8000053c	00000013	addi	x0,x0,0	  x0:0x00000000
        8535000	       852	80000540	024000ef	jal	x1,80000540	  x1=0x80000540
        8545000	       853	00000000	00000013	addi	x0,x0,0	  x0:0x00000000
        8555000	       854	80000560	00000013	addi	x0,x0,0	  x0:0x00000000
        8565000	       855	80000564	fc9ff0ef	jal	x1,80000564	  x1=0x80000564
        8575000	       856	00000000	00000013	addi	x0,x0,0	  x0:0x00000000
        8585000	       857	80000528	00000013	addi	x0,x0,0	  x0:0x00000000
        8595000	       858	8000052c	02c000ef	jal	x1,8000052c	  x1=0x8000052c
        8605000	       859	00000000	00000013	addi	x0,x0,0	  x0:0x00000000
        8615000	       860	80000554	00000013	addi	x0,x0,0	  x0:0x00000000
        8625000	       861	80000558	fe5ff0ef	jal	x1,80000558	  x1=0x80000558
        8635000	       862	00000000	00000013	addi	x0,x0,0	  x0:0x00000000
        8645000	       863	80000538	00000013	addi	x0,x0,0	  x0:0x00000000
        8655000	       864	8000053c	050000ef	jal	x1,8000053c	  x1=0x8000053c
        8665000	       865	00000000	00000013	addi	x0,x0,0	  x0:0x00000000
        8675000	       866	80000588	00000013	addi	x0,x0,0	  x0:0x00000000
        8685000	       867	8000058c	ff1ff0ef	jal	x1,8000058c	  x1=0x8000058c
        8695000	       868	00000000	00000013	addi	x0,x0,0	  x0:0x00000000
        8705000	       869	80000578	00000013	addi	x0,x0,0	  x0:0x00000000
        8715000	       870	8000057c	ff1ff0ef	jal	x1,8000057c	  x1=0x8000057c
        8725000	       871	00000000	00000013	addi	x0,x0,0	  x0:0x00000000
        8735000	       872	80000568	00000013	addi	x0,x0,0	  x0:0x00000000
        8745000	       873	8000056c	fddff0ef	jal	x1,8000056c	  x1=0x8000056c
        8755000	       874	00000000	00000013	addi	x0,x0,0	  x0:0x00000000
        8765000	       875	80000544	00000013	addi	x0,x0,0	  x0:0x00000000
        8775000	       876	80000548	018000ef	jal	x1,80000548	  x1=0x80000548
        8785000	       877	00000000	00000013	addi	x0,x0,0	  x0:0x00000000
        8795000	       878	8000055c	00000013	addi	x0,x0,0	  x0:0x00000000
        8805000	       879	80000560	0080096f	jal	x18,80000560	 x18=0x80000560
        8815000	       880	00000000	00000013	addi	x0,x0,0	  x0:0x00000000
        8825000	       881	80000564	00000013	addi	x0,x0,0	  x0:0x00000000
        8835000	       882	80000568	fe5ff1ef	jal	x3,80000568	  x3=0x80000568
        8845000	       883	00000000	00000013	addi	x0,x0,0	  x0:0x00000000
        8855000	       884	80000548	00000013	addi	x0,x0,0	  x0:0x00000000
        8865000	       885	8000054c	0380036f	jal	x6,8000054c	  x6=0x8000054c
        8875000	       886	00000000	00000013	addi	x0,x0,0	  x0:0x00000000
        8885000	       887	80000580	00000013	addi	x0,x0,0	  x0:0x00000000
        8895000	       888	80000584	fcdff36f	jal	x6,80000584	  x6=0x80000584
        8905000	       889	00000000	00000013	addi	x0,x0,0	  x0:0x00000000
        8915000	       890	8000054c	00000013	addi	x0,x0,0	  x0:0x00000000
        8925000	       891	80000550	0300036f	jal	x6,80000550	  x6=0x80000550
        8935000	       892	00000000	00000013	addi	x0,x0,0	  x0:0x00000000
        8945000	       893	8000057c	00000013	addi	x0,x0,0	  x0:0x00000000
        8955000	       894	80000580	fb1ff0ef	jal	x1,80000580	  x1=0x80000580
        8965000	       895	00000000	00000013	addi	x0,x0,0	  x0:0x00000000
        8975000	       896	8000052c	00000013	addi	x0,x0,0	  x0:0x00000000
        8985000	       897	80000530	0480036f	jal	x6,80000530	  x6=0x80000530
        8995000	       898	00000000	00000013	addi	x0,x0,0	  x0:0x00000000
        9005000	       899	80000574	00000013	addi	x0,x0,0	  x0:0x00000000
        9015000	       900	80000578	fcdff36f	jal	x6,80000578	  x6=0x80000578
        9025000	       901	00000000	00000013	addi	x0,x0,0	  x0:0x00000000
        9035000	       902	80000540	00000013	addi	x0,x0,0	  x0:0x00000000
        9045000	       903	80000544	0180036f	jal	x6,80000544	  x6=0x80000544
        9055000	       904	00000000	00000013	addi	x0,x0,0	  x0:0x00000000
        9065000	       905	80000558	00000013	addi	x0,x0,0	  x0:0x00000000
        9075000	       906	8000055c	fd9ff66f	jal	x12,8000055c	 x12=0x8000055c
        9085000	       907	00000000	00000013	addi	x0,x0,0	  x0:0x00000000
        9095000	       908	80000530	00000013	addi	x0,x0,0	  x0:0x00000000
        9105000	       909	80000534	004004ef	jal	x9,80000534	  x9=0x80000534
        9115000	       910	00000000	00000013	addi	x0,x0,0	  x0:0x00000000
        9125000	       911	80000534	00000013	addi	x0,x0,0	  x0:0x00000000
        9135000	       912	80000538	01c0026f	jal	x4,80000538	  x4=0x80000538
        9145000	       913	00000000	00000013	addi	x0,x0,0	  x0:0x00000000
        9155000	       914	80000550	00000013	addi	x0,x0,0	  x0:0x00000000
        9165000	       915	80000554	03c00f6f	jal	x30,80000554	 x30=0x80000554
        9175000	       916	00000000	00000013	addi	x0,x0,0	  x0:0x00000000
        9185000	       917	8000058c	00000013	addi	x0,x0,0	  x0:0x00000000
        9195000	       918	80000590	01131313	slli	x6,x6,0x11	  x6:0x80000544  x6=0x0a880000
        9205000	       919	80000594	00c00c6f	jal	x24,80000594	 x24=0x80000594
        9215000	       920	00000000	00000013	addi	x0,x0,0	  x0:0x00000000
        9225000	       921	8000059c	00000013	addi	x0,x0,0	  x0:0x00000000
        9235000	       922	800005a0	004000ef	jal	x1,800005a0	  x1=0x800005a0
        9245000	       923	00000000	00000013	addi	x0,x0,0	  x0:0x00000000
        9255000	       924	800005a0	00000013	addi	x0,x0,0	  x0:0x00000000
        9265000	       925	800005a4	034000ef	jal	x1,800005a4	  x1=0x800005a4
        9275000	       926	00000000	00000013	addi	x0,x0,0	  x0:0x00000000
        9285000	       927	800005d4	00000013	addi	x0,x0,0	  x0:0x00000000
        9295000	       928	800005d8	fc5ffcef	jal	x25,800005d8	 x25=0x800005d8
        9305000	       929	00000000	00000013	addi	x0,x0,0	  x0:0x00000000
        9315000	       930	80000598	00000013	addi	x0,x0,0	  x0:0x00000000
        9325000	       931	8000059c	020000ef	jal	x1,8000059c	  x1=0x8000059c
        9335000	       932	00000000	00000013	addi	x0,x0,0	  x0:0x00000000
        9345000	       933	800005b8	00000013	addi	x0,x0,0	  x0:0x00000000
        9355000	       934	800005bc	fddff36f	jal	x6,800005bc	  x6=0x800005bc
        9365000	       935	00000000	00000013	addi	x0,x0,0	  x0:0x00000000
        9375000	       936	80000594	00000013	addi	x0,x0,0	  x0:0x00000000
        9385000	       937	80000598	05c000ef	jal	x1,80000598	  x1=0x80000598
        9395000	       938	00000000	00000013	addi	x0,x0,0	  x0:0x00000000
        9405000	       939	800005f0	00000013	addi	x0,x0,0	  x0:0x00000000
        9415000	       940	800005f4	ff9ff2ef	jal	x5,800005f4	  x5=0x800005f4
        9425000	       941	00000000	00000013	addi	x0,x0,0	  x0:0x00000000
        9435000	       942	800005e8	00000013	addi	x0,x0,0	  x0:0x00000000
        9445000	       943	800005ec	fddffc6f	jal	x24,800005ec	 x24=0x800005ec
        9455000	       944	00000000	00000013	addi	x0,x0,0	  x0:0x00000000
        9465000	       945	800005c4	00000013	addi	x0,x0,0	  x0:0x00000000
        9475000	       946	800005c8	fe1ffbef	jal	x23,800005c8	 x23=0x800005c8
        9485000	       947	00000000	00000013	addi	x0,x0,0	  x0:0x00000000
        9495000	       948	800005a4	00000013	addi	x0,x0,0	  x0:0x00000000
        9505000	       949	800005a8	004009ef	jal	x19,800005a8	 x19=0x800005a8
        9515000	       950	00000000	00000013	addi	x0,x0,0	  x0:0x00000000
        9525000	       951	800005a8	00000013	addi	x0,x0,0	  x0:0x00000000
        9535000	       952	800005ac	0240096f	jal	x18,800005ac	 x18=0x800005ac
        9545000	       953	00000000	00000013	addi	x0,x0,0	  x0:0x00000000
        9555000	       954	800005cc	00000013	addi	x0,x0,0	  x0:0x00000000
        9565000	       955	800005d0	fe1ff0ef	jal	x1,800005d0	  x1=0x800005d0
        9575000	       956	00000000	00000013	addi	x0,x0,0	  x0:0x00000000
        9585000	       957	800005ac	00000013	addi	x0,x0,0	  x0:0x00000000
        9595000	       958	800005b0	038002ef	jal	x5,800005b0	  x5=0x800005b0
        9605000	       959	00000000	00000013	addi	x0,x0,0	  x0:0x00000000
        9615000	       960	800005e4	00000013	addi	x0,x0,0	  x0:0x00000000
        9625000	       961	800005e8	ff9ff0ef	jal	x1,800005e8	  x1=0x800005e8
        9635000	       962	00000000	00000013	addi	x0,x0,0	  x0:0x00000000
        9645000	       963	800005dc	00000013	addi	x0,x0,0	  x0:0x00000000
        9655000	       964	800005e0	fe1ff26f	jal	x4,800005e0	  x4=0x800005e0
        9665000	       965	00000000	00000013	addi	x0,x0,0	  x0:0x00000000
        9675000	       966	800005bc	00000013	addi	x0,x0,0	  x0:0x00000000
        9685000	       967	800005c0	ff5ff0ef	jal	x1,800005c0	  x1=0x800005c0
        9695000	       968	00000000	00000013	addi	x0,x0,0	  x0:0x00000000
        9705000	       969	800005b0	00000013	addi	x0,x0,0	  x0:0x00000000
        9715000	       970	800005b4	030000ef	jal	x1,800005b4	  x1=0x800005b4
        9725000	       971	00000000	00000013	addi	x0,x0,0	  x0:0x00000000
        9735000	       972	800005e0	00000013	addi	x0,x0,0	  x0:0x00000000
        9745000	       973	800005e4	00c0036f	jal	x6,800005e4	  x6=0x800005e4
        9755000	       974	00000000	00000013	addi	x0,x0,0	  x0:0x00000000
        9765000	       975	800005ec	00000013	addi	x0,x0,0	  x0:0x00000000
        9775000	       976	800005f0	fddff0ef	jal	x1,800005f0	  x1=0x800005f0
        9785000	       977	00000000	00000013	addi	x0,x0,0	  x0:0x00000000
        9795000	       978	800005c8	00000013	addi	x0,x0,0	  x0:0x00000000
        9805000	       979	800005cc	ff9ff36f	jal	x6,800005cc	  x6=0x800005cc
        9815000	       980	00000000	00000013	addi	x0,x0,0	  x0:0x00000000
        9825000	       981	800005c0	00000013	addi	x0,x0,0	  x0:0x00000000
        9835000	       982	800005c4	ff5ff26f	jal	x4,800005c4	  x4=0x800005c4
        9845000	       983	00000000	00000013	addi	x0,x0,0	  x0:0x00000000
        9855000	       984	800005b4	00000013	addi	x0,x0,0	  x0:0x00000000
        9865000	       985	800005b8	024000ef	jal	x1,800005b8	  x1=0x800005b8
        9875000	       986	00000000	00000013	addi	x0,x0,0	  x0:0x00000000
        9885000	       987	800005d8	00000013	addi	x0,x0,0	  x0:0x00000000
        9895000	       988	800005dc	ff9ffb6f	jal	x22,800005dc	 x22=0x800005dc
        9905000	       989	00000000	00000013	addi	x0,x0,0	  x0:0x00000000
        9915000	       990	800005d0	00000013	addi	x0,x0,0	  x0:0x00000000
        9925000	       991	800005d4	0240036f	jal	x6,800005d4	  x6=0x800005d4
        9935000	       992	00000000	00000013	addi	x0,x0,0	  x0:0x00000000
        9945000	       993	800005f4	00000013	addi	x0,x0,0	  x0:0x00000000
        9955000	       994	800005f8	b65d6713	ori	x14,x26,-1179	 x26:0x800004e8 x14=0xffffffed
        9965000	       995	800005fc	00400c6f	jal	x24,800005fc	 x24=0x800005fc
        9975000	       996	00000000	00000013	addi	x0,x0,0	  x0:0x00000000
        9985000	       997	800005fc	00000013	addi	x0,x0,0	  x0:0x00000000
        9995000	       998	80000600	00c000ef	jal	x1,80000600	  x1=0x80000600
       10005000	       999	00000000	00000013	addi	x0,x0,0	  x0:0x00000000
       10015000	      1000	80000608	00000013	addi	x0,x0,0	  x0:0x00000000
       10025000	      1001	8000060c	008000ef	jal	x1,8000060c	  x1=0x8000060c
       10035000	      1002	00000000	00000013	addi	x0,x0,0	  x0:0x00000000
       10045000	      1003	80000610	00000013	addi	x0,x0,0	  x0:0x00000000
       10055000	      1004	80000614	02400fef	jal	x31,80000614	 x31=0x80000614
       10065000	      1005	00000000	00000013	addi	x0,x0,0	  x0:0x00000000
       10075000	      1006	80000634	00000013	addi	x0,x0,0	  x0:0x00000000
       10085000	      1007	80000638	ff5ff0ef	jal	x1,80000638	  x1=0x80000638
       10095000	      1008	00000000	00000013	addi	x0,x0,0	  x0:0x00000000
       10105000	      1009	80000628	00000013	addi	x0,x0,0	  x0:0x00000000
       10115000	      1010	8000062c	ff5ff0ef	jal	x1,8000062c	  x1=0x8000062c
       10125000	      1011	00000000	00000013	addi	x0,x0,0	  x0:0x00000000
       10135000	      1012	8000061c	00000013	addi	x0,x0,0	  x0:0x00000000
       10145000	      1013	80000620	fe9ff36f	jal	x6,80000620	  x6=0x80000620
       10155000	      1014	00000000	00000013	addi	x0,x0,0	  x0:0x00000000
       10165000	      1015	80000604	00000013	addi	x0,x0,0	  x0:0x00000000
       10175000	      1016	80000608	0140036f	jal	x6,80000608	  x6=0x80000608
       10185000	      1017	00000000	00000013	addi	x0,x0,0	  x0:0x00000000
       10195000	      1018	80000618	00000013	addi	x0,x0,0	  x0:0x00000000
       10205000	      1019	8000061c	008000ef	jal	x1,8000061c	  x1=0x8000061c
       10215000	      1020	00000000	00000013	addi	x0,x0,0	  x0:0x00000000
       10225000	      1021	80000620	00000013	addi	x0,x0,0	  x0:0x00000000
       10235000	      1022	80000624	010000ef	jal	x1,80000624	  x1=0x80000624
       10245000	      1023	00000000	00000013	addi	x0,x0,0	  x0:0x00000000
       10255000	      1024	80000630	00000013	addi	x0,x0,0	  x0:0x00000000
       10265000	      1025	80000634	fddff1ef	jal	x3,80000634	  x3=0x80000634
       10275000	      1026	00000000	00000013	addi	x0,x0,0	  x0:0x00000000
       10285000	      1027	8000060c	00000013	addi	x0,x0,0	  x0:0x00000000
       10295000	      1028	80000610	008000ef	jal	x1,80000610	  x1=0x80000610
       10305000	      1029	00000000	00000013	addi	x0,x0,0	  x0:0x00000000
       10315000	      1030	80000614	00000013	addi	x0,x0,0	  x0:0x00000000
       10325000	      1031	80000618	010000ef	jal	x1,80000618	  x1=0x80000618
       10335000	      1032	00000000	00000013	addi	x0,x0,0	  x0:0x00000000
       10345000	      1033	80000624	00000013	addi	x0,x0,0	  x0:0x00000000
       10355000	      1034	80000628	008005ef	jal	x11,80000628	 x11=0x80000628
       10365000	      1035	00000000	00000013	addi	x0,x0,0	  x0:0x00000000
       10375000	      1036	8000062c	00000013	addi	x0,x0,0	  x0:0x00000000
       10385000	      1037	80000630	fd5ff36f	jal	x6,80000630	  x6=0x80000630
       10395000	      1038	00000000	00000013	addi	x0,x0,0	  x0:0x00000000
       10405000	      1039	80000600	00000013	addi	x0,x0,0	  x0:0x00000000
       10415000	      1040	80000604	03800fef	jal	x31,80000604	 x31=0x80000604
       10425000	      1041	00000000	00000013	addi	x0,x0,0	  x0:0x00000000
       10435000	      1042	80000638	00000013	addi	x0,x0,0	  x0:0x00000000
       10445000	      1043	8000063c	06569897	auipc	x17,0x6569	 x17=0x86569638
       10455000	      1044	80000640	02400c6f	jal	x24,80000640	 x24=0x80000640
       10465000	      1045	00000000	00000013	addi	x0,x0,0	  x0:0x00000000
       10475000	      1046	80000660	00000013	addi	x0,x0,0	  x0:0x00000000
       10485000	      1047	80000664	004000ef	jal	x1,80000664	  x1=0x80000664
       10495000	      1048	00000000	00000013	addi	x0,x0,0	  x0:0x00000000
       10505000	      1049	80000664	00000013	addi	x0,x0,0	  x0:0x00000000
       10515000	      1050	80000668	0180036f	jal	x6,80000668	  x6=0x80000668
       10525000	      1051	00000000	00000013	addi	x0,x0,0	  x0:0x00000000
       10535000	      1052	8000067c	00000013	addi	x0,x0,0	  x0:0x00000000
       10545000	      1053	80000680	fcdff36f	jal	x6,80000680	  x6=0x80000680
       10555000	      1054	00000000	00000013	addi	x0,x0,0	  x0:0x00000000
       10565000	      1055	80000648	00000013	addi	x0,x0,0	  x0:0x00000000
       10575000	      1056	8000064c	ffdffc6f	jal	x24,8000064c	 x24=0x8000064c
       10585000	      1057	00000000	00000013	addi	x0,x0,0	  x0:0x00000000
       10595000	      1058	80000644	00000013	addi	x0,x0,0	  x0:0x00000000
       10605000	      1059	80000648	ffdffbef	jal	x23,80000648	 x23=0x80000648
       10615000	      1060	00000000	00000013	addi	x0,x0,0	  x0:0x00000000
       10625000	      1061	80000640	00000013	addi	x0,x0,0	  x0:0x00000000
       10635000	      1062	80000644	04c000ef	jal	x1,80000644	  x1=0x80000644
       10645000	      1063	00000000	00000013	addi	x0,x0,0	  x0:0x00000000
       10655000	      1064	8000068c	00000013	addi	x0,x0,0	  x0:0x00000000
       10665000	      1065	80000690	fd1ff0ef	jal	x1,80000690	  x1=0x80000690
       10675000	      1066	00000000	00000013	addi	x0,x0,0	  x0:0x00000000
       10685000	      1067	8000065c	00000013	addi	x0,x0,0	  x0:0x00000000
       10695000	      1068	80000660	0180026f	jal	x4,80000660	  x4=0x80000660
       10705000	      1069	00000000	00000013	addi	x0,x0,0	  x0:0x00000000
       10715000	      1070	80000674	00000013	addi	x0,x0,0	  x0:0x00000000
       10725000	      1071	80000678	fd9ffcef	jal	x25,80000678	 x25=0x80000678
       10735000	      1072	00000000	00000013	addi	x0,x0,0	  x0:0x00000000
       10745000	      1073	8000064c	00000013	addi	x0,x0,0	  x0:0x00000000
       10755000	      1074	80000650	03c000ef	jal	x1,80000650	  x1=0x80000650
       10765000	      1075	00000000	00000013	addi	x0,x0,0	  x0:0x00000000
       10775000	      1076	80000688	00000013	addi	x0,x0,0	  x0:0x00000000
       10785000	      1077	8000068c	fe1ff36f	jal	x6,8000068c	  x6=0x8000068c
       10795000	      1078	00000000	00000013	addi	x0,x0,0	  x0:0x00000000
       10805000	      1079	80000668	00000013	addi	x0,x0,0	  x0:0x00000000
       10815000	      1080	8000066c	028000ef	jal	x1,8000066c	  x1=0x8000066c
       10825000	      1081	00000000	00000013	addi	x0,x0,0	  x0:0x00000000
       10835000	      1082	80000690	00000013	addi	x0,x0,0	  x0:0x00000000
       10845000	      1083	80000694	fe9ff0ef	jal	x1,80000694	  x1=0x80000694
       10855000	      1084	00000000	00000013	addi	x0,x0,0	  x0:0x00000000
       10865000	      1085	80000678	00000013	addi	x0,x0,0	  x0:0x00000000
       10875000	      1086	8000067c	ff9ff36f	jal	x6,8000067c	  x6=0x8000067c
       10885000	      1087	00000000	00000013	addi	x0,x0,0	  x0:0x00000000
       10895000	      1088	80000670	00000013	addi	x0,x0,0	  x0:0x00000000
       10905000	      1089	80000674	fe5ff36f	jal	x6,80000674	  x6=0x80000674
       10915000	      1090	00000000	00000013	addi	x0,x0,0	  x0:0x00000000
       10925000	      1091	80000654	00000013	addi	x0,x0,0	  x0:0x00000000
       10935000	      1092	80000658	018000ef	jal	x1,80000658	  x1=0x80000658
       10945000	      1093	00000000	00000013	addi	x0,x0,0	  x0:0x00000000
       10955000	      1094	8000066c	00000013	addi	x0,x0,0	  x0:0x00000000
       10965000	      1095	80000670	0140036f	jal	x6,80000670	  x6=0x80000670
       10975000	      1096	00000000	00000013	addi	x0,x0,0	  x0:0x00000000
       10985000	      1097	80000680	00000013	addi	x0,x0,0	  x0:0x00000000
       10995000	      1098	80000684	fd9ff0ef	jal	x1,80000684	  x1=0x80000684
       11005000	      1099	00000000	00000013	addi	x0,x0,0	  x0:0x00000000
       11015000	      1100	80000658	00000013	addi	x0,x0,0	  x0:0x00000000
       11025000	      1101	8000065c	ff9ff0ef	jal	x1,8000065c	  x1=0x8000065c
       11035000	      1102	00000000	00000013	addi	x0,x0,0	  x0:0x00000000
       11045000	      1103	80000650	00000013	addi	x0,x0,0	  x0:0x00000000
       11055000	      1104	80000654	034000ef	jal	x1,80000654	  x1=0x80000654
       11065000	      1105	00000000	00000013	addi	x0,x0,0	  x0:0x00000000
       11075000	      1106	80000684	00000013	addi	x0,x0,0	  x0:0x00000000
       11085000	      1107	80000688	0100036f	jal	x6,80000688	  x6=0x80000688
       11095000	      1108	00000000	00000013	addi	x0,x0,0	  x0:0x00000000
       11105000	      1109	80000694	00000013	addi	x0,x0,0	  x0:0x00000000
       11115000	      1110	80000698	04fec893	xori	x17,x29,79	 x29:0x800002c0 x17=0x8000028f
       11125000	      1111	8000069c	05400c6f	jal	x24,8000069c	 x24=0x8000069c
       11135000	      1112	00000000	00000013	addi	x0,x0,0	  x0:0x00000000
       11145000	      1113	800006ec	00000013	addi	x0,x0,0	  x0:0x00000000
       11155000	      1114	800006f0	0100036f	jal	x6,800006f0	  x6=0x800006f0
       11165000	      1115	00000000	00000013	addi	x0,x0,0	  x0:0x00000000
       11175000	      1116	800006fc	00000013	addi	x0,x0,0	  x0:0x00000000
       11185000	      1117	80000700	fa5ff0ef	jal	x1,80000700	  x1=0x80000700
       11195000	      1118	00000000	00000013	addi	x0,x0,0	  x0:0x00000000
       11205000	      1119	800006a0	00000013	addi	x0,x0,0	  x0:0x00000000
       11215000	      1120	800006a4	0040076f	jal	x14,800006a4	 x14=0x800006a4
       11225000	      1121	00000000	00000013	addi	x0,x0,0	  x0:0x00000000
       11235000	      1122	800006a4	00000013	addi	x0,x0,0	  x0:0x00000000
       11245000	      1123	800006a8	04c000ef	jal	x1,800006a8	  x1=0x800006a8
       11255000	      1124	00000000	00000013	addi	x0,x0,0	  x0:0x00000000
       11265000	      1125	800006f0	00000013	addi	x0,x0,0	  x0:0x00000000
       11275000	      1126	800006f4	fe9ff0ef	jal	x1,800006f4	  x1=0x800006f4
       11285000	      1127	00000000	00000013	addi	x0,x0,0	  x0:0x00000000
       11295000	      1128	800006d8	00000013	addi	x0,x0,0	  x0:0x00000000
       11305000	      1129	800006dc	0280036f	jal	x6,800006dc	  x6=0x800006dc
       11315000	      1130	00000000	00000013	addi	x0,x0,0	  x0:0x00000000
       11325000	      1131	80000700	00000013	addi	x0,x0,0	  x0:0x00000000
       11335000	      1132	80000704	008000ef	jal	x1,80000704	  x1=0x80000704
       11345000	      1133	00000000	00000013	addi	x0,x0,0	  x0:0x00000000
       11355000	      1134	80000708	00000013	addi	x0,x0,0	  x0:0x00000000
       11365000	      1135	8000070c	fe1ff1ef	jal	x3,8000070c	  x3=0x8000070c
       11375000	      1136	00000000	00000013	addi	x0,x0,0	  x0:0x00000000
       11385000	      1137	800006e8	00000013	addi	x0,x0,0	  x0:0x00000000
       11395000	      1138	800006ec	fd1ff36f	jal	x6,800006ec	  x6=0x800006ec
       11405000	      1139	00000000	00000013	addi	x0,x0,0	  x0:0x00000000
       11415000	      1140	800006b8	00000013	addi	x0,x0,0	  x0:0x00000000
       11425000	      1141	800006bc	0280036f	jal	x6,800006bc	  x6=0x800006bc
       11435000	      1142	00000000	00000013	addi	x0,x0,0	  x0:0x00000000
       11445000	      1143	800006e0	00000013	addi	x0,x0,0	  x0:0x00000000
       11455000	      1144	800006e4	fd1ff76f	jal	x14,800006e4	 x14=0x800006e4
       11465000	      1145	00000000	00000013	addi	x0,x0,0	  x0:0x00000000
       11475000	      1146	800006b0	00000013	addi	x0,x0,0	  x0:0x00000000
       11485000	      1147	800006b4	024000ef	jal	x1,800006b4	  x1=0x800006b4
       11495000	      1148	00000000	00000013	addi	x0,x0,0	  x0:0x00000000
       11505000	      1149	800006d4	00000013	addi	x0,x0,0	  x0:0x00000000
       11515000	      1150	800006d8	fe1ff36f	jal	x6,800006d8	  x6=0x800006d8
       11525000	      1151	00000000	00000013	addi	x0,x0,0	  x0:0x00000000
       11535000	      1152	800006b4	00000013	addi	x0,x0,0	  x0:0x00000000
       11545000	      1153	800006b8	018008ef	jal	x17,800006b8	 x17=0x800006b8
       11555000	      1154	00000000	00000013	addi	x0,x0,0	  x0:0x00000000
       11565000	      1155	800006cc	00000013	addi	x0,x0,0	  x0:0x00000000
       11575000	      1156	800006d0	040000ef	jal	x1,800006d0	  x1=0x800006d0
       11585000	      1157	00000000	00000013	addi	x0,x0,0	  x0:0x00000000
       11595000	      1158	8000070c	00000013	addi	x0,x0,0	  x0:0x00000000
       11605000	      1159	80000710	f9dff0ef	jal	x1,80000710	  x1=0x80000710
       11615000	      1160	00000000	00000013	addi	x0,x0,0	  x0:0x00000000
       11625000	      1161	800006a8	00000013	addi	x0,x0,0	  x0:0x00000000
       11635000	      1162	800006ac	01c0076f	jal	x14,800006ac	 x14=0x800006ac
       11645000	      1163	00000000	00000013	addi	x0,x0,0	  x0:0x00000000
       11655000	      1164	800006c4	00000013	addi	x0,x0,0	  x0:0x00000000
       11665000	      1165	800006c8	fe9ff0ef	jal	x1,800006c8	  x1=0x800006c8
       11675000	      1166	00000000	00000013	addi	x0,x0,0	  x0:0x00000000
       11685000	      1167	800006ac	00000013	addi	x0,x0,0	  x0:0x00000000
       11695000	      1168	800006b0	058000ef	jal	x1,800006b0	  x1=0x800006b0
       11705000	      1169	00000000	00000013	addi	x0,x0,0	  x0:0x00000000
       11715000	      1170	80000704	00000013	addi	x0,x0,0	  x0:0x00000000
       11725000	      1171	80000708	f99ff0ef	jal	x1,80000708	  x1=0x80000708
       11735000	      1172	00000000	00000013	addi	x0,x0,0	  x0:0x00000000
       11745000	      1173	8000069c	00000013	addi	x0,x0,0	  x0:0x00000000
       11755000	      1174	800006a0	048000ef	jal	x1,800006a0	  x1=0x800006a0
       11765000	      1175	00000000	00000013	addi	x0,x0,0	  x0:0x00000000
       11775000	      1176	800006e4	00000013	addi	x0,x0,0	  x0:0x00000000
       11785000	      1177	800006e8	ff9ff0ef	jal	x1,800006e8	  x1=0x800006e8
       11795000	      1178	00000000	00000013	addi	x0,x0,0	  x0:0x00000000
       11805000	      1179	800006dc	00000013	addi	x0,x0,0	  x0:0x00000000
       11815000	      1180	800006e0	fe5ffeef	jal	x29,800006e0	 x29=0x800006e0
       11825000	      1181	00000000	00000013	addi	x0,x0,0	  x0:0x00000000
       11835000	      1182	800006c0	00000013	addi	x0,x0,0	  x0:0x00000000
       11845000	      1183	800006c4	008000ef	jal	x1,800006c4	  x1=0x800006c4
       11855000	      1184	00000000	00000013	addi	x0,x0,0	  x0:0x00000000
       11865000	      1185	800006c8	00000013	addi	x0,x0,0	  x0:0x00000000
       11875000	      1186	800006cc	030000ef	jal	x1,800006cc	  x1=0x800006cc
       11885000	      1187	00000000	00000013	addi	x0,x0,0	  x0:0x00000000
       11895000	      1188	800006f8	00000013	addi	x0,x0,0	  x0:0x00000000
       11905000	      1189	800006fc	fc5ff0ef	jal	x1,800006fc	  x1=0x800006fc
       11915000	      1190	00000000	00000013	addi	x0,x0,0	  x0:0x00000000
       11925000	      1191	800006bc	00000013	addi	x0,x0,0	  x0:0x00000000
       11935000	      1192	800006c0	0140036f	jal	x6,800006c0	  x6=0x800006c0
       11945000	      1193	00000000	00000013	addi	x0,x0,0	  x0:0x00000000
       11955000	      1194	800006d0	00000013	addi	x0,x0,0	  x0:0x00000000
       11965000	      1195	800006d4	024000ef	jal	x1,800006d4	  x1=0x800006d4
       11975000	      1196	00000000	00000013	addi	x0,x0,0	  x0:0x00000000
       11985000	      1197	800006f4	00000013	addi	x0,x0,0	  x0:0x00000000
       11995000	      1198	800006f8	01c000ef	jal	x1,800006f8	  x1=0x800006f8
       12005000	      1199	00000000	00000013	addi	x0,x0,0	  x0:0x00000000
       12015000	      1200	80000710	00000013	addi	x0,x0,0	  x0:0x00000000
       12025000	      1201	80000714	0071dc33	srl	x24,x3,x7	  x3:0x8000070c  x7:0x80000240 x24=0x8000070c
       12035000	      1202	80000718	03400c6f	jal	x24,80000718	 x24=0x80000718
       12045000	      1203	00000000	00000013	addi	x0,x0,0	  x0:0x00000000
       12055000	      1204	80000748	00000013	addi	x0,x0,0	  x0:0x00000000
       12065000	      1205	8000074c	02c0056f	jal	x10,8000074c	 x10=0x8000074c
       12075000	      1206	00000000	00000013	addi	x0,x0,0	  x0:0x00000000
       12085000	      1207	80000774	00000013	addi	x0,x0,0	  x0:0x00000000
       12095000	      1208	80000778	fc1fffef	jal	x31,80000778	 x31=0x80000778
       12105000	      1209	00000000	00000013	addi	x0,x0,0	  x0:0x00000000
       12115000	      1210	80000734	00000013	addi	x0,x0,0	  x0:0x00000000
       12125000	      1211	80000738	04c00f6f	jal	x30,80000738	 x30=0x80000738
       12135000	      1212	00000000	00000013	addi	x0,x0,0	  x0:0x00000000
       12145000	      1213	80000780	00000013	addi	x0,x0,0	  x0:0x00000000
       12155000	      1214	80000784	fe9ff0ef	jal	x1,80000784	  x1=0x80000784
       12165000	      1215	00000000	00000013	addi	x0,x0,0	  x0:0x00000000
       12175000	      1216	80000768	00000013	addi	x0,x0,0	  x0:0x00000000
       12185000	      1217	8000076c	fd1ff0ef	jal	x1,8000076c	  x1=0x8000076c
       12195000	      1218	00000000	00000013	addi	x0,x0,0	  x0:0x00000000
       12205000	      1219	80000738	00000013	addi	x0,x0,0	  x0:0x00000000
       12215000	      1220	8000073c	020000ef	jal	x1,8000073c	  x1=0x8000073c
       12225000	      1221	00000000	00000013	addi	x0,x0,0	  x0:0x00000000
       12235000	      1222	80000758	00000013	addi	x0,x0,0	  x0:0x00000000
       12245000	      1223	8000075c	0140036f	jal	x6,8000075c	  x6=0x8000075c
       12255000	      1224	00000000	00000013	addi	x0,x0,0	  x0:0x00000000
       12265000	      1225	8000076c	00000013	addi	x0,x0,0	  x0:0x00000000
       12275000	      1226	80000770	fe5ff0ef	jal	x1,80000770	  x1=0x80000770
       12285000	      1227	00000000	00000013	addi	x0,x0,0	  x0:0x00000000
       12295000	      1228	80000750	00000013	addi	x0,x0,0	  x0:0x00000000
       12305000	      1229	80000754	020000ef	jal	x1,80000754	  x1=0x80000754
       12315000	      1230	00000000	00000013	addi	x0,x0,0	  x0:0x00000000
       12325000	      1231	80000770	00000013	addi	x0,x0,0	  x0:0x00000000
       12335000	      1232	80000774	fc1ff0ef	jal	x1,80000774	  x1=0x80000774
       12345000	      1233	00000000	00000013	addi	x0,x0,0	  x0:0x00000000
       12355000	      1234	80000730	00000013	addi	x0,x0,0	  x0:0x00000000
       12365000	      1235	80000734	0480036f	jal	x6,80000734	  x6=0x80000734
       12375000	      1236	00000000	00000013	addi	x0,x0,0	  x0:0x00000000
       12385000	      1237	80000778	00000013	addi	x0,x0,0	  x0:0x00000000
       12395000	      1238	8000077c	fa5ff0ef	jal	x1,8000077c	  x1=0x8000077c
       12405000	      1239	00000000	00000013	addi	x0,x0,0	  x0:0x00000000
       12415000	      1240	8000071c	00000013	addi	x0,x0,0	  x0:0x00000000
       12425000	      1241	80000720	0480036f	jal	x6,80000720	  x6=0x80000720
       12435000	      1242	00000000	00000013	addi	x0,x0,0	  x0:0x00000000
       12445000	      1243	80000764	00000013	addi	x0,x0,0	  x0:0x00000000
       12455000	      1244	80000768	fc1ff36f	jal	x6,80000768	  x6=0x80000768
       12465000	      1245	00000000	00000013	addi	x0,x0,0	  x0:0x00000000
       12475000	      1246	80000724	00000013	addi	x0,x0,0	  x0:0x00000000
       12485000	      1247	80000728	03c001ef	jal	x3,80000728	  x3=0x80000728
       12495000	      1248	00000000	00000013	addi	x0,x0,0	  x0:0x00000000
       12505000	      1249	80000760	00000013	addi	x0,x0,0	  x0:0x00000000
       12515000	      1250	80000764	ff5ff36f	jal	x6,80000764	  x6=0x80000764
       12525000	      1251	00000000	00000013	addi	x0,x0,0	  x0:0x00000000
       12535000	      1252	80000754	00000013	addi	x0,x0,0	  x0:0x00000000
       12545000	      1253	80000758	fe9ff0ef	jal	x1,80000758	  x1=0x80000758
       12555000	      1254	00000000	00000013	addi	x0,x0,0	  x0:0x00000000
       12565000	      1255	8000073c	00000013	addi	x0,x0,0	  x0:0x00000000
       12575000	      1256	80000740	fe5ff36f	jal	x6,80000740	  x6=0x80000740
       12585000	      1257	00000000	00000013	addi	x0,x0,0	  x0:0x00000000
       12595000	      1258	80000720	00000013	addi	x0,x0,0	  x0:0x00000000
       12605000	      1259	80000724	0200036f	jal	x6,80000724	  x6=0x80000724
       12615000	      1260	00000000	00000013	addi	x0,x0,0	  x0:0x00000000
       12625000	      1261	80000740	00000013	addi	x0,x0,0	  x0:0x00000000
       12635000	      1262	80000744	fe9ff76f	jal	x14,80000744	 x14=0x80000744
       12645000	      1263	00000000	00000013	addi	x0,x0,0	  x0:0x00000000
       12655000	      1264	80000728	00000013	addi	x0,x0,0	  x0:0x00000000
       12665000	      1265	8000072c	054001ef	jal	x3,8000072c	  x3=0x8000072c
       12675000	      1266	00000000	00000013	addi	x0,x0,0	  x0:0x00000000
       12685000	      1267	8000077c	00000013	addi	x0,x0,0	  x0:0x00000000
       12695000	      1268	80000780	fe1ff36f	jal	x6,80000780	  x6=0x80000780
       12705000	      1269	00000000	00000013	addi	x0,x0,0	  x0:0x00000000
       12715000	      1270	8000075c	00000013	addi	x0,x0,0	  x0:0x00000000
       12725000	      1271	80000760	fbdff3ef	jal	x7,80000760	  x7=0x80000760
       12735000	      1272	00000000	00000013	addi	x0,x0,0	  x0:0x00000000
       12745000	      1273	80000718	00000013	addi	x0,x0,0	  x0:0x00000000
       12755000	      1274	8000071c	014000ef	jal	x1,8000071c	  x1=0x8000071c
       12765000	      1275	00000000	00000013	addi	x0,x0,0	  x0:0x00000000
       12775000	      1276	8000072c	00000013	addi	x0,x0,0	  x0:0x00000000
       12785000	      1277	80000730	018000ef	jal	x1,80000730	  x1=0x80000730
       12795000	      1278	00000000	00000013	addi	x0,x0,0	  x0:0x00000000
       12805000	      1279	80000744	00000013	addi	x0,x0,0	  x0:0x00000000
       12815000	      1280	80000748	008000ef	jal	x1,80000748	  x1=0x80000748
       12825000	      1281	00000000	00000013	addi	x0,x0,0	  x0:0x00000000
       12835000	      1282	8000074c	00000013	addi	x0,x0,0	  x0:0x00000000
       12845000	      1283	80000750	038000ef	jal	x1,80000750	  x1=0x80000750
       12855000	      1284	00000000	00000013	addi	x0,x0,0	  x0:0x00000000
       12865000	      1285	80000784	00000013	addi	x0,x0,0	  x0:0x00000000
       12875000	      1286	80000788	41b8ddb3	sra	x27,x17,x27	 x17:0x800006b8 x27:0x00000001 x27=0xc000035c
       12885000	      1287	8000078c	02800c6f	jal	x24,8000078c	 x24=0x8000078c
       12895000	      1288	00000000	00000013	addi	x0,x0,0	  x0:0x00000000
       12905000	      1289	800007b0	00000013	addi	x0,x0,0	  x0:0x00000000
       12915000	      1290	800007b4	fe9ff0ef	jal	x1,800007b4	  x1=0x800007b4
       12925000	      1291	00000000	00000013	addi	x0,x0,0	  x0:0x00000000
       12935000	      1292	80000798	00000013	addi	x0,x0,0	  x0:0x00000000
       12945000	      1293	8000079c	01c000ef	jal	x1,8000079c	  x1=0x8000079c
       12955000	      1294	00000000	00000013	addi	x0,x0,0	  x0:0x00000000
       12965000	      1295	800007b4	00000013	addi	x0,x0,0	  x0:0x00000000
       12975000	      1296	800007b8	fd9ff1ef	jal	x3,800007b8	  x3=0x800007b8
       12985000	      1297	00000000	00000013	addi	x0,x0,0	  x0:0x00000000
       12995000	      1298	8000078c	00000013	addi	x0,x0,0	  x0:0x00000000
       13005000	      1299	80000790	01c001ef	jal	x3,80000790	  x3=0x80000790
       13015000	      1300	00000000	00000013	addi	x0,x0,0	  x0:0x00000000
       13025000	      1301	800007a8	00000013	addi	x0,x0,0	  x0:0x00000000
       13035000	      1302	800007ac	fe9ff96f	jal	x18,800007ac	 x18=0x800007ac
       13045000	      1303	00000000	00000013	addi	x0,x0,0	  x0:0x00000000
       13055000	      1304	80000790	00000013	addi	x0,x0,0	  x0:0x00000000
       13065000	      1305	80000794	010007ef	jal	x15,80000794	 x15=0x80000794
       13075000	      1306	00000000	00000013	addi	x0,x0,0	  x0:0x00000000
       13085000	      1307	800007a0	00000013	addi	x0,x0,0	  x0:0x00000000
       13095000	      1308	800007a4	004000ef	jal	x1,800007a4	  x1=0x800007a4
       13105000	      1309	00000000	00000013	addi	x0,x0,0	  x0:0x00000000
       13115000	      1310	800007a4	00000013	addi	x0,x0,0	  x0:0x00000000
       13125000	      1311	800007a8	ff1ff2ef	jal	x5,800007a8	  x5=0x800007a8
       13135000	      1312	00000000	00000013	addi	x0,x0,0	  x0:0x00000000
       13145000	      1313	80000794	00000013	addi	x0,x0,0	  x0:0x00000000
       13155000	      1314	80000798	0080036f	jal	x6,80000798	  x6=0x80000798
       13165000	      1315	00000000	00000013	addi	x0,x0,0	  x0:0x00000000
       13175000	      1316	8000079c	00000013	addi	x0,x0,0	  x0:0x00000000
       13185000	      1317	800007a0	010000ef	jal	x1,800007a0	  x1=0x800007a0
       13195000	      1318	00000000	00000013	addi	x0,x0,0	  x0:0x00000000
       13205000	      1319	800007ac	00000013	addi	x0,x0,0	  x0:0x00000000
       13215000	      1320	800007b0	00c000ef	jal	x1,800007b0	  x1=0x800007b0
       13225000	      1321	00000000	00000013	addi	x0,x0,0	  x0:0x00000000
       13235000	      1322	800007b8	00000013	addi	x0,x0,0	  x0:0x00000000
       13245000	      1323	800007bc	013e9193	slli	x3,x29,0x13	 x29:0x800006e0  x3=0x37000000
       13255000	      1324	800007c0	02800c6f	jal	x24,800007c0	 x24=0x800007c0
       13265000	      1325	00000000	00000013	addi	x0,x0,0	  x0:0x00000000
       13275000	      1326	800007e4	00000013	addi	x0,x0,0	  x0:0x00000000
       13285000	      1327	800007e8	ff9ff66f	jal	x12,800007e8	 x12=0x800007e8
       13295000	      1328	00000000	00000013	addi	x0,x0,0	  x0:0x00000000
       13305000	      1329	800007dc	00000013	addi	x0,x0,0	  x0:0x00000000
       13315000	      1330	800007e0	ff5ff0ef	jal	x1,800007e0	  x1=0x800007e0
       13325000	      1331	00000000	00000013	addi	x0,x0,0	  x0:0x00000000
       13335000	      1332	800007d0	00000013	addi	x0,x0,0	  x0:0x00000000
       13345000	      1333	800007d4	ff9ff0ef	jal	x1,800007d4	  x1=0x800007d4
       13355000	      1334	00000000	00000013	addi	x0,x0,0	  x0:0x00000000
       13365000	      1335	800007c8	00000013	addi	x0,x0,0	  x0:0x00000000
       13375000	      1336	800007cc	020000ef	jal	x1,800007cc	  x1=0x800007cc
       13385000	      1337	00000000	00000013	addi	x0,x0,0	  x0:0x00000000
       13395000	      1338	800007e8	00000013	addi	x0,x0,0	  x0:0x00000000
       13405000	      1339	800007ec	fe5ff16f	jal	x2,800007ec	  x2=0x800007ec
       13415000	      1340	00000000	00000013	addi	x0,x0,0	  x0:0x00000000
       13425000	      1341	800007cc	00000013	addi	x0,x0,0	  x0:0x00000000
       13435000	      1342	800007d0	0140036f	jal	x6,800007d0	  x6=0x800007d0
       13445000	      1343	00000000	00000013	addi	x0,x0,0	  x0:0x00000000
       13455000	      1344	800007e0	00000013	addi	x0,x0,0	  x0:0x00000000
       13465000	      1345	800007e4	fe1ff0ef	jal	x1,800007e4	  x1=0x800007e4
       13475000	      1346	00000000	00000013	addi	x0,x0,0	  x0:0x00000000
       13485000	      1347	800007c0	00000013	addi	x0,x0,0	  x0:0x00000000
       13495000	      1348	800007c4	0180036f	jal	x6,800007c4	  x6=0x800007c4
       13505000	      1349	00000000	00000013	addi	x0,x0,0	  x0:0x00000000
       13515000	      1350	800007d8	00000013	addi	x0,x0,0	  x0:0x00000000
       13525000	      1351	800007dc	ffdff0ef	jal	x1,800007dc	  x1=0x800007dc
       13535000	      1352	00000000	00000013	addi	x0,x0,0	  x0:0x00000000
       13545000	      1353	800007d4	00000013	addi	x0,x0,0	  x0:0x00000000
       13555000	      1354	800007d8	ff1ff0ef	jal	x1,800007d8	  x1=0x800007d8
       13565000	      1355	00000000	00000013	addi	x0,x0,0	  x0:0x00000000
       13575000	      1356	800007c4	00000013	addi	x0,x0,0	  x0:0x00000000
       13585000	      1357	800007c8	028000ef	jal	x1,800007c8	  x1=0x800007c8
       13595000	      1358	00000000	00000013	addi	x0,x0,0	  x0:0x00000000
       13605000	      1359	800007ec	00000013	addi	x0,x0,0	  x0:0x00000000
       13615000	      1360	800007f0	003cc4b3	xor	x9,x25,x3	 x25:0x80000678  x3:0x37000000  x9=0xb7000678
       13625000	      1361	800007f4	04400c6f	jal	x24,800007f4	 x24=0x800007f4
       13635000	      1362	00000000	00000013	addi	x0,x0,0	  x0:0x00000000
       13645000	      1363	80000834	00000013	addi	x0,x0,0	  x0:0x00000000
       13655000	      1364	80000838	02000cef	jal	x25,80000838	 x25=0x80000838
       13665000	      1365	00000000	00000013	addi	x0,x0,0	  x0:0x00000000
       13675000	      1366	80000854	00000013	addi	x0,x0,0	  x0:0x00000000
       13685000	      1367	80000858	ff5ff0ef	jal	x1,80000858	  x1=0x80000858
       13695000	      1368	00000000	00000013	addi	x0,x0,0	  x0:0x00000000
       13705000	      1369	80000848	00000013	addi	x0,x0,0	  x0:0x00000000
       13715000	      1370	8000084c	fc9ff16f	jal	x2,8000084c	  x2=0x8000084c
       13725000	      1371	00000000	00000013	addi	x0,x0,0	  x0:0x00000000
       13735000	      1372	80000810	00000013	addi	x0,x0,0	  x0:0x00000000
       13745000	      1373	80000814	0280036f	jal	x6,80000814	  x6=0x80000814
       13755000	      1374	00000000	00000013	addi	x0,x0,0	  x0:0x00000000
       13765000	      1375	80000838	00000013	addi	x0,x0,0	  x0:0x00000000
       13775000	      1376	8000083c	fe1ff0ef	jal	x1,8000083c	  x1=0x8000083c
       13785000	      1377	00000000	00000013	addi	x0,x0,0	  x0:0x00000000
       13795000	      1378	80000818	00000013	addi	x0,x0,0	  x0:0x00000000
       13805000	      1379	8000081c	0380026f	jal	x4,8000081c	  x4=0x8000081c
       13815000	      1380	00000000	00000013	addi	x0,x0,0	  x0:0x00000000
       13825000	      1381	80000850	00000013	addi	x0,x0,0	  x0:0x00000000
       13835000	      1382	80000854	0080036f	jal	x6,80000854	  x6=0x80000854
       13845000	      1383	00000000	00000013	addi	x0,x0,0	  x0:0x00000000
       13855000	      1384	80000858	00000013	addi	x0,x0,0	  x0:0x00000000
       13865000	      1385	8000085c	fbdff0ef	jal	x1,8000085c	  x1=0x8000085c
       13875000	      1386	00000000	00000013	addi	x0,x0,0	  x0:0x00000000
       13885000	      1387	80000814	00000013	addi	x0,x0,0	  x0:0x00000000
       13895000	      1388	80000818	ff1ff0ef	jal	x1,80000818	  x1=0x80000818
       13905000	      1389	00000000	00000013	addi	x0,x0,0	  x0:0x00000000
       13915000	      1390	80000804	00000013	addi	x0,x0,0	  x0:0x00000000
       13925000	      1391	80000808	ffdff36f	jal	x6,80000808	  x6=0x80000808
       13935000	      1392	00000000	00000013	addi	x0,x0,0	  x0:0x00000000
       13945000	      1393	80000800	00000013	addi	x0,x0,0	  x0:0x00000000
       13955000	      1394	80000804	03c00fef	jal	x31,80000804	 x31=0x80000804
       13965000	      1395	00000000	00000013	addi	x0,x0,0	  x0:0x00000000
       13975000	      1396	8000083c	00000013	addi	x0,x0,0	  x0:0x00000000
       13985000	      1397	80000840	024000ef	jal	x1,80000840	  x1=0x80000840
       13995000	      1398	00000000	00000013	addi	x0,x0,0	  x0:0x00000000
       14005000	      1399	80000860	00000013	addi	x0,x0,0	  x0:0x00000000
       14015000	      1400	80000864	fa9ff2ef	jal	x5,80000864	  x5=0x80000864
       14025000	      1401	00000000	00000013	addi	x0,x0,0	  x0:0x00000000
       14035000	      1402	80000808	00000013	addi	x0,x0,0	  x0:0x00000000
       14045000	      1403	8000080c	fedff0ef	jal	x1,8000080c	  x1=0x8000080c
       14055000	      1404	00000000	00000013	addi	x0,x0,0	  x0:0x00000000
       14065000	      1405	800007f4	00000013	addi	x0,x0,0	  x0:0x00000000
       14075000	      1406	800007f8	02800f6f	jal	x30,800007f8	 x30=0x800007f8
       14085000	      1407	00000000	00000013	addi	x0,x0,0	  x0:0x00000000
       14095000	      1408	8000081c	00000013	addi	x0,x0,0	  x0:0x00000000
       14105000	      1409	80000820	004000ef	jal	x1,80000820	  x1=0x80000820
       14115000	      1410	00000000	00000013	addi	x0,x0,0	  x0:0x00000000
       14125000	      1411	80000820	00000013	addi	x0,x0,0	  x0:0x00000000
       14135000	      1412	80000824	00c000ef	jal	x1,80000824	  x1=0x80000824
       14145000	      1413	00000000	00000013	addi	x0,x0,0	  x0:0x00000000
       14155000	      1414	8000082c	00000013	addi	x0,x0,0	  x0:0x00000000
       14165000	      1415	80000830	0200036f	jal	x6,80000830	  x6=0x80000830
       14175000	      1416	00000000	00000013	addi	x0,x0,0	  x0:0x00000000
       14185000	      1417	8000084c	00000013	addi	x0,x0,0	  x0:0x00000000
       14195000	      1418	80000850	fe5ffa6f	jal	x20,80000850	 x20=0x80000850
       14205000	      1419	00000000	00000013	addi	x0,x0,0	  x0:0x00000000
       14215000	      1420	80000830	00000013	addi	x0,x0,0	  x0:0x00000000
       14225000	      1421	80000834	02c000ef	jal	x1,80000834	  x1=0x80000834
       14235000	      1422	00000000	00000013	addi	x0,x0,0	  x0:0x00000000
       14245000	      1423	8000085c	00000013	addi	x0,x0,0	  x0:0x00000000
       14255000	      1424	80000860	f9dff0ef	jal	x1,80000860	  x1=0x80000860
       14265000	      1425	00000000	00000013	addi	x0,x0,0	  x0:0x00000000
       14275000	      1426	800007f8	00000013	addi	x0,x0,0	  x0:0x00000000
       14285000	      1427	800007fc	048000ef	jal	x1,800007fc	  x1=0x800007fc
       14295000	      1428	00000000	00000013	addi	x0,x0,0	  x0:0x00000000
       14305000	      1429	80000840	00000013	addi	x0,x0,0	  x0:0x00000000
       14315000	      1430	80000844	fe5ff36f	jal	x6,80000844	  x6=0x80000844
       14325000	      1431	00000000	00000013	addi	x0,x0,0	  x0:0x00000000
       14335000	      1432	80000824	00000013	addi	x0,x0,0	  x0:0x00000000
       14345000	      1433	80000828	fd9ffdef	jal	x27,80000828	 x27=0x80000828
       14355000	      1434	00000000	00000013	addi	x0,x0,0	  x0:0x00000000
       14365000	      1435	800007fc	00000013	addi	x0,x0,0	  x0:0x00000000
       14375000	      1436	80000800	02c000ef	jal	x1,80000800	  x1=0x80000800
       14385000	      1437	00000000	00000013	addi	x0,x0,0	  x0:0x00000000
       14395000	      1438	80000828	00000013	addi	x0,x0,0	  x0:0x00000000
       14405000	      1439	8000082c	01c0026f	jal	x4,8000082c	  x4=0x8000082c
       14415000	      1440	00000000	00000013	addi	x0,x0,0	  x0:0x00000000
       14425000	      1441	80000844	00000013	addi	x0,x0,0	  x0:0x00000000
       14435000	      1442	80000848	fc9ffc6f	jal	x24,80000848	 x24=0x80000848
       14445000	      1443	00000000	00000013	addi	x0,x0,0	  x0:0x00000000
       14455000	      1444	8000080c	00000013	addi	x0,x0,0	  x0:0x00000000
       14465000	      1445	80000810	058000ef	jal	x1,80000810	  x1=0x80000810
       14475000	      1446	00000000	00000013	addi	x0,x0,0	  x0:0x00000000
       14485000	      1447	80000864	00000013	addi	x0,x0,0	  x0:0x00000000
       14495000	      1448	80000868	00eaa0b3	slt	x1,x21,x14	 x21:0x00004800 x14:0x80000744  x1=0x00000000
       14505000	      1449	8000086c	00800c6f	jal	x24,8000086c	 x24=0x8000086c
       14515000	      1450	00000000	00000013	addi	x0,x0,0	  x0:0x00000000
       14525000	      1451	80000870	00000013	addi	x0,x0,0	  x0:0x00000000
       14535000	      1452	80000874	014000ef	jal	x1,80000874	  x1=0x80000874
       14545000	      1453	00000000	00000013	addi	x0,x0,0	  x0:0x00000000
       14555000	      1454	80000884	00000013	addi	x0,x0,0	  x0:0x00000000
       14565000	      1455	80000888	fe9ff36f	jal	x6,80000888	  x6=0x80000888
       14575000	      1456	00000000	00000013	addi	x0,x0,0	  x0:0x00000000
       14585000	      1457	8000086c	00000013	addi	x0,x0,0	  x0:0x00000000
       14595000	      1458	80000870	01c000ef	jal	x1,80000870	  x1=0x80000870
       14605000	      1459	00000000	00000013	addi	x0,x0,0	  x0:0x00000000
       14615000	      1460	80000888	00000013	addi	x0,x0,0	  x0:0x00000000
       14625000	      1461	8000088c	ff9ffcef	jal	x25,8000088c	 x25=0x8000088c
       14635000	      1462	00000000	00000013	addi	x0,x0,0	  x0:0x00000000
       14645000	      1463	80000880	00000013	addi	x0,x0,0	  x0:0x00000000
       14655000	      1464	80000884	ffdff0ef	jal	x1,80000884	  x1=0x80000884
       14665000	      1465	00000000	00000013	addi	x0,x0,0	  x0:0x00000000
       14675000	      1466	8000087c	00000013	addi	x0,x0,0	  x0:0x00000000
       14685000	      1467	80000880	0100036f	jal	x6,80000880	  x6=0x80000880
       14695000	      1468	00000000	00000013	addi	x0,x0,0	  x0:0x00000000
       14705000	      1469	8000088c	00000013	addi	x0,x0,0	  x0:0x00000000
       14715000	      1470	80000890	fedff0ef	jal	x1,80000890	  x1=0x80000890
       14725000	      1471	00000000	00000013	addi	x0,x0,0	  x0:0x00000000
       14735000	      1472	80000878	00000013	addi	x0,x0,0	  x0:0x00000000
       14745000	      1473	8000087c	018000ef	jal	x1,8000087c	  x1=0x8000087c
       14755000	      1474	00000000	00000013	addi	x0,x0,0	  x0:0x00000000
       14765000	      1475	80000890	00000013	addi	x0,x0,0	  x0:0x00000000
       14775000	      1476	80000894	fe5ff36f	jal	x6,80000894	  x6=0x80000894
       14785000	      1477	00000000	00000013	addi	x0,x0,0	  x0:0x00000000
       14795000	      1478	80000874	00000013	addi	x0,x0,0	  x0:0x00000000
       14805000	      1479	80000878	020000ef	jal	x1,80000878	  x1=0x80000878
       14815000	      1480	00000000	00000013	addi	x0,x0,0	  x0:0x00000000
       14825000	      1481	80000894	00000013	addi	x0,x0,0	  x0:0x00000000
       14835000	      1482	80000898	00884533	xor	x10,x16,x8	 x16:0x00000000  x8:0x80009fc4 x10=0x80009fc4
       14845000	      1483	8000089c	03400c6f	jal	x24,8000089c	 x24=0x8000089c
       14855000	      1484	00000000	00000013	addi	x0,x0,0	  x0:0x00000000
       14865000	      1485	800008cc	00000013	addi	x0,x0,0	  x0:0x00000000
       14875000	      1486	800008d0	008008ef	jal	x17,800008d0	 x17=0x800008d0
       14885000	      1487	00000000	00000013	addi	x0,x0,0	  x0:0x00000000
       14895000	      1488	800008d4	00000013	addi	x0,x0,0	  x0:0x00000000
       14905000	      1489	800008d8	fcdff36f	jal	x6,800008d8	  x6=0x800008d8
       14915000	      1490	00000000	00000013	addi	x0,x0,0	  x0:0x00000000
       14925000	      1491	800008a0	00000013	addi	x0,x0,0	  x0:0x00000000
       14935000	      1492	800008a4	004000ef	jal	x1,800008a4	  x1=0x800008a4
       14945000	      1493	00000000	00000013	addi	x0,x0,0	  x0:0x00000000
       14955000	      1494	800008a4	00000013	addi	x0,x0,0	  x0:0x00000000
       14965000	      1495	800008a8	018000ef	jal	x1,800008a8	  x1=0x800008a8
       14975000	      1496	00000000	00000013	addi	x0,x0,0	  x0:0x00000000
       14985000	      1497	800008bc	00000013	addi	x0,x0,0	  x0:0x00000000
       14995000	      1498	800008c0	ff1ff0ef	jal	x1,800008c0	  x1=0x800008c0
       15005000	      1499	00000000	00000013	addi	x0,x0,0	  x0:0x00000000
       15015000	      1500	800008ac	00000013	addi	x0,x0,0	  x0:0x00000000
       15025000	      1501	800008b0	ffdff0ef	jal	x1,800008b0	  x1=0x800008b0
       15035000	      1502	00000000	00000013	addi	x0,x0,0	  x0:0x00000000
       15045000	      1503	800008a8	00000013	addi	x0,x0,0	  x0:0x00000000
       15055000	      1504	800008ac	038000ef	jal	x1,800008ac	  x1=0x800008ac
       15065000	      1505	00000000	00000013	addi	x0,x0,0	  x0:0x00000000
       15075000	      1506	800008e0	00000013	addi	x0,x0,0	  x0:0x00000000
       15085000	      1507	800008e4	ff1ff0ef	jal	x1,800008e4	  x1=0x800008e4
       15095000	      1508	00000000	00000013	addi	x0,x0,0	  x0:0x00000000
       15105000	      1509	800008d0	00000013	addi	x0,x0,0	  x0:0x00000000
       15115000	      1510	800008d4	fe5ff66f	jal	x12,800008d4	 x12=0x800008d4
       15125000	      1511	00000000	00000013	addi	x0,x0,0	  x0:0x00000000
       15135000	      1512	800008b4	00000013	addi	x0,x0,0	  x0:0x00000000
       15145000	      1513	800008b8	028002ef	jal	x5,800008b8	  x5=0x800008b8
       15155000	      1514	00000000	00000013	addi	x0,x0,0	  x0:0x00000000
       15165000	      1515	800008dc	00000013	addi	x0,x0,0	  x0:0x00000000
       15175000	      1516	800008e0	fddff36f	jal	x6,800008e0	  x6=0x800008e0
       15185000	      1517	00000000	00000013	addi	x0,x0,0	  x0:0x00000000
       15195000	      1518	800008b8	00000013	addi	x0,x0,0	  x0:0x00000000
       15205000	      1519	800008bc	00c000ef	jal	x1,800008bc	  x1=0x800008bc
       15215000	      1520	00000000	00000013	addi	x0,x0,0	  x0:0x00000000
       15225000	      1521	800008c4	00000013	addi	x0,x0,0	  x0:0x00000000
       15235000	      1522	800008c8	004000ef	jal	x1,800008c8	  x1=0x800008c8
       15245000	      1523	00000000	00000013	addi	x0,x0,0	  x0:0x00000000
       15255000	      1524	800008c8	00000013	addi	x0,x0,0	  x0:0x00000000
       15265000	      1525	800008cc	fe9ff0ef	jal	x1,800008cc	  x1=0x800008cc
       15275000	      1526	00000000	00000013	addi	x0,x0,0	  x0:0x00000000
       15285000	      1527	800008b0	00000013	addi	x0,x0,0	  x0:0x00000000
       15295000	      1528	800008b4	010002ef	jal	x5,800008b4	  x5=0x800008b4
       15305000	      1529	00000000	00000013	addi	x0,x0,0	  x0:0x00000000
       15315000	      1530	800008c0	00000013	addi	x0,x0,0	  x0:0x00000000
       15325000	      1531	800008c4	0180016f	jal	x2,800008c4	  x2=0x800008c4
       15335000	      1532	00000000	00000013	addi	x0,x0,0	  x0:0x00000000
       15345000	      1533	800008d8	00000013	addi	x0,x0,0	  x0:0x00000000
       15355000	      1534	800008dc	fc5ff36f	jal	x6,800008dc	  x6=0x800008dc
       15365000	      1535	00000000	00000013	addi	x0,x0,0	  x0:0x00000000
       15375000	      1536	8000089c	00000013	addi	x0,x0,0	  x0:0x00000000
       15385000	      1537	800008a0	048000ef	jal	x1,800008a0	  x1=0x800008a0
       15395000	      1538	00000000	00000013	addi	x0,x0,0	  x0:0x00000000
       15405000	      1539	800008e4	00000013	addi	x0,x0,0	  x0:0x00000000
       15415000	      1540	800008e8	d210c2b7	lui	x5,0xd210c	  x5=0xd210c000
       15425000	      1541	800008ec	02400c6f	jal	x24,800008ec	 x24=0x800008ec
       15435000	      1542	00000000	00000013	addi	x0,x0,0	  x0:0x00000000
       15445000	      1543	8000090c	00000013	addi	x0,x0,0	  x0:0x00000000
       15455000	      1544	80000910	ff5ff0ef	jal	x1,80000910	  x1=0x80000910
       15465000	      1545	00000000	00000013	addi	x0,x0,0	  x0:0x00000000
       15475000	      1546	80000900	00000013	addi	x0,x0,0	  x0:0x00000000
       15485000	      1547	80000904	fedff0ef	jal	x1,80000904	  x1=0x80000904
       15495000	      1548	00000000	00000013	addi	x0,x0,0	  x0:0x00000000
       15505000	      1549	800008ec	00000013	addi	x0,x0,0	  x0:0x00000000
       15515000	      1550	800008f0	00c0036f	jal	x6,800008f0	  x6=0x800008f0
       15525000	      1551	00000000	00000013	addi	x0,x0,0	  x0:0x00000000
       15535000	      1552	800008f8	00000013	addi	x0,x0,0	  x0:0x00000000
       15545000	      1553	800008fc	010000ef	jal	x1,800008fc	  x1=0x800008fc
       15555000	      1554	00000000	00000013	addi	x0,x0,0	  x0:0x00000000
       15565000	      1555	80000908	00000013	addi	x0,x0,0	  x0:0x00000000
       15575000	      1556	8000090c	ff5ff0ef	jal	x1,8000090c	  x1=0x8000090c
       15585000	      1557	00000000	00000013	addi	x0,x0,0	  x0:0x00000000
       15595000	      1558	800008fc	00000013	addi	x0,x0,0	  x0:0x00000000
       15605000	      1559	80000900	0180036f	jal	x6,80000900	  x6=0x80000900
       15615000	      1560	00000000	00000013	addi	x0,x0,0	  x0:0x00000000
       15625000	      1561	80000914	00000013	addi	x0,x0,0	  x0:0x00000000
       15635000	      1562	80000918	fddff36f	jal	x6,80000918	  x6=0x80000918
       15645000	      1563	00000000	00000013	addi	x0,x0,0	  x0:0x00000000
       15655000	      1564	800008f0	00000013	addi	x0,x0,0	  x0:0x00000000
       15665000	      1565	800008f4	020000ef	jal	x1,800008f4	  x1=0x800008f4
       15675000	      1566	00000000	00000013	addi	x0,x0,0	  x0:0x00000000
       15685000	      1567	80000910	00000013	addi	x0,x0,0	  x0:0x00000000
       15695000	      1568	80000914	fe5ff36f	jal	x6,80000914	  x6=0x80000914
       15705000	      1569	00000000	00000013	addi	x0,x0,0	  x0:0x00000000
       15715000	      1570	800008f4	00000013	addi	x0,x0,0	  x0:0x00000000
       15725000	      1571	800008f8	010000ef	jal	x1,800008f8	  x1=0x800008f8
       15735000	      1572	00000000	00000013	addi	x0,x0,0	  x0:0x00000000
       15745000	      1573	80000904	00000013	addi	x0,x0,0	  x0:0x00000000
       15755000	      1574	80000908	014000ef	jal	x1,80000908	  x1=0x80000908
       15765000	      1575	00000000	00000013	addi	x0,x0,0	  x0:0x00000000
       15775000	      1576	80000918	00000013	addi	x0,x0,0	  x0:0x00000000
       15785000	      1577	8000091c	ac670993	addi	x19,x14,-1338	 x14:0x80000744 x19=0x8000020a
       15795000	      1578	80000920	04c00c6f	jal	x24,80000920	 x24=0x80000920
       15805000	      1579	00000000	00000013	addi	x0,x0,0	  x0:0x00000000
       15815000	      1580	80000968	00000013	addi	x0,x0,0	  x0:0x00000000
       15825000	      1581	8000096c	fd5ff0ef	jal	x1,8000096c	  x1=0x8000096c
       15835000	      1582	00000000	00000013	addi	x0,x0,0	  x0:0x00000000
       15845000	      1583	8000093c	00000013	addi	x0,x0,0	  x0:0x00000000
       15855000	      1584	80000940	0200066f	jal	x12,80000940	 x12=0x80000940
       15865000	      1585	00000000	00000013	addi	x0,x0,0	  x0:0x00000000
       15875000	      1586	8000095c	00000013	addi	x0,x0,0	  x0:0x00000000
       15885000	      1587	80000960	fd1ff6ef	jal	x13,80000960	 x13=0x80000960
       15895000	      1588	00000000	00000013	addi	x0,x0,0	  x0:0x00000000
       15905000	      1589	8000092c	00000013	addi	x0,x0,0	  x0:0x00000000
       15915000	      1590	80000930	01c0036f	jal	x6,80000930	  x6=0x80000930
       15925000	      1591	00000000	00000013	addi	x0,x0,0	  x0:0x00000000
       15935000	      1592	80000948	00000013	addi	x0,x0,0	  x0:0x00000000
       15945000	      1593	8000094c	ffdff0ef	jal	x1,8000094c	  x1=0x8000094c
       15955000	      1594	00000000	00000013	addi	x0,x0,0	  x0:0x00000000
       15965000	      1595	80000944	00000013	addi	x0,x0,0	  x0:0x00000000
       15975000	      1596	80000948	0140036f	jal	x6,80000948	  x6=0x80000948
       15985000	      1597	00000000	00000013	addi	x0,x0,0	  x0:0x00000000
       15995000	      1598	80000958	00000013	addi	x0,x0,0	  x0:0x00000000
       16005000	      1599	8000095c	fe9ff0ef	jal	x1,8000095c	  x1=0x8000095c
       16015000	      1600	00000000	00000013	addi	x0,x0,0	  x0:0x00000000
       16025000	      1601	80000940	00000013	addi	x0,x0,0	  x0:0x00000000
       16035000	      1602	80000944	024000ef	jal	x1,80000944	  x1=0x80000944
       16045000	      1603	00000000	00000013	addi	x0,x0,0	  x0:0x00000000
       16055000	      1604	80000964	00000013	addi	x0,x0,0	  x0:0x00000000
       16065000	      1605	80000968	008002ef	jal	x5,80000968	  x5=0x80000968
       16075000	      1606	00000000	00000013	addi	x0,x0,0	  x0:0x00000000
       16085000	      1607	8000096c	00000013	addi	x0,x0,0	  x0:0x00000000
       16095000	      1608	80000970	0080016f	jal	x2,80000970	  x2=0x80000970
       16105000	      1609	00000000	00000013	addi	x0,x0,0	  x0:0x00000000
       16115000	      1610	80000974	00000013	addi	x0,x0,0	  x0:0x00000000
       16125000	      1611	80000978	fbdff1ef	jal	x3,80000978	  x3=0x80000978
       16135000	      1612	00000000	00000013	addi	x0,x0,0	  x0:0x00000000
       16145000	      1613	80000930	00000013	addi	x0,x0,0	  x0:0x00000000
       16155000	      1614	80000934	024007ef	jal	x15,80000934	 x15=0x80000934
       16165000	      1615	00000000	00000013	addi	x0,x0,0	  x0:0x00000000
       16175000	      1616	80000954	00000013	addi	x0,x0,0	  x0:0x00000000
       16185000	      1617	80000958	ff9ff26f	jal	x4,80000958	  x4=0x80000958
       16195000	      1618	00000000	00000013	addi	x0,x0,0	  x0:0x00000000
       16205000	      1619	8000094c	00000013	addi	x0,x0,0	  x0:0x00000000
       16215000	      1620	80000950	fd9ff36f	jal	x6,80000950	  x6=0x80000950
       16225000	      1621	00000000	00000013	addi	x0,x0,0	  x0:0x00000000
       16235000	      1622	80000924	00000013	addi	x0,x0,0	  x0:0x00000000
       16245000	      1623	80000928	ffdff0ef	jal	x1,80000928	  x1=0x80000928
       16255000	      1624	00000000	00000013	addi	x0,x0,0	  x0:0x00000000
       16265000	      1625	80000920	00000013	addi	x0,x0,0	  x0:0x00000000
       16275000	      1626	80000924	0140036f	jal	x6,80000924	  x6=0x80000924
       16285000	      1627	00000000	00000013	addi	x0,x0,0	  x0:0x00000000
       16295000	      1628	80000934	00000013	addi	x0,x0,0	  x0:0x00000000
       16305000	      1629	80000938	03c0036f	jal	x6,80000938	  x6=0x80000938
       16315000	      1630	00000000	00000013	addi	x0,x0,0	  x0:0x00000000
       16325000	      1631	80000970	00000013	addi	x0,x0,0	  x0:0x00000000
       16335000	      1632	80000974	fc9ff4ef	jal	x9,80000974	  x9=0x80000974
       16345000	      1633	00000000	00000013	addi	x0,x0,0	  x0:0x00000000
       16355000	      1634	80000938	00000013	addi	x0,x0,0	  x0:0x00000000
       16365000	      1635	8000093c	018000ef	jal	x1,8000093c	  x1=0x8000093c
       16375000	      1636	00000000	00000013	addi	x0,x0,0	  x0:0x00000000
       16385000	      1637	80000950	00000013	addi	x0,x0,0	  x0:0x00000000
       16395000	      1638	80000954	fd9ff3ef	jal	x7,80000954	  x7=0x80000954
       16405000	      1639	00000000	00000013	addi	x0,x0,0	  x0:0x00000000
       16415000	      1640	80000928	00000013	addi	x0,x0,0	  x0:0x00000000
       16425000	      1641	8000092c	038002ef	jal	x5,8000092c	  x5=0x8000092c
       16435000	      1642	00000000	00000013	addi	x0,x0,0	  x0:0x00000000
       16445000	      1643	80000960	00000013	addi	x0,x0,0	  x0:0x00000000
       16455000	      1644	80000964	018009ef	jal	x19,80000964	 x19=0x80000964
       16465000	      1645	00000000	00000013	addi	x0,x0,0	  x0:0x00000000
       16475000	      1646	80000978	00000013	addi	x0,x0,0	  x0:0x00000000
       16485000	      1647	8000097c	01eb8033	add	x0,x23,x30	 x23:0x80000648 x30:0x800007f8
       16495000	      1648	80000980	04400c6f	jal	x24,80000980	 x24=0x80000980
       16505000	      1649	00000000	00000013	addi	x0,x0,0	  x0:0x00000000
       16515000	      1650	800009c0	00000013	addi	x0,x0,0	  x0:0x00000000
       16525000	      1651	800009c4	fe1ff4ef	jal	x9,800009c4	  x9=0x800009c4
       16535000	      1652	00000000	00000013	addi	x0,x0,0	  x0:0x00000000
       16545000	      1653	800009a0	00000013	addi	x0,x0,0	  x0:0x00000000
       16555000	      1654	800009a4	fe9ff0ef	jal	x1,800009a4	  x1=0x800009a4
       16565000	      1655	00000000	00000013	addi	x0,x0,0	  x0:0x00000000
       16575000	      1656	80000988	00000013	addi	x0,x0,0	  x0:0x00000000
       16585000	      1657	8000098c	040000ef	jal	x1,8000098c	  x1=0x8000098c
       16595000	      1658	00000000	00000013	addi	x0,x0,0	  x0:0x00000000
       16605000	      1659	800009c8	00000013	addi	x0,x0,0	  x0:0x00000000
       16615000	      1660	800009cc	fe9ff36f	jal	x6,800009cc	  x6=0x800009cc
       16625000	      1661	00000000	00000013	addi	x0,x0,0	  x0:0x00000000
       16635000	      1662	800009b0	00000013	addi	x0,x0,0	  x0:0x00000000
       16645000	      1663	800009b4	014000ef	jal	x1,800009b4	  x1=0x800009b4
       16655000	      1664	00000000	00000013	addi	x0,x0,0	  x0:0x00000000
       16665000	      1665	800009c4	00000013	addi	x0,x0,0	  x0:0x00000000
       16675000	      1666	800009c8	fd5ff0ef	jal	x1,800009c8	  x1=0x800009c8
       16685000	      1667	00000000	00000013	addi	x0,x0,0	  x0:0x00000000
       16695000	      1668	80000998	00000013	addi	x0,x0,0	  x0:0x00000000
       16705000	      1669	8000099c	024000ef	jal	x1,8000099c	  x1=0x8000099c
       16715000	      1670	00000000	00000013	addi	x0,x0,0	  x0:0x00000000
       16725000	      1671	800009bc	00000013	addi	x0,x0,0	  x0:0x00000000
       16735000	      1672	800009c0	fe1ff0ef	jal	x1,800009c0	  x1=0x800009c0
       16745000	      1673	00000000	00000013	addi	x0,x0,0	  x0:0x00000000
       16755000	      1674	8000099c	00000013	addi	x0,x0,0	  x0:0x00000000
       16765000	      1675	800009a0	01c0036f	jal	x6,800009a0	  x6=0x800009a0
       16775000	      1676	00000000	00000013	addi	x0,x0,0	  x0:0x00000000
       16785000	      1677	800009b8	00000013	addi	x0,x0,0	  x0:0x00000000
       16795000	      1678	800009bc	ff1ff0ef	jal	x1,800009bc	  x1=0x800009bc
       16805000	      1679	00000000	00000013	addi	x0,x0,0	  x0:0x00000000
       16815000	      1680	800009a8	00000013	addi	x0,x0,0	  x0:0x00000000
       16825000	      1681	800009ac	0240036f	jal	x6,800009ac	  x6=0x800009ac
       16835000	      1682	00000000	00000013	addi	x0,x0,0	  x0:0x00000000
       16845000	      1683	800009cc	00000013	addi	x0,x0,0	  x0:0x00000000
       16855000	      1684	800009d0	fc5ff0ef	jal	x1,800009d0	  x1=0x800009d0
       16865000	      1685	00000000	00000013	addi	x0,x0,0	  x0:0x00000000
       16875000	      1686	80000990	00000013	addi	x0,x0,0	  x0:0x00000000
       16885000	      1687	80000994	ffdff36f	jal	x6,80000994	  x6=0x80000994
       16895000	      1688	00000000	00000013	addi	x0,x0,0	  x0:0x00000000
       16905000	      1689	8000098c	00000013	addi	x0,x0,0	  x0:0x00000000
       16915000	      1690	80000990	00800def	jal	x27,80000990	 x27=0x80000990
       16925000	      1691	00000000	00000013	addi	x0,x0,0	  x0:0x00000000
       16935000	      1692	80000994	00000013	addi	x0,x0,0	  x0:0x00000000
       16945000	      1693	80000998	fedff0ef	jal	x1,80000998	  x1=0x80000998
       16955000	      1694	00000000	00000013	addi	x0,x0,0	  x0:0x00000000
       16965000	      1695	80000980	00000013	addi	x0,x0,0	  x0:0x00000000
       16975000	      1696	80000984	0240036f	jal	x6,80000984	  x6=0x80000984
       16985000	      1697	00000000	00000013	addi	x0,x0,0	  x0:0x00000000
       16995000	      1698	800009a4	00000013	addi	x0,x0,0	  x0:0x00000000
       17005000	      1699	800009a8	010000ef	jal	x1,800009a8	  x1=0x800009a8
       17015000	      1700	00000000	00000013	addi	x0,x0,0	  x0:0x00000000
       17025000	      1701	800009b4	00000013	addi	x0,x0,0	  x0:0x00000000
       17035000	      1702	800009b8	ff9ff0ef	jal	x1,800009b8	  x1=0x800009b8
       17045000	      1703	00000000	00000013	addi	x0,x0,0	  x0:0x00000000
       17055000	      1704	800009ac	00000013	addi	x0,x0,0	  x0:0x00000000
       17065000	      1705	800009b0	fd9ff36f	jal	x6,800009b0	  x6=0x800009b0
       17075000	      1706	00000000	00000013	addi	x0,x0,0	  x0:0x00000000
       17085000	      1707	80000984	00000013	addi	x0,x0,0	  x0:0x00000000
       17095000	      1708	80000988	04c004ef	jal	x9,80000988	  x9=0x80000988
       17105000	      1709	00000000	00000013	addi	x0,x0,0	  x0:0x00000000
       17115000	      1710	800009d0	00000013	addi	x0,x0,0	  x0:0x00000000
       17125000	      1711	800009d4	ea21a617	auipc	x12,0xea21a	 x12=0x6a21a9d0
       17135000	      1712	800009d8	00000013	addi	x0,x0,0	  x0:0x00000000
       17145000	      1713	800009dc	00000013	addi	x0,x0,0	  x0:0x00000000
       17155000	      1714	800009e0	014a9a13	slli	x20,x21,0x14	 x21:0x00004800 x20=0x80000000
       17165000	      1715	800009e4	0008c633	xor	x12,x17,x0	 x17:0x800008d0  x0:0x00000000 x12=0x800008d0
       17175000	      1716	800009e8	01153733	sltu	x14,x10,x17	 x10:0x80009fc4 x17:0x800008d0 x14=0x00000000
       17185000	      1717	800009ec	01fbd3b3	srl	x7,x23,x31	 x23:0x80000648 x31:0x80000804  x7=0x08000064
       17195000	      1718	800009f0	09f0a113	slti	x2,x1,159	  x1:0x800009b8  x2=0x00000001
       17205000	      1719	800009f4	00ba5f93	srli	x31,x20,0xb	 x20:0x80000000 x31=0x00100000
       17215000	      1720	800009f8	40378533	sub	x10,x15,x3	 x15:0x80000934  x3:0x80000978 x10=0xffffffbc
       17225000	      1721	800009fc	9c5ab513	sltiu	x10,x21,-1595	 x21:0x00004800 x10=0x00000001
       17235000	      1722	80000a00	dcc10ab7	lui	x21,0xdcc10	 x21=0xdcc10000
       17245000	      1723	80000a04	00ffd513	srli	x10,x31,0xf	 x31:0x00100000 x10=0x00000020
       17255000	      1724	80000a08	0070da63	bge	x1,x7,80000a1c	  x1:0x800009b8  x7:0x08000064
       17265000	      1725	80000a0c	00cc8c33	add	x24,x25,x12	 x25:0x8000088c x12:0x800008d0 x24=0x0000115c
       17275000	      1726	80000a10	01211f33	sll	x30,x2,x18	  x2:0x00000001 x18:0x800007ac x30=0x00001000
       17285000	      1727	80000a14	053b1263	bne	x22,x19,80000a58	 x22:0x800005dc x19:0x80000964
       17295000	      1728	00000000	00000013	addi	x0,x0,0	  x0:0x00000000
       17305000	      1729	80000a54	00000013	addi	x0,x0,0	  x0:0x00000000
       17315000	      1730	80000a58	76d16537	lui	x10,0x76d16	 x10=0x76d16000
       17325000	      1731	80000a5c	dc6712b7	lui	x5,0xdc671	  x5=0xdc671000
       17335000	      1732	80000a60	00b65e63	bge	x12,x11,80000a7c	 x12:0x800008d0 x11:0x80000628
       17345000	      1733	00000000	00000013	addi	x0,x0,0	  x0:0x00000000
       17355000	      1734	80000a78	00000013	addi	x0,x0,0	  x0:0x00000000
       17365000	      1735	80000a7c	01e32a33	slt	x20,x6,x30	  x6:0x800009b0 x30:0x00001000 x20=0x00000001
       17375000	      1736	80000a80	01f5beb3	sltu	x29,x11,x31	 x11:0x80000628 x31:0x00100000 x29=0x00000000
       17385000	      1737	80000a84	0d579f17	auipc	x30,0xd579	 x30=0x8d579a80
       17395000	      1738	80000a88	e64d0d93	addi	x27,x26,-412	 x26:0x800004e8 x27=0x8000034c
       17405000	      1739	80000a8c	015bcb33	xor	x22,x23,x21	 x23:0x80000648 x21:0xdcc10000 x22=0x5cc10648
       17415000	      1740	80000a90	bb50cf13	xori	x30,x1,-1099	  x1:0x800009b8 x30=0x7ffff20d
       17425000	      1741	80000a94	00000013	addi	x0,x0,0	  x0:0x00000000
       17435000	      1742	80000a98	40298bb3	sub	x23,x19,x2	 x19:0x80000964  x2:0x00000001 x23=0x80000963
       17445000	      1743	80000a9c	e155a293	slti	x5,x11,-491	 x11:0x80000628  x5=0x00000001
       17455000	      1744	80000aa0	01a26333	or	x6,x4,x26	  x4:0x80000958 x26:0x800004e8  x6=0x80000df8
       17465000	      1745	80000aa4	013eee63	bltu	x29,x19,80000ac0	 x29:0x00000000 x19:0x80000964
       17475000	      1746	00000000	00000013	addi	x0,x0,0	  x0:0x00000000
       17485000	      1747	80000abc	00000013	addi	x0,x0,0	  x0:0x00000000
       17495000	      1748	80000ac0	a3998993	addi	x19,x19,-1479	 x19:0x80000964 x19=0x8000039d
       17505000	      1749	80000ac4	32763d93	sltiu	x27,x12,807	 x12:0x800008d0 x27=0x00000000
       17515000	      1750	80000ac8	01fb1a93	slli	x21,x22,0x1f	 x22:0x5cc10648 x21=0x00000000
       17525000	      1751	80000acc	5ab88b13	addi	x22,x17,1451	 x17:0x800008d0 x22=0x80000e7b
       17535000	      1752	80000ad0	009bd793	srli	x15,x23,0x9	 x23:0x80000963 x15=0x00400004
       17545000	      1753	80000ad4	02ed0663	beq	x26,x14,80000b00	 x26:0x800004e8 x14:0x00000000
       17555000	      1754	80000ad8	415d5793	srai	x15,x26,0x15	 x26:0x800004e8 x15=0xfffffc00
       17565000	      1755	80000adc	0a372313	slti	x6,x14,163	 x14:0x00000000  x6=0x00000001
       17575000	      1756	80000ae0	a9abff93	andi	x31,x23,-1382	 x23:0x80000963 x31=0x80000802
       17585000	      1757	80000ae4	33326a13	ori	x20,x4,819	  x4:0x80000958 x20=0x80000b7b
       17595000	      1758	80000ae8	03c2ca63	blt	x5,x28,80000b1c	  x5:0x00000001 x28:0x80009f84
       17605000	      1759	80000aec	d35bfd93	andi	x27,x23,-715	 x23:0x80000963 x27=0x80000921
       17615000	      1760	80000af0	00b11a13	slli	x20,x2,0xb	  x2:0x00000001 x20=0x00000800
       17625000	      1761	80000af4	00000013	addi	x0,x0,0	  x0:0x00000000
       17635000	      1762	80000af8	00724db3	xor	x27,x4,x7	  x4:0x80000958  x7:0x08000064 x27=0x8800093c
       17645000	      1763	80000afc	42d4d137	lui	x2,0x42d4d	  x2=0x42d4d000
       17655000	      1764	80000b00	16648737	lui	x14,0x16648	 x14=0x16648000
       17665000	      1765	80000b04	de486b93	ori	x23,x16,-540	 x16:0x00000000 x23=0xfffffde4
       17675000	      1766	80000b08	00d35663	bge	x6,x13,80000b14	  x6:0x00000001 x13:0x80000960
       17685000	      1767	00000000	00000013	addi	x0,x0,0	  x0:0x00000000
       17695000	      1768	80000b10	00000013	addi	x0,x0,0	  x0:0x00000000
       17705000	      1769	80000b14	010d4d33	xor	x26,x26,x16	 x26:0x800004e8 x16:0x00000000 x26=0x800004e8
       17715000	      1770	80000b18	002718b3	sll	x17,x14,x2	 x14:0x16648000  x2:0x42d4d000 x17=0x16648000
       17725000	      1771	80000b1c	00545fb3	srl	x31,x8,x5	  x8:0x80009fc4  x5:0x00000001 x31=0x40004fe2
       17735000	      1772	80000b20	00000013	addi	x0,x0,0	  x0:0x00000000
       17745000	      1773	80000b24	402f8cb3	sub	x25,x31,x2	 x31:0x40004fe2  x2:0x42d4d000 x25=0xfd2b7fe2
       17755000	      1774	80000b28	017f7663	bgeu	x30,x23,80000b34	 x30:0x7ffff20d x23:0xfffffde4
       17765000	      1775	80000b2c	00908fb3	add	x31,x1,x9	  x1:0x800009b8  x9:0x80000988 x31=0x00001340
       17775000	      1776	80000b30	010f2393	slti	x7,x30,16	 x30:0x7ffff20d  x7=0x00000000
       17785000	      1777	80000b34	bb146193	ori	x3,x8,-1103	  x8:0x80009fc4  x3=0xfffffff5
       17795000	      1778	80000b38	0067dc33	srl	x24,x15,x6	 x15:0xfffffc00  x6:0x00000001 x24=0x7ffffe00
       17805000	      1779	80000b3c	01ec9713	slli	x14,x25,0x1e	 x25:0xfd2b7fe2 x14=0x80000000
       17815000	      1780	80000b40	011b38b3	sltu	x17,x22,x17	 x22:0x80000e7b x17:0x16648000 x17=0x00000000
       17825000	      1781	80000b44	3a1c4a93	xori	x21,x24,929	 x24:0x7ffffe00 x21=0x7ffffda1
       17835000	      1782	80000b48	002ad733	srl	x14,x21,x2	 x21:0x7ffffda1  x2:0x42d4d000 x14=0x7ffffda1
       17845000	      1783	80000b4c	01a304b3	add	x9,x6,x26	  x6:0x00000001 x26:0x800004e8  x9=0x800004e9
       17855000	      1784	80000b50	01aa26b3	slt	x13,x20,x26	 x20:0x00000800 x26:0x800004e8 x13=0x00000000
       17865000	      1785	80000b54	05ad5463	bge	x26,x26,80000b9c	 x26:0x800004e8 x26:0x800004e8
       17875000	      1786	00000000	00000013	addi	x0,x0,0	  x0:0x00000000
       17885000	      1787	80000b98	00000013	addi	x0,x0,0	  x0:0x00000000
       17895000	      1788	80000b9c	d9b83693	sltiu	x13,x16,-613	 x16:0x00000000 x13=0x00000001
       17905000	      1789	80000ba0	00e153b3	srl	x7,x2,x14	  x2:0x42d4d000 x14:0x7ffffda1  x7=0x216a6800
       17915000	      1790	80000ba4	7683a493	slti	x9,x7,1896	  x7:0x216a6800  x9=0x00000000
       17925000	      1791	80000ba8	0003df93	srli	x31,x7,0x0	  x7:0x216a6800 x31=0x216a6800
       17935000	      1792	80000bac	007e9133	sll	x2,x29,x7	 x29:0x00000000  x7:0x216a6800  x2=0x00000000
       17945000	      1793	80000bb0	405cd893	srai	x17,x25,0x5	 x25:0xfd2b7fe2 x17=0xffe95bff
       17955000	      1794	80000bb4	018a1a63	bne	x20,x24,80000bc8	 x20:0x00000800 x24:0x7ffffe00
       17965000	      1795	00000000	00000013	addi	x0,x0,0	  x0:0x00000000
       17975000	      1796	80000bc4	00000013	addi	x0,x0,0	  x0:0x00000000
       17985000	      1797	80000bc8	05dc6663	bltu	x24,x29,80000c14	 x24:0x7ffffe00 x29:0x00000000
       17995000	      1798	80000bcc	05729463	bne	x5,x23,80000c14	  x5:0x00000001 x23:0xfffffde4
       18005000	      1799	00000000	00000013	addi	x0,x0,0	  x0:0x00000000
       18015000	      1800	80000c10	00000013	addi	x0,x0,0	  x0:0x00000000
       18025000	      1801	80000c14	064b5063	bge	x22,x4,80000c74	 x22:0x80000e7b  x4:0x80000958
       18035000	      1802	00000000	00000013	addi	x0,x0,0	  x0:0x00000000
       18045000	      1803	80000c70	00000013	addi	x0,x0,0	  x0:0x00000000
       18055000	      1804	80000c74	017e7ab3	and	x21,x28,x23	 x28:0x80009f84 x23:0xfffffde4 x21=0x80009d84
       18065000	      1805	80000c78	01fd1493	slli	x9,x26,0x1f	 x26:0x800004e8  x9=0x00000000
       18075000	      1806	80000c7c	013cdb93	srli	x23,x25,0x13	 x25:0xfd2b7fe2 x23=0x00001fa5
       18085000	      1807	80000c80	41bfd9b3	sra	x19,x31,x27	 x31:0x216a6800 x27:0x8800093c x19=0x00000002
       18095000	      1808	80000c84	8748c893	xori	x17,x17,-1932	 x17:0xffe95bff x17=0x0016a38b
       18105000	      1809	80000c88	0232da63	bge	x5,x3,80000cbc	  x5:0x00000001  x3:0xfffffff5
       18115000	      1810	00000000	00000013	addi	x0,x0,0	  x0:0x00000000
       18125000	      1811	80000cb8	00000013	addi	x0,x0,0	  x0:0x00000000
       18135000	      1812	80000cbc	b5950493	addi	x9,x10,-1191	 x10:0x76d16000  x9=0x76d15b59
       18145000	      1813	80000cc0	012cd213	srli	x4,x25,0x12	 x25:0xfd2b7fe2  x4=0x00003f4a
       18155000	      1814	80000cc4	40ee03b3	sub	x7,x28,x14	 x28:0x80009f84 x14:0x7ffffda1  x7=0x0000a1e3
       18165000	      1815	80000cc8	55625b37	lui	x22,0x55625	 x22=0x55625000
       18175000	      1816	80000ccc	1adbfa13	andi	x20,x23,429	 x23:0x00001fa5 x20=0x000001a5
       18185000	      1817	80000cd0	00e15693	srli	x13,x2,0xe	  x2:0x00000000 x13=0x00000000
       18195000	      1818	80000cd4	41258db3	sub	x27,x11,x18	 x11:0x80000628 x18:0x800007ac x27=0xfffffe7c
       18205000	      1819	80000cd8	0163f733	and	x14,x7,x22	  x7:0x0000a1e3 x22:0x55625000 x14=0x00000000
       18215000	      1820	80000cdc	00d5e5b3	or	x11,x11,x13	 x11:0x80000628 x13:0x00000000 x11=0x80000628
       18225000	      1821	80000ce0	9d276f93	ori	x31,x14,-1582	 x14:0x00000000 x31=0xfffff9d2
       18235000	      1822	80000ce4	01c39e63	bne	x7,x28,80000d00	  x7:0x0000a1e3 x28:0x80009f84
       18245000	      1823	00000000	00000013	addi	x0,x0,0	  x0:0x00000000
       18255000	      1824	80000cfc	00000013	addi	x0,x0,0	  x0:0x00000000
       18265000	      1825	80000d00	0038dab3	srl	x21,x17,x3	 x17:0x0016a38b  x3:0xfffffff5 x21=0x00000000
       18275000	      1826	80000d04	01cbec33	or	x24,x23,x28	 x23:0x00001fa5 x28:0x80009f84 x24=0x80009fa5
       18285000	      1827	80000d08	400fd393	srai	x7,x31,0x0	 x31:0xfffff9d2  x7=0xfffff9d2
       18295000	      1828	80000d0c	8b8fef93	ori	x31,x31,-1864	 x31:0xfffff9d2 x31=0xfffff9fa
       18305000	      1829	80000d10	01f71c93	slli	x25,x14,0x1f	 x14:0x00000000 x25=0x00000000
       18315000	      1830	80000d14	1811c493	xori	x9,x3,385	  x3:0xfffffff5  x9=0xfffffe74
       18325000	      1831	80000d18	41bf85b3	sub	x11,x31,x27	 x31:0xfffff9fa x27:0xfffffe7c x11=0xfffffb7e
       18335000	      1832	80000d1c	aa31d017	auipc	x0,0xaa31d	
       18345000	      1833	80000d20	007a9793	slli	x15,x21,0x7	 x21:0x00000000 x15=0x00000000
       18355000	      1834	80000d24	00e1b533	sltu	x10,x3,x14	  x3:0xfffffff5 x14:0x00000000 x10=0x00000000
       18365000	      1835	80000d28	412058b3	sra	x17,x0,x18	  x0:0x00000000 x18:0x800007ac x17=0x00000000
       18375000	      1836	80000d2c	015c36b3	sltu	x13,x24,x21	 x24:0x80009fa5 x21:0x00000000 x13=0x00000000
       18385000	      1837	80000d30	01952333	slt	x6,x10,x25	 x10:0x00000000 x25:0x00000000  x6=0x00000000
       18395000	      1838	80000d34	03a01063	bne	x0,x26,80000d54	  x0:0x00000000 x26:0x800004e8
       18405000	      1839	00000000	00000013	addi	x0,x0,0	  x0:0x00000000
       18415000	      1840	80000d50	00000013	addi	x0,x0,0	  x0:0x00000000
       18425000	      1841	80000d54	003507b3	add	x15,x10,x3	 x10:0x00000000  x3:0xfffffff5 x15=0xfffffff5
       18435000	      1842	80000d58	00d30733	add	x14,x6,x13	  x6:0x00000000 x13:0x00000000 x14=0x00000000
       18445000	      1843	80000d5c	01dc6fb3	or	x31,x24,x29	 x24:0x80009fa5 x29:0x00000000 x31=0x80009fa5
       18455000	      1844	80000d60	05c17663	bgeu	x2,x28,80000dac	  x2:0x00000000 x28:0x80009f84
       18465000	      1845	80000d64	036f9a63	bne	x31,x22,80000d98	 x31:0x80009fa5 x22:0x55625000
       18475000	      1846	00000000	00000013	addi	x0,x0,0	  x0:0x00000000
       18485000	      1847	80000d94	00000013	addi	x0,x0,0	  x0:0x00000000
       18495000	      1848	80000d98	dc3b1697	auipc	x13,0xdc3b1	 x13=0x5c3b1d94
       18505000	      1849	80000d9c	00000013	addi	x0,x0,0	  x0:0x00000000
       18515000	      1850	80000da0	00000013	addi	x0,x0,0	  x0:0x00000000
       18525000	      1851	80000da4	b8e72913	slti	x18,x14,-1138	 x14:0x00000000 x18=0x00000000
       18535000	      1852	80000da8	01402eb3	slt	x29,x0,x20	  x0:0x00000000 x20:0x000001a5 x29=0x00000001
       18545000	      1853	80000dac	8cf5a697	auipc	x13,0x8cf5a	 x13=0x0cf5ada8
       18555000	      1854	80000db0	b3663597	auipc	x11,0xb3663	 x11=0x33663dac
       18565000	      1855	80000db4	00d16c33	or	x24,x2,x13	  x2:0x00000000 x13:0x0cf5ada8 x24=0x0cf5ada8
       18575000	      1856	80000db8	41828ab3	sub	x21,x5,x24	  x5:0x00000001 x24:0x0cf5ada8 x21=0xf30a5259
       18585000	      1857	80000dbc	c5356293	ori	x5,x10,-941	 x10:0x00000000  x5=0xfffffc53
       18595000	      1858	80000dc0	018b4a63	blt	x22,x24,80000dd4	 x22:0x55625000 x24:0x0cf5ada8
       18605000	      1859	80000dc4	69d18d93	addi	x27,x3,1693	  x3:0xfffffff5 x27=0x00000692
       18615000	      1860	80000dc8	01851eb3	sll	x29,x10,x24	 x10:0x00000000 x24:0x0cf5ada8 x29=0x00000000
       18625000	      1861	80000dcc	016bceb3	xor	x29,x23,x22	 x23:0x00001fa5 x22:0x55625000 x29=0x55624fa5
       18635000	      1862	80000dd0	158d8e97	auipc	x29,0x158d8	 x29=0x958d8dcc
       18645000	      1863	80000dd4	006faf33	slt	x30,x31,x6	 x31:0x80009fa5  x6:0x00000000 x30=0x00000001
       18655000	      1864	80000dd8	95ee0e93	addi	x29,x28,-1698	 x28:0x80009f84 x29=0x800098e2
       18665000	      1865	80000ddc	0e21ea17	auipc	x20,0xe21e	 x20=0x8e21edd8
       18675000	      1866	80000de0	01e64a33	xor	x20,x12,x30	 x12:0x800008d0 x30:0x00000001 x20=0x800008d1
       18685000	      1867	80000de4	029bf863	bgeu	x23,x9,80000e14	 x23:0x00001fa5  x9:0xfffffe74
       18695000	      1868	80000de8	012b6ab3	or	x21,x22,x18	 x22:0x55625000 x18:0x00000000 x21=0x55625000
       18705000	      1869	80000dec	003fca63	blt	x31,x3,80000e00	 x31:0x80009fa5  x3:0xfffffff5
       18715000	      1870	00000000	00000013	addi	x0,x0,0	  x0:0x00000000
       18725000	      1871	80000dfc	00000013	addi	x0,x0,0	  x0:0x00000000
       18735000	      1872	80000e00	009e4933	xor	x18,x28,x9	 x28:0x80009f84  x9:0xfffffe74 x18=0x7fff61f0
       18745000	      1873	80000e04	02a2d663	bge	x5,x10,80000e30	  x5:0xfffffc53 x10:0x00000000
       18755000	      1874	80000e08	04b30663	beq	x6,x11,80000e54	  x6:0x00000000 x11:0x33663dac
       18765000	      1875	80000e0c	0510e863	bltu	x1,x17,80000e5c	  x1:0x800009b8 x17:0x00000000
       18775000	      1876	80000e10	00dd9663	bne	x27,x13,80000e1c	 x27:0x00000692 x13:0x0cf5ada8
       18785000	      1877	00000000	00000013	addi	x0,x0,0	  x0:0x00000000
       18795000	      1878	80000e18	00000013	addi	x0,x0,0	  x0:0x00000000
       18805000	      1879	80000e1c	5289b9b7	lui	x19,0x5289b	 x19=0x5289b000
       18815000	      1880	80000e20	2fb6b613	sltiu	x12,x13,763	 x13:0x0cf5ada8 x12=0x00000000
       18825000	      1881	80000e24	05398463	beq	x19,x19,80000e6c	 x19:0x5289b000 x19:0x5289b000
       18835000	      1882	00000000	00000013	addi	x0,x0,0	  x0:0x00000000
       18845000	      1883	80000e68	00000013	addi	x0,x0,0	  x0:0x00000000
       18855000	      1884	80000e6c	414ad2b3	sra	x5,x21,x20	 x21:0x55625000 x20:0x800008d1  x5=0x00002ab1
       18865000	      1885	80000e70	85e268b7	lui	x17,0x85e26	 x17=0x85e26000
       18875000	      1886	80000e74	00000013	addi	x0,x0,0	  x0:0x00000000
       18885000	      1887	80000e78	40428533	sub	x10,x5,x4	  x5:0x00002ab1  x4:0x00003f4a x10=0xffffeb67
       18895000	      1888	80000e7c	00e49513	slli	x10,x9,0xe	  x9:0xfffffe74 x10=0xff9d0000
       18905000	      1889	80000e80	a0cabe93	sltiu	x29,x21,-1524	 x21:0x55625000 x29=0x00000001
       18915000	      1890	80000e84	005ac8b3	xor	x17,x21,x5	 x21:0x55625000  x5:0x00002ab1 x17=0x55627ab1
       18925000	      1891	80000e88	00ad38b3	sltu	x17,x26,x10	 x26:0x800004e8 x10:0xff9d0000 x17=0x00000001
       18935000	      1892	80000e8c	f8fd3ab7	lui	x21,0xf8fd3	 x21=0xf8fd3000
       18945000	      1893	80000e90	00ff1c13	slli	x24,x30,0xf	 x30:0x00000001 x24=0x00008000
       18955000	      1894	80000e94	41cf5933	sra	x18,x30,x28	 x30:0x00000001 x28:0x80009f84 x18=0x00000000
       18965000	      1895	80000e98	40ae00b3	sub	x1,x28,x10	 x28:0x80009f84 x10:0xff9d0000  x1=0x80639f84
       18975000	      1896	80000e9c	03800c6f	jal	x24,80000e9c	 x24=0x80000e9c
       18985000	      1897	00000000	00000013	addi	x0,x0,0	  x0:0x00000000
       18995000	      1898	80000ed0	00000013	addi	x0,x0,0	  x0:0x00000000
       19005000	      1899	80000ed4	ffdffbef	jal	x23,80000ed4	 x23=0x80000ed4
       19015000	      1900	00000000	00000013	addi	x0,x0,0	  x0:0x00000000
       19025000	      1901	80000ecc	00000013	addi	x0,x0,0	  x0:0x00000000
       19035000	      1902	80000ed0	fd5ff0ef	jal	x1,80000ed0	  x1=0x80000ed0
       19045000	      1903	00000000	00000013	addi	x0,x0,0	  x0:0x00000000
       19055000	      1904	80000ea0	00000013	addi	x0,x0,0	  x0:0x00000000
       19065000	      1905	80000ea4	0040036f	jal	x6,80000ea4	  x6=0x80000ea4
       19075000	      1906	00000000	00000013	addi	x0,x0,0	  x0:0x00000000
       19085000	      1907	80000ea4	00000013	addi	x0,x0,0	  x0:0x00000000
       19095000	      1908	80000ea8	00c0036f	jal	x6,80000ea8	  x6=0x80000ea8
       19105000	      1909	00000000	00000013	addi	x0,x0,0	  x0:0x00000000
       19115000	      1910	80000eb0	00000013	addi	x0,x0,0	  x0:0x00000000
       19125000	      1911	80000eb4	0340016f	jal	x2,80000eb4	  x2=0x80000eb4
       19135000	      1912	00000000	00000013	addi	x0,x0,0	  x0:0x00000000
       19145000	      1913	80000ee4	00000013	addi	x0,x0,0	  x0:0x00000000
       19155000	      1914	80000ee8	ff5ff0ef	jal	x1,80000ee8	  x1=0x80000ee8
       19165000	      1915	00000000	00000013	addi	x0,x0,0	  x0:0x00000000
       19175000	      1916	80000ed8	00000013	addi	x0,x0,0	  x0:0x00000000
       19185000	      1917	80000edc	fd5ff0ef	jal	x1,80000edc	  x1=0x80000edc
       19195000	      1918	00000000	00000013	addi	x0,x0,0	  x0:0x00000000
       19205000	      1919	80000eac	00000013	addi	x0,x0,0	  x0:0x00000000
       19215000	      1920	80000eb0	ffdff0ef	jal	x1,80000eb0	  x1=0x80000eb0
       19225000	      1921	00000000	00000013	addi	x0,x0,0	  x0:0x00000000
       19235000	      1922	80000ea8	00000013	addi	x0,x0,0	  x0:0x00000000
       19245000	      1923	80000eac	0340036f	jal	x6,80000eac	  x6=0x80000eac
       19255000	      1924	00000000	00000013	addi	x0,x0,0	  x0:0x00000000
       19265000	      1925	80000edc	00000013	addi	x0,x0,0	  x0:0x00000000
       19275000	      1926	80000ee0	fd9ff0ef	jal	x1,80000ee0	  x1=0x80000ee0
       19285000	      1927	00000000	00000013	addi	x0,x0,0	  x0:0x00000000
       19295000	      1928	80000eb4	00000013	addi	x0,x0,0	  x0:0x00000000
       19305000	      1929	80000eb8	00c0036f	jal	x6,80000eb8	  x6=0x80000eb8
       19315000	      1930	00000000	00000013	addi	x0,x0,0	  x0:0x00000000
       19325000	      1931	80000ec0	00000013	addi	x0,x0,0	  x0:0x00000000
       19335000	      1932	80000ec4	ffdfff6f	jal	x30,80000ec4	 x30=0x80000ec4
       19345000	      1933	00000000	00000013	addi	x0,x0,0	  x0:0x00000000
       19355000	      1934	80000ebc	00000013	addi	x0,x0,0	  x0:0x00000000
       19365000	      1935	80000ec0	fe1ff0ef	jal	x1,80000ec0	  x1=0x80000ec0
       19375000	      1936	00000000	00000013	addi	x0,x0,0	  x0:0x00000000
       19385000	      1937	80000e9c	00000013	addi	x0,x0,0	  x0:0x00000000
       19395000	      1938	80000ea0	01c009ef	jal	x19,80000ea0	 x19=0x80000ea0
       19405000	      1939	00000000	00000013	addi	x0,x0,0	  x0:0x00000000
       19415000	      1940	80000eb8	00000013	addi	x0,x0,0	  x0:0x00000000
       19425000	      1941	80000ebc	010000ef	jal	x1,80000ebc	  x1=0x80000ebc
       19435000	      1942	00000000	00000013	addi	x0,x0,0	  x0:0x00000000
       19445000	      1943	80000ec8	00000013	addi	x0,x0,0	  x0:0x00000000
       19455000	      1944	80000ecc	ffdff3ef	jal	x7,80000ecc	  x7=0x80000ecc
       19465000	      1945	00000000	00000013	addi	x0,x0,0	  x0:0x00000000
       19475000	      1946	80000ec4	00000013	addi	x0,x0,0	  x0:0x00000000
       19485000	      1947	80000ec8	0100036f	jal	x6,80000ec8	  x6=0x80000ec8
       19495000	      1948	00000000	00000013	addi	x0,x0,0	  x0:0x00000000
       19505000	      1949	80000ed4	00000013	addi	x0,x0,0	  x0:0x00000000
       19515000	      1950	80000ed8	00c0036f	jal	x6,80000ed8	  x6=0x80000ed8
       19525000	      1951	00000000	00000013	addi	x0,x0,0	  x0:0x00000000
       19535000	      1952	80000ee0	00000013	addi	x0,x0,0	  x0:0x00000000
       19545000	      1953	80000ee4	0080036f	jal	x6,80000ee4	  x6=0x80000ee4
       19555000	      1954	00000000	00000013	addi	x0,x0,0	  x0:0x00000000
       19565000	      1955	80000ee8	00000013	addi	x0,x0,0	  x0:0x00000000
       19575000	      1956	80000eec	00400f6f	jal	x30,80000eec	 x30=0x80000eec
       19585000	      1957	00000000	00000013	addi	x0,x0,0	  x0:0x00000000
       19595000	      1958	80000eec	00000013	addi	x0,x0,0	  x0:0x00000000
       19605000	      1959	80000ef0	01987eb3	and	x29,x16,x25	 x16:0x00000000 x25:0x00000000 x29=0x00000000
       19615000	      1960	80000ef4	004b6e63	bltu	x22,x4,80000f10	 x22:0x55625000  x4:0x00003f4a
       19625000	      1961	80000ef8	002a1593	slli	x11,x20,0x2	 x20:0x800008d1 x11=0x00002344
       19635000	      1962	80000efc	002af863	bgeu	x21,x2,80000f0c	 x21:0xf8fd3000  x2:0x80000eb4
       19645000	      1963	00000000	00000013	addi	x0,x0,0	  x0:0x00000000
       19655000	      1964	80000f08	00000013	addi	x0,x0,0	  x0:0x00000000
       19665000	      1965	80000f0c	0011f133	and	x2,x3,x1	  x3:0xfffffff5  x1:0x80000ebc  x2=0x80000eb4
       19675000	      1966	80000f10	010369b3	or	x19,x6,x16	  x6:0x80000ee4 x16:0x00000000 x19=0x80000ee4
       19685000	      1967	80000f14	009214b3	sll	x9,x4,x9	  x4:0x00003f4a  x9:0xfffffe74  x9=0xf4a00000
       19695000	      1968	80000f18	03884663	blt	x16,x24,80000f44	 x16:0x00000000 x24:0x80000e9c
       19705000	      1969	80000f1c	c3ca8313	addi	x6,x21,-964	 x21:0xf8fd3000  x6=0xf8fd2c3c
       19715000	      1970	80000f20	0dfc4513	xori	x10,x24,223	 x24:0x80000e9c x10=0x80000e43
       19725000	      1971	80000f24	406cd933	sra	x18,x25,x6	 x25:0x00000000  x6:0xf8fd2c3c x18=0x00000000
       19735000	      1972	80000f28	01416cb3	or	x25,x2,x20	  x2:0x80000eb4 x20:0x800008d1 x25=0x80000ef5
       19745000	      1973	80000f2c	0056f9b3	and	x19,x13,x5	 x13:0x0cf5ada8  x5:0x00002ab1 x19=0x000028a0
       19755000	      1974	80000f30	5616e993	ori	x19,x13,1377	 x13:0x0cf5ada8 x19=0x0cf5ade9
       19765000	      1975	80000f34	bbecc513	xori	x10,x25,-1090	 x25:0x80000ef5 x10=0x7ffff54b
       19775000	      1976	80000f38	02b39663	bne	x7,x11,80000f64	  x7:0x80000ecc x11:0x00002344
       19785000	      1977	00000000	00000013	addi	x0,x0,0	  x0:0x00000000
       19795000	      1978	80000f60	00000013	addi	x0,x0,0	  x0:0x00000000
       19805000	      1979	80000f64	6ad25b17	auipc	x22,0x6ad25	 x22=0xead25f60
       19815000	      1980	80000f68	01d8c733	xor	x14,x17,x29	 x17:0x00000001 x29:0x00000000 x14=0x00000001
       19825000	      1981	80000f6c	01465e63	bge	x12,x20,80000f88	 x12:0x00000000 x20:0x800008d1
       19835000	      1982	00000000	00000013	addi	x0,x0,0	  x0:0x00000000
       19845000	      1983	80000f84	00000013	addi	x0,x0,0	  x0:0x00000000
       19855000	      1984	80000f88	40285c33	sra	x24,x16,x2	 x16:0x00000000  x2:0x80000eb4 x24=0x00000000
       19865000	      1985	80000f8c	03b59a63	bne	x11,x27,80000fc0	 x11:0x00002344 x27:0x00000692
       19875000	      1986	00000000	00000013	addi	x0,x0,0	  x0:0x00000000
       19885000	      1987	80000fbc	00000013	addi	x0,x0,0	  x0:0x00000000
       19895000	      1988	80000fc0	0132b5b3	sltu	x11,x5,x19	  x5:0x00002ab1 x19:0x0cf5ade9 x11=0x00000001
       19905000	      1989	80000fc4	012b1eb3	sll	x29,x22,x18	 x22:0xead25f60 x18:0x00000000 x29=0xead25f60
       19915000	      1990	80000fc8	7866b993	sltiu	x19,x13,1926	 x13:0x0cf5ada8 x19=0x00000000
       19925000	      1991	80000fcc	025a2937	lui	x18,0x25a2	 x18=0x025a2000
       19935000	      1992	80000fd0	b5ebb593	sltiu	x11,x23,-1186	 x23:0x80000ed4 x11=0x00000001
       19945000	      1993	80000fd4	e4963093	sltiu	x1,x12,-439	 x12:0x00000000  x1=0x00000001
       19955000	      1994	80000fd8	daa58337	lui	x6,0xdaa58	  x6=0xdaa58000
       19965000	      1995	80000fdc	02928e63	beq	x5,x9,80001018	  x5:0x00002ab1  x9:0xf4a00000
       19975000	      1996	80000fe0	ba910993	addi	x19,x2,-1111	  x2:0x80000eb4 x19=0x80000a5d
       19985000	      1997	80000fe4	015dc033	xor	x0,x27,x21	 x27:0x00000692 x21:0xf8fd3000
       19995000	      1998	80000fe8	015a08b3	add	x17,x20,x21	 x20:0x800008d1 x21:0xf8fd3000 x17=0x78fd38d1
       20005000	      1999	80000fec	c8f84f13	xori	x30,x16,-881	 x16:0x00000000 x30=0xfffffc8f
       20015000	      2000	80000ff0	00bb0033	add	x0,x22,x11	 x22:0xead25f60 x11:0x00000001
       20025000	      2001	80000ff4	16233193	sltiu	x3,x6,354	  x6:0xdaa58000  x3=0x00000000
       20035000	      2002	80000ff8	91f78a93	addi	x21,x15,-1761	 x15:0xfffffff5 x21=0xfffff914
       20045000	      2003	80000ffc	00aea333	slt	x6,x29,x10	 x29:0xead25f60 x10:0x7ffff54b  x6=0x00000001
       20055000	      2004	80001000	02b55063	bge	x10,x11,80001020	 x10:0x7ffff54b x11:0x00000001
       20065000	      2005	00000000	00000013	addi	x0,x0,0	  x0:0x00000000
       20075000	      2006	8000101c	00000013	addi	x0,x0,0	  x0:0x00000000
       20085000	      2007	80001020	01db0d33	add	x26,x22,x29	 x22:0xead25f60 x29:0xead25f60 x26=0xd5a4bec0
       20095000	      2008	80001024	6210fd13	andi	x26,x1,1569	  x1:0x00000001 x26=0x00000001
       20105000	      2009	80001028	00ea9fb3	sll	x31,x21,x14	 x21:0xfffff914 x14:0x00000001 x31=0xfffff228
       20115000	      2010	8000102c	4c028a93	addi	x21,x5,1216	  x5:0x00002ab1 x21=0x00002f71
       20125000	      2011	80001030	010046b3	xor	x13,x0,x16	  x0:0x00000000 x16:0x00000000 x13=0x00000000
       20135000	      2012	80001034	7404f213	andi	x4,x9,1856	  x9:0xf4a00000  x4=0x00000000
       20145000	      2013	80001038	40df57b3	sra	x15,x30,x13	 x30:0xfffffc8f x13:0x00000000 x15=0xfffffc8f
       20155000	      2014	8000103c	000d0cb3	add	x25,x26,x0	 x26:0x00000001  x0:0x00000000 x25=0x00000001
       20165000	      2015	80001040	02ce8063	beq	x29,x12,80001060	 x29:0xead25f60 x12:0x00000000
       20175000	      2016	80001044	6efac193	xori	x3,x21,1775	 x21:0x00002f71  x3=0x0000299e
       20185000	      2017	80001048	0023aab3	slt	x21,x7,x2	  x7:0x80000ecc  x2:0x80000eb4 x21=0x00000000
       20195000	      2018	8000104c	016911b3	sll	x3,x18,x22	 x18:0x025a2000 x22:0xead25f60  x3=0x025a2000
       20205000	      2019	80001050	000835b3	sltu	x11,x16,x0	 x16:0x00000000  x0:0x00000000 x11=0x00000000
       20215000	      2020	80001054	03dd4663	blt	x26,x29,80001080	 x26:0x00000001 x29:0xead25f60
       20225000	      2021	80001058	015bfe63	bgeu	x23,x21,80001074	 x23:0x80000ed4 x21:0x00000000
       20235000	      2022	00000000	00000013	addi	x0,x0,0	  x0:0x00000000
       20245000	      2023	80001070	00000013	addi	x0,x0,0	  x0:0x00000000
       20255000	      2024	80001074	404305b3	sub	x11,x6,x4	  x6:0x00000001  x4:0x00000000 x11=0x00000001
       20265000	      2025	80001078	e93b2393	slti	x7,x22,-365	 x22:0xead25f60  x7=0x00000001
       20275000	      2026	8000107c	00000013	addi	x0,x0,0	  x0:0x00000000
       20285000	      2027	80001080	01ce9133	sll	x2,x29,x28	 x29:0xead25f60 x28:0x80009f84  x2=0xad25f600
       20295000	      2028	80001084	0e3b1eb7	lui	x29,0xe3b1	 x29=0x0e3b1000
       20305000	      2029	80001088	5c3fd897	auipc	x17,0x5c3fd	 x17=0xdc3fe084
       20315000	      2030	8000108c	01ea1fb3	sll	x31,x20,x30	 x20:0x800008d1 x30:0xfffffc8f x31=0x04688000
       20325000	      2031	80001090	414c58b3	sra	x17,x24,x20	 x24:0x00000000 x20:0x800008d1 x17=0x00000000
       20335000	      2032	80001094	57e549b7	lui	x19,0x57e54	 x19=0x57e54000
       20345000	      2033	80001098	4508cb13	xori	x22,x17,1104	 x17:0x00000000 x22=0x00000450
       20355000	      2034	8000109c	0115eab3	or	x21,x11,x17	 x11:0x00000001 x17:0x00000000 x21=0x00000001
       20365000	      2035	800010a0	00997f33	and	x30,x18,x9	 x18:0x025a2000  x9:0xf4a00000 x30=0x00000000
       20375000	      2036	800010a4	01123f33	sltu	x30,x4,x17	  x4:0x00000000 x17:0x00000000 x30=0x00000000
       20385000	      2037	800010a8	06db2a93	slti	x21,x22,109	 x22:0x00000450 x21=0x00000000
       20395000	      2038	800010ac	02210a63	beq	x2,x2,800010e0	  x2:0xad25f600  x2:0xad25f600
       20405000	      2039	00000000	00000013	addi	x0,x0,0	  x0:0x00000000
       20415000	      2040	800010dc	00000013	addi	x0,x0,0	  x0:0x00000000
       20425000	      2041	800010e0	05401863	bne	x0,x20,80001130	  x0:0x00000000 x20:0x800008d1
       20435000	      2042	00000000	00000013	addi	x0,x0,0	  x0:0x00000000
       20445000	      2043	8000112c	00000013	addi	x0,x0,0	  x0:0x00000000
       20455000	      2044	80001130	026bf863	bgeu	x23,x6,80001160	 x23:0x80000ed4  x6:0x00000001
       20465000	      2045	00000000	00000013	addi	x0,x0,0	  x0:0x00000000
       20475000	      2046	8000115c	00000013	addi	x0,x0,0	  x0:0x00000000
       20485000	      2047	80001160	5458fb13	andi	x22,x17,1349	 x17:0x00000000 x22=0x00000000
       20495000	      2048	80001164	19352993	slti	x19,x10,403	 x10:0x7ffff54b x19=0x00000000
       20505000	      2049	80001168	1ffacd13	xori	x26,x21,511	 x21:0x00000000 x26=0x000001ff
       20515000	      2050	8000116c	26e48e93	addi	x29,x9,622	  x9:0xf4a00000 x29=0xf4a0026e
       20525000	      2051	80001170	01e8d093	srli	x1,x17,0x1e	 x17:0x00000000  x1=0x00000000
       20535000	      2052	80001174	051d7463	bgeu	x26,x17,800011bc	 x26:0x000001ff x17:0x00000000
       20545000	      2053	00000000	00000013	addi	x0,x0,0	  x0:0x00000000
       20555000	      2054	800011b8	00000013	addi	x0,x0,0	  x0:0x00000000
       20565000	      2055	800011bc	40710033	sub	x0,x2,x7	  x2:0xad25f600  x7:0x00000001
       20575000	      2056	800011c0	01c45d93	srli	x27,x8,0x1c	  x8:0x80009fc4 x27=0x00000008
       20585000	      2057	800011c4	011c25b3	slt	x11,x24,x17	 x24:0x00000000 x17:0x00000000 x11=0x00000000
       20595000	      2058	800011c8	088bce93	xori	x29,x23,136	 x23:0x80000ed4 x29=0x80000e5c
       20605000	      2059	800011cc	00fa1593	slli	x11,x20,0xf	 x20:0x800008d1 x11=0x04688000
       20615000	      2060	800011d0	81f8e697	auipc	x13,0x81f8e	 x13=0x01f8f1cc
       20625000	      2061	800011d4	41325513	srai	x10,x4,0x13	  x4:0x00000000 x10=0x00000000
       20635000	      2062	800011d8	0170c9b3	xor	x19,x1,x23	  x1:0x00000000 x23:0x80000ed4 x19=0x80000ed4
       20645000	      2063	800011dc	01541a63	bne	x8,x21,800011f0	  x8:0x80009fc4 x21:0x00000000
       20655000	      2064	00000000	00000013	addi	x0,x0,0	  x0:0x00000000
       20665000	      2065	800011ec	00000013	addi	x0,x0,0	  x0:0x00000000
       20675000	      2066	800011f0	00af8663	beq	x31,x10,800011fc	 x31:0x04688000 x10:0x00000000
       20685000	      2067	800011f4	41d05493	srai	x9,x0,0x1d	  x0:0x00000000  x9=0x00000000
       20695000	      2068	800011f8	e4ae6893	ori	x17,x28,-438	 x28:0x80009f84 x17=0xffffffce
       20705000	      2069	800011fc	41e55d33	sra	x26,x10,x30	 x10:0x00000000 x30:0x00000000 x26=0x00000000
       20715000	      2070	80001200	00e49533	sll	x10,x9,x14	  x9:0x00000000 x14:0x00000001 x10=0x00000000
       20725000	      2071	80001204	00000013	addi	x0,x0,0	  x0:0x00000000
       20735000	      2072	80001208	413c8333	sub	x6,x25,x19	 x25:0x00000001 x19:0x80000ed4  x6=0x7ffff12d
       20745000	      2073	8000120c	0189c333	xor	x6,x19,x24	 x19:0x80000ed4 x24:0x00000000  x6=0x80000ed4
       20755000	      2074	80001210	41cebc13	sltiu	x24,x29,1052	 x29:0x80000e5c x24=0x00000000
       20765000	      2075	80001214	00175f93	srli	x31,x14,0x1	 x14:0x00000001 x31=0x00000000
       20775000	      2076	80001218	60408593	addi	x11,x1,1540	  x1:0x00000000 x11=0x00000604
       20785000	      2077	8000121c	5ef1b893	sltiu	x17,x3,1519	  x3:0x025a2000 x17=0x00000000
       20795000	      2078	80001220	75442b13	slti	x22,x8,1876	  x8:0x80009fc4 x22=0x00000001
       20805000	      2079	80001224	050e9663	bne	x29,x16,80001270	 x29:0x80000e5c x16:0x00000000
       20815000	      2080	00000000	00000013	addi	x0,x0,0	  x0:0x00000000
       20825000	      2081	8000126c	00000013	addi	x0,x0,0	  x0:0x00000000
       20835000	      2082	80001270	002253b3	srl	x7,x4,x2	  x4:0x00000000  x2:0xad25f600  x7=0x00000000
       20845000	      2083	80001274	00581db3	sll	x27,x16,x5	 x16:0x00000000  x5:0x00002ab1 x27=0x00000000
       20855000	      2084	80001278	ebfb4313	xori	x6,x22,-321	 x22:0x00000001  x6=0xfffffebe
       20865000	      2085	8000127c	00f357b3	srl	x15,x6,x15	  x6:0xfffffebe x15:0xfffffc8f x15=0x0001ffff
       20875000	      2086	80001280	339ebb13	sltiu	x22,x29,825	 x29:0x80000e5c x22=0x00000000
       20885000	      2087	80001284	009797b3	sll	x15,x15,x9	 x15:0x0001ffff  x9:0x00000000 x15=0x0001ffff
       20895000	      2088	80001288	11e1b093	sltiu	x1,x3,286	  x3:0x025a2000  x1=0x00000000
       20905000	      2089	8000128c	41f85633	sra	x12,x16,x31	 x16:0x00000000 x31:0x00000000 x12=0x00000000
       20915000	      2090	80001290	00ef3233	sltu	x4,x30,x14	 x30:0x00000000 x14:0x00000001  x4=0x00000001
       20925000	      2091	80001294	400c5133	sra	x2,x24,x0	 x24:0x00000000  x0:0x00000000  x2=0x00000000
       20935000	      2092	80001298	06f80a63	beq	x16,x15,8000130c	 x16:0x00000000 x15:0x0001ffff
       20945000	      2093	8000129c	01cd7b33	and	x22,x26,x28	 x26:0x00000000 x28:0x80009f84 x22=0x00000000
       20955000	      2094	800012a0	01f8f1b3	and	x3,x17,x31	 x17:0x00000000 x31:0x00000000  x3=0x00000000
       20965000	      2095	800012a4	016fcd33	xor	x26,x31,x22	 x31:0x00000000 x22:0x00000000 x26=0x00000000
       20975000	      2096	800012a8	ce7ea113	slti	x2,x29,-793	 x29:0x80000e5c  x2=0x00000001
       20985000	      2097	800012ac	400a0033	sub	x0,x20,x0	 x20:0x800008d1  x0:0x00000000
       20995000	      2098	800012b0	01685133	srl	x2,x16,x22	 x16:0x00000000 x22:0x00000000  x2=0x00000000
       21005000	      2099	800012b4	07d81e63	bne	x16,x29,80001330	 x16:0x00000000 x29:0x80000e5c
       21015000	      2100	00000000	00000013	addi	x0,x0,0	  x0:0x00000000
       21025000	      2101	8000132c	00000013	addi	x0,x0,0	  x0:0x00000000
       21035000	      2102	80001330	01f0ea63	bltu	x1,x31,80001344	  x1:0x00000000 x31:0x00000000
       21045000	      2103	80001334	00000013	addi	x0,x0,0	  x0:0x00000000
       21055000	      2104	80001338	01a5db93	srli	x23,x11,0x1a	 x11:0x00000604 x23=0x00000000
       21065000	      2105	8000133c	54e41697	auipc	x13,0x54e41	 x13=0xd4e42338
       21075000	      2106	80001340	41e50a33	sub	x20,x10,x30	 x10:0x00000000 x30:0x00000000 x20=0x00000000
       21085000	      2107	80001344	013f6663	bltu	x30,x19,80001350	 x30:0x00000000 x19:0x80000ed4
       21095000	      2108	00000000	00000013	addi	x0,x0,0	  x0:0x00000000
       21105000	      2109	8000134c	00000013	addi	x0,x0,0	  x0:0x00000000
       21115000	      2110	80001350	008d1093	slli	x1,x26,0x8	 x26:0x00000000  x1=0x00000000
       21125000	      2111	80001354	040e1663	bne	x28,x0,800013a0	 x28:0x80009f84  x0:0x00000000
       21135000	      2112	00000000	00000013	addi	x0,x0,0	  x0:0x00000000
       21145000	      2113	8000139c	00000013	addi	x0,x0,0	  x0:0x00000000
       21155000	      2114	800013a0	41dd82b3	sub	x5,x27,x29	 x27:0x00000000 x29:0x80000e5c  x5=0x7ffff1a4
       21165000	      2115	800013a4	3b250b93	addi	x23,x10,946	 x10:0x00000000 x23=0x000003b2
       21175000	      2116	800013a8	0537d863	bge	x15,x19,800013f8	 x15:0x0001ffff x19:0x80000ed4
       21185000	      2117	00000000	00000013	addi	x0,x0,0	  x0:0x00000000
       21195000	      2118	800013f4	00000013	addi	x0,x0,0	  x0:0x00000000
       21205000	      2119	800013f8	19864117	auipc	x2,0x19864	  x2=0x998653f4
       21215000	      2120	800013fc	05ae9863	bne	x29,x26,8000144c	 x29:0x80000e5c x26:0x00000000
       21225000	      2121	00000000	00000013	addi	x0,x0,0	  x0:0x00000000
       21235000	      2122	80001448	00000013	addi	x0,x0,0	  x0:0x00000000
       21245000	      2123	8000144c	016fa8b3	slt	x17,x31,x22	 x31:0x00000000 x22:0x00000000 x17=0x00000000
       21255000	      2124	80001450	fc220f37	lui	x30,0xfc220	 x30=0xfc220000
       21265000	      2125	80001454	9b6b2697	auipc	x13,0x9b6b2	 x13=0x1b6b3450
       21275000	      2126	80001458	00547e63	bgeu	x8,x5,80001474	  x8:0x80009fc4  x5:0x7ffff1a4
       21285000	      2127	00000000	00000013	addi	x0,x0,0	  x0:0x00000000
       21295000	      2128	80001470	00000013	addi	x0,x0,0	  x0:0x00000000
       21305000	      2129	80001474	01075a13	srli	x20,x14,0x10	 x14:0x00000001 x20=0x00000000
       21315000	      2130	80001478	43734d93	xori	x27,x6,1079	  x6:0xfffffebe x27=0xfffffa89
       21325000	      2131	8000147c	02c35663	bge	x6,x12,800014a8	  x6:0xfffffebe x12:0x00000000
       21335000	      2132	80001480	00000013	addi	x0,x0,0	  x0:0x00000000
       21345000	      2133	80001484	41e45333	sra	x6,x8,x30	  x8:0x80009fc4 x30:0xfc220000  x6=0x80009fc4
       21355000	      2134	80001488	411654b3	sra	x9,x12,x17	 x12:0x00000000 x17:0x00000000  x9=0x00000000
       21365000	      2135	8000148c	4065d113	srai	x2,x11,0x6	 x11:0x00000604  x2=0x00000018
       21375000	      2136	80001490	01152933	slt	x18,x10,x17	 x10:0x00000000 x17:0x00000000 x18=0x00000000
       21385000	      2137	80001494	00379c13	slli	x24,x15,0x3	 x15:0x0001ffff x24=0x000ffff8
       21395000	      2138	80001498	41fdd033	sra	x0,x27,x31	 x27:0xfffffa89 x31:0x00000000
       21405000	      2139	8000149c	a78ab713	sltiu	x14,x21,-1416	 x21:0x00000000 x14=0x00000001
       21415000	      2140	800014a0	01ce42b3	xor	x5,x28,x28	 x28:0x80009f84 x28:0x80009f84  x5=0x00000000
       21425000	      2141	800014a4	ac9c4f13	xori	x30,x24,-1335	 x24:0x000ffff8 x30=0xfff00531
       21435000	      2142	800014a8	00000013	addi	x0,x0,0	  x0:0x00000000
       21445000	      2143	800014ac	957363b7	lui	x7,0x95736	  x7=0x95736000
       21455000	      2144	800014b0	00baacb3	slt	x25,x21,x11	 x21:0x00000000 x11:0x00000604 x25=0x00000001
       21465000	      2145	800014b4	04c5e663	bltu	x11,x12,80001500	 x11:0x00000604 x12:0x00000000
       21475000	      2146	800014b8	6c37b613	sltiu	x12,x15,1731	 x15:0x0001ffff x12=0x00000000
       21485000	      2147	800014bc	42e03893	sltiu	x17,x0,1070	  x0:0x00000000 x17=0x00000001
       21495000	      2148	800014c0	9d43a513	slti	x10,x7,-1580	  x7:0x95736000 x10=0x00000001
       21505000	      2149	800014c4	400459b3	sra	x19,x8,x0	  x8:0x80009fc4  x0:0x00000000 x19=0x80009fc4
       21515000	      2150	800014c8	3100b717	auipc	x14,0x3100b	 x14=0xb100c4c4
       21525000	      2151	800014cc	003205b3	add	x11,x4,x3	  x4:0x00000001  x3:0x00000000 x11=0x00000001
       21535000	      2152	800014d0	0122fa33	and	x20,x5,x18	  x5:0x00000000 x18:0x00000000 x20=0x00000000
       21545000	      2153	800014d4	01b04133	xor	x2,x0,x27	  x0:0x00000000 x27:0xfffffa89  x2=0xfffffa89
       21555000	      2154	800014d8	01a2fbb3	and	x23,x5,x26	  x5:0x00000000 x26:0x00000000 x23=0x00000000
       21565000	      2155	800014dc	41268b33	sub	x22,x13,x18	 x13:0x1b6b3450 x18:0x00000000 x22=0x1b6b3450
       21575000	      2156	800014e0	01a65293	srli	x5,x12,0x1a	 x12:0x00000000  x5=0x00000000
       21585000	      2157	800014e4	00135f13	srli	x30,x6,0x1	  x6:0x80009fc4 x30=0x40004fe2
       21595000	      2158	800014e8	6c887313	andi	x6,x16,1736	 x16:0x00000000  x6=0x00000000
       21605000	      2159	800014ec	00d61f13	slli	x30,x12,0xd	 x12:0x00000000 x30=0x00000000
       21615000	      2160	800014f0	9eacaf93	slti	x31,x25,-1558	 x25:0x00000001 x31=0x00000000
       21625000	      2161	800014f4	00000013	addi	x0,x0,0	  x0:0x00000000
       21635000	      2162	800014f8	c25e6597	auipc	x11,0xc25e6	 x11=0x425e74f4
       21645000	      2163	800014fc	01dd5663	bge	x26,x29,80001508	 x26:0x00000000 x29:0x80000e5c
       21655000	      2164	00000000	00000013	addi	x0,x0,0	  x0:0x00000000
       21665000	      2165	80001504	00000013	addi	x0,x0,0	  x0:0x00000000
       21675000	      2166	80001508	1205c337	lui	x6,0x1205c	  x6=0x1205c000
       21685000	      2167	8000150c	00000013	addi	x0,x0,0	  x0:0x00000000
       21695000	      2168	80001510	01929113	slli	x2,x5,0x19	  x5:0x00000000  x2=0x00000000
       21705000	      2169	80001514	0298d263	bge	x17,x9,80001538	 x17:0x00000001  x9:0x00000000
       21715000	      2170	00000000	00000013	addi	x0,x0,0	  x0:0x00000000
       21725000	      2171	80001534	00000013	addi	x0,x0,0	  x0:0x00000000
       21735000	      2172	80001538	01e7d213	srli	x4,x15,0x1e	 x15:0x0001ffff  x4=0x00000000
       21745000	      2173	8000153c	014a80b3	add	x1,x21,x20	 x21:0x00000000 x20:0x00000000  x1=0x00000000
       21755000	      2174	80001540	000cccb3	xor	x25,x25,x0	 x25:0x00000001  x0:0x00000000 x25=0x00000001
       21765000	      2175	80001544	26dc2993	slti	x19,x24,621	 x24:0x000ffff8 x19=0x00000000
       21775000	      2176	80001548	1831ba93	sltiu	x21,x3,387	  x3:0x00000000 x21=0x00000001
       21785000	      2177	8000154c	01bb66b3	or	x13,x22,x27	 x22:0x1b6b3450 x27:0xfffffa89 x13=0xfffffed9
       21795000	      2178	80001550	00271293	slli	x5,x14,0x2	 x14:0xb100c4c4  x5=0xc4031310
       21805000	      2179	80001554	0062e663	bltu	x5,x6,80001560	  x5:0xc4031310  x6:0x1205c000
       21815000	      2180	80001558	01970e63	beq	x14,x25,80001574	 x14:0xb100c4c4 x25:0x00000001
       21825000	      2181	8000155c	400d83b3	sub	x7,x27,x0	 x27:0xfffffa89  x0:0x00000000  x7=0xfffffa89
       21835000	      2182	80001560	01e9b6b3	sltu	x13,x19,x30	 x19:0x00000000 x30:0x00000000 x13=0x00000000
       21845000	      2183	80001564	018bd033	srl	x0,x23,x24	 x23:0x00000000 x24:0x000ffff8
       21855000	      2184	80001568	057ec863	blt	x29,x23,800015b8	 x29:0x80000e5c x23:0x00000000
       21865000	      2185	00000000	00000013	addi	x0,x0,0	  x0:0x00000000
       21875000	      2186	800015b4	00000013	addi	x0,x0,0	  x0:0x00000000
       21885000	      2187	800015b8	da01bd93	sltiu	x27,x3,-608	  x3:0x00000000 x27=0x00000001
       21895000	      2188	800015bc	00263d33	sltu	x26,x12,x2	 x12:0x00000000  x2:0x00000000 x26=0x00000000
       21905000	      2189	800015c0	02f7fe63	bgeu	x15,x15,800015fc	 x15:0x0001ffff x15:0x0001ffff
       21915000	      2190	00000000	00000013	addi	x0,x0,0	  x0:0x00000000
       21925000	      2191	800015f8	00000013	addi	x0,x0,0	  x0:0x00000000
       21935000	      2192	800015fc	40f400b3	sub	x1,x8,x15	  x8:0x80009fc4 x15:0x0001ffff  x1=0x7ffe9fc5
       21945000	      2193	80001600	00324133	xor	x2,x4,x3	  x4:0x00000000  x3:0x00000000  x2=0x00000000
       21955000	      2194	80001604	597dfa13	andi	x20,x27,1431	 x27:0x00000001 x20=0x00000001
       21965000	      2195	80001608	1b862493	slti	x9,x12,440	 x12:0x00000000  x9=0x00000001
       21975000	      2196	8000160c	35248f93	addi	x31,x9,850	  x9:0x00000001 x31=0x00000353
       21985000	      2197	80001610	00000013	addi	x0,x0,0	  x0:0x00000000
       21995000	      2198	80001614	006138b3	sltu	x17,x2,x6	  x2:0x00000000  x6:0x1205c000 x17=0x00000001
       22005000	      2199	80001618	00f79693	slli	x13,x15,0xf	 x15:0x0001ffff x13=0xffff8000
       22015000	      2200	8000161c	3cdb3a93	sltiu	x21,x22,973	 x22:0x1b6b3450 x21=0x00000000
       22025000	      2201	80001620	8cc07d93	andi	x27,x0,-1844	  x0:0x00000000 x27=0x00000000
       22035000	      2202	80001624	00410cb3	add	x25,x2,x4	  x2:0x00000000  x4:0x00000000 x25=0x00000000
       22045000	      2203	80001628	01d624b3	slt	x9,x12,x29	 x12:0x00000000 x29:0x80000e5c  x9=0x00000000
       22055000	      2204	8000162c	e23ad897	auipc	x17,0xe23ad	 x17=0x623ae628
       22065000	      2205	80001630	00991733	sll	x14,x18,x9	 x18:0x00000000  x9:0x00000000 x14=0x00000000
       22075000	      2206	80001634	40c38bb3	sub	x23,x7,x12	  x7:0xfffffa89 x12:0x00000000 x23=0xfffffa89
       22085000	      2207	80001638	00f4dbb3	srl	x23,x9,x15	  x9:0x00000000 x15:0x0001ffff x23=0x00000000
       22095000	      2208	8000163c	1e4be713	ori	x14,x23,484	 x23:0x00000000 x14=0x000001e4
       22105000	      2209	80001640	012102b3	add	x5,x2,x18	  x2:0x00000000 x18:0x00000000  x5=0x00000000
       22115000	      2210	80001644	006f8133	add	x2,x31,x6	 x31:0x00000353  x6:0x1205c000  x2=0x1205c353
       22125000	      2211	80001648	fe6c4a93	xori	x21,x24,-26	 x24:0x000ffff8 x21=0xfff0001e
       22135000	      2212	8000164c	cb064213	xori	x4,x12,-848	 x12:0x00000000  x4=0xfffffcb0
       22145000	      2213	80001650	5324be97	auipc	x29,0x5324b	 x29=0xd324c64c
       22155000	      2214	80001654	018759b3	srl	x19,x14,x24	 x14:0x000001e4 x24:0x000ffff8 x19=0x00000000
       22165000	      2215	80001658	403d08b3	sub	x17,x26,x3	 x26:0x00000000  x3:0x00000000 x17=0x00000000
       22175000	      2216	8000165c	fe5cbb13	sltiu	x22,x25,-27	 x25:0x00000000 x22=0x00000001
       22185000	      2217	80001660	01b063b3	or	x7,x0,x27	  x0:0x00000000 x27:0x00000000  x7=0x00000000
       22195000	      2218	80001664	0041dc13	srli	x24,x3,0x4	  x3:0x00000000 x24=0x00000000
       22205000	      2219	80001668	63452f93	slti	x31,x10,1588	 x10:0x00000001 x31=0x00000001
       22215000	      2220	8000166c	00279eb3	sll	x29,x15,x2	 x15:0x0001ffff  x2:0x1205c353 x29=0xfff80000
       22225000	      2221	80001670	0b821c63	bne	x4,x24,80001728	  x4:0xfffffcb0 x24:0x00000000
       22235000	      2222	00000000	00000013	addi	x0,x0,0	  x0:0x00000000
       22245000	      2223	80001724	00000013	addi	x0,x0,0	  x0:0x00000000
       22255000	      2224	80001728	4b02e293	ori	x5,x5,1200	  x5:0x00000000  x5=0x000004b0
       22265000	      2225	8000172c	05bd4663	blt	x26,x27,80001778	 x26:0x00000000 x27:0x00000000
       22275000	      2226	80001730	19cbfc37	lui	x24,0x19cbf	 x24=0x19cbf000
       22285000	      2227	80001734	004bad33	slt	x26,x23,x4	 x23:0x00000000  x4:0xfffffcb0 x26=0x00000000
       22295000	      2228	80001738	4157d5b3	sra	x11,x15,x21	 x15:0x0001ffff x21:0xfff0001e x11=0x00000000
       22305000	      2229	8000173c	40edd733	sra	x14,x27,x14	 x27:0x00000000 x14:0x000001e4 x14=0x00000000
       22315000	      2230	80001740	0060afb3	slt	x31,x1,x6	  x1:0x7ffe9fc5  x6:0x1205c000 x31=0x00000000
       22325000	      2231	80001744	3deb6893	ori	x17,x22,990	 x22:0x00000001 x17=0x000003df
       22335000	      2232	80001748	0143dab3	srl	x21,x7,x20	  x7:0x00000000 x20:0x00000001 x21=0x00000000
       22345000	      2233	8000174c	018d1233	sll	x4,x26,x24	 x26:0x00000000 x24:0x19cbf000  x4=0x00000000
       22355000	      2234	80001750	bd040f13	addi	x30,x8,-1072	  x8:0x80009fc4 x30=0x80009b94
       22365000	      2235	80001754	007fe033	or	x0,x31,x7	 x31:0x00000000  x7:0x00000000
       22375000	      2236	80001758	0029a133	slt	x2,x19,x2	 x19:0x00000000  x2:0x1205c353  x2=0x00000001
       22385000	      2237	8000175c	41295193	srai	x3,x18,0x12	 x18:0x00000000  x3=0x00000000
       22395000	      2238	80001760	017d4133	xor	x2,x26,x23	 x26:0x00000000 x23:0x00000000  x2=0x00000000
       22405000	      2239	80001764	01309f33	sll	x30,x1,x19	  x1:0x7ffe9fc5 x19:0x00000000 x30=0x7ffe9fc5
       22415000	      2240	80001768	0061f263	bgeu	x3,x6,8000176c	  x3:0x00000000  x6:0x1205c000
       22425000	      2241	8000176c	000fb233	sltu	x4,x31,x0	 x31:0x00000000  x0:0x00000000  x4=0x00000000
       22435000	      2242	80001770	01160033	add	x0,x12,x17	 x12:0x00000000 x17:0x000003df
       22445000	      2243	80001774	00e683b3	add	x7,x13,x14	 x13:0xffff8000 x14:0x00000000  x7=0xffff8000
       22455000	      2244	80001778	01365993	srli	x19,x12,0x13	 x12:0x00000000 x19=0x00000000
       22465000	      2245	8000177c	02598063	beq	x19,x5,8000179c	 x19:0x00000000  x5:0x000004b0
       22475000	      2246	80001780	000a5193	srli	x3,x20,0x0	 x20:0x00000001  x3=0x00000001
       22485000	      2247	80001784	01d2c1b3	xor	x3,x5,x29	  x5:0x000004b0 x29:0xfff80000  x3=0xfff804b0
       22495000	      2248	80001788	00352db3	slt	x27,x10,x3	 x10:0x00000001  x3:0xfff804b0 x27=0x00000000
       22505000	      2249	8000178c	0139ca63	blt	x19,x19,800017a0	 x19:0x00000000 x19:0x00000000
       22515000	      2250	80001790	411c0fb3	sub	x31,x24,x17	 x24:0x19cbf000 x17:0x000003df x31=0x19cbec21
       22525000	      2251	80001794	039bf663	bgeu	x23,x25,800017c0	 x23:0x00000000 x25:0x00000000
       22535000	      2252	00000000	00000013	addi	x0,x0,0	  x0:0x00000000
       22545000	      2253	800017bc	00000013	addi	x0,x0,0	  x0:0x00000000
       22555000	      2254	800017c0	d8624713	xori	x14,x4,-634	  x4:0x00000000 x14=0xfffffd86
       22565000	      2255	800017c4	2ca3b737	lui	x14,0x2ca3b	 x14=0x2ca3b000
       22575000	      2256	800017c8	004beb33	or	x22,x23,x4	 x23:0x00000000  x4:0x00000000 x22=0x00000000
       22585000	      2257	800017cc	40f159b3	sra	x19,x2,x15	  x2:0x00000000 x15:0x0001ffff x19=0x00000000
       22595000	      2258	800017d0	00e0c7b3	xor	x15,x1,x14	  x1:0x7ffe9fc5 x14:0x2ca3b000 x15=0x535d2fc5
       22605000	      2259	800017d4	005f0663	beq	x30,x5,800017e0	 x30:0x7ffe9fc5  x5:0x000004b0
       22615000	      2260	800017d8	002476b3	and	x13,x8,x2	  x8:0x80009fc4  x2:0x00000000 x13=0x00000000
       22625000	      2261	800017dc	00a7f463	bgeu	x15,x10,800017e4	 x15:0x535d2fc5 x10:0x00000001
       22635000	      2262	00000000	00000013	addi	x0,x0,0	  x0:0x00000000
       22645000	      2263	800017e0	00000013	addi	x0,x0,0	  x0:0x00000000
       22655000	      2264	800017e4	a5762213	slti	x4,x12,-1449	 x12:0x00000000  x4=0x00000000
       22665000	      2265	800017e8	0129a933	slt	x18,x19,x18	 x19:0x00000000 x18:0x00000000 x18=0x00000000
       22675000	      2266	800017ec	0bd88a63	beq	x17,x29,800018a0	 x17:0x000003df x29:0xfff80000
       22685000	      2267	800017f0	bae5ec13	ori	x24,x11,-1106	 x11:0x00000000 x24=0xfffffbae
       22695000	      2268	800017f4	00ae0e63	beq	x28,x10,80001810	 x28:0x80009f84 x10:0x00000001
       22705000	      2269	800017f8	0191d233	srl	x4,x3,x25	  x3:0xfff804b0 x25:0x00000000  x4=0xfff804b0
       22715000	      2270	800017fc	3184e613	ori	x12,x9,792	  x9:0x00000000 x12=0x00000318
       22725000	      2271	80001800	38cbdbb7	lui	x23,0x38cbd	 x23=0x38cbd000
       22735000	      2272	80001804	0a218663	beq	x3,x2,800018b0	  x3:0xfff804b0  x2:0x00000000
       22745000	      2273	80001808	c00a8893	addi	x17,x21,-1024	 x21:0x00000000 x17=0xfffffc00
       22755000	      2274	8000180c	f6f3b393	sltiu	x7,x7,-145	  x7:0xffff8000  x7=0x00000001
       22765000	      2275	80001810	00000013	addi	x0,x0,0	  x0:0x00000000
       22775000	      2276	80001814	00565b13	srli	x22,x12,0x5	 x12:0x00000318 x22=0x00000018
       22785000	      2277	80001818	02400c6f	jal	x24,80001818	 x24=0x80001818
       22795000	      2278	00000000	00000013	addi	x0,x0,0	  x0:0x00000000
       22805000	      2279	80001838	00000013	addi	x0,x0,0	  x0:0x00000000
       22815000	      2280	8000183c	01c0056f	jal	x10,8000183c	 x10=0x8000183c
       22825000	      2281	00000000	00000013	addi	x0,x0,0	  x0:0x00000000
       22835000	      2282	80001854	00000013	addi	x0,x0,0	  x0:0x00000000
       22845000	      2283	80001858	0380036f	jal	x6,80001858	  x6=0x80001858
       22855000	      2284	00000000	00000013	addi	x0,x0,0	  x0:0x00000000
       22865000	      2285	8000188c	00000013	addi	x0,x0,0	  x0:0x00000000
       22875000	      2286	80001890	fb9ff0ef	jal	x1,80001890	  x1=0x80001890
       22885000	      2287	00000000	00000013	addi	x0,x0,0	  x0:0x00000000
       22895000	      2288	80001844	00000013	addi	x0,x0,0	  x0:0x00000000
       22905000	      2289	80001848	fe1ff36f	jal	x6,80001848	  x6=0x80001848
       22915000	      2290	00000000	00000013	addi	x0,x0,0	  x0:0x00000000
       22925000	      2291	80001824	00000013	addi	x0,x0,0	  x0:0x00000000
       22935000	      2292	80001828	024000ef	jal	x1,80001828	  x1=0x80001828
       22945000	      2293	00000000	00000013	addi	x0,x0,0	  x0:0x00000000
       22955000	      2294	80001848	00000013	addi	x0,x0,0	  x0:0x00000000
       22965000	      2295	8000184c	ff9ffbef	jal	x23,8000184c	 x23=0x8000184c
       22975000	      2296	00000000	00000013	addi	x0,x0,0	  x0:0x00000000
       22985000	      2297	80001840	00000013	addi	x0,x0,0	  x0:0x00000000
       22995000	      2298	80001844	02400def	jal	x27,80001844	 x27=0x80001844
       23005000	      2299	00000000	00000013	addi	x0,x0,0	  x0:0x00000000
       23015000	      2300	80001864	00000013	addi	x0,x0,0	  x0:0x00000000
       23025000	      2301	80001868	fedff0ef	jal	x1,80001868	  x1=0x80001868
       23035000	      2302	00000000	00000013	addi	x0,x0,0	  x0:0x00000000
       23045000	      2303	80001850	00000013	addi	x0,x0,0	  x0:0x00000000
       23055000	      2304	80001854	fd9ff36f	jal	x6,80001854	  x6=0x80001854
       23065000	      2305	00000000	00000013	addi	x0,x0,0	  x0:0x00000000
       23075000	      2306	80001828	00000013	addi	x0,x0,0	  x0:0x00000000
       23085000	      2307	8000182c	0140036f	jal	x6,8000182c	  x6=0x8000182c
       23095000	      2308	00000000	00000013	addi	x0,x0,0	  x0:0x00000000
       23105000	      2309	8000183c	00000013	addi	x0,x0,0	  x0:0x00000000
       23115000	      2310	80001840	030000ef	jal	x1,80001840	  x1=0x80001840
       23125000	      2311	00000000	00000013	addi	x0,x0,0	  x0:0x00000000
       23135000	      2312	8000186c	00000013	addi	x0,x0,0	  x0:0x00000000
       23145000	      2313	80001870	fe1ff0ef	jal	x1,80001870	  x1=0x80001870
       23155000	      2314	00000000	00000013	addi	x0,x0,0	  x0:0x00000000
       23165000	      2315	8000184c	00000013	addi	x0,x0,0	  x0:0x00000000
       23175000	      2316	80001850	01c0036f	jal	x6,80001850	  x6=0x80001850
       23185000	      2317	00000000	00000013	addi	x0,x0,0	  x0:0x00000000
       23195000	      2318	80001868	00000013	addi	x0,x0,0	  x0:0x00000000
       23205000	      2319	8000186c	008000ef	jal	x1,8000186c	  x1=0x8000186c
       23215000	      2320	00000000	00000013	addi	x0,x0,0	  x0:0x00000000
       23225000	      2321	80001870	00000013	addi	x0,x0,0	  x0:0x00000000
       23235000	      2322	80001874	00c0076f	jal	x14,80001874	 x14=0x80001874
       23245000	      2323	00000000	00000013	addi	x0,x0,0	  x0:0x00000000
       23255000	      2324	8000187c	00000013	addi	x0,x0,0	  x0:0x00000000
       23265000	      2325	80001880	00c000ef	jal	x1,80001880	  x1=0x80001880
       23275000	      2326	00000000	00000013	addi	x0,x0,0	  x0:0x00000000
       23285000	      2327	80001888	00000013	addi	x0,x0,0	  x0:0x00000000
       23295000	      2328	8000188c	f95ffbef	jal	x23,8000188c	 x23=0x8000188c
       23305000	      2329	00000000	00000013	addi	x0,x0,0	  x0:0x00000000
       23315000	      2330	8000181c	00000013	addi	x0,x0,0	  x0:0x00000000
       23325000	      2331	80001820	004000ef	jal	x1,80001820	  x1=0x80001820
       23335000	      2332	00000000	00000013	addi	x0,x0,0	  x0:0x00000000
       23345000	      2333	80001820	00000013	addi	x0,x0,0	  x0:0x00000000
       23355000	      2334	80001824	01000a6f	jal	x20,80001824	 x20=0x80001824
       23365000	      2335	00000000	00000013	addi	x0,x0,0	  x0:0x00000000
       23375000	      2336	80001830	00000013	addi	x0,x0,0	  x0:0x00000000
       23385000	      2337	80001834	02c0036f	jal	x6,80001834	  x6=0x80001834
       23395000	      2338	00000000	00000013	addi	x0,x0,0	  x0:0x00000000
       23405000	      2339	8000185c	00000013	addi	x0,x0,0	  x0:0x00000000
       23415000	      2340	80001860	024000ef	jal	x1,80001860	  x1=0x80001860
       23425000	      2341	00000000	00000013	addi	x0,x0,0	  x0:0x00000000
       23435000	      2342	80001880	00000013	addi	x0,x0,0	  x0:0x00000000
       23445000	      2343	80001884	fb5ff36f	jal	x6,80001884	  x6=0x80001884
       23455000	      2344	00000000	00000013	addi	x0,x0,0	  x0:0x00000000
       23465000	      2345	80001834	00000013	addi	x0,x0,0	  x0:0x00000000
       23475000	      2346	80001838	024000ef	jal	x1,80001838	  x1=0x80001838
       23485000	      2347	00000000	00000013	addi	x0,x0,0	  x0:0x00000000
       23495000	      2348	80001858	00000013	addi	x0,x0,0	  x0:0x00000000
       23505000	      2349	8000185c	0200036f	jal	x6,8000185c	  x6=0x8000185c
       23515000	      2350	00000000	00000013	addi	x0,x0,0	  x0:0x00000000
       23525000	      2351	80001878	00000013	addi	x0,x0,0	  x0:0x00000000
       23535000	      2352	8000187c	fa1ff36f	jal	x6,8000187c	  x6=0x8000187c
       23545000	      2353	00000000	00000013	addi	x0,x0,0	  x0:0x00000000
       23555000	      2354	80001818	00000013	addi	x0,x0,0	  x0:0x00000000
       23565000	      2355	8000181c	06c000ef	jal	x1,8000181c	  x1=0x8000181c
       23575000	      2356	00000000	00000013	addi	x0,x0,0	  x0:0x00000000
       23585000	      2357	80001884	00000013	addi	x0,x0,0	  x0:0x00000000
       23595000	      2358	80001888	fddff36f	jal	x6,80001888	  x6=0x80001888
       23605000	      2359	00000000	00000013	addi	x0,x0,0	  x0:0x00000000
       23615000	      2360	80001860	00000013	addi	x0,x0,0	  x0:0x00000000
       23625000	      2361	80001864	014000ef	jal	x1,80001864	  x1=0x80001864
       23635000	      2362	00000000	00000013	addi	x0,x0,0	  x0:0x00000000
       23645000	      2363	80001874	00000013	addi	x0,x0,0	  x0:0x00000000
       23655000	      2364	80001878	fb9ff0ef	jal	x1,80001878	  x1=0x80001878
       23665000	      2365	00000000	00000013	addi	x0,x0,0	  x0:0x00000000
       23675000	      2366	8000182c	00000013	addi	x0,x0,0	  x0:0x00000000
       23685000	      2367	80001830	06400d6f	jal	x26,80001830	 x26=0x80001830
       23695000	      2368	00000000	00000013	addi	x0,x0,0	  x0:0x00000000
       23705000	      2369	80001890	00000013	addi	x0,x0,0	  x0:0x00000000
       23715000	      2370	80001894	0198d4b3	srl	x9,x17,x25	 x17:0xfffffc00 x25:0x00000000  x9=0xfffffc00
       23725000	      2371	80001898	037cd863	bge	x25,x23,800018c8	 x25:0x00000000 x23:0x8000188c
       23735000	      2372	00000000	00000013	addi	x0,x0,0	  x0:0x00000000
       23745000	      2373	800018c4	00000013	addi	x0,x0,0	  x0:0x00000000
       23755000	      2374	800018c8	0101d0b3	srl	x1,x3,x16	  x3:0xfff804b0 x16:0x00000000  x1=0xfff804b0
       23765000	      2375	800018cc	412480b3	sub	x1,x9,x18	  x9:0xfffffc00 x18:0x00000000  x1=0xfffffc00
       23775000	      2376	800018d0	0027e333	or	x6,x15,x2	 x15:0x535d2fc5  x2:0x00000000  x6=0x535d2fc5
       23785000	      2377	800018d4	dd7bec13	ori	x24,x23,-553	 x23:0x8000188c x24=0xfffffddf
       23795000	      2378	800018d8	00c17733	and	x14,x2,x12	  x2:0x00000000 x12:0x00000318 x14=0x00000000
       23805000	      2379	800018dc	01bf0a33	add	x20,x30,x27	 x30:0x7ffe9fc5 x27:0x80001844 x20=0xfffeb809
       23815000	      2380	800018e0	406388b3	sub	x17,x7,x6	  x7:0x00000001  x6:0x535d2fc5 x17=0xaca2d03c
       23825000	      2381	800018e4	010da8b3	slt	x17,x27,x16	 x27:0x80001844 x16:0x00000000 x17=0x00000001
       23835000	      2382	800018e8	29b0bb93	sltiu	x23,x1,667	  x1:0xfffffc00 x23=0x00000000
       23845000	      2383	800018ec	1fbae713	ori	x14,x21,507	 x21:0x00000000 x14=0x000001fb
       23855000	      2384	800018f0	6b648f13	addi	x30,x9,1718	  x9:0xfffffc00 x30=0x000002b6
       23865000	      2385	800018f4	054dc663	blt	x27,x20,80001940	 x27:0x80001844 x20:0xfffeb809
       23875000	      2386	00000000	00000013	addi	x0,x0,0	  x0:0x00000000
       23885000	      2387	8000193c	00000013	addi	x0,x0,0	  x0:0x00000000
       23895000	      2388	80001940	017776b3	and	x13,x14,x23	 x14:0x000001fb x23:0x00000000 x13=0x00000000
       23905000	      2389	80001944	835f0513	addi	x10,x30,-1995	 x30:0x000002b6 x10=0xfffffaeb
       23915000	      2390	80001948	01fe3eb3	sltu	x29,x28,x31	 x28:0x80009f84 x31:0x19cbec21 x29=0x00000000
       23925000	      2391	8000194c	41460eb3	sub	x29,x12,x20	 x12:0x00000318 x20:0xfffeb809 x29=0x00014b0f
       23935000	      2392	80001950	53dfed93	ori	x27,x31,1341	 x31:0x19cbec21 x27=0x19cbed3d
       23945000	      2393	80001954	01ced263	bge	x29,x28,80001958	 x29:0x00014b0f x28:0x80009f84
       23955000	      2394	00000000	00000013	addi	x0,x0,0	  x0:0x00000000
       23965000	      2395	80001954	00000013	addi	x0,x0,0	  x0:0x00000000
       23975000	      2396	80001958	3d5e7d93	andi	x27,x28,981	 x28:0x80009f84 x27=0x00000384
       23985000	      2397	8000195c	41c55313	srai	x6,x10,0x1c	 x10:0xfffffaeb  x6=0xffffffff
       23995000	      2398	80001960	01f152b3	srl	x5,x2,x31	  x2:0x00000000 x31:0x19cbec21  x5=0x00000000
       24005000	      2399	80001964	c274ca93	xori	x21,x9,-985	  x9:0xfffffc00 x21=0x00000027
       24015000	      2400	80001968	0236ae93	slti	x29,x13,35	 x13:0x00000000 x29=0x00000001
       24025000	      2401	8000196c	d2a7ae97	auipc	x29,0xd2a7a	 x29=0x52a7b968
       24035000	      2402	80001970	67e3b193	sltiu	x3,x7,1662	  x7:0x00000001  x3=0x00000001
       24045000	      2403	80001974	02faec63	bltu	x21,x15,800019ac	 x21:0x00000027 x15:0x535d2fc5
       24055000	      2404	00000000	00000013	addi	x0,x0,0	  x0:0x00000000
       24065000	      2405	800019a8	00000013	addi	x0,x0,0	  x0:0x00000000
       24075000	      2406	800019ac	a3fec1b7	lui	x3,0xa3fec	  x3=0xa3fec000
       24085000	      2407	800019b0	057e6463	bltu	x28,x23,800019f8	 x28:0x80009f84 x23:0x00000000
       24095000	      2408	800019b4	41098a33	sub	x20,x19,x16	 x19:0x00000000 x16:0x00000000 x20=0x00000000
       24105000	      2409	800019b8	00e79fb3	sll	x31,x15,x14	 x15:0x535d2fc5 x14:0x000001fb x31=0x28000000
       24115000	      2410	800019bc	002e3d33	sltu	x26,x28,x2	 x28:0x80009f84  x2:0x00000000 x26=0x00000000
       24125000	      2411	800019c0	7fefad97	auipc	x27,0x7fefa	 x27=0xffefb9bc
       24135000	      2412	800019c4	5dabef13	ori	x30,x23,1498	 x23:0x00000000 x30=0x000005da
       24145000	      2413	800019c8	01621fb3	sll	x31,x4,x22	  x4:0xfff804b0 x22:0x00000018 x31=0xb0000000
       24155000	      2414	800019cc	05f5d263	bge	x11,x31,80001a10	 x11:0x00000000 x31:0xb0000000
       24165000	      2415	00000000	00000013	addi	x0,x0,0	  x0:0x00000000
       24175000	      2416	80001a0c	00000013	addi	x0,x0,0	  x0:0x00000000
       24185000	      2417	80001a10	00000013	addi	x0,x0,0	  x0:0x00000000
       24195000	      2418	80001a14	00421213	slli	x4,x4,0x4	  x4:0xfff804b0  x4=0xff804b00
       24205000	      2419	80001a18	0163c463	blt	x7,x22,80001a20	  x7:0x00000001 x22:0x00000018
       24215000	      2420	00000000	00000013	addi	x0,x0,0	  x0:0x00000000
       24225000	      2421	80001a1c	00000013	addi	x0,x0,0	  x0:0x00000000
       24235000	      2422	80001a20	01138863	beq	x7,x17,80001a30	  x7:0x00000001 x17:0x00000001
       24245000	      2423	00000000	00000013	addi	x0,x0,0	  x0:0x00000000
       24255000	      2424	80001a2c	00000013	addi	x0,x0,0	  x0:0x00000000
       24265000	      2425	80001a30	fe2e6913	ori	x18,x28,-30	 x28:0x80009f84 x18=0xffffffe6
       24275000	      2426	80001a34	01934b33	xor	x22,x6,x25	  x6:0xffffffff x25:0x00000000 x22=0xffffffff
       24285000	      2427	80001a38	01587fb3	and	x31,x16,x21	 x16:0x00000000 x21:0x00000027 x31=0x00000000
       24295000	      2428	80001a3c	006c0663	beq	x24,x6,80001a48	 x24:0xfffffddf  x6:0xffffffff
       24305000	      2429	80001a40	0037e663	bltu	x15,x3,80001a4c	 x15:0x535d2fc5  x3:0xa3fec000
       24315000	      2430	00000000	00000013	addi	x0,x0,0	  x0:0x00000000
       24325000	      2431	80001a48	00000013	addi	x0,x0,0	  x0:0x00000000
       24335000	      2432	80001a4c	01ac4933	xor	x18,x24,x26	 x24:0xfffffddf x26:0x00000000 x18=0xfffffddf
       24345000	      2433	80001a50	000919b3	sll	x19,x18,x0	 x18:0xfffffddf  x0:0x00000000 x19=0xfffffddf
       24355000	      2434	80001a54	016c1a93	slli	x21,x24,0x16	 x24:0xfffffddf x21=0x77c00000
       24365000	      2435	80001a58	0156eeb3	or	x29,x13,x21	 x13:0x00000000 x21:0x77c00000 x29=0x77c00000
       24375000	      2436	80001a5c	01a6f7b3	and	x15,x13,x26	 x13:0x00000000 x26:0x00000000 x15=0x00000000
       24385000	      2437	80001a60	01e801b3	add	x3,x16,x30	 x16:0x00000000 x30:0x000005da  x3=0x000005da
       24395000	      2438	80001a64	005fa933	slt	x18,x31,x5	 x31:0x00000000  x5:0x00000000 x18=0x00000000
       24405000	      2439	80001a68	0146fe63	bgeu	x13,x20,80001a84	 x13:0x00000000 x20:0x00000000
       24415000	      2440	00000000	00000013	addi	x0,x0,0	  x0:0x00000000
       24425000	      2441	80001a80	00000013	addi	x0,x0,0	  x0:0x00000000
       24435000	      2442	80001a84	0195b4b3	sltu	x9,x11,x25	 x11:0x00000000 x25:0x00000000  x9=0x00000000
       24445000	      2443	80001a88	d21ffb93	andi	x23,x31,-735	 x31:0x00000000 x23=0x00000000
       24455000	      2444	80001a8c	0232e063	bltu	x5,x3,80001aac	  x5:0x00000000  x3:0x000005da
       24465000	      2445	00000000	00000013	addi	x0,x0,0	  x0:0x00000000
       24475000	      2446	80001aa8	00000013	addi	x0,x0,0	  x0:0x00000000
       24485000	      2447	80001aac	02005a63	bge	x0,x0,80001ae0	  x0:0x00000000  x0:0x00000000
       24495000	      2448	00000000	00000013	addi	x0,x0,0	  x0:0x00000000
       24505000	      2449	80001adc	00000013	addi	x0,x0,0	  x0:0x00000000
       24515000	      2450	80001ae0	40198733	sub	x14,x19,x1	 x19:0xfffffddf  x1:0xfffffc00 x14=0x000001df
       24525000	      2451	80001ae4	01266e63	bltu	x12,x18,80001b00	 x12:0x00000318 x18:0x00000000
       24535000	      2452	80001ae8	008ddbb3	srl	x23,x27,x8	 x27:0xffefb9bc  x8:0x80009fc4 x23=0x0ffefb9b
       24545000	      2453	80001aec	01ff3bb3	sltu	x23,x30,x31	 x30:0x000005da x31:0x00000000 x23=0x00000000
       24555000	      2454	80001af0	6a8b7593	andi	x11,x22,1704	 x22:0xffffffff x11=0x000006a8
       24565000	      2455	80001af4	00eda1b3	slt	x3,x27,x14	 x27:0xffefb9bc x14:0x000001df  x3=0x00000001
       24575000	      2456	80001af8	0359d663	bge	x19,x21,80001b24	 x19:0xfffffddf x21:0x77c00000
       24585000	      2457	80001afc	0245ca63	blt	x11,x4,80001b30	 x11:0x000006a8  x4:0xff804b00
       24595000	      2458	80001b00	00646bb3	or	x23,x8,x6	  x8:0x80009fc4  x6:0xffffffff x23=0xffffffff
       24605000	      2459	80001b04	01a86bb3	or	x23,x16,x26	 x16:0x00000000 x26:0x00000000 x23=0x00000000
       24615000	      2460	80001b08	6a967713	andi	x14,x12,1705	 x12:0x00000318 x14=0x00000208
       24625000	      2461	80001b0c	04905263	bge	x0,x9,80001b50	  x0:0x00000000  x9:0x00000000
       24635000	      2462	00000000	00000013	addi	x0,x0,0	  x0:0x00000000
       24645000	      2463	80001b4c	00000013	addi	x0,x0,0	  x0:0x00000000
       24655000	      2464	80001b50	00000013	addi	x0,x0,0	  x0:0x00000000
       24665000	      2465	80001b54	40f3d133	sra	x2,x7,x15	  x7:0x00000001 x15:0x00000000  x2=0x00000001
       24675000	      2466	80001b58	01c1e1b3	or	x3,x3,x28	  x3:0x00000001 x28:0x80009f84  x3=0x80009f85
       24685000	      2467	80001b5c	04400c6f	jal	x24,80001b5c	 x24=0x80001b5c
       24695000	      2468	00000000	00000013	addi	x0,x0,0	  x0:0x00000000
       24705000	      2469	80001b9c	00000013	addi	x0,x0,0	  x0:0x00000000
       24715000	      2470	80001ba0	00c0036f	jal	x6,80001ba0	  x6=0x80001ba0
       24725000	      2471	00000000	00000013	addi	x0,x0,0	  x0:0x00000000
       24735000	      2472	80001ba8	00000013	addi	x0,x0,0	  x0:0x00000000
       24745000	      2473	80001bac	fc5ff0ef	jal	x1,80001bac	  x1=0x80001bac
       24755000	      2474	00000000	00000013	addi	x0,x0,0	  x0:0x00000000
       24765000	      2475	80001b6c	00000013	addi	x0,x0,0	  x0:0x00000000
       24775000	      2476	80001b70	01c000ef	jal	x1,80001b70	  x1=0x80001b70
       24785000	      2477	00000000	00000013	addi	x0,x0,0	  x0:0x00000000
       24795000	      2478	80001b88	00000013	addi	x0,x0,0	  x0:0x00000000
       24805000	      2479	80001b8c	fddff0ef	jal	x1,80001b8c	  x1=0x80001b8c
       24815000	      2480	00000000	00000013	addi	x0,x0,0	  x0:0x00000000
       24825000	      2481	80001b64	00000013	addi	x0,x0,0	  x0:0x00000000
       24835000	      2482	80001b68	050005ef	jal	x11,80001b68	 x11=0x80001b68
       24845000	      2483	00000000	00000013	addi	x0,x0,0	  x0:0x00000000
       24855000	      2484	80001bb4	00000013	addi	x0,x0,0	  x0:0x00000000
       24865000	      2485	80001bb8	fd1ff0ef	jal	x1,80001bb8	  x1=0x80001bb8
       24875000	      2486	00000000	00000013	addi	x0,x0,0	  x0:0x00000000
       24885000	      2487	80001b84	00000013	addi	x0,x0,0	  x0:0x00000000
       24895000	      2488	80001b88	008000ef	jal	x1,80001b88	  x1=0x80001b88
       24905000	      2489	00000000	00000013	addi	x0,x0,0	  x0:0x00000000
       24915000	      2490	80001b8c	00000013	addi	x0,x0,0	  x0:0x00000000
       24925000	      2491	80001b90	008000ef	jal	x1,80001b90	  x1=0x80001b90
       24935000	      2492	00000000	00000013	addi	x0,x0,0	  x0:0x00000000
       24945000	      2493	80001b94	00000013	addi	x0,x0,0	  x0:0x00000000
       24955000	      2494	80001b98	fe1ff0ef	jal	x1,80001b98	  x1=0x80001b98
       24965000	      2495	00000000	00000013	addi	x0,x0,0	  x0:0x00000000
       24975000	      2496	80001b74	00000013	addi	x0,x0,0	  x0:0x00000000
       24985000	      2497	80001b78	ff5ff0ef	jal	x1,80001b78	  x1=0x80001b78
       24995000	      2498	00000000	00000013	addi	x0,x0,0	  x0:0x00000000
       25005000	      2499	80001b68	00000013	addi	x0,x0,0	  x0:0x00000000
       25015000	      2500	80001b6c	028004ef	jal	x9,80001b6c	  x9=0x80001b6c
       25025000	      2501	00000000	00000013	addi	x0,x0,0	  x0:0x00000000
       25035000	      2502	80001b90	00000013	addi	x0,x0,0	  x0:0x00000000
       25045000	      2503	80001b94	fd1ff0ef	jal	x1,80001b94	  x1=0x80001b94
       25055000	      2504	00000000	00000013	addi	x0,x0,0	  x0:0x00000000
       25065000	      2505	80001b60	00000013	addi	x0,x0,0	  x0:0x00000000
       25075000	      2506	80001b64	04c000ef	jal	x1,80001b64	  x1=0x80001b64
       25085000	      2507	00000000	00000013	addi	x0,x0,0	  x0:0x00000000
       25095000	      2508	80001bac	00000013	addi	x0,x0,0	  x0:0x00000000
       25105000	      2509	80001bb0	ff5ff0ef	jal	x1,80001bb0	  x1=0x80001bb0
       25115000	      2510	00000000	00000013	addi	x0,x0,0	  x0:0x00000000
       25125000	      2511	80001ba0	00000013	addi	x0,x0,0	  x0:0x00000000
       25135000	      2512	80001ba4	fd9ff0ef	jal	x1,80001ba4	  x1=0x80001ba4
       25145000	      2513	00000000	00000013	addi	x0,x0,0	  x0:0x00000000
       25155000	      2514	80001b78	00000013	addi	x0,x0,0	  x0:0x00000000
       25165000	      2515	80001b7c	02c0036f	jal	x6,80001b7c	  x6=0x80001b7c
       25175000	      2516	00000000	00000013	addi	x0,x0,0	  x0:0x00000000
       25185000	      2517	80001ba4	00000013	addi	x0,x0,0	  x0:0x00000000
       25195000	      2518	80001ba8	fb9ff0ef	jal	x1,80001ba8	  x1=0x80001ba8
       25205000	      2519	00000000	00000013	addi	x0,x0,0	  x0:0x00000000
       25215000	      2520	80001b5c	00000013	addi	x0,x0,0	  x0:0x00000000
       25225000	      2521	80001b60	020000ef	jal	x1,80001b60	  x1=0x80001b60
       25235000	      2522	00000000	00000013	addi	x0,x0,0	  x0:0x00000000
       25245000	      2523	80001b7c	00000013	addi	x0,x0,0	  x0:0x00000000
       25255000	      2524	80001b80	ff5ff9ef	jal	x19,80001b80	 x19=0x80001b80
       25265000	      2525	00000000	00000013	addi	x0,x0,0	  x0:0x00000000
       25275000	      2526	80001b70	00000013	addi	x0,x0,0	  x0:0x00000000
       25285000	      2527	80001b74	0280036f	jal	x6,80001b74	  x6=0x80001b74
       25295000	      2528	00000000	00000013	addi	x0,x0,0	  x0:0x00000000
       25305000	      2529	80001b98	00000013	addi	x0,x0,0	  x0:0x00000000
       25315000	      2530	80001b9c	018000ef	jal	x1,80001b9c	  x1=0x80001b9c
       25325000	      2531	00000000	00000013	addi	x0,x0,0	  x0:0x00000000
       25335000	      2532	80001bb0	00000013	addi	x0,x0,0	  x0:0x00000000
       25345000	      2533	80001bb4	fd1ff0ef	jal	x1,80001bb4	  x1=0x80001bb4
       25355000	      2534	00000000	00000013	addi	x0,x0,0	  x0:0x00000000
       25365000	      2535	80001b80	00000013	addi	x0,x0,0	  x0:0x00000000
       25375000	      2536	80001b84	0380076f	jal	x14,80001b84	 x14=0x80001b84
       25385000	      2537	00000000	00000013	addi	x0,x0,0	  x0:0x00000000
       25395000	      2538	80001bb8	00000013	addi	x0,x0,0	  x0:0x00000000
       25405000	      2539	80001bbc	b40b7793	andi	x15,x22,-1216	 x22:0xffffffff x15=0xfffffb40
       25415000	      2540	80001bc0	5d688f13	addi	x30,x17,1494	 x17:0x00000001 x30=0x000005d7
       25425000	      2541	80001bc4	4748e337	lui	x6,0x4748e	  x6=0x4748e000
       25435000	      2542	80001bc8	00000013	addi	x0,x0,0	  x0:0x00000000
       25445000	      2543	80001bcc	88177593	andi	x11,x14,-1919	 x14:0x80001b84 x11=0x80001880
       25455000	      2544	80001bd0	c641ef13	ori	x30,x3,-924	  x3:0x80009f85 x30=0xffffffe5
       25465000	      2545	80001bd4	40a285b3	sub	x11,x5,x10	  x5:0x00000000 x10:0xfffffaeb x11=0x00000515
       25475000	      2546	80001bd8	717dbf13	sltiu	x30,x27,1815	 x27:0xffefb9bc x30=0x00000000
       25485000	      2547	80001bdc	00000013	addi	x0,x0,0	  x0:0x00000000
       25495000	      2548	80001be0	05468663	beq	x13,x20,80001c2c	 x13:0x00000000 x20:0x00000000
       25505000	      2549	00000000	00000013	addi	x0,x0,0	  x0:0x00000000
       25515000	      2550	80001c28	00000013	addi	x0,x0,0	  x0:0x00000000
       25525000	      2551	80001c2c	00fd1a93	slli	x21,x26,0xf	 x26:0x00000000 x21=0x00000000
       25535000	      2552	80001c30	003bca63	blt	x23,x3,80001c44	 x23:0x00000000  x3:0x80009f85
       25545000	      2553	80001c34	04c78663	beq	x15,x12,80001c80	 x15:0xfffffb40 x12:0x00000318
       25555000	      2554	80001c38	00000013	addi	x0,x0,0	  x0:0x00000000
       25565000	      2555	80001c3c	01e6d193	srli	x3,x13,0x1e	 x13:0x00000000  x3=0x00000000
       25575000	      2556	80001c40	02900263	beq	x0,x9,80001c64	  x0:0x00000000  x9:0x80001b6c
       25585000	      2557	80001c44	0103ceb3	xor	x29,x7,x16	  x7:0x00000001 x16:0x00000000 x29=0x00000001
       25595000	      2558	80001c48	40d0d293	srai	x5,x1,0xd	  x1:0x80001bb4  x5=0xfffc0000
       25605000	      2559	80001c4c	60696c13	ori	x24,x18,1542	 x18:0x00000000 x24=0x00000606
       25615000	      2560	80001c50	01912bb3	slt	x23,x2,x25	  x2:0x00000001 x25:0x00000000 x23=0x00000000
       25625000	      2561	80001c54	a60dba93	sltiu	x21,x27,-1440	 x27:0xffefb9bc x21=0x00000001
       25635000	      2562	80001c58	0087e633	or	x12,x15,x8	 x15:0xfffffb40  x8:0x80009fc4 x12=0xffffffc4
       25645000	      2563	80001c5c	01f84863	blt	x16,x31,80001c6c	 x16:0x00000000 x31:0x00000000
       25655000	      2564	80001c60	00000013	addi	x0,x0,0	  x0:0x00000000
       25665000	      2565	80001c64	4159d913	srai	x18,x19,0x15	 x19:0x80001b80 x18=0xfffffc00
       25675000	      2566	80001c68	00637a33	and	x20,x6,x6	  x6:0x4748e000  x6:0x4748e000 x20=0x4748e000
       25685000	      2567	80001c6c	40ee5b33	sra	x22,x28,x14	 x28:0x80009f84 x14:0x80001b84 x22=0xf80009f8
       25695000	      2568	80001c70	00929c13	slli	x24,x5,0x9	  x5:0xfffc0000 x24=0xf8000000
       25705000	      2569	80001c74	00741213	slli	x4,x8,0x7	  x8:0x80009fc4  x4=0x004fe200
       25715000	      2570	80001c78	018027b3	slt	x15,x0,x24	  x0:0x00000000 x24:0xf8000000 x15=0x00000000
       25725000	      2571	80001c7c	6439e913	ori	x18,x19,1603	 x19:0x80001b80 x18=0x80001fc3
       25735000	      2572	80001c80	0284f063	bgeu	x9,x8,80001ca0	  x9:0x80001b6c  x8:0x80009fc4
       25745000	      2573	80001c84	01055b93	srli	x23,x10,0x10	 x10:0xfffffaeb x23=0x0000ffff
       25755000	      2574	80001c88	14098513	addi	x10,x19,320	 x19:0x80001b80 x10=0x80001cc0
       25765000	      2575	80001c8c	0065ef33	or	x30,x11,x6	 x11:0x00000515  x6:0x4748e000 x30=0x4748e515
       25775000	      2576	80001c90	025a5863	bge	x20,x5,80001cc0	 x20:0x4748e000  x5:0xfffc0000
       25785000	      2577	00000000	00000013	addi	x0,x0,0	  x0:0x00000000
       25795000	      2578	80001cbc	00000013	addi	x0,x0,0	  x0:0x00000000
       25805000	      2579	80001cc0	01a30db3	add	x27,x6,x26	  x6:0x4748e000 x26:0x00000000 x27=0x4748e000
       25815000	      2580	80001cc4	eea80193	addi	x3,x16,-278	 x16:0x00000000  x3=0xfffffeea
       25825000	      2581	80001cc8	01cc3b33	sltu	x22,x24,x28	 x24:0xf8000000 x28:0x80009f84 x22=0x00000000
       25835000	      2582	80001ccc	b3836693	ori	x13,x6,-1224	  x6:0x4748e000 x13=0xfffffb38
       25845000	      2583	80001cd0	7cbd0c13	addi	x24,x26,1995	 x26:0x00000000 x24=0x000007cb
       25855000	      2584	80001cd4	00389633	sll	x12,x17,x3	 x17:0x00000001  x3:0xfffffeea x12=0x00000400
       25865000	      2585	80001cd8	76c57913	andi	x18,x10,1900	 x10:0x80001cc0 x18=0x00000440
       25875000	      2586	80001cdc	00169fb3	sll	x31,x13,x1	 x13:0xfffffb38  x1:0x80001bb4 x31=0xb3800000
       25885000	      2587	80001ce0	00000013	addi	x0,x0,0	  x0:0x00000000
       25895000	      2588	80001ce4	04338463	beq	x7,x3,80001d2c	  x7:0x00000001  x3:0xfffffeea
       25905000	      2589	80001ce8	40595693	srai	x13,x18,0x5	 x18:0x00000440 x13=0x00000022
       25915000	      2590	80001cec	4053d113	srai	x2,x7,0x5	  x7:0x00000001  x2=0x00000000
       25925000	      2591	80001cf0	989d2613	slti	x12,x26,-1655	 x26:0x00000000 x12=0x00000000
       25935000	      2592	80001cf4	02c7ee63	bltu	x15,x12,80001d30	 x15:0x00000000 x12:0x00000000
       25945000	      2593	80001cf8	007f5e63	bge	x30,x7,80001d14	 x30:0x4748e515  x7:0x00000001
       25955000	      2594	00000000	00000013	addi	x0,x0,0	  x0:0x00000000
       25965000	      2595	80001d10	00000013	addi	x0,x0,0	  x0:0x00000000
       25975000	      2596	80001d14	01f0d463	bge	x1,x31,80001d1c	  x1:0x80001bb4 x31:0xb3800000
       25985000	      2597	80001d18	00000013	addi	x0,x0,0	  x0:0x00000000
       25995000	      2598	80001d1c	000ff633	and	x12,x31,x0	 x31:0xb3800000  x0:0x00000000 x12=0x00000000
       26005000	      2599	80001d20	00000013	addi	x0,x0,0	  x0:0x00000000
       26015000	      2600	80001d24	f0b83013	sltiu	x0,x16,-245	 x16:0x00000000
       26025000	      2601	80001d28	40c45f93	srai	x31,x8,0xc	  x8:0x80009fc4 x31=0xfff80009
       26035000	      2602	80001d2c	00d27663	bgeu	x4,x13,80001d38	  x4:0x004fe200 x13:0x00000022
       26045000	      2603	00000000	00000013	addi	x0,x0,0	  x0:0x00000000
       26055000	      2604	80001d34	00000013	addi	x0,x0,0	  x0:0x00000000
       26065000	      2605	80001d38	00607a63	bgeu	x0,x6,80001d4c	  x0:0x00000000  x6:0x4748e000
       26075000	      2606	80001d3c	017ef1b3	and	x3,x29,x23	 x29:0x00000001 x23:0x0000ffff  x3=0x00000001
       26085000	      2607	80001d40	0068de93	srli	x29,x17,0x6	 x17:0x00000001 x29=0x00000000
       26095000	      2608	80001d44	ad5ecd93	xori	x27,x29,-1323	 x29:0x00000000 x27=0xfffffad5
       26105000	      2609	80001d48	057c8863	beq	x25,x23,80001d98	 x25:0x00000000 x23:0x0000ffff
       26115000	      2610	80001d4c	0014a3b3	slt	x7,x9,x1	  x9:0x80001b6c  x1:0x80001bb4  x7=0x00000001
       26125000	      2611	80001d50	87f77117	auipc	x2,0x87f77	  x2=0x07f78d4c
       26135000	      2612	80001d54	0094b233	sltu	x4,x9,x9	  x9:0x80001b6c  x9:0x80001b6c  x4=0x00000000
       26145000	      2613	80001d58	04b06463	bltu	x0,x11,80001da0	  x0:0x00000000 x11:0x00000515
       26155000	      2614	00000000	00000013	addi	x0,x0,0	  x0:0x00000000
       26165000	      2615	80001d9c	00000013	addi	x0,x0,0	  x0:0x00000000
       26175000	      2616	80001da0	01dde263	bltu	x27,x29,80001da4	 x27:0xfffffad5 x29:0x00000000
       26185000	      2617	80001da4	01e06613	ori	x12,x0,30	  x0:0x00000000 x12=0x0000001e
       26195000	      2618	80001da8	18f47513	andi	x10,x8,399	  x8:0x80009fc4 x10=0x00000184
       26205000	      2619	80001dac	01211b33	sll	x22,x2,x18	  x2:0x07f78d4c x18:0x00000440 x22=0x07f78d4c
       26215000	      2620	80001db0	52d1a197	auipc	x3,0x52d1a	  x3=0xd2d1bdac
       26225000	      2621	80001db4	01b9dc33	srl	x24,x19,x27	 x19:0x80001b80 x27:0xfffffad5 x24=0x00000400
       26235000	      2622	80001db8	b644fc13	andi	x24,x9,-1180	  x9:0x80001b6c x24=0x80001b64
       26245000	      2623	80001dbc	4b24cf17	auipc	x30,0x4b24c	 x30=0xcb24ddb8
       26255000	      2624	80001dc0	b9f2bf93	sltiu	x31,x5,-1121	  x5:0xfffc0000 x31=0x00000001
       26265000	      2625	80001dc4	0071c7b3	xor	x15,x3,x7	  x3:0xd2d1bdac  x7:0x00000001 x15=0xd2d1bdad
       26275000	      2626	80001dc8	00f30033	add	x0,x6,x15	  x6:0x4748e000 x15:0xd2d1bdad
       26285000	      2627	80001dcc	8ecfaf93	slti	x31,x31,-1812	 x31:0x00000001 x31=0x00000000
       26295000	      2628	80001dd0	402ed713	srai	x14,x29,0x2	 x29:0x00000000 x14=0x00000000
       26305000	      2629	80001dd4	00e19c93	slli	x25,x3,0xe	  x3:0xd2d1bdac x25=0x6f6b0000
       26315000	      2630	80001dd8	390e3b93	sltiu	x23,x28,912	 x28:0x80009f84 x23=0x00000000
       26325000	      2631	80001ddc	02f54a63	blt	x10,x15,80001e10	 x10:0x00000184 x15:0xd2d1bdad
       26335000	      2632	80001de0	040e0663	beq	x28,x0,80001e2c	 x28:0x80009f84  x0:0x00000000
       26345000	      2633	80001de4	00f734b3	sltu	x9,x14,x15	 x14:0x00000000 x15:0xd2d1bdad  x9=0x00000001
       26355000	      2634	80001de8	f731d2b7	lui	x5,0xf731d	  x5=0xf731d000
       26365000	      2635	80001dec	003f39b3	sltu	x19,x30,x3	 x30:0xcb24ddb8  x3:0xd2d1bdac x19=0x00000001
       26375000	      2636	80001df0	0115d733	srl	x14,x11,x17	 x11:0x00000515 x17:0x00000001 x14=0x0000028a
       26385000	      2637	80001df4	0299ee63	bltu	x19,x9,80001e30	 x19:0x00000001  x9:0x00000001
       26395000	      2638	80001df8	0164e8b3	or	x17,x9,x22	  x9:0x00000001 x22:0x07f78d4c x17=0x07f78d4d
       26405000	      2639	80001dfc	2feef313	andi	x6,x29,766	 x29:0x00000000  x6=0x00000000
       26415000	      2640	80001e00	01739393	slli	x7,x7,0x17	  x7:0x00000001  x7=0x00800000
       26425000	      2641	80001e04	00c426b3	slt	x13,x8,x12	  x8:0x80009fc4 x12:0x0000001e x13=0x00000001
       26435000	      2642	80001e08	d03da013	slti	x0,x27,-765	 x27:0xfffffad5
       26445000	      2643	80001e0c	78bec513	xori	x10,x29,1931	 x29:0x00000000 x10=0x0000078b
       26455000	      2644	80001e10	13423b13	sltiu	x22,x4,308	  x4:0x00000000 x22=0x00000001
       26465000	      2645	80001e14	01632033	slt	x0,x6,x22	  x6:0x00000000 x22:0x00000001
       26475000	      2646	80001e18	40ad5333	sra	x6,x26,x10	 x26:0x00000000 x10:0x0000078b  x6=0x00000000
       26485000	      2647	80001e1c	02479863	bne	x15,x4,80001e4c	 x15:0xd2d1bdad  x4:0x00000000
       26495000	      2648	00000000	00000013	addi	x0,x0,0	  x0:0x00000000
       26505000	      2649	80001e48	00000013	addi	x0,x0,0	  x0:0x00000000
       26515000	      2650	80001e4c	3c900613	addi	x12,x0,969	  x0:0x00000000 x12=0x000003c9
       26525000	      2651	80001e50	d9f33a13	sltiu	x20,x6,-609	  x6:0x00000000 x20=0x00000001
       26535000	      2652	80001e54	017165b3	or	x11,x2,x23	  x2:0x07f78d4c x23:0x00000000 x11=0x07f78d4c
       26545000	      2653	80001e58	019b2d33	slt	x26,x22,x25	 x22:0x00000001 x25:0x6f6b0000 x26=0x00000001
       26555000	      2654	80001e5c	0006ca63	blt	x13,x0,80001e70	 x13:0x00000001  x0:0x00000000
       26565000	      2655	80001e60	0087ce63	blt	x15,x8,80001e7c	 x15:0xd2d1bdad  x8:0x80009fc4
       26575000	      2656	80001e64	03e74c63	blt	x14,x30,80001e9c	 x14:0x0000028a x30:0xcb24ddb8
       26585000	      2657	80001e68	01f5dcb3	srl	x25,x11,x31	 x11:0x07f78d4c x31:0x00000000 x25=0x07f78d4c
       26595000	      2658	80001e6c	0174b3b3	sltu	x7,x9,x23	  x9:0x00000001 x23:0x00000000  x7=0x00000000
       26605000	      2659	80001e70	412d5313	srai	x6,x26,0x12	 x26:0x00000001  x6=0x00000000
       26615000	      2660	80001e74	0287da63	bge	x15,x8,80001ea8	 x15:0xd2d1bdad  x8:0x80009fc4
       26625000	      2661	00000000	00000013	addi	x0,x0,0	  x0:0x00000000
       26635000	      2662	80001ea4	00000013	addi	x0,x0,0	  x0:0x00000000
       26645000	      2663	80001ea8	0184e863	bltu	x9,x24,80001eb8	  x9:0x00000001 x24:0x80001b64
       26655000	      2664	00000000	00000013	addi	x0,x0,0	  x0:0x00000000
       26665000	      2665	80001eb4	00000013	addi	x0,x0,0	  x0:0x00000000
       26675000	      2666	80001eb8	0d989663	bne	x17,x25,80001f84	 x17:0x07f78d4d x25:0x07f78d4c
       26685000	      2667	00000000	00000013	addi	x0,x0,0	  x0:0x00000000
       26695000	      2668	80001f80	00000013	addi	x0,x0,0	  x0:0x00000000
       26705000	      2669	80001f84	01667033	and	x0,x12,x22	 x12:0x000003c9 x22:0x00000001
       26715000	      2670	80001f88	016d5313	srli	x6,x26,0x16	 x26:0x00000001  x6=0x00000000
       26725000	      2671	80001f8c	04365863	bge	x12,x3,80001fdc	 x12:0x000003c9  x3:0xd2d1bdac
       26735000	      2672	00000000	00000013	addi	x0,x0,0	  x0:0x00000000
       26745000	      2673	80001fd8	00000013	addi	x0,x0,0	  x0:0x00000000
       26755000	      2674	80001fdc	200e8893	addi	x17,x29,512	 x29:0x00000000 x17=0x00000200
       26765000	      2675	80001fe0	01b2a133	slt	x2,x5,x27	  x5:0xf731d000 x27:0xfffffad5  x2=0x00000001
       26775000	      2676	80001fe4	000a0fb3	add	x31,x20,x0	 x20:0x00000001  x0:0x00000000 x31=0x00000001
       26785000	      2677	80001fe8	40f281b3	sub	x3,x5,x15	  x5:0xf731d000 x15:0xd2d1bdad  x3=0x24601253
       26795000	      2678	80001fec	00000013	addi	x0,x0,0	  x0:0x00000000
       26805000	      2679	80001ff0	4b91e493	ori	x9,x3,1209	  x3:0x24601253  x9=0x246016fb
       26815000	      2680	80001ff4	006f5a63	bge	x30,x6,80002008	 x30:0xcb24ddb8  x6:0x00000000
       26825000	      2681	80001ff8	00f96633	or	x12,x18,x15	 x18:0x00000440 x15:0xd2d1bdad x12=0xd2d1bded
       26835000	      2682	80001ffc	ca8bb393	sltiu	x7,x23,-856	 x23:0x00000000  x7=0x00000001
       26845000	      2683	80002000	009715b3	sll	x11,x14,x9	 x14:0x0000028a  x9:0x246016fb x11=0x50000000
       26855000	      2684	80002004	3b6fc113	xori	x2,x31,950	 x31:0x00000001  x2=0x000003b7
       26865000	      2685	80002008	f365ea13	ori	x20,x11,-202	 x11:0x50000000 x20=0xffffff36
       26875000	      2686	8000200c	5daa2013	slti	x0,x20,1498	 x20:0xffffff36
       26885000	      2687	80002010	c0cd4693	xori	x13,x26,-1012	 x26:0x00000001 x13=0xfffffc0d
       26895000	      2688	80002014	416b87b3	sub	x15,x23,x22	 x23:0x00000000 x22:0x00000001 x15=0xffffffff
       26905000	      2689	80002018	40ce0fb3	sub	x31,x28,x12	 x28:0x80009f84 x12:0xd2d1bded x31=0xad2ee197
       26915000	      2690	8000201c	01c5fe63	bgeu	x11,x28,80002038	 x11:0x50000000 x28:0x80009f84
       26925000	      2691	80002020	0dffa713	slti	x14,x31,223	 x31:0xad2ee197 x14=0x00000001
       26935000	      2692	80002024	033d8063	beq	x27,x19,80002044	 x27:0xfffffad5 x19:0x00000001
       26945000	      2693	80002028	055ac863	blt	x21,x21,80002078	 x21:0x00000001 x21:0x00000001
       26955000	      2694	8000202c	cb697b13	andi	x22,x18,-842	 x18:0x00000440 x22=0x00000400
       26965000	      2695	80002030	001cf933	and	x18,x25,x1	 x25:0x07f78d4c  x1:0x80001bb4 x18=0x00000904
       26975000	      2696	80002034	00a791b3	sll	x3,x15,x10	 x15:0xffffffff x10:0x0000078b  x3=0xfffff800
       26985000	      2697	80002038	0154b1b3	sltu	x3,x9,x21	  x9:0x246016fb x21:0x00000001  x3=0x00000000
       26995000	      2698	8000203c	008fdbb3	srl	x23,x31,x8	 x31:0xad2ee197  x8:0x80009fc4 x23=0x0ad2ee19
       27005000	      2699	80002040	49fe2113	slti	x2,x28,1183	 x28:0x80009f84  x2=0x00000001
       27015000	      2700	80002044	00e61d13	slli	x26,x12,0xe	 x12:0xd2d1bded x26=0x6f7b4000
       27025000	      2701	80002048	403bdf33	sra	x30,x23,x3	 x23:0x0ad2ee19  x3:0x00000000 x30=0x0ad2ee19
       27035000	      2702	8000204c	01fa1233	sll	x4,x20,x31	 x20:0xffffff36 x31:0xad2ee197  x4=0x9b000000
       27045000	      2703	80002050	01e45533	srl	x10,x8,x30	  x8:0x80009fc4 x30:0x0ad2ee19 x10=0x00000040
       27055000	      2704	80002054	059ec263	blt	x29,x25,80002098	 x29:0x00000000 x25:0x07f78d4c
       27065000	      2705	00000000	00000013	addi	x0,x0,0	  x0:0x00000000
       27075000	      2706	80002094	00000013	addi	x0,x0,0	  x0:0x00000000
       27085000	      2707	80002098	417300b3	sub	x1,x6,x23	  x6:0x00000000 x23:0x0ad2ee19  x1=0xf52d11e7
       27095000	      2708	8000209c	00e98b33	add	x22,x19,x14	 x19:0x00000001 x14:0x00000001 x22=0x00000002
       27105000	      2709	800020a0	0025d193	srli	x3,x11,0x2	 x11:0x50000000  x3=0x14000000
       27115000	      2710	800020a4	00000013	addi	x0,x0,0	  x0:0x00000000
       27125000	      2711	800020a8	41bfdeb3	sra	x29,x31,x27	 x31:0xad2ee197 x27:0xfffffad5 x29=0xfffffd69
       27135000	      2712	800020ac	00bc5663	bge	x24,x11,800020b8	 x24:0x80001b64 x11:0x50000000
       27145000	      2713	800020b0	023fc263	blt	x31,x3,800020d4	 x31:0xad2ee197  x3:0x14000000
       27155000	      2714	00000000	00000013	addi	x0,x0,0	  x0:0x00000000
       27165000	      2715	800020d0	00000013	addi	x0,x0,0	  x0:0x00000000
       27175000	      2716	800020d4	8a69bb93	sltiu	x23,x19,-1882	 x19:0x00000001 x23=0x00000001
       27185000	      2717	800020d8	c96a0a93	addi	x21,x20,-874	 x20:0xffffff36 x21=0xfffffbcc
       27195000	      2718	800020dc	03b41c63	bne	x8,x27,80002114	  x8:0x80009fc4 x27:0xfffffad5
       27205000	      2719	00000000	00000013	addi	x0,x0,0	  x0:0x00000000
       27215000	      2720	80002110	00000013	addi	x0,x0,0	  x0:0x00000000
       27225000	      2721	80002114	01875863	bge	x14,x24,80002124	 x14:0x00000001 x24:0x80001b64
       27235000	      2722	00000000	00000013	addi	x0,x0,0	  x0:0x00000000
       27245000	      2723	80002120	00000013	addi	x0,x0,0	  x0:0x00000000
       27255000	      2724	80002124	0174fcb3	and	x25,x9,x23	  x9:0x246016fb x23:0x00000001 x25=0x00000001
       27265000	      2725	80002128	01625f13	srli	x30,x4,0x16	  x4:0x9b000000 x30=0x0000026c
       27275000	      2726	8000212c	c03bda97	auipc	x21,0xc03bd	 x21=0x403bf128
       27285000	      2727	80002130	180fedb7	lui	x27,0x180fe	 x27=0x180fe000
       27295000	      2728	80002134	925b3a93	sltiu	x21,x22,-1755	 x22:0x00000002 x21=0x00000001
       27305000	      2729	80002138	0470d663	bge	x1,x7,80002184	  x1:0xf52d11e7  x7:0x00000001
       27315000	      2730	8000213c	4a037913	andi	x18,x6,1184	  x6:0x00000000 x18=0x00000000
       27325000	      2731	80002140	e9a98993	addi	x19,x19,-358	 x19:0x00000001 x19=0xfffffe9b
       27335000	      2732	80002144	135a0e93	addi	x29,x20,309	 x20:0xffffff36 x29=0x0000006b
       27345000	      2733	80002148	01e2da63	bge	x5,x30,8000215c	  x5:0xf731d000 x30:0x0000026c
       27355000	      2734	8000214c	003f08b3	add	x17,x30,x3	 x30:0x0000026c  x3:0x14000000 x17=0x1400026c
       27365000	      2735	80002150	01d5dc93	srli	x25,x11,0x1d	 x11:0x50000000 x25=0x00000002
       27375000	      2736	80002154	01a554b3	srl	x9,x10,x26	 x10:0x00000040 x26:0x6f7b4000  x9=0x00000040
       27385000	      2737	80002158	0133c033	xor	x0,x7,x19	  x7:0x00000001 x19:0xfffffe9b
       27395000	      2738	8000215c	46dc3493	sltiu	x9,x24,1133	 x24:0x80001b64  x9=0x00000000
       27405000	      2739	80002160	00281f33	sll	x30,x16,x2	 x16:0x00000000  x2:0x00000001 x30=0x00000000
       27415000	      2740	80002164	00341a63	bne	x8,x3,80002178	  x8:0x80009fc4  x3:0x14000000
       27425000	      2741	00000000	00000013	addi	x0,x0,0	  x0:0x00000000
       27435000	      2742	80002174	00000013	addi	x0,x0,0	  x0:0x00000000
       27445000	      2743	80002178	016ada93	srli	x21,x21,0x16	 x21:0x00000001 x21=0x00000000
       27455000	      2744	8000217c	004a5e63	bge	x20,x4,80002198	 x20:0xffffff36  x4:0x9b000000
       27465000	      2745	00000000	00000013	addi	x0,x0,0	  x0:0x00000000
       27475000	      2746	80002194	00000013	addi	x0,x0,0	  x0:0x00000000
       27485000	      2747	80002198	40fdd033	sra	x0,x27,x15	 x27:0x180fe000 x15:0xffffffff
       27495000	      2748	8000219c	00357e63	bgeu	x10,x3,800021b8	 x10:0x00000040  x3:0x14000000
       27505000	      2749	800021a0	00000013	addi	x0,x0,0	  x0:0x00000000
       27515000	      2750	800021a4	9a67ea93	ori	x21,x15,-1626	 x15:0xffffffff x21=0xffffffff
       27525000	      2751	800021a8	87d3c593	xori	x11,x7,-1923	  x7:0x00000001 x11=0xfffff87c
       27535000	      2752	800021ac	a9773113	sltiu	x2,x14,-1385	 x14:0x00000001  x2=0x00000001
       27545000	      2753	800021b0	00b79d33	sll	x26,x15,x11	 x15:0xffffffff x11:0xfffff87c x26=0xf0000000
       27555000	      2754	800021b4	00ab5a13	srli	x20,x22,0xa	 x22:0x00000002 x20=0x00000000
       27565000	      2755	800021b8	30c62993	slti	x19,x12,780	 x12:0xd2d1bded x19=0x00000001
       27575000	      2756	800021bc	b60d79b7	lui	x19,0xb60d7	 x19=0xb60d7000
       27585000	      2757	800021c0	00000013	addi	x0,x0,0	  x0:0x00000000
       27595000	      2758	800021c4	03d87063	bgeu	x16,x29,800021e4	 x16:0x00000000 x29:0x0000006b
       27605000	      2759	800021c8	011bb033	sltu	x0,x23,x17	 x23:0x00000001 x17:0x1400026c
       27615000	      2760	800021cc	fece7a13	andi	x20,x28,-20	 x28:0x80009f84 x20=0x80009f84
       27625000	      2761	800021d0	01499713	slli	x14,x19,0x14	 x19:0xb60d7000 x14=0x00000000
       27635000	      2762	800021d4	01706463	bltu	x0,x23,800021dc	  x0:0x00000000 x23:0x00000001
       27645000	      2763	00000000	00000013	addi	x0,x0,0	  x0:0x00000000
       27655000	      2764	800021d8	00000013	addi	x0,x0,0	  x0:0x00000000
       27665000	      2765	800021dc	024f4f93	xori	x31,x30,36	 x30:0x00000000 x31=0x00000024
       27675000	      2766	800021e0	005aea33	or	x20,x21,x5	 x21:0xffffffff  x5:0xf731d000 x20=0xffffffff
       27685000	      2767	800021e4	03466063	bltu	x12,x20,80002204	 x12:0xd2d1bded x20:0xffffffff
       27695000	      2768	00000000	00000013	addi	x0,x0,0	  x0:0x00000000
       27705000	      2769	80002200	00000013	addi	x0,x0,0	  x0:0x00000000
       27715000	      2770	80002204	01b990b3	sll	x1,x19,x27	 x19:0xb60d7000 x27:0x180fe000  x1=0xb60d7000
       27725000	      2771	80002208	ff2a7d93	andi	x27,x20,-14	 x20:0xffffffff x27=0xfffffff2
       27735000	      2772	8000220c	0a810613	addi	x12,x2,168	  x2:0x00000001 x12=0x000000a9
       27745000	      2773	80002210	00363d33	sltu	x26,x12,x3	 x12:0x000000a9  x3:0x14000000 x26=0x00000001
       27755000	      2774	80002214	012f4863	blt	x30,x18,80002224	 x30:0x00000000 x18:0x00000000
       27765000	      2775	80002218	00688333	add	x6,x17,x6	 x17:0x1400026c  x6:0x00000000  x6=0x1400026c
       27775000	      2776	8000221c	024b8a63	beq	x23,x4,80002250	 x23:0x00000001  x4:0x9b000000
       27785000	      2777	80002220	01b9d213	srli	x4,x19,0x1b	 x19:0xb60d7000  x4=0x00000016
       27795000	      2778	80002224	41cddab3	sra	x21,x27,x28	 x27:0xfffffff2 x28:0x80009f84 x21=0xffffffff
       27805000	      2779	80002228	001bee63	bltu	x23,x1,80002244	 x23:0x00000001  x1:0xb60d7000
       27815000	      2780	00000000	00000013	addi	x0,x0,0	  x0:0x00000000
       27825000	      2781	80002240	00000013	addi	x0,x0,0	  x0:0x00000000
       27835000	      2782	80002244	40675c93	srai	x25,x14,0x6	 x14:0x00000000 x25=0x00000000
       27845000	      2783	80002248	91796b93	ori	x23,x18,-1769	 x18:0x00000000 x23=0xfffff917
       27855000	      2784	8000224c	413e0033	sub	x0,x28,x19	 x28:0x80009f84 x19:0xb60d7000
       27865000	      2785	80002250	03c59663	bne	x11,x28,8000227c	 x11:0xfffff87c x28:0x80009f84
       27875000	      2786	00000000	00000013	addi	x0,x0,0	  x0:0x00000000
       27885000	      2787	80002278	00000013	addi	x0,x0,0	  x0:0x00000000
       27895000	      2788	8000227c	01f50d33	add	x26,x10,x31	 x10:0x00000040 x31:0x00000024 x26=0x00000064
       27905000	      2789	80002280	014591b3	sll	x3,x11,x20	 x11:0xfffff87c x20:0xffffffff  x3=0x00000000
       27915000	      2790	80002284	04be4263	blt	x28,x11,800022c8	 x28:0x80009f84 x11:0xfffff87c
       27925000	      2791	00000000	00000013	addi	x0,x0,0	  x0:0x00000000
       27935000	      2792	800022c4	00000013	addi	x0,x0,0	  x0:0x00000000
       27945000	      2793	800022c8	01a50d33	add	x26,x10,x26	 x10:0x00000040 x26:0x00000064 x26=0x000000a4
       27955000	      2794	800022cc	0006bdb3	sltu	x27,x13,x0	 x13:0xfffffc0d  x0:0x00000000 x27=0x00000000
       27965000	      2795	800022d0	01cbc733	xor	x14,x23,x28	 x23:0xfffff917 x28:0x80009f84 x14=0x7fff6693
       27975000	      2796	800022d4	0175fd33	and	x26,x11,x23	 x11:0xfffff87c x23:0xfffff917 x26=0xfffff814
       27985000	      2797	800022d8	561ebe93	sltiu	x29,x29,1377	 x29:0x0000006b x29=0x00000001
       27995000	      2798	800022dc	413a5313	srai	x6,x20,0x13	 x20:0xffffffff  x6=0xffffffff
       28005000	      2799	800022e0	002704b3	add	x9,x14,x2	 x14:0x7fff6693  x2:0x00000001  x9=0x7fff6694
       28015000	      2800	800022e4	02914e63	blt	x2,x9,80002320	  x2:0x00000001  x9:0x7fff6694
       28025000	      2801	00000000	00000013	addi	x0,x0,0	  x0:0x00000000
       28035000	      2802	8000231c	00000013	addi	x0,x0,0	  x0:0x00000000
       28045000	      2803	80002320	40098bb3	sub	x23,x19,x0	 x19:0xb60d7000  x0:0x00000000 x23=0xb60d7000
       28055000	      2804	80002324	400f5c13	srai	x24,x30,0x0	 x30:0x00000000 x24=0x00000000
       28065000	      2805	80002328	b8634213	xori	x4,x6,-1146	  x6:0xffffffff  x4=0x00000479
       28075000	      2806	8000232c	036f8663	beq	x31,x22,80002358	 x31:0x00000024 x22:0x00000002
       28085000	      2807	80002330	04ce8463	beq	x29,x12,80002378	 x29:0x00000001 x12:0x000000a9
       28095000	      2808	80002334	00000013	addi	x0,x0,0	  x0:0x00000000
       28105000	      2809	80002338	00c24e63	blt	x4,x12,80002354	  x4:0x00000479 x12:0x000000a9
       28115000	      2810	8000233c	f2eb8b13	addi	x22,x23,-210	 x23:0xb60d7000 x22=0xb60d6f2e
       28125000	      2811	80002340	04a9d663	bge	x19,x10,8000238c	 x19:0xb60d7000 x10:0x00000040
       28135000	      2812	80002344	311e0693	addi	x13,x28,785	 x28:0x80009f84 x13=0x8000a295
       28145000	      2813	80002348	e3bc4b37	lui	x22,0xe3bc4	 x22=0xe3bc4000
       28155000	      2814	8000234c	0294e063	bltu	x9,x9,8000236c	  x9:0x7fff6694  x9:0x7fff6694
       28165000	      2815	80002350	004aca63	blt	x21,x4,80002364	 x21:0xffffffff  x4:0x00000479
       28175000	      2816	00000000	00000013	addi	x0,x0,0	  x0:0x00000000
       28185000	      2817	80002360	00000013	addi	x0,x0,0	  x0:0x00000000
       28195000	      2818	80002364	189b2213	slti	x4,x22,393	 x22:0xe3bc4000  x4=0x00000001
       28205000	      2819	80002368	000b0233	add	x4,x22,x0	 x22:0xe3bc4000  x0:0x00000000  x4=0xe3bc4000
       28215000	      2820	8000236c	052c0863	beq	x24,x18,800023bc	 x24:0x00000000 x18:0x00000000
       28225000	      2821	00000000	00000013	addi	x0,x0,0	  x0:0x00000000
       28235000	      2822	800023b8	00000013	addi	x0,x0,0	  x0:0x00000000
       28245000	      2823	800023bc	d4aaeb93	ori	x23,x21,-694	 x21:0xffffffff x23=0xffffffff
       28255000	      2824	800023c0	1d81bb93	sltiu	x23,x3,472	  x3:0x00000000 x23=0x00000001
       28265000	      2825	800023c4	000a8a33	add	x20,x21,x0	 x21:0xffffffff  x0:0x00000000 x20=0xffffffff
       28275000	      2826	800023c8	db813a93	sltiu	x21,x2,-584	  x2:0x00000001 x21=0x00000001
       28285000	      2827	800023cc	02ca1a63	bne	x20,x12,80002400	 x20:0xffffffff x12:0x000000a9
       28295000	      2828	00000000	00000013	addi	x0,x0,0	  x0:0x00000000
       28305000	      2829	800023fc	00000013	addi	x0,x0,0	  x0:0x00000000
       28315000	      2830	80002400	011aec33	or	x24,x21,x17	 x21:0x00000001 x17:0x1400026c x24=0x1400026d
       28325000	      2831	80002404	cfa60213	addi	x4,x12,-774	 x12:0x000000a9  x4=0xfffffda3
       28335000	      2832	80002408	5d94e297	auipc	x5,0x5d94e	  x5=0xdd950404
       28345000	      2833	8000240c	01301733	sll	x14,x0,x19	  x0:0x00000000 x19:0xb60d7000 x14=0x00000000
       28355000	      2834	80002410	01934f33	xor	x30,x6,x25	  x6:0xffffffff x25:0x00000000 x30=0xffffffff
       28365000	      2835	80002414	5d2fb093	sltiu	x1,x31,1490	 x31:0x00000024  x1=0x00000001
       28375000	      2836	80002418	2cd80b93	addi	x23,x16,717	 x16:0x00000000 x23=0x000002cd
       28385000	      2837	8000241c	03d88a63	beq	x17,x29,80002450	 x17:0x1400026c x29:0x00000001
       28395000	      2838	80002420	00000013	addi	x0,x0,0	  x0:0x00000000
       28405000	      2839	80002424	4181df33	sra	x30,x3,x24	  x3:0x00000000 x24:0x1400026d x30=0x00000000
       28415000	      2840	80002428	525e8793	addi	x15,x29,1317	 x29:0x00000001 x15=0x00000526
       28425000	      2841	8000242c	018b6db3	or	x27,x22,x24	 x22:0xe3bc4000 x24:0x1400026d x27=0xf7bc426d
       28435000	      2842	80002430	052dc463	blt	x27,x18,80002478	 x27:0xf7bc426d x18:0x00000000
       28445000	      2843	00000000	00000013	addi	x0,x0,0	  x0:0x00000000
       28455000	      2844	80002474	00000013	addi	x0,x0,0	  x0:0x00000000
       28465000	      2845	80002478	4015df33	sra	x30,x11,x1	 x11:0xfffff87c  x1:0x00000001 x30=0xfffffc3e
       28475000	      2846	8000247c	01edee63	bltu	x27,x30,80002498	 x27:0xf7bc426d x30:0xfffffc3e
       28485000	      2847	00000000	00000013	addi	x0,x0,0	  x0:0x00000000
       28495000	      2848	80002494	00000013	addi	x0,x0,0	  x0:0x00000000
       28505000	      2849	80002498	00174e63	blt	x14,x1,800024b4	 x14:0x00000000  x1:0x00000001
       28515000	      2850	00000000	00000013	addi	x0,x0,0	  x0:0x00000000
       28525000	      2851	800024b0	00000013	addi	x0,x0,0	  x0:0x00000000
       28535000	      2852	800024b4	010822b3	slt	x5,x16,x16	 x16:0x00000000 x16:0x00000000  x5=0x00000000
       28545000	      2853	800024b8	01687533	and	x10,x16,x22	 x16:0x00000000 x22:0xe3bc4000 x10=0x00000000
       28555000	      2854	800024bc	00e1e0b3	or	x1,x3,x14	  x3:0x00000000 x14:0x00000000  x1=0x00000000
       28565000	      2855	800024c0	4fe64b93	xori	x23,x12,1278	 x12:0x000000a9 x23=0x00000457
       28575000	      2856	800024c4	011e92b3	sll	x5,x29,x17	 x29:0x00000001 x17:0x1400026c  x5=0x00001000
       28585000	      2857	800024c8	60efc493	xori	x9,x31,1550	 x31:0x00000024  x9=0x0000062a
       28595000	      2858	800024cc	01a54c33	xor	x24,x10,x26	 x10:0x00000000 x26:0xfffff814 x24=0xfffff814
       28605000	      2859	800024d0	c77fdd97	auipc	x27,0xc77fd	 x27=0x477ff4cc
       28615000	      2860	800024d4	00c5dc93	srli	x25,x11,0xc	 x11:0xfffff87c x25=0x000fffff
       28625000	      2861	800024d8	00002797	auipc	x15,0x2	 x15=0x800044d4
       28635000	      2862	800024dc	c2078793	addi	x15,x15,-992	 x15:0x800044d4 x15=0x800040f4
       28645000	      2863	800024e0	37cce293	ori	x5,x25,892	 x25:0x000fffff  x5=0x000fffff
       28655000	      2864	800024e4	412088b3	sub	x17,x1,x18	  x1:0x00000000 x18:0x00000000 x17=0x00000000
       28665000	      2865	800024e8	404901b3	sub	x3,x18,x4	 x18:0x00000000  x4:0xfffffda3  x3=0x0000025d
       28675000	      2866	800024ec	00fd23b3	slt	x7,x26,x15	 x26:0xfffff814 x15:0x800040f4  x7=0x00000000
       28685000	      2867	800024f0	d7478793	addi	x15,x15,-652	 x15:0x800040f4 x15=0x80003e68
       28695000	      2868	800024f4	41a35ab3	sra	x21,x6,x26	  x6:0xffffffff x26:0xfffff814 x21=0xffffffff
       28705000	      2869	800024f8	418454b3	sra	x9,x8,x24	  x8:0x80009fc4 x24:0xfffff814  x9=0xfffff800
       28715000	      2870	800024fc	00aada33	srl	x20,x21,x10	 x21:0xffffffff x10:0x00000000 x20=0xffffffff
       28725000	      2871	80002500	00526663	bltu	x4,x5,8000250c	  x4:0xfffffda3  x5:0x000fffff
       28735000	      2872	80002504	01b05eb3	srl	x29,x0,x27	  x0:0x00000000 x27:0x477ff4cc x29=0x00000000
       28745000	      2873	80002508	00002133	slt	x2,x0,x0	  x0:0x00000000  x0:0x00000000  x2=0x00000000
       28755000	      2874	8000250c	28c78c67	jalr	x24,x15,652	 x15:0x80003e68 x24=0x8000250c
       28765000	      2875	00000000	00000013	addi	x0,x0,0	  x0:0x00000000
       28775000	      2876	800040f4	00000013	addi	x0,x0,0	  x0:0x00000000
       28785000	      2877	800040f8	01efacb3	slt	x25,x31,x30	 x31:0x00000024 x30:0xfffffc3e x25=0x00000000
       28795000	      2878	800040fc	01cf8533	add	x10,x31,x28	 x31:0x00000024 x28:0x80009f84 x10=0x80009fa8
       28805000	      2879	80004100	01de5113	srli	x2,x28,0x1d	 x28:0x80009f84  x2=0x00000004
       28815000	      2880	80004104	fc0e0e13	addi	x28,x28,-64	 x28:0x80009f84 x28=0x80009f44
       28825000	      2881	80004108	bb720093	addi	x1,x4,-1097	  x4:0xfffffda3  x1=0xfffff95a
       28835000	      2882	8000410c	74a63b13	sltiu	x22,x12,1866	 x12:0x000000a9 x22=0x00000001
       28845000	      2883	80004110	01d332b3	sltu	x5,x6,x29	  x6:0xffffffff x29:0x00000000  x5=0x00000000
       28855000	      2884	80004114	0158a1b3	slt	x3,x17,x21	 x17:0x00000000 x21:0xffffffff  x3=0x00000000
       28865000	      2885	80004118	401b8033	sub	x0,x23,x1	 x23:0x00000457  x1:0xfffff95a
       28875000	      2886	8000411c	018e2223	sw	x24,4(x28)	 x28:0x80009f44 x24:0x8000250c PA:0x80009f48
       28885000	      2887	80004120	a3892a93	slti	x21,x18,-1480	 x18:0x00000000 x21=0x00000000
       28895000	      2888	80004124	00d4d4b3	srl	x9,x9,x13	  x9:0xfffff800 x13:0x8000a295  x9=0x000007ff
       28905000	      2889	80004128	ffffef17	auipc	x30,0xffffe	 x30=0x80002124
       28915000	      2890	8000412c	478f0f13	addi	x30,x30,1144	 x30:0x80002124 x30=0x8000259c
       28925000	      2891	80004130	00fd1db3	sll	x27,x26,x15	 x26:0xfffff814 x15:0x80003e68 x27=0xfff81400
       28935000	      2892	80004134	0e6f0f13	addi	x30,x30,230	 x30:0x8000259c x30=0x80002682
       28945000	      2893	80004138	918da013	slti	x0,x27,-1768	 x27:0xfff81400
       28955000	      2894	8000413c	224a3893	sltiu	x17,x20,548	 x20:0xffffffff x17=0x00000000
       28965000	      2895	80004140	41995d13	srai	x26,x18,0x19	 x18:0x00000000 x26=0x00000000
       28975000	      2896	80004144	7c5d4117	auipc	x2,0x7c5d4	  x2=0xfc5d8140
       28985000	      2897	80004148	f1bf0c67	jalr	x24,x30,-229	 x30:0x80002682 x24=0x80004148
       28995000	      2898	00000000	00000013	addi	x0,x0,0	  x0:0x00000000
       29005000	      2899	8000259c	00000013	addi	x0,x0,0	  x0:0x00000000
       29015000	      2900	800025a0	fcce0e13	addi	x28,x28,-52	 x28:0x80009f44 x28=0x80009f10
       29025000	      2901	800025a4	416e5593	srai	x11,x28,0x16	 x28:0x80009f10 x11=0xfffffe00
       29035000	      2902	800025a8	91df8f93	addi	x31,x31,-1763	 x31:0x00000024 x31=0xfffff941
       29045000	      2903	800025ac	018e2223	sw	x24,4(x28)	 x28:0x80009f10 x24:0x80004148 PA:0x80009f14
       29055000	      2904	800025b0	40215fb3	sra	x31,x2,x2	  x2:0xfc5d8140  x2:0xfc5d8140 x31=0xfc5d8140
       29065000	      2905	800025b4	018af9b3	and	x19,x21,x24	 x21:0x00000000 x24:0x80004148 x19=0x00000000
       29075000	      2906	800025b8	00b2f3b3	and	x7,x5,x11	  x5:0x00000000 x11:0xfffffe00  x7=0x00000000
       29085000	      2907	800025bc	417a5e93	srai	x29,x20,0x17	 x20:0xffffffff x29=0xffffffff
       29095000	      2908	800025c0	01e11b33	sll	x22,x2,x30	  x2:0xfc5d8140 x30:0x80002682 x22=0xf1760500
       29105000	      2909	800025c4	9aad89b7	lui	x19,0x9aad8	 x19=0x9aad8000
       29115000	      2910	800025c8	c3424313	xori	x6,x4,-972	  x4:0xfffffda3  x6=0x00000197
       29125000	      2911	800025cc	00c9a133	slt	x2,x19,x12	 x19:0x9aad8000 x12:0x000000a9  x2=0x00000001
       29135000	      2912	800025d0	e60c3b13	sltiu	x22,x24,-416	 x24:0x80004148 x22=0x00000001
       29145000	      2913	800025d4	0478b713	sltiu	x14,x17,71	 x17:0x00000000 x14=0x00000001
       29155000	      2914	800025d8	01295663	bge	x18,x18,800025e4	 x18:0x00000000 x18:0x00000000
       29165000	      2915	00000000	00000013	addi	x0,x0,0	  x0:0x00000000
       29175000	      2916	800025e0	00000013	addi	x0,x0,0	  x0:0x00000000
       29185000	      2917	800025e4	44000c6f	jal	x24,800025e4	 x24=0x800025e4
       29195000	      2918	00000000	00000013	addi	x0,x0,0	  x0:0x00000000
       29205000	      2919	80002a20	00000013	addi	x0,x0,0	  x0:0x00000000
       29215000	      2920	80002a24	002509b3	add	x19,x10,x2	 x10:0x80009fa8  x2:0x00000001 x19=0x80009fa9
       29225000	      2921	80002a28	d5aa3897	auipc	x17,0xd5aa3	 x17=0x55aa5a24
       29235000	      2922	80002a2c	769cfa17	auipc	x20,0x769cf	 x20=0xf69d1a28
       29245000	      2923	80002a30	01d86263	bltu	x16,x29,80002a34	 x16:0x00000000 x29:0xffffffff
       29255000	      2924	00000000	00000013	addi	x0,x0,0	  x0:0x00000000
       29265000	      2925	80002a30	00000013	addi	x0,x0,0	  x0:0x00000000
       29275000	      2926	80002a34	fdce0e13	addi	x28,x28,-36	 x28:0x80009f10 x28=0x80009eec
       29285000	      2927	80002a38	a8da2213	slti	x4,x20,-1395	 x20:0xf69d1a28  x4=0x00000001
       29295000	      2928	80002a3c	50667093	andi	x1,x12,1286	 x12:0x000000a9  x1=0x00000000
       29305000	      2929	80002a40	008ac233	xor	x4,x21,x8	 x21:0x00000000  x8:0x80009fc4  x4=0x80009fc4
       29315000	      2930	80002a44	0191da33	srl	x20,x3,x25	  x3:0x00000000 x25:0x00000000 x20=0x00000000
       29325000	      2931	80002a48	018e2223	sw	x24,4(x28)	 x28:0x80009eec x24:0x800025e4 PA:0x80009ef0
       29335000	      2932	80002a4c	c2546913	ori	x18,x8,-987	  x8:0x80009fc4 x18=0xffffffe5
       29345000	      2933	80002a50	00800c6f	jal	x24,80002a50	 x24=0x80002a50
       29355000	      2934	00000000	00000013	addi	x0,x0,0	  x0:0x00000000
       29365000	      2935	80002a54	00000013	addi	x0,x0,0	  x0:0x00000000
       29375000	      2936	80002a58	01c00cef	jal	x25,80002a58	 x25=0x80002a58
       29385000	      2937	00000000	00000013	addi	x0,x0,0	  x0:0x00000000
       29395000	      2938	80002a70	00000013	addi	x0,x0,0	  x0:0x00000000
       29405000	      2939	80002a74	00c0036f	jal	x6,80002a74	  x6=0x80002a74
       29415000	      2940	00000000	00000013	addi	x0,x0,0	  x0:0x00000000
       29425000	      2941	80002a7c	00000013	addi	x0,x0,0	  x0:0x00000000
       29435000	      2942	80002a80	fe9ff0ef	jal	x1,80002a80	  x1=0x80002a80
       29445000	      2943	00000000	00000013	addi	x0,x0,0	  x0:0x00000000
       29455000	      2944	80002a64	00000013	addi	x0,x0,0	  x0:0x00000000
       29465000	      2945	80002a68	ff9ff36f	jal	x6,80002a68	  x6=0x80002a68
       29475000	      2946	00000000	00000013	addi	x0,x0,0	  x0:0x00000000
       29485000	      2947	80002a5c	00000013	addi	x0,x0,0	  x0:0x00000000
       29495000	      2948	80002a60	010000ef	jal	x1,80002a60	  x1=0x80002a60
       29505000	      2949	00000000	00000013	addi	x0,x0,0	  x0:0x00000000
       29515000	      2950	80002a6c	00000013	addi	x0,x0,0	  x0:0x00000000
       29525000	      2951	80002a70	ffdff36f	jal	x6,80002a70	  x6=0x80002a70
       29535000	      2952	00000000	00000013	addi	x0,x0,0	  x0:0x00000000
       29545000	      2953	80002a68	00000013	addi	x0,x0,0	  x0:0x00000000
       29555000	      2954	80002a6c	00c00cef	jal	x25,80002a6c	 x25=0x80002a6c
       29565000	      2955	00000000	00000013	addi	x0,x0,0	  x0:0x00000000
       29575000	      2956	80002a74	00000013	addi	x0,x0,0	  x0:0x00000000
       29585000	      2957	80002a78	004000ef	jal	x1,80002a78	  x1=0x80002a78
       29595000	      2958	00000000	00000013	addi	x0,x0,0	  x0:0x00000000
       29605000	      2959	80002a78	00000013	addi	x0,x0,0	  x0:0x00000000
       29615000	      2960	80002a7c	00800def	jal	x27,80002a7c	 x27=0x80002a7c
       29625000	      2961	00000000	00000013	addi	x0,x0,0	  x0:0x00000000
       29635000	      2962	80002a80	00000013	addi	x0,x0,0	  x0:0x00000000
       29645000	      2963	80002a84	fd9fff6f	jal	x30,80002a84	 x30=0x80002a84
       29655000	      2964	00000000	00000013	addi	x0,x0,0	  x0:0x00000000
       29665000	      2965	80002a58	00000013	addi	x0,x0,0	  x0:0x00000000
       29675000	      2966	80002a5c	ff9ff56f	jal	x10,80002a5c	 x10=0x80002a5c
       29685000	      2967	00000000	00000013	addi	x0,x0,0	  x0:0x00000000
       29695000	      2968	80002a50	00000013	addi	x0,x0,0	  x0:0x00000000
       29705000	      2969	80002a54	010000ef	jal	x1,80002a54	  x1=0x80002a54
       29715000	      2970	00000000	00000013	addi	x0,x0,0	  x0:0x00000000
       29725000	      2971	80002a60	00000013	addi	x0,x0,0	  x0:0x00000000
       29735000	      2972	80002a64	0240026f	jal	x4,80002a64	  x4=0x80002a64
       29745000	      2973	00000000	00000013	addi	x0,x0,0	  x0:0x00000000
       29755000	      2974	80002a84	00000013	addi	x0,x0,0	  x0:0x00000000
       29765000	      2975	80002a88	ca584097	auipc	x1,0xca584	  x1=0x4a586a84
       29775000	      2976	80002a8c	04c00c6f	jal	x24,80002a8c	 x24=0x80002a8c
       29785000	      2977	00000000	00000013	addi	x0,x0,0	  x0:0x00000000
       29795000	      2978	80002ad4	00000013	addi	x0,x0,0	  x0:0x00000000
       29805000	      2979	80002ad8	018007ef	jal	x15,80002ad8	 x15=0x80002ad8
       29815000	      2980	00000000	00000013	addi	x0,x0,0	  x0:0x00000000
       29825000	      2981	80002aec	00000013	addi	x0,x0,0	  x0:0x00000000
       29835000	      2982	80002af0	0040096f	jal	x18,80002af0	 x18=0x80002af0
       29845000	      2983	00000000	00000013	addi	x0,x0,0	  x0:0x00000000
       29855000	      2984	80002af0	00000013	addi	x0,x0,0	  x0:0x00000000
       29865000	      2985	80002af4	008000ef	jal	x1,80002af4	  x1=0x80002af4
       29875000	      2986	00000000	00000013	addi	x0,x0,0	  x0:0x00000000
       29885000	      2987	80002af8	00000013	addi	x0,x0,0	  x0:0x00000000
       29895000	      2988	80002afc	fd1ff0ef	jal	x1,80002afc	  x1=0x80002afc
       29905000	      2989	00000000	00000013	addi	x0,x0,0	  x0:0x00000000
       29915000	      2990	80002ac8	00000013	addi	x0,x0,0	  x0:0x00000000
       29925000	      2991	80002acc	fe9ff36f	jal	x6,80002acc	  x6=0x80002acc
       29935000	      2992	00000000	00000013	addi	x0,x0,0	  x0:0x00000000
       29945000	      2993	80002ab0	00000013	addi	x0,x0,0	  x0:0x00000000
       29955000	      2994	80002ab4	ffdff26f	jal	x4,80002ab4	  x4=0x80002ab4
       29965000	      2995	00000000	00000013	addi	x0,x0,0	  x0:0x00000000
       29975000	      2996	80002aac	00000013	addi	x0,x0,0	  x0:0x00000000
       29985000	      2997	80002ab0	fe9ffbef	jal	x23,80002ab0	 x23=0x80002ab0
       29995000	      2998	00000000	00000013	addi	x0,x0,0	  x0:0x00000000
       30005000	      2999	80002a94	00000013	addi	x0,x0,0	  x0:0x00000000
       30015000	      3000	80002a98	038001ef	jal	x3,80002a98	  x3=0x80002a98
       30025000	      3001	00000000	00000013	addi	x0,x0,0	  x0:0x00000000
       30035000	      3002	80002acc	00000013	addi	x0,x0,0	  x0:0x00000000
       30045000	      3003	80002ad0	0140036f	jal	x6,80002ad0	  x6=0x80002ad0
       30055000	      3004	00000000	00000013	addi	x0,x0,0	  x0:0x00000000
       30065000	      3005	80002ae0	00000013	addi	x0,x0,0	  x0:0x00000000
       30075000	      3006	80002ae4	004000ef	jal	x1,80002ae4	  x1=0x80002ae4
       30085000	      3007	00000000	00000013	addi	x0,x0,0	  x0:0x00000000
       30095000	      3008	80002ae4	00000013	addi	x0,x0,0	  x0:0x00000000
       30105000	      3009	80002ae8	fc5ff0ef	jal	x1,80002ae8	  x1=0x80002ae8
       30115000	      3010	00000000	00000013	addi	x0,x0,0	  x0:0x00000000
       30125000	      3011	80002aa8	00000013	addi	x0,x0,0	  x0:0x00000000
       30135000	      3012	80002aac	04c00bef	jal	x23,80002aac	 x23=0x80002aac
       30145000	      3013	00000000	00000013	addi	x0,x0,0	  x0:0x00000000
       30155000	      3014	80002af4	00000013	addi	x0,x0,0	  x0:0x00000000
       30165000	      3015	80002af8	f99ff5ef	jal	x11,80002af8	 x11=0x80002af8
       30175000	      3016	00000000	00000013	addi	x0,x0,0	  x0:0x00000000
       30185000	      3017	80002a8c	00000013	addi	x0,x0,0	  x0:0x00000000
       30195000	      3018	80002a90	010000ef	jal	x1,80002a90	  x1=0x80002a90
       30205000	      3019	00000000	00000013	addi	x0,x0,0	  x0:0x00000000
       30215000	      3020	80002a9c	00000013	addi	x0,x0,0	  x0:0x00000000
       30225000	      3021	80002aa0	04c000ef	jal	x1,80002aa0	  x1=0x80002aa0
       30235000	      3022	00000000	00000013	addi	x0,x0,0	  x0:0x00000000
       30245000	      3023	80002ae8	00000013	addi	x0,x0,0	  x0:0x00000000
       30255000	      3024	80002aec	fb9ff36f	jal	x6,80002aec	  x6=0x80002aec
       30265000	      3025	00000000	00000013	addi	x0,x0,0	  x0:0x00000000
       30275000	      3026	80002aa0	00000013	addi	x0,x0,0	  x0:0x00000000
       30285000	      3027	80002aa4	ff9ff36f	jal	x6,80002aa4	  x6=0x80002aa4
       30295000	      3028	00000000	00000013	addi	x0,x0,0	  x0:0x00000000
       30305000	      3029	80002a98	00000013	addi	x0,x0,0	  x0:0x00000000
       30315000	      3030	80002a9c	024001ef	jal	x3,80002a9c	  x3=0x80002a9c
       30325000	      3031	00000000	00000013	addi	x0,x0,0	  x0:0x00000000
       30335000	      3032	80002abc	00000013	addi	x0,x0,0	  x0:0x00000000
       30345000	      3033	80002ac0	020000ef	jal	x1,80002ac0	  x1=0x80002ac0
       30355000	      3034	00000000	00000013	addi	x0,x0,0	  x0:0x00000000
       30365000	      3035	80002adc	00000013	addi	x0,x0,0	  x0:0x00000000
       30375000	      3036	80002ae0	fe9ff36f	jal	x6,80002ae0	  x6=0x80002ae0
       30385000	      3037	00000000	00000013	addi	x0,x0,0	  x0:0x00000000
       30395000	      3038	80002ac4	00000013	addi	x0,x0,0	  x0:0x00000000
       30405000	      3039	80002ac8	ff5ff36f	jal	x6,80002ac8	  x6=0x80002ac8
       30415000	      3040	00000000	00000013	addi	x0,x0,0	  x0:0x00000000
       30425000	      3041	80002ab8	00000013	addi	x0,x0,0	  x0:0x00000000
       30435000	      3042	80002abc	ffdff0ef	jal	x1,80002abc	  x1=0x80002abc
       30445000	      3043	00000000	00000013	addi	x0,x0,0	  x0:0x00000000
       30455000	      3044	80002ab4	00000013	addi	x0,x0,0	  x0:0x00000000
       30465000	      3045	80002ab8	01c000ef	jal	x1,80002ab8	  x1=0x80002ab8
       30475000	      3046	00000000	00000013	addi	x0,x0,0	  x0:0x00000000
       30485000	      3047	80002ad0	00000013	addi	x0,x0,0	  x0:0x00000000
       30495000	      3048	80002ad4	ff1ff0ef	jal	x1,80002ad4	  x1=0x80002ad4
       30505000	      3049	00000000	00000013	addi	x0,x0,0	  x0:0x00000000
       30515000	      3050	80002ac0	00000013	addi	x0,x0,0	  x0:0x00000000
       30525000	      3051	80002ac4	018000ef	jal	x1,80002ac4	  x1=0x80002ac4
       30535000	      3052	00000000	00000013	addi	x0,x0,0	  x0:0x00000000
       30545000	      3053	80002ad8	00000013	addi	x0,x0,0	  x0:0x00000000
       30555000	      3054	80002adc	fcdff36f	jal	x6,80002adc	  x6=0x80002adc
       30565000	      3055	00000000	00000013	addi	x0,x0,0	  x0:0x00000000
       30575000	      3056	80002aa4	00000013	addi	x0,x0,0	  x0:0x00000000
       30585000	      3057	80002aa8	fedff0ef	jal	x1,80002aa8	  x1=0x80002aa8
       30595000	      3058	00000000	00000013	addi	x0,x0,0	  x0:0x00000000
       30605000	      3059	80002a90	00000013	addi	x0,x0,0	  x0:0x00000000
       30615000	      3060	80002a94	06c000ef	jal	x1,80002a94	  x1=0x80002a94
       30625000	      3061	00000000	00000013	addi	x0,x0,0	  x0:0x00000000
       30635000	      3062	80002afc	00000013	addi	x0,x0,0	  x0:0x00000000
       30645000	      3063	80002b00	f9edea13	ori	x20,x27,-98	 x27:0x80002a7c x20=0xfffffffe
       30655000	      3064	80002b04	02400c6f	jal	x24,80002b04	 x24=0x80002b04
       30665000	      3065	00000000	00000013	addi	x0,x0,0	  x0:0x00000000
       30675000	      3066	80002b24	00000013	addi	x0,x0,0	  x0:0x00000000
       30685000	      3067	80002b28	028000ef	jal	x1,80002b28	  x1=0x80002b28
       30695000	      3068	00000000	00000013	addi	x0,x0,0	  x0:0x00000000
       30705000	      3069	80002b4c	00000013	addi	x0,x0,0	  x0:0x00000000
       30715000	      3070	80002b50	ffdff0ef	jal	x1,80002b50	  x1=0x80002b50
       30725000	      3071	00000000	00000013	addi	x0,x0,0	  x0:0x00000000
       30735000	      3072	80002b48	00000013	addi	x0,x0,0	  x0:0x00000000
       30745000	      3073	80002b4c	fe5ff0ef	jal	x1,80002b4c	  x1=0x80002b4c
       30755000	      3074	00000000	00000013	addi	x0,x0,0	  x0:0x00000000
       30765000	      3075	80002b2c	00000013	addi	x0,x0,0	  x0:0x00000000
       30775000	      3076	80002b30	ffdff0ef	jal	x1,80002b30	  x1=0x80002b30
       30785000	      3077	00000000	00000013	addi	x0,x0,0	  x0:0x00000000
       30795000	      3078	80002b28	00000013	addi	x0,x0,0	  x0:0x00000000
       30805000	      3079	80002b2c	01800eef	jal	x29,80002b2c	 x29=0x80002b2c
       30815000	      3080	00000000	00000013	addi	x0,x0,0	  x0:0x00000000
       30825000	      3081	80002b40	00000013	addi	x0,x0,0	  x0:0x00000000
       30835000	      3082	80002b44	fddff3ef	jal	x7,80002b44	  x7=0x80002b44
       30845000	      3083	00000000	00000013	addi	x0,x0,0	  x0:0x00000000
       30855000	      3084	80002b1c	00000013	addi	x0,x0,0	  x0:0x00000000
       30865000	      3085	80002b20	ff1ff4ef	jal	x9,80002b20	  x9=0x80002b20
       30875000	      3086	00000000	00000013	addi	x0,x0,0	  x0:0x00000000
       30885000	      3087	80002b0c	00000013	addi	x0,x0,0	  x0:0x00000000
       30895000	      3088	80002b10	024000ef	jal	x1,80002b10	  x1=0x80002b10
       30905000	      3089	00000000	00000013	addi	x0,x0,0	  x0:0x00000000
       30915000	      3090	80002b30	00000013	addi	x0,x0,0	  x0:0x00000000
       30925000	      3091	80002b34	014000ef	jal	x1,80002b34	  x1=0x80002b34
       30935000	      3092	00000000	00000013	addi	x0,x0,0	  x0:0x00000000
       30945000	      3093	80002b44	00000013	addi	x0,x0,0	  x0:0x00000000
       30955000	      3094	80002b48	ff9ff0ef	jal	x1,80002b48	  x1=0x80002b48
       30965000	      3095	00000000	00000013	addi	x0,x0,0	  x0:0x00000000
       30975000	      3096	80002b3c	00000013	addi	x0,x0,0	  x0:0x00000000
       30985000	      3097	80002b40	fcdffcef	jal	x25,80002b40	 x25=0x80002b40
       30995000	      3098	00000000	00000013	addi	x0,x0,0	  x0:0x00000000
       31005000	      3099	80002b08	00000013	addi	x0,x0,0	  x0:0x00000000
       31015000	      3100	80002b0c	05c0036f	jal	x6,80002b0c	  x6=0x80002b0c
       31025000	      3101	00000000	00000013	addi	x0,x0,0	  x0:0x00000000
       31035000	      3102	80002b64	00000013	addi	x0,x0,0	  x0:0x00000000
       31045000	      3103	80002b68	ff9ff7ef	jal	x15,80002b68	 x15=0x80002b68
       31055000	      3104	00000000	00000013	addi	x0,x0,0	  x0:0x00000000
       31065000	      3105	80002b5c	00000013	addi	x0,x0,0	  x0:0x00000000
       31075000	      3106	80002b60	fd9ff0ef	jal	x1,80002b60	  x1=0x80002b60
       31085000	      3107	00000000	00000013	addi	x0,x0,0	  x0:0x00000000
       31095000	      3108	80002b34	00000013	addi	x0,x0,0	  x0:0x00000000
       31105000	      3109	80002b38	01c0036f	jal	x6,80002b38	  x6=0x80002b38
       31115000	      3110	00000000	00000013	addi	x0,x0,0	  x0:0x00000000
       31125000	      3111	80002b50	00000013	addi	x0,x0,0	  x0:0x00000000
       31135000	      3112	80002b54	fb5ff0ef	jal	x1,80002b54	  x1=0x80002b54
       31145000	      3113	00000000	00000013	addi	x0,x0,0	  x0:0x00000000
       31155000	      3114	80002b04	00000013	addi	x0,x0,0	  x0:0x00000000
       31165000	      3115	80002b08	00c000ef	jal	x1,80002b08	  x1=0x80002b08
       31175000	      3116	00000000	00000013	addi	x0,x0,0	  x0:0x00000000
       31185000	      3117	80002b10	00000013	addi	x0,x0,0	  x0:0x00000000
       31195000	      3118	80002b14	00800b6f	jal	x22,80002b14	 x22=0x80002b14
       31205000	      3119	00000000	00000013	addi	x0,x0,0	  x0:0x00000000
       31215000	      3120	80002b18	00000013	addi	x0,x0,0	  x0:0x00000000
       31225000	      3121	80002b1c	048004ef	jal	x9,80002b1c	  x9=0x80002b1c
       31235000	      3122	00000000	00000013	addi	x0,x0,0	  x0:0x00000000
       31245000	      3123	80002b60	00000013	addi	x0,x0,0	  x0:0x00000000
       31255000	      3124	80002b64	fd9ff0ef	jal	x1,80002b64	  x1=0x80002b64
       31265000	      3125	00000000	00000013	addi	x0,x0,0	  x0:0x00000000
       31275000	      3126	80002b38	00000013	addi	x0,x0,0	  x0:0x00000000
       31285000	      3127	80002b3c	020006ef	jal	x13,80002b3c	 x13=0x80002b3c
       31295000	      3128	00000000	00000013	addi	x0,x0,0	  x0:0x00000000
       31305000	      3129	80002b58	00000013	addi	x0,x0,0	  x0:0x00000000
       31315000	      3130	80002b5c	ffdff9ef	jal	x19,80002b5c	 x19=0x80002b5c
       31325000	      3131	00000000	00000013	addi	x0,x0,0	  x0:0x00000000
       31335000	      3132	80002b54	00000013	addi	x0,x0,0	  x0:0x00000000
       31345000	      3133	80002b58	fcdff8ef	jal	x17,80002b58	 x17=0x80002b58
       31355000	      3134	00000000	00000013	addi	x0,x0,0	  x0:0x00000000
       31365000	      3135	80002b20	00000013	addi	x0,x0,0	  x0:0x00000000
       31375000	      3136	80002b24	ff5ff0ef	jal	x1,80002b24	  x1=0x80002b24
       31385000	      3137	00000000	00000013	addi	x0,x0,0	  x0:0x00000000
       31395000	      3138	80002b14	00000013	addi	x0,x0,0	  x0:0x00000000
       31405000	      3139	80002b18	054000ef	jal	x1,80002b18	  x1=0x80002b18
       31415000	      3140	00000000	00000013	addi	x0,x0,0	  x0:0x00000000
       31425000	      3141	80002b68	00000013	addi	x0,x0,0	  x0:0x00000000
       31435000	      3142	80002b6c	00aa9213	slli	x4,x21,0xa	 x21:0x00000000  x4=0x00000000
       31445000	      3143	80002b70	03c00c6f	jal	x24,80002b70	 x24=0x80002b70
       31455000	      3144	00000000	00000013	addi	x0,x0,0	  x0:0x00000000
       31465000	      3145	80002ba8	00000013	addi	x0,x0,0	  x0:0x00000000
       31475000	      3146	80002bac	fd1ff8ef	jal	x17,80002bac	 x17=0x80002bac
       31485000	      3147	00000000	00000013	addi	x0,x0,0	  x0:0x00000000
       31495000	      3148	80002b78	00000013	addi	x0,x0,0	  x0:0x00000000
       31505000	      3149	80002b7c	0400016f	jal	x2,80002b7c	  x2=0x80002b7c
       31515000	      3150	00000000	00000013	addi	x0,x0,0	  x0:0x00000000
       31525000	      3151	80002bb8	00000013	addi	x0,x0,0	  x0:0x00000000
       31535000	      3152	80002bbc	fbdff36f	jal	x6,80002bbc	  x6=0x80002bbc
       31545000	      3153	00000000	00000013	addi	x0,x0,0	  x0:0x00000000
       31555000	      3154	80002b74	00000013	addi	x0,x0,0	  x0:0x00000000
       31565000	      3155	80002b78	014000ef	jal	x1,80002b78	  x1=0x80002b78
       31575000	      3156	00000000	00000013	addi	x0,x0,0	  x0:0x00000000
       31585000	      3157	80002b88	00000013	addi	x0,x0,0	  x0:0x00000000
       31595000	      3158	80002b8c	fe9ff66f	jal	x12,80002b8c	 x12=0x80002b8c
       31605000	      3159	00000000	00000013	addi	x0,x0,0	  x0:0x00000000
       31615000	      3160	80002b70	00000013	addi	x0,x0,0	  x0:0x00000000
       31625000	      3161	80002b74	010000ef	jal	x1,80002b74	  x1=0x80002b74
       31635000	      3162	00000000	00000013	addi	x0,x0,0	  x0:0x00000000
       31645000	      3163	80002b80	00000013	addi	x0,x0,0	  x0:0x00000000
       31655000	      3164	80002b84	030000ef	jal	x1,80002b84	  x1=0x80002b84
       31665000	      3165	00000000	00000013	addi	x0,x0,0	  x0:0x00000000
       31675000	      3166	80002bb0	00000013	addi	x0,x0,0	  x0:0x00000000
       31685000	      3167	80002bb4	ff5ff36f	jal	x6,80002bb4	  x6=0x80002bb4
       31695000	      3168	00000000	00000013	addi	x0,x0,0	  x0:0x00000000
       31705000	      3169	80002ba4	00000013	addi	x0,x0,0	  x0:0x00000000
       31715000	      3170	80002ba8	ff5ff4ef	jal	x9,80002ba8	  x9=0x80002ba8
       31725000	      3171	00000000	00000013	addi	x0,x0,0	  x0:0x00000000
       31735000	      3172	80002b98	00000013	addi	x0,x0,0	  x0:0x00000000
       31745000	      3173	80002b9c	01c000ef	jal	x1,80002b9c	  x1=0x80002b9c
       31755000	      3174	00000000	00000013	addi	x0,x0,0	  x0:0x00000000
       31765000	      3175	80002bb4	00000013	addi	x0,x0,0	  x0:0x00000000
       31775000	      3176	80002bb8	fe9ff0ef	jal	x1,80002bb8	  x1=0x80002bb8
       31785000	      3177	00000000	00000013	addi	x0,x0,0	  x0:0x00000000
       31795000	      3178	80002b9c	00000013	addi	x0,x0,0	  x0:0x00000000
       31805000	      3179	80002ba0	ff1ff0ef	jal	x1,80002ba0	  x1=0x80002ba0
       31815000	      3180	00000000	00000013	addi	x0,x0,0	  x0:0x00000000
       31825000	      3181	80002b8c	00000013	addi	x0,x0,0	  x0:0x00000000
       31835000	      3182	80002b90	034000ef	jal	x1,80002b90	  x1=0x80002b90
       31845000	      3183	00000000	00000013	addi	x0,x0,0	  x0:0x00000000
       31855000	      3184	80002bc0	00000013	addi	x0,x0,0	  x0:0x00000000
       31865000	      3185	80002bc4	fd5ff36f	jal	x6,80002bc4	  x6=0x80002bc4
       31875000	      3186	00000000	00000013	addi	x0,x0,0	  x0:0x00000000
       31885000	      3187	80002b94	00000013	addi	x0,x0,0	  x0:0x00000000
       31895000	      3188	80002b98	fe9ff0ef	jal	x1,80002b98	  x1=0x80002b98
       31905000	      3189	00000000	00000013	addi	x0,x0,0	  x0:0x00000000
       31915000	      3190	80002b7c	00000013	addi	x0,x0,0	  x0:0x00000000
       31925000	      3191	80002b80	008000ef	jal	x1,80002b80	  x1=0x80002b80
       31935000	      3192	00000000	00000013	addi	x0,x0,0	  x0:0x00000000
       31945000	      3193	80002b84	00000013	addi	x0,x0,0	  x0:0x00000000
       31955000	      3194	80002b88	01c000ef	jal	x1,80002b88	  x1=0x80002b88
       31965000	      3195	00000000	00000013	addi	x0,x0,0	  x0:0x00000000
       31975000	      3196	80002ba0	00000013	addi	x0,x0,0	  x0:0x00000000
       31985000	      3197	80002ba4	ff1ff0ef	jal	x1,80002ba4	  x1=0x80002ba4
       31995000	      3198	00000000	00000013	addi	x0,x0,0	  x0:0x00000000
       32005000	      3199	80002b90	00000013	addi	x0,x0,0	  x0:0x00000000
       32015000	      3200	80002b94	02c0036f	jal	x6,80002b94	  x6=0x80002b94
       32025000	      3201	00000000	00000013	addi	x0,x0,0	  x0:0x00000000
       32035000	      3202	80002bbc	00000013	addi	x0,x0,0	  x0:0x00000000
       32045000	      3203	80002bc0	ff1fff6f	jal	x30,80002bc0	 x30=0x80002bc0
       32055000	      3204	00000000	00000013	addi	x0,x0,0	  x0:0x00000000
       32065000	      3205	80002bac	00000013	addi	x0,x0,0	  x0:0x00000000
       32075000	      3206	80002bb0	018000ef	jal	x1,80002bb0	  x1=0x80002bb0
       32085000	      3207	00000000	00000013	addi	x0,x0,0	  x0:0x00000000
       32095000	      3208	80002bc4	00000013	addi	x0,x0,0	  x0:0x00000000
       32105000	      3209	80002bc8	49d47993	andi	x19,x8,1181	  x8:0x80009fc4 x19=0x00000484
       32115000	      3210	80002bcc	02000c6f	jal	x24,80002bcc	 x24=0x80002bcc
       32125000	      3211	00000000	00000013	addi	x0,x0,0	  x0:0x00000000
       32135000	      3212	80002be8	00000013	addi	x0,x0,0	  x0:0x00000000
       32145000	      3213	80002bec	ff5ff36f	jal	x6,80002bec	  x6=0x80002bec
       32155000	      3214	00000000	00000013	addi	x0,x0,0	  x0:0x00000000
       32165000	      3215	80002bdc	00000013	addi	x0,x0,0	  x0:0x00000000
       32175000	      3216	80002be0	ff1ff36f	jal	x6,80002be0	  x6=0x80002be0
       32185000	      3217	00000000	00000013	addi	x0,x0,0	  x0:0x00000000
       32195000	      3218	80002bcc	00000013	addi	x0,x0,0	  x0:0x00000000
       32205000	      3219	80002bd0	004000ef	jal	x1,80002bd0	  x1=0x80002bd0
       32215000	      3220	00000000	00000013	addi	x0,x0,0	  x0:0x00000000
       32225000	      3221	80002bd0	00000013	addi	x0,x0,0	  x0:0x00000000
       32235000	      3222	80002bd4	02c0076f	jal	x14,80002bd4	 x14=0x80002bd4
       32245000	      3223	00000000	00000013	addi	x0,x0,0	  x0:0x00000000
       32255000	      3224	80002bfc	00000013	addi	x0,x0,0	  x0:0x00000000
       32265000	      3225	80002c00	ff1ff36f	jal	x6,80002c00	  x6=0x80002c00
       32275000	      3226	00000000	00000013	addi	x0,x0,0	  x0:0x00000000
       32285000	      3227	80002bec	00000013	addi	x0,x0,0	  x0:0x00000000
       32295000	      3228	80002bf0	fe9ff0ef	jal	x1,80002bf0	  x1=0x80002bf0
       32305000	      3229	00000000	00000013	addi	x0,x0,0	  x0:0x00000000
       32315000	      3230	80002bd4	00000013	addi	x0,x0,0	  x0:0x00000000
       32325000	      3231	80002bd8	024000ef	jal	x1,80002bd8	  x1=0x80002bd8
       32335000	      3232	00000000	00000013	addi	x0,x0,0	  x0:0x00000000
       32345000	      3233	80002bf8	00000013	addi	x0,x0,0	  x0:0x00000000
       32355000	      3234	80002bfc	fe9ff0ef	jal	x1,80002bfc	  x1=0x80002bfc
       32365000	      3235	00000000	00000013	addi	x0,x0,0	  x0:0x00000000
       32375000	      3236	80002be0	00000013	addi	x0,x0,0	  x0:0x00000000
       32385000	      3237	80002be4	020000ef	jal	x1,80002be4	  x1=0x80002be4
       32395000	      3238	00000000	00000013	addi	x0,x0,0	  x0:0x00000000
       32405000	      3239	80002c00	00000013	addi	x0,x0,0	  x0:0x00000000
       32415000	      3240	80002c04	ff5ff0ef	jal	x1,80002c04	  x1=0x80002c04
       32425000	      3241	00000000	00000013	addi	x0,x0,0	  x0:0x00000000
       32435000	      3242	80002bf4	00000013	addi	x0,x0,0	  x0:0x00000000
       32445000	      3243	80002bf8	ffdff26f	jal	x4,80002bf8	  x4=0x80002bf8
       32455000	      3244	00000000	00000013	addi	x0,x0,0	  x0:0x00000000
       32465000	      3245	80002bf0	00000013	addi	x0,x0,0	  x0:0x00000000
       32475000	      3246	80002bf4	fe9ff0ef	jal	x1,80002bf4	  x1=0x80002bf4
       32485000	      3247	00000000	00000013	addi	x0,x0,0	  x0:0x00000000
       32495000	      3248	80002bd8	00000013	addi	x0,x0,0	  x0:0x00000000
       32505000	      3249	80002bdc	00c0036f	jal	x6,80002bdc	  x6=0x80002bdc
       32515000	      3250	00000000	00000013	addi	x0,x0,0	  x0:0x00000000
       32525000	      3251	80002be4	00000013	addi	x0,x0,0	  x0:0x00000000
       32535000	      3252	80002be8	020000ef	jal	x1,80002be8	  x1=0x80002be8
       32545000	      3253	00000000	00000013	addi	x0,x0,0	  x0:0x00000000
       32555000	      3254	80002c04	00000013	addi	x0,x0,0	  x0:0x00000000
       32565000	      3255	80002c08	00000013	addi	x0,x0,0	  x0:0x00000000
       32575000	      3256	80002c0c	00400c6f	jal	x24,80002c0c	 x24=0x80002c0c
       32585000	      3257	00000000	00000013	addi	x0,x0,0	  x0:0x00000000
       32595000	      3258	80002c0c	00000013	addi	x0,x0,0	  x0:0x00000000
       32605000	      3259	80002c10	024001ef	jal	x3,80002c10	  x3=0x80002c10
       32615000	      3260	00000000	00000013	addi	x0,x0,0	  x0:0x00000000
       32625000	      3261	80002c30	00000013	addi	x0,x0,0	  x0:0x00000000
       32635000	      3262	80002c34	ff5ff0ef	jal	x1,80002c34	  x1=0x80002c34
       32645000	      3263	00000000	00000013	addi	x0,x0,0	  x0:0x00000000
       32655000	      3264	80002c24	00000013	addi	x0,x0,0	  x0:0x00000000
       32665000	      3265	80002c28	008000ef	jal	x1,80002c28	  x1=0x80002c28
       32675000	      3266	00000000	00000013	addi	x0,x0,0	  x0:0x00000000
       32685000	      3267	80002c2c	00000013	addi	x0,x0,0	  x0:0x00000000
       32695000	      3268	80002c30	ffdff36f	jal	x6,80002c30	  x6=0x80002c30
       32705000	      3269	00000000	00000013	addi	x0,x0,0	  x0:0x00000000
       32715000	      3270	80002c28	00000013	addi	x0,x0,0	  x0:0x00000000
       32725000	      3271	80002c2c	ff1ff0ef	jal	x1,80002c2c	  x1=0x80002c2c
       32735000	      3272	00000000	00000013	addi	x0,x0,0	  x0:0x00000000
       32745000	      3273	80002c18	00000013	addi	x0,x0,0	  x0:0x00000000
       32755000	      3274	80002c1c	008002ef	jal	x5,80002c1c	  x5=0x80002c1c
       32765000	      3275	00000000	00000013	addi	x0,x0,0	  x0:0x00000000
       32775000	      3276	80002c20	00000013	addi	x0,x0,0	  x0:0x00000000
       32785000	      3277	80002c24	ffdff2ef	jal	x5,80002c24	  x5=0x80002c24
       32795000	      3278	00000000	00000013	addi	x0,x0,0	  x0:0x00000000
       32805000	      3279	80002c1c	00000013	addi	x0,x0,0	  x0:0x00000000
       32815000	      3280	80002c20	ff5ff0ef	jal	x1,80002c20	  x1=0x80002c20
       32825000	      3281	00000000	00000013	addi	x0,x0,0	  x0:0x00000000
       32835000	      3282	80002c10	00000013	addi	x0,x0,0	  x0:0x00000000
       32845000	      3283	80002c14	0040036f	jal	x6,80002c14	  x6=0x80002c14
       32855000	      3284	00000000	00000013	addi	x0,x0,0	  x0:0x00000000
       32865000	      3285	80002c14	00000013	addi	x0,x0,0	  x0:0x00000000
       32875000	      3286	80002c18	020002ef	jal	x5,80002c18	  x5=0x80002c18
       32885000	      3287	00000000	00000013	addi	x0,x0,0	  x0:0x00000000
       32895000	      3288	80002c34	00000013	addi	x0,x0,0	  x0:0x00000000
       32905000	      3289	80002c38	01aa0ab3	add	x21,x20,x26	 x20:0xfffffffe x26:0x00000000 x21=0xfffffffe
       32915000	      3290	80002c3c	00c00c6f	jal	x24,80002c3c	 x24=0x80002c3c
       32925000	      3291	00000000	00000013	addi	x0,x0,0	  x0:0x00000000
       32935000	      3292	80002c44	00000013	addi	x0,x0,0	  x0:0x00000000
       32945000	      3293	80002c48	028000ef	jal	x1,80002c48	  x1=0x80002c48
       32955000	      3294	00000000	00000013	addi	x0,x0,0	  x0:0x00000000
       32965000	      3295	80002c6c	00000013	addi	x0,x0,0	  x0:0x00000000
       32975000	      3296	80002c70	008001ef	jal	x3,80002c70	  x3=0x80002c70
       32985000	      3297	00000000	00000013	addi	x0,x0,0	  x0:0x00000000
       32995000	      3298	80002c74	00000013	addi	x0,x0,0	  x0:0x00000000
       33005000	      3299	80002c78	fcdff36f	jal	x6,80002c78	  x6=0x80002c78
       33015000	      3300	00000000	00000013	addi	x0,x0,0	  x0:0x00000000
       33025000	      3301	80002c40	00000013	addi	x0,x0,0	  x0:0x00000000
       33035000	      3302	80002c44	010000ef	jal	x1,80002c44	  x1=0x80002c44
       33045000	      3303	00000000	00000013	addi	x0,x0,0	  x0:0x00000000
       33055000	      3304	80002c50	00000013	addi	x0,x0,0	  x0:0x00000000
       33065000	      3305	80002c54	00c0016f	jal	x2,80002c54	  x2=0x80002c54
       33075000	      3306	00000000	00000013	addi	x0,x0,0	  x0:0x00000000
       33085000	      3307	80002c5c	00000013	addi	x0,x0,0	  x0:0x00000000
       33095000	      3308	80002c60	ffdff0ef	jal	x1,80002c60	  x1=0x80002c60
       33105000	      3309	00000000	00000013	addi	x0,x0,0	  x0:0x00000000
       33115000	      3310	80002c58	00000013	addi	x0,x0,0	  x0:0x00000000
       33125000	      3311	80002c5c	0200036f	jal	x6,80002c5c	  x6=0x80002c5c
       33135000	      3312	00000000	00000013	addi	x0,x0,0	  x0:0x00000000
       33145000	      3313	80002c78	00000013	addi	x0,x0,0	  x0:0x00000000
       33155000	      3314	80002c7c	fd1ff66f	jal	x12,80002c7c	 x12=0x80002c7c
       33165000	      3315	00000000	00000013	addi	x0,x0,0	  x0:0x00000000
       33175000	      3316	80002c48	00000013	addi	x0,x0,0	  x0:0x00000000
       33185000	      3317	80002c4c	0180036f	jal	x6,80002c4c	  x6=0x80002c4c
       33195000	      3318	00000000	00000013	addi	x0,x0,0	  x0:0x00000000
       33205000	      3319	80002c60	00000013	addi	x0,x0,0	  x0:0x00000000
       33215000	      3320	80002c64	ff5ff0ef	jal	x1,80002c64	  x1=0x80002c64
       33225000	      3321	00000000	00000013	addi	x0,x0,0	  x0:0x00000000
       33235000	      3322	80002c54	00000013	addi	x0,x0,0	  x0:0x00000000
       33245000	      3323	80002c58	01000d6f	jal	x26,80002c58	 x26=0x80002c58
       33255000	      3324	00000000	00000013	addi	x0,x0,0	  x0:0x00000000
       33265000	      3325	80002c64	00000013	addi	x0,x0,0	  x0:0x00000000
       33275000	      3326	80002c68	004000ef	jal	x1,80002c68	  x1=0x80002c68
       33285000	      3327	00000000	00000013	addi	x0,x0,0	  x0:0x00000000
       33295000	      3328	80002c68	00000013	addi	x0,x0,0	  x0:0x00000000
       33305000	      3329	80002c6c	fd5ff0ef	jal	x1,80002c6c	  x1=0x80002c6c
       33315000	      3330	00000000	00000013	addi	x0,x0,0	  x0:0x00000000
       33325000	      3331	80002c3c	00000013	addi	x0,x0,0	  x0:0x00000000
       33335000	      3332	80002c40	010000ef	jal	x1,80002c40	  x1=0x80002c40
       33345000	      3333	00000000	00000013	addi	x0,x0,0	  x0:0x00000000
       33355000	      3334	80002c4c	00000013	addi	x0,x0,0	  x0:0x00000000
       33365000	      3335	80002c50	024000ef	jal	x1,80002c50	  x1=0x80002c50
       33375000	      3336	00000000	00000013	addi	x0,x0,0	  x0:0x00000000
       33385000	      3337	80002c70	00000013	addi	x0,x0,0	  x0:0x00000000
       33395000	      3338	80002c74	00c0016f	jal	x2,80002c74	  x2=0x80002c74
       33405000	      3339	00000000	00000013	addi	x0,x0,0	  x0:0x00000000
       33415000	      3340	80002c7c	00000013	addi	x0,x0,0	  x0:0x00000000
       33425000	      3341	80002c80	9005af13	slti	x30,x11,-1792	 x11:0x80002af8 x30=0x00000001
       33435000	      3342	80002c84	03000c6f	jal	x24,80002c84	 x24=0x80002c84
       33445000	      3343	00000000	00000013	addi	x0,x0,0	  x0:0x00000000
       33455000	      3344	80002cb0	00000013	addi	x0,x0,0	  x0:0x00000000
       33465000	      3345	80002cb4	fe1ff36f	jal	x6,80002cb4	  x6=0x80002cb4
       33475000	      3346	00000000	00000013	addi	x0,x0,0	  x0:0x00000000
       33485000	      3347	80002c90	00000013	addi	x0,x0,0	  x0:0x00000000
       33495000	      3348	80002c94	024000ef	jal	x1,80002c94	  x1=0x80002c94
       33505000	      3349	00000000	00000013	addi	x0,x0,0	  x0:0x00000000
       33515000	      3350	80002cb4	00000013	addi	x0,x0,0	  x0:0x00000000
       33525000	      3351	80002cb8	ff9ff0ef	jal	x1,80002cb8	  x1=0x80002cb8
       33535000	      3352	00000000	00000013	addi	x0,x0,0	  x0:0x00000000
       33545000	      3353	80002cac	00000013	addi	x0,x0,0	  x0:0x00000000
       33555000	      3354	80002cb0	fd9ff3ef	jal	x7,80002cb0	  x7=0x80002cb0
       33565000	      3355	00000000	00000013	addi	x0,x0,0	  x0:0x00000000
       33575000	      3356	80002c84	00000013	addi	x0,x0,0	  x0:0x00000000
       33585000	      3357	80002c88	0240036f	jal	x6,80002c88	  x6=0x80002c88
       33595000	      3358	00000000	00000013	addi	x0,x0,0	  x0:0x00000000
       33605000	      3359	80002ca8	00000013	addi	x0,x0,0	  x0:0x00000000
       33615000	      3360	80002cac	0280036f	jal	x6,80002cac	  x6=0x80002cac
       33625000	      3361	00000000	00000013	addi	x0,x0,0	  x0:0x00000000
       33635000	      3362	80002cd0	00000013	addi	x0,x0,0	  x0:0x00000000
       33645000	      3363	80002cd4	fd5ff0ef	jal	x1,80002cd4	  x1=0x80002cd4
       33655000	      3364	00000000	00000013	addi	x0,x0,0	  x0:0x00000000
       33665000	      3365	80002ca4	00000013	addi	x0,x0,0	  x0:0x00000000
       33675000	      3366	80002ca8	030000ef	jal	x1,80002ca8	  x1=0x80002ca8
       33685000	      3367	00000000	00000013	addi	x0,x0,0	  x0:0x00000000
       33695000	      3368	80002cd4	00000013	addi	x0,x0,0	  x0:0x00000000
       33705000	      3369	80002cd8	fedff0ef	jal	x1,80002cd8	  x1=0x80002cd8
       33715000	      3370	00000000	00000013	addi	x0,x0,0	  x0:0x00000000
       33725000	      3371	80002cc0	00000013	addi	x0,x0,0	  x0:0x00000000
       33735000	      3372	80002cc4	004000ef	jal	x1,80002cc4	  x1=0x80002cc4
       33745000	      3373	00000000	00000013	addi	x0,x0,0	  x0:0x00000000
       33755000	      3374	80002cc4	00000013	addi	x0,x0,0	  x0:0x00000000
       33765000	      3375	80002cc8	fc9ff36f	jal	x6,80002cc8	  x6=0x80002cc8
       33775000	      3376	00000000	00000013	addi	x0,x0,0	  x0:0x00000000
       33785000	      3377	80002c8c	00000013	addi	x0,x0,0	  x0:0x00000000
       33795000	      3378	80002c90	03c000ef	jal	x1,80002c90	  x1=0x80002c90
       33805000	      3379	00000000	00000013	addi	x0,x0,0	  x0:0x00000000
       33815000	      3380	80002cc8	00000013	addi	x0,x0,0	  x0:0x00000000
       33825000	      3381	80002ccc	fd1ff36f	jal	x6,80002ccc	  x6=0x80002ccc
       33835000	      3382	00000000	00000013	addi	x0,x0,0	  x0:0x00000000
       33845000	      3383	80002c98	00000013	addi	x0,x0,0	  x0:0x00000000
       33855000	      3384	80002c9c	0040036f	jal	x6,80002c9c	  x6=0x80002c9c
       33865000	      3385	00000000	00000013	addi	x0,x0,0	  x0:0x00000000
       33875000	      3386	80002c9c	00000013	addi	x0,x0,0	  x0:0x00000000
       33885000	      3387	80002ca0	020000ef	jal	x1,80002ca0	  x1=0x80002ca0
       33895000	      3388	00000000	00000013	addi	x0,x0,0	  x0:0x00000000
       33905000	      3389	80002cbc	00000013	addi	x0,x0,0	  x0:0x00000000
       33915000	      3390	80002cc0	fd9ff36f	jal	x6,80002cc0	  x6=0x80002cc0
       33925000	      3391	00000000	00000013	addi	x0,x0,0	  x0:0x00000000
       33935000	      3392	80002c94	00000013	addi	x0,x0,0	  x0:0x00000000
       33945000	      3393	80002c98	0380036f	jal	x6,80002c98	  x6=0x80002c98
       33955000	      3394	00000000	00000013	addi	x0,x0,0	  x0:0x00000000
       33965000	      3395	80002ccc	00000013	addi	x0,x0,0	  x0:0x00000000
       33975000	      3396	80002cd0	fedff36f	jal	x6,80002cd0	  x6=0x80002cd0
       33985000	      3397	00000000	00000013	addi	x0,x0,0	  x0:0x00000000
       33995000	      3398	80002cb8	00000013	addi	x0,x0,0	  x0:0x00000000
       34005000	      3399	80002cbc	fe9ff36f	jal	x6,80002cbc	  x6=0x80002cbc
       34015000	      3400	00000000	00000013	addi	x0,x0,0	  x0:0x00000000
       34025000	      3401	80002ca0	00000013	addi	x0,x0,0	  x0:0x00000000
       34035000	      3402	80002ca4	fe9ff1ef	jal	x3,80002ca4	  x3=0x80002ca4
       34045000	      3403	00000000	00000013	addi	x0,x0,0	  x0:0x00000000
       34055000	      3404	80002c88	00000013	addi	x0,x0,0	  x0:0x00000000
       34065000	      3405	80002c8c	0500036f	jal	x6,80002c8c	  x6=0x80002c8c
       34075000	      3406	00000000	00000013	addi	x0,x0,0	  x0:0x00000000
       34085000	      3407	80002cd8	00000013	addi	x0,x0,0	  x0:0x00000000
       34095000	      3408	80002cdc	00eb43b3	xor	x7,x22,x14	 x22:0x80002b14 x14:0x80002bd4  x7=0x000000c0
       34105000	      3409	80002ce0	03c00c6f	jal	x24,80002ce0	 x24=0x80002ce0
       34115000	      3410	00000000	00000013	addi	x0,x0,0	  x0:0x00000000
       34125000	      3411	80002d18	00000013	addi	x0,x0,0	  x0:0x00000000
       34135000	      3412	80002d1c	fe5ff0ef	jal	x1,80002d1c	  x1=0x80002d1c
       34145000	      3413	00000000	00000013	addi	x0,x0,0	  x0:0x00000000
       34155000	      3414	80002cfc	00000013	addi	x0,x0,0	  x0:0x00000000
       34165000	      3415	80002d00	fedff0ef	jal	x1,80002d00	  x1=0x80002d00
       34175000	      3416	00000000	00000013	addi	x0,x0,0	  x0:0x00000000
       34185000	      3417	80002ce8	00000013	addi	x0,x0,0	  x0:0x00000000
       34195000	      3418	80002cec	05400b6f	jal	x22,80002cec	 x22=0x80002cec
       34205000	      3419	00000000	00000013	addi	x0,x0,0	  x0:0x00000000
       34215000	      3420	80002d3c	00000013	addi	x0,x0,0	  x0:0x00000000
       34225000	      3421	80002d40	fb5ff0ef	jal	x1,80002d40	  x1=0x80002d40
       34235000	      3422	00000000	00000013	addi	x0,x0,0	  x0:0x00000000
       34245000	      3423	80002cf0	00000013	addi	x0,x0,0	  x0:0x00000000
       34255000	      3424	80002cf4	0380036f	jal	x6,80002cf4	  x6=0x80002cf4
       34265000	      3425	00000000	00000013	addi	x0,x0,0	  x0:0x00000000
       34275000	      3426	80002d28	00000013	addi	x0,x0,0	  x0:0x00000000
       34285000	      3427	80002d2c	0040036f	jal	x6,80002d2c	  x6=0x80002d2c
       34295000	      3428	00000000	00000013	addi	x0,x0,0	  x0:0x00000000
       34305000	      3429	80002d2c	00000013	addi	x0,x0,0	  x0:0x00000000
       34315000	      3430	80002d30	fddff0ef	jal	x1,80002d30	  x1=0x80002d30
       34325000	      3431	00000000	00000013	addi	x0,x0,0	  x0:0x00000000
       34335000	      3432	80002d08	00000013	addi	x0,x0,0	  x0:0x00000000
       34345000	      3433	80002d0c	fedff16f	jal	x2,80002d0c	  x2=0x80002d0c
       34355000	      3434	00000000	00000013	addi	x0,x0,0	  x0:0x00000000
       34365000	      3435	80002cf4	00000013	addi	x0,x0,0	  x0:0x00000000
       34375000	      3436	80002cf8	004001ef	jal	x3,80002cf8	  x3=0x80002cf8
       34385000	      3437	00000000	00000013	addi	x0,x0,0	  x0:0x00000000
       34395000	      3438	80002cf8	00000013	addi	x0,x0,0	  x0:0x00000000
       34405000	      3439	80002cfc	040000ef	jal	x1,80002cfc	  x1=0x80002cfc
       34415000	      3440	00000000	00000013	addi	x0,x0,0	  x0:0x00000000
       34425000	      3441	80002d38	00000013	addi	x0,x0,0	  x0:0x00000000
       34435000	      3442	80002d3c	fd5ff36f	jal	x6,80002d3c	  x6=0x80002d3c
       34445000	      3443	00000000	00000013	addi	x0,x0,0	  x0:0x00000000
       34455000	      3444	80002d0c	00000013	addi	x0,x0,0	  x0:0x00000000
       34465000	      3445	80002d10	028000ef	jal	x1,80002d10	  x1=0x80002d10
       34475000	      3446	00000000	00000013	addi	x0,x0,0	  x0:0x00000000
       34485000	      3447	80002d34	00000013	addi	x0,x0,0	  x0:0x00000000
       34495000	      3448	80002d38	fddff36f	jal	x6,80002d38	  x6=0x80002d38
       34505000	      3449	00000000	00000013	addi	x0,x0,0	  x0:0x00000000
       34515000	      3450	80002d10	00000013	addi	x0,x0,0	  x0:0x00000000
       34525000	      3451	80002d14	fd1ff0ef	jal	x1,80002d14	  x1=0x80002d14
       34535000	      3452	00000000	00000013	addi	x0,x0,0	  x0:0x00000000
       34545000	      3453	80002ce0	00000013	addi	x0,x0,0	  x0:0x00000000
       34555000	      3454	80002ce4	044000ef	jal	x1,80002ce4	  x1=0x80002ce4
       34565000	      3455	00000000	00000013	addi	x0,x0,0	  x0:0x00000000
       34575000	      3456	80002d24	00000013	addi	x0,x0,0	  x0:0x00000000
       34585000	      3457	80002d28	fc9ff36f	jal	x6,80002d28	  x6=0x80002d28
       34595000	      3458	00000000	00000013	addi	x0,x0,0	  x0:0x00000000
       34605000	      3459	80002cec	00000013	addi	x0,x0,0	  x0:0x00000000
       34615000	      3460	80002cf0	0300036f	jal	x6,80002cf0	  x6=0x80002cf0
       34625000	      3461	00000000	00000013	addi	x0,x0,0	  x0:0x00000000
       34635000	      3462	80002d1c	00000013	addi	x0,x0,0	  x0:0x00000000
       34645000	      3463	80002d20	fc9ff0ef	jal	x1,80002d20	  x1=0x80002d20
       34655000	      3464	00000000	00000013	addi	x0,x0,0	  x0:0x00000000
       34665000	      3465	80002ce4	00000013	addi	x0,x0,0	  x0:0x00000000
       34675000	      3466	80002ce8	020008ef	jal	x17,80002ce8	 x17=0x80002ce8
       34685000	      3467	00000000	00000013	addi	x0,x0,0	  x0:0x00000000
       34695000	      3468	80002d04	00000013	addi	x0,x0,0	  x0:0x00000000
       34705000	      3469	80002d08	01c0066f	jal	x12,80002d08	 x12=0x80002d08
       34715000	      3470	00000000	00000013	addi	x0,x0,0	  x0:0x00000000
       34725000	      3471	80002d20	00000013	addi	x0,x0,0	  x0:0x00000000
       34735000	      3472	80002d24	010007ef	jal	x15,80002d24	 x15=0x80002d24
       34745000	      3473	00000000	00000013	addi	x0,x0,0	  x0:0x00000000
       34755000	      3474	80002d30	00000013	addi	x0,x0,0	  x0:0x00000000
       34765000	      3475	80002d34	fd1ff0ef	jal	x1,80002d34	  x1=0x80002d34
       34775000	      3476	00000000	00000013	addi	x0,x0,0	  x0:0x00000000
       34785000	      3477	80002d00	00000013	addi	x0,x0,0	  x0:0x00000000
       34795000	      3478	80002d04	0140016f	jal	x2,80002d04	  x2=0x80002d04
       34805000	      3479	00000000	00000013	addi	x0,x0,0	  x0:0x00000000
       34815000	      3480	80002d14	00000013	addi	x0,x0,0	  x0:0x00000000
       34825000	      3481	80002d18	02c000ef	jal	x1,80002d18	  x1=0x80002d18
       34835000	      3482	00000000	00000013	addi	x0,x0,0	  x0:0x00000000
       34845000	      3483	80002d40	00000013	addi	x0,x0,0	  x0:0x00000000
       34855000	      3484	80002d44	60e9e093	ori	x1,x19,1550	 x19:0x00000484  x1=0x0000068e
       34865000	      3485	80002d48	04400c6f	jal	x24,80002d48	 x24=0x80002d48
       34875000	      3486	00000000	00000013	addi	x0,x0,0	  x0:0x00000000
       34885000	      3487	80002d88	00000013	addi	x0,x0,0	  x0:0x00000000
       34895000	      3488	80002d8c	01c000ef	jal	x1,80002d8c	  x1=0x80002d8c
       34905000	      3489	00000000	00000013	addi	x0,x0,0	  x0:0x00000000
       34915000	      3490	80002da4	00000013	addi	x0,x0,0	  x0:0x00000000
       34925000	      3491	80002da8	ff5ff8ef	jal	x17,80002da8	 x17=0x80002da8
       34935000	      3492	00000000	00000013	addi	x0,x0,0	  x0:0x00000000
       34945000	      3493	80002d98	00000013	addi	x0,x0,0	  x0:0x00000000
       34955000	      3494	80002d9c	fb9ff36f	jal	x6,80002d9c	  x6=0x80002d9c
       34965000	      3495	00000000	00000013	addi	x0,x0,0	  x0:0x00000000
       34975000	      3496	80002d50	00000013	addi	x0,x0,0	  x0:0x00000000
       34985000	      3497	80002d54	020000ef	jal	x1,80002d54	  x1=0x80002d54
       34995000	      3498	00000000	00000013	addi	x0,x0,0	  x0:0x00000000
       35005000	      3499	80002d70	00000013	addi	x0,x0,0	  x0:0x00000000
       35015000	      3500	80002d74	fddff0ef	jal	x1,80002d74	  x1=0x80002d74
       35025000	      3501	00000000	00000013	addi	x0,x0,0	  x0:0x00000000
       35035000	      3502	80002d4c	00000013	addi	x0,x0,0	  x0:0x00000000
       35045000	      3503	80002d50	0280036f	jal	x6,80002d50	  x6=0x80002d50
       35055000	      3504	00000000	00000013	addi	x0,x0,0	  x0:0x00000000
       35065000	      3505	80002d74	00000013	addi	x0,x0,0	  x0:0x00000000
       35075000	      3506	80002d78	0080036f	jal	x6,80002d78	  x6=0x80002d78
       35085000	      3507	00000000	00000013	addi	x0,x0,0	  x0:0x00000000
       35095000	      3508	80002d7c	00000013	addi	x0,x0,0	  x0:0x00000000
       35105000	      3509	80002d80	00400cef	jal	x25,80002d80	 x25=0x80002d80
       35115000	      3510	00000000	00000013	addi	x0,x0,0	  x0:0x00000000
       35125000	      3511	80002d80	00000013	addi	x0,x0,0	  x0:0x00000000
       35135000	      3512	80002d84	fddff0ef	jal	x1,80002d84	  x1=0x80002d84
       35145000	      3513	00000000	00000013	addi	x0,x0,0	  x0:0x00000000
       35155000	      3514	80002d5c	00000013	addi	x0,x0,0	  x0:0x00000000
       35165000	      3515	80002d60	00800d6f	jal	x26,80002d60	 x26=0x80002d60
       35175000	      3516	00000000	00000013	addi	x0,x0,0	  x0:0x00000000
       35185000	      3517	80002d64	00000013	addi	x0,x0,0	  x0:0x00000000
       35195000	      3518	80002d68	0080036f	jal	x6,80002d68	  x6=0x80002d68
       35205000	      3519	00000000	00000013	addi	x0,x0,0	  x0:0x00000000
       35215000	      3520	80002d6c	00000013	addi	x0,x0,0	  x0:0x00000000
       35225000	      3521	80002d70	fe9ff66f	jal	x12,80002d70	 x12=0x80002d70
       35235000	      3522	00000000	00000013	addi	x0,x0,0	  x0:0x00000000
       35245000	      3523	80002d54	00000013	addi	x0,x0,0	  x0:0x00000000
       35255000	      3524	80002d58	030000ef	jal	x1,80002d58	  x1=0x80002d58
       35265000	      3525	00000000	00000013	addi	x0,x0,0	  x0:0x00000000
       35275000	      3526	80002d84	00000013	addi	x0,x0,0	  x0:0x00000000
       35285000	      3527	80002d88	fe5fff6f	jal	x30,80002d88	 x30=0x80002d88
       35295000	      3528	00000000	00000013	addi	x0,x0,0	  x0:0x00000000
       35305000	      3529	80002d68	00000013	addi	x0,x0,0	  x0:0x00000000
       35315000	      3530	80002d6c	02c000ef	jal	x1,80002d6c	  x1=0x80002d6c
       35325000	      3531	00000000	00000013	addi	x0,x0,0	  x0:0x00000000
       35335000	      3532	80002d94	00000013	addi	x0,x0,0	  x0:0x00000000
       35345000	      3533	80002d98	fe5ff0ef	jal	x1,80002d98	  x1=0x80002d98
       35355000	      3534	00000000	00000013	addi	x0,x0,0	  x0:0x00000000
       35365000	      3535	80002d78	00000013	addi	x0,x0,0	  x0:0x00000000
       35375000	      3536	80002d7c	018000ef	jal	x1,80002d7c	  x1=0x80002d7c
       35385000	      3537	00000000	00000013	addi	x0,x0,0	  x0:0x00000000
       35395000	      3538	80002d90	00000013	addi	x0,x0,0	  x0:0x00000000
       35405000	      3539	80002d94	00c000ef	jal	x1,80002d94	  x1=0x80002d94
       35415000	      3540	00000000	00000013	addi	x0,x0,0	  x0:0x00000000
       35425000	      3541	80002d9c	00000013	addi	x0,x0,0	  x0:0x00000000
       35435000	      3542	80002da0	ff1ffdef	jal	x27,80002da0	 x27=0x80002da0
       35445000	      3543	00000000	00000013	addi	x0,x0,0	  x0:0x00000000
       35455000	      3544	80002d8c	00000013	addi	x0,x0,0	  x0:0x00000000
       35465000	      3545	80002d90	014000ef	jal	x1,80002d90	  x1=0x80002d90
       35475000	      3546	00000000	00000013	addi	x0,x0,0	  x0:0x00000000
       35485000	      3547	80002da0	00000013	addi	x0,x0,0	  x0:0x00000000
       35495000	      3548	80002da4	fb9ff7ef	jal	x15,80002da4	 x15=0x80002da4
       35505000	      3549	00000000	00000013	addi	x0,x0,0	  x0:0x00000000
       35515000	      3550	80002d58	00000013	addi	x0,x0,0	  x0:0x00000000
       35525000	      3551	80002d5c	0080036f	jal	x6,80002d5c	  x6=0x80002d5c
       35535000	      3552	00000000	00000013	addi	x0,x0,0	  x0:0x00000000
       35545000	      3553	80002d60	00000013	addi	x0,x0,0	  x0:0x00000000
       35555000	      3554	80002d64	fe9ff0ef	jal	x1,80002d64	  x1=0x80002d64
       35565000	      3555	00000000	00000013	addi	x0,x0,0	  x0:0x00000000
       35575000	      3556	80002d48	00000013	addi	x0,x0,0	  x0:0x00000000
       35585000	      3557	80002d4c	060002ef	jal	x5,80002d4c	  x5=0x80002d4c
       35595000	      3558	00000000	00000013	addi	x0,x0,0	  x0:0x00000000
       35605000	      3559	80002da8	00000013	addi	x0,x0,0	  x0:0x00000000
       35615000	      3560	80002dac	e8fc0e93	addi	x29,x24,-369	 x24:0x80002d48 x29=0x80002bd7
       35625000	      3561	80002db0	03800c6f	jal	x24,80002db0	 x24=0x80002db0
       35635000	      3562	00000000	00000013	addi	x0,x0,0	  x0:0x00000000
       35645000	      3563	80002de4	00000013	addi	x0,x0,0	  x0:0x00000000
       35655000	      3564	80002de8	020000ef	jal	x1,80002de8	  x1=0x80002de8
       35665000	      3565	00000000	00000013	addi	x0,x0,0	  x0:0x00000000
       35675000	      3566	80002e04	00000013	addi	x0,x0,0	  x0:0x00000000
       35685000	      3567	80002e08	fbdff0ef	jal	x1,80002e08	  x1=0x80002e08
       35695000	      3568	00000000	00000013	addi	x0,x0,0	  x0:0x00000000
       35705000	      3569	80002dc0	00000013	addi	x0,x0,0	  x0:0x00000000
       35715000	      3570	80002dc4	0380076f	jal	x14,80002dc4	 x14=0x80002dc4
       35725000	      3571	00000000	00000013	addi	x0,x0,0	  x0:0x00000000
       35735000	      3572	80002df8	00000013	addi	x0,x0,0	  x0:0x00000000
       35745000	      3573	80002dfc	ff5ff16f	jal	x2,80002dfc	  x2=0x80002dfc
       35755000	      3574	00000000	00000013	addi	x0,x0,0	  x0:0x00000000
       35765000	      3575	80002dec	00000013	addi	x0,x0,0	  x0:0x00000000
       35775000	      3576	80002df0	ffdff6ef	jal	x13,80002df0	 x13=0x80002df0
       35785000	      3577	00000000	00000013	addi	x0,x0,0	  x0:0x00000000
       35795000	      3578	80002de8	00000013	addi	x0,x0,0	  x0:0x00000000
       35805000	      3579	80002dec	0080036f	jal	x6,80002dec	  x6=0x80002dec
       35815000	      3580	00000000	00000013	addi	x0,x0,0	  x0:0x00000000
       35825000	      3581	80002df0	00000013	addi	x0,x0,0	  x0:0x00000000
       35835000	      3582	80002df4	fddff36f	jal	x6,80002df4	  x6=0x80002df4
       35845000	      3583	00000000	00000013	addi	x0,x0,0	  x0:0x00000000
       35855000	      3584	80002dcc	00000013	addi	x0,x0,0	  x0:0x00000000
       35865000	      3585	80002dd0	010000ef	jal	x1,80002dd0	  x1=0x80002dd0
       35875000	      3586	00000000	00000013	addi	x0,x0,0	  x0:0x00000000
       35885000	      3587	80002ddc	00000013	addi	x0,x0,0	  x0:0x00000000
       35895000	      3588	80002de0	004000ef	jal	x1,80002de0	  x1=0x80002de0
       35905000	      3589	00000000	00000013	addi	x0,x0,0	  x0:0x00000000
       35915000	      3590	80002de0	00000013	addi	x0,x0,0	  x0:0x00000000
       35925000	      3591	80002de4	fd1ff36f	jal	x6,80002de4	  x6=0x80002de4
       35935000	      3592	00000000	00000013	addi	x0,x0,0	  x0:0x00000000
       35945000	      3593	80002db0	00000013	addi	x0,x0,0	  x0:0x00000000
       35955000	      3594	80002db4	044000ef	jal	x1,80002db4	  x1=0x80002db4
       35965000	      3595	00000000	00000013	addi	x0,x0,0	  x0:0x00000000
       35975000	      3596	80002df4	00000013	addi	x0,x0,0	  x0:0x00000000
       35985000	      3597	80002df8	fc1ff16f	jal	x2,80002df8	  x2=0x80002df8
       35995000	      3598	00000000	00000013	addi	x0,x0,0	  x0:0x00000000
       36005000	      3599	80002db4	00000013	addi	x0,x0,0	  x0:0x00000000
       36015000	      3600	80002db8	04c000ef	jal	x1,80002db8	  x1=0x80002db8
       36025000	      3601	00000000	00000013	addi	x0,x0,0	  x0:0x00000000
       36035000	      3602	80002e00	00000013	addi	x0,x0,0	  x0:0x00000000
       36045000	      3603	80002e04	fd9ff36f	jal	x6,80002e04	  x6=0x80002e04
       36055000	      3604	00000000	00000013	addi	x0,x0,0	  x0:0x00000000
       36065000	      3605	80002dd8	00000013	addi	x0,x0,0	  x0:0x00000000
       36075000	      3606	80002ddc	ff1ffcef	jal	x25,80002ddc	 x25=0x80002ddc
       36085000	      3607	00000000	00000013	addi	x0,x0,0	  x0:0x00000000
       36095000	      3608	80002dc8	00000013	addi	x0,x0,0	  x0:0x00000000
       36105000	      3609	80002dcc	0080036f	jal	x6,80002dcc	  x6=0x80002dcc
       36115000	      3610	00000000	00000013	addi	x0,x0,0	  x0:0x00000000
       36125000	      3611	80002dd0	00000013	addi	x0,x0,0	  x0:0x00000000
       36135000	      3612	80002dd4	ff5ff0ef	jal	x1,80002dd4	  x1=0x80002dd4
       36145000	      3613	00000000	00000013	addi	x0,x0,0	  x0:0x00000000
       36155000	      3614	80002dc4	00000013	addi	x0,x0,0	  x0:0x00000000
       36165000	      3615	80002dc8	ff5ff36f	jal	x6,80002dc8	  x6=0x80002dc8
       36175000	      3616	00000000	00000013	addi	x0,x0,0	  x0:0x00000000
       36185000	      3617	80002db8	00000013	addi	x0,x0,0	  x0:0x00000000
       36195000	      3618	80002dbc	01c0036f	jal	x6,80002dbc	  x6=0x80002dbc
       36205000	      3619	00000000	00000013	addi	x0,x0,0	  x0:0x00000000
       36215000	      3620	80002dd4	00000013	addi	x0,x0,0	  x0:0x00000000
       36225000	      3621	80002dd8	028000ef	jal	x1,80002dd8	  x1=0x80002dd8
       36235000	      3622	00000000	00000013	addi	x0,x0,0	  x0:0x00000000
       36245000	      3623	80002dfc	00000013	addi	x0,x0,0	  x0:0x00000000
       36255000	      3624	80002e00	fc1ff56f	jal	x10,80002e00	 x10=0x80002e00
       36265000	      3625	00000000	00000013	addi	x0,x0,0	  x0:0x00000000
       36275000	      3626	80002dbc	00000013	addi	x0,x0,0	  x0:0x00000000
       36285000	      3627	80002dc0	04c000ef	jal	x1,80002dc0	  x1=0x80002dc0
       36295000	      3628	00000000	00000013	addi	x0,x0,0	  x0:0x00000000
       36305000	      3629	80002e08	00000013	addi	x0,x0,0	  x0:0x00000000
       36315000	      3630	80002e0c	00b95ab3	srl	x21,x18,x11	 x18:0x80002af0 x11:0x80002af8 x21=0x00000080
       36325000	      3631	80002e10	03c00c6f	jal	x24,80002e10	 x24=0x80002e10
       36335000	      3632	00000000	00000013	addi	x0,x0,0	  x0:0x00000000
       36345000	      3633	80002e48	00000013	addi	x0,x0,0	  x0:0x00000000
       36355000	      3634	80002e4c	fddff1ef	jal	x3,80002e4c	  x3=0x80002e4c
       36365000	      3635	00000000	00000013	addi	x0,x0,0	  x0:0x00000000
       36375000	      3636	80002e24	00000013	addi	x0,x0,0	  x0:0x00000000
       36385000	      3637	80002e28	03c0066f	jal	x12,80002e28	 x12=0x80002e28
       36395000	      3638	00000000	00000013	addi	x0,x0,0	  x0:0x00000000
       36405000	      3639	80002e60	00000013	addi	x0,x0,0	  x0:0x00000000
       36415000	      3640	80002e64	fd9ff8ef	jal	x17,80002e64	 x17=0x80002e64
       36425000	      3641	00000000	00000013	addi	x0,x0,0	  x0:0x00000000
       36435000	      3642	80002e38	00000013	addi	x0,x0,0	  x0:0x00000000
       36445000	      3643	80002e3c	fddff0ef	jal	x1,80002e3c	  x1=0x80002e3c
       36455000	      3644	00000000	00000013	addi	x0,x0,0	  x0:0x00000000
       36465000	      3645	80002e14	00000013	addi	x0,x0,0	  x0:0x00000000
       36475000	      3646	80002e18	044000ef	jal	x1,80002e18	  x1=0x80002e18
       36485000	      3647	00000000	00000013	addi	x0,x0,0	  x0:0x00000000
       36495000	      3648	80002e58	00000013	addi	x0,x0,0	  x0:0x00000000
       36505000	      3649	80002e5c	fb9ff0ef	jal	x1,80002e5c	  x1=0x80002e5c
       36515000	      3650	00000000	00000013	addi	x0,x0,0	  x0:0x00000000
       36525000	      3651	80002e10	00000013	addi	x0,x0,0	  x0:0x00000000
       36535000	      3652	80002e14	02c00c6f	jal	x24,80002e14	 x24=0x80002e14
       36545000	      3653	00000000	00000013	addi	x0,x0,0	  x0:0x00000000
       36555000	      3654	80002e3c	00000013	addi	x0,x0,0	  x0:0x00000000
       36565000	      3655	80002e40	014000ef	jal	x1,80002e40	  x1=0x80002e40
       36575000	      3656	00000000	00000013	addi	x0,x0,0	  x0:0x00000000
       36585000	      3657	80002e50	00000013	addi	x0,x0,0	  x0:0x00000000
       36595000	      3658	80002e54	00c000ef	jal	x1,80002e54	  x1=0x80002e54
       36605000	      3659	00000000	00000013	addi	x0,x0,0	  x0:0x00000000
       36615000	      3660	80002e5c	00000013	addi	x0,x0,0	  x0:0x00000000
       36625000	      3661	80002e60	fd1ff0ef	jal	x1,80002e60	  x1=0x80002e60
       36635000	      3662	00000000	00000013	addi	x0,x0,0	  x0:0x00000000
       36645000	      3663	80002e2c	00000013	addi	x0,x0,0	  x0:0x00000000
       36655000	      3664	80002e30	fedff0ef	jal	x1,80002e30	  x1=0x80002e30
       36665000	      3665	00000000	00000013	addi	x0,x0,0	  x0:0x00000000
       36675000	      3666	80002e18	00000013	addi	x0,x0,0	  x0:0x00000000
       36685000	      3667	80002e1c	0080036f	jal	x6,80002e1c	  x6=0x80002e1c
       36695000	      3668	00000000	00000013	addi	x0,x0,0	  x0:0x00000000
       36705000	      3669	80002e20	00000013	addi	x0,x0,0	  x0:0x00000000
       36715000	      3670	80002e24	008000ef	jal	x1,80002e24	  x1=0x80002e24
       36725000	      3671	00000000	00000013	addi	x0,x0,0	  x0:0x00000000
       36735000	      3672	80002e28	00000013	addi	x0,x0,0	  x0:0x00000000
       36745000	      3673	80002e2c	02c000ef	jal	x1,80002e2c	  x1=0x80002e2c
       36755000	      3674	00000000	00000013	addi	x0,x0,0	  x0:0x00000000
       36765000	      3675	80002e54	00000013	addi	x0,x0,0	  x0:0x00000000
       36775000	      3676	80002e58	ff1ff0ef	jal	x1,80002e58	  x1=0x80002e58
       36785000	      3677	00000000	00000013	addi	x0,x0,0	  x0:0x00000000
       36795000	      3678	80002e44	00000013	addi	x0,x0,0	  x0:0x00000000
       36805000	      3679	80002e48	008002ef	jal	x5,80002e48	  x5=0x80002e48
       36815000	      3680	00000000	00000013	addi	x0,x0,0	  x0:0x00000000
       36825000	      3681	80002e4c	00000013	addi	x0,x0,0	  x0:0x00000000
       36835000	      3682	80002e50	fd1ff36f	jal	x6,80002e50	  x6=0x80002e50
       36845000	      3683	00000000	00000013	addi	x0,x0,0	  x0:0x00000000
       36855000	      3684	80002e1c	00000013	addi	x0,x0,0	  x0:0x00000000
       36865000	      3685	80002e20	018000ef	jal	x1,80002e20	  x1=0x80002e20
       36875000	      3686	00000000	00000013	addi	x0,x0,0	  x0:0x00000000
       36885000	      3687	80002e34	00000013	addi	x0,x0,0	  x0:0x00000000
       36895000	      3688	80002e38	0300036f	jal	x6,80002e38	  x6=0x80002e38
       36905000	      3689	00000000	00000013	addi	x0,x0,0	  x0:0x00000000
       36915000	      3690	80002e64	00000013	addi	x0,x0,0	  x0:0x00000000
       36925000	      3691	80002e68	fcdff0ef	jal	x1,80002e68	  x1=0x80002e68
       36935000	      3692	00000000	00000013	addi	x0,x0,0	  x0:0x00000000
       36945000	      3693	80002e30	00000013	addi	x0,x0,0	  x0:0x00000000
       36955000	      3694	80002e34	010000ef	jal	x1,80002e34	  x1=0x80002e34
       36965000	      3695	00000000	00000013	addi	x0,x0,0	  x0:0x00000000
       36975000	      3696	80002e40	00000013	addi	x0,x0,0	  x0:0x00000000
       36985000	      3697	80002e44	028000ef	jal	x1,80002e44	  x1=0x80002e44
       36995000	      3698	00000000	00000013	addi	x0,x0,0	  x0:0x00000000
       37005000	      3699	80002e68	00000013	addi	x0,x0,0	  x0:0x00000000
       37015000	      3700	80002e6c	35177d93	andi	x27,x14,849	 x14:0x80002dc4 x27=0x00000140
       37025000	      3701	80002e70	04000c6f	jal	x24,80002e70	 x24=0x80002e70
       37035000	      3702	00000000	00000013	addi	x0,x0,0	  x0:0x00000000
       37045000	      3703	80002eac	00000013	addi	x0,x0,0	  x0:0x00000000
       37055000	      3704	80002eb0	fd5ff36f	jal	x6,80002eb0	  x6=0x80002eb0
       37065000	      3705	00000000	00000013	addi	x0,x0,0	  x0:0x00000000
       37075000	      3706	80002e80	00000013	addi	x0,x0,0	  x0:0x00000000
       37085000	      3707	80002e84	020000ef	jal	x1,80002e84	  x1=0x80002e84
       37095000	      3708	00000000	00000013	addi	x0,x0,0	  x0:0x00000000
       37105000	      3709	80002ea0	00000013	addi	x0,x0,0	  x0:0x00000000
       37115000	      3710	80002ea4	01c0036f	jal	x6,80002ea4	  x6=0x80002ea4
       37125000	      3711	00000000	00000013	addi	x0,x0,0	  x0:0x00000000
       37135000	      3712	80002ebc	00000013	addi	x0,x0,0	  x0:0x00000000
       37145000	      3713	80002ec0	fd5ff0ef	jal	x1,80002ec0	  x1=0x80002ec0
       37155000	      3714	00000000	00000013	addi	x0,x0,0	  x0:0x00000000
       37165000	      3715	80002e90	00000013	addi	x0,x0,0	  x0:0x00000000
       37175000	      3716	80002e94	ff5ff0ef	jal	x1,80002e94	  x1=0x80002e94
       37185000	      3717	00000000	00000013	addi	x0,x0,0	  x0:0x00000000
       37195000	      3718	80002e84	00000013	addi	x0,x0,0	  x0:0x00000000
       37205000	      3719	80002e88	008000ef	jal	x1,80002e88	  x1=0x80002e88
       37215000	      3720	00000000	00000013	addi	x0,x0,0	  x0:0x00000000
       37225000	      3721	80002e8c	00000013	addi	x0,x0,0	  x0:0x00000000
       37235000	      3722	80002e90	fe5ff0ef	jal	x1,80002e90	  x1=0x80002e90
       37245000	      3723	00000000	00000013	addi	x0,x0,0	  x0:0x00000000
       37255000	      3724	80002e70	00000013	addi	x0,x0,0	  x0:0x00000000
       37265000	      3725	80002e74	024000ef	jal	x1,80002e74	  x1=0x80002e74
       37275000	      3726	00000000	00000013	addi	x0,x0,0	  x0:0x00000000
       37285000	      3727	80002e94	00000013	addi	x0,x0,0	  x0:0x00000000
       37295000	      3728	80002e98	fe5ff0ef	jal	x1,80002e98	  x1=0x80002e98
       37305000	      3729	00000000	00000013	addi	x0,x0,0	  x0:0x00000000
       37315000	      3730	80002e78	00000013	addi	x0,x0,0	  x0:0x00000000
       37325000	      3731	80002e7c	04c000ef	jal	x1,80002e7c	  x1=0x80002e7c
       37335000	      3732	00000000	00000013	addi	x0,x0,0	  x0:0x00000000
       37345000	      3733	80002ec4	00000013	addi	x0,x0,0	  x0:0x00000000
       37355000	      3734	80002ec8	00c000ef	jal	x1,80002ec8	  x1=0x80002ec8
       37365000	      3735	00000000	00000013	addi	x0,x0,0	  x0:0x00000000
       37375000	      3736	80002ed0	00000013	addi	x0,x0,0	  x0:0x00000000
       37385000	      3737	80002ed4	fe5ff36f	jal	x6,80002ed4	  x6=0x80002ed4
       37395000	      3738	00000000	00000013	addi	x0,x0,0	  x0:0x00000000
       37405000	      3739	80002eb4	00000013	addi	x0,x0,0	  x0:0x00000000
       37415000	      3740	80002eb8	fe5ff0ef	jal	x1,80002eb8	  x1=0x80002eb8
       37425000	      3741	00000000	00000013	addi	x0,x0,0	  x0:0x00000000
       37435000	      3742	80002e98	00000013	addi	x0,x0,0	  x0:0x00000000
       37445000	      3743	80002e9c	030002ef	jal	x5,80002e9c	  x5=0x80002e9c
       37455000	      3744	00000000	00000013	addi	x0,x0,0	  x0:0x00000000
       37465000	      3745	80002ec8	00000013	addi	x0,x0,0	  x0:0x00000000
       37475000	      3746	80002ecc	fb5ff36f	jal	x6,80002ecc	  x6=0x80002ecc
       37485000	      3747	00000000	00000013	addi	x0,x0,0	  x0:0x00000000
       37495000	      3748	80002e7c	00000013	addi	x0,x0,0	  x0:0x00000000
       37505000	      3749	80002e80	020000ef	jal	x1,80002e80	  x1=0x80002e80
       37515000	      3750	00000000	00000013	addi	x0,x0,0	  x0:0x00000000
       37525000	      3751	80002e9c	00000013	addi	x0,x0,0	  x0:0x00000000
       37535000	      3752	80002ea0	024000ef	jal	x1,80002ea0	  x1=0x80002ea0
       37545000	      3753	00000000	00000013	addi	x0,x0,0	  x0:0x00000000
       37555000	      3754	80002ec0	00000013	addi	x0,x0,0	  x0:0x00000000
       37565000	      3755	80002ec4	ff1ff0ef	jal	x1,80002ec4	  x1=0x80002ec4
       37575000	      3756	00000000	00000013	addi	x0,x0,0	  x0:0x00000000
       37585000	      3757	80002eb0	00000013	addi	x0,x0,0	  x0:0x00000000
       37595000	      3758	80002eb4	fc5ff0ef	jal	x1,80002eb4	  x1=0x80002eb4
       37605000	      3759	00000000	00000013	addi	x0,x0,0	  x0:0x00000000
       37615000	      3760	80002e74	00000013	addi	x0,x0,0	  x0:0x00000000
       37625000	      3761	80002e78	044000ef	jal	x1,80002e78	  x1=0x80002e78
       37635000	      3762	00000000	00000013	addi	x0,x0,0	  x0:0x00000000
       37645000	      3763	80002eb8	00000013	addi	x0,x0,0	  x0:0x00000000
       37655000	      3764	80002ebc	0140036f	jal	x6,80002ebc	  x6=0x80002ebc
       37665000	      3765	00000000	00000013	addi	x0,x0,0	  x0:0x00000000
       37675000	      3766	80002ecc	00000013	addi	x0,x0,0	  x0:0x00000000
       37685000	      3767	80002ed0	fddff0ef	jal	x1,80002ed0	  x1=0x80002ed0
       37695000	      3768	00000000	00000013	addi	x0,x0,0	  x0:0x00000000
       37705000	      3769	80002ea8	00000013	addi	x0,x0,0	  x0:0x00000000
       37715000	      3770	80002eac	ffdff0ef	jal	x1,80002eac	  x1=0x80002eac
       37725000	      3771	00000000	00000013	addi	x0,x0,0	  x0:0x00000000
       37735000	      3772	80002ea4	00000013	addi	x0,x0,0	  x0:0x00000000
       37745000	      3773	80002ea8	fe5ff36f	jal	x6,80002ea8	  x6=0x80002ea8
       37755000	      3774	00000000	00000013	addi	x0,x0,0	  x0:0x00000000
       37765000	      3775	80002e88	00000013	addi	x0,x0,0	  x0:0x00000000
       37775000	      3776	80002e8c	04c000ef	jal	x1,80002e8c	  x1=0x80002e8c
       37785000	      3777	00000000	00000013	addi	x0,x0,0	  x0:0x00000000
       37795000	      3778	80002ed4	00000013	addi	x0,x0,0	  x0:0x00000000
       37805000	      3779	80002ed8	007b37b3	sltu	x15,x22,x7	 x22:0x80002cec  x7:0x000000c0 x15=0x00000000
       37815000	      3780	80002edc	01400c6f	jal	x24,80002edc	 x24=0x80002edc
       37825000	      3781	00000000	00000013	addi	x0,x0,0	  x0:0x00000000
       37835000	      3782	80002eec	00000013	addi	x0,x0,0	  x0:0x00000000
       37845000	      3783	80002ef0	ff1ff0ef	jal	x1,80002ef0	  x1=0x80002ef0
       37855000	      3784	00000000	00000013	addi	x0,x0,0	  x0:0x00000000
       37865000	      3785	80002edc	00000013	addi	x0,x0,0	  x0:0x00000000
       37875000	      3786	80002ee0	0200036f	jal	x6,80002ee0	  x6=0x80002ee0
       37885000	      3787	00000000	00000013	addi	x0,x0,0	  x0:0x00000000
       37895000	      3788	80002efc	00000013	addi	x0,x0,0	  x0:0x00000000
       37905000	      3789	80002f00	ff9ff0ef	jal	x1,80002f00	  x1=0x80002f00
       37915000	      3790	00000000	00000013	addi	x0,x0,0	  x0:0x00000000
       37925000	      3791	80002ef4	00000013	addi	x0,x0,0	  x0:0x00000000
       37935000	      3792	80002ef8	020000ef	jal	x1,80002ef8	  x1=0x80002ef8
       37945000	      3793	00000000	00000013	addi	x0,x0,0	  x0:0x00000000
       37955000	      3794	80002f14	00000013	addi	x0,x0,0	  x0:0x00000000
       37965000	      3795	80002f18	fd5ff0ef	jal	x1,80002f18	  x1=0x80002f18
       37975000	      3796	00000000	00000013	addi	x0,x0,0	  x0:0x00000000
       37985000	      3797	80002ee8	00000013	addi	x0,x0,0	  x0:0x00000000
       37995000	      3798	80002eec	018004ef	jal	x9,80002eec	  x9=0x80002eec
       38005000	      3799	00000000	00000013	addi	x0,x0,0	  x0:0x00000000
       38015000	      3800	80002f00	00000013	addi	x0,x0,0	  x0:0x00000000
       38025000	      3801	80002f04	ff1ffbef	jal	x23,80002f04	 x23=0x80002f04
       38035000	      3802	00000000	00000013	addi	x0,x0,0	  x0:0x00000000
       38045000	      3803	80002ef0	00000013	addi	x0,x0,0	  x0:0x00000000
       38055000	      3804	80002ef4	01c000ef	jal	x1,80002ef4	  x1=0x80002ef4
       38065000	      3805	00000000	00000013	addi	x0,x0,0	  x0:0x00000000
       38075000	      3806	80002f0c	00000013	addi	x0,x0,0	  x0:0x00000000
       38085000	      3807	80002f10	fedff0ef	jal	x1,80002f10	  x1=0x80002f10
       38095000	      3808	00000000	00000013	addi	x0,x0,0	  x0:0x00000000
       38105000	      3809	80002ef8	00000013	addi	x0,x0,0	  x0:0x00000000
       38115000	      3810	80002efc	fe9ff36f	jal	x6,80002efc	  x6=0x80002efc
       38125000	      3811	00000000	00000013	addi	x0,x0,0	  x0:0x00000000
       38135000	      3812	80002ee0	00000013	addi	x0,x0,0	  x0:0x00000000
       38145000	      3813	80002ee4	02800fef	jal	x31,80002ee4	 x31=0x80002ee4
       38155000	      3814	00000000	00000013	addi	x0,x0,0	  x0:0x00000000
       38165000	      3815	80002f08	00000013	addi	x0,x0,0	  x0:0x00000000
       38175000	      3816	80002f0c	ffdff36f	jal	x6,80002f0c	  x6=0x80002f0c
       38185000	      3817	00000000	00000013	addi	x0,x0,0	  x0:0x00000000
       38195000	      3818	80002f04	00000013	addi	x0,x0,0	  x0:0x00000000
       38205000	      3819	80002f08	00c000ef	jal	x1,80002f08	  x1=0x80002f08
       38215000	      3820	00000000	00000013	addi	x0,x0,0	  x0:0x00000000
       38225000	      3821	80002f10	00000013	addi	x0,x0,0	  x0:0x00000000
       38235000	      3822	80002f14	fd5ff0ef	jal	x1,80002f14	  x1=0x80002f14
       38245000	      3823	00000000	00000013	addi	x0,x0,0	  x0:0x00000000
       38255000	      3824	80002ee4	00000013	addi	x0,x0,0	  x0:0x00000000
       38265000	      3825	80002ee8	034000ef	jal	x1,80002ee8	  x1=0x80002ee8
       38275000	      3826	00000000	00000013	addi	x0,x0,0	  x0:0x00000000
       38285000	      3827	80002f18	00000013	addi	x0,x0,0	  x0:0x00000000
       38295000	      3828	80002f1c	9afd2613	slti	x12,x26,-1617	 x26:0x80002d60 x12=0x00000001
       38305000	      3829	80002f20	03800c6f	jal	x24,80002f20	 x24=0x80002f20
       38315000	      3830	00000000	00000013	addi	x0,x0,0	  x0:0x00000000
       38325000	      3831	80002f54	00000013	addi	x0,x0,0	  x0:0x00000000
       38335000	      3832	80002f58	ff1ff3ef	jal	x7,80002f58	  x7=0x80002f58
       38345000	      3833	00000000	00000013	addi	x0,x0,0	  x0:0x00000000
       38355000	      3834	80002f44	00000013	addi	x0,x0,0	  x0:0x00000000
       38365000	      3835	80002f48	fddff2ef	jal	x5,80002f48	  x5=0x80002f48
       38375000	      3836	00000000	00000013	addi	x0,x0,0	  x0:0x00000000
       38385000	      3837	80002f20	00000013	addi	x0,x0,0	  x0:0x00000000
       38395000	      3838	80002f24	004007ef	jal	x15,80002f24	 x15=0x80002f24
       38405000	      3839	00000000	00000013	addi	x0,x0,0	  x0:0x00000000
       38415000	      3840	80002f24	00000013	addi	x0,x0,0	  x0:0x00000000
       38425000	      3841	80002f28	018000ef	jal	x1,80002f28	  x1=0x80002f28
       38435000	      3842	00000000	00000013	addi	x0,x0,0	  x0:0x00000000
       38445000	      3843	80002f3c	00000013	addi	x0,x0,0	  x0:0x00000000
       38455000	      3844	80002f40	010002ef	jal	x5,80002f40	  x5=0x80002f40
       38465000	      3845	00000000	00000013	addi	x0,x0,0	  x0:0x00000000
       38475000	      3846	80002f4c	00000013	addi	x0,x0,0	  x0:0x00000000
       38485000	      3847	80002f50	fedff0ef	jal	x1,80002f50	  x1=0x80002f50
       38495000	      3848	00000000	00000013	addi	x0,x0,0	  x0:0x00000000
       38505000	      3849	80002f38	00000013	addi	x0,x0,0	  x0:0x00000000
       38515000	      3850	80002f3c	010004ef	jal	x9,80002f3c	  x9=0x80002f3c
       38525000	      3851	00000000	00000013	addi	x0,x0,0	  x0:0x00000000
       38535000	      3852	80002f48	00000013	addi	x0,x0,0	  x0:0x00000000
       38545000	      3853	80002f4c	010004ef	jal	x9,80002f4c	  x9=0x80002f4c
       38555000	      3854	00000000	00000013	addi	x0,x0,0	  x0:0x00000000
       38565000	      3855	80002f58	00000013	addi	x0,x0,0	  x0:0x00000000
       38575000	      3856	80002f5c	fd5ff36f	jal	x6,80002f5c	  x6=0x80002f5c
       38585000	      3857	00000000	00000013	addi	x0,x0,0	  x0:0x00000000
       38595000	      3858	80002f2c	00000013	addi	x0,x0,0	  x0:0x00000000
       38605000	      3859	80002f30	ffdff0ef	jal	x1,80002f30	  x1=0x80002f30
       38615000	      3860	00000000	00000013	addi	x0,x0,0	  x0:0x00000000
       38625000	      3861	80002f28	00000013	addi	x0,x0,0	  x0:0x00000000
       38635000	      3862	80002f2c	034001ef	jal	x3,80002f2c	  x3=0x80002f2c
       38645000	      3863	00000000	00000013	addi	x0,x0,0	  x0:0x00000000
       38655000	      3864	80002f5c	00000013	addi	x0,x0,0	  x0:0x00000000
       38665000	      3865	80002f60	fd9ff56f	jal	x10,80002f60	 x10=0x80002f60
       38675000	      3866	00000000	00000013	addi	x0,x0,0	  x0:0x00000000
       38685000	      3867	80002f34	00000013	addi	x0,x0,0	  x0:0x00000000
       38695000	      3868	80002f38	ffdff66f	jal	x12,80002f38	 x12=0x80002f38
       38705000	      3869	00000000	00000013	addi	x0,x0,0	  x0:0x00000000
       38715000	      3870	80002f30	00000013	addi	x0,x0,0	  x0:0x00000000
       38725000	      3871	80002f34	0300036f	jal	x6,80002f34	  x6=0x80002f34
       38735000	      3872	00000000	00000013	addi	x0,x0,0	  x0:0x00000000
       38745000	      3873	80002f60	00000013	addi	x0,x0,0	  x0:0x00000000
       38755000	      3874	80002f64	ff1ff0ef	jal	x1,80002f64	  x1=0x80002f64
       38765000	      3875	00000000	00000013	addi	x0,x0,0	  x0:0x00000000
       38775000	      3876	80002f50	00000013	addi	x0,x0,0	  x0:0x00000000
       38785000	      3877	80002f54	ff1ff0ef	jal	x1,80002f54	  x1=0x80002f54
       38795000	      3878	00000000	00000013	addi	x0,x0,0	  x0:0x00000000
       38805000	      3879	80002f40	00000013	addi	x0,x0,0	  x0:0x00000000
       38815000	      3880	80002f44	024000ef	jal	x1,80002f44	  x1=0x80002f44
       38825000	      3881	00000000	00000013	addi	x0,x0,0	  x0:0x00000000
       38835000	      3882	80002f64	00000013	addi	x0,x0,0	  x0:0x00000000
       38845000	      3883	80002f68	82960a93	addi	x21,x12,-2007	 x12:0x80002f38 x21=0x80002761
       38855000	      3884	80002f6c	03800c6f	jal	x24,80002f6c	 x24=0x80002f6c
       38865000	      3885	00000000	00000013	addi	x0,x0,0	  x0:0x00000000
       38875000	      3886	80002fa0	00000013	addi	x0,x0,0	  x0:0x00000000
       38885000	      3887	80002fa4	01c000ef	jal	x1,80002fa4	  x1=0x80002fa4
       38895000	      3888	00000000	00000013	addi	x0,x0,0	  x0:0x00000000
       38905000	      3889	80002fbc	00000013	addi	x0,x0,0	  x0:0x00000000
       38915000	      3890	80002fc0	008000ef	jal	x1,80002fc0	  x1=0x80002fc0
       38925000	      3891	00000000	00000013	addi	x0,x0,0	  x0:0x00000000
       38935000	      3892	80002fc4	00000013	addi	x0,x0,0	  x0:0x00000000
       38945000	      3893	80002fc8	fd1ff0ef	jal	x1,80002fc8	  x1=0x80002fc8
       38955000	      3894	00000000	00000013	addi	x0,x0,0	  x0:0x00000000
       38965000	      3895	80002f94	00000013	addi	x0,x0,0	  x0:0x00000000
       38975000	      3896	80002f98	018000ef	jal	x1,80002f98	  x1=0x80002f98
       38985000	      3897	00000000	00000013	addi	x0,x0,0	  x0:0x00000000
       38995000	      3898	80002fac	00000013	addi	x0,x0,0	  x0:0x00000000
       39005000	      3899	80002fb0	fd1ff36f	jal	x6,80002fb0	  x6=0x80002fb0
       39015000	      3900	00000000	00000013	addi	x0,x0,0	  x0:0x00000000
       39025000	      3901	80002f7c	00000013	addi	x0,x0,0	  x0:0x00000000
       39035000	      3902	80002f80	020000ef	jal	x1,80002f80	  x1=0x80002f80
       39045000	      3903	00000000	00000013	addi	x0,x0,0	  x0:0x00000000
       39055000	      3904	80002f9c	00000013	addi	x0,x0,0	  x0:0x00000000
       39065000	      3905	80002fa0	0140036f	jal	x6,80002fa0	  x6=0x80002fa0
       39075000	      3906	00000000	00000013	addi	x0,x0,0	  x0:0x00000000
       39085000	      3907	80002fb0	00000013	addi	x0,x0,0	  x0:0x00000000
       39095000	      3908	80002fb4	fe9ffb6f	jal	x22,80002fb4	 x22=0x80002fb4
       39105000	      3909	00000000	00000013	addi	x0,x0,0	  x0:0x00000000
       39115000	      3910	80002f98	00000013	addi	x0,x0,0	  x0:0x00000000
       39125000	      3911	80002f9c	00c0036f	jal	x6,80002f9c	  x6=0x80002f9c
       39135000	      3912	00000000	00000013	addi	x0,x0,0	  x0:0x00000000
       39145000	      3913	80002fa4	00000013	addi	x0,x0,0	  x0:0x00000000
       39155000	      3914	80002fa8	fe5ff0ef	jal	x1,80002fa8	  x1=0x80002fa8
       39165000	      3915	00000000	00000013	addi	x0,x0,0	  x0:0x00000000
       39175000	      3916	80002f88	00000013	addi	x0,x0,0	  x0:0x00000000
       39185000	      3917	80002f8c	fe9ff26f	jal	x4,80002f8c	  x4=0x80002f8c
       39195000	      3918	00000000	00000013	addi	x0,x0,0	  x0:0x00000000
       39205000	      3919	80002f70	00000013	addi	x0,x0,0	  x0:0x00000000
       39215000	      3920	80002f74	0080026f	jal	x4,80002f74	  x4=0x80002f74
       39225000	      3921	00000000	00000013	addi	x0,x0,0	  x0:0x00000000
       39235000	      3922	80002f78	00000013	addi	x0,x0,0	  x0:0x00000000
       39245000	      3923	80002f7c	0500036f	jal	x6,80002f7c	  x6=0x80002f7c
       39255000	      3924	00000000	00000013	addi	x0,x0,0	  x0:0x00000000
       39265000	      3925	80002fc8	00000013	addi	x0,x0,0	  x0:0x00000000
       39275000	      3926	80002fcc	ff1ff0ef	jal	x1,80002fcc	  x1=0x80002fcc
       39285000	      3927	00000000	00000013	addi	x0,x0,0	  x0:0x00000000
       39295000	      3928	80002fb8	00000013	addi	x0,x0,0	  x0:0x00000000
       39305000	      3929	80002fbc	fbdff2ef	jal	x5,80002fbc	  x5=0x80002fbc
       39315000	      3930	00000000	00000013	addi	x0,x0,0	  x0:0x00000000
       39325000	      3931	80002f74	00000013	addi	x0,x0,0	  x0:0x00000000
       39335000	      3932	80002f78	040000ef	jal	x1,80002f78	  x1=0x80002f78
       39345000	      3933	00000000	00000013	addi	x0,x0,0	  x0:0x00000000
       39355000	      3934	80002fb4	00000013	addi	x0,x0,0	  x0:0x00000000
       39365000	      3935	80002fb8	018000ef	jal	x1,80002fb8	  x1=0x80002fb8
       39375000	      3936	00000000	00000013	addi	x0,x0,0	  x0:0x00000000
       39385000	      3937	80002fcc	00000013	addi	x0,x0,0	  x0:0x00000000
       39395000	      3938	80002fd0	fc5ff0ef	jal	x1,80002fd0	  x1=0x80002fd0
       39405000	      3939	00000000	00000013	addi	x0,x0,0	  x0:0x00000000
       39415000	      3940	80002f90	00000013	addi	x0,x0,0	  x0:0x00000000
       39425000	      3941	80002f94	018000ef	jal	x1,80002f94	  x1=0x80002f94
       39435000	      3942	00000000	00000013	addi	x0,x0,0	  x0:0x00000000
       39445000	      3943	80002fa8	00000013	addi	x0,x0,0	  x0:0x00000000
       39455000	      3944	80002fac	fc5ff0ef	jal	x1,80002fac	  x1=0x80002fac
       39465000	      3945	00000000	00000013	addi	x0,x0,0	  x0:0x00000000
       39475000	      3946	80002f6c	00000013	addi	x0,x0,0	  x0:0x00000000
       39485000	      3947	80002f70	018000ef	jal	x1,80002f70	  x1=0x80002f70
       39495000	      3948	00000000	00000013	addi	x0,x0,0	  x0:0x00000000
       39505000	      3949	80002f84	00000013	addi	x0,x0,0	  x0:0x00000000
       39515000	      3950	80002f88	ffdff0ef	jal	x1,80002f88	  x1=0x80002f88
       39525000	      3951	00000000	00000013	addi	x0,x0,0	  x0:0x00000000
       39535000	      3952	80002f80	00000013	addi	x0,x0,0	  x0:0x00000000
       39545000	      3953	80002f84	00c007ef	jal	x15,80002f84	 x15=0x80002f84
       39555000	      3954	00000000	00000013	addi	x0,x0,0	  x0:0x00000000
       39565000	      3955	80002f8c	00000013	addi	x0,x0,0	  x0:0x00000000
       39575000	      3956	80002f90	034000ef	jal	x1,80002f90	  x1=0x80002f90
       39585000	      3957	00000000	00000013	addi	x0,x0,0	  x0:0x00000000
       39595000	      3958	80002fc0	00000013	addi	x0,x0,0	  x0:0x00000000
       39605000	      3959	80002fc4	0100036f	jal	x6,80002fc4	  x6=0x80002fc4
       39615000	      3960	00000000	00000013	addi	x0,x0,0	  x0:0x00000000
       39625000	      3961	80002fd0	00000013	addi	x0,x0,0	  x0:0x00000000
       39635000	      3962	80002fd4	c0f93c13	sltiu	x24,x18,-1009	 x18:0x80002af0 x24=0x00000001
       39645000	      3963	80002fd8	00800c6f	jal	x24,80002fd8	 x24=0x80002fd8
       39655000	      3964	00000000	00000013	addi	x0,x0,0	  x0:0x00000000
       39665000	      3965	80002fdc	00000013	addi	x0,x0,0	  x0:0x00000000
       39675000	      3966	80002fe0	018000ef	jal	x1,80002fe0	  x1=0x80002fe0
       39685000	      3967	00000000	00000013	addi	x0,x0,0	  x0:0x00000000
       39695000	      3968	80002ff4	00000013	addi	x0,x0,0	  x0:0x00000000
       39705000	      3969	80002ff8	008000ef	jal	x1,80002ff8	  x1=0x80002ff8
       39715000	      3970	00000000	00000013	addi	x0,x0,0	  x0:0x00000000
       39725000	      3971	80002ffc	00000013	addi	x0,x0,0	  x0:0x00000000
       39735000	      3972	80003000	01c00c6f	jal	x24,80003000	 x24=0x80003000
       39745000	      3973	00000000	00000013	addi	x0,x0,0	  x0:0x00000000
       39755000	      3974	80003018	00000013	addi	x0,x0,0	  x0:0x00000000
       39765000	      3975	8000301c	ff1ff26f	jal	x4,8000301c	  x4=0x8000301c
       39775000	      3976	00000000	00000013	addi	x0,x0,0	  x0:0x00000000
       39785000	      3977	80003008	00000013	addi	x0,x0,0	  x0:0x00000000
       39795000	      3978	8000300c	004005ef	jal	x11,8000300c	 x11=0x8000300c
       39805000	      3979	00000000	00000013	addi	x0,x0,0	  x0:0x00000000
       39815000	      3980	8000300c	00000013	addi	x0,x0,0	  x0:0x00000000
       39825000	      3981	80003010	fddff0ef	jal	x1,80003010	  x1=0x80003010
       39835000	      3982	00000000	00000013	addi	x0,x0,0	  x0:0x00000000
       39845000	      3983	80002fe8	00000013	addi	x0,x0,0	  x0:0x00000000
       39855000	      3984	80002fec	0100036f	jal	x6,80002fec	  x6=0x80002fec
       39865000	      3985	00000000	00000013	addi	x0,x0,0	  x0:0x00000000
       39875000	      3986	80002ff8	00000013	addi	x0,x0,0	  x0:0x00000000
       39885000	      3987	80002ffc	ff5ff0ef	jal	x1,80002ffc	  x1=0x80002ffc
       39895000	      3988	00000000	00000013	addi	x0,x0,0	  x0:0x00000000
       39905000	      3989	80002fec	00000013	addi	x0,x0,0	  x0:0x00000000
       39915000	      3990	80002ff0	01400cef	jal	x25,80002ff0	 x25=0x80002ff0
       39925000	      3991	00000000	00000013	addi	x0,x0,0	  x0:0x00000000
       39935000	      3992	80003000	00000013	addi	x0,x0,0	  x0:0x00000000
       39945000	      3993	80003004	010000ef	jal	x1,80003004	  x1=0x80003004
       39955000	      3994	00000000	00000013	addi	x0,x0,0	  x0:0x00000000
       39965000	      3995	80003010	00000013	addi	x0,x0,0	  x0:0x00000000
       39975000	      3996	80003014	ff5ff36f	jal	x6,80003014	  x6=0x80003014
       39985000	      3997	00000000	00000013	addi	x0,x0,0	  x0:0x00000000
       39995000	      3998	80003004	00000013	addi	x0,x0,0	  x0:0x00000000
       40005000	      3999	80003008	fe1ff96f	jal	x18,80003008	 x18=0x80003008
       40015000	      4000	00000000	00000013	addi	x0,x0,0	  x0:0x00000000
       40025000	      4001	80002fe4	00000013	addi	x0,x0,0	  x0:0x00000000
       40035000	      4002	80002fe8	0300036f	jal	x6,80002fe8	  x6=0x80002fe8
       40045000	      4003	00000000	00000013	addi	x0,x0,0	  x0:0x00000000
       40055000	      4004	80003014	00000013	addi	x0,x0,0	  x0:0x00000000
       40065000	      4005	80003018	fc5ff5ef	jal	x11,80003018	 x11=0x80003018
       40075000	      4006	00000000	00000013	addi	x0,x0,0	  x0:0x00000000
       40085000	      4007	80002fd8	00000013	addi	x0,x0,0	  x0:0x00000000
       40095000	      4008	80002fdc	018000ef	jal	x1,80002fdc	  x1=0x80002fdc
       40105000	      4009	00000000	00000013	addi	x0,x0,0	  x0:0x00000000
       40115000	      4010	80002ff0	00000013	addi	x0,x0,0	  x0:0x00000000
       40125000	      4011	80002ff4	ff1ff0ef	jal	x1,80002ff4	  x1=0x80002ff4
       40135000	      4012	00000000	00000013	addi	x0,x0,0	  x0:0x00000000
       40145000	      4013	80002fe0	00000013	addi	x0,x0,0	  x0:0x00000000
       40155000	      4014	80002fe4	03c0036f	jal	x6,80002fe4	  x6=0x80002fe4
       40165000	      4015	00000000	00000013	addi	x0,x0,0	  x0:0x00000000
       40175000	      4016	8000301c	00000013	addi	x0,x0,0	  x0:0x00000000
       40185000	      4017	80003020	00439013	slli	x0,x7,0x4	  x7:0x80002f58
       40195000	      4018	80003024	03800c6f	jal	x24,80003024	 x24=0x80003024
       40205000	      4019	00000000	00000013	addi	x0,x0,0	  x0:0x00000000
       40215000	      4020	80003058	00000013	addi	x0,x0,0	  x0:0x00000000
       40225000	      4021	8000305c	fd5ff0ef	jal	x1,8000305c	  x1=0x8000305c
       40235000	      4022	00000000	00000013	addi	x0,x0,0	  x0:0x00000000
       40245000	      4023	8000302c	00000013	addi	x0,x0,0	  x0:0x00000000
       40255000	      4024	80003030	010000ef	jal	x1,80003030	  x1=0x80003030
       40265000	      4025	00000000	00000013	addi	x0,x0,0	  x0:0x00000000
       40275000	      4026	8000303c	00000013	addi	x0,x0,0	  x0:0x00000000
       40285000	      4027	80003040	ff5ff56f	jal	x10,80003040	 x10=0x80003040
       40295000	      4028	00000000	00000013	addi	x0,x0,0	  x0:0x00000000
       40305000	      4029	80003030	00000013	addi	x0,x0,0	  x0:0x00000000
       40315000	      4030	80003034	ff5ff66f	jal	x12,80003034	 x12=0x80003034
       40325000	      4031	00000000	00000013	addi	x0,x0,0	  x0:0x00000000
       40335000	      4032	80003024	00000013	addi	x0,x0,0	  x0:0x00000000
       40345000	      4033	80003028	040000ef	jal	x1,80003028	  x1=0x80003028
       40355000	      4034	00000000	00000013	addi	x0,x0,0	  x0:0x00000000
       40365000	      4035	80003064	00000013	addi	x0,x0,0	  x0:0x00000000
       40375000	      4036	80003068	00c000ef	jal	x1,80003068	  x1=0x80003068
       40385000	      4037	00000000	00000013	addi	x0,x0,0	  x0:0x00000000
       40395000	      4038	80003070	00000013	addi	x0,x0,0	  x0:0x00000000
       40405000	      4039	80003074	fd1ff0ef	jal	x1,80003074	  x1=0x80003074
       40415000	      4040	00000000	00000013	addi	x0,x0,0	  x0:0x00000000
       40425000	      4041	80003040	00000013	addi	x0,x0,0	  x0:0x00000000
       40435000	      4042	80003044	02c000ef	jal	x1,80003044	  x1=0x80003044
       40445000	      4043	00000000	00000013	addi	x0,x0,0	  x0:0x00000000
       40455000	      4044	8000306c	00000013	addi	x0,x0,0	  x0:0x00000000
       40465000	      4045	80003070	fddff0ef	jal	x1,80003070	  x1=0x80003070
       40475000	      4046	00000000	00000013	addi	x0,x0,0	  x0:0x00000000
       40485000	      4047	80003048	00000013	addi	x0,x0,0	  x0:0x00000000
       40495000	      4048	8000304c	ffdff36f	jal	x6,8000304c	  x6=0x8000304c
       40505000	      4049	00000000	00000013	addi	x0,x0,0	  x0:0x00000000
       40515000	      4050	80003044	00000013	addi	x0,x0,0	  x0:0x00000000
       40525000	      4051	80003048	fe5ff0ef	jal	x1,80003048	  x1=0x80003048
       40535000	      4052	00000000	00000013	addi	x0,x0,0	  x0:0x00000000
       40545000	      4053	80003028	00000013	addi	x0,x0,0	  x0:0x00000000
       40555000	      4054	8000302c	010003ef	jal	x7,8000302c	  x7=0x8000302c
       40565000	      4055	00000000	00000013	addi	x0,x0,0	  x0:0x00000000
       40575000	      4056	80003038	00000013	addi	x0,x0,0	  x0:0x00000000
       40585000	      4057	8000303c	0140016f	jal	x2,8000303c	  x2=0x8000303c
       40595000	      4058	00000000	00000013	addi	x0,x0,0	  x0:0x00000000
       40605000	      4059	8000304c	00000013	addi	x0,x0,0	  x0:0x00000000
       40615000	      4060	80003050	004000ef	jal	x1,80003050	  x1=0x80003050
       40625000	      4061	00000000	00000013	addi	x0,x0,0	  x0:0x00000000
       40635000	      4062	80003050	00000013	addi	x0,x0,0	  x0:0x00000000
       40645000	      4063	80003054	004000ef	jal	x1,80003054	  x1=0x80003054
       40655000	      4064	00000000	00000013	addi	x0,x0,0	  x0:0x00000000
       40665000	      4065	80003054	00000013	addi	x0,x0,0	  x0:0x00000000
       40675000	      4066	80003058	0240036f	jal	x6,80003058	  x6=0x80003058
       40685000	      4067	00000000	00000013	addi	x0,x0,0	  x0:0x00000000
       40695000	      4068	80003078	00000013	addi	x0,x0,0	  x0:0x00000000
       40705000	      4069	8000307c	fbdff2ef	jal	x5,8000307c	  x5=0x8000307c
       40715000	      4070	00000000	00000013	addi	x0,x0,0	  x0:0x00000000
       40725000	      4071	80003034	00000013	addi	x0,x0,0	  x0:0x00000000
       40735000	      4072	80003038	04c000ef	jal	x1,80003038	  x1=0x80003038
       40745000	      4073	00000000	00000013	addi	x0,x0,0	  x0:0x00000000
       40755000	      4074	80003080	00000013	addi	x0,x0,0	  x0:0x00000000
       40765000	      4075	80003084	ffdff76f	jal	x14,80003084	 x14=0x80003084
       40775000	      4076	00000000	00000013	addi	x0,x0,0	  x0:0x00000000
       40785000	      4077	8000307c	00000013	addi	x0,x0,0	  x0:0x00000000
       40795000	      4078	80003080	ff9ff0ef	jal	x1,80003080	  x1=0x80003080
       40805000	      4079	00000000	00000013	addi	x0,x0,0	  x0:0x00000000
       40815000	      4080	80003074	00000013	addi	x0,x0,0	  x0:0x00000000
       40825000	      4081	80003078	ff5ff36f	jal	x6,80003078	  x6=0x80003078
       40835000	      4082	00000000	00000013	addi	x0,x0,0	  x0:0x00000000
       40845000	      4083	80003068	00000013	addi	x0,x0,0	  x0:0x00000000
       40855000	      4084	8000306c	ff5ff0ef	jal	x1,8000306c	  x1=0x8000306c
       40865000	      4085	00000000	00000013	addi	x0,x0,0	  x0:0x00000000
       40875000	      4086	8000305c	00000013	addi	x0,x0,0	  x0:0x00000000
       40885000	      4087	80003060	004000ef	jal	x1,80003060	  x1=0x80003060
       40895000	      4088	00000000	00000013	addi	x0,x0,0	  x0:0x00000000
       40905000	      4089	80003060	00000013	addi	x0,x0,0	  x0:0x00000000
       40915000	      4090	80003064	024000ef	jal	x1,80003064	  x1=0x80003064
       40925000	      4091	00000000	00000013	addi	x0,x0,0	  x0:0x00000000
       40935000	      4092	80003084	00000013	addi	x0,x0,0	  x0:0x00000000
       40945000	      4093	80003088	00d796b3	sll	x13,x15,x13	 x15:0x80002f84 x13:0x80002df0 x13=0x2f840000
       40955000	      4094	8000308c	41ced693	srai	x13,x29,0x1c	 x29:0x80002bd7 x13=0xfffffff8
       40965000	      4095	80003090	02a6d863	bge	x13,x10,800030c0	 x13:0xfffffff8 x10:0x80003040
       40975000	      4096	00000000	00000013	addi	x0,x0,0	  x0:0x00000000
       40985000	      4097	800030bc	00000013	addi	x0,x0,0	  x0:0x00000000
       40995000	      4098	800030c0	05b51063	bne	x10,x27,80003100	 x10:0x80003040 x27:0x00000140
       41005000	      4099	00000000	00000013	addi	x0,x0,0	  x0:0x00000000
       41015000	      4100	800030fc	00000013	addi	x0,x0,0	  x0:0x00000000
       41025000	      4101	80003100	02404463	blt	x0,x4,80003128	  x0:0x00000000  x4:0x8000301c
       41035000	      4102	80003104	012e8c33	add	x24,x29,x18	 x29:0x80002bd7 x18:0x80003008 x24=0x00005bdf
       41045000	      4103	80003108	00000013	addi	x0,x0,0	  x0:0x00000000
       41055000	      4104	8000310c	007ca4b3	slt	x9,x25,x7	 x25:0x80002ff0  x7:0x8000302c  x9=0x00000001
       41065000	      4105	80003110	01848033	add	x0,x9,x24	  x9:0x00000001 x24:0x00005bdf
       41075000	      4106	80003114	00eee9b3	or	x19,x29,x14	 x29:0x80002bd7 x14:0x80003084 x19=0x80003bd7
       41085000	      4107	80003118	01545863	bge	x8,x21,80003128	  x8:0x80009fc4 x21:0x80002761
       41095000	      4108	00000000	00000013	addi	x0,x0,0	  x0:0x00000000
       41105000	      4109	80003124	00000013	addi	x0,x0,0	  x0:0x00000000
       41115000	      4110	80003128	026e6463	bltu	x28,x6,80003150	 x28:0x80009eec  x6:0x80003078
       41125000	      4111	8000312c	00000013	addi	x0,x0,0	  x0:0x00000000
       41135000	      4112	80003130	0109d313	srli	x6,x19,0x10	 x19:0x80003bd7  x6=0x00008000
       41145000	      4113	80003134	0462cb93	xori	x23,x5,70	  x5:0x8000307c x23=0x8000303a
       41155000	      4114	80003138	fa903693	sltiu	x13,x0,-87	  x0:0x00000000 x13=0x00000001
       41165000	      4115	8000313c	001fddb3	srl	x27,x31,x1	 x31:0x80002ee4  x1:0x80003064 x27=0x080002ee
       41175000	      4116	80003140	02e84663	blt	x16,x14,8000316c	 x16:0x00000000 x14:0x80003084
       41185000	      4117	80003144	01261bb3	sll	x23,x12,x18	 x12:0x80003034 x18:0x80003008 x23=0x00303400
       41195000	      4118	80003148	01e0cb33	xor	x22,x1,x30	  x1:0x80003064 x30:0x80002d88 x22=0x00001dec
       41205000	      4119	8000314c	02c51863	bne	x10,x12,8000317c	 x10:0x80003040 x12:0x80003034
       41215000	      4120	00000000	00000013	addi	x0,x0,0	  x0:0x00000000
       41225000	      4121	80003178	00000013	addi	x0,x0,0	  x0:0x00000000
       41235000	      4122	8000317c	411bd493	srai	x9,x23,0x11	 x23:0x00303400  x9=0x00000018
       41245000	      4123	80003180	00a606b3	add	x13,x12,x10	 x12:0x80003034 x10:0x80003040 x13=0x00006074
       41255000	      4124	80003184	0022edb3	or	x27,x5,x2	  x5:0x8000307c  x2:0x8000303c x27=0x8000307c
       41265000	      4125	80003188	01966ab3	or	x21,x12,x25	 x12:0x80003034 x25:0x80002ff0 x21=0x80003ff4
       41275000	      4126	8000318c	d52b2f93	slti	x31,x22,-686	 x22:0x00001dec x31=0x00000000
       41285000	      4127	80003190	40415993	srai	x19,x2,0x4	  x2:0x8000303c x19=0xf8000303
       41295000	      4128	80003194	00284db3	xor	x27,x16,x2	 x16:0x00000000  x2:0x8000303c x27=0x8000303c
       41305000	      4129	80003198	015111b3	sll	x3,x2,x21	  x2:0x8000303c x21:0x80003ff4  x3=0x03c00000
       41315000	      4130	8000319c	012fd663	bge	x31,x18,800031a8	 x31:0x00000000 x18:0x80003008
       41325000	      4131	00000000	00000013	addi	x0,x0,0	  x0:0x00000000
       41335000	      4132	800031a4	00000013	addi	x0,x0,0	  x0:0x00000000
       41345000	      4133	800031a8	fb45c013	xori	x0,x11,-76	 x11:0x80003018
       41355000	      4134	800031ac	046be663	bltu	x23,x6,800031f8	 x23:0x00303400  x6:0x00008000
       41365000	      4135	800031b0	048c0663	beq	x24,x8,800031fc	 x24:0x00005bdf  x8:0x80009fc4
       41375000	      4136	800031b4	0081e733	or	x14,x3,x8	  x3:0x03c00000  x8:0x80009fc4 x14=0x83c09fc4
       41385000	      4137	800031b8	01ac61b3	or	x3,x24,x26	 x24:0x00005bdf x26:0x80002d60  x3=0x80007fff
       41395000	      4138	800031bc	fe96a297	auipc	x5,0xfe96a	  x5=0x7e96d1b8
       41405000	      4139	800031c0	01eafa63	bgeu	x21,x30,800031d4	 x21:0x80003ff4 x30:0x80002d88
       41415000	      4140	00000000	00000013	addi	x0,x0,0	  x0:0x00000000
       41425000	      4141	800031d0	00000013	addi	x0,x0,0	  x0:0x00000000
       41435000	      4142	800031d4	00000013	addi	x0,x0,0	  x0:0x00000000
       41445000	      4143	800031d8	015277b3	and	x15,x4,x21	  x4:0x8000301c x21:0x80003ff4 x15=0x80003014
       41455000	      4144	800031dc	03d3c863	blt	x7,x29,8000320c	  x7:0x8000302c x29:0x80002bd7
       41465000	      4145	800031e0	04086263	bltu	x16,x0,80003224	 x16:0x00000000  x0:0x00000000
       41475000	      4146	800031e4	a4c0ac13	slti	x24,x1,-1460	  x1:0x80003064 x24=0x00000001
       41485000	      4147	800031e8	01a79663	bne	x15,x26,800031f4	 x15:0x80003014 x26:0x80002d60
       41495000	      4148	00000000	00000013	addi	x0,x0,0	  x0:0x00000000
       41505000	      4149	800031f0	00000013	addi	x0,x0,0	  x0:0x00000000
       41515000	      4150	800031f4	008ac463	blt	x21,x8,800031fc	 x21:0x80003ff4  x8:0x80009fc4
       41525000	      4151	00000000	00000013	addi	x0,x0,0	  x0:0x00000000
       41535000	      4152	800031f8	00000013	addi	x0,x0,0	  x0:0x00000000
       41545000	      4153	800031fc	e7b63093	sltiu	x1,x12,-389	 x12:0x80003034  x1=0x00000001
       41555000	      4154	80003200	01a92033	slt	x0,x18,x26	 x18:0x80003008 x26:0x80002d60
       41565000	      4155	80003204	00d6e0b3	or	x1,x13,x13	 x13:0x00006074 x13:0x00006074  x1=0x00006074
       41575000	      4156	80003208	015fe2b3	or	x5,x31,x21	 x31:0x00000000 x21:0x80003ff4  x5=0x80003ff4
       41585000	      4157	8000320c	14520137	lui	x2,0x14520	  x2=0x14520000
       41595000	      4158	80003210	41d1ddb3	sra	x27,x3,x29	  x3:0x80007fff x29:0x80002bd7 x27=0xffffff00
       41605000	      4159	80003214	f7c06b17	auipc	x22,0xf7c06	 x22=0x77c09210
       41615000	      4160	80003218	008d7733	and	x14,x26,x8	 x26:0x80002d60  x8:0x80009fc4 x14=0x80000d40
       41625000	      4161	8000321c	f3c72c97	auipc	x25,0xf3c72	 x25=0x73c75218
       41635000	      4162	80003220	0a9cc793	xori	x15,x25,169	 x25:0x73c75218 x15=0x73c752b1
       41645000	      4163	80003224	024e7c63	bgeu	x28,x4,8000325c	 x28:0x80009eec  x4:0x8000301c
       41655000	      4164	00000000	00000013	addi	x0,x0,0	  x0:0x00000000
       41665000	      4165	80003258	00000013	addi	x0,x0,0	  x0:0x00000000
       41675000	      4166	8000325c	05f1d063	bge	x3,x31,8000329c	  x3:0x80007fff x31:0x00000000
       41685000	      4167	80003260	00729bb3	sll	x23,x5,x7	  x5:0x80003ff4  x7:0x8000302c x23=0x03ff4000
       41695000	      4168	80003264	ff72a313	slti	x6,x5,-9	  x5:0x80003ff4  x6=0x00000001
       41705000	      4169	80003268	01c40463	beq	x8,x28,80003270	  x8:0x80009fc4 x28:0x80009eec
       41715000	      4170	8000326c	411350b3	sra	x1,x6,x17	  x6:0x00000001 x17:0x80002e64  x1=0x00000000
       41725000	      4171	80003270	01502bb3	slt	x23,x0,x21	  x0:0x00000000 x21:0x80003ff4 x23=0x00000000
       41735000	      4172	80003274	3d664a93	xori	x21,x12,982	 x12:0x80003034 x21=0x800033e2
       41745000	      4173	80003278	40d65a13	srai	x20,x12,0xd	 x12:0x80003034 x20=0xfffc0001
       41755000	      4174	8000327c	2eed6c13	ori	x24,x26,750	 x26:0x80002d60 x24=0x80002fee
       41765000	      4175	80003280	04f26863	bltu	x4,x15,800032d0	  x4:0x8000301c x15:0x73c752b1
       41775000	      4176	80003284	19f78037	lui	x0,0x19f78	
       41785000	      4177	80003288	005fd993	srli	x19,x31,0x5	 x31:0x00000000 x19=0x00000000
       41795000	      4178	8000328c	8c338713	addi	x14,x7,-1853	  x7:0x8000302c x14=0x800028ef
       41805000	      4179	80003290	e4216993	ori	x19,x2,-446	  x2:0x14520000 x19=0xfffffe42
       41815000	      4180	80003294	003b34b3	sltu	x9,x22,x3	 x22:0x77c09210  x3:0x80007fff  x9=0x00000001
       41825000	      4181	80003298	411f0bb3	sub	x23,x30,x17	 x30:0x80002d88 x17:0x80002e64 x23=0xffffff24
       41835000	      4182	8000329c	008a4d33	xor	x26,x20,x8	 x20:0xfffc0001  x8:0x80009fc4 x26=0x7ffc9fc5
       41845000	      4183	800032a0	01ca3333	sltu	x6,x20,x28	 x20:0xfffc0001 x28:0x80009eec  x6=0x00000000
       41855000	      4184	800032a4	41a95333	sra	x6,x18,x26	 x18:0x80003008 x26:0x7ffc9fc5  x6=0xfc000180
       41865000	      4185	800032a8	40925d33	sra	x26,x4,x9	  x4:0x8000301c  x9:0x00000001 x26=0xc000180e
       41875000	      4186	800032ac	0046f1b3	and	x3,x13,x4	 x13:0x00006074  x4:0x8000301c  x3=0x00002014
       41885000	      4187	800032b0	4150d793	srai	x15,x1,0x15	  x1:0x00000000 x15=0x00000000
       41895000	      4188	800032b4	01c26663	bltu	x4,x28,800032c0	  x4:0x8000301c x28:0x80009eec
       41905000	      4189	00000000	00000013	addi	x0,x0,0	  x0:0x00000000
       41915000	      4190	800032bc	00000013	addi	x0,x0,0	  x0:0x00000000
       41925000	      4191	800032c0	004a9e93	slli	x29,x21,0x4	 x21:0x800033e2 x29=0x00033e20
       41935000	      4192	800032c4	003d1e63	bne	x26,x3,800032e0	 x26:0xc000180e  x3:0x00002014
       41945000	      4193	00000000	00000013	addi	x0,x0,0	  x0:0x00000000
       41955000	      4194	800032dc	00000013	addi	x0,x0,0	  x0:0x00000000
       41965000	      4195	800032e0	2c072913	slti	x18,x14,704	 x14:0x800028ef x18=0x00000001
       41975000	      4196	800032e4	40725c93	srai	x25,x4,0x7	  x4:0x8000301c x25=0xff000060
       41985000	      4197	800032e8	40795313	srai	x6,x18,0x7	 x18:0x00000001  x6=0x00000000
       41995000	      4198	800032ec	405855b3	sra	x11,x16,x5	 x16:0x00000000  x5:0x80003ff4 x11=0x00000000
       42005000	      4199	800032f0	40d003b3	sub	x7,x0,x13	  x0:0x00000000 x13:0x00006074  x7=0xffff9f8c
       42015000	      4200	800032f4	ea26f593	andi	x11,x13,-350	 x13:0x00006074 x11=0x00006020
       42025000	      4201	800032f8	01d2da63	bge	x5,x29,8000330c	  x5:0x80003ff4 x29:0x00033e20
       42035000	      4202	800032fc	4522a913	slti	x18,x5,1106	  x5:0x80003ff4 x18=0x00000001
       42045000	      4203	80003300	01bf8263	beq	x31,x27,80003304	 x31:0x00000000 x27:0xffffff00
       42055000	      4204	80003304	018887b3	add	x15,x17,x24	 x17:0x80002e64 x24:0x80002fee x15=0x00005e52
       42065000	      4205	80003308	03644863	blt	x8,x22,80003338	  x8:0x80009fc4 x22:0x77c09210
       42075000	      4206	00000000	00000013	addi	x0,x0,0	  x0:0x00000000
       42085000	      4207	80003334	00000013	addi	x0,x0,0	  x0:0x00000000
       42095000	      4208	80003338	41d95a13	srai	x20,x18,0x1d	 x18:0x00000001 x20=0x00000000
       42105000	      4209	8000333c	00ba6a33	or	x20,x20,x11	 x20:0x00000000 x11:0x00006020 x20=0x00006020
       42115000	      4210	80003340	017e5733	srl	x14,x28,x23	 x28:0x80009eec x23:0xffffff24 x14=0x080009ee
       42125000	      4211	80003344	41bb5f93	srai	x31,x22,0x1b	 x22:0x77c09210 x31=0x0000000e
       42135000	      4212	80003348	413d5b13	srai	x22,x26,0x13	 x26:0xc000180e x22=0xfffff800
       42145000	      4213	8000334c	04a64263	blt	x12,x10,80003390	 x12:0x80003034 x10:0x80003040
       42155000	      4214	00000000	00000013	addi	x0,x0,0	  x0:0x00000000
       42165000	      4215	8000338c	00000013	addi	x0,x0,0	  x0:0x00000000
       42175000	      4216	80003390	0299f863	bgeu	x19,x9,800033c0	 x19:0xfffffe42  x9:0x00000001
       42185000	      4217	00000000	00000013	addi	x0,x0,0	  x0:0x00000000
       42195000	      4218	800033bc	00000013	addi	x0,x0,0	  x0:0x00000000
       42205000	      4219	800033c0	0136db33	srl	x22,x13,x19	 x13:0x00006074 x19:0xfffffe42 x22=0x0000181d
       42215000	      4220	800033c4	18000197	auipc	x3,0x18000	  x3=0x980033c0
       42225000	      4221	800033c8	00a921b3	slt	x3,x18,x10	 x18:0x00000001 x10:0x80003040  x3=0x00000000
       42235000	      4222	800033cc	000fd2b3	srl	x5,x31,x0	 x31:0x0000000e  x0:0x00000000  x5=0x0000000e
       42245000	      4223	800033d0	01c5bdb3	sltu	x27,x11,x28	 x11:0x00006020 x28:0x80009eec x27=0x00000001
       42255000	      4224	800033d4	c7809c17	auipc	x24,0xc7809	 x24=0x4780c3d0
       42265000	      4225	800033d8	032a0463	beq	x20,x18,80003400	 x20:0x00006020 x18:0x00000001
       42275000	      4226	800033dc	00000013	addi	x0,x0,0	  x0:0x00000000
       42285000	      4227	800033e0	00919b93	slli	x23,x3,0x9	  x3:0x00000000 x23=0x00000000
       42295000	      4228	800033e4	0109c3b3	xor	x7,x19,x16	 x19:0xfffffe42 x16:0x00000000  x7=0xfffffe42
       42305000	      4229	800033e8	01b525b3	slt	x11,x10,x27	 x10:0x80003040 x27:0x00000001 x11=0x00000001
       42315000	      4230	800033ec	011d8033	add	x0,x27,x17	 x27:0x00000001 x17:0x80002e64
       42325000	      4231	800033f0	d163a993	slti	x19,x7,-746	  x7:0xfffffe42 x19=0x00000000
       42335000	      4232	800033f4	011f90b3	sll	x1,x31,x17	 x31:0x0000000e x17:0x80002e64  x1=0x000000e0
       42345000	      4233	800033f8	00078c63	beq	x15,x0,80003410	 x15:0x00005e52  x0:0x00000000
       42355000	      4234	800033fc	e0aab993	sltiu	x19,x21,-502	 x21:0x800033e2 x19=0x00000001
       42365000	      4235	80003400	01bb8d33	add	x26,x23,x27	 x23:0x00000000 x27:0x00000001 x26=0x00000001
       42375000	      4236	80003404	006bd513	srli	x10,x23,0x6	 x23:0x00000000 x10=0x00000000
       42385000	      4237	80003408	015dfa33	and	x20,x27,x21	 x27:0x00000001 x21:0x800033e2 x20=0x00000000
       42395000	      4238	8000340c	00000013	addi	x0,x0,0	  x0:0x00000000
       42405000	      4239	80003410	000bd233	srl	x4,x23,x0	 x23:0x00000000  x0:0x00000000  x4=0x00000000
       42415000	      4240	80003414	02b4d663	bge	x9,x11,80003440	  x9:0x00000001 x11:0x00000001
       42425000	      4241	00000000	00000013	addi	x0,x0,0	  x0:0x00000000
       42435000	      4242	8000343c	00000013	addi	x0,x0,0	  x0:0x00000000
       42445000	      4243	80003440	0495f463	bgeu	x11,x9,80003488	 x11:0x00000001  x9:0x00000001
       42455000	      4244	00000000	00000013	addi	x0,x0,0	  x0:0x00000000
       42465000	      4245	80003484	00000013	addi	x0,x0,0	  x0:0x00000000
       42475000	      4246	80003488	41e504b3	sub	x9,x10,x30	 x10:0x00000000 x30:0x80002d88  x9=0x7fffd278
       42485000	      4247	8000348c	0217d1b7	lui	x3,0x217d	  x3=0x0217d000
       42495000	      4248	80003490	010772b3	and	x5,x14,x16	 x14:0x080009ee x16:0x00000000  x5=0x00000000
       42505000	      4249	80003494	00578c33	add	x24,x15,x5	 x15:0x00005e52  x5:0x00000000 x24=0x00005e52
       42515000	      4250	80003498	01cb6463	bltu	x22,x28,800034a0	 x22:0x0000181d x28:0x80009eec
       42525000	      4251	00000000	00000013	addi	x0,x0,0	  x0:0x00000000
       42535000	      4252	8000349c	00000013	addi	x0,x0,0	  x0:0x00000000
       42545000	      4253	800034a0	026d7863	bgeu	x26,x6,800034d0	 x26:0x00000001  x6:0x00000000
       42555000	      4254	00000000	00000013	addi	x0,x0,0	  x0:0x00000000
       42565000	      4255	800034cc	00000013	addi	x0,x0,0	  x0:0x00000000
       42575000	      4256	800034d0	7130ef13	ori	x30,x1,1811	  x1:0x000000e0 x30=0x000007f3
       42585000	      4257	800034d4	03710463	beq	x2,x23,800034fc	  x2:0x14520000 x23:0x00000000
       42595000	      4258	800034d8	98c20213	addi	x4,x4,-1652	  x4:0x00000000  x4=0xfffff98c
       42605000	      4259	800034dc	002d35b3	sltu	x11,x26,x2	 x26:0x00000001  x2:0x14520000 x11=0x00000001
       42615000	      4260	800034e0	0074e263	bltu	x9,x7,800034e4	  x9:0x7fffd278  x7:0xfffffe42
       42625000	      4261	00000000	00000013	addi	x0,x0,0	  x0:0x00000000
       42635000	      4262	800034e0	00000013	addi	x0,x0,0	  x0:0x00000000
       42645000	      4263	800034e4	5ef18e93	addi	x29,x3,1519	  x3:0x0217d000 x29=0x0217d5ef
       42655000	      4264	800034e8	1be43613	sltiu	x12,x8,446	  x8:0x80009fc4 x12=0x00000000
       42665000	      4265	800034ec	ed5f0e93	addi	x29,x30,-299	 x30:0x000007f3 x29=0x000006c8
       42675000	      4266	800034f0	00585c13	srli	x24,x16,0x5	 x16:0x00000000 x24=0x00000000
       42685000	      4267	800034f4	00abdc63	bge	x23,x10,8000350c	 x23:0x00000000 x10:0x00000000
       42695000	      4268	00000000	00000013	addi	x0,x0,0	  x0:0x00000000
       42705000	      4269	80003508	00000013	addi	x0,x0,0	  x0:0x00000000
       42715000	      4270	8000350c	01c18033	add	x0,x3,x28	  x3:0x0217d000 x28:0x80009eec
       42725000	      4271	80003510	01b09a33	sll	x20,x1,x27	  x1:0x000000e0 x27:0x00000001 x20=0x000001c0
       42735000	      4272	80003514	408b0ab3	sub	x21,x22,x8	 x22:0x0000181d  x8:0x80009fc4 x21=0x7fff7859
       42745000	      4273	80003518	208b6f93	ori	x31,x22,520	 x22:0x0000181d x31=0x00001a1d
       42755000	      4274	8000351c	00145fb3	srl	x31,x8,x1	  x8:0x80009fc4  x1:0x000000e0 x31=0x80009fc4
       42765000	      4275	80003520	01595993	srli	x19,x18,0x15	 x18:0x00000001 x19=0x00000000
       42775000	      4276	80003524	00000013	addi	x0,x0,0	  x0:0x00000000
       42785000	      4277	80003528	01be9f33	sll	x30,x29,x27	 x29:0x000006c8 x27:0x00000001 x30=0x00000d90
       42795000	      4278	8000352c	01eb0263	beq	x22,x30,80003530	 x22:0x0000181d x30:0x00000d90
       42805000	      4279	80003530	59773993	sltiu	x19,x14,1431	 x14:0x080009ee x19=0x00000000
       42815000	      4280	80003534	41cc8bb3	sub	x23,x25,x28	 x25:0xff000060 x28:0x80009eec x23=0x7eff6174
       42825000	      4281	80003538	0018c0b3	xor	x1,x17,x1	 x17:0x80002e64  x1:0x000000e0  x1=0x80002e84
       42835000	      4282	8000353c	01710033	add	x0,x2,x23	  x2:0x14520000 x23:0x7eff6174
       42845000	      4283	80003540	008f75b3	and	x11,x30,x8	 x30:0x00000d90  x8:0x80009fc4 x11=0x00000d80
       42855000	      4284	80003544	00a2d213	srli	x4,x5,0xa	  x5:0x00000000  x4=0x00000000
       42865000	      4285	80003548	f77d0e93	addi	x29,x26,-137	 x26:0x00000001 x29=0xffffff78
       42875000	      4286	8000354c	009eb3b3	sltu	x7,x29,x9	 x29:0xffffff78  x9:0x7fffd278  x7=0x00000000
       42885000	      4287	80003550	0140bbb3	sltu	x23,x1,x20	  x1:0x80002e84 x20:0x000001c0 x23=0x00000000
       42895000	      4288	80003554	ea10bd93	sltiu	x27,x1,-351	  x1:0x80002e84 x27=0x00000001
       42905000	      4289	80003558	784f9d17	auipc	x26,0x784f9	 x26=0xf84fc554
       42915000	      4290	8000355c	41c65db3	sra	x27,x12,x28	 x12:0x00000000 x28:0x80009eec x27=0x00000000
       42925000	      4291	80003560	05f4e863	bltu	x9,x31,800035b0	  x9:0x7fffd278 x31:0x80009fc4
       42935000	      4292	00000000	00000013	addi	x0,x0,0	  x0:0x00000000
       42945000	      4293	800035ac	00000013	addi	x0,x0,0	  x0:0x00000000
       42955000	      4294	800035b0	43803097	auipc	x1,0x43803	  x1=0xc38065ac
       42965000	      4295	800035b4	bc5f4493	xori	x9,x30,-1083	 x30:0x00000d90  x9=0xfffff655
       42975000	      4296	800035b8	00dfc663	blt	x31,x13,800035c4	 x31:0x80009fc4 x13:0x00006074
       42985000	      4297	00000000	00000013	addi	x0,x0,0	  x0:0x00000000
       42995000	      4298	800035c0	00000013	addi	x0,x0,0	  x0:0x00000000
       43005000	      4299	800035c4	0169d633	srl	x12,x19,x22	 x19:0x00000000 x22:0x0000181d x12=0x00000000
       43015000	      4300	800035c8	b4c6ec13	ori	x24,x13,-1204	 x13:0x00006074 x24=0xfffffb7c
       43025000	      4301	800035cc	01d6f033	and	x0,x13,x29	 x13:0x00006074 x29:0xffffff78
       43035000	      4302	800035d0	007e1d33	sll	x26,x28,x7	 x28:0x80009eec  x7:0x00000000 x26=0x80009eec
       43045000	      4303	800035d4	003e9913	slli	x18,x29,0x3	 x29:0xffffff78 x18=0xfffffbc0
       43055000	      4304	800035d8	01eb88b3	add	x17,x23,x30	 x23:0x00000000 x30:0x00000d90 x17=0x00000d90
       43065000	      4305	800035dc	4027da33	sra	x20,x15,x2	 x15:0x00005e52  x2:0x14520000 x20=0x00005e52
       43075000	      4306	800035e0	40c7d533	sra	x10,x15,x12	 x15:0x00005e52 x12:0x00000000 x10=0x00005e52
       43085000	      4307	800035e4	01056863	bltu	x10,x16,800035f4	 x10:0x00005e52 x16:0x00000000
       43095000	      4308	800035e8	024ac463	blt	x21,x4,80003610	 x21:0x7fff7859  x4:0x00000000
       43105000	      4309	800035ec	c34c2693	slti	x13,x24,-972	 x24:0xfffffb7c x13=0x00000001
       43115000	      4310	800035f0	014875b3	and	x11,x16,x20	 x16:0x00000000 x20:0x00005e52 x11=0x00000000
       43125000	      4311	800035f4	00869bb3	sll	x23,x13,x8	 x13:0x00000001  x8:0x80009fc4 x23=0x00000010
       43135000	      4312	800035f8	00d5fb33	and	x22,x11,x13	 x11:0x00000000 x13:0x00000001 x22=0x00000000
       43145000	      4313	800035fc	00000013	addi	x0,x0,0	  x0:0x00000000
       43155000	      4314	80003600	0258f663	bgeu	x17,x5,8000362c	 x17:0x00000d90  x5:0x00000000
       43165000	      4315	00000000	00000013	addi	x0,x0,0	  x0:0x00000000
       43175000	      4316	80003628	00000013	addi	x0,x0,0	  x0:0x00000000
       43185000	      4317	8000362c	0057d2b3	srl	x5,x15,x5	 x15:0x00005e52  x5:0x00000000  x5=0x00005e52
       43195000	      4318	80003630	00000013	addi	x0,x0,0	  x0:0x00000000
       43205000	      4319	80003634	003f14b3	sll	x9,x30,x3	 x30:0x00000d90  x3:0x0217d000  x9=0x00000d90
       43215000	      4320	80003638	00a79a33	sll	x20,x15,x10	 x15:0x00005e52 x10:0x00005e52 x20=0x79480000
       43225000	      4321	8000363c	01b8acb3	slt	x25,x17,x27	 x17:0x00000d90 x27:0x00000000 x25=0x00000000
       43235000	      4322	80003640	059fc663	blt	x31,x25,8000368c	 x31:0x80009fc4 x25:0x00000000
       43245000	      4323	00000000	00000013	addi	x0,x0,0	  x0:0x00000000
       43255000	      4324	80003688	00000013	addi	x0,x0,0	  x0:0x00000000
       43265000	      4325	8000368c	011866b3	or	x13,x16,x17	 x16:0x00000000 x17:0x00000d90 x13=0x00000d90
       43275000	      4326	80003690	4075d593	srai	x11,x11,0x7	 x11:0x00000000 x11=0x00000000
       43285000	      4327	80003694	01b6d213	srli	x4,x13,0x1b	 x13:0x00000d90  x4=0x00000000
       43295000	      4328	80003698	00b45cb3	srl	x25,x8,x11	  x8:0x80009fc4 x11:0x00000000 x25=0x80009fc4
       43305000	      4329	8000369c	70410537	lui	x10,0x70410	 x10=0x70410000
       43315000	      4330	800036a0	432f4513	xori	x10,x30,1074	 x30:0x00000d90 x10=0x000009a2
       43325000	      4331	800036a4	3dd06213	ori	x4,x0,989	  x0:0x00000000  x4=0x000003dd
       43335000	      4332	800036a8	69858c93	addi	x25,x11,1688	 x11:0x00000000 x25=0x00000698
       43345000	      4333	800036ac	003f58b3	srl	x17,x30,x3	 x30:0x00000d90  x3:0x0217d000 x17=0x00000d90
       43355000	      4334	800036b0	00000013	addi	x0,x0,0	  x0:0x00000000
       43365000	      4335	800036b4	01189e93	slli	x29,x17,0x11	 x17:0x00000d90 x29=0x1b200000
       43375000	      4336	800036b8	01011493	slli	x9,x2,0x10	  x2:0x14520000  x9=0x00000000
       43385000	      4337	800036bc	00b6ce63	blt	x13,x11,800036d8	 x13:0x00000d90 x11:0x00000000
       43395000	      4338	800036c0	bd044b13	xori	x22,x8,-1072	  x8:0x80009fc4 x22=0x7fff6414
       43405000	      4339	800036c4	0004e863	bltu	x9,x0,800036d4	  x9:0x00000000  x0:0x00000000
       43415000	      4340	800036c8	0384c463	blt	x9,x24,800036f0	  x9:0x00000000 x24:0xfffffb7c
       43425000	      4341	800036cc	045fe263	bltu	x31,x5,80003710	 x31:0x80009fc4  x5:0x00005e52
       43435000	      4342	800036d0	fa4cfc13	andi	x24,x25,-92	 x25:0x00000698 x24=0x00000680
       43445000	      4343	800036d4	44b08293	addi	x5,x1,1099	  x1:0xc38065ac  x5=0xc38069f7
       43455000	      4344	800036d8	eeaa5037	lui	x0,0xeeaa5	
       43465000	      4345	800036dc	01d1ccb3	xor	x25,x3,x29	  x3:0x0217d000 x29:0x1b200000 x25=0x1937d000
       43475000	      4346	800036e0	001ed933	srl	x18,x29,x1	 x29:0x1b200000  x1:0xc38065ac x18=0x0001b200
       43485000	      4347	800036e4	40360bb3	sub	x23,x12,x3	 x12:0x00000000  x3:0x0217d000 x23=0xfde83000
       43495000	      4348	800036e8	01555f93	srli	x31,x10,0x15	 x10:0x000009a2 x31=0x00000000
       43505000	      4349	800036ec	05cae663	bltu	x21,x28,80003738	 x21:0x7fff7859 x28:0x80009eec
       43515000	      4350	00000000	00000013	addi	x0,x0,0	  x0:0x00000000
       43525000	      4351	80003734	00000013	addi	x0,x0,0	  x0:0x00000000
       43535000	      4352	80003738	be587713	andi	x14,x16,-1051	 x16:0x00000000 x14=0x00000000
       43545000	      4353	8000373c	00253db3	sltu	x27,x10,x2	 x10:0x000009a2  x2:0x14520000 x27=0x00000001
       43555000	      4354	80003740	0b39ad13	slti	x26,x19,179	 x19:0x00000000 x26=0x00000001
       43565000	      4355	80003744	0140d913	srli	x18,x1,0x14	  x1:0xc38065ac x18=0x00000c38
       43575000	      4356	80003748	f0b10613	addi	x12,x2,-245	  x2:0x14520000 x12=0x1451ff0b
       43585000	      4357	8000374c	419f5933	sra	x18,x30,x25	 x30:0x00000d90 x25:0x1937d000 x18=0x00000d90
       43595000	      4358	80003750	affd0c93	addi	x25,x26,-1281	 x26:0x00000001 x25=0xfffffb00
       43605000	      4359	80003754	01800c6f	jal	x24,80003754	 x24=0x80003754
       43615000	      4360	00000000	00000013	addi	x0,x0,0	  x0:0x00000000
       43625000	      4361	80003768	00000013	addi	x0,x0,0	  x0:0x00000000
       43635000	      4362	8000376c	02c0036f	jal	x6,8000376c	  x6=0x8000376c
       43645000	      4363	00000000	00000013	addi	x0,x0,0	  x0:0x00000000
       43655000	      4364	80003794	00000013	addi	x0,x0,0	  x0:0x00000000
       43665000	      4365	80003798	ff9ff0ef	jal	x1,80003798	  x1=0x80003798
       43675000	      4366	00000000	00000013	addi	x0,x0,0	  x0:0x00000000
       43685000	      4367	8000378c	00000013	addi	x0,x0,0	  x0:0x00000000
       43695000	      4368	80003790	fc9ff0ef	jal	x1,80003790	  x1=0x80003790
       43705000	      4369	00000000	00000013	addi	x0,x0,0	  x0:0x00000000
       43715000	      4370	80003754	00000013	addi	x0,x0,0	  x0:0x00000000
       43725000	      4371	80003758	034000ef	jal	x1,80003758	  x1=0x80003758
       43735000	      4372	00000000	00000013	addi	x0,x0,0	  x0:0x00000000
       43745000	      4373	80003788	00000013	addi	x0,x0,0	  x0:0x00000000
       43755000	      4374	8000378c	0200026f	jal	x4,8000378c	  x4=0x8000378c
       43765000	      4375	00000000	00000013	addi	x0,x0,0	  x0:0x00000000
       43775000	      4376	800037a8	00000013	addi	x0,x0,0	  x0:0x00000000
       43785000	      4377	800037ac	fb1ff36f	jal	x6,800037ac	  x6=0x800037ac
       43795000	      4378	00000000	00000013	addi	x0,x0,0	  x0:0x00000000
       43805000	      4379	80003758	00000013	addi	x0,x0,0	  x0:0x00000000
       43815000	      4380	8000375c	0080036f	jal	x6,8000375c	  x6=0x8000375c
       43825000	      4381	00000000	00000013	addi	x0,x0,0	  x0:0x00000000
       43835000	      4382	80003760	00000013	addi	x0,x0,0	  x0:0x00000000
       43845000	      4383	80003764	ffdff2ef	jal	x5,80003764	  x5=0x80003764
       43855000	      4384	00000000	00000013	addi	x0,x0,0	  x0:0x00000000
       43865000	      4385	8000375c	00000013	addi	x0,x0,0	  x0:0x00000000
       43875000	      4386	80003760	01c001ef	jal	x3,80003760	  x3=0x80003760
       43885000	      4387	00000000	00000013	addi	x0,x0,0	  x0:0x00000000
       43895000	      4388	80003778	00000013	addi	x0,x0,0	  x0:0x00000000
       43905000	      4389	8000377c	fedff0ef	jal	x1,8000377c	  x1=0x8000377c
       43915000	      4390	00000000	00000013	addi	x0,x0,0	  x0:0x00000000
       43925000	      4391	80003764	00000013	addi	x0,x0,0	  x0:0x00000000
       43935000	      4392	80003768	010000ef	jal	x1,80003768	  x1=0x80003768
       43945000	      4393	00000000	00000013	addi	x0,x0,0	  x0:0x00000000
       43955000	      4394	80003774	00000013	addi	x0,x0,0	  x0:0x00000000
       43965000	      4395	80003778	008000ef	jal	x1,80003778	  x1=0x80003778
       43975000	      4396	00000000	00000013	addi	x0,x0,0	  x0:0x00000000
       43985000	      4397	8000377c	00000013	addi	x0,x0,0	  x0:0x00000000
       43995000	      4398	80003780	00400c6f	jal	x24,80003780	 x24=0x80003780
       44005000	      4399	00000000	00000013	addi	x0,x0,0	  x0:0x00000000
       44015000	      4400	80003780	00000013	addi	x0,x0,0	  x0:0x00000000
       44025000	      4401	80003784	ff1ff0ef	jal	x1,80003784	  x1=0x80003784
       44035000	      4402	00000000	00000013	addi	x0,x0,0	  x0:0x00000000
       44045000	      4403	80003770	00000013	addi	x0,x0,0	  x0:0x00000000
       44055000	      4404	80003774	02c000ef	jal	x1,80003774	  x1=0x80003774
       44065000	      4405	00000000	00000013	addi	x0,x0,0	  x0:0x00000000
       44075000	      4406	8000379c	00000013	addi	x0,x0,0	  x0:0x00000000
       44085000	      4407	800037a0	ffdffc6f	jal	x24,800037a0	 x24=0x800037a0
       44095000	      4408	00000000	00000013	addi	x0,x0,0	  x0:0x00000000
       44105000	      4409	80003798	00000013	addi	x0,x0,0	  x0:0x00000000
       44115000	      4410	8000379c	00c000ef	jal	x1,8000379c	  x1=0x8000379c
       44125000	      4411	00000000	00000013	addi	x0,x0,0	  x0:0x00000000
       44135000	      4412	800037a4	00000013	addi	x0,x0,0	  x0:0x00000000
       44145000	      4413	800037a8	fc9ff0ef	jal	x1,800037a8	  x1=0x800037a8
       44155000	      4414	00000000	00000013	addi	x0,x0,0	  x0:0x00000000
       44165000	      4415	8000376c	00000013	addi	x0,x0,0	  x0:0x00000000
       44175000	      4416	80003770	024000ef	jal	x1,80003770	  x1=0x80003770
       44185000	      4417	00000000	00000013	addi	x0,x0,0	  x0:0x00000000
       44195000	      4418	80003790	00000013	addi	x0,x0,0	  x0:0x00000000
       44205000	      4419	80003794	0100036f	jal	x6,80003794	  x6=0x80003794
       44215000	      4420	00000000	00000013	addi	x0,x0,0	  x0:0x00000000
       44225000	      4421	800037a0	00000013	addi	x0,x0,0	  x0:0x00000000
       44235000	      4422	800037a4	fe5ff36f	jal	x6,800037a4	  x6=0x800037a4
       44245000	      4423	00000000	00000013	addi	x0,x0,0	  x0:0x00000000
       44255000	      4424	80003784	00000013	addi	x0,x0,0	  x0:0x00000000
       44265000	      4425	80003788	0280016f	jal	x2,80003788	  x2=0x80003788
       44275000	      4426	00000000	00000013	addi	x0,x0,0	  x0:0x00000000
       44285000	      4427	800037ac	00000013	addi	x0,x0,0	  x0:0x00000000
       44295000	      4428	800037b0	00000013	addi	x0,x0,0	  x0:0x00000000
       44305000	      4429	800037b4	52c94213	xori	x4,x18,1324	 x18:0x00000d90  x4=0x000008bc
       44315000	      4430	800037b8	0160f663	bgeu	x1,x22,800037c4	  x1:0x80003770 x22:0x7fff6414
       44325000	      4431	00000000	00000013	addi	x0,x0,0	  x0:0x00000000
       44335000	      4432	800037c0	00000013	addi	x0,x0,0	  x0:0x00000000
       44345000	      4433	800037c4	019d0663	beq	x26,x25,800037d0	 x26:0x00000001 x25:0xfffffb00
       44355000	      4434	800037c8	01661213	slli	x4,x12,0x16	 x12:0x1451ff0b  x4=0xc2c00000
       44365000	      4435	800037cc	03298a63	beq	x19,x18,80003800	 x19:0x00000000 x18:0x00000d90
       44375000	      4436	800037d0	03cbf863	bgeu	x23,x28,80003800	 x23:0xfde83000 x28:0x80009eec
       44385000	      4437	00000000	00000013	addi	x0,x0,0	  x0:0x00000000
       44395000	      4438	800037fc	00000013	addi	x0,x0,0	  x0:0x00000000
       44405000	      4439	80003800	00ec1c63	bne	x24,x14,80003818	 x24:0x800037a0 x14:0x00000000
       44415000	      4440	00000000	00000013	addi	x0,x0,0	  x0:0x00000000
       44425000	      4441	80003814	00000013	addi	x0,x0,0	  x0:0x00000000
       44435000	      4442	80003818	00d47db3	and	x27,x8,x13	  x8:0x80009fc4 x13:0x00000d90 x27=0x00000d80
       44445000	      4443	8000381c	ffa62a93	slti	x21,x12,-6	 x12:0x1451ff0b x21=0x00000000
       44455000	      4444	80003820	f7e10b17	auipc	x22,0xf7e10	 x22=0x77e1381c
       44465000	      4445	80003824	00e59f93	slli	x31,x11,0xe	 x11:0x00000000 x31=0x00000000
       44475000	      4446	80003828	014c3c33	sltu	x24,x24,x20	 x24:0x800037a0 x20:0x79480000 x24=0x00000000
       44485000	      4447	8000382c	00784ab3	xor	x21,x16,x7	 x16:0x00000000  x7:0x00000000 x21=0x00000000
       44495000	      4448	80003830	d0776193	ori	x3,x14,-761	 x14:0x00000000  x3=0xfffffd07
       44505000	      4449	80003834	7fdeaa17	auipc	x20,0x7fdea	 x20=0xffded830
       44515000	      4450	80003838	01b664b3	or	x9,x12,x27	 x12:0x1451ff0b x27:0x00000d80  x9=0x1451ff8b
       44525000	      4451	8000383c	08d87c13	andi	x24,x16,141	 x16:0x00000000 x24=0x00000000
       44535000	      4452	80003840	018fd333	srl	x6,x31,x24	 x31:0x00000000 x24:0x00000000  x6=0x00000000
       44545000	      4453	80003844	408e5bb3	sra	x23,x28,x8	 x28:0x80009eec  x8:0x80009fc4 x23=0xf80009ee
       44555000	      4454	80003848	00000013	addi	x0,x0,0	  x0:0x00000000
       44565000	      4455	8000384c	408050b3	sra	x1,x0,x8	  x0:0x00000000  x8:0x80009fc4  x1=0x00000000
       44575000	      4456	80003850	0260cc63	blt	x1,x6,80003888	  x1:0x00000000  x6:0x00000000
       44585000	      4457	80003854	20d77a13	andi	x20,x14,525	 x14:0x00000000 x20=0x00000000
       44595000	      4458	80003858	04a34663	blt	x6,x10,800038a4	  x6:0x00000000 x10:0x000009a2
       44605000	      4459	00000000	00000013	addi	x0,x0,0	  x0:0x00000000
       44615000	      4460	800038a0	00000013	addi	x0,x0,0	  x0:0x00000000
       44625000	      4461	800038a4	013ed393	srli	x7,x29,0x13	 x29:0x1b200000  x7=0x00000364
       44635000	      4462	800038a8	8c3d6b93	ori	x23,x26,-1853	 x26:0x00000001 x23=0xfffff8c3
       44645000	      4463	800038ac	00000013	addi	x0,x0,0	  x0:0x00000000
       44655000	      4464	800038b0	05cc9063	bne	x25,x28,800038f0	 x25:0xfffffb00 x28:0x80009eec
       44665000	      4465	00000000	00000013	addi	x0,x0,0	  x0:0x00000000
       44675000	      4466	800038ec	00000013	addi	x0,x0,0	  x0:0x00000000
       44685000	      4467	800038f0	00000013	addi	x0,x0,0	  x0:0x00000000
       44695000	      4468	800038f4	419850b3	sra	x1,x16,x25	 x16:0x00000000 x25:0xfffffb00  x1=0x00000000
       44705000	      4469	800038f8	00ad57b3	srl	x15,x26,x10	 x26:0x00000001 x10:0x000009a2 x15=0x00000000
       44715000	      4470	800038fc	0016a133	slt	x2,x13,x1	 x13:0x00000d90  x1:0x00000000  x2=0x00000000
       44725000	      4471	80003900	4de16d93	ori	x27,x2,1246	  x2:0x00000000 x27=0x000004de
       44735000	      4472	80003904	d3ffbbb7	lui	x23,0xd3ffb	 x23=0xd3ffb000
       44745000	      4473	80003908	0ea3f013	andi	x0,x7,234	  x7:0x00000364
       44755000	      4474	8000390c	038ee663	bltu	x29,x24,80003938	 x29:0x1b200000 x24:0x00000000
       44765000	      4475	80003910	12916f97	auipc	x31,0x12916	 x31=0x9291990c
       44775000	      4476	80003914	016ed2b3	srl	x5,x29,x22	 x29:0x1b200000 x22:0x77e1381c  x5=0x00000001
       44785000	      4477	80003918	00175bb3	srl	x23,x14,x1	 x14:0x00000000  x1:0x00000000 x23=0x00000000
       44795000	      4478	8000391c	72870213	addi	x4,x14,1832	 x14:0x00000000  x4=0x00000728
       44805000	      4479	80003920	41e1bd13	sltiu	x26,x3,1054	  x3:0xfffffd07 x26=0x00000000
       44815000	      4480	80003924	9ea5f293	andi	x5,x11,-1558	 x11:0x00000000  x5=0x00000000
       44825000	      4481	80003928	40bbdb33	sra	x22,x23,x11	 x23:0x00000000 x11:0x00000000 x22=0x00000000
       44835000	      4482	8000392c	00ff95b3	sll	x11,x31,x15	 x31:0x9291990c x15:0x00000000 x11=0x9291990c
       44845000	      4483	80003930	01f10463	beq	x2,x31,80003938	  x2:0x00000000 x31:0x9291990c
       44855000	      4484	80003934	0133f6b3	and	x13,x7,x19	  x7:0x00000364 x19:0x00000000 x13=0x00000000
       44865000	      4485	80003938	0073dab3	srl	x21,x7,x7	  x7:0x00000364  x7:0x00000364 x21=0x00000036
       44875000	      4486	8000393c	02d87863	bgeu	x16,x13,8000396c	 x16:0x00000000 x13:0x00000000
       44885000	      4487	00000000	00000013	addi	x0,x0,0	  x0:0x00000000
       44895000	      4488	80003968	00000013	addi	x0,x0,0	  x0:0x00000000
       44905000	      4489	8000396c	00000013	addi	x0,x0,0	  x0:0x00000000
       44915000	      4490	80003970	0314e463	bltu	x9,x17,80003998	  x9:0x1451ff8b x17:0x00000d90
       44925000	      4491	80003974	01194463	blt	x18,x17,8000397c	 x18:0x00000d90 x17:0x00000d90
       44935000	      4492	80003978	05af1063	bne	x30,x26,800039b8	 x30:0x00000d90 x26:0x00000000
       44945000	      4493	00000000	00000013	addi	x0,x0,0	  x0:0x00000000
       44955000	      4494	800039b4	00000013	addi	x0,x0,0	  x0:0x00000000
       44965000	      4495	800039b8	04a5d063	bge	x11,x10,800039f8	 x11:0x9291990c x10:0x000009a2
       44975000	      4496	800039bc	052fe463	bltu	x31,x18,80003a04	 x31:0x9291990c x18:0x00000d90
       44985000	      4497	800039c0	7ab58713	addi	x14,x11,1963	 x11:0x9291990c x14=0x9291a0b7
       44995000	      4498	800039c4	0122f633	and	x12,x5,x18	  x5:0x00000000 x18:0x00000d90 x12=0x00000000
       45005000	      4499	800039c8	00921cb3	sll	x25,x4,x9	  x4:0x00000728  x9:0x1451ff8b x25=0x00394000
       45015000	      4500	800039cc	04f20663	beq	x4,x15,80003a18	  x4:0x00000728 x15:0x00000000
       45025000	      4501	800039d0	45bdf913	andi	x18,x27,1115	 x27:0x000004de x18=0x0000045a
       45035000	      4502	800039d4	4969f3b7	lui	x7,0x4969f	  x7=0x4969f000
       45045000	      4503	800039d8	0219e663	bltu	x19,x1,80003a04	 x19:0x00000000  x1:0x00000000
       45055000	      4504	800039dc	c6d43f93	sltiu	x31,x8,-915	  x8:0x80009fc4 x31=0x00000001
       45065000	      4505	800039e0	71f725b7	lui	x11,0x71f72	 x11=0x71f72000
       45075000	      4506	800039e4	00d2a8b3	slt	x17,x5,x13	  x5:0x00000000 x13:0x00000000 x17=0x00000000
       45085000	      4507	800039e8	01362333	slt	x6,x12,x19	 x12:0x00000000 x19:0x00000000  x6=0x00000000
       45095000	      4508	800039ec	018d0863	beq	x26,x24,800039fc	 x26:0x00000000 x24:0x00000000
       45105000	      4509	00000000	00000013	addi	x0,x0,0	  x0:0x00000000
       45115000	      4510	800039f8	00000013	addi	x0,x0,0	  x0:0x00000000
       45125000	      4511	800039fc	01be5213	srli	x4,x28,0x1b	 x28:0x80009eec  x4=0x00000010
       45135000	      4512	80003a00	012e7233	and	x4,x28,x18	 x28:0x80009eec x18:0x0000045a  x4=0x00000448
       45145000	      4513	80003a04	01550fb3	add	x31,x10,x21	 x10:0x000009a2 x21:0x00000036 x31=0x000009d8
       45155000	      4514	80003a08	022b5863	bge	x22,x2,80003a38	 x22:0x00000000  x2:0x00000000
       45165000	      4515	00000000	00000013	addi	x0,x0,0	  x0:0x00000000
       45175000	      4516	80003a34	00000013	addi	x0,x0,0	  x0:0x00000000
       45185000	      4517	80003a38	04ef8263	beq	x31,x14,80003a7c	 x31:0x000009d8 x14:0x9291a0b7
       45195000	      4518	80003a3c	d20a9c17	auipc	x24,0xd20a9	 x24=0x520aca38
       45205000	      4519	80003a40	0102f933	and	x18,x5,x16	  x5:0x00000000 x16:0x00000000 x18=0x00000000
       45215000	      4520	80003a44	00226263	bltu	x4,x2,80003a48	  x4:0x00000448  x2:0x00000000
       45225000	      4521	80003a48	9fc0bd13	sltiu	x26,x1,-1540	  x1:0x00000000 x26=0x00000001
       45235000	      4522	80003a4c	9c7d7a93	andi	x21,x26,-1593	 x26:0x00000001 x21=0x00000001
       45245000	      4523	80003a50	016cdc93	srli	x25,x25,0x16	 x25:0x00394000 x25=0x00000000
       45255000	      4524	80003a54	417d8db3	sub	x27,x27,x23	 x27:0x000004de x23:0x00000000 x27=0x000004de
       45265000	      4525	80003a58	003c8c63	beq	x25,x3,80003a70	 x25:0x00000000  x3:0xfffffd07
       45275000	      4526	80003a5c	e07e0b93	addi	x23,x28,-505	 x28:0x80009eec x23=0x80009cf3
       45285000	      4527	80003a60	1646fa13	andi	x20,x13,356	 x13:0x00000000 x20=0x00000000
       45295000	      4528	80003a64	e37c4d13	xori	x26,x24,-457	 x24:0x520aca38 x26=0xadf5340f
       45305000	      4529	80003a68	01125c33	srl	x24,x4,x17	  x4:0x00000448 x17:0x00000000 x24=0x00000448
       45315000	      4530	80003a6c	01b28f33	add	x30,x5,x27	  x5:0x00000000 x27:0x000004de x30=0x000004de
       45325000	      4531	80003a70	00dc7e63	bgeu	x24,x13,80003a8c	 x24:0x00000448 x13:0x00000000
       45335000	      4532	00000000	00000013	addi	x0,x0,0	  x0:0x00000000
       45345000	      4533	80003a88	00000013	addi	x0,x0,0	  x0:0x00000000
       45355000	      4534	80003a8c	04555663	bge	x10,x5,80003ad8	 x10:0x000009a2  x5:0x00000000
       45365000	      4535	00000000	00000013	addi	x0,x0,0	  x0:0x00000000
       45375000	      4536	80003ad4	00000013	addi	x0,x0,0	  x0:0x00000000
       45385000	      4537	80003ad8	01d85fb3	srl	x31,x16,x29	 x16:0x00000000 x29:0x1b200000 x31=0x00000000
       45395000	      4538	80003adc	c5573397	auipc	x7,0xc5573	  x7=0x45576ad8
       45405000	      4539	80003ae0	016d5333	srl	x6,x26,x22	 x26:0xadf5340f x22:0x00000000  x6=0xadf5340f
       45415000	      4540	80003ae4	0196ba33	sltu	x20,x13,x25	 x13:0x00000000 x25:0x00000000 x20=0x00000000
       45425000	      4541	80003ae8	005e1a33	sll	x20,x28,x5	 x28:0x80009eec  x5:0x00000000 x20=0x80009eec
       45435000	      4542	80003aec	01167633	and	x12,x12,x17	 x12:0x00000000 x17:0x00000000 x12=0x00000000
       45445000	      4543	80003af0	4018d593	srai	x11,x17,0x1	 x17:0x00000000 x11=0x00000000
       45455000	      4544	80003af4	00ab37b3	sltu	x15,x22,x10	 x22:0x00000000 x10:0x000009a2 x15=0x00000001
       45465000	      4545	80003af8	000cdc33	srl	x24,x25,x0	 x25:0x00000000  x0:0x00000000 x24=0x00000000
       45475000	      4546	80003afc	a6c94293	xori	x5,x18,-1428	 x18:0x00000000  x5=0xfffffa6c
       45485000	      4547	80003b00	01a220b3	slt	x1,x4,x26	  x4:0x00000448 x26:0xadf5340f  x1=0x00000000
       45495000	      4548	80003b04	017faa33	slt	x20,x31,x23	 x31:0x00000000 x23:0x80009cf3 x20=0x00000000
       45505000	      4549	80003b08	016ed663	bge	x29,x22,80003b14	 x29:0x1b200000 x22:0x00000000
       45515000	      4550	00000000	00000013	addi	x0,x0,0	  x0:0x00000000
       45525000	      4551	80003b10	00000013	addi	x0,x0,0	  x0:0x00000000
       45535000	      4552	80003b14	007a4733	xor	x14,x20,x7	 x20:0x00000000  x7:0x45576ad8 x14=0x45576ad8
       45545000	      4553	80003b18	c5606c13	ori	x24,x0,-938	  x0:0x00000000 x24=0xfffffc56
       45555000	      4554	80003b1c	403186b3	sub	x13,x3,x3	  x3:0xfffffd07  x3:0xfffffd07 x13=0x00000000
       45565000	      4555	80003b20	02d3cc63	blt	x7,x13,80003b58	  x7:0x45576ad8 x13:0x00000000
       45575000	      4556	80003b24	413b5693	srai	x13,x22,0x13	 x22:0x00000000 x13=0x00000000
       45585000	      4557	80003b28	0082e933	or	x18,x5,x8	  x5:0xfffffa6c  x8:0x80009fc4 x18=0xffffffec
       45595000	      4558	80003b2c	16942d13	slti	x26,x8,361	  x8:0x80009fc4 x26=0x00000001
       45605000	      4559	80003b30	00000013	addi	x0,x0,0	  x0:0x00000000
       45615000	      4560	80003b34	01241113	slli	x2,x8,0x12	  x8:0x80009fc4  x2=0x7f100000
       45625000	      4561	80003b38	0276d463	bge	x13,x7,80003b60	 x13:0x00000000  x7:0x45576ad8
       45635000	      4562	80003b3c	00dcc6b3	xor	x13,x25,x13	 x25:0x00000000 x13:0x00000000 x13=0x00000000
       45645000	      4563	80003b40	8c78ab93	slti	x23,x17,-1849	 x17:0x00000000 x23=0x00000000
       45655000	      4564	80003b44	01aac863	blt	x21,x26,80003b54	 x21:0x00000001 x26:0x00000001
       45665000	      4565	80003b48	4064d893	srai	x17,x9,0x6	  x9:0x1451ff8b x17=0x005147fe
       45675000	      4566	80003b4c	01bc6ab3	or	x21,x24,x27	 x24:0xfffffc56 x27:0x000004de x21=0xfffffcde
       45685000	      4567	80003b50	045d6263	bltu	x26,x5,80003b94	 x26:0x00000001  x5:0xfffffa6c
       45695000	      4568	00000000	00000013	addi	x0,x0,0	  x0:0x00000000
       45705000	      4569	80003b90	00000013	addi	x0,x0,0	  x0:0x00000000
       45715000	      4570	80003b94	4037d2b3	sra	x5,x15,x3	 x15:0x00000001  x3:0xfffffd07  x5=0x00000000
       45725000	      4571	80003b98	017401b3	add	x3,x8,x23	  x8:0x80009fc4 x23:0x00000000  x3=0x80009fc4
       45735000	      4572	80003b9c	00f83cb3	sltu	x25,x16,x15	 x16:0x00000000 x15:0x00000001 x25=0x00000001
       45745000	      4573	80003ba0	012896b3	sll	x13,x17,x18	 x17:0x005147fe x18:0xffffffec x13=0x147fe000
       45755000	      4574	80003ba4	012a9193	slli	x3,x21,0x12	 x21:0xfffffcde  x3=0xf3780000
       45765000	      4575	80003ba8	d9907a93	andi	x21,x0,-615	  x0:0x00000000 x21=0x00000000
       45775000	      4576	80003bac	019898b3	sll	x17,x17,x25	 x17:0x005147fe x25:0x00000001 x17=0x00a28ffc
       45785000	      4577	80003bb0	65ff6b17	auipc	x22,0x65ff6	 x22=0xe5ff9bac
       45795000	      4578	80003bb4	03509663	bne	x1,x21,80003be0	  x1:0x00000000 x21:0x00000000
       45805000	      4579	80003bb8	3c2d3f97	auipc	x31,0x3c2d3	 x31=0xbc2d6bb4
       45815000	      4580	80003bbc	004fdc63	bge	x31,x4,80003bd4	 x31:0xbc2d6bb4  x4:0x00000448
       45825000	      4581	80003bc0	40b0d913	srai	x18,x1,0xb	  x1:0x00000000 x18=0x00000000
       45835000	      4582	80003bc4	40855293	srai	x5,x10,0x8	 x10:0x000009a2  x5=0x00000009
       45845000	      4583	80003bc8	00426463	bltu	x4,x4,80003bd0	  x4:0x00000448  x4:0x00000448
       45855000	      4584	80003bcc	03488863	beq	x17,x20,80003bfc	 x17:0x00a28ffc x20:0x00000000
       45865000	      4585	80003bd0	82eeb993	sltiu	x19,x29,-2002	 x29:0x1b200000 x19=0x00000001
       45875000	      4586	80003bd4	005cda63	bge	x25,x5,80003be8	 x25:0x00000001  x5:0x00000009
       45885000	      4587	80003bd8	03809863	bne	x1,x24,80003c08	  x1:0x00000000 x24:0xfffffc56
       45895000	      4588	00000000	00000013	addi	x0,x0,0	  x0:0x00000000
       45905000	      4589	80003c04	00000013	addi	x0,x0,0	  x0:0x00000000
       45915000	      4590	80003c08	01f6c533	xor	x10,x13,x31	 x13:0x147fe000 x31:0xbc2d6bb4 x10=0xa8528bb4
       45925000	      4591	80003c0c	01ed84b3	add	x9,x27,x30	 x27:0x000004de x30:0x000004de  x9=0x000009bc
       45935000	      4592	80003c10	506284b7	lui	x9,0x50628	  x9=0x50628000
       45945000	      4593	80003c14	ff6aee93	ori	x29,x21,-10	 x21:0x00000000 x29=0xfffffff6
       45955000	      4594	80003c18	00164733	xor	x14,x12,x1	 x12:0x00000000  x1:0x00000000 x14=0x00000000
       45965000	      4595	80003c1c	413cd633	sra	x12,x25,x19	 x25:0x00000001 x19:0x00000001 x12=0x00000000
       45975000	      4596	80003c20	02135a63	bge	x6,x1,80003c54	  x6:0xadf5340f  x1:0x00000000
       45985000	      4597	80003c24	410fdd13	srai	x26,x31,0x10	 x31:0xbc2d6bb4 x26=0xffffbc2d
       45995000	      4598	80003c28	00f6f863	bgeu	x13,x15,80003c38	 x13:0x147fe000 x15:0x00000001
       46005000	      4599	00000000	00000013	addi	x0,x0,0	  x0:0x00000000
       46015000	      4600	80003c34	00000013	addi	x0,x0,0	  x0:0x00000000
       46025000	      4601	80003c38	5b6dfd93	andi	x27,x27,1462	 x27:0x000004de x27=0x00000496
       46035000	      4602	80003c3c	00aa3233	sltu	x4,x20,x10	 x20:0x00000000 x10:0xa8528bb4  x4=0x00000001
       46045000	      4603	80003c40	447a2913	slti	x18,x20,1095	 x20:0x00000000 x18=0x00000001
       46055000	      4604	80003c44	009aa933	slt	x18,x21,x9	 x21:0x00000000  x9:0x50628000 x18=0x00000001
       46065000	      4605	80003c48	010e9533	sll	x10,x29,x16	 x29:0xfffffff6 x16:0x00000000 x10=0xfffffff6
       46075000	      4606	80003c4c	00b69393	slli	x7,x13,0xb	 x13:0x147fe000  x7=0xff000000
       46085000	      4607	80003c50	0163e133	or	x2,x7,x22	  x7:0xff000000 x22:0xe5ff9bac  x2=0xffff9bac
       46095000	      4608	80003c54	00dc2b33	slt	x22,x24,x13	 x24:0xfffffc56 x13:0x147fe000 x22=0x00000001
       46105000	      4609	80003c58	00fd6263	bltu	x26,x15,80003c5c	 x26:0xffffbc2d x15:0x00000001
       46115000	      4610	80003c5c	01956a33	or	x20,x10,x25	 x10:0xfffffff6 x25:0x00000001 x20=0xfffffff7
       46125000	      4611	80003c60	05d7e663	bltu	x15,x29,80003cac	 x15:0x00000001 x29:0xfffffff6
       46135000	      4612	00000000	00000013	addi	x0,x0,0	  x0:0x00000000
       46145000	      4613	80003ca8	00000013	addi	x0,x0,0	  x0:0x00000000
       46155000	      4614	80003cac	008e0bb3	add	x23,x28,x8	 x28:0x80009eec  x8:0x80009fc4 x23=0x00013eb0
       46165000	      4615	80003cb0	013b18b3	sll	x17,x22,x19	 x22:0x00000001 x19:0x00000001 x17=0x00000002
       46175000	      4616	80003cb4	005ad6b3	srl	x13,x21,x5	 x21:0x00000000  x5:0x00000009 x13=0x00000000
       46185000	      4617	80003cb8	00000013	addi	x0,x0,0	  x0:0x00000000
       46195000	      4618	80003cbc	00e11233	sll	x4,x2,x14	  x2:0xffff9bac x14:0x00000000  x4=0xffff9bac
       46205000	      4619	80003cc0	401e5713	srai	x14,x28,0x1	 x28:0x80009eec x14=0xc0004f76
       46215000	      4620	80003cc4	40a2d093	srai	x1,x5,0xa	  x5:0x00000009  x1=0x00000000
       46225000	      4621	80003cc8	3d5e6793	ori	x15,x28,981	 x28:0x80009eec x15=0x80009ffd
       46235000	      4622	80003ccc	a2048693	addi	x13,x9,-1504	  x9:0x50628000 x13=0x50627a20
       46245000	      4623	80003cd0	00e41863	bne	x8,x14,80003ce0	  x8:0x80009fc4 x14:0xc0004f76
       46255000	      4624	00000000	00000013	addi	x0,x0,0	  x0:0x00000000
       46265000	      4625	80003cdc	00000013	addi	x0,x0,0	  x0:0x00000000
       46275000	      4626	80003ce0	04210063	beq	x2,x2,80003d20	  x2:0xffff9bac  x2:0xffff9bac
       46285000	      4627	00000000	00000013	addi	x0,x0,0	  x0:0x00000000
       46295000	      4628	80003d1c	00000013	addi	x0,x0,0	  x0:0x00000000
       46305000	      4629	80003d20	045bd063	bge	x23,x5,80003d60	 x23:0x00013eb0  x5:0x00000009
       46315000	      4630	00000000	00000013	addi	x0,x0,0	  x0:0x00000000
       46325000	      4631	80003d5c	00000013	addi	x0,x0,0	  x0:0x00000000
       46335000	      4632	80003d60	00cfb5b3	sltu	x11,x31,x12	 x31:0xbc2d6bb4 x12:0x00000000 x11=0x00000000
       46345000	      4633	80003d64	f6745497	auipc	x9,0xf6745	  x9=0x76748d60
       46355000	      4634	80003d68	96ceca13	xori	x20,x29,-1684	 x29:0xfffffff6 x20=0x0000069a
       46365000	      4635	80003d6c	f8e26a93	ori	x21,x4,-114	  x4:0xffff9bac x21=0xffffffae
       46375000	      4636	80003d70	01965663	bge	x12,x25,80003d7c	 x12:0x00000000 x25:0x00000001
       46385000	      4637	80003d74	005e1cb3	sll	x25,x28,x5	 x28:0x80009eec  x5:0x00000009 x25=0x013dd800
       46395000	      4638	80003d78	029df463	bgeu	x27,x9,80003da0	 x27:0x00000496  x9:0x76748d60
       46405000	      4639	80003d7c	0154b1b3	sltu	x3,x9,x21	  x9:0x76748d60 x21:0xffffffae  x3=0x00000001
       46415000	      4640	80003d80	016cd3b3	srl	x7,x25,x22	 x25:0x013dd800 x22:0x00000001  x7=0x009eec00
       46425000	      4641	80003d84	015a9c13	slli	x24,x21,0x15	 x21:0xffffffae x24=0xf5c00000
       46435000	      4642	80003d88	eec0fc93	andi	x25,x1,-276	  x1:0x00000000 x25=0x00000000
       46445000	      4643	80003d8c	0032d1b3	srl	x3,x5,x3	  x5:0x00000009  x3:0x00000001  x3=0x00000004
       46455000	      4644	80003d90	008fde63	bge	x31,x8,80003dac	 x31:0xbc2d6bb4  x8:0x80009fc4
       46465000	      4645	00000000	00000013	addi	x0,x0,0	  x0:0x00000000
       46475000	      4646	80003da8	00000013	addi	x0,x0,0	  x0:0x00000000
       46485000	      4647	80003dac	010c3733	sltu	x14,x24,x16	 x24:0xf5c00000 x16:0x00000000 x14=0x00000000
       46495000	      4648	80003db0	00251cb3	sll	x25,x10,x2	 x10:0xfffffff6  x2:0xffff9bac x25=0xffff6000
       46505000	      4649	80003db4	01eed133	srl	x2,x29,x30	 x29:0xfffffff6 x30:0x000004de  x2=0x00000003
       46515000	      4650	80003db8	d42d7e93	andi	x29,x26,-702	 x26:0xffffbc2d x29=0xffffbc00
       46525000	      4651	80003dbc	7e104893	xori	x17,x0,2017	  x0:0x00000000 x17=0x000007e1
       46535000	      4652	80003dc0	b395e613	ori	x12,x11,-1223	 x11:0x00000000 x12=0xfffffb39
       46545000	      4653	80003dc4	401c05b3	sub	x11,x24,x1	 x24:0xf5c00000  x1:0x00000000 x11=0xf5c00000
       46555000	      4654	80003dc8	00000013	addi	x0,x0,0	  x0:0x00000000
       46565000	      4655	80003dcc	01c8f933	and	x18,x17,x28	 x17:0x000007e1 x28:0x80009eec x18=0x000006e0
       46575000	      4656	80003dd0	018cb933	sltu	x18,x25,x24	 x25:0xffff6000 x24:0xf5c00000 x18=0x00000000
       46585000	      4657	80003dd4	01745893	srli	x17,x8,0x17	  x8:0x80009fc4 x17=0x00000100
       46595000	      4658	80003dd8	012a4333	xor	x6,x20,x18	 x20:0x0000069a x18:0x00000000  x6=0x0000069a
       46605000	      4659	80003ddc	00485333	srl	x6,x16,x4	 x16:0x00000000  x4:0xffff9bac  x6=0x00000000
       46615000	      4660	80003de0	019c2a33	slt	x20,x24,x25	 x24:0xf5c00000 x25:0xffff6000 x20=0x00000001
       46625000	      4661	80003de4	41850233	sub	x4,x10,x24	 x10:0xfffffff6 x24:0xf5c00000  x4=0x0a3ffff6
       46635000	      4662	80003de8	01f0f733	and	x14,x1,x31	  x1:0x00000000 x31:0xbc2d6bb4 x14=0x00000000
       46645000	      4663	80003dec	01a228b3	slt	x17,x4,x26	  x4:0x0a3ffff6 x26:0xffffbc2d x17=0x00000000
       46655000	      4664	80003df0	c23173b7	lui	x7,0xc2317	  x7=0xc2317000
       46665000	      4665	80003df4	418a0c33	sub	x24,x20,x24	 x20:0x00000001 x24:0xf5c00000 x24=0x0a400001
       46675000	      4666	80003df8	7947f493	andi	x9,x15,1940	 x15:0x80009ffd  x9=0x00000794
       46685000	      4667	80003dfc	40095f13	srai	x30,x18,0x0	 x18:0x00000000 x30=0x00000000
       46695000	      4668	80003e00	01566bb3	or	x23,x12,x21	 x12:0xfffffb39 x21:0xffffffae x23=0xffffffbf
       46705000	      4669	80003e04	00d4b333	sltu	x6,x9,x13	  x9:0x00000794 x13:0x50627a20  x6=0x00000001
       46715000	      4670	80003e08	00645533	srl	x10,x8,x6	  x8:0x80009fc4  x6:0x00000001 x10=0x40004fe2
       46725000	      4671	80003e0c	0136c263	blt	x13,x19,80003e10	 x13:0x50627a20 x19:0x00000001
       46735000	      4672	80003e10	03315a63	bge	x2,x19,80003e44	  x2:0x00000003 x19:0x00000001
       46745000	      4673	00000000	00000013	addi	x0,x0,0	  x0:0x00000000
       46755000	      4674	80003e40	00000013	addi	x0,x0,0	  x0:0x00000000
       46765000	      4675	80003e44	00000013	addi	x0,x0,0	  x0:0x00000000
       46775000	      4676	80003e48	03a34463	blt	x6,x26,80003e70	  x6:0x00000001 x26:0xffffbc2d
       46785000	      4677	80003e4c	0042dc93	srli	x25,x5,0x4	  x5:0x00000009 x25=0x00000000
       46795000	      4678	80003e50	41a15393	srai	x7,x2,0x1a	  x2:0x00000003  x7=0x00000000
       46805000	      4679	80003e54	01025933	srl	x18,x4,x16	  x4:0x0a3ffff6 x16:0x00000000 x18=0x0a3ffff6
       46815000	      4680	80003e58	00d48d33	add	x26,x9,x13	  x9:0x00000794 x13:0x50627a20 x26=0x506281b4
       46825000	      4681	80003e5c	00c3a3b3	slt	x7,x7,x12	  x7:0x00000000 x12:0xfffffb39  x7=0x00000000
       46835000	      4682	80003e60	01da8263	beq	x21,x29,80003e64	 x21:0xffffffae x29:0xffffbc00
       46845000	      4683	80003e64	00d542b3	xor	x5,x10,x13	 x10:0x40004fe2 x13:0x50627a20  x5=0x106235c2
       46855000	      4684	80003e68	a2208a13	addi	x20,x1,-1502	  x1:0x00000000 x20=0xfffffa22
       46865000	      4685	80003e6c	8f466bb7	lui	x23,0x8f466	 x23=0x8f466000
       46875000	      4686	80003e70	00cde333	or	x6,x27,x12	 x27:0x00000496 x12:0xfffffb39  x6=0xffffffbf
       46885000	      4687	80003e74	02bb1863	bne	x22,x11,80003ea4	 x22:0x00000001 x11:0xf5c00000
       46895000	      4688	00000000	00000013	addi	x0,x0,0	  x0:0x00000000
       46905000	      4689	80003ea0	00000013	addi	x0,x0,0	  x0:0x00000000
       46915000	      4690	80003ea4	5fe13497	auipc	x9,0x5fe13	  x9=0xdfe16ea0
       46925000	      4691	80003ea8	8cd0b537	lui	x10,0x8cd0b	 x10=0x8cd0b000
       46935000	      4692	80003eac	010b4ab3	xor	x21,x22,x16	 x22:0x00000001 x16:0x00000000 x21=0x00000001
       46945000	      4693	80003eb0	5850e193	ori	x3,x1,1413	  x1:0x00000000  x3=0x00000585
       46955000	      4694	80003eb4	fa78c893	xori	x17,x17,-89	 x17:0x00000000 x17=0xffffffa7
       46965000	      4695	80003eb8	0171e463	bltu	x3,x23,80003ec0	  x3:0x00000585 x23:0x8f466000
       46975000	      4696	00000000	00000013	addi	x0,x0,0	  x0:0x00000000
       46985000	      4697	80003ebc	00000013	addi	x0,x0,0	  x0:0x00000000
       46995000	      4698	80003ec0	01c7ba33	sltu	x20,x15,x28	 x15:0x80009ffd x28:0x80009eec x20=0x00000000
       47005000	      4699	80003ec4	012c9533	sll	x10,x25,x18	 x25:0x00000000 x18:0x0a3ffff6 x10=0x00000000
       47015000	      4700	80003ec8	872cbd13	sltiu	x26,x25,-1934	 x25:0x00000000 x26=0x00000001
       47025000	      4701	80003ecc	046ee063	bltu	x29,x6,80003f0c	 x29:0xffffbc00  x6:0xffffffbf
       47035000	      4702	00000000	00000013	addi	x0,x0,0	  x0:0x00000000
       47045000	      4703	80003f08	00000013	addi	x0,x0,0	  x0:0x00000000
       47055000	      4704	80003f0c	6c0cbc93	sltiu	x25,x25,1728	 x25:0x00000000 x25=0x00000001
       47065000	      4705	80003f10	09571663	bne	x14,x21,80003f9c	 x14:0x00000000 x21:0x00000001
       47075000	      4706	00000000	00000013	addi	x0,x0,0	  x0:0x00000000
       47085000	      4707	80003f98	00000013	addi	x0,x0,0	  x0:0x00000000
       47095000	      4708	80003f9c	01411633	sll	x12,x2,x20	  x2:0x00000003 x20:0x00000000 x12=0x00000003
       47105000	      4709	80003fa0	29163493	sltiu	x9,x12,657	 x12:0x00000003  x9=0x00000001
       47115000	      4710	80003fa4	00a592b3	sll	x5,x11,x10	 x11:0xf5c00000 x10:0x00000000  x5=0xf5c00000
       47125000	      4711	80003fa8	c18d2737	lui	x14,0xc18d2	 x14=0xc18d2000
       47135000	      4712	80003fac	018a5313	srli	x6,x20,0x18	 x20:0x00000000  x6=0x00000000
       47145000	      4713	80003fb0	ad97e893	ori	x17,x15,-1319	 x15:0x80009ffd x17=0xfffffffd
       47155000	      4714	80003fb4	0116fab3	and	x21,x13,x17	 x13:0x50627a20 x17:0xfffffffd x21=0x50627a20
       47165000	      4715	80003fb8	00941893	slli	x17,x8,0x9	  x8:0x80009fc4 x17=0x013f8800
       47175000	      4716	80003fbc	010e1c63	bne	x28,x16,80003fd4	 x28:0x80009eec x16:0x00000000
       47185000	      4717	00000000	00000013	addi	x0,x0,0	  x0:0x00000000
       47195000	      4718	80003fd0	00000013	addi	x0,x0,0	  x0:0x00000000
       47205000	      4719	80003fd4	f8cd4f13	xori	x30,x26,-116	 x26:0x00000001 x30=0xffffff8d
       47215000	      4720	80003fd8	04c75263	bge	x14,x12,8000401c	 x14:0xc18d2000 x12:0x00000003
       47225000	      4721	80003fdc	0225f863	bgeu	x11,x2,8000400c	 x11:0xf5c00000  x2:0x00000003
       47235000	      4722	00000000	00000013	addi	x0,x0,0	  x0:0x00000000
       47245000	      4723	80004008	00000013	addi	x0,x0,0	  x0:0x00000000
       47255000	      4724	8000400c	00eb54b3	srl	x9,x22,x14	 x22:0x00000001 x14:0xc18d2000  x9=0x00000001
       47265000	      4725	80004010	d5b72617	auipc	x12,0xd5b72	 x12=0x55b7600c
       47275000	      4726	80004014	00136663	bltu	x6,x1,80004020	  x6:0x00000000  x1:0x00000000
       47285000	      4727	80004018	a65aa913	slti	x18,x21,-1435	 x21:0x50627a20 x18=0x00000000
       47295000	      4728	8000401c	5487bc97	auipc	x25,0x5487b	 x25=0xd487f018
       47305000	      4729	80004020	bdecbc13	sltiu	x24,x25,-1058	 x25:0xd487f018 x24=0x00000001
       47315000	      4730	80004024	00301c13	slli	x24,x0,0x3	  x0:0x00000000 x24=0x00000000
       47325000	      4731	80004028	008147b3	xor	x15,x2,x8	  x2:0x00000003  x8:0x80009fc4 x15=0x80009fc7
       47335000	      4732	8000402c	0065a233	slt	x4,x11,x6	 x11:0xf5c00000  x6:0x00000000  x4=0x00000001
       47345000	      4733	80004030	01b41a33	sll	x20,x8,x27	  x8:0x80009fc4 x27:0x00000496 x20=0xf1000000
       47355000	      4734	80004034	035b1863	bne	x22,x21,80004064	 x22:0x00000001 x21:0x50627a20
       47365000	      4735	00000000	00000013	addi	x0,x0,0	  x0:0x00000000
       47375000	      4736	80004060	00000013	addi	x0,x0,0	  x0:0x00000000
       47385000	      4737	80004064	00e77bb3	and	x23,x14,x14	 x14:0xc18d2000 x14:0xc18d2000 x23=0xc18d2000
       47395000	      4738	80004068	9d9d6d97	auipc	x27,0x9d9d6	 x27=0x1d9da064
       47405000	      4739	8000406c	0145cb33	xor	x22,x11,x20	 x11:0xf5c00000 x20:0xf1000000 x22=0x04c00000
       47415000	      4740	80004070	00a170b3	and	x1,x2,x10	  x2:0x00000003 x10:0x00000000  x1=0x00000000
       47425000	      4741	80004074	40abd213	srai	x4,x23,0xa	 x23:0xc18d2000  x4=0xfff06348
       47435000	      4742	80004078	00e316b3	sll	x13,x6,x14	  x6:0x00000000 x14:0xc18d2000 x13=0x00000000
       47445000	      4743	8000407c	410ad393	srai	x7,x21,0x10	 x21:0x50627a20  x7=0x00005062
       47455000	      4744	80004080	40c35493	srai	x9,x6,0xc	  x6:0x00000000  x9=0x00000000
       47465000	      4745	80004084	414304b3	sub	x9,x6,x20	  x6:0x00000000 x20:0xf1000000  x9=0x0f000000
       47475000	      4746	80004088	012bc033	xor	x0,x23,x18	 x23:0xc18d2000 x18:0x00000000
       47485000	      4747	8000408c	02a70663	beq	x14,x10,800040b8	 x14:0xc18d2000 x10:0x00000000
       47495000	      4748	80004090	009edd13	srli	x26,x29,0x9	 x29:0xffffbc00 x26=0x007fffde
       47505000	      4749	80004094	c7e9f637	lui	x12,0xc7e9f	 x12=0xc7e9f000
       47515000	      4750	80004098	f8b34617	auipc	x12,0xf8b34	 x12=0x78b38094
       47525000	      4751	8000409c	02db9463	bne	x23,x13,800040c4	 x23:0xc18d2000 x13:0x00000000
       47535000	      4752	00000000	00000013	addi	x0,x0,0	  x0:0x00000000
       47545000	      4753	800040c0	00000013	addi	x0,x0,0	  x0:0x00000000
       47555000	      4754	800040c4	01585793	srli	x15,x16,0x15	 x16:0x00000000 x15=0x00000000
       47565000	      4755	800040c8	40255e93	srai	x29,x10,0x2	 x10:0x00000000 x29=0x00000000
       47575000	      4756	800040cc	004e2c03	lw	x24,4(x28)	 x28:0x80009eec x24=0x800025e4 PA:0x80009ef0
       47585000	      4757	800040d0	00000013	addi	x0,x0,0	  x0:0x00000000
       47595000	      4758	800040d4	024e0e13	addi	x28,x28,36	 x28:0x80009eec x28=0x80009f10
       47605000	      4759	800040d8	a7c61e97	auipc	x29,0xa7c61	 x29=0x27c650d4
       47615000	      4760	800040dc	34bf4493	xori	x9,x30,843	 x30:0xffffff8d  x9=0xfffffcc6
       47625000	      4761	800040e0	010bafb3	slt	x31,x23,x16	 x23:0xc18d2000 x16:0x00000000 x31=0x00000001
       47635000	      4762	800040e4	00bf8333	add	x6,x31,x11	 x31:0x00000001 x11:0xf5c00000  x6=0xf5c00001
       47645000	      4763	800040e8	0133e533	or	x10,x7,x19	  x7:0x00005062 x19:0x00000001 x10=0x00005063
       47655000	      4764	800040ec	41ded2b3	sra	x5,x29,x29	 x29:0x27c650d4 x29:0x27c650d4  x5=0x0000027c
       47665000	      4765	800040f0	001c0293	addi	x5,x24,1	 x24:0x800025e4  x5=0x800025e5
       47675000	      4766	800040f4	000282e7	jalr	x5,x5,0	  x5:0x800025e5  x5=0x800040f4
       47685000	      4767	00000000	00000013	addi	x0,x0,0	  x0:0x00000000
       47695000	      4768	800025e4	00000013	addi	x0,x0,0	  x0:0x00000000
       47705000	      4769	800025e8	0138dc93	srli	x25,x17,0x13	 x17:0x013f8800 x25=0x00000027
       47715000	      4770	800025ec	0097fc33	and	x24,x15,x9	 x15:0x00000000  x9:0xfffffcc6 x24=0x00000000
       47725000	      4771	800025f0	00000013	addi	x0,x0,0	  x0:0x00000000
       47735000	      4772	800025f4	012182b3	add	x5,x3,x18	  x3:0x00000585 x18:0x00000000  x5=0x00000585
       47745000	      4773	800025f8	00375293	srli	x5,x14,0x3	 x14:0xc18d2000  x5=0x1831a400
       47755000	      4774	800025fc	008c5293	srli	x5,x24,0x8	 x24:0x00000000  x5=0x00000000
       47765000	      4775	80002600	42400c6f	jal	x24,80002600	 x24=0x80002600
       47775000	      4776	00000000	00000013	addi	x0,x0,0	  x0:0x00000000
       47785000	      4777	80002a20	00000013	addi	x0,x0,0	  x0:0x00000000
       47795000	      4778	80002a24	002509b3	add	x19,x10,x2	 x10:0x00005063  x2:0x00000003 x19=0x00005066
       47805000	      4779	80002a28	d5aa3897	auipc	x17,0xd5aa3	 x17=0x55aa5a24
       47815000	      4780	80002a2c	769cfa17	auipc	x20,0x769cf	 x20=0xf69d1a28
       47825000	      4781	80002a30	01d86263	bltu	x16,x29,80002a34	 x16:0x00000000 x29:0x27c650d4
       47835000	      4782	00000000	00000013	addi	x0,x0,0	  x0:0x00000000
       47845000	      4783	80002a30	00000013	addi	x0,x0,0	  x0:0x00000000
       47855000	      4784	80002a34	fdce0e13	addi	x28,x28,-36	 x28:0x80009f10 x28=0x80009eec
       47865000	      4785	80002a38	a8da2213	slti	x4,x20,-1395	 x20:0xf69d1a28  x4=0x00000001
       47875000	      4786	80002a3c	50667093	andi	x1,x12,1286	 x12:0x78b38094  x1=0x00000004
       47885000	      4787	80002a40	008ac233	xor	x4,x21,x8	 x21:0x50627a20  x8:0x80009fc4  x4=0xd062e5e4
       47895000	      4788	80002a44	0191da33	srl	x20,x3,x25	  x3:0x00000585 x25:0x00000027 x20=0x0000000b
       47905000	      4789	80002a48	018e2223	sw	x24,4(x28)	 x28:0x80009eec x24:0x80002600 PA:0x80009ef0
       47915000	      4790	80002a4c	c2546913	ori	x18,x8,-987	  x8:0x80009fc4 x18=0xffffffe5
       47925000	      4791	80002a50	00800c6f	jal	x24,80002a50	 x24=0x80002a50
       47935000	      4792	00000000	00000013	addi	x0,x0,0	  x0:0x00000000
       47945000	      4793	80002a54	00000013	addi	x0,x0,0	  x0:0x00000000
       47955000	      4794	80002a58	01c00cef	jal	x25,80002a58	 x25=0x80002a58
       47965000	      4795	00000000	00000013	addi	x0,x0,0	  x0:0x00000000
       47975000	      4796	80002a70	00000013	addi	x0,x0,0	  x0:0x00000000
       47985000	      4797	80002a74	00c0036f	jal	x6,80002a74	  x6=0x80002a74
       47995000	      4798	00000000	00000013	addi	x0,x0,0	  x0:0x00000000
       48005000	      4799	80002a7c	00000013	addi	x0,x0,0	  x0:0x00000000
       48015000	      4800	80002a80	fe9ff0ef	jal	x1,80002a80	  x1=0x80002a80
       48025000	      4801	00000000	00000013	addi	x0,x0,0	  x0:0x00000000
       48035000	      4802	80002a64	00000013	addi	x0,x0,0	  x0:0x00000000
       48045000	      4803	80002a68	ff9ff36f	jal	x6,80002a68	  x6=0x80002a68
       48055000	      4804	00000000	00000013	addi	x0,x0,0	  x0:0x00000000
       48065000	      4805	80002a5c	00000013	addi	x0,x0,0	  x0:0x00000000
       48075000	      4806	80002a60	010000ef	jal	x1,80002a60	  x1=0x80002a60
       48085000	      4807	00000000	00000013	addi	x0,x0,0	  x0:0x00000000
       48095000	      4808	80002a6c	00000013	addi	x0,x0,0	  x0:0x00000000
       48105000	      4809	80002a70	ffdff36f	jal	x6,80002a70	  x6=0x80002a70
       48115000	      4810	00000000	00000013	addi	x0,x0,0	  x0:0x00000000
       48125000	      4811	80002a68	00000013	addi	x0,x0,0	  x0:0x00000000
       48135000	      4812	80002a6c	00c00cef	jal	x25,80002a6c	 x25=0x80002a6c
       48145000	      4813	00000000	00000013	addi	x0,x0,0	  x0:0x00000000
       48155000	      4814	80002a74	00000013	addi	x0,x0,0	  x0:0x00000000
       48165000	      4815	80002a78	004000ef	jal	x1,80002a78	  x1=0x80002a78
       48175000	      4816	00000000	00000013	addi	x0,x0,0	  x0:0x00000000
       48185000	      4817	80002a78	00000013	addi	x0,x0,0	  x0:0x00000000
       48195000	      4818	80002a7c	00800def	jal	x27,80002a7c	 x27=0x80002a7c
       48205000	      4819	00000000	00000013	addi	x0,x0,0	  x0:0x00000000
       48215000	      4820	80002a80	00000013	addi	x0,x0,0	  x0:0x00000000
       48225000	      4821	80002a84	fd9fff6f	jal	x30,80002a84	 x30=0x80002a84
       48235000	      4822	00000000	00000013	addi	x0,x0,0	  x0:0x00000000
       48245000	      4823	80002a58	00000013	addi	x0,x0,0	  x0:0x00000000
       48255000	      4824	80002a5c	ff9ff56f	jal	x10,80002a5c	 x10=0x80002a5c
       48265000	      4825	00000000	00000013	addi	x0,x0,0	  x0:0x00000000
       48275000	      4826	80002a50	00000013	addi	x0,x0,0	  x0:0x00000000
       48285000	      4827	80002a54	010000ef	jal	x1,80002a54	  x1=0x80002a54
       48295000	      4828	00000000	00000013	addi	x0,x0,0	  x0:0x00000000
       48305000	      4829	80002a60	00000013	addi	x0,x0,0	  x0:0x00000000
       48315000	      4830	80002a64	0240026f	jal	x4,80002a64	  x4=0x80002a64
       48325000	      4831	00000000	00000013	addi	x0,x0,0	  x0:0x00000000
       48335000	      4832	80002a84	00000013	addi	x0,x0,0	  x0:0x00000000
       48345000	      4833	80002a88	ca584097	auipc	x1,0xca584	  x1=0x4a586a84
       48355000	      4834	80002a8c	04c00c6f	jal	x24,80002a8c	 x24=0x80002a8c
       48365000	      4835	00000000	00000013	addi	x0,x0,0	  x0:0x00000000
       48375000	      4836	80002ad4	00000013	addi	x0,x0,0	  x0:0x00000000
       48385000	      4837	80002ad8	018007ef	jal	x15,80002ad8	 x15=0x80002ad8
       48395000	      4838	00000000	00000013	addi	x0,x0,0	  x0:0x00000000
       48405000	      4839	80002aec	00000013	addi	x0,x0,0	  x0:0x00000000
       48415000	      4840	80002af0	0040096f	jal	x18,80002af0	 x18=0x80002af0
       48425000	      4841	00000000	00000013	addi	x0,x0,0	  x0:0x00000000
       48435000	      4842	80002af0	00000013	addi	x0,x0,0	  x0:0x00000000
       48445000	      4843	80002af4	008000ef	jal	x1,80002af4	  x1=0x80002af4
       48455000	      4844	00000000	00000013	addi	x0,x0,0	  x0:0x00000000
       48465000	      4845	80002af8	00000013	addi	x0,x0,0	  x0:0x00000000
       48475000	      4846	80002afc	fd1ff0ef	jal	x1,80002afc	  x1=0x80002afc
       48485000	      4847	00000000	00000013	addi	x0,x0,0	  x0:0x00000000
       48495000	      4848	80002ac8	00000013	addi	x0,x0,0	  x0:0x00000000
       48505000	      4849	80002acc	fe9ff36f	jal	x6,80002acc	  x6=0x80002acc
       48515000	      4850	00000000	00000013	addi	x0,x0,0	  x0:0x00000000
       48525000	      4851	80002ab0	00000013	addi	x0,x0,0	  x0:0x00000000
       48535000	      4852	80002ab4	ffdff26f	jal	x4,80002ab4	  x4=0x80002ab4
       48545000	      4853	00000000	00000013	addi	x0,x0,0	  x0:0x00000000
       48555000	      4854	80002aac	00000013	addi	x0,x0,0	  x0:0x00000000
       48565000	      4855	80002ab0	fe9ffbef	jal	x23,80002ab0	 x23=0x80002ab0
       48575000	      4856	00000000	00000013	addi	x0,x0,0	  x0:0x00000000
       48585000	      4857	80002a94	00000013	addi	x0,x0,0	  x0:0x00000000
       48595000	      4858	80002a98	038001ef	jal	x3,80002a98	  x3=0x80002a98
       48605000	      4859	00000000	00000013	addi	x0,x0,0	  x0:0x00000000
       48615000	      4860	80002acc	00000013	addi	x0,x0,0	  x0:0x00000000
       48625000	      4861	80002ad0	0140036f	jal	x6,80002ad0	  x6=0x80002ad0
       48635000	      4862	00000000	00000013	addi	x0,x0,0	  x0:0x00000000
       48645000	      4863	80002ae0	00000013	addi	x0,x0,0	  x0:0x00000000
       48655000	      4864	80002ae4	004000ef	jal	x1,80002ae4	  x1=0x80002ae4
       48665000	      4865	00000000	00000013	addi	x0,x0,0	  x0:0x00000000
       48675000	      4866	80002ae4	00000013	addi	x0,x0,0	  x0:0x00000000
       48685000	      4867	80002ae8	fc5ff0ef	jal	x1,80002ae8	  x1=0x80002ae8
       48695000	      4868	00000000	00000013	addi	x0,x0,0	  x0:0x00000000
       48705000	      4869	80002aa8	00000013	addi	x0,x0,0	  x0:0x00000000
       48715000	      4870	80002aac	04c00bef	jal	x23,80002aac	 x23=0x80002aac
       48725000	      4871	00000000	00000013	addi	x0,x0,0	  x0:0x00000000
       48735000	      4872	80002af4	00000013	addi	x0,x0,0	  x0:0x00000000
       48745000	      4873	80002af8	f99ff5ef	jal	x11,80002af8	 x11=0x80002af8
       48755000	      4874	00000000	00000013	addi	x0,x0,0	  x0:0x00000000
       48765000	      4875	80002a8c	00000013	addi	x0,x0,0	  x0:0x00000000
       48775000	      4876	80002a90	010000ef	jal	x1,80002a90	  x1=0x80002a90
       48785000	      4877	00000000	00000013	addi	x0,x0,0	  x0:0x00000000
       48795000	      4878	80002a9c	00000013	addi	x0,x0,0	  x0:0x00000000
       48805000	      4879	80002aa0	04c000ef	jal	x1,80002aa0	  x1=0x80002aa0
       48815000	      4880	00000000	00000013	addi	x0,x0,0	  x0:0x00000000
       48825000	      4881	80002ae8	00000013	addi	x0,x0,0	  x0:0x00000000
       48835000	      4882	80002aec	fb9ff36f	jal	x6,80002aec	  x6=0x80002aec
       48845000	      4883	00000000	00000013	addi	x0,x0,0	  x0:0x00000000
       48855000	      4884	80002aa0	00000013	addi	x0,x0,0	  x0:0x00000000
       48865000	      4885	80002aa4	ff9ff36f	jal	x6,80002aa4	  x6=0x80002aa4
       48875000	      4886	00000000	00000013	addi	x0,x0,0	  x0:0x00000000
       48885000	      4887	80002a98	00000013	addi	x0,x0,0	  x0:0x00000000
       48895000	      4888	80002a9c	024001ef	jal	x3,80002a9c	  x3=0x80002a9c
       48905000	      4889	00000000	00000013	addi	x0,x0,0	  x0:0x00000000
       48915000	      4890	80002abc	00000013	addi	x0,x0,0	  x0:0x00000000
       48925000	      4891	80002ac0	020000ef	jal	x1,80002ac0	  x1=0x80002ac0
       48935000	      4892	00000000	00000013	addi	x0,x0,0	  x0:0x00000000
       48945000	      4893	80002adc	00000013	addi	x0,x0,0	  x0:0x00000000
       48955000	      4894	80002ae0	fe9ff36f	jal	x6,80002ae0	  x6=0x80002ae0
       48965000	      4895	00000000	00000013	addi	x0,x0,0	  x0:0x00000000
       48975000	      4896	80002ac4	00000013	addi	x0,x0,0	  x0:0x00000000
       48985000	      4897	80002ac8	ff5ff36f	jal	x6,80002ac8	  x6=0x80002ac8
       48995000	      4898	00000000	00000013	addi	x0,x0,0	  x0:0x00000000
       49005000	      4899	80002ab8	00000013	addi	x0,x0,0	  x0:0x00000000
       49015000	      4900	80002abc	ffdff0ef	jal	x1,80002abc	  x1=0x80002abc
       49025000	      4901	00000000	00000013	addi	x0,x0,0	  x0:0x00000000
       49035000	      4902	80002ab4	00000013	addi	x0,x0,0	  x0:0x00000000
       49045000	      4903	80002ab8	01c000ef	jal	x1,80002ab8	  x1=0x80002ab8
       49055000	      4904	00000000	00000013	addi	x0,x0,0	  x0:0x00000000
       49065000	      4905	80002ad0	00000013	addi	x0,x0,0	  x0:0x00000000
       49075000	      4906	80002ad4	ff1ff0ef	jal	x1,80002ad4	  x1=0x80002ad4
       49085000	      4907	00000000	00000013	addi	x0,x0,0	  x0:0x00000000
       49095000	      4908	80002ac0	00000013	addi	x0,x0,0	  x0:0x00000000
       49105000	      4909	80002ac4	018000ef	jal	x1,80002ac4	  x1=0x80002ac4
       49115000	      4910	00000000	00000013	addi	x0,x0,0	  x0:0x00000000
       49125000	      4911	80002ad8	00000013	addi	x0,x0,0	  x0:0x00000000
       49135000	      4912	80002adc	fcdff36f	jal	x6,80002adc	  x6=0x80002adc
       49145000	      4913	00000000	00000013	addi	x0,x0,0	  x0:0x00000000
       49155000	      4914	80002aa4	00000013	addi	x0,x0,0	  x0:0x00000000
       49165000	      4915	80002aa8	fedff0ef	jal	x1,80002aa8	  x1=0x80002aa8
       49175000	      4916	00000000	00000013	addi	x0,x0,0	  x0:0x00000000
       49185000	      4917	80002a90	00000013	addi	x0,x0,0	  x0:0x00000000
       49195000	      4918	80002a94	06c000ef	jal	x1,80002a94	  x1=0x80002a94
       49205000	      4919	00000000	00000013	addi	x0,x0,0	  x0:0x00000000
       49215000	      4920	80002afc	00000013	addi	x0,x0,0	  x0:0x00000000
       49225000	      4921	80002b00	f9edea13	ori	x20,x27,-98	 x27:0x80002a7c x20=0xfffffffe
       49235000	      4922	80002b04	02400c6f	jal	x24,80002b04	 x24=0x80002b04
       49245000	      4923	00000000	00000013	addi	x0,x0,0	  x0:0x00000000
       49255000	      4924	80002b24	00000013	addi	x0,x0,0	  x0:0x00000000
       49265000	      4925	80002b28	028000ef	jal	x1,80002b28	  x1=0x80002b28
       49275000	      4926	00000000	00000013	addi	x0,x0,0	  x0:0x00000000
       49285000	      4927	80002b4c	00000013	addi	x0,x0,0	  x0:0x00000000
       49295000	      4928	80002b50	ffdff0ef	jal	x1,80002b50	  x1=0x80002b50
       49305000	      4929	00000000	00000013	addi	x0,x0,0	  x0:0x00000000
       49315000	      4930	80002b48	00000013	addi	x0,x0,0	  x0:0x00000000
       49325000	      4931	80002b4c	fe5ff0ef	jal	x1,80002b4c	  x1=0x80002b4c
       49335000	      4932	00000000	00000013	addi	x0,x0,0	  x0:0x00000000
       49345000	      4933	80002b2c	00000013	addi	x0,x0,0	  x0:0x00000000
       49355000	      4934	80002b30	ffdff0ef	jal	x1,80002b30	  x1=0x80002b30
       49365000	      4935	00000000	00000013	addi	x0,x0,0	  x0:0x00000000
       49375000	      4936	80002b28	00000013	addi	x0,x0,0	  x0:0x00000000
       49385000	      4937	80002b2c	01800eef	jal	x29,80002b2c	 x29=0x80002b2c
       49395000	      4938	00000000	00000013	addi	x0,x0,0	  x0:0x00000000
       49405000	      4939	80002b40	00000013	addi	x0,x0,0	  x0:0x00000000
       49415000	      4940	80002b44	fddff3ef	jal	x7,80002b44	  x7=0x80002b44
       49425000	      4941	00000000	00000013	addi	x0,x0,0	  x0:0x00000000
       49435000	      4942	80002b1c	00000013	addi	x0,x0,0	  x0:0x00000000
       49445000	      4943	80002b20	ff1ff4ef	jal	x9,80002b20	  x9=0x80002b20
       49455000	      4944	00000000	00000013	addi	x0,x0,0	  x0:0x00000000
       49465000	      4945	80002b0c	00000013	addi	x0,x0,0	  x0:0x00000000
       49475000	      4946	80002b10	024000ef	jal	x1,80002b10	  x1=0x80002b10
       49485000	      4947	00000000	00000013	addi	x0,x0,0	  x0:0x00000000
       49495000	      4948	80002b30	00000013	addi	x0,x0,0	  x0:0x00000000
       49505000	      4949	80002b34	014000ef	jal	x1,80002b34	  x1=0x80002b34
       49515000	      4950	00000000	00000013	addi	x0,x0,0	  x0:0x00000000
       49525000	      4951	80002b44	00000013	addi	x0,x0,0	  x0:0x00000000
       49535000	      4952	80002b48	ff9ff0ef	jal	x1,80002b48	  x1=0x80002b48
       49545000	      4953	00000000	00000013	addi	x0,x0,0	  x0:0x00000000
       49555000	      4954	80002b3c	00000013	addi	x0,x0,0	  x0:0x00000000
       49565000	      4955	80002b40	fcdffcef	jal	x25,80002b40	 x25=0x80002b40
       49575000	      4956	00000000	00000013	addi	x0,x0,0	  x0:0x00000000
       49585000	      4957	80002b08	00000013	addi	x0,x0,0	  x0:0x00000000
       49595000	      4958	80002b0c	05c0036f	jal	x6,80002b0c	  x6=0x80002b0c
       49605000	      4959	00000000	00000013	addi	x0,x0,0	  x0:0x00000000
       49615000	      4960	80002b64	00000013	addi	x0,x0,0	  x0:0x00000000
       49625000	      4961	80002b68	ff9ff7ef	jal	x15,80002b68	 x15=0x80002b68
       49635000	      4962	00000000	00000013	addi	x0,x0,0	  x0:0x00000000
       49645000	      4963	80002b5c	00000013	addi	x0,x0,0	  x0:0x00000000
       49655000	      4964	80002b60	fd9ff0ef	jal	x1,80002b60	  x1=0x80002b60
       49665000	      4965	00000000	00000013	addi	x0,x0,0	  x0:0x00000000
       49675000	      4966	80002b34	00000013	addi	x0,x0,0	  x0:0x00000000
       49685000	      4967	80002b38	01c0036f	jal	x6,80002b38	  x6=0x80002b38
       49695000	      4968	00000000	00000013	addi	x0,x0,0	  x0:0x00000000
       49705000	      4969	80002b50	00000013	addi	x0,x0,0	  x0:0x00000000
       49715000	      4970	80002b54	fb5ff0ef	jal	x1,80002b54	  x1=0x80002b54
       49725000	      4971	00000000	00000013	addi	x0,x0,0	  x0:0x00000000
       49735000	      4972	80002b04	00000013	addi	x0,x0,0	  x0:0x00000000
       49745000	      4973	80002b08	00c000ef	jal	x1,80002b08	  x1=0x80002b08
       49755000	      4974	00000000	00000013	addi	x0,x0,0	  x0:0x00000000
       49765000	      4975	80002b10	00000013	addi	x0,x0,0	  x0:0x00000000
       49775000	      4976	80002b14	00800b6f	jal	x22,80002b14	 x22=0x80002b14
       49785000	      4977	00000000	00000013	addi	x0,x0,0	  x0:0x00000000
       49795000	      4978	80002b18	00000013	addi	x0,x0,0	  x0:0x00000000
       49805000	      4979	80002b1c	048004ef	jal	x9,80002b1c	  x9=0x80002b1c
       49815000	      4980	00000000	00000013	addi	x0,x0,0	  x0:0x00000000
       49825000	      4981	80002b60	00000013	addi	x0,x0,0	  x0:0x00000000
       49835000	      4982	80002b64	fd9ff0ef	jal	x1,80002b64	  x1=0x80002b64
       49845000	      4983	00000000	00000013	addi	x0,x0,0	  x0:0x00000000
       49855000	      4984	80002b38	00000013	addi	x0,x0,0	  x0:0x00000000
       49865000	      4985	80002b3c	020006ef	jal	x13,80002b3c	 x13=0x80002b3c
       49875000	      4986	00000000	00000013	addi	x0,x0,0	  x0:0x00000000
       49885000	      4987	80002b58	00000013	addi	x0,x0,0	  x0:0x00000000
       49895000	      4988	80002b5c	ffdff9ef	jal	x19,80002b5c	 x19=0x80002b5c
       49905000	      4989	00000000	00000013	addi	x0,x0,0	  x0:0x00000000
       49915000	      4990	80002b54	00000013	addi	x0,x0,0	  x0:0x00000000
       49925000	      4991	80002b58	fcdff8ef	jal	x17,80002b58	 x17=0x80002b58
       49935000	      4992	00000000	00000013	addi	x0,x0,0	  x0:0x00000000
       49945000	      4993	80002b20	00000013	addi	x0,x0,0	  x0:0x00000000
       49955000	      4994	80002b24	ff5ff0ef	jal	x1,80002b24	  x1=0x80002b24
       49965000	      4995	00000000	00000013	addi	x0,x0,0	  x0:0x00000000
       49975000	      4996	80002b14	00000013	addi	x0,x0,0	  x0:0x00000000
       49985000	      4997	80002b18	054000ef	jal	x1,80002b18	  x1=0x80002b18
       49995000	      4998	00000000	00000013	addi	x0,x0,0	  x0:0x00000000
       50005000	      4999	80002b68	00000013	addi	x0,x0,0	  x0:0x00000000
       50015000	      5000	80002b6c	00aa9213	slli	x4,x21,0xa	 x21:0x50627a20  x4=0x89e88000
       50025000	      5001	80002b70	03c00c6f	jal	x24,80002b70	 x24=0x80002b70
       50035000	      5002	00000000	00000013	addi	x0,x0,0	  x0:0x00000000
       50045000	      5003	80002ba8	00000013	addi	x0,x0,0	  x0:0x00000000
       50055000	      5004	80002bac	fd1ff8ef	jal	x17,80002bac	 x17=0x80002bac
       50065000	      5005	00000000	00000013	addi	x0,x0,0	  x0:0x00000000
       50075000	      5006	80002b78	00000013	addi	x0,x0,0	  x0:0x00000000
       50085000	      5007	80002b7c	0400016f	jal	x2,80002b7c	  x2=0x80002b7c
       50095000	      5008	00000000	00000013	addi	x0,x0,0	  x0:0x00000000
       50105000	      5009	80002bb8	00000013	addi	x0,x0,0	  x0:0x00000000
       50115000	      5010	80002bbc	fbdff36f	jal	x6,80002bbc	  x6=0x80002bbc
       50125000	      5011	00000000	00000013	addi	x0,x0,0	  x0:0x00000000
       50135000	      5012	80002b74	00000013	addi	x0,x0,0	  x0:0x00000000
       50145000	      5013	80002b78	014000ef	jal	x1,80002b78	  x1=0x80002b78
       50155000	      5014	00000000	00000013	addi	x0,x0,0	  x0:0x00000000
       50165000	      5015	80002b88	00000013	addi	x0,x0,0	  x0:0x00000000
       50175000	      5016	80002b8c	fe9ff66f	jal	x12,80002b8c	 x12=0x80002b8c
       50185000	      5017	00000000	00000013	addi	x0,x0,0	  x0:0x00000000
       50195000	      5018	80002b70	00000013	addi	x0,x0,0	  x0:0x00000000
       50205000	      5019	80002b74	010000ef	jal	x1,80002b74	  x1=0x80002b74
       50215000	      5020	00000000	00000013	addi	x0,x0,0	  x0:0x00000000
       50225000	      5021	80002b80	00000013	addi	x0,x0,0	  x0:0x00000000
       50235000	      5022	80002b84	030000ef	jal	x1,80002b84	  x1=0x80002b84
       50245000	      5023	00000000	00000013	addi	x0,x0,0	  x0:0x00000000
       50255000	      5024	80002bb0	00000013	addi	x0,x0,0	  x0:0x00000000
       50265000	      5025	80002bb4	ff5ff36f	jal	x6,80002bb4	  x6=0x80002bb4
       50275000	      5026	00000000	00000013	addi	x0,x0,0	  x0:0x00000000
       50285000	      5027	80002ba4	00000013	addi	x0,x0,0	  x0:0x00000000
       50295000	      5028	80002ba8	ff5ff4ef	jal	x9,80002ba8	  x9=0x80002ba8
       50305000	      5029	00000000	00000013	addi	x0,x0,0	  x0:0x00000000
       50315000	      5030	80002b98	00000013	addi	x0,x0,0	  x0:0x00000000
       50325000	      5031	80002b9c	01c000ef	jal	x1,80002b9c	  x1=0x80002b9c
       50335000	      5032	00000000	00000013	addi	x0,x0,0	  x0:0x00000000
       50345000	      5033	80002bb4	00000013	addi	x0,x0,0	  x0:0x00000000
       50355000	      5034	80002bb8	fe9ff0ef	jal	x1,80002bb8	  x1=0x80002bb8
       50365000	      5035	00000000	00000013	addi	x0,x0,0	  x0:0x00000000
       50375000	      5036	80002b9c	00000013	addi	x0,x0,0	  x0:0x00000000
       50385000	      5037	80002ba0	ff1ff0ef	jal	x1,80002ba0	  x1=0x80002ba0
       50395000	      5038	00000000	00000013	addi	x0,x0,0	  x0:0x00000000
       50405000	      5039	80002b8c	00000013	addi	x0,x0,0	  x0:0x00000000
       50415000	      5040	80002b90	034000ef	jal	x1,80002b90	  x1=0x80002b90
       50425000	      5041	00000000	00000013	addi	x0,x0,0	  x0:0x00000000
       50435000	      5042	80002bc0	00000013	addi	x0,x0,0	  x0:0x00000000
       50445000	      5043	80002bc4	fd5ff36f	jal	x6,80002bc4	  x6=0x80002bc4
       50455000	      5044	00000000	00000013	addi	x0,x0,0	  x0:0x00000000
       50465000	      5045	80002b94	00000013	addi	x0,x0,0	  x0:0x00000000
       50475000	      5046	80002b98	fe9ff0ef	jal	x1,80002b98	  x1=0x80002b98
       50485000	      5047	00000000	00000013	addi	x0,x0,0	  x0:0x00000000
       50495000	      5048	80002b7c	00000013	addi	x0,x0,0	  x0:0x00000000
       50505000	      5049	80002b80	008000ef	jal	x1,80002b80	  x1=0x80002b80
       50515000	      5050	00000000	00000013	addi	x0,x0,0	  x0:0x00000000
       50525000	      5051	80002b84	00000013	addi	x0,x0,0	  x0:0x00000000
       50535000	      5052	80002b88	01c000ef	jal	x1,80002b88	  x1=0x80002b88
       50545000	      5053	00000000	00000013	addi	x0,x0,0	  x0:0x00000000
       50555000	      5054	80002ba0	00000013	addi	x0,x0,0	  x0:0x00000000
       50565000	      5055	80002ba4	ff1ff0ef	jal	x1,80002ba4	  x1=0x80002ba4
       50575000	      5056	00000000	00000013	addi	x0,x0,0	  x0:0x00000000
       50585000	      5057	80002b90	00000013	addi	x0,x0,0	  x0:0x00000000
       50595000	      5058	80002b94	02c0036f	jal	x6,80002b94	  x6=0x80002b94
       50605000	      5059	00000000	00000013	addi	x0,x0,0	  x0:0x00000000
       50615000	      5060	80002bbc	00000013	addi	x0,x0,0	  x0:0x00000000
       50625000	      5061	80002bc0	ff1fff6f	jal	x30,80002bc0	 x30=0x80002bc0
       50635000	      5062	00000000	00000013	addi	x0,x0,0	  x0:0x00000000
       50645000	      5063	80002bac	00000013	addi	x0,x0,0	  x0:0x00000000
       50655000	      5064	80002bb0	018000ef	jal	x1,80002bb0	  x1=0x80002bb0
       50665000	      5065	00000000	00000013	addi	x0,x0,0	  x0:0x00000000
       50675000	      5066	80002bc4	00000013	addi	x0,x0,0	  x0:0x00000000
       50685000	      5067	80002bc8	49d47993	andi	x19,x8,1181	  x8:0x80009fc4 x19=0x00000484
       50695000	      5068	80002bcc	02000c6f	jal	x24,80002bcc	 x24=0x80002bcc
       50705000	      5069	00000000	00000013	addi	x0,x0,0	  x0:0x00000000
       50715000	      5070	80002be8	00000013	addi	x0,x0,0	  x0:0x00000000
       50725000	      5071	80002bec	ff5ff36f	jal	x6,80002bec	  x6=0x80002bec
       50735000	      5072	00000000	00000013	addi	x0,x0,0	  x0:0x00000000
       50745000	      5073	80002bdc	00000013	addi	x0,x0,0	  x0:0x00000000
       50755000	      5074	80002be0	ff1ff36f	jal	x6,80002be0	  x6=0x80002be0
       50765000	      5075	00000000	00000013	addi	x0,x0,0	  x0:0x00000000
       50775000	      5076	80002bcc	00000013	addi	x0,x0,0	  x0:0x00000000
       50785000	      5077	80002bd0	004000ef	jal	x1,80002bd0	  x1=0x80002bd0
       50795000	      5078	00000000	00000013	addi	x0,x0,0	  x0:0x00000000
       50805000	      5079	80002bd0	00000013	addi	x0,x0,0	  x0:0x00000000
       50815000	      5080	80002bd4	02c0076f	jal	x14,80002bd4	 x14=0x80002bd4
       50825000	      5081	00000000	00000013	addi	x0,x0,0	  x0:0x00000000
       50835000	      5082	80002bfc	00000013	addi	x0,x0,0	  x0:0x00000000
       50845000	      5083	80002c00	ff1ff36f	jal	x6,80002c00	  x6=0x80002c00
       50855000	      5084	00000000	00000013	addi	x0,x0,0	  x0:0x00000000
       50865000	      5085	80002bec	00000013	addi	x0,x0,0	  x0:0x00000000
       50875000	      5086	80002bf0	fe9ff0ef	jal	x1,80002bf0	  x1=0x80002bf0
       50885000	      5087	00000000	00000013	addi	x0,x0,0	  x0:0x00000000
       50895000	      5088	80002bd4	00000013	addi	x0,x0,0	  x0:0x00000000
       50905000	      5089	80002bd8	024000ef	jal	x1,80002bd8	  x1=0x80002bd8
       50915000	      5090	00000000	00000013	addi	x0,x0,0	  x0:0x00000000
       50925000	      5091	80002bf8	00000013	addi	x0,x0,0	  x0:0x00000000
       50935000	      5092	80002bfc	fe9ff0ef	jal	x1,80002bfc	  x1=0x80002bfc
       50945000	      5093	00000000	00000013	addi	x0,x0,0	  x0:0x00000000
       50955000	      5094	80002be0	00000013	addi	x0,x0,0	  x0:0x00000000
       50965000	      5095	80002be4	020000ef	jal	x1,80002be4	  x1=0x80002be4
       50975000	      5096	00000000	00000013	addi	x0,x0,0	  x0:0x00000000
       50985000	      5097	80002c00	00000013	addi	x0,x0,0	  x0:0x00000000
       50995000	      5098	80002c04	ff5ff0ef	jal	x1,80002c04	  x1=0x80002c04
       51005000	      5099	00000000	00000013	addi	x0,x0,0	  x0:0x00000000
       51015000	      5100	80002bf4	00000013	addi	x0,x0,0	  x0:0x00000000
       51025000	      5101	80002bf8	ffdff26f	jal	x4,80002bf8	  x4=0x80002bf8
       51035000	      5102	00000000	00000013	addi	x0,x0,0	  x0:0x00000000
       51045000	      5103	80002bf0	00000013	addi	x0,x0,0	  x0:0x00000000
       51055000	      5104	80002bf4	fe9ff0ef	jal	x1,80002bf4	  x1=0x80002bf4
       51065000	      5105	00000000	00000013	addi	x0,x0,0	  x0:0x00000000
       51075000	      5106	80002bd8	00000013	addi	x0,x0,0	  x0:0x00000000
       51085000	      5107	80002bdc	00c0036f	jal	x6,80002bdc	  x6=0x80002bdc
       51095000	      5108	00000000	00000013	addi	x0,x0,0	  x0:0x00000000
       51105000	      5109	80002be4	00000013	addi	x0,x0,0	  x0:0x00000000
       51115000	      5110	80002be8	020000ef	jal	x1,80002be8	  x1=0x80002be8
       51125000	      5111	00000000	00000013	addi	x0,x0,0	  x0:0x00000000
       51135000	      5112	80002c04	00000013	addi	x0,x0,0	  x0:0x00000000
       51145000	      5113	80002c08	00000013	addi	x0,x0,0	  x0:0x00000000
       51155000	      5114	80002c0c	00400c6f	jal	x24,80002c0c	 x24=0x80002c0c
       51165000	      5115	00000000	00000013	addi	x0,x0,0	  x0:0x00000000
       51175000	      5116	80002c0c	00000013	addi	x0,x0,0	  x0:0x00000000
       51185000	      5117	80002c10	024001ef	jal	x3,80002c10	  x3=0x80002c10
       51195000	      5118	00000000	00000013	addi	x0,x0,0	  x0:0x00000000
       51205000	      5119	80002c30	00000013	addi	x0,x0,0	  x0:0x00000000
       51215000	      5120	80002c34	ff5ff0ef	jal	x1,80002c34	  x1=0x80002c34
       51225000	      5121	00000000	00000013	addi	x0,x0,0	  x0:0x00000000
       51235000	      5122	80002c24	00000013	addi	x0,x0,0	  x0:0x00000000
       51245000	      5123	80002c28	008000ef	jal	x1,80002c28	  x1=0x80002c28
       51255000	      5124	00000000	00000013	addi	x0,x0,0	  x0:0x00000000
       51265000	      5125	80002c2c	00000013	addi	x0,x0,0	  x0:0x00000000
       51275000	      5126	80002c30	ffdff36f	jal	x6,80002c30	  x6=0x80002c30
       51285000	      5127	00000000	00000013	addi	x0,x0,0	  x0:0x00000000
       51295000	      5128	80002c28	00000013	addi	x0,x0,0	  x0:0x00000000
       51305000	      5129	80002c2c	ff1ff0ef	jal	x1,80002c2c	  x1=0x80002c2c
       51315000	      5130	00000000	00000013	addi	x0,x0,0	  x0:0x00000000
       51325000	      5131	80002c18	00000013	addi	x0,x0,0	  x0:0x00000000
       51335000	      5132	80002c1c	008002ef	jal	x5,80002c1c	  x5=0x80002c1c
       51345000	      5133	00000000	00000013	addi	x0,x0,0	  x0:0x00000000
       51355000	      5134	80002c20	00000013	addi	x0,x0,0	  x0:0x00000000
       51365000	      5135	80002c24	ffdff2ef	jal	x5,80002c24	  x5=0x80002c24
       51375000	      5136	00000000	00000013	addi	x0,x0,0	  x0:0x00000000
       51385000	      5137	80002c1c	00000013	addi	x0,x0,0	  x0:0x00000000
       51395000	      5138	80002c20	ff5ff0ef	jal	x1,80002c20	  x1=0x80002c20
       51405000	      5139	00000000	00000013	addi	x0,x0,0	  x0:0x00000000
       51415000	      5140	80002c10	00000013	addi	x0,x0,0	  x0:0x00000000
       51425000	      5141	80002c14	0040036f	jal	x6,80002c14	  x6=0x80002c14
       51435000	      5142	00000000	00000013	addi	x0,x0,0	  x0:0x00000000
       51445000	      5143	80002c14	00000013	addi	x0,x0,0	  x0:0x00000000
       51455000	      5144	80002c18	020002ef	jal	x5,80002c18	  x5=0x80002c18
       51465000	      5145	00000000	00000013	addi	x0,x0,0	  x0:0x00000000
       51475000	      5146	80002c34	00000013	addi	x0,x0,0	  x0:0x00000000
       51485000	      5147	80002c38	01aa0ab3	add	x21,x20,x26	 x20:0xfffffffe x26:0x007fffde x21=0x007fffdc
       51495000	      5148	80002c3c	00c00c6f	jal	x24,80002c3c	 x24=0x80002c3c
       51505000	      5149	00000000	00000013	addi	x0,x0,0	  x0:0x00000000
       51515000	      5150	80002c44	00000013	addi	x0,x0,0	  x0:0x00000000
       51525000	      5151	80002c48	028000ef	jal	x1,80002c48	  x1=0x80002c48
       51535000	      5152	00000000	00000013	addi	x0,x0,0	  x0:0x00000000
       51545000	      5153	80002c6c	00000013	addi	x0,x0,0	  x0:0x00000000
       51555000	      5154	80002c70	008001ef	jal	x3,80002c70	  x3=0x80002c70
       51565000	      5155	00000000	00000013	addi	x0,x0,0	  x0:0x00000000
       51575000	      5156	80002c74	00000013	addi	x0,x0,0	  x0:0x00000000
       51585000	      5157	80002c78	fcdff36f	jal	x6,80002c78	  x6=0x80002c78
       51595000	      5158	00000000	00000013	addi	x0,x0,0	  x0:0x00000000
       51605000	      5159	80002c40	00000013	addi	x0,x0,0	  x0:0x00000000
       51615000	      5160	80002c44	010000ef	jal	x1,80002c44	  x1=0x80002c44
       51625000	      5161	00000000	00000013	addi	x0,x0,0	  x0:0x00000000
       51635000	      5162	80002c50	00000013	addi	x0,x0,0	  x0:0x00000000
       51645000	      5163	80002c54	00c0016f	jal	x2,80002c54	  x2=0x80002c54
       51655000	      5164	00000000	00000013	addi	x0,x0,0	  x0:0x00000000
       51665000	      5165	80002c5c	00000013	addi	x0,x0,0	  x0:0x00000000
       51675000	      5166	80002c60	ffdff0ef	jal	x1,80002c60	  x1=0x80002c60
       51685000	      5167	00000000	00000013	addi	x0,x0,0	  x0:0x00000000
       51695000	      5168	80002c58	00000013	addi	x0,x0,0	  x0:0x00000000
       51705000	      5169	80002c5c	0200036f	jal	x6,80002c5c	  x6=0x80002c5c
       51715000	      5170	00000000	00000013	addi	x0,x0,0	  x0:0x00000000
       51725000	      5171	80002c78	00000013	addi	x0,x0,0	  x0:0x00000000
       51735000	      5172	80002c7c	fd1ff66f	jal	x12,80002c7c	 x12=0x80002c7c
       51745000	      5173	00000000	00000013	addi	x0,x0,0	  x0:0x00000000
       51755000	      5174	80002c48	00000013	addi	x0,x0,0	  x0:0x00000000
       51765000	      5175	80002c4c	0180036f	jal	x6,80002c4c	  x6=0x80002c4c
       51775000	      5176	00000000	00000013	addi	x0,x0,0	  x0:0x00000000
       51785000	      5177	80002c60	00000013	addi	x0,x0,0	  x0:0x00000000
       51795000	      5178	80002c64	ff5ff0ef	jal	x1,80002c64	  x1=0x80002c64
       51805000	      5179	00000000	00000013	addi	x0,x0,0	  x0:0x00000000
       51815000	      5180	80002c54	00000013	addi	x0,x0,0	  x0:0x00000000
       51825000	      5181	80002c58	01000d6f	jal	x26,80002c58	 x26=0x80002c58
       51835000	      5182	00000000	00000013	addi	x0,x0,0	  x0:0x00000000
       51845000	      5183	80002c64	00000013	addi	x0,x0,0	  x0:0x00000000
       51855000	      5184	80002c68	004000ef	jal	x1,80002c68	  x1=0x80002c68
       51865000	      5185	00000000	00000013	addi	x0,x0,0	  x0:0x00000000
       51875000	      5186	80002c68	00000013	addi	x0,x0,0	  x0:0x00000000
       51885000	      5187	80002c6c	fd5ff0ef	jal	x1,80002c6c	  x1=0x80002c6c
       51895000	      5188	00000000	00000013	addi	x0,x0,0	  x0:0x00000000
       51905000	      5189	80002c3c	00000013	addi	x0,x0,0	  x0:0x00000000
       51915000	      5190	80002c40	010000ef	jal	x1,80002c40	  x1=0x80002c40
       51925000	      5191	00000000	00000013	addi	x0,x0,0	  x0:0x00000000
       51935000	      5192	80002c4c	00000013	addi	x0,x0,0	  x0:0x00000000
       51945000	      5193	80002c50	024000ef	jal	x1,80002c50	  x1=0x80002c50
       51955000	      5194	00000000	00000013	addi	x0,x0,0	  x0:0x00000000
       51965000	      5195	80002c70	00000013	addi	x0,x0,0	  x0:0x00000000
       51975000	      5196	80002c74	00c0016f	jal	x2,80002c74	  x2=0x80002c74
       51985000	      5197	00000000	00000013	addi	x0,x0,0	  x0:0x00000000
       51995000	      5198	80002c7c	00000013	addi	x0,x0,0	  x0:0x00000000
       52005000	      5199	80002c80	9005af13	slti	x30,x11,-1792	 x11:0x80002af8 x30=0x00000001
       52015000	      5200	80002c84	03000c6f	jal	x24,80002c84	 x24=0x80002c84
       52025000	      5201	00000000	00000013	addi	x0,x0,0	  x0:0x00000000
       52035000	      5202	80002cb0	00000013	addi	x0,x0,0	  x0:0x00000000
       52045000	      5203	80002cb4	fe1ff36f	jal	x6,80002cb4	  x6=0x80002cb4
       52055000	      5204	00000000	00000013	addi	x0,x0,0	  x0:0x00000000
       52065000	      5205	80002c90	00000013	addi	x0,x0,0	  x0:0x00000000
       52075000	      5206	80002c94	024000ef	jal	x1,80002c94	  x1=0x80002c94
       52085000	      5207	00000000	00000013	addi	x0,x0,0	  x0:0x00000000
       52095000	      5208	80002cb4	00000013	addi	x0,x0,0	  x0:0x00000000
       52105000	      5209	80002cb8	ff9ff0ef	jal	x1,80002cb8	  x1=0x80002cb8
       52115000	      5210	00000000	00000013	addi	x0,x0,0	  x0:0x00000000
       52125000	      5211	80002cac	00000013	addi	x0,x0,0	  x0:0x00000000
       52135000	      5212	80002cb0	fd9ff3ef	jal	x7,80002cb0	  x7=0x80002cb0
       52145000	      5213	00000000	00000013	addi	x0,x0,0	  x0:0x00000000
       52155000	      5214	80002c84	00000013	addi	x0,x0,0	  x0:0x00000000
       52165000	      5215	80002c88	0240036f	jal	x6,80002c88	  x6=0x80002c88
       52175000	      5216	00000000	00000013	addi	x0,x0,0	  x0:0x00000000
       52185000	      5217	80002ca8	00000013	addi	x0,x0,0	  x0:0x00000000
       52195000	      5218	80002cac	0280036f	jal	x6,80002cac	  x6=0x80002cac
       52205000	      5219	00000000	00000013	addi	x0,x0,0	  x0:0x00000000
       52215000	      5220	80002cd0	00000013	addi	x0,x0,0	  x0:0x00000000
       52225000	      5221	80002cd4	fd5ff0ef	jal	x1,80002cd4	  x1=0x80002cd4
       52235000	      5222	00000000	00000013	addi	x0,x0,0	  x0:0x00000000
       52245000	      5223	80002ca4	00000013	addi	x0,x0,0	  x0:0x00000000
       52255000	      5224	80002ca8	030000ef	jal	x1,80002ca8	  x1=0x80002ca8
       52265000	      5225	00000000	00000013	addi	x0,x0,0	  x0:0x00000000
       52275000	      5226	80002cd4	00000013	addi	x0,x0,0	  x0:0x00000000
       52285000	      5227	80002cd8	fedff0ef	jal	x1,80002cd8	  x1=0x80002cd8
       52295000	      5228	00000000	00000013	addi	x0,x0,0	  x0:0x00000000
       52305000	      5229	80002cc0	00000013	addi	x0,x0,0	  x0:0x00000000
       52315000	      5230	80002cc4	004000ef	jal	x1,80002cc4	  x1=0x80002cc4
       52325000	      5231	00000000	00000013	addi	x0,x0,0	  x0:0x00000000
       52335000	      5232	80002cc4	00000013	addi	x0,x0,0	  x0:0x00000000
       52345000	      5233	80002cc8	fc9ff36f	jal	x6,80002cc8	  x6=0x80002cc8
       52355000	      5234	00000000	00000013	addi	x0,x0,0	  x0:0x00000000
       52365000	      5235	80002c8c	00000013	addi	x0,x0,0	  x0:0x00000000
       52375000	      5236	80002c90	03c000ef	jal	x1,80002c90	  x1=0x80002c90
       52385000	      5237	00000000	00000013	addi	x0,x0,0	  x0:0x00000000
       52395000	      5238	80002cc8	00000013	addi	x0,x0,0	  x0:0x00000000
       52405000	      5239	80002ccc	fd1ff36f	jal	x6,80002ccc	  x6=0x80002ccc
       52415000	      5240	00000000	00000013	addi	x0,x0,0	  x0:0x00000000
       52425000	      5241	80002c98	00000013	addi	x0,x0,0	  x0:0x00000000
       52435000	      5242	80002c9c	0040036f	jal	x6,80002c9c	  x6=0x80002c9c
       52445000	      5243	00000000	00000013	addi	x0,x0,0	  x0:0x00000000
       52455000	      5244	80002c9c	00000013	addi	x0,x0,0	  x0:0x00000000
       52465000	      5245	80002ca0	020000ef	jal	x1,80002ca0	  x1=0x80002ca0
       52475000	      5246	00000000	00000013	addi	x0,x0,0	  x0:0x00000000
       52485000	      5247	80002cbc	00000013	addi	x0,x0,0	  x0:0x00000000
       52495000	      5248	80002cc0	fd9ff36f	jal	x6,80002cc0	  x6=0x80002cc0
       52505000	      5249	00000000	00000013	addi	x0,x0,0	  x0:0x00000000
       52515000	      5250	80002c94	00000013	addi	x0,x0,0	  x0:0x00000000
       52525000	      5251	80002c98	0380036f	jal	x6,80002c98	  x6=0x80002c98
       52535000	      5252	00000000	00000013	addi	x0,x0,0	  x0:0x00000000
       52545000	      5253	80002ccc	00000013	addi	x0,x0,0	  x0:0x00000000
       52555000	      5254	80002cd0	fedff36f	jal	x6,80002cd0	  x6=0x80002cd0
       52565000	      5255	00000000	00000013	addi	x0,x0,0	  x0:0x00000000
       52575000	      5256	80002cb8	00000013	addi	x0,x0,0	  x0:0x00000000
       52585000	      5257	80002cbc	fe9ff36f	jal	x6,80002cbc	  x6=0x80002cbc
       52595000	      5258	00000000	00000013	addi	x0,x0,0	  x0:0x00000000
       52605000	      5259	80002ca0	00000013	addi	x0,x0,0	  x0:0x00000000
       52615000	      5260	80002ca4	fe9ff1ef	jal	x3,80002ca4	  x3=0x80002ca4
       52625000	      5261	00000000	00000013	addi	x0,x0,0	  x0:0x00000000
       52635000	      5262	80002c88	00000013	addi	x0,x0,0	  x0:0x00000000
       52645000	      5263	80002c8c	0500036f	jal	x6,80002c8c	  x6=0x80002c8c
       52655000	      5264	00000000	00000013	addi	x0,x0,0	  x0:0x00000000
       52665000	      5265	80002cd8	00000013	addi	x0,x0,0	  x0:0x00000000
       52675000	      5266	80002cdc	00eb43b3	xor	x7,x22,x14	 x22:0x80002b14 x14:0x80002bd4  x7=0x000000c0
       52685000	      5267	80002ce0	03c00c6f	jal	x24,80002ce0	 x24=0x80002ce0
       52695000	      5268	00000000	00000013	addi	x0,x0,0	  x0:0x00000000
       52705000	      5269	80002d18	00000013	addi	x0,x0,0	  x0:0x00000000
       52715000	      5270	80002d1c	fe5ff0ef	jal	x1,80002d1c	  x1=0x80002d1c
       52725000	      5271	00000000	00000013	addi	x0,x0,0	  x0:0x00000000
       52735000	      5272	80002cfc	00000013	addi	x0,x0,0	  x0:0x00000000
       52745000	      5273	80002d00	fedff0ef	jal	x1,80002d00	  x1=0x80002d00
       52755000	      5274	00000000	00000013	addi	x0,x0,0	  x0:0x00000000
       52765000	      5275	80002ce8	00000013	addi	x0,x0,0	  x0:0x00000000
       52775000	      5276	80002cec	05400b6f	jal	x22,80002cec	 x22=0x80002cec
       52785000	      5277	00000000	00000013	addi	x0,x0,0	  x0:0x00000000
       52795000	      5278	80002d3c	00000013	addi	x0,x0,0	  x0:0x00000000
       52805000	      5279	80002d40	fb5ff0ef	jal	x1,80002d40	  x1=0x80002d40
       52815000	      5280	00000000	00000013	addi	x0,x0,0	  x0:0x00000000
       52825000	      5281	80002cf0	00000013	addi	x0,x0,0	  x0:0x00000000
       52835000	      5282	80002cf4	0380036f	jal	x6,80002cf4	  x6=0x80002cf4
       52845000	      5283	00000000	00000013	addi	x0,x0,0	  x0:0x00000000
       52855000	      5284	80002d28	00000013	addi	x0,x0,0	  x0:0x00000000
       52865000	      5285	80002d2c	0040036f	jal	x6,80002d2c	  x6=0x80002d2c
       52875000	      5286	00000000	00000013	addi	x0,x0,0	  x0:0x00000000
       52885000	      5287	80002d2c	00000013	addi	x0,x0,0	  x0:0x00000000
       52895000	      5288	80002d30	fddff0ef	jal	x1,80002d30	  x1=0x80002d30
       52905000	      5289	00000000	00000013	addi	x0,x0,0	  x0:0x00000000
       52915000	      5290	80002d08	00000013	addi	x0,x0,0	  x0:0x00000000
       52925000	      5291	80002d0c	fedff16f	jal	x2,80002d0c	  x2=0x80002d0c
       52935000	      5292	00000000	00000013	addi	x0,x0,0	  x0:0x00000000
       52945000	      5293	80002cf4	00000013	addi	x0,x0,0	  x0:0x00000000
       52955000	      5294	80002cf8	004001ef	jal	x3,80002cf8	  x3=0x80002cf8
       52965000	      5295	00000000	00000013	addi	x0,x0,0	  x0:0x00000000
       52975000	      5296	80002cf8	00000013	addi	x0,x0,0	  x0:0x00000000
       52985000	      5297	80002cfc	040000ef	jal	x1,80002cfc	  x1=0x80002cfc
       52995000	      5298	00000000	00000013	addi	x0,x0,0	  x0:0x00000000
       53005000	      5299	80002d38	00000013	addi	x0,x0,0	  x0:0x00000000
       53015000	      5300	80002d3c	fd5ff36f	jal	x6,80002d3c	  x6=0x80002d3c
       53025000	      5301	00000000	00000013	addi	x0,x0,0	  x0:0x00000000
       53035000	      5302	80002d0c	00000013	addi	x0,x0,0	  x0:0x00000000
       53045000	      5303	80002d10	028000ef	jal	x1,80002d10	  x1=0x80002d10
       53055000	      5304	00000000	00000013	addi	x0,x0,0	  x0:0x00000000
       53065000	      5305	80002d34	00000013	addi	x0,x0,0	  x0:0x00000000
       53075000	      5306	80002d38	fddff36f	jal	x6,80002d38	  x6=0x80002d38
       53085000	      5307	00000000	00000013	addi	x0,x0,0	  x0:0x00000000
       53095000	      5308	80002d10	00000013	addi	x0,x0,0	  x0:0x00000000
       53105000	      5309	80002d14	fd1ff0ef	jal	x1,80002d14	  x1=0x80002d14
       53115000	      5310	00000000	00000013	addi	x0,x0,0	  x0:0x00000000
       53125000	      5311	80002ce0	00000013	addi	x0,x0,0	  x0:0x00000000
       53135000	      5312	80002ce4	044000ef	jal	x1,80002ce4	  x1=0x80002ce4
       53145000	      5313	00000000	00000013	addi	x0,x0,0	  x0:0x00000000
       53155000	      5314	80002d24	00000013	addi	x0,x0,0	  x0:0x00000000
       53165000	      5315	80002d28	fc9ff36f	jal	x6,80002d28	  x6=0x80002d28
       53175000	      5316	00000000	00000013	addi	x0,x0,0	  x0:0x00000000
       53185000	      5317	80002cec	00000013	addi	x0,x0,0	  x0:0x00000000
       53195000	      5318	80002cf0	0300036f	jal	x6,80002cf0	  x6=0x80002cf0
       53205000	      5319	00000000	00000013	addi	x0,x0,0	  x0:0x00000000
       53215000	      5320	80002d1c	00000013	addi	x0,x0,0	  x0:0x00000000
       53225000	      5321	80002d20	fc9ff0ef	jal	x1,80002d20	  x1=0x80002d20
       53235000	      5322	00000000	00000013	addi	x0,x0,0	  x0:0x00000000
       53245000	      5323	80002ce4	00000013	addi	x0,x0,0	  x0:0x00000000
       53255000	      5324	80002ce8	020008ef	jal	x17,80002ce8	 x17=0x80002ce8
       53265000	      5325	00000000	00000013	addi	x0,x0,0	  x0:0x00000000
       53275000	      5326	80002d04	00000013	addi	x0,x0,0	  x0:0x00000000
       53285000	      5327	80002d08	01c0066f	jal	x12,80002d08	 x12=0x80002d08
       53295000	      5328	00000000	00000013	addi	x0,x0,0	  x0:0x00000000
       53305000	      5329	80002d20	00000013	addi	x0,x0,0	  x0:0x00000000
       53315000	      5330	80002d24	010007ef	jal	x15,80002d24	 x15=0x80002d24
       53325000	      5331	00000000	00000013	addi	x0,x0,0	  x0:0x00000000
       53335000	      5332	80002d30	00000013	addi	x0,x0,0	  x0:0x00000000
       53345000	      5333	80002d34	fd1ff0ef	jal	x1,80002d34	  x1=0x80002d34
       53355000	      5334	00000000	00000013	addi	x0,x0,0	  x0:0x00000000
       53365000	      5335	80002d00	00000013	addi	x0,x0,0	  x0:0x00000000
       53375000	      5336	80002d04	0140016f	jal	x2,80002d04	  x2=0x80002d04
       53385000	      5337	00000000	00000013	addi	x0,x0,0	  x0:0x00000000
       53395000	      5338	80002d14	00000013	addi	x0,x0,0	  x0:0x00000000
       53405000	      5339	80002d18	02c000ef	jal	x1,80002d18	  x1=0x80002d18
       53415000	      5340	00000000	00000013	addi	x0,x0,0	  x0:0x00000000
       53425000	      5341	80002d40	00000013	addi	x0,x0,0	  x0:0x00000000
       53435000	      5342	80002d44	60e9e093	ori	x1,x19,1550	 x19:0x00000484  x1=0x0000068e
       53445000	      5343	80002d48	04400c6f	jal	x24,80002d48	 x24=0x80002d48
       53455000	      5344	00000000	00000013	addi	x0,x0,0	  x0:0x00000000
       53465000	      5345	80002d88	00000013	addi	x0,x0,0	  x0:0x00000000
       53475000	      5346	80002d8c	01c000ef	jal	x1,80002d8c	  x1=0x80002d8c
       53485000	      5347	00000000	00000013	addi	x0,x0,0	  x0:0x00000000
       53495000	      5348	80002da4	00000013	addi	x0,x0,0	  x0:0x00000000
       53505000	      5349	80002da8	ff5ff8ef	jal	x17,80002da8	 x17=0x80002da8
       53515000	      5350	00000000	00000013	addi	x0,x0,0	  x0:0x00000000
       53525000	      5351	80002d98	00000013	addi	x0,x0,0	  x0:0x00000000
       53535000	      5352	80002d9c	fb9ff36f	jal	x6,80002d9c	  x6=0x80002d9c
       53545000	      5353	00000000	00000013	addi	x0,x0,0	  x0:0x00000000
       53555000	      5354	80002d50	00000013	addi	x0,x0,0	  x0:0x00000000
       53565000	      5355	80002d54	020000ef	jal	x1,80002d54	  x1=0x80002d54
       53575000	      5356	00000000	00000013	addi	x0,x0,0	  x0:0x00000000
       53585000	      5357	80002d70	00000013	addi	x0,x0,0	  x0:0x00000000
       53595000	      5358	80002d74	fddff0ef	jal	x1,80002d74	  x1=0x80002d74
       53605000	      5359	00000000	00000013	addi	x0,x0,0	  x0:0x00000000
       53615000	      5360	80002d4c	00000013	addi	x0,x0,0	  x0:0x00000000
       53625000	      5361	80002d50	0280036f	jal	x6,80002d50	  x6=0x80002d50
       53635000	      5362	00000000	00000013	addi	x0,x0,0	  x0:0x00000000
       53645000	      5363	80002d74	00000013	addi	x0,x0,0	  x0:0x00000000
       53655000	      5364	80002d78	0080036f	jal	x6,80002d78	  x6=0x80002d78
       53665000	      5365	00000000	00000013	addi	x0,x0,0	  x0:0x00000000
       53675000	      5366	80002d7c	00000013	addi	x0,x0,0	  x0:0x00000000
       53685000	      5367	80002d80	00400cef	jal	x25,80002d80	 x25=0x80002d80
       53695000	      5368	00000000	00000013	addi	x0,x0,0	  x0:0x00000000
       53705000	      5369	80002d80	00000013	addi	x0,x0,0	  x0:0x00000000
       53715000	      5370	80002d84	fddff0ef	jal	x1,80002d84	  x1=0x80002d84
       53725000	      5371	00000000	00000013	addi	x0,x0,0	  x0:0x00000000
       53735000	      5372	80002d5c	00000013	addi	x0,x0,0	  x0:0x00000000
       53745000	      5373	80002d60	00800d6f	jal	x26,80002d60	 x26=0x80002d60
       53755000	      5374	00000000	00000013	addi	x0,x0,0	  x0:0x00000000
       53765000	      5375	80002d64	00000013	addi	x0,x0,0	  x0:0x00000000
       53775000	      5376	80002d68	0080036f	jal	x6,80002d68	  x6=0x80002d68
       53785000	      5377	00000000	00000013	addi	x0,x0,0	  x0:0x00000000
       53795000	      5378	80002d6c	00000013	addi	x0,x0,0	  x0:0x00000000
       53805000	      5379	80002d70	fe9ff66f	jal	x12,80002d70	 x12=0x80002d70
       53815000	      5380	00000000	00000013	addi	x0,x0,0	  x0:0x00000000
       53825000	      5381	80002d54	00000013	addi	x0,x0,0	  x0:0x00000000
       53835000	      5382	80002d58	030000ef	jal	x1,80002d58	  x1=0x80002d58
       53845000	      5383	00000000	00000013	addi	x0,x0,0	  x0:0x00000000
       53855000	      5384	80002d84	00000013	addi	x0,x0,0	  x0:0x00000000
       53865000	      5385	80002d88	fe5fff6f	jal	x30,80002d88	 x30=0x80002d88
       53875000	      5386	00000000	00000013	addi	x0,x0,0	  x0:0x00000000
       53885000	      5387	80002d68	00000013	addi	x0,x0,0	  x0:0x00000000
       53895000	      5388	80002d6c	02c000ef	jal	x1,80002d6c	  x1=0x80002d6c
       53905000	      5389	00000000	00000013	addi	x0,x0,0	  x0:0x00000000
       53915000	      5390	80002d94	00000013	addi	x0,x0,0	  x0:0x00000000
       53925000	      5391	80002d98	fe5ff0ef	jal	x1,80002d98	  x1=0x80002d98
       53935000	      5392	00000000	00000013	addi	x0,x0,0	  x0:0x00000000
       53945000	      5393	80002d78	00000013	addi	x0,x0,0	  x0:0x00000000
       53955000	      5394	80002d7c	018000ef	jal	x1,80002d7c	  x1=0x80002d7c
       53965000	      5395	00000000	00000013	addi	x0,x0,0	  x0:0x00000000
       53975000	      5396	80002d90	00000013	addi	x0,x0,0	  x0:0x00000000
       53985000	      5397	80002d94	00c000ef	jal	x1,80002d94	  x1=0x80002d94
       53995000	      5398	00000000	00000013	addi	x0,x0,0	  x0:0x00000000
       54005000	      5399	80002d9c	00000013	addi	x0,x0,0	  x0:0x00000000
       54015000	      5400	80002da0	ff1ffdef	jal	x27,80002da0	 x27=0x80002da0
       54025000	      5401	00000000	00000013	addi	x0,x0,0	  x0:0x00000000
       54035000	      5402	80002d8c	00000013	addi	x0,x0,0	  x0:0x00000000
       54045000	      5403	80002d90	014000ef	jal	x1,80002d90	  x1=0x80002d90
       54055000	      5404	00000000	00000013	addi	x0,x0,0	  x0:0x00000000
       54065000	      5405	80002da0	00000013	addi	x0,x0,0	  x0:0x00000000
       54075000	      5406	80002da4	fb9ff7ef	jal	x15,80002da4	 x15=0x80002da4
       54085000	      5407	00000000	00000013	addi	x0,x0,0	  x0:0x00000000
       54095000	      5408	80002d58	00000013	addi	x0,x0,0	  x0:0x00000000
       54105000	      5409	80002d5c	0080036f	jal	x6,80002d5c	  x6=0x80002d5c
       54115000	      5410	00000000	00000013	addi	x0,x0,0	  x0:0x00000000
       54125000	      5411	80002d60	00000013	addi	x0,x0,0	  x0:0x00000000
       54135000	      5412	80002d64	fe9ff0ef	jal	x1,80002d64	  x1=0x80002d64
       54145000	      5413	00000000	00000013	addi	x0,x0,0	  x0:0x00000000
       54155000	      5414	80002d48	00000013	addi	x0,x0,0	  x0:0x00000000
       54165000	      5415	80002d4c	060002ef	jal	x5,80002d4c	  x5=0x80002d4c
       54175000	      5416	00000000	00000013	addi	x0,x0,0	  x0:0x00000000
       54185000	      5417	80002da8	00000013	addi	x0,x0,0	  x0:0x00000000
       54195000	      5418	80002dac	e8fc0e93	addi	x29,x24,-369	 x24:0x80002d48 x29=0x80002bd7
       54205000	      5419	80002db0	03800c6f	jal	x24,80002db0	 x24=0x80002db0
       54215000	      5420	00000000	00000013	addi	x0,x0,0	  x0:0x00000000
       54225000	      5421	80002de4	00000013	addi	x0,x0,0	  x0:0x00000000
       54235000	      5422	80002de8	020000ef	jal	x1,80002de8	  x1=0x80002de8
       54245000	      5423	00000000	00000013	addi	x0,x0,0	  x0:0x00000000
       54255000	      5424	80002e04	00000013	addi	x0,x0,0	  x0:0x00000000
       54265000	      5425	80002e08	fbdff0ef	jal	x1,80002e08	  x1=0x80002e08
       54275000	      5426	00000000	00000013	addi	x0,x0,0	  x0:0x00000000
       54285000	      5427	80002dc0	00000013	addi	x0,x0,0	  x0:0x00000000
       54295000	      5428	80002dc4	0380076f	jal	x14,80002dc4	 x14=0x80002dc4
       54305000	      5429	00000000	00000013	addi	x0,x0,0	  x0:0x00000000
       54315000	      5430	80002df8	00000013	addi	x0,x0,0	  x0:0x00000000
       54325000	      5431	80002dfc	ff5ff16f	jal	x2,80002dfc	  x2=0x80002dfc
       54335000	      5432	00000000	00000013	addi	x0,x0,0	  x0:0x00000000
       54345000	      5433	80002dec	00000013	addi	x0,x0,0	  x0:0x00000000
       54355000	      5434	80002df0	ffdff6ef	jal	x13,80002df0	 x13=0x80002df0
       54365000	      5435	00000000	00000013	addi	x0,x0,0	  x0:0x00000000
       54375000	      5436	80002de8	00000013	addi	x0,x0,0	  x0:0x00000000
       54385000	      5437	80002dec	0080036f	jal	x6,80002dec	  x6=0x80002dec
       54395000	      5438	00000000	00000013	addi	x0,x0,0	  x0:0x00000000
       54405000	      5439	80002df0	00000013	addi	x0,x0,0	  x0:0x00000000
       54415000	      5440	80002df4	fddff36f	jal	x6,80002df4	  x6=0x80002df4
       54425000	      5441	00000000	00000013	addi	x0,x0,0	  x0:0x00000000
       54435000	      5442	80002dcc	00000013	addi	x0,x0,0	  x0:0x00000000
       54445000	      5443	80002dd0	010000ef	jal	x1,80002dd0	  x1=0x80002dd0
       54455000	      5444	00000000	00000013	addi	x0,x0,0	  x0:0x00000000
       54465000	      5445	80002ddc	00000013	addi	x0,x0,0	  x0:0x00000000
       54475000	      5446	80002de0	004000ef	jal	x1,80002de0	  x1=0x80002de0
       54485000	      5447	00000000	00000013	addi	x0,x0,0	  x0:0x00000000
       54495000	      5448	80002de0	00000013	addi	x0,x0,0	  x0:0x00000000
       54505000	      5449	80002de4	fd1ff36f	jal	x6,80002de4	  x6=0x80002de4
       54515000	      5450	00000000	00000013	addi	x0,x0,0	  x0:0x00000000
       54525000	      5451	80002db0	00000013	addi	x0,x0,0	  x0:0x00000000
       54535000	      5452	80002db4	044000ef	jal	x1,80002db4	  x1=0x80002db4
       54545000	      5453	00000000	00000013	addi	x0,x0,0	  x0:0x00000000
       54555000	      5454	80002df4	00000013	addi	x0,x0,0	  x0:0x00000000
       54565000	      5455	80002df8	fc1ff16f	jal	x2,80002df8	  x2=0x80002df8
       54575000	      5456	00000000	00000013	addi	x0,x0,0	  x0:0x00000000
       54585000	      5457	80002db4	00000013	addi	x0,x0,0	  x0:0x00000000
       54595000	      5458	80002db8	04c000ef	jal	x1,80002db8	  x1=0x80002db8
       54605000	      5459	00000000	00000013	addi	x0,x0,0	  x0:0x00000000
       54615000	      5460	80002e00	00000013	addi	x0,x0,0	  x0:0x00000000
       54625000	      5461	80002e04	fd9ff36f	jal	x6,80002e04	  x6=0x80002e04
       54635000	      5462	00000000	00000013	addi	x0,x0,0	  x0:0x00000000
       54645000	      5463	80002dd8	00000013	addi	x0,x0,0	  x0:0x00000000
       54655000	      5464	80002ddc	ff1ffcef	jal	x25,80002ddc	 x25=0x80002ddc
       54665000	      5465	00000000	00000013	addi	x0,x0,0	  x0:0x00000000
       54675000	      5466	80002dc8	00000013	addi	x0,x0,0	  x0:0x00000000
       54685000	      5467	80002dcc	0080036f	jal	x6,80002dcc	  x6=0x80002dcc
       54695000	      5468	00000000	00000013	addi	x0,x0,0	  x0:0x00000000
       54705000	      5469	80002dd0	00000013	addi	x0,x0,0	  x0:0x00000000
       54715000	      5470	80002dd4	ff5ff0ef	jal	x1,80002dd4	  x1=0x80002dd4
       54725000	      5471	00000000	00000013	addi	x0,x0,0	  x0:0x00000000
       54735000	      5472	80002dc4	00000013	addi	x0,x0,0	  x0:0x00000000
       54745000	      5473	80002dc8	ff5ff36f	jal	x6,80002dc8	  x6=0x80002dc8
       54755000	      5474	00000000	00000013	addi	x0,x0,0	  x0:0x00000000
       54765000	      5475	80002db8	00000013	addi	x0,x0,0	  x0:0x00000000
       54775000	      5476	80002dbc	01c0036f	jal	x6,80002dbc	  x6=0x80002dbc
       54785000	      5477	00000000	00000013	addi	x0,x0,0	  x0:0x00000000
       54795000	      5478	80002dd4	00000013	addi	x0,x0,0	  x0:0x00000000
       54805000	      5479	80002dd8	028000ef	jal	x1,80002dd8	  x1=0x80002dd8
       54815000	      5480	00000000	00000013	addi	x0,x0,0	  x0:0x00000000
       54825000	      5481	80002dfc	00000013	addi	x0,x0,0	  x0:0x00000000
       54835000	      5482	80002e00	fc1ff56f	jal	x10,80002e00	 x10=0x80002e00
       54845000	      5483	00000000	00000013	addi	x0,x0,0	  x0:0x00000000
       54855000	      5484	80002dbc	00000013	addi	x0,x0,0	  x0:0x00000000
       54865000	      5485	80002dc0	04c000ef	jal	x1,80002dc0	  x1=0x80002dc0
       54875000	      5486	00000000	00000013	addi	x0,x0,0	  x0:0x00000000
       54885000	      5487	80002e08	00000013	addi	x0,x0,0	  x0:0x00000000
       54895000	      5488	80002e0c	00b95ab3	srl	x21,x18,x11	 x18:0x80002af0 x11:0x80002af8 x21=0x00000080
       54905000	      5489	80002e10	03c00c6f	jal	x24,80002e10	 x24=0x80002e10
       54915000	      5490	00000000	00000013	addi	x0,x0,0	  x0:0x00000000
       54925000	      5491	80002e48	00000013	addi	x0,x0,0	  x0:0x00000000
       54935000	      5492	80002e4c	fddff1ef	jal	x3,80002e4c	  x3=0x80002e4c
       54945000	      5493	00000000	00000013	addi	x0,x0,0	  x0:0x00000000
       54955000	      5494	80002e24	00000013	addi	x0,x0,0	  x0:0x00000000
       54965000	      5495	80002e28	03c0066f	jal	x12,80002e28	 x12=0x80002e28
       54975000	      5496	00000000	00000013	addi	x0,x0,0	  x0:0x00000000
       54985000	      5497	80002e60	00000013	addi	x0,x0,0	  x0:0x00000000
       54995000	      5498	80002e64	fd9ff8ef	jal	x17,80002e64	 x17=0x80002e64
       55005000	      5499	00000000	00000013	addi	x0,x0,0	  x0:0x00000000
       55015000	      5500	80002e38	00000013	addi	x0,x0,0	  x0:0x00000000
       55025000	      5501	80002e3c	fddff0ef	jal	x1,80002e3c	  x1=0x80002e3c
       55035000	      5502	00000000	00000013	addi	x0,x0,0	  x0:0x00000000
       55045000	      5503	80002e14	00000013	addi	x0,x0,0	  x0:0x00000000
       55055000	      5504	80002e18	044000ef	jal	x1,80002e18	  x1=0x80002e18
       55065000	      5505	00000000	00000013	addi	x0,x0,0	  x0:0x00000000
       55075000	      5506	80002e58	00000013	addi	x0,x0,0	  x0:0x00000000
       55085000	      5507	80002e5c	fb9ff0ef	jal	x1,80002e5c	  x1=0x80002e5c
       55095000	      5508	00000000	00000013	addi	x0,x0,0	  x0:0x00000000
       55105000	      5509	80002e10	00000013	addi	x0,x0,0	  x0:0x00000000
       55115000	      5510	80002e14	02c00c6f	jal	x24,80002e14	 x24=0x80002e14
       55125000	      5511	00000000	00000013	addi	x0,x0,0	  x0:0x00000000
       55135000	      5512	80002e3c	00000013	addi	x0,x0,0	  x0:0x00000000
       55145000	      5513	80002e40	014000ef	jal	x1,80002e40	  x1=0x80002e40
       55155000	      5514	00000000	00000013	addi	x0,x0,0	  x0:0x00000000
       55165000	      5515	80002e50	00000013	addi	x0,x0,0	  x0:0x00000000
       55175000	      5516	80002e54	00c000ef	jal	x1,80002e54	  x1=0x80002e54
       55185000	      5517	00000000	00000013	addi	x0,x0,0	  x0:0x00000000
       55195000	      5518	80002e5c	00000013	addi	x0,x0,0	  x0:0x00000000
       55205000	      5519	80002e60	fd1ff0ef	jal	x1,80002e60	  x1=0x80002e60
       55215000	      5520	00000000	00000013	addi	x0,x0,0	  x0:0x00000000
       55225000	      5521	80002e2c	00000013	addi	x0,x0,0	  x0:0x00000000
       55235000	      5522	80002e30	fedff0ef	jal	x1,80002e30	  x1=0x80002e30
       55245000	      5523	00000000	00000013	addi	x0,x0,0	  x0:0x00000000
       55255000	      5524	80002e18	00000013	addi	x0,x0,0	  x0:0x00000000
       55265000	      5525	80002e1c	0080036f	jal	x6,80002e1c	  x6=0x80002e1c
       55275000	      5526	00000000	00000013	addi	x0,x0,0	  x0:0x00000000
       55285000	      5527	80002e20	00000013	addi	x0,x0,0	  x0:0x00000000
       55295000	      5528	80002e24	008000ef	jal	x1,80002e24	  x1=0x80002e24
       55305000	      5529	00000000	00000013	addi	x0,x0,0	  x0:0x00000000
       55315000	      5530	80002e28	00000013	addi	x0,x0,0	  x0:0x00000000
       55325000	      5531	80002e2c	02c000ef	jal	x1,80002e2c	  x1=0x80002e2c
       55335000	      5532	00000000	00000013	addi	x0,x0,0	  x0:0x00000000
       55345000	      5533	80002e54	00000013	addi	x0,x0,0	  x0:0x00000000
       55355000	      5534	80002e58	ff1ff0ef	jal	x1,80002e58	  x1=0x80002e58
       55365000	      5535	00000000	00000013	addi	x0,x0,0	  x0:0x00000000
       55375000	      5536	80002e44	00000013	addi	x0,x0,0	  x0:0x00000000
       55385000	      5537	80002e48	008002ef	jal	x5,80002e48	  x5=0x80002e48
       55395000	      5538	00000000	00000013	addi	x0,x0,0	  x0:0x00000000
       55405000	      5539	80002e4c	00000013	addi	x0,x0,0	  x0:0x00000000
       55415000	      5540	80002e50	fd1ff36f	jal	x6,80002e50	  x6=0x80002e50
       55425000	      5541	00000000	00000013	addi	x0,x0,0	  x0:0x00000000
       55435000	      5542	80002e1c	00000013	addi	x0,x0,0	  x0:0x00000000
       55445000	      5543	80002e20	018000ef	jal	x1,80002e20	  x1=0x80002e20
       55455000	      5544	00000000	00000013	addi	x0,x0,0	  x0:0x00000000
       55465000	      5545	80002e34	00000013	addi	x0,x0,0	  x0:0x00000000
       55475000	      5546	80002e38	0300036f	jal	x6,80002e38	  x6=0x80002e38
       55485000	      5547	00000000	00000013	addi	x0,x0,0	  x0:0x00000000
       55495000	      5548	80002e64	00000013	addi	x0,x0,0	  x0:0x00000000
       55505000	      5549	80002e68	fcdff0ef	jal	x1,80002e68	  x1=0x80002e68
       55515000	      5550	00000000	00000013	addi	x0,x0,0	  x0:0x00000000
       55525000	      5551	80002e30	00000013	addi	x0,x0,0	  x0:0x00000000
       55535000	      5552	80002e34	010000ef	jal	x1,80002e34	  x1=0x80002e34
       55545000	      5553	00000000	00000013	addi	x0,x0,0	  x0:0x00000000
       55555000	      5554	80002e40	00000013	addi	x0,x0,0	  x0:0x00000000
       55565000	      5555	80002e44	028000ef	jal	x1,80002e44	  x1=0x80002e44
       55575000	      5556	00000000	00000013	addi	x0,x0,0	  x0:0x00000000
       55585000	      5557	80002e68	00000013	addi	x0,x0,0	  x0:0x00000000
       55595000	      5558	80002e6c	35177d93	andi	x27,x14,849	 x14:0x80002dc4 x27=0x00000140
       55605000	      5559	80002e70	04000c6f	jal	x24,80002e70	 x24=0x80002e70
       55615000	      5560	00000000	00000013	addi	x0,x0,0	  x0:0x00000000
       55625000	      5561	80002eac	00000013	addi	x0,x0,0	  x0:0x00000000
       55635000	      5562	80002eb0	fd5ff36f	jal	x6,80002eb0	  x6=0x80002eb0
       55645000	      5563	00000000	00000013	addi	x0,x0,0	  x0:0x00000000
       55655000	      5564	80002e80	00000013	addi	x0,x0,0	  x0:0x00000000
       55665000	      5565	80002e84	020000ef	jal	x1,80002e84	  x1=0x80002e84
       55675000	      5566	00000000	00000013	addi	x0,x0,0	  x0:0x00000000
       55685000	      5567	80002ea0	00000013	addi	x0,x0,0	  x0:0x00000000
       55695000	      5568	80002ea4	01c0036f	jal	x6,80002ea4	  x6=0x80002ea4
       55705000	      5569	00000000	00000013	addi	x0,x0,0	  x0:0x00000000
       55715000	      5570	80002ebc	00000013	addi	x0,x0,0	  x0:0x00000000
       55725000	      5571	80002ec0	fd5ff0ef	jal	x1,80002ec0	  x1=0x80002ec0
       55735000	      5572	00000000	00000013	addi	x0,x0,0	  x0:0x00000000
       55745000	      5573	80002e90	00000013	addi	x0,x0,0	  x0:0x00000000
       55755000	      5574	80002e94	ff5ff0ef	jal	x1,80002e94	  x1=0x80002e94
       55765000	      5575	00000000	00000013	addi	x0,x0,0	  x0:0x00000000
       55775000	      5576	80002e84	00000013	addi	x0,x0,0	  x0:0x00000000
       55785000	      5577	80002e88	008000ef	jal	x1,80002e88	  x1=0x80002e88
       55795000	      5578	00000000	00000013	addi	x0,x0,0	  x0:0x00000000
       55805000	      5579	80002e8c	00000013	addi	x0,x0,0	  x0:0x00000000
       55815000	      5580	80002e90	fe5ff0ef	jal	x1,80002e90	  x1=0x80002e90
       55825000	      5581	00000000	00000013	addi	x0,x0,0	  x0:0x00000000
       55835000	      5582	80002e70	00000013	addi	x0,x0,0	  x0:0x00000000
       55845000	      5583	80002e74	024000ef	jal	x1,80002e74	  x1=0x80002e74
       55855000	      5584	00000000	00000013	addi	x0,x0,0	  x0:0x00000000
       55865000	      5585	80002e94	00000013	addi	x0,x0,0	  x0:0x00000000
       55875000	      5586	80002e98	fe5ff0ef	jal	x1,80002e98	  x1=0x80002e98
       55885000	      5587	00000000	00000013	addi	x0,x0,0	  x0:0x00000000
       55895000	      5588	80002e78	00000013	addi	x0,x0,0	  x0:0x00000000
       55905000	      5589	80002e7c	04c000ef	jal	x1,80002e7c	  x1=0x80002e7c
       55915000	      5590	00000000	00000013	addi	x0,x0,0	  x0:0x00000000
       55925000	      5591	80002ec4	00000013	addi	x0,x0,0	  x0:0x00000000
       55935000	      5592	80002ec8	00c000ef	jal	x1,80002ec8	  x1=0x80002ec8
       55945000	      5593	00000000	00000013	addi	x0,x0,0	  x0:0x00000000
       55955000	      5594	80002ed0	00000013	addi	x0,x0,0	  x0:0x00000000
       55965000	      5595	80002ed4	fe5ff36f	jal	x6,80002ed4	  x6=0x80002ed4
       55975000	      5596	00000000	00000013	addi	x0,x0,0	  x0:0x00000000
       55985000	      5597	80002eb4	00000013	addi	x0,x0,0	  x0:0x00000000
       55995000	      5598	80002eb8	fe5ff0ef	jal	x1,80002eb8	  x1=0x80002eb8
       56005000	      5599	00000000	00000013	addi	x0,x0,0	  x0:0x00000000
       56015000	      5600	80002e98	00000013	addi	x0,x0,0	  x0:0x00000000
       56025000	      5601	80002e9c	030002ef	jal	x5,80002e9c	  x5=0x80002e9c
       56035000	      5602	00000000	00000013	addi	x0,x0,0	  x0:0x00000000
       56045000	      5603	80002ec8	00000013	addi	x0,x0,0	  x0:0x00000000
       56055000	      5604	80002ecc	fb5ff36f	jal	x6,80002ecc	  x6=0x80002ecc
       56065000	      5605	00000000	00000013	addi	x0,x0,0	  x0:0x00000000
       56075000	      5606	80002e7c	00000013	addi	x0,x0,0	  x0:0x00000000
       56085000	      5607	80002e80	020000ef	jal	x1,80002e80	  x1=0x80002e80
       56095000	      5608	00000000	00000013	addi	x0,x0,0	  x0:0x00000000
       56105000	      5609	80002e9c	00000013	addi	x0,x0,0	  x0:0x00000000
       56115000	      5610	80002ea0	024000ef	jal	x1,80002ea0	  x1=0x80002ea0
       56125000	      5611	00000000	00000013	addi	x0,x0,0	  x0:0x00000000
       56135000	      5612	80002ec0	00000013	addi	x0,x0,0	  x0:0x00000000
       56145000	      5613	80002ec4	ff1ff0ef	jal	x1,80002ec4	  x1=0x80002ec4
       56155000	      5614	00000000	00000013	addi	x0,x0,0	  x0:0x00000000
       56165000	      5615	80002eb0	00000013	addi	x0,x0,0	  x0:0x00000000
       56175000	      5616	80002eb4	fc5ff0ef	jal	x1,80002eb4	  x1=0x80002eb4
       56185000	      5617	00000000	00000013	addi	x0,x0,0	  x0:0x00000000
       56195000	      5618	80002e74	00000013	addi	x0,x0,0	  x0:0x00000000
       56205000	      5619	80002e78	044000ef	jal	x1,80002e78	  x1=0x80002e78
       56215000	      5620	00000000	00000013	addi	x0,x0,0	  x0:0x00000000
       56225000	      5621	80002eb8	00000013	addi	x0,x0,0	  x0:0x00000000
       56235000	      5622	80002ebc	0140036f	jal	x6,80002ebc	  x6=0x80002ebc
       56245000	      5623	00000000	00000013	addi	x0,x0,0	  x0:0x00000000
       56255000	      5624	80002ecc	00000013	addi	x0,x0,0	  x0:0x00000000
       56265000	      5625	80002ed0	fddff0ef	jal	x1,80002ed0	  x1=0x80002ed0
       56275000	      5626	00000000	00000013	addi	x0,x0,0	  x0:0x00000000
       56285000	      5627	80002ea8	00000013	addi	x0,x0,0	  x0:0x00000000
       56295000	      5628	80002eac	ffdff0ef	jal	x1,80002eac	  x1=0x80002eac
       56305000	      5629	00000000	00000013	addi	x0,x0,0	  x0:0x00000000
       56315000	      5630	80002ea4	00000013	addi	x0,x0,0	  x0:0x00000000
       56325000	      5631	80002ea8	fe5ff36f	jal	x6,80002ea8	  x6=0x80002ea8
       56335000	      5632	00000000	00000013	addi	x0,x0,0	  x0:0x00000000
       56345000	      5633	80002e88	00000013	addi	x0,x0,0	  x0:0x00000000
       56355000	      5634	80002e8c	04c000ef	jal	x1,80002e8c	  x1=0x80002e8c
       56365000	      5635	00000000	00000013	addi	x0,x0,0	  x0:0x00000000
       56375000	      5636	80002ed4	00000013	addi	x0,x0,0	  x0:0x00000000
       56385000	      5637	80002ed8	007b37b3	sltu	x15,x22,x7	 x22:0x80002cec  x7:0x000000c0 x15=0x00000000
       56395000	      5638	80002edc	01400c6f	jal	x24,80002edc	 x24=0x80002edc
       56405000	      5639	00000000	00000013	addi	x0,x0,0	  x0:0x00000000
       56415000	      5640	80002eec	00000013	addi	x0,x0,0	  x0:0x00000000
       56425000	      5641	80002ef0	ff1ff0ef	jal	x1,80002ef0	  x1=0x80002ef0
       56435000	      5642	00000000	00000013	addi	x0,x0,0	  x0:0x00000000
       56445000	      5643	80002edc	00000013	addi	x0,x0,0	  x0:0x00000000
       56455000	      5644	80002ee0	0200036f	jal	x6,80002ee0	  x6=0x80002ee0
       56465000	      5645	00000000	00000013	addi	x0,x0,0	  x0:0x00000000
       56475000	      5646	80002efc	00000013	addi	x0,x0,0	  x0:0x00000000
       56485000	      5647	80002f00	ff9ff0ef	jal	x1,80002f00	  x1=0x80002f00
       56495000	      5648	00000000	00000013	addi	x0,x0,0	  x0:0x00000000
       56505000	      5649	80002ef4	00000013	addi	x0,x0,0	  x0:0x00000000
       56515000	      5650	80002ef8	020000ef	jal	x1,80002ef8	  x1=0x80002ef8
       56525000	      5651	00000000	00000013	addi	x0,x0,0	  x0:0x00000000
       56535000	      5652	80002f14	00000013	addi	x0,x0,0	  x0:0x00000000
       56545000	      5653	80002f18	fd5ff0ef	jal	x1,80002f18	  x1=0x80002f18
       56555000	      5654	00000000	00000013	addi	x0,x0,0	  x0:0x00000000
       56565000	      5655	80002ee8	00000013	addi	x0,x0,0	  x0:0x00000000
       56575000	      5656	80002eec	018004ef	jal	x9,80002eec	  x9=0x80002eec
       56585000	      5657	00000000	00000013	addi	x0,x0,0	  x0:0x00000000
       56595000	      5658	80002f00	00000013	addi	x0,x0,0	  x0:0x00000000
       56605000	      5659	80002f04	ff1ffbef	jal	x23,80002f04	 x23=0x80002f04
       56615000	      5660	00000000	00000013	addi	x0,x0,0	  x0:0x00000000
       56625000	      5661	80002ef0	00000013	addi	x0,x0,0	  x0:0x00000000
       56635000	      5662	80002ef4	01c000ef	jal	x1,80002ef4	  x1=0x80002ef4
       56645000	      5663	00000000	00000013	addi	x0,x0,0	  x0:0x00000000
       56655000	      5664	80002f0c	00000013	addi	x0,x0,0	  x0:0x00000000
       56665000	      5665	80002f10	fedff0ef	jal	x1,80002f10	  x1=0x80002f10
       56675000	      5666	00000000	00000013	addi	x0,x0,0	  x0:0x00000000
       56685000	      5667	80002ef8	00000013	addi	x0,x0,0	  x0:0x00000000
       56695000	      5668	80002efc	fe9ff36f	jal	x6,80002efc	  x6=0x80002efc
       56705000	      5669	00000000	00000013	addi	x0,x0,0	  x0:0x00000000
       56715000	      5670	80002ee0	00000013	addi	x0,x0,0	  x0:0x00000000
       56725000	      5671	80002ee4	02800fef	jal	x31,80002ee4	 x31=0x80002ee4
       56735000	      5672	00000000	00000013	addi	x0,x0,0	  x0:0x00000000
       56745000	      5673	80002f08	00000013	addi	x0,x0,0	  x0:0x00000000
       56755000	      5674	80002f0c	ffdff36f	jal	x6,80002f0c	  x6=0x80002f0c
       56765000	      5675	00000000	00000013	addi	x0,x0,0	  x0:0x00000000
       56775000	      5676	80002f04	00000013	addi	x0,x0,0	  x0:0x00000000
       56785000	      5677	80002f08	00c000ef	jal	x1,80002f08	  x1=0x80002f08
       56795000	      5678	00000000	00000013	addi	x0,x0,0	  x0:0x00000000
       56805000	      5679	80002f10	00000013	addi	x0,x0,0	  x0:0x00000000
       56815000	      5680	80002f14	fd5ff0ef	jal	x1,80002f14	  x1=0x80002f14
       56825000	      5681	00000000	00000013	addi	x0,x0,0	  x0:0x00000000
       56835000	      5682	80002ee4	00000013	addi	x0,x0,0	  x0:0x00000000
       56845000	      5683	80002ee8	034000ef	jal	x1,80002ee8	  x1=0x80002ee8
       56855000	      5684	00000000	00000013	addi	x0,x0,0	  x0:0x00000000
       56865000	      5685	80002f18	00000013	addi	x0,x0,0	  x0:0x00000000
       56875000	      5686	80002f1c	9afd2613	slti	x12,x26,-1617	 x26:0x80002d60 x12=0x00000001
       56885000	      5687	80002f20	03800c6f	jal	x24,80002f20	 x24=0x80002f20
       56895000	      5688	00000000	00000013	addi	x0,x0,0	  x0:0x00000000
       56905000	      5689	80002f54	00000013	addi	x0,x0,0	  x0:0x00000000
       56915000	      5690	80002f58	ff1ff3ef	jal	x7,80002f58	  x7=0x80002f58
       56925000	      5691	00000000	00000013	addi	x0,x0,0	  x0:0x00000000
       56935000	      5692	80002f44	00000013	addi	x0,x0,0	  x0:0x00000000
       56945000	      5693	80002f48	fddff2ef	jal	x5,80002f48	  x5=0x80002f48
       56955000	      5694	00000000	00000013	addi	x0,x0,0	  x0:0x00000000
       56965000	      5695	80002f20	00000013	addi	x0,x0,0	  x0:0x00000000
       56975000	      5696	80002f24	004007ef	jal	x15,80002f24	 x15=0x80002f24
       56985000	      5697	00000000	00000013	addi	x0,x0,0	  x0:0x00000000
       56995000	      5698	80002f24	00000013	addi	x0,x0,0	  x0:0x00000000
       57005000	      5699	80002f28	018000ef	jal	x1,80002f28	  x1=0x80002f28
       57015000	      5700	00000000	00000013	addi	x0,x0,0	  x0:0x00000000
       57025000	      5701	80002f3c	00000013	addi	x0,x0,0	  x0:0x00000000
       57035000	      5702	80002f40	010002ef	jal	x5,80002f40	  x5=0x80002f40
       57045000	      5703	00000000	00000013	addi	x0,x0,0	  x0:0x00000000
       57055000	      5704	80002f4c	00000013	addi	x0,x0,0	  x0:0x00000000
       57065000	      5705	80002f50	fedff0ef	jal	x1,80002f50	  x1=0x80002f50
       57075000	      5706	00000000	00000013	addi	x0,x0,0	  x0:0x00000000
       57085000	      5707	80002f38	00000013	addi	x0,x0,0	  x0:0x00000000
       57095000	      5708	80002f3c	010004ef	jal	x9,80002f3c	  x9=0x80002f3c
       57105000	      5709	00000000	00000013	addi	x0,x0,0	  x0:0x00000000
       57115000	      5710	80002f48	00000013	addi	x0,x0,0	  x0:0x00000000
       57125000	      5711	80002f4c	010004ef	jal	x9,80002f4c	  x9=0x80002f4c
       57135000	      5712	00000000	00000013	addi	x0,x0,0	  x0:0x00000000
       57145000	      5713	80002f58	00000013	addi	x0,x0,0	  x0:0x00000000
       57155000	      5714	80002f5c	fd5ff36f	jal	x6,80002f5c	  x6=0x80002f5c
       57165000	      5715	00000000	00000013	addi	x0,x0,0	  x0:0x00000000
       57175000	      5716	80002f2c	00000013	addi	x0,x0,0	  x0:0x00000000
       57185000	      5717	80002f30	ffdff0ef	jal	x1,80002f30	  x1=0x80002f30
       57195000	      5718	00000000	00000013	addi	x0,x0,0	  x0:0x00000000
       57205000	      5719	80002f28	00000013	addi	x0,x0,0	  x0:0x00000000
       57215000	      5720	80002f2c	034001ef	jal	x3,80002f2c	  x3=0x80002f2c
       57225000	      5721	00000000	00000013	addi	x0,x0,0	  x0:0x00000000
       57235000	      5722	80002f5c	00000013	addi	x0,x0,0	  x0:0x00000000
       57245000	      5723	80002f60	fd9ff56f	jal	x10,80002f60	 x10=0x80002f60
       57255000	      5724	00000000	00000013	addi	x0,x0,0	  x0:0x00000000
       57265000	      5725	80002f34	00000013	addi	x0,x0,0	  x0:0x00000000
       57275000	      5726	80002f38	ffdff66f	jal	x12,80002f38	 x12=0x80002f38
       57285000	      5727	00000000	00000013	addi	x0,x0,0	  x0:0x00000000
       57295000	      5728	80002f30	00000013	addi	x0,x0,0	  x0:0x00000000
       57305000	      5729	80002f34	0300036f	jal	x6,80002f34	  x6=0x80002f34
       57315000	      5730	00000000	00000013	addi	x0,x0,0	  x0:0x00000000
       57325000	      5731	80002f60	00000013	addi	x0,x0,0	  x0:0x00000000
       57335000	      5732	80002f64	ff1ff0ef	jal	x1,80002f64	  x1=0x80002f64
       57345000	      5733	00000000	00000013	addi	x0,x0,0	  x0:0x00000000
       57355000	      5734	80002f50	00000013	addi	x0,x0,0	  x0:0x00000000
       57365000	      5735	80002f54	ff1ff0ef	jal	x1,80002f54	  x1=0x80002f54
       57375000	      5736	00000000	00000013	addi	x0,x0,0	  x0:0x00000000
       57385000	      5737	80002f40	00000013	addi	x0,x0,0	  x0:0x00000000
       57395000	      5738	80002f44	024000ef	jal	x1,80002f44	  x1=0x80002f44
       57405000	      5739	00000000	00000013	addi	x0,x0,0	  x0:0x00000000
       57415000	      5740	80002f64	00000013	addi	x0,x0,0	  x0:0x00000000
       57425000	      5741	80002f68	82960a93	addi	x21,x12,-2007	 x12:0x80002f38 x21=0x80002761
       57435000	      5742	80002f6c	03800c6f	jal	x24,80002f6c	 x24=0x80002f6c
       57445000	      5743	00000000	00000013	addi	x0,x0,0	  x0:0x00000000
       57455000	      5744	80002fa0	00000013	addi	x0,x0,0	  x0:0x00000000
       57465000	      5745	80002fa4	01c000ef	jal	x1,80002fa4	  x1=0x80002fa4
       57475000	      5746	00000000	00000013	addi	x0,x0,0	  x0:0x00000000
       57485000	      5747	80002fbc	00000013	addi	x0,x0,0	  x0:0x00000000
       57495000	      5748	80002fc0	008000ef	jal	x1,80002fc0	  x1=0x80002fc0
       57505000	      5749	00000000	00000013	addi	x0,x0,0	  x0:0x00000000
       57515000	      5750	80002fc4	00000013	addi	x0,x0,0	  x0:0x00000000
       57525000	      5751	80002fc8	fd1ff0ef	jal	x1,80002fc8	  x1=0x80002fc8
       57535000	      5752	00000000	00000013	addi	x0,x0,0	  x0:0x00000000
       57545000	      5753	80002f94	00000013	addi	x0,x0,0	  x0:0x00000000
       57555000	      5754	80002f98	018000ef	jal	x1,80002f98	  x1=0x80002f98
       57565000	      5755	00000000	00000013	addi	x0,x0,0	  x0:0x00000000
       57575000	      5756	80002fac	00000013	addi	x0,x0,0	  x0:0x00000000
       57585000	      5757	80002fb0	fd1ff36f	jal	x6,80002fb0	  x6=0x80002fb0
       57595000	      5758	00000000	00000013	addi	x0,x0,0	  x0:0x00000000
       57605000	      5759	80002f7c	00000013	addi	x0,x0,0	  x0:0x00000000
       57615000	      5760	80002f80	020000ef	jal	x1,80002f80	  x1=0x80002f80
       57625000	      5761	00000000	00000013	addi	x0,x0,0	  x0:0x00000000
       57635000	      5762	80002f9c	00000013	addi	x0,x0,0	  x0:0x00000000
       57645000	      5763	80002fa0	0140036f	jal	x6,80002fa0	  x6=0x80002fa0
       57655000	      5764	00000000	00000013	addi	x0,x0,0	  x0:0x00000000
       57665000	      5765	80002fb0	00000013	addi	x0,x0,0	  x0:0x00000000
       57675000	      5766	80002fb4	fe9ffb6f	jal	x22,80002fb4	 x22=0x80002fb4
       57685000	      5767	00000000	00000013	addi	x0,x0,0	  x0:0x00000000
       57695000	      5768	80002f98	00000013	addi	x0,x0,0	  x0:0x00000000
       57705000	      5769	80002f9c	00c0036f	jal	x6,80002f9c	  x6=0x80002f9c
       57715000	      5770	00000000	00000013	addi	x0,x0,0	  x0:0x00000000
       57725000	      5771	80002fa4	00000013	addi	x0,x0,0	  x0:0x00000000
       57735000	      5772	80002fa8	fe5ff0ef	jal	x1,80002fa8	  x1=0x80002fa8
       57745000	      5773	00000000	00000013	addi	x0,x0,0	  x0:0x00000000
       57755000	      5774	80002f88	00000013	addi	x0,x0,0	  x0:0x00000000
       57765000	      5775	80002f8c	fe9ff26f	jal	x4,80002f8c	  x4=0x80002f8c
       57775000	      5776	00000000	00000013	addi	x0,x0,0	  x0:0x00000000
       57785000	      5777	80002f70	00000013	addi	x0,x0,0	  x0:0x00000000
       57795000	      5778	80002f74	0080026f	jal	x4,80002f74	  x4=0x80002f74
       57805000	      5779	00000000	00000013	addi	x0,x0,0	  x0:0x00000000
       57815000	      5780	80002f78	00000013	addi	x0,x0,0	  x0:0x00000000
       57825000	      5781	80002f7c	0500036f	jal	x6,80002f7c	  x6=0x80002f7c
       57835000	      5782	00000000	00000013	addi	x0,x0,0	  x0:0x00000000
       57845000	      5783	80002fc8	00000013	addi	x0,x0,0	  x0:0x00000000
       57855000	      5784	80002fcc	ff1ff0ef	jal	x1,80002fcc	  x1=0x80002fcc
       57865000	      5785	00000000	00000013	addi	x0,x0,0	  x0:0x00000000
       57875000	      5786	80002fb8	00000013	addi	x0,x0,0	  x0:0x00000000
       57885000	      5787	80002fbc	fbdff2ef	jal	x5,80002fbc	  x5=0x80002fbc
       57895000	      5788	00000000	00000013	addi	x0,x0,0	  x0:0x00000000
       57905000	      5789	80002f74	00000013	addi	x0,x0,0	  x0:0x00000000
       57915000	      5790	80002f78	040000ef	jal	x1,80002f78	  x1=0x80002f78
       57925000	      5791	00000000	00000013	addi	x0,x0,0	  x0:0x00000000
       57935000	      5792	80002fb4	00000013	addi	x0,x0,0	  x0:0x00000000
       57945000	      5793	80002fb8	018000ef	jal	x1,80002fb8	  x1=0x80002fb8
       57955000	      5794	00000000	00000013	addi	x0,x0,0	  x0:0x00000000
       57965000	      5795	80002fcc	00000013	addi	x0,x0,0	  x0:0x00000000
       57975000	      5796	80002fd0	fc5ff0ef	jal	x1,80002fd0	  x1=0x80002fd0
       57985000	      5797	00000000	00000013	addi	x0,x0,0	  x0:0x00000000
       57995000	      5798	80002f90	00000013	addi	x0,x0,0	  x0:0x00000000
       58005000	      5799	80002f94	018000ef	jal	x1,80002f94	  x1=0x80002f94
       58015000	      5800	00000000	00000013	addi	x0,x0,0	  x0:0x00000000
       58025000	      5801	80002fa8	00000013	addi	x0,x0,0	  x0:0x00000000
       58035000	      5802	80002fac	fc5ff0ef	jal	x1,80002fac	  x1=0x80002fac
       58045000	      5803	00000000	00000013	addi	x0,x0,0	  x0:0x00000000
       58055000	      5804	80002f6c	00000013	addi	x0,x0,0	  x0:0x00000000
       58065000	      5805	80002f70	018000ef	jal	x1,80002f70	  x1=0x80002f70
       58075000	      5806	00000000	00000013	addi	x0,x0,0	  x0:0x00000000
       58085000	      5807	80002f84	00000013	addi	x0,x0,0	  x0:0x00000000
       58095000	      5808	80002f88	ffdff0ef	jal	x1,80002f88	  x1=0x80002f88
       58105000	      5809	00000000	00000013	addi	x0,x0,0	  x0:0x00000000
       58115000	      5810	80002f80	00000013	addi	x0,x0,0	  x0:0x00000000
       58125000	      5811	80002f84	00c007ef	jal	x15,80002f84	 x15=0x80002f84
       58135000	      5812	00000000	00000013	addi	x0,x0,0	  x0:0x00000000
       58145000	      5813	80002f8c	00000013	addi	x0,x0,0	  x0:0x00000000
       58155000	      5814	80002f90	034000ef	jal	x1,80002f90	  x1=0x80002f90
       58165000	      5815	00000000	00000013	addi	x0,x0,0	  x0:0x00000000
       58175000	      5816	80002fc0	00000013	addi	x0,x0,0	  x0:0x00000000
       58185000	      5817	80002fc4	0100036f	jal	x6,80002fc4	  x6=0x80002fc4
       58195000	      5818	00000000	00000013	addi	x0,x0,0	  x0:0x00000000
       58205000	      5819	80002fd0	00000013	addi	x0,x0,0	  x0:0x00000000
       58215000	      5820	80002fd4	c0f93c13	sltiu	x24,x18,-1009	 x18:0x80002af0 x24=0x00000001
       58225000	      5821	80002fd8	00800c6f	jal	x24,80002fd8	 x24=0x80002fd8
       58235000	      5822	00000000	00000013	addi	x0,x0,0	  x0:0x00000000
       58245000	      5823	80002fdc	00000013	addi	x0,x0,0	  x0:0x00000000
       58255000	      5824	80002fe0	018000ef	jal	x1,80002fe0	  x1=0x80002fe0
       58265000	      5825	00000000	00000013	addi	x0,x0,0	  x0:0x00000000
       58275000	      5826	80002ff4	00000013	addi	x0,x0,0	  x0:0x00000000
       58285000	      5827	80002ff8	008000ef	jal	x1,80002ff8	  x1=0x80002ff8
       58295000	      5828	00000000	00000013	addi	x0,x0,0	  x0:0x00000000
       58305000	      5829	80002ffc	00000013	addi	x0,x0,0	  x0:0x00000000
       58315000	      5830	80003000	01c00c6f	jal	x24,80003000	 x24=0x80003000
       58325000	      5831	00000000	00000013	addi	x0,x0,0	  x0:0x00000000
       58335000	      5832	80003018	00000013	addi	x0,x0,0	  x0:0x00000000
       58345000	      5833	8000301c	ff1ff26f	jal	x4,8000301c	  x4=0x8000301c
       58355000	      5834	00000000	00000013	addi	x0,x0,0	  x0:0x00000000
       58365000	      5835	80003008	00000013	addi	x0,x0,0	  x0:0x00000000
       58375000	      5836	8000300c	004005ef	jal	x11,8000300c	 x11=0x8000300c
       58385000	      5837	00000000	00000013	addi	x0,x0,0	  x0:0x00000000
       58395000	      5838	8000300c	00000013	addi	x0,x0,0	  x0:0x00000000
       58405000	      5839	80003010	fddff0ef	jal	x1,80003010	  x1=0x80003010
       58415000	      5840	00000000	00000013	addi	x0,x0,0	  x0:0x00000000
       58425000	      5841	80002fe8	00000013	addi	x0,x0,0	  x0:0x00000000
       58435000	      5842	80002fec	0100036f	jal	x6,80002fec	  x6=0x80002fec
       58445000	      5843	00000000	00000013	addi	x0,x0,0	  x0:0x00000000
       58455000	      5844	80002ff8	00000013	addi	x0,x0,0	  x0:0x00000000
       58465000	      5845	80002ffc	ff5ff0ef	jal	x1,80002ffc	  x1=0x80002ffc
       58475000	      5846	00000000	00000013	addi	x0,x0,0	  x0:0x00000000
       58485000	      5847	80002fec	00000013	addi	x0,x0,0	  x0:0x00000000
       58495000	      5848	80002ff0	01400cef	jal	x25,80002ff0	 x25=0x80002ff0
       58505000	      5849	00000000	00000013	addi	x0,x0,0	  x0:0x00000000
       58515000	      5850	80003000	00000013	addi	x0,x0,0	  x0:0x00000000
       58525000	      5851	80003004	010000ef	jal	x1,80003004	  x1=0x80003004
       58535000	      5852	00000000	00000013	addi	x0,x0,0	  x0:0x00000000
       58545000	      5853	80003010	00000013	addi	x0,x0,0	  x0:0x00000000
       58555000	      5854	80003014	ff5ff36f	jal	x6,80003014	  x6=0x80003014
       58565000	      5855	00000000	00000013	addi	x0,x0,0	  x0:0x00000000
       58575000	      5856	80003004	00000013	addi	x0,x0,0	  x0:0x00000000
       58585000	      5857	80003008	fe1ff96f	jal	x18,80003008	 x18=0x80003008
       58595000	      5858	00000000	00000013	addi	x0,x0,0	  x0:0x00000000
       58605000	      5859	80002fe4	00000013	addi	x0,x0,0	  x0:0x00000000
       58615000	      5860	80002fe8	0300036f	jal	x6,80002fe8	  x6=0x80002fe8
       58625000	      5861	00000000	00000013	addi	x0,x0,0	  x0:0x00000000
       58635000	      5862	80003014	00000013	addi	x0,x0,0	  x0:0x00000000
       58645000	      5863	80003018	fc5ff5ef	jal	x11,80003018	 x11=0x80003018
       58655000	      5864	00000000	00000013	addi	x0,x0,0	  x0:0x00000000
       58665000	      5865	80002fd8	00000013	addi	x0,x0,0	  x0:0x00000000
       58675000	      5866	80002fdc	018000ef	jal	x1,80002fdc	  x1=0x80002fdc
       58685000	      5867	00000000	00000013	addi	x0,x0,0	  x0:0x00000000
       58695000	      5868	80002ff0	00000013	addi	x0,x0,0	  x0:0x00000000
       58705000	      5869	80002ff4	ff1ff0ef	jal	x1,80002ff4	  x1=0x80002ff4
       58715000	      5870	00000000	00000013	addi	x0,x0,0	  x0:0x00000000
       58725000	      5871	80002fe0	00000013	addi	x0,x0,0	  x0:0x00000000
       58735000	      5872	80002fe4	03c0036f	jal	x6,80002fe4	  x6=0x80002fe4
       58745000	      5873	00000000	00000013	addi	x0,x0,0	  x0:0x00000000
       58755000	      5874	8000301c	00000013	addi	x0,x0,0	  x0:0x00000000
       58765000	      5875	80003020	00439013	slli	x0,x7,0x4	  x7:0x80002f58
       58775000	      5876	80003024	03800c6f	jal	x24,80003024	 x24=0x80003024
       58785000	      5877	00000000	00000013	addi	x0,x0,0	  x0:0x00000000
       58795000	      5878	80003058	00000013	addi	x0,x0,0	  x0:0x00000000
       58805000	      5879	8000305c	fd5ff0ef	jal	x1,8000305c	  x1=0x8000305c
       58815000	      5880	00000000	00000013	addi	x0,x0,0	  x0:0x00000000
       58825000	      5881	8000302c	00000013	addi	x0,x0,0	  x0:0x00000000
       58835000	      5882	80003030	010000ef	jal	x1,80003030	  x1=0x80003030
       58845000	      5883	00000000	00000013	addi	x0,x0,0	  x0:0x00000000
       58855000	      5884	8000303c	00000013	addi	x0,x0,0	  x0:0x00000000
       58865000	      5885	80003040	ff5ff56f	jal	x10,80003040	 x10=0x80003040
       58875000	      5886	00000000	00000013	addi	x0,x0,0	  x0:0x00000000
       58885000	      5887	80003030	00000013	addi	x0,x0,0	  x0:0x00000000
       58895000	      5888	80003034	ff5ff66f	jal	x12,80003034	 x12=0x80003034
       58905000	      5889	00000000	00000013	addi	x0,x0,0	  x0:0x00000000
       58915000	      5890	80003024	00000013	addi	x0,x0,0	  x0:0x00000000
       58925000	      5891	80003028	040000ef	jal	x1,80003028	  x1=0x80003028
       58935000	      5892	00000000	00000013	addi	x0,x0,0	  x0:0x00000000
       58945000	      5893	80003064	00000013	addi	x0,x0,0	  x0:0x00000000
       58955000	      5894	80003068	00c000ef	jal	x1,80003068	  x1=0x80003068
       58965000	      5895	00000000	00000013	addi	x0,x0,0	  x0:0x00000000
       58975000	      5896	80003070	00000013	addi	x0,x0,0	  x0:0x00000000
       58985000	      5897	80003074	fd1ff0ef	jal	x1,80003074	  x1=0x80003074
       58995000	      5898	00000000	00000013	addi	x0,x0,0	  x0:0x00000000
       59005000	      5899	80003040	00000013	addi	x0,x0,0	  x0:0x00000000
       59015000	      5900	80003044	02c000ef	jal	x1,80003044	  x1=0x80003044
       59025000	      5901	00000000	00000013	addi	x0,x0,0	  x0:0x00000000
       59035000	      5902	8000306c	00000013	addi	x0,x0,0	  x0:0x00000000
       59045000	      5903	80003070	fddff0ef	jal	x1,80003070	  x1=0x80003070
       59055000	      5904	00000000	00000013	addi	x0,x0,0	  x0:0x00000000
       59065000	      5905	80003048	00000013	addi	x0,x0,0	  x0:0x00000000
       59075000	      5906	8000304c	ffdff36f	jal	x6,8000304c	  x6=0x8000304c
       59085000	      5907	00000000	00000013	addi	x0,x0,0	  x0:0x00000000
       59095000	      5908	80003044	00000013	addi	x0,x0,0	  x0:0x00000000
       59105000	      5909	80003048	fe5ff0ef	jal	x1,80003048	  x1=0x80003048
       59115000	      5910	00000000	00000013	addi	x0,x0,0	  x0:0x00000000
       59125000	      5911	80003028	00000013	addi	x0,x0,0	  x0:0x00000000
       59135000	      5912	8000302c	010003ef	jal	x7,8000302c	  x7=0x8000302c
       59145000	      5913	00000000	00000013	addi	x0,x0,0	  x0:0x00000000
       59155000	      5914	80003038	00000013	addi	x0,x0,0	  x0:0x00000000
       59165000	      5915	8000303c	0140016f	jal	x2,8000303c	  x2=0x8000303c
       59175000	      5916	00000000	00000013	addi	x0,x0,0	  x0:0x00000000
       59185000	      5917	8000304c	00000013	addi	x0,x0,0	  x0:0x00000000
       59195000	      5918	80003050	004000ef	jal	x1,80003050	  x1=0x80003050
       59205000	      5919	00000000	00000013	addi	x0,x0,0	  x0:0x00000000
       59215000	      5920	80003050	00000013	addi	x0,x0,0	  x0:0x00000000
       59225000	      5921	80003054	004000ef	jal	x1,80003054	  x1=0x80003054
       59235000	      5922	00000000	00000013	addi	x0,x0,0	  x0:0x00000000
       59245000	      5923	80003054	00000013	addi	x0,x0,0	  x0:0x00000000
       59255000	      5924	80003058	0240036f	jal	x6,80003058	  x6=0x80003058
       59265000	      5925	00000000	00000013	addi	x0,x0,0	  x0:0x00000000
       59275000	      5926	80003078	00000013	addi	x0,x0,0	  x0:0x00000000
       59285000	      5927	8000307c	fbdff2ef	jal	x5,8000307c	  x5=0x8000307c
       59295000	      5928	00000000	00000013	addi	x0,x0,0	  x0:0x00000000
       59305000	      5929	80003034	00000013	addi	x0,x0,0	  x0:0x00000000
       59315000	      5930	80003038	04c000ef	jal	x1,80003038	  x1=0x80003038
       59325000	      5931	00000000	00000013	addi	x0,x0,0	  x0:0x00000000
       59335000	      5932	80003080	00000013	addi	x0,x0,0	  x0:0x00000000
       59345000	      5933	80003084	ffdff76f	jal	x14,80003084	 x14=0x80003084
       59355000	      5934	00000000	00000013	addi	x0,x0,0	  x0:0x00000000
       59365000	      5935	8000307c	00000013	addi	x0,x0,0	  x0:0x00000000
       59375000	      5936	80003080	ff9ff0ef	jal	x1,80003080	  x1=0x80003080
       59385000	      5937	00000000	00000013	addi	x0,x0,0	  x0:0x00000000
       59395000	      5938	80003074	00000013	addi	x0,x0,0	  x0:0x00000000
       59405000	      5939	80003078	ff5ff36f	jal	x6,80003078	  x6=0x80003078
       59415000	      5940	00000000	00000013	addi	x0,x0,0	  x0:0x00000000
       59425000	      5941	80003068	00000013	addi	x0,x0,0	  x0:0x00000000
       59435000	      5942	8000306c	ff5ff0ef	jal	x1,8000306c	  x1=0x8000306c
       59445000	      5943	00000000	00000013	addi	x0,x0,0	  x0:0x00000000
       59455000	      5944	8000305c	00000013	addi	x0,x0,0	  x0:0x00000000
       59465000	      5945	80003060	004000ef	jal	x1,80003060	  x1=0x80003060
       59475000	      5946	00000000	00000013	addi	x0,x0,0	  x0:0x00000000
       59485000	      5947	80003060	00000013	addi	x0,x0,0	  x0:0x00000000
       59495000	      5948	80003064	024000ef	jal	x1,80003064	  x1=0x80003064
       59505000	      5949	00000000	00000013	addi	x0,x0,0	  x0:0x00000000
       59515000	      5950	80003084	00000013	addi	x0,x0,0	  x0:0x00000000
       59525000	      5951	80003088	00d796b3	sll	x13,x15,x13	 x15:0x80002f84 x13:0x80002df0 x13=0x2f840000
       59535000	      5952	8000308c	41ced693	srai	x13,x29,0x1c	 x29:0x80002bd7 x13=0xfffffff8
       59545000	      5953	80003090	02a6d863	bge	x13,x10,800030c0	 x13:0xfffffff8 x10:0x80003040
       59555000	      5954	00000000	00000013	addi	x0,x0,0	  x0:0x00000000
       59565000	      5955	800030bc	00000013	addi	x0,x0,0	  x0:0x00000000
       59575000	      5956	800030c0	05b51063	bne	x10,x27,80003100	 x10:0x80003040 x27:0x00000140
       59585000	      5957	00000000	00000013	addi	x0,x0,0	  x0:0x00000000
       59595000	      5958	800030fc	00000013	addi	x0,x0,0	  x0:0x00000000
       59605000	      5959	80003100	02404463	blt	x0,x4,80003128	  x0:0x00000000  x4:0x8000301c
       59615000	      5960	80003104	012e8c33	add	x24,x29,x18	 x29:0x80002bd7 x18:0x80003008 x24=0x00005bdf
       59625000	      5961	80003108	00000013	addi	x0,x0,0	  x0:0x00000000
       59635000	      5962	8000310c	007ca4b3	slt	x9,x25,x7	 x25:0x80002ff0  x7:0x8000302c  x9=0x00000001
       59645000	      5963	80003110	01848033	add	x0,x9,x24	  x9:0x00000001 x24:0x00005bdf
       59655000	      5964	80003114	00eee9b3	or	x19,x29,x14	 x29:0x80002bd7 x14:0x80003084 x19=0x80003bd7
       59665000	      5965	80003118	01545863	bge	x8,x21,80003128	  x8:0x80009fc4 x21:0x80002761
       59675000	      5966	00000000	00000013	addi	x0,x0,0	  x0:0x00000000
       59685000	      5967	80003124	00000013	addi	x0,x0,0	  x0:0x00000000
       59695000	      5968	80003128	026e6463	bltu	x28,x6,80003150	 x28:0x80009eec  x6:0x80003078
       59705000	      5969	8000312c	00000013	addi	x0,x0,0	  x0:0x00000000
       59715000	      5970	80003130	0109d313	srli	x6,x19,0x10	 x19:0x80003bd7  x6=0x00008000
       59725000	      5971	80003134	0462cb93	xori	x23,x5,70	  x5:0x8000307c x23=0x8000303a
       59735000	      5972	80003138	fa903693	sltiu	x13,x0,-87	  x0:0x00000000 x13=0x00000001
       59745000	      5973	8000313c	001fddb3	srl	x27,x31,x1	 x31:0x80002ee4  x1:0x80003064 x27=0x080002ee
       59755000	      5974	80003140	02e84663	blt	x16,x14,8000316c	 x16:0x00000000 x14:0x80003084
       59765000	      5975	80003144	01261bb3	sll	x23,x12,x18	 x12:0x80003034 x18:0x80003008 x23=0x00303400
       59775000	      5976	80003148	01e0cb33	xor	x22,x1,x30	  x1:0x80003064 x30:0x80002d88 x22=0x00001dec
       59785000	      5977	8000314c	02c51863	bne	x10,x12,8000317c	 x10:0x80003040 x12:0x80003034
       59795000	      5978	00000000	00000013	addi	x0,x0,0	  x0:0x00000000
       59805000	      5979	80003178	00000013	addi	x0,x0,0	  x0:0x00000000
       59815000	      5980	8000317c	411bd493	srai	x9,x23,0x11	 x23:0x00303400  x9=0x00000018
       59825000	      5981	80003180	00a606b3	add	x13,x12,x10	 x12:0x80003034 x10:0x80003040 x13=0x00006074
       59835000	      5982	80003184	0022edb3	or	x27,x5,x2	  x5:0x8000307c  x2:0x8000303c x27=0x8000307c
       59845000	      5983	80003188	01966ab3	or	x21,x12,x25	 x12:0x80003034 x25:0x80002ff0 x21=0x80003ff4
       59855000	      5984	8000318c	d52b2f93	slti	x31,x22,-686	 x22:0x00001dec x31=0x00000000
       59865000	      5985	80003190	40415993	srai	x19,x2,0x4	  x2:0x8000303c x19=0xf8000303
       59875000	      5986	80003194	00284db3	xor	x27,x16,x2	 x16:0x00000000  x2:0x8000303c x27=0x8000303c
       59885000	      5987	80003198	015111b3	sll	x3,x2,x21	  x2:0x8000303c x21:0x80003ff4  x3=0x03c00000
       59895000	      5988	8000319c	012fd663	bge	x31,x18,800031a8	 x31:0x00000000 x18:0x80003008
       59905000	      5989	00000000	00000013	addi	x0,x0,0	  x0:0x00000000
       59915000	      5990	800031a4	00000013	addi	x0,x0,0	  x0:0x00000000
       59925000	      5991	800031a8	fb45c013	xori	x0,x11,-76	 x11:0x80003018
       59935000	      5992	800031ac	046be663	bltu	x23,x6,800031f8	 x23:0x00303400  x6:0x00008000
       59945000	      5993	800031b0	048c0663	beq	x24,x8,800031fc	 x24:0x00005bdf  x8:0x80009fc4
       59955000	      5994	800031b4	0081e733	or	x14,x3,x8	  x3:0x03c00000  x8:0x80009fc4 x14=0x83c09fc4
       59965000	      5995	800031b8	01ac61b3	or	x3,x24,x26	 x24:0x00005bdf x26:0x80002d60  x3=0x80007fff
       59975000	      5996	800031bc	fe96a297	auipc	x5,0xfe96a	  x5=0x7e96d1b8
       59985000	      5997	800031c0	01eafa63	bgeu	x21,x30,800031d4	 x21:0x80003ff4 x30:0x80002d88
       59995000	      5998	00000000	00000013	addi	x0,x0,0	  x0:0x00000000
       60005000	      5999	800031d0	00000013	addi	x0,x0,0	  x0:0x00000000
       60015000	      6000	800031d4	00000013	addi	x0,x0,0	  x0:0x00000000
       60025000	      6001	800031d8	015277b3	and	x15,x4,x21	  x4:0x8000301c x21:0x80003ff4 x15=0x80003014
       60035000	      6002	800031dc	03d3c863	blt	x7,x29,8000320c	  x7:0x8000302c x29:0x80002bd7
       60045000	      6003	800031e0	04086263	bltu	x16,x0,80003224	 x16:0x00000000  x0:0x00000000
       60055000	      6004	800031e4	a4c0ac13	slti	x24,x1,-1460	  x1:0x80003064 x24=0x00000001
       60065000	      6005	800031e8	01a79663	bne	x15,x26,800031f4	 x15:0x80003014 x26:0x80002d60
       60075000	      6006	00000000	00000013	addi	x0,x0,0	  x0:0x00000000
       60085000	      6007	800031f0	00000013	addi	x0,x0,0	  x0:0x00000000
       60095000	      6008	800031f4	008ac463	blt	x21,x8,800031fc	 x21:0x80003ff4  x8:0x80009fc4
       60105000	      6009	00000000	00000013	addi	x0,x0,0	  x0:0x00000000
       60115000	      6010	800031f8	00000013	addi	x0,x0,0	  x0:0x00000000
       60125000	      6011	800031fc	e7b63093	sltiu	x1,x12,-389	 x12:0x80003034  x1=0x00000001
       60135000	      6012	80003200	01a92033	slt	x0,x18,x26	 x18:0x80003008 x26:0x80002d60
       60145000	      6013	80003204	00d6e0b3	or	x1,x13,x13	 x13:0x00006074 x13:0x00006074  x1=0x00006074
       60155000	      6014	80003208	015fe2b3	or	x5,x31,x21	 x31:0x00000000 x21:0x80003ff4  x5=0x80003ff4
       60165000	      6015	8000320c	14520137	lui	x2,0x14520	  x2=0x14520000
       60175000	      6016	80003210	41d1ddb3	sra	x27,x3,x29	  x3:0x80007fff x29:0x80002bd7 x27=0xffffff00
       60185000	      6017	80003214	f7c06b17	auipc	x22,0xf7c06	 x22=0x77c09210
       60195000	      6018	80003218	008d7733	and	x14,x26,x8	 x26:0x80002d60  x8:0x80009fc4 x14=0x80000d40
       60205000	      6019	8000321c	f3c72c97	auipc	x25,0xf3c72	 x25=0x73c75218
       60215000	      6020	80003220	0a9cc793	xori	x15,x25,169	 x25:0x73c75218 x15=0x73c752b1
       60225000	      6021	80003224	024e7c63	bgeu	x28,x4,8000325c	 x28:0x80009eec  x4:0x8000301c
       60235000	      6022	00000000	00000013	addi	x0,x0,0	  x0:0x00000000
       60245000	      6023	80003258	00000013	addi	x0,x0,0	  x0:0x00000000
       60255000	      6024	8000325c	05f1d063	bge	x3,x31,8000329c	  x3:0x80007fff x31:0x00000000
       60265000	      6025	80003260	00729bb3	sll	x23,x5,x7	  x5:0x80003ff4  x7:0x8000302c x23=0x03ff4000
       60275000	      6026	80003264	ff72a313	slti	x6,x5,-9	  x5:0x80003ff4  x6=0x00000001
       60285000	      6027	80003268	01c40463	beq	x8,x28,80003270	  x8:0x80009fc4 x28:0x80009eec
       60295000	      6028	8000326c	411350b3	sra	x1,x6,x17	  x6:0x00000001 x17:0x80002e64  x1=0x00000000
       60305000	      6029	80003270	01502bb3	slt	x23,x0,x21	  x0:0x00000000 x21:0x80003ff4 x23=0x00000000
       60315000	      6030	80003274	3d664a93	xori	x21,x12,982	 x12:0x80003034 x21=0x800033e2
       60325000	      6031	80003278	40d65a13	srai	x20,x12,0xd	 x12:0x80003034 x20=0xfffc0001
       60335000	      6032	8000327c	2eed6c13	ori	x24,x26,750	 x26:0x80002d60 x24=0x80002fee
       60345000	      6033	80003280	04f26863	bltu	x4,x15,800032d0	  x4:0x8000301c x15:0x73c752b1
       60355000	      6034	80003284	19f78037	lui	x0,0x19f78	
       60365000	      6035	80003288	005fd993	srli	x19,x31,0x5	 x31:0x00000000 x19=0x00000000
       60375000	      6036	8000328c	8c338713	addi	x14,x7,-1853	  x7:0x8000302c x14=0x800028ef
       60385000	      6037	80003290	e4216993	ori	x19,x2,-446	  x2:0x14520000 x19=0xfffffe42
       60395000	      6038	80003294	003b34b3	sltu	x9,x22,x3	 x22:0x77c09210  x3:0x80007fff  x9=0x00000001
       60405000	      6039	80003298	411f0bb3	sub	x23,x30,x17	 x30:0x80002d88 x17:0x80002e64 x23=0xffffff24
       60415000	      6040	8000329c	008a4d33	xor	x26,x20,x8	 x20:0xfffc0001  x8:0x80009fc4 x26=0x7ffc9fc5
       60425000	      6041	800032a0	01ca3333	sltu	x6,x20,x28	 x20:0xfffc0001 x28:0x80009eec  x6=0x00000000
       60435000	      6042	800032a4	41a95333	sra	x6,x18,x26	 x18:0x80003008 x26:0x7ffc9fc5  x6=0xfc000180
       60445000	      6043	800032a8	40925d33	sra	x26,x4,x9	  x4:0x8000301c  x9:0x00000001 x26=0xc000180e
       60455000	      6044	800032ac	0046f1b3	and	x3,x13,x4	 x13:0x00006074  x4:0x8000301c  x3=0x00002014
       60465000	      6045	800032b0	4150d793	srai	x15,x1,0x15	  x1:0x00000000 x15=0x00000000
       60475000	      6046	800032b4	01c26663	bltu	x4,x28,800032c0	  x4:0x8000301c x28:0x80009eec
       60485000	      6047	00000000	00000013	addi	x0,x0,0	  x0:0x00000000
       60495000	      6048	800032bc	00000013	addi	x0,x0,0	  x0:0x00000000
       60505000	      6049	800032c0	004a9e93	slli	x29,x21,0x4	 x21:0x800033e2 x29=0x00033e20
       60515000	      6050	800032c4	003d1e63	bne	x26,x3,800032e0	 x26:0xc000180e  x3:0x00002014
       60525000	      6051	00000000	00000013	addi	x0,x0,0	  x0:0x00000000
       60535000	      6052	800032dc	00000013	addi	x0,x0,0	  x0:0x00000000
       60545000	      6053	800032e0	2c072913	slti	x18,x14,704	 x14:0x800028ef x18=0x00000001
       60555000	      6054	800032e4	40725c93	srai	x25,x4,0x7	  x4:0x8000301c x25=0xff000060
       60565000	      6055	800032e8	40795313	srai	x6,x18,0x7	 x18:0x00000001  x6=0x00000000
       60575000	      6056	800032ec	405855b3	sra	x11,x16,x5	 x16:0x00000000  x5:0x80003ff4 x11=0x00000000
       60585000	      6057	800032f0	40d003b3	sub	x7,x0,x13	  x0:0x00000000 x13:0x00006074  x7=0xffff9f8c
       60595000	      6058	800032f4	ea26f593	andi	x11,x13,-350	 x13:0x00006074 x11=0x00006020
       60605000	      6059	800032f8	01d2da63	bge	x5,x29,8000330c	  x5:0x80003ff4 x29:0x00033e20
       60615000	      6060	800032fc	4522a913	slti	x18,x5,1106	  x5:0x80003ff4 x18=0x00000001
       60625000	      6061	80003300	01bf8263	beq	x31,x27,80003304	 x31:0x00000000 x27:0xffffff00
       60635000	      6062	80003304	018887b3	add	x15,x17,x24	 x17:0x80002e64 x24:0x80002fee x15=0x00005e52
       60645000	      6063	80003308	03644863	blt	x8,x22,80003338	  x8:0x80009fc4 x22:0x77c09210
       60655000	      6064	00000000	00000013	addi	x0,x0,0	  x0:0x00000000
       60665000	      6065	80003334	00000013	addi	x0,x0,0	  x0:0x00000000
       60675000	      6066	80003338	41d95a13	srai	x20,x18,0x1d	 x18:0x00000001 x20=0x00000000
       60685000	      6067	8000333c	00ba6a33	or	x20,x20,x11	 x20:0x00000000 x11:0x00006020 x20=0x00006020
       60695000	      6068	80003340	017e5733	srl	x14,x28,x23	 x28:0x80009eec x23:0xffffff24 x14=0x080009ee
       60705000	      6069	80003344	41bb5f93	srai	x31,x22,0x1b	 x22:0x77c09210 x31=0x0000000e
       60715000	      6070	80003348	413d5b13	srai	x22,x26,0x13	 x26:0xc000180e x22=0xfffff800
       60725000	      6071	8000334c	04a64263	blt	x12,x10,80003390	 x12:0x80003034 x10:0x80003040
       60735000	      6072	00000000	00000013	addi	x0,x0,0	  x0:0x00000000
       60745000	      6073	8000338c	00000013	addi	x0,x0,0	  x0:0x00000000
       60755000	      6074	80003390	0299f863	bgeu	x19,x9,800033c0	 x19:0xfffffe42  x9:0x00000001
       60765000	      6075	00000000	00000013	addi	x0,x0,0	  x0:0x00000000
       60775000	      6076	800033bc	00000013	addi	x0,x0,0	  x0:0x00000000
       60785000	      6077	800033c0	0136db33	srl	x22,x13,x19	 x13:0x00006074 x19:0xfffffe42 x22=0x0000181d
       60795000	      6078	800033c4	18000197	auipc	x3,0x18000	  x3=0x980033c0
       60805000	      6079	800033c8	00a921b3	slt	x3,x18,x10	 x18:0x00000001 x10:0x80003040  x3=0x00000000
       60815000	      6080	800033cc	000fd2b3	srl	x5,x31,x0	 x31:0x0000000e  x0:0x00000000  x5=0x0000000e
       60825000	      6081	800033d0	01c5bdb3	sltu	x27,x11,x28	 x11:0x00006020 x28:0x80009eec x27=0x00000001
       60835000	      6082	800033d4	c7809c17	auipc	x24,0xc7809	 x24=0x4780c3d0
       60845000	      6083	800033d8	032a0463	beq	x20,x18,80003400	 x20:0x00006020 x18:0x00000001
       60855000	      6084	800033dc	00000013	addi	x0,x0,0	  x0:0x00000000
       60865000	      6085	800033e0	00919b93	slli	x23,x3,0x9	  x3:0x00000000 x23=0x00000000
       60875000	      6086	800033e4	0109c3b3	xor	x7,x19,x16	 x19:0xfffffe42 x16:0x00000000  x7=0xfffffe42
       60885000	      6087	800033e8	01b525b3	slt	x11,x10,x27	 x10:0x80003040 x27:0x00000001 x11=0x00000001
       60895000	      6088	800033ec	011d8033	add	x0,x27,x17	 x27:0x00000001 x17:0x80002e64
       60905000	      6089	800033f0	d163a993	slti	x19,x7,-746	  x7:0xfffffe42 x19=0x00000000
       60915000	      6090	800033f4	011f90b3	sll	x1,x31,x17	 x31:0x0000000e x17:0x80002e64  x1=0x000000e0
       60925000	      6091	800033f8	00078c63	beq	x15,x0,80003410	 x15:0x00005e52  x0:0x00000000
       60935000	      6092	800033fc	e0aab993	sltiu	x19,x21,-502	 x21:0x800033e2 x19=0x00000001
       60945000	      6093	80003400	01bb8d33	add	x26,x23,x27	 x23:0x00000000 x27:0x00000001 x26=0x00000001
       60955000	      6094	80003404	006bd513	srli	x10,x23,0x6	 x23:0x00000000 x10=0x00000000
       60965000	      6095	80003408	015dfa33	and	x20,x27,x21	 x27:0x00000001 x21:0x800033e2 x20=0x00000000
       60975000	      6096	8000340c	00000013	addi	x0,x0,0	  x0:0x00000000
       60985000	      6097	80003410	000bd233	srl	x4,x23,x0	 x23:0x00000000  x0:0x00000000  x4=0x00000000
       60995000	      6098	80003414	02b4d663	bge	x9,x11,80003440	  x9:0x00000001 x11:0x00000001
       61005000	      6099	00000000	00000013	addi	x0,x0,0	  x0:0x00000000
       61015000	      6100	8000343c	00000013	addi	x0,x0,0	  x0:0x00000000
       61025000	      6101	80003440	0495f463	bgeu	x11,x9,80003488	 x11:0x00000001  x9:0x00000001
       61035000	      6102	00000000	00000013	addi	x0,x0,0	  x0:0x00000000
       61045000	      6103	80003484	00000013	addi	x0,x0,0	  x0:0x00000000
       61055000	      6104	80003488	41e504b3	sub	x9,x10,x30	 x10:0x00000000 x30:0x80002d88  x9=0x7fffd278
       61065000	      6105	8000348c	0217d1b7	lui	x3,0x217d	  x3=0x0217d000
       61075000	      6106	80003490	010772b3	and	x5,x14,x16	 x14:0x080009ee x16:0x00000000  x5=0x00000000
       61085000	      6107	80003494	00578c33	add	x24,x15,x5	 x15:0x00005e52  x5:0x00000000 x24=0x00005e52
       61095000	      6108	80003498	01cb6463	bltu	x22,x28,800034a0	 x22:0x0000181d x28:0x80009eec
       61105000	      6109	00000000	00000013	addi	x0,x0,0	  x0:0x00000000
       61115000	      6110	8000349c	00000013	addi	x0,x0,0	  x0:0x00000000
       61125000	      6111	800034a0	026d7863	bgeu	x26,x6,800034d0	 x26:0x00000001  x6:0x00000000
       61135000	      6112	00000000	00000013	addi	x0,x0,0	  x0:0x00000000
       61145000	      6113	800034cc	00000013	addi	x0,x0,0	  x0:0x00000000
       61155000	      6114	800034d0	7130ef13	ori	x30,x1,1811	  x1:0x000000e0 x30=0x000007f3
       61165000	      6115	800034d4	03710463	beq	x2,x23,800034fc	  x2:0x14520000 x23:0x00000000
       61175000	      6116	800034d8	98c20213	addi	x4,x4,-1652	  x4:0x00000000  x4=0xfffff98c
       61185000	      6117	800034dc	002d35b3	sltu	x11,x26,x2	 x26:0x00000001  x2:0x14520000 x11=0x00000001
       61195000	      6118	800034e0	0074e263	bltu	x9,x7,800034e4	  x9:0x7fffd278  x7:0xfffffe42
       61205000	      6119	00000000	00000013	addi	x0,x0,0	  x0:0x00000000
       61215000	      6120	800034e0	00000013	addi	x0,x0,0	  x0:0x00000000
       61225000	      6121	800034e4	5ef18e93	addi	x29,x3,1519	  x3:0x0217d000 x29=0x0217d5ef
       61235000	      6122	800034e8	1be43613	sltiu	x12,x8,446	  x8:0x80009fc4 x12=0x00000000
       61245000	      6123	800034ec	ed5f0e93	addi	x29,x30,-299	 x30:0x000007f3 x29=0x000006c8
       61255000	      6124	800034f0	00585c13	srli	x24,x16,0x5	 x16:0x00000000 x24=0x00000000
       61265000	      6125	800034f4	00abdc63	bge	x23,x10,8000350c	 x23:0x00000000 x10:0x00000000
       61275000	      6126	00000000	00000013	addi	x0,x0,0	  x0:0x00000000
       61285000	      6127	80003508	00000013	addi	x0,x0,0	  x0:0x00000000
       61295000	      6128	8000350c	01c18033	add	x0,x3,x28	  x3:0x0217d000 x28:0x80009eec
       61305000	      6129	80003510	01b09a33	sll	x20,x1,x27	  x1:0x000000e0 x27:0x00000001 x20=0x000001c0
       61315000	      6130	80003514	408b0ab3	sub	x21,x22,x8	 x22:0x0000181d  x8:0x80009fc4 x21=0x7fff7859
       61325000	      6131	80003518	208b6f93	ori	x31,x22,520	 x22:0x0000181d x31=0x00001a1d
       61335000	      6132	8000351c	00145fb3	srl	x31,x8,x1	  x8:0x80009fc4  x1:0x000000e0 x31=0x80009fc4
       61345000	      6133	80003520	01595993	srli	x19,x18,0x15	 x18:0x00000001 x19=0x00000000
       61355000	      6134	80003524	00000013	addi	x0,x0,0	  x0:0x00000000
       61365000	      6135	80003528	01be9f33	sll	x30,x29,x27	 x29:0x000006c8 x27:0x00000001 x30=0x00000d90
       61375000	      6136	8000352c	01eb0263	beq	x22,x30,80003530	 x22:0x0000181d x30:0x00000d90
       61385000	      6137	80003530	59773993	sltiu	x19,x14,1431	 x14:0x080009ee x19=0x00000000
       61395000	      6138	80003534	41cc8bb3	sub	x23,x25,x28	 x25:0xff000060 x28:0x80009eec x23=0x7eff6174
       61405000	      6139	80003538	0018c0b3	xor	x1,x17,x1	 x17:0x80002e64  x1:0x000000e0  x1=0x80002e84
       61415000	      6140	8000353c	01710033	add	x0,x2,x23	  x2:0x14520000 x23:0x7eff6174
       61425000	      6141	80003540	008f75b3	and	x11,x30,x8	 x30:0x00000d90  x8:0x80009fc4 x11=0x00000d80
       61435000	      6142	80003544	00a2d213	srli	x4,x5,0xa	  x5:0x00000000  x4=0x00000000
       61445000	      6143	80003548	f77d0e93	addi	x29,x26,-137	 x26:0x00000001 x29=0xffffff78
       61455000	      6144	8000354c	009eb3b3	sltu	x7,x29,x9	 x29:0xffffff78  x9:0x7fffd278  x7=0x00000000
       61465000	      6145	80003550	0140bbb3	sltu	x23,x1,x20	  x1:0x80002e84 x20:0x000001c0 x23=0x00000000
       61475000	      6146	80003554	ea10bd93	sltiu	x27,x1,-351	  x1:0x80002e84 x27=0x00000001
       61485000	      6147	80003558	784f9d17	auipc	x26,0x784f9	 x26=0xf84fc554
       61495000	      6148	8000355c	41c65db3	sra	x27,x12,x28	 x12:0x00000000 x28:0x80009eec x27=0x00000000
       61505000	      6149	80003560	05f4e863	bltu	x9,x31,800035b0	  x9:0x7fffd278 x31:0x80009fc4
       61515000	      6150	00000000	00000013	addi	x0,x0,0	  x0:0x00000000
       61525000	      6151	800035ac	00000013	addi	x0,x0,0	  x0:0x00000000
       61535000	      6152	800035b0	43803097	auipc	x1,0x43803	  x1=0xc38065ac
       61545000	      6153	800035b4	bc5f4493	xori	x9,x30,-1083	 x30:0x00000d90  x9=0xfffff655
       61555000	      6154	800035b8	00dfc663	blt	x31,x13,800035c4	 x31:0x80009fc4 x13:0x00006074
       61565000	      6155	00000000	00000013	addi	x0,x0,0	  x0:0x00000000
       61575000	      6156	800035c0	00000013	addi	x0,x0,0	  x0:0x00000000
       61585000	      6157	800035c4	0169d633	srl	x12,x19,x22	 x19:0x00000000 x22:0x0000181d x12=0x00000000
       61595000	      6158	800035c8	b4c6ec13	ori	x24,x13,-1204	 x13:0x00006074 x24=0xfffffb7c
       61605000	      6159	800035cc	01d6f033	and	x0,x13,x29	 x13:0x00006074 x29:0xffffff78
       61615000	      6160	800035d0	007e1d33	sll	x26,x28,x7	 x28:0x80009eec  x7:0x00000000 x26=0x80009eec
       61625000	      6161	800035d4	003e9913	slli	x18,x29,0x3	 x29:0xffffff78 x18=0xfffffbc0
       61635000	      6162	800035d8	01eb88b3	add	x17,x23,x30	 x23:0x00000000 x30:0x00000d90 x17=0x00000d90
       61645000	      6163	800035dc	4027da33	sra	x20,x15,x2	 x15:0x00005e52  x2:0x14520000 x20=0x00005e52
       61655000	      6164	800035e0	40c7d533	sra	x10,x15,x12	 x15:0x00005e52 x12:0x00000000 x10=0x00005e52
       61665000	      6165	800035e4	01056863	bltu	x10,x16,800035f4	 x10:0x00005e52 x16:0x00000000
       61675000	      6166	800035e8	024ac463	blt	x21,x4,80003610	 x21:0x7fff7859  x4:0x00000000
       61685000	      6167	800035ec	c34c2693	slti	x13,x24,-972	 x24:0xfffffb7c x13=0x00000001
       61695000	      6168	800035f0	014875b3	and	x11,x16,x20	 x16:0x00000000 x20:0x00005e52 x11=0x00000000
       61705000	      6169	800035f4	00869bb3	sll	x23,x13,x8	 x13:0x00000001  x8:0x80009fc4 x23=0x00000010
       61715000	      6170	800035f8	00d5fb33	and	x22,x11,x13	 x11:0x00000000 x13:0x00000001 x22=0x00000000
       61725000	      6171	800035fc	00000013	addi	x0,x0,0	  x0:0x00000000
       61735000	      6172	80003600	0258f663	bgeu	x17,x5,8000362c	 x17:0x00000d90  x5:0x00000000
       61745000	      6173	00000000	00000013	addi	x0,x0,0	  x0:0x00000000
       61755000	      6174	80003628	00000013	addi	x0,x0,0	  x0:0x00000000
       61765000	      6175	8000362c	0057d2b3	srl	x5,x15,x5	 x15:0x00005e52  x5:0x00000000  x5=0x00005e52
       61775000	      6176	80003630	00000013	addi	x0,x0,0	  x0:0x00000000
       61785000	      6177	80003634	003f14b3	sll	x9,x30,x3	 x30:0x00000d90  x3:0x0217d000  x9=0x00000d90
       61795000	      6178	80003638	00a79a33	sll	x20,x15,x10	 x15:0x00005e52 x10:0x00005e52 x20=0x79480000
       61805000	      6179	8000363c	01b8acb3	slt	x25,x17,x27	 x17:0x00000d90 x27:0x00000000 x25=0x00000000
       61815000	      6180	80003640	059fc663	blt	x31,x25,8000368c	 x31:0x80009fc4 x25:0x00000000
       61825000	      6181	00000000	00000013	addi	x0,x0,0	  x0:0x00000000
       61835000	      6182	80003688	00000013	addi	x0,x0,0	  x0:0x00000000
       61845000	      6183	8000368c	011866b3	or	x13,x16,x17	 x16:0x00000000 x17:0x00000d90 x13=0x00000d90
       61855000	      6184	80003690	4075d593	srai	x11,x11,0x7	 x11:0x00000000 x11=0x00000000
       61865000	      6185	80003694	01b6d213	srli	x4,x13,0x1b	 x13:0x00000d90  x4=0x00000000
       61875000	      6186	80003698	00b45cb3	srl	x25,x8,x11	  x8:0x80009fc4 x11:0x00000000 x25=0x80009fc4
       61885000	      6187	8000369c	70410537	lui	x10,0x70410	 x10=0x70410000
       61895000	      6188	800036a0	432f4513	xori	x10,x30,1074	 x30:0x00000d90 x10=0x000009a2
       61905000	      6189	800036a4	3dd06213	ori	x4,x0,989	  x0:0x00000000  x4=0x000003dd
       61915000	      6190	800036a8	69858c93	addi	x25,x11,1688	 x11:0x00000000 x25=0x00000698
       61925000	      6191	800036ac	003f58b3	srl	x17,x30,x3	 x30:0x00000d90  x3:0x0217d000 x17=0x00000d90
       61935000	      6192	800036b0	00000013	addi	x0,x0,0	  x0:0x00000000
       61945000	      6193	800036b4	01189e93	slli	x29,x17,0x11	 x17:0x00000d90 x29=0x1b200000
       61955000	      6194	800036b8	01011493	slli	x9,x2,0x10	  x2:0x14520000  x9=0x00000000
       61965000	      6195	800036bc	00b6ce63	blt	x13,x11,800036d8	 x13:0x00000d90 x11:0x00000000
       61975000	      6196	800036c0	bd044b13	xori	x22,x8,-1072	  x8:0x80009fc4 x22=0x7fff6414
       61985000	      6197	800036c4	0004e863	bltu	x9,x0,800036d4	  x9:0x00000000  x0:0x00000000
       61995000	      6198	800036c8	0384c463	blt	x9,x24,800036f0	  x9:0x00000000 x24:0xfffffb7c
       62005000	      6199	800036cc	045fe263	bltu	x31,x5,80003710	 x31:0x80009fc4  x5:0x00005e52
       62015000	      6200	800036d0	fa4cfc13	andi	x24,x25,-92	 x25:0x00000698 x24=0x00000680
       62025000	      6201	800036d4	44b08293	addi	x5,x1,1099	  x1:0xc38065ac  x5=0xc38069f7
       62035000	      6202	800036d8	eeaa5037	lui	x0,0xeeaa5	
       62045000	      6203	800036dc	01d1ccb3	xor	x25,x3,x29	  x3:0x0217d000 x29:0x1b200000 x25=0x1937d000
       62055000	      6204	800036e0	001ed933	srl	x18,x29,x1	 x29:0x1b200000  x1:0xc38065ac x18=0x0001b200
       62065000	      6205	800036e4	40360bb3	sub	x23,x12,x3	 x12:0x00000000  x3:0x0217d000 x23=0xfde83000
       62075000	      6206	800036e8	01555f93	srli	x31,x10,0x15	 x10:0x000009a2 x31=0x00000000
       62085000	      6207	800036ec	05cae663	bltu	x21,x28,80003738	 x21:0x7fff7859 x28:0x80009eec
       62095000	      6208	00000000	00000013	addi	x0,x0,0	  x0:0x00000000
       62105000	      6209	80003734	00000013	addi	x0,x0,0	  x0:0x00000000
       62115000	      6210	80003738	be587713	andi	x14,x16,-1051	 x16:0x00000000 x14=0x00000000
       62125000	      6211	8000373c	00253db3	sltu	x27,x10,x2	 x10:0x000009a2  x2:0x14520000 x27=0x00000001
       62135000	      6212	80003740	0b39ad13	slti	x26,x19,179	 x19:0x00000000 x26=0x00000001
       62145000	      6213	80003744	0140d913	srli	x18,x1,0x14	  x1:0xc38065ac x18=0x00000c38
       62155000	      6214	80003748	f0b10613	addi	x12,x2,-245	  x2:0x14520000 x12=0x1451ff0b
       62165000	      6215	8000374c	419f5933	sra	x18,x30,x25	 x30:0x00000d90 x25:0x1937d000 x18=0x00000d90
       62175000	      6216	80003750	affd0c93	addi	x25,x26,-1281	 x26:0x00000001 x25=0xfffffb00
       62185000	      6217	80003754	01800c6f	jal	x24,80003754	 x24=0x80003754
       62195000	      6218	00000000	00000013	addi	x0,x0,0	  x0:0x00000000
       62205000	      6219	80003768	00000013	addi	x0,x0,0	  x0:0x00000000
       62215000	      6220	8000376c	02c0036f	jal	x6,8000376c	  x6=0x8000376c
       62225000	      6221	00000000	00000013	addi	x0,x0,0	  x0:0x00000000
       62235000	      6222	80003794	00000013	addi	x0,x0,0	  x0:0x00000000
       62245000	      6223	80003798	ff9ff0ef	jal	x1,80003798	  x1=0x80003798
       62255000	      6224	00000000	00000013	addi	x0,x0,0	  x0:0x00000000
       62265000	      6225	8000378c	00000013	addi	x0,x0,0	  x0:0x00000000
       62275000	      6226	80003790	fc9ff0ef	jal	x1,80003790	  x1=0x80003790
       62285000	      6227	00000000	00000013	addi	x0,x0,0	  x0:0x00000000
       62295000	      6228	80003754	00000013	addi	x0,x0,0	  x0:0x00000000
       62305000	      6229	80003758	034000ef	jal	x1,80003758	  x1=0x80003758
       62315000	      6230	00000000	00000013	addi	x0,x0,0	  x0:0x00000000
       62325000	      6231	80003788	00000013	addi	x0,x0,0	  x0:0x00000000
       62335000	      6232	8000378c	0200026f	jal	x4,8000378c	  x4=0x8000378c
       62345000	      6233	00000000	00000013	addi	x0,x0,0	  x0:0x00000000
       62355000	      6234	800037a8	00000013	addi	x0,x0,0	  x0:0x00000000
       62365000	      6235	800037ac	fb1ff36f	jal	x6,800037ac	  x6=0x800037ac
       62375000	      6236	00000000	00000013	addi	x0,x0,0	  x0:0x00000000
       62385000	      6237	80003758	00000013	addi	x0,x0,0	  x0:0x00000000
       62395000	      6238	8000375c	0080036f	jal	x6,8000375c	  x6=0x8000375c
       62405000	      6239	00000000	00000013	addi	x0,x0,0	  x0:0x00000000
       62415000	      6240	80003760	00000013	addi	x0,x0,0	  x0:0x00000000
       62425000	      6241	80003764	ffdff2ef	jal	x5,80003764	  x5=0x80003764
       62435000	      6242	00000000	00000013	addi	x0,x0,0	  x0:0x00000000
       62445000	      6243	8000375c	00000013	addi	x0,x0,0	  x0:0x00000000
       62455000	      6244	80003760	01c001ef	jal	x3,80003760	  x3=0x80003760
       62465000	      6245	00000000	00000013	addi	x0,x0,0	  x0:0x00000000
       62475000	      6246	80003778	00000013	addi	x0,x0,0	  x0:0x00000000
       62485000	      6247	8000377c	fedff0ef	jal	x1,8000377c	  x1=0x8000377c
       62495000	      6248	00000000	00000013	addi	x0,x0,0	  x0:0x00000000
       62505000	      6249	80003764	00000013	addi	x0,x0,0	  x0:0x00000000
       62515000	      6250	80003768	010000ef	jal	x1,80003768	  x1=0x80003768
       62525000	      6251	00000000	00000013	addi	x0,x0,0	  x0:0x00000000
       62535000	      6252	80003774	00000013	addi	x0,x0,0	  x0:0x00000000
       62545000	      6253	80003778	008000ef	jal	x1,80003778	  x1=0x80003778
       62555000	      6254	00000000	00000013	addi	x0,x0,0	  x0:0x00000000
       62565000	      6255	8000377c	00000013	addi	x0,x0,0	  x0:0x00000000
       62575000	      6256	80003780	00400c6f	jal	x24,80003780	 x24=0x80003780
       62585000	      6257	00000000	00000013	addi	x0,x0,0	  x0:0x00000000
       62595000	      6258	80003780	00000013	addi	x0,x0,0	  x0:0x00000000
       62605000	      6259	80003784	ff1ff0ef	jal	x1,80003784	  x1=0x80003784
       62615000	      6260	00000000	00000013	addi	x0,x0,0	  x0:0x00000000
       62625000	      6261	80003770	00000013	addi	x0,x0,0	  x0:0x00000000
       62635000	      6262	80003774	02c000ef	jal	x1,80003774	  x1=0x80003774
       62645000	      6263	00000000	00000013	addi	x0,x0,0	  x0:0x00000000
       62655000	      6264	8000379c	00000013	addi	x0,x0,0	  x0:0x00000000
       62665000	      6265	800037a0	ffdffc6f	jal	x24,800037a0	 x24=0x800037a0
       62675000	      6266	00000000	00000013	addi	x0,x0,0	  x0:0x00000000
       62685000	      6267	80003798	00000013	addi	x0,x0,0	  x0:0x00000000
       62695000	      6268	8000379c	00c000ef	jal	x1,8000379c	  x1=0x8000379c
       62705000	      6269	00000000	00000013	addi	x0,x0,0	  x0:0x00000000
       62715000	      6270	800037a4	00000013	addi	x0,x0,0	  x0:0x00000000
       62725000	      6271	800037a8	fc9ff0ef	jal	x1,800037a8	  x1=0x800037a8
       62735000	      6272	00000000	00000013	addi	x0,x0,0	  x0:0x00000000
       62745000	      6273	8000376c	00000013	addi	x0,x0,0	  x0:0x00000000
       62755000	      6274	80003770	024000ef	jal	x1,80003770	  x1=0x80003770
       62765000	      6275	00000000	00000013	addi	x0,x0,0	  x0:0x00000000
       62775000	      6276	80003790	00000013	addi	x0,x0,0	  x0:0x00000000
       62785000	      6277	80003794	0100036f	jal	x6,80003794	  x6=0x80003794
       62795000	      6278	00000000	00000013	addi	x0,x0,0	  x0:0x00000000
       62805000	      6279	800037a0	00000013	addi	x0,x0,0	  x0:0x00000000
       62815000	      6280	800037a4	fe5ff36f	jal	x6,800037a4	  x6=0x800037a4
       62825000	      6281	00000000	00000013	addi	x0,x0,0	  x0:0x00000000
       62835000	      6282	80003784	00000013	addi	x0,x0,0	  x0:0x00000000
       62845000	      6283	80003788	0280016f	jal	x2,80003788	  x2=0x80003788
       62855000	      6284	00000000	00000013	addi	x0,x0,0	  x0:0x00000000
       62865000	      6285	800037ac	00000013	addi	x0,x0,0	  x0:0x00000000
       62875000	      6286	800037b0	00000013	addi	x0,x0,0	  x0:0x00000000
       62885000	      6287	800037b4	52c94213	xori	x4,x18,1324	 x18:0x00000d90  x4=0x000008bc
       62895000	      6288	800037b8	0160f663	bgeu	x1,x22,800037c4	  x1:0x80003770 x22:0x7fff6414
       62905000	      6289	00000000	00000013	addi	x0,x0,0	  x0:0x00000000
       62915000	      6290	800037c0	00000013	addi	x0,x0,0	  x0:0x00000000
       62925000	      6291	800037c4	019d0663	beq	x26,x25,800037d0	 x26:0x00000001 x25:0xfffffb00
       62935000	      6292	800037c8	01661213	slli	x4,x12,0x16	 x12:0x1451ff0b  x4=0xc2c00000
       62945000	      6293	800037cc	03298a63	beq	x19,x18,80003800	 x19:0x00000000 x18:0x00000d90
       62955000	      6294	800037d0	03cbf863	bgeu	x23,x28,80003800	 x23:0xfde83000 x28:0x80009eec
       62965000	      6295	00000000	00000013	addi	x0,x0,0	  x0:0x00000000
       62975000	      6296	800037fc	00000013	addi	x0,x0,0	  x0:0x00000000
       62985000	      6297	80003800	00ec1c63	bne	x24,x14,80003818	 x24:0x800037a0 x14:0x00000000
       62995000	      6298	00000000	00000013	addi	x0,x0,0	  x0:0x00000000
       63005000	      6299	80003814	00000013	addi	x0,x0,0	  x0:0x00000000
       63015000	      6300	80003818	00d47db3	and	x27,x8,x13	  x8:0x80009fc4 x13:0x00000d90 x27=0x00000d80
       63025000	      6301	8000381c	ffa62a93	slti	x21,x12,-6	 x12:0x1451ff0b x21=0x00000000
       63035000	      6302	80003820	f7e10b17	auipc	x22,0xf7e10	 x22=0x77e1381c
       63045000	      6303	80003824	00e59f93	slli	x31,x11,0xe	 x11:0x00000000 x31=0x00000000
       63055000	      6304	80003828	014c3c33	sltu	x24,x24,x20	 x24:0x800037a0 x20:0x79480000 x24=0x00000000
       63065000	      6305	8000382c	00784ab3	xor	x21,x16,x7	 x16:0x00000000  x7:0x00000000 x21=0x00000000
       63075000	      6306	80003830	d0776193	ori	x3,x14,-761	 x14:0x00000000  x3=0xfffffd07
       63085000	      6307	80003834	7fdeaa17	auipc	x20,0x7fdea	 x20=0xffded830
       63095000	      6308	80003838	01b664b3	or	x9,x12,x27	 x12:0x1451ff0b x27:0x00000d80  x9=0x1451ff8b
       63105000	      6309	8000383c	08d87c13	andi	x24,x16,141	 x16:0x00000000 x24=0x00000000
       63115000	      6310	80003840	018fd333	srl	x6,x31,x24	 x31:0x00000000 x24:0x00000000  x6=0x00000000
       63125000	      6311	80003844	408e5bb3	sra	x23,x28,x8	 x28:0x80009eec  x8:0x80009fc4 x23=0xf80009ee
       63135000	      6312	80003848	00000013	addi	x0,x0,0	  x0:0x00000000
       63145000	      6313	8000384c	408050b3	sra	x1,x0,x8	  x0:0x00000000  x8:0x80009fc4  x1=0x00000000
       63155000	      6314	80003850	0260cc63	blt	x1,x6,80003888	  x1:0x00000000  x6:0x00000000
       63165000	      6315	80003854	20d77a13	andi	x20,x14,525	 x14:0x00000000 x20=0x00000000
       63175000	      6316	80003858	04a34663	blt	x6,x10,800038a4	  x6:0x00000000 x10:0x000009a2
       63185000	      6317	00000000	00000013	addi	x0,x0,0	  x0:0x00000000
       63195000	      6318	800038a0	00000013	addi	x0,x0,0	  x0:0x00000000
       63205000	      6319	800038a4	013ed393	srli	x7,x29,0x13	 x29:0x1b200000  x7=0x00000364
       63215000	      6320	800038a8	8c3d6b93	ori	x23,x26,-1853	 x26:0x00000001 x23=0xfffff8c3
       63225000	      6321	800038ac	00000013	addi	x0,x0,0	  x0:0x00000000
       63235000	      6322	800038b0	05cc9063	bne	x25,x28,800038f0	 x25:0xfffffb00 x28:0x80009eec
       63245000	      6323	00000000	00000013	addi	x0,x0,0	  x0:0x00000000
       63255000	      6324	800038ec	00000013	addi	x0,x0,0	  x0:0x00000000
       63265000	      6325	800038f0	00000013	addi	x0,x0,0	  x0:0x00000000
       63275000	      6326	800038f4	419850b3	sra	x1,x16,x25	 x16:0x00000000 x25:0xfffffb00  x1=0x00000000
       63285000	      6327	800038f8	00ad57b3	srl	x15,x26,x10	 x26:0x00000001 x10:0x000009a2 x15=0x00000000
       63295000	      6328	800038fc	0016a133	slt	x2,x13,x1	 x13:0x00000d90  x1:0x00000000  x2=0x00000000
       63305000	      6329	80003900	4de16d93	ori	x27,x2,1246	  x2:0x00000000 x27=0x000004de
       63315000	      6330	80003904	d3ffbbb7	lui	x23,0xd3ffb	 x23=0xd3ffb000
       63325000	      6331	80003908	0ea3f013	andi	x0,x7,234	  x7:0x00000364
       63335000	      6332	8000390c	038ee663	bltu	x29,x24,80003938	 x29:0x1b200000 x24:0x00000000
       63345000	      6333	80003910	12916f97	auipc	x31,0x12916	 x31=0x9291990c
       63355000	      6334	80003914	016ed2b3	srl	x5,x29,x22	 x29:0x1b200000 x22:0x77e1381c  x5=0x00000001
       63365000	      6335	80003918	00175bb3	srl	x23,x14,x1	 x14:0x00000000  x1:0x00000000 x23=0x00000000
       63375000	      6336	8000391c	72870213	addi	x4,x14,1832	 x14:0x00000000  x4=0x00000728
       63385000	      6337	80003920	41e1bd13	sltiu	x26,x3,1054	  x3:0xfffffd07 x26=0x00000000
       63395000	      6338	80003924	9ea5f293	andi	x5,x11,-1558	 x11:0x00000000  x5=0x00000000
       63405000	      6339	80003928	40bbdb33	sra	x22,x23,x11	 x23:0x00000000 x11:0x00000000 x22=0x00000000
       63415000	      6340	8000392c	00ff95b3	sll	x11,x31,x15	 x31:0x9291990c x15:0x00000000 x11=0x9291990c
       63425000	      6341	80003930	01f10463	beq	x2,x31,80003938	  x2:0x00000000 x31:0x9291990c
       63435000	      6342	80003934	0133f6b3	and	x13,x7,x19	  x7:0x00000364 x19:0x00000000 x13=0x00000000
       63445000	      6343	80003938	0073dab3	srl	x21,x7,x7	  x7:0x00000364  x7:0x00000364 x21=0x00000036
       63455000	      6344	8000393c	02d87863	bgeu	x16,x13,8000396c	 x16:0x00000000 x13:0x00000000
       63465000	      6345	00000000	00000013	addi	x0,x0,0	  x0:0x00000000
       63475000	      6346	80003968	00000013	addi	x0,x0,0	  x0:0x00000000
       63485000	      6347	8000396c	00000013	addi	x0,x0,0	  x0:0x00000000
       63495000	      6348	80003970	0314e463	bltu	x9,x17,80003998	  x9:0x1451ff8b x17:0x00000d90
       63505000	      6349	80003974	01194463	blt	x18,x17,8000397c	 x18:0x00000d90 x17:0x00000d90
       63515000	      6350	80003978	05af1063	bne	x30,x26,800039b8	 x30:0x00000d90 x26:0x00000000
       63525000	      6351	00000000	00000013	addi	x0,x0,0	  x0:0x00000000
       63535000	      6352	800039b4	00000013	addi	x0,x0,0	  x0:0x00000000
       63545000	      6353	800039b8	04a5d063	bge	x11,x10,800039f8	 x11:0x9291990c x10:0x000009a2
       63555000	      6354	800039bc	052fe463	bltu	x31,x18,80003a04	 x31:0x9291990c x18:0x00000d90
       63565000	      6355	800039c0	7ab58713	addi	x14,x11,1963	 x11:0x9291990c x14=0x9291a0b7
       63575000	      6356	800039c4	0122f633	and	x12,x5,x18	  x5:0x00000000 x18:0x00000d90 x12=0x00000000
       63585000	      6357	800039c8	00921cb3	sll	x25,x4,x9	  x4:0x00000728  x9:0x1451ff8b x25=0x00394000
       63595000	      6358	800039cc	04f20663	beq	x4,x15,80003a18	  x4:0x00000728 x15:0x00000000
       63605000	      6359	800039d0	45bdf913	andi	x18,x27,1115	 x27:0x000004de x18=0x0000045a
       63615000	      6360	800039d4	4969f3b7	lui	x7,0x4969f	  x7=0x4969f000
       63625000	      6361	800039d8	0219e663	bltu	x19,x1,80003a04	 x19:0x00000000  x1:0x00000000
       63635000	      6362	800039dc	c6d43f93	sltiu	x31,x8,-915	  x8:0x80009fc4 x31=0x00000001
       63645000	      6363	800039e0	71f725b7	lui	x11,0x71f72	 x11=0x71f72000
       63655000	      6364	800039e4	00d2a8b3	slt	x17,x5,x13	  x5:0x00000000 x13:0x00000000 x17=0x00000000
       63665000	      6365	800039e8	01362333	slt	x6,x12,x19	 x12:0x00000000 x19:0x00000000  x6=0x00000000
       63675000	      6366	800039ec	018d0863	beq	x26,x24,800039fc	 x26:0x00000000 x24:0x00000000
       63685000	      6367	00000000	00000013	addi	x0,x0,0	  x0:0x00000000
       63695000	      6368	800039f8	00000013	addi	x0,x0,0	  x0:0x00000000
       63705000	      6369	800039fc	01be5213	srli	x4,x28,0x1b	 x28:0x80009eec  x4=0x00000010
       63715000	      6370	80003a00	012e7233	and	x4,x28,x18	 x28:0x80009eec x18:0x0000045a  x4=0x00000448
       63725000	      6371	80003a04	01550fb3	add	x31,x10,x21	 x10:0x000009a2 x21:0x00000036 x31=0x000009d8
       63735000	      6372	80003a08	022b5863	bge	x22,x2,80003a38	 x22:0x00000000  x2:0x00000000
       63745000	      6373	00000000	00000013	addi	x0,x0,0	  x0:0x00000000
       63755000	      6374	80003a34	00000013	addi	x0,x0,0	  x0:0x00000000
       63765000	      6375	80003a38	04ef8263	beq	x31,x14,80003a7c	 x31:0x000009d8 x14:0x9291a0b7
       63775000	      6376	80003a3c	d20a9c17	auipc	x24,0xd20a9	 x24=0x520aca38
       63785000	      6377	80003a40	0102f933	and	x18,x5,x16	  x5:0x00000000 x16:0x00000000 x18=0x00000000
       63795000	      6378	80003a44	00226263	bltu	x4,x2,80003a48	  x4:0x00000448  x2:0x00000000
       63805000	      6379	80003a48	9fc0bd13	sltiu	x26,x1,-1540	  x1:0x00000000 x26=0x00000001
       63815000	      6380	80003a4c	9c7d7a93	andi	x21,x26,-1593	 x26:0x00000001 x21=0x00000001
       63825000	      6381	80003a50	016cdc93	srli	x25,x25,0x16	 x25:0x00394000 x25=0x00000000
       63835000	      6382	80003a54	417d8db3	sub	x27,x27,x23	 x27:0x000004de x23:0x00000000 x27=0x000004de
       63845000	      6383	80003a58	003c8c63	beq	x25,x3,80003a70	 x25:0x00000000  x3:0xfffffd07
       63855000	      6384	80003a5c	e07e0b93	addi	x23,x28,-505	 x28:0x80009eec x23=0x80009cf3
       63865000	      6385	80003a60	1646fa13	andi	x20,x13,356	 x13:0x00000000 x20=0x00000000
       63875000	      6386	80003a64	e37c4d13	xori	x26,x24,-457	 x24:0x520aca38 x26=0xadf5340f
       63885000	      6387	80003a68	01125c33	srl	x24,x4,x17	  x4:0x00000448 x17:0x00000000 x24=0x00000448
       63895000	      6388	80003a6c	01b28f33	add	x30,x5,x27	  x5:0x00000000 x27:0x000004de x30=0x000004de
       63905000	      6389	80003a70	00dc7e63	bgeu	x24,x13,80003a8c	 x24:0x00000448 x13:0x00000000
       63915000	      6390	00000000	00000013	addi	x0,x0,0	  x0:0x00000000
       63925000	      6391	80003a88	00000013	addi	x0,x0,0	  x0:0x00000000
       63935000	      6392	80003a8c	04555663	bge	x10,x5,80003ad8	 x10:0x000009a2  x5:0x00000000
       63945000	      6393	00000000	00000013	addi	x0,x0,0	  x0:0x00000000
       63955000	      6394	80003ad4	00000013	addi	x0,x0,0	  x0:0x00000000
       63965000	      6395	80003ad8	01d85fb3	srl	x31,x16,x29	 x16:0x00000000 x29:0x1b200000 x31=0x00000000
       63975000	      6396	80003adc	c5573397	auipc	x7,0xc5573	  x7=0x45576ad8
       63985000	      6397	80003ae0	016d5333	srl	x6,x26,x22	 x26:0xadf5340f x22:0x00000000  x6=0xadf5340f
       63995000	      6398	80003ae4	0196ba33	sltu	x20,x13,x25	 x13:0x00000000 x25:0x00000000 x20=0x00000000
       64005000	      6399	80003ae8	005e1a33	sll	x20,x28,x5	 x28:0x80009eec  x5:0x00000000 x20=0x80009eec
       64015000	      6400	80003aec	01167633	and	x12,x12,x17	 x12:0x00000000 x17:0x00000000 x12=0x00000000
       64025000	      6401	80003af0	4018d593	srai	x11,x17,0x1	 x17:0x00000000 x11=0x00000000
       64035000	      6402	80003af4	00ab37b3	sltu	x15,x22,x10	 x22:0x00000000 x10:0x000009a2 x15=0x00000001
       64045000	      6403	80003af8	000cdc33	srl	x24,x25,x0	 x25:0x00000000  x0:0x00000000 x24=0x00000000
       64055000	      6404	80003afc	a6c94293	xori	x5,x18,-1428	 x18:0x00000000  x5=0xfffffa6c
       64065000	      6405	80003b00	01a220b3	slt	x1,x4,x26	  x4:0x00000448 x26:0xadf5340f  x1=0x00000000
       64075000	      6406	80003b04	017faa33	slt	x20,x31,x23	 x31:0x00000000 x23:0x80009cf3 x20=0x00000000
       64085000	      6407	80003b08	016ed663	bge	x29,x22,80003b14	 x29:0x1b200000 x22:0x00000000
       64095000	      6408	00000000	00000013	addi	x0,x0,0	  x0:0x00000000
       64105000	      6409	80003b10	00000013	addi	x0,x0,0	  x0:0x00000000
       64115000	      6410	80003b14	007a4733	xor	x14,x20,x7	 x20:0x00000000  x7:0x45576ad8 x14=0x45576ad8
       64125000	      6411	80003b18	c5606c13	ori	x24,x0,-938	  x0:0x00000000 x24=0xfffffc56
       64135000	      6412	80003b1c	403186b3	sub	x13,x3,x3	  x3:0xfffffd07  x3:0xfffffd07 x13=0x00000000
       64145000	      6413	80003b20	02d3cc63	blt	x7,x13,80003b58	  x7:0x45576ad8 x13:0x00000000
       64155000	      6414	80003b24	413b5693	srai	x13,x22,0x13	 x22:0x00000000 x13=0x00000000
       64165000	      6415	80003b28	0082e933	or	x18,x5,x8	  x5:0xfffffa6c  x8:0x80009fc4 x18=0xffffffec
       64175000	      6416	80003b2c	16942d13	slti	x26,x8,361	  x8:0x80009fc4 x26=0x00000001
       64185000	      6417	80003b30	00000013	addi	x0,x0,0	  x0:0x00000000
       64195000	      6418	80003b34	01241113	slli	x2,x8,0x12	  x8:0x80009fc4  x2=0x7f100000
       64205000	      6419	80003b38	0276d463	bge	x13,x7,80003b60	 x13:0x00000000  x7:0x45576ad8
       64215000	      6420	80003b3c	00dcc6b3	xor	x13,x25,x13	 x25:0x00000000 x13:0x00000000 x13=0x00000000
       64225000	      6421	80003b40	8c78ab93	slti	x23,x17,-1849	 x17:0x00000000 x23=0x00000000
       64235000	      6422	80003b44	01aac863	blt	x21,x26,80003b54	 x21:0x00000001 x26:0x00000001
       64245000	      6423	80003b48	4064d893	srai	x17,x9,0x6	  x9:0x1451ff8b x17=0x005147fe
       64255000	      6424	80003b4c	01bc6ab3	or	x21,x24,x27	 x24:0xfffffc56 x27:0x000004de x21=0xfffffcde
       64265000	      6425	80003b50	045d6263	bltu	x26,x5,80003b94	 x26:0x00000001  x5:0xfffffa6c
       64275000	      6426	00000000	00000013	addi	x0,x0,0	  x0:0x00000000
       64285000	      6427	80003b90	00000013	addi	x0,x0,0	  x0:0x00000000
       64295000	      6428	80003b94	4037d2b3	sra	x5,x15,x3	 x15:0x00000001  x3:0xfffffd07  x5=0x00000000
       64305000	      6429	80003b98	017401b3	add	x3,x8,x23	  x8:0x80009fc4 x23:0x00000000  x3=0x80009fc4
       64315000	      6430	80003b9c	00f83cb3	sltu	x25,x16,x15	 x16:0x00000000 x15:0x00000001 x25=0x00000001
       64325000	      6431	80003ba0	012896b3	sll	x13,x17,x18	 x17:0x005147fe x18:0xffffffec x13=0x147fe000
       64335000	      6432	80003ba4	012a9193	slli	x3,x21,0x12	 x21:0xfffffcde  x3=0xf3780000
       64345000	      6433	80003ba8	d9907a93	andi	x21,x0,-615	  x0:0x00000000 x21=0x00000000
       64355000	      6434	80003bac	019898b3	sll	x17,x17,x25	 x17:0x005147fe x25:0x00000001 x17=0x00a28ffc
       64365000	      6435	80003bb0	65ff6b17	auipc	x22,0x65ff6	 x22=0xe5ff9bac
       64375000	      6436	80003bb4	03509663	bne	x1,x21,80003be0	  x1:0x00000000 x21:0x00000000
       64385000	      6437	80003bb8	3c2d3f97	auipc	x31,0x3c2d3	 x31=0xbc2d6bb4
       64395000	      6438	80003bbc	004fdc63	bge	x31,x4,80003bd4	 x31:0xbc2d6bb4  x4:0x00000448
       64405000	      6439	80003bc0	40b0d913	srai	x18,x1,0xb	  x1:0x00000000 x18=0x00000000
       64415000	      6440	80003bc4	40855293	srai	x5,x10,0x8	 x10:0x000009a2  x5=0x00000009
       64425000	      6441	80003bc8	00426463	bltu	x4,x4,80003bd0	  x4:0x00000448  x4:0x00000448
       64435000	      6442	80003bcc	03488863	beq	x17,x20,80003bfc	 x17:0x00a28ffc x20:0x00000000
       64445000	      6443	80003bd0	82eeb993	sltiu	x19,x29,-2002	 x29:0x1b200000 x19=0x00000001
       64455000	      6444	80003bd4	005cda63	bge	x25,x5,80003be8	 x25:0x00000001  x5:0x00000009
       64465000	      6445	80003bd8	03809863	bne	x1,x24,80003c08	  x1:0x00000000 x24:0xfffffc56
       64475000	      6446	00000000	00000013	addi	x0,x0,0	  x0:0x00000000
       64485000	      6447	80003c04	00000013	addi	x0,x0,0	  x0:0x00000000
       64495000	      6448	80003c08	01f6c533	xor	x10,x13,x31	 x13:0x147fe000 x31:0xbc2d6bb4 x10=0xa8528bb4
       64505000	      6449	80003c0c	01ed84b3	add	x9,x27,x30	 x27:0x000004de x30:0x000004de  x9=0x000009bc
       64515000	      6450	80003c10	506284b7	lui	x9,0x50628	  x9=0x50628000
       64525000	      6451	80003c14	ff6aee93	ori	x29,x21,-10	 x21:0x00000000 x29=0xfffffff6
       64535000	      6452	80003c18	00164733	xor	x14,x12,x1	 x12:0x00000000  x1:0x00000000 x14=0x00000000
       64545000	      6453	80003c1c	413cd633	sra	x12,x25,x19	 x25:0x00000001 x19:0x00000001 x12=0x00000000
       64555000	      6454	80003c20	02135a63	bge	x6,x1,80003c54	  x6:0xadf5340f  x1:0x00000000
       64565000	      6455	80003c24	410fdd13	srai	x26,x31,0x10	 x31:0xbc2d6bb4 x26=0xffffbc2d
       64575000	      6456	80003c28	00f6f863	bgeu	x13,x15,80003c38	 x13:0x147fe000 x15:0x00000001
       64585000	      6457	00000000	00000013	addi	x0,x0,0	  x0:0x00000000
       64595000	      6458	80003c34	00000013	addi	x0,x0,0	  x0:0x00000000
       64605000	      6459	80003c38	5b6dfd93	andi	x27,x27,1462	 x27:0x000004de x27=0x00000496
       64615000	      6460	80003c3c	00aa3233	sltu	x4,x20,x10	 x20:0x00000000 x10:0xa8528bb4  x4=0x00000001
       64625000	      6461	80003c40	447a2913	slti	x18,x20,1095	 x20:0x00000000 x18=0x00000001
       64635000	      6462	80003c44	009aa933	slt	x18,x21,x9	 x21:0x00000000  x9:0x50628000 x18=0x00000001
       64645000	      6463	80003c48	010e9533	sll	x10,x29,x16	 x29:0xfffffff6 x16:0x00000000 x10=0xfffffff6
       64655000	      6464	80003c4c	00b69393	slli	x7,x13,0xb	 x13:0x147fe000  x7=0xff000000
       64665000	      6465	80003c50	0163e133	or	x2,x7,x22	  x7:0xff000000 x22:0xe5ff9bac  x2=0xffff9bac
       64675000	      6466	80003c54	00dc2b33	slt	x22,x24,x13	 x24:0xfffffc56 x13:0x147fe000 x22=0x00000001
       64685000	      6467	80003c58	00fd6263	bltu	x26,x15,80003c5c	 x26:0xffffbc2d x15:0x00000001
       64695000	      6468	80003c5c	01956a33	or	x20,x10,x25	 x10:0xfffffff6 x25:0x00000001 x20=0xfffffff7
       64705000	      6469	80003c60	05d7e663	bltu	x15,x29,80003cac	 x15:0x00000001 x29:0xfffffff6
       64715000	      6470	00000000	00000013	addi	x0,x0,0	  x0:0x00000000
       64725000	      6471	80003ca8	00000013	addi	x0,x0,0	  x0:0x00000000
       64735000	      6472	80003cac	008e0bb3	add	x23,x28,x8	 x28:0x80009eec  x8:0x80009fc4 x23=0x00013eb0
       64745000	      6473	80003cb0	013b18b3	sll	x17,x22,x19	 x22:0x00000001 x19:0x00000001 x17=0x00000002
       64755000	      6474	80003cb4	005ad6b3	srl	x13,x21,x5	 x21:0x00000000  x5:0x00000009 x13=0x00000000
       64765000	      6475	80003cb8	00000013	addi	x0,x0,0	  x0:0x00000000
       64775000	      6476	80003cbc	00e11233	sll	x4,x2,x14	  x2:0xffff9bac x14:0x00000000  x4=0xffff9bac
       64785000	      6477	80003cc0	401e5713	srai	x14,x28,0x1	 x28:0x80009eec x14=0xc0004f76
       64795000	      6478	80003cc4	40a2d093	srai	x1,x5,0xa	  x5:0x00000009  x1=0x00000000
       64805000	      6479	80003cc8	3d5e6793	ori	x15,x28,981	 x28:0x80009eec x15=0x80009ffd
       64815000	      6480	80003ccc	a2048693	addi	x13,x9,-1504	  x9:0x50628000 x13=0x50627a20
       64825000	      6481	80003cd0	00e41863	bne	x8,x14,80003ce0	  x8:0x80009fc4 x14:0xc0004f76
       64835000	      6482	00000000	00000013	addi	x0,x0,0	  x0:0x00000000
       64845000	      6483	80003cdc	00000013	addi	x0,x0,0	  x0:0x00000000
       64855000	      6484	80003ce0	04210063	beq	x2,x2,80003d20	  x2:0xffff9bac  x2:0xffff9bac
       64865000	      6485	00000000	00000013	addi	x0,x0,0	  x0:0x00000000
       64875000	      6486	80003d1c	00000013	addi	x0,x0,0	  x0:0x00000000
       64885000	      6487	80003d20	045bd063	bge	x23,x5,80003d60	 x23:0x00013eb0  x5:0x00000009
       64895000	      6488	00000000	00000013	addi	x0,x0,0	  x0:0x00000000
       64905000	      6489	80003d5c	00000013	addi	x0,x0,0	  x0:0x00000000
       64915000	      6490	80003d60	00cfb5b3	sltu	x11,x31,x12	 x31:0xbc2d6bb4 x12:0x00000000 x11=0x00000000
       64925000	      6491	80003d64	f6745497	auipc	x9,0xf6745	  x9=0x76748d60
       64935000	      6492	80003d68	96ceca13	xori	x20,x29,-1684	 x29:0xfffffff6 x20=0x0000069a
       64945000	      6493	80003d6c	f8e26a93	ori	x21,x4,-114	  x4:0xffff9bac x21=0xffffffae
       64955000	      6494	80003d70	01965663	bge	x12,x25,80003d7c	 x12:0x00000000 x25:0x00000001
       64965000	      6495	80003d74	005e1cb3	sll	x25,x28,x5	 x28:0x80009eec  x5:0x00000009 x25=0x013dd800
       64975000	      6496	80003d78	029df463	bgeu	x27,x9,80003da0	 x27:0x00000496  x9:0x76748d60
       64985000	      6497	80003d7c	0154b1b3	sltu	x3,x9,x21	  x9:0x76748d60 x21:0xffffffae  x3=0x00000001
       64995000	      6498	80003d80	016cd3b3	srl	x7,x25,x22	 x25:0x013dd800 x22:0x00000001  x7=0x009eec00
       65005000	      6499	80003d84	015a9c13	slli	x24,x21,0x15	 x21:0xffffffae x24=0xf5c00000
       65015000	      6500	80003d88	eec0fc93	andi	x25,x1,-276	  x1:0x00000000 x25=0x00000000
       65025000	      6501	80003d8c	0032d1b3	srl	x3,x5,x3	  x5:0x00000009  x3:0x00000001  x3=0x00000004
       65035000	      6502	80003d90	008fde63	bge	x31,x8,80003dac	 x31:0xbc2d6bb4  x8:0x80009fc4
       65045000	      6503	00000000	00000013	addi	x0,x0,0	  x0:0x00000000
       65055000	      6504	80003da8	00000013	addi	x0,x0,0	  x0:0x00000000
       65065000	      6505	80003dac	010c3733	sltu	x14,x24,x16	 x24:0xf5c00000 x16:0x00000000 x14=0x00000000
       65075000	      6506	80003db0	00251cb3	sll	x25,x10,x2	 x10:0xfffffff6  x2:0xffff9bac x25=0xffff6000
       65085000	      6507	80003db4	01eed133	srl	x2,x29,x30	 x29:0xfffffff6 x30:0x000004de  x2=0x00000003
       65095000	      6508	80003db8	d42d7e93	andi	x29,x26,-702	 x26:0xffffbc2d x29=0xffffbc00
       65105000	      6509	80003dbc	7e104893	xori	x17,x0,2017	  x0:0x00000000 x17=0x000007e1
       65115000	      6510	80003dc0	b395e613	ori	x12,x11,-1223	 x11:0x00000000 x12=0xfffffb39
       65125000	      6511	80003dc4	401c05b3	sub	x11,x24,x1	 x24:0xf5c00000  x1:0x00000000 x11=0xf5c00000
       65135000	      6512	80003dc8	00000013	addi	x0,x0,0	  x0:0x00000000
       65145000	      6513	80003dcc	01c8f933	and	x18,x17,x28	 x17:0x000007e1 x28:0x80009eec x18=0x000006e0
       65155000	      6514	80003dd0	018cb933	sltu	x18,x25,x24	 x25:0xffff6000 x24:0xf5c00000 x18=0x00000000
       65165000	      6515	80003dd4	01745893	srli	x17,x8,0x17	  x8:0x80009fc4 x17=0x00000100
       65175000	      6516	80003dd8	012a4333	xor	x6,x20,x18	 x20:0x0000069a x18:0x00000000  x6=0x0000069a
       65185000	      6517	80003ddc	00485333	srl	x6,x16,x4	 x16:0x00000000  x4:0xffff9bac  x6=0x00000000
       65195000	      6518	80003de0	019c2a33	slt	x20,x24,x25	 x24:0xf5c00000 x25:0xffff6000 x20=0x00000001
       65205000	      6519	80003de4	41850233	sub	x4,x10,x24	 x10:0xfffffff6 x24:0xf5c00000  x4=0x0a3ffff6
       65215000	      6520	80003de8	01f0f733	and	x14,x1,x31	  x1:0x00000000 x31:0xbc2d6bb4 x14=0x00000000
       65225000	      6521	80003dec	01a228b3	slt	x17,x4,x26	  x4:0x0a3ffff6 x26:0xffffbc2d x17=0x00000000
       65235000	      6522	80003df0	c23173b7	lui	x7,0xc2317	  x7=0xc2317000
       65245000	      6523	80003df4	418a0c33	sub	x24,x20,x24	 x20:0x00000001 x24:0xf5c00000 x24=0x0a400001
       65255000	      6524	80003df8	7947f493	andi	x9,x15,1940	 x15:0x80009ffd  x9=0x00000794
       65265000	      6525	80003dfc	40095f13	srai	x30,x18,0x0	 x18:0x00000000 x30=0x00000000
       65275000	      6526	80003e00	01566bb3	or	x23,x12,x21	 x12:0xfffffb39 x21:0xffffffae x23=0xffffffbf
       65285000	      6527	80003e04	00d4b333	sltu	x6,x9,x13	  x9:0x00000794 x13:0x50627a20  x6=0x00000001
       65295000	      6528	80003e08	00645533	srl	x10,x8,x6	  x8:0x80009fc4  x6:0x00000001 x10=0x40004fe2
       65305000	      6529	80003e0c	0136c263	blt	x13,x19,80003e10	 x13:0x50627a20 x19:0x00000001
       65315000	      6530	80003e10	03315a63	bge	x2,x19,80003e44	  x2:0x00000003 x19:0x00000001
       65325000	      6531	00000000	00000013	addi	x0,x0,0	  x0:0x00000000
       65335000	      6532	80003e40	00000013	addi	x0,x0,0	  x0:0x00000000
       65345000	      6533	80003e44	00000013	addi	x0,x0,0	  x0:0x00000000
       65355000	      6534	80003e48	03a34463	blt	x6,x26,80003e70	  x6:0x00000001 x26:0xffffbc2d
       65365000	      6535	80003e4c	0042dc93	srli	x25,x5,0x4	  x5:0x00000009 x25=0x00000000
       65375000	      6536	80003e50	41a15393	srai	x7,x2,0x1a	  x2:0x00000003  x7=0x00000000
       65385000	      6537	80003e54	01025933	srl	x18,x4,x16	  x4:0x0a3ffff6 x16:0x00000000 x18=0x0a3ffff6
       65395000	      6538	80003e58	00d48d33	add	x26,x9,x13	  x9:0x00000794 x13:0x50627a20 x26=0x506281b4
       65405000	      6539	80003e5c	00c3a3b3	slt	x7,x7,x12	  x7:0x00000000 x12:0xfffffb39  x7=0x00000000
       65415000	      6540	80003e60	01da8263	beq	x21,x29,80003e64	 x21:0xffffffae x29:0xffffbc00
       65425000	      6541	80003e64	00d542b3	xor	x5,x10,x13	 x10:0x40004fe2 x13:0x50627a20  x5=0x106235c2
       65435000	      6542	80003e68	a2208a13	addi	x20,x1,-1502	  x1:0x00000000 x20=0xfffffa22
       65445000	      6543	80003e6c	8f466bb7	lui	x23,0x8f466	 x23=0x8f466000
       65455000	      6544	80003e70	00cde333	or	x6,x27,x12	 x27:0x00000496 x12:0xfffffb39  x6=0xffffffbf
       65465000	      6545	80003e74	02bb1863	bne	x22,x11,80003ea4	 x22:0x00000001 x11:0xf5c00000
       65475000	      6546	00000000	00000013	addi	x0,x0,0	  x0:0x00000000
       65485000	      6547	80003ea0	00000013	addi	x0,x0,0	  x0:0x00000000
       65495000	      6548	80003ea4	5fe13497	auipc	x9,0x5fe13	  x9=0xdfe16ea0
       65505000	      6549	80003ea8	8cd0b537	lui	x10,0x8cd0b	 x10=0x8cd0b000
       65515000	      6550	80003eac	010b4ab3	xor	x21,x22,x16	 x22:0x00000001 x16:0x00000000 x21=0x00000001
       65525000	      6551	80003eb0	5850e193	ori	x3,x1,1413	  x1:0x00000000  x3=0x00000585
       65535000	      6552	80003eb4	fa78c893	xori	x17,x17,-89	 x17:0x00000000 x17=0xffffffa7
       65545000	      6553	80003eb8	0171e463	bltu	x3,x23,80003ec0	  x3:0x00000585 x23:0x8f466000
       65555000	      6554	00000000	00000013	addi	x0,x0,0	  x0:0x00000000
       65565000	      6555	80003ebc	00000013	addi	x0,x0,0	  x0:0x00000000
       65575000	      6556	80003ec0	01c7ba33	sltu	x20,x15,x28	 x15:0x80009ffd x28:0x80009eec x20=0x00000000
       65585000	      6557	80003ec4	012c9533	sll	x10,x25,x18	 x25:0x00000000 x18:0x0a3ffff6 x10=0x00000000
       65595000	      6558	80003ec8	872cbd13	sltiu	x26,x25,-1934	 x25:0x00000000 x26=0x00000001
       65605000	      6559	80003ecc	046ee063	bltu	x29,x6,80003f0c	 x29:0xffffbc00  x6:0xffffffbf
       65615000	      6560	00000000	00000013	addi	x0,x0,0	  x0:0x00000000
       65625000	      6561	80003f08	00000013	addi	x0,x0,0	  x0:0x00000000
       65635000	      6562	80003f0c	6c0cbc93	sltiu	x25,x25,1728	 x25:0x00000000 x25=0x00000001
       65645000	      6563	80003f10	09571663	bne	x14,x21,80003f9c	 x14:0x00000000 x21:0x00000001
       65655000	      6564	00000000	00000013	addi	x0,x0,0	  x0:0x00000000
       65665000	      6565	80003f98	00000013	addi	x0,x0,0	  x0:0x00000000
       65675000	      6566	80003f9c	01411633	sll	x12,x2,x20	  x2:0x00000003 x20:0x00000000 x12=0x00000003
       65685000	      6567	80003fa0	29163493	sltiu	x9,x12,657	 x12:0x00000003  x9=0x00000001
       65695000	      6568	80003fa4	00a592b3	sll	x5,x11,x10	 x11:0xf5c00000 x10:0x00000000  x5=0xf5c00000
       65705000	      6569	80003fa8	c18d2737	lui	x14,0xc18d2	 x14=0xc18d2000
       65715000	      6570	80003fac	018a5313	srli	x6,x20,0x18	 x20:0x00000000  x6=0x00000000
       65725000	      6571	80003fb0	ad97e893	ori	x17,x15,-1319	 x15:0x80009ffd x17=0xfffffffd
       65735000	      6572	80003fb4	0116fab3	and	x21,x13,x17	 x13:0x50627a20 x17:0xfffffffd x21=0x50627a20
       65745000	      6573	80003fb8	00941893	slli	x17,x8,0x9	  x8:0x80009fc4 x17=0x013f8800
       65755000	      6574	80003fbc	010e1c63	bne	x28,x16,80003fd4	 x28:0x80009eec x16:0x00000000
       65765000	      6575	00000000	00000013	addi	x0,x0,0	  x0:0x00000000
       65775000	      6576	80003fd0	00000013	addi	x0,x0,0	  x0:0x00000000
       65785000	      6577	80003fd4	f8cd4f13	xori	x30,x26,-116	 x26:0x00000001 x30=0xffffff8d
       65795000	      6578	80003fd8	04c75263	bge	x14,x12,8000401c	 x14:0xc18d2000 x12:0x00000003
       65805000	      6579	80003fdc	0225f863	bgeu	x11,x2,8000400c	 x11:0xf5c00000  x2:0x00000003
       65815000	      6580	00000000	00000013	addi	x0,x0,0	  x0:0x00000000
       65825000	      6581	80004008	00000013	addi	x0,x0,0	  x0:0x00000000
       65835000	      6582	8000400c	00eb54b3	srl	x9,x22,x14	 x22:0x00000001 x14:0xc18d2000  x9=0x00000001
       65845000	      6583	80004010	d5b72617	auipc	x12,0xd5b72	 x12=0x55b7600c
       65855000	      6584	80004014	00136663	bltu	x6,x1,80004020	  x6:0x00000000  x1:0x00000000
       65865000	      6585	80004018	a65aa913	slti	x18,x21,-1435	 x21:0x50627a20 x18=0x00000000
       65875000	      6586	8000401c	5487bc97	auipc	x25,0x5487b	 x25=0xd487f018
       65885000	      6587	80004020	bdecbc13	sltiu	x24,x25,-1058	 x25:0xd487f018 x24=0x00000001
       65895000	      6588	80004024	00301c13	slli	x24,x0,0x3	  x0:0x00000000 x24=0x00000000
       65905000	      6589	80004028	008147b3	xor	x15,x2,x8	  x2:0x00000003  x8:0x80009fc4 x15=0x80009fc7
       65915000	      6590	8000402c	0065a233	slt	x4,x11,x6	 x11:0xf5c00000  x6:0x00000000  x4=0x00000001
       65925000	      6591	80004030	01b41a33	sll	x20,x8,x27	  x8:0x80009fc4 x27:0x00000496 x20=0xf1000000
       65935000	      6592	80004034	035b1863	bne	x22,x21,80004064	 x22:0x00000001 x21:0x50627a20
       65945000	      6593	00000000	00000013	addi	x0,x0,0	  x0:0x00000000
       65955000	      6594	80004060	00000013	addi	x0,x0,0	  x0:0x00000000
       65965000	      6595	80004064	00e77bb3	and	x23,x14,x14	 x14:0xc18d2000 x14:0xc18d2000 x23=0xc18d2000
       65975000	      6596	80004068	9d9d6d97	auipc	x27,0x9d9d6	 x27=0x1d9da064
       65985000	      6597	8000406c	0145cb33	xor	x22,x11,x20	 x11:0xf5c00000 x20:0xf1000000 x22=0x04c00000
       65995000	      6598	80004070	00a170b3	and	x1,x2,x10	  x2:0x00000003 x10:0x00000000  x1=0x00000000
       66005000	      6599	80004074	40abd213	srai	x4,x23,0xa	 x23:0xc18d2000  x4=0xfff06348
       66015000	      6600	80004078	00e316b3	sll	x13,x6,x14	  x6:0x00000000 x14:0xc18d2000 x13=0x00000000
       66025000	      6601	8000407c	410ad393	srai	x7,x21,0x10	 x21:0x50627a20  x7=0x00005062
       66035000	      6602	80004080	40c35493	srai	x9,x6,0xc	  x6:0x00000000  x9=0x00000000
       66045000	      6603	80004084	414304b3	sub	x9,x6,x20	  x6:0x00000000 x20:0xf1000000  x9=0x0f000000
       66055000	      6604	80004088	012bc033	xor	x0,x23,x18	 x23:0xc18d2000 x18:0x00000000
       66065000	      6605	8000408c	02a70663	beq	x14,x10,800040b8	 x14:0xc18d2000 x10:0x00000000
       66075000	      6606	80004090	009edd13	srli	x26,x29,0x9	 x29:0xffffbc00 x26=0x007fffde
       66085000	      6607	80004094	c7e9f637	lui	x12,0xc7e9f	 x12=0xc7e9f000
       66095000	      6608	80004098	f8b34617	auipc	x12,0xf8b34	 x12=0x78b38094
       66105000	      6609	8000409c	02db9463	bne	x23,x13,800040c4	 x23:0xc18d2000 x13:0x00000000
       66115000	      6610	00000000	00000013	addi	x0,x0,0	  x0:0x00000000
       66125000	      6611	800040c0	00000013	addi	x0,x0,0	  x0:0x00000000
       66135000	      6612	800040c4	01585793	srli	x15,x16,0x15	 x16:0x00000000 x15=0x00000000
       66145000	      6613	800040c8	40255e93	srai	x29,x10,0x2	 x10:0x00000000 x29=0x00000000
       66155000	      6614	800040cc	004e2c03	lw	x24,4(x28)	 x28:0x80009eec x24=0x80002600 PA:0x80009ef0
       66165000	      6615	800040d0	00000013	addi	x0,x0,0	  x0:0x00000000
       66175000	      6616	800040d4	024e0e13	addi	x28,x28,36	 x28:0x80009eec x28=0x80009f10
       66185000	      6617	800040d8	a7c61e97	auipc	x29,0xa7c61	 x29=0x27c650d4
       66195000	      6618	800040dc	34bf4493	xori	x9,x30,843	 x30:0xffffff8d  x9=0xfffffcc6
       66205000	      6619	800040e0	010bafb3	slt	x31,x23,x16	 x23:0xc18d2000 x16:0x00000000 x31=0x00000001
       66215000	      6620	800040e4	00bf8333	add	x6,x31,x11	 x31:0x00000001 x11:0xf5c00000  x6=0xf5c00001
       66225000	      6621	800040e8	0133e533	or	x10,x7,x19	  x7:0x00005062 x19:0x00000001 x10=0x00005063
       66235000	      6622	800040ec	41ded2b3	sra	x5,x29,x29	 x29:0x27c650d4 x29:0x27c650d4  x5=0x0000027c
       66245000	      6623	800040f0	001c0293	addi	x5,x24,1	 x24:0x80002600  x5=0x80002601
       66255000	      6624	800040f4	000282e7	jalr	x5,x5,0	  x5:0x80002601  x5=0x800040f4
       66265000	      6625	00000000	00000013	addi	x0,x0,0	  x0:0x00000000
       66275000	      6626	80002600	00000013	addi	x0,x0,0	  x0:0x00000000
       66285000	      6627	80002604	16d6be93	sltiu	x29,x13,365	 x13:0x00000000 x29=0x00000001
       66295000	      6628	80002608	00000013	addi	x0,x0,0	  x0:0x00000000
       66305000	      6629	8000260c	01ab1133	sll	x2,x22,x26	 x22:0x04c00000 x26:0x007fffde  x2=0x00000000
       66315000	      6630	80002610	65fae113	ori	x2,x21,1631	 x21:0x50627a20  x2=0x50627e7f
       66325000	      6631	80002614	00000013	addi	x0,x0,0	  x0:0x00000000
       66335000	      6632	80002618	01809633	sll	x12,x1,x24	  x1:0x00000000 x24:0x80002600 x12=0x00000000
       66345000	      6633	8000261c	02f08463	beq	x1,x15,80002644	  x1:0x00000000 x15:0x00000000
       66355000	      6634	00000000	00000013	addi	x0,x0,0	  x0:0x00000000
       66365000	      6635	80002640	00000013	addi	x0,x0,0	  x0:0x00000000
       66375000	      6636	80002644	00775f13	srli	x30,x14,0x7	 x14:0xc18d2000 x30=0x01831a40
       66385000	      6637	80002648	00c3f8b3	and	x17,x7,x12	  x7:0x00005062 x12:0x00000000 x17=0x00000000
       66395000	      6638	8000264c	03b79a63	bne	x15,x27,80002680	 x15:0x00000000 x27:0x1d9da064
       66405000	      6639	00000000	00000013	addi	x0,x0,0	  x0:0x00000000
       66415000	      6640	8000267c	00000013	addi	x0,x0,0	  x0:0x00000000
       66425000	      6641	80002680	0037b8b3	sltu	x17,x15,x3	 x15:0x00000000  x3:0x00000585 x17=0x00000001
       66435000	      6642	80002684	004e2c03	lw	x24,4(x28)	 x28:0x80009f10 x24=0x80004148 PA:0x80009f14
       66445000	      6643	80002688	17bab913	sltiu	x18,x21,379	 x21:0x50627a20 x18=0x00000000
       66455000	      6644	8000268c	015503b3	add	x7,x10,x21	 x10:0x00005063 x21:0x50627a20  x7=0x5062ca83
       66465000	      6645	80002690	034e0e13	addi	x28,x28,52	 x28:0x80009f10 x28=0x80009f44
       66475000	      6646	80002694	003217b3	sll	x15,x4,x3	  x4:0xfff06348  x3:0x00000585 x15=0xfe0c6900
       66485000	      6647	80002698	00000013	addi	x0,x0,0	  x0:0x00000000
       66495000	      6648	8000269c	9f82af93	slti	x31,x5,-1544	  x5:0x800040f4 x31=0x00000001
       66505000	      6649	800026a0	3f5aaa97	auipc	x21,0x3f5aa	 x21=0xbf5ac69c
       66515000	      6650	800026a4	7c350213	addi	x4,x10,1987	 x10:0x00005063  x4=0x00005826
       66525000	      6651	800026a8	6f9ab693	sltiu	x13,x21,1785	 x21:0xbf5ac69c x13=0x00000000
       66535000	      6652	800026ac	e8ac8213	addi	x4,x25,-374	 x25:0xd487f018  x4=0xd487eea2
       66545000	      6653	800026b0	000c0913	addi	x18,x24,0	 x24:0x80004148 x18=0x80004148
       66555000	      6654	800026b4	00090967	jalr	x18,x18,0	 x18:0x80004148 x18=0x800026b4
       66565000	      6655	00000000	00000013	addi	x0,x0,0	  x0:0x00000000
       66575000	      6656	80004148	00000013	addi	x0,x0,0	  x0:0x00000000
       66585000	      6657	8000414c	00000013	addi	x0,x0,0	  x0:0x00000000
       66595000	      6658	80004150	018aa4b3	slt	x9,x21,x24	 x21:0xbf5ac69c x24:0x80004148  x9=0x00000000
       66605000	      6659	80004154	00c2da33	srl	x20,x5,x12	  x5:0x800040f4 x12:0x00000000 x20=0x800040f4
       66615000	      6660	80004158	00b243b3	xor	x7,x4,x11	  x4:0xd487eea2 x11:0xf5c00000  x7=0x2147eea2
       66625000	      6661	8000415c	00000013	addi	x0,x0,0	  x0:0x00000000
       66635000	      6662	80004160	d58fec6f	jal	x24,80004160	 x24=0x80004160
       66645000	      6663	00000000	00000013	addi	x0,x0,0	  x0:0x00000000
       66655000	      6664	800026b4	00000013	addi	x0,x0,0	  x0:0x00000000
       66665000	      6665	800026b8	7cdca013	slti	x0,x25,1997	 x25:0xd487f018
       66675000	      6666	800026bc	4153df13	srai	x30,x7,0x15	  x7:0x2147eea2 x30=0x0000010a
       66685000	      6667	800026c0	a1a26617	auipc	x12,0xa1a26	 x12=0x21a286bc
       66695000	      6668	800026c4	fd4e0e13	addi	x28,x28,-44	 x28:0x80009f44 x28=0x80009f18
       66705000	      6669	800026c8	018e2223	sw	x24,4(x28)	 x28:0x80009f18 x24:0x80004160 PA:0x80009f1c
       66715000	      6670	800026cc	0087aeb3	slt	x29,x15,x8	 x15:0xfe0c6900  x8:0x80009fc4 x29=0x00000000
       66725000	      6671	800026d0	00d34f33	xor	x30,x6,x13	  x6:0xf5c00001 x13:0x00000000 x30=0xf5c00001
       66735000	      6672	800026d4	39683f93	sltiu	x31,x16,918	 x16:0x00000000 x31=0x00000001
       66745000	      6673	800026d8	eefdca13	xori	x20,x27,-273	 x27:0x1d9da064 x20=0xe2625e8b
       66755000	      6674	800026dc	0006a133	slt	x2,x13,x0	 x13:0x00000000  x0:0x00000000  x2=0x00000000
       66765000	      6675	800026e0	edacf097	auipc	x1,0xedacf	  x1=0x6dad16dc
       66775000	      6676	800026e4	0002db33	srl	x22,x5,x0	  x5:0x800040f4  x0:0x00000000 x22=0x800040f4
       66785000	      6677	800026e8	00add463	bge	x27,x10,800026f0	 x27:0x1d9da064 x10:0x00005063
       66795000	      6678	00000000	00000013	addi	x0,x0,0	  x0:0x00000000
       66805000	      6679	800026ec	00000013	addi	x0,x0,0	  x0:0x00000000
       66815000	      6680	800026f0	1d000c6f	jal	x24,800026f0	 x24=0x800026f0
       66825000	      6681	00000000	00000013	addi	x0,x0,0	  x0:0x00000000
       66835000	      6682	800028bc	00000013	addi	x0,x0,0	  x0:0x00000000
       66845000	      6683	800028c0	01e257b3	srl	x15,x4,x30	  x4:0xd487eea2 x30:0xf5c00001 x15=0x6a43f751
       66855000	      6684	800028c4	fe8e0e13	addi	x28,x28,-24	 x28:0x80009f18 x28=0x80009f00
       66865000	      6685	800028c8	008e4233	xor	x4,x28,x8	 x28:0x80009f00  x8:0x80009fc4  x4=0x000000c4
       66875000	      6686	800028cc	018e2223	sw	x24,4(x28)	 x28:0x80009f00 x24:0x800026f0 PA:0x80009f04
       66885000	      6687	800028d0	f4c0e013	ori	x0,x1,-180	  x1:0x6dad16dc
       66895000	      6688	800028d4	00000013	addi	x0,x0,0	  x0:0x00000000
       66905000	      6689	800028d8	013a99b3	sll	x19,x21,x19	 x21:0xbf5ac69c x19:0x00000001 x19=0x7eb58d38
       66915000	      6690	800028dc	02000c6f	jal	x24,800028dc	 x24=0x800028dc
       66925000	      6691	00000000	00000013	addi	x0,x0,0	  x0:0x00000000
       66935000	      6692	800028f8	00000013	addi	x0,x0,0	  x0:0x00000000
       66945000	      6693	800028fc	ffdff0ef	jal	x1,800028fc	  x1=0x800028fc
       66955000	      6694	00000000	00000013	addi	x0,x0,0	  x0:0x00000000
       66965000	      6695	800028f4	00000013	addi	x0,x0,0	  x0:0x00000000
       66975000	      6696	800028f8	ff1ff36f	jal	x6,800028f8	  x6=0x800028f8
       66985000	      6697	00000000	00000013	addi	x0,x0,0	  x0:0x00000000
       66995000	      6698	800028e4	00000013	addi	x0,x0,0	  x0:0x00000000
       67005000	      6699	800028e8	02800d6f	jal	x26,800028e8	 x26=0x800028e8
       67015000	      6700	00000000	00000013	addi	x0,x0,0	  x0:0x00000000
       67025000	      6701	8000290c	00000013	addi	x0,x0,0	  x0:0x00000000
       67035000	      6702	80002910	ff1ffeef	jal	x29,80002910	 x29=0x80002910
       67045000	      6703	00000000	00000013	addi	x0,x0,0	  x0:0x00000000
       67055000	      6704	800028fc	00000013	addi	x0,x0,0	  x0:0x00000000
       67065000	      6705	80002900	00c000ef	jal	x1,80002900	  x1=0x80002900
       67075000	      6706	00000000	00000013	addi	x0,x0,0	  x0:0x00000000
       67085000	      6707	80002908	00000013	addi	x0,x0,0	  x0:0x00000000
       67095000	      6708	8000290c	fe5ff0ef	jal	x1,8000290c	  x1=0x8000290c
       67105000	      6709	00000000	00000013	addi	x0,x0,0	  x0:0x00000000
       67115000	      6710	800028ec	00000013	addi	x0,x0,0	  x0:0x00000000
       67125000	      6711	800028f0	004000ef	jal	x1,800028f0	  x1=0x800028f0
       67135000	      6712	00000000	00000013	addi	x0,x0,0	  x0:0x00000000
       67145000	      6713	800028f0	00000013	addi	x0,x0,0	  x0:0x00000000
       67155000	      6714	800028f4	010000ef	jal	x1,800028f4	  x1=0x800028f4
       67165000	      6715	00000000	00000013	addi	x0,x0,0	  x0:0x00000000
       67175000	      6716	80002900	00000013	addi	x0,x0,0	  x0:0x00000000
       67185000	      6717	80002904	fe1ff36f	jal	x6,80002904	  x6=0x80002904
       67195000	      6718	00000000	00000013	addi	x0,x0,0	  x0:0x00000000
       67205000	      6719	800028e0	00000013	addi	x0,x0,0	  x0:0x00000000
       67215000	      6720	800028e4	024000ef	jal	x1,800028e4	  x1=0x800028e4
       67225000	      6721	00000000	00000013	addi	x0,x0,0	  x0:0x00000000
       67235000	      6722	80002904	00000013	addi	x0,x0,0	  x0:0x00000000
       67245000	      6723	80002908	fe5ff0ef	jal	x1,80002908	  x1=0x80002908
       67255000	      6724	00000000	00000013	addi	x0,x0,0	  x0:0x00000000
       67265000	      6725	800028e8	00000013	addi	x0,x0,0	  x0:0x00000000
       67275000	      6726	800028ec	02c004ef	jal	x9,800028ec	  x9=0x800028ec
       67285000	      6727	00000000	00000013	addi	x0,x0,0	  x0:0x00000000
       67295000	      6728	80002914	00000013	addi	x0,x0,0	  x0:0x00000000
       67305000	      6729	80002918	ffdff36f	jal	x6,80002918	  x6=0x80002918
       67315000	      6730	00000000	00000013	addi	x0,x0,0	  x0:0x00000000
       67325000	      6731	80002910	00000013	addi	x0,x0,0	  x0:0x00000000
       67335000	      6732	80002914	fcdff0ef	jal	x1,80002914	  x1=0x80002914
       67345000	      6733	00000000	00000013	addi	x0,x0,0	  x0:0x00000000
       67355000	      6734	800028dc	00000013	addi	x0,x0,0	  x0:0x00000000
       67365000	      6735	800028e0	03c007ef	jal	x15,800028e0	 x15=0x800028e0
       67375000	      6736	00000000	00000013	addi	x0,x0,0	  x0:0x00000000
       67385000	      6737	80002918	00000013	addi	x0,x0,0	  x0:0x00000000
       67395000	      6738	8000291c	e9c6ad93	slti	x27,x13,-356	 x13:0x00000000 x27=0x00000000
       67405000	      6739	80002920	002fd8b3	srl	x17,x31,x2	 x31:0x00000001  x2:0x00000000 x17=0x00000001
       67415000	      6740	80002924	7a667893	andi	x17,x12,1958	 x12:0x21a286bc x17=0x000006a4
       67425000	      6741	80002928	0063bfb3	sltu	x31,x7,x6	  x7:0x2147eea2  x6:0x80002918 x31=0x00000001
       67435000	      6742	8000292c	002324b3	slt	x9,x6,x2	  x6:0x80002918  x2:0x00000000  x9=0x00000001
       67445000	      6743	80002930	5c2bd717	auipc	x14,0x5c2bd	 x14=0xdc2bf92c
       67455000	      6744	80002934	00ea9463	bne	x21,x14,8000293c	 x21:0xbf5ac69c x14:0xdc2bf92c
       67465000	      6745	00000000	00000013	addi	x0,x0,0	  x0:0x00000000
       67475000	      6746	80002938	00000013	addi	x0,x0,0	  x0:0x00000000
       67485000	      6747	8000293c	03265863	bge	x12,x18,8000296c	 x12:0x21a286bc x18:0x800026b4
       67495000	      6748	00000000	00000013	addi	x0,x0,0	  x0:0x00000000
       67505000	      6749	80002968	00000013	addi	x0,x0,0	  x0:0x00000000
       67515000	      6750	8000296c	40a2db93	srai	x23,x5,0xa	  x5:0x800040f4 x23=0xffe00010
       67525000	      6751	80002970	b445a293	slti	x5,x11,-1212	 x11:0xf5c00000  x5=0x00000001
       67535000	      6752	80002974	007bf033	and	x0,x23,x7	 x23:0xffe00010  x7:0x2147eea2
       67545000	      6753	80002978	2a6d0d13	addi	x26,x26,678	 x26:0x800028e8 x26=0x80002b8e
       67555000	      6754	8000297c	89dc0f13	addi	x30,x24,-1891	 x24:0x800028dc x30=0x80002179
       67565000	      6755	80002980	01c39293	slli	x5,x7,0x1c	  x7:0x2147eea2  x5=0x20000000
       67575000	      6756	80002984	41cdd0b3	sra	x1,x27,x28	 x27:0x00000000 x28:0x80009f00  x1=0x00000000
       67585000	      6757	80002988	0043d313	srli	x6,x7,0x4	  x7:0x2147eea2  x6=0x02147eea
       67595000	      6758	8000298c	0076e263	bltu	x13,x7,80002990	 x13:0x00000000  x7:0x2147eea2
       67605000	      6759	00000000	00000013	addi	x0,x0,0	  x0:0x00000000
       67615000	      6760	8000298c	00000013	addi	x0,x0,0	  x0:0x00000000
       67625000	      6761	80002990	41a35e93	srai	x29,x6,0x1a	  x6:0x02147eea x29=0x00000000
       67635000	      6762	80002994	8e1d0313	addi	x6,x26,-1823	 x26:0x80002b8e  x6=0x8000246f
       67645000	      6763	80002998	018632b3	sltu	x5,x12,x24	 x12:0x21a286bc x24:0x800028dc  x5=0x00000001
       67655000	      6764	8000299c	01ee9033	sll	x0,x29,x30	 x29:0x00000000 x30:0x80002179
       67665000	      6765	800029a0	00a253b3	srl	x7,x4,x10	  x4:0x000000c4 x10:0x00005063  x7=0x00000018
       67675000	      6766	800029a4	03f12393	slti	x7,x2,63	  x2:0x00000000  x7=0x00000001
       67685000	      6767	800029a8	01e51593	slli	x11,x10,0x1e	 x10:0x00005063 x11=0xc0000000
       67695000	      6768	800029ac	6c408593	addi	x11,x1,1732	  x1:0x00000000 x11=0x000006c4
       67705000	      6769	800029b0	7d1f8513	addi	x10,x31,2001	 x31:0x00000001 x10=0x000007d2
       67715000	      6770	800029b4	56e10d13	addi	x26,x2,1390	  x2:0x00000000 x26=0x0000056e
       67725000	      6771	800029b8	036b5a63	bge	x22,x22,800029ec	 x22:0x800040f4 x22:0x800040f4
       67735000	      6772	00000000	00000013	addi	x0,x0,0	  x0:0x00000000
       67745000	      6773	800029e8	00000013	addi	x0,x0,0	  x0:0x00000000
       67755000	      6774	800029ec	83676893	ori	x17,x14,-1994	 x14:0xdc2bf92c x17=0xfffff93e
       67765000	      6775	800029f0	cdae2013	slti	x0,x28,-806	 x28:0x80009f00
       67775000	      6776	800029f4	0113df13	srli	x30,x7,0x11	  x7:0x00000001 x30=0x00000000
       67785000	      6777	800029f8	4a15cf13	xori	x30,x11,1185	 x11:0x000006c4 x30=0x00000265
       67795000	      6778	800029fc	00000013	addi	x0,x0,0	  x0:0x00000000
       67805000	      6779	80002a00	006b7733	and	x14,x22,x6	 x22:0x800040f4  x6:0x8000246f x14=0x80000064
       67815000	      6780	80002a04	976f2113	slti	x2,x30,-1674	 x30:0x00000265  x2=0x00000000
       67825000	      6781	80002a08	004e2c03	lw	x24,4(x28)	 x28:0x80009f00 x24=0x800026f0 PA:0x80009f04
       67835000	      6782	00000000	00000013	addi	x0,x0,0	  x0:0x00000000
       67845000	      6783	80002a0c	018e0e13	addi	x28,x28,24	 x28:0x80009f00 x28=0x80009f18
       67855000	      6784	80002a10	9632cd93	xori	x27,x5,-1693	  x5:0x00000001 x27=0xfffff962
       67865000	      6785	80002a14	00cee7b3	or	x15,x29,x12	 x29:0x00000000 x12:0x21a286bc x15=0x21a286bc
       67875000	      6786	80002a18	415dd793	srai	x15,x27,0x15	 x27:0xfffff962 x15=0xffffffff
       67885000	      6787	80002a1c	001c0f93	addi	x31,x24,1	 x24:0x800026f0 x31=0x800026f1
       67895000	      6788	80002a20	000f8fe7	jalr	x31,x31,0	 x31:0x800026f1 x31=0x80002a20
       67905000	      6789	00000000	00000013	addi	x0,x0,0	  x0:0x00000000
       67915000	      6790	800026f0	00000013	addi	x0,x0,0	  x0:0x00000000
       67925000	      6791	800026f4	02e0d263	bge	x1,x14,80002718	  x1:0x00000000 x14:0x80000064
       67935000	      6792	00000000	00000013	addi	x0,x0,0	  x0:0x00000000
       67945000	      6793	80002714	00000013	addi	x0,x0,0	  x0:0x00000000
       67955000	      6794	80002718	0090e733	or	x14,x1,x9	  x1:0x00000000  x9:0x00000001 x14=0x00000001
       67965000	      6795	8000271c	d0387193	andi	x3,x16,-765	 x16:0x00000000  x3=0x00000000
       67975000	      6796	80002720	f535ee93	ori	x29,x11,-173	 x11:0x000006c4 x29=0xffffffd7
       67985000	      6797	80002724	14b48f93	addi	x31,x9,331	  x9:0x00000001 x31=0x0000014c
       67995000	      6798	80002728	1cc1e613	ori	x12,x3,460	  x3:0x00000000 x12=0x000001cc
       68005000	      6799	8000272c	054a0863	beq	x20,x20,8000277c	 x20:0xe2625e8b x20:0xe2625e8b
       68015000	      6800	00000000	00000013	addi	x0,x0,0	  x0:0x00000000
       68025000	      6801	80002778	00000013	addi	x0,x0,0	  x0:0x00000000
       68035000	      6802	8000277c	0058d333	srl	x6,x17,x5	 x17:0xfffff93e  x5:0x00000001  x6=0x7ffffc9f
       68045000	      6803	80002780	7e0d7eb7	lui	x29,0x7e0d7	 x29=0x7e0d7000
       68055000	      6804	80002784	01e5c3b3	xor	x7,x11,x30	 x11:0x000006c4 x30:0x00000265  x7=0x000004a1
       68065000	      6805	80002788	03747063	bgeu	x8,x23,800027a8	  x8:0x80009fc4 x23:0xffe00010
       68075000	      6806	8000278c	847ef513	andi	x10,x29,-1977	 x29:0x7e0d7000 x10=0x7e0d7000
       68085000	      6807	80002790	6e231ab7	lui	x21,0x6e231	 x21=0x6e231000
       68095000	      6808	80002794	01f71233	sll	x4,x14,x31	 x14:0x00000001 x31:0x0000014c  x4=0x00001000
       68105000	      6809	80002798	01ee9093	slli	x1,x29,0x1e	 x29:0x7e0d7000  x1=0x00000000
       68115000	      6810	8000279c	25a7f893	andi	x17,x15,602	 x15:0xffffffff x17=0x0000025a
       68125000	      6811	800027a0	63edf7b7	lui	x15,0x63edf	 x15=0x63edf000
       68135000	      6812	800027a4	2001a313	slti	x6,x3,512	  x3:0x00000000  x6=0x00000001
       68145000	      6813	800027a8	0032efb3	or	x31,x5,x3	  x5:0x00000001  x3:0x00000000 x31=0x00000001
       68155000	      6814	800027ac	01000c6f	jal	x24,800027ac	 x24=0x800027ac
       68165000	      6815	00000000	00000013	addi	x0,x0,0	  x0:0x00000000
       68175000	      6816	800027b8	00000013	addi	x0,x0,0	  x0:0x00000000
       68185000	      6817	800027bc	0140036f	jal	x6,800027bc	  x6=0x800027bc
       68195000	      6818	00000000	00000013	addi	x0,x0,0	  x0:0x00000000
       68205000	      6819	800027cc	00000013	addi	x0,x0,0	  x0:0x00000000
       68215000	      6820	800027d0	0040036f	jal	x6,800027d0	  x6=0x800027d0
       68225000	      6821	00000000	00000013	addi	x0,x0,0	  x0:0x00000000
       68235000	      6822	800027d0	00000013	addi	x0,x0,0	  x0:0x00000000
       68245000	      6823	800027d4	ff5ff0ef	jal	x1,800027d4	  x1=0x800027d4
       68255000	      6824	00000000	00000013	addi	x0,x0,0	  x0:0x00000000
       68265000	      6825	800027c4	00000013	addi	x0,x0,0	  x0:0x00000000
       68275000	      6826	800027c8	01c00bef	jal	x23,800027c8	 x23=0x800027c8
       68285000	      6827	00000000	00000013	addi	x0,x0,0	  x0:0x00000000
       68295000	      6828	800027e0	00000013	addi	x0,x0,0	  x0:0x00000000
       68305000	      6829	800027e4	ffdff36f	jal	x6,800027e4	  x6=0x800027e4
       68315000	      6830	00000000	00000013	addi	x0,x0,0	  x0:0x00000000
       68325000	      6831	800027dc	00000013	addi	x0,x0,0	  x0:0x00000000
       68335000	      6832	800027e0	fd9ff0ef	jal	x1,800027e0	  x1=0x800027e0
       68345000	      6833	00000000	00000013	addi	x0,x0,0	  x0:0x00000000
       68355000	      6834	800027b4	00000013	addi	x0,x0,0	  x0:0x00000000
       68365000	      6835	800027b8	ff9ff4ef	jal	x9,800027b8	  x9=0x800027b8
       68375000	      6836	00000000	00000013	addi	x0,x0,0	  x0:0x00000000
       68385000	      6837	800027ac	00000013	addi	x0,x0,0	  x0:0x00000000
       68395000	      6838	800027b0	0280096f	jal	x18,800027b0	 x18=0x800027b0
       68405000	      6839	00000000	00000013	addi	x0,x0,0	  x0:0x00000000
       68415000	      6840	800027d4	00000013	addi	x0,x0,0	  x0:0x00000000
       68425000	      6841	800027d8	0040036f	jal	x6,800027d8	  x6=0x800027d8
       68435000	      6842	00000000	00000013	addi	x0,x0,0	  x0:0x00000000
       68445000	      6843	800027d8	00000013	addi	x0,x0,0	  x0:0x00000000
       68455000	      6844	800027dc	fd9ff0ef	jal	x1,800027dc	  x1=0x800027dc
       68465000	      6845	00000000	00000013	addi	x0,x0,0	  x0:0x00000000
       68475000	      6846	800027b0	00000013	addi	x0,x0,0	  x0:0x00000000
       68485000	      6847	800027b4	00c000ef	jal	x1,800027b4	  x1=0x800027b4
       68495000	      6848	00000000	00000013	addi	x0,x0,0	  x0:0x00000000
       68505000	      6849	800027bc	00000013	addi	x0,x0,0	  x0:0x00000000
       68515000	      6850	800027c0	00c008ef	jal	x17,800027c0	 x17=0x800027c0
       68525000	      6851	00000000	00000013	addi	x0,x0,0	  x0:0x00000000
       68535000	      6852	800027c8	00000013	addi	x0,x0,0	  x0:0x00000000
       68545000	      6853	800027cc	ff9ff6ef	jal	x13,800027cc	 x13=0x800027cc
       68555000	      6854	00000000	00000013	addi	x0,x0,0	  x0:0x00000000
       68565000	      6855	800027c0	00000013	addi	x0,x0,0	  x0:0x00000000
       68575000	      6856	800027c4	0240036f	jal	x6,800027c4	  x6=0x800027c4
       68585000	      6857	00000000	00000013	addi	x0,x0,0	  x0:0x00000000
       68595000	      6858	800027e4	00000013	addi	x0,x0,0	  x0:0x00000000
       68605000	      6859	800027e8	01e58233	add	x4,x11,x30	 x11:0x000006c4 x30:0x00000265  x4=0x00000929
       68615000	      6860	800027ec	4bb1b597	auipc	x11,0x4bb1b	 x11=0xcbb1d7e8
       68625000	      6861	800027f0	691fe297	auipc	x5,0x691fe	  x5=0xe92007ec
       68635000	      6862	800027f4	01894db3	xor	x27,x18,x24	 x18:0x800027b0 x24:0x800027ac x27=0x0000001c
       68645000	      6863	800027f8	0027dd93	srli	x27,x15,0x2	 x15:0x63edf000 x27=0x18fb7c00
       68655000	      6864	800027fc	02536c63	bltu	x6,x5,80002834	  x6:0x800027c4  x5:0xe92007ec
       68665000	      6865	00000000	00000013	addi	x0,x0,0	  x0:0x00000000
       68675000	      6866	80002830	00000013	addi	x0,x0,0	  x0:0x00000000
       68685000	      6867	80002834	40760133	sub	x2,x12,x7	 x12:0x000001cc  x7:0x000004a1  x2=0xfffffd2b
       68695000	      6868	80002838	401e0f33	sub	x30,x28,x1	 x28:0x80009f18  x1:0x800027b4 x30=0x00007764
       68705000	      6869	8000283c	3de246b7	lui	x13,0x3de24	 x13=0x3de24000
       68715000	      6870	80002840	8c7baa13	slti	x20,x23,-1849	 x23:0x800027c8 x20=0x00000001
       68725000	      6871	80002844	01f40133	add	x2,x8,x31	  x8:0x80009fc4 x31:0x00000001  x2=0x80009fc5
       68735000	      6872	80002848	408e03b3	sub	x7,x28,x8	 x28:0x80009f18  x8:0x80009fc4  x7=0xffffff54
       68745000	      6873	8000284c	00c2b7b3	sltu	x15,x5,x12	  x5:0xe92007ec x12:0x000001cc x15=0x00000000
       68755000	      6874	80002850	dddb8a13	addi	x20,x23,-547	 x23:0x800027c8 x20=0x800025a5
       68765000	      6875	80002854	74f53e93	sltiu	x29,x10,1871	 x10:0x7e0d7000 x29=0x00000000
       68775000	      6876	80002858	01de0a33	add	x20,x28,x29	 x28:0x80009f18 x29:0x00000000 x20=0x80009f18
       68785000	      6877	8000285c	007e9213	slli	x4,x29,0x7	 x29:0x00000000  x4=0x00000000
       68795000	      6878	80002860	01d6fc63	bgeu	x13,x29,80002878	 x13:0x3de24000 x29:0x00000000
       68805000	      6879	00000000	00000013	addi	x0,x0,0	  x0:0x00000000
       68815000	      6880	80002874	00000013	addi	x0,x0,0	  x0:0x00000000
       68825000	      6881	80002878	01f69113	slli	x2,x13,0x1f	 x13:0x3de24000  x2=0x00000000
       68835000	      6882	8000287c	678594b7	lui	x9,0x67859	  x9=0x67859000
       68845000	      6883	80002880	22bf42b7	lui	x5,0x22bf4	  x5=0x22bf4000
       68855000	      6884	80002884	40e682b3	sub	x5,x13,x14	 x13:0x3de24000 x14:0x00000001  x5=0x3de23fff
       68865000	      6885	80002888	01519c13	slli	x24,x3,0x15	  x3:0x00000000 x24=0x00000000
       68875000	      6886	8000288c	01f5dbb3	srl	x23,x11,x31	 x11:0xcbb1d7e8 x31:0x00000001 x23=0x65d8ebf4
       68885000	      6887	80002890	2d7f3b13	sltiu	x22,x30,727	 x30:0x00007764 x22=0x00000000
       68895000	      6888	80002894	01983733	sltu	x14,x16,x25	 x16:0x00000000 x25:0xd487f018 x14=0x00000001
       68905000	      6889	80002898	28144cb7	lui	x25,0x28144	 x25=0x28144000
       68915000	      6890	8000289c	79cc3b93	sltiu	x23,x24,1948	 x24:0x00000000 x23=0x00000001
       68925000	      6891	800028a0	7f97d737	lui	x14,0x7f97d	 x14=0x7f97d000
       68935000	      6892	800028a4	004e2c03	lw	x24,4(x28)	 x28:0x80009f18 x24=0x80004160 PA:0x80009f1c
       68945000	      6893	800028a8	60788717	auipc	x14,0x60788	 x14=0xe078a8a4
       68955000	      6894	800028ac	02ce0e13	addi	x28,x28,44	 x28:0x80009f18 x28=0x80009f44
       68965000	      6895	800028b0	50e47293	andi	x5,x8,1294	  x8:0x80009fc4  x5=0x00000504
       68975000	      6896	800028b4	003c3d33	sltu	x26,x24,x3	 x24:0x80004160  x3:0x00000000 x26=0x00000000
       68985000	      6897	800028b8	000c0c93	addi	x25,x24,0	 x24:0x80004160 x25=0x80004160
       68995000	      6898	800028bc	000c8ce7	jalr	x25,x25,0	 x25:0x80004160 x25=0x800028bc
       69005000	      6899	00000000	00000013	addi	x0,x0,0	  x0:0x00000000
       69015000	      6900	80004160	00000013	addi	x0,x0,0	  x0:0x00000000
       69025000	      6901	80004164	00e085b3	add	x11,x1,x14	  x1:0x800027b4 x14:0xe078a8a4 x11=0x6078d058
       69035000	      6902	80004168	039d8263	beq	x27,x25,8000418c	 x27:0x18fb7c00 x25:0x800028bc
       69045000	      6903	8000416c	0143c233	xor	x4,x7,x20	  x7:0xffffff54 x20:0x80009f18  x4=0x7fff604c
       69055000	      6904	80004170	01f38bb3	add	x23,x7,x31	  x7:0xffffff54 x31:0x00000001 x23=0xffffff55
       69065000	      6905	80004174	00f72b33	slt	x22,x14,x15	 x14:0xe078a8a4 x15:0x00000000 x22=0x00000001
       69075000	      6906	80004178	402b5313	srai	x6,x22,0x2	 x22:0x00000001  x6=0x00000000
       69085000	      6907	8000417c	011ca7b3	slt	x15,x25,x17	 x25:0x800028bc x17:0x800027c0 x15=0x00000000
       69095000	      6908	80004180	00be48b3	xor	x17,x28,x11	 x28:0x80009f44 x11:0x6078d058 x17=0xe0784f1c
       69105000	      6909	80004184	0fe5c393	xori	x7,x11,254	 x11:0x6078d058  x7=0x6078d0a6
       69115000	      6910	80004188	41de5213	srai	x4,x28,0x1d	 x28:0x80009f44  x4=0xfffffffc
       69125000	      6911	8000418c	c14fec6f	jal	x24,8000418c	 x24=0x8000418c
       69135000	      6912	00000000	00000013	addi	x0,x0,0	  x0:0x00000000
       69145000	      6913	8000259c	00000013	addi	x0,x0,0	  x0:0x00000000
       69155000	      6914	800025a0	fcce0e13	addi	x28,x28,-52	 x28:0x80009f44 x28=0x80009f10
       69165000	      6915	800025a4	416e5593	srai	x11,x28,0x16	 x28:0x80009f10 x11=0xfffffe00
       69175000	      6916	800025a8	91df8f93	addi	x31,x31,-1763	 x31:0x00000001 x31=0xfffff91e
       69185000	      6917	800025ac	018e2223	sw	x24,4(x28)	 x28:0x80009f10 x24:0x8000418c PA:0x80009f14
       69195000	      6918	800025b0	40215fb3	sra	x31,x2,x2	  x2:0x00000000  x2:0x00000000 x31=0x00000000
       69205000	      6919	800025b4	018af9b3	and	x19,x21,x24	 x21:0x6e231000 x24:0x8000418c x19=0x00000000
       69215000	      6920	800025b8	00b2f3b3	and	x7,x5,x11	  x5:0x00000504 x11:0xfffffe00  x7=0x00000400
       69225000	      6921	800025bc	417a5e93	srai	x29,x20,0x17	 x20:0x80009f18 x29=0xffffff00
       69235000	      6922	800025c0	01e11b33	sll	x22,x2,x30	  x2:0x00000000 x30:0x00007764 x22=0x00000000
       69245000	      6923	800025c4	9aad89b7	lui	x19,0x9aad8	 x19=0x9aad8000
       69255000	      6924	800025c8	c3424313	xori	x6,x4,-972	  x4:0xfffffffc  x6=0x000003c8
       69265000	      6925	800025cc	00c9a133	slt	x2,x19,x12	 x19:0x9aad8000 x12:0x000001cc  x2=0x00000001
       69275000	      6926	800025d0	e60c3b13	sltiu	x22,x24,-416	 x24:0x8000418c x22=0x00000001
       69285000	      6927	800025d4	0478b713	sltiu	x14,x17,71	 x17:0xe0784f1c x14=0x00000000
       69295000	      6928	800025d8	01295663	bge	x18,x18,800025e4	 x18:0x800027b0 x18:0x800027b0
       69305000	      6929	00000000	00000013	addi	x0,x0,0	  x0:0x00000000
       69315000	      6930	800025e0	00000013	addi	x0,x0,0	  x0:0x00000000
       69325000	      6931	800025e4	44000c6f	jal	x24,800025e4	 x24=0x800025e4
       69335000	      6932	00000000	00000013	addi	x0,x0,0	  x0:0x00000000
       69345000	      6933	80002a20	00000013	addi	x0,x0,0	  x0:0x00000000
       69355000	      6934	80002a24	002509b3	add	x19,x10,x2	 x10:0x7e0d7000  x2:0x00000001 x19=0x7e0d7001
       69365000	      6935	80002a28	d5aa3897	auipc	x17,0xd5aa3	 x17=0x55aa5a24
       69375000	      6936	80002a2c	769cfa17	auipc	x20,0x769cf	 x20=0xf69d1a28
       69385000	      6937	80002a30	01d86263	bltu	x16,x29,80002a34	 x16:0x00000000 x29:0xffffff00
       69395000	      6938	00000000	00000013	addi	x0,x0,0	  x0:0x00000000
       69405000	      6939	80002a30	00000013	addi	x0,x0,0	  x0:0x00000000
       69415000	      6940	80002a34	fdce0e13	addi	x28,x28,-36	 x28:0x80009f10 x28=0x80009eec
       69425000	      6941	80002a38	a8da2213	slti	x4,x20,-1395	 x20:0xf69d1a28  x4=0x00000001
       69435000	      6942	80002a3c	50667093	andi	x1,x12,1286	 x12:0x000001cc  x1=0x00000104
       69445000	      6943	80002a40	008ac233	xor	x4,x21,x8	 x21:0x6e231000  x8:0x80009fc4  x4=0xee238fc4
       69455000	      6944	80002a44	0191da33	srl	x20,x3,x25	  x3:0x00000000 x25:0x800028bc x20=0x00000000
       69465000	      6945	80002a48	018e2223	sw	x24,4(x28)	 x28:0x80009eec x24:0x800025e4 PA:0x80009ef0
       69475000	      6946	80002a4c	c2546913	ori	x18,x8,-987	  x8:0x80009fc4 x18=0xffffffe5
       69485000	      6947	80002a50	00800c6f	jal	x24,80002a50	 x24=0x80002a50
       69495000	      6948	00000000	00000013	addi	x0,x0,0	  x0:0x00000000
       69505000	      6949	80002a54	00000013	addi	x0,x0,0	  x0:0x00000000
       69515000	      6950	80002a58	01c00cef	jal	x25,80002a58	 x25=0x80002a58
       69525000	      6951	00000000	00000013	addi	x0,x0,0	  x0:0x00000000
       69535000	      6952	80002a70	00000013	addi	x0,x0,0	  x0:0x00000000
       69545000	      6953	80002a74	00c0036f	jal	x6,80002a74	  x6=0x80002a74
       69555000	      6954	00000000	00000013	addi	x0,x0,0	  x0:0x00000000
       69565000	      6955	80002a7c	00000013	addi	x0,x0,0	  x0:0x00000000
       69575000	      6956	80002a80	fe9ff0ef	jal	x1,80002a80	  x1=0x80002a80
       69585000	      6957	00000000	00000013	addi	x0,x0,0	  x0:0x00000000
       69595000	      6958	80002a64	00000013	addi	x0,x0,0	  x0:0x00000000
       69605000	      6959	80002a68	ff9ff36f	jal	x6,80002a68	  x6=0x80002a68
       69615000	      6960	00000000	00000013	addi	x0,x0,0	  x0:0x00000000
       69625000	      6961	80002a5c	00000013	addi	x0,x0,0	  x0:0x00000000
       69635000	      6962	80002a60	010000ef	jal	x1,80002a60	  x1=0x80002a60
       69645000	      6963	00000000	00000013	addi	x0,x0,0	  x0:0x00000000
       69655000	      6964	80002a6c	00000013	addi	x0,x0,0	  x0:0x00000000
       69665000	      6965	80002a70	ffdff36f	jal	x6,80002a70	  x6=0x80002a70
       69675000	      6966	00000000	00000013	addi	x0,x0,0	  x0:0x00000000
       69685000	      6967	80002a68	00000013	addi	x0,x0,0	  x0:0x00000000
       69695000	      6968	80002a6c	00c00cef	jal	x25,80002a6c	 x25=0x80002a6c
       69705000	      6969	00000000	00000013	addi	x0,x0,0	  x0:0x00000000
       69715000	      6970	80002a74	00000013	addi	x0,x0,0	  x0:0x00000000
       69725000	      6971	80002a78	004000ef	jal	x1,80002a78	  x1=0x80002a78
       69735000	      6972	00000000	00000013	addi	x0,x0,0	  x0:0x00000000
       69745000	      6973	80002a78	00000013	addi	x0,x0,0	  x0:0x00000000
       69755000	      6974	80002a7c	00800def	jal	x27,80002a7c	 x27=0x80002a7c
       69765000	      6975	00000000	00000013	addi	x0,x0,0	  x0:0x00000000
       69775000	      6976	80002a80	00000013	addi	x0,x0,0	  x0:0x00000000
       69785000	      6977	80002a84	fd9fff6f	jal	x30,80002a84	 x30=0x80002a84
       69795000	      6978	00000000	00000013	addi	x0,x0,0	  x0:0x00000000
       69805000	      6979	80002a58	00000013	addi	x0,x0,0	  x0:0x00000000
       69815000	      6980	80002a5c	ff9ff56f	jal	x10,80002a5c	 x10=0x80002a5c
       69825000	      6981	00000000	00000013	addi	x0,x0,0	  x0:0x00000000
       69835000	      6982	80002a50	00000013	addi	x0,x0,0	  x0:0x00000000
       69845000	      6983	80002a54	010000ef	jal	x1,80002a54	  x1=0x80002a54
       69855000	      6984	00000000	00000013	addi	x0,x0,0	  x0:0x00000000
       69865000	      6985	80002a60	00000013	addi	x0,x0,0	  x0:0x00000000
       69875000	      6986	80002a64	0240026f	jal	x4,80002a64	  x4=0x80002a64
       69885000	      6987	00000000	00000013	addi	x0,x0,0	  x0:0x00000000
       69895000	      6988	80002a84	00000013	addi	x0,x0,0	  x0:0x00000000
       69905000	      6989	80002a88	ca584097	auipc	x1,0xca584	  x1=0x4a586a84
       69915000	      6990	80002a8c	04c00c6f	jal	x24,80002a8c	 x24=0x80002a8c
       69925000	      6991	00000000	00000013	addi	x0,x0,0	  x0:0x00000000
       69935000	      6992	80002ad4	00000013	addi	x0,x0,0	  x0:0x00000000
       69945000	      6993	80002ad8	018007ef	jal	x15,80002ad8	 x15=0x80002ad8
       69955000	      6994	00000000	00000013	addi	x0,x0,0	  x0:0x00000000
       69965000	      6995	80002aec	00000013	addi	x0,x0,0	  x0:0x00000000
       69975000	      6996	80002af0	0040096f	jal	x18,80002af0	 x18=0x80002af0
       69985000	      6997	00000000	00000013	addi	x0,x0,0	  x0:0x00000000
       69995000	      6998	80002af0	00000013	addi	x0,x0,0	  x0:0x00000000
       70005000	      6999	80002af4	008000ef	jal	x1,80002af4	  x1=0x80002af4
       70015000	      7000	00000000	00000013	addi	x0,x0,0	  x0:0x00000000
       70025000	      7001	80002af8	00000013	addi	x0,x0,0	  x0:0x00000000
       70035000	      7002	80002afc	fd1ff0ef	jal	x1,80002afc	  x1=0x80002afc
       70045000	      7003	00000000	00000013	addi	x0,x0,0	  x0:0x00000000
       70055000	      7004	80002ac8	00000013	addi	x0,x0,0	  x0:0x00000000
       70065000	      7005	80002acc	fe9ff36f	jal	x6,80002acc	  x6=0x80002acc
       70075000	      7006	00000000	00000013	addi	x0,x0,0	  x0:0x00000000
       70085000	      7007	80002ab0	00000013	addi	x0,x0,0	  x0:0x00000000
       70095000	      7008	80002ab4	ffdff26f	jal	x4,80002ab4	  x4=0x80002ab4
       70105000	      7009	00000000	00000013	addi	x0,x0,0	  x0:0x00000000
       70115000	      7010	80002aac	00000013	addi	x0,x0,0	  x0:0x00000000
       70125000	      7011	80002ab0	fe9ffbef	jal	x23,80002ab0	 x23=0x80002ab0
       70135000	      7012	00000000	00000013	addi	x0,x0,0	  x0:0x00000000
       70145000	      7013	80002a94	00000013	addi	x0,x0,0	  x0:0x00000000
       70155000	      7014	80002a98	038001ef	jal	x3,80002a98	  x3=0x80002a98
       70165000	      7015	00000000	00000013	addi	x0,x0,0	  x0:0x00000000
       70175000	      7016	80002acc	00000013	addi	x0,x0,0	  x0:0x00000000
       70185000	      7017	80002ad0	0140036f	jal	x6,80002ad0	  x6=0x80002ad0
       70195000	      7018	00000000	00000013	addi	x0,x0,0	  x0:0x00000000
       70205000	      7019	80002ae0	00000013	addi	x0,x0,0	  x0:0x00000000
       70215000	      7020	80002ae4	004000ef	jal	x1,80002ae4	  x1=0x80002ae4
       70225000	      7021	00000000	00000013	addi	x0,x0,0	  x0:0x00000000
       70235000	      7022	80002ae4	00000013	addi	x0,x0,0	  x0:0x00000000
       70245000	      7023	80002ae8	fc5ff0ef	jal	x1,80002ae8	  x1=0x80002ae8
       70255000	      7024	00000000	00000013	addi	x0,x0,0	  x0:0x00000000
       70265000	      7025	80002aa8	00000013	addi	x0,x0,0	  x0:0x00000000
       70275000	      7026	80002aac	04c00bef	jal	x23,80002aac	 x23=0x80002aac
       70285000	      7027	00000000	00000013	addi	x0,x0,0	  x0:0x00000000
       70295000	      7028	80002af4	00000013	addi	x0,x0,0	  x0:0x00000000
       70305000	      7029	80002af8	f99ff5ef	jal	x11,80002af8	 x11=0x80002af8
       70315000	      7030	00000000	00000013	addi	x0,x0,0	  x0:0x00000000
       70325000	      7031	80002a8c	00000013	addi	x0,x0,0	  x0:0x00000000
       70335000	      7032	80002a90	010000ef	jal	x1,80002a90	  x1=0x80002a90
       70345000	      7033	00000000	00000013	addi	x0,x0,0	  x0:0x00000000
       70355000	      7034	80002a9c	00000013	addi	x0,x0,0	  x0:0x00000000
       70365000	      7035	80002aa0	04c000ef	jal	x1,80002aa0	  x1=0x80002aa0
       70375000	      7036	00000000	00000013	addi	x0,x0,0	  x0:0x00000000
       70385000	      7037	80002ae8	00000013	addi	x0,x0,0	  x0:0x00000000
       70395000	      7038	80002aec	fb9ff36f	jal	x6,80002aec	  x6=0x80002aec
       70405000	      7039	00000000	00000013	addi	x0,x0,0	  x0:0x00000000
       70415000	      7040	80002aa0	00000013	addi	x0,x0,0	  x0:0x00000000
       70425000	      7041	80002aa4	ff9ff36f	jal	x6,80002aa4	  x6=0x80002aa4
       70435000	      7042	00000000	00000013	addi	x0,x0,0	  x0:0x00000000
       70445000	      7043	80002a98	00000013	addi	x0,x0,0	  x0:0x00000000
       70455000	      7044	80002a9c	024001ef	jal	x3,80002a9c	  x3=0x80002a9c
       70465000	      7045	00000000	00000013	addi	x0,x0,0	  x0:0x00000000
       70475000	      7046	80002abc	00000013	addi	x0,x0,0	  x0:0x00000000
       70485000	      7047	80002ac0	020000ef	jal	x1,80002ac0	  x1=0x80002ac0
       70495000	      7048	00000000	00000013	addi	x0,x0,0	  x0:0x00000000
       70505000	      7049	80002adc	00000013	addi	x0,x0,0	  x0:0x00000000
       70515000	      7050	80002ae0	fe9ff36f	jal	x6,80002ae0	  x6=0x80002ae0
       70525000	      7051	00000000	00000013	addi	x0,x0,0	  x0:0x00000000
       70535000	      7052	80002ac4	00000013	addi	x0,x0,0	  x0:0x00000000
       70545000	      7053	80002ac8	ff5ff36f	jal	x6,80002ac8	  x6=0x80002ac8
       70555000	      7054	00000000	00000013	addi	x0,x0,0	  x0:0x00000000
       70565000	      7055	80002ab8	00000013	addi	x0,x0,0	  x0:0x00000000
       70575000	      7056	80002abc	ffdff0ef	jal	x1,80002abc	  x1=0x80002abc
       70585000	      7057	00000000	00000013	addi	x0,x0,0	  x0:0x00000000
       70595000	      7058	80002ab4	00000013	addi	x0,x0,0	  x0:0x00000000
       70605000	      7059	80002ab8	01c000ef	jal	x1,80002ab8	  x1=0x80002ab8
       70615000	      7060	00000000	00000013	addi	x0,x0,0	  x0:0x00000000
       70625000	      7061	80002ad0	00000013	addi	x0,x0,0	  x0:0x00000000
       70635000	      7062	80002ad4	ff1ff0ef	jal	x1,80002ad4	  x1=0x80002ad4
       70645000	      7063	00000000	00000013	addi	x0,x0,0	  x0:0x00000000
       70655000	      7064	80002ac0	00000013	addi	x0,x0,0	  x0:0x00000000
       70665000	      7065	80002ac4	018000ef	jal	x1,80002ac4	  x1=0x80002ac4
       70675000	      7066	00000000	00000013	addi	x0,x0,0	  x0:0x00000000
       70685000	      7067	80002ad8	00000013	addi	x0,x0,0	  x0:0x00000000
       70695000	      7068	80002adc	fcdff36f	jal	x6,80002adc	  x6=0x80002adc
       70705000	      7069	00000000	00000013	addi	x0,x0,0	  x0:0x00000000
       70715000	      7070	80002aa4	00000013	addi	x0,x0,0	  x0:0x00000000
       70725000	      7071	80002aa8	fedff0ef	jal	x1,80002aa8	  x1=0x80002aa8
       70735000	      7072	00000000	00000013	addi	x0,x0,0	  x0:0x00000000
       70745000	      7073	80002a90	00000013	addi	x0,x0,0	  x0:0x00000000
       70755000	      7074	80002a94	06c000ef	jal	x1,80002a94	  x1=0x80002a94
       70765000	      7075	00000000	00000013	addi	x0,x0,0	  x0:0x00000000
       70775000	      7076	80002afc	00000013	addi	x0,x0,0	  x0:0x00000000
       70785000	      7077	80002b00	f9edea13	ori	x20,x27,-98	 x27:0x80002a7c x20=0xfffffffe
       70795000	      7078	80002b04	02400c6f	jal	x24,80002b04	 x24=0x80002b04
       70805000	      7079	00000000	00000013	addi	x0,x0,0	  x0:0x00000000
       70815000	      7080	80002b24	00000013	addi	x0,x0,0	  x0:0x00000000
       70825000	      7081	80002b28	028000ef	jal	x1,80002b28	  x1=0x80002b28
       70835000	      7082	00000000	00000013	addi	x0,x0,0	  x0:0x00000000
       70845000	      7083	80002b4c	00000013	addi	x0,x0,0	  x0:0x00000000
       70855000	      7084	80002b50	ffdff0ef	jal	x1,80002b50	  x1=0x80002b50
       70865000	      7085	00000000	00000013	addi	x0,x0,0	  x0:0x00000000
       70875000	      7086	80002b48	00000013	addi	x0,x0,0	  x0:0x00000000
       70885000	      7087	80002b4c	fe5ff0ef	jal	x1,80002b4c	  x1=0x80002b4c
       70895000	      7088	00000000	00000013	addi	x0,x0,0	  x0:0x00000000
       70905000	      7089	80002b2c	00000013	addi	x0,x0,0	  x0:0x00000000
       70915000	      7090	80002b30	ffdff0ef	jal	x1,80002b30	  x1=0x80002b30
       70925000	      7091	00000000	00000013	addi	x0,x0,0	  x0:0x00000000
       70935000	      7092	80002b28	00000013	addi	x0,x0,0	  x0:0x00000000
       70945000	      7093	80002b2c	01800eef	jal	x29,80002b2c	 x29=0x80002b2c
       70955000	      7094	00000000	00000013	addi	x0,x0,0	  x0:0x00000000
       70965000	      7095	80002b40	00000013	addi	x0,x0,0	  x0:0x00000000
       70975000	      7096	80002b44	fddff3ef	jal	x7,80002b44	  x7=0x80002b44
       70985000	      7097	00000000	00000013	addi	x0,x0,0	  x0:0x00000000
       70995000	      7098	80002b1c	00000013	addi	x0,x0,0	  x0:0x00000000
       71005000	      7099	80002b20	ff1ff4ef	jal	x9,80002b20	  x9=0x80002b20
       71015000	      7100	00000000	00000013	addi	x0,x0,0	  x0:0x00000000
       71025000	      7101	80002b0c	00000013	addi	x0,x0,0	  x0:0x00000000
       71035000	      7102	80002b10	024000ef	jal	x1,80002b10	  x1=0x80002b10
       71045000	      7103	00000000	00000013	addi	x0,x0,0	  x0:0x00000000
       71055000	      7104	80002b30	00000013	addi	x0,x0,0	  x0:0x00000000
       71065000	      7105	80002b34	014000ef	jal	x1,80002b34	  x1=0x80002b34
       71075000	      7106	00000000	00000013	addi	x0,x0,0	  x0:0x00000000
       71085000	      7107	80002b44	00000013	addi	x0,x0,0	  x0:0x00000000
       71095000	      7108	80002b48	ff9ff0ef	jal	x1,80002b48	  x1=0x80002b48
       71105000	      7109	00000000	00000013	addi	x0,x0,0	  x0:0x00000000
       71115000	      7110	80002b3c	00000013	addi	x0,x0,0	  x0:0x00000000
       71125000	      7111	80002b40	fcdffcef	jal	x25,80002b40	 x25=0x80002b40
       71135000	      7112	00000000	00000013	addi	x0,x0,0	  x0:0x00000000
       71145000	      7113	80002b08	00000013	addi	x0,x0,0	  x0:0x00000000
       71155000	      7114	80002b0c	05c0036f	jal	x6,80002b0c	  x6=0x80002b0c
       71165000	      7115	00000000	00000013	addi	x0,x0,0	  x0:0x00000000
       71175000	      7116	80002b64	00000013	addi	x0,x0,0	  x0:0x00000000
       71185000	      7117	80002b68	ff9ff7ef	jal	x15,80002b68	 x15=0x80002b68
       71195000	      7118	00000000	00000013	addi	x0,x0,0	  x0:0x00000000
       71205000	      7119	80002b5c	00000013	addi	x0,x0,0	  x0:0x00000000
       71215000	      7120	80002b60	fd9ff0ef	jal	x1,80002b60	  x1=0x80002b60
       71225000	      7121	00000000	00000013	addi	x0,x0,0	  x0:0x00000000
       71235000	      7122	80002b34	00000013	addi	x0,x0,0	  x0:0x00000000
       71245000	      7123	80002b38	01c0036f	jal	x6,80002b38	  x6=0x80002b38
       71255000	      7124	00000000	00000013	addi	x0,x0,0	  x0:0x00000000
       71265000	      7125	80002b50	00000013	addi	x0,x0,0	  x0:0x00000000
       71275000	      7126	80002b54	fb5ff0ef	jal	x1,80002b54	  x1=0x80002b54
       71285000	      7127	00000000	00000013	addi	x0,x0,0	  x0:0x00000000
       71295000	      7128	80002b04	00000013	addi	x0,x0,0	  x0:0x00000000
       71305000	      7129	80002b08	00c000ef	jal	x1,80002b08	  x1=0x80002b08
       71315000	      7130	00000000	00000013	addi	x0,x0,0	  x0:0x00000000
       71325000	      7131	80002b10	00000013	addi	x0,x0,0	  x0:0x00000000
       71335000	      7132	80002b14	00800b6f	jal	x22,80002b14	 x22=0x80002b14
       71345000	      7133	00000000	00000013	addi	x0,x0,0	  x0:0x00000000
       71355000	      7134	80002b18	00000013	addi	x0,x0,0	  x0:0x00000000
       71365000	      7135	80002b1c	048004ef	jal	x9,80002b1c	  x9=0x80002b1c
       71375000	      7136	00000000	00000013	addi	x0,x0,0	  x0:0x00000000
       71385000	      7137	80002b60	00000013	addi	x0,x0,0	  x0:0x00000000
       71395000	      7138	80002b64	fd9ff0ef	jal	x1,80002b64	  x1=0x80002b64
       71405000	      7139	00000000	00000013	addi	x0,x0,0	  x0:0x00000000
       71415000	      7140	80002b38	00000013	addi	x0,x0,0	  x0:0x00000000
       71425000	      7141	80002b3c	020006ef	jal	x13,80002b3c	 x13=0x80002b3c
       71435000	      7142	00000000	00000013	addi	x0,x0,0	  x0:0x00000000
       71445000	      7143	80002b58	00000013	addi	x0,x0,0	  x0:0x00000000
       71455000	      7144	80002b5c	ffdff9ef	jal	x19,80002b5c	 x19=0x80002b5c
       71465000	      7145	00000000	00000013	addi	x0,x0,0	  x0:0x00000000
       71475000	      7146	80002b54	00000013	addi	x0,x0,0	  x0:0x00000000
       71485000	      7147	80002b58	fcdff8ef	jal	x17,80002b58	 x17=0x80002b58
       71495000	      7148	00000000	00000013	addi	x0,x0,0	  x0:0x00000000
       71505000	      7149	80002b20	00000013	addi	x0,x0,0	  x0:0x00000000
       71515000	      7150	80002b24	ff5ff0ef	jal	x1,80002b24	  x1=0x80002b24
       71525000	      7151	00000000	00000013	addi	x0,x0,0	  x0:0x00000000
       71535000	      7152	80002b14	00000013	addi	x0,x0,0	  x0:0x00000000
       71545000	      7153	80002b18	054000ef	jal	x1,80002b18	  x1=0x80002b18
       71555000	      7154	00000000	00000013	addi	x0,x0,0	  x0:0x00000000
       71565000	      7155	80002b68	00000013	addi	x0,x0,0	  x0:0x00000000
       71575000	      7156	80002b6c	00aa9213	slli	x4,x21,0xa	 x21:0x6e231000  x4=0x8c400000
       71585000	      7157	80002b70	03c00c6f	jal	x24,80002b70	 x24=0x80002b70
       71595000	      7158	00000000	00000013	addi	x0,x0,0	  x0:0x00000000
       71605000	      7159	80002ba8	00000013	addi	x0,x0,0	  x0:0x00000000
       71615000	      7160	80002bac	fd1ff8ef	jal	x17,80002bac	 x17=0x80002bac
       71625000	      7161	00000000	00000013	addi	x0,x0,0	  x0:0x00000000
       71635000	      7162	80002b78	00000013	addi	x0,x0,0	  x0:0x00000000
       71645000	      7163	80002b7c	0400016f	jal	x2,80002b7c	  x2=0x80002b7c
       71655000	      7164	00000000	00000013	addi	x0,x0,0	  x0:0x00000000
       71665000	      7165	80002bb8	00000013	addi	x0,x0,0	  x0:0x00000000
       71675000	      7166	80002bbc	fbdff36f	jal	x6,80002bbc	  x6=0x80002bbc
       71685000	      7167	00000000	00000013	addi	x0,x0,0	  x0:0x00000000
       71695000	      7168	80002b74	00000013	addi	x0,x0,0	  x0:0x00000000
       71705000	      7169	80002b78	014000ef	jal	x1,80002b78	  x1=0x80002b78
       71715000	      7170	00000000	00000013	addi	x0,x0,0	  x0:0x00000000
       71725000	      7171	80002b88	00000013	addi	x0,x0,0	  x0:0x00000000
       71735000	      7172	80002b8c	fe9ff66f	jal	x12,80002b8c	 x12=0x80002b8c
       71745000	      7173	00000000	00000013	addi	x0,x0,0	  x0:0x00000000
       71755000	      7174	80002b70	00000013	addi	x0,x0,0	  x0:0x00000000
       71765000	      7175	80002b74	010000ef	jal	x1,80002b74	  x1=0x80002b74
       71775000	      7176	00000000	00000013	addi	x0,x0,0	  x0:0x00000000
       71785000	      7177	80002b80	00000013	addi	x0,x0,0	  x0:0x00000000
       71795000	      7178	80002b84	030000ef	jal	x1,80002b84	  x1=0x80002b84
       71805000	      7179	00000000	00000013	addi	x0,x0,0	  x0:0x00000000
       71815000	      7180	80002bb0	00000013	addi	x0,x0,0	  x0:0x00000000
       71825000	      7181	80002bb4	ff5ff36f	jal	x6,80002bb4	  x6=0x80002bb4
       71835000	      7182	00000000	00000013	addi	x0,x0,0	  x0:0x00000000
       71845000	      7183	80002ba4	00000013	addi	x0,x0,0	  x0:0x00000000
       71855000	      7184	80002ba8	ff5ff4ef	jal	x9,80002ba8	  x9=0x80002ba8
       71865000	      7185	00000000	00000013	addi	x0,x0,0	  x0:0x00000000
       71875000	      7186	80002b98	00000013	addi	x0,x0,0	  x0:0x00000000
       71885000	      7187	80002b9c	01c000ef	jal	x1,80002b9c	  x1=0x80002b9c
       71895000	      7188	00000000	00000013	addi	x0,x0,0	  x0:0x00000000
       71905000	      7189	80002bb4	00000013	addi	x0,x0,0	  x0:0x00000000
       71915000	      7190	80002bb8	fe9ff0ef	jal	x1,80002bb8	  x1=0x80002bb8
       71925000	      7191	00000000	00000013	addi	x0,x0,0	  x0:0x00000000
       71935000	      7192	80002b9c	00000013	addi	x0,x0,0	  x0:0x00000000
       71945000	      7193	80002ba0	ff1ff0ef	jal	x1,80002ba0	  x1=0x80002ba0
       71955000	      7194	00000000	00000013	addi	x0,x0,0	  x0:0x00000000
       71965000	      7195	80002b8c	00000013	addi	x0,x0,0	  x0:0x00000000
       71975000	      7196	80002b90	034000ef	jal	x1,80002b90	  x1=0x80002b90
       71985000	      7197	00000000	00000013	addi	x0,x0,0	  x0:0x00000000
       71995000	      7198	80002bc0	00000013	addi	x0,x0,0	  x0:0x00000000
       72005000	      7199	80002bc4	fd5ff36f	jal	x6,80002bc4	  x6=0x80002bc4
       72015000	      7200	00000000	00000013	addi	x0,x0,0	  x0:0x00000000
       72025000	      7201	80002b94	00000013	addi	x0,x0,0	  x0:0x00000000
       72035000	      7202	80002b98	fe9ff0ef	jal	x1,80002b98	  x1=0x80002b98
       72045000	      7203	00000000	00000013	addi	x0,x0,0	  x0:0x00000000
       72055000	      7204	80002b7c	00000013	addi	x0,x0,0	  x0:0x00000000
       72065000	      7205	80002b80	008000ef	jal	x1,80002b80	  x1=0x80002b80
       72075000	      7206	00000000	00000013	addi	x0,x0,0	  x0:0x00000000
       72085000	      7207	80002b84	00000013	addi	x0,x0,0	  x0:0x00000000
       72095000	      7208	80002b88	01c000ef	jal	x1,80002b88	  x1=0x80002b88
       72105000	      7209	00000000	00000013	addi	x0,x0,0	  x0:0x00000000
       72115000	      7210	80002ba0	00000013	addi	x0,x0,0	  x0:0x00000000
       72125000	      7211	80002ba4	ff1ff0ef	jal	x1,80002ba4	  x1=0x80002ba4
       72135000	      7212	00000000	00000013	addi	x0,x0,0	  x0:0x00000000
       72145000	      7213	80002b90	00000013	addi	x0,x0,0	  x0:0x00000000
       72155000	      7214	80002b94	02c0036f	jal	x6,80002b94	  x6=0x80002b94
       72165000	      7215	00000000	00000013	addi	x0,x0,0	  x0:0x00000000
       72175000	      7216	80002bbc	00000013	addi	x0,x0,0	  x0:0x00000000
       72185000	      7217	80002bc0	ff1fff6f	jal	x30,80002bc0	 x30=0x80002bc0
       72195000	      7218	00000000	00000013	addi	x0,x0,0	  x0:0x00000000
       72205000	      7219	80002bac	00000013	addi	x0,x0,0	  x0:0x00000000
       72215000	      7220	80002bb0	018000ef	jal	x1,80002bb0	  x1=0x80002bb0
       72225000	      7221	00000000	00000013	addi	x0,x0,0	  x0:0x00000000
       72235000	      7222	80002bc4	00000013	addi	x0,x0,0	  x0:0x00000000
       72245000	      7223	80002bc8	49d47993	andi	x19,x8,1181	  x8:0x80009fc4 x19=0x00000484
       72255000	      7224	80002bcc	02000c6f	jal	x24,80002bcc	 x24=0x80002bcc
       72265000	      7225	00000000	00000013	addi	x0,x0,0	  x0:0x00000000
       72275000	      7226	80002be8	00000013	addi	x0,x0,0	  x0:0x00000000
       72285000	      7227	80002bec	ff5ff36f	jal	x6,80002bec	  x6=0x80002bec
       72295000	      7228	00000000	00000013	addi	x0,x0,0	  x0:0x00000000
       72305000	      7229	80002bdc	00000013	addi	x0,x0,0	  x0:0x00000000
       72315000	      7230	80002be0	ff1ff36f	jal	x6,80002be0	  x6=0x80002be0
       72325000	      7231	00000000	00000013	addi	x0,x0,0	  x0:0x00000000
       72335000	      7232	80002bcc	00000013	addi	x0,x0,0	  x0:0x00000000
       72345000	      7233	80002bd0	004000ef	jal	x1,80002bd0	  x1=0x80002bd0
       72355000	      7234	00000000	00000013	addi	x0,x0,0	  x0:0x00000000
       72365000	      7235	80002bd0	00000013	addi	x0,x0,0	  x0:0x00000000
       72375000	      7236	80002bd4	02c0076f	jal	x14,80002bd4	 x14=0x80002bd4
       72385000	      7237	00000000	00000013	addi	x0,x0,0	  x0:0x00000000
       72395000	      7238	80002bfc	00000013	addi	x0,x0,0	  x0:0x00000000
       72405000	      7239	80002c00	ff1ff36f	jal	x6,80002c00	  x6=0x80002c00
       72415000	      7240	00000000	00000013	addi	x0,x0,0	  x0:0x00000000
       72425000	      7241	80002bec	00000013	addi	x0,x0,0	  x0:0x00000000
       72435000	      7242	80002bf0	fe9ff0ef	jal	x1,80002bf0	  x1=0x80002bf0
       72445000	      7243	00000000	00000013	addi	x0,x0,0	  x0:0x00000000
       72455000	      7244	80002bd4	00000013	addi	x0,x0,0	  x0:0x00000000
       72465000	      7245	80002bd8	024000ef	jal	x1,80002bd8	  x1=0x80002bd8
       72475000	      7246	00000000	00000013	addi	x0,x0,0	  x0:0x00000000
       72485000	      7247	80002bf8	00000013	addi	x0,x0,0	  x0:0x00000000
       72495000	      7248	80002bfc	fe9ff0ef	jal	x1,80002bfc	  x1=0x80002bfc
       72505000	      7249	00000000	00000013	addi	x0,x0,0	  x0:0x00000000
       72515000	      7250	80002be0	00000013	addi	x0,x0,0	  x0:0x00000000
       72525000	      7251	80002be4	020000ef	jal	x1,80002be4	  x1=0x80002be4
       72535000	      7252	00000000	00000013	addi	x0,x0,0	  x0:0x00000000
       72545000	      7253	80002c00	00000013	addi	x0,x0,0	  x0:0x00000000
       72555000	      7254	80002c04	ff5ff0ef	jal	x1,80002c04	  x1=0x80002c04
       72565000	      7255	00000000	00000013	addi	x0,x0,0	  x0:0x00000000
       72575000	      7256	80002bf4	00000013	addi	x0,x0,0	  x0:0x00000000
       72585000	      7257	80002bf8	ffdff26f	jal	x4,80002bf8	  x4=0x80002bf8
       72595000	      7258	00000000	00000013	addi	x0,x0,0	  x0:0x00000000
       72605000	      7259	80002bf0	00000013	addi	x0,x0,0	  x0:0x00000000
       72615000	      7260	80002bf4	fe9ff0ef	jal	x1,80002bf4	  x1=0x80002bf4
       72625000	      7261	00000000	00000013	addi	x0,x0,0	  x0:0x00000000
       72635000	      7262	80002bd8	00000013	addi	x0,x0,0	  x0:0x00000000
       72645000	      7263	80002bdc	00c0036f	jal	x6,80002bdc	  x6=0x80002bdc
       72655000	      7264	00000000	00000013	addi	x0,x0,0	  x0:0x00000000
       72665000	      7265	80002be4	00000013	addi	x0,x0,0	  x0:0x00000000
       72675000	      7266	80002be8	020000ef	jal	x1,80002be8	  x1=0x80002be8
       72685000	      7267	00000000	00000013	addi	x0,x0,0	  x0:0x00000000
       72695000	      7268	80002c04	00000013	addi	x0,x0,0	  x0:0x00000000
       72705000	      7269	80002c08	00000013	addi	x0,x0,0	  x0:0x00000000
       72715000	      7270	80002c0c	00400c6f	jal	x24,80002c0c	 x24=0x80002c0c
       72725000	      7271	00000000	00000013	addi	x0,x0,0	  x0:0x00000000
       72735000	      7272	80002c0c	00000013	addi	x0,x0,0	  x0:0x00000000
       72745000	      7273	80002c10	024001ef	jal	x3,80002c10	  x3=0x80002c10
       72755000	      7274	00000000	00000013	addi	x0,x0,0	  x0:0x00000000
       72765000	      7275	80002c30	00000013	addi	x0,x0,0	  x0:0x00000000
       72775000	      7276	80002c34	ff5ff0ef	jal	x1,80002c34	  x1=0x80002c34
       72785000	      7277	00000000	00000013	addi	x0,x0,0	  x0:0x00000000
       72795000	      7278	80002c24	00000013	addi	x0,x0,0	  x0:0x00000000
       72805000	      7279	80002c28	008000ef	jal	x1,80002c28	  x1=0x80002c28
       72815000	      7280	00000000	00000013	addi	x0,x0,0	  x0:0x00000000
       72825000	      7281	80002c2c	00000013	addi	x0,x0,0	  x0:0x00000000
       72835000	      7282	80002c30	ffdff36f	jal	x6,80002c30	  x6=0x80002c30
       72845000	      7283	00000000	00000013	addi	x0,x0,0	  x0:0x00000000
       72855000	      7284	80002c28	00000013	addi	x0,x0,0	  x0:0x00000000
       72865000	      7285	80002c2c	ff1ff0ef	jal	x1,80002c2c	  x1=0x80002c2c
       72875000	      7286	00000000	00000013	addi	x0,x0,0	  x0:0x00000000
       72885000	      7287	80002c18	00000013	addi	x0,x0,0	  x0:0x00000000
       72895000	      7288	80002c1c	008002ef	jal	x5,80002c1c	  x5=0x80002c1c
       72905000	      7289	00000000	00000013	addi	x0,x0,0	  x0:0x00000000
       72915000	      7290	80002c20	00000013	addi	x0,x0,0	  x0:0x00000000
       72925000	      7291	80002c24	ffdff2ef	jal	x5,80002c24	  x5=0x80002c24
       72935000	      7292	00000000	00000013	addi	x0,x0,0	  x0:0x00000000
       72945000	      7293	80002c1c	00000013	addi	x0,x0,0	  x0:0x00000000
       72955000	      7294	80002c20	ff5ff0ef	jal	x1,80002c20	  x1=0x80002c20
       72965000	      7295	00000000	00000013	addi	x0,x0,0	  x0:0x00000000
       72975000	      7296	80002c10	00000013	addi	x0,x0,0	  x0:0x00000000
       72985000	      7297	80002c14	0040036f	jal	x6,80002c14	  x6=0x80002c14
       72995000	      7298	00000000	00000013	addi	x0,x0,0	  x0:0x00000000
       73005000	      7299	80002c14	00000013	addi	x0,x0,0	  x0:0x00000000
       73015000	      7300	80002c18	020002ef	jal	x5,80002c18	  x5=0x80002c18
       73025000	      7301	00000000	00000013	addi	x0,x0,0	  x0:0x00000000
       73035000	      7302	80002c34	00000013	addi	x0,x0,0	  x0:0x00000000
       73045000	      7303	80002c38	01aa0ab3	add	x21,x20,x26	 x20:0xfffffffe x26:0x00000000 x21=0xfffffffe
       73055000	      7304	80002c3c	00c00c6f	jal	x24,80002c3c	 x24=0x80002c3c
       73065000	      7305	00000000	00000013	addi	x0,x0,0	  x0:0x00000000
       73075000	      7306	80002c44	00000013	addi	x0,x0,0	  x0:0x00000000
       73085000	      7307	80002c48	028000ef	jal	x1,80002c48	  x1=0x80002c48
       73095000	      7308	00000000	00000013	addi	x0,x0,0	  x0:0x00000000
       73105000	      7309	80002c6c	00000013	addi	x0,x0,0	  x0:0x00000000
       73115000	      7310	80002c70	008001ef	jal	x3,80002c70	  x3=0x80002c70
       73125000	      7311	00000000	00000013	addi	x0,x0,0	  x0:0x00000000
       73135000	      7312	80002c74	00000013	addi	x0,x0,0	  x0:0x00000000
       73145000	      7313	80002c78	fcdff36f	jal	x6,80002c78	  x6=0x80002c78
       73155000	      7314	00000000	00000013	addi	x0,x0,0	  x0:0x00000000
       73165000	      7315	80002c40	00000013	addi	x0,x0,0	  x0:0x00000000
       73175000	      7316	80002c44	010000ef	jal	x1,80002c44	  x1=0x80002c44
       73185000	      7317	00000000	00000013	addi	x0,x0,0	  x0:0x00000000
       73195000	      7318	80002c50	00000013	addi	x0,x0,0	  x0:0x00000000
       73205000	      7319	80002c54	00c0016f	jal	x2,80002c54	  x2=0x80002c54
       73215000	      7320	00000000	00000013	addi	x0,x0,0	  x0:0x00000000
       73225000	      7321	80002c5c	00000013	addi	x0,x0,0	  x0:0x00000000
       73235000	      7322	80002c60	ffdff0ef	jal	x1,80002c60	  x1=0x80002c60
       73245000	      7323	00000000	00000013	addi	x0,x0,0	  x0:0x00000000
       73255000	      7324	80002c58	00000013	addi	x0,x0,0	  x0:0x00000000
       73265000	      7325	80002c5c	0200036f	jal	x6,80002c5c	  x6=0x80002c5c
       73275000	      7326	00000000	00000013	addi	x0,x0,0	  x0:0x00000000
       73285000	      7327	80002c78	00000013	addi	x0,x0,0	  x0:0x00000000
       73295000	      7328	80002c7c	fd1ff66f	jal	x12,80002c7c	 x12=0x80002c7c
       73305000	      7329	00000000	00000013	addi	x0,x0,0	  x0:0x00000000
       73315000	      7330	80002c48	00000013	addi	x0,x0,0	  x0:0x00000000
       73325000	      7331	80002c4c	0180036f	jal	x6,80002c4c	  x6=0x80002c4c
       73335000	      7332	00000000	00000013	addi	x0,x0,0	  x0:0x00000000
       73345000	      7333	80002c60	00000013	addi	x0,x0,0	  x0:0x00000000
       73355000	      7334	80002c64	ff5ff0ef	jal	x1,80002c64	  x1=0x80002c64
       73365000	      7335	00000000	00000013	addi	x0,x0,0	  x0:0x00000000
       73375000	      7336	80002c54	00000013	addi	x0,x0,0	  x0:0x00000000
       73385000	      7337	80002c58	01000d6f	jal	x26,80002c58	 x26=0x80002c58
       73395000	      7338	00000000	00000013	addi	x0,x0,0	  x0:0x00000000
       73405000	      7339	80002c64	00000013	addi	x0,x0,0	  x0:0x00000000
       73415000	      7340	80002c68	004000ef	jal	x1,80002c68	  x1=0x80002c68
       73425000	      7341	00000000	00000013	addi	x0,x0,0	  x0:0x00000000
       73435000	      7342	80002c68	00000013	addi	x0,x0,0	  x0:0x00000000
       73445000	      7343	80002c6c	fd5ff0ef	jal	x1,80002c6c	  x1=0x80002c6c
       73455000	      7344	00000000	00000013	addi	x0,x0,0	  x0:0x00000000
       73465000	      7345	80002c3c	00000013	addi	x0,x0,0	  x0:0x00000000
       73475000	      7346	80002c40	010000ef	jal	x1,80002c40	  x1=0x80002c40
       73485000	      7347	00000000	00000013	addi	x0,x0,0	  x0:0x00000000
       73495000	      7348	80002c4c	00000013	addi	x0,x0,0	  x0:0x00000000
       73505000	      7349	80002c50	024000ef	jal	x1,80002c50	  x1=0x80002c50
       73515000	      7350	00000000	00000013	addi	x0,x0,0	  x0:0x00000000
       73525000	      7351	80002c70	00000013	addi	x0,x0,0	  x0:0x00000000
       73535000	      7352	80002c74	00c0016f	jal	x2,80002c74	  x2=0x80002c74
       73545000	      7353	00000000	00000013	addi	x0,x0,0	  x0:0x00000000
       73555000	      7354	80002c7c	00000013	addi	x0,x0,0	  x0:0x00000000
       73565000	      7355	80002c80	9005af13	slti	x30,x11,-1792	 x11:0x80002af8 x30=0x00000001
       73575000	      7356	80002c84	03000c6f	jal	x24,80002c84	 x24=0x80002c84
       73585000	      7357	00000000	00000013	addi	x0,x0,0	  x0:0x00000000
       73595000	      7358	80002cb0	00000013	addi	x0,x0,0	  x0:0x00000000
       73605000	      7359	80002cb4	fe1ff36f	jal	x6,80002cb4	  x6=0x80002cb4
       73615000	      7360	00000000	00000013	addi	x0,x0,0	  x0:0x00000000
       73625000	      7361	80002c90	00000013	addi	x0,x0,0	  x0:0x00000000
       73635000	      7362	80002c94	024000ef	jal	x1,80002c94	  x1=0x80002c94
       73645000	      7363	00000000	00000013	addi	x0,x0,0	  x0:0x00000000
       73655000	      7364	80002cb4	00000013	addi	x0,x0,0	  x0:0x00000000
       73665000	      7365	80002cb8	ff9ff0ef	jal	x1,80002cb8	  x1=0x80002cb8
       73675000	      7366	00000000	00000013	addi	x0,x0,0	  x0:0x00000000
       73685000	      7367	80002cac	00000013	addi	x0,x0,0	  x0:0x00000000
       73695000	      7368	80002cb0	fd9ff3ef	jal	x7,80002cb0	  x7=0x80002cb0
       73705000	      7369	00000000	00000013	addi	x0,x0,0	  x0:0x00000000
       73715000	      7370	80002c84	00000013	addi	x0,x0,0	  x0:0x00000000
       73725000	      7371	80002c88	0240036f	jal	x6,80002c88	  x6=0x80002c88
       73735000	      7372	00000000	00000013	addi	x0,x0,0	  x0:0x00000000
       73745000	      7373	80002ca8	00000013	addi	x0,x0,0	  x0:0x00000000
       73755000	      7374	80002cac	0280036f	jal	x6,80002cac	  x6=0x80002cac
       73765000	      7375	00000000	00000013	addi	x0,x0,0	  x0:0x00000000
       73775000	      7376	80002cd0	00000013	addi	x0,x0,0	  x0:0x00000000
       73785000	      7377	80002cd4	fd5ff0ef	jal	x1,80002cd4	  x1=0x80002cd4
       73795000	      7378	00000000	00000013	addi	x0,x0,0	  x0:0x00000000
       73805000	      7379	80002ca4	00000013	addi	x0,x0,0	  x0:0x00000000
       73815000	      7380	80002ca8	030000ef	jal	x1,80002ca8	  x1=0x80002ca8
       73825000	      7381	00000000	00000013	addi	x0,x0,0	  x0:0x00000000
       73835000	      7382	80002cd4	00000013	addi	x0,x0,0	  x0:0x00000000
       73845000	      7383	80002cd8	fedff0ef	jal	x1,80002cd8	  x1=0x80002cd8
       73855000	      7384	00000000	00000013	addi	x0,x0,0	  x0:0x00000000
       73865000	      7385	80002cc0	00000013	addi	x0,x0,0	  x0:0x00000000
       73875000	      7386	80002cc4	004000ef	jal	x1,80002cc4	  x1=0x80002cc4
       73885000	      7387	00000000	00000013	addi	x0,x0,0	  x0:0x00000000
       73895000	      7388	80002cc4	00000013	addi	x0,x0,0	  x0:0x00000000
       73905000	      7389	80002cc8	fc9ff36f	jal	x6,80002cc8	  x6=0x80002cc8
       73915000	      7390	00000000	00000013	addi	x0,x0,0	  x0:0x00000000
       73925000	      7391	80002c8c	00000013	addi	x0,x0,0	  x0:0x00000000
       73935000	      7392	80002c90	03c000ef	jal	x1,80002c90	  x1=0x80002c90
       73945000	      7393	00000000	00000013	addi	x0,x0,0	  x0:0x00000000
       73955000	      7394	80002cc8	00000013	addi	x0,x0,0	  x0:0x00000000
       73965000	      7395	80002ccc	fd1ff36f	jal	x6,80002ccc	  x6=0x80002ccc
       73975000	      7396	00000000	00000013	addi	x0,x0,0	  x0:0x00000000
       73985000	      7397	80002c98	00000013	addi	x0,x0,0	  x0:0x00000000
       73995000	      7398	80002c9c	0040036f	jal	x6,80002c9c	  x6=0x80002c9c
       74005000	      7399	00000000	00000013	addi	x0,x0,0	  x0:0x00000000
       74015000	      7400	80002c9c	00000013	addi	x0,x0,0	  x0:0x00000000
       74025000	      7401	80002ca0	020000ef	jal	x1,80002ca0	  x1=0x80002ca0
       74035000	      7402	00000000	00000013	addi	x0,x0,0	  x0:0x00000000
       74045000	      7403	80002cbc	00000013	addi	x0,x0,0	  x0:0x00000000
       74055000	      7404	80002cc0	fd9ff36f	jal	x6,80002cc0	  x6=0x80002cc0
       74065000	      7405	00000000	00000013	addi	x0,x0,0	  x0:0x00000000
       74075000	      7406	80002c94	00000013	addi	x0,x0,0	  x0:0x00000000
       74085000	      7407	80002c98	0380036f	jal	x6,80002c98	  x6=0x80002c98
       74095000	      7408	00000000	00000013	addi	x0,x0,0	  x0:0x00000000
       74105000	      7409	80002ccc	00000013	addi	x0,x0,0	  x0:0x00000000
       74115000	      7410	80002cd0	fedff36f	jal	x6,80002cd0	  x6=0x80002cd0
       74125000	      7411	00000000	00000013	addi	x0,x0,0	  x0:0x00000000
       74135000	      7412	80002cb8	00000013	addi	x0,x0,0	  x0:0x00000000
       74145000	      7413	80002cbc	fe9ff36f	jal	x6,80002cbc	  x6=0x80002cbc
       74155000	      7414	00000000	00000013	addi	x0,x0,0	  x0:0x00000000
       74165000	      7415	80002ca0	00000013	addi	x0,x0,0	  x0:0x00000000
       74175000	      7416	80002ca4	fe9ff1ef	jal	x3,80002ca4	  x3=0x80002ca4
       74185000	      7417	00000000	00000013	addi	x0,x0,0	  x0:0x00000000
       74195000	      7418	80002c88	00000013	addi	x0,x0,0	  x0:0x00000000
       74205000	      7419	80002c8c	0500036f	jal	x6,80002c8c	  x6=0x80002c8c
       74215000	      7420	00000000	00000013	addi	x0,x0,0	  x0:0x00000000
       74225000	      7421	80002cd8	00000013	addi	x0,x0,0	  x0:0x00000000
       74235000	      7422	80002cdc	00eb43b3	xor	x7,x22,x14	 x22:0x80002b14 x14:0x80002bd4  x7=0x000000c0
       74245000	      7423	80002ce0	03c00c6f	jal	x24,80002ce0	 x24=0x80002ce0
       74255000	      7424	00000000	00000013	addi	x0,x0,0	  x0:0x00000000
       74265000	      7425	80002d18	00000013	addi	x0,x0,0	  x0:0x00000000
       74275000	      7426	80002d1c	fe5ff0ef	jal	x1,80002d1c	  x1=0x80002d1c
       74285000	      7427	00000000	00000013	addi	x0,x0,0	  x0:0x00000000
       74295000	      7428	80002cfc	00000013	addi	x0,x0,0	  x0:0x00000000
       74305000	      7429	80002d00	fedff0ef	jal	x1,80002d00	  x1=0x80002d00
       74315000	      7430	00000000	00000013	addi	x0,x0,0	  x0:0x00000000
       74325000	      7431	80002ce8	00000013	addi	x0,x0,0	  x0:0x00000000
       74335000	      7432	80002cec	05400b6f	jal	x22,80002cec	 x22=0x80002cec
       74345000	      7433	00000000	00000013	addi	x0,x0,0	  x0:0x00000000
       74355000	      7434	80002d3c	00000013	addi	x0,x0,0	  x0:0x00000000
       74365000	      7435	80002d40	fb5ff0ef	jal	x1,80002d40	  x1=0x80002d40
       74375000	      7436	00000000	00000013	addi	x0,x0,0	  x0:0x00000000
       74385000	      7437	80002cf0	00000013	addi	x0,x0,0	  x0:0x00000000
       74395000	      7438	80002cf4	0380036f	jal	x6,80002cf4	  x6=0x80002cf4
       74405000	      7439	00000000	00000013	addi	x0,x0,0	  x0:0x00000000
       74415000	      7440	80002d28	00000013	addi	x0,x0,0	  x0:0x00000000
       74425000	      7441	80002d2c	0040036f	jal	x6,80002d2c	  x6=0x80002d2c
       74435000	      7442	00000000	00000013	addi	x0,x0,0	  x0:0x00000000
       74445000	      7443	80002d2c	00000013	addi	x0,x0,0	  x0:0x00000000
       74455000	      7444	80002d30	fddff0ef	jal	x1,80002d30	  x1=0x80002d30
       74465000	      7445	00000000	00000013	addi	x0,x0,0	  x0:0x00000000
       74475000	      7446	80002d08	00000013	addi	x0,x0,0	  x0:0x00000000
       74485000	      7447	80002d0c	fedff16f	jal	x2,80002d0c	  x2=0x80002d0c
       74495000	      7448	00000000	00000013	addi	x0,x0,0	  x0:0x00000000
       74505000	      7449	80002cf4	00000013	addi	x0,x0,0	  x0:0x00000000
       74515000	      7450	80002cf8	004001ef	jal	x3,80002cf8	  x3=0x80002cf8
       74525000	      7451	00000000	00000013	addi	x0,x0,0	  x0:0x00000000
       74535000	      7452	80002cf8	00000013	addi	x0,x0,0	  x0:0x00000000
       74545000	      7453	80002cfc	040000ef	jal	x1,80002cfc	  x1=0x80002cfc
       74555000	      7454	00000000	00000013	addi	x0,x0,0	  x0:0x00000000
       74565000	      7455	80002d38	00000013	addi	x0,x0,0	  x0:0x00000000
       74575000	      7456	80002d3c	fd5ff36f	jal	x6,80002d3c	  x6=0x80002d3c
       74585000	      7457	00000000	00000013	addi	x0,x0,0	  x0:0x00000000
       74595000	      7458	80002d0c	00000013	addi	x0,x0,0	  x0:0x00000000
       74605000	      7459	80002d10	028000ef	jal	x1,80002d10	  x1=0x80002d10
       74615000	      7460	00000000	00000013	addi	x0,x0,0	  x0:0x00000000
       74625000	      7461	80002d34	00000013	addi	x0,x0,0	  x0:0x00000000
       74635000	      7462	80002d38	fddff36f	jal	x6,80002d38	  x6=0x80002d38
       74645000	      7463	00000000	00000013	addi	x0,x0,0	  x0:0x00000000
       74655000	      7464	80002d10	00000013	addi	x0,x0,0	  x0:0x00000000
       74665000	      7465	80002d14	fd1ff0ef	jal	x1,80002d14	  x1=0x80002d14
       74675000	      7466	00000000	00000013	addi	x0,x0,0	  x0:0x00000000
       74685000	      7467	80002ce0	00000013	addi	x0,x0,0	  x0:0x00000000
       74695000	      7468	80002ce4	044000ef	jal	x1,80002ce4	  x1=0x80002ce4
       74705000	      7469	00000000	00000013	addi	x0,x0,0	  x0:0x00000000
       74715000	      7470	80002d24	00000013	addi	x0,x0,0	  x0:0x00000000
       74725000	      7471	80002d28	fc9ff36f	jal	x6,80002d28	  x6=0x80002d28
       74735000	      7472	00000000	00000013	addi	x0,x0,0	  x0:0x00000000
       74745000	      7473	80002cec	00000013	addi	x0,x0,0	  x0:0x00000000
       74755000	      7474	80002cf0	0300036f	jal	x6,80002cf0	  x6=0x80002cf0
       74765000	      7475	00000000	00000013	addi	x0,x0,0	  x0:0x00000000
       74775000	      7476	80002d1c	00000013	addi	x0,x0,0	  x0:0x00000000
       74785000	      7477	80002d20	fc9ff0ef	jal	x1,80002d20	  x1=0x80002d20
       74795000	      7478	00000000	00000013	addi	x0,x0,0	  x0:0x00000000
       74805000	      7479	80002ce4	00000013	addi	x0,x0,0	  x0:0x00000000
       74815000	      7480	80002ce8	020008ef	jal	x17,80002ce8	 x17=0x80002ce8
       74825000	      7481	00000000	00000013	addi	x0,x0,0	  x0:0x00000000
       74835000	      7482	80002d04	00000013	addi	x0,x0,0	  x0:0x00000000
       74845000	      7483	80002d08	01c0066f	jal	x12,80002d08	 x12=0x80002d08
       74855000	      7484	00000000	00000013	addi	x0,x0,0	  x0:0x00000000
       74865000	      7485	80002d20	00000013	addi	x0,x0,0	  x0:0x00000000
       74875000	      7486	80002d24	010007ef	jal	x15,80002d24	 x15=0x80002d24
       74885000	      7487	00000000	00000013	addi	x0,x0,0	  x0:0x00000000
       74895000	      7488	80002d30	00000013	addi	x0,x0,0	  x0:0x00000000
       74905000	      7489	80002d34	fd1ff0ef	jal	x1,80002d34	  x1=0x80002d34
       74915000	      7490	00000000	00000013	addi	x0,x0,0	  x0:0x00000000
       74925000	      7491	80002d00	00000013	addi	x0,x0,0	  x0:0x00000000
       74935000	      7492	80002d04	0140016f	jal	x2,80002d04	  x2=0x80002d04
       74945000	      7493	00000000	00000013	addi	x0,x0,0	  x0:0x00000000
       74955000	      7494	80002d14	00000013	addi	x0,x0,0	  x0:0x00000000
       74965000	      7495	80002d18	02c000ef	jal	x1,80002d18	  x1=0x80002d18
       74975000	      7496	00000000	00000013	addi	x0,x0,0	  x0:0x00000000
       74985000	      7497	80002d40	00000013	addi	x0,x0,0	  x0:0x00000000
       74995000	      7498	80002d44	60e9e093	ori	x1,x19,1550	 x19:0x00000484  x1=0x0000068e
       75005000	      7499	80002d48	04400c6f	jal	x24,80002d48	 x24=0x80002d48
       75015000	      7500	00000000	00000013	addi	x0,x0,0	  x0:0x00000000
       75025000	      7501	80002d88	00000013	addi	x0,x0,0	  x0:0x00000000
       75035000	      7502	80002d8c	01c000ef	jal	x1,80002d8c	  x1=0x80002d8c
       75045000	      7503	00000000	00000013	addi	x0,x0,0	  x0:0x00000000
       75055000	      7504	80002da4	00000013	addi	x0,x0,0	  x0:0x00000000
       75065000	      7505	80002da8	ff5ff8ef	jal	x17,80002da8	 x17=0x80002da8
       75075000	      7506	00000000	00000013	addi	x0,x0,0	  x0:0x00000000
       75085000	      7507	80002d98	00000013	addi	x0,x0,0	  x0:0x00000000
       75095000	      7508	80002d9c	fb9ff36f	jal	x6,80002d9c	  x6=0x80002d9c
       75105000	      7509	00000000	00000013	addi	x0,x0,0	  x0:0x00000000
       75115000	      7510	80002d50	00000013	addi	x0,x0,0	  x0:0x00000000
       75125000	      7511	80002d54	020000ef	jal	x1,80002d54	  x1=0x80002d54
       75135000	      7512	00000000	00000013	addi	x0,x0,0	  x0:0x00000000
       75145000	      7513	80002d70	00000013	addi	x0,x0,0	  x0:0x00000000
       75155000	      7514	80002d74	fddff0ef	jal	x1,80002d74	  x1=0x80002d74
       75165000	      7515	00000000	00000013	addi	x0,x0,0	  x0:0x00000000
       75175000	      7516	80002d4c	00000013	addi	x0,x0,0	  x0:0x00000000
       75185000	      7517	80002d50	0280036f	jal	x6,80002d50	  x6=0x80002d50
       75195000	      7518	00000000	00000013	addi	x0,x0,0	  x0:0x00000000
       75205000	      7519	80002d74	00000013	addi	x0,x0,0	  x0:0x00000000
       75215000	      7520	80002d78	0080036f	jal	x6,80002d78	  x6=0x80002d78
       75225000	      7521	00000000	00000013	addi	x0,x0,0	  x0:0x00000000
       75235000	      7522	80002d7c	00000013	addi	x0,x0,0	  x0:0x00000000
       75245000	      7523	80002d80	00400cef	jal	x25,80002d80	 x25=0x80002d80
       75255000	      7524	00000000	00000013	addi	x0,x0,0	  x0:0x00000000
       75265000	      7525	80002d80	00000013	addi	x0,x0,0	  x0:0x00000000
       75275000	      7526	80002d84	fddff0ef	jal	x1,80002d84	  x1=0x80002d84
       75285000	      7527	00000000	00000013	addi	x0,x0,0	  x0:0x00000000
       75295000	      7528	80002d5c	00000013	addi	x0,x0,0	  x0:0x00000000
       75305000	      7529	80002d60	00800d6f	jal	x26,80002d60	 x26=0x80002d60
       75315000	      7530	00000000	00000013	addi	x0,x0,0	  x0:0x00000000
       75325000	      7531	80002d64	00000013	addi	x0,x0,0	  x0:0x00000000
       75335000	      7532	80002d68	0080036f	jal	x6,80002d68	  x6=0x80002d68
       75345000	      7533	00000000	00000013	addi	x0,x0,0	  x0:0x00000000
       75355000	      7534	80002d6c	00000013	addi	x0,x0,0	  x0:0x00000000
       75365000	      7535	80002d70	fe9ff66f	jal	x12,80002d70	 x12=0x80002d70
       75375000	      7536	00000000	00000013	addi	x0,x0,0	  x0:0x00000000
       75385000	      7537	80002d54	00000013	addi	x0,x0,0	  x0:0x00000000
       75395000	      7538	80002d58	030000ef	jal	x1,80002d58	  x1=0x80002d58
       75405000	      7539	00000000	00000013	addi	x0,x0,0	  x0:0x00000000
       75415000	      7540	80002d84	00000013	addi	x0,x0,0	  x0:0x00000000
       75425000	      7541	80002d88	fe5fff6f	jal	x30,80002d88	 x30=0x80002d88
       75435000	      7542	00000000	00000013	addi	x0,x0,0	  x0:0x00000000
       75445000	      7543	80002d68	00000013	addi	x0,x0,0	  x0:0x00000000
       75455000	      7544	80002d6c	02c000ef	jal	x1,80002d6c	  x1=0x80002d6c
       75465000	      7545	00000000	00000013	addi	x0,x0,0	  x0:0x00000000
       75475000	      7546	80002d94	00000013	addi	x0,x0,0	  x0:0x00000000
       75485000	      7547	80002d98	fe5ff0ef	jal	x1,80002d98	  x1=0x80002d98
       75495000	      7548	00000000	00000013	addi	x0,x0,0	  x0:0x00000000
       75505000	      7549	80002d78	00000013	addi	x0,x0,0	  x0:0x00000000
       75515000	      7550	80002d7c	018000ef	jal	x1,80002d7c	  x1=0x80002d7c
       75525000	      7551	00000000	00000013	addi	x0,x0,0	  x0:0x00000000
       75535000	      7552	80002d90	00000013	addi	x0,x0,0	  x0:0x00000000
       75545000	      7553	80002d94	00c000ef	jal	x1,80002d94	  x1=0x80002d94
       75555000	      7554	00000000	00000013	addi	x0,x0,0	  x0:0x00000000
       75565000	      7555	80002d9c	00000013	addi	x0,x0,0	  x0:0x00000000
       75575000	      7556	80002da0	ff1ffdef	jal	x27,80002da0	 x27=0x80002da0
       75585000	      7557	00000000	00000013	addi	x0,x0,0	  x0:0x00000000
       75595000	      7558	80002d8c	00000013	addi	x0,x0,0	  x0:0x00000000
       75605000	      7559	80002d90	014000ef	jal	x1,80002d90	  x1=0x80002d90
       75615000	      7560	00000000	00000013	addi	x0,x0,0	  x0:0x00000000
       75625000	      7561	80002da0	00000013	addi	x0,x0,0	  x0:0x00000000
       75635000	      7562	80002da4	fb9ff7ef	jal	x15,80002da4	 x15=0x80002da4
       75645000	      7563	00000000	00000013	addi	x0,x0,0	  x0:0x00000000
       75655000	      7564	80002d58	00000013	addi	x0,x0,0	  x0:0x00000000
       75665000	      7565	80002d5c	0080036f	jal	x6,80002d5c	  x6=0x80002d5c
       75675000	      7566	00000000	00000013	addi	x0,x0,0	  x0:0x00000000
       75685000	      7567	80002d60	00000013	addi	x0,x0,0	  x0:0x00000000
       75695000	      7568	80002d64	fe9ff0ef	jal	x1,80002d64	  x1=0x80002d64
       75705000	      7569	00000000	00000013	addi	x0,x0,0	  x0:0x00000000
       75715000	      7570	80002d48	00000013	addi	x0,x0,0	  x0:0x00000000
       75725000	      7571	80002d4c	060002ef	jal	x5,80002d4c	  x5=0x80002d4c
       75735000	      7572	00000000	00000013	addi	x0,x0,0	  x0:0x00000000
       75745000	      7573	80002da8	00000013	addi	x0,x0,0	  x0:0x00000000
       75755000	      7574	80002dac	e8fc0e93	addi	x29,x24,-369	 x24:0x80002d48 x29=0x80002bd7
       75765000	      7575	80002db0	03800c6f	jal	x24,80002db0	 x24=0x80002db0
       75775000	      7576	00000000	00000013	addi	x0,x0,0	  x0:0x00000000
       75785000	      7577	80002de4	00000013	addi	x0,x0,0	  x0:0x00000000
       75795000	      7578	80002de8	020000ef	jal	x1,80002de8	  x1=0x80002de8
       75805000	      7579	00000000	00000013	addi	x0,x0,0	  x0:0x00000000
       75815000	      7580	80002e04	00000013	addi	x0,x0,0	  x0:0x00000000
       75825000	      7581	80002e08	fbdff0ef	jal	x1,80002e08	  x1=0x80002e08
       75835000	      7582	00000000	00000013	addi	x0,x0,0	  x0:0x00000000
       75845000	      7583	80002dc0	00000013	addi	x0,x0,0	  x0:0x00000000
       75855000	      7584	80002dc4	0380076f	jal	x14,80002dc4	 x14=0x80002dc4
       75865000	      7585	00000000	00000013	addi	x0,x0,0	  x0:0x00000000
       75875000	      7586	80002df8	00000013	addi	x0,x0,0	  x0:0x00000000
       75885000	      7587	80002dfc	ff5ff16f	jal	x2,80002dfc	  x2=0x80002dfc
       75895000	      7588	00000000	00000013	addi	x0,x0,0	  x0:0x00000000
       75905000	      7589	80002dec	00000013	addi	x0,x0,0	  x0:0x00000000
       75915000	      7590	80002df0	ffdff6ef	jal	x13,80002df0	 x13=0x80002df0
       75925000	      7591	00000000	00000013	addi	x0,x0,0	  x0:0x00000000
       75935000	      7592	80002de8	00000013	addi	x0,x0,0	  x0:0x00000000
       75945000	      7593	80002dec	0080036f	jal	x6,80002dec	  x6=0x80002dec
       75955000	      7594	00000000	00000013	addi	x0,x0,0	  x0:0x00000000
       75965000	      7595	80002df0	00000013	addi	x0,x0,0	  x0:0x00000000
       75975000	      7596	80002df4	fddff36f	jal	x6,80002df4	  x6=0x80002df4
       75985000	      7597	00000000	00000013	addi	x0,x0,0	  x0:0x00000000
       75995000	      7598	80002dcc	00000013	addi	x0,x0,0	  x0:0x00000000
       76005000	      7599	80002dd0	010000ef	jal	x1,80002dd0	  x1=0x80002dd0
       76015000	      7600	00000000	00000013	addi	x0,x0,0	  x0:0x00000000
       76025000	      7601	80002ddc	00000013	addi	x0,x0,0	  x0:0x00000000
       76035000	      7602	80002de0	004000ef	jal	x1,80002de0	  x1=0x80002de0
       76045000	      7603	00000000	00000013	addi	x0,x0,0	  x0:0x00000000
       76055000	      7604	80002de0	00000013	addi	x0,x0,0	  x0:0x00000000
       76065000	      7605	80002de4	fd1ff36f	jal	x6,80002de4	  x6=0x80002de4
       76075000	      7606	00000000	00000013	addi	x0,x0,0	  x0:0x00000000
       76085000	      7607	80002db0	00000013	addi	x0,x0,0	  x0:0x00000000
       76095000	      7608	80002db4	044000ef	jal	x1,80002db4	  x1=0x80002db4
       76105000	      7609	00000000	00000013	addi	x0,x0,0	  x0:0x00000000
       76115000	      7610	80002df4	00000013	addi	x0,x0,0	  x0:0x00000000
       76125000	      7611	80002df8	fc1ff16f	jal	x2,80002df8	  x2=0x80002df8
       76135000	      7612	00000000	00000013	addi	x0,x0,0	  x0:0x00000000
       76145000	      7613	80002db4	00000013	addi	x0,x0,0	  x0:0x00000000
       76155000	      7614	80002db8	04c000ef	jal	x1,80002db8	  x1=0x80002db8
       76165000	      7615	00000000	00000013	addi	x0,x0,0	  x0:0x00000000
       76175000	      7616	80002e00	00000013	addi	x0,x0,0	  x0:0x00000000
       76185000	      7617	80002e04	fd9ff36f	jal	x6,80002e04	  x6=0x80002e04
       76195000	      7618	00000000	00000013	addi	x0,x0,0	  x0:0x00000000
       76205000	      7619	80002dd8	00000013	addi	x0,x0,0	  x0:0x00000000
       76215000	      7620	80002ddc	ff1ffcef	jal	x25,80002ddc	 x25=0x80002ddc
       76225000	      7621	00000000	00000013	addi	x0,x0,0	  x0:0x00000000
       76235000	      7622	80002dc8	00000013	addi	x0,x0,0	  x0:0x00000000
       76245000	      7623	80002dcc	0080036f	jal	x6,80002dcc	  x6=0x80002dcc
       76255000	      7624	00000000	00000013	addi	x0,x0,0	  x0:0x00000000
       76265000	      7625	80002dd0	00000013	addi	x0,x0,0	  x0:0x00000000
       76275000	      7626	80002dd4	ff5ff0ef	jal	x1,80002dd4	  x1=0x80002dd4
       76285000	      7627	00000000	00000013	addi	x0,x0,0	  x0:0x00000000
       76295000	      7628	80002dc4	00000013	addi	x0,x0,0	  x0:0x00000000
       76305000	      7629	80002dc8	ff5ff36f	jal	x6,80002dc8	  x6=0x80002dc8
       76315000	      7630	00000000	00000013	addi	x0,x0,0	  x0:0x00000000
       76325000	      7631	80002db8	00000013	addi	x0,x0,0	  x0:0x00000000
       76335000	      7632	80002dbc	01c0036f	jal	x6,80002dbc	  x6=0x80002dbc
       76345000	      7633	00000000	00000013	addi	x0,x0,0	  x0:0x00000000
       76355000	      7634	80002dd4	00000013	addi	x0,x0,0	  x0:0x00000000
       76365000	      7635	80002dd8	028000ef	jal	x1,80002dd8	  x1=0x80002dd8
       76375000	      7636	00000000	00000013	addi	x0,x0,0	  x0:0x00000000
       76385000	      7637	80002dfc	00000013	addi	x0,x0,0	  x0:0x00000000
       76395000	      7638	80002e00	fc1ff56f	jal	x10,80002e00	 x10=0x80002e00
       76405000	      7639	00000000	00000013	addi	x0,x0,0	  x0:0x00000000
       76415000	      7640	80002dbc	00000013	addi	x0,x0,0	  x0:0x00000000
       76425000	      7641	80002dc0	04c000ef	jal	x1,80002dc0	  x1=0x80002dc0
       76435000	      7642	00000000	00000013	addi	x0,x0,0	  x0:0x00000000
       76445000	      7643	80002e08	00000013	addi	x0,x0,0	  x0:0x00000000
       76455000	      7644	80002e0c	00b95ab3	srl	x21,x18,x11	 x18:0x80002af0 x11:0x80002af8 x21=0x00000080
       76465000	      7645	80002e10	03c00c6f	jal	x24,80002e10	 x24=0x80002e10
       76475000	      7646	00000000	00000013	addi	x0,x0,0	  x0:0x00000000
       76485000	      7647	80002e48	00000013	addi	x0,x0,0	  x0:0x00000000
       76495000	      7648	80002e4c	fddff1ef	jal	x3,80002e4c	  x3=0x80002e4c
       76505000	      7649	00000000	00000013	addi	x0,x0,0	  x0:0x00000000
       76515000	      7650	80002e24	00000013	addi	x0,x0,0	  x0:0x00000000
       76525000	      7651	80002e28	03c0066f	jal	x12,80002e28	 x12=0x80002e28
       76535000	      7652	00000000	00000013	addi	x0,x0,0	  x0:0x00000000
       76545000	      7653	80002e60	00000013	addi	x0,x0,0	  x0:0x00000000
       76555000	      7654	80002e64	fd9ff8ef	jal	x17,80002e64	 x17=0x80002e64
       76565000	      7655	00000000	00000013	addi	x0,x0,0	  x0:0x00000000
       76575000	      7656	80002e38	00000013	addi	x0,x0,0	  x0:0x00000000
       76585000	      7657	80002e3c	fddff0ef	jal	x1,80002e3c	  x1=0x80002e3c
       76595000	      7658	00000000	00000013	addi	x0,x0,0	  x0:0x00000000
       76605000	      7659	80002e14	00000013	addi	x0,x0,0	  x0:0x00000000
       76615000	      7660	80002e18	044000ef	jal	x1,80002e18	  x1=0x80002e18
       76625000	      7661	00000000	00000013	addi	x0,x0,0	  x0:0x00000000
       76635000	      7662	80002e58	00000013	addi	x0,x0,0	  x0:0x00000000
       76645000	      7663	80002e5c	fb9ff0ef	jal	x1,80002e5c	  x1=0x80002e5c
       76655000	      7664	00000000	00000013	addi	x0,x0,0	  x0:0x00000000
       76665000	      7665	80002e10	00000013	addi	x0,x0,0	  x0:0x00000000
       76675000	      7666	80002e14	02c00c6f	jal	x24,80002e14	 x24=0x80002e14
       76685000	      7667	00000000	00000013	addi	x0,x0,0	  x0:0x00000000
       76695000	      7668	80002e3c	00000013	addi	x0,x0,0	  x0:0x00000000
       76705000	      7669	80002e40	014000ef	jal	x1,80002e40	  x1=0x80002e40
       76715000	      7670	00000000	00000013	addi	x0,x0,0	  x0:0x00000000
       76725000	      7671	80002e50	00000013	addi	x0,x0,0	  x0:0x00000000
       76735000	      7672	80002e54	00c000ef	jal	x1,80002e54	  x1=0x80002e54
       76745000	      7673	00000000	00000013	addi	x0,x0,0	  x0:0x00000000
       76755000	      7674	80002e5c	00000013	addi	x0,x0,0	  x0:0x00000000
       76765000	      7675	80002e60	fd1ff0ef	jal	x1,80002e60	  x1=0x80002e60
       76775000	      7676	00000000	00000013	addi	x0,x0,0	  x0:0x00000000
       76785000	      7677	80002e2c	00000013	addi	x0,x0,0	  x0:0x00000000
       76795000	      7678	80002e30	fedff0ef	jal	x1,80002e30	  x1=0x80002e30
       76805000	      7679	00000000	00000013	addi	x0,x0,0	  x0:0x00000000
       76815000	      7680	80002e18	00000013	addi	x0,x0,0	  x0:0x00000000
       76825000	      7681	80002e1c	0080036f	jal	x6,80002e1c	  x6=0x80002e1c
       76835000	      7682	00000000	00000013	addi	x0,x0,0	  x0:0x00000000
       76845000	      7683	80002e20	00000013	addi	x0,x0,0	  x0:0x00000000
       76855000	      7684	80002e24	008000ef	jal	x1,80002e24	  x1=0x80002e24
       76865000	      7685	00000000	00000013	addi	x0,x0,0	  x0:0x00000000
       76875000	      7686	80002e28	00000013	addi	x0,x0,0	  x0:0x00000000
       76885000	      7687	80002e2c	02c000ef	jal	x1,80002e2c	  x1=0x80002e2c
       76895000	      7688	00000000	00000013	addi	x0,x0,0	  x0:0x00000000
       76905000	      7689	80002e54	00000013	addi	x0,x0,0	  x0:0x00000000
       76915000	      7690	80002e58	ff1ff0ef	jal	x1,80002e58	  x1=0x80002e58
       76925000	      7691	00000000	00000013	addi	x0,x0,0	  x0:0x00000000
       76935000	      7692	80002e44	00000013	addi	x0,x0,0	  x0:0x00000000
       76945000	      7693	80002e48	008002ef	jal	x5,80002e48	  x5=0x80002e48
       76955000	      7694	00000000	00000013	addi	x0,x0,0	  x0:0x00000000
       76965000	      7695	80002e4c	00000013	addi	x0,x0,0	  x0:0x00000000
       76975000	      7696	80002e50	fd1ff36f	jal	x6,80002e50	  x6=0x80002e50
       76985000	      7697	00000000	00000013	addi	x0,x0,0	  x0:0x00000000
       76995000	      7698	80002e1c	00000013	addi	x0,x0,0	  x0:0x00000000
       77005000	      7699	80002e20	018000ef	jal	x1,80002e20	  x1=0x80002e20
       77015000	      7700	00000000	00000013	addi	x0,x0,0	  x0:0x00000000
       77025000	      7701	80002e34	00000013	addi	x0,x0,0	  x0:0x00000000
       77035000	      7702	80002e38	0300036f	jal	x6,80002e38	  x6=0x80002e38
       77045000	      7703	00000000	00000013	addi	x0,x0,0	  x0:0x00000000
       77055000	      7704	80002e64	00000013	addi	x0,x0,0	  x0:0x00000000
       77065000	      7705	80002e68	fcdff0ef	jal	x1,80002e68	  x1=0x80002e68
       77075000	      7706	00000000	00000013	addi	x0,x0,0	  x0:0x00000000
       77085000	      7707	80002e30	00000013	addi	x0,x0,0	  x0:0x00000000
       77095000	      7708	80002e34	010000ef	jal	x1,80002e34	  x1=0x80002e34
       77105000	      7709	00000000	00000013	addi	x0,x0,0	  x0:0x00000000
       77115000	      7710	80002e40	00000013	addi	x0,x0,0	  x0:0x00000000
       77125000	      7711	80002e44	028000ef	jal	x1,80002e44	  x1=0x80002e44
       77135000	      7712	00000000	00000013	addi	x0,x0,0	  x0:0x00000000
       77145000	      7713	80002e68	00000013	addi	x0,x0,0	  x0:0x00000000
       77155000	      7714	80002e6c	35177d93	andi	x27,x14,849	 x14:0x80002dc4 x27=0x00000140
       77165000	      7715	80002e70	04000c6f	jal	x24,80002e70	 x24=0x80002e70
       77175000	      7716	00000000	00000013	addi	x0,x0,0	  x0:0x00000000
       77185000	      7717	80002eac	00000013	addi	x0,x0,0	  x0:0x00000000
       77195000	      7718	80002eb0	fd5ff36f	jal	x6,80002eb0	  x6=0x80002eb0
       77205000	      7719	00000000	00000013	addi	x0,x0,0	  x0:0x00000000
       77215000	      7720	80002e80	00000013	addi	x0,x0,0	  x0:0x00000000
       77225000	      7721	80002e84	020000ef	jal	x1,80002e84	  x1=0x80002e84
       77235000	      7722	00000000	00000013	addi	x0,x0,0	  x0:0x00000000
       77245000	      7723	80002ea0	00000013	addi	x0,x0,0	  x0:0x00000000
       77255000	      7724	80002ea4	01c0036f	jal	x6,80002ea4	  x6=0x80002ea4
       77265000	      7725	00000000	00000013	addi	x0,x0,0	  x0:0x00000000
       77275000	      7726	80002ebc	00000013	addi	x0,x0,0	  x0:0x00000000
       77285000	      7727	80002ec0	fd5ff0ef	jal	x1,80002ec0	  x1=0x80002ec0
       77295000	      7728	00000000	00000013	addi	x0,x0,0	  x0:0x00000000
       77305000	      7729	80002e90	00000013	addi	x0,x0,0	  x0:0x00000000
       77315000	      7730	80002e94	ff5ff0ef	jal	x1,80002e94	  x1=0x80002e94
       77325000	      7731	00000000	00000013	addi	x0,x0,0	  x0:0x00000000
       77335000	      7732	80002e84	00000013	addi	x0,x0,0	  x0:0x00000000
       77345000	      7733	80002e88	008000ef	jal	x1,80002e88	  x1=0x80002e88
       77355000	      7734	00000000	00000013	addi	x0,x0,0	  x0:0x00000000
       77365000	      7735	80002e8c	00000013	addi	x0,x0,0	  x0:0x00000000
       77375000	      7736	80002e90	fe5ff0ef	jal	x1,80002e90	  x1=0x80002e90
       77385000	      7737	00000000	00000013	addi	x0,x0,0	  x0:0x00000000
       77395000	      7738	80002e70	00000013	addi	x0,x0,0	  x0:0x00000000
       77405000	      7739	80002e74	024000ef	jal	x1,80002e74	  x1=0x80002e74
       77415000	      7740	00000000	00000013	addi	x0,x0,0	  x0:0x00000000
       77425000	      7741	80002e94	00000013	addi	x0,x0,0	  x0:0x00000000
       77435000	      7742	80002e98	fe5ff0ef	jal	x1,80002e98	  x1=0x80002e98
       77445000	      7743	00000000	00000013	addi	x0,x0,0	  x0:0x00000000
       77455000	      7744	80002e78	00000013	addi	x0,x0,0	  x0:0x00000000
       77465000	      7745	80002e7c	04c000ef	jal	x1,80002e7c	  x1=0x80002e7c
       77475000	      7746	00000000	00000013	addi	x0,x0,0	  x0:0x00000000
       77485000	      7747	80002ec4	00000013	addi	x0,x0,0	  x0:0x00000000
       77495000	      7748	80002ec8	00c000ef	jal	x1,80002ec8	  x1=0x80002ec8
       77505000	      7749	00000000	00000013	addi	x0,x0,0	  x0:0x00000000
       77515000	      7750	80002ed0	00000013	addi	x0,x0,0	  x0:0x00000000
       77525000	      7751	80002ed4	fe5ff36f	jal	x6,80002ed4	  x6=0x80002ed4
       77535000	      7752	00000000	00000013	addi	x0,x0,0	  x0:0x00000000
       77545000	      7753	80002eb4	00000013	addi	x0,x0,0	  x0:0x00000000
       77555000	      7754	80002eb8	fe5ff0ef	jal	x1,80002eb8	  x1=0x80002eb8
       77565000	      7755	00000000	00000013	addi	x0,x0,0	  x0:0x00000000
       77575000	      7756	80002e98	00000013	addi	x0,x0,0	  x0:0x00000000
       77585000	      7757	80002e9c	030002ef	jal	x5,80002e9c	  x5=0x80002e9c
       77595000	      7758	00000000	00000013	addi	x0,x0,0	  x0:0x00000000
       77605000	      7759	80002ec8	00000013	addi	x0,x0,0	  x0:0x00000000
       77615000	      7760	80002ecc	fb5ff36f	jal	x6,80002ecc	  x6=0x80002ecc
       77625000	      7761	00000000	00000013	addi	x0,x0,0	  x0:0x00000000
       77635000	      7762	80002e7c	00000013	addi	x0,x0,0	  x0:0x00000000
       77645000	      7763	80002e80	020000ef	jal	x1,80002e80	  x1=0x80002e80
       77655000	      7764	00000000	00000013	addi	x0,x0,0	  x0:0x00000000
       77665000	      7765	80002e9c	00000013	addi	x0,x0,0	  x0:0x00000000
       77675000	      7766	80002ea0	024000ef	jal	x1,80002ea0	  x1=0x80002ea0
       77685000	      7767	00000000	00000013	addi	x0,x0,0	  x0:0x00000000
       77695000	      7768	80002ec0	00000013	addi	x0,x0,0	  x0:0x00000000
       77705000	      7769	80002ec4	ff1ff0ef	jal	x1,80002ec4	  x1=0x80002ec4
       77715000	      7770	00000000	00000013	addi	x0,x0,0	  x0:0x00000000
       77725000	      7771	80002eb0	00000013	addi	x0,x0,0	  x0:0x00000000
       77735000	      7772	80002eb4	fc5ff0ef	jal	x1,80002eb4	  x1=0x80002eb4
       77745000	      7773	00000000	00000013	addi	x0,x0,0	  x0:0x00000000
       77755000	      7774	80002e74	00000013	addi	x0,x0,0	  x0:0x00000000
       77765000	      7775	80002e78	044000ef	jal	x1,80002e78	  x1=0x80002e78
       77775000	      7776	00000000	00000013	addi	x0,x0,0	  x0:0x00000000
       77785000	      7777	80002eb8	00000013	addi	x0,x0,0	  x0:0x00000000
       77795000	      7778	80002ebc	0140036f	jal	x6,80002ebc	  x6=0x80002ebc
       77805000	      7779	00000000	00000013	addi	x0,x0,0	  x0:0x00000000
       77815000	      7780	80002ecc	00000013	addi	x0,x0,0	  x0:0x00000000
       77825000	      7781	80002ed0	fddff0ef	jal	x1,80002ed0	  x1=0x80002ed0
       77835000	      7782	00000000	00000013	addi	x0,x0,0	  x0:0x00000000
       77845000	      7783	80002ea8	00000013	addi	x0,x0,0	  x0:0x00000000
       77855000	      7784	80002eac	ffdff0ef	jal	x1,80002eac	  x1=0x80002eac
       77865000	      7785	00000000	00000013	addi	x0,x0,0	  x0:0x00000000
       77875000	      7786	80002ea4	00000013	addi	x0,x0,0	  x0:0x00000000
       77885000	      7787	80002ea8	fe5ff36f	jal	x6,80002ea8	  x6=0x80002ea8
       77895000	      7788	00000000	00000013	addi	x0,x0,0	  x0:0x00000000
       77905000	      7789	80002e88	00000013	addi	x0,x0,0	  x0:0x00000000
       77915000	      7790	80002e8c	04c000ef	jal	x1,80002e8c	  x1=0x80002e8c
       77925000	      7791	00000000	00000013	addi	x0,x0,0	  x0:0x00000000
       77935000	      7792	80002ed4	00000013	addi	x0,x0,0	  x0:0x00000000
       77945000	      7793	80002ed8	007b37b3	sltu	x15,x22,x7	 x22:0x80002cec  x7:0x000000c0 x15=0x00000000
       77955000	      7794	80002edc	01400c6f	jal	x24,80002edc	 x24=0x80002edc
       77965000	      7795	00000000	00000013	addi	x0,x0,0	  x0:0x00000000
       77975000	      7796	80002eec	00000013	addi	x0,x0,0	  x0:0x00000000
       77985000	      7797	80002ef0	ff1ff0ef	jal	x1,80002ef0	  x1=0x80002ef0
       77995000	      7798	00000000	00000013	addi	x0,x0,0	  x0:0x00000000
       78005000	      7799	80002edc	00000013	addi	x0,x0,0	  x0:0x00000000
       78015000	      7800	80002ee0	0200036f	jal	x6,80002ee0	  x6=0x80002ee0
       78025000	      7801	00000000	00000013	addi	x0,x0,0	  x0:0x00000000
       78035000	      7802	80002efc	00000013	addi	x0,x0,0	  x0:0x00000000
       78045000	      7803	80002f00	ff9ff0ef	jal	x1,80002f00	  x1=0x80002f00
       78055000	      7804	00000000	00000013	addi	x0,x0,0	  x0:0x00000000
       78065000	      7805	80002ef4	00000013	addi	x0,x0,0	  x0:0x00000000
       78075000	      7806	80002ef8	020000ef	jal	x1,80002ef8	  x1=0x80002ef8
       78085000	      7807	00000000	00000013	addi	x0,x0,0	  x0:0x00000000
       78095000	      7808	80002f14	00000013	addi	x0,x0,0	  x0:0x00000000
       78105000	      7809	80002f18	fd5ff0ef	jal	x1,80002f18	  x1=0x80002f18
       78115000	      7810	00000000	00000013	addi	x0,x0,0	  x0:0x00000000
       78125000	      7811	80002ee8	00000013	addi	x0,x0,0	  x0:0x00000000
       78135000	      7812	80002eec	018004ef	jal	x9,80002eec	  x9=0x80002eec
       78145000	      7813	00000000	00000013	addi	x0,x0,0	  x0:0x00000000
       78155000	      7814	80002f00	00000013	addi	x0,x0,0	  x0:0x00000000
       78165000	      7815	80002f04	ff1ffbef	jal	x23,80002f04	 x23=0x80002f04
       78175000	      7816	00000000	00000013	addi	x0,x0,0	  x0:0x00000000
       78185000	      7817	80002ef0	00000013	addi	x0,x0,0	  x0:0x00000000
       78195000	      7818	80002ef4	01c000ef	jal	x1,80002ef4	  x1=0x80002ef4
       78205000	      7819	00000000	00000013	addi	x0,x0,0	  x0:0x00000000
       78215000	      7820	80002f0c	00000013	addi	x0,x0,0	  x0:0x00000000
       78225000	      7821	80002f10	fedff0ef	jal	x1,80002f10	  x1=0x80002f10
       78235000	      7822	00000000	00000013	addi	x0,x0,0	  x0:0x00000000
       78245000	      7823	80002ef8	00000013	addi	x0,x0,0	  x0:0x00000000
       78255000	      7824	80002efc	fe9ff36f	jal	x6,80002efc	  x6=0x80002efc
       78265000	      7825	00000000	00000013	addi	x0,x0,0	  x0:0x00000000
       78275000	      7826	80002ee0	00000013	addi	x0,x0,0	  x0:0x00000000
       78285000	      7827	80002ee4	02800fef	jal	x31,80002ee4	 x31=0x80002ee4
       78295000	      7828	00000000	00000013	addi	x0,x0,0	  x0:0x00000000
       78305000	      7829	80002f08	00000013	addi	x0,x0,0	  x0:0x00000000
       78315000	      7830	80002f0c	ffdff36f	jal	x6,80002f0c	  x6=0x80002f0c
       78325000	      7831	00000000	00000013	addi	x0,x0,0	  x0:0x00000000
       78335000	      7832	80002f04	00000013	addi	x0,x0,0	  x0:0x00000000
       78345000	      7833	80002f08	00c000ef	jal	x1,80002f08	  x1=0x80002f08
       78355000	      7834	00000000	00000013	addi	x0,x0,0	  x0:0x00000000
       78365000	      7835	80002f10	00000013	addi	x0,x0,0	  x0:0x00000000
       78375000	      7836	80002f14	fd5ff0ef	jal	x1,80002f14	  x1=0x80002f14
       78385000	      7837	00000000	00000013	addi	x0,x0,0	  x0:0x00000000
       78395000	      7838	80002ee4	00000013	addi	x0,x0,0	  x0:0x00000000
       78405000	      7839	80002ee8	034000ef	jal	x1,80002ee8	  x1=0x80002ee8
       78415000	      7840	00000000	00000013	addi	x0,x0,0	  x0:0x00000000
       78425000	      7841	80002f18	00000013	addi	x0,x0,0	  x0:0x00000000
       78435000	      7842	80002f1c	9afd2613	slti	x12,x26,-1617	 x26:0x80002d60 x12=0x00000001
       78445000	      7843	80002f20	03800c6f	jal	x24,80002f20	 x24=0x80002f20
       78455000	      7844	00000000	00000013	addi	x0,x0,0	  x0:0x00000000
       78465000	      7845	80002f54	00000013	addi	x0,x0,0	  x0:0x00000000
       78475000	      7846	80002f58	ff1ff3ef	jal	x7,80002f58	  x7=0x80002f58
       78485000	      7847	00000000	00000013	addi	x0,x0,0	  x0:0x00000000
       78495000	      7848	80002f44	00000013	addi	x0,x0,0	  x0:0x00000000
       78505000	      7849	80002f48	fddff2ef	jal	x5,80002f48	  x5=0x80002f48
       78515000	      7850	00000000	00000013	addi	x0,x0,0	  x0:0x00000000
       78525000	      7851	80002f20	00000013	addi	x0,x0,0	  x0:0x00000000
       78535000	      7852	80002f24	004007ef	jal	x15,80002f24	 x15=0x80002f24
       78545000	      7853	00000000	00000013	addi	x0,x0,0	  x0:0x00000000
       78555000	      7854	80002f24	00000013	addi	x0,x0,0	  x0:0x00000000
       78565000	      7855	80002f28	018000ef	jal	x1,80002f28	  x1=0x80002f28
       78575000	      7856	00000000	00000013	addi	x0,x0,0	  x0:0x00000000
       78585000	      7857	80002f3c	00000013	addi	x0,x0,0	  x0:0x00000000
       78595000	      7858	80002f40	010002ef	jal	x5,80002f40	  x5=0x80002f40
       78605000	      7859	00000000	00000013	addi	x0,x0,0	  x0:0x00000000
       78615000	      7860	80002f4c	00000013	addi	x0,x0,0	  x0:0x00000000
       78625000	      7861	80002f50	fedff0ef	jal	x1,80002f50	  x1=0x80002f50
       78635000	      7862	00000000	00000013	addi	x0,x0,0	  x0:0x00000000
       78645000	      7863	80002f38	00000013	addi	x0,x0,0	  x0:0x00000000
       78655000	      7864	80002f3c	010004ef	jal	x9,80002f3c	  x9=0x80002f3c
       78665000	      7865	00000000	00000013	addi	x0,x0,0	  x0:0x00000000
       78675000	      7866	80002f48	00000013	addi	x0,x0,0	  x0:0x00000000
       78685000	      7867	80002f4c	010004ef	jal	x9,80002f4c	  x9=0x80002f4c
       78695000	      7868	00000000	00000013	addi	x0,x0,0	  x0:0x00000000
       78705000	      7869	80002f58	00000013	addi	x0,x0,0	  x0:0x00000000
       78715000	      7870	80002f5c	fd5ff36f	jal	x6,80002f5c	  x6=0x80002f5c
       78725000	      7871	00000000	00000013	addi	x0,x0,0	  x0:0x00000000
       78735000	      7872	80002f2c	00000013	addi	x0,x0,0	  x0:0x00000000
       78745000	      7873	80002f30	ffdff0ef	jal	x1,80002f30	  x1=0x80002f30
       78755000	      7874	00000000	00000013	addi	x0,x0,0	  x0:0x00000000
       78765000	      7875	80002f28	00000013	addi	x0,x0,0	  x0:0x00000000
       78775000	      7876	80002f2c	034001ef	jal	x3,80002f2c	  x3=0x80002f2c
       78785000	      7877	00000000	00000013	addi	x0,x0,0	  x0:0x00000000
       78795000	      7878	80002f5c	00000013	addi	x0,x0,0	  x0:0x00000000
       78805000	      7879	80002f60	fd9ff56f	jal	x10,80002f60	 x10=0x80002f60
       78815000	      7880	00000000	00000013	addi	x0,x0,0	  x0:0x00000000
       78825000	      7881	80002f34	00000013	addi	x0,x0,0	  x0:0x00000000
       78835000	      7882	80002f38	ffdff66f	jal	x12,80002f38	 x12=0x80002f38
       78845000	      7883	00000000	00000013	addi	x0,x0,0	  x0:0x00000000
       78855000	      7884	80002f30	00000013	addi	x0,x0,0	  x0:0x00000000
       78865000	      7885	80002f34	0300036f	jal	x6,80002f34	  x6=0x80002f34
       78875000	      7886	00000000	00000013	addi	x0,x0,0	  x0:0x00000000
       78885000	      7887	80002f60	00000013	addi	x0,x0,0	  x0:0x00000000
       78895000	      7888	80002f64	ff1ff0ef	jal	x1,80002f64	  x1=0x80002f64
       78905000	      7889	00000000	00000013	addi	x0,x0,0	  x0:0x00000000
       78915000	      7890	80002f50	00000013	addi	x0,x0,0	  x0:0x00000000
       78925000	      7891	80002f54	ff1ff0ef	jal	x1,80002f54	  x1=0x80002f54
       78935000	      7892	00000000	00000013	addi	x0,x0,0	  x0:0x00000000
       78945000	      7893	80002f40	00000013	addi	x0,x0,0	  x0:0x00000000
       78955000	      7894	80002f44	024000ef	jal	x1,80002f44	  x1=0x80002f44
       78965000	      7895	00000000	00000013	addi	x0,x0,0	  x0:0x00000000
       78975000	      7896	80002f64	00000013	addi	x0,x0,0	  x0:0x00000000
       78985000	      7897	80002f68	82960a93	addi	x21,x12,-2007	 x12:0x80002f38 x21=0x80002761
       78995000	      7898	80002f6c	03800c6f	jal	x24,80002f6c	 x24=0x80002f6c
       79005000	      7899	00000000	00000013	addi	x0,x0,0	  x0:0x00000000
       79015000	      7900	80002fa0	00000013	addi	x0,x0,0	  x0:0x00000000
       79025000	      7901	80002fa4	01c000ef	jal	x1,80002fa4	  x1=0x80002fa4
       79035000	      7902	00000000	00000013	addi	x0,x0,0	  x0:0x00000000
       79045000	      7903	80002fbc	00000013	addi	x0,x0,0	  x0:0x00000000
       79055000	      7904	80002fc0	008000ef	jal	x1,80002fc0	  x1=0x80002fc0
       79065000	      7905	00000000	00000013	addi	x0,x0,0	  x0:0x00000000
       79075000	      7906	80002fc4	00000013	addi	x0,x0,0	  x0:0x00000000
       79085000	      7907	80002fc8	fd1ff0ef	jal	x1,80002fc8	  x1=0x80002fc8
       79095000	      7908	00000000	00000013	addi	x0,x0,0	  x0:0x00000000
       79105000	      7909	80002f94	00000013	addi	x0,x0,0	  x0:0x00000000
       79115000	      7910	80002f98	018000ef	jal	x1,80002f98	  x1=0x80002f98
       79125000	      7911	00000000	00000013	addi	x0,x0,0	  x0:0x00000000
       79135000	      7912	80002fac	00000013	addi	x0,x0,0	  x0:0x00000000
       79145000	      7913	80002fb0	fd1ff36f	jal	x6,80002fb0	  x6=0x80002fb0
       79155000	      7914	00000000	00000013	addi	x0,x0,0	  x0:0x00000000
       79165000	      7915	80002f7c	00000013	addi	x0,x0,0	  x0:0x00000000
       79175000	      7916	80002f80	020000ef	jal	x1,80002f80	  x1=0x80002f80
       79185000	      7917	00000000	00000013	addi	x0,x0,0	  x0:0x00000000
       79195000	      7918	80002f9c	00000013	addi	x0,x0,0	  x0:0x00000000
       79205000	      7919	80002fa0	0140036f	jal	x6,80002fa0	  x6=0x80002fa0
       79215000	      7920	00000000	00000013	addi	x0,x0,0	  x0:0x00000000
       79225000	      7921	80002fb0	00000013	addi	x0,x0,0	  x0:0x00000000
       79235000	      7922	80002fb4	fe9ffb6f	jal	x22,80002fb4	 x22=0x80002fb4
       79245000	      7923	00000000	00000013	addi	x0,x0,0	  x0:0x00000000
       79255000	      7924	80002f98	00000013	addi	x0,x0,0	  x0:0x00000000
       79265000	      7925	80002f9c	00c0036f	jal	x6,80002f9c	  x6=0x80002f9c
       79275000	      7926	00000000	00000013	addi	x0,x0,0	  x0:0x00000000
       79285000	      7927	80002fa4	00000013	addi	x0,x0,0	  x0:0x00000000
       79295000	      7928	80002fa8	fe5ff0ef	jal	x1,80002fa8	  x1=0x80002fa8
       79305000	      7929	00000000	00000013	addi	x0,x0,0	  x0:0x00000000
       79315000	      7930	80002f88	00000013	addi	x0,x0,0	  x0:0x00000000
       79325000	      7931	80002f8c	fe9ff26f	jal	x4,80002f8c	  x4=0x80002f8c
       79335000	      7932	00000000	00000013	addi	x0,x0,0	  x0:0x00000000
       79345000	      7933	80002f70	00000013	addi	x0,x0,0	  x0:0x00000000
       79355000	      7934	80002f74	0080026f	jal	x4,80002f74	  x4=0x80002f74
       79365000	      7935	00000000	00000013	addi	x0,x0,0	  x0:0x00000000
       79375000	      7936	80002f78	00000013	addi	x0,x0,0	  x0:0x00000000
       79385000	      7937	80002f7c	0500036f	jal	x6,80002f7c	  x6=0x80002f7c
       79395000	      7938	00000000	00000013	addi	x0,x0,0	  x0:0x00000000
       79405000	      7939	80002fc8	00000013	addi	x0,x0,0	  x0:0x00000000
       79415000	      7940	80002fcc	ff1ff0ef	jal	x1,80002fcc	  x1=0x80002fcc
       79425000	      7941	00000000	00000013	addi	x0,x0,0	  x0:0x00000000
       79435000	      7942	80002fb8	00000013	addi	x0,x0,0	  x0:0x00000000
       79445000	      7943	80002fbc	fbdff2ef	jal	x5,80002fbc	  x5=0x80002fbc
       79455000	      7944	00000000	00000013	addi	x0,x0,0	  x0:0x00000000
       79465000	      7945	80002f74	00000013	addi	x0,x0,0	  x0:0x00000000
       79475000	      7946	80002f78	040000ef	jal	x1,80002f78	  x1=0x80002f78
       79485000	      7947	00000000	00000013	addi	x0,x0,0	  x0:0x00000000
       79495000	      7948	80002fb4	00000013	addi	x0,x0,0	  x0:0x00000000
       79505000	      7949	80002fb8	018000ef	jal	x1,80002fb8	  x1=0x80002fb8
       79515000	      7950	00000000	00000013	addi	x0,x0,0	  x0:0x00000000
       79525000	      7951	80002fcc	00000013	addi	x0,x0,0	  x0:0x00000000
       79535000	      7952	80002fd0	fc5ff0ef	jal	x1,80002fd0	  x1=0x80002fd0
       79545000	      7953	00000000	00000013	addi	x0,x0,0	  x0:0x00000000
       79555000	      7954	80002f90	00000013	addi	x0,x0,0	  x0:0x00000000
       79565000	      7955	80002f94	018000ef	jal	x1,80002f94	  x1=0x80002f94
       79575000	      7956	00000000	00000013	addi	x0,x0,0	  x0:0x00000000
       79585000	      7957	80002fa8	00000013	addi	x0,x0,0	  x0:0x00000000
       79595000	      7958	80002fac	fc5ff0ef	jal	x1,80002fac	  x1=0x80002fac
       79605000	      7959	00000000	00000013	addi	x0,x0,0	  x0:0x00000000
       79615000	      7960	80002f6c	00000013	addi	x0,x0,0	  x0:0x00000000
       79625000	      7961	80002f70	018000ef	jal	x1,80002f70	  x1=0x80002f70
       79635000	      7962	00000000	00000013	addi	x0,x0,0	  x0:0x00000000
       79645000	      7963	80002f84	00000013	addi	x0,x0,0	  x0:0x00000000
       79655000	      7964	80002f88	ffdff0ef	jal	x1,80002f88	  x1=0x80002f88
       79665000	      7965	00000000	00000013	addi	x0,x0,0	  x0:0x00000000
       79675000	      7966	80002f80	00000013	addi	x0,x0,0	  x0:0x00000000
       79685000	      7967	80002f84	00c007ef	jal	x15,80002f84	 x15=0x80002f84
       79695000	      7968	00000000	00000013	addi	x0,x0,0	  x0:0x00000000
       79705000	      7969	80002f8c	00000013	addi	x0,x0,0	  x0:0x00000000
       79715000	      7970	80002f90	034000ef	jal	x1,80002f90	  x1=0x80002f90
       79725000	      7971	00000000	00000013	addi	x0,x0,0	  x0:0x00000000
       79735000	      7972	80002fc0	00000013	addi	x0,x0,0	  x0:0x00000000
       79745000	      7973	80002fc4	0100036f	jal	x6,80002fc4	  x6=0x80002fc4
       79755000	      7974	00000000	00000013	addi	x0,x0,0	  x0:0x00000000
       79765000	      7975	80002fd0	00000013	addi	x0,x0,0	  x0:0x00000000
       79775000	      7976	80002fd4	c0f93c13	sltiu	x24,x18,-1009	 x18:0x80002af0 x24=0x00000001
       79785000	      7977	80002fd8	00800c6f	jal	x24,80002fd8	 x24=0x80002fd8
       79795000	      7978	00000000	00000013	addi	x0,x0,0	  x0:0x00000000
       79805000	      7979	80002fdc	00000013	addi	x0,x0,0	  x0:0x00000000
       79815000	      7980	80002fe0	018000ef	jal	x1,80002fe0	  x1=0x80002fe0
       79825000	      7981	00000000	00000013	addi	x0,x0,0	  x0:0x00000000
       79835000	      7982	80002ff4	00000013	addi	x0,x0,0	  x0:0x00000000
       79845000	      7983	80002ff8	008000ef	jal	x1,80002ff8	  x1=0x80002ff8
       79855000	      7984	00000000	00000013	addi	x0,x0,0	  x0:0x00000000
       79865000	      7985	80002ffc	00000013	addi	x0,x0,0	  x0:0x00000000
       79875000	      7986	80003000	01c00c6f	jal	x24,80003000	 x24=0x80003000
       79885000	      7987	00000000	00000013	addi	x0,x0,0	  x0:0x00000000
       79895000	      7988	80003018	00000013	addi	x0,x0,0	  x0:0x00000000
       79905000	      7989	8000301c	ff1ff26f	jal	x4,8000301c	  x4=0x8000301c
       79915000	      7990	00000000	00000013	addi	x0,x0,0	  x0:0x00000000
       79925000	      7991	80003008	00000013	addi	x0,x0,0	  x0:0x00000000
       79935000	      7992	8000300c	004005ef	jal	x11,8000300c	 x11=0x8000300c
       79945000	      7993	00000000	00000013	addi	x0,x0,0	  x0:0x00000000
       79955000	      7994	8000300c	00000013	addi	x0,x0,0	  x0:0x00000000
       79965000	      7995	80003010	fddff0ef	jal	x1,80003010	  x1=0x80003010
       79975000	      7996	00000000	00000013	addi	x0,x0,0	  x0:0x00000000
       79985000	      7997	80002fe8	00000013	addi	x0,x0,0	  x0:0x00000000
       79995000	      7998	80002fec	0100036f	jal	x6,80002fec	  x6=0x80002fec
       80005000	      7999	00000000	00000013	addi	x0,x0,0	  x0:0x00000000
       80015000	      8000	80002ff8	00000013	addi	x0,x0,0	  x0:0x00000000
       80025000	      8001	80002ffc	ff5ff0ef	jal	x1,80002ffc	  x1=0x80002ffc
       80035000	      8002	00000000	00000013	addi	x0,x0,0	  x0:0x00000000
       80045000	      8003	80002fec	00000013	addi	x0,x0,0	  x0:0x00000000
       80055000	      8004	80002ff0	01400cef	jal	x25,80002ff0	 x25=0x80002ff0
       80065000	      8005	00000000	00000013	addi	x0,x0,0	  x0:0x00000000
       80075000	      8006	80003000	00000013	addi	x0,x0,0	  x0:0x00000000
       80085000	      8007	80003004	010000ef	jal	x1,80003004	  x1=0x80003004
       80095000	      8008	00000000	00000013	addi	x0,x0,0	  x0:0x00000000
       80105000	      8009	80003010	00000013	addi	x0,x0,0	  x0:0x00000000
       80115000	      8010	80003014	ff5ff36f	jal	x6,80003014	  x6=0x80003014
       80125000	      8011	00000000	00000013	addi	x0,x0,0	  x0:0x00000000
       80135000	      8012	80003004	00000013	addi	x0,x0,0	  x0:0x00000000
       80145000	      8013	80003008	fe1ff96f	jal	x18,80003008	 x18=0x80003008
       80155000	      8014	00000000	00000013	addi	x0,x0,0	  x0:0x00000000
       80165000	      8015	80002fe4	00000013	addi	x0,x0,0	  x0:0x00000000
       80175000	      8016	80002fe8	0300036f	jal	x6,80002fe8	  x6=0x80002fe8
       80185000	      8017	00000000	00000013	addi	x0,x0,0	  x0:0x00000000
       80195000	      8018	80003014	00000013	addi	x0,x0,0	  x0:0x00000000
       80205000	      8019	80003018	fc5ff5ef	jal	x11,80003018	 x11=0x80003018
       80215000	      8020	00000000	00000013	addi	x0,x0,0	  x0:0x00000000
       80225000	      8021	80002fd8	00000013	addi	x0,x0,0	  x0:0x00000000
       80235000	      8022	80002fdc	018000ef	jal	x1,80002fdc	  x1=0x80002fdc
       80245000	      8023	00000000	00000013	addi	x0,x0,0	  x0:0x00000000
       80255000	      8024	80002ff0	00000013	addi	x0,x0,0	  x0:0x00000000
       80265000	      8025	80002ff4	ff1ff0ef	jal	x1,80002ff4	  x1=0x80002ff4
       80275000	      8026	00000000	00000013	addi	x0,x0,0	  x0:0x00000000
       80285000	      8027	80002fe0	00000013	addi	x0,x0,0	  x0:0x00000000
       80295000	      8028	80002fe4	03c0036f	jal	x6,80002fe4	  x6=0x80002fe4
       80305000	      8029	00000000	00000013	addi	x0,x0,0	  x0:0x00000000
       80315000	      8030	8000301c	00000013	addi	x0,x0,0	  x0:0x00000000
       80325000	      8031	80003020	00439013	slli	x0,x7,0x4	  x7:0x80002f58
       80335000	      8032	80003024	03800c6f	jal	x24,80003024	 x24=0x80003024
       80345000	      8033	00000000	00000013	addi	x0,x0,0	  x0:0x00000000
       80355000	      8034	80003058	00000013	addi	x0,x0,0	  x0:0x00000000
       80365000	      8035	8000305c	fd5ff0ef	jal	x1,8000305c	  x1=0x8000305c
       80375000	      8036	00000000	00000013	addi	x0,x0,0	  x0:0x00000000
       80385000	      8037	8000302c	00000013	addi	x0,x0,0	  x0:0x00000000
       80395000	      8038	80003030	010000ef	jal	x1,80003030	  x1=0x80003030
       80405000	      8039	00000000	00000013	addi	x0,x0,0	  x0:0x00000000
       80415000	      8040	8000303c	00000013	addi	x0,x0,0	  x0:0x00000000
       80425000	      8041	80003040	ff5ff56f	jal	x10,80003040	 x10=0x80003040
       80435000	      8042	00000000	00000013	addi	x0,x0,0	  x0:0x00000000
       80445000	      8043	80003030	00000013	addi	x0,x0,0	  x0:0x00000000
       80455000	      8044	80003034	ff5ff66f	jal	x12,80003034	 x12=0x80003034
       80465000	      8045	00000000	00000013	addi	x0,x0,0	  x0:0x00000000
       80475000	      8046	80003024	00000013	addi	x0,x0,0	  x0:0x00000000
       80485000	      8047	80003028	040000ef	jal	x1,80003028	  x1=0x80003028
       80495000	      8048	00000000	00000013	addi	x0,x0,0	  x0:0x00000000
       80505000	      8049	80003064	00000013	addi	x0,x0,0	  x0:0x00000000
       80515000	      8050	80003068	00c000ef	jal	x1,80003068	  x1=0x80003068
       80525000	      8051	00000000	00000013	addi	x0,x0,0	  x0:0x00000000
       80535000	      8052	80003070	00000013	addi	x0,x0,0	  x0:0x00000000
       80545000	      8053	80003074	fd1ff0ef	jal	x1,80003074	  x1=0x80003074
       80555000	      8054	00000000	00000013	addi	x0,x0,0	  x0:0x00000000
       80565000	      8055	80003040	00000013	addi	x0,x0,0	  x0:0x00000000
       80575000	      8056	80003044	02c000ef	jal	x1,80003044	  x1=0x80003044
       80585000	      8057	00000000	00000013	addi	x0,x0,0	  x0:0x00000000
       80595000	      8058	8000306c	00000013	addi	x0,x0,0	  x0:0x00000000
       80605000	      8059	80003070	fddff0ef	jal	x1,80003070	  x1=0x80003070
       80615000	      8060	00000000	00000013	addi	x0,x0,0	  x0:0x00000000
       80625000	      8061	80003048	00000013	addi	x0,x0,0	  x0:0x00000000
       80635000	      8062	8000304c	ffdff36f	jal	x6,8000304c	  x6=0x8000304c
       80645000	      8063	00000000	00000013	addi	x0,x0,0	  x0:0x00000000
       80655000	      8064	80003044	00000013	addi	x0,x0,0	  x0:0x00000000
       80665000	      8065	80003048	fe5ff0ef	jal	x1,80003048	  x1=0x80003048
       80675000	      8066	00000000	00000013	addi	x0,x0,0	  x0:0x00000000
       80685000	      8067	80003028	00000013	addi	x0,x0,0	  x0:0x00000000
       80695000	      8068	8000302c	010003ef	jal	x7,8000302c	  x7=0x8000302c
       80705000	      8069	00000000	00000013	addi	x0,x0,0	  x0:0x00000000
       80715000	      8070	80003038	00000013	addi	x0,x0,0	  x0:0x00000000
       80725000	      8071	8000303c	0140016f	jal	x2,8000303c	  x2=0x8000303c
       80735000	      8072	00000000	00000013	addi	x0,x0,0	  x0:0x00000000
       80745000	      8073	8000304c	00000013	addi	x0,x0,0	  x0:0x00000000
       80755000	      8074	80003050	004000ef	jal	x1,80003050	  x1=0x80003050
       80765000	      8075	00000000	00000013	addi	x0,x0,0	  x0:0x00000000
       80775000	      8076	80003050	00000013	addi	x0,x0,0	  x0:0x00000000
       80785000	      8077	80003054	004000ef	jal	x1,80003054	  x1=0x80003054
       80795000	      8078	00000000	00000013	addi	x0,x0,0	  x0:0x00000000
       80805000	      8079	80003054	00000013	addi	x0,x0,0	  x0:0x00000000
       80815000	      8080	80003058	0240036f	jal	x6,80003058	  x6=0x80003058
       80825000	      8081	00000000	00000013	addi	x0,x0,0	  x0:0x00000000
       80835000	      8082	80003078	00000013	addi	x0,x0,0	  x0:0x00000000
       80845000	      8083	8000307c	fbdff2ef	jal	x5,8000307c	  x5=0x8000307c
       80855000	      8084	00000000	00000013	addi	x0,x0,0	  x0:0x00000000
       80865000	      8085	80003034	00000013	addi	x0,x0,0	  x0:0x00000000
       80875000	      8086	80003038	04c000ef	jal	x1,80003038	  x1=0x80003038
       80885000	      8087	00000000	00000013	addi	x0,x0,0	  x0:0x00000000
       80895000	      8088	80003080	00000013	addi	x0,x0,0	  x0:0x00000000
       80905000	      8089	80003084	ffdff76f	jal	x14,80003084	 x14=0x80003084
       80915000	      8090	00000000	00000013	addi	x0,x0,0	  x0:0x00000000
       80925000	      8091	8000307c	00000013	addi	x0,x0,0	  x0:0x00000000
       80935000	      8092	80003080	ff9ff0ef	jal	x1,80003080	  x1=0x80003080
       80945000	      8093	00000000	00000013	addi	x0,x0,0	  x0:0x00000000
       80955000	      8094	80003074	00000013	addi	x0,x0,0	  x0:0x00000000
       80965000	      8095	80003078	ff5ff36f	jal	x6,80003078	  x6=0x80003078
       80975000	      8096	00000000	00000013	addi	x0,x0,0	  x0:0x00000000
       80985000	      8097	80003068	00000013	addi	x0,x0,0	  x0:0x00000000
       80995000	      8098	8000306c	ff5ff0ef	jal	x1,8000306c	  x1=0x8000306c
       81005000	      8099	00000000	00000013	addi	x0,x0,0	  x0:0x00000000
       81015000	      8100	8000305c	00000013	addi	x0,x0,0	  x0:0x00000000
       81025000	      8101	80003060	004000ef	jal	x1,80003060	  x1=0x80003060
       81035000	      8102	00000000	00000013	addi	x0,x0,0	  x0:0x00000000
       81045000	      8103	80003060	00000013	addi	x0,x0,0	  x0:0x00000000
       81055000	      8104	80003064	024000ef	jal	x1,80003064	  x1=0x80003064
       81065000	      8105	00000000	00000013	addi	x0,x0,0	  x0:0x00000000
       81075000	      8106	80003084	00000013	addi	x0,x0,0	  x0:0x00000000
       81085000	      8107	80003088	00d796b3	sll	x13,x15,x13	 x15:0x80002f84 x13:0x80002df0 x13=0x2f840000
       81095000	      8108	8000308c	41ced693	srai	x13,x29,0x1c	 x29:0x80002bd7 x13=0xfffffff8
       81105000	      8109	80003090	02a6d863	bge	x13,x10,800030c0	 x13:0xfffffff8 x10:0x80003040
       81115000	      8110	00000000	00000013	addi	x0,x0,0	  x0:0x00000000
       81125000	      8111	800030bc	00000013	addi	x0,x0,0	  x0:0x00000000
       81135000	      8112	800030c0	05b51063	bne	x10,x27,80003100	 x10:0x80003040 x27:0x00000140
       81145000	      8113	00000000	00000013	addi	x0,x0,0	  x0:0x00000000
       81155000	      8114	800030fc	00000013	addi	x0,x0,0	  x0:0x00000000
       81165000	      8115	80003100	02404463	blt	x0,x4,80003128	  x0:0x00000000  x4:0x8000301c
       81175000	      8116	80003104	012e8c33	add	x24,x29,x18	 x29:0x80002bd7 x18:0x80003008 x24=0x00005bdf
       81185000	      8117	80003108	00000013	addi	x0,x0,0	  x0:0x00000000
       81195000	      8118	8000310c	007ca4b3	slt	x9,x25,x7	 x25:0x80002ff0  x7:0x8000302c  x9=0x00000001
       81205000	      8119	80003110	01848033	add	x0,x9,x24	  x9:0x00000001 x24:0x00005bdf
       81215000	      8120	80003114	00eee9b3	or	x19,x29,x14	 x29:0x80002bd7 x14:0x80003084 x19=0x80003bd7
       81225000	      8121	80003118	01545863	bge	x8,x21,80003128	  x8:0x80009fc4 x21:0x80002761
       81235000	      8122	00000000	00000013	addi	x0,x0,0	  x0:0x00000000
       81245000	      8123	80003124	00000013	addi	x0,x0,0	  x0:0x00000000
       81255000	      8124	80003128	026e6463	bltu	x28,x6,80003150	 x28:0x80009eec  x6:0x80003078
       81265000	      8125	8000312c	00000013	addi	x0,x0,0	  x0:0x00000000
       81275000	      8126	80003130	0109d313	srli	x6,x19,0x10	 x19:0x80003bd7  x6=0x00008000
       81285000	      8127	80003134	0462cb93	xori	x23,x5,70	  x5:0x8000307c x23=0x8000303a
       81295000	      8128	80003138	fa903693	sltiu	x13,x0,-87	  x0:0x00000000 x13=0x00000001
       81305000	      8129	8000313c	001fddb3	srl	x27,x31,x1	 x31:0x80002ee4  x1:0x80003064 x27=0x080002ee
       81315000	      8130	80003140	02e84663	blt	x16,x14,8000316c	 x16:0x00000000 x14:0x80003084
       81325000	      8131	80003144	01261bb3	sll	x23,x12,x18	 x12:0x80003034 x18:0x80003008 x23=0x00303400
       81335000	      8132	80003148	01e0cb33	xor	x22,x1,x30	  x1:0x80003064 x30:0x80002d88 x22=0x00001dec
       81345000	      8133	8000314c	02c51863	bne	x10,x12,8000317c	 x10:0x80003040 x12:0x80003034
       81355000	      8134	00000000	00000013	addi	x0,x0,0	  x0:0x00000000
       81365000	      8135	80003178	00000013	addi	x0,x0,0	  x0:0x00000000
       81375000	      8136	8000317c	411bd493	srai	x9,x23,0x11	 x23:0x00303400  x9=0x00000018
       81385000	      8137	80003180	00a606b3	add	x13,x12,x10	 x12:0x80003034 x10:0x80003040 x13=0x00006074
       81395000	      8138	80003184	0022edb3	or	x27,x5,x2	  x5:0x8000307c  x2:0x8000303c x27=0x8000307c
       81405000	      8139	80003188	01966ab3	or	x21,x12,x25	 x12:0x80003034 x25:0x80002ff0 x21=0x80003ff4
       81415000	      8140	8000318c	d52b2f93	slti	x31,x22,-686	 x22:0x00001dec x31=0x00000000
       81425000	      8141	80003190	40415993	srai	x19,x2,0x4	  x2:0x8000303c x19=0xf8000303
       81435000	      8142	80003194	00284db3	xor	x27,x16,x2	 x16:0x00000000  x2:0x8000303c x27=0x8000303c
       81445000	      8143	80003198	015111b3	sll	x3,x2,x21	  x2:0x8000303c x21:0x80003ff4  x3=0x03c00000
       81455000	      8144	8000319c	012fd663	bge	x31,x18,800031a8	 x31:0x00000000 x18:0x80003008
       81465000	      8145	00000000	00000013	addi	x0,x0,0	  x0:0x00000000
       81475000	      8146	800031a4	00000013	addi	x0,x0,0	  x0:0x00000000
       81485000	      8147	800031a8	fb45c013	xori	x0,x11,-76	 x11:0x80003018
       81495000	      8148	800031ac	046be663	bltu	x23,x6,800031f8	 x23:0x00303400  x6:0x00008000
       81505000	      8149	800031b0	048c0663	beq	x24,x8,800031fc	 x24:0x00005bdf  x8:0x80009fc4
       81515000	      8150	800031b4	0081e733	or	x14,x3,x8	  x3:0x03c00000  x8:0x80009fc4 x14=0x83c09fc4
       81525000	      8151	800031b8	01ac61b3	or	x3,x24,x26	 x24:0x00005bdf x26:0x80002d60  x3=0x80007fff
       81535000	      8152	800031bc	fe96a297	auipc	x5,0xfe96a	  x5=0x7e96d1b8
       81545000	      8153	800031c0	01eafa63	bgeu	x21,x30,800031d4	 x21:0x80003ff4 x30:0x80002d88
       81555000	      8154	00000000	00000013	addi	x0,x0,0	  x0:0x00000000
       81565000	      8155	800031d0	00000013	addi	x0,x0,0	  x0:0x00000000
       81575000	      8156	800031d4	00000013	addi	x0,x0,0	  x0:0x00000000
       81585000	      8157	800031d8	015277b3	and	x15,x4,x21	  x4:0x8000301c x21:0x80003ff4 x15=0x80003014
       81595000	      8158	800031dc	03d3c863	blt	x7,x29,8000320c	  x7:0x8000302c x29:0x80002bd7
       81605000	      8159	800031e0	04086263	bltu	x16,x0,80003224	 x16:0x00000000  x0:0x00000000
       81615000	      8160	800031e4	a4c0ac13	slti	x24,x1,-1460	  x1:0x80003064 x24=0x00000001
       81625000	      8161	800031e8	01a79663	bne	x15,x26,800031f4	 x15:0x80003014 x26:0x80002d60
       81635000	      8162	00000000	00000013	addi	x0,x0,0	  x0:0x00000000
       81645000	      8163	800031f0	00000013	addi	x0,x0,0	  x0:0x00000000
       81655000	      8164	800031f4	008ac463	blt	x21,x8,800031fc	 x21:0x80003ff4  x8:0x80009fc4
       81665000	      8165	00000000	00000013	addi	x0,x0,0	  x0:0x00000000
       81675000	      8166	800031f8	00000013	addi	x0,x0,0	  x0:0x00000000
       81685000	      8167	800031fc	e7b63093	sltiu	x1,x12,-389	 x12:0x80003034  x1=0x00000001
       81695000	      8168	80003200	01a92033	slt	x0,x18,x26	 x18:0x80003008 x26:0x80002d60
       81705000	      8169	80003204	00d6e0b3	or	x1,x13,x13	 x13:0x00006074 x13:0x00006074  x1=0x00006074
       81715000	      8170	80003208	015fe2b3	or	x5,x31,x21	 x31:0x00000000 x21:0x80003ff4  x5=0x80003ff4
       81725000	      8171	8000320c	14520137	lui	x2,0x14520	  x2=0x14520000
       81735000	      8172	80003210	41d1ddb3	sra	x27,x3,x29	  x3:0x80007fff x29:0x80002bd7 x27=0xffffff00
       81745000	      8173	80003214	f7c06b17	auipc	x22,0xf7c06	 x22=0x77c09210
       81755000	      8174	80003218	008d7733	and	x14,x26,x8	 x26:0x80002d60  x8:0x80009fc4 x14=0x80000d40
       81765000	      8175	8000321c	f3c72c97	auipc	x25,0xf3c72	 x25=0x73c75218
       81775000	      8176	80003220	0a9cc793	xori	x15,x25,169	 x25:0x73c75218 x15=0x73c752b1
       81785000	      8177	80003224	024e7c63	bgeu	x28,x4,8000325c	 x28:0x80009eec  x4:0x8000301c
       81795000	      8178	00000000	00000013	addi	x0,x0,0	  x0:0x00000000
       81805000	      8179	80003258	00000013	addi	x0,x0,0	  x0:0x00000000
       81815000	      8180	8000325c	05f1d063	bge	x3,x31,8000329c	  x3:0x80007fff x31:0x00000000
       81825000	      8181	80003260	00729bb3	sll	x23,x5,x7	  x5:0x80003ff4  x7:0x8000302c x23=0x03ff4000
       81835000	      8182	80003264	ff72a313	slti	x6,x5,-9	  x5:0x80003ff4  x6=0x00000001
       81845000	      8183	80003268	01c40463	beq	x8,x28,80003270	  x8:0x80009fc4 x28:0x80009eec
       81855000	      8184	8000326c	411350b3	sra	x1,x6,x17	  x6:0x00000001 x17:0x80002e64  x1=0x00000000
       81865000	      8185	80003270	01502bb3	slt	x23,x0,x21	  x0:0x00000000 x21:0x80003ff4 x23=0x00000000
       81875000	      8186	80003274	3d664a93	xori	x21,x12,982	 x12:0x80003034 x21=0x800033e2
       81885000	      8187	80003278	40d65a13	srai	x20,x12,0xd	 x12:0x80003034 x20=0xfffc0001
       81895000	      8188	8000327c	2eed6c13	ori	x24,x26,750	 x26:0x80002d60 x24=0x80002fee
       81905000	      8189	80003280	04f26863	bltu	x4,x15,800032d0	  x4:0x8000301c x15:0x73c752b1
       81915000	      8190	80003284	19f78037	lui	x0,0x19f78	
       81925000	      8191	80003288	005fd993	srli	x19,x31,0x5	 x31:0x00000000 x19=0x00000000
       81935000	      8192	8000328c	8c338713	addi	x14,x7,-1853	  x7:0x8000302c x14=0x800028ef
       81945000	      8193	80003290	e4216993	ori	x19,x2,-446	  x2:0x14520000 x19=0xfffffe42
       81955000	      8194	80003294	003b34b3	sltu	x9,x22,x3	 x22:0x77c09210  x3:0x80007fff  x9=0x00000001
       81965000	      8195	80003298	411f0bb3	sub	x23,x30,x17	 x30:0x80002d88 x17:0x80002e64 x23=0xffffff24
       81975000	      8196	8000329c	008a4d33	xor	x26,x20,x8	 x20:0xfffc0001  x8:0x80009fc4 x26=0x7ffc9fc5
       81985000	      8197	800032a0	01ca3333	sltu	x6,x20,x28	 x20:0xfffc0001 x28:0x80009eec  x6=0x00000000
       81995000	      8198	800032a4	41a95333	sra	x6,x18,x26	 x18:0x80003008 x26:0x7ffc9fc5  x6=0xfc000180
       82005000	      8199	800032a8	40925d33	sra	x26,x4,x9	  x4:0x8000301c  x9:0x00000001 x26=0xc000180e
       82015000	      8200	800032ac	0046f1b3	and	x3,x13,x4	 x13:0x00006074  x4:0x8000301c  x3=0x00002014
       82025000	      8201	800032b0	4150d793	srai	x15,x1,0x15	  x1:0x00000000 x15=0x00000000
       82035000	      8202	800032b4	01c26663	bltu	x4,x28,800032c0	  x4:0x8000301c x28:0x80009eec
       82045000	      8203	00000000	00000013	addi	x0,x0,0	  x0:0x00000000
       82055000	      8204	800032bc	00000013	addi	x0,x0,0	  x0:0x00000000
       82065000	      8205	800032c0	004a9e93	slli	x29,x21,0x4	 x21:0x800033e2 x29=0x00033e20
       82075000	      8206	800032c4	003d1e63	bne	x26,x3,800032e0	 x26:0xc000180e  x3:0x00002014
       82085000	      8207	00000000	00000013	addi	x0,x0,0	  x0:0x00000000
       82095000	      8208	800032dc	00000013	addi	x0,x0,0	  x0:0x00000000
       82105000	      8209	800032e0	2c072913	slti	x18,x14,704	 x14:0x800028ef x18=0x00000001
       82115000	      8210	800032e4	40725c93	srai	x25,x4,0x7	  x4:0x8000301c x25=0xff000060
       82125000	      8211	800032e8	40795313	srai	x6,x18,0x7	 x18:0x00000001  x6=0x00000000
       82135000	      8212	800032ec	405855b3	sra	x11,x16,x5	 x16:0x00000000  x5:0x80003ff4 x11=0x00000000
       82145000	      8213	800032f0	40d003b3	sub	x7,x0,x13	  x0:0x00000000 x13:0x00006074  x7=0xffff9f8c
       82155000	      8214	800032f4	ea26f593	andi	x11,x13,-350	 x13:0x00006074 x11=0x00006020
       82165000	      8215	800032f8	01d2da63	bge	x5,x29,8000330c	  x5:0x80003ff4 x29:0x00033e20
       82175000	      8216	800032fc	4522a913	slti	x18,x5,1106	  x5:0x80003ff4 x18=0x00000001
       82185000	      8217	80003300	01bf8263	beq	x31,x27,80003304	 x31:0x00000000 x27:0xffffff00
       82195000	      8218	80003304	018887b3	add	x15,x17,x24	 x17:0x80002e64 x24:0x80002fee x15=0x00005e52
       82205000	      8219	80003308	03644863	blt	x8,x22,80003338	  x8:0x80009fc4 x22:0x77c09210
       82215000	      8220	00000000	00000013	addi	x0,x0,0	  x0:0x00000000
       82225000	      8221	80003334	00000013	addi	x0,x0,0	  x0:0x00000000
       82235000	      8222	80003338	41d95a13	srai	x20,x18,0x1d	 x18:0x00000001 x20=0x00000000
       82245000	      8223	8000333c	00ba6a33	or	x20,x20,x11	 x20:0x00000000 x11:0x00006020 x20=0x00006020
       82255000	      8224	80003340	017e5733	srl	x14,x28,x23	 x28:0x80009eec x23:0xffffff24 x14=0x080009ee
       82265000	      8225	80003344	41bb5f93	srai	x31,x22,0x1b	 x22:0x77c09210 x31=0x0000000e
       82275000	      8226	80003348	413d5b13	srai	x22,x26,0x13	 x26:0xc000180e x22=0xfffff800
       82285000	      8227	8000334c	04a64263	blt	x12,x10,80003390	 x12:0x80003034 x10:0x80003040
       82295000	      8228	00000000	00000013	addi	x0,x0,0	  x0:0x00000000
       82305000	      8229	8000338c	00000013	addi	x0,x0,0	  x0:0x00000000
       82315000	      8230	80003390	0299f863	bgeu	x19,x9,800033c0	 x19:0xfffffe42  x9:0x00000001
       82325000	      8231	00000000	00000013	addi	x0,x0,0	  x0:0x00000000
       82335000	      8232	800033bc	00000013	addi	x0,x0,0	  x0:0x00000000
       82345000	      8233	800033c0	0136db33	srl	x22,x13,x19	 x13:0x00006074 x19:0xfffffe42 x22=0x0000181d
       82355000	      8234	800033c4	18000197	auipc	x3,0x18000	  x3=0x980033c0
       82365000	      8235	800033c8	00a921b3	slt	x3,x18,x10	 x18:0x00000001 x10:0x80003040  x3=0x00000000
       82375000	      8236	800033cc	000fd2b3	srl	x5,x31,x0	 x31:0x0000000e  x0:0x00000000  x5=0x0000000e
       82385000	      8237	800033d0	01c5bdb3	sltu	x27,x11,x28	 x11:0x00006020 x28:0x80009eec x27=0x00000001
       82395000	      8238	800033d4	c7809c17	auipc	x24,0xc7809	 x24=0x4780c3d0
       82405000	      8239	800033d8	032a0463	beq	x20,x18,80003400	 x20:0x00006020 x18:0x00000001
       82415000	      8240	800033dc	00000013	addi	x0,x0,0	  x0:0x00000000
       82425000	      8241	800033e0	00919b93	slli	x23,x3,0x9	  x3:0x00000000 x23=0x00000000
       82435000	      8242	800033e4	0109c3b3	xor	x7,x19,x16	 x19:0xfffffe42 x16:0x00000000  x7=0xfffffe42
       82445000	      8243	800033e8	01b525b3	slt	x11,x10,x27	 x10:0x80003040 x27:0x00000001 x11=0x00000001
       82455000	      8244	800033ec	011d8033	add	x0,x27,x17	 x27:0x00000001 x17:0x80002e64
       82465000	      8245	800033f0	d163a993	slti	x19,x7,-746	  x7:0xfffffe42 x19=0x00000000
       82475000	      8246	800033f4	011f90b3	sll	x1,x31,x17	 x31:0x0000000e x17:0x80002e64  x1=0x000000e0
       82485000	      8247	800033f8	00078c63	beq	x15,x0,80003410	 x15:0x00005e52  x0:0x00000000
       82495000	      8248	800033fc	e0aab993	sltiu	x19,x21,-502	 x21:0x800033e2 x19=0x00000001
       82505000	      8249	80003400	01bb8d33	add	x26,x23,x27	 x23:0x00000000 x27:0x00000001 x26=0x00000001
       82515000	      8250	80003404	006bd513	srli	x10,x23,0x6	 x23:0x00000000 x10=0x00000000
       82525000	      8251	80003408	015dfa33	and	x20,x27,x21	 x27:0x00000001 x21:0x800033e2 x20=0x00000000
       82535000	      8252	8000340c	00000013	addi	x0,x0,0	  x0:0x00000000
       82545000	      8253	80003410	000bd233	srl	x4,x23,x0	 x23:0x00000000  x0:0x00000000  x4=0x00000000
       82555000	      8254	80003414	02b4d663	bge	x9,x11,80003440	  x9:0x00000001 x11:0x00000001
       82565000	      8255	00000000	00000013	addi	x0,x0,0	  x0:0x00000000
       82575000	      8256	8000343c	00000013	addi	x0,x0,0	  x0:0x00000000
       82585000	      8257	80003440	0495f463	bgeu	x11,x9,80003488	 x11:0x00000001  x9:0x00000001
       82595000	      8258	00000000	00000013	addi	x0,x0,0	  x0:0x00000000
       82605000	      8259	80003484	00000013	addi	x0,x0,0	  x0:0x00000000
       82615000	      8260	80003488	41e504b3	sub	x9,x10,x30	 x10:0x00000000 x30:0x80002d88  x9=0x7fffd278
       82625000	      8261	8000348c	0217d1b7	lui	x3,0x217d	  x3=0x0217d000
       82635000	      8262	80003490	010772b3	and	x5,x14,x16	 x14:0x080009ee x16:0x00000000  x5=0x00000000
       82645000	      8263	80003494	00578c33	add	x24,x15,x5	 x15:0x00005e52  x5:0x00000000 x24=0x00005e52
       82655000	      8264	80003498	01cb6463	bltu	x22,x28,800034a0	 x22:0x0000181d x28:0x80009eec
       82665000	      8265	00000000	00000013	addi	x0,x0,0	  x0:0x00000000
       82675000	      8266	8000349c	00000013	addi	x0,x0,0	  x0:0x00000000
       82685000	      8267	800034a0	026d7863	bgeu	x26,x6,800034d0	 x26:0x00000001  x6:0x00000000
       82695000	      8268	00000000	00000013	addi	x0,x0,0	  x0:0x00000000
       82705000	      8269	800034cc	00000013	addi	x0,x0,0	  x0:0x00000000
       82715000	      8270	800034d0	7130ef13	ori	x30,x1,1811	  x1:0x000000e0 x30=0x000007f3
       82725000	      8271	800034d4	03710463	beq	x2,x23,800034fc	  x2:0x14520000 x23:0x00000000
       82735000	      8272	800034d8	98c20213	addi	x4,x4,-1652	  x4:0x00000000  x4=0xfffff98c
       82745000	      8273	800034dc	002d35b3	sltu	x11,x26,x2	 x26:0x00000001  x2:0x14520000 x11=0x00000001
       82755000	      8274	800034e0	0074e263	bltu	x9,x7,800034e4	  x9:0x7fffd278  x7:0xfffffe42
       82765000	      8275	00000000	00000013	addi	x0,x0,0	  x0:0x00000000
       82775000	      8276	800034e0	00000013	addi	x0,x0,0	  x0:0x00000000
       82785000	      8277	800034e4	5ef18e93	addi	x29,x3,1519	  x3:0x0217d000 x29=0x0217d5ef
       82795000	      8278	800034e8	1be43613	sltiu	x12,x8,446	  x8:0x80009fc4 x12=0x00000000
       82805000	      8279	800034ec	ed5f0e93	addi	x29,x30,-299	 x30:0x000007f3 x29=0x000006c8
       82815000	      8280	800034f0	00585c13	srli	x24,x16,0x5	 x16:0x00000000 x24=0x00000000
       82825000	      8281	800034f4	00abdc63	bge	x23,x10,8000350c	 x23:0x00000000 x10:0x00000000
       82835000	      8282	00000000	00000013	addi	x0,x0,0	  x0:0x00000000
       82845000	      8283	80003508	00000013	addi	x0,x0,0	  x0:0x00000000
       82855000	      8284	8000350c	01c18033	add	x0,x3,x28	  x3:0x0217d000 x28:0x80009eec
       82865000	      8285	80003510	01b09a33	sll	x20,x1,x27	  x1:0x000000e0 x27:0x00000001 x20=0x000001c0
       82875000	      8286	80003514	408b0ab3	sub	x21,x22,x8	 x22:0x0000181d  x8:0x80009fc4 x21=0x7fff7859
       82885000	      8287	80003518	208b6f93	ori	x31,x22,520	 x22:0x0000181d x31=0x00001a1d
       82895000	      8288	8000351c	00145fb3	srl	x31,x8,x1	  x8:0x80009fc4  x1:0x000000e0 x31=0x80009fc4
       82905000	      8289	80003520	01595993	srli	x19,x18,0x15	 x18:0x00000001 x19=0x00000000
       82915000	      8290	80003524	00000013	addi	x0,x0,0	  x0:0x00000000
       82925000	      8291	80003528	01be9f33	sll	x30,x29,x27	 x29:0x000006c8 x27:0x00000001 x30=0x00000d90
       82935000	      8292	8000352c	01eb0263	beq	x22,x30,80003530	 x22:0x0000181d x30:0x00000d90
       82945000	      8293	80003530	59773993	sltiu	x19,x14,1431	 x14:0x080009ee x19=0x00000000
       82955000	      8294	80003534	41cc8bb3	sub	x23,x25,x28	 x25:0xff000060 x28:0x80009eec x23=0x7eff6174
       82965000	      8295	80003538	0018c0b3	xor	x1,x17,x1	 x17:0x80002e64  x1:0x000000e0  x1=0x80002e84
       82975000	      8296	8000353c	01710033	add	x0,x2,x23	  x2:0x14520000 x23:0x7eff6174
       82985000	      8297	80003540	008f75b3	and	x11,x30,x8	 x30:0x00000d90  x8:0x80009fc4 x11=0x00000d80
       82995000	      8298	80003544	00a2d213	srli	x4,x5,0xa	  x5:0x00000000  x4=0x00000000
       83005000	      8299	80003548	f77d0e93	addi	x29,x26,-137	 x26:0x00000001 x29=0xffffff78
       83015000	      8300	8000354c	009eb3b3	sltu	x7,x29,x9	 x29:0xffffff78  x9:0x7fffd278  x7=0x00000000
       83025000	      8301	80003550	0140bbb3	sltu	x23,x1,x20	  x1:0x80002e84 x20:0x000001c0 x23=0x00000000
       83035000	      8302	80003554	ea10bd93	sltiu	x27,x1,-351	  x1:0x80002e84 x27=0x00000001
       83045000	      8303	80003558	784f9d17	auipc	x26,0x784f9	 x26=0xf84fc554
       83055000	      8304	8000355c	41c65db3	sra	x27,x12,x28	 x12:0x00000000 x28:0x80009eec x27=0x00000000
       83065000	      8305	80003560	05f4e863	bltu	x9,x31,800035b0	  x9:0x7fffd278 x31:0x80009fc4
       83075000	      8306	00000000	00000013	addi	x0,x0,0	  x0:0x00000000
       83085000	      8307	800035ac	00000013	addi	x0,x0,0	  x0:0x00000000
       83095000	      8308	800035b0	43803097	auipc	x1,0x43803	  x1=0xc38065ac
       83105000	      8309	800035b4	bc5f4493	xori	x9,x30,-1083	 x30:0x00000d90  x9=0xfffff655
       83115000	      8310	800035b8	00dfc663	blt	x31,x13,800035c4	 x31:0x80009fc4 x13:0x00006074
       83125000	      8311	00000000	00000013	addi	x0,x0,0	  x0:0x00000000
       83135000	      8312	800035c0	00000013	addi	x0,x0,0	  x0:0x00000000
       83145000	      8313	800035c4	0169d633	srl	x12,x19,x22	 x19:0x00000000 x22:0x0000181d x12=0x00000000
       83155000	      8314	800035c8	b4c6ec13	ori	x24,x13,-1204	 x13:0x00006074 x24=0xfffffb7c
       83165000	      8315	800035cc	01d6f033	and	x0,x13,x29	 x13:0x00006074 x29:0xffffff78
       83175000	      8316	800035d0	007e1d33	sll	x26,x28,x7	 x28:0x80009eec  x7:0x00000000 x26=0x80009eec
       83185000	      8317	800035d4	003e9913	slli	x18,x29,0x3	 x29:0xffffff78 x18=0xfffffbc0
       83195000	      8318	800035d8	01eb88b3	add	x17,x23,x30	 x23:0x00000000 x30:0x00000d90 x17=0x00000d90
       83205000	      8319	800035dc	4027da33	sra	x20,x15,x2	 x15:0x00005e52  x2:0x14520000 x20=0x00005e52
       83215000	      8320	800035e0	40c7d533	sra	x10,x15,x12	 x15:0x00005e52 x12:0x00000000 x10=0x00005e52
       83225000	      8321	800035e4	01056863	bltu	x10,x16,800035f4	 x10:0x00005e52 x16:0x00000000
       83235000	      8322	800035e8	024ac463	blt	x21,x4,80003610	 x21:0x7fff7859  x4:0x00000000
       83245000	      8323	800035ec	c34c2693	slti	x13,x24,-972	 x24:0xfffffb7c x13=0x00000001
       83255000	      8324	800035f0	014875b3	and	x11,x16,x20	 x16:0x00000000 x20:0x00005e52 x11=0x00000000
       83265000	      8325	800035f4	00869bb3	sll	x23,x13,x8	 x13:0x00000001  x8:0x80009fc4 x23=0x00000010
       83275000	      8326	800035f8	00d5fb33	and	x22,x11,x13	 x11:0x00000000 x13:0x00000001 x22=0x00000000
       83285000	      8327	800035fc	00000013	addi	x0,x0,0	  x0:0x00000000
       83295000	      8328	80003600	0258f663	bgeu	x17,x5,8000362c	 x17:0x00000d90  x5:0x00000000
       83305000	      8329	00000000	00000013	addi	x0,x0,0	  x0:0x00000000
       83315000	      8330	80003628	00000013	addi	x0,x0,0	  x0:0x00000000
       83325000	      8331	8000362c	0057d2b3	srl	x5,x15,x5	 x15:0x00005e52  x5:0x00000000  x5=0x00005e52
       83335000	      8332	80003630	00000013	addi	x0,x0,0	  x0:0x00000000
       83345000	      8333	80003634	003f14b3	sll	x9,x30,x3	 x30:0x00000d90  x3:0x0217d000  x9=0x00000d90
       83355000	      8334	80003638	00a79a33	sll	x20,x15,x10	 x15:0x00005e52 x10:0x00005e52 x20=0x79480000
       83365000	      8335	8000363c	01b8acb3	slt	x25,x17,x27	 x17:0x00000d90 x27:0x00000000 x25=0x00000000
       83375000	      8336	80003640	059fc663	blt	x31,x25,8000368c	 x31:0x80009fc4 x25:0x00000000
       83385000	      8337	00000000	00000013	addi	x0,x0,0	  x0:0x00000000
       83395000	      8338	80003688	00000013	addi	x0,x0,0	  x0:0x00000000
       83405000	      8339	8000368c	011866b3	or	x13,x16,x17	 x16:0x00000000 x17:0x00000d90 x13=0x00000d90
       83415000	      8340	80003690	4075d593	srai	x11,x11,0x7	 x11:0x00000000 x11=0x00000000
       83425000	      8341	80003694	01b6d213	srli	x4,x13,0x1b	 x13:0x00000d90  x4=0x00000000
       83435000	      8342	80003698	00b45cb3	srl	x25,x8,x11	  x8:0x80009fc4 x11:0x00000000 x25=0x80009fc4
       83445000	      8343	8000369c	70410537	lui	x10,0x70410	 x10=0x70410000
       83455000	      8344	800036a0	432f4513	xori	x10,x30,1074	 x30:0x00000d90 x10=0x000009a2
       83465000	      8345	800036a4	3dd06213	ori	x4,x0,989	  x0:0x00000000  x4=0x000003dd
       83475000	      8346	800036a8	69858c93	addi	x25,x11,1688	 x11:0x00000000 x25=0x00000698
       83485000	      8347	800036ac	003f58b3	srl	x17,x30,x3	 x30:0x00000d90  x3:0x0217d000 x17=0x00000d90
       83495000	      8348	800036b0	00000013	addi	x0,x0,0	  x0:0x00000000
       83505000	      8349	800036b4	01189e93	slli	x29,x17,0x11	 x17:0x00000d90 x29=0x1b200000
       83515000	      8350	800036b8	01011493	slli	x9,x2,0x10	  x2:0x14520000  x9=0x00000000
       83525000	      8351	800036bc	00b6ce63	blt	x13,x11,800036d8	 x13:0x00000d90 x11:0x00000000
       83535000	      8352	800036c0	bd044b13	xori	x22,x8,-1072	  x8:0x80009fc4 x22=0x7fff6414
       83545000	      8353	800036c4	0004e863	bltu	x9,x0,800036d4	  x9:0x00000000  x0:0x00000000
       83555000	      8354	800036c8	0384c463	blt	x9,x24,800036f0	  x9:0x00000000 x24:0xfffffb7c
       83565000	      8355	800036cc	045fe263	bltu	x31,x5,80003710	 x31:0x80009fc4  x5:0x00005e52
       83575000	      8356	800036d0	fa4cfc13	andi	x24,x25,-92	 x25:0x00000698 x24=0x00000680
       83585000	      8357	800036d4	44b08293	addi	x5,x1,1099	  x1:0xc38065ac  x5=0xc38069f7
       83595000	      8358	800036d8	eeaa5037	lui	x0,0xeeaa5	
       83605000	      8359	800036dc	01d1ccb3	xor	x25,x3,x29	  x3:0x0217d000 x29:0x1b200000 x25=0x1937d000
       83615000	      8360	800036e0	001ed933	srl	x18,x29,x1	 x29:0x1b200000  x1:0xc38065ac x18=0x0001b200
       83625000	      8361	800036e4	40360bb3	sub	x23,x12,x3	 x12:0x00000000  x3:0x0217d000 x23=0xfde83000
       83635000	      8362	800036e8	01555f93	srli	x31,x10,0x15	 x10:0x000009a2 x31=0x00000000
       83645000	      8363	800036ec	05cae663	bltu	x21,x28,80003738	 x21:0x7fff7859 x28:0x80009eec
       83655000	      8364	00000000	00000013	addi	x0,x0,0	  x0:0x00000000
       83665000	      8365	80003734	00000013	addi	x0,x0,0	  x0:0x00000000
       83675000	      8366	80003738	be587713	andi	x14,x16,-1051	 x16:0x00000000 x14=0x00000000
       83685000	      8367	8000373c	00253db3	sltu	x27,x10,x2	 x10:0x000009a2  x2:0x14520000 x27=0x00000001
       83695000	      8368	80003740	0b39ad13	slti	x26,x19,179	 x19:0x00000000 x26=0x00000001
       83705000	      8369	80003744	0140d913	srli	x18,x1,0x14	  x1:0xc38065ac x18=0x00000c38
       83715000	      8370	80003748	f0b10613	addi	x12,x2,-245	  x2:0x14520000 x12=0x1451ff0b
       83725000	      8371	8000374c	419f5933	sra	x18,x30,x25	 x30:0x00000d90 x25:0x1937d000 x18=0x00000d90
       83735000	      8372	80003750	affd0c93	addi	x25,x26,-1281	 x26:0x00000001 x25=0xfffffb00
       83745000	      8373	80003754	01800c6f	jal	x24,80003754	 x24=0x80003754
       83755000	      8374	00000000	00000013	addi	x0,x0,0	  x0:0x00000000
       83765000	      8375	80003768	00000013	addi	x0,x0,0	  x0:0x00000000
       83775000	      8376	8000376c	02c0036f	jal	x6,8000376c	  x6=0x8000376c
       83785000	      8377	00000000	00000013	addi	x0,x0,0	  x0:0x00000000
       83795000	      8378	80003794	00000013	addi	x0,x0,0	  x0:0x00000000
       83805000	      8379	80003798	ff9ff0ef	jal	x1,80003798	  x1=0x80003798
       83815000	      8380	00000000	00000013	addi	x0,x0,0	  x0:0x00000000
       83825000	      8381	8000378c	00000013	addi	x0,x0,0	  x0:0x00000000
       83835000	      8382	80003790	fc9ff0ef	jal	x1,80003790	  x1=0x80003790
       83845000	      8383	00000000	00000013	addi	x0,x0,0	  x0:0x00000000
       83855000	      8384	80003754	00000013	addi	x0,x0,0	  x0:0x00000000
       83865000	      8385	80003758	034000ef	jal	x1,80003758	  x1=0x80003758
       83875000	      8386	00000000	00000013	addi	x0,x0,0	  x0:0x00000000
       83885000	      8387	80003788	00000013	addi	x0,x0,0	  x0:0x00000000
       83895000	      8388	8000378c	0200026f	jal	x4,8000378c	  x4=0x8000378c
       83905000	      8389	00000000	00000013	addi	x0,x0,0	  x0:0x00000000
       83915000	      8390	800037a8	00000013	addi	x0,x0,0	  x0:0x00000000
       83925000	      8391	800037ac	fb1ff36f	jal	x6,800037ac	  x6=0x800037ac
       83935000	      8392	00000000	00000013	addi	x0,x0,0	  x0:0x00000000
       83945000	      8393	80003758	00000013	addi	x0,x0,0	  x0:0x00000000
       83955000	      8394	8000375c	0080036f	jal	x6,8000375c	  x6=0x8000375c
       83965000	      8395	00000000	00000013	addi	x0,x0,0	  x0:0x00000000
       83975000	      8396	80003760	00000013	addi	x0,x0,0	  x0:0x00000000
       83985000	      8397	80003764	ffdff2ef	jal	x5,80003764	  x5=0x80003764
       83995000	      8398	00000000	00000013	addi	x0,x0,0	  x0:0x00000000
       84005000	      8399	8000375c	00000013	addi	x0,x0,0	  x0:0x00000000
       84015000	      8400	80003760	01c001ef	jal	x3,80003760	  x3=0x80003760
       84025000	      8401	00000000	00000013	addi	x0,x0,0	  x0:0x00000000
       84035000	      8402	80003778	00000013	addi	x0,x0,0	  x0:0x00000000
       84045000	      8403	8000377c	fedff0ef	jal	x1,8000377c	  x1=0x8000377c
       84055000	      8404	00000000	00000013	addi	x0,x0,0	  x0:0x00000000
       84065000	      8405	80003764	00000013	addi	x0,x0,0	  x0:0x00000000
       84075000	      8406	80003768	010000ef	jal	x1,80003768	  x1=0x80003768
       84085000	      8407	00000000	00000013	addi	x0,x0,0	  x0:0x00000000
       84095000	      8408	80003774	00000013	addi	x0,x0,0	  x0:0x00000000
       84105000	      8409	80003778	008000ef	jal	x1,80003778	  x1=0x80003778
       84115000	      8410	00000000	00000013	addi	x0,x0,0	  x0:0x00000000
       84125000	      8411	8000377c	00000013	addi	x0,x0,0	  x0:0x00000000
       84135000	      8412	80003780	00400c6f	jal	x24,80003780	 x24=0x80003780
       84145000	      8413	00000000	00000013	addi	x0,x0,0	  x0:0x00000000
       84155000	      8414	80003780	00000013	addi	x0,x0,0	  x0:0x00000000
       84165000	      8415	80003784	ff1ff0ef	jal	x1,80003784	  x1=0x80003784
       84175000	      8416	00000000	00000013	addi	x0,x0,0	  x0:0x00000000
       84185000	      8417	80003770	00000013	addi	x0,x0,0	  x0:0x00000000
       84195000	      8418	80003774	02c000ef	jal	x1,80003774	  x1=0x80003774
       84205000	      8419	00000000	00000013	addi	x0,x0,0	  x0:0x00000000
       84215000	      8420	8000379c	00000013	addi	x0,x0,0	  x0:0x00000000
       84225000	      8421	800037a0	ffdffc6f	jal	x24,800037a0	 x24=0x800037a0
       84235000	      8422	00000000	00000013	addi	x0,x0,0	  x0:0x00000000
       84245000	      8423	80003798	00000013	addi	x0,x0,0	  x0:0x00000000
       84255000	      8424	8000379c	00c000ef	jal	x1,8000379c	  x1=0x8000379c
       84265000	      8425	00000000	00000013	addi	x0,x0,0	  x0:0x00000000
       84275000	      8426	800037a4	00000013	addi	x0,x0,0	  x0:0x00000000
       84285000	      8427	800037a8	fc9ff0ef	jal	x1,800037a8	  x1=0x800037a8
       84295000	      8428	00000000	00000013	addi	x0,x0,0	  x0:0x00000000
       84305000	      8429	8000376c	00000013	addi	x0,x0,0	  x0:0x00000000
       84315000	      8430	80003770	024000ef	jal	x1,80003770	  x1=0x80003770
       84325000	      8431	00000000	00000013	addi	x0,x0,0	  x0:0x00000000
       84335000	      8432	80003790	00000013	addi	x0,x0,0	  x0:0x00000000
       84345000	      8433	80003794	0100036f	jal	x6,80003794	  x6=0x80003794
       84355000	      8434	00000000	00000013	addi	x0,x0,0	  x0:0x00000000
       84365000	      8435	800037a0	00000013	addi	x0,x0,0	  x0:0x00000000
       84375000	      8436	800037a4	fe5ff36f	jal	x6,800037a4	  x6=0x800037a4
       84385000	      8437	00000000	00000013	addi	x0,x0,0	  x0:0x00000000
       84395000	      8438	80003784	00000013	addi	x0,x0,0	  x0:0x00000000
       84405000	      8439	80003788	0280016f	jal	x2,80003788	  x2=0x80003788
       84415000	      8440	00000000	00000013	addi	x0,x0,0	  x0:0x00000000
       84425000	      8441	800037ac	00000013	addi	x0,x0,0	  x0:0x00000000
       84435000	      8442	800037b0	00000013	addi	x0,x0,0	  x0:0x00000000
       84445000	      8443	800037b4	52c94213	xori	x4,x18,1324	 x18:0x00000d90  x4=0x000008bc
       84455000	      8444	800037b8	0160f663	bgeu	x1,x22,800037c4	  x1:0x80003770 x22:0x7fff6414
       84465000	      8445	00000000	00000013	addi	x0,x0,0	  x0:0x00000000
       84475000	      8446	800037c0	00000013	addi	x0,x0,0	  x0:0x00000000
       84485000	      8447	800037c4	019d0663	beq	x26,x25,800037d0	 x26:0x00000001 x25:0xfffffb00
       84495000	      8448	800037c8	01661213	slli	x4,x12,0x16	 x12:0x1451ff0b  x4=0xc2c00000
       84505000	      8449	800037cc	03298a63	beq	x19,x18,80003800	 x19:0x00000000 x18:0x00000d90
       84515000	      8450	800037d0	03cbf863	bgeu	x23,x28,80003800	 x23:0xfde83000 x28:0x80009eec
       84525000	      8451	00000000	00000013	addi	x0,x0,0	  x0:0x00000000
       84535000	      8452	800037fc	00000013	addi	x0,x0,0	  x0:0x00000000
       84545000	      8453	80003800	00ec1c63	bne	x24,x14,80003818	 x24:0x800037a0 x14:0x00000000
       84555000	      8454	00000000	00000013	addi	x0,x0,0	  x0:0x00000000
       84565000	      8455	80003814	00000013	addi	x0,x0,0	  x0:0x00000000
       84575000	      8456	80003818	00d47db3	and	x27,x8,x13	  x8:0x80009fc4 x13:0x00000d90 x27=0x00000d80
       84585000	      8457	8000381c	ffa62a93	slti	x21,x12,-6	 x12:0x1451ff0b x21=0x00000000
       84595000	      8458	80003820	f7e10b17	auipc	x22,0xf7e10	 x22=0x77e1381c
       84605000	      8459	80003824	00e59f93	slli	x31,x11,0xe	 x11:0x00000000 x31=0x00000000
       84615000	      8460	80003828	014c3c33	sltu	x24,x24,x20	 x24:0x800037a0 x20:0x79480000 x24=0x00000000
       84625000	      8461	8000382c	00784ab3	xor	x21,x16,x7	 x16:0x00000000  x7:0x00000000 x21=0x00000000
       84635000	      8462	80003830	d0776193	ori	x3,x14,-761	 x14:0x00000000  x3=0xfffffd07
       84645000	      8463	80003834	7fdeaa17	auipc	x20,0x7fdea	 x20=0xffded830
       84655000	      8464	80003838	01b664b3	or	x9,x12,x27	 x12:0x1451ff0b x27:0x00000d80  x9=0x1451ff8b
       84665000	      8465	8000383c	08d87c13	andi	x24,x16,141	 x16:0x00000000 x24=0x00000000
       84675000	      8466	80003840	018fd333	srl	x6,x31,x24	 x31:0x00000000 x24:0x00000000  x6=0x00000000
       84685000	      8467	80003844	408e5bb3	sra	x23,x28,x8	 x28:0x80009eec  x8:0x80009fc4 x23=0xf80009ee
       84695000	      8468	80003848	00000013	addi	x0,x0,0	  x0:0x00000000
       84705000	      8469	8000384c	408050b3	sra	x1,x0,x8	  x0:0x00000000  x8:0x80009fc4  x1=0x00000000
       84715000	      8470	80003850	0260cc63	blt	x1,x6,80003888	  x1:0x00000000  x6:0x00000000
       84725000	      8471	80003854	20d77a13	andi	x20,x14,525	 x14:0x00000000 x20=0x00000000
       84735000	      8472	80003858	04a34663	blt	x6,x10,800038a4	  x6:0x00000000 x10:0x000009a2
       84745000	      8473	00000000	00000013	addi	x0,x0,0	  x0:0x00000000
       84755000	      8474	800038a0	00000013	addi	x0,x0,0	  x0:0x00000000
       84765000	      8475	800038a4	013ed393	srli	x7,x29,0x13	 x29:0x1b200000  x7=0x00000364
       84775000	      8476	800038a8	8c3d6b93	ori	x23,x26,-1853	 x26:0x00000001 x23=0xfffff8c3
       84785000	      8477	800038ac	00000013	addi	x0,x0,0	  x0:0x00000000
       84795000	      8478	800038b0	05cc9063	bne	x25,x28,800038f0	 x25:0xfffffb00 x28:0x80009eec
       84805000	      8479	00000000	00000013	addi	x0,x0,0	  x0:0x00000000
       84815000	      8480	800038ec	00000013	addi	x0,x0,0	  x0:0x00000000
       84825000	      8481	800038f0	00000013	addi	x0,x0,0	  x0:0x00000000
       84835000	      8482	800038f4	419850b3	sra	x1,x16,x25	 x16:0x00000000 x25:0xfffffb00  x1=0x00000000
       84845000	      8483	800038f8	00ad57b3	srl	x15,x26,x10	 x26:0x00000001 x10:0x000009a2 x15=0x00000000
       84855000	      8484	800038fc	0016a133	slt	x2,x13,x1	 x13:0x00000d90  x1:0x00000000  x2=0x00000000
       84865000	      8485	80003900	4de16d93	ori	x27,x2,1246	  x2:0x00000000 x27=0x000004de
       84875000	      8486	80003904	d3ffbbb7	lui	x23,0xd3ffb	 x23=0xd3ffb000
       84885000	      8487	80003908	0ea3f013	andi	x0,x7,234	  x7:0x00000364
       84895000	      8488	8000390c	038ee663	bltu	x29,x24,80003938	 x29:0x1b200000 x24:0x00000000
       84905000	      8489	80003910	12916f97	auipc	x31,0x12916	 x31=0x9291990c
       84915000	      8490	80003914	016ed2b3	srl	x5,x29,x22	 x29:0x1b200000 x22:0x77e1381c  x5=0x00000001
       84925000	      8491	80003918	00175bb3	srl	x23,x14,x1	 x14:0x00000000  x1:0x00000000 x23=0x00000000
       84935000	      8492	8000391c	72870213	addi	x4,x14,1832	 x14:0x00000000  x4=0x00000728
       84945000	      8493	80003920	41e1bd13	sltiu	x26,x3,1054	  x3:0xfffffd07 x26=0x00000000
       84955000	      8494	80003924	9ea5f293	andi	x5,x11,-1558	 x11:0x00000000  x5=0x00000000
       84965000	      8495	80003928	40bbdb33	sra	x22,x23,x11	 x23:0x00000000 x11:0x00000000 x22=0x00000000
       84975000	      8496	8000392c	00ff95b3	sll	x11,x31,x15	 x31:0x9291990c x15:0x00000000 x11=0x9291990c
       84985000	      8497	80003930	01f10463	beq	x2,x31,80003938	  x2:0x00000000 x31:0x9291990c
       84995000	      8498	80003934	0133f6b3	and	x13,x7,x19	  x7:0x00000364 x19:0x00000000 x13=0x00000000
       85005000	      8499	80003938	0073dab3	srl	x21,x7,x7	  x7:0x00000364  x7:0x00000364 x21=0x00000036
       85015000	      8500	8000393c	02d87863	bgeu	x16,x13,8000396c	 x16:0x00000000 x13:0x00000000
       85025000	      8501	00000000	00000013	addi	x0,x0,0	  x0:0x00000000
       85035000	      8502	80003968	00000013	addi	x0,x0,0	  x0:0x00000000
       85045000	      8503	8000396c	00000013	addi	x0,x0,0	  x0:0x00000000
       85055000	      8504	80003970	0314e463	bltu	x9,x17,80003998	  x9:0x1451ff8b x17:0x00000d90
       85065000	      8505	80003974	01194463	blt	x18,x17,8000397c	 x18:0x00000d90 x17:0x00000d90
       85075000	      8506	80003978	05af1063	bne	x30,x26,800039b8	 x30:0x00000d90 x26:0x00000000
       85085000	      8507	00000000	00000013	addi	x0,x0,0	  x0:0x00000000
       85095000	      8508	800039b4	00000013	addi	x0,x0,0	  x0:0x00000000
       85105000	      8509	800039b8	04a5d063	bge	x11,x10,800039f8	 x11:0x9291990c x10:0x000009a2
       85115000	      8510	800039bc	052fe463	bltu	x31,x18,80003a04	 x31:0x9291990c x18:0x00000d90
       85125000	      8511	800039c0	7ab58713	addi	x14,x11,1963	 x11:0x9291990c x14=0x9291a0b7
       85135000	      8512	800039c4	0122f633	and	x12,x5,x18	  x5:0x00000000 x18:0x00000d90 x12=0x00000000
       85145000	      8513	800039c8	00921cb3	sll	x25,x4,x9	  x4:0x00000728  x9:0x1451ff8b x25=0x00394000
       85155000	      8514	800039cc	04f20663	beq	x4,x15,80003a18	  x4:0x00000728 x15:0x00000000
       85165000	      8515	800039d0	45bdf913	andi	x18,x27,1115	 x27:0x000004de x18=0x0000045a
       85175000	      8516	800039d4	4969f3b7	lui	x7,0x4969f	  x7=0x4969f000
       85185000	      8517	800039d8	0219e663	bltu	x19,x1,80003a04	 x19:0x00000000  x1:0x00000000
       85195000	      8518	800039dc	c6d43f93	sltiu	x31,x8,-915	  x8:0x80009fc4 x31=0x00000001
       85205000	      8519	800039e0	71f725b7	lui	x11,0x71f72	 x11=0x71f72000
       85215000	      8520	800039e4	00d2a8b3	slt	x17,x5,x13	  x5:0x00000000 x13:0x00000000 x17=0x00000000
       85225000	      8521	800039e8	01362333	slt	x6,x12,x19	 x12:0x00000000 x19:0x00000000  x6=0x00000000
       85235000	      8522	800039ec	018d0863	beq	x26,x24,800039fc	 x26:0x00000000 x24:0x00000000
       85245000	      8523	00000000	00000013	addi	x0,x0,0	  x0:0x00000000
       85255000	      8524	800039f8	00000013	addi	x0,x0,0	  x0:0x00000000
       85265000	      8525	800039fc	01be5213	srli	x4,x28,0x1b	 x28:0x80009eec  x4=0x00000010
       85275000	      8526	80003a00	012e7233	and	x4,x28,x18	 x28:0x80009eec x18:0x0000045a  x4=0x00000448
       85285000	      8527	80003a04	01550fb3	add	x31,x10,x21	 x10:0x000009a2 x21:0x00000036 x31=0x000009d8
       85295000	      8528	80003a08	022b5863	bge	x22,x2,80003a38	 x22:0x00000000  x2:0x00000000
       85305000	      8529	00000000	00000013	addi	x0,x0,0	  x0:0x00000000
       85315000	      8530	80003a34	00000013	addi	x0,x0,0	  x0:0x00000000
       85325000	      8531	80003a38	04ef8263	beq	x31,x14,80003a7c	 x31:0x000009d8 x14:0x9291a0b7
       85335000	      8532	80003a3c	d20a9c17	auipc	x24,0xd20a9	 x24=0x520aca38
       85345000	      8533	80003a40	0102f933	and	x18,x5,x16	  x5:0x00000000 x16:0x00000000 x18=0x00000000
       85355000	      8534	80003a44	00226263	bltu	x4,x2,80003a48	  x4:0x00000448  x2:0x00000000
       85365000	      8535	80003a48	9fc0bd13	sltiu	x26,x1,-1540	  x1:0x00000000 x26=0x00000001
       85375000	      8536	80003a4c	9c7d7a93	andi	x21,x26,-1593	 x26:0x00000001 x21=0x00000001
       85385000	      8537	80003a50	016cdc93	srli	x25,x25,0x16	 x25:0x00394000 x25=0x00000000
       85395000	      8538	80003a54	417d8db3	sub	x27,x27,x23	 x27:0x000004de x23:0x00000000 x27=0x000004de
       85405000	      8539	80003a58	003c8c63	beq	x25,x3,80003a70	 x25:0x00000000  x3:0xfffffd07
       85415000	      8540	80003a5c	e07e0b93	addi	x23,x28,-505	 x28:0x80009eec x23=0x80009cf3
       85425000	      8541	80003a60	1646fa13	andi	x20,x13,356	 x13:0x00000000 x20=0x00000000
       85435000	      8542	80003a64	e37c4d13	xori	x26,x24,-457	 x24:0x520aca38 x26=0xadf5340f
       85445000	      8543	80003a68	01125c33	srl	x24,x4,x17	  x4:0x00000448 x17:0x00000000 x24=0x00000448
       85455000	      8544	80003a6c	01b28f33	add	x30,x5,x27	  x5:0x00000000 x27:0x000004de x30=0x000004de
       85465000	      8545	80003a70	00dc7e63	bgeu	x24,x13,80003a8c	 x24:0x00000448 x13:0x00000000
       85475000	      8546	00000000	00000013	addi	x0,x0,0	  x0:0x00000000
       85485000	      8547	80003a88	00000013	addi	x0,x0,0	  x0:0x00000000
       85495000	      8548	80003a8c	04555663	bge	x10,x5,80003ad8	 x10:0x000009a2  x5:0x00000000
       85505000	      8549	00000000	00000013	addi	x0,x0,0	  x0:0x00000000
       85515000	      8550	80003ad4	00000013	addi	x0,x0,0	  x0:0x00000000
       85525000	      8551	80003ad8	01d85fb3	srl	x31,x16,x29	 x16:0x00000000 x29:0x1b200000 x31=0x00000000
       85535000	      8552	80003adc	c5573397	auipc	x7,0xc5573	  x7=0x45576ad8
       85545000	      8553	80003ae0	016d5333	srl	x6,x26,x22	 x26:0xadf5340f x22:0x00000000  x6=0xadf5340f
       85555000	      8554	80003ae4	0196ba33	sltu	x20,x13,x25	 x13:0x00000000 x25:0x00000000 x20=0x00000000
       85565000	      8555	80003ae8	005e1a33	sll	x20,x28,x5	 x28:0x80009eec  x5:0x00000000 x20=0x80009eec
       85575000	      8556	80003aec	01167633	and	x12,x12,x17	 x12:0x00000000 x17:0x00000000 x12=0x00000000
       85585000	      8557	80003af0	4018d593	srai	x11,x17,0x1	 x17:0x00000000 x11=0x00000000
       85595000	      8558	80003af4	00ab37b3	sltu	x15,x22,x10	 x22:0x00000000 x10:0x000009a2 x15=0x00000001
       85605000	      8559	80003af8	000cdc33	srl	x24,x25,x0	 x25:0x00000000  x0:0x00000000 x24=0x00000000
       85615000	      8560	80003afc	a6c94293	xori	x5,x18,-1428	 x18:0x00000000  x5=0xfffffa6c
       85625000	      8561	80003b00	01a220b3	slt	x1,x4,x26	  x4:0x00000448 x26:0xadf5340f  x1=0x00000000
       85635000	      8562	80003b04	017faa33	slt	x20,x31,x23	 x31:0x00000000 x23:0x80009cf3 x20=0x00000000
       85645000	      8563	80003b08	016ed663	bge	x29,x22,80003b14	 x29:0x1b200000 x22:0x00000000
       85655000	      8564	00000000	00000013	addi	x0,x0,0	  x0:0x00000000
       85665000	      8565	80003b10	00000013	addi	x0,x0,0	  x0:0x00000000
       85675000	      8566	80003b14	007a4733	xor	x14,x20,x7	 x20:0x00000000  x7:0x45576ad8 x14=0x45576ad8
       85685000	      8567	80003b18	c5606c13	ori	x24,x0,-938	  x0:0x00000000 x24=0xfffffc56
       85695000	      8568	80003b1c	403186b3	sub	x13,x3,x3	  x3:0xfffffd07  x3:0xfffffd07 x13=0x00000000
       85705000	      8569	80003b20	02d3cc63	blt	x7,x13,80003b58	  x7:0x45576ad8 x13:0x00000000
       85715000	      8570	80003b24	413b5693	srai	x13,x22,0x13	 x22:0x00000000 x13=0x00000000
       85725000	      8571	80003b28	0082e933	or	x18,x5,x8	  x5:0xfffffa6c  x8:0x80009fc4 x18=0xffffffec
       85735000	      8572	80003b2c	16942d13	slti	x26,x8,361	  x8:0x80009fc4 x26=0x00000001
       85745000	      8573	80003b30	00000013	addi	x0,x0,0	  x0:0x00000000
       85755000	      8574	80003b34	01241113	slli	x2,x8,0x12	  x8:0x80009fc4  x2=0x7f100000
       85765000	      8575	80003b38	0276d463	bge	x13,x7,80003b60	 x13:0x00000000  x7:0x45576ad8
       85775000	      8576	80003b3c	00dcc6b3	xor	x13,x25,x13	 x25:0x00000000 x13:0x00000000 x13=0x00000000
       85785000	      8577	80003b40	8c78ab93	slti	x23,x17,-1849	 x17:0x00000000 x23=0x00000000
       85795000	      8578	80003b44	01aac863	blt	x21,x26,80003b54	 x21:0x00000001 x26:0x00000001
       85805000	      8579	80003b48	4064d893	srai	x17,x9,0x6	  x9:0x1451ff8b x17=0x005147fe
       85815000	      8580	80003b4c	01bc6ab3	or	x21,x24,x27	 x24:0xfffffc56 x27:0x000004de x21=0xfffffcde
       85825000	      8581	80003b50	045d6263	bltu	x26,x5,80003b94	 x26:0x00000001  x5:0xfffffa6c
       85835000	      8582	00000000	00000013	addi	x0,x0,0	  x0:0x00000000
       85845000	      8583	80003b90	00000013	addi	x0,x0,0	  x0:0x00000000
       85855000	      8584	80003b94	4037d2b3	sra	x5,x15,x3	 x15:0x00000001  x3:0xfffffd07  x5=0x00000000
       85865000	      8585	80003b98	017401b3	add	x3,x8,x23	  x8:0x80009fc4 x23:0x00000000  x3=0x80009fc4
       85875000	      8586	80003b9c	00f83cb3	sltu	x25,x16,x15	 x16:0x00000000 x15:0x00000001 x25=0x00000001
       85885000	      8587	80003ba0	012896b3	sll	x13,x17,x18	 x17:0x005147fe x18:0xffffffec x13=0x147fe000
       85895000	      8588	80003ba4	012a9193	slli	x3,x21,0x12	 x21:0xfffffcde  x3=0xf3780000
       85905000	      8589	80003ba8	d9907a93	andi	x21,x0,-615	  x0:0x00000000 x21=0x00000000
       85915000	      8590	80003bac	019898b3	sll	x17,x17,x25	 x17:0x005147fe x25:0x00000001 x17=0x00a28ffc
       85925000	      8591	80003bb0	65ff6b17	auipc	x22,0x65ff6	 x22=0xe5ff9bac
       85935000	      8592	80003bb4	03509663	bne	x1,x21,80003be0	  x1:0x00000000 x21:0x00000000
       85945000	      8593	80003bb8	3c2d3f97	auipc	x31,0x3c2d3	 x31=0xbc2d6bb4
       85955000	      8594	80003bbc	004fdc63	bge	x31,x4,80003bd4	 x31:0xbc2d6bb4  x4:0x00000448
       85965000	      8595	80003bc0	40b0d913	srai	x18,x1,0xb	  x1:0x00000000 x18=0x00000000
       85975000	      8596	80003bc4	40855293	srai	x5,x10,0x8	 x10:0x000009a2  x5=0x00000009
       85985000	      8597	80003bc8	00426463	bltu	x4,x4,80003bd0	  x4:0x00000448  x4:0x00000448
       85995000	      8598	80003bcc	03488863	beq	x17,x20,80003bfc	 x17:0x00a28ffc x20:0x00000000
       86005000	      8599	80003bd0	82eeb993	sltiu	x19,x29,-2002	 x29:0x1b200000 x19=0x00000001
       86015000	      8600	80003bd4	005cda63	bge	x25,x5,80003be8	 x25:0x00000001  x5:0x00000009
       86025000	      8601	80003bd8	03809863	bne	x1,x24,80003c08	  x1:0x00000000 x24:0xfffffc56
       86035000	      8602	00000000	00000013	addi	x0,x0,0	  x0:0x00000000
       86045000	      8603	80003c04	00000013	addi	x0,x0,0	  x0:0x00000000
       86055000	      8604	80003c08	01f6c533	xor	x10,x13,x31	 x13:0x147fe000 x31:0xbc2d6bb4 x10=0xa8528bb4
       86065000	      8605	80003c0c	01ed84b3	add	x9,x27,x30	 x27:0x000004de x30:0x000004de  x9=0x000009bc
       86075000	      8606	80003c10	506284b7	lui	x9,0x50628	  x9=0x50628000
       86085000	      8607	80003c14	ff6aee93	ori	x29,x21,-10	 x21:0x00000000 x29=0xfffffff6
       86095000	      8608	80003c18	00164733	xor	x14,x12,x1	 x12:0x00000000  x1:0x00000000 x14=0x00000000
       86105000	      8609	80003c1c	413cd633	sra	x12,x25,x19	 x25:0x00000001 x19:0x00000001 x12=0x00000000
       86115000	      8610	80003c20	02135a63	bge	x6,x1,80003c54	  x6:0xadf5340f  x1:0x00000000
       86125000	      8611	80003c24	410fdd13	srai	x26,x31,0x10	 x31:0xbc2d6bb4 x26=0xffffbc2d
       86135000	      8612	80003c28	00f6f863	bgeu	x13,x15,80003c38	 x13:0x147fe000 x15:0x00000001
       86145000	      8613	00000000	00000013	addi	x0,x0,0	  x0:0x00000000
       86155000	      8614	80003c34	00000013	addi	x0,x0,0	  x0:0x00000000
       86165000	      8615	80003c38	5b6dfd93	andi	x27,x27,1462	 x27:0x000004de x27=0x00000496
       86175000	      8616	80003c3c	00aa3233	sltu	x4,x20,x10	 x20:0x00000000 x10:0xa8528bb4  x4=0x00000001
       86185000	      8617	80003c40	447a2913	slti	x18,x20,1095	 x20:0x00000000 x18=0x00000001
       86195000	      8618	80003c44	009aa933	slt	x18,x21,x9	 x21:0x00000000  x9:0x50628000 x18=0x00000001
       86205000	      8619	80003c48	010e9533	sll	x10,x29,x16	 x29:0xfffffff6 x16:0x00000000 x10=0xfffffff6
       86215000	      8620	80003c4c	00b69393	slli	x7,x13,0xb	 x13:0x147fe000  x7=0xff000000
       86225000	      8621	80003c50	0163e133	or	x2,x7,x22	  x7:0xff000000 x22:0xe5ff9bac  x2=0xffff9bac
       86235000	      8622	80003c54	00dc2b33	slt	x22,x24,x13	 x24:0xfffffc56 x13:0x147fe000 x22=0x00000001
       86245000	      8623	80003c58	00fd6263	bltu	x26,x15,80003c5c	 x26:0xffffbc2d x15:0x00000001
       86255000	      8624	80003c5c	01956a33	or	x20,x10,x25	 x10:0xfffffff6 x25:0x00000001 x20=0xfffffff7
       86265000	      8625	80003c60	05d7e663	bltu	x15,x29,80003cac	 x15:0x00000001 x29:0xfffffff6
       86275000	      8626	00000000	00000013	addi	x0,x0,0	  x0:0x00000000
       86285000	      8627	80003ca8	00000013	addi	x0,x0,0	  x0:0x00000000
       86295000	      8628	80003cac	008e0bb3	add	x23,x28,x8	 x28:0x80009eec  x8:0x80009fc4 x23=0x00013eb0
       86305000	      8629	80003cb0	013b18b3	sll	x17,x22,x19	 x22:0x00000001 x19:0x00000001 x17=0x00000002
       86315000	      8630	80003cb4	005ad6b3	srl	x13,x21,x5	 x21:0x00000000  x5:0x00000009 x13=0x00000000
       86325000	      8631	80003cb8	00000013	addi	x0,x0,0	  x0:0x00000000
       86335000	      8632	80003cbc	00e11233	sll	x4,x2,x14	  x2:0xffff9bac x14:0x00000000  x4=0xffff9bac
       86345000	      8633	80003cc0	401e5713	srai	x14,x28,0x1	 x28:0x80009eec x14=0xc0004f76
       86355000	      8634	80003cc4	40a2d093	srai	x1,x5,0xa	  x5:0x00000009  x1=0x00000000
       86365000	      8635	80003cc8	3d5e6793	ori	x15,x28,981	 x28:0x80009eec x15=0x80009ffd
       86375000	      8636	80003ccc	a2048693	addi	x13,x9,-1504	  x9:0x50628000 x13=0x50627a20
       86385000	      8637	80003cd0	00e41863	bne	x8,x14,80003ce0	  x8:0x80009fc4 x14:0xc0004f76
       86395000	      8638	00000000	00000013	addi	x0,x0,0	  x0:0x00000000
       86405000	      8639	80003cdc	00000013	addi	x0,x0,0	  x0:0x00000000
       86415000	      8640	80003ce0	04210063	beq	x2,x2,80003d20	  x2:0xffff9bac  x2:0xffff9bac
       86425000	      8641	00000000	00000013	addi	x0,x0,0	  x0:0x00000000
       86435000	      8642	80003d1c	00000013	addi	x0,x0,0	  x0:0x00000000
       86445000	      8643	80003d20	045bd063	bge	x23,x5,80003d60	 x23:0x00013eb0  x5:0x00000009
       86455000	      8644	00000000	00000013	addi	x0,x0,0	  x0:0x00000000
       86465000	      8645	80003d5c	00000013	addi	x0,x0,0	  x0:0x00000000
       86475000	      8646	80003d60	00cfb5b3	sltu	x11,x31,x12	 x31:0xbc2d6bb4 x12:0x00000000 x11=0x00000000
       86485000	      8647	80003d64	f6745497	auipc	x9,0xf6745	  x9=0x76748d60
       86495000	      8648	80003d68	96ceca13	xori	x20,x29,-1684	 x29:0xfffffff6 x20=0x0000069a
       86505000	      8649	80003d6c	f8e26a93	ori	x21,x4,-114	  x4:0xffff9bac x21=0xffffffae
       86515000	      8650	80003d70	01965663	bge	x12,x25,80003d7c	 x12:0x00000000 x25:0x00000001
       86525000	      8651	80003d74	005e1cb3	sll	x25,x28,x5	 x28:0x80009eec  x5:0x00000009 x25=0x013dd800
       86535000	      8652	80003d78	029df463	bgeu	x27,x9,80003da0	 x27:0x00000496  x9:0x76748d60
       86545000	      8653	80003d7c	0154b1b3	sltu	x3,x9,x21	  x9:0x76748d60 x21:0xffffffae  x3=0x00000001
       86555000	      8654	80003d80	016cd3b3	srl	x7,x25,x22	 x25:0x013dd800 x22:0x00000001  x7=0x009eec00
       86565000	      8655	80003d84	015a9c13	slli	x24,x21,0x15	 x21:0xffffffae x24=0xf5c00000
       86575000	      8656	80003d88	eec0fc93	andi	x25,x1,-276	  x1:0x00000000 x25=0x00000000
       86585000	      8657	80003d8c	0032d1b3	srl	x3,x5,x3	  x5:0x00000009  x3:0x00000001  x3=0x00000004
       86595000	      8658	80003d90	008fde63	bge	x31,x8,80003dac	 x31:0xbc2d6bb4  x8:0x80009fc4
       86605000	      8659	00000000	00000013	addi	x0,x0,0	  x0:0x00000000
       86615000	      8660	80003da8	00000013	addi	x0,x0,0	  x0:0x00000000
       86625000	      8661	80003dac	010c3733	sltu	x14,x24,x16	 x24:0xf5c00000 x16:0x00000000 x14=0x00000000
       86635000	      8662	80003db0	00251cb3	sll	x25,x10,x2	 x10:0xfffffff6  x2:0xffff9bac x25=0xffff6000
       86645000	      8663	80003db4	01eed133	srl	x2,x29,x30	 x29:0xfffffff6 x30:0x000004de  x2=0x00000003
       86655000	      8664	80003db8	d42d7e93	andi	x29,x26,-702	 x26:0xffffbc2d x29=0xffffbc00
       86665000	      8665	80003dbc	7e104893	xori	x17,x0,2017	  x0:0x00000000 x17=0x000007e1
       86675000	      8666	80003dc0	b395e613	ori	x12,x11,-1223	 x11:0x00000000 x12=0xfffffb39
       86685000	      8667	80003dc4	401c05b3	sub	x11,x24,x1	 x24:0xf5c00000  x1:0x00000000 x11=0xf5c00000
       86695000	      8668	80003dc8	00000013	addi	x0,x0,0	  x0:0x00000000
       86705000	      8669	80003dcc	01c8f933	and	x18,x17,x28	 x17:0x000007e1 x28:0x80009eec x18=0x000006e0
       86715000	      8670	80003dd0	018cb933	sltu	x18,x25,x24	 x25:0xffff6000 x24:0xf5c00000 x18=0x00000000
       86725000	      8671	80003dd4	01745893	srli	x17,x8,0x17	  x8:0x80009fc4 x17=0x00000100
       86735000	      8672	80003dd8	012a4333	xor	x6,x20,x18	 x20:0x0000069a x18:0x00000000  x6=0x0000069a
       86745000	      8673	80003ddc	00485333	srl	x6,x16,x4	 x16:0x00000000  x4:0xffff9bac  x6=0x00000000
       86755000	      8674	80003de0	019c2a33	slt	x20,x24,x25	 x24:0xf5c00000 x25:0xffff6000 x20=0x00000001
       86765000	      8675	80003de4	41850233	sub	x4,x10,x24	 x10:0xfffffff6 x24:0xf5c00000  x4=0x0a3ffff6
       86775000	      8676	80003de8	01f0f733	and	x14,x1,x31	  x1:0x00000000 x31:0xbc2d6bb4 x14=0x00000000
       86785000	      8677	80003dec	01a228b3	slt	x17,x4,x26	  x4:0x0a3ffff6 x26:0xffffbc2d x17=0x00000000
       86795000	      8678	80003df0	c23173b7	lui	x7,0xc2317	  x7=0xc2317000
       86805000	      8679	80003df4	418a0c33	sub	x24,x20,x24	 x20:0x00000001 x24:0xf5c00000 x24=0x0a400001
       86815000	      8680	80003df8	7947f493	andi	x9,x15,1940	 x15:0x80009ffd  x9=0x00000794
       86825000	      8681	80003dfc	40095f13	srai	x30,x18,0x0	 x18:0x00000000 x30=0x00000000
       86835000	      8682	80003e00	01566bb3	or	x23,x12,x21	 x12:0xfffffb39 x21:0xffffffae x23=0xffffffbf
       86845000	      8683	80003e04	00d4b333	sltu	x6,x9,x13	  x9:0x00000794 x13:0x50627a20  x6=0x00000001
       86855000	      8684	80003e08	00645533	srl	x10,x8,x6	  x8:0x80009fc4  x6:0x00000001 x10=0x40004fe2
       86865000	      8685	80003e0c	0136c263	blt	x13,x19,80003e10	 x13:0x50627a20 x19:0x00000001
       86875000	      8686	80003e10	03315a63	bge	x2,x19,80003e44	  x2:0x00000003 x19:0x00000001
       86885000	      8687	00000000	00000013	addi	x0,x0,0	  x0:0x00000000
       86895000	      8688	80003e40	00000013	addi	x0,x0,0	  x0:0x00000000
       86905000	      8689	80003e44	00000013	addi	x0,x0,0	  x0:0x00000000
       86915000	      8690	80003e48	03a34463	blt	x6,x26,80003e70	  x6:0x00000001 x26:0xffffbc2d
       86925000	      8691	80003e4c	0042dc93	srli	x25,x5,0x4	  x5:0x00000009 x25=0x00000000
       86935000	      8692	80003e50	41a15393	srai	x7,x2,0x1a	  x2:0x00000003  x7=0x00000000
       86945000	      8693	80003e54	01025933	srl	x18,x4,x16	  x4:0x0a3ffff6 x16:0x00000000 x18=0x0a3ffff6
       86955000	      8694	80003e58	00d48d33	add	x26,x9,x13	  x9:0x00000794 x13:0x50627a20 x26=0x506281b4
       86965000	      8695	80003e5c	00c3a3b3	slt	x7,x7,x12	  x7:0x00000000 x12:0xfffffb39  x7=0x00000000
       86975000	      8696	80003e60	01da8263	beq	x21,x29,80003e64	 x21:0xffffffae x29:0xffffbc00
       86985000	      8697	80003e64	00d542b3	xor	x5,x10,x13	 x10:0x40004fe2 x13:0x50627a20  x5=0x106235c2
       86995000	      8698	80003e68	a2208a13	addi	x20,x1,-1502	  x1:0x00000000 x20=0xfffffa22
       87005000	      8699	80003e6c	8f466bb7	lui	x23,0x8f466	 x23=0x8f466000
       87015000	      8700	80003e70	00cde333	or	x6,x27,x12	 x27:0x00000496 x12:0xfffffb39  x6=0xffffffbf
       87025000	      8701	80003e74	02bb1863	bne	x22,x11,80003ea4	 x22:0x00000001 x11:0xf5c00000
       87035000	      8702	00000000	00000013	addi	x0,x0,0	  x0:0x00000000
       87045000	      8703	80003ea0	00000013	addi	x0,x0,0	  x0:0x00000000
       87055000	      8704	80003ea4	5fe13497	auipc	x9,0x5fe13	  x9=0xdfe16ea0
       87065000	      8705	80003ea8	8cd0b537	lui	x10,0x8cd0b	 x10=0x8cd0b000
       87075000	      8706	80003eac	010b4ab3	xor	x21,x22,x16	 x22:0x00000001 x16:0x00000000 x21=0x00000001
       87085000	      8707	80003eb0	5850e193	ori	x3,x1,1413	  x1:0x00000000  x3=0x00000585
       87095000	      8708	80003eb4	fa78c893	xori	x17,x17,-89	 x17:0x00000000 x17=0xffffffa7
       87105000	      8709	80003eb8	0171e463	bltu	x3,x23,80003ec0	  x3:0x00000585 x23:0x8f466000
       87115000	      8710	00000000	00000013	addi	x0,x0,0	  x0:0x00000000
       87125000	      8711	80003ebc	00000013	addi	x0,x0,0	  x0:0x00000000
       87135000	      8712	80003ec0	01c7ba33	sltu	x20,x15,x28	 x15:0x80009ffd x28:0x80009eec x20=0x00000000
       87145000	      8713	80003ec4	012c9533	sll	x10,x25,x18	 x25:0x00000000 x18:0x0a3ffff6 x10=0x00000000
       87155000	      8714	80003ec8	872cbd13	sltiu	x26,x25,-1934	 x25:0x00000000 x26=0x00000001
       87165000	      8715	80003ecc	046ee063	bltu	x29,x6,80003f0c	 x29:0xffffbc00  x6:0xffffffbf
       87175000	      8716	00000000	00000013	addi	x0,x0,0	  x0:0x00000000
       87185000	      8717	80003f08	00000013	addi	x0,x0,0	  x0:0x00000000
       87195000	      8718	80003f0c	6c0cbc93	sltiu	x25,x25,1728	 x25:0x00000000 x25=0x00000001
       87205000	      8719	80003f10	09571663	bne	x14,x21,80003f9c	 x14:0x00000000 x21:0x00000001
       87215000	      8720	00000000	00000013	addi	x0,x0,0	  x0:0x00000000
       87225000	      8721	80003f98	00000013	addi	x0,x0,0	  x0:0x00000000
       87235000	      8722	80003f9c	01411633	sll	x12,x2,x20	  x2:0x00000003 x20:0x00000000 x12=0x00000003
       87245000	      8723	80003fa0	29163493	sltiu	x9,x12,657	 x12:0x00000003  x9=0x00000001
       87255000	      8724	80003fa4	00a592b3	sll	x5,x11,x10	 x11:0xf5c00000 x10:0x00000000  x5=0xf5c00000
       87265000	      8725	80003fa8	c18d2737	lui	x14,0xc18d2	 x14=0xc18d2000
       87275000	      8726	80003fac	018a5313	srli	x6,x20,0x18	 x20:0x00000000  x6=0x00000000
       87285000	      8727	80003fb0	ad97e893	ori	x17,x15,-1319	 x15:0x80009ffd x17=0xfffffffd
       87295000	      8728	80003fb4	0116fab3	and	x21,x13,x17	 x13:0x50627a20 x17:0xfffffffd x21=0x50627a20
       87305000	      8729	80003fb8	00941893	slli	x17,x8,0x9	  x8:0x80009fc4 x17=0x013f8800
       87315000	      8730	80003fbc	010e1c63	bne	x28,x16,80003fd4	 x28:0x80009eec x16:0x00000000
       87325000	      8731	00000000	00000013	addi	x0,x0,0	  x0:0x00000000
       87335000	      8732	80003fd0	00000013	addi	x0,x0,0	  x0:0x00000000
       87345000	      8733	80003fd4	f8cd4f13	xori	x30,x26,-116	 x26:0x00000001 x30=0xffffff8d
       87355000	      8734	80003fd8	04c75263	bge	x14,x12,8000401c	 x14:0xc18d2000 x12:0x00000003
       87365000	      8735	80003fdc	0225f863	bgeu	x11,x2,8000400c	 x11:0xf5c00000  x2:0x00000003
       87375000	      8736	00000000	00000013	addi	x0,x0,0	  x0:0x00000000
       87385000	      8737	80004008	00000013	addi	x0,x0,0	  x0:0x00000000
       87395000	      8738	8000400c	00eb54b3	srl	x9,x22,x14	 x22:0x00000001 x14:0xc18d2000  x9=0x00000001
       87405000	      8739	80004010	d5b72617	auipc	x12,0xd5b72	 x12=0x55b7600c
       87415000	      8740	80004014	00136663	bltu	x6,x1,80004020	  x6:0x00000000  x1:0x00000000
       87425000	      8741	80004018	a65aa913	slti	x18,x21,-1435	 x21:0x50627a20 x18=0x00000000
       87435000	      8742	8000401c	5487bc97	auipc	x25,0x5487b	 x25=0xd487f018
       87445000	      8743	80004020	bdecbc13	sltiu	x24,x25,-1058	 x25:0xd487f018 x24=0x00000001
       87455000	      8744	80004024	00301c13	slli	x24,x0,0x3	  x0:0x00000000 x24=0x00000000
       87465000	      8745	80004028	008147b3	xor	x15,x2,x8	  x2:0x00000003  x8:0x80009fc4 x15=0x80009fc7
       87475000	      8746	8000402c	0065a233	slt	x4,x11,x6	 x11:0xf5c00000  x6:0x00000000  x4=0x00000001
       87485000	      8747	80004030	01b41a33	sll	x20,x8,x27	  x8:0x80009fc4 x27:0x00000496 x20=0xf1000000
       87495000	      8748	80004034	035b1863	bne	x22,x21,80004064	 x22:0x00000001 x21:0x50627a20
       87505000	      8749	00000000	00000013	addi	x0,x0,0	  x0:0x00000000
       87515000	      8750	80004060	00000013	addi	x0,x0,0	  x0:0x00000000
       87525000	      8751	80004064	00e77bb3	and	x23,x14,x14	 x14:0xc18d2000 x14:0xc18d2000 x23=0xc18d2000
       87535000	      8752	80004068	9d9d6d97	auipc	x27,0x9d9d6	 x27=0x1d9da064
       87545000	      8753	8000406c	0145cb33	xor	x22,x11,x20	 x11:0xf5c00000 x20:0xf1000000 x22=0x04c00000
       87555000	      8754	80004070	00a170b3	and	x1,x2,x10	  x2:0x00000003 x10:0x00000000  x1=0x00000000
       87565000	      8755	80004074	40abd213	srai	x4,x23,0xa	 x23:0xc18d2000  x4=0xfff06348
       87575000	      8756	80004078	00e316b3	sll	x13,x6,x14	  x6:0x00000000 x14:0xc18d2000 x13=0x00000000
       87585000	      8757	8000407c	410ad393	srai	x7,x21,0x10	 x21:0x50627a20  x7=0x00005062
       87595000	      8758	80004080	40c35493	srai	x9,x6,0xc	  x6:0x00000000  x9=0x00000000
       87605000	      8759	80004084	414304b3	sub	x9,x6,x20	  x6:0x00000000 x20:0xf1000000  x9=0x0f000000
       87615000	      8760	80004088	012bc033	xor	x0,x23,x18	 x23:0xc18d2000 x18:0x00000000
       87625000	      8761	8000408c	02a70663	beq	x14,x10,800040b8	 x14:0xc18d2000 x10:0x00000000
       87635000	      8762	80004090	009edd13	srli	x26,x29,0x9	 x29:0xffffbc00 x26=0x007fffde
       87645000	      8763	80004094	c7e9f637	lui	x12,0xc7e9f	 x12=0xc7e9f000
       87655000	      8764	80004098	f8b34617	auipc	x12,0xf8b34	 x12=0x78b38094
       87665000	      8765	8000409c	02db9463	bne	x23,x13,800040c4	 x23:0xc18d2000 x13:0x00000000
       87675000	      8766	00000000	00000013	addi	x0,x0,0	  x0:0x00000000
       87685000	      8767	800040c0	00000013	addi	x0,x0,0	  x0:0x00000000
       87695000	      8768	800040c4	01585793	srli	x15,x16,0x15	 x16:0x00000000 x15=0x00000000
       87705000	      8769	800040c8	40255e93	srai	x29,x10,0x2	 x10:0x00000000 x29=0x00000000
       87715000	      8770	800040cc	004e2c03	lw	x24,4(x28)	 x28:0x80009eec x24=0x800025e4 PA:0x80009ef0
       87725000	      8771	800040d0	00000013	addi	x0,x0,0	  x0:0x00000000
       87735000	      8772	800040d4	024e0e13	addi	x28,x28,36	 x28:0x80009eec x28=0x80009f10
       87745000	      8773	800040d8	a7c61e97	auipc	x29,0xa7c61	 x29=0x27c650d4
       87755000	      8774	800040dc	34bf4493	xori	x9,x30,843	 x30:0xffffff8d  x9=0xfffffcc6
       87765000	      8775	800040e0	010bafb3	slt	x31,x23,x16	 x23:0xc18d2000 x16:0x00000000 x31=0x00000001
       87775000	      8776	800040e4	00bf8333	add	x6,x31,x11	 x31:0x00000001 x11:0xf5c00000  x6=0xf5c00001
       87785000	      8777	800040e8	0133e533	or	x10,x7,x19	  x7:0x00005062 x19:0x00000001 x10=0x00005063
       87795000	      8778	800040ec	41ded2b3	sra	x5,x29,x29	 x29:0x27c650d4 x29:0x27c650d4  x5=0x0000027c
       87805000	      8779	800040f0	001c0293	addi	x5,x24,1	 x24:0x800025e4  x5=0x800025e5
       87815000	      8780	800040f4	000282e7	jalr	x5,x5,0	  x5:0x800025e5  x5=0x800040f4
       87825000	      8781	00000000	00000013	addi	x0,x0,0	  x0:0x00000000
       87835000	      8782	800025e4	00000013	addi	x0,x0,0	  x0:0x00000000
       87845000	      8783	800025e8	0138dc93	srli	x25,x17,0x13	 x17:0x013f8800 x25=0x00000027
       87855000	      8784	800025ec	0097fc33	and	x24,x15,x9	 x15:0x00000000  x9:0xfffffcc6 x24=0x00000000
       87865000	      8785	800025f0	00000013	addi	x0,x0,0	  x0:0x00000000
       87875000	      8786	800025f4	012182b3	add	x5,x3,x18	  x3:0x00000585 x18:0x00000000  x5=0x00000585
       87885000	      8787	800025f8	00375293	srli	x5,x14,0x3	 x14:0xc18d2000  x5=0x1831a400
       87895000	      8788	800025fc	008c5293	srli	x5,x24,0x8	 x24:0x00000000  x5=0x00000000
       87905000	      8789	80002600	42400c6f	jal	x24,80002600	 x24=0x80002600
       87915000	      8790	00000000	00000013	addi	x0,x0,0	  x0:0x00000000
       87925000	      8791	80002a20	00000013	addi	x0,x0,0	  x0:0x00000000
       87935000	      8792	80002a24	002509b3	add	x19,x10,x2	 x10:0x00005063  x2:0x00000003 x19=0x00005066
       87945000	      8793	80002a28	d5aa3897	auipc	x17,0xd5aa3	 x17=0x55aa5a24
       87955000	      8794	80002a2c	769cfa17	auipc	x20,0x769cf	 x20=0xf69d1a28
       87965000	      8795	80002a30	01d86263	bltu	x16,x29,80002a34	 x16:0x00000000 x29:0x27c650d4
       87975000	      8796	00000000	00000013	addi	x0,x0,0	  x0:0x00000000
       87985000	      8797	80002a30	00000013	addi	x0,x0,0	  x0:0x00000000
       87995000	      8798	80002a34	fdce0e13	addi	x28,x28,-36	 x28:0x80009f10 x28=0x80009eec
       88005000	      8799	80002a38	a8da2213	slti	x4,x20,-1395	 x20:0xf69d1a28  x4=0x00000001
       88015000	      8800	80002a3c	50667093	andi	x1,x12,1286	 x12:0x78b38094  x1=0x00000004
       88025000	      8801	80002a40	008ac233	xor	x4,x21,x8	 x21:0x50627a20  x8:0x80009fc4  x4=0xd062e5e4
       88035000	      8802	80002a44	0191da33	srl	x20,x3,x25	  x3:0x00000585 x25:0x00000027 x20=0x0000000b
       88045000	      8803	80002a48	018e2223	sw	x24,4(x28)	 x28:0x80009eec x24:0x80002600 PA:0x80009ef0
       88055000	      8804	80002a4c	c2546913	ori	x18,x8,-987	  x8:0x80009fc4 x18=0xffffffe5
       88065000	      8805	80002a50	00800c6f	jal	x24,80002a50	 x24=0x80002a50
       88075000	      8806	00000000	00000013	addi	x0,x0,0	  x0:0x00000000
       88085000	      8807	80002a54	00000013	addi	x0,x0,0	  x0:0x00000000
       88095000	      8808	80002a58	01c00cef	jal	x25,80002a58	 x25=0x80002a58
       88105000	      8809	00000000	00000013	addi	x0,x0,0	  x0:0x00000000
       88115000	      8810	80002a70	00000013	addi	x0,x0,0	  x0:0x00000000
       88125000	      8811	80002a74	00c0036f	jal	x6,80002a74	  x6=0x80002a74
       88135000	      8812	00000000	00000013	addi	x0,x0,0	  x0:0x00000000
       88145000	      8813	80002a7c	00000013	addi	x0,x0,0	  x0:0x00000000
       88155000	      8814	80002a80	fe9ff0ef	jal	x1,80002a80	  x1=0x80002a80
       88165000	      8815	00000000	00000013	addi	x0,x0,0	  x0:0x00000000
       88175000	      8816	80002a64	00000013	addi	x0,x0,0	  x0:0x00000000
       88185000	      8817	80002a68	ff9ff36f	jal	x6,80002a68	  x6=0x80002a68
       88195000	      8818	00000000	00000013	addi	x0,x0,0	  x0:0x00000000
       88205000	      8819	80002a5c	00000013	addi	x0,x0,0	  x0:0x00000000
       88215000	      8820	80002a60	010000ef	jal	x1,80002a60	  x1=0x80002a60
       88225000	      8821	00000000	00000013	addi	x0,x0,0	  x0:0x00000000
       88235000	      8822	80002a6c	00000013	addi	x0,x0,0	  x0:0x00000000
       88245000	      8823	80002a70	ffdff36f	jal	x6,80002a70	  x6=0x80002a70
       88255000	      8824	00000000	00000013	addi	x0,x0,0	  x0:0x00000000
       88265000	      8825	80002a68	00000013	addi	x0,x0,0	  x0:0x00000000
       88275000	      8826	80002a6c	00c00cef	jal	x25,80002a6c	 x25=0x80002a6c
       88285000	      8827	00000000	00000013	addi	x0,x0,0	  x0:0x00000000
       88295000	      8828	80002a74	00000013	addi	x0,x0,0	  x0:0x00000000
       88305000	      8829	80002a78	004000ef	jal	x1,80002a78	  x1=0x80002a78
       88315000	      8830	00000000	00000013	addi	x0,x0,0	  x0:0x00000000
       88325000	      8831	80002a78	00000013	addi	x0,x0,0	  x0:0x00000000
       88335000	      8832	80002a7c	00800def	jal	x27,80002a7c	 x27=0x80002a7c
       88345000	      8833	00000000	00000013	addi	x0,x0,0	  x0:0x00000000
       88355000	      8834	80002a80	00000013	addi	x0,x0,0	  x0:0x00000000
       88365000	      8835	80002a84	fd9fff6f	jal	x30,80002a84	 x30=0x80002a84
       88375000	      8836	00000000	00000013	addi	x0,x0,0	  x0:0x00000000
       88385000	      8837	80002a58	00000013	addi	x0,x0,0	  x0:0x00000000
       88395000	      8838	80002a5c	ff9ff56f	jal	x10,80002a5c	 x10=0x80002a5c
       88405000	      8839	00000000	00000013	addi	x0,x0,0	  x0:0x00000000
       88415000	      8840	80002a50	00000013	addi	x0,x0,0	  x0:0x00000000
       88425000	      8841	80002a54	010000ef	jal	x1,80002a54	  x1=0x80002a54
       88435000	      8842	00000000	00000013	addi	x0,x0,0	  x0:0x00000000
       88445000	      8843	80002a60	00000013	addi	x0,x0,0	  x0:0x00000000
       88455000	      8844	80002a64	0240026f	jal	x4,80002a64	  x4=0x80002a64
       88465000	      8845	00000000	00000013	addi	x0,x0,0	  x0:0x00000000
       88475000	      8846	80002a84	00000013	addi	x0,x0,0	  x0:0x00000000
       88485000	      8847	80002a88	ca584097	auipc	x1,0xca584	  x1=0x4a586a84
       88495000	      8848	80002a8c	04c00c6f	jal	x24,80002a8c	 x24=0x80002a8c
       88505000	      8849	00000000	00000013	addi	x0,x0,0	  x0:0x00000000
       88515000	      8850	80002ad4	00000013	addi	x0,x0,0	  x0:0x00000000
       88525000	      8851	80002ad8	018007ef	jal	x15,80002ad8	 x15=0x80002ad8
       88535000	      8852	00000000	00000013	addi	x0,x0,0	  x0:0x00000000
       88545000	      8853	80002aec	00000013	addi	x0,x0,0	  x0:0x00000000
       88555000	      8854	80002af0	0040096f	jal	x18,80002af0	 x18=0x80002af0
       88565000	      8855	00000000	00000013	addi	x0,x0,0	  x0:0x00000000
       88575000	      8856	80002af0	00000013	addi	x0,x0,0	  x0:0x00000000
       88585000	      8857	80002af4	008000ef	jal	x1,80002af4	  x1=0x80002af4
       88595000	      8858	00000000	00000013	addi	x0,x0,0	  x0:0x00000000
       88605000	      8859	80002af8	00000013	addi	x0,x0,0	  x0:0x00000000
       88615000	      8860	80002afc	fd1ff0ef	jal	x1,80002afc	  x1=0x80002afc
       88625000	      8861	00000000	00000013	addi	x0,x0,0	  x0:0x00000000
       88635000	      8862	80002ac8	00000013	addi	x0,x0,0	  x0:0x00000000
       88645000	      8863	80002acc	fe9ff36f	jal	x6,80002acc	  x6=0x80002acc
       88655000	      8864	00000000	00000013	addi	x0,x0,0	  x0:0x00000000
       88665000	      8865	80002ab0	00000013	addi	x0,x0,0	  x0:0x00000000
       88675000	      8866	80002ab4	ffdff26f	jal	x4,80002ab4	  x4=0x80002ab4
       88685000	      8867	00000000	00000013	addi	x0,x0,0	  x0:0x00000000
       88695000	      8868	80002aac	00000013	addi	x0,x0,0	  x0:0x00000000
       88705000	      8869	80002ab0	fe9ffbef	jal	x23,80002ab0	 x23=0x80002ab0
       88715000	      8870	00000000	00000013	addi	x0,x0,0	  x0:0x00000000
       88725000	      8871	80002a94	00000013	addi	x0,x0,0	  x0:0x00000000
       88735000	      8872	80002a98	038001ef	jal	x3,80002a98	  x3=0x80002a98
       88745000	      8873	00000000	00000013	addi	x0,x0,0	  x0:0x00000000
       88755000	      8874	80002acc	00000013	addi	x0,x0,0	  x0:0x00000000
       88765000	      8875	80002ad0	0140036f	jal	x6,80002ad0	  x6=0x80002ad0
       88775000	      8876	00000000	00000013	addi	x0,x0,0	  x0:0x00000000
       88785000	      8877	80002ae0	00000013	addi	x0,x0,0	  x0:0x00000000
       88795000	      8878	80002ae4	004000ef	jal	x1,80002ae4	  x1=0x80002ae4
       88805000	      8879	00000000	00000013	addi	x0,x0,0	  x0:0x00000000
       88815000	      8880	80002ae4	00000013	addi	x0,x0,0	  x0:0x00000000
       88825000	      8881	80002ae8	fc5ff0ef	jal	x1,80002ae8	  x1=0x80002ae8
       88835000	      8882	00000000	00000013	addi	x0,x0,0	  x0:0x00000000
       88845000	      8883	80002aa8	00000013	addi	x0,x0,0	  x0:0x00000000
       88855000	      8884	80002aac	04c00bef	jal	x23,80002aac	 x23=0x80002aac
       88865000	      8885	00000000	00000013	addi	x0,x0,0	  x0:0x00000000
       88875000	      8886	80002af4	00000013	addi	x0,x0,0	  x0:0x00000000
       88885000	      8887	80002af8	f99ff5ef	jal	x11,80002af8	 x11=0x80002af8
       88895000	      8888	00000000	00000013	addi	x0,x0,0	  x0:0x00000000
       88905000	      8889	80002a8c	00000013	addi	x0,x0,0	  x0:0x00000000
       88915000	      8890	80002a90	010000ef	jal	x1,80002a90	  x1=0x80002a90
       88925000	      8891	00000000	00000013	addi	x0,x0,0	  x0:0x00000000
       88935000	      8892	80002a9c	00000013	addi	x0,x0,0	  x0:0x00000000
       88945000	      8893	80002aa0	04c000ef	jal	x1,80002aa0	  x1=0x80002aa0
       88955000	      8894	00000000	00000013	addi	x0,x0,0	  x0:0x00000000
       88965000	      8895	80002ae8	00000013	addi	x0,x0,0	  x0:0x00000000
       88975000	      8896	80002aec	fb9ff36f	jal	x6,80002aec	  x6=0x80002aec
       88985000	      8897	00000000	00000013	addi	x0,x0,0	  x0:0x00000000
       88995000	      8898	80002aa0	00000013	addi	x0,x0,0	  x0:0x00000000
       89005000	      8899	80002aa4	ff9ff36f	jal	x6,80002aa4	  x6=0x80002aa4
       89015000	      8900	00000000	00000013	addi	x0,x0,0	  x0:0x00000000
       89025000	      8901	80002a98	00000013	addi	x0,x0,0	  x0:0x00000000
       89035000	      8902	80002a9c	024001ef	jal	x3,80002a9c	  x3=0x80002a9c
       89045000	      8903	00000000	00000013	addi	x0,x0,0	  x0:0x00000000
       89055000	      8904	80002abc	00000013	addi	x0,x0,0	  x0:0x00000000
       89065000	      8905	80002ac0	020000ef	jal	x1,80002ac0	  x1=0x80002ac0
       89075000	      8906	00000000	00000013	addi	x0,x0,0	  x0:0x00000000
       89085000	      8907	80002adc	00000013	addi	x0,x0,0	  x0:0x00000000
       89095000	      8908	80002ae0	fe9ff36f	jal	x6,80002ae0	  x6=0x80002ae0
       89105000	      8909	00000000	00000013	addi	x0,x0,0	  x0:0x00000000
       89115000	      8910	80002ac4	00000013	addi	x0,x0,0	  x0:0x00000000
       89125000	      8911	80002ac8	ff5ff36f	jal	x6,80002ac8	  x6=0x80002ac8
       89135000	      8912	00000000	00000013	addi	x0,x0,0	  x0:0x00000000
       89145000	      8913	80002ab8	00000013	addi	x0,x0,0	  x0:0x00000000
       89155000	      8914	80002abc	ffdff0ef	jal	x1,80002abc	  x1=0x80002abc
       89165000	      8915	00000000	00000013	addi	x0,x0,0	  x0:0x00000000
       89175000	      8916	80002ab4	00000013	addi	x0,x0,0	  x0:0x00000000
       89185000	      8917	80002ab8	01c000ef	jal	x1,80002ab8	  x1=0x80002ab8
       89195000	      8918	00000000	00000013	addi	x0,x0,0	  x0:0x00000000
       89205000	      8919	80002ad0	00000013	addi	x0,x0,0	  x0:0x00000000
       89215000	      8920	80002ad4	ff1ff0ef	jal	x1,80002ad4	  x1=0x80002ad4
       89225000	      8921	00000000	00000013	addi	x0,x0,0	  x0:0x00000000
       89235000	      8922	80002ac0	00000013	addi	x0,x0,0	  x0:0x00000000
       89245000	      8923	80002ac4	018000ef	jal	x1,80002ac4	  x1=0x80002ac4
       89255000	      8924	00000000	00000013	addi	x0,x0,0	  x0:0x00000000
       89265000	      8925	80002ad8	00000013	addi	x0,x0,0	  x0:0x00000000
       89275000	      8926	80002adc	fcdff36f	jal	x6,80002adc	  x6=0x80002adc
       89285000	      8927	00000000	00000013	addi	x0,x0,0	  x0:0x00000000
       89295000	      8928	80002aa4	00000013	addi	x0,x0,0	  x0:0x00000000
       89305000	      8929	80002aa8	fedff0ef	jal	x1,80002aa8	  x1=0x80002aa8
       89315000	      8930	00000000	00000013	addi	x0,x0,0	  x0:0x00000000
       89325000	      8931	80002a90	00000013	addi	x0,x0,0	  x0:0x00000000
       89335000	      8932	80002a94	06c000ef	jal	x1,80002a94	  x1=0x80002a94
       89345000	      8933	00000000	00000013	addi	x0,x0,0	  x0:0x00000000
       89355000	      8934	80002afc	00000013	addi	x0,x0,0	  x0:0x00000000
       89365000	      8935	80002b00	f9edea13	ori	x20,x27,-98	 x27:0x80002a7c x20=0xfffffffe
       89375000	      8936	80002b04	02400c6f	jal	x24,80002b04	 x24=0x80002b04
       89385000	      8937	00000000	00000013	addi	x0,x0,0	  x0:0x00000000
       89395000	      8938	80002b24	00000013	addi	x0,x0,0	  x0:0x00000000
       89405000	      8939	80002b28	028000ef	jal	x1,80002b28	  x1=0x80002b28
       89415000	      8940	00000000	00000013	addi	x0,x0,0	  x0:0x00000000
       89425000	      8941	80002b4c	00000013	addi	x0,x0,0	  x0:0x00000000
       89435000	      8942	80002b50	ffdff0ef	jal	x1,80002b50	  x1=0x80002b50
       89445000	      8943	00000000	00000013	addi	x0,x0,0	  x0:0x00000000
       89455000	      8944	80002b48	00000013	addi	x0,x0,0	  x0:0x00000000
       89465000	      8945	80002b4c	fe5ff0ef	jal	x1,80002b4c	  x1=0x80002b4c
       89475000	      8946	00000000	00000013	addi	x0,x0,0	  x0:0x00000000
       89485000	      8947	80002b2c	00000013	addi	x0,x0,0	  x0:0x00000000
       89495000	      8948	80002b30	ffdff0ef	jal	x1,80002b30	  x1=0x80002b30
       89505000	      8949	00000000	00000013	addi	x0,x0,0	  x0:0x00000000
       89515000	      8950	80002b28	00000013	addi	x0,x0,0	  x0:0x00000000
       89525000	      8951	80002b2c	01800eef	jal	x29,80002b2c	 x29=0x80002b2c
       89535000	      8952	00000000	00000013	addi	x0,x0,0	  x0:0x00000000
       89545000	      8953	80002b40	00000013	addi	x0,x0,0	  x0:0x00000000
       89555000	      8954	80002b44	fddff3ef	jal	x7,80002b44	  x7=0x80002b44
       89565000	      8955	00000000	00000013	addi	x0,x0,0	  x0:0x00000000
       89575000	      8956	80002b1c	00000013	addi	x0,x0,0	  x0:0x00000000
       89585000	      8957	80002b20	ff1ff4ef	jal	x9,80002b20	  x9=0x80002b20
       89595000	      8958	00000000	00000013	addi	x0,x0,0	  x0:0x00000000
       89605000	      8959	80002b0c	00000013	addi	x0,x0,0	  x0:0x00000000
       89615000	      8960	80002b10	024000ef	jal	x1,80002b10	  x1=0x80002b10
       89625000	      8961	00000000	00000013	addi	x0,x0,0	  x0:0x00000000
       89635000	      8962	80002b30	00000013	addi	x0,x0,0	  x0:0x00000000
       89645000	      8963	80002b34	014000ef	jal	x1,80002b34	  x1=0x80002b34
       89655000	      8964	00000000	00000013	addi	x0,x0,0	  x0:0x00000000
       89665000	      8965	80002b44	00000013	addi	x0,x0,0	  x0:0x00000000
       89675000	      8966	80002b48	ff9ff0ef	jal	x1,80002b48	  x1=0x80002b48
       89685000	      8967	00000000	00000013	addi	x0,x0,0	  x0:0x00000000
       89695000	      8968	80002b3c	00000013	addi	x0,x0,0	  x0:0x00000000
       89705000	      8969	80002b40	fcdffcef	jal	x25,80002b40	 x25=0x80002b40
       89715000	      8970	00000000	00000013	addi	x0,x0,0	  x0:0x00000000
       89725000	      8971	80002b08	00000013	addi	x0,x0,0	  x0:0x00000000
       89735000	      8972	80002b0c	05c0036f	jal	x6,80002b0c	  x6=0x80002b0c
       89745000	      8973	00000000	00000013	addi	x0,x0,0	  x0:0x00000000
       89755000	      8974	80002b64	00000013	addi	x0,x0,0	  x0:0x00000000
       89765000	      8975	80002b68	ff9ff7ef	jal	x15,80002b68	 x15=0x80002b68
       89775000	      8976	00000000	00000013	addi	x0,x0,0	  x0:0x00000000
       89785000	      8977	80002b5c	00000013	addi	x0,x0,0	  x0:0x00000000
       89795000	      8978	80002b60	fd9ff0ef	jal	x1,80002b60	  x1=0x80002b60
       89805000	      8979	00000000	00000013	addi	x0,x0,0	  x0:0x00000000
       89815000	      8980	80002b34	00000013	addi	x0,x0,0	  x0:0x00000000
       89825000	      8981	80002b38	01c0036f	jal	x6,80002b38	  x6=0x80002b38
       89835000	      8982	00000000	00000013	addi	x0,x0,0	  x0:0x00000000
       89845000	      8983	80002b50	00000013	addi	x0,x0,0	  x0:0x00000000
       89855000	      8984	80002b54	fb5ff0ef	jal	x1,80002b54	  x1=0x80002b54
       89865000	      8985	00000000	00000013	addi	x0,x0,0	  x0:0x00000000
       89875000	      8986	80002b04	00000013	addi	x0,x0,0	  x0:0x00000000
       89885000	      8987	80002b08	00c000ef	jal	x1,80002b08	  x1=0x80002b08
       89895000	      8988	00000000	00000013	addi	x0,x0,0	  x0:0x00000000
       89905000	      8989	80002b10	00000013	addi	x0,x0,0	  x0:0x00000000
       89915000	      8990	80002b14	00800b6f	jal	x22,80002b14	 x22=0x80002b14
       89925000	      8991	00000000	00000013	addi	x0,x0,0	  x0:0x00000000
       89935000	      8992	80002b18	00000013	addi	x0,x0,0	  x0:0x00000000
       89945000	      8993	80002b1c	048004ef	jal	x9,80002b1c	  x9=0x80002b1c
       89955000	      8994	00000000	00000013	addi	x0,x0,0	  x0:0x00000000
       89965000	      8995	80002b60	00000013	addi	x0,x0,0	  x0:0x00000000
       89975000	      8996	80002b64	fd9ff0ef	jal	x1,80002b64	  x1=0x80002b64
       89985000	      8997	00000000	00000013	addi	x0,x0,0	  x0:0x00000000
       89995000	      8998	80002b38	00000013	addi	x0,x0,0	  x0:0x00000000
       90005000	      8999	80002b3c	020006ef	jal	x13,80002b3c	 x13=0x80002b3c
       90015000	      9000	00000000	00000013	addi	x0,x0,0	  x0:0x00000000
       90025000	      9001	80002b58	00000013	addi	x0,x0,0	  x0:0x00000000
       90035000	      9002	80002b5c	ffdff9ef	jal	x19,80002b5c	 x19=0x80002b5c
       90045000	      9003	00000000	00000013	addi	x0,x0,0	  x0:0x00000000
       90055000	      9004	80002b54	00000013	addi	x0,x0,0	  x0:0x00000000
       90065000	      9005	80002b58	fcdff8ef	jal	x17,80002b58	 x17=0x80002b58
       90075000	      9006	00000000	00000013	addi	x0,x0,0	  x0:0x00000000
       90085000	      9007	80002b20	00000013	addi	x0,x0,0	  x0:0x00000000
       90095000	      9008	80002b24	ff5ff0ef	jal	x1,80002b24	  x1=0x80002b24
       90105000	      9009	00000000	00000013	addi	x0,x0,0	  x0:0x00000000
       90115000	      9010	80002b14	00000013	addi	x0,x0,0	  x0:0x00000000
       90125000	      9011	80002b18	054000ef	jal	x1,80002b18	  x1=0x80002b18
       90135000	      9012	00000000	00000013	addi	x0,x0,0	  x0:0x00000000
       90145000	      9013	80002b68	00000013	addi	x0,x0,0	  x0:0x00000000
       90155000	      9014	80002b6c	00aa9213	slli	x4,x21,0xa	 x21:0x50627a20  x4=0x89e88000
       90165000	      9015	80002b70	03c00c6f	jal	x24,80002b70	 x24=0x80002b70
       90175000	      9016	00000000	00000013	addi	x0,x0,0	  x0:0x00000000
       90185000	      9017	80002ba8	00000013	addi	x0,x0,0	  x0:0x00000000
       90195000	      9018	80002bac	fd1ff8ef	jal	x17,80002bac	 x17=0x80002bac
       90205000	      9019	00000000	00000013	addi	x0,x0,0	  x0:0x00000000
       90215000	      9020	80002b78	00000013	addi	x0,x0,0	  x0:0x00000000
       90225000	      9021	80002b7c	0400016f	jal	x2,80002b7c	  x2=0x80002b7c
       90235000	      9022	00000000	00000013	addi	x0,x0,0	  x0:0x00000000
       90245000	      9023	80002bb8	00000013	addi	x0,x0,0	  x0:0x00000000
       90255000	      9024	80002bbc	fbdff36f	jal	x6,80002bbc	  x6=0x80002bbc
       90265000	      9025	00000000	00000013	addi	x0,x0,0	  x0:0x00000000
       90275000	      9026	80002b74	00000013	addi	x0,x0,0	  x0:0x00000000
       90285000	      9027	80002b78	014000ef	jal	x1,80002b78	  x1=0x80002b78
       90295000	      9028	00000000	00000013	addi	x0,x0,0	  x0:0x00000000
       90305000	      9029	80002b88	00000013	addi	x0,x0,0	  x0:0x00000000
       90315000	      9030	80002b8c	fe9ff66f	jal	x12,80002b8c	 x12=0x80002b8c
       90325000	      9031	00000000	00000013	addi	x0,x0,0	  x0:0x00000000
       90335000	      9032	80002b70	00000013	addi	x0,x0,0	  x0:0x00000000
       90345000	      9033	80002b74	010000ef	jal	x1,80002b74	  x1=0x80002b74
       90355000	      9034	00000000	00000013	addi	x0,x0,0	  x0:0x00000000
       90365000	      9035	80002b80	00000013	addi	x0,x0,0	  x0:0x00000000
       90375000	      9036	80002b84	030000ef	jal	x1,80002b84	  x1=0x80002b84
       90385000	      9037	00000000	00000013	addi	x0,x0,0	  x0:0x00000000
       90395000	      9038	80002bb0	00000013	addi	x0,x0,0	  x0:0x00000000
       90405000	      9039	80002bb4	ff5ff36f	jal	x6,80002bb4	  x6=0x80002bb4
       90415000	      9040	00000000	00000013	addi	x0,x0,0	  x0:0x00000000
       90425000	      9041	80002ba4	00000013	addi	x0,x0,0	  x0:0x00000000
       90435000	      9042	80002ba8	ff5ff4ef	jal	x9,80002ba8	  x9=0x80002ba8
       90445000	      9043	00000000	00000013	addi	x0,x0,0	  x0:0x00000000
       90455000	      9044	80002b98	00000013	addi	x0,x0,0	  x0:0x00000000
       90465000	      9045	80002b9c	01c000ef	jal	x1,80002b9c	  x1=0x80002b9c
       90475000	      9046	00000000	00000013	addi	x0,x0,0	  x0:0x00000000
       90485000	      9047	80002bb4	00000013	addi	x0,x0,0	  x0:0x00000000
       90495000	      9048	80002bb8	fe9ff0ef	jal	x1,80002bb8	  x1=0x80002bb8
       90505000	      9049	00000000	00000013	addi	x0,x0,0	  x0:0x00000000
       90515000	      9050	80002b9c	00000013	addi	x0,x0,0	  x0:0x00000000
       90525000	      9051	80002ba0	ff1ff0ef	jal	x1,80002ba0	  x1=0x80002ba0
       90535000	      9052	00000000	00000013	addi	x0,x0,0	  x0:0x00000000
       90545000	      9053	80002b8c	00000013	addi	x0,x0,0	  x0:0x00000000
       90555000	      9054	80002b90	034000ef	jal	x1,80002b90	  x1=0x80002b90
       90565000	      9055	00000000	00000013	addi	x0,x0,0	  x0:0x00000000
       90575000	      9056	80002bc0	00000013	addi	x0,x0,0	  x0:0x00000000
       90585000	      9057	80002bc4	fd5ff36f	jal	x6,80002bc4	  x6=0x80002bc4
       90595000	      9058	00000000	00000013	addi	x0,x0,0	  x0:0x00000000
       90605000	      9059	80002b94	00000013	addi	x0,x0,0	  x0:0x00000000
       90615000	      9060	80002b98	fe9ff0ef	jal	x1,80002b98	  x1=0x80002b98
       90625000	      9061	00000000	00000013	addi	x0,x0,0	  x0:0x00000000
       90635000	      9062	80002b7c	00000013	addi	x0,x0,0	  x0:0x00000000
       90645000	      9063	80002b80	008000ef	jal	x1,80002b80	  x1=0x80002b80
       90655000	      9064	00000000	00000013	addi	x0,x0,0	  x0:0x00000000
       90665000	      9065	80002b84	00000013	addi	x0,x0,0	  x0:0x00000000
       90675000	      9066	80002b88	01c000ef	jal	x1,80002b88	  x1=0x80002b88
       90685000	      9067	00000000	00000013	addi	x0,x0,0	  x0:0x00000000
       90695000	      9068	80002ba0	00000013	addi	x0,x0,0	  x0:0x00000000
       90705000	      9069	80002ba4	ff1ff0ef	jal	x1,80002ba4	  x1=0x80002ba4
       90715000	      9070	00000000	00000013	addi	x0,x0,0	  x0:0x00000000
       90725000	      9071	80002b90	00000013	addi	x0,x0,0	  x0:0x00000000
       90735000	      9072	80002b94	02c0036f	jal	x6,80002b94	  x6=0x80002b94
       90745000	      9073	00000000	00000013	addi	x0,x0,0	  x0:0x00000000
       90755000	      9074	80002bbc	00000013	addi	x0,x0,0	  x0:0x00000000
       90765000	      9075	80002bc0	ff1fff6f	jal	x30,80002bc0	 x30=0x80002bc0
       90775000	      9076	00000000	00000013	addi	x0,x0,0	  x0:0x00000000
       90785000	      9077	80002bac	00000013	addi	x0,x0,0	  x0:0x00000000
       90795000	      9078	80002bb0	018000ef	jal	x1,80002bb0	  x1=0x80002bb0
       90805000	      9079	00000000	00000013	addi	x0,x0,0	  x0:0x00000000
       90815000	      9080	80002bc4	00000013	addi	x0,x0,0	  x0:0x00000000
       90825000	      9081	80002bc8	49d47993	andi	x19,x8,1181	  x8:0x80009fc4 x19=0x00000484
       90835000	      9082	80002bcc	02000c6f	jal	x24,80002bcc	 x24=0x80002bcc
       90845000	      9083	00000000	00000013	addi	x0,x0,0	  x0:0x00000000
       90855000	      9084	80002be8	00000013	addi	x0,x0,0	  x0:0x00000000
       90865000	      9085	80002bec	ff5ff36f	jal	x6,80002bec	  x6=0x80002bec
       90875000	      9086	00000000	00000013	addi	x0,x0,0	  x0:0x00000000
       90885000	      9087	80002bdc	00000013	addi	x0,x0,0	  x0:0x00000000
       90895000	      9088	80002be0	ff1ff36f	jal	x6,80002be0	  x6=0x80002be0
       90905000	      9089	00000000	00000013	addi	x0,x0,0	  x0:0x00000000
       90915000	      9090	80002bcc	00000013	addi	x0,x0,0	  x0:0x00000000
       90925000	      9091	80002bd0	004000ef	jal	x1,80002bd0	  x1=0x80002bd0
       90935000	      9092	00000000	00000013	addi	x0,x0,0	  x0:0x00000000
       90945000	      9093	80002bd0	00000013	addi	x0,x0,0	  x0:0x00000000
       90955000	      9094	80002bd4	02c0076f	jal	x14,80002bd4	 x14=0x80002bd4
       90965000	      9095	00000000	00000013	addi	x0,x0,0	  x0:0x00000000
       90975000	      9096	80002bfc	00000013	addi	x0,x0,0	  x0:0x00000000
       90985000	      9097	80002c00	ff1ff36f	jal	x6,80002c00	  x6=0x80002c00
       90995000	      9098	00000000	00000013	addi	x0,x0,0	  x0:0x00000000
       91005000	      9099	80002bec	00000013	addi	x0,x0,0	  x0:0x00000000
       91015000	      9100	80002bf0	fe9ff0ef	jal	x1,80002bf0	  x1=0x80002bf0
       91025000	      9101	00000000	00000013	addi	x0,x0,0	  x0:0x00000000
       91035000	      9102	80002bd4	00000013	addi	x0,x0,0	  x0:0x00000000
       91045000	      9103	80002bd8	024000ef	jal	x1,80002bd8	  x1=0x80002bd8
       91055000	      9104	00000000	00000013	addi	x0,x0,0	  x0:0x00000000
       91065000	      9105	80002bf8	00000013	addi	x0,x0,0	  x0:0x00000000
       91075000	      9106	80002bfc	fe9ff0ef	jal	x1,80002bfc	  x1=0x80002bfc
       91085000	      9107	00000000	00000013	addi	x0,x0,0	  x0:0x00000000
       91095000	      9108	80002be0	00000013	addi	x0,x0,0	  x0:0x00000000
       91105000	      9109	80002be4	020000ef	jal	x1,80002be4	  x1=0x80002be4
       91115000	      9110	00000000	00000013	addi	x0,x0,0	  x0:0x00000000
       91125000	      9111	80002c00	00000013	addi	x0,x0,0	  x0:0x00000000
       91135000	      9112	80002c04	ff5ff0ef	jal	x1,80002c04	  x1=0x80002c04
       91145000	      9113	00000000	00000013	addi	x0,x0,0	  x0:0x00000000
       91155000	      9114	80002bf4	00000013	addi	x0,x0,0	  x0:0x00000000
       91165000	      9115	80002bf8	ffdff26f	jal	x4,80002bf8	  x4=0x80002bf8
       91175000	      9116	00000000	00000013	addi	x0,x0,0	  x0:0x00000000
       91185000	      9117	80002bf0	00000013	addi	x0,x0,0	  x0:0x00000000
       91195000	      9118	80002bf4	fe9ff0ef	jal	x1,80002bf4	  x1=0x80002bf4
       91205000	      9119	00000000	00000013	addi	x0,x0,0	  x0:0x00000000
       91215000	      9120	80002bd8	00000013	addi	x0,x0,0	  x0:0x00000000
       91225000	      9121	80002bdc	00c0036f	jal	x6,80002bdc	  x6=0x80002bdc
       91235000	      9122	00000000	00000013	addi	x0,x0,0	  x0:0x00000000
       91245000	      9123	80002be4	00000013	addi	x0,x0,0	  x0:0x00000000
       91255000	      9124	80002be8	020000ef	jal	x1,80002be8	  x1=0x80002be8
       91265000	      9125	00000000	00000013	addi	x0,x0,0	  x0:0x00000000
       91275000	      9126	80002c04	00000013	addi	x0,x0,0	  x0:0x00000000
       91285000	      9127	80002c08	00000013	addi	x0,x0,0	  x0:0x00000000
       91295000	      9128	80002c0c	00400c6f	jal	x24,80002c0c	 x24=0x80002c0c
       91305000	      9129	00000000	00000013	addi	x0,x0,0	  x0:0x00000000
       91315000	      9130	80002c0c	00000013	addi	x0,x0,0	  x0:0x00000000
       91325000	      9131	80002c10	024001ef	jal	x3,80002c10	  x3=0x80002c10
       91335000	      9132	00000000	00000013	addi	x0,x0,0	  x0:0x00000000
       91345000	      9133	80002c30	00000013	addi	x0,x0,0	  x0:0x00000000
       91355000	      9134	80002c34	ff5ff0ef	jal	x1,80002c34	  x1=0x80002c34
       91365000	      9135	00000000	00000013	addi	x0,x0,0	  x0:0x00000000
       91375000	      9136	80002c24	00000013	addi	x0,x0,0	  x0:0x00000000
       91385000	      9137	80002c28	008000ef	jal	x1,80002c28	  x1=0x80002c28
       91395000	      9138	00000000	00000013	addi	x0,x0,0	  x0:0x00000000
       91405000	      9139	80002c2c	00000013	addi	x0,x0,0	  x0:0x00000000
       91415000	      9140	80002c30	ffdff36f	jal	x6,80002c30	  x6=0x80002c30
       91425000	      9141	00000000	00000013	addi	x0,x0,0	  x0:0x00000000
       91435000	      9142	80002c28	00000013	addi	x0,x0,0	  x0:0x00000000
       91445000	      9143	80002c2c	ff1ff0ef	jal	x1,80002c2c	  x1=0x80002c2c
       91455000	      9144	00000000	00000013	addi	x0,x0,0	  x0:0x00000000
       91465000	      9145	80002c18	00000013	addi	x0,x0,0	  x0:0x00000000
       91475000	      9146	80002c1c	008002ef	jal	x5,80002c1c	  x5=0x80002c1c
       91485000	      9147	00000000	00000013	addi	x0,x0,0	  x0:0x00000000
       91495000	      9148	80002c20	00000013	addi	x0,x0,0	  x0:0x00000000
       91505000	      9149	80002c24	ffdff2ef	jal	x5,80002c24	  x5=0x80002c24
       91515000	      9150	00000000	00000013	addi	x0,x0,0	  x0:0x00000000
       91525000	      9151	80002c1c	00000013	addi	x0,x0,0	  x0:0x00000000
       91535000	      9152	80002c20	ff5ff0ef	jal	x1,80002c20	  x1=0x80002c20
       91545000	      9153	00000000	00000013	addi	x0,x0,0	  x0:0x00000000
       91555000	      9154	80002c10	00000013	addi	x0,x0,0	  x0:0x00000000
       91565000	      9155	80002c14	0040036f	jal	x6,80002c14	  x6=0x80002c14
       91575000	      9156	00000000	00000013	addi	x0,x0,0	  x0:0x00000000
       91585000	      9157	80002c14	00000013	addi	x0,x0,0	  x0:0x00000000
       91595000	      9158	80002c18	020002ef	jal	x5,80002c18	  x5=0x80002c18
       91605000	      9159	00000000	00000013	addi	x0,x0,0	  x0:0x00000000
       91615000	      9160	80002c34	00000013	addi	x0,x0,0	  x0:0x00000000
       91625000	      9161	80002c38	01aa0ab3	add	x21,x20,x26	 x20:0xfffffffe x26:0x007fffde x21=0x007fffdc
       91635000	      9162	80002c3c	00c00c6f	jal	x24,80002c3c	 x24=0x80002c3c
       91645000	      9163	00000000	00000013	addi	x0,x0,0	  x0:0x00000000
       91655000	      9164	80002c44	00000013	addi	x0,x0,0	  x0:0x00000000
       91665000	      9165	80002c48	028000ef	jal	x1,80002c48	  x1=0x80002c48
       91675000	      9166	00000000	00000013	addi	x0,x0,0	  x0:0x00000000
       91685000	      9167	80002c6c	00000013	addi	x0,x0,0	  x0:0x00000000
       91695000	      9168	80002c70	008001ef	jal	x3,80002c70	  x3=0x80002c70
       91705000	      9169	00000000	00000013	addi	x0,x0,0	  x0:0x00000000
       91715000	      9170	80002c74	00000013	addi	x0,x0,0	  x0:0x00000000
       91725000	      9171	80002c78	fcdff36f	jal	x6,80002c78	  x6=0x80002c78
       91735000	      9172	00000000	00000013	addi	x0,x0,0	  x0:0x00000000
       91745000	      9173	80002c40	00000013	addi	x0,x0,0	  x0:0x00000000
       91755000	      9174	80002c44	010000ef	jal	x1,80002c44	  x1=0x80002c44
       91765000	      9175	00000000	00000013	addi	x0,x0,0	  x0:0x00000000
       91775000	      9176	80002c50	00000013	addi	x0,x0,0	  x0:0x00000000
       91785000	      9177	80002c54	00c0016f	jal	x2,80002c54	  x2=0x80002c54
       91795000	      9178	00000000	00000013	addi	x0,x0,0	  x0:0x00000000
       91805000	      9179	80002c5c	00000013	addi	x0,x0,0	  x0:0x00000000
       91815000	      9180	80002c60	ffdff0ef	jal	x1,80002c60	  x1=0x80002c60
       91825000	      9181	00000000	00000013	addi	x0,x0,0	  x0:0x00000000
       91835000	      9182	80002c58	00000013	addi	x0,x0,0	  x0:0x00000000
       91845000	      9183	80002c5c	0200036f	jal	x6,80002c5c	  x6=0x80002c5c
       91855000	      9184	00000000	00000013	addi	x0,x0,0	  x0:0x00000000
       91865000	      9185	80002c78	00000013	addi	x0,x0,0	  x0:0x00000000
       91875000	      9186	80002c7c	fd1ff66f	jal	x12,80002c7c	 x12=0x80002c7c
       91885000	      9187	00000000	00000013	addi	x0,x0,0	  x0:0x00000000
       91895000	      9188	80002c48	00000013	addi	x0,x0,0	  x0:0x00000000
       91905000	      9189	80002c4c	0180036f	jal	x6,80002c4c	  x6=0x80002c4c
       91915000	      9190	00000000	00000013	addi	x0,x0,0	  x0:0x00000000
       91925000	      9191	80002c60	00000013	addi	x0,x0,0	  x0:0x00000000
       91935000	      9192	80002c64	ff5ff0ef	jal	x1,80002c64	  x1=0x80002c64
       91945000	      9193	00000000	00000013	addi	x0,x0,0	  x0:0x00000000
       91955000	      9194	80002c54	00000013	addi	x0,x0,0	  x0:0x00000000
       91965000	      9195	80002c58	01000d6f	jal	x26,80002c58	 x26=0x80002c58
       91975000	      9196	00000000	00000013	addi	x0,x0,0	  x0:0x00000000
       91985000	      9197	80002c64	00000013	addi	x0,x0,0	  x0:0x00000000
       91995000	      9198	80002c68	004000ef	jal	x1,80002c68	  x1=0x80002c68
       92005000	      9199	00000000	00000013	addi	x0,x0,0	  x0:0x00000000
       92015000	      9200	80002c68	00000013	addi	x0,x0,0	  x0:0x00000000
       92025000	      9201	80002c6c	fd5ff0ef	jal	x1,80002c6c	  x1=0x80002c6c
       92035000	      9202	00000000	00000013	addi	x0,x0,0	  x0:0x00000000
       92045000	      9203	80002c3c	00000013	addi	x0,x0,0	  x0:0x00000000
       92055000	      9204	80002c40	010000ef	jal	x1,80002c40	  x1=0x80002c40
       92065000	      9205	00000000	00000013	addi	x0,x0,0	  x0:0x00000000
       92075000	      9206	80002c4c	00000013	addi	x0,x0,0	  x0:0x00000000
       92085000	      9207	80002c50	024000ef	jal	x1,80002c50	  x1=0x80002c50
       92095000	      9208	00000000	00000013	addi	x0,x0,0	  x0:0x00000000
       92105000	      9209	80002c70	00000013	addi	x0,x0,0	  x0:0x00000000
       92115000	      9210	80002c74	00c0016f	jal	x2,80002c74	  x2=0x80002c74
       92125000	      9211	00000000	00000013	addi	x0,x0,0	  x0:0x00000000
       92135000	      9212	80002c7c	00000013	addi	x0,x0,0	  x0:0x00000000
       92145000	      9213	80002c80	9005af13	slti	x30,x11,-1792	 x11:0x80002af8 x30=0x00000001
       92155000	      9214	80002c84	03000c6f	jal	x24,80002c84	 x24=0x80002c84
       92165000	      9215	00000000	00000013	addi	x0,x0,0	  x0:0x00000000
       92175000	      9216	80002cb0	00000013	addi	x0,x0,0	  x0:0x00000000
       92185000	      9217	80002cb4	fe1ff36f	jal	x6,80002cb4	  x6=0x80002cb4
       92195000	      9218	00000000	00000013	addi	x0,x0,0	  x0:0x00000000
       92205000	      9219	80002c90	00000013	addi	x0,x0,0	  x0:0x00000000
       92215000	      9220	80002c94	024000ef	jal	x1,80002c94	  x1=0x80002c94
       92225000	      9221	00000000	00000013	addi	x0,x0,0	  x0:0x00000000
       92235000	      9222	80002cb4	00000013	addi	x0,x0,0	  x0:0x00000000
       92245000	      9223	80002cb8	ff9ff0ef	jal	x1,80002cb8	  x1=0x80002cb8
       92255000	      9224	00000000	00000013	addi	x0,x0,0	  x0:0x00000000
       92265000	      9225	80002cac	00000013	addi	x0,x0,0	  x0:0x00000000
       92275000	      9226	80002cb0	fd9ff3ef	jal	x7,80002cb0	  x7=0x80002cb0
       92285000	      9227	00000000	00000013	addi	x0,x0,0	  x0:0x00000000
       92295000	      9228	80002c84	00000013	addi	x0,x0,0	  x0:0x00000000
       92305000	      9229	80002c88	0240036f	jal	x6,80002c88	  x6=0x80002c88
       92315000	      9230	00000000	00000013	addi	x0,x0,0	  x0:0x00000000
       92325000	      9231	80002ca8	00000013	addi	x0,x0,0	  x0:0x00000000
       92335000	      9232	80002cac	0280036f	jal	x6,80002cac	  x6=0x80002cac
       92345000	      9233	00000000	00000013	addi	x0,x0,0	  x0:0x00000000
       92355000	      9234	80002cd0	00000013	addi	x0,x0,0	  x0:0x00000000
       92365000	      9235	80002cd4	fd5ff0ef	jal	x1,80002cd4	  x1=0x80002cd4
       92375000	      9236	00000000	00000013	addi	x0,x0,0	  x0:0x00000000
       92385000	      9237	80002ca4	00000013	addi	x0,x0,0	  x0:0x00000000
       92395000	      9238	80002ca8	030000ef	jal	x1,80002ca8	  x1=0x80002ca8
       92405000	      9239	00000000	00000013	addi	x0,x0,0	  x0:0x00000000
       92415000	      9240	80002cd4	00000013	addi	x0,x0,0	  x0:0x00000000
       92425000	      9241	80002cd8	fedff0ef	jal	x1,80002cd8	  x1=0x80002cd8
       92435000	      9242	00000000	00000013	addi	x0,x0,0	  x0:0x00000000
       92445000	      9243	80002cc0	00000013	addi	x0,x0,0	  x0:0x00000000
       92455000	      9244	80002cc4	004000ef	jal	x1,80002cc4	  x1=0x80002cc4
       92465000	      9245	00000000	00000013	addi	x0,x0,0	  x0:0x00000000
       92475000	      9246	80002cc4	00000013	addi	x0,x0,0	  x0:0x00000000
       92485000	      9247	80002cc8	fc9ff36f	jal	x6,80002cc8	  x6=0x80002cc8
       92495000	      9248	00000000	00000013	addi	x0,x0,0	  x0:0x00000000
       92505000	      9249	80002c8c	00000013	addi	x0,x0,0	  x0:0x00000000
       92515000	      9250	80002c90	03c000ef	jal	x1,80002c90	  x1=0x80002c90
       92525000	      9251	00000000	00000013	addi	x0,x0,0	  x0:0x00000000
       92535000	      9252	80002cc8	00000013	addi	x0,x0,0	  x0:0x00000000
       92545000	      9253	80002ccc	fd1ff36f	jal	x6,80002ccc	  x6=0x80002ccc
       92555000	      9254	00000000	00000013	addi	x0,x0,0	  x0:0x00000000
       92565000	      9255	80002c98	00000013	addi	x0,x0,0	  x0:0x00000000
       92575000	      9256	80002c9c	0040036f	jal	x6,80002c9c	  x6=0x80002c9c
       92585000	      9257	00000000	00000013	addi	x0,x0,0	  x0:0x00000000
       92595000	      9258	80002c9c	00000013	addi	x0,x0,0	  x0:0x00000000
       92605000	      9259	80002ca0	020000ef	jal	x1,80002ca0	  x1=0x80002ca0
       92615000	      9260	00000000	00000013	addi	x0,x0,0	  x0:0x00000000
       92625000	      9261	80002cbc	00000013	addi	x0,x0,0	  x0:0x00000000
       92635000	      9262	80002cc0	fd9ff36f	jal	x6,80002cc0	  x6=0x80002cc0
       92645000	      9263	00000000	00000013	addi	x0,x0,0	  x0:0x00000000
       92655000	      9264	80002c94	00000013	addi	x0,x0,0	  x0:0x00000000
       92665000	      9265	80002c98	0380036f	jal	x6,80002c98	  x6=0x80002c98
       92675000	      9266	00000000	00000013	addi	x0,x0,0	  x0:0x00000000
       92685000	      9267	80002ccc	00000013	addi	x0,x0,0	  x0:0x00000000
       92695000	      9268	80002cd0	fedff36f	jal	x6,80002cd0	  x6=0x80002cd0
       92705000	      9269	00000000	00000013	addi	x0,x0,0	  x0:0x00000000
       92715000	      9270	80002cb8	00000013	addi	x0,x0,0	  x0:0x00000000
       92725000	      9271	80002cbc	fe9ff36f	jal	x6,80002cbc	  x6=0x80002cbc
       92735000	      9272	00000000	00000013	addi	x0,x0,0	  x0:0x00000000
       92745000	      9273	80002ca0	00000013	addi	x0,x0,0	  x0:0x00000000
       92755000	      9274	80002ca4	fe9ff1ef	jal	x3,80002ca4	  x3=0x80002ca4
       92765000	      9275	00000000	00000013	addi	x0,x0,0	  x0:0x00000000
       92775000	      9276	80002c88	00000013	addi	x0,x0,0	  x0:0x00000000
       92785000	      9277	80002c8c	0500036f	jal	x6,80002c8c	  x6=0x80002c8c
       92795000	      9278	00000000	00000013	addi	x0,x0,0	  x0:0x00000000
       92805000	      9279	80002cd8	00000013	addi	x0,x0,0	  x0:0x00000000
       92815000	      9280	80002cdc	00eb43b3	xor	x7,x22,x14	 x22:0x80002b14 x14:0x80002bd4  x7=0x000000c0
       92825000	      9281	80002ce0	03c00c6f	jal	x24,80002ce0	 x24=0x80002ce0
       92835000	      9282	00000000	00000013	addi	x0,x0,0	  x0:0x00000000
       92845000	      9283	80002d18	00000013	addi	x0,x0,0	  x0:0x00000000
       92855000	      9284	80002d1c	fe5ff0ef	jal	x1,80002d1c	  x1=0x80002d1c
       92865000	      9285	00000000	00000013	addi	x0,x0,0	  x0:0x00000000
       92875000	      9286	80002cfc	00000013	addi	x0,x0,0	  x0:0x00000000
       92885000	      9287	80002d00	fedff0ef	jal	x1,80002d00	  x1=0x80002d00
       92895000	      9288	00000000	00000013	addi	x0,x0,0	  x0:0x00000000
       92905000	      9289	80002ce8	00000013	addi	x0,x0,0	  x0:0x00000000
       92915000	      9290	80002cec	05400b6f	jal	x22,80002cec	 x22=0x80002cec
       92925000	      9291	00000000	00000013	addi	x0,x0,0	  x0:0x00000000
       92935000	      9292	80002d3c	00000013	addi	x0,x0,0	  x0:0x00000000
       92945000	      9293	80002d40	fb5ff0ef	jal	x1,80002d40	  x1=0x80002d40
       92955000	      9294	00000000	00000013	addi	x0,x0,0	  x0:0x00000000
       92965000	      9295	80002cf0	00000013	addi	x0,x0,0	  x0:0x00000000
       92975000	      9296	80002cf4	0380036f	jal	x6,80002cf4	  x6=0x80002cf4
       92985000	      9297	00000000	00000013	addi	x0,x0,0	  x0:0x00000000
       92995000	      9298	80002d28	00000013	addi	x0,x0,0	  x0:0x00000000
       93005000	      9299	80002d2c	0040036f	jal	x6,80002d2c	  x6=0x80002d2c
       93015000	      9300	00000000	00000013	addi	x0,x0,0	  x0:0x00000000
       93025000	      9301	80002d2c	00000013	addi	x0,x0,0	  x0:0x00000000
       93035000	      9302	80002d30	fddff0ef	jal	x1,80002d30	  x1=0x80002d30
       93045000	      9303	00000000	00000013	addi	x0,x0,0	  x0:0x00000000
       93055000	      9304	80002d08	00000013	addi	x0,x0,0	  x0:0x00000000
       93065000	      9305	80002d0c	fedff16f	jal	x2,80002d0c	  x2=0x80002d0c
       93075000	      9306	00000000	00000013	addi	x0,x0,0	  x0:0x00000000
       93085000	      9307	80002cf4	00000013	addi	x0,x0,0	  x0:0x00000000
       93095000	      9308	80002cf8	004001ef	jal	x3,80002cf8	  x3=0x80002cf8
       93105000	      9309	00000000	00000013	addi	x0,x0,0	  x0:0x00000000
       93115000	      9310	80002cf8	00000013	addi	x0,x0,0	  x0:0x00000000
       93125000	      9311	80002cfc	040000ef	jal	x1,80002cfc	  x1=0x80002cfc
       93135000	      9312	00000000	00000013	addi	x0,x0,0	  x0:0x00000000
       93145000	      9313	80002d38	00000013	addi	x0,x0,0	  x0:0x00000000
       93155000	      9314	80002d3c	fd5ff36f	jal	x6,80002d3c	  x6=0x80002d3c
       93165000	      9315	00000000	00000013	addi	x0,x0,0	  x0:0x00000000
       93175000	      9316	80002d0c	00000013	addi	x0,x0,0	  x0:0x00000000
       93185000	      9317	80002d10	028000ef	jal	x1,80002d10	  x1=0x80002d10
       93195000	      9318	00000000	00000013	addi	x0,x0,0	  x0:0x00000000
       93205000	      9319	80002d34	00000013	addi	x0,x0,0	  x0:0x00000000
       93215000	      9320	80002d38	fddff36f	jal	x6,80002d38	  x6=0x80002d38
       93225000	      9321	00000000	00000013	addi	x0,x0,0	  x0:0x00000000
       93235000	      9322	80002d10	00000013	addi	x0,x0,0	  x0:0x00000000
       93245000	      9323	80002d14	fd1ff0ef	jal	x1,80002d14	  x1=0x80002d14
       93255000	      9324	00000000	00000013	addi	x0,x0,0	  x0:0x00000000
       93265000	      9325	80002ce0	00000013	addi	x0,x0,0	  x0:0x00000000
       93275000	      9326	80002ce4	044000ef	jal	x1,80002ce4	  x1=0x80002ce4
       93285000	      9327	00000000	00000013	addi	x0,x0,0	  x0:0x00000000
       93295000	      9328	80002d24	00000013	addi	x0,x0,0	  x0:0x00000000
       93305000	      9329	80002d28	fc9ff36f	jal	x6,80002d28	  x6=0x80002d28
       93315000	      9330	00000000	00000013	addi	x0,x0,0	  x0:0x00000000
       93325000	      9331	80002cec	00000013	addi	x0,x0,0	  x0:0x00000000
       93335000	      9332	80002cf0	0300036f	jal	x6,80002cf0	  x6=0x80002cf0
       93345000	      9333	00000000	00000013	addi	x0,x0,0	  x0:0x00000000
       93355000	      9334	80002d1c	00000013	addi	x0,x0,0	  x0:0x00000000
       93365000	      9335	80002d20	fc9ff0ef	jal	x1,80002d20	  x1=0x80002d20
       93375000	      9336	00000000	00000013	addi	x0,x0,0	  x0:0x00000000
       93385000	      9337	80002ce4	00000013	addi	x0,x0,0	  x0:0x00000000
       93395000	      9338	80002ce8	020008ef	jal	x17,80002ce8	 x17=0x80002ce8
       93405000	      9339	00000000	00000013	addi	x0,x0,0	  x0:0x00000000
       93415000	      9340	80002d04	00000013	addi	x0,x0,0	  x0:0x00000000
       93425000	      9341	80002d08	01c0066f	jal	x12,80002d08	 x12=0x80002d08
       93435000	      9342	00000000	00000013	addi	x0,x0,0	  x0:0x00000000
       93445000	      9343	80002d20	00000013	addi	x0,x0,0	  x0:0x00000000
       93455000	      9344	80002d24	010007ef	jal	x15,80002d24	 x15=0x80002d24
       93465000	      9345	00000000	00000013	addi	x0,x0,0	  x0:0x00000000
       93475000	      9346	80002d30	00000013	addi	x0,x0,0	  x0:0x00000000
       93485000	      9347	80002d34	fd1ff0ef	jal	x1,80002d34	  x1=0x80002d34
       93495000	      9348	00000000	00000013	addi	x0,x0,0	  x0:0x00000000
       93505000	      9349	80002d00	00000013	addi	x0,x0,0	  x0:0x00000000
       93515000	      9350	80002d04	0140016f	jal	x2,80002d04	  x2=0x80002d04
       93525000	      9351	00000000	00000013	addi	x0,x0,0	  x0:0x00000000
       93535000	      9352	80002d14	00000013	addi	x0,x0,0	  x0:0x00000000
       93545000	      9353	80002d18	02c000ef	jal	x1,80002d18	  x1=0x80002d18
       93555000	      9354	00000000	00000013	addi	x0,x0,0	  x0:0x00000000
       93565000	      9355	80002d40	00000013	addi	x0,x0,0	  x0:0x00000000
       93575000	      9356	80002d44	60e9e093	ori	x1,x19,1550	 x19:0x00000484  x1=0x0000068e
       93585000	      9357	80002d48	04400c6f	jal	x24,80002d48	 x24=0x80002d48
       93595000	      9358	00000000	00000013	addi	x0,x0,0	  x0:0x00000000
       93605000	      9359	80002d88	00000013	addi	x0,x0,0	  x0:0x00000000
       93615000	      9360	80002d8c	01c000ef	jal	x1,80002d8c	  x1=0x80002d8c
       93625000	      9361	00000000	00000013	addi	x0,x0,0	  x0:0x00000000
       93635000	      9362	80002da4	00000013	addi	x0,x0,0	  x0:0x00000000
       93645000	      9363	80002da8	ff5ff8ef	jal	x17,80002da8	 x17=0x80002da8
       93655000	      9364	00000000	00000013	addi	x0,x0,0	  x0:0x00000000
       93665000	      9365	80002d98	00000013	addi	x0,x0,0	  x0:0x00000000
       93675000	      9366	80002d9c	fb9ff36f	jal	x6,80002d9c	  x6=0x80002d9c
       93685000	      9367	00000000	00000013	addi	x0,x0,0	  x0:0x00000000
       93695000	      9368	80002d50	00000013	addi	x0,x0,0	  x0:0x00000000
       93705000	      9369	80002d54	020000ef	jal	x1,80002d54	  x1=0x80002d54
       93715000	      9370	00000000	00000013	addi	x0,x0,0	  x0:0x00000000
       93725000	      9371	80002d70	00000013	addi	x0,x0,0	  x0:0x00000000
       93735000	      9372	80002d74	fddff0ef	jal	x1,80002d74	  x1=0x80002d74
       93745000	      9373	00000000	00000013	addi	x0,x0,0	  x0:0x00000000
       93755000	      9374	80002d4c	00000013	addi	x0,x0,0	  x0:0x00000000
       93765000	      9375	80002d50	0280036f	jal	x6,80002d50	  x6=0x80002d50
       93775000	      9376	00000000	00000013	addi	x0,x0,0	  x0:0x00000000
       93785000	      9377	80002d74	00000013	addi	x0,x0,0	  x0:0x00000000
       93795000	      9378	80002d78	0080036f	jal	x6,80002d78	  x6=0x80002d78
       93805000	      9379	00000000	00000013	addi	x0,x0,0	  x0:0x00000000
       93815000	      9380	80002d7c	00000013	addi	x0,x0,0	  x0:0x00000000
       93825000	      9381	80002d80	00400cef	jal	x25,80002d80	 x25=0x80002d80
       93835000	      9382	00000000	00000013	addi	x0,x0,0	  x0:0x00000000
       93845000	      9383	80002d80	00000013	addi	x0,x0,0	  x0:0x00000000
       93855000	      9384	80002d84	fddff0ef	jal	x1,80002d84	  x1=0x80002d84
       93865000	      9385	00000000	00000013	addi	x0,x0,0	  x0:0x00000000
       93875000	      9386	80002d5c	00000013	addi	x0,x0,0	  x0:0x00000000
       93885000	      9387	80002d60	00800d6f	jal	x26,80002d60	 x26=0x80002d60
       93895000	      9388	00000000	00000013	addi	x0,x0,0	  x0:0x00000000
       93905000	      9389	80002d64	00000013	addi	x0,x0,0	  x0:0x00000000
       93915000	      9390	80002d68	0080036f	jal	x6,80002d68	  x6=0x80002d68
       93925000	      9391	00000000	00000013	addi	x0,x0,0	  x0:0x00000000
       93935000	      9392	80002d6c	00000013	addi	x0,x0,0	  x0:0x00000000
       93945000	      9393	80002d70	fe9ff66f	jal	x12,80002d70	 x12=0x80002d70
       93955000	      9394	00000000	00000013	addi	x0,x0,0	  x0:0x00000000
       93965000	      9395	80002d54	00000013	addi	x0,x0,0	  x0:0x00000000
       93975000	      9396	80002d58	030000ef	jal	x1,80002d58	  x1=0x80002d58
       93985000	      9397	00000000	00000013	addi	x0,x0,0	  x0:0x00000000
       93995000	      9398	80002d84	00000013	addi	x0,x0,0	  x0:0x00000000
       94005000	      9399	80002d88	fe5fff6f	jal	x30,80002d88	 x30=0x80002d88
       94015000	      9400	00000000	00000013	addi	x0,x0,0	  x0:0x00000000
       94025000	      9401	80002d68	00000013	addi	x0,x0,0	  x0:0x00000000
       94035000	      9402	80002d6c	02c000ef	jal	x1,80002d6c	  x1=0x80002d6c
       94045000	      9403	00000000	00000013	addi	x0,x0,0	  x0:0x00000000
       94055000	      9404	80002d94	00000013	addi	x0,x0,0	  x0:0x00000000
       94065000	      9405	80002d98	fe5ff0ef	jal	x1,80002d98	  x1=0x80002d98
       94075000	      9406	00000000	00000013	addi	x0,x0,0	  x0:0x00000000
       94085000	      9407	80002d78	00000013	addi	x0,x0,0	  x0:0x00000000
       94095000	      9408	80002d7c	018000ef	jal	x1,80002d7c	  x1=0x80002d7c
       94105000	      9409	00000000	00000013	addi	x0,x0,0	  x0:0x00000000
       94115000	      9410	80002d90	00000013	addi	x0,x0,0	  x0:0x00000000
       94125000	      9411	80002d94	00c000ef	jal	x1,80002d94	  x1=0x80002d94
       94135000	      9412	00000000	00000013	addi	x0,x0,0	  x0:0x00000000
       94145000	      9413	80002d9c	00000013	addi	x0,x0,0	  x0:0x00000000
       94155000	      9414	80002da0	ff1ffdef	jal	x27,80002da0	 x27=0x80002da0
       94165000	      9415	00000000	00000013	addi	x0,x0,0	  x0:0x00000000
       94175000	      9416	80002d8c	00000013	addi	x0,x0,0	  x0:0x00000000
       94185000	      9417	80002d90	014000ef	jal	x1,80002d90	  x1=0x80002d90
       94195000	      9418	00000000	00000013	addi	x0,x0,0	  x0:0x00000000
       94205000	      9419	80002da0	00000013	addi	x0,x0,0	  x0:0x00000000
       94215000	      9420	80002da4	fb9ff7ef	jal	x15,80002da4	 x15=0x80002da4
       94225000	      9421	00000000	00000013	addi	x0,x0,0	  x0:0x00000000
       94235000	      9422	80002d58	00000013	addi	x0,x0,0	  x0:0x00000000
       94245000	      9423	80002d5c	0080036f	jal	x6,80002d5c	  x6=0x80002d5c
       94255000	      9424	00000000	00000013	addi	x0,x0,0	  x0:0x00000000
       94265000	      9425	80002d60	00000013	addi	x0,x0,0	  x0:0x00000000
       94275000	      9426	80002d64	fe9ff0ef	jal	x1,80002d64	  x1=0x80002d64
       94285000	      9427	00000000	00000013	addi	x0,x0,0	  x0:0x00000000
       94295000	      9428	80002d48	00000013	addi	x0,x0,0	  x0:0x00000000
       94305000	      9429	80002d4c	060002ef	jal	x5,80002d4c	  x5=0x80002d4c
       94315000	      9430	00000000	00000013	addi	x0,x0,0	  x0:0x00000000
       94325000	      9431	80002da8	00000013	addi	x0,x0,0	  x0:0x00000000
       94335000	      9432	80002dac	e8fc0e93	addi	x29,x24,-369	 x24:0x80002d48 x29=0x80002bd7
       94345000	      9433	80002db0	03800c6f	jal	x24,80002db0	 x24=0x80002db0
       94355000	      9434	00000000	00000013	addi	x0,x0,0	  x0:0x00000000
       94365000	      9435	80002de4	00000013	addi	x0,x0,0	  x0:0x00000000
       94375000	      9436	80002de8	020000ef	jal	x1,80002de8	  x1=0x80002de8
       94385000	      9437	00000000	00000013	addi	x0,x0,0	  x0:0x00000000
       94395000	      9438	80002e04	00000013	addi	x0,x0,0	  x0:0x00000000
       94405000	      9439	80002e08	fbdff0ef	jal	x1,80002e08	  x1=0x80002e08
       94415000	      9440	00000000	00000013	addi	x0,x0,0	  x0:0x00000000
       94425000	      9441	80002dc0	00000013	addi	x0,x0,0	  x0:0x00000000
       94435000	      9442	80002dc4	0380076f	jal	x14,80002dc4	 x14=0x80002dc4
       94445000	      9443	00000000	00000013	addi	x0,x0,0	  x0:0x00000000
       94455000	      9444	80002df8	00000013	addi	x0,x0,0	  x0:0x00000000
       94465000	      9445	80002dfc	ff5ff16f	jal	x2,80002dfc	  x2=0x80002dfc
       94475000	      9446	00000000	00000013	addi	x0,x0,0	  x0:0x00000000
       94485000	      9447	80002dec	00000013	addi	x0,x0,0	  x0:0x00000000
       94495000	      9448	80002df0	ffdff6ef	jal	x13,80002df0	 x13=0x80002df0
       94505000	      9449	00000000	00000013	addi	x0,x0,0	  x0:0x00000000
       94515000	      9450	80002de8	00000013	addi	x0,x0,0	  x0:0x00000000
       94525000	      9451	80002dec	0080036f	jal	x6,80002dec	  x6=0x80002dec
       94535000	      9452	00000000	00000013	addi	x0,x0,0	  x0:0x00000000
       94545000	      9453	80002df0	00000013	addi	x0,x0,0	  x0:0x00000000
       94555000	      9454	80002df4	fddff36f	jal	x6,80002df4	  x6=0x80002df4
       94565000	      9455	00000000	00000013	addi	x0,x0,0	  x0:0x00000000
       94575000	      9456	80002dcc	00000013	addi	x0,x0,0	  x0:0x00000000
       94585000	      9457	80002dd0	010000ef	jal	x1,80002dd0	  x1=0x80002dd0
       94595000	      9458	00000000	00000013	addi	x0,x0,0	  x0:0x00000000
       94605000	      9459	80002ddc	00000013	addi	x0,x0,0	  x0:0x00000000
       94615000	      9460	80002de0	004000ef	jal	x1,80002de0	  x1=0x80002de0
       94625000	      9461	00000000	00000013	addi	x0,x0,0	  x0:0x00000000
       94635000	      9462	80002de0	00000013	addi	x0,x0,0	  x0:0x00000000
       94645000	      9463	80002de4	fd1ff36f	jal	x6,80002de4	  x6=0x80002de4
       94655000	      9464	00000000	00000013	addi	x0,x0,0	  x0:0x00000000
       94665000	      9465	80002db0	00000013	addi	x0,x0,0	  x0:0x00000000
       94675000	      9466	80002db4	044000ef	jal	x1,80002db4	  x1=0x80002db4
       94685000	      9467	00000000	00000013	addi	x0,x0,0	  x0:0x00000000
       94695000	      9468	80002df4	00000013	addi	x0,x0,0	  x0:0x00000000
       94705000	      9469	80002df8	fc1ff16f	jal	x2,80002df8	  x2=0x80002df8
       94715000	      9470	00000000	00000013	addi	x0,x0,0	  x0:0x00000000
       94725000	      9471	80002db4	00000013	addi	x0,x0,0	  x0:0x00000000
       94735000	      9472	80002db8	04c000ef	jal	x1,80002db8	  x1=0x80002db8
       94745000	      9473	00000000	00000013	addi	x0,x0,0	  x0:0x00000000
       94755000	      9474	80002e00	00000013	addi	x0,x0,0	  x0:0x00000000
       94765000	      9475	80002e04	fd9ff36f	jal	x6,80002e04	  x6=0x80002e04
       94775000	      9476	00000000	00000013	addi	x0,x0,0	  x0:0x00000000
       94785000	      9477	80002dd8	00000013	addi	x0,x0,0	  x0:0x00000000
       94795000	      9478	80002ddc	ff1ffcef	jal	x25,80002ddc	 x25=0x80002ddc
       94805000	      9479	00000000	00000013	addi	x0,x0,0	  x0:0x00000000
       94815000	      9480	80002dc8	00000013	addi	x0,x0,0	  x0:0x00000000
       94825000	      9481	80002dcc	0080036f	jal	x6,80002dcc	  x6=0x80002dcc
       94835000	      9482	00000000	00000013	addi	x0,x0,0	  x0:0x00000000
       94845000	      9483	80002dd0	00000013	addi	x0,x0,0	  x0:0x00000000
       94855000	      9484	80002dd4	ff5ff0ef	jal	x1,80002dd4	  x1=0x80002dd4
       94865000	      9485	00000000	00000013	addi	x0,x0,0	  x0:0x00000000
       94875000	      9486	80002dc4	00000013	addi	x0,x0,0	  x0:0x00000000
       94885000	      9487	80002dc8	ff5ff36f	jal	x6,80002dc8	  x6=0x80002dc8
       94895000	      9488	00000000	00000013	addi	x0,x0,0	  x0:0x00000000
       94905000	      9489	80002db8	00000013	addi	x0,x0,0	  x0:0x00000000
       94915000	      9490	80002dbc	01c0036f	jal	x6,80002dbc	  x6=0x80002dbc
       94925000	      9491	00000000	00000013	addi	x0,x0,0	  x0:0x00000000
       94935000	      9492	80002dd4	00000013	addi	x0,x0,0	  x0:0x00000000
       94945000	      9493	80002dd8	028000ef	jal	x1,80002dd8	  x1=0x80002dd8
       94955000	      9494	00000000	00000013	addi	x0,x0,0	  x0:0x00000000
       94965000	      9495	80002dfc	00000013	addi	x0,x0,0	  x0:0x00000000
       94975000	      9496	80002e00	fc1ff56f	jal	x10,80002e00	 x10=0x80002e00
       94985000	      9497	00000000	00000013	addi	x0,x0,0	  x0:0x00000000
       94995000	      9498	80002dbc	00000013	addi	x0,x0,0	  x0:0x00000000
       95005000	      9499	80002dc0	04c000ef	jal	x1,80002dc0	  x1=0x80002dc0
       95015000	      9500	00000000	00000013	addi	x0,x0,0	  x0:0x00000000
       95025000	      9501	80002e08	00000013	addi	x0,x0,0	  x0:0x00000000
       95035000	      9502	80002e0c	00b95ab3	srl	x21,x18,x11	 x18:0x80002af0 x11:0x80002af8 x21=0x00000080
       95045000	      9503	80002e10	03c00c6f	jal	x24,80002e10	 x24=0x80002e10
       95055000	      9504	00000000	00000013	addi	x0,x0,0	  x0:0x00000000
       95065000	      9505	80002e48	00000013	addi	x0,x0,0	  x0:0x00000000
       95075000	      9506	80002e4c	fddff1ef	jal	x3,80002e4c	  x3=0x80002e4c
       95085000	      9507	00000000	00000013	addi	x0,x0,0	  x0:0x00000000
       95095000	      9508	80002e24	00000013	addi	x0,x0,0	  x0:0x00000000
       95105000	      9509	80002e28	03c0066f	jal	x12,80002e28	 x12=0x80002e28
       95115000	      9510	00000000	00000013	addi	x0,x0,0	  x0:0x00000000
       95125000	      9511	80002e60	00000013	addi	x0,x0,0	  x0:0x00000000
       95135000	      9512	80002e64	fd9ff8ef	jal	x17,80002e64	 x17=0x80002e64
       95145000	      9513	00000000	00000013	addi	x0,x0,0	  x0:0x00000000
       95155000	      9514	80002e38	00000013	addi	x0,x0,0	  x0:0x00000000
       95165000	      9515	80002e3c	fddff0ef	jal	x1,80002e3c	  x1=0x80002e3c
       95175000	      9516	00000000	00000013	addi	x0,x0,0	  x0:0x00000000
       95185000	      9517	80002e14	00000013	addi	x0,x0,0	  x0:0x00000000
       95195000	      9518	80002e18	044000ef	jal	x1,80002e18	  x1=0x80002e18
       95205000	      9519	00000000	00000013	addi	x0,x0,0	  x0:0x00000000
       95215000	      9520	80002e58	00000013	addi	x0,x0,0	  x0:0x00000000
       95225000	      9521	80002e5c	fb9ff0ef	jal	x1,80002e5c	  x1=0x80002e5c
       95235000	      9522	00000000	00000013	addi	x0,x0,0	  x0:0x00000000
       95245000	      9523	80002e10	00000013	addi	x0,x0,0	  x0:0x00000000
       95255000	      9524	80002e14	02c00c6f	jal	x24,80002e14	 x24=0x80002e14
       95265000	      9525	00000000	00000013	addi	x0,x0,0	  x0:0x00000000
       95275000	      9526	80002e3c	00000013	addi	x0,x0,0	  x0:0x00000000
       95285000	      9527	80002e40	014000ef	jal	x1,80002e40	  x1=0x80002e40
       95295000	      9528	00000000	00000013	addi	x0,x0,0	  x0:0x00000000
       95305000	      9529	80002e50	00000013	addi	x0,x0,0	  x0:0x00000000
       95315000	      9530	80002e54	00c000ef	jal	x1,80002e54	  x1=0x80002e54
       95325000	      9531	00000000	00000013	addi	x0,x0,0	  x0:0x00000000
       95335000	      9532	80002e5c	00000013	addi	x0,x0,0	  x0:0x00000000
       95345000	      9533	80002e60	fd1ff0ef	jal	x1,80002e60	  x1=0x80002e60
       95355000	      9534	00000000	00000013	addi	x0,x0,0	  x0:0x00000000
       95365000	      9535	80002e2c	00000013	addi	x0,x0,0	  x0:0x00000000
       95375000	      9536	80002e30	fedff0ef	jal	x1,80002e30	  x1=0x80002e30
       95385000	      9537	00000000	00000013	addi	x0,x0,0	  x0:0x00000000
       95395000	      9538	80002e18	00000013	addi	x0,x0,0	  x0:0x00000000
       95405000	      9539	80002e1c	0080036f	jal	x6,80002e1c	  x6=0x80002e1c
       95415000	      9540	00000000	00000013	addi	x0,x0,0	  x0:0x00000000
       95425000	      9541	80002e20	00000013	addi	x0,x0,0	  x0:0x00000000
       95435000	      9542	80002e24	008000ef	jal	x1,80002e24	  x1=0x80002e24
       95445000	      9543	00000000	00000013	addi	x0,x0,0	  x0:0x00000000
       95455000	      9544	80002e28	00000013	addi	x0,x0,0	  x0:0x00000000
       95465000	      9545	80002e2c	02c000ef	jal	x1,80002e2c	  x1=0x80002e2c
       95475000	      9546	00000000	00000013	addi	x0,x0,0	  x0:0x00000000
       95485000	      9547	80002e54	00000013	addi	x0,x0,0	  x0:0x00000000
       95495000	      9548	80002e58	ff1ff0ef	jal	x1,80002e58	  x1=0x80002e58
       95505000	      9549	00000000	00000013	addi	x0,x0,0	  x0:0x00000000
       95515000	      9550	80002e44	00000013	addi	x0,x0,0	  x0:0x00000000
       95525000	      9551	80002e48	008002ef	jal	x5,80002e48	  x5=0x80002e48
       95535000	      9552	00000000	00000013	addi	x0,x0,0	  x0:0x00000000
       95545000	      9553	80002e4c	00000013	addi	x0,x0,0	  x0:0x00000000
       95555000	      9554	80002e50	fd1ff36f	jal	x6,80002e50	  x6=0x80002e50
       95565000	      9555	00000000	00000013	addi	x0,x0,0	  x0:0x00000000
       95575000	      9556	80002e1c	00000013	addi	x0,x0,0	  x0:0x00000000
       95585000	      9557	80002e20	018000ef	jal	x1,80002e20	  x1=0x80002e20
       95595000	      9558	00000000	00000013	addi	x0,x0,0	  x0:0x00000000
       95605000	      9559	80002e34	00000013	addi	x0,x0,0	  x0:0x00000000
       95615000	      9560	80002e38	0300036f	jal	x6,80002e38	  x6=0x80002e38
       95625000	      9561	00000000	00000013	addi	x0,x0,0	  x0:0x00000000
       95635000	      9562	80002e64	00000013	addi	x0,x0,0	  x0:0x00000000
       95645000	      9563	80002e68	fcdff0ef	jal	x1,80002e68	  x1=0x80002e68
       95655000	      9564	00000000	00000013	addi	x0,x0,0	  x0:0x00000000
       95665000	      9565	80002e30	00000013	addi	x0,x0,0	  x0:0x00000000
       95675000	      9566	80002e34	010000ef	jal	x1,80002e34	  x1=0x80002e34
       95685000	      9567	00000000	00000013	addi	x0,x0,0	  x0:0x00000000
       95695000	      9568	80002e40	00000013	addi	x0,x0,0	  x0:0x00000000
       95705000	      9569	80002e44	028000ef	jal	x1,80002e44	  x1=0x80002e44
       95715000	      9570	00000000	00000013	addi	x0,x0,0	  x0:0x00000000
       95725000	      9571	80002e68	00000013	addi	x0,x0,0	  x0:0x00000000
       95735000	      9572	80002e6c	35177d93	andi	x27,x14,849	 x14:0x80002dc4 x27=0x00000140
       95745000	      9573	80002e70	04000c6f	jal	x24,80002e70	 x24=0x80002e70
       95755000	      9574	00000000	00000013	addi	x0,x0,0	  x0:0x00000000
       95765000	      9575	80002eac	00000013	addi	x0,x0,0	  x0:0x00000000
       95775000	      9576	80002eb0	fd5ff36f	jal	x6,80002eb0	  x6=0x80002eb0
       95785000	      9577	00000000	00000013	addi	x0,x0,0	  x0:0x00000000
       95795000	      9578	80002e80	00000013	addi	x0,x0,0	  x0:0x00000000
       95805000	      9579	80002e84	020000ef	jal	x1,80002e84	  x1=0x80002e84
       95815000	      9580	00000000	00000013	addi	x0,x0,0	  x0:0x00000000
       95825000	      9581	80002ea0	00000013	addi	x0,x0,0	  x0:0x00000000
       95835000	      9582	80002ea4	01c0036f	jal	x6,80002ea4	  x6=0x80002ea4
       95845000	      9583	00000000	00000013	addi	x0,x0,0	  x0:0x00000000
       95855000	      9584	80002ebc	00000013	addi	x0,x0,0	  x0:0x00000000
       95865000	      9585	80002ec0	fd5ff0ef	jal	x1,80002ec0	  x1=0x80002ec0
       95875000	      9586	00000000	00000013	addi	x0,x0,0	  x0:0x00000000
       95885000	      9587	80002e90	00000013	addi	x0,x0,0	  x0:0x00000000
       95895000	      9588	80002e94	ff5ff0ef	jal	x1,80002e94	  x1=0x80002e94
       95905000	      9589	00000000	00000013	addi	x0,x0,0	  x0:0x00000000
       95915000	      9590	80002e84	00000013	addi	x0,x0,0	  x0:0x00000000
       95925000	      9591	80002e88	008000ef	jal	x1,80002e88	  x1=0x80002e88
       95935000	      9592	00000000	00000013	addi	x0,x0,0	  x0:0x00000000
       95945000	      9593	80002e8c	00000013	addi	x0,x0,0	  x0:0x00000000
       95955000	      9594	80002e90	fe5ff0ef	jal	x1,80002e90	  x1=0x80002e90
       95965000	      9595	00000000	00000013	addi	x0,x0,0	  x0:0x00000000
       95975000	      9596	80002e70	00000013	addi	x0,x0,0	  x0:0x00000000
       95985000	      9597	80002e74	024000ef	jal	x1,80002e74	  x1=0x80002e74
       95995000	      9598	00000000	00000013	addi	x0,x0,0	  x0:0x00000000
       96005000	      9599	80002e94	00000013	addi	x0,x0,0	  x0:0x00000000
       96015000	      9600	80002e98	fe5ff0ef	jal	x1,80002e98	  x1=0x80002e98
       96025000	      9601	00000000	00000013	addi	x0,x0,0	  x0:0x00000000
       96035000	      9602	80002e78	00000013	addi	x0,x0,0	  x0:0x00000000
       96045000	      9603	80002e7c	04c000ef	jal	x1,80002e7c	  x1=0x80002e7c
       96055000	      9604	00000000	00000013	addi	x0,x0,0	  x0:0x00000000
       96065000	      9605	80002ec4	00000013	addi	x0,x0,0	  x0:0x00000000
       96075000	      9606	80002ec8	00c000ef	jal	x1,80002ec8	  x1=0x80002ec8
       96085000	      9607	00000000	00000013	addi	x0,x0,0	  x0:0x00000000
       96095000	      9608	80002ed0	00000013	addi	x0,x0,0	  x0:0x00000000
       96105000	      9609	80002ed4	fe5ff36f	jal	x6,80002ed4	  x6=0x80002ed4
       96115000	      9610	00000000	00000013	addi	x0,x0,0	  x0:0x00000000
       96125000	      9611	80002eb4	00000013	addi	x0,x0,0	  x0:0x00000000
       96135000	      9612	80002eb8	fe5ff0ef	jal	x1,80002eb8	  x1=0x80002eb8
       96145000	      9613	00000000	00000013	addi	x0,x0,0	  x0:0x00000000
       96155000	      9614	80002e98	00000013	addi	x0,x0,0	  x0:0x00000000
       96165000	      9615	80002e9c	030002ef	jal	x5,80002e9c	  x5=0x80002e9c
       96175000	      9616	00000000	00000013	addi	x0,x0,0	  x0:0x00000000
       96185000	      9617	80002ec8	00000013	addi	x0,x0,0	  x0:0x00000000
       96195000	      9618	80002ecc	fb5ff36f	jal	x6,80002ecc	  x6=0x80002ecc
       96205000	      9619	00000000	00000013	addi	x0,x0,0	  x0:0x00000000
       96215000	      9620	80002e7c	00000013	addi	x0,x0,0	  x0:0x00000000
       96225000	      9621	80002e80	020000ef	jal	x1,80002e80	  x1=0x80002e80
       96235000	      9622	00000000	00000013	addi	x0,x0,0	  x0:0x00000000
       96245000	      9623	80002e9c	00000013	addi	x0,x0,0	  x0:0x00000000
       96255000	      9624	80002ea0	024000ef	jal	x1,80002ea0	  x1=0x80002ea0
       96265000	      9625	00000000	00000013	addi	x0,x0,0	  x0:0x00000000
       96275000	      9626	80002ec0	00000013	addi	x0,x0,0	  x0:0x00000000
       96285000	      9627	80002ec4	ff1ff0ef	jal	x1,80002ec4	  x1=0x80002ec4
       96295000	      9628	00000000	00000013	addi	x0,x0,0	  x0:0x00000000
       96305000	      9629	80002eb0	00000013	addi	x0,x0,0	  x0:0x00000000
       96315000	      9630	80002eb4	fc5ff0ef	jal	x1,80002eb4	  x1=0x80002eb4
       96325000	      9631	00000000	00000013	addi	x0,x0,0	  x0:0x00000000
       96335000	      9632	80002e74	00000013	addi	x0,x0,0	  x0:0x00000000
       96345000	      9633	80002e78	044000ef	jal	x1,80002e78	  x1=0x80002e78
       96355000	      9634	00000000	00000013	addi	x0,x0,0	  x0:0x00000000
       96365000	      9635	80002eb8	00000013	addi	x0,x0,0	  x0:0x00000000
       96375000	      9636	80002ebc	0140036f	jal	x6,80002ebc	  x6=0x80002ebc
       96385000	      9637	00000000	00000013	addi	x0,x0,0	  x0:0x00000000
       96395000	      9638	80002ecc	00000013	addi	x0,x0,0	  x0:0x00000000
       96405000	      9639	80002ed0	fddff0ef	jal	x1,80002ed0	  x1=0x80002ed0
       96415000	      9640	00000000	00000013	addi	x0,x0,0	  x0:0x00000000
       96425000	      9641	80002ea8	00000013	addi	x0,x0,0	  x0:0x00000000
       96435000	      9642	80002eac	ffdff0ef	jal	x1,80002eac	  x1=0x80002eac
       96445000	      9643	00000000	00000013	addi	x0,x0,0	  x0:0x00000000
       96455000	      9644	80002ea4	00000013	addi	x0,x0,0	  x0:0x00000000
       96465000	      9645	80002ea8	fe5ff36f	jal	x6,80002ea8	  x6=0x80002ea8
       96475000	      9646	00000000	00000013	addi	x0,x0,0	  x0:0x00000000
       96485000	      9647	80002e88	00000013	addi	x0,x0,0	  x0:0x00000000
       96495000	      9648	80002e8c	04c000ef	jal	x1,80002e8c	  x1=0x80002e8c
       96505000	      9649	00000000	00000013	addi	x0,x0,0	  x0:0x00000000
       96515000	      9650	80002ed4	00000013	addi	x0,x0,0	  x0:0x00000000
       96525000	      9651	80002ed8	007b37b3	sltu	x15,x22,x7	 x22:0x80002cec  x7:0x000000c0 x15=0x00000000
       96535000	      9652	80002edc	01400c6f	jal	x24,80002edc	 x24=0x80002edc
       96545000	      9653	00000000	00000013	addi	x0,x0,0	  x0:0x00000000
       96555000	      9654	80002eec	00000013	addi	x0,x0,0	  x0:0x00000000
       96565000	      9655	80002ef0	ff1ff0ef	jal	x1,80002ef0	  x1=0x80002ef0
       96575000	      9656	00000000	00000013	addi	x0,x0,0	  x0:0x00000000
       96585000	      9657	80002edc	00000013	addi	x0,x0,0	  x0:0x00000000
       96595000	      9658	80002ee0	0200036f	jal	x6,80002ee0	  x6=0x80002ee0
       96605000	      9659	00000000	00000013	addi	x0,x0,0	  x0:0x00000000
       96615000	      9660	80002efc	00000013	addi	x0,x0,0	  x0:0x00000000
       96625000	      9661	80002f00	ff9ff0ef	jal	x1,80002f00	  x1=0x80002f00
       96635000	      9662	00000000	00000013	addi	x0,x0,0	  x0:0x00000000
       96645000	      9663	80002ef4	00000013	addi	x0,x0,0	  x0:0x00000000
       96655000	      9664	80002ef8	020000ef	jal	x1,80002ef8	  x1=0x80002ef8
       96665000	      9665	00000000	00000013	addi	x0,x0,0	  x0:0x00000000
       96675000	      9666	80002f14	00000013	addi	x0,x0,0	  x0:0x00000000
       96685000	      9667	80002f18	fd5ff0ef	jal	x1,80002f18	  x1=0x80002f18
       96695000	      9668	00000000	00000013	addi	x0,x0,0	  x0:0x00000000
       96705000	      9669	80002ee8	00000013	addi	x0,x0,0	  x0:0x00000000
       96715000	      9670	80002eec	018004ef	jal	x9,80002eec	  x9=0x80002eec
       96725000	      9671	00000000	00000013	addi	x0,x0,0	  x0:0x00000000
       96735000	      9672	80002f00	00000013	addi	x0,x0,0	  x0:0x00000000
       96745000	      9673	80002f04	ff1ffbef	jal	x23,80002f04	 x23=0x80002f04
       96755000	      9674	00000000	00000013	addi	x0,x0,0	  x0:0x00000000
       96765000	      9675	80002ef0	00000013	addi	x0,x0,0	  x0:0x00000000
       96775000	      9676	80002ef4	01c000ef	jal	x1,80002ef4	  x1=0x80002ef4
       96785000	      9677	00000000	00000013	addi	x0,x0,0	  x0:0x00000000
       96795000	      9678	80002f0c	00000013	addi	x0,x0,0	  x0:0x00000000
       96805000	      9679	80002f10	fedff0ef	jal	x1,80002f10	  x1=0x80002f10
       96815000	      9680	00000000	00000013	addi	x0,x0,0	  x0:0x00000000
       96825000	      9681	80002ef8	00000013	addi	x0,x0,0	  x0:0x00000000
       96835000	      9682	80002efc	fe9ff36f	jal	x6,80002efc	  x6=0x80002efc
       96845000	      9683	00000000	00000013	addi	x0,x0,0	  x0:0x00000000
       96855000	      9684	80002ee0	00000013	addi	x0,x0,0	  x0:0x00000000
       96865000	      9685	80002ee4	02800fef	jal	x31,80002ee4	 x31=0x80002ee4
       96875000	      9686	00000000	00000013	addi	x0,x0,0	  x0:0x00000000
       96885000	      9687	80002f08	00000013	addi	x0,x0,0	  x0:0x00000000
       96895000	      9688	80002f0c	ffdff36f	jal	x6,80002f0c	  x6=0x80002f0c
       96905000	      9689	00000000	00000013	addi	x0,x0,0	  x0:0x00000000
       96915000	      9690	80002f04	00000013	addi	x0,x0,0	  x0:0x00000000
       96925000	      9691	80002f08	00c000ef	jal	x1,80002f08	  x1=0x80002f08
       96935000	      9692	00000000	00000013	addi	x0,x0,0	  x0:0x00000000
       96945000	      9693	80002f10	00000013	addi	x0,x0,0	  x0:0x00000000
       96955000	      9694	80002f14	fd5ff0ef	jal	x1,80002f14	  x1=0x80002f14
       96965000	      9695	00000000	00000013	addi	x0,x0,0	  x0:0x00000000
       96975000	      9696	80002ee4	00000013	addi	x0,x0,0	  x0:0x00000000
       96985000	      9697	80002ee8	034000ef	jal	x1,80002ee8	  x1=0x80002ee8
       96995000	      9698	00000000	00000013	addi	x0,x0,0	  x0:0x00000000
       97005000	      9699	80002f18	00000013	addi	x0,x0,0	  x0:0x00000000
       97015000	      9700	80002f1c	9afd2613	slti	x12,x26,-1617	 x26:0x80002d60 x12=0x00000001
       97025000	      9701	80002f20	03800c6f	jal	x24,80002f20	 x24=0x80002f20
       97035000	      9702	00000000	00000013	addi	x0,x0,0	  x0:0x00000000
       97045000	      9703	80002f54	00000013	addi	x0,x0,0	  x0:0x00000000
       97055000	      9704	80002f58	ff1ff3ef	jal	x7,80002f58	  x7=0x80002f58
       97065000	      9705	00000000	00000013	addi	x0,x0,0	  x0:0x00000000
       97075000	      9706	80002f44	00000013	addi	x0,x0,0	  x0:0x00000000
       97085000	      9707	80002f48	fddff2ef	jal	x5,80002f48	  x5=0x80002f48
       97095000	      9708	00000000	00000013	addi	x0,x0,0	  x0:0x00000000
       97105000	      9709	80002f20	00000013	addi	x0,x0,0	  x0:0x00000000
       97115000	      9710	80002f24	004007ef	jal	x15,80002f24	 x15=0x80002f24
       97125000	      9711	00000000	00000013	addi	x0,x0,0	  x0:0x00000000
       97135000	      9712	80002f24	00000013	addi	x0,x0,0	  x0:0x00000000
       97145000	      9713	80002f28	018000ef	jal	x1,80002f28	  x1=0x80002f28
       97155000	      9714	00000000	00000013	addi	x0,x0,0	  x0:0x00000000
       97165000	      9715	80002f3c	00000013	addi	x0,x0,0	  x0:0x00000000
       97175000	      9716	80002f40	010002ef	jal	x5,80002f40	  x5=0x80002f40
       97185000	      9717	00000000	00000013	addi	x0,x0,0	  x0:0x00000000
       97195000	      9718	80002f4c	00000013	addi	x0,x0,0	  x0:0x00000000
       97205000	      9719	80002f50	fedff0ef	jal	x1,80002f50	  x1=0x80002f50
       97215000	      9720	00000000	00000013	addi	x0,x0,0	  x0:0x00000000
       97225000	      9721	80002f38	00000013	addi	x0,x0,0	  x0:0x00000000
       97235000	      9722	80002f3c	010004ef	jal	x9,80002f3c	  x9=0x80002f3c
       97245000	      9723	00000000	00000013	addi	x0,x0,0	  x0:0x00000000
       97255000	      9724	80002f48	00000013	addi	x0,x0,0	  x0:0x00000000
       97265000	      9725	80002f4c	010004ef	jal	x9,80002f4c	  x9=0x80002f4c
       97275000	      9726	00000000	00000013	addi	x0,x0,0	  x0:0x00000000
       97285000	      9727	80002f58	00000013	addi	x0,x0,0	  x0:0x00000000
       97295000	      9728	80002f5c	fd5ff36f	jal	x6,80002f5c	  x6=0x80002f5c
       97305000	      9729	00000000	00000013	addi	x0,x0,0	  x0:0x00000000
       97315000	      9730	80002f2c	00000013	addi	x0,x0,0	  x0:0x00000000
       97325000	      9731	80002f30	ffdff0ef	jal	x1,80002f30	  x1=0x80002f30
       97335000	      9732	00000000	00000013	addi	x0,x0,0	  x0:0x00000000
       97345000	      9733	80002f28	00000013	addi	x0,x0,0	  x0:0x00000000
       97355000	      9734	80002f2c	034001ef	jal	x3,80002f2c	  x3=0x80002f2c
       97365000	      9735	00000000	00000013	addi	x0,x0,0	  x0:0x00000000
       97375000	      9736	80002f5c	00000013	addi	x0,x0,0	  x0:0x00000000
       97385000	      9737	80002f60	fd9ff56f	jal	x10,80002f60	 x10=0x80002f60
       97395000	      9738	00000000	00000013	addi	x0,x0,0	  x0:0x00000000
       97405000	      9739	80002f34	00000013	addi	x0,x0,0	  x0:0x00000000
       97415000	      9740	80002f38	ffdff66f	jal	x12,80002f38	 x12=0x80002f38
       97425000	      9741	00000000	00000013	addi	x0,x0,0	  x0:0x00000000
       97435000	      9742	80002f30	00000013	addi	x0,x0,0	  x0:0x00000000
       97445000	      9743	80002f34	0300036f	jal	x6,80002f34	  x6=0x80002f34
       97455000	      9744	00000000	00000013	addi	x0,x0,0	  x0:0x00000000
       97465000	      9745	80002f60	00000013	addi	x0,x0,0	  x0:0x00000000
       97475000	      9746	80002f64	ff1ff0ef	jal	x1,80002f64	  x1=0x80002f64
       97485000	      9747	00000000	00000013	addi	x0,x0,0	  x0:0x00000000
       97495000	      9748	80002f50	00000013	addi	x0,x0,0	  x0:0x00000000
       97505000	      9749	80002f54	ff1ff0ef	jal	x1,80002f54	  x1=0x80002f54
       97515000	      9750	00000000	00000013	addi	x0,x0,0	  x0:0x00000000
       97525000	      9751	80002f40	00000013	addi	x0,x0,0	  x0:0x00000000
       97535000	      9752	80002f44	024000ef	jal	x1,80002f44	  x1=0x80002f44
       97545000	      9753	00000000	00000013	addi	x0,x0,0	  x0:0x00000000
       97555000	      9754	80002f64	00000013	addi	x0,x0,0	  x0:0x00000000
       97565000	      9755	80002f68	82960a93	addi	x21,x12,-2007	 x12:0x80002f38 x21=0x80002761
       97575000	      9756	80002f6c	03800c6f	jal	x24,80002f6c	 x24=0x80002f6c
       97585000	      9757	00000000	00000013	addi	x0,x0,0	  x0:0x00000000
       97595000	      9758	80002fa0	00000013	addi	x0,x0,0	  x0:0x00000000
       97605000	      9759	80002fa4	01c000ef	jal	x1,80002fa4	  x1=0x80002fa4
       97615000	      9760	00000000	00000013	addi	x0,x0,0	  x0:0x00000000
       97625000	      9761	80002fbc	00000013	addi	x0,x0,0	  x0:0x00000000
       97635000	      9762	80002fc0	008000ef	jal	x1,80002fc0	  x1=0x80002fc0
       97645000	      9763	00000000	00000013	addi	x0,x0,0	  x0:0x00000000
       97655000	      9764	80002fc4	00000013	addi	x0,x0,0	  x0:0x00000000
       97665000	      9765	80002fc8	fd1ff0ef	jal	x1,80002fc8	  x1=0x80002fc8
       97675000	      9766	00000000	00000013	addi	x0,x0,0	  x0:0x00000000
       97685000	      9767	80002f94	00000013	addi	x0,x0,0	  x0:0x00000000
       97695000	      9768	80002f98	018000ef	jal	x1,80002f98	  x1=0x80002f98
       97705000	      9769	00000000	00000013	addi	x0,x0,0	  x0:0x00000000
       97715000	      9770	80002fac	00000013	addi	x0,x0,0	  x0:0x00000000
       97725000	      9771	80002fb0	fd1ff36f	jal	x6,80002fb0	  x6=0x80002fb0
       97735000	      9772	00000000	00000013	addi	x0,x0,0	  x0:0x00000000
       97745000	      9773	80002f7c	00000013	addi	x0,x0,0	  x0:0x00000000
       97755000	      9774	80002f80	020000ef	jal	x1,80002f80	  x1=0x80002f80
       97765000	      9775	00000000	00000013	addi	x0,x0,0	  x0:0x00000000
       97775000	      9776	80002f9c	00000013	addi	x0,x0,0	  x0:0x00000000
       97785000	      9777	80002fa0	0140036f	jal	x6,80002fa0	  x6=0x80002fa0
       97795000	      9778	00000000	00000013	addi	x0,x0,0	  x0:0x00000000
       97805000	      9779	80002fb0	00000013	addi	x0,x0,0	  x0:0x00000000
       97815000	      9780	80002fb4	fe9ffb6f	jal	x22,80002fb4	 x22=0x80002fb4
       97825000	      9781	00000000	00000013	addi	x0,x0,0	  x0:0x00000000
       97835000	      9782	80002f98	00000013	addi	x0,x0,0	  x0:0x00000000
       97845000	      9783	80002f9c	00c0036f	jal	x6,80002f9c	  x6=0x80002f9c
       97855000	      9784	00000000	00000013	addi	x0,x0,0	  x0:0x00000000
       97865000	      9785	80002fa4	00000013	addi	x0,x0,0	  x0:0x00000000
       97875000	      9786	80002fa8	fe5ff0ef	jal	x1,80002fa8	  x1=0x80002fa8
       97885000	      9787	00000000	00000013	addi	x0,x0,0	  x0:0x00000000
       97895000	      9788	80002f88	00000013	addi	x0,x0,0	  x0:0x00000000
       97905000	      9789	80002f8c	fe9ff26f	jal	x4,80002f8c	  x4=0x80002f8c
       97915000	      9790	00000000	00000013	addi	x0,x0,0	  x0:0x00000000
       97925000	      9791	80002f70	00000013	addi	x0,x0,0	  x0:0x00000000
       97935000	      9792	80002f74	0080026f	jal	x4,80002f74	  x4=0x80002f74
       97945000	      9793	00000000	00000013	addi	x0,x0,0	  x0:0x00000000
       97955000	      9794	80002f78	00000013	addi	x0,x0,0	  x0:0x00000000
       97965000	      9795	80002f7c	0500036f	jal	x6,80002f7c	  x6=0x80002f7c
       97975000	      9796	00000000	00000013	addi	x0,x0,0	  x0:0x00000000
       97985000	      9797	80002fc8	00000013	addi	x0,x0,0	  x0:0x00000000
       97995000	      9798	80002fcc	ff1ff0ef	jal	x1,80002fcc	  x1=0x80002fcc
       98005000	      9799	00000000	00000013	addi	x0,x0,0	  x0:0x00000000
       98015000	      9800	80002fb8	00000013	addi	x0,x0,0	  x0:0x00000000
       98025000	      9801	80002fbc	fbdff2ef	jal	x5,80002fbc	  x5=0x80002fbc
       98035000	      9802	00000000	00000013	addi	x0,x0,0	  x0:0x00000000
       98045000	      9803	80002f74	00000013	addi	x0,x0,0	  x0:0x00000000
       98055000	      9804	80002f78	040000ef	jal	x1,80002f78	  x1=0x80002f78
       98065000	      9805	00000000	00000013	addi	x0,x0,0	  x0:0x00000000
       98075000	      9806	80002fb4	00000013	addi	x0,x0,0	  x0:0x00000000
       98085000	      9807	80002fb8	018000ef	jal	x1,80002fb8	  x1=0x80002fb8
       98095000	      9808	00000000	00000013	addi	x0,x0,0	  x0:0x00000000
       98105000	      9809	80002fcc	00000013	addi	x0,x0,0	  x0:0x00000000
       98115000	      9810	80002fd0	fc5ff0ef	jal	x1,80002fd0	  x1=0x80002fd0
       98125000	      9811	00000000	00000013	addi	x0,x0,0	  x0:0x00000000
       98135000	      9812	80002f90	00000013	addi	x0,x0,0	  x0:0x00000000
       98145000	      9813	80002f94	018000ef	jal	x1,80002f94	  x1=0x80002f94
       98155000	      9814	00000000	00000013	addi	x0,x0,0	  x0:0x00000000
       98165000	      9815	80002fa8	00000013	addi	x0,x0,0	  x0:0x00000000
       98175000	      9816	80002fac	fc5ff0ef	jal	x1,80002fac	  x1=0x80002fac
       98185000	      9817	00000000	00000013	addi	x0,x0,0	  x0:0x00000000
       98195000	      9818	80002f6c	00000013	addi	x0,x0,0	  x0:0x00000000
       98205000	      9819	80002f70	018000ef	jal	x1,80002f70	  x1=0x80002f70
       98215000	      9820	00000000	00000013	addi	x0,x0,0	  x0:0x00000000
       98225000	      9821	80002f84	00000013	addi	x0,x0,0	  x0:0x00000000
       98235000	      9822	80002f88	ffdff0ef	jal	x1,80002f88	  x1=0x80002f88
       98245000	      9823	00000000	00000013	addi	x0,x0,0	  x0:0x00000000
       98255000	      9824	80002f80	00000013	addi	x0,x0,0	  x0:0x00000000
       98265000	      9825	80002f84	00c007ef	jal	x15,80002f84	 x15=0x80002f84
       98275000	      9826	00000000	00000013	addi	x0,x0,0	  x0:0x00000000
       98285000	      9827	80002f8c	00000013	addi	x0,x0,0	  x0:0x00000000
       98295000	      9828	80002f90	034000ef	jal	x1,80002f90	  x1=0x80002f90
       98305000	      9829	00000000	00000013	addi	x0,x0,0	  x0:0x00000000
       98315000	      9830	80002fc0	00000013	addi	x0,x0,0	  x0:0x00000000
       98325000	      9831	80002fc4	0100036f	jal	x6,80002fc4	  x6=0x80002fc4
       98335000	      9832	00000000	00000013	addi	x0,x0,0	  x0:0x00000000
       98345000	      9833	80002fd0	00000013	addi	x0,x0,0	  x0:0x00000000
       98355000	      9834	80002fd4	c0f93c13	sltiu	x24,x18,-1009	 x18:0x80002af0 x24=0x00000001
       98365000	      9835	80002fd8	00800c6f	jal	x24,80002fd8	 x24=0x80002fd8
       98375000	      9836	00000000	00000013	addi	x0,x0,0	  x0:0x00000000
       98385000	      9837	80002fdc	00000013	addi	x0,x0,0	  x0:0x00000000
       98395000	      9838	80002fe0	018000ef	jal	x1,80002fe0	  x1=0x80002fe0
       98405000	      9839	00000000	00000013	addi	x0,x0,0	  x0:0x00000000
       98415000	      9840	80002ff4	00000013	addi	x0,x0,0	  x0:0x00000000
       98425000	      9841	80002ff8	008000ef	jal	x1,80002ff8	  x1=0x80002ff8
       98435000	      9842	00000000	00000013	addi	x0,x0,0	  x0:0x00000000
       98445000	      9843	80002ffc	00000013	addi	x0,x0,0	  x0:0x00000000
       98455000	      9844	80003000	01c00c6f	jal	x24,80003000	 x24=0x80003000
       98465000	      9845	00000000	00000013	addi	x0,x0,0	  x0:0x00000000
       98475000	      9846	80003018	00000013	addi	x0,x0,0	  x0:0x00000000
       98485000	      9847	8000301c	ff1ff26f	jal	x4,8000301c	  x4=0x8000301c
       98495000	      9848	00000000	00000013	addi	x0,x0,0	  x0:0x00000000
       98505000	      9849	80003008	00000013	addi	x0,x0,0	  x0:0x00000000
       98515000	      9850	8000300c	004005ef	jal	x11,8000300c	 x11=0x8000300c
       98525000	      9851	00000000	00000013	addi	x0,x0,0	  x0:0x00000000
       98535000	      9852	8000300c	00000013	addi	x0,x0,0	  x0:0x00000000
       98545000	      9853	80003010	fddff0ef	jal	x1,80003010	  x1=0x80003010
       98555000	      9854	00000000	00000013	addi	x0,x0,0	  x0:0x00000000
       98565000	      9855	80002fe8	00000013	addi	x0,x0,0	  x0:0x00000000
       98575000	      9856	80002fec	0100036f	jal	x6,80002fec	  x6=0x80002fec
       98585000	      9857	00000000	00000013	addi	x0,x0,0	  x0:0x00000000
       98595000	      9858	80002ff8	00000013	addi	x0,x0,0	  x0:0x00000000
       98605000	      9859	80002ffc	ff5ff0ef	jal	x1,80002ffc	  x1=0x80002ffc
       98615000	      9860	00000000	00000013	addi	x0,x0,0	  x0:0x00000000
       98625000	      9861	80002fec	00000013	addi	x0,x0,0	  x0:0x00000000
       98635000	      9862	80002ff0	01400cef	jal	x25,80002ff0	 x25=0x80002ff0
       98645000	      9863	00000000	00000013	addi	x0,x0,0	  x0:0x00000000
       98655000	      9864	80003000	00000013	addi	x0,x0,0	  x0:0x00000000
       98665000	      9865	80003004	010000ef	jal	x1,80003004	  x1=0x80003004
       98675000	      9866	00000000	00000013	addi	x0,x0,0	  x0:0x00000000
       98685000	      9867	80003010	00000013	addi	x0,x0,0	  x0:0x00000000
       98695000	      9868	80003014	ff5ff36f	jal	x6,80003014	  x6=0x80003014
       98705000	      9869	00000000	00000013	addi	x0,x0,0	  x0:0x00000000
       98715000	      9870	80003004	00000013	addi	x0,x0,0	  x0:0x00000000
       98725000	      9871	80003008	fe1ff96f	jal	x18,80003008	 x18=0x80003008
       98735000	      9872	00000000	00000013	addi	x0,x0,0	  x0:0x00000000
       98745000	      9873	80002fe4	00000013	addi	x0,x0,0	  x0:0x00000000
       98755000	      9874	80002fe8	0300036f	jal	x6,80002fe8	  x6=0x80002fe8
       98765000	      9875	00000000	00000013	addi	x0,x0,0	  x0:0x00000000
       98775000	      9876	80003014	00000013	addi	x0,x0,0	  x0:0x00000000
       98785000	      9877	80003018	fc5ff5ef	jal	x11,80003018	 x11=0x80003018
       98795000	      9878	00000000	00000013	addi	x0,x0,0	  x0:0x00000000
       98805000	      9879	80002fd8	00000013	addi	x0,x0,0	  x0:0x00000000
       98815000	      9880	80002fdc	018000ef	jal	x1,80002fdc	  x1=0x80002fdc
       98825000	      9881	00000000	00000013	addi	x0,x0,0	  x0:0x00000000
       98835000	      9882	80002ff0	00000013	addi	x0,x0,0	  x0:0x00000000
       98845000	      9883	80002ff4	ff1ff0ef	jal	x1,80002ff4	  x1=0x80002ff4
       98855000	      9884	00000000	00000013	addi	x0,x0,0	  x0:0x00000000
       98865000	      9885	80002fe0	00000013	addi	x0,x0,0	  x0:0x00000000
       98875000	      9886	80002fe4	03c0036f	jal	x6,80002fe4	  x6=0x80002fe4
       98885000	      9887	00000000	00000013	addi	x0,x0,0	  x0:0x00000000
       98895000	      9888	8000301c	00000013	addi	x0,x0,0	  x0:0x00000000
       98905000	      9889	80003020	00439013	slli	x0,x7,0x4	  x7:0x80002f58
       98915000	      9890	80003024	03800c6f	jal	x24,80003024	 x24=0x80003024
       98925000	      9891	00000000	00000013	addi	x0,x0,0	  x0:0x00000000
       98935000	      9892	80003058	00000013	addi	x0,x0,0	  x0:0x00000000
       98945000	      9893	8000305c	fd5ff0ef	jal	x1,8000305c	  x1=0x8000305c
       98955000	      9894	00000000	00000013	addi	x0,x0,0	  x0:0x00000000
       98965000	      9895	8000302c	00000013	addi	x0,x0,0	  x0:0x00000000
       98975000	      9896	80003030	010000ef	jal	x1,80003030	  x1=0x80003030
       98985000	      9897	00000000	00000013	addi	x0,x0,0	  x0:0x00000000
       98995000	      9898	8000303c	00000013	addi	x0,x0,0	  x0:0x00000000
       99005000	      9899	80003040	ff5ff56f	jal	x10,80003040	 x10=0x80003040
       99015000	      9900	00000000	00000013	addi	x0,x0,0	  x0:0x00000000
       99025000	      9901	80003030	00000013	addi	x0,x0,0	  x0:0x00000000
       99035000	      9902	80003034	ff5ff66f	jal	x12,80003034	 x12=0x80003034
       99045000	      9903	00000000	00000013	addi	x0,x0,0	  x0:0x00000000
       99055000	      9904	80003024	00000013	addi	x0,x0,0	  x0:0x00000000
       99065000	      9905	80003028	040000ef	jal	x1,80003028	  x1=0x80003028
       99075000	      9906	00000000	00000013	addi	x0,x0,0	  x0:0x00000000
       99085000	      9907	80003064	00000013	addi	x0,x0,0	  x0:0x00000000
       99095000	      9908	80003068	00c000ef	jal	x1,80003068	  x1=0x80003068
       99105000	      9909	00000000	00000013	addi	x0,x0,0	  x0:0x00000000
       99115000	      9910	80003070	00000013	addi	x0,x0,0	  x0:0x00000000
       99125000	      9911	80003074	fd1ff0ef	jal	x1,80003074	  x1=0x80003074
       99135000	      9912	00000000	00000013	addi	x0,x0,0	  x0:0x00000000
       99145000	      9913	80003040	00000013	addi	x0,x0,0	  x0:0x00000000
       99155000	      9914	80003044	02c000ef	jal	x1,80003044	  x1=0x80003044
       99165000	      9915	00000000	00000013	addi	x0,x0,0	  x0:0x00000000
       99175000	      9916	8000306c	00000013	addi	x0,x0,0	  x0:0x00000000
       99185000	      9917	80003070	fddff0ef	jal	x1,80003070	  x1=0x80003070
       99195000	      9918	00000000	00000013	addi	x0,x0,0	  x0:0x00000000
       99205000	      9919	80003048	00000013	addi	x0,x0,0	  x0:0x00000000
       99215000	      9920	8000304c	ffdff36f	jal	x6,8000304c	  x6=0x8000304c
       99225000	      9921	00000000	00000013	addi	x0,x0,0	  x0:0x00000000
       99235000	      9922	80003044	00000013	addi	x0,x0,0	  x0:0x00000000
       99245000	      9923	80003048	fe5ff0ef	jal	x1,80003048	  x1=0x80003048
       99255000	      9924	00000000	00000013	addi	x0,x0,0	  x0:0x00000000
       99265000	      9925	80003028	00000013	addi	x0,x0,0	  x0:0x00000000
       99275000	      9926	8000302c	010003ef	jal	x7,8000302c	  x7=0x8000302c
       99285000	      9927	00000000	00000013	addi	x0,x0,0	  x0:0x00000000
       99295000	      9928	80003038	00000013	addi	x0,x0,0	  x0:0x00000000
       99305000	      9929	8000303c	0140016f	jal	x2,8000303c	  x2=0x8000303c
       99315000	      9930	00000000	00000013	addi	x0,x0,0	  x0:0x00000000
       99325000	      9931	8000304c	00000013	addi	x0,x0,0	  x0:0x00000000
       99335000	      9932	80003050	004000ef	jal	x1,80003050	  x1=0x80003050
       99345000	      9933	00000000	00000013	addi	x0,x0,0	  x0:0x00000000
       99355000	      9934	80003050	00000013	addi	x0,x0,0	  x0:0x00000000
       99365000	      9935	80003054	004000ef	jal	x1,80003054	  x1=0x80003054
       99375000	      9936	00000000	00000013	addi	x0,x0,0	  x0:0x00000000
       99385000	      9937	80003054	00000013	addi	x0,x0,0	  x0:0x00000000
       99395000	      9938	80003058	0240036f	jal	x6,80003058	  x6=0x80003058
       99405000	      9939	00000000	00000013	addi	x0,x0,0	  x0:0x00000000
       99415000	      9940	80003078	00000013	addi	x0,x0,0	  x0:0x00000000
       99425000	      9941	8000307c	fbdff2ef	jal	x5,8000307c	  x5=0x8000307c
       99435000	      9942	00000000	00000013	addi	x0,x0,0	  x0:0x00000000
       99445000	      9943	80003034	00000013	addi	x0,x0,0	  x0:0x00000000
       99455000	      9944	80003038	04c000ef	jal	x1,80003038	  x1=0x80003038
       99465000	      9945	00000000	00000013	addi	x0,x0,0	  x0:0x00000000
       99475000	      9946	80003080	00000013	addi	x0,x0,0	  x0:0x00000000
       99485000	      9947	80003084	ffdff76f	jal	x14,80003084	 x14=0x80003084
       99495000	      9948	00000000	00000013	addi	x0,x0,0	  x0:0x00000000
       99505000	      9949	8000307c	00000013	addi	x0,x0,0	  x0:0x00000000
       99515000	      9950	80003080	ff9ff0ef	jal	x1,80003080	  x1=0x80003080
       99525000	      9951	00000000	00000013	addi	x0,x0,0	  x0:0x00000000
       99535000	      9952	80003074	00000013	addi	x0,x0,0	  x0:0x00000000
       99545000	      9953	80003078	ff5ff36f	jal	x6,80003078	  x6=0x80003078
       99555000	      9954	00000000	00000013	addi	x0,x0,0	  x0:0x00000000
       99565000	      9955	80003068	00000013	addi	x0,x0,0	  x0:0x00000000
       99575000	      9956	8000306c	ff5ff0ef	jal	x1,8000306c	  x1=0x8000306c
       99585000	      9957	00000000	00000013	addi	x0,x0,0	  x0:0x00000000
       99595000	      9958	8000305c	00000013	addi	x0,x0,0	  x0:0x00000000
       99605000	      9959	80003060	004000ef	jal	x1,80003060	  x1=0x80003060
       99615000	      9960	00000000	00000013	addi	x0,x0,0	  x0:0x00000000
       99625000	      9961	80003060	00000013	addi	x0,x0,0	  x0:0x00000000
       99635000	      9962	80003064	024000ef	jal	x1,80003064	  x1=0x80003064
       99645000	      9963	00000000	00000013	addi	x0,x0,0	  x0:0x00000000
       99655000	      9964	80003084	00000013	addi	x0,x0,0	  x0:0x00000000
       99665000	      9965	80003088	00d796b3	sll	x13,x15,x13	 x15:0x80002f84 x13:0x80002df0 x13=0x2f840000
       99675000	      9966	8000308c	41ced693	srai	x13,x29,0x1c	 x29:0x80002bd7 x13=0xfffffff8
       99685000	      9967	80003090	02a6d863	bge	x13,x10,800030c0	 x13:0xfffffff8 x10:0x80003040
       99695000	      9968	00000000	00000013	addi	x0,x0,0	  x0:0x00000000
       99705000	      9969	800030bc	00000013	addi	x0,x0,0	  x0:0x00000000
       99715000	      9970	800030c0	05b51063	bne	x10,x27,80003100	 x10:0x80003040 x27:0x00000140
       99725000	      9971	00000000	00000013	addi	x0,x0,0	  x0:0x00000000
       99735000	      9972	800030fc	00000013	addi	x0,x0,0	  x0:0x00000000
       99745000	      9973	80003100	02404463	blt	x0,x4,80003128	  x0:0x00000000  x4:0x8000301c
       99755000	      9974	80003104	012e8c33	add	x24,x29,x18	 x29:0x80002bd7 x18:0x80003008 x24=0x00005bdf
       99765000	      9975	80003108	00000013	addi	x0,x0,0	  x0:0x00000000
       99775000	      9976	8000310c	007ca4b3	slt	x9,x25,x7	 x25:0x80002ff0  x7:0x8000302c  x9=0x00000001
       99785000	      9977	80003110	01848033	add	x0,x9,x24	  x9:0x00000001 x24:0x00005bdf
       99795000	      9978	80003114	00eee9b3	or	x19,x29,x14	 x29:0x80002bd7 x14:0x80003084 x19=0x80003bd7
       99805000	      9979	80003118	01545863	bge	x8,x21,80003128	  x8:0x80009fc4 x21:0x80002761
       99815000	      9980	00000000	00000013	addi	x0,x0,0	  x0:0x00000000
       99825000	      9981	80003124	00000013	addi	x0,x0,0	  x0:0x00000000
       99835000	      9982	80003128	026e6463	bltu	x28,x6,80003150	 x28:0x80009eec  x6:0x80003078
       99845000	      9983	8000312c	00000013	addi	x0,x0,0	  x0:0x00000000
       99855000	      9984	80003130	0109d313	srli	x6,x19,0x10	 x19:0x80003bd7  x6=0x00008000
       99865000	      9985	80003134	0462cb93	xori	x23,x5,70	  x5:0x8000307c x23=0x8000303a
       99875000	      9986	80003138	fa903693	sltiu	x13,x0,-87	  x0:0x00000000 x13=0x00000001
       99885000	      9987	8000313c	001fddb3	srl	x27,x31,x1	 x31:0x80002ee4  x1:0x80003064 x27=0x080002ee
       99895000	      9988	80003140	02e84663	blt	x16,x14,8000316c	 x16:0x00000000 x14:0x80003084
       99905000	      9989	80003144	01261bb3	sll	x23,x12,x18	 x12:0x80003034 x18:0x80003008 x23=0x00303400
       99915000	      9990	80003148	01e0cb33	xor	x22,x1,x30	  x1:0x80003064 x30:0x80002d88 x22=0x00001dec
       99925000	      9991	8000314c	02c51863	bne	x10,x12,8000317c	 x10:0x80003040 x12:0x80003034
       99935000	      9992	00000000	00000013	addi	x0,x0,0	  x0:0x00000000
       99945000	      9993	80003178	00000013	addi	x0,x0,0	  x0:0x00000000
       99955000	      9994	8000317c	411bd493	srai	x9,x23,0x11	 x23:0x00303400  x9=0x00000018
       99965000	      9995	80003180	00a606b3	add	x13,x12,x10	 x12:0x80003034 x10:0x80003040 x13=0x00006074
       99975000	      9996	80003184	0022edb3	or	x27,x5,x2	  x5:0x8000307c  x2:0x8000303c x27=0x8000307c
       99985000	      9997	80003188	01966ab3	or	x21,x12,x25	 x12:0x80003034 x25:0x80002ff0 x21=0x80003ff4
       99995000	      9998	8000318c	d52b2f93	slti	x31,x22,-686	 x22:0x00001dec x31=0x00000000
      100005000	      9999	80003190	40415993	srai	x19,x2,0x4	  x2:0x8000303c x19=0xf8000303
      100015000	     10000	80003194	00284db3	xor	x27,x16,x2	 x16:0x00000000  x2:0x8000303c x27=0x8000303c
      100025000	     10001	80003198	015111b3	sll	x3,x2,x21	  x2:0x8000303c x21:0x80003ff4  x3=0x03c00000
      100035000	     10002	8000319c	012fd663	bge	x31,x18,800031a8	 x31:0x00000000 x18:0x80003008
      100045000	     10003	00000000	00000013	addi	x0,x0,0	  x0:0x00000000
      100055000	     10004	800031a4	00000013	addi	x0,x0,0	  x0:0x00000000
      100065000	     10005	800031a8	fb45c013	xori	x0,x11,-76	 x11:0x80003018
      100075000	     10006	800031ac	046be663	bltu	x23,x6,800031f8	 x23:0x00303400  x6:0x00008000
      100085000	     10007	800031b0	048c0663	beq	x24,x8,800031fc	 x24:0x00005bdf  x8:0x80009fc4
      100095000	     10008	800031b4	0081e733	or	x14,x3,x8	  x3:0x03c00000  x8:0x80009fc4 x14=0x83c09fc4
      100105000	     10009	800031b8	01ac61b3	or	x3,x24,x26	 x24:0x00005bdf x26:0x80002d60  x3=0x80007fff
      100115000	     10010	800031bc	fe96a297	auipc	x5,0xfe96a	  x5=0x7e96d1b8
      100125000	     10011	800031c0	01eafa63	bgeu	x21,x30,800031d4	 x21:0x80003ff4 x30:0x80002d88
      100135000	     10012	00000000	00000013	addi	x0,x0,0	  x0:0x00000000
      100145000	     10013	800031d0	00000013	addi	x0,x0,0	  x0:0x00000000
      100155000	     10014	800031d4	00000013	addi	x0,x0,0	  x0:0x00000000
      100165000	     10015	800031d8	015277b3	and	x15,x4,x21	  x4:0x8000301c x21:0x80003ff4 x15=0x80003014
      100175000	     10016	800031dc	03d3c863	blt	x7,x29,8000320c	  x7:0x8000302c x29:0x80002bd7
      100185000	     10017	800031e0	04086263	bltu	x16,x0,80003224	 x16:0x00000000  x0:0x00000000
      100195000	     10018	800031e4	a4c0ac13	slti	x24,x1,-1460	  x1:0x80003064 x24=0x00000001
      100205000	     10019	800031e8	01a79663	bne	x15,x26,800031f4	 x15:0x80003014 x26:0x80002d60
      100215000	     10020	00000000	00000013	addi	x0,x0,0	  x0:0x00000000
      100225000	     10021	800031f0	00000013	addi	x0,x0,0	  x0:0x00000000
      100235000	     10022	800031f4	008ac463	blt	x21,x8,800031fc	 x21:0x80003ff4  x8:0x80009fc4
      100245000	     10023	00000000	00000013	addi	x0,x0,0	  x0:0x00000000
      100255000	     10024	800031f8	00000013	addi	x0,x0,0	  x0:0x00000000
      100265000	     10025	800031fc	e7b63093	sltiu	x1,x12,-389	 x12:0x80003034  x1=0x00000001
      100275000	     10026	80003200	01a92033	slt	x0,x18,x26	 x18:0x80003008 x26:0x80002d60
      100285000	     10027	80003204	00d6e0b3	or	x1,x13,x13	 x13:0x00006074 x13:0x00006074  x1=0x00006074
      100295000	     10028	80003208	015fe2b3	or	x5,x31,x21	 x31:0x00000000 x21:0x80003ff4  x5=0x80003ff4
      100305000	     10029	8000320c	14520137	lui	x2,0x14520	  x2=0x14520000
      100315000	     10030	80003210	41d1ddb3	sra	x27,x3,x29	  x3:0x80007fff x29:0x80002bd7 x27=0xffffff00
      100325000	     10031	80003214	f7c06b17	auipc	x22,0xf7c06	 x22=0x77c09210
      100335000	     10032	80003218	008d7733	and	x14,x26,x8	 x26:0x80002d60  x8:0x80009fc4 x14=0x80000d40
      100345000	     10033	8000321c	f3c72c97	auipc	x25,0xf3c72	 x25=0x73c75218
      100355000	     10034	80003220	0a9cc793	xori	x15,x25,169	 x25:0x73c75218 x15=0x73c752b1
      100365000	     10035	80003224	024e7c63	bgeu	x28,x4,8000325c	 x28:0x80009eec  x4:0x8000301c
      100375000	     10036	00000000	00000013	addi	x0,x0,0	  x0:0x00000000
      100385000	     10037	80003258	00000013	addi	x0,x0,0	  x0:0x00000000
      100395000	     10038	8000325c	05f1d063	bge	x3,x31,8000329c	  x3:0x80007fff x31:0x00000000
      100405000	     10039	80003260	00729bb3	sll	x23,x5,x7	  x5:0x80003ff4  x7:0x8000302c x23=0x03ff4000
      100415000	     10040	80003264	ff72a313	slti	x6,x5,-9	  x5:0x80003ff4  x6=0x00000001
      100425000	     10041	80003268	01c40463	beq	x8,x28,80003270	  x8:0x80009fc4 x28:0x80009eec
      100435000	     10042	8000326c	411350b3	sra	x1,x6,x17	  x6:0x00000001 x17:0x80002e64  x1=0x00000000
      100445000	     10043	80003270	01502bb3	slt	x23,x0,x21	  x0:0x00000000 x21:0x80003ff4 x23=0x00000000
      100455000	     10044	80003274	3d664a93	xori	x21,x12,982	 x12:0x80003034 x21=0x800033e2
      100465000	     10045	80003278	40d65a13	srai	x20,x12,0xd	 x12:0x80003034 x20=0xfffc0001
      100475000	     10046	8000327c	2eed6c13	ori	x24,x26,750	 x26:0x80002d60 x24=0x80002fee
      100485000	     10047	80003280	04f26863	bltu	x4,x15,800032d0	  x4:0x8000301c x15:0x73c752b1
      100495000	     10048	80003284	19f78037	lui	x0,0x19f78	
      100505000	     10049	80003288	005fd993	srli	x19,x31,0x5	 x31:0x00000000 x19=0x00000000
      100515000	     10050	8000328c	8c338713	addi	x14,x7,-1853	  x7:0x8000302c x14=0x800028ef
      100525000	     10051	80003290	e4216993	ori	x19,x2,-446	  x2:0x14520000 x19=0xfffffe42
      100535000	     10052	80003294	003b34b3	sltu	x9,x22,x3	 x22:0x77c09210  x3:0x80007fff  x9=0x00000001
      100545000	     10053	80003298	411f0bb3	sub	x23,x30,x17	 x30:0x80002d88 x17:0x80002e64 x23=0xffffff24
      100555000	     10054	8000329c	008a4d33	xor	x26,x20,x8	 x20:0xfffc0001  x8:0x80009fc4 x26=0x7ffc9fc5
      100565000	     10055	800032a0	01ca3333	sltu	x6,x20,x28	 x20:0xfffc0001 x28:0x80009eec  x6=0x00000000
      100575000	     10056	800032a4	41a95333	sra	x6,x18,x26	 x18:0x80003008 x26:0x7ffc9fc5  x6=0xfc000180
      100585000	     10057	800032a8	40925d33	sra	x26,x4,x9	  x4:0x8000301c  x9:0x00000001 x26=0xc000180e
      100595000	     10058	800032ac	0046f1b3	and	x3,x13,x4	 x13:0x00006074  x4:0x8000301c  x3=0x00002014
      100605000	     10059	800032b0	4150d793	srai	x15,x1,0x15	  x1:0x00000000 x15=0x00000000
      100615000	     10060	800032b4	01c26663	bltu	x4,x28,800032c0	  x4:0x8000301c x28:0x80009eec
      100625000	     10061	00000000	00000013	addi	x0,x0,0	  x0:0x00000000
      100635000	     10062	800032bc	00000013	addi	x0,x0,0	  x0:0x00000000
      100645000	     10063	800032c0	004a9e93	slli	x29,x21,0x4	 x21:0x800033e2 x29=0x00033e20
      100655000	     10064	800032c4	003d1e63	bne	x26,x3,800032e0	 x26:0xc000180e  x3:0x00002014
      100665000	     10065	00000000	00000013	addi	x0,x0,0	  x0:0x00000000
      100675000	     10066	800032dc	00000013	addi	x0,x0,0	  x0:0x00000000
      100685000	     10067	800032e0	2c072913	slti	x18,x14,704	 x14:0x800028ef x18=0x00000001
      100695000	     10068	800032e4	40725c93	srai	x25,x4,0x7	  x4:0x8000301c x25=0xff000060
      100705000	     10069	800032e8	40795313	srai	x6,x18,0x7	 x18:0x00000001  x6=0x00000000
      100715000	     10070	800032ec	405855b3	sra	x11,x16,x5	 x16:0x00000000  x5:0x80003ff4 x11=0x00000000
      100725000	     10071	800032f0	40d003b3	sub	x7,x0,x13	  x0:0x00000000 x13:0x00006074  x7=0xffff9f8c
      100735000	     10072	800032f4	ea26f593	andi	x11,x13,-350	 x13:0x00006074 x11=0x00006020
      100745000	     10073	800032f8	01d2da63	bge	x5,x29,8000330c	  x5:0x80003ff4 x29:0x00033e20
      100755000	     10074	800032fc	4522a913	slti	x18,x5,1106	  x5:0x80003ff4 x18=0x00000001
      100765000	     10075	80003300	01bf8263	beq	x31,x27,80003304	 x31:0x00000000 x27:0xffffff00
      100775000	     10076	80003304	018887b3	add	x15,x17,x24	 x17:0x80002e64 x24:0x80002fee x15=0x00005e52
      100785000	     10077	80003308	03644863	blt	x8,x22,80003338	  x8:0x80009fc4 x22:0x77c09210
      100795000	     10078	00000000	00000013	addi	x0,x0,0	  x0:0x00000000
      100805000	     10079	80003334	00000013	addi	x0,x0,0	  x0:0x00000000
      100815000	     10080	80003338	41d95a13	srai	x20,x18,0x1d	 x18:0x00000001 x20=0x00000000
      100825000	     10081	8000333c	00ba6a33	or	x20,x20,x11	 x20:0x00000000 x11:0x00006020 x20=0x00006020
      100835000	     10082	80003340	017e5733	srl	x14,x28,x23	 x28:0x80009eec x23:0xffffff24 x14=0x080009ee
      100845000	     10083	80003344	41bb5f93	srai	x31,x22,0x1b	 x22:0x77c09210 x31=0x0000000e
      100855000	     10084	80003348	413d5b13	srai	x22,x26,0x13	 x26:0xc000180e x22=0xfffff800
      100865000	     10085	8000334c	04a64263	blt	x12,x10,80003390	 x12:0x80003034 x10:0x80003040
      100875000	     10086	00000000	00000013	addi	x0,x0,0	  x0:0x00000000
      100885000	     10087	8000338c	00000013	addi	x0,x0,0	  x0:0x00000000
      100895000	     10088	80003390	0299f863	bgeu	x19,x9,800033c0	 x19:0xfffffe42  x9:0x00000001
      100905000	     10089	00000000	00000013	addi	x0,x0,0	  x0:0x00000000
      100915000	     10090	800033bc	00000013	addi	x0,x0,0	  x0:0x00000000
      100925000	     10091	800033c0	0136db33	srl	x22,x13,x19	 x13:0x00006074 x19:0xfffffe42 x22=0x0000181d
      100935000	     10092	800033c4	18000197	auipc	x3,0x18000	  x3=0x980033c0
      100945000	     10093	800033c8	00a921b3	slt	x3,x18,x10	 x18:0x00000001 x10:0x80003040  x3=0x00000000
      100955000	     10094	800033cc	000fd2b3	srl	x5,x31,x0	 x31:0x0000000e  x0:0x00000000  x5=0x0000000e
      100965000	     10095	800033d0	01c5bdb3	sltu	x27,x11,x28	 x11:0x00006020 x28:0x80009eec x27=0x00000001
      100975000	     10096	800033d4	c7809c17	auipc	x24,0xc7809	 x24=0x4780c3d0
      100985000	     10097	800033d8	032a0463	beq	x20,x18,80003400	 x20:0x00006020 x18:0x00000001
      100995000	     10098	800033dc	00000013	addi	x0,x0,0	  x0:0x00000000
      101005000	     10099	800033e0	00919b93	slli	x23,x3,0x9	  x3:0x00000000 x23=0x00000000
      101015000	     10100	800033e4	0109c3b3	xor	x7,x19,x16	 x19:0xfffffe42 x16:0x00000000  x7=0xfffffe42
      101025000	     10101	800033e8	01b525b3	slt	x11,x10,x27	 x10:0x80003040 x27:0x00000001 x11=0x00000001
      101035000	     10102	800033ec	011d8033	add	x0,x27,x17	 x27:0x00000001 x17:0x80002e64
      101045000	     10103	800033f0	d163a993	slti	x19,x7,-746	  x7:0xfffffe42 x19=0x00000000
      101055000	     10104	800033f4	011f90b3	sll	x1,x31,x17	 x31:0x0000000e x17:0x80002e64  x1=0x000000e0
      101065000	     10105	800033f8	00078c63	beq	x15,x0,80003410	 x15:0x00005e52  x0:0x00000000
      101075000	     10106	800033fc	e0aab993	sltiu	x19,x21,-502	 x21:0x800033e2 x19=0x00000001
      101085000	     10107	80003400	01bb8d33	add	x26,x23,x27	 x23:0x00000000 x27:0x00000001 x26=0x00000001
      101095000	     10108	80003404	006bd513	srli	x10,x23,0x6	 x23:0x00000000 x10=0x00000000
      101105000	     10109	80003408	015dfa33	and	x20,x27,x21	 x27:0x00000001 x21:0x800033e2 x20=0x00000000
      101115000	     10110	8000340c	00000013	addi	x0,x0,0	  x0:0x00000000
      101125000	     10111	80003410	000bd233	srl	x4,x23,x0	 x23:0x00000000  x0:0x00000000  x4=0x00000000
      101135000	     10112	80003414	02b4d663	bge	x9,x11,80003440	  x9:0x00000001 x11:0x00000001
      101145000	     10113	00000000	00000013	addi	x0,x0,0	  x0:0x00000000
      101155000	     10114	8000343c	00000013	addi	x0,x0,0	  x0:0x00000000
      101165000	     10115	80003440	0495f463	bgeu	x11,x9,80003488	 x11:0x00000001  x9:0x00000001
      101175000	     10116	00000000	00000013	addi	x0,x0,0	  x0:0x00000000
      101185000	     10117	80003484	00000013	addi	x0,x0,0	  x0:0x00000000
      101195000	     10118	80003488	41e504b3	sub	x9,x10,x30	 x10:0x00000000 x30:0x80002d88  x9=0x7fffd278
      101205000	     10119	8000348c	0217d1b7	lui	x3,0x217d	  x3=0x0217d000
      101215000	     10120	80003490	010772b3	and	x5,x14,x16	 x14:0x080009ee x16:0x00000000  x5=0x00000000
      101225000	     10121	80003494	00578c33	add	x24,x15,x5	 x15:0x00005e52  x5:0x00000000 x24=0x00005e52
      101235000	     10122	80003498	01cb6463	bltu	x22,x28,800034a0	 x22:0x0000181d x28:0x80009eec
      101245000	     10123	00000000	00000013	addi	x0,x0,0	  x0:0x00000000
      101255000	     10124	8000349c	00000013	addi	x0,x0,0	  x0:0x00000000
      101265000	     10125	800034a0	026d7863	bgeu	x26,x6,800034d0	 x26:0x00000001  x6:0x00000000
      101275000	     10126	00000000	00000013	addi	x0,x0,0	  x0:0x00000000
      101285000	     10127	800034cc	00000013	addi	x0,x0,0	  x0:0x00000000
      101295000	     10128	800034d0	7130ef13	ori	x30,x1,1811	  x1:0x000000e0 x30=0x000007f3
      101305000	     10129	800034d4	03710463	beq	x2,x23,800034fc	  x2:0x14520000 x23:0x00000000
      101315000	     10130	800034d8	98c20213	addi	x4,x4,-1652	  x4:0x00000000  x4=0xfffff98c
      101325000	     10131	800034dc	002d35b3	sltu	x11,x26,x2	 x26:0x00000001  x2:0x14520000 x11=0x00000001
      101335000	     10132	800034e0	0074e263	bltu	x9,x7,800034e4	  x9:0x7fffd278  x7:0xfffffe42
      101345000	     10133	00000000	00000013	addi	x0,x0,0	  x0:0x00000000
      101355000	     10134	800034e0	00000013	addi	x0,x0,0	  x0:0x00000000
      101365000	     10135	800034e4	5ef18e93	addi	x29,x3,1519	  x3:0x0217d000 x29=0x0217d5ef
      101375000	     10136	800034e8	1be43613	sltiu	x12,x8,446	  x8:0x80009fc4 x12=0x00000000
      101385000	     10137	800034ec	ed5f0e93	addi	x29,x30,-299	 x30:0x000007f3 x29=0x000006c8
      101395000	     10138	800034f0	00585c13	srli	x24,x16,0x5	 x16:0x00000000 x24=0x00000000
      101405000	     10139	800034f4	00abdc63	bge	x23,x10,8000350c	 x23:0x00000000 x10:0x00000000
      101415000	     10140	00000000	00000013	addi	x0,x0,0	  x0:0x00000000
      101425000	     10141	80003508	00000013	addi	x0,x0,0	  x0:0x00000000
      101435000	     10142	8000350c	01c18033	add	x0,x3,x28	  x3:0x0217d000 x28:0x80009eec
      101445000	     10143	80003510	01b09a33	sll	x20,x1,x27	  x1:0x000000e0 x27:0x00000001 x20=0x000001c0
      101455000	     10144	80003514	408b0ab3	sub	x21,x22,x8	 x22:0x0000181d  x8:0x80009fc4 x21=0x7fff7859
      101465000	     10145	80003518	208b6f93	ori	x31,x22,520	 x22:0x0000181d x31=0x00001a1d
      101475000	     10146	8000351c	00145fb3	srl	x31,x8,x1	  x8:0x80009fc4  x1:0x000000e0 x31=0x80009fc4
      101485000	     10147	80003520	01595993	srli	x19,x18,0x15	 x18:0x00000001 x19=0x00000000
      101495000	     10148	80003524	00000013	addi	x0,x0,0	  x0:0x00000000
      101505000	     10149	80003528	01be9f33	sll	x30,x29,x27	 x29:0x000006c8 x27:0x00000001 x30=0x00000d90
      101515000	     10150	8000352c	01eb0263	beq	x22,x30,80003530	 x22:0x0000181d x30:0x00000d90
      101525000	     10151	80003530	59773993	sltiu	x19,x14,1431	 x14:0x080009ee x19=0x00000000
      101535000	     10152	80003534	41cc8bb3	sub	x23,x25,x28	 x25:0xff000060 x28:0x80009eec x23=0x7eff6174
      101545000	     10153	80003538	0018c0b3	xor	x1,x17,x1	 x17:0x80002e64  x1:0x000000e0  x1=0x80002e84
      101555000	     10154	8000353c	01710033	add	x0,x2,x23	  x2:0x14520000 x23:0x7eff6174
      101565000	     10155	80003540	008f75b3	and	x11,x30,x8	 x30:0x00000d90  x8:0x80009fc4 x11=0x00000d80
      101575000	     10156	80003544	00a2d213	srli	x4,x5,0xa	  x5:0x00000000  x4=0x00000000
      101585000	     10157	80003548	f77d0e93	addi	x29,x26,-137	 x26:0x00000001 x29=0xffffff78
      101595000	     10158	8000354c	009eb3b3	sltu	x7,x29,x9	 x29:0xffffff78  x9:0x7fffd278  x7=0x00000000
      101605000	     10159	80003550	0140bbb3	sltu	x23,x1,x20	  x1:0x80002e84 x20:0x000001c0 x23=0x00000000
      101615000	     10160	80003554	ea10bd93	sltiu	x27,x1,-351	  x1:0x80002e84 x27=0x00000001
      101625000	     10161	80003558	784f9d17	auipc	x26,0x784f9	 x26=0xf84fc554
      101635000	     10162	8000355c	41c65db3	sra	x27,x12,x28	 x12:0x00000000 x28:0x80009eec x27=0x00000000
      101645000	     10163	80003560	05f4e863	bltu	x9,x31,800035b0	  x9:0x7fffd278 x31:0x80009fc4
      101655000	     10164	00000000	00000013	addi	x0,x0,0	  x0:0x00000000
      101665000	     10165	800035ac	00000013	addi	x0,x0,0	  x0:0x00000000
      101675000	     10166	800035b0	43803097	auipc	x1,0x43803	  x1=0xc38065ac
      101685000	     10167	800035b4	bc5f4493	xori	x9,x30,-1083	 x30:0x00000d90  x9=0xfffff655
      101695000	     10168	800035b8	00dfc663	blt	x31,x13,800035c4	 x31:0x80009fc4 x13:0x00006074
      101705000	     10169	00000000	00000013	addi	x0,x0,0	  x0:0x00000000
      101715000	     10170	800035c0	00000013	addi	x0,x0,0	  x0:0x00000000
      101725000	     10171	800035c4	0169d633	srl	x12,x19,x22	 x19:0x00000000 x22:0x0000181d x12=0x00000000
      101735000	     10172	800035c8	b4c6ec13	ori	x24,x13,-1204	 x13:0x00006074 x24=0xfffffb7c
      101745000	     10173	800035cc	01d6f033	and	x0,x13,x29	 x13:0x00006074 x29:0xffffff78
      101755000	     10174	800035d0	007e1d33	sll	x26,x28,x7	 x28:0x80009eec  x7:0x00000000 x26=0x80009eec
      101765000	     10175	800035d4	003e9913	slli	x18,x29,0x3	 x29:0xffffff78 x18=0xfffffbc0
      101775000	     10176	800035d8	01eb88b3	add	x17,x23,x30	 x23:0x00000000 x30:0x00000d90 x17=0x00000d90
      101785000	     10177	800035dc	4027da33	sra	x20,x15,x2	 x15:0x00005e52  x2:0x14520000 x20=0x00005e52
      101795000	     10178	800035e0	40c7d533	sra	x10,x15,x12	 x15:0x00005e52 x12:0x00000000 x10=0x00005e52
      101805000	     10179	800035e4	01056863	bltu	x10,x16,800035f4	 x10:0x00005e52 x16:0x00000000
      101815000	     10180	800035e8	024ac463	blt	x21,x4,80003610	 x21:0x7fff7859  x4:0x00000000
      101825000	     10181	800035ec	c34c2693	slti	x13,x24,-972	 x24:0xfffffb7c x13=0x00000001
      101835000	     10182	800035f0	014875b3	and	x11,x16,x20	 x16:0x00000000 x20:0x00005e52 x11=0x00000000
      101845000	     10183	800035f4	00869bb3	sll	x23,x13,x8	 x13:0x00000001  x8:0x80009fc4 x23=0x00000010
      101855000	     10184	800035f8	00d5fb33	and	x22,x11,x13	 x11:0x00000000 x13:0x00000001 x22=0x00000000
      101865000	     10185	800035fc	00000013	addi	x0,x0,0	  x0:0x00000000
      101875000	     10186	80003600	0258f663	bgeu	x17,x5,8000362c	 x17:0x00000d90  x5:0x00000000
      101885000	     10187	00000000	00000013	addi	x0,x0,0	  x0:0x00000000
      101895000	     10188	80003628	00000013	addi	x0,x0,0	  x0:0x00000000
      101905000	     10189	8000362c	0057d2b3	srl	x5,x15,x5	 x15:0x00005e52  x5:0x00000000  x5=0x00005e52
      101915000	     10190	80003630	00000013	addi	x0,x0,0	  x0:0x00000000
      101925000	     10191	80003634	003f14b3	sll	x9,x30,x3	 x30:0x00000d90  x3:0x0217d000  x9=0x00000d90
      101935000	     10192	80003638	00a79a33	sll	x20,x15,x10	 x15:0x00005e52 x10:0x00005e52 x20=0x79480000
      101945000	     10193	8000363c	01b8acb3	slt	x25,x17,x27	 x17:0x00000d90 x27:0x00000000 x25=0x00000000
      101955000	     10194	80003640	059fc663	blt	x31,x25,8000368c	 x31:0x80009fc4 x25:0x00000000
      101965000	     10195	00000000	00000013	addi	x0,x0,0	  x0:0x00000000
      101975000	     10196	80003688	00000013	addi	x0,x0,0	  x0:0x00000000
      101985000	     10197	8000368c	011866b3	or	x13,x16,x17	 x16:0x00000000 x17:0x00000d90 x13=0x00000d90
      101995000	     10198	80003690	4075d593	srai	x11,x11,0x7	 x11:0x00000000 x11=0x00000000
      102005000	     10199	80003694	01b6d213	srli	x4,x13,0x1b	 x13:0x00000d90  x4=0x00000000
      102015000	     10200	80003698	00b45cb3	srl	x25,x8,x11	  x8:0x80009fc4 x11:0x00000000 x25=0x80009fc4
      102025000	     10201	8000369c	70410537	lui	x10,0x70410	 x10=0x70410000
      102035000	     10202	800036a0	432f4513	xori	x10,x30,1074	 x30:0x00000d90 x10=0x000009a2
      102045000	     10203	800036a4	3dd06213	ori	x4,x0,989	  x0:0x00000000  x4=0x000003dd
      102055000	     10204	800036a8	69858c93	addi	x25,x11,1688	 x11:0x00000000 x25=0x00000698
      102065000	     10205	800036ac	003f58b3	srl	x17,x30,x3	 x30:0x00000d90  x3:0x0217d000 x17=0x00000d90
      102075000	     10206	800036b0	00000013	addi	x0,x0,0	  x0:0x00000000
      102085000	     10207	800036b4	01189e93	slli	x29,x17,0x11	 x17:0x00000d90 x29=0x1b200000
      102095000	     10208	800036b8	01011493	slli	x9,x2,0x10	  x2:0x14520000  x9=0x00000000
      102105000	     10209	800036bc	00b6ce63	blt	x13,x11,800036d8	 x13:0x00000d90 x11:0x00000000
      102115000	     10210	800036c0	bd044b13	xori	x22,x8,-1072	  x8:0x80009fc4 x22=0x7fff6414
      102125000	     10211	800036c4	0004e863	bltu	x9,x0,800036d4	  x9:0x00000000  x0:0x00000000
      102135000	     10212	800036c8	0384c463	blt	x9,x24,800036f0	  x9:0x00000000 x24:0xfffffb7c
      102145000	     10213	800036cc	045fe263	bltu	x31,x5,80003710	 x31:0x80009fc4  x5:0x00005e52
      102155000	     10214	800036d0	fa4cfc13	andi	x24,x25,-92	 x25:0x00000698 x24=0x00000680
      102165000	     10215	800036d4	44b08293	addi	x5,x1,1099	  x1:0xc38065ac  x5=0xc38069f7
      102175000	     10216	800036d8	eeaa5037	lui	x0,0xeeaa5	
      102185000	     10217	800036dc	01d1ccb3	xor	x25,x3,x29	  x3:0x0217d000 x29:0x1b200000 x25=0x1937d000
      102195000	     10218	800036e0	001ed933	srl	x18,x29,x1	 x29:0x1b200000  x1:0xc38065ac x18=0x0001b200
      102205000	     10219	800036e4	40360bb3	sub	x23,x12,x3	 x12:0x00000000  x3:0x0217d000 x23=0xfde83000
      102215000	     10220	800036e8	01555f93	srli	x31,x10,0x15	 x10:0x000009a2 x31=0x00000000
      102225000	     10221	800036ec	05cae663	bltu	x21,x28,80003738	 x21:0x7fff7859 x28:0x80009eec
      102235000	     10222	00000000	00000013	addi	x0,x0,0	  x0:0x00000000
      102245000	     10223	80003734	00000013	addi	x0,x0,0	  x0:0x00000000
      102255000	     10224	80003738	be587713	andi	x14,x16,-1051	 x16:0x00000000 x14=0x00000000
      102265000	     10225	8000373c	00253db3	sltu	x27,x10,x2	 x10:0x000009a2  x2:0x14520000 x27=0x00000001
      102275000	     10226	80003740	0b39ad13	slti	x26,x19,179	 x19:0x00000000 x26=0x00000001
      102285000	     10227	80003744	0140d913	srli	x18,x1,0x14	  x1:0xc38065ac x18=0x00000c38
      102295000	     10228	80003748	f0b10613	addi	x12,x2,-245	  x2:0x14520000 x12=0x1451ff0b
      102305000	     10229	8000374c	419f5933	sra	x18,x30,x25	 x30:0x00000d90 x25:0x1937d000 x18=0x00000d90
      102315000	     10230	80003750	affd0c93	addi	x25,x26,-1281	 x26:0x00000001 x25=0xfffffb00
      102325000	     10231	80003754	01800c6f	jal	x24,80003754	 x24=0x80003754
      102335000	     10232	00000000	00000013	addi	x0,x0,0	  x0:0x00000000
      102345000	     10233	80003768	00000013	addi	x0,x0,0	  x0:0x00000000
      102355000	     10234	8000376c	02c0036f	jal	x6,8000376c	  x6=0x8000376c
      102365000	     10235	00000000	00000013	addi	x0,x0,0	  x0:0x00000000
      102375000	     10236	80003794	00000013	addi	x0,x0,0	  x0:0x00000000
      102385000	     10237	80003798	ff9ff0ef	jal	x1,80003798	  x1=0x80003798
      102395000	     10238	00000000	00000013	addi	x0,x0,0	  x0:0x00000000
      102405000	     10239	8000378c	00000013	addi	x0,x0,0	  x0:0x00000000
      102415000	     10240	80003790	fc9ff0ef	jal	x1,80003790	  x1=0x80003790
      102425000	     10241	00000000	00000013	addi	x0,x0,0	  x0:0x00000000
      102435000	     10242	80003754	00000013	addi	x0,x0,0	  x0:0x00000000
      102445000	     10243	80003758	034000ef	jal	x1,80003758	  x1=0x80003758
      102455000	     10244	00000000	00000013	addi	x0,x0,0	  x0:0x00000000
      102465000	     10245	80003788	00000013	addi	x0,x0,0	  x0:0x00000000
      102475000	     10246	8000378c	0200026f	jal	x4,8000378c	  x4=0x8000378c
      102485000	     10247	00000000	00000013	addi	x0,x0,0	  x0:0x00000000
      102495000	     10248	800037a8	00000013	addi	x0,x0,0	  x0:0x00000000
      102505000	     10249	800037ac	fb1ff36f	jal	x6,800037ac	  x6=0x800037ac
      102515000	     10250	00000000	00000013	addi	x0,x0,0	  x0:0x00000000
      102525000	     10251	80003758	00000013	addi	x0,x0,0	  x0:0x00000000
      102535000	     10252	8000375c	0080036f	jal	x6,8000375c	  x6=0x8000375c
      102545000	     10253	00000000	00000013	addi	x0,x0,0	  x0:0x00000000
      102555000	     10254	80003760	00000013	addi	x0,x0,0	  x0:0x00000000
      102565000	     10255	80003764	ffdff2ef	jal	x5,80003764	  x5=0x80003764
      102575000	     10256	00000000	00000013	addi	x0,x0,0	  x0:0x00000000
      102585000	     10257	8000375c	00000013	addi	x0,x0,0	  x0:0x00000000
      102595000	     10258	80003760	01c001ef	jal	x3,80003760	  x3=0x80003760
      102605000	     10259	00000000	00000013	addi	x0,x0,0	  x0:0x00000000
      102615000	     10260	80003778	00000013	addi	x0,x0,0	  x0:0x00000000
      102625000	     10261	8000377c	fedff0ef	jal	x1,8000377c	  x1=0x8000377c
      102635000	     10262	00000000	00000013	addi	x0,x0,0	  x0:0x00000000
      102645000	     10263	80003764	00000013	addi	x0,x0,0	  x0:0x00000000
      102655000	     10264	80003768	010000ef	jal	x1,80003768	  x1=0x80003768
      102665000	     10265	00000000	00000013	addi	x0,x0,0	  x0:0x00000000
      102675000	     10266	80003774	00000013	addi	x0,x0,0	  x0:0x00000000
      102685000	     10267	80003778	008000ef	jal	x1,80003778	  x1=0x80003778
      102695000	     10268	00000000	00000013	addi	x0,x0,0	  x0:0x00000000
      102705000	     10269	8000377c	00000013	addi	x0,x0,0	  x0:0x00000000
      102715000	     10270	80003780	00400c6f	jal	x24,80003780	 x24=0x80003780
      102725000	     10271	00000000	00000013	addi	x0,x0,0	  x0:0x00000000
      102735000	     10272	80003780	00000013	addi	x0,x0,0	  x0:0x00000000
      102745000	     10273	80003784	ff1ff0ef	jal	x1,80003784	  x1=0x80003784
      102755000	     10274	00000000	00000013	addi	x0,x0,0	  x0:0x00000000
      102765000	     10275	80003770	00000013	addi	x0,x0,0	  x0:0x00000000
      102775000	     10276	80003774	02c000ef	jal	x1,80003774	  x1=0x80003774
      102785000	     10277	00000000	00000013	addi	x0,x0,0	  x0:0x00000000
      102795000	     10278	8000379c	00000013	addi	x0,x0,0	  x0:0x00000000
      102805000	     10279	800037a0	ffdffc6f	jal	x24,800037a0	 x24=0x800037a0
      102815000	     10280	00000000	00000013	addi	x0,x0,0	  x0:0x00000000
      102825000	     10281	80003798	00000013	addi	x0,x0,0	  x0:0x00000000
      102835000	     10282	8000379c	00c000ef	jal	x1,8000379c	  x1=0x8000379c
      102845000	     10283	00000000	00000013	addi	x0,x0,0	  x0:0x00000000
      102855000	     10284	800037a4	00000013	addi	x0,x0,0	  x0:0x00000000
      102865000	     10285	800037a8	fc9ff0ef	jal	x1,800037a8	  x1=0x800037a8
      102875000	     10286	00000000	00000013	addi	x0,x0,0	  x0:0x00000000
      102885000	     10287	8000376c	00000013	addi	x0,x0,0	  x0:0x00000000
      102895000	     10288	80003770	024000ef	jal	x1,80003770	  x1=0x80003770
      102905000	     10289	00000000	00000013	addi	x0,x0,0	  x0:0x00000000
      102915000	     10290	80003790	00000013	addi	x0,x0,0	  x0:0x00000000
      102925000	     10291	80003794	0100036f	jal	x6,80003794	  x6=0x80003794
      102935000	     10292	00000000	00000013	addi	x0,x0,0	  x0:0x00000000
      102945000	     10293	800037a0	00000013	addi	x0,x0,0	  x0:0x00000000
      102955000	     10294	800037a4	fe5ff36f	jal	x6,800037a4	  x6=0x800037a4
      102965000	     10295	00000000	00000013	addi	x0,x0,0	  x0:0x00000000
      102975000	     10296	80003784	00000013	addi	x0,x0,0	  x0:0x00000000
      102985000	     10297	80003788	0280016f	jal	x2,80003788	  x2=0x80003788
      102995000	     10298	00000000	00000013	addi	x0,x0,0	  x0:0x00000000
      103005000	     10299	800037ac	00000013	addi	x0,x0,0	  x0:0x00000000
      103015000	     10300	800037b0	00000013	addi	x0,x0,0	  x0:0x00000000
      103025000	     10301	800037b4	52c94213	xori	x4,x18,1324	 x18:0x00000d90  x4=0x000008bc
      103035000	     10302	800037b8	0160f663	bgeu	x1,x22,800037c4	  x1:0x80003770 x22:0x7fff6414
      103045000	     10303	00000000	00000013	addi	x0,x0,0	  x0:0x00000000
      103055000	     10304	800037c0	00000013	addi	x0,x0,0	  x0:0x00000000
      103065000	     10305	800037c4	019d0663	beq	x26,x25,800037d0	 x26:0x00000001 x25:0xfffffb00
      103075000	     10306	800037c8	01661213	slli	x4,x12,0x16	 x12:0x1451ff0b  x4=0xc2c00000
      103085000	     10307	800037cc	03298a63	beq	x19,x18,80003800	 x19:0x00000000 x18:0x00000d90
      103095000	     10308	800037d0	03cbf863	bgeu	x23,x28,80003800	 x23:0xfde83000 x28:0x80009eec
      103105000	     10309	00000000	00000013	addi	x0,x0,0	  x0:0x00000000
      103115000	     10310	800037fc	00000013	addi	x0,x0,0	  x0:0x00000000
      103125000	     10311	80003800	00ec1c63	bne	x24,x14,80003818	 x24:0x800037a0 x14:0x00000000
      103135000	     10312	00000000	00000013	addi	x0,x0,0	  x0:0x00000000
      103145000	     10313	80003814	00000013	addi	x0,x0,0	  x0:0x00000000
      103155000	     10314	80003818	00d47db3	and	x27,x8,x13	  x8:0x80009fc4 x13:0x00000d90 x27=0x00000d80
      103165000	     10315	8000381c	ffa62a93	slti	x21,x12,-6	 x12:0x1451ff0b x21=0x00000000
      103175000	     10316	80003820	f7e10b17	auipc	x22,0xf7e10	 x22=0x77e1381c
      103185000	     10317	80003824	00e59f93	slli	x31,x11,0xe	 x11:0x00000000 x31=0x00000000
      103195000	     10318	80003828	014c3c33	sltu	x24,x24,x20	 x24:0x800037a0 x20:0x79480000 x24=0x00000000
      103205000	     10319	8000382c	00784ab3	xor	x21,x16,x7	 x16:0x00000000  x7:0x00000000 x21=0x00000000
      103215000	     10320	80003830	d0776193	ori	x3,x14,-761	 x14:0x00000000  x3=0xfffffd07
      103225000	     10321	80003834	7fdeaa17	auipc	x20,0x7fdea	 x20=0xffded830
      103235000	     10322	80003838	01b664b3	or	x9,x12,x27	 x12:0x1451ff0b x27:0x00000d80  x9=0x1451ff8b
      103245000	     10323	8000383c	08d87c13	andi	x24,x16,141	 x16:0x00000000 x24=0x00000000
      103255000	     10324	80003840	018fd333	srl	x6,x31,x24	 x31:0x00000000 x24:0x00000000  x6=0x00000000
      103265000	     10325	80003844	408e5bb3	sra	x23,x28,x8	 x28:0x80009eec  x8:0x80009fc4 x23=0xf80009ee
      103275000	     10326	80003848	00000013	addi	x0,x0,0	  x0:0x00000000
      103285000	     10327	8000384c	408050b3	sra	x1,x0,x8	  x0:0x00000000  x8:0x80009fc4  x1=0x00000000
      103295000	     10328	80003850	0260cc63	blt	x1,x6,80003888	  x1:0x00000000  x6:0x00000000
      103305000	     10329	80003854	20d77a13	andi	x20,x14,525	 x14:0x00000000 x20=0x00000000
      103315000	     10330	80003858	04a34663	blt	x6,x10,800038a4	  x6:0x00000000 x10:0x000009a2
      103325000	     10331	00000000	00000013	addi	x0,x0,0	  x0:0x00000000
      103335000	     10332	800038a0	00000013	addi	x0,x0,0	  x0:0x00000000
      103345000	     10333	800038a4	013ed393	srli	x7,x29,0x13	 x29:0x1b200000  x7=0x00000364
      103355000	     10334	800038a8	8c3d6b93	ori	x23,x26,-1853	 x26:0x00000001 x23=0xfffff8c3
      103365000	     10335	800038ac	00000013	addi	x0,x0,0	  x0:0x00000000
      103375000	     10336	800038b0	05cc9063	bne	x25,x28,800038f0	 x25:0xfffffb00 x28:0x80009eec
      103385000	     10337	00000000	00000013	addi	x0,x0,0	  x0:0x00000000
      103395000	     10338	800038ec	00000013	addi	x0,x0,0	  x0:0x00000000
      103405000	     10339	800038f0	00000013	addi	x0,x0,0	  x0:0x00000000
      103415000	     10340	800038f4	419850b3	sra	x1,x16,x25	 x16:0x00000000 x25:0xfffffb00  x1=0x00000000
      103425000	     10341	800038f8	00ad57b3	srl	x15,x26,x10	 x26:0x00000001 x10:0x000009a2 x15=0x00000000
      103435000	     10342	800038fc	0016a133	slt	x2,x13,x1	 x13:0x00000d90  x1:0x00000000  x2=0x00000000
      103445000	     10343	80003900	4de16d93	ori	x27,x2,1246	  x2:0x00000000 x27=0x000004de
      103455000	     10344	80003904	d3ffbbb7	lui	x23,0xd3ffb	 x23=0xd3ffb000
      103465000	     10345	80003908	0ea3f013	andi	x0,x7,234	  x7:0x00000364
      103475000	     10346	8000390c	038ee663	bltu	x29,x24,80003938	 x29:0x1b200000 x24:0x00000000
      103485000	     10347	80003910	12916f97	auipc	x31,0x12916	 x31=0x9291990c
      103495000	     10348	80003914	016ed2b3	srl	x5,x29,x22	 x29:0x1b200000 x22:0x77e1381c  x5=0x00000001
      103505000	     10349	80003918	00175bb3	srl	x23,x14,x1	 x14:0x00000000  x1:0x00000000 x23=0x00000000
      103515000	     10350	8000391c	72870213	addi	x4,x14,1832	 x14:0x00000000  x4=0x00000728
      103525000	     10351	80003920	41e1bd13	sltiu	x26,x3,1054	  x3:0xfffffd07 x26=0x00000000
      103535000	     10352	80003924	9ea5f293	andi	x5,x11,-1558	 x11:0x00000000  x5=0x00000000
      103545000	     10353	80003928	40bbdb33	sra	x22,x23,x11	 x23:0x00000000 x11:0x00000000 x22=0x00000000
      103555000	     10354	8000392c	00ff95b3	sll	x11,x31,x15	 x31:0x9291990c x15:0x00000000 x11=0x9291990c
      103565000	     10355	80003930	01f10463	beq	x2,x31,80003938	  x2:0x00000000 x31:0x9291990c
      103575000	     10356	80003934	0133f6b3	and	x13,x7,x19	  x7:0x00000364 x19:0x00000000 x13=0x00000000
      103585000	     10357	80003938	0073dab3	srl	x21,x7,x7	  x7:0x00000364  x7:0x00000364 x21=0x00000036
      103595000	     10358	8000393c	02d87863	bgeu	x16,x13,8000396c	 x16:0x00000000 x13:0x00000000
      103605000	     10359	00000000	00000013	addi	x0,x0,0	  x0:0x00000000
      103615000	     10360	80003968	00000013	addi	x0,x0,0	  x0:0x00000000
      103625000	     10361	8000396c	00000013	addi	x0,x0,0	  x0:0x00000000
      103635000	     10362	80003970	0314e463	bltu	x9,x17,80003998	  x9:0x1451ff8b x17:0x00000d90
      103645000	     10363	80003974	01194463	blt	x18,x17,8000397c	 x18:0x00000d90 x17:0x00000d90
      103655000	     10364	80003978	05af1063	bne	x30,x26,800039b8	 x30:0x00000d90 x26:0x00000000
      103665000	     10365	00000000	00000013	addi	x0,x0,0	  x0:0x00000000
      103675000	     10366	800039b4	00000013	addi	x0,x0,0	  x0:0x00000000
      103685000	     10367	800039b8	04a5d063	bge	x11,x10,800039f8	 x11:0x9291990c x10:0x000009a2
      103695000	     10368	800039bc	052fe463	bltu	x31,x18,80003a04	 x31:0x9291990c x18:0x00000d90
      103705000	     10369	800039c0	7ab58713	addi	x14,x11,1963	 x11:0x9291990c x14=0x9291a0b7
      103715000	     10370	800039c4	0122f633	and	x12,x5,x18	  x5:0x00000000 x18:0x00000d90 x12=0x00000000
      103725000	     10371	800039c8	00921cb3	sll	x25,x4,x9	  x4:0x00000728  x9:0x1451ff8b x25=0x00394000
      103735000	     10372	800039cc	04f20663	beq	x4,x15,80003a18	  x4:0x00000728 x15:0x00000000
      103745000	     10373	800039d0	45bdf913	andi	x18,x27,1115	 x27:0x000004de x18=0x0000045a
      103755000	     10374	800039d4	4969f3b7	lui	x7,0x4969f	  x7=0x4969f000
      103765000	     10375	800039d8	0219e663	bltu	x19,x1,80003a04	 x19:0x00000000  x1:0x00000000
      103775000	     10376	800039dc	c6d43f93	sltiu	x31,x8,-915	  x8:0x80009fc4 x31=0x00000001
      103785000	     10377	800039e0	71f725b7	lui	x11,0x71f72	 x11=0x71f72000
      103795000	     10378	800039e4	00d2a8b3	slt	x17,x5,x13	  x5:0x00000000 x13:0x00000000 x17=0x00000000
      103805000	     10379	800039e8	01362333	slt	x6,x12,x19	 x12:0x00000000 x19:0x00000000  x6=0x00000000
      103815000	     10380	800039ec	018d0863	beq	x26,x24,800039fc	 x26:0x00000000 x24:0x00000000
      103825000	     10381	00000000	00000013	addi	x0,x0,0	  x0:0x00000000
      103835000	     10382	800039f8	00000013	addi	x0,x0,0	  x0:0x00000000
      103845000	     10383	800039fc	01be5213	srli	x4,x28,0x1b	 x28:0x80009eec  x4=0x00000010
      103855000	     10384	80003a00	012e7233	and	x4,x28,x18	 x28:0x80009eec x18:0x0000045a  x4=0x00000448
      103865000	     10385	80003a04	01550fb3	add	x31,x10,x21	 x10:0x000009a2 x21:0x00000036 x31=0x000009d8
      103875000	     10386	80003a08	022b5863	bge	x22,x2,80003a38	 x22:0x00000000  x2:0x00000000
      103885000	     10387	00000000	00000013	addi	x0,x0,0	  x0:0x00000000
      103895000	     10388	80003a34	00000013	addi	x0,x0,0	  x0:0x00000000
      103905000	     10389	80003a38	04ef8263	beq	x31,x14,80003a7c	 x31:0x000009d8 x14:0x9291a0b7
      103915000	     10390	80003a3c	d20a9c17	auipc	x24,0xd20a9	 x24=0x520aca38
      103925000	     10391	80003a40	0102f933	and	x18,x5,x16	  x5:0x00000000 x16:0x00000000 x18=0x00000000
      103935000	     10392	80003a44	00226263	bltu	x4,x2,80003a48	  x4:0x00000448  x2:0x00000000
      103945000	     10393	80003a48	9fc0bd13	sltiu	x26,x1,-1540	  x1:0x00000000 x26=0x00000001
      103955000	     10394	80003a4c	9c7d7a93	andi	x21,x26,-1593	 x26:0x00000001 x21=0x00000001
      103965000	     10395	80003a50	016cdc93	srli	x25,x25,0x16	 x25:0x00394000 x25=0x00000000
      103975000	     10396	80003a54	417d8db3	sub	x27,x27,x23	 x27:0x000004de x23:0x00000000 x27=0x000004de
      103985000	     10397	80003a58	003c8c63	beq	x25,x3,80003a70	 x25:0x00000000  x3:0xfffffd07
      103995000	     10398	80003a5c	e07e0b93	addi	x23,x28,-505	 x28:0x80009eec x23=0x80009cf3
      104005000	     10399	80003a60	1646fa13	andi	x20,x13,356	 x13:0x00000000 x20=0x00000000
      104015000	     10400	80003a64	e37c4d13	xori	x26,x24,-457	 x24:0x520aca38 x26=0xadf5340f
      104025000	     10401	80003a68	01125c33	srl	x24,x4,x17	  x4:0x00000448 x17:0x00000000 x24=0x00000448
      104035000	     10402	80003a6c	01b28f33	add	x30,x5,x27	  x5:0x00000000 x27:0x000004de x30=0x000004de
      104045000	     10403	80003a70	00dc7e63	bgeu	x24,x13,80003a8c	 x24:0x00000448 x13:0x00000000
      104055000	     10404	00000000	00000013	addi	x0,x0,0	  x0:0x00000000
      104065000	     10405	80003a88	00000013	addi	x0,x0,0	  x0:0x00000000
      104075000	     10406	80003a8c	04555663	bge	x10,x5,80003ad8	 x10:0x000009a2  x5:0x00000000
      104085000	     10407	00000000	00000013	addi	x0,x0,0	  x0:0x00000000
      104095000	     10408	80003ad4	00000013	addi	x0,x0,0	  x0:0x00000000
      104105000	     10409	80003ad8	01d85fb3	srl	x31,x16,x29	 x16:0x00000000 x29:0x1b200000 x31=0x00000000
      104115000	     10410	80003adc	c5573397	auipc	x7,0xc5573	  x7=0x45576ad8
      104125000	     10411	80003ae0	016d5333	srl	x6,x26,x22	 x26:0xadf5340f x22:0x00000000  x6=0xadf5340f
      104135000	     10412	80003ae4	0196ba33	sltu	x20,x13,x25	 x13:0x00000000 x25:0x00000000 x20=0x00000000
      104145000	     10413	80003ae8	005e1a33	sll	x20,x28,x5	 x28:0x80009eec  x5:0x00000000 x20=0x80009eec
      104155000	     10414	80003aec	01167633	and	x12,x12,x17	 x12:0x00000000 x17:0x00000000 x12=0x00000000
      104165000	     10415	80003af0	4018d593	srai	x11,x17,0x1	 x17:0x00000000 x11=0x00000000
      104175000	     10416	80003af4	00ab37b3	sltu	x15,x22,x10	 x22:0x00000000 x10:0x000009a2 x15=0x00000001
      104185000	     10417	80003af8	000cdc33	srl	x24,x25,x0	 x25:0x00000000  x0:0x00000000 x24=0x00000000
      104195000	     10418	80003afc	a6c94293	xori	x5,x18,-1428	 x18:0x00000000  x5=0xfffffa6c
      104205000	     10419	80003b00	01a220b3	slt	x1,x4,x26	  x4:0x00000448 x26:0xadf5340f  x1=0x00000000
      104215000	     10420	80003b04	017faa33	slt	x20,x31,x23	 x31:0x00000000 x23:0x80009cf3 x20=0x00000000
      104225000	     10421	80003b08	016ed663	bge	x29,x22,80003b14	 x29:0x1b200000 x22:0x00000000
      104235000	     10422	00000000	00000013	addi	x0,x0,0	  x0:0x00000000
      104245000	     10423	80003b10	00000013	addi	x0,x0,0	  x0:0x00000000
      104255000	     10424	80003b14	007a4733	xor	x14,x20,x7	 x20:0x00000000  x7:0x45576ad8 x14=0x45576ad8
      104265000	     10425	80003b18	c5606c13	ori	x24,x0,-938	  x0:0x00000000 x24=0xfffffc56
      104275000	     10426	80003b1c	403186b3	sub	x13,x3,x3	  x3:0xfffffd07  x3:0xfffffd07 x13=0x00000000
      104285000	     10427	80003b20	02d3cc63	blt	x7,x13,80003b58	  x7:0x45576ad8 x13:0x00000000
      104295000	     10428	80003b24	413b5693	srai	x13,x22,0x13	 x22:0x00000000 x13=0x00000000
      104305000	     10429	80003b28	0082e933	or	x18,x5,x8	  x5:0xfffffa6c  x8:0x80009fc4 x18=0xffffffec
      104315000	     10430	80003b2c	16942d13	slti	x26,x8,361	  x8:0x80009fc4 x26=0x00000001
      104325000	     10431	80003b30	00000013	addi	x0,x0,0	  x0:0x00000000
      104335000	     10432	80003b34	01241113	slli	x2,x8,0x12	  x8:0x80009fc4  x2=0x7f100000
      104345000	     10433	80003b38	0276d463	bge	x13,x7,80003b60	 x13:0x00000000  x7:0x45576ad8
      104355000	     10434	80003b3c	00dcc6b3	xor	x13,x25,x13	 x25:0x00000000 x13:0x00000000 x13=0x00000000
      104365000	     10435	80003b40	8c78ab93	slti	x23,x17,-1849	 x17:0x00000000 x23=0x00000000
      104375000	     10436	80003b44	01aac863	blt	x21,x26,80003b54	 x21:0x00000001 x26:0x00000001
      104385000	     10437	80003b48	4064d893	srai	x17,x9,0x6	  x9:0x1451ff8b x17=0x005147fe
      104395000	     10438	80003b4c	01bc6ab3	or	x21,x24,x27	 x24:0xfffffc56 x27:0x000004de x21=0xfffffcde
      104405000	     10439	80003b50	045d6263	bltu	x26,x5,80003b94	 x26:0x00000001  x5:0xfffffa6c
      104415000	     10440	00000000	00000013	addi	x0,x0,0	  x0:0x00000000
      104425000	     10441	80003b90	00000013	addi	x0,x0,0	  x0:0x00000000
      104435000	     10442	80003b94	4037d2b3	sra	x5,x15,x3	 x15:0x00000001  x3:0xfffffd07  x5=0x00000000
      104445000	     10443	80003b98	017401b3	add	x3,x8,x23	  x8:0x80009fc4 x23:0x00000000  x3=0x80009fc4
      104455000	     10444	80003b9c	00f83cb3	sltu	x25,x16,x15	 x16:0x00000000 x15:0x00000001 x25=0x00000001
      104465000	     10445	80003ba0	012896b3	sll	x13,x17,x18	 x17:0x005147fe x18:0xffffffec x13=0x147fe000
      104475000	     10446	80003ba4	012a9193	slli	x3,x21,0x12	 x21:0xfffffcde  x3=0xf3780000
      104485000	     10447	80003ba8	d9907a93	andi	x21,x0,-615	  x0:0x00000000 x21=0x00000000
      104495000	     10448	80003bac	019898b3	sll	x17,x17,x25	 x17:0x005147fe x25:0x00000001 x17=0x00a28ffc
      104505000	     10449	80003bb0	65ff6b17	auipc	x22,0x65ff6	 x22=0xe5ff9bac
      104515000	     10450	80003bb4	03509663	bne	x1,x21,80003be0	  x1:0x00000000 x21:0x00000000
      104525000	     10451	80003bb8	3c2d3f97	auipc	x31,0x3c2d3	 x31=0xbc2d6bb4
      104535000	     10452	80003bbc	004fdc63	bge	x31,x4,80003bd4	 x31:0xbc2d6bb4  x4:0x00000448
      104545000	     10453	80003bc0	40b0d913	srai	x18,x1,0xb	  x1:0x00000000 x18=0x00000000
      104555000	     10454	80003bc4	40855293	srai	x5,x10,0x8	 x10:0x000009a2  x5=0x00000009
      104565000	     10455	80003bc8	00426463	bltu	x4,x4,80003bd0	  x4:0x00000448  x4:0x00000448
      104575000	     10456	80003bcc	03488863	beq	x17,x20,80003bfc	 x17:0x00a28ffc x20:0x00000000
      104585000	     10457	80003bd0	82eeb993	sltiu	x19,x29,-2002	 x29:0x1b200000 x19=0x00000001
      104595000	     10458	80003bd4	005cda63	bge	x25,x5,80003be8	 x25:0x00000001  x5:0x00000009
      104605000	     10459	80003bd8	03809863	bne	x1,x24,80003c08	  x1:0x00000000 x24:0xfffffc56
      104615000	     10460	00000000	00000013	addi	x0,x0,0	  x0:0x00000000
      104625000	     10461	80003c04	00000013	addi	x0,x0,0	  x0:0x00000000
      104635000	     10462	80003c08	01f6c533	xor	x10,x13,x31	 x13:0x147fe000 x31:0xbc2d6bb4 x10=0xa8528bb4
      104645000	     10463	80003c0c	01ed84b3	add	x9,x27,x30	 x27:0x000004de x30:0x000004de  x9=0x000009bc
      104655000	     10464	80003c10	506284b7	lui	x9,0x50628	  x9=0x50628000
      104665000	     10465	80003c14	ff6aee93	ori	x29,x21,-10	 x21:0x00000000 x29=0xfffffff6
      104675000	     10466	80003c18	00164733	xor	x14,x12,x1	 x12:0x00000000  x1:0x00000000 x14=0x00000000
      104685000	     10467	80003c1c	413cd633	sra	x12,x25,x19	 x25:0x00000001 x19:0x00000001 x12=0x00000000
      104695000	     10468	80003c20	02135a63	bge	x6,x1,80003c54	  x6:0xadf5340f  x1:0x00000000
      104705000	     10469	80003c24	410fdd13	srai	x26,x31,0x10	 x31:0xbc2d6bb4 x26=0xffffbc2d
      104715000	     10470	80003c28	00f6f863	bgeu	x13,x15,80003c38	 x13:0x147fe000 x15:0x00000001
      104725000	     10471	00000000	00000013	addi	x0,x0,0	  x0:0x00000000
      104735000	     10472	80003c34	00000013	addi	x0,x0,0	  x0:0x00000000
      104745000	     10473	80003c38	5b6dfd93	andi	x27,x27,1462	 x27:0x000004de x27=0x00000496
      104755000	     10474	80003c3c	00aa3233	sltu	x4,x20,x10	 x20:0x00000000 x10:0xa8528bb4  x4=0x00000001
      104765000	     10475	80003c40	447a2913	slti	x18,x20,1095	 x20:0x00000000 x18=0x00000001
      104775000	     10476	80003c44	009aa933	slt	x18,x21,x9	 x21:0x00000000  x9:0x50628000 x18=0x00000001
      104785000	     10477	80003c48	010e9533	sll	x10,x29,x16	 x29:0xfffffff6 x16:0x00000000 x10=0xfffffff6
      104795000	     10478	80003c4c	00b69393	slli	x7,x13,0xb	 x13:0x147fe000  x7=0xff000000
      104805000	     10479	80003c50	0163e133	or	x2,x7,x22	  x7:0xff000000 x22:0xe5ff9bac  x2=0xffff9bac
      104815000	     10480	80003c54	00dc2b33	slt	x22,x24,x13	 x24:0xfffffc56 x13:0x147fe000 x22=0x00000001
      104825000	     10481	80003c58	00fd6263	bltu	x26,x15,80003c5c	 x26:0xffffbc2d x15:0x00000001
      104835000	     10482	80003c5c	01956a33	or	x20,x10,x25	 x10:0xfffffff6 x25:0x00000001 x20=0xfffffff7
      104845000	     10483	80003c60	05d7e663	bltu	x15,x29,80003cac	 x15:0x00000001 x29:0xfffffff6
      104855000	     10484	00000000	00000013	addi	x0,x0,0	  x0:0x00000000
      104865000	     10485	80003ca8	00000013	addi	x0,x0,0	  x0:0x00000000
      104875000	     10486	80003cac	008e0bb3	add	x23,x28,x8	 x28:0x80009eec  x8:0x80009fc4 x23=0x00013eb0
      104885000	     10487	80003cb0	013b18b3	sll	x17,x22,x19	 x22:0x00000001 x19:0x00000001 x17=0x00000002
      104895000	     10488	80003cb4	005ad6b3	srl	x13,x21,x5	 x21:0x00000000  x5:0x00000009 x13=0x00000000
      104905000	     10489	80003cb8	00000013	addi	x0,x0,0	  x0:0x00000000
      104915000	     10490	80003cbc	00e11233	sll	x4,x2,x14	  x2:0xffff9bac x14:0x00000000  x4=0xffff9bac
      104925000	     10491	80003cc0	401e5713	srai	x14,x28,0x1	 x28:0x80009eec x14=0xc0004f76
      104935000	     10492	80003cc4	40a2d093	srai	x1,x5,0xa	  x5:0x00000009  x1=0x00000000
      104945000	     10493	80003cc8	3d5e6793	ori	x15,x28,981	 x28:0x80009eec x15=0x80009ffd
      104955000	     10494	80003ccc	a2048693	addi	x13,x9,-1504	  x9:0x50628000 x13=0x50627a20
      104965000	     10495	80003cd0	00e41863	bne	x8,x14,80003ce0	  x8:0x80009fc4 x14:0xc0004f76
      104975000	     10496	00000000	00000013	addi	x0,x0,0	  x0:0x00000000
      104985000	     10497	80003cdc	00000013	addi	x0,x0,0	  x0:0x00000000
      104995000	     10498	80003ce0	04210063	beq	x2,x2,80003d20	  x2:0xffff9bac  x2:0xffff9bac
      105005000	     10499	00000000	00000013	addi	x0,x0,0	  x0:0x00000000
      105015000	     10500	80003d1c	00000013	addi	x0,x0,0	  x0:0x00000000
      105025000	     10501	80003d20	045bd063	bge	x23,x5,80003d60	 x23:0x00013eb0  x5:0x00000009
      105035000	     10502	00000000	00000013	addi	x0,x0,0	  x0:0x00000000
      105045000	     10503	80003d5c	00000013	addi	x0,x0,0	  x0:0x00000000
      105055000	     10504	80003d60	00cfb5b3	sltu	x11,x31,x12	 x31:0xbc2d6bb4 x12:0x00000000 x11=0x00000000
      105065000	     10505	80003d64	f6745497	auipc	x9,0xf6745	  x9=0x76748d60
      105075000	     10506	80003d68	96ceca13	xori	x20,x29,-1684	 x29:0xfffffff6 x20=0x0000069a
      105085000	     10507	80003d6c	f8e26a93	ori	x21,x4,-114	  x4:0xffff9bac x21=0xffffffae
      105095000	     10508	80003d70	01965663	bge	x12,x25,80003d7c	 x12:0x00000000 x25:0x00000001
      105105000	     10509	80003d74	005e1cb3	sll	x25,x28,x5	 x28:0x80009eec  x5:0x00000009 x25=0x013dd800
      105115000	     10510	80003d78	029df463	bgeu	x27,x9,80003da0	 x27:0x00000496  x9:0x76748d60
      105125000	     10511	80003d7c	0154b1b3	sltu	x3,x9,x21	  x9:0x76748d60 x21:0xffffffae  x3=0x00000001
      105135000	     10512	80003d80	016cd3b3	srl	x7,x25,x22	 x25:0x013dd800 x22:0x00000001  x7=0x009eec00
      105145000	     10513	80003d84	015a9c13	slli	x24,x21,0x15	 x21:0xffffffae x24=0xf5c00000
      105155000	     10514	80003d88	eec0fc93	andi	x25,x1,-276	  x1:0x00000000 x25=0x00000000
      105165000	     10515	80003d8c	0032d1b3	srl	x3,x5,x3	  x5:0x00000009  x3:0x00000001  x3=0x00000004
      105175000	     10516	80003d90	008fde63	bge	x31,x8,80003dac	 x31:0xbc2d6bb4  x8:0x80009fc4
      105185000	     10517	00000000	00000013	addi	x0,x0,0	  x0:0x00000000
      105195000	     10518	80003da8	00000013	addi	x0,x0,0	  x0:0x00000000
      105205000	     10519	80003dac	010c3733	sltu	x14,x24,x16	 x24:0xf5c00000 x16:0x00000000 x14=0x00000000
      105215000	     10520	80003db0	00251cb3	sll	x25,x10,x2	 x10:0xfffffff6  x2:0xffff9bac x25=0xffff6000
      105225000	     10521	80003db4	01eed133	srl	x2,x29,x30	 x29:0xfffffff6 x30:0x000004de  x2=0x00000003
      105235000	     10522	80003db8	d42d7e93	andi	x29,x26,-702	 x26:0xffffbc2d x29=0xffffbc00
      105245000	     10523	80003dbc	7e104893	xori	x17,x0,2017	  x0:0x00000000 x17=0x000007e1
      105255000	     10524	80003dc0	b395e613	ori	x12,x11,-1223	 x11:0x00000000 x12=0xfffffb39
      105265000	     10525	80003dc4	401c05b3	sub	x11,x24,x1	 x24:0xf5c00000  x1:0x00000000 x11=0xf5c00000
      105275000	     10526	80003dc8	00000013	addi	x0,x0,0	  x0:0x00000000
      105285000	     10527	80003dcc	01c8f933	and	x18,x17,x28	 x17:0x000007e1 x28:0x80009eec x18=0x000006e0
      105295000	     10528	80003dd0	018cb933	sltu	x18,x25,x24	 x25:0xffff6000 x24:0xf5c00000 x18=0x00000000
      105305000	     10529	80003dd4	01745893	srli	x17,x8,0x17	  x8:0x80009fc4 x17=0x00000100
      105315000	     10530	80003dd8	012a4333	xor	x6,x20,x18	 x20:0x0000069a x18:0x00000000  x6=0x0000069a
      105325000	     10531	80003ddc	00485333	srl	x6,x16,x4	 x16:0x00000000  x4:0xffff9bac  x6=0x00000000
      105335000	     10532	80003de0	019c2a33	slt	x20,x24,x25	 x24:0xf5c00000 x25:0xffff6000 x20=0x00000001
      105345000	     10533	80003de4	41850233	sub	x4,x10,x24	 x10:0xfffffff6 x24:0xf5c00000  x4=0x0a3ffff6
      105355000	     10534	80003de8	01f0f733	and	x14,x1,x31	  x1:0x00000000 x31:0xbc2d6bb4 x14=0x00000000
      105365000	     10535	80003dec	01a228b3	slt	x17,x4,x26	  x4:0x0a3ffff6 x26:0xffffbc2d x17=0x00000000
      105375000	     10536	80003df0	c23173b7	lui	x7,0xc2317	  x7=0xc2317000
      105385000	     10537	80003df4	418a0c33	sub	x24,x20,x24	 x20:0x00000001 x24:0xf5c00000 x24=0x0a400001
      105395000	     10538	80003df8	7947f493	andi	x9,x15,1940	 x15:0x80009ffd  x9=0x00000794
      105405000	     10539	80003dfc	40095f13	srai	x30,x18,0x0	 x18:0x00000000 x30=0x00000000
      105415000	     10540	80003e00	01566bb3	or	x23,x12,x21	 x12:0xfffffb39 x21:0xffffffae x23=0xffffffbf
      105425000	     10541	80003e04	00d4b333	sltu	x6,x9,x13	  x9:0x00000794 x13:0x50627a20  x6=0x00000001
      105435000	     10542	80003e08	00645533	srl	x10,x8,x6	  x8:0x80009fc4  x6:0x00000001 x10=0x40004fe2
      105445000	     10543	80003e0c	0136c263	blt	x13,x19,80003e10	 x13:0x50627a20 x19:0x00000001
      105455000	     10544	80003e10	03315a63	bge	x2,x19,80003e44	  x2:0x00000003 x19:0x00000001
      105465000	     10545	00000000	00000013	addi	x0,x0,0	  x0:0x00000000
      105475000	     10546	80003e40	00000013	addi	x0,x0,0	  x0:0x00000000
      105485000	     10547	80003e44	00000013	addi	x0,x0,0	  x0:0x00000000
      105495000	     10548	80003e48	03a34463	blt	x6,x26,80003e70	  x6:0x00000001 x26:0xffffbc2d
      105505000	     10549	80003e4c	0042dc93	srli	x25,x5,0x4	  x5:0x00000009 x25=0x00000000
      105515000	     10550	80003e50	41a15393	srai	x7,x2,0x1a	  x2:0x00000003  x7=0x00000000
      105525000	     10551	80003e54	01025933	srl	x18,x4,x16	  x4:0x0a3ffff6 x16:0x00000000 x18=0x0a3ffff6
      105535000	     10552	80003e58	00d48d33	add	x26,x9,x13	  x9:0x00000794 x13:0x50627a20 x26=0x506281b4
      105545000	     10553	80003e5c	00c3a3b3	slt	x7,x7,x12	  x7:0x00000000 x12:0xfffffb39  x7=0x00000000
      105555000	     10554	80003e60	01da8263	beq	x21,x29,80003e64	 x21:0xffffffae x29:0xffffbc00
      105565000	     10555	80003e64	00d542b3	xor	x5,x10,x13	 x10:0x40004fe2 x13:0x50627a20  x5=0x106235c2
      105575000	     10556	80003e68	a2208a13	addi	x20,x1,-1502	  x1:0x00000000 x20=0xfffffa22
      105585000	     10557	80003e6c	8f466bb7	lui	x23,0x8f466	 x23=0x8f466000
      105595000	     10558	80003e70	00cde333	or	x6,x27,x12	 x27:0x00000496 x12:0xfffffb39  x6=0xffffffbf
      105605000	     10559	80003e74	02bb1863	bne	x22,x11,80003ea4	 x22:0x00000001 x11:0xf5c00000
      105615000	     10560	00000000	00000013	addi	x0,x0,0	  x0:0x00000000
      105625000	     10561	80003ea0	00000013	addi	x0,x0,0	  x0:0x00000000
      105635000	     10562	80003ea4	5fe13497	auipc	x9,0x5fe13	  x9=0xdfe16ea0
      105645000	     10563	80003ea8	8cd0b537	lui	x10,0x8cd0b	 x10=0x8cd0b000
      105655000	     10564	80003eac	010b4ab3	xor	x21,x22,x16	 x22:0x00000001 x16:0x00000000 x21=0x00000001
      105665000	     10565	80003eb0	5850e193	ori	x3,x1,1413	  x1:0x00000000  x3=0x00000585
      105675000	     10566	80003eb4	fa78c893	xori	x17,x17,-89	 x17:0x00000000 x17=0xffffffa7
      105685000	     10567	80003eb8	0171e463	bltu	x3,x23,80003ec0	  x3:0x00000585 x23:0x8f466000
      105695000	     10568	00000000	00000013	addi	x0,x0,0	  x0:0x00000000
      105705000	     10569	80003ebc	00000013	addi	x0,x0,0	  x0:0x00000000
      105715000	     10570	80003ec0	01c7ba33	sltu	x20,x15,x28	 x15:0x80009ffd x28:0x80009eec x20=0x00000000
      105725000	     10571	80003ec4	012c9533	sll	x10,x25,x18	 x25:0x00000000 x18:0x0a3ffff6 x10=0x00000000
      105735000	     10572	80003ec8	872cbd13	sltiu	x26,x25,-1934	 x25:0x00000000 x26=0x00000001
      105745000	     10573	80003ecc	046ee063	bltu	x29,x6,80003f0c	 x29:0xffffbc00  x6:0xffffffbf
      105755000	     10574	00000000	00000013	addi	x0,x0,0	  x0:0x00000000
      105765000	     10575	80003f08	00000013	addi	x0,x0,0	  x0:0x00000000
      105775000	     10576	80003f0c	6c0cbc93	sltiu	x25,x25,1728	 x25:0x00000000 x25=0x00000001
      105785000	     10577	80003f10	09571663	bne	x14,x21,80003f9c	 x14:0x00000000 x21:0x00000001
      105795000	     10578	00000000	00000013	addi	x0,x0,0	  x0:0x00000000
      105805000	     10579	80003f98	00000013	addi	x0,x0,0	  x0:0x00000000
      105815000	     10580	80003f9c	01411633	sll	x12,x2,x20	  x2:0x00000003 x20:0x00000000 x12=0x00000003
      105825000	     10581	80003fa0	29163493	sltiu	x9,x12,657	 x12:0x00000003  x9=0x00000001
      105835000	     10582	80003fa4	00a592b3	sll	x5,x11,x10	 x11:0xf5c00000 x10:0x00000000  x5=0xf5c00000
      105845000	     10583	80003fa8	c18d2737	lui	x14,0xc18d2	 x14=0xc18d2000
      105855000	     10584	80003fac	018a5313	srli	x6,x20,0x18	 x20:0x00000000  x6=0x00000000
      105865000	     10585	80003fb0	ad97e893	ori	x17,x15,-1319	 x15:0x80009ffd x17=0xfffffffd
      105875000	     10586	80003fb4	0116fab3	and	x21,x13,x17	 x13:0x50627a20 x17:0xfffffffd x21=0x50627a20
      105885000	     10587	80003fb8	00941893	slli	x17,x8,0x9	  x8:0x80009fc4 x17=0x013f8800
      105895000	     10588	80003fbc	010e1c63	bne	x28,x16,80003fd4	 x28:0x80009eec x16:0x00000000
      105905000	     10589	00000000	00000013	addi	x0,x0,0	  x0:0x00000000
      105915000	     10590	80003fd0	00000013	addi	x0,x0,0	  x0:0x00000000
      105925000	     10591	80003fd4	f8cd4f13	xori	x30,x26,-116	 x26:0x00000001 x30=0xffffff8d
      105935000	     10592	80003fd8	04c75263	bge	x14,x12,8000401c	 x14:0xc18d2000 x12:0x00000003
      105945000	     10593	80003fdc	0225f863	bgeu	x11,x2,8000400c	 x11:0xf5c00000  x2:0x00000003
      105955000	     10594	00000000	00000013	addi	x0,x0,0	  x0:0x00000000
      105965000	     10595	80004008	00000013	addi	x0,x0,0	  x0:0x00000000
      105975000	     10596	8000400c	00eb54b3	srl	x9,x22,x14	 x22:0x00000001 x14:0xc18d2000  x9=0x00000001
      105985000	     10597	80004010	d5b72617	auipc	x12,0xd5b72	 x12=0x55b7600c
      105995000	     10598	80004014	00136663	bltu	x6,x1,80004020	  x6:0x00000000  x1:0x00000000
      106005000	     10599	80004018	a65aa913	slti	x18,x21,-1435	 x21:0x50627a20 x18=0x00000000
      106015000	     10600	8000401c	5487bc97	auipc	x25,0x5487b	 x25=0xd487f018
      106025000	     10601	80004020	bdecbc13	sltiu	x24,x25,-1058	 x25:0xd487f018 x24=0x00000001
      106035000	     10602	80004024	00301c13	slli	x24,x0,0x3	  x0:0x00000000 x24=0x00000000
      106045000	     10603	80004028	008147b3	xor	x15,x2,x8	  x2:0x00000003  x8:0x80009fc4 x15=0x80009fc7
      106055000	     10604	8000402c	0065a233	slt	x4,x11,x6	 x11:0xf5c00000  x6:0x00000000  x4=0x00000001
      106065000	     10605	80004030	01b41a33	sll	x20,x8,x27	  x8:0x80009fc4 x27:0x00000496 x20=0xf1000000
      106075000	     10606	80004034	035b1863	bne	x22,x21,80004064	 x22:0x00000001 x21:0x50627a20
      106085000	     10607	00000000	00000013	addi	x0,x0,0	  x0:0x00000000
      106095000	     10608	80004060	00000013	addi	x0,x0,0	  x0:0x00000000
      106105000	     10609	80004064	00e77bb3	and	x23,x14,x14	 x14:0xc18d2000 x14:0xc18d2000 x23=0xc18d2000
      106115000	     10610	80004068	9d9d6d97	auipc	x27,0x9d9d6	 x27=0x1d9da064
      106125000	     10611	8000406c	0145cb33	xor	x22,x11,x20	 x11:0xf5c00000 x20:0xf1000000 x22=0x04c00000
      106135000	     10612	80004070	00a170b3	and	x1,x2,x10	  x2:0x00000003 x10:0x00000000  x1=0x00000000
      106145000	     10613	80004074	40abd213	srai	x4,x23,0xa	 x23:0xc18d2000  x4=0xfff06348
      106155000	     10614	80004078	00e316b3	sll	x13,x6,x14	  x6:0x00000000 x14:0xc18d2000 x13=0x00000000
      106165000	     10615	8000407c	410ad393	srai	x7,x21,0x10	 x21:0x50627a20  x7=0x00005062
      106175000	     10616	80004080	40c35493	srai	x9,x6,0xc	  x6:0x00000000  x9=0x00000000
      106185000	     10617	80004084	414304b3	sub	x9,x6,x20	  x6:0x00000000 x20:0xf1000000  x9=0x0f000000
      106195000	     10618	80004088	012bc033	xor	x0,x23,x18	 x23:0xc18d2000 x18:0x00000000
      106205000	     10619	8000408c	02a70663	beq	x14,x10,800040b8	 x14:0xc18d2000 x10:0x00000000
      106215000	     10620	80004090	009edd13	srli	x26,x29,0x9	 x29:0xffffbc00 x26=0x007fffde
      106225000	     10621	80004094	c7e9f637	lui	x12,0xc7e9f	 x12=0xc7e9f000
      106235000	     10622	80004098	f8b34617	auipc	x12,0xf8b34	 x12=0x78b38094
      106245000	     10623	8000409c	02db9463	bne	x23,x13,800040c4	 x23:0xc18d2000 x13:0x00000000
      106255000	     10624	00000000	00000013	addi	x0,x0,0	  x0:0x00000000
      106265000	     10625	800040c0	00000013	addi	x0,x0,0	  x0:0x00000000
      106275000	     10626	800040c4	01585793	srli	x15,x16,0x15	 x16:0x00000000 x15=0x00000000
      106285000	     10627	800040c8	40255e93	srai	x29,x10,0x2	 x10:0x00000000 x29=0x00000000
      106295000	     10628	800040cc	004e2c03	lw	x24,4(x28)	 x28:0x80009eec x24=0x80002600 PA:0x80009ef0
      106305000	     10629	800040d0	00000013	addi	x0,x0,0	  x0:0x00000000
      106315000	     10630	800040d4	024e0e13	addi	x28,x28,36	 x28:0x80009eec x28=0x80009f10
      106325000	     10631	800040d8	a7c61e97	auipc	x29,0xa7c61	 x29=0x27c650d4
      106335000	     10632	800040dc	34bf4493	xori	x9,x30,843	 x30:0xffffff8d  x9=0xfffffcc6
      106345000	     10633	800040e0	010bafb3	slt	x31,x23,x16	 x23:0xc18d2000 x16:0x00000000 x31=0x00000001
      106355000	     10634	800040e4	00bf8333	add	x6,x31,x11	 x31:0x00000001 x11:0xf5c00000  x6=0xf5c00001
      106365000	     10635	800040e8	0133e533	or	x10,x7,x19	  x7:0x00005062 x19:0x00000001 x10=0x00005063
      106375000	     10636	800040ec	41ded2b3	sra	x5,x29,x29	 x29:0x27c650d4 x29:0x27c650d4  x5=0x0000027c
      106385000	     10637	800040f0	001c0293	addi	x5,x24,1	 x24:0x80002600  x5=0x80002601
      106395000	     10638	800040f4	000282e7	jalr	x5,x5,0	  x5:0x80002601  x5=0x800040f4
      106405000	     10639	00000000	00000013	addi	x0,x0,0	  x0:0x00000000
      106415000	     10640	80002600	00000013	addi	x0,x0,0	  x0:0x00000000
      106425000	     10641	80002604	16d6be93	sltiu	x29,x13,365	 x13:0x00000000 x29=0x00000001
      106435000	     10642	80002608	00000013	addi	x0,x0,0	  x0:0x00000000
      106445000	     10643	8000260c	01ab1133	sll	x2,x22,x26	 x22:0x04c00000 x26:0x007fffde  x2=0x00000000
      106455000	     10644	80002610	65fae113	ori	x2,x21,1631	 x21:0x50627a20  x2=0x50627e7f
      106465000	     10645	80002614	00000013	addi	x0,x0,0	  x0:0x00000000
      106475000	     10646	80002618	01809633	sll	x12,x1,x24	  x1:0x00000000 x24:0x80002600 x12=0x00000000
      106485000	     10647	8000261c	02f08463	beq	x1,x15,80002644	  x1:0x00000000 x15:0x00000000
      106495000	     10648	00000000	00000013	addi	x0,x0,0	  x0:0x00000000
      106505000	     10649	80002640	00000013	addi	x0,x0,0	  x0:0x00000000
      106515000	     10650	80002644	00775f13	srli	x30,x14,0x7	 x14:0xc18d2000 x30=0x01831a40
      106525000	     10651	80002648	00c3f8b3	and	x17,x7,x12	  x7:0x00005062 x12:0x00000000 x17=0x00000000
      106535000	     10652	8000264c	03b79a63	bne	x15,x27,80002680	 x15:0x00000000 x27:0x1d9da064
      106545000	     10653	00000000	00000013	addi	x0,x0,0	  x0:0x00000000
      106555000	     10654	8000267c	00000013	addi	x0,x0,0	  x0:0x00000000
      106565000	     10655	80002680	0037b8b3	sltu	x17,x15,x3	 x15:0x00000000  x3:0x00000585 x17=0x00000001
      106575000	     10656	80002684	004e2c03	lw	x24,4(x28)	 x28:0x80009f10 x24=0x8000418c PA:0x80009f14
      106585000	     10657	80002688	17bab913	sltiu	x18,x21,379	 x21:0x50627a20 x18=0x00000000
      106595000	     10658	8000268c	015503b3	add	x7,x10,x21	 x10:0x00005063 x21:0x50627a20  x7=0x5062ca83
      106605000	     10659	80002690	034e0e13	addi	x28,x28,52	 x28:0x80009f10 x28=0x80009f44
      106615000	     10660	80002694	003217b3	sll	x15,x4,x3	  x4:0xfff06348  x3:0x00000585 x15=0xfe0c6900
      106625000	     10661	80002698	00000013	addi	x0,x0,0	  x0:0x00000000
      106635000	     10662	8000269c	9f82af93	slti	x31,x5,-1544	  x5:0x800040f4 x31=0x00000001
      106645000	     10663	800026a0	3f5aaa97	auipc	x21,0x3f5aa	 x21=0xbf5ac69c
      106655000	     10664	800026a4	7c350213	addi	x4,x10,1987	 x10:0x00005063  x4=0x00005826
      106665000	     10665	800026a8	6f9ab693	sltiu	x13,x21,1785	 x21:0xbf5ac69c x13=0x00000000
      106675000	     10666	800026ac	e8ac8213	addi	x4,x25,-374	 x25:0xd487f018  x4=0xd487eea2
      106685000	     10667	800026b0	000c0913	addi	x18,x24,0	 x24:0x8000418c x18=0x8000418c
      106695000	     10668	800026b4	00090967	jalr	x18,x18,0	 x18:0x8000418c x18=0x800026b4
      106705000	     10669	00000000	00000013	addi	x0,x0,0	  x0:0x00000000
      106715000	     10670	8000418c	00000013	addi	x0,x0,0	  x0:0x00000000
      106725000	     10671	80004190	00c00c6f	jal	x24,80004190	 x24=0x80004190
      106735000	     10672	00000000	00000013	addi	x0,x0,0	  x0:0x00000000
      106745000	     10673	80004198	00000013	addi	x0,x0,0	  x0:0x00000000
      106755000	     10674	8000419c	024000ef	jal	x1,8000419c	  x1=0x8000419c
      106765000	     10675	00000000	00000013	addi	x0,x0,0	  x0:0x00000000
      106775000	     10676	800041bc	00000013	addi	x0,x0,0	  x0:0x00000000
      106785000	     10677	800041c0	ff5ff2ef	jal	x5,800041c0	  x5=0x800041c0
      106795000	     10678	00000000	00000013	addi	x0,x0,0	  x0:0x00000000
      106805000	     10679	800041b0	00000013	addi	x0,x0,0	  x0:0x00000000
      106815000	     10680	800041b4	fe1ff36f	jal	x6,800041b4	  x6=0x800041b4
      106825000	     10681	00000000	00000013	addi	x0,x0,0	  x0:0x00000000
      106835000	     10682	80004190	00000013	addi	x0,x0,0	  x0:0x00000000
      106845000	     10683	80004194	024000ef	jal	x1,80004194	  x1=0x80004194
      106855000	     10684	00000000	00000013	addi	x0,x0,0	  x0:0x00000000
      106865000	     10685	800041b4	00000013	addi	x0,x0,0	  x0:0x00000000
      106875000	     10686	800041b8	ff1ff0ef	jal	x1,800041b8	  x1=0x800041b8
      106885000	     10687	00000000	00000013	addi	x0,x0,0	  x0:0x00000000
      106895000	     10688	800041a4	00000013	addi	x0,x0,0	  x0:0x00000000
      106905000	     10689	800041a8	ff1ff0ef	jal	x1,800041a8	  x1=0x800041a8
      106915000	     10690	00000000	00000013	addi	x0,x0,0	  x0:0x00000000
      106925000	     10691	80004194	00000013	addi	x0,x0,0	  x0:0x00000000
      106935000	     10692	80004198	0080036f	jal	x6,80004198	  x6=0x80004198
      106945000	     10693	00000000	00000013	addi	x0,x0,0	  x0:0x00000000
      106955000	     10694	8000419c	00000013	addi	x0,x0,0	  x0:0x00000000
      106965000	     10695	800041a0	004000ef	jal	x1,800041a0	  x1=0x800041a0
      106975000	     10696	00000000	00000013	addi	x0,x0,0	  x0:0x00000000
      106985000	     10697	800041a0	00000013	addi	x0,x0,0	  x0:0x00000000
      106995000	     10698	800041a4	00c00cef	jal	x25,800041a4	 x25=0x800041a4
      107005000	     10699	00000000	00000013	addi	x0,x0,0	  x0:0x00000000
      107015000	     10700	800041ac	00000013	addi	x0,x0,0	  x0:0x00000000
      107025000	     10701	800041b0	ffdff36f	jal	x6,800041b0	  x6=0x800041b0
      107035000	     10702	00000000	00000013	addi	x0,x0,0	  x0:0x00000000
      107045000	     10703	800041a8	00000013	addi	x0,x0,0	  x0:0x00000000
      107055000	     10704	800041ac	0100036f	jal	x6,800041ac	  x6=0x800041ac
      107065000	     10705	00000000	00000013	addi	x0,x0,0	  x0:0x00000000
      107075000	     10706	800041b8	00000013	addi	x0,x0,0	  x0:0x00000000
      107085000	     10707	800041bc	008000ef	jal	x1,800041bc	  x1=0x800041bc
      107095000	     10708	00000000	00000013	addi	x0,x0,0	  x0:0x00000000
      107105000	     10709	800041c0	00000013	addi	x0,x0,0	  x0:0x00000000
      107115000	     10710	800041c4	0040036f	jal	x6,800041c4	  x6=0x800041c4
      107125000	     10711	00000000	00000013	addi	x0,x0,0	  x0:0x00000000
      107135000	     10712	800041c4	00000013	addi	x0,x0,0	  x0:0x00000000
      107145000	     10713	800041c8	7d3910b7	lui	x1,0x7d391	  x1=0x7d391000
      107155000	     10714	800041cc	01c00c6f	jal	x24,800041cc	 x24=0x800041cc
      107165000	     10715	00000000	00000013	addi	x0,x0,0	  x0:0x00000000
      107175000	     10716	800041e4	00000013	addi	x0,x0,0	  x0:0x00000000
      107185000	     10717	800041e8	ff9ff0ef	jal	x1,800041e8	  x1=0x800041e8
      107195000	     10718	00000000	00000013	addi	x0,x0,0	  x0:0x00000000
      107205000	     10719	800041dc	00000013	addi	x0,x0,0	  x0:0x00000000
      107215000	     10720	800041e0	0040036f	jal	x6,800041e0	  x6=0x800041e0
      107225000	     10721	00000000	00000013	addi	x0,x0,0	  x0:0x00000000
      107235000	     10722	800041e0	00000013	addi	x0,x0,0	  x0:0x00000000
      107245000	     10723	800041e4	014000ef	jal	x1,800041e4	  x1=0x800041e4
      107255000	     10724	00000000	00000013	addi	x0,x0,0	  x0:0x00000000
      107265000	     10725	800041f4	00000013	addi	x0,x0,0	  x0:0x00000000
      107275000	     10726	800041f8	fe5ff0ef	jal	x1,800041f8	  x1=0x800041f8
      107285000	     10727	00000000	00000013	addi	x0,x0,0	  x0:0x00000000
      107295000	     10728	800041d8	00000013	addi	x0,x0,0	  x0:0x00000000
      107305000	     10729	800041dc	024000ef	jal	x1,800041dc	  x1=0x800041dc
      107315000	     10730	00000000	00000013	addi	x0,x0,0	  x0:0x00000000
      107325000	     10731	800041fc	00000013	addi	x0,x0,0	  x0:0x00000000
      107335000	     10732	80004200	004000ef	jal	x1,80004200	  x1=0x80004200
      107345000	     10733	00000000	00000013	addi	x0,x0,0	  x0:0x00000000
      107355000	     10734	80004200	00000013	addi	x0,x0,0	  x0:0x00000000
      107365000	     10735	80004204	fe9ff0ef	jal	x1,80004204	  x1=0x80004204
      107375000	     10736	00000000	00000013	addi	x0,x0,0	  x0:0x00000000
      107385000	     10737	800041e8	00000013	addi	x0,x0,0	  x0:0x00000000
      107395000	     10738	800041ec	01c00c6f	jal	x24,800041ec	 x24=0x800041ec
      107405000	     10739	00000000	00000013	addi	x0,x0,0	  x0:0x00000000
      107415000	     10740	80004204	00000013	addi	x0,x0,0	  x0:0x00000000
      107425000	     10741	80004208	fd1ff0ef	jal	x1,80004208	  x1=0x80004208
      107435000	     10742	00000000	00000013	addi	x0,x0,0	  x0:0x00000000
      107445000	     10743	800041d4	00000013	addi	x0,x0,0	  x0:0x00000000
      107455000	     10744	800041d8	018000ef	jal	x1,800041d8	  x1=0x800041d8
      107465000	     10745	00000000	00000013	addi	x0,x0,0	  x0:0x00000000
      107475000	     10746	800041ec	00000013	addi	x0,x0,0	  x0:0x00000000
      107485000	     10747	800041f0	fe1ffeef	jal	x29,800041f0	 x29=0x800041f0
      107495000	     10748	00000000	00000013	addi	x0,x0,0	  x0:0x00000000
      107505000	     10749	800041cc	00000013	addi	x0,x0,0	  x0:0x00000000
      107515000	     10750	800041d0	0240036f	jal	x6,800041d0	  x6=0x800041d0
      107525000	     10751	00000000	00000013	addi	x0,x0,0	  x0:0x00000000
      107535000	     10752	800041f0	00000013	addi	x0,x0,0	  x0:0x00000000
      107545000	     10753	800041f4	fe1ff2ef	jal	x5,800041f4	  x5=0x800041f4
      107555000	     10754	00000000	00000013	addi	x0,x0,0	  x0:0x00000000
      107565000	     10755	800041d0	00000013	addi	x0,x0,0	  x0:0x00000000
      107575000	     10756	800041d4	0280036f	jal	x6,800041d4	  x6=0x800041d4
      107585000	     10757	00000000	00000013	addi	x0,x0,0	  x0:0x00000000
      107595000	     10758	800041f8	00000013	addi	x0,x0,0	  x0:0x00000000
      107605000	     10759	800041fc	010000ef	jal	x1,800041fc	  x1=0x800041fc
      107615000	     10760	00000000	00000013	addi	x0,x0,0	  x0:0x00000000
      107625000	     10761	80004208	00000013	addi	x0,x0,0	  x0:0x00000000
      107635000	     10762	8000420c	7b140513	addi	x10,x8,1969	  x8:0x80009fc4 x10=0x8000a775
      107645000	     10763	80004210	03c00c6f	jal	x24,80004210	 x24=0x80004210
      107655000	     10764	00000000	00000013	addi	x0,x0,0	  x0:0x00000000
      107665000	     10765	80004248	00000013	addi	x0,x0,0	  x0:0x00000000
      107675000	     10766	8000424c	ff9ff36f	jal	x6,8000424c	  x6=0x8000424c
      107685000	     10767	00000000	00000013	addi	x0,x0,0	  x0:0x00000000
      107695000	     10768	80004240	00000013	addi	x0,x0,0	  x0:0x00000000
      107705000	     10769	80004244	01c000ef	jal	x1,80004244	  x1=0x80004244
      107715000	     10770	00000000	00000013	addi	x0,x0,0	  x0:0x00000000
      107725000	     10771	8000425c	00000013	addi	x0,x0,0	  x0:0x00000000
      107735000	     10772	80004260	fc5ff0ef	jal	x1,80004260	  x1=0x80004260
      107745000	     10773	00000000	00000013	addi	x0,x0,0	  x0:0x00000000
      107755000	     10774	80004220	00000013	addi	x0,x0,0	  x0:0x00000000
      107765000	     10775	80004224	0240036f	jal	x6,80004224	  x6=0x80004224
      107775000	     10776	00000000	00000013	addi	x0,x0,0	  x0:0x00000000
      107785000	     10777	80004244	00000013	addi	x0,x0,0	  x0:0x00000000
      107795000	     10778	80004248	024001ef	jal	x3,80004248	  x3=0x80004248
      107805000	     10779	00000000	00000013	addi	x0,x0,0	  x0:0x00000000
      107815000	     10780	80004268	00000013	addi	x0,x0,0	  x0:0x00000000
      107825000	     10781	8000426c	fe5ff0ef	jal	x1,8000426c	  x1=0x8000426c
      107835000	     10782	00000000	00000013	addi	x0,x0,0	  x0:0x00000000
      107845000	     10783	8000424c	00000013	addi	x0,x0,0	  x0:0x00000000
      107855000	     10784	80004250	fedff0ef	jal	x1,80004250	  x1=0x80004250
      107865000	     10785	00000000	00000013	addi	x0,x0,0	  x0:0x00000000
      107875000	     10786	80004238	00000013	addi	x0,x0,0	  x0:0x00000000
      107885000	     10787	8000423c	020000ef	jal	x1,8000423c	  x1=0x8000423c
      107895000	     10788	00000000	00000013	addi	x0,x0,0	  x0:0x00000000
      107905000	     10789	80004258	00000013	addi	x0,x0,0	  x0:0x00000000
      107915000	     10790	8000425c	fc5ff36f	jal	x6,8000425c	  x6=0x8000425c
      107925000	     10791	00000000	00000013	addi	x0,x0,0	  x0:0x00000000
      107935000	     10792	8000421c	00000013	addi	x0,x0,0	  x0:0x00000000
      107945000	     10793	80004220	0340036f	jal	x6,80004220	  x6=0x80004220
      107955000	     10794	00000000	00000013	addi	x0,x0,0	  x0:0x00000000
      107965000	     10795	80004250	00000013	addi	x0,x0,0	  x0:0x00000000
      107975000	     10796	80004254	0140036f	jal	x6,80004254	  x6=0x80004254
      107985000	     10797	00000000	00000013	addi	x0,x0,0	  x0:0x00000000
      107995000	     10798	80004264	00000013	addi	x0,x0,0	  x0:0x00000000
      108005000	     10799	80004268	fadff0ef	jal	x1,80004268	  x1=0x80004268
      108015000	     10800	00000000	00000013	addi	x0,x0,0	  x0:0x00000000
      108025000	     10801	80004210	00000013	addi	x0,x0,0	  x0:0x00000000
      108035000	     10802	80004214	044000ef	jal	x1,80004214	  x1=0x80004214
      108045000	     10803	00000000	00000013	addi	x0,x0,0	  x0:0x00000000
      108055000	     10804	80004254	00000013	addi	x0,x0,0	  x0:0x00000000
      108065000	     10805	80004258	fd5fffef	jal	x31,80004258	 x31=0x80004258
      108075000	     10806	00000000	00000013	addi	x0,x0,0	  x0:0x00000000
      108085000	     10807	80004228	00000013	addi	x0,x0,0	  x0:0x00000000
      108095000	     10808	8000422c	00c000ef	jal	x1,8000422c	  x1=0x8000422c
      108105000	     10809	00000000	00000013	addi	x0,x0,0	  x0:0x00000000
      108115000	     10810	80004234	00000013	addi	x0,x0,0	  x0:0x00000000
      108125000	     10811	80004238	fe5ff36f	jal	x6,80004238	  x6=0x80004238
      108135000	     10812	00000000	00000013	addi	x0,x0,0	  x0:0x00000000
      108145000	     10813	80004218	00000013	addi	x0,x0,0	  x0:0x00000000
      108155000	     10814	8000421c	ffdff0ef	jal	x1,8000421c	  x1=0x8000421c
      108165000	     10815	00000000	00000013	addi	x0,x0,0	  x0:0x00000000
      108175000	     10816	80004214	00000013	addi	x0,x0,0	  x0:0x00000000
      108185000	     10817	80004218	010000ef	jal	x1,80004218	  x1=0x80004218
      108195000	     10818	00000000	00000013	addi	x0,x0,0	  x0:0x00000000
      108205000	     10819	80004224	00000013	addi	x0,x0,0	  x0:0x00000000
      108215000	     10820	80004228	03c000ef	jal	x1,80004228	  x1=0x80004228
      108225000	     10821	00000000	00000013	addi	x0,x0,0	  x0:0x00000000
      108235000	     10822	80004260	00000013	addi	x0,x0,0	  x0:0x00000000
      108245000	     10823	80004264	fd1ff0ef	jal	x1,80004264	  x1=0x80004264
      108255000	     10824	00000000	00000013	addi	x0,x0,0	  x0:0x00000000
      108265000	     10825	80004230	00000013	addi	x0,x0,0	  x0:0x00000000
      108275000	     10826	80004234	ffdff0ef	jal	x1,80004234	  x1=0x80004234
      108285000	     10827	00000000	00000013	addi	x0,x0,0	  x0:0x00000000
      108295000	     10828	8000422c	00000013	addi	x0,x0,0	  x0:0x00000000
      108305000	     10829	80004230	0100036f	jal	x6,80004230	  x6=0x80004230
      108315000	     10830	00000000	00000013	addi	x0,x0,0	  x0:0x00000000
      108325000	     10831	8000423c	00000013	addi	x0,x0,0	  x0:0x00000000
      108335000	     10832	80004240	03000d6f	jal	x26,80004240	 x26=0x80004240
      108345000	     10833	00000000	00000013	addi	x0,x0,0	  x0:0x00000000
      108355000	     10834	8000426c	00000013	addi	x0,x0,0	  x0:0x00000000
      108365000	     10835	80004270	40fc59b3	sra	x19,x24,x15	 x24:0x80004210 x15:0xfe0c6900 x19=0x80004210
      108375000	     10836	80004274	41815cb3	sra	x25,x2,x24	  x2:0x50627e7f x24:0x80004210 x25=0x00005062
      108385000	     10837	80004278	012682b3	add	x5,x13,x18	 x13:0x00000000 x18:0x800026b4  x5=0x800026b4
      108395000	     10838	8000427c	030bec93	ori	x25,x23,48	 x23:0xc18d2000 x25=0xc18d2030
      108405000	     10839	80004280	85d86a37	lui	x20,0x85d86	 x20=0x85d86000
      108415000	     10840	80004284	0003f5b3	and	x11,x7,x0	  x7:0x5062ca83  x0:0x00000000 x11=0x00000000
      108425000	     10841	80004288	00000013	addi	x0,x0,0	  x0:0x00000000
      108435000	     10842	8000428c	41b58733	sub	x14,x11,x27	 x11:0x00000000 x27:0x1d9da064 x14=0xe2625f9c
      108445000	     10843	80004290	00a11393	slli	x7,x2,0xa	  x2:0x50627e7f  x7=0x89f9fc00
      108455000	     10844	80004294	8ee84997	auipc	x19,0x8ee84	 x19=0x0ee88290
      108465000	     10845	80004298	01aaa4b3	slt	x9,x21,x26	 x21:0xbf5ac69c x26:0x80004240  x9=0x00000000
      108475000	     10846	8000429c	02ffd463	bge	x31,x15,800042c4	 x31:0x80004258 x15:0xfe0c6900
      108485000	     10847	800042a0	01b19993	slli	x19,x3,0x1b	  x3:0x80004248 x19=0x40000000
      108495000	     10848	800042a4	01665233	srl	x4,x12,x22	 x12:0x00000000 x22:0x04c00000  x4=0x00000000
      108505000	     10849	800042a8	012bf0b3	and	x1,x23,x18	 x23:0xc18d2000 x18:0x800026b4  x1=0x80002000
      108515000	     10850	800042ac	00b610b3	sll	x1,x12,x11	 x12:0x00000000 x11:0x00000000  x1=0x00000000
      108525000	     10851	800042b0	013585b3	add	x11,x11,x19	 x11:0x00000000 x19:0x40000000 x11=0x40000000
      108535000	     10852	800042b4	002d6a63	bltu	x26,x2,800042c8	 x26:0x80004240  x2:0x50627e7f
      108545000	     10853	800042b8	929a0bb7	lui	x23,0x929a0	 x23=0x929a0000
      108555000	     10854	800042bc	ca560bb7	lui	x23,0xca560	 x23=0xca560000
      108565000	     10855	800042c0	00d1a633	slt	x12,x3,x13	  x3:0x80004248 x13:0x00000000 x12=0x00000001
      108575000	     10856	800042c4	00000013	addi	x0,x0,0	  x0:0x00000000
      108585000	     10857	800042c8	02bdc263	blt	x27,x11,800042ec	 x27:0x1d9da064 x11:0x40000000
      108595000	     10858	00000000	00000013	addi	x0,x0,0	  x0:0x00000000
      108605000	     10859	800042e8	00000013	addi	x0,x0,0	  x0:0x00000000
      108615000	     10860	800042ec	49b72513	slti	x10,x14,1179	 x14:0xe2625f9c x10=0x00000001
      108625000	     10861	800042f0	01db1c93	slli	x25,x22,0x1d	 x22:0x04c00000 x25=0x00000000
      108635000	     10862	800042f4	2e880313	addi	x6,x16,744	 x16:0x00000000  x6=0x000002e8
      108645000	     10863	800042f8	011d1d33	sll	x26,x26,x17	 x26:0x80004240 x17:0x00000001 x26=0x00008480
      108655000	     10864	800042fc	01e69a13	slli	x20,x13,0x1e	 x13:0x00000000 x20=0x00000000
      108665000	     10865	80004300	716f3213	sltiu	x4,x30,1814	 x30:0x01831a40  x4=0x00000000
      108675000	     10866	80004304	d906d4b7	lui	x9,0xd906d	  x9=0xd906d000
      108685000	     10867	80004308	1fb04b37	lui	x22,0x1fb04	 x22=0x1fb04000
      108695000	     10868	8000430c	00ed89b3	add	x19,x27,x14	 x27:0x1d9da064 x14:0xe2625f9c x19=0x00000000
      108705000	     10869	80004310	dfad4b93	xori	x23,x26,-518	 x26:0x00008480 x23=0xffff797a
      108715000	     10870	80004314	5e76cb93	xori	x23,x13,1511	 x13:0x00000000 x23=0x000005e7
      108725000	     10871	80004318	9eab3193	sltiu	x3,x22,-1558	 x22:0x1fb04000  x3=0x00000001
      108735000	     10872	8000431c	34d1e013	ori	x0,x3,845	  x3:0x00000001
      108745000	     10873	80004320	ca1c3517	auipc	x10,0xca1c3	 x10=0x4a1c731c
      108755000	     10874	80004324	40abd1b3	sra	x3,x23,x10	 x23:0x000005e7 x10:0x4a1c731c  x3=0x00000000
      108765000	     10875	80004328	60a17593	andi	x11,x2,1546	  x2:0x50627e7f x11=0x0000060a
      108775000	     10876	8000432c	019d7b33	and	x22,x26,x25	 x26:0x00008480 x25:0x00000000 x22=0x00000000
      108785000	     10877	80004330	00fa83b3	add	x7,x21,x15	 x21:0xbf5ac69c x15:0xfe0c6900  x7=0xbd672f9c
      108795000	     10878	80004334	03855663	bge	x10,x24,80004360	 x10:0x4a1c731c x24:0x80004210
      108805000	     10879	00000000	00000013	addi	x0,x0,0	  x0:0x00000000
      108815000	     10880	8000435c	00000013	addi	x0,x0,0	  x0:0x00000000
      108825000	     10881	80004360	dc5cccb7	lui	x25,0xdc5cc	 x25=0xdc5cc000
      108835000	     10882	80004364	059ec063	blt	x29,x25,800043a4	 x29:0x800041f0 x25:0xdc5cc000
      108845000	     10883	00000000	00000013	addi	x0,x0,0	  x0:0x00000000
      108855000	     10884	800043a0	00000013	addi	x0,x0,0	  x0:0x00000000
      108865000	     10885	800043a4	03cfc263	blt	x31,x28,800043c8	 x31:0x80004258 x28:0x80009f44
      108875000	     10886	00000000	00000013	addi	x0,x0,0	  x0:0x00000000
      108885000	     10887	800043c4	00000013	addi	x0,x0,0	  x0:0x00000000
      108895000	     10888	800043c8	0153a933	slt	x18,x7,x21	  x7:0xbd672f9c x21:0xbf5ac69c x18=0x00000001
      108905000	     10889	800043cc	0059bf33	sltu	x30,x19,x5	 x19:0x00000000  x5:0x800026b4 x30=0x00000001
      108915000	     10890	800043d0	01867c63	bgeu	x12,x24,800043e8	 x12:0x00000001 x24:0x80004210
      108925000	     10891	800043d4	01f43033	sltu	x0,x8,x31	  x8:0x80009fc4 x31:0x80004258
      108935000	     10892	800043d8	7ba26c93	ori	x25,x4,1978	  x4:0x00000000 x25=0x000007ba
      108945000	     10893	800043dc	0069f863	bgeu	x19,x6,800043ec	 x19:0x00000000  x6:0x000002e8
      108955000	     10894	800043e0	02dfea63	bltu	x31,x13,80004414	 x31:0x80004258 x13:0x00000000
      108965000	     10895	800043e4	00ee41b3	xor	x3,x28,x14	 x28:0x80009f44 x14:0xe2625f9c  x3=0x6262c0d8
      108975000	     10896	800043e8	38974993	xori	x19,x14,905	 x14:0xe2625f9c x19=0xe2625c15
      108985000	     10897	800043ec	c9dc4093	xori	x1,x24,-867	 x24:0x80004210  x1=0x7fffbe8d
      108995000	     10898	800043f0	01125863	bge	x4,x17,80004400	  x4:0x00000000 x17:0x00000001
      109005000	     10899	800043f4	001ea533	slt	x10,x29,x1	 x29:0x800041f0  x1:0x7fffbe8d x10=0x00000001
      109015000	     10900	800043f8	41905f93	srai	x31,x0,0x19	  x0:0x00000000 x31=0x00000000
      109025000	     10901	800043fc	fb64c917	auipc	x18,0xfb64c	 x18=0x7b6503f8
      109035000	     10902	80004400	0118d263	bge	x17,x17,80004404	 x17:0x00000001 x17:0x00000001
      109045000	     10903	00000000	00000013	addi	x0,x0,0	  x0:0x00000000
      109055000	     10904	80004400	00000013	addi	x0,x0,0	  x0:0x00000000
      109065000	     10905	80004404	01f9cfb3	xor	x31,x19,x31	 x19:0xe2625c15 x31:0x00000000 x31=0xe2625c15
      109075000	     10906	80004408	3e47aa93	slti	x21,x15,996	 x15:0xfe0c6900 x21=0x00000001
      109085000	     10907	8000440c	4046d613	srai	x12,x13,0x4	 x13:0x00000000 x12=0x00000000
      109095000	     10908	80004410	5ce52993	slti	x19,x10,1486	 x10:0x00000001 x19=0x00000001
      109105000	     10909	80004414	82473e93	sltiu	x29,x14,-2012	 x14:0xe2625f9c x29=0x00000001
      109115000	     10910	80004418	03af7c63	bgeu	x30,x26,80004450	 x30:0x00000001 x26:0x00008480
      109125000	     10911	8000441c	ff732393	slti	x7,x6,-9	  x6:0x000002e8  x7=0x00000000
      109135000	     10912	80004420	0187e3b3	or	x7,x15,x24	 x15:0xfe0c6900 x24:0x80004210  x7=0xfe0c6b10
      109145000	     10913	80004424	00b3d033	srl	x0,x7,x11	  x7:0xfe0c6b10 x11:0x0000060a
      109155000	     10914	80004428	21ccb513	sltiu	x10,x25,540	 x25:0x000007ba x10=0x00000000
      109165000	     10915	8000442c	036f0c63	beq	x30,x22,80004464	 x30:0x00000001 x22:0x00000000
      109175000	     10916	80004430	01b61933	sll	x18,x12,x27	 x12:0x00000000 x27:0x1d9da064 x18=0x00000000
      109185000	     10917	80004434	d6a57793	andi	x15,x10,-662	 x10:0x00000000 x15=0x00000000
      109195000	     10918	80004438	00f540b3	xor	x1,x10,x15	 x10:0x00000000 x15:0x00000000  x1=0x00000000
      109205000	     10919	8000443c	005da533	slt	x10,x27,x5	 x27:0x1d9da064  x5:0x800026b4 x10=0x00000000
      109215000	     10920	80004440	00000013	addi	x0,x0,0	  x0:0x00000000
      109225000	     10921	80004444	40e90133	sub	x2,x18,x14	 x18:0x00000000 x14:0xe2625f9c  x2=0x1d9da064
      109235000	     10922	80004448	42c6c593	xori	x11,x13,1068	 x13:0x00000000 x11=0x0000042c
      109245000	     10923	8000444c	01b35693	srli	x13,x6,0x1b	  x6:0x000002e8 x13=0x00000000
      109255000	     10924	80004450	7f600393	addi	x7,x0,2038	  x0:0x00000000  x7=0x000007f6
      109265000	     10925	80004454	017c9a93	slli	x21,x25,0x17	 x25:0x000007ba x21=0xdd000000
      109275000	     10926	80004458	412a5693	srai	x13,x20,0x12	 x20:0x00000000 x13=0x00000000
      109285000	     10927	8000445c	00ee92b3	sll	x5,x29,x14	 x29:0x00000001 x14:0xe2625f9c  x5=0x10000000
      109295000	     10928	80004460	001f1a93	slli	x21,x30,0x1	 x30:0x00000001 x21=0x00000002
      109305000	     10929	80004464	e2349a17	auipc	x20,0xe2349	 x20=0x6234d460
      109315000	     10930	80004468	5c922f13	slti	x30,x4,1481	  x4:0x00000000 x30=0x00000001
      109325000	     10931	8000446c	af2eb993	sltiu	x19,x29,-1294	 x29:0x00000001 x19=0x00000001
      109335000	     10932	80004470	c8657493	andi	x9,x10,-890	 x10:0x00000000  x9=0x00000000
      109345000	     10933	80004474	2a96c297	auipc	x5,0x2a96c	  x5=0xaa970470
      109355000	     10934	80004478	0997c063	blt	x15,x25,800044f8	 x15:0x00000000 x25:0x000007ba
      109365000	     10935	00000000	00000013	addi	x0,x0,0	  x0:0x00000000
      109375000	     10936	800044f4	00000013	addi	x0,x0,0	  x0:0x00000000
      109385000	     10937	800044f8	01ac9a63	bne	x25,x26,8000450c	 x25:0x000007ba x26:0x00008480
      109395000	     10938	00000000	00000013	addi	x0,x0,0	  x0:0x00000000
      109405000	     10939	80004508	00000013	addi	x0,x0,0	  x0:0x00000000
      109415000	     10940	8000450c	00ab4263	blt	x22,x10,80004510	 x22:0x00000000 x10:0x00000000
      109425000	     10941	80004510	0133f5b3	and	x11,x7,x19	  x7:0x000007f6 x19:0x00000001 x11=0x00000000
      109435000	     10942	80004514	002c2cb3	slt	x25,x24,x2	 x24:0x80004210  x2:0x1d9da064 x25=0x00000001
      109445000	     10943	80004518	8f1c0893	addi	x17,x24,-1807	 x24:0x80004210 x17=0x80003b01
      109455000	     10944	8000451c	02567663	bgeu	x12,x5,80004548	 x12:0x00000000  x5:0xaa970470
      109465000	     10945	80004520	00ae5fb3	srl	x31,x28,x10	 x28:0x80009f44 x10:0x00000000 x31=0x80009f44
      109475000	     10946	80004524	00455c63	bge	x10,x4,8000453c	 x10:0x00000000  x4:0x00000000
      109485000	     10947	00000000	00000013	addi	x0,x0,0	  x0:0x00000000
      109495000	     10948	80004538	00000013	addi	x0,x0,0	  x0:0x00000000
      109505000	     10949	8000453c	a00ff293	andi	x5,x31,-1536	 x31:0x80009f44  x5=0x80009a00
      109515000	     10950	80004540	40db5913	srai	x18,x22,0xd	 x22:0x00000000 x18=0x00000000
      109525000	     10951	80004544	00881933	sll	x18,x16,x8	 x16:0x00000000  x8:0x80009fc4 x18=0x00000000
      109535000	     10952	80004548	41fc55b3	sra	x11,x24,x31	 x24:0x80004210 x31:0x80009f44 x11=0xf8000421
      109545000	     10953	8000454c	403dd233	sra	x4,x27,x3	 x27:0x1d9da064  x3:0x6262c0d8  x4=0x0000001d
      109555000	     10954	80004550	01eb5463	bge	x22,x30,80004558	 x22:0x00000000 x30:0x00000001
      109565000	     10955	80004554	016776b3	and	x13,x14,x22	 x14:0xe2625f9c x22:0x00000000 x13=0x00000000
      109575000	     10956	80004558	010dc863	blt	x27,x16,80004568	 x27:0x1d9da064 x16:0x00000000
      109585000	     10957	8000455c	0b91ca93	xori	x21,x3,185	  x3:0x6262c0d8 x21=0x6262c061
      109595000	     10958	80004560	01e6ecb3	or	x25,x13,x30	 x13:0x00000000 x30:0x00000001 x25=0x00000001
      109605000	     10959	80004564	03380463	beq	x16,x19,8000458c	 x16:0x00000000 x19:0x00000001
      109615000	     10960	80004568	12088b93	addi	x23,x17,288	 x17:0x80003b01 x23=0x80003c21
      109625000	     10961	8000456c	039a0663	beq	x20,x25,80004598	 x20:0x6234d460 x25:0x00000001
      109635000	     10962	80004570	00545233	srl	x4,x8,x5	  x8:0x80009fc4  x5:0x80009a00  x4=0x80009fc4
      109645000	     10963	80004574	04aad863	bge	x21,x10,800045c4	 x21:0x6262c061 x10:0x00000000
      109655000	     10964	00000000	00000013	addi	x0,x0,0	  x0:0x00000000
      109665000	     10965	800045c0	00000013	addi	x0,x0,0	  x0:0x00000000
      109675000	     10966	800045c4	01b215b3	sll	x11,x4,x27	  x4:0x80009fc4 x27:0x1d9da064 x11=0x0009fc40
      109685000	     10967	800045c8	d990f713	andi	x14,x1,-615	  x1:0x00000000 x14=0x00000000
      109695000	     10968	800045cc	40b08933	sub	x18,x1,x11	  x1:0x00000000 x11:0x0009fc40 x18=0xfff603c0
      109705000	     10969	800045d0	015b9d13	slli	x26,x23,0x15	 x23:0x80003c21 x26=0x84200000
      109715000	     10970	800045d4	c8352513	slti	x10,x10,-893	 x10:0x00000000 x10=0x00000000
      109725000	     10971	800045d8	0193e533	or	x10,x7,x25	  x7:0x000007f6 x25:0x00000001 x10=0x000007f7
      109735000	     10972	800045dc	8e194213	xori	x4,x18,-1823	 x18:0xfff603c0  x4=0x0009fb21
      109745000	     10973	800045e0	406b5c33	sra	x24,x22,x6	 x22:0x00000000  x6:0x000002e8 x24=0x00000000
      109755000	     10974	800045e4	00be9493	slli	x9,x29,0xb	 x29:0x00000001  x9=0x00000800
      109765000	     10975	800045e8	016ba733	slt	x14,x23,x22	 x23:0x80003c21 x22:0x00000000 x14=0x00000001
      109775000	     10976	800045ec	401e5193	srai	x3,x28,0x1	 x28:0x80009f44  x3=0xc0004fa2
      109785000	     10977	800045f0	dff08093	addi	x1,x1,-513	  x1:0x00000000  x1=0xfffffdff
      109795000	     10978	800045f4	00000013	addi	x0,x0,0	  x0:0x00000000
      109805000	     10979	800045f8	41fadb13	srai	x22,x21,0x1f	 x21:0x6262c061 x22=0x00000000
      109815000	     10980	800045fc	b68ff893	andi	x17,x31,-1176	 x31:0x80009f44 x17=0x80009b40
      109825000	     10981	80004600	00e1fb33	and	x22,x3,x14	  x3:0xc0004fa2 x14:0x00000001 x22=0x00000000
      109835000	     10982	80004604	00be20b3	slt	x1,x28,x11	 x28:0x80009f44 x11:0x0009fc40  x1=0x00000001
      109845000	     10983	80004608	c1e5f993	andi	x19,x11,-994	 x11:0x0009fc40 x19=0x0009fc00
      109855000	     10984	8000460c	40f28733	sub	x14,x5,x15	  x5:0x80009a00 x15:0x00000000 x14=0x80009a00
      109865000	     10985	80004610	41338d33	sub	x26,x7,x19	  x7:0x000007f6 x19:0x0009fc00 x26=0xfff60bf6
      109875000	     10986	80004614	f8c3a193	slti	x3,x7,-116	  x7:0x000007f6  x3=0x00000000
      109885000	     10987	80004618	00000013	addi	x0,x0,0	  x0:0x00000000
      109895000	     10988	8000461c	00a7b2b3	sltu	x5,x15,x10	 x15:0x00000000 x10:0x000007f7  x5=0x00000001
      109905000	     10989	80004620	00afd113	srli	x2,x31,0xa	 x31:0x80009f44  x2=0x00200027
      109915000	     10990	80004624	141de093	ori	x1,x27,321	 x27:0x1d9da064  x1=0x1d9da165
      109925000	     10991	80004628	919da3b7	lui	x7,0x919da	  x7=0x919da000
      109935000	     10992	8000462c	ae78c793	xori	x15,x17,-1305	 x17:0x80009b40 x15=0x7fff61a7
      109945000	     10993	80004630	f340ac13	slti	x24,x1,-204	  x1:0x1d9da165 x24=0x00000000
      109955000	     10994	80004634	f10ce897	auipc	x17,0xf10ce	 x17=0x710d2630
      109965000	     10995	80004638	f1662b93	slti	x23,x12,-234	 x12:0x00000000 x23=0x00000000
      109975000	     10996	8000463c	018c3c33	sltu	x24,x24,x24	 x24:0x00000000 x24:0x00000000 x24=0x00000000
      109985000	     10997	80004640	018c3a33	sltu	x20,x24,x24	 x24:0x00000000 x24:0x00000000 x20=0x00000000
      109995000	     10998	80004644	d5b5bf93	sltiu	x31,x11,-677	 x11:0x0009fc40 x31=0x00000001
      110005000	     10999	80004648	d8a23893	sltiu	x17,x4,-630	  x4:0x0009fb21 x17=0x00000001
      110015000	     11000	8000464c	006b9233	sll	x4,x23,x6	 x23:0x00000000  x6:0x000002e8  x4=0x00000000
      110025000	     11001	80004650	016f62b3	or	x5,x30,x22	 x30:0x00000001 x22:0x00000000  x5=0x00000001
      110035000	     11002	80004654	00000013	addi	x0,x0,0	  x0:0x00000000
      110045000	     11003	80004658	004e2c03	lw	x24,4(x28)	 x28:0x80009f44 x24=0x8000250c PA:0x80009f48
      110055000	     11004	8000465c	401cddb3	sra	x27,x25,x1	 x25:0x00000001  x1:0x1d9da165 x27=0x00000000
      110065000	     11005	80004660	040e0e13	addi	x28,x28,64	 x28:0x80009f44 x28=0x80009f84
      110075000	     11006	80004664	004f5213	srli	x4,x30,0x4	 x30:0x00000001  x4=0x00000000
      110085000	     11007	80004668	2e024a93	xori	x21,x4,736	  x4:0x00000000 x21=0x000002e0
      110095000	     11008	8000466c	418a0bb3	sub	x23,x20,x24	 x20:0x00000000 x24:0x8000250c x23=0x7fffdaf4
      110105000	     11009	80004670	0153da93	srli	x21,x7,0x15	  x7:0x919da000 x21=0x0000048c
      110115000	     11010	80004674	c2668a13	addi	x20,x13,-986	 x13:0x00000000 x20=0xfffffc26
      110125000	     11011	80004678	001c0393	addi	x7,x24,1	 x24:0x8000250c  x7=0x8000250d
      110135000	     11012	8000467c	000383e7	jalr	x7,x7,0	  x7:0x8000250d  x7=0x8000467c
      110145000	     11013	00000000	00000013	addi	x0,x0,0	  x0:0x00000000
      110155000	     11014	8000250c	00000013	addi	x0,x0,0	  x0:0x00000000
      110165000	     11015	80002510	05629663	bne	x5,x22,8000255c	  x5:0x00000001 x22:0x00000000
      110175000	     11016	00000000	00000013	addi	x0,x0,0	  x0:0x00000000
      110185000	     11017	80002558	00000013	addi	x0,x0,0	  x0:0x00000000
      110195000	     11018	8000255c	0204e663	bltu	x9,x0,80002588	  x9:0x00000800  x0:0x00000000
      110205000	     11019	80002560	01763f33	sltu	x30,x12,x23	 x12:0x00000000 x23:0x7fffdaf4 x30=0x00000001
      110215000	     11020	80002564	71776293	ori	x5,x14,1815	 x14:0x80009a00  x5=0x80009f17
      110225000	     11021	80002568	0077d093	srli	x1,x15,0x7	 x15:0x7fff61a7  x1=0x00fffec3
      110235000	     11022	8000256c	419cd293	srai	x5,x25,0x19	 x25:0x00000001  x5=0x00000000
      110245000	     11023	80002570	a65b1c17	auipc	x24,0xa65b1	 x24=0x265b356c
      110255000	     11024	80002574	01fa8133	add	x2,x21,x31	 x21:0x0000048c x31:0x00000001  x2=0x0000048d
      110265000	     11025	80002578	436ad3b7	lui	x7,0x436ad	  x7=0x436ad000
      110275000	     11026	8000257c	01bab2b3	sltu	x5,x21,x27	 x21:0x0000048c x27:0x00000000  x5=0x00000000
      110285000	     11027	80002580	014bec33	or	x24,x23,x20	 x23:0x7fffdaf4 x20:0xfffffc26 x24=0xfffffef6
      110295000	     11028	80002584	015817b3	sll	x15,x16,x21	 x16:0x00000000 x21:0x0000048c x15=0x00000000
      110305000	     11029	80002588	01b59713	slli	x14,x11,0x1b	 x11:0x0009fc40 x14=0x00000000
      110315000	     11030	8000258c	00000817	auipc	x16,0x0	 x16=0x80002588
      110325000	     11031	80002590	00c80813	addi	x16,x16,12	 x16:0x80002588 x16=0x80002594
      110335000	     11032	80002594	00080067	jalr	x0,x16,0	 x16:0x80002594
      110345000	     11033	00000000	00000013	addi	x0,x0,0	  x0:0x00000000
      110355000	     11034	80002594	00000013	addi	x0,x0,0	  x0:0x00000000
      110365000	     11035	80002598	00100193	addi	x3,x0,1	  x0:0x00000000  x3=0x00000001
      110375000	     11036	8000259c	00000073	ecall	
      110385000	     11037	800025a0	fcce0e13	addi	x28,x28,-52	 x28:0x80009f84 x28=0x80009f50
