		Time			Cycle	PC		Insn	Decoded instruction	Register and memory contents
          65000	         5	80000004	00000293	addi	x5,x0,0	  x0:0x00000000  x5=0x00000000
          75000	         6	80000008	00000313	addi	x6,x0,0	  x0:0x00000000  x6=0x00000000
          85000	         7	8000000c	00628263	beq	x5,x6,80000010	  x5:0x00000000  x6:0x00000000
          95000	         8	00000000	00000013	addi	x0,x0,0	  x0:0x00000000
         105000	         9	8000000c	00000013	addi	x0,x0,0	  x0:0x00000000
         115000	        10	80000010	00000817	auipc	x16,0x0	 x16=0x8000000c
         125000	        11	80000014	00c80813	addi	x16,x16,12	 x16:0x8000000c x16=0x80000018
         135000	        12	80000018	00080067	jalr	x0,x16,0	 x16:0x80000018
         145000	        13	00000000	00000013	addi	x0,x0,0	  x0:0x00000000
         155000	        14	80000018	00000013	addi	x0,x0,0	  x0:0x00000000
         165000	        15	8000001c	400005b7	lui	x11,0x40000	 x11=0x40000000
         175000	        16	80000020	10058593	addi	x11,x11,256	 x11:0x40000000 x11=0x40000100
         185000	        17	80000024	00000013	addi	x0,x0,0	  x0:0x00000000
         195000	        18	80000028	0000a117	auipc	x2,0xa	  x2=0x8000a024
         205000	        19	8000002c	fa010113	addi	x2,x2,-96	  x2:0x8000a024  x2=0x80009fc4
         215000	        20	80000030	00004597	auipc	x11,0x4	 x11=0x8000402c
         225000	        21	80000034	6b058593	addi	x11,x11,1712	 x11:0x8000402c x11=0x800046dc
         235000	        22	80000038	0005e593	ori	x11,x11,0	 x11:0x800046dc x11=0x800046dc
         245000	        23	8000003c	00000013	addi	x0,x0,0	  x0:0x00000000
         255000	        24	80000040	00000597	auipc	x11,0x0	 x11=0x8000003c
         265000	        25	80000044	02058593	addi	x11,x11,32	 x11:0x8000003c x11=0x8000005c
         275000	        26	80000048	00000013	addi	x0,x0,0	  x0:0x00000000
         285000	        27	8000004c	00000013	addi	x0,x0,0	  x0:0x00000000
         295000	        28	80000050	000025b7	lui	x11,0x2	 x11=0x00002000
         305000	        29	80000054	80058593	addi	x11,x11,-2048	 x11:0x00002000 x11=0x00001800
         315000	        30	80000058	00000013	addi	x0,x0,0	  x0:0x00000000
         325000	        31	8000005c	00000013	addi	x0,x0,0	  x0:0x00000000
         335000	        32	80000060	28531037	lui	x0,0x28531	
         345000	        33	80000064	72900013	addi	x0,x0,1833	  x0:0x00000000
         355000	        34	80000068	00000093	addi	x1,x0,0	  x0:0x00000000  x1=0x00000000
         365000	        35	8000006c	c910b1b7	lui	x3,0xc910b	  x3=0xc910b000
         375000	        36	80000070	01c18193	addi	x3,x3,28	  x3:0xc910b000  x3=0xc910b01c
         385000	        37	80000074	cc5f7237	lui	x4,0xcc5f7	  x4=0xcc5f7000
         395000	        38	80000078	11c20213	addi	x4,x4,284	  x4:0xcc5f7000  x4=0xcc5f711c
         405000	        39	8000007c	800002b7	lui	x5,0x80000	  x5=0x80000000
         415000	        40	80000080	00000313	addi	x6,x0,0	  x0:0x00000000  x6=0x00000000
         425000	        41	80000084	2ec103b7	lui	x7,0x2ec10	  x7=0x2ec10000
         435000	        42	80000088	8bb38393	addi	x7,x7,-1861	  x7:0x2ec10000  x7=0x2ec0f8bb
         445000	        43	8000008c	80000437	lui	x8,0x80000	  x8=0x80000000
         455000	        44	80000090	00000493	addi	x9,x0,0	  x0:0x00000000  x9=0x00000000
         465000	        45	80000094	00000513	addi	x10,x0,0	  x0:0x00000000 x10=0x00000000
         475000	        46	80000098	00600593	addi	x11,x0,6	  x0:0x00000000 x11=0x00000006
         485000	        47	8000009c	f358a637	lui	x12,0xf358a	 x12=0xf358a000
         495000	        48	800000a0	39b60613	addi	x12,x12,923	 x12:0xf358a000 x12=0xf358a39b
         505000	        49	800000a4	800006b7	lui	x13,0x80000	 x13=0x80000000
         515000	        50	800000a8	80000737	lui	x14,0x80000	 x14=0x80000000
         525000	        51	800000ac	00e00793	addi	x15,x0,14	  x0:0x00000000 x15=0x0000000e
         535000	        52	800000b0	135b0837	lui	x16,0x135b0	 x16=0x135b0000
         545000	        53	800000b4	daa80813	addi	x16,x16,-598	 x16:0x135b0000 x16=0x135afdaa
         555000	        54	800000b8	84dc98b7	lui	x17,0x84dc9	 x17=0x84dc9000
         565000	        55	800000bc	f4188893	addi	x17,x17,-191	 x17:0x84dc9000 x17=0x84dc8f41
         575000	        56	800000c0	00000913	addi	x18,x0,0	  x0:0x00000000 x18=0x00000000
         585000	        57	800000c4	00800993	addi	x19,x0,8	  x0:0x00000000 x19=0x00000008
         595000	        58	800000c8	00000a13	addi	x20,x0,0	  x0:0x00000000 x20=0x00000000
         605000	        59	800000cc	fc6edab7	lui	x21,0xfc6ed	 x21=0xfc6ed000
         615000	        60	800000d0	94da8a93	addi	x21,x21,-1715	 x21:0xfc6ed000 x21=0xfc6ec94d
         625000	        61	800000d4	1888fb37	lui	x22,0x1888f	 x22=0x1888f000
         635000	        62	800000d8	c2db0b13	addi	x22,x22,-979	 x22:0x1888f000 x22=0x1888ec2d
         645000	        63	800000dc	00d00b93	addi	x23,x0,13	  x0:0x00000000 x23=0x0000000d
         655000	        64	800000e0	80000c37	lui	x24,0x80000	 x24=0x80000000
         665000	        65	800000e4	12276cb7	lui	x25,0x12276	 x25=0x12276000
         675000	        66	800000e8	2ddc8c93	addi	x25,x25,733	 x25:0x12276000 x25=0x122762dd
         685000	        67	800000ec	00000d13	addi	x26,x0,0	  x0:0x00000000 x26=0x00000000
         695000	        68	800000f0	fa32bdb7	lui	x27,0xfa32b	 x27=0xfa32b000
         705000	        69	800000f4	e09d8d93	addi	x27,x27,-503	 x27:0xfa32b000 x27=0xfa32ae09
         715000	        70	800000f8	f61abeb7	lui	x29,0xf61ab	 x29=0xf61ab000
         725000	        71	800000fc	401e8e93	addi	x29,x29,1025	 x29:0xf61ab000 x29=0xf61ab401
         735000	        72	80000100	00e00f13	addi	x30,x0,14	  x0:0x00000000 x30=0x0000000e
         745000	        73	80000104	77435fb7	lui	x31,0x77435	 x31=0x77435000
         755000	        74	80000108	3a2f8f93	addi	x31,x31,930	 x31:0x77435000 x31=0x774353a2
         765000	        75	8000010c	0000ae17	auipc	x28,0xa	 x28=0x8000a108
         775000	        76	80000110	e7ce0e13	addi	x28,x28,-388	 x28:0x8000a108 x28=0x80009f84
         785000	        77	80000114	030000ef	jal	x1,80000114	  x1=0x80000114
         795000	        78	00000000	00000013	addi	x0,x0,0	  x0:0x00000000
         805000	        79	80000140	00000013	addi	x0,x0,0	  x0:0x00000000
         815000	        80	80000144	ffdff0ef	jal	x1,80000144	  x1=0x80000144
         825000	        81	00000000	00000013	addi	x0,x0,0	  x0:0x00000000
         835000	        82	8000013c	00000013	addi	x0,x0,0	  x0:0x00000000
         845000	        83	80000140	ffdff36f	jal	x6,80000140	  x6=0x80000140
         855000	        84	00000000	00000013	addi	x0,x0,0	  x0:0x00000000
         865000	        85	80000138	00000013	addi	x0,x0,0	  x0:0x00000000
         875000	        86	8000013c	fe9ff0ef	jal	x1,8000013c	  x1=0x8000013c
         885000	        87	00000000	00000013	addi	x0,x0,0	  x0:0x00000000
         895000	        88	80000120	00000013	addi	x0,x0,0	  x0:0x00000000
         905000	        89	80000124	024000ef	jal	x1,80000124	  x1=0x80000124
         915000	        90	00000000	00000013	addi	x0,x0,0	  x0:0x00000000
         925000	        91	80000144	00000013	addi	x0,x0,0	  x0:0x00000000
         935000	        92	80000148	008000ef	jal	x1,80000148	  x1=0x80000148
         945000	        93	00000000	00000013	addi	x0,x0,0	  x0:0x00000000
         955000	        94	8000014c	00000013	addi	x0,x0,0	  x0:0x00000000
         965000	        95	80000150	fe9ff36f	jal	x6,80000150	  x6=0x80000150
         975000	        96	00000000	00000013	addi	x0,x0,0	  x0:0x00000000
         985000	        97	80000134	00000013	addi	x0,x0,0	  x0:0x00000000
         995000	        98	80000138	fe1ff0ef	jal	x1,80000138	  x1=0x80000138
        1005000	        99	00000000	00000013	addi	x0,x0,0	  x0:0x00000000
        1015000	       100	80000114	00000013	addi	x0,x0,0	  x0:0x00000000
        1025000	       101	80000118	0100036f	jal	x6,80000118	  x6=0x80000118
        1035000	       102	00000000	00000013	addi	x0,x0,0	  x0:0x00000000
        1045000	       103	80000124	00000013	addi	x0,x0,0	  x0:0x00000000
        1055000	       104	80000128	00c000ef	jal	x1,80000128	  x1=0x80000128
        1065000	       105	00000000	00000013	addi	x0,x0,0	  x0:0x00000000
        1075000	       106	80000130	00000013	addi	x0,x0,0	  x0:0x00000000
        1085000	       107	80000134	fe9ff0ef	jal	x1,80000134	  x1=0x80000134
        1095000	       108	00000000	00000013	addi	x0,x0,0	  x0:0x00000000
        1105000	       109	80000118	00000013	addi	x0,x0,0	  x0:0x00000000
        1115000	       110	8000011c	00400d6f	jal	x26,8000011c	 x26=0x8000011c
        1125000	       111	00000000	00000013	addi	x0,x0,0	  x0:0x00000000
        1135000	       112	8000011c	00000013	addi	x0,x0,0	  x0:0x00000000
        1145000	       113	80000120	010000ef	jal	x1,80000120	  x1=0x80000120
        1155000	       114	00000000	00000013	addi	x0,x0,0	  x0:0x00000000
        1165000	       115	8000012c	00000013	addi	x0,x0,0	  x0:0x00000000
        1175000	       116	80000130	01c000ef	jal	x1,80000130	  x1=0x80000130
        1185000	       117	00000000	00000013	addi	x0,x0,0	  x0:0x00000000
        1195000	       118	80000148	00000013	addi	x0,x0,0	  x0:0x00000000
        1205000	       119	8000014c	fe1ff36f	jal	x6,8000014c	  x6=0x8000014c
        1215000	       120	00000000	00000013	addi	x0,x0,0	  x0:0x00000000
        1225000	       121	80000128	00000013	addi	x0,x0,0	  x0:0x00000000
        1235000	       122	8000012c	0280066f	jal	x12,8000012c	 x12=0x8000012c
        1245000	       123	00000000	00000013	addi	x0,x0,0	  x0:0x00000000
        1255000	       124	80000150	00000013	addi	x0,x0,0	  x0:0x00000000
        1265000	       125	80000154	01481f93	slli	x31,x16,0x14	 x16:0x135afdaa x31=0xdaa00000
        1275000	       126	80000158	024000ef	jal	x1,80000158	  x1=0x80000158
        1285000	       127	00000000	00000013	addi	x0,x0,0	  x0:0x00000000
        1295000	       128	80000178	00000013	addi	x0,x0,0	  x0:0x00000000
        1305000	       129	8000017c	fe1ff0ef	jal	x1,8000017c	  x1=0x8000017c
        1315000	       130	00000000	00000013	addi	x0,x0,0	  x0:0x00000000
        1325000	       131	80000158	00000013	addi	x0,x0,0	  x0:0x00000000
        1335000	       132	8000015c	028000ef	jal	x1,8000015c	  x1=0x8000015c
        1345000	       133	00000000	00000013	addi	x0,x0,0	  x0:0x00000000
        1355000	       134	80000180	00000013	addi	x0,x0,0	  x0:0x00000000
        1365000	       135	80000184	004000ef	jal	x1,80000184	  x1=0x80000184
        1375000	       136	00000000	00000013	addi	x0,x0,0	  x0:0x00000000
        1385000	       137	80000184	00000013	addi	x0,x0,0	  x0:0x00000000
        1395000	       138	80000188	fe1ff2ef	jal	x5,80000188	  x5=0x80000188
        1405000	       139	00000000	00000013	addi	x0,x0,0	  x0:0x00000000
        1415000	       140	80000164	00000013	addi	x0,x0,0	  x0:0x00000000
        1425000	       141	80000168	00c00a6f	jal	x20,80000168	 x20=0x80000168
        1435000	       142	00000000	00000013	addi	x0,x0,0	  x0:0x00000000
        1445000	       143	80000170	00000013	addi	x0,x0,0	  x0:0x00000000
        1455000	       144	80000174	ffdff3ef	jal	x7,80000174	  x7=0x80000174
        1465000	       145	00000000	00000013	addi	x0,x0,0	  x0:0x00000000
        1475000	       146	8000016c	00000013	addi	x0,x0,0	  x0:0x00000000
        1485000	       147	80000170	ff5ff0ef	jal	x1,80000170	  x1=0x80000170
        1495000	       148	00000000	00000013	addi	x0,x0,0	  x0:0x00000000
        1505000	       149	80000160	00000013	addi	x0,x0,0	  x0:0x00000000
        1515000	       150	80000164	ffdff36f	jal	x6,80000164	  x6=0x80000164
        1525000	       151	00000000	00000013	addi	x0,x0,0	  x0:0x00000000
        1535000	       152	8000015c	00000013	addi	x0,x0,0	  x0:0x00000000
        1545000	       153	80000160	018000ef	jal	x1,80000160	  x1=0x80000160
        1555000	       154	00000000	00000013	addi	x0,x0,0	  x0:0x00000000
        1565000	       155	80000174	00000013	addi	x0,x0,0	  x0:0x00000000
        1575000	       156	80000178	ff5ff36f	jal	x6,80000178	  x6=0x80000178
        1585000	       157	00000000	00000013	addi	x0,x0,0	  x0:0x00000000
        1595000	       158	80000168	00000013	addi	x0,x0,0	  x0:0x00000000
        1605000	       159	8000016c	014000ef	jal	x1,8000016c	  x1=0x8000016c
        1615000	       160	00000000	00000013	addi	x0,x0,0	  x0:0x00000000
        1625000	       161	8000017c	00000013	addi	x0,x0,0	  x0:0x00000000
        1635000	       162	80000180	00c000ef	jal	x1,80000180	  x1=0x80000180
        1645000	       163	00000000	00000013	addi	x0,x0,0	  x0:0x00000000
        1655000	       164	80000188	00000013	addi	x0,x0,0	  x0:0x00000000
        1665000	       165	8000018c	dcc82c93	slti	x25,x16,-564	 x16:0x135afdaa x25=0x00000000
        1675000	       166	80000190	040000ef	jal	x1,80000190	  x1=0x80000190
        1685000	       167	00000000	00000013	addi	x0,x0,0	  x0:0x00000000
        1695000	       168	800001cc	00000013	addi	x0,x0,0	  x0:0x00000000
        1705000	       169	800001d0	ffdffdef	jal	x27,800001d0	 x27=0x800001d0
        1715000	       170	00000000	00000013	addi	x0,x0,0	  x0:0x00000000
        1725000	       171	800001c8	00000013	addi	x0,x0,0	  x0:0x00000000
        1735000	       172	800001cc	ff9ff0ef	jal	x1,800001cc	  x1=0x800001cc
        1745000	       173	00000000	00000013	addi	x0,x0,0	  x0:0x00000000
        1755000	       174	800001c0	00000013	addi	x0,x0,0	  x0:0x00000000
        1765000	       175	800001c4	fe1ff0ef	jal	x1,800001c4	  x1=0x800001c4
        1775000	       176	00000000	00000013	addi	x0,x0,0	  x0:0x00000000
        1785000	       177	800001a0	00000013	addi	x0,x0,0	  x0:0x00000000
        1795000	       178	800001a4	044000ef	jal	x1,800001a4	  x1=0x800001a4
        1805000	       179	00000000	00000013	addi	x0,x0,0	  x0:0x00000000
        1815000	       180	800001e4	00000013	addi	x0,x0,0	  x0:0x00000000
        1825000	       181	800001e8	ff9ff0ef	jal	x1,800001e8	  x1=0x800001e8
        1835000	       182	00000000	00000013	addi	x0,x0,0	  x0:0x00000000
        1845000	       183	800001dc	00000013	addi	x0,x0,0	  x0:0x00000000
        1855000	       184	800001e0	00400aef	jal	x21,800001e0	 x21=0x800001e0
        1865000	       185	00000000	00000013	addi	x0,x0,0	  x0:0x00000000
        1875000	       186	800001e0	00000013	addi	x0,x0,0	  x0:0x00000000
        1885000	       187	800001e4	ff5ff0ef	jal	x1,800001e4	  x1=0x800001e4
        1895000	       188	00000000	00000013	addi	x0,x0,0	  x0:0x00000000
        1905000	       189	800001d4	00000013	addi	x0,x0,0	  x0:0x00000000
        1915000	       190	800001d8	004002ef	jal	x5,800001d8	  x5=0x800001d8
        1925000	       191	00000000	00000013	addi	x0,x0,0	  x0:0x00000000
        1935000	       192	800001d8	00000013	addi	x0,x0,0	  x0:0x00000000
        1945000	       193	800001dc	fd9ff0ef	jal	x1,800001dc	  x1=0x800001dc
        1955000	       194	00000000	00000013	addi	x0,x0,0	  x0:0x00000000
        1965000	       195	800001b0	00000013	addi	x0,x0,0	  x0:0x00000000
        1975000	       196	800001b4	008000ef	jal	x1,800001b4	  x1=0x800001b4
        1985000	       197	00000000	00000013	addi	x0,x0,0	  x0:0x00000000
        1995000	       198	800001b8	00000013	addi	x0,x0,0	  x0:0x00000000
        2005000	       199	800001bc	ff1ff0ef	jal	x1,800001bc	  x1=0x800001bc
        2015000	       200	00000000	00000013	addi	x0,x0,0	  x0:0x00000000
        2025000	       201	800001a8	00000013	addi	x0,x0,0	  x0:0x00000000
        2035000	       202	800001ac	00c000ef	jal	x1,800001ac	  x1=0x800001ac
        2045000	       203	00000000	00000013	addi	x0,x0,0	  x0:0x00000000
        2055000	       204	800001b4	00000013	addi	x0,x0,0	  x0:0x00000000
        2065000	       205	800001b8	034000ef	jal	x1,800001b8	  x1=0x800001b8
        2075000	       206	00000000	00000013	addi	x0,x0,0	  x0:0x00000000
        2085000	       207	800001e8	00000013	addi	x0,x0,0	  x0:0x00000000
        2095000	       208	800001ec	fbdff0ef	jal	x1,800001ec	  x1=0x800001ec
        2105000	       209	00000000	00000013	addi	x0,x0,0	  x0:0x00000000
        2115000	       210	800001a4	00000013	addi	x0,x0,0	  x0:0x00000000
        2125000	       211	800001a8	008000ef	jal	x1,800001a8	  x1=0x800001a8
        2135000	       212	00000000	00000013	addi	x0,x0,0	  x0:0x00000000
        2145000	       213	800001ac	00000013	addi	x0,x0,0	  x0:0x00000000
        2155000	       214	800001b0	fe9ff0ef	jal	x1,800001b0	  x1=0x800001b0
        2165000	       215	00000000	00000013	addi	x0,x0,0	  x0:0x00000000
        2175000	       216	80000194	00000013	addi	x0,x0,0	  x0:0x00000000
        2185000	       217	80000198	028000ef	jal	x1,80000198	  x1=0x80000198
        2195000	       218	00000000	00000013	addi	x0,x0,0	  x0:0x00000000
        2205000	       219	800001bc	00000013	addi	x0,x0,0	  x0:0x00000000
        2215000	       220	800001c0	008000ef	jal	x1,800001c0	  x1=0x800001c0
        2225000	       221	00000000	00000013	addi	x0,x0,0	  x0:0x00000000
        2235000	       222	800001c4	00000013	addi	x0,x0,0	  x0:0x00000000
        2245000	       223	800001c8	fd9ffd6f	jal	x26,800001c8	 x26=0x800001c8
        2255000	       224	00000000	00000013	addi	x0,x0,0	  x0:0x00000000
        2265000	       225	8000019c	00000013	addi	x0,x0,0	  x0:0x00000000
        2275000	       226	800001a0	0500036f	jal	x6,800001a0	  x6=0x800001a0
        2285000	       227	00000000	00000013	addi	x0,x0,0	  x0:0x00000000
        2295000	       228	800001ec	00000013	addi	x0,x0,0	  x0:0x00000000
        2305000	       229	800001f0	fa5ff0ef	jal	x1,800001f0	  x1=0x800001f0
        2315000	       230	00000000	00000013	addi	x0,x0,0	  x0:0x00000000
        2325000	       231	80000190	00000013	addi	x0,x0,0	  x0:0x00000000
        2335000	       232	80000194	008000ef	jal	x1,80000194	  x1=0x80000194
        2345000	       233	00000000	00000013	addi	x0,x0,0	  x0:0x00000000
        2355000	       234	80000198	00000013	addi	x0,x0,0	  x0:0x00000000
        2365000	       235	8000019c	038001ef	jal	x3,8000019c	  x3=0x8000019c
        2375000	       236	00000000	00000013	addi	x0,x0,0	  x0:0x00000000
        2385000	       237	800001d0	00000013	addi	x0,x0,0	  x0:0x00000000
        2395000	       238	800001d4	0200036f	jal	x6,800001d4	  x6=0x800001d4
        2405000	       239	00000000	00000013	addi	x0,x0,0	  x0:0x00000000
        2415000	       240	800001f0	00000013	addi	x0,x0,0	  x0:0x00000000
        2425000	       241	800001f4	f17c2713	slti	x14,x24,-233	 x24:0x80000000 x14=0x00000001
        2435000	       242	800001f8	008000ef	jal	x1,800001f8	  x1=0x800001f8
        2445000	       243	00000000	00000013	addi	x0,x0,0	  x0:0x00000000
        2455000	       244	800001fc	00000013	addi	x0,x0,0	  x0:0x00000000
        2465000	       245	80000200	03c0036f	jal	x6,80000200	  x6=0x80000200
        2475000	       246	00000000	00000013	addi	x0,x0,0	  x0:0x00000000
        2485000	       247	80000238	00000013	addi	x0,x0,0	  x0:0x00000000
        2495000	       248	8000023c	ff5ff0ef	jal	x1,8000023c	  x1=0x8000023c
        2505000	       249	00000000	00000013	addi	x0,x0,0	  x0:0x00000000
        2515000	       250	8000022c	00000013	addi	x0,x0,0	  x0:0x00000000
        2525000	       251	80000230	fcdff36f	jal	x6,80000230	  x6=0x80000230
        2535000	       252	00000000	00000013	addi	x0,x0,0	  x0:0x00000000
        2545000	       253	800001f8	00000013	addi	x0,x0,0	  x0:0x00000000
        2555000	       254	800001fc	0300036f	jal	x6,800001fc	  x6=0x800001fc
        2565000	       255	00000000	00000013	addi	x0,x0,0	  x0:0x00000000
        2575000	       256	80000228	00000013	addi	x0,x0,0	  x0:0x00000000
        2585000	       257	8000022c	fe9ff0ef	jal	x1,8000022c	  x1=0x8000022c
        2595000	       258	00000000	00000013	addi	x0,x0,0	  x0:0x00000000
        2605000	       259	80000210	00000013	addi	x0,x0,0	  x0:0x00000000
        2615000	       260	80000214	014000ef	jal	x1,80000214	  x1=0x80000214
        2625000	       261	00000000	00000013	addi	x0,x0,0	  x0:0x00000000
        2635000	       262	80000224	00000013	addi	x0,x0,0	  x0:0x00000000
        2645000	       263	80000228	fddff0ef	jal	x1,80000228	  x1=0x80000228
        2655000	       264	00000000	00000013	addi	x0,x0,0	  x0:0x00000000
        2665000	       265	80000200	00000013	addi	x0,x0,0	  x0:0x00000000
        2675000	       266	80000204	004000ef	jal	x1,80000204	  x1=0x80000204
        2685000	       267	00000000	00000013	addi	x0,x0,0	  x0:0x00000000
        2695000	       268	80000204	00000013	addi	x0,x0,0	  x0:0x00000000
        2705000	       269	80000208	01c000ef	jal	x1,80000208	  x1=0x80000208
        2715000	       270	00000000	00000013	addi	x0,x0,0	  x0:0x00000000
        2725000	       271	80000220	00000013	addi	x0,x0,0	  x0:0x00000000
        2735000	       272	80000224	014000ef	jal	x1,80000224	  x1=0x80000224
        2745000	       273	00000000	00000013	addi	x0,x0,0	  x0:0x00000000
        2755000	       274	80000234	00000013	addi	x0,x0,0	  x0:0x00000000
        2765000	       275	80000238	fe1ff0ef	jal	x1,80000238	  x1=0x80000238
        2775000	       276	00000000	00000013	addi	x0,x0,0	  x0:0x00000000
        2785000	       277	80000214	00000013	addi	x0,x0,0	  x0:0x00000000
        2795000	       278	80000218	008000ef	jal	x1,80000218	  x1=0x80000218
        2805000	       279	00000000	00000013	addi	x0,x0,0	  x0:0x00000000
        2815000	       280	8000021c	00000013	addi	x0,x0,0	  x0:0x00000000
        2825000	       281	80000220	ffdfff6f	jal	x30,80000220	 x30=0x80000220
        2835000	       282	00000000	00000013	addi	x0,x0,0	  x0:0x00000000
        2845000	       283	80000218	00000013	addi	x0,x0,0	  x0:0x00000000
        2855000	       284	8000021c	ff5ff0ef	jal	x1,8000021c	  x1=0x8000021c
        2865000	       285	00000000	00000013	addi	x0,x0,0	  x0:0x00000000
        2875000	       286	8000020c	00000013	addi	x0,x0,0	  x0:0x00000000
        2885000	       287	80000210	ffdff0ef	jal	x1,80000210	  x1=0x80000210
        2895000	       288	00000000	00000013	addi	x0,x0,0	  x0:0x00000000
        2905000	       289	80000208	00000013	addi	x0,x0,0	  x0:0x00000000
        2915000	       290	8000020c	028000ef	jal	x1,8000020c	  x1=0x8000020c
        2925000	       291	00000000	00000013	addi	x0,x0,0	  x0:0x00000000
        2935000	       292	80000230	00000013	addi	x0,x0,0	  x0:0x00000000
        2945000	       293	80000234	00c0036f	jal	x6,80000234	  x6=0x80000234
        2955000	       294	00000000	00000013	addi	x0,x0,0	  x0:0x00000000
        2965000	       295	8000023c	00000013	addi	x0,x0,0	  x0:0x00000000
        2975000	       296	80000240	f91cef13	ori	x30,x25,-111	 x25:0x00000000 x30=0xffffff91
        2985000	       297	80000244	038000ef	jal	x1,80000244	  x1=0x80000244
        2995000	       298	00000000	00000013	addi	x0,x0,0	  x0:0x00000000
        3005000	       299	80000278	00000013	addi	x0,x0,0	  x0:0x00000000
        3015000	       300	8000027c	fd9ff36f	jal	x6,8000027c	  x6=0x8000027c
        3025000	       301	00000000	00000013	addi	x0,x0,0	  x0:0x00000000
        3035000	       302	80000250	00000013	addi	x0,x0,0	  x0:0x00000000
        3045000	       303	80000254	014000ef	jal	x1,80000254	  x1=0x80000254
        3055000	       304	00000000	00000013	addi	x0,x0,0	  x0:0x00000000
        3065000	       305	80000264	00000013	addi	x0,x0,0	  x0:0x00000000
        3075000	       306	80000268	024000ef	jal	x1,80000268	  x1=0x80000268
        3085000	       307	00000000	00000013	addi	x0,x0,0	  x0:0x00000000
        3095000	       308	80000288	00000013	addi	x0,x0,0	  x0:0x00000000
        3105000	       309	8000028c	fc1ff0ef	jal	x1,8000028c	  x1=0x8000028c
        3115000	       310	00000000	00000013	addi	x0,x0,0	  x0:0x00000000
        3125000	       311	80000248	00000013	addi	x0,x0,0	  x0:0x00000000
        3135000	       312	8000024c	ffdff66f	jal	x12,8000024c	 x12=0x8000024c
        3145000	       313	00000000	00000013	addi	x0,x0,0	  x0:0x00000000
        3155000	       314	80000244	00000013	addi	x0,x0,0	  x0:0x00000000
        3165000	       315	80000248	040002ef	jal	x5,80000248	  x5=0x80000248
        3175000	       316	00000000	00000013	addi	x0,x0,0	  x0:0x00000000
        3185000	       317	80000284	00000013	addi	x0,x0,0	  x0:0x00000000
        3195000	       318	80000288	ffdff0ef	jal	x1,80000288	  x1=0x80000288
        3205000	       319	00000000	00000013	addi	x0,x0,0	  x0:0x00000000
        3215000	       320	80000280	00000013	addi	x0,x0,0	  x0:0x00000000
        3225000	       321	80000284	ff5ff0ef	jal	x1,80000284	  x1=0x80000284
        3235000	       322	00000000	00000013	addi	x0,x0,0	  x0:0x00000000
        3245000	       323	80000274	00000013	addi	x0,x0,0	  x0:0x00000000
        3255000	       324	80000278	008000ef	jal	x1,80000278	  x1=0x80000278
        3265000	       325	00000000	00000013	addi	x0,x0,0	  x0:0x00000000
        3275000	       326	8000027c	00000013	addi	x0,x0,0	  x0:0x00000000
        3285000	       327	80000280	ff5ffc6f	jal	x24,80000280	 x24=0x80000280
        3295000	       328	00000000	00000013	addi	x0,x0,0	  x0:0x00000000
        3305000	       329	80000270	00000013	addi	x0,x0,0	  x0:0x00000000
        3315000	       330	80000274	fe9ff0ef	jal	x1,80000274	  x1=0x80000274
        3325000	       331	00000000	00000013	addi	x0,x0,0	  x0:0x00000000
        3335000	       332	80000258	00000013	addi	x0,x0,0	  x0:0x00000000
        3345000	       333	8000025c	ff5ffb6f	jal	x22,8000025c	 x22=0x8000025c
        3355000	       334	00000000	00000013	addi	x0,x0,0	  x0:0x00000000
        3365000	       335	8000024c	00000013	addi	x0,x0,0	  x0:0x00000000
        3375000	       336	80000250	01400b6f	jal	x22,80000250	 x22=0x80000250
        3385000	       337	00000000	00000013	addi	x0,x0,0	  x0:0x00000000
        3395000	       338	80000260	00000013	addi	x0,x0,0	  x0:0x00000000
        3405000	       339	80000264	ffdff0ef	jal	x1,80000264	  x1=0x80000264
        3415000	       340	00000000	00000013	addi	x0,x0,0	  x0:0x00000000
        3425000	       341	8000025c	00000013	addi	x0,x0,0	  x0:0x00000000
        3435000	       342	80000260	00c000ef	jal	x1,80000260	  x1=0x80000260
        3445000	       343	00000000	00000013	addi	x0,x0,0	  x0:0x00000000
        3455000	       344	80000268	00000013	addi	x0,x0,0	  x0:0x00000000
        3465000	       345	8000026c	fedffbef	jal	x23,8000026c	 x23=0x8000026c
        3475000	       346	00000000	00000013	addi	x0,x0,0	  x0:0x00000000
        3485000	       347	80000254	00000013	addi	x0,x0,0	  x0:0x00000000
        3495000	       348	80000258	0180046f	jal	x8,80000258	  x8=0x80000258
        3505000	       349	00000000	00000013	addi	x0,x0,0	  x0:0x00000000
        3515000	       350	8000026c	00000013	addi	x0,x0,0	  x0:0x00000000
        3525000	       351	80000270	020000ef	jal	x1,80000270	  x1=0x80000270
        3535000	       352	00000000	00000013	addi	x0,x0,0	  x0:0x00000000
        3545000	       353	8000028c	00000013	addi	x0,x0,0	  x0:0x00000000
        3555000	       354	80000290	f2bb3993	sltiu	x19,x22,-213	 x22:0x80000250 x19=0x00000001
        3565000	       355	80000294	028000ef	jal	x1,80000294	  x1=0x80000294
        3575000	       356	00000000	00000013	addi	x0,x0,0	  x0:0x00000000
        3585000	       357	800002b8	00000013	addi	x0,x0,0	  x0:0x00000000
        3595000	       358	800002bc	fddff4ef	jal	x9,800002bc	  x9=0x800002bc
        3605000	       359	00000000	00000013	addi	x0,x0,0	  x0:0x00000000
        3615000	       360	80000294	00000013	addi	x0,x0,0	  x0:0x00000000
        3625000	       361	80000298	0340036f	jal	x6,80000298	  x6=0x80000298
        3635000	       362	00000000	00000013	addi	x0,x0,0	  x0:0x00000000
        3645000	       363	800002c8	00000013	addi	x0,x0,0	  x0:0x00000000
        3655000	       364	800002cc	ff5ffaef	jal	x21,800002cc	 x21=0x800002cc
        3665000	       365	00000000	00000013	addi	x0,x0,0	  x0:0x00000000
        3675000	       366	800002bc	00000013	addi	x0,x0,0	  x0:0x00000000
        3685000	       367	800002c0	018000ef	jal	x1,800002c0	  x1=0x800002c0
        3695000	       368	00000000	00000013	addi	x0,x0,0	  x0:0x00000000
        3705000	       369	800002d4	00000013	addi	x0,x0,0	  x0:0x00000000
        3715000	       370	800002d8	fedff0ef	jal	x1,800002d8	  x1=0x800002d8
        3725000	       371	00000000	00000013	addi	x0,x0,0	  x0:0x00000000
        3735000	       372	800002c0	00000013	addi	x0,x0,0	  x0:0x00000000
        3745000	       373	800002c4	fe5ffeef	jal	x29,800002c4	 x29=0x800002c4
        3755000	       374	00000000	00000013	addi	x0,x0,0	  x0:0x00000000
        3765000	       375	800002a4	00000013	addi	x0,x0,0	  x0:0x00000000
        3775000	       376	800002a8	ff5ff0ef	jal	x1,800002a8	  x1=0x800002a8
        3785000	       377	00000000	00000013	addi	x0,x0,0	  x0:0x00000000
        3795000	       378	80000298	00000013	addi	x0,x0,0	  x0:0x00000000
        3805000	       379	8000029c	03800aef	jal	x21,8000029c	 x21=0x8000029c
        3815000	       380	00000000	00000013	addi	x0,x0,0	  x0:0x00000000
        3825000	       381	800002d0	00000013	addi	x0,x0,0	  x0:0x00000000
        3835000	       382	800002d4	fe1ff36f	jal	x6,800002d4	  x6=0x800002d4
        3845000	       383	00000000	00000013	addi	x0,x0,0	  x0:0x00000000
        3855000	       384	800002b0	00000013	addi	x0,x0,0	  x0:0x00000000
        3865000	       385	800002b4	0140036f	jal	x6,800002b4	  x6=0x800002b4
        3875000	       386	00000000	00000013	addi	x0,x0,0	  x0:0x00000000
        3885000	       387	800002c4	00000013	addi	x0,x0,0	  x0:0x00000000
        3895000	       388	800002c8	ff1ff36f	jal	x6,800002c8	  x6=0x800002c8
        3905000	       389	00000000	00000013	addi	x0,x0,0	  x0:0x00000000
        3915000	       390	800002b4	00000013	addi	x0,x0,0	  x0:0x00000000
        3925000	       391	800002b8	fedff0ef	jal	x1,800002b8	  x1=0x800002b8
        3935000	       392	00000000	00000013	addi	x0,x0,0	  x0:0x00000000
        3945000	       393	800002a0	00000013	addi	x0,x0,0	  x0:0x00000000
        3955000	       394	800002a4	ffdff36f	jal	x6,800002a4	  x6=0x800002a4
        3965000	       395	00000000	00000013	addi	x0,x0,0	  x0:0x00000000
        3975000	       396	8000029c	00000013	addi	x0,x0,0	  x0:0x00000000
        3985000	       397	800002a0	01000c6f	jal	x24,800002a0	 x24=0x800002a0
        3995000	       398	00000000	00000013	addi	x0,x0,0	  x0:0x00000000
        4005000	       399	800002ac	00000013	addi	x0,x0,0	  x0:0x00000000
        4015000	       400	800002b0	ffdff1ef	jal	x3,800002b0	  x3=0x800002b0
        4025000	       401	00000000	00000013	addi	x0,x0,0	  x0:0x00000000
        4035000	       402	800002a8	00000013	addi	x0,x0,0	  x0:0x00000000
        4045000	       403	800002ac	024000ef	jal	x1,800002ac	  x1=0x800002ac
        4055000	       404	00000000	00000013	addi	x0,x0,0	  x0:0x00000000
        4065000	       405	800002cc	00000013	addi	x0,x0,0	  x0:0x00000000
        4075000	       406	800002d0	00c005ef	jal	x11,800002d0	 x11=0x800002d0
        4085000	       407	00000000	00000013	addi	x0,x0,0	  x0:0x00000000
        4095000	       408	800002d8	00000013	addi	x0,x0,0	  x0:0x00000000
        4105000	       409	800002dc	40425193	srai	x3,x4,0x4	  x4:0xcc5f711c  x3=0xfcc5f711
        4115000	       410	800002e0	050000ef	jal	x1,800002e0	  x1=0x800002e0
        4125000	       411	00000000	00000013	addi	x0,x0,0	  x0:0x00000000
        4135000	       412	8000032c	00000013	addi	x0,x0,0	  x0:0x00000000
        4145000	       413	80000330	004007ef	jal	x15,80000330	 x15=0x80000330
        4155000	       414	00000000	00000013	addi	x0,x0,0	  x0:0x00000000
        4165000	       415	80000330	00000013	addi	x0,x0,0	  x0:0x00000000
        4175000	       416	80000334	fd9ff0ef	jal	x1,80000334	  x1=0x80000334
        4185000	       417	00000000	00000013	addi	x0,x0,0	  x0:0x00000000
        4195000	       418	80000308	00000013	addi	x0,x0,0	  x0:0x00000000
        4205000	       419	8000030c	fe1ff0ef	jal	x1,8000030c	  x1=0x8000030c
        4215000	       420	00000000	00000013	addi	x0,x0,0	  x0:0x00000000
        4225000	       421	800002e8	00000013	addi	x0,x0,0	  x0:0x00000000
        4235000	       422	800002ec	004000ef	jal	x1,800002ec	  x1=0x800002ec
        4245000	       423	00000000	00000013	addi	x0,x0,0	  x0:0x00000000
        4255000	       424	800002ec	00000013	addi	x0,x0,0	  x0:0x00000000
        4265000	       425	800002f0	050000ef	jal	x1,800002f0	  x1=0x800002f0
        4275000	       426	00000000	00000013	addi	x0,x0,0	  x0:0x00000000
        4285000	       427	8000033c	00000013	addi	x0,x0,0	  x0:0x00000000
        4295000	       428	80000340	fe5ff76f	jal	x14,80000340	 x14=0x80000340
        4305000	       429	00000000	00000013	addi	x0,x0,0	  x0:0x00000000
        4315000	       430	80000320	00000013	addi	x0,x0,0	  x0:0x00000000
        4325000	       431	80000324	024000ef	jal	x1,80000324	  x1=0x80000324
        4335000	       432	00000000	00000013	addi	x0,x0,0	  x0:0x00000000
        4345000	       433	80000344	00000013	addi	x0,x0,0	  x0:0x00000000
        4355000	       434	80000348	fe1ff0ef	jal	x1,80000348	  x1=0x80000348
        4365000	       435	00000000	00000013	addi	x0,x0,0	  x0:0x00000000
        4375000	       436	80000324	00000013	addi	x0,x0,0	  x0:0x00000000
        4385000	       437	80000328	fe1ffaef	jal	x21,80000328	 x21=0x80000328
        4395000	       438	00000000	00000013	addi	x0,x0,0	  x0:0x00000000
        4405000	       439	80000304	00000013	addi	x0,x0,0	  x0:0x00000000
        4415000	       440	80000308	024000ef	jal	x1,80000308	  x1=0x80000308
        4425000	       441	00000000	00000013	addi	x0,x0,0	  x0:0x00000000
        4435000	       442	80000328	00000013	addi	x0,x0,0	  x0:0x00000000
        4445000	       443	8000032c	fd5ff0ef	jal	x1,8000032c	  x1=0x8000032c
        4455000	       444	00000000	00000013	addi	x0,x0,0	  x0:0x00000000
        4465000	       445	800002fc	00000013	addi	x0,x0,0	  x0:0x00000000
        4475000	       446	80000300	018000ef	jal	x1,80000300	  x1=0x80000300
        4485000	       447	00000000	00000013	addi	x0,x0,0	  x0:0x00000000
        4495000	       448	80000314	00000013	addi	x0,x0,0	  x0:0x00000000
        4505000	       449	80000318	fd1ff3ef	jal	x7,80000318	  x7=0x80000318
        4515000	       450	00000000	00000013	addi	x0,x0,0	  x0:0x00000000
        4525000	       451	800002e4	00000013	addi	x0,x0,0	  x0:0x00000000
        4535000	       452	800002e8	064000ef	jal	x1,800002e8	  x1=0x800002e8
        4545000	       453	00000000	00000013	addi	x0,x0,0	  x0:0x00000000
        4555000	       454	80000348	00000013	addi	x0,x0,0	  x0:0x00000000
        4565000	       455	8000034c	fb9ff0ef	jal	x1,8000034c	  x1=0x8000034c
        4575000	       456	00000000	00000013	addi	x0,x0,0	  x0:0x00000000
        4585000	       457	80000300	00000013	addi	x0,x0,0	  x0:0x00000000
        4595000	       458	80000304	038000ef	jal	x1,80000304	  x1=0x80000304
        4605000	       459	00000000	00000013	addi	x0,x0,0	  x0:0x00000000
        4615000	       460	80000338	00000013	addi	x0,x0,0	  x0:0x00000000
        4625000	       461	8000033c	fc1ff0ef	jal	x1,8000033c	  x1=0x8000033c
        4635000	       462	00000000	00000013	addi	x0,x0,0	  x0:0x00000000
        4645000	       463	800002f8	00000013	addi	x0,x0,0	  x0:0x00000000
        4655000	       464	800002fc	014000ef	jal	x1,800002fc	  x1=0x800002fc
        4665000	       465	00000000	00000013	addi	x0,x0,0	  x0:0x00000000
        4675000	       466	8000030c	00000013	addi	x0,x0,0	  x0:0x00000000
        4685000	       467	80000310	028000ef	jal	x1,80000310	  x1=0x80000310
        4695000	       468	00000000	00000013	addi	x0,x0,0	  x0:0x00000000
        4705000	       469	80000334	00000013	addi	x0,x0,0	  x0:0x00000000
        4715000	       470	80000338	00c000ef	jal	x1,80000338	  x1=0x80000338
        4725000	       471	00000000	00000013	addi	x0,x0,0	  x0:0x00000000
        4735000	       472	80000340	00000013	addi	x0,x0,0	  x0:0x00000000
        4745000	       473	80000344	fddff0ef	jal	x1,80000344	  x1=0x80000344
        4755000	       474	00000000	00000013	addi	x0,x0,0	  x0:0x00000000
        4765000	       475	8000031c	00000013	addi	x0,x0,0	  x0:0x00000000
        4775000	       476	80000320	fd9ff0ef	jal	x1,80000320	  x1=0x80000320
        4785000	       477	00000000	00000013	addi	x0,x0,0	  x0:0x00000000
        4795000	       478	800002f4	00000013	addi	x0,x0,0	  x0:0x00000000
        4805000	       479	800002f8	02400aef	jal	x21,800002f8	 x21=0x800002f8
        4815000	       480	00000000	00000013	addi	x0,x0,0	  x0:0x00000000
        4825000	       481	80000318	00000013	addi	x0,x0,0	  x0:0x00000000
        4835000	       482	8000031c	fd9ff0ef	jal	x1,8000031c	  x1=0x8000031c
        4845000	       483	00000000	00000013	addi	x0,x0,0	  x0:0x00000000
        4855000	       484	800002f0	00000013	addi	x0,x0,0	  x0:0x00000000
        4865000	       485	800002f4	020004ef	jal	x9,800002f4	  x9=0x800002f4
        4875000	       486	00000000	00000013	addi	x0,x0,0	  x0:0x00000000
        4885000	       487	80000310	00000013	addi	x0,x0,0	  x0:0x00000000
        4895000	       488	80000314	fd1ff0ef	jal	x1,80000314	  x1=0x80000314
        4905000	       489	00000000	00000013	addi	x0,x0,0	  x0:0x00000000
        4915000	       490	800002e0	00000013	addi	x0,x0,0	  x0:0x00000000
        4925000	       491	800002e4	06c00c6f	jal	x24,800002e4	 x24=0x800002e4
        4935000	       492	00000000	00000013	addi	x0,x0,0	  x0:0x00000000
        4945000	       493	8000034c	00000013	addi	x0,x0,0	  x0:0x00000000
        4955000	       494	80000350	0040036f	jal	x6,80000350	  x6=0x80000350
        4965000	       495	00000000	00000013	addi	x0,x0,0	  x0:0x00000000
        4975000	       496	80000350	00000013	addi	x0,x0,0	  x0:0x00000000
        4985000	       497	80000354	0082efb3	or	x31,x5,x8	  x5:0x80000248  x8:0x80000258 x31=0x80000258
        4995000	       498	80000358	00f77eb3	and	x29,x14,x15	 x14:0x80000340 x15:0x80000330 x29=0x80000300
        5005000	       499	8000035c	01c75a33	srl	x20,x14,x28	 x14:0x80000340 x28:0x80009f84 x20=0x08000034
        5015000	       500	80000360	00ef3433	sltu	x8,x30,x14	 x30:0xffffff91 x14:0x80000340  x8=0x00000000
        5025000	       501	80000364	000f9493	slli	x9,x31,0x0	 x31:0x80000258  x9=0x80000258
        5035000	       502	80000368	004e7233	and	x4,x28,x4	 x28:0x80009f84  x4:0xcc5f711c  x4=0x80001104
        5045000	       503	8000036c	f6836413	ori	x8,x6,-152	  x6:0x80000350  x8=0xffffff78
        5055000	       504	80000370	00714863	blt	x2,x7,80000380	  x2:0x80009fc4  x7:0x80000318
        5065000	       505	80000374	00000013	addi	x0,x0,0	  x0:0x00000000
        5075000	       506	80000378	00ae1ab3	sll	x21,x28,x10	 x28:0x80009f84 x10:0x00000000 x21=0x80009f84
        5085000	       507	8000037c	008c26b3	slt	x13,x24,x8	 x24:0x800002e4  x8:0xffffff78 x13=0x00000001
        5095000	       508	80000380	13d1ed93	ori	x27,x3,317	  x3:0xfcc5f711 x27=0xfcc5f73d
        5105000	       509	80000384	80062193	slti	x3,x12,-2048	 x12:0x8000024c  x3=0x00000001
        5115000	       510	80000388	e746b393	sltiu	x7,x13,-396	 x13:0x00000001  x7=0x00000001
        5125000	       511	8000038c	41c30233	sub	x4,x6,x28	  x6:0x80000350 x28:0x80009f84  x4=0xffff63cc
        5135000	       512	80000390	4164da33	sra	x20,x9,x22	  x9:0x80000258 x22:0x80000250 x20=0xffff8000
        5145000	       513	80000394	44006eb7	lui	x29,0x44006	 x29=0x44006000
        5155000	       514	80000398	5870db37	lui	x22,0x5870d	 x22=0x5870d000
        5165000	       515	8000039c	05d98063	beq	x19,x29,800003dc	 x19:0x00000001 x29:0x44006000
        5175000	       516	800003a0	f16e6b13	ori	x22,x28,-234	 x28:0x80009f84 x22=0xffffff96
        5185000	       517	800003a4	01b30eb3	add	x29,x6,x27	  x6:0x80000350 x27:0xfcc5f73d x29=0x7cc5fa8d
        5195000	       518	800003a8	04a8d863	bge	x17,x10,800003f8	 x17:0x84dc8f41 x10:0x00000000
        5205000	       519	800003ac	01896863	bltu	x18,x24,800003bc	 x18:0x00000000 x24:0x800002e4
        5215000	       520	00000000	00000013	addi	x0,x0,0	  x0:0x00000000
        5225000	       521	800003b8	00000013	addi	x0,x0,0	  x0:0x00000000
        5235000	       522	800003bc	4109d293	srai	x5,x19,0x10	 x19:0x00000001  x5=0x00000000
        5245000	       523	800003c0	01e691b3	sll	x3,x13,x30	 x13:0x00000001 x30:0xffffff91  x3=0x00020000
        5255000	       524	800003c4	03ea1863	bne	x20,x30,800003f4	 x20:0xffff8000 x30:0xffffff91
        5265000	       525	00000000	00000013	addi	x0,x0,0	  x0:0x00000000
        5275000	       526	800003f0	00000013	addi	x0,x0,0	  x0:0x00000000
        5285000	       527	800003f4	4160d613	srai	x12,x1,0x16	  x1:0x80000314 x12=0xfffffe00
        5295000	       528	800003f8	01f42cb3	slt	x25,x8,x31	  x8:0xffffff78 x31:0x80000258 x25=0x00000000
        5305000	       529	800003fc	43bd0513	addi	x10,x26,1083	 x26:0x800001c8 x10=0x80000603
        5315000	       530	80000400	009e7463	bgeu	x28,x9,80000408	 x28:0x80009f84  x9:0x80000258
        5325000	       531	00000000	00000013	addi	x0,x0,0	  x0:0x00000000
        5335000	       532	80000404	00000013	addi	x0,x0,0	  x0:0x00000000
        5345000	       533	80000408	307ec013	xori	x0,x29,775	 x29:0x7cc5fa8d
        5355000	       534	8000040c	bafe7613	andi	x12,x28,-1105	 x28:0x80009f84 x12=0x80009b84
        5365000	       535	80000410	40e35a93	srai	x21,x6,0xe	  x6:0x80000350 x21=0xfffe0000
        5375000	       536	80000414	01e751b3	srl	x3,x14,x30	 x14:0x80000340 x30:0xffffff91  x3=0x00004000
        5385000	       537	80000418	f8247a93	andi	x21,x8,-126	  x8:0xffffff78 x21=0xffffff00
        5395000	       538	8000041c	7c226b13	ori	x22,x4,1986	  x4:0xffff63cc x22=0xffff67ce
        5405000	       539	80000420	0151f863	bgeu	x3,x21,80000430	  x3:0x00004000 x21:0xffffff00
        5415000	       540	80000424	42263b93	sltiu	x23,x12,1058	 x12:0x80009b84 x23=0x00000000
        5425000	       541	80000428	f2624013	xori	x0,x4,-218	  x4:0xffff63cc
        5435000	       542	8000042c	028e1263	bne	x28,x8,80000450	 x28:0x80009f84  x8:0xffffff78
        5445000	       543	00000000	00000013	addi	x0,x0,0	  x0:0x00000000
        5455000	       544	8000044c	00000013	addi	x0,x0,0	  x0:0x00000000
        5465000	       545	80000450	cc0b3313	sltiu	x6,x22,-832	 x22:0xffff67ce  x6=0x00000001
        5475000	       546	80000454	03907c63	bgeu	x0,x25,8000048c	  x0:0x00000000 x25:0x00000000
        5485000	       547	00000000	00000013	addi	x0,x0,0	  x0:0x00000000
        5495000	       548	80000488	00000013	addi	x0,x0,0	  x0:0x00000000
        5505000	       549	8000048c	01f30463	beq	x6,x31,80000494	  x6:0x00000001 x31:0x80000258
        5515000	       550	80000490	b5aab513	sltiu	x10,x21,-1190	 x21:0xffffff00 x10=0x00000000
        5525000	       551	80000494	01de4733	xor	x14,x28,x29	 x28:0x80009f84 x29:0x7cc5fa8d x14=0xfcc56509
        5535000	       552	80000498	03745263	bge	x8,x23,800004bc	  x8:0xffffff78 x23:0x00000000
        5545000	       553	8000049c	4477e793	ori	x15,x15,1095	 x15:0x80000330 x15=0x80000777
        5555000	       554	800004a0	8afd4a13	xori	x20,x26,-1873	 x26:0x800001c8 x20=0x7ffff967
        5565000	       555	800004a4	635cb237	lui	x4,0x635cb	  x4=0x635cb000
        5575000	       556	800004a8	aa18be93	sltiu	x29,x17,-1375	 x17:0x84dc8f41 x29=0x00000001
        5585000	       557	800004ac	02161263	bne	x12,x1,800004d0	 x12:0x80009b84  x1:0x80000314
        5595000	       558	00000000	00000013	addi	x0,x0,0	  x0:0x00000000
        5605000	       559	800004cc	00000013	addi	x0,x0,0	  x0:0x00000000
        5615000	       560	800004d0	c08d0d93	addi	x27,x26,-1016	 x26:0x800001c8 x27=0x7ffffdd0
        5625000	       561	800004d4	2390c393	xori	x7,x1,569	  x1:0x80000314  x7=0x8000012d
        5635000	       562	800004d8	018bd0b3	srl	x1,x23,x24	 x23:0x00000000 x24:0x800002e4  x1=0x00000000
        5645000	       563	800004dc	03957863	bgeu	x10,x25,8000050c	 x10:0x00000000 x25:0x00000000
        5655000	       564	00000000	00000013	addi	x0,x0,0	  x0:0x00000000
        5665000	       565	80000508	00000013	addi	x0,x0,0	  x0:0x00000000
        5675000	       566	8000050c	41bb06b3	sub	x13,x22,x27	 x22:0xffff67ce x27:0x7ffffdd0 x13=0x7fff69fe
        5685000	       567	80000510	00d16533	or	x10,x2,x13	  x2:0x80009fc4 x13:0x7fff69fe x10=0xfffffffe
        5695000	       568	80000514	011d7ab3	and	x21,x26,x17	 x26:0x800001c8 x17:0x84dc8f41 x21=0x80000140
        5705000	       569	80000518	411c5393	srai	x7,x24,0x11	 x24:0x800002e4  x7=0xffffc000
        5715000	       570	8000051c	05e3c663	blt	x7,x30,80000568	  x7:0xffffc000 x30:0xffffff91
        5725000	       571	00000000	00000013	addi	x0,x0,0	  x0:0x00000000
        5735000	       572	80000564	00000013	addi	x0,x0,0	  x0:0x00000000
        5745000	       573	80000568	0186d333	srl	x6,x13,x24	 x13:0x7fff69fe x24:0x800002e4  x6=0x07fff69f
        5755000	       574	8000056c	41505f33	sra	x30,x0,x21	  x0:0x00000000 x21:0x80000140 x30=0x00000000
        5765000	       575	80000570	409ad333	sra	x6,x21,x9	 x21:0x80000140  x9:0x80000258  x6=0xffffff80
        5775000	       576	80000574	7f98f313	andi	x6,x17,2041	 x17:0x84dc8f41  x6=0x00000741
        5785000	       577	80000578	00000013	addi	x0,x0,0	  x0:0x00000000
        5795000	       578	8000057c	7217f717	auipc	x14,0x7217f	 x14=0xf217f578
        5805000	       579	80000580	dfc4fe93	andi	x29,x9,-516	  x9:0x80000258 x29=0x80000058
        5815000	       580	80000584	4162d0b3	sra	x1,x5,x22	  x5:0x00000000 x22:0xffff67ce  x1=0x00000000
        5825000	       581	80000588	3709fc13	andi	x24,x19,880	 x19:0x00000001 x24=0x00000000
        5835000	       582	8000058c	00002e97	auipc	x29,0x2	 x29=0x80002588
        5845000	       583	80000590	058e8e93	addi	x29,x29,88	 x29:0x80002588 x29=0x800025e0
        5855000	       584	80000594	c0982593	slti	x11,x16,-1015	 x16:0x135afdaa x11=0x00000000
        5865000	       585	80000598	3e9e8e93	addi	x29,x29,1001	 x29:0x800025e0 x29=0x800029c9
        5875000	       586	8000059c	016e83b3	add	x7,x29,x22	 x29:0x800029c9 x22:0xffff67ce  x7=0x7fff9197
        5885000	       587	800005a0	cb3d2993	slti	x19,x26,-845	 x26:0x800001c8 x19=0x00000001
        5895000	       588	800005a4	412bdb93	srai	x23,x23,0x12	 x23:0x00000000 x23=0x00000000
        5905000	       589	800005a8	004b9663	bne	x23,x4,800005b4	 x23:0x00000000  x4:0x635cb000
        5915000	       590	00000000	00000013	addi	x0,x0,0	  x0:0x00000000
        5925000	       591	800005b0	00000013	addi	x0,x0,0	  x0:0x00000000
        5935000	       592	800005b4	c17e80e7	jalr	x1,x29,-1001	 x29:0x800029c9  x1=0x800005b4
        5945000	       593	00000000	00000013	addi	x0,x0,0	  x0:0x00000000
        5955000	       594	800025e0	00000013	addi	x0,x0,0	  x0:0x00000000
        5965000	       595	800025e4	1f536b13	ori	x22,x6,501	  x6:0x00000741 x22=0x000007f5
        5975000	       596	800025e8	01cc8263	beq	x25,x28,800025ec	 x25:0x00000000 x28:0x80009f84
        5985000	       597	800025ec	fe0e0e13	addi	x28,x28,-32	 x28:0x80009f84 x28=0x80009f64
        5995000	       598	800025f0	a6412d93	slti	x27,x2,-1436	  x2:0x80009fc4 x27=0x00000001
        6005000	       599	800025f4	001e2223	sw	x1,4(x28)	 x28:0x80009f64  x1:0x800005b4 PA:0x80009f68
        6015000	       600	800025f8	4e820797	auipc	x15,0x4e820	 x15=0xce8225f4
        6025000	       601	800025fc	28122293	slti	x5,x4,641	  x4:0x635cb000  x5=0x00000000
        6035000	       602	80002600	0d126213	ori	x4,x4,209	  x4:0x635cb000  x4=0x635cb0d1
        6045000	       603	80002604	40d801b3	sub	x3,x16,x13	 x16:0x135afdaa x13:0x7fff69fe  x3=0x935b93ac
        6055000	       604	80002608	010000ef	jal	x1,80002608	  x1=0x80002608
        6065000	       605	00000000	00000013	addi	x0,x0,0	  x0:0x00000000
        6075000	       606	80002614	00000013	addi	x0,x0,0	  x0:0x00000000
        6085000	       607	80002618	ffdffa6f	jal	x20,80002618	 x20=0x80002618
        6095000	       608	00000000	00000013	addi	x0,x0,0	  x0:0x00000000
        6105000	       609	80002610	00000013	addi	x0,x0,0	  x0:0x00000000
        6115000	       610	80002614	040002ef	jal	x5,80002614	  x5=0x80002614
        6125000	       611	00000000	00000013	addi	x0,x0,0	  x0:0x00000000
        6135000	       612	80002650	00000013	addi	x0,x0,0	  x0:0x00000000
        6145000	       613	80002654	fb9ff0ef	jal	x1,80002654	  x1=0x80002654
        6155000	       614	00000000	00000013	addi	x0,x0,0	  x0:0x00000000
        6165000	       615	80002608	00000013	addi	x0,x0,0	  x0:0x00000000
        6175000	       616	8000260c	02c000ef	jal	x1,8000260c	  x1=0x8000260c
        6185000	       617	00000000	00000013	addi	x0,x0,0	  x0:0x00000000
        6195000	       618	80002634	00000013	addi	x0,x0,0	  x0:0x00000000
        6205000	       619	80002638	008000ef	jal	x1,80002638	  x1=0x80002638
        6215000	       620	00000000	00000013	addi	x0,x0,0	  x0:0x00000000
        6225000	       621	8000263c	00000013	addi	x0,x0,0	  x0:0x00000000
        6235000	       622	80002640	fe1ff0ef	jal	x1,80002640	  x1=0x80002640
        6245000	       623	00000000	00000013	addi	x0,x0,0	  x0:0x00000000
        6255000	       624	8000261c	00000013	addi	x0,x0,0	  x0:0x00000000
        6265000	       625	80002620	0440096f	jal	x18,80002620	 x18=0x80002620
        6275000	       626	00000000	00000013	addi	x0,x0,0	  x0:0x00000000
        6285000	       627	80002660	00000013	addi	x0,x0,0	  x0:0x00000000
        6295000	       628	80002664	ff5ff0ef	jal	x1,80002664	  x1=0x80002664
        6305000	       629	00000000	00000013	addi	x0,x0,0	  x0:0x00000000
        6315000	       630	80002654	00000013	addi	x0,x0,0	  x0:0x00000000
        6325000	       631	80002658	fd1ff0ef	jal	x1,80002658	  x1=0x80002658
        6335000	       632	00000000	00000013	addi	x0,x0,0	  x0:0x00000000
        6345000	       633	80002624	00000013	addi	x0,x0,0	  x0:0x00000000
        6355000	       634	80002628	00c0066f	jal	x12,80002628	 x12=0x80002628
        6365000	       635	00000000	00000013	addi	x0,x0,0	  x0:0x00000000
        6375000	       636	80002630	00000013	addi	x0,x0,0	  x0:0x00000000
        6385000	       637	80002634	fddff1ef	jal	x3,80002634	  x3=0x80002634
        6395000	       638	00000000	00000013	addi	x0,x0,0	  x0:0x00000000
        6405000	       639	8000260c	00000013	addi	x0,x0,0	  x0:0x00000000
        6415000	       640	80002610	034000ef	jal	x1,80002610	  x1=0x80002610
        6425000	       641	00000000	00000013	addi	x0,x0,0	  x0:0x00000000
        6435000	       642	80002640	00000013	addi	x0,x0,0	  x0:0x00000000
        6445000	       643	80002644	fe9ff0ef	jal	x1,80002644	  x1=0x80002644
        6455000	       644	00000000	00000013	addi	x0,x0,0	  x0:0x00000000
        6465000	       645	80002628	00000013	addi	x0,x0,0	  x0:0x00000000
        6475000	       646	8000262c	0240036f	jal	x6,8000262c	  x6=0x8000262c
        6485000	       647	00000000	00000013	addi	x0,x0,0	  x0:0x00000000
        6495000	       648	8000264c	00000013	addi	x0,x0,0	  x0:0x00000000
        6505000	       649	80002650	fe1ff0ef	jal	x1,80002650	  x1=0x80002650
        6515000	       650	00000000	00000013	addi	x0,x0,0	  x0:0x00000000
        6525000	       651	8000262c	00000013	addi	x0,x0,0	  x0:0x00000000
        6535000	       652	80002630	01c001ef	jal	x3,80002630	  x3=0x80002630
        6545000	       653	00000000	00000013	addi	x0,x0,0	  x0:0x00000000
        6555000	       654	80002648	00000013	addi	x0,x0,0	  x0:0x00000000
        6565000	       655	8000264c	fd1fff6f	jal	x30,8000264c	 x30=0x8000264c
        6575000	       656	00000000	00000013	addi	x0,x0,0	  x0:0x00000000
        6585000	       657	80002618	00000013	addi	x0,x0,0	  x0:0x00000000
        6595000	       658	8000261c	020000ef	jal	x1,8000261c	  x1=0x8000261c
        6605000	       659	00000000	00000013	addi	x0,x0,0	  x0:0x00000000
        6615000	       660	80002638	00000013	addi	x0,x0,0	  x0:0x00000000
        6625000	       661	8000263c	020005ef	jal	x11,8000263c	 x11=0x8000263c
        6635000	       662	00000000	00000013	addi	x0,x0,0	  x0:0x00000000
        6645000	       663	80002658	00000013	addi	x0,x0,0	  x0:0x00000000
        6655000	       664	8000265c	004000ef	jal	x1,8000265c	  x1=0x8000265c
        6665000	       665	00000000	00000013	addi	x0,x0,0	  x0:0x00000000
        6675000	       666	8000265c	00000013	addi	x0,x0,0	  x0:0x00000000
        6685000	       667	80002660	fe9ff76f	jal	x14,80002660	 x14=0x80002660
        6695000	       668	00000000	00000013	addi	x0,x0,0	  x0:0x00000000
        6705000	       669	80002644	00000013	addi	x0,x0,0	  x0:0x00000000
        6715000	       670	80002648	fddff36f	jal	x6,80002648	  x6=0x80002648
        6725000	       671	00000000	00000013	addi	x0,x0,0	  x0:0x00000000
        6735000	       672	80002620	00000013	addi	x0,x0,0	  x0:0x00000000
        6745000	       673	80002624	044008ef	jal	x17,80002624	 x17=0x80002624
        6755000	       674	00000000	00000013	addi	x0,x0,0	  x0:0x00000000
        6765000	       675	80002664	00000013	addi	x0,x0,0	  x0:0x00000000
        6775000	       676	80002668	0109df33	srl	x30,x19,x16	 x19:0x00000001 x16:0x135afdaa x30=0x00000000
        6785000	       677	8000266c	02c000ef	jal	x1,8000266c	  x1=0x8000266c
        6795000	       678	00000000	00000013	addi	x0,x0,0	  x0:0x00000000
        6805000	       679	80002694	00000013	addi	x0,x0,0	  x0:0x00000000
        6815000	       680	80002698	028000ef	jal	x1,80002698	  x1=0x80002698
        6825000	       681	00000000	00000013	addi	x0,x0,0	  x0:0x00000000
        6835000	       682	800026bc	00000013	addi	x0,x0,0	  x0:0x00000000
        6845000	       683	800026c0	fb9ff0ef	jal	x1,800026c0	  x1=0x800026c0
        6855000	       684	00000000	00000013	addi	x0,x0,0	  x0:0x00000000
        6865000	       685	80002674	00000013	addi	x0,x0,0	  x0:0x00000000
        6875000	       686	80002678	02c0036f	jal	x6,80002678	  x6=0x80002678
        6885000	       687	00000000	00000013	addi	x0,x0,0	  x0:0x00000000
        6895000	       688	800026a0	00000013	addi	x0,x0,0	  x0:0x00000000
        6905000	       689	800026a4	fcdff0ef	jal	x1,800026a4	  x1=0x800026a4
        6915000	       690	00000000	00000013	addi	x0,x0,0	  x0:0x00000000
        6925000	       691	8000266c	00000013	addi	x0,x0,0	  x0:0x00000000
        6935000	       692	80002670	0400026f	jal	x4,80002670	  x4=0x80002670
        6945000	       693	00000000	00000013	addi	x0,x0,0	  x0:0x00000000
        6955000	       694	800026ac	00000013	addi	x0,x0,0	  x0:0x00000000
        6965000	       695	800026b0	fd5ff0ef	jal	x1,800026b0	  x1=0x800026b0
        6975000	       696	00000000	00000013	addi	x0,x0,0	  x0:0x00000000
        6985000	       697	80002680	00000013	addi	x0,x0,0	  x0:0x00000000
        6995000	       698	80002684	038000ef	jal	x1,80002684	  x1=0x80002684
        7005000	       699	00000000	00000013	addi	x0,x0,0	  x0:0x00000000
        7015000	       700	800026b8	00000013	addi	x0,x0,0	  x0:0x00000000
        7025000	       701	800026bc	018000ef	jal	x1,800026bc	  x1=0x800026bc
        7035000	       702	00000000	00000013	addi	x0,x0,0	  x0:0x00000000
        7045000	       703	800026d0	00000013	addi	x0,x0,0	  x0:0x00000000
        7055000	       704	800026d4	fb9ff0ef	jal	x1,800026d4	  x1=0x800026d4
        7065000	       705	00000000	00000013	addi	x0,x0,0	  x0:0x00000000
        7075000	       706	80002688	00000013	addi	x0,x0,0	  x0:0x00000000
        7085000	       707	8000268c	050000ef	jal	x1,8000268c	  x1=0x8000268c
        7095000	       708	00000000	00000013	addi	x0,x0,0	  x0:0x00000000
        7105000	       709	800026d8	00000013	addi	x0,x0,0	  x0:0x00000000
        7115000	       710	800026dc	fb9ff0ef	jal	x1,800026dc	  x1=0x800026dc
        7125000	       711	00000000	00000013	addi	x0,x0,0	  x0:0x00000000
        7135000	       712	80002690	00000013	addi	x0,x0,0	  x0:0x00000000
        7145000	       713	80002694	0340036f	jal	x6,80002694	  x6=0x80002694
        7155000	       714	00000000	00000013	addi	x0,x0,0	  x0:0x00000000
        7165000	       715	800026c4	00000013	addi	x0,x0,0	  x0:0x00000000
        7175000	       716	800026c8	fc1ff0ef	jal	x1,800026c8	  x1=0x800026c8
        7185000	       717	00000000	00000013	addi	x0,x0,0	  x0:0x00000000
        7195000	       718	80002684	00000013	addi	x0,x0,0	  x0:0x00000000
        7205000	       719	80002688	02c000ef	jal	x1,80002688	  x1=0x80002688
        7215000	       720	00000000	00000013	addi	x0,x0,0	  x0:0x00000000
        7225000	       721	800026b0	00000013	addi	x0,x0,0	  x0:0x00000000
        7235000	       722	800026b4	01c000ef	jal	x1,800026b4	  x1=0x800026b4
        7245000	       723	00000000	00000013	addi	x0,x0,0	  x0:0x00000000
        7255000	       724	800026cc	00000013	addi	x0,x0,0	  x0:0x00000000
        7265000	       725	800026d0	ffdff0ef	jal	x1,800026d0	  x1=0x800026d0
        7275000	       726	00000000	00000013	addi	x0,x0,0	  x0:0x00000000
        7285000	       727	800026c8	00000013	addi	x0,x0,0	  x0:0x00000000
        7295000	       728	800026cc	fedff0ef	jal	x1,800026cc	  x1=0x800026cc
        7305000	       729	00000000	00000013	addi	x0,x0,0	  x0:0x00000000
        7315000	       730	800026b4	00000013	addi	x0,x0,0	  x0:0x00000000
        7325000	       731	800026b8	ff1ff0ef	jal	x1,800026b8	  x1=0x800026b8
        7335000	       732	00000000	00000013	addi	x0,x0,0	  x0:0x00000000
        7345000	       733	800026a4	00000013	addi	x0,x0,0	  x0:0x00000000
        7355000	       734	800026a8	fe9ff0ef	jal	x1,800026a8	  x1=0x800026a8
        7365000	       735	00000000	00000013	addi	x0,x0,0	  x0:0x00000000
        7375000	       736	8000268c	00000013	addi	x0,x0,0	  x0:0x00000000
        7385000	       737	80002690	0500036f	jal	x6,80002690	  x6=0x80002690
        7395000	       738	00000000	00000013	addi	x0,x0,0	  x0:0x00000000
        7405000	       739	800026dc	00000013	addi	x0,x0,0	  x0:0x00000000
        7415000	       740	800026e0	fe5ff36f	jal	x6,800026e0	  x6=0x800026e0
        7425000	       741	00000000	00000013	addi	x0,x0,0	  x0:0x00000000
        7435000	       742	800026c0	00000013	addi	x0,x0,0	  x0:0x00000000
        7445000	       743	800026c4	fbdff0ef	jal	x1,800026c4	  x1=0x800026c4
        7455000	       744	00000000	00000013	addi	x0,x0,0	  x0:0x00000000
        7465000	       745	8000267c	00000013	addi	x0,x0,0	  x0:0x00000000
        7475000	       746	80002680	01c005ef	jal	x11,80002680	 x11=0x80002680
        7485000	       747	00000000	00000013	addi	x0,x0,0	  x0:0x00000000
        7495000	       748	80002698	00000013	addi	x0,x0,0	  x0:0x00000000
        7505000	       749	8000269c	fd9ff36f	jal	x6,8000269c	  x6=0x8000269c
        7515000	       750	00000000	00000013	addi	x0,x0,0	  x0:0x00000000
        7525000	       751	80002670	00000013	addi	x0,x0,0	  x0:0x00000000
        7535000	       752	80002674	070000ef	jal	x1,80002674	  x1=0x80002674
        7545000	       753	00000000	00000013	addi	x0,x0,0	  x0:0x00000000
        7555000	       754	800026e0	00000013	addi	x0,x0,0	  x0:0x00000000
        7565000	       755	800026e4	f99ff0ef	jal	x1,800026e4	  x1=0x800026e4
        7575000	       756	00000000	00000013	addi	x0,x0,0	  x0:0x00000000
        7585000	       757	80002678	00000013	addi	x0,x0,0	  x0:0x00000000
        7595000	       758	8000267c	05c006ef	jal	x13,8000267c	 x13=0x8000267c
        7605000	       759	00000000	00000013	addi	x0,x0,0	  x0:0x00000000
        7615000	       760	800026d4	00000013	addi	x0,x0,0	  x0:0x00000000
        7625000	       761	800026d8	fd5ff0ef	jal	x1,800026d8	  x1=0x800026d8
        7635000	       762	00000000	00000013	addi	x0,x0,0	  x0:0x00000000
        7645000	       763	800026a8	00000013	addi	x0,x0,0	  x0:0x00000000
        7655000	       764	800026ac	ff5ff2ef	jal	x5,800026ac	  x5=0x800026ac
        7665000	       765	00000000	00000013	addi	x0,x0,0	  x0:0x00000000
        7675000	       766	8000269c	00000013	addi	x0,x0,0	  x0:0x00000000
        7685000	       767	800026a0	048007ef	jal	x15,800026a0	 x15=0x800026a0
        7695000	       768	00000000	00000013	addi	x0,x0,0	  x0:0x00000000
        7705000	       769	800026e4	00000013	addi	x0,x0,0	  x0:0x00000000
        7715000	       770	800026e8	8035b013	sltiu	x0,x11,-2045	 x11:0x80002680
        7725000	       771	800026ec	004000ef	jal	x1,800026ec	  x1=0x800026ec
        7735000	       772	00000000	00000013	addi	x0,x0,0	  x0:0x00000000
        7745000	       773	800026ec	00000013	addi	x0,x0,0	  x0:0x00000000
        7755000	       774	800026f0	01000d6f	jal	x26,800026f0	 x26=0x800026f0
        7765000	       775	00000000	00000013	addi	x0,x0,0	  x0:0x00000000
        7775000	       776	800026fc	00000013	addi	x0,x0,0	  x0:0x00000000
        7785000	       777	80002700	ff9ff0ef	jal	x1,80002700	  x1=0x80002700
        7795000	       778	00000000	00000013	addi	x0,x0,0	  x0:0x00000000
        7805000	       779	800026f4	00000013	addi	x0,x0,0	  x0:0x00000000
        7815000	       780	800026f8	030000ef	jal	x1,800026f8	  x1=0x800026f8
        7825000	       781	00000000	00000013	addi	x0,x0,0	  x0:0x00000000
        7835000	       782	80002724	00000013	addi	x0,x0,0	  x0:0x00000000
        7845000	       783	80002728	fedff0ef	jal	x1,80002728	  x1=0x80002728
        7855000	       784	00000000	00000013	addi	x0,x0,0	  x0:0x00000000
        7865000	       785	80002710	00000013	addi	x0,x0,0	  x0:0x00000000
        7875000	       786	80002714	ff5ff0ef	jal	x1,80002714	  x1=0x80002714
        7885000	       787	00000000	00000013	addi	x0,x0,0	  x0:0x00000000
        7895000	       788	80002704	00000013	addi	x0,x0,0	  x0:0x00000000
        7905000	       789	80002708	ffdff36f	jal	x6,80002708	  x6=0x80002708
        7915000	       790	00000000	00000013	addi	x0,x0,0	  x0:0x00000000
        7925000	       791	80002700	00000013	addi	x0,x0,0	  x0:0x00000000
        7935000	       792	80002704	0280026f	jal	x4,80002704	  x4=0x80002704
        7945000	       793	00000000	00000013	addi	x0,x0,0	  x0:0x00000000
        7955000	       794	80002728	00000013	addi	x0,x0,0	  x0:0x00000000
        7965000	       795	8000272c	fc9ff0ef	jal	x1,8000272c	  x1=0x8000272c
        7975000	       796	00000000	00000013	addi	x0,x0,0	  x0:0x00000000
        7985000	       797	800026f0	00000013	addi	x0,x0,0	  x0:0x00000000
        7995000	       798	800026f4	024009ef	jal	x19,800026f4	 x19=0x800026f4
        8005000	       799	00000000	00000013	addi	x0,x0,0	  x0:0x00000000
        8015000	       800	80002714	00000013	addi	x0,x0,0	  x0:0x00000000
        8025000	       801	80002718	fe5ff0ef	jal	x1,80002718	  x1=0x80002718
        8035000	       802	00000000	00000013	addi	x0,x0,0	  x0:0x00000000
        8045000	       803	800026f8	00000013	addi	x0,x0,0	  x0:0x00000000
        8055000	       804	800026fc	0140036f	jal	x6,800026fc	  x6=0x800026fc
        8065000	       805	00000000	00000013	addi	x0,x0,0	  x0:0x00000000
        8075000	       806	8000270c	00000013	addi	x0,x0,0	  x0:0x00000000
        8085000	       807	80002710	024002ef	jal	x5,80002710	  x5=0x80002710
        8095000	       808	00000000	00000013	addi	x0,x0,0	  x0:0x00000000
        8105000	       809	80002730	00000013	addi	x0,x0,0	  x0:0x00000000
        8115000	       810	80002734	ff1ff46f	jal	x8,80002734	  x8=0x80002734
        8125000	       811	00000000	00000013	addi	x0,x0,0	  x0:0x00000000
        8135000	       812	80002720	00000013	addi	x0,x0,0	  x0:0x00000000
        8145000	       813	80002724	00c000ef	jal	x1,80002724	  x1=0x80002724
        8155000	       814	00000000	00000013	addi	x0,x0,0	  x0:0x00000000
        8165000	       815	8000272c	00000013	addi	x0,x0,0	  x0:0x00000000
        8175000	       816	80002730	ff1ff0ef	jal	x1,80002730	  x1=0x80002730
        8185000	       817	00000000	00000013	addi	x0,x0,0	  x0:0x00000000
        8195000	       818	8000271c	00000013	addi	x0,x0,0	  x0:0x00000000
        8205000	       819	80002720	ffdff36f	jal	x6,80002720	  x6=0x80002720
        8215000	       820	00000000	00000013	addi	x0,x0,0	  x0:0x00000000
        8225000	       821	80002718	00000013	addi	x0,x0,0	  x0:0x00000000
        8235000	       822	8000271c	ff1ff36f	jal	x6,8000271c	  x6=0x8000271c
        8245000	       823	00000000	00000013	addi	x0,x0,0	  x0:0x00000000
        8255000	       824	80002708	00000013	addi	x0,x0,0	  x0:0x00000000
        8265000	       825	8000270c	02c000ef	jal	x1,8000270c	  x1=0x8000270c
        8275000	       826	00000000	00000013	addi	x0,x0,0	  x0:0x00000000
        8285000	       827	80002734	00000013	addi	x0,x0,0	  x0:0x00000000
        8295000	       828	80002738	0051fcb3	and	x25,x3,x5	  x3:0x80002630  x5:0x80002710 x25=0x80002610
        8305000	       829	8000273c	02c000ef	jal	x1,8000273c	  x1=0x8000273c
        8315000	       830	00000000	00000013	addi	x0,x0,0	  x0:0x00000000
        8325000	       831	80002764	00000013	addi	x0,x0,0	  x0:0x00000000
        8335000	       832	80002768	ff5ff0ef	jal	x1,80002768	  x1=0x80002768
        8345000	       833	00000000	00000013	addi	x0,x0,0	  x0:0x00000000
        8355000	       834	80002758	00000013	addi	x0,x0,0	  x0:0x00000000
        8365000	       835	8000275c	028002ef	jal	x5,8000275c	  x5=0x8000275c
        8375000	       836	00000000	00000013	addi	x0,x0,0	  x0:0x00000000
        8385000	       837	80002780	00000013	addi	x0,x0,0	  x0:0x00000000
        8395000	       838	80002784	fc1ff5ef	jal	x11,80002784	 x11=0x80002784
        8405000	       839	00000000	00000013	addi	x0,x0,0	  x0:0x00000000
        8415000	       840	80002740	00000013	addi	x0,x0,0	  x0:0x00000000
        8425000	       841	80002744	044000ef	jal	x1,80002744	  x1=0x80002744
        8435000	       842	00000000	00000013	addi	x0,x0,0	  x0:0x00000000
        8445000	       843	80002784	00000013	addi	x0,x0,0	  x0:0x00000000
        8455000	       844	80002788	ff5ff36f	jal	x6,80002788	  x6=0x80002788
        8465000	       845	00000000	00000013	addi	x0,x0,0	  x0:0x00000000
        8475000	       846	80002778	00000013	addi	x0,x0,0	  x0:0x00000000
        8485000	       847	8000277c	ff1ff0ef	jal	x1,8000277c	  x1=0x8000277c
        8495000	       848	00000000	00000013	addi	x0,x0,0	  x0:0x00000000
        8505000	       849	80002768	00000013	addi	x0,x0,0	  x0:0x00000000
        8515000	       850	8000276c	fe1ff0ef	jal	x1,8000276c	  x1=0x8000276c
        8525000	       851	00000000	00000013	addi	x0,x0,0	  x0:0x00000000
        8535000	       852	80002748	00000013	addi	x0,x0,0	  x0:0x00000000
        8545000	       853	8000274c	00c000ef	jal	x1,8000274c	  x1=0x8000274c
        8555000	       854	00000000	00000013	addi	x0,x0,0	  x0:0x00000000
        8565000	       855	80002754	00000013	addi	x0,x0,0	  x0:0x00000000
        8575000	       856	80002758	ffdff36f	jal	x6,80002758	  x6=0x80002758
        8585000	       857	00000000	00000013	addi	x0,x0,0	  x0:0x00000000
        8595000	       858	80002750	00000013	addi	x0,x0,0	  x0:0x00000000
        8605000	       859	80002754	02c000ef	jal	x1,80002754	  x1=0x80002754
        8615000	       860	00000000	00000013	addi	x0,x0,0	  x0:0x00000000
        8625000	       861	8000277c	00000013	addi	x0,x0,0	  x0:0x00000000
        8635000	       862	80002780	ff9ff36f	jal	x6,80002780	  x6=0x80002780
        8645000	       863	00000000	00000013	addi	x0,x0,0	  x0:0x00000000
        8655000	       864	80002774	00000013	addi	x0,x0,0	  x0:0x00000000
        8665000	       865	80002778	ff9ff0ef	jal	x1,80002778	  x1=0x80002778
        8675000	       866	00000000	00000013	addi	x0,x0,0	  x0:0x00000000
        8685000	       867	8000276c	00000013	addi	x0,x0,0	  x0:0x00000000
        8695000	       868	80002770	0040036f	jal	x6,80002770	  x6=0x80002770
        8705000	       869	00000000	00000013	addi	x0,x0,0	  x0:0x00000000
        8715000	       870	80002770	00000013	addi	x0,x0,0	  x0:0x00000000
        8725000	       871	80002774	fedff0ef	jal	x1,80002774	  x1=0x80002774
        8735000	       872	00000000	00000013	addi	x0,x0,0	  x0:0x00000000
        8745000	       873	8000275c	00000013	addi	x0,x0,0	  x0:0x00000000
        8755000	       874	80002760	fe9ffdef	jal	x27,80002760	 x27=0x80002760
        8765000	       875	00000000	00000013	addi	x0,x0,0	  x0:0x00000000
        8775000	       876	80002744	00000013	addi	x0,x0,0	  x0:0x00000000
        8785000	       877	80002748	ff9ff0ef	jal	x1,80002748	  x1=0x80002748
        8795000	       878	00000000	00000013	addi	x0,x0,0	  x0:0x00000000
        8805000	       879	8000273c	00000013	addi	x0,x0,0	  x0:0x00000000
        8815000	       880	80002740	02400aef	jal	x21,80002740	 x21=0x80002740
        8825000	       881	00000000	00000013	addi	x0,x0,0	  x0:0x00000000
        8835000	       882	80002760	00000013	addi	x0,x0,0	  x0:0x00000000
        8845000	       883	80002764	fedff36f	jal	x6,80002764	  x6=0x80002764
        8855000	       884	00000000	00000013	addi	x0,x0,0	  x0:0x00000000
        8865000	       885	8000274c	00000013	addi	x0,x0,0	  x0:0x00000000
        8875000	       886	80002750	03c0036f	jal	x6,80002750	  x6=0x80002750
        8885000	       887	00000000	00000013	addi	x0,x0,0	  x0:0x00000000
        8895000	       888	80002788	00000013	addi	x0,x0,0	  x0:0x00000000
        8905000	       889	8000278c	a54796b7	lui	x13,0xa5479	 x13=0xa5479000
        8915000	       890	80002790	044000ef	jal	x1,80002790	  x1=0x80002790
        8925000	       891	00000000	00000013	addi	x0,x0,0	  x0:0x00000000
        8935000	       892	800027d0	00000013	addi	x0,x0,0	  x0:0x00000000
        8945000	       893	800027d4	004000ef	jal	x1,800027d4	  x1=0x800027d4
        8955000	       894	00000000	00000013	addi	x0,x0,0	  x0:0x00000000
        8965000	       895	800027d4	00000013	addi	x0,x0,0	  x0:0x00000000
        8975000	       896	800027d8	fcdff2ef	jal	x5,800027d8	  x5=0x800027d8
        8985000	       897	00000000	00000013	addi	x0,x0,0	  x0:0x00000000
        8995000	       898	800027a0	00000013	addi	x0,x0,0	  x0:0x00000000
        9005000	       899	800027a4	05c0046f	jal	x8,800027a4	  x8=0x800027a4
        9015000	       900	00000000	00000013	addi	x0,x0,0	  x0:0x00000000
        9025000	       901	800027fc	00000013	addi	x0,x0,0	  x0:0x00000000
        9035000	       902	80002800	fadff36f	jal	x6,80002800	  x6=0x80002800
        9045000	       903	00000000	00000013	addi	x0,x0,0	  x0:0x00000000
        9055000	       904	800027a8	00000013	addi	x0,x0,0	  x0:0x00000000
        9065000	       905	800027ac	04c000ef	jal	x1,800027ac	  x1=0x800027ac
        9075000	       906	00000000	00000013	addi	x0,x0,0	  x0:0x00000000
        9085000	       907	800027f4	00000013	addi	x0,x0,0	  x0:0x00000000
        9095000	       908	800027f8	fa1ff0ef	jal	x1,800027f8	  x1=0x800027f8
        9105000	       909	00000000	00000013	addi	x0,x0,0	  x0:0x00000000
        9115000	       910	80002794	00000013	addi	x0,x0,0	  x0:0x00000000
        9125000	       911	80002798	004000ef	jal	x1,80002798	  x1=0x80002798
        9135000	       912	00000000	00000013	addi	x0,x0,0	  x0:0x00000000
        9145000	       913	80002798	00000013	addi	x0,x0,0	  x0:0x00000000
        9155000	       914	8000279c	054000ef	jal	x1,8000279c	  x1=0x8000279c
        9165000	       915	00000000	00000013	addi	x0,x0,0	  x0:0x00000000
        9175000	       916	800027ec	00000013	addi	x0,x0,0	  x0:0x00000000
        9185000	       917	800027f0	fc9ff46f	jal	x8,800027f0	  x8=0x800027f0
        9195000	       918	00000000	00000013	addi	x0,x0,0	  x0:0x00000000
        9205000	       919	800027b4	00000013	addi	x0,x0,0	  x0:0x00000000
        9215000	       920	800027b8	028000ef	jal	x1,800027b8	  x1=0x800027b8
        9225000	       921	00000000	00000013	addi	x0,x0,0	  x0:0x00000000
        9235000	       922	800027dc	00000013	addi	x0,x0,0	  x0:0x00000000
        9245000	       923	800027e0	fd1ff0ef	jal	x1,800027e0	  x1=0x800027e0
        9255000	       924	00000000	00000013	addi	x0,x0,0	  x0:0x00000000
        9265000	       925	800027ac	00000013	addi	x0,x0,0	  x0:0x00000000
        9275000	       926	800027b0	02c00c6f	jal	x24,800027b0	 x24=0x800027b0
        9285000	       927	00000000	00000013	addi	x0,x0,0	  x0:0x00000000
        9295000	       928	800027d8	00000013	addi	x0,x0,0	  x0:0x00000000
        9305000	       929	800027dc	fb9ffb6f	jal	x22,800027dc	 x22=0x800027dc
        9315000	       930	00000000	00000013	addi	x0,x0,0	  x0:0x00000000
        9325000	       931	80002790	00000013	addi	x0,x0,0	  x0:0x00000000
        9335000	       932	80002794	0580036f	jal	x6,80002794	  x6=0x80002794
        9345000	       933	00000000	00000013	addi	x0,x0,0	  x0:0x00000000
        9355000	       934	800027e8	00000013	addi	x0,x0,0	  x0:0x00000000
        9365000	       935	800027ec	fe5ff96f	jal	x18,800027ec	 x18=0x800027ec
        9375000	       936	00000000	00000013	addi	x0,x0,0	  x0:0x00000000
        9385000	       937	800027cc	00000013	addi	x0,x0,0	  x0:0x00000000
        9395000	       938	800027d0	fedff2ef	jal	x5,800027d0	  x5=0x800027d0
        9405000	       939	00000000	00000013	addi	x0,x0,0	  x0:0x00000000
        9415000	       940	800027b8	00000013	addi	x0,x0,0	  x0:0x00000000
        9425000	       941	800027bc	0040036f	jal	x6,800027bc	  x6=0x800027bc
        9435000	       942	00000000	00000013	addi	x0,x0,0	  x0:0x00000000
        9445000	       943	800027bc	00000013	addi	x0,x0,0	  x0:0x00000000
        9455000	       944	800027c0	ff5ff36f	jal	x6,800027c0	  x6=0x800027c0
        9465000	       945	00000000	00000013	addi	x0,x0,0	  x0:0x00000000
        9475000	       946	800027b0	00000013	addi	x0,x0,0	  x0:0x00000000
        9485000	       947	800027b4	0400036f	jal	x6,800027b4	  x6=0x800027b4
        9495000	       948	00000000	00000013	addi	x0,x0,0	  x0:0x00000000
        9505000	       949	800027f0	00000013	addi	x0,x0,0	  x0:0x00000000
        9515000	       950	800027f4	fd1ff0ef	jal	x1,800027f4	  x1=0x800027f4
        9525000	       951	00000000	00000013	addi	x0,x0,0	  x0:0x00000000
        9535000	       952	800027c0	00000013	addi	x0,x0,0	  x0:0x00000000
        9545000	       953	800027c4	0240036f	jal	x6,800027c4	  x6=0x800027c4
        9555000	       954	00000000	00000013	addi	x0,x0,0	  x0:0x00000000
        9565000	       955	800027e4	00000013	addi	x0,x0,0	  x0:0x00000000
        9575000	       956	800027e8	fb9ff0ef	jal	x1,800027e8	  x1=0x800027e8
        9585000	       957	00000000	00000013	addi	x0,x0,0	  x0:0x00000000
        9595000	       958	8000279c	00000013	addi	x0,x0,0	  x0:0x00000000
        9605000	       959	800027a0	02c00c6f	jal	x24,800027a0	 x24=0x800027a0
        9615000	       960	00000000	00000013	addi	x0,x0,0	  x0:0x00000000
        9625000	       961	800027c8	00000013	addi	x0,x0,0	  x0:0x00000000
        9635000	       962	800027cc	018000ef	jal	x1,800027cc	  x1=0x800027cc
        9645000	       963	00000000	00000013	addi	x0,x0,0	  x0:0x00000000
        9655000	       964	800027e0	00000013	addi	x0,x0,0	  x0:0x00000000
        9665000	       965	800027e4	fe5ff0ef	jal	x1,800027e4	  x1=0x800027e4
        9675000	       966	00000000	00000013	addi	x0,x0,0	  x0:0x00000000
        9685000	       967	800027c4	00000013	addi	x0,x0,0	  x0:0x00000000
        9695000	       968	800027c8	034000ef	jal	x1,800027c8	  x1=0x800027c8
        9705000	       969	00000000	00000013	addi	x0,x0,0	  x0:0x00000000
        9715000	       970	800027f8	00000013	addi	x0,x0,0	  x0:0x00000000
        9725000	       971	800027fc	fadff0ef	jal	x1,800027fc	  x1=0x800027fc
        9735000	       972	00000000	00000013	addi	x0,x0,0	  x0:0x00000000
        9745000	       973	800027a4	00000013	addi	x0,x0,0	  x0:0x00000000
        9755000	       974	800027a8	05c0036f	jal	x6,800027a8	  x6=0x800027a8
        9765000	       975	00000000	00000013	addi	x0,x0,0	  x0:0x00000000
        9775000	       976	80002800	00000013	addi	x0,x0,0	  x0:0x00000000
        9785000	       977	80002804	96660393	addi	x7,x12,-1690	 x12:0x80002628  x7=0x80001f8e
        9795000	       978	80002808	010000ef	jal	x1,80002808	  x1=0x80002808
        9805000	       979	00000000	00000013	addi	x0,x0,0	  x0:0x00000000
        9815000	       980	80002814	00000013	addi	x0,x0,0	  x0:0x00000000
        9825000	       981	80002818	010000ef	jal	x1,80002818	  x1=0x80002818
        9835000	       982	00000000	00000013	addi	x0,x0,0	  x0:0x00000000
        9845000	       983	80002824	00000013	addi	x0,x0,0	  x0:0x00000000
        9855000	       984	80002828	ff9ff0ef	jal	x1,80002828	  x1=0x80002828
        9865000	       985	00000000	00000013	addi	x0,x0,0	  x0:0x00000000
        9875000	       986	8000281c	00000013	addi	x0,x0,0	  x0:0x00000000
        9885000	       987	80002820	01c000ef	jal	x1,80002820	  x1=0x80002820
        9895000	       988	00000000	00000013	addi	x0,x0,0	  x0:0x00000000
        9905000	       989	80002838	00000013	addi	x0,x0,0	  x0:0x00000000
        9915000	       990	8000283c	010000ef	jal	x1,8000283c	  x1=0x8000283c
        9925000	       991	00000000	00000013	addi	x0,x0,0	  x0:0x00000000
        9935000	       992	80002848	00000013	addi	x0,x0,0	  x0:0x00000000
        9945000	       993	8000284c	0240036f	jal	x6,8000284c	  x6=0x8000284c
        9955000	       994	00000000	00000013	addi	x0,x0,0	  x0:0x00000000
        9965000	       995	8000286c	00000013	addi	x0,x0,0	  x0:0x00000000
        9975000	       996	80002870	ff9ff2ef	jal	x5,80002870	  x5=0x80002870
        9985000	       997	00000000	00000013	addi	x0,x0,0	  x0:0x00000000
        9995000	       998	80002864	00000013	addi	x0,x0,0	  x0:0x00000000
       10005000	       999	80002868	fbdff0ef	jal	x1,80002868	  x1=0x80002868
       10015000	      1000	00000000	00000013	addi	x0,x0,0	  x0:0x00000000
       10025000	      1001	80002820	00000013	addi	x0,x0,0	  x0:0x00000000
       10035000	      1002	80002824	02c000ef	jal	x1,80002824	  x1=0x80002824
       10045000	      1003	00000000	00000013	addi	x0,x0,0	  x0:0x00000000
       10055000	      1004	8000284c	00000013	addi	x0,x0,0	  x0:0x00000000
       10065000	      1005	80002850	fddff26f	jal	x4,80002850	  x4=0x80002850
       10075000	      1006	00000000	00000013	addi	x0,x0,0	  x0:0x00000000
       10085000	      1007	80002828	00000013	addi	x0,x0,0	  x0:0x00000000
       10095000	      1008	8000282c	014003ef	jal	x7,8000282c	  x7=0x8000282c
       10105000	      1009	00000000	00000013	addi	x0,x0,0	  x0:0x00000000
       10115000	      1010	8000283c	00000013	addi	x0,x0,0	  x0:0x00000000
       10125000	      1011	80002840	03c0036f	jal	x6,80002840	  x6=0x80002840
       10135000	      1012	00000000	00000013	addi	x0,x0,0	  x0:0x00000000
       10145000	      1013	80002878	00000013	addi	x0,x0,0	  x0:0x00000000
       10155000	      1014	8000287c	f95ff56f	jal	x10,8000287c	 x10=0x8000287c
       10165000	      1015	00000000	00000013	addi	x0,x0,0	  x0:0x00000000
       10175000	      1016	8000280c	00000013	addi	x0,x0,0	  x0:0x00000000
       10185000	      1017	80002810	024000ef	jal	x1,80002810	  x1=0x80002810
       10195000	      1018	00000000	00000013	addi	x0,x0,0	  x0:0x00000000
       10205000	      1019	80002830	00000013	addi	x0,x0,0	  x0:0x00000000
       10215000	      1020	80002834	04c000ef	jal	x1,80002834	  x1=0x80002834
       10225000	      1021	00000000	00000013	addi	x0,x0,0	  x0:0x00000000
       10235000	      1022	8000287c	00000013	addi	x0,x0,0	  x0:0x00000000
       10245000	      1023	80002880	fe5ff0ef	jal	x1,80002880	  x1=0x80002880
       10255000	      1024	00000000	00000013	addi	x0,x0,0	  x0:0x00000000
       10265000	      1025	80002860	00000013	addi	x0,x0,0	  x0:0x00000000
       10275000	      1026	80002864	fa9ff0ef	jal	x1,80002864	  x1=0x80002864
       10285000	      1027	00000000	00000013	addi	x0,x0,0	  x0:0x00000000
       10295000	      1028	80002808	00000013	addi	x0,x0,0	  x0:0x00000000
       10305000	      1029	8000280c	0100036f	jal	x6,8000280c	  x6=0x8000280c
       10315000	      1030	00000000	00000013	addi	x0,x0,0	  x0:0x00000000
       10325000	      1031	80002818	00000013	addi	x0,x0,0	  x0:0x00000000
       10335000	      1032	8000281c	02c001ef	jal	x3,8000281c	  x3=0x8000281c
       10345000	      1033	00000000	00000013	addi	x0,x0,0	  x0:0x00000000
       10355000	      1034	80002844	00000013	addi	x0,x0,0	  x0:0x00000000
       10365000	      1035	80002848	fcdff2ef	jal	x5,80002848	  x5=0x80002848
       10375000	      1036	00000000	00000013	addi	x0,x0,0	  x0:0x00000000
       10385000	      1037	80002810	00000013	addi	x0,x0,0	  x0:0x00000000
       10395000	      1038	80002814	01c000ef	jal	x1,80002814	  x1=0x80002814
       10405000	      1039	00000000	00000013	addi	x0,x0,0	  x0:0x00000000
       10415000	      1040	8000282c	00000013	addi	x0,x0,0	  x0:0x00000000
       10425000	      1041	80002830	0140026f	jal	x4,80002830	  x4=0x80002830
       10435000	      1042	00000000	00000013	addi	x0,x0,0	  x0:0x00000000
       10445000	      1043	80002840	00000013	addi	x0,x0,0	  x0:0x00000000
       10455000	      1044	80002844	0340036f	jal	x6,80002844	  x6=0x80002844
       10465000	      1045	00000000	00000013	addi	x0,x0,0	  x0:0x00000000
       10475000	      1046	80002874	00000013	addi	x0,x0,0	  x0:0x00000000
       10485000	      1047	80002878	ffdff0ef	jal	x1,80002878	  x1=0x80002878
       10495000	      1048	00000000	00000013	addi	x0,x0,0	  x0:0x00000000
       10505000	      1049	80002870	00000013	addi	x0,x0,0	  x0:0x00000000
       10515000	      1050	80002874	fe1ff1ef	jal	x3,80002874	  x3=0x80002874
       10525000	      1051	00000000	00000013	addi	x0,x0,0	  x0:0x00000000
       10535000	      1052	80002850	00000013	addi	x0,x0,0	  x0:0x00000000
       10545000	      1053	80002854	0080036f	jal	x6,80002854	  x6=0x80002854
       10555000	      1054	00000000	00000013	addi	x0,x0,0	  x0:0x00000000
       10565000	      1055	80002858	00000013	addi	x0,x0,0	  x0:0x00000000
       10575000	      1056	8000285c	ffdffc6f	jal	x24,8000285c	 x24=0x8000285c
       10585000	      1057	00000000	00000013	addi	x0,x0,0	  x0:0x00000000
       10595000	      1058	80002854	00000013	addi	x0,x0,0	  x0:0x00000000
       10605000	      1059	80002858	00800eef	jal	x29,80002858	 x29=0x80002858
       10615000	      1060	00000000	00000013	addi	x0,x0,0	  x0:0x00000000
       10625000	      1061	8000285c	00000013	addi	x0,x0,0	  x0:0x00000000
       10635000	      1062	80002860	00c0036f	jal	x6,80002860	  x6=0x80002860
       10645000	      1063	00000000	00000013	addi	x0,x0,0	  x0:0x00000000
       10655000	      1064	80002868	00000013	addi	x0,x0,0	  x0:0x00000000
       10665000	      1065	8000286c	fcdff0ef	jal	x1,8000286c	  x1=0x8000286c
       10675000	      1066	00000000	00000013	addi	x0,x0,0	  x0:0x00000000
       10685000	      1067	80002834	00000013	addi	x0,x0,0	  x0:0x00000000
       10695000	      1068	80002838	04c000ef	jal	x1,80002838	  x1=0x80002838
       10705000	      1069	00000000	00000013	addi	x0,x0,0	  x0:0x00000000
       10715000	      1070	80002880	00000013	addi	x0,x0,0	  x0:0x00000000
       10725000	      1071	80002884	a7ff21b7	lui	x3,0xa7ff2	  x3=0xa7ff2000
       10735000	      1072	80002888	02c000ef	jal	x1,80002888	  x1=0x80002888
       10745000	      1073	00000000	00000013	addi	x0,x0,0	  x0:0x00000000
       10755000	      1074	800028b0	00000013	addi	x0,x0,0	  x0:0x00000000
       10765000	      1075	800028b4	008000ef	jal	x1,800028b4	  x1=0x800028b4
       10775000	      1076	00000000	00000013	addi	x0,x0,0	  x0:0x00000000
       10785000	      1077	800028b8	00000013	addi	x0,x0,0	  x0:0x00000000
       10795000	      1078	800028bc	fe1ff0ef	jal	x1,800028bc	  x1=0x800028bc
       10805000	      1079	00000000	00000013	addi	x0,x0,0	  x0:0x00000000
       10815000	      1080	80002898	00000013	addi	x0,x0,0	  x0:0x00000000
       10825000	      1081	8000289c	0040036f	jal	x6,8000289c	  x6=0x8000289c
       10835000	      1082	00000000	00000013	addi	x0,x0,0	  x0:0x00000000
       10845000	      1083	8000289c	00000013	addi	x0,x0,0	  x0:0x00000000
       10855000	      1084	800028a0	00c0036f	jal	x6,800028a0	  x6=0x800028a0
       10865000	      1085	00000000	00000013	addi	x0,x0,0	  x0:0x00000000
       10875000	      1086	800028a8	00000013	addi	x0,x0,0	  x0:0x00000000
       10885000	      1087	800028ac	ff9ff36f	jal	x6,800028ac	  x6=0x800028ac
       10895000	      1088	00000000	00000013	addi	x0,x0,0	  x0:0x00000000
       10905000	      1089	800028a0	00000013	addi	x0,x0,0	  x0:0x00000000
       10915000	      1090	800028a4	fedff7ef	jal	x15,800028a4	 x15=0x800028a4
       10925000	      1091	00000000	00000013	addi	x0,x0,0	  x0:0x00000000
       10935000	      1092	8000288c	00000013	addi	x0,x0,0	  x0:0x00000000
       10945000	      1093	80002890	004002ef	jal	x5,80002890	  x5=0x80002890
       10955000	      1094	00000000	00000013	addi	x0,x0,0	  x0:0x00000000
       10965000	      1095	80002890	00000013	addi	x0,x0,0	  x0:0x00000000
       10975000	      1096	80002894	01c008ef	jal	x17,80002894	 x17=0x80002894
       10985000	      1097	00000000	00000013	addi	x0,x0,0	  x0:0x00000000
       10995000	      1098	800028ac	00000013	addi	x0,x0,0	  x0:0x00000000
       11005000	      1099	800028b0	ff9ff0ef	jal	x1,800028b0	  x1=0x800028b0
       11015000	      1100	00000000	00000013	addi	x0,x0,0	  x0:0x00000000
       11025000	      1101	800028a4	00000013	addi	x0,x0,0	  x0:0x00000000
       11035000	      1102	800028a8	010000ef	jal	x1,800028a8	  x1=0x800028a8
       11045000	      1103	00000000	00000013	addi	x0,x0,0	  x0:0x00000000
       11055000	      1104	800028b4	00000013	addi	x0,x0,0	  x0:0x00000000
       11065000	      1105	800028b8	fe1ff36f	jal	x6,800028b8	  x6=0x800028b8
       11075000	      1106	00000000	00000013	addi	x0,x0,0	  x0:0x00000000
       11085000	      1107	80002894	00000013	addi	x0,x0,0	  x0:0x00000000
       11095000	      1108	80002898	ff5ff5ef	jal	x11,80002898	 x11=0x80002898
       11105000	      1109	00000000	00000013	addi	x0,x0,0	  x0:0x00000000
       11115000	      1110	80002888	00000013	addi	x0,x0,0	  x0:0x00000000
       11125000	      1111	8000288c	034000ef	jal	x1,8000288c	  x1=0x8000288c
       11135000	      1112	00000000	00000013	addi	x0,x0,0	  x0:0x00000000
       11145000	      1113	800028bc	00000013	addi	x0,x0,0	  x0:0x00000000
       11155000	      1114	800028c0	01352c33	slt	x24,x10,x19	 x10:0x8000287c x19:0x800026f4 x24=0x00000000
       11165000	      1115	800028c4	018000ef	jal	x1,800028c4	  x1=0x800028c4
       11175000	      1116	00000000	00000013	addi	x0,x0,0	  x0:0x00000000
       11185000	      1117	800028d8	00000013	addi	x0,x0,0	  x0:0x00000000
       11195000	      1118	800028dc	00c000ef	jal	x1,800028dc	  x1=0x800028dc
       11205000	      1119	00000000	00000013	addi	x0,x0,0	  x0:0x00000000
       11215000	      1120	800028e4	00000013	addi	x0,x0,0	  x0:0x00000000
       11225000	      1121	800028e8	fe9ff0ef	jal	x1,800028e8	  x1=0x800028e8
       11235000	      1122	00000000	00000013	addi	x0,x0,0	  x0:0x00000000
       11245000	      1123	800028cc	00000013	addi	x0,x0,0	  x0:0x00000000
       11255000	      1124	800028d0	03c000ef	jal	x1,800028d0	  x1=0x800028d0
       11265000	      1125	00000000	00000013	addi	x0,x0,0	  x0:0x00000000
       11275000	      1126	80002908	00000013	addi	x0,x0,0	  x0:0x00000000
       11285000	      1127	8000290c	0080036f	jal	x6,8000290c	  x6=0x8000290c
       11295000	      1128	00000000	00000013	addi	x0,x0,0	  x0:0x00000000
       11305000	      1129	80002910	00000013	addi	x0,x0,0	  x0:0x00000000
       11315000	      1130	80002914	ff5ff0ef	jal	x1,80002914	  x1=0x80002914
       11325000	      1131	00000000	00000013	addi	x0,x0,0	  x0:0x00000000
       11335000	      1132	80002904	00000013	addi	x0,x0,0	  x0:0x00000000
       11345000	      1133	80002908	fd9ff36f	jal	x6,80002908	  x6=0x80002908
       11355000	      1134	00000000	00000013	addi	x0,x0,0	  x0:0x00000000
       11365000	      1135	800028dc	00000013	addi	x0,x0,0	  x0:0x00000000
       11375000	      1136	800028e0	0400036f	jal	x6,800028e0	  x6=0x800028e0
       11385000	      1137	00000000	00000013	addi	x0,x0,0	  x0:0x00000000
       11395000	      1138	8000291c	00000013	addi	x0,x0,0	  x0:0x00000000
       11405000	      1139	80002920	fa9ff1ef	jal	x3,80002920	  x3=0x80002920
       11415000	      1140	00000000	00000013	addi	x0,x0,0	  x0:0x00000000
       11425000	      1141	800028c4	00000013	addi	x0,x0,0	  x0:0x00000000
       11435000	      1142	800028c8	0280036f	jal	x6,800028c8	  x6=0x800028c8
       11445000	      1143	00000000	00000013	addi	x0,x0,0	  x0:0x00000000
       11455000	      1144	800028ec	00000013	addi	x0,x0,0	  x0:0x00000000
       11465000	      1145	800028f0	008000ef	jal	x1,800028f0	  x1=0x800028f0
       11475000	      1146	00000000	00000013	addi	x0,x0,0	  x0:0x00000000
       11485000	      1147	800028f4	00000013	addi	x0,x0,0	  x0:0x00000000
       11495000	      1148	800028f8	02400cef	jal	x25,800028f8	 x25=0x800028f8
       11505000	      1149	00000000	00000013	addi	x0,x0,0	  x0:0x00000000
       11515000	      1150	80002918	00000013	addi	x0,x0,0	  x0:0x00000000
       11525000	      1151	8000291c	ff5ff36f	jal	x6,8000291c	  x6=0x8000291c
       11535000	      1152	00000000	00000013	addi	x0,x0,0	  x0:0x00000000
       11545000	      1153	8000290c	00000013	addi	x0,x0,0	  x0:0x00000000
       11555000	      1154	80002910	ff5ffdef	jal	x27,80002910	 x27=0x80002910
       11565000	      1155	00000000	00000013	addi	x0,x0,0	  x0:0x00000000
       11575000	      1156	80002900	00000013	addi	x0,x0,0	  x0:0x00000000
       11585000	      1157	80002904	ff9ff0ef	jal	x1,80002904	  x1=0x80002904
       11595000	      1158	00000000	00000013	addi	x0,x0,0	  x0:0x00000000
       11605000	      1159	800028f8	00000013	addi	x0,x0,0	  x0:0x00000000
       11615000	      1160	800028fc	ff1ff0ef	jal	x1,800028fc	  x1=0x800028fc
       11625000	      1161	00000000	00000013	addi	x0,x0,0	  x0:0x00000000
       11635000	      1162	800028e8	00000013	addi	x0,x0,0	  x0:0x00000000
       11645000	      1163	800028ec	040000ef	jal	x1,800028ec	  x1=0x800028ec
       11655000	      1164	00000000	00000013	addi	x0,x0,0	  x0:0x00000000
       11665000	      1165	80002928	00000013	addi	x0,x0,0	  x0:0x00000000
       11675000	      1166	8000292c	fadff56f	jal	x10,8000292c	 x10=0x8000292c
       11685000	      1167	00000000	00000013	addi	x0,x0,0	  x0:0x00000000
       11695000	      1168	800028d4	00000013	addi	x0,x0,0	  x0:0x00000000
       11705000	      1169	800028d8	ff5ff0ef	jal	x1,800028d8	  x1=0x800028d8
       11715000	      1170	00000000	00000013	addi	x0,x0,0	  x0:0x00000000
       11725000	      1171	800028c8	00000013	addi	x0,x0,0	  x0:0x00000000
       11735000	      1172	800028cc	034001ef	jal	x3,800028cc	  x3=0x800028cc
       11745000	      1173	00000000	00000013	addi	x0,x0,0	  x0:0x00000000
       11755000	      1174	800028fc	00000013	addi	x0,x0,0	  x0:0x00000000
       11765000	      1175	80002900	ff5ff36f	jal	x6,80002900	  x6=0x80002900
       11775000	      1176	00000000	00000013	addi	x0,x0,0	  x0:0x00000000
       11785000	      1177	800028f0	00000013	addi	x0,x0,0	  x0:0x00000000
       11795000	      1178	800028f4	034000ef	jal	x1,800028f4	  x1=0x800028f4
       11805000	      1179	00000000	00000013	addi	x0,x0,0	  x0:0x00000000
       11815000	      1180	80002924	00000013	addi	x0,x0,0	  x0:0x00000000
       11825000	      1181	80002928	ff1ff0ef	jal	x1,80002928	  x1=0x80002928
       11835000	      1182	00000000	00000013	addi	x0,x0,0	  x0:0x00000000
       11845000	      1183	80002914	00000013	addi	x0,x0,0	  x0:0x00000000
       11855000	      1184	80002918	00c000ef	jal	x1,80002918	  x1=0x80002918
       11865000	      1185	00000000	00000013	addi	x0,x0,0	  x0:0x00000000
       11875000	      1186	80002920	00000013	addi	x0,x0,0	  x0:0x00000000
       11885000	      1187	80002924	fc1ff0ef	jal	x1,80002924	  x1=0x80002924
       11895000	      1188	00000000	00000013	addi	x0,x0,0	  x0:0x00000000
       11905000	      1189	800028e0	00000013	addi	x0,x0,0	  x0:0x00000000
       11915000	      1190	800028e4	ff1ff56f	jal	x10,800028e4	 x10=0x800028e4
       11925000	      1191	00000000	00000013	addi	x0,x0,0	  x0:0x00000000
       11935000	      1192	800028d0	00000013	addi	x0,x0,0	  x0:0x00000000
       11945000	      1193	800028d4	05c000ef	jal	x1,800028d4	  x1=0x800028d4
       11955000	      1194	00000000	00000013	addi	x0,x0,0	  x0:0x00000000
       11965000	      1195	8000292c	00000013	addi	x0,x0,0	  x0:0x00000000
       11975000	      1196	80002930	21d81b17	auipc	x22,0x21d81	 x22=0xa1d8392c
       11985000	      1197	80002934	00c000ef	jal	x1,80002934	  x1=0x80002934
       11995000	      1198	00000000	00000013	addi	x0,x0,0	  x0:0x00000000
       12005000	      1199	8000293c	00000013	addi	x0,x0,0	  x0:0x00000000
       12015000	      1200	80002940	02800f6f	jal	x30,80002940	 x30=0x80002940
       12025000	      1201	00000000	00000013	addi	x0,x0,0	  x0:0x00000000
       12035000	      1202	80002964	00000013	addi	x0,x0,0	  x0:0x00000000
       12045000	      1203	80002968	fddffdef	jal	x27,80002968	 x27=0x80002968
       12055000	      1204	00000000	00000013	addi	x0,x0,0	  x0:0x00000000
       12065000	      1205	80002940	00000013	addi	x0,x0,0	  x0:0x00000000
       12075000	      1206	80002944	020000ef	jal	x1,80002944	  x1=0x80002944
       12085000	      1207	00000000	00000013	addi	x0,x0,0	  x0:0x00000000
       12095000	      1208	80002960	00000013	addi	x0,x0,0	  x0:0x00000000
       12105000	      1209	80002964	0080036f	jal	x6,80002964	  x6=0x80002964
       12115000	      1210	00000000	00000013	addi	x0,x0,0	  x0:0x00000000
       12125000	      1211	80002968	00000013	addi	x0,x0,0	  x0:0x00000000
       12135000	      1212	8000296c	0040036f	jal	x6,8000296c	  x6=0x8000296c
       12145000	      1213	00000000	00000013	addi	x0,x0,0	  x0:0x00000000
       12155000	      1214	8000296c	00000013	addi	x0,x0,0	  x0:0x00000000
       12165000	      1215	80002970	ff1ff36f	jal	x6,80002970	  x6=0x80002970
       12175000	      1216	00000000	00000013	addi	x0,x0,0	  x0:0x00000000
       12185000	      1217	8000295c	00000013	addi	x0,x0,0	  x0:0x00000000
       12195000	      1218	80002960	fd9ff0ef	jal	x1,80002960	  x1=0x80002960
       12205000	      1219	00000000	00000013	addi	x0,x0,0	  x0:0x00000000
       12215000	      1220	80002934	00000013	addi	x0,x0,0	  x0:0x00000000
       12225000	      1221	80002938	020002ef	jal	x5,80002938	  x5=0x80002938
       12235000	      1222	00000000	00000013	addi	x0,x0,0	  x0:0x00000000
       12245000	      1223	80002954	00000013	addi	x0,x0,0	  x0:0x00000000
       12255000	      1224	80002958	0040036f	jal	x6,80002958	  x6=0x80002958
       12265000	      1225	00000000	00000013	addi	x0,x0,0	  x0:0x00000000
       12275000	      1226	80002958	00000013	addi	x0,x0,0	  x0:0x00000000
       12285000	      1227	8000295c	018000ef	jal	x1,8000295c	  x1=0x8000295c
       12295000	      1228	00000000	00000013	addi	x0,x0,0	  x0:0x00000000
       12305000	      1229	80002970	00000013	addi	x0,x0,0	  x0:0x00000000
       12315000	      1230	80002974	fd9ff0ef	jal	x1,80002974	  x1=0x80002974
       12325000	      1231	00000000	00000013	addi	x0,x0,0	  x0:0x00000000
       12335000	      1232	80002948	00000013	addi	x0,x0,0	  x0:0x00000000
       12345000	      1233	8000294c	00800eef	jal	x29,8000294c	 x29=0x8000294c
       12355000	      1234	00000000	00000013	addi	x0,x0,0	  x0:0x00000000
       12365000	      1235	80002950	00000013	addi	x0,x0,0	  x0:0x00000000
       12375000	      1236	80002954	fe9ff36f	jal	x6,80002954	  x6=0x80002954
       12385000	      1237	00000000	00000013	addi	x0,x0,0	  x0:0x00000000
       12395000	      1238	80002938	00000013	addi	x0,x0,0	  x0:0x00000000
       12405000	      1239	8000293c	014008ef	jal	x17,8000293c	 x17=0x8000293c
       12415000	      1240	00000000	00000013	addi	x0,x0,0	  x0:0x00000000
       12425000	      1241	8000294c	00000013	addi	x0,x0,0	  x0:0x00000000
       12435000	      1242	80002950	ff9ff0ef	jal	x1,80002950	  x1=0x80002950
       12445000	      1243	00000000	00000013	addi	x0,x0,0	  x0:0x00000000
       12455000	      1244	80002944	00000013	addi	x0,x0,0	  x0:0x00000000
       12465000	      1245	80002948	0300036f	jal	x6,80002948	  x6=0x80002948
       12475000	      1246	00000000	00000013	addi	x0,x0,0	  x0:0x00000000
       12485000	      1247	80002974	00000013	addi	x0,x0,0	  x0:0x00000000
       12495000	      1248	80002978	4eca7f13	andi	x30,x20,1260	 x20:0x80002618 x30=0x00000408
       12505000	      1249	8000297c	034000ef	jal	x1,8000297c	  x1=0x8000297c
       12515000	      1250	00000000	00000013	addi	x0,x0,0	  x0:0x00000000
       12525000	      1251	800029ac	00000013	addi	x0,x0,0	  x0:0x00000000
       12535000	      1252	800029b0	fe9ff0ef	jal	x1,800029b0	  x1=0x800029b0
       12545000	      1253	00000000	00000013	addi	x0,x0,0	  x0:0x00000000
       12555000	      1254	80002994	00000013	addi	x0,x0,0	  x0:0x00000000
       12565000	      1255	80002998	010000ef	jal	x1,80002998	  x1=0x80002998
       12575000	      1256	00000000	00000013	addi	x0,x0,0	  x0:0x00000000
       12585000	      1257	800029a4	00000013	addi	x0,x0,0	  x0:0x00000000
       12595000	      1258	800029a8	fd9ff26f	jal	x4,800029a8	  x4=0x800029a8
       12605000	      1259	00000000	00000013	addi	x0,x0,0	  x0:0x00000000
       12615000	      1260	8000297c	00000013	addi	x0,x0,0	  x0:0x00000000
       12625000	      1261	80002980	0040036f	jal	x6,80002980	  x6=0x80002980
       12635000	      1262	00000000	00000013	addi	x0,x0,0	  x0:0x00000000
       12645000	      1263	80002980	00000013	addi	x0,x0,0	  x0:0x00000000
       12655000	      1264	80002984	01000d6f	jal	x26,80002984	 x26=0x80002984
       12665000	      1265	00000000	00000013	addi	x0,x0,0	  x0:0x00000000
       12675000	      1266	80002990	00000013	addi	x0,x0,0	  x0:0x00000000
       12685000	      1267	80002994	00800f6f	jal	x30,80002994	 x30=0x80002994
       12695000	      1268	00000000	00000013	addi	x0,x0,0	  x0:0x00000000
       12705000	      1269	80002998	00000013	addi	x0,x0,0	  x0:0x00000000
       12715000	      1270	8000299c	008000ef	jal	x1,8000299c	  x1=0x8000299c
       12725000	      1271	00000000	00000013	addi	x0,x0,0	  x0:0x00000000
       12735000	      1272	800029a0	00000013	addi	x0,x0,0	  x0:0x00000000
       12745000	      1273	800029a4	fe5ff0ef	jal	x1,800029a4	  x1=0x800029a4
       12755000	      1274	00000000	00000013	addi	x0,x0,0	  x0:0x00000000
       12765000	      1275	80002984	00000013	addi	x0,x0,0	  x0:0x00000000
       12775000	      1276	80002988	02c002ef	jal	x5,80002988	  x5=0x80002988
       12785000	      1277	00000000	00000013	addi	x0,x0,0	  x0:0x00000000
       12795000	      1278	800029b0	00000013	addi	x0,x0,0	  x0:0x00000000
       12805000	      1279	800029b4	fddff26f	jal	x4,800029b4	  x4=0x800029b4
       12815000	      1280	00000000	00000013	addi	x0,x0,0	  x0:0x00000000
       12825000	      1281	8000298c	00000013	addi	x0,x0,0	  x0:0x00000000
       12835000	      1282	80002990	ffdff2ef	jal	x5,80002990	  x5=0x80002990
       12845000	      1283	00000000	00000013	addi	x0,x0,0	  x0:0x00000000
       12855000	      1284	80002988	00000013	addi	x0,x0,0	  x0:0x00000000
       12865000	      1285	8000298c	020002ef	jal	x5,8000298c	  x5=0x8000298c
       12875000	      1286	00000000	00000013	addi	x0,x0,0	  x0:0x00000000
       12885000	      1287	800029a8	00000013	addi	x0,x0,0	  x0:0x00000000
       12895000	      1288	800029ac	ff5ff3ef	jal	x7,800029ac	  x7=0x800029ac
       12905000	      1289	00000000	00000013	addi	x0,x0,0	  x0:0x00000000
       12915000	      1290	8000299c	00000013	addi	x0,x0,0	  x0:0x00000000
       12925000	      1291	800029a0	0180036f	jal	x6,800029a0	  x6=0x800029a0
       12935000	      1292	00000000	00000013	addi	x0,x0,0	  x0:0x00000000
       12945000	      1293	800029b4	00000013	addi	x0,x0,0	  x0:0x00000000
       12955000	      1294	800029b8	01ab06b3	add	x13,x22,x26	 x22:0xa1d8392c x26:0x80002984 x13=0x21d862b0
       12965000	      1295	800029bc	018000ef	jal	x1,800029bc	  x1=0x800029bc
       12975000	      1296	00000000	00000013	addi	x0,x0,0	  x0:0x00000000
       12985000	      1297	800029d0	00000013	addi	x0,x0,0	  x0:0x00000000
       12995000	      1298	800029d4	fedfffef	jal	x31,800029d4	 x31=0x800029d4
       13005000	      1299	00000000	00000013	addi	x0,x0,0	  x0:0x00000000
       13015000	      1300	800029bc	00000013	addi	x0,x0,0	  x0:0x00000000
       13025000	      1301	800029c0	03000def	jal	x27,800029c0	 x27=0x800029c0
       13035000	      1302	00000000	00000013	addi	x0,x0,0	  x0:0x00000000
       13045000	      1303	800029ec	00000013	addi	x0,x0,0	  x0:0x00000000
       13055000	      1304	800029f0	0080036f	jal	x6,800029f0	  x6=0x800029f0
       13065000	      1305	00000000	00000013	addi	x0,x0,0	  x0:0x00000000
       13075000	      1306	800029f4	00000013	addi	x0,x0,0	  x0:0x00000000
       13085000	      1307	800029f8	fd9ff0ef	jal	x1,800029f8	  x1=0x800029f8
       13095000	      1308	00000000	00000013	addi	x0,x0,0	  x0:0x00000000
       13105000	      1309	800029cc	00000013	addi	x0,x0,0	  x0:0x00000000
       13115000	      1310	800029d0	01400f6f	jal	x30,800029d0	 x30=0x800029d0
       13125000	      1311	00000000	00000013	addi	x0,x0,0	  x0:0x00000000
       13135000	      1312	800029e0	00000013	addi	x0,x0,0	  x0:0x00000000
       13145000	      1313	800029e4	010000ef	jal	x1,800029e4	  x1=0x800029e4
       13155000	      1314	00000000	00000013	addi	x0,x0,0	  x0:0x00000000
       13165000	      1315	800029f0	00000013	addi	x0,x0,0	  x0:0x00000000
       13175000	      1316	800029f4	fd1ff0ef	jal	x1,800029f4	  x1=0x800029f4
       13185000	      1317	00000000	00000013	addi	x0,x0,0	  x0:0x00000000
       13195000	      1318	800029c0	00000013	addi	x0,x0,0	  x0:0x00000000
       13205000	      1319	800029c4	0380036f	jal	x6,800029c4	  x6=0x800029c4
       13215000	      1320	00000000	00000013	addi	x0,x0,0	  x0:0x00000000
       13225000	      1321	800029f8	00000013	addi	x0,x0,0	  x0:0x00000000
       13235000	      1322	800029fc	008000ef	jal	x1,800029fc	  x1=0x800029fc
       13245000	      1323	00000000	00000013	addi	x0,x0,0	  x0:0x00000000
       13255000	      1324	80002a00	00000013	addi	x0,x0,0	  x0:0x00000000
       13265000	      1325	80002a04	fddff0ef	jal	x1,80002a04	  x1=0x80002a04
       13275000	      1326	00000000	00000013	addi	x0,x0,0	  x0:0x00000000
       13285000	      1327	800029dc	00000013	addi	x0,x0,0	  x0:0x00000000
       13295000	      1328	800029e0	020000ef	jal	x1,800029e0	  x1=0x800029e0
       13305000	      1329	00000000	00000013	addi	x0,x0,0	  x0:0x00000000
       13315000	      1330	800029fc	00000013	addi	x0,x0,0	  x0:0x00000000
       13325000	      1331	80002a00	fcdff0ef	jal	x1,80002a00	  x1=0x80002a00
       13335000	      1332	00000000	00000013	addi	x0,x0,0	  x0:0x00000000
       13345000	      1333	800029c8	00000013	addi	x0,x0,0	  x0:0x00000000
       13355000	      1334	800029cc	044000ef	jal	x1,800029cc	  x1=0x800029cc
       13365000	      1335	00000000	00000013	addi	x0,x0,0	  x0:0x00000000
       13375000	      1336	80002a0c	00000013	addi	x0,x0,0	  x0:0x00000000
       13385000	      1337	80002a10	fddff66f	jal	x12,80002a10	 x12=0x80002a10
       13395000	      1338	00000000	00000013	addi	x0,x0,0	  x0:0x00000000
       13405000	      1339	800029e8	00000013	addi	x0,x0,0	  x0:0x00000000
       13415000	      1340	800029ec	ff1ff0ef	jal	x1,800029ec	  x1=0x800029ec
       13425000	      1341	00000000	00000013	addi	x0,x0,0	  x0:0x00000000
       13435000	      1342	800029d8	00000013	addi	x0,x0,0	  x0:0x00000000
       13445000	      1343	800029dc	030000ef	jal	x1,800029dc	  x1=0x800029dc
       13455000	      1344	00000000	00000013	addi	x0,x0,0	  x0:0x00000000
       13465000	      1345	80002a08	00000013	addi	x0,x0,0	  x0:0x00000000
       13475000	      1346	80002a0c	fddff0ef	jal	x1,80002a0c	  x1=0x80002a0c
       13485000	      1347	00000000	00000013	addi	x0,x0,0	  x0:0x00000000
       13495000	      1348	800029e4	00000013	addi	x0,x0,0	  x0:0x00000000
       13505000	      1349	800029e8	ff1ff2ef	jal	x5,800029e8	  x5=0x800029e8
       13515000	      1350	00000000	00000013	addi	x0,x0,0	  x0:0x00000000
       13525000	      1351	800029d4	00000013	addi	x0,x0,0	  x0:0x00000000
       13535000	      1352	800029d8	030000ef	jal	x1,800029d8	  x1=0x800029d8
       13545000	      1353	00000000	00000013	addi	x0,x0,0	  x0:0x00000000
       13555000	      1354	80002a04	00000013	addi	x0,x0,0	  x0:0x00000000
       13565000	      1355	80002a08	fc1ff0ef	jal	x1,80002a08	  x1=0x80002a08
       13575000	      1356	00000000	00000013	addi	x0,x0,0	  x0:0x00000000
       13585000	      1357	800029c4	00000013	addi	x0,x0,0	  x0:0x00000000
       13595000	      1358	800029c8	04c000ef	jal	x1,800029c8	  x1=0x800029c8
       13605000	      1359	00000000	00000013	addi	x0,x0,0	  x0:0x00000000
       13615000	      1360	80002a10	00000013	addi	x0,x0,0	  x0:0x00000000
       13625000	      1361	80002a14	00b8f533	and	x10,x17,x11	 x17:0x8000293c x11:0x80002898 x10=0x80002818
       13635000	      1362	80002a18	03c000ef	jal	x1,80002a18	  x1=0x80002a18
       13645000	      1363	00000000	00000013	addi	x0,x0,0	  x0:0x00000000
       13655000	      1364	80002a50	00000013	addi	x0,x0,0	  x0:0x00000000
       13665000	      1365	80002a54	fe9ff0ef	jal	x1,80002a54	  x1=0x80002a54
       13675000	      1366	00000000	00000013	addi	x0,x0,0	  x0:0x00000000
       13685000	      1367	80002a38	00000013	addi	x0,x0,0	  x0:0x00000000
       13695000	      1368	80002a3c	0040036f	jal	x6,80002a3c	  x6=0x80002a3c
       13705000	      1369	00000000	00000013	addi	x0,x0,0	  x0:0x00000000
       13715000	      1370	80002a3c	00000013	addi	x0,x0,0	  x0:0x00000000
       13725000	      1371	80002a40	ff1ffaef	jal	x21,80002a40	 x21=0x80002a40
       13735000	      1372	00000000	00000013	addi	x0,x0,0	  x0:0x00000000
       13745000	      1373	80002a2c	00000013	addi	x0,x0,0	  x0:0x00000000
       13755000	      1374	80002a30	02c000ef	jal	x1,80002a30	  x1=0x80002a30
       13765000	      1375	00000000	00000013	addi	x0,x0,0	  x0:0x00000000
       13775000	      1376	80002a58	00000013	addi	x0,x0,0	  x0:0x00000000
       13785000	      1377	80002a5c	008000ef	jal	x1,80002a5c	  x1=0x80002a5c
       13795000	      1378	00000000	00000013	addi	x0,x0,0	  x0:0x00000000
       13805000	      1379	80002a60	00000013	addi	x0,x0,0	  x0:0x00000000
       13815000	      1380	80002a64	ff5ff36f	jal	x6,80002a64	  x6=0x80002a64
       13825000	      1381	00000000	00000013	addi	x0,x0,0	  x0:0x00000000
       13835000	      1382	80002a54	00000013	addi	x0,x0,0	  x0:0x00000000
       13845000	      1383	80002a58	0200036f	jal	x6,80002a58	  x6=0x80002a58
       13855000	      1384	00000000	00000013	addi	x0,x0,0	  x0:0x00000000
       13865000	      1385	80002a74	00000013	addi	x0,x0,0	  x0:0x00000000
       13875000	      1386	80002a78	fa5ff0ef	jal	x1,80002a78	  x1=0x80002a78
       13885000	      1387	00000000	00000013	addi	x0,x0,0	  x0:0x00000000
       13895000	      1388	80002a18	00000013	addi	x0,x0,0	  x0:0x00000000
       13905000	      1389	80002a1c	0080046f	jal	x8,80002a1c	  x8=0x80002a1c
       13915000	      1390	00000000	00000013	addi	x0,x0,0	  x0:0x00000000
       13925000	      1391	80002a20	00000013	addi	x0,x0,0	  x0:0x00000000
       13935000	      1392	80002a24	02c000ef	jal	x1,80002a24	  x1=0x80002a24
       13945000	      1393	00000000	00000013	addi	x0,x0,0	  x0:0x00000000
       13955000	      1394	80002a4c	00000013	addi	x0,x0,0	  x0:0x00000000
       13965000	      1395	80002a50	fd9ff0ef	jal	x1,80002a50	  x1=0x80002a50
       13975000	      1396	00000000	00000013	addi	x0,x0,0	  x0:0x00000000
       13985000	      1397	80002a24	00000013	addi	x0,x0,0	  x0:0x00000000
       13995000	      1398	80002a28	048000ef	jal	x1,80002a28	  x1=0x80002a28
       14005000	      1399	00000000	00000013	addi	x0,x0,0	  x0:0x00000000
       14015000	      1400	80002a6c	00000013	addi	x0,x0,0	  x0:0x00000000
       14025000	      1401	80002a70	fb1ff0ef	jal	x1,80002a70	  x1=0x80002a70
       14035000	      1402	00000000	00000013	addi	x0,x0,0	  x0:0x00000000
       14045000	      1403	80002a1c	00000013	addi	x0,x0,0	  x0:0x00000000
       14055000	      1404	80002a20	054000ef	jal	x1,80002a20	  x1=0x80002a20
       14065000	      1405	00000000	00000013	addi	x0,x0,0	  x0:0x00000000
       14075000	      1406	80002a70	00000013	addi	x0,x0,0	  x0:0x00000000
       14085000	      1407	80002a74	fd1ff66f	jal	x12,80002a74	 x12=0x80002a74
       14095000	      1408	00000000	00000013	addi	x0,x0,0	  x0:0x00000000
       14105000	      1409	80002a40	00000013	addi	x0,x0,0	  x0:0x00000000
       14115000	      1410	80002a44	fe9ff66f	jal	x12,80002a44	 x12=0x80002a44
       14125000	      1411	00000000	00000013	addi	x0,x0,0	  x0:0x00000000
       14135000	      1412	80002a28	00000013	addi	x0,x0,0	  x0:0x00000000
       14145000	      1413	80002a2c	01c0036f	jal	x6,80002a2c	  x6=0x80002a2c
       14155000	      1414	00000000	00000013	addi	x0,x0,0	  x0:0x00000000
       14165000	      1415	80002a44	00000013	addi	x0,x0,0	  x0:0x00000000
       14175000	      1416	80002a48	ff1ffbef	jal	x23,80002a48	 x23=0x80002a48
       14185000	      1417	00000000	00000013	addi	x0,x0,0	  x0:0x00000000
       14195000	      1418	80002a34	00000013	addi	x0,x0,0	  x0:0x00000000
       14205000	      1419	80002a38	048000ef	jal	x1,80002a38	  x1=0x80002a38
       14215000	      1420	00000000	00000013	addi	x0,x0,0	  x0:0x00000000
       14225000	      1421	80002a7c	00000013	addi	x0,x0,0	  x0:0x00000000
       14235000	      1422	80002a80	fedff0ef	jal	x1,80002a80	  x1=0x80002a80
       14245000	      1423	00000000	00000013	addi	x0,x0,0	  x0:0x00000000
       14255000	      1424	80002a68	00000013	addi	x0,x0,0	  x0:0x00000000
       14265000	      1425	80002a6c	0100036f	jal	x6,80002a6c	  x6=0x80002a6c
       14275000	      1426	00000000	00000013	addi	x0,x0,0	  x0:0x00000000
       14285000	      1427	80002a78	00000013	addi	x0,x0,0	  x0:0x00000000
       14295000	      1428	80002a7c	fe5ff0ef	jal	x1,80002a7c	  x1=0x80002a7c
       14305000	      1429	00000000	00000013	addi	x0,x0,0	  x0:0x00000000
       14315000	      1430	80002a5c	00000013	addi	x0,x0,0	  x0:0x00000000
       14325000	      1431	80002a60	008000ef	jal	x1,80002a60	  x1=0x80002a60
       14335000	      1432	00000000	00000013	addi	x0,x0,0	  x0:0x00000000
       14345000	      1433	80002a64	00000013	addi	x0,x0,0	  x0:0x00000000
       14355000	      1434	80002a68	fe5ff36f	jal	x6,80002a68	  x6=0x80002a68
       14365000	      1435	00000000	00000013	addi	x0,x0,0	  x0:0x00000000
       14375000	      1436	80002a48	00000013	addi	x0,x0,0	  x0:0x00000000
       14385000	      1437	80002a4c	fe9ff36f	jal	x6,80002a4c	  x6=0x80002a4c
       14395000	      1438	00000000	00000013	addi	x0,x0,0	  x0:0x00000000
       14405000	      1439	80002a30	00000013	addi	x0,x0,0	  x0:0x00000000
       14415000	      1440	80002a34	0500036f	jal	x6,80002a34	  x6=0x80002a34
       14425000	      1441	00000000	00000013	addi	x0,x0,0	  x0:0x00000000
       14435000	      1442	80002a80	00000013	addi	x0,x0,0	  x0:0x00000000
       14445000	      1443	80002a84	509a2293	slti	x5,x20,1289	 x20:0x80002618  x5=0x00000001
       14455000	      1444	80002a88	004000ef	jal	x1,80002a88	  x1=0x80002a88
       14465000	      1445	00000000	00000013	addi	x0,x0,0	  x0:0x00000000
       14475000	      1446	80002a88	00000013	addi	x0,x0,0	  x0:0x00000000
       14485000	      1447	80002a8c	00c0056f	jal	x10,80002a8c	 x10=0x80002a8c
       14495000	      1448	00000000	00000013	addi	x0,x0,0	  x0:0x00000000
       14505000	      1449	80002a94	00000013	addi	x0,x0,0	  x0:0x00000000
       14515000	      1450	80002a98	004000ef	jal	x1,80002a98	  x1=0x80002a98
       14525000	      1451	00000000	00000013	addi	x0,x0,0	  x0:0x00000000
       14535000	      1452	80002a98	00000013	addi	x0,x0,0	  x0:0x00000000
       14545000	      1453	80002a9c	004003ef	jal	x7,80002a9c	  x7=0x80002a9c
       14555000	      1454	00000000	00000013	addi	x0,x0,0	  x0:0x00000000
       14565000	      1455	80002a9c	00000013	addi	x0,x0,0	  x0:0x00000000
       14575000	      1456	80002aa0	0240096f	jal	x18,80002aa0	 x18=0x80002aa0
       14585000	      1457	00000000	00000013	addi	x0,x0,0	  x0:0x00000000
       14595000	      1458	80002ac0	00000013	addi	x0,x0,0	  x0:0x00000000
       14605000	      1459	80002ac4	ff5ff36f	jal	x6,80002ac4	  x6=0x80002ac4
       14615000	      1460	00000000	00000013	addi	x0,x0,0	  x0:0x00000000
       14625000	      1461	80002ab4	00000013	addi	x0,x0,0	  x0:0x00000000
       14635000	      1462	80002ab8	ff9ff7ef	jal	x15,80002ab8	 x15=0x80002ab8
       14645000	      1463	00000000	00000013	addi	x0,x0,0	  x0:0x00000000
       14655000	      1464	80002aac	00000013	addi	x0,x0,0	  x0:0x00000000
       14665000	      1465	80002ab0	ffdff0ef	jal	x1,80002ab0	  x1=0x80002ab0
       14675000	      1466	00000000	00000013	addi	x0,x0,0	  x0:0x00000000
       14685000	      1467	80002aa8	00000013	addi	x0,x0,0	  x0:0x00000000
       14695000	      1468	80002aac	ff9ff36f	jal	x6,80002aac	  x6=0x80002aac
       14705000	      1469	00000000	00000013	addi	x0,x0,0	  x0:0x00000000
       14715000	      1470	80002aa0	00000013	addi	x0,x0,0	  x0:0x00000000
       14725000	      1471	80002aa4	00400d6f	jal	x26,80002aa4	 x26=0x80002aa4
       14735000	      1472	00000000	00000013	addi	x0,x0,0	  x0:0x00000000
       14745000	      1473	80002aa4	00000013	addi	x0,x0,0	  x0:0x00000000
       14755000	      1474	80002aa8	fedff0ef	jal	x1,80002aa8	  x1=0x80002aa8
       14765000	      1475	00000000	00000013	addi	x0,x0,0	  x0:0x00000000
       14775000	      1476	80002a90	00000013	addi	x0,x0,0	  x0:0x00000000
       14785000	      1477	80002a94	034005ef	jal	x11,80002a94	 x11=0x80002a94
       14795000	      1478	00000000	00000013	addi	x0,x0,0	  x0:0x00000000
       14805000	      1479	80002ac4	00000013	addi	x0,x0,0	  x0:0x00000000
       14815000	      1480	80002ac8	ff9ffeef	jal	x29,80002ac8	 x29=0x80002ac8
       14825000	      1481	00000000	00000013	addi	x0,x0,0	  x0:0x00000000
       14835000	      1482	80002abc	00000013	addi	x0,x0,0	  x0:0x00000000
       14845000	      1483	80002ac0	ff5ff0ef	jal	x1,80002ac0	  x1=0x80002ac0
       14855000	      1484	00000000	00000013	addi	x0,x0,0	  x0:0x00000000
       14865000	      1485	80002ab0	00000013	addi	x0,x0,0	  x0:0x00000000
       14875000	      1486	80002ab4	fddff0ef	jal	x1,80002ab4	  x1=0x80002ab4
       14885000	      1487	00000000	00000013	addi	x0,x0,0	  x0:0x00000000
       14895000	      1488	80002a8c	00000013	addi	x0,x0,0	  x0:0x00000000
       14905000	      1489	80002a90	02c0036f	jal	x6,80002a90	  x6=0x80002a90
       14915000	      1490	00000000	00000013	addi	x0,x0,0	  x0:0x00000000
       14925000	      1491	80002ab8	00000013	addi	x0,x0,0	  x0:0x00000000
       14935000	      1492	80002abc	01000c6f	jal	x24,80002abc	 x24=0x80002abc
       14945000	      1493	00000000	00000013	addi	x0,x0,0	  x0:0x00000000
       14955000	      1494	80002ac8	00000013	addi	x0,x0,0	  x0:0x00000000
       14965000	      1495	80002acc	41f5df13	srai	x30,x11,0x1f	 x11:0x80002a94 x30=0xffffffff
       14975000	      1496	80002ad0	018000ef	jal	x1,80002ad0	  x1=0x80002ad0
       14985000	      1497	00000000	00000013	addi	x0,x0,0	  x0:0x00000000
       14995000	      1498	80002ae4	00000013	addi	x0,x0,0	  x0:0x00000000
       15005000	      1499	80002ae8	ff1ffa6f	jal	x20,80002ae8	 x20=0x80002ae8
       15015000	      1500	00000000	00000013	addi	x0,x0,0	  x0:0x00000000
       15025000	      1501	80002ad4	00000013	addi	x0,x0,0	  x0:0x00000000
       15035000	      1502	80002ad8	00c000ef	jal	x1,80002ad8	  x1=0x80002ad8
       15045000	      1503	00000000	00000013	addi	x0,x0,0	  x0:0x00000000
       15055000	      1504	80002ae0	00000013	addi	x0,x0,0	  x0:0x00000000
       15065000	      1505	80002ae4	ff9ffdef	jal	x27,80002ae4	 x27=0x80002ae4
       15075000	      1506	00000000	00000013	addi	x0,x0,0	  x0:0x00000000
       15085000	      1507	80002ad8	00000013	addi	x0,x0,0	  x0:0x00000000
       15095000	      1508	80002adc	01c0036f	jal	x6,80002adc	  x6=0x80002adc
       15105000	      1509	00000000	00000013	addi	x0,x0,0	  x0:0x00000000
       15115000	      1510	80002af4	00000013	addi	x0,x0,0	  x0:0x00000000
       15125000	      1511	80002af8	fddff36f	jal	x6,80002af8	  x6=0x80002af8
       15135000	      1512	00000000	00000013	addi	x0,x0,0	  x0:0x00000000
       15145000	      1513	80002ad0	00000013	addi	x0,x0,0	  x0:0x00000000
       15155000	      1514	80002ad4	018000ef	jal	x1,80002ad4	  x1=0x80002ad4
       15165000	      1515	00000000	00000013	addi	x0,x0,0	  x0:0x00000000
       15175000	      1516	80002ae8	00000013	addi	x0,x0,0	  x0:0x00000000
       15185000	      1517	80002aec	ff5ff36f	jal	x6,80002aec	  x6=0x80002aec
       15195000	      1518	00000000	00000013	addi	x0,x0,0	  x0:0x00000000
       15205000	      1519	80002adc	00000013	addi	x0,x0,0	  x0:0x00000000
       15215000	      1520	80002ae0	014000ef	jal	x1,80002ae0	  x1=0x80002ae0
       15225000	      1521	00000000	00000013	addi	x0,x0,0	  x0:0x00000000
       15235000	      1522	80002af0	00000013	addi	x0,x0,0	  x0:0x00000000
       15245000	      1523	80002af4	ffdff0ef	jal	x1,80002af4	  x1=0x80002af4
       15255000	      1524	00000000	00000013	addi	x0,x0,0	  x0:0x00000000
       15265000	      1525	80002aec	00000013	addi	x0,x0,0	  x0:0x00000000
       15275000	      1526	80002af0	00c00eef	jal	x29,80002af0	 x29=0x80002af0
       15285000	      1527	00000000	00000013	addi	x0,x0,0	  x0:0x00000000
       15295000	      1528	80002af8	00000013	addi	x0,x0,0	  x0:0x00000000
       15305000	      1529	80002afc	0156f3b3	and	x7,x13,x21	 x13:0x21d862b0 x21:0x80002a40  x7=0x00002200
       15315000	      1530	80002b00	037edc63	bge	x29,x23,80002b38	 x29:0x80002af0 x23:0x80002a48
       15325000	      1531	00000000	00000013	addi	x0,x0,0	  x0:0x00000000
       15335000	      1532	80002b34	00000013	addi	x0,x0,0	  x0:0x00000000
       15345000	      1533	80002b38	009544b3	xor	x9,x10,x9	 x10:0x80002a8c  x9:0x80000258  x9=0x000028d4
       15355000	      1534	80002b3c	08756e63	bltu	x10,x7,80002bd8	 x10:0x80002a8c  x7:0x00002200
       15365000	      1535	80002b40	0047ca63	blt	x15,x4,80002b54	 x15:0x80002ab8  x4:0x800029b4
       15375000	      1536	80002b44	01af35b3	sltu	x11,x30,x26	 x30:0xffffffff x26:0x80002aa4 x11=0x00000000
       15385000	      1537	80002b48	00000013	addi	x0,x0,0	  x0:0x00000000
       15395000	      1538	80002b4c	015c9b33	sll	x22,x25,x21	 x25:0x800028f8 x21:0x80002a40 x22=0x800028f8
       15405000	      1539	80002b50	0893e263	bltu	x7,x9,80002bd4	  x7:0x00002200  x9:0x000028d4
       15415000	      1540	00000000	00000013	addi	x0,x0,0	  x0:0x00000000
       15425000	      1541	80002bd0	00000013	addi	x0,x0,0	  x0:0x00000000
       15435000	      1542	80002bd4	fe9ff0ef	jal	x1,80002bd4	  x1=0x80002bd4
       15445000	      1543	00000000	00000013	addi	x0,x0,0	  x0:0x00000000
       15455000	      1544	80002bb8	00000013	addi	x0,x0,0	  x0:0x00000000
       15465000	      1545	80002bbc	ff9ff4ef	jal	x9,80002bbc	  x9=0x80002bbc
       15475000	      1546	00000000	00000013	addi	x0,x0,0	  x0:0x00000000
       15485000	      1547	80002bb0	00000013	addi	x0,x0,0	  x0:0x00000000
       15495000	      1548	80002bb4	fe1ff36f	jal	x6,80002bb4	  x6=0x80002bb4
       15505000	      1549	00000000	00000013	addi	x0,x0,0	  x0:0x00000000
       15515000	      1550	80002b90	00000013	addi	x0,x0,0	  x0:0x00000000
       15525000	      1551	80002b94	044000ef	jal	x1,80002b94	  x1=0x80002b94
       15535000	      1552	00000000	00000013	addi	x0,x0,0	  x0:0x00000000
       15545000	      1553	80002bd4	00000013	addi	x0,x0,0	  x0:0x00000000
       15555000	      1554	80002bd8	fa5ff0ef	jal	x1,80002bd8	  x1=0x80002bd8
       15565000	      1555	00000000	00000013	addi	x0,x0,0	  x0:0x00000000
       15575000	      1556	80002b78	00000013	addi	x0,x0,0	  x0:0x00000000
       15585000	      1557	80002b7c	010000ef	jal	x1,80002b7c	  x1=0x80002b7c
       15595000	      1558	00000000	00000013	addi	x0,x0,0	  x0:0x00000000
       15605000	      1559	80002b88	00000013	addi	x0,x0,0	  x0:0x00000000
       15615000	      1560	80002b8c	fddff0ef	jal	x1,80002b8c	  x1=0x80002b8c
       15625000	      1561	00000000	00000013	addi	x0,x0,0	  x0:0x00000000
       15635000	      1562	80002b64	00000013	addi	x0,x0,0	  x0:0x00000000
       15645000	      1563	80002b68	040000ef	jal	x1,80002b68	  x1=0x80002b68
       15655000	      1564	00000000	00000013	addi	x0,x0,0	  x0:0x00000000
       15665000	      1565	80002ba4	00000013	addi	x0,x0,0	  x0:0x00000000
       15675000	      1566	80002ba8	fddffc6f	jal	x24,80002ba8	 x24=0x80002ba8
       15685000	      1567	00000000	00000013	addi	x0,x0,0	  x0:0x00000000
       15695000	      1568	80002b80	00000013	addi	x0,x0,0	  x0:0x00000000
       15705000	      1569	80002b84	04c005ef	jal	x11,80002b84	 x11=0x80002b84
       15715000	      1570	00000000	00000013	addi	x0,x0,0	  x0:0x00000000
       15725000	      1571	80002bcc	00000013	addi	x0,x0,0	  x0:0x00000000
       15735000	      1572	80002bd0	fb9ff0ef	jal	x1,80002bd0	  x1=0x80002bd0
       15745000	      1573	00000000	00000013	addi	x0,x0,0	  x0:0x00000000
       15755000	      1574	80002b84	00000013	addi	x0,x0,0	  x0:0x00000000
       15765000	      1575	80002b88	ff9ffa6f	jal	x20,80002b88	 x20=0x80002b88
       15775000	      1576	00000000	00000013	addi	x0,x0,0	  x0:0x00000000
       15785000	      1577	80002b7c	00000013	addi	x0,x0,0	  x0:0x00000000
       15795000	      1578	80002b80	024003ef	jal	x7,80002b80	  x7=0x80002b80
       15805000	      1579	00000000	00000013	addi	x0,x0,0	  x0:0x00000000
       15815000	      1580	80002ba0	00000013	addi	x0,x0,0	  x0:0x00000000
       15825000	      1581	80002ba4	024000ef	jal	x1,80002ba4	  x1=0x80002ba4
       15835000	      1582	00000000	00000013	addi	x0,x0,0	  x0:0x00000000
       15845000	      1583	80002bc4	00000013	addi	x0,x0,0	  x0:0x00000000
       15855000	      1584	80002bc8	fadff76f	jal	x14,80002bc8	 x14=0x80002bc8
       15865000	      1585	00000000	00000013	addi	x0,x0,0	  x0:0x00000000
       15875000	      1586	80002b70	00000013	addi	x0,x0,0	  x0:0x00000000
       15885000	      1587	80002b74	0440066f	jal	x12,80002b74	 x12=0x80002b74
       15895000	      1588	00000000	00000013	addi	x0,x0,0	  x0:0x00000000
       15905000	      1589	80002bb4	00000013	addi	x0,x0,0	  x0:0x00000000
       15915000	      1590	80002bb8	fe9ff0ef	jal	x1,80002bb8	  x1=0x80002bb8
       15925000	      1591	00000000	00000013	addi	x0,x0,0	  x0:0x00000000
       15935000	      1592	80002b9c	00000013	addi	x0,x0,0	  x0:0x00000000
       15945000	      1593	80002ba0	024002ef	jal	x5,80002ba0	  x5=0x80002ba0
       15955000	      1594	00000000	00000013	addi	x0,x0,0	  x0:0x00000000
       15965000	      1595	80002bc0	00000013	addi	x0,x0,0	  x0:0x00000000
       15975000	      1596	80002bc4	fe9ff1ef	jal	x3,80002bc4	  x3=0x80002bc4
       15985000	      1597	00000000	00000013	addi	x0,x0,0	  x0:0x00000000
       15995000	      1598	80002ba8	00000013	addi	x0,x0,0	  x0:0x00000000
       16005000	      1599	80002bac	fc1ff36f	jal	x6,80002bac	  x6=0x80002bac
       16015000	      1600	00000000	00000013	addi	x0,x0,0	  x0:0x00000000
       16025000	      1601	80002b68	00000013	addi	x0,x0,0	  x0:0x00000000
       16035000	      1602	80002b6c	070000ef	jal	x1,80002b6c	  x1=0x80002b6c
       16045000	      1603	00000000	00000013	addi	x0,x0,0	  x0:0x00000000
       16055000	      1604	80002bd8	00000013	addi	x0,x0,0	  x0:0x00000000
       16065000	      1605	80002bdc	1d5e7a93	andi	x21,x28,469	 x28:0x80009f64 x21=0x00000144
       16075000	      1606	80002be0	00ce1193	slli	x3,x28,0xc	 x28:0x80009f64  x3=0x09f64000
       16085000	      1607	80002be4	01ffb7b3	sltu	x15,x31,x31	 x31:0x800029d4 x31:0x800029d4 x15=0x00000000
       16095000	      1608	80002be8	416a0933	sub	x18,x20,x22	 x20:0x80002b88 x22:0x800028f8 x18=0x00000290
       16105000	      1609	80002bec	40760333	sub	x6,x12,x7	 x12:0x80002b74  x7:0x80002b80  x6=0xfffffff4
       16115000	      1610	80002bf0	a113b093	sltiu	x1,x7,-1519	  x7:0x80002b80  x1=0x00000001
       16125000	      1611	80002bf4	3a58c193	xori	x3,x17,933	 x17:0x8000293c  x3=0x80002a99
       16135000	      1612	80002bf8	05bcf663	bgeu	x25,x27,80002c44	 x25:0x800028f8 x27:0x80002ae4
       16145000	      1613	80002bfc	17ec6a13	ori	x20,x24,382	 x24:0x80002ba8 x20=0x80002bfe
       16155000	      1614	80002c00	01695933	srl	x18,x18,x22	 x18:0x00000290 x22:0x800028f8 x18=0x00000000
       16165000	      1615	80002c04	00ca8533	add	x10,x21,x12	 x21:0x00000144 x12:0x80002b74 x10=0x80002cb8
       16175000	      1616	80002c08	005bf5b3	and	x11,x23,x5	 x23:0x80002a48  x5:0x80002ba0 x11=0x80002a00
       16185000	      1617	80002c0c	0088d913	srli	x18,x17,0x8	 x17:0x8000293c x18=0x00800029
       16195000	      1618	80002c10	a93ba617	auipc	x12,0xa93ba	 x12=0x293bcc0c
       16205000	      1619	80002c14	414e0d33	sub	x26,x28,x20	 x28:0x80009f64 x20:0x80002bfe x26=0x00007366
       16215000	      1620	80002c18	02ce6063	bltu	x28,x12,80002c38	 x28:0x80009f64 x12:0x293bcc0c
       16225000	      1621	80002c1c	415b5893	srai	x17,x22,0x15	 x22:0x800028f8 x17=0xfffffc00
       16235000	      1622	80002c20	01652d33	slt	x26,x10,x22	 x10:0x80002cb8 x22:0x800028f8 x26=0x00000000
       16245000	      1623	80002c24	008eb733	sltu	x14,x29,x8	 x29:0x80002af0  x8:0x80002a1c x14=0x00000000
       16255000	      1624	80002c28	013047b3	xor	x15,x0,x19	  x0:0x00000000 x19:0x800026f4 x15=0x800026f4
       16265000	      1625	80002c2c	014c8eb3	add	x29,x25,x20	 x25:0x800028f8 x20:0x80002bfe x29=0x000054f6
       16275000	      1626	80002c30	00a56fb3	or	x31,x10,x10	 x10:0x80002cb8 x10:0x80002cb8 x31=0x80002cb8
       16285000	      1627	80002c34	3b023093	sltiu	x1,x4,944	  x4:0x800029b4  x1=0x00000000
       16295000	      1628	80002c38	30842a13	slti	x20,x8,776	  x8:0x80002a1c x20=0x00000001
       16305000	      1629	80002c3c	0233ee63	bltu	x7,x3,80002c78	  x7:0x80002b80  x3:0x80002a99
       16315000	      1630	80002c40	00c72db3	slt	x27,x14,x12	 x14:0x00000000 x12:0x293bcc0c x27=0x00000001
       16325000	      1631	80002c44	a9cc3737	lui	x14,0xa9cc3	 x14=0xa9cc3000
       16335000	      1632	80002c48	002c5613	srli	x12,x24,0x2	 x24:0x80002ba8 x12=0x20000aea
       16345000	      1633	80002c4c	02688063	beq	x17,x6,80002c6c	 x17:0xfffffc00  x6:0xfffffff4
       16355000	      1634	80002c50	00000013	addi	x0,x0,0	  x0:0x00000000
       16365000	      1635	80002c54	51bd4993	xori	x19,x26,1307	 x26:0x00000000 x19=0x0000051b
       16375000	      1636	80002c58	01528693	addi	x13,x5,21	  x5:0x80002ba0 x13=0x80002bb5
       16385000	      1637	80002c5c	0011bcb3	sltu	x25,x3,x1	  x3:0x80002a99  x1:0x00000000 x25=0x00000000
       16395000	      1638	80002c60	41e55333	sra	x6,x10,x30	 x10:0x80002cb8 x30:0xffffffff  x6=0xffffffff
       16405000	      1639	80002c64	b7718213	addi	x4,x3,-1161	  x3:0x80002a99  x4=0x80002610
       16415000	      1640	80002c68	4145ddb3	sra	x27,x11,x20	 x11:0x80002a00 x20:0x00000001 x27=0xc0001500
       16425000	      1641	80002c6c	007ee0b3	or	x1,x29,x7	 x29:0x000054f6  x7:0x80002b80  x1=0x80007ff6
       16435000	      1642	80002c70	007dd293	srli	x5,x27,0x7	 x27:0xc0001500  x5=0x0180002a
       16445000	      1643	80002c74	629b0593	addi	x11,x22,1577	 x22:0x800028f8 x11=0x80002f21
       16455000	      1644	80002c78	87293d13	sltiu	x26,x18,-1934	 x18:0x00800029 x26=0x00000001
       16465000	      1645	80002c7c	40f153b3	sra	x7,x2,x15	  x2:0x80009fc4 x15:0x800026f4  x7=0xfffff800
       16475000	      1646	80002c80	d70e8f93	addi	x31,x29,-656	 x29:0x000054f6 x31=0x00005266
       16485000	      1647	80002c84	234c8717	auipc	x14,0x234c8	 x14=0xa34cac80
       16495000	      1648	80002c88	0015df93	srli	x31,x11,0x1	 x11:0x80002f21 x31=0x40001790
       16505000	      1649	80002c8c	245d4713	xori	x14,x26,581	 x26:0x00000001 x14=0x00000244
       16515000	      1650	80002c90	010422b3	slt	x5,x8,x16	  x8:0x80002a1c x16:0x135afdaa  x5=0x00000001
       16525000	      1651	80002c94	011cabb3	slt	x23,x25,x17	 x25:0x00000000 x17:0xfffffc00 x23=0x00000000
       16535000	      1652	80002c98	0082d863	bge	x5,x8,80002ca8	  x5:0x00000001  x8:0x80002a1c
       16545000	      1653	00000000	00000013	addi	x0,x0,0	  x0:0x00000000
       16555000	      1654	80002ca4	00000013	addi	x0,x0,0	  x0:0x00000000
       16565000	      1655	80002ca8	05c78263	beq	x15,x28,80002cec	 x15:0x800026f4 x28:0x80009f64
       16575000	      1656	80002cac	03c56e63	bltu	x10,x28,80002ce8	 x10:0x80002cb8 x28:0x80009f64
       16585000	      1657	00000000	00000013	addi	x0,x0,0	  x0:0x00000000
       16595000	      1658	80002ce4	00000013	addi	x0,x0,0	  x0:0x00000000
       16605000	      1659	80002ce8	004e9e63	bne	x29,x4,80002d04	 x29:0x000054f6  x4:0x80002610
       16615000	      1660	00000000	00000013	addi	x0,x0,0	  x0:0x00000000
       16625000	      1661	80002d00	00000013	addi	x0,x0,0	  x0:0x00000000
       16635000	      1662	80002d04	02b9fa63	bgeu	x19,x11,80002d38	 x19:0x0000051b x11:0x80002f21
       16645000	      1663	80002d08	0241fe63	bgeu	x3,x4,80002d44	  x3:0x80002a99  x4:0x80002610
       16655000	      1664	00000000	00000013	addi	x0,x0,0	  x0:0x00000000
       16665000	      1665	80002d40	00000013	addi	x0,x0,0	  x0:0x00000000
       16675000	      1666	80002d44	dcf9bc17	auipc	x24,0xdcf9b	 x24=0x5cf9dd40
       16685000	      1667	80002d48	043d7063	bgeu	x26,x3,80002d88	 x26:0x00000001  x3:0x80002a99
       16695000	      1668	80002d4c	b2723593	sltiu	x11,x4,-1241	  x4:0x80002610 x11=0x00000001
       16705000	      1669	80002d50	0052f633	and	x12,x5,x5	  x5:0x00000001  x5:0x00000001 x12=0x00000001
       16715000	      1670	80002d54	417252b3	sra	x5,x4,x23	  x4:0x80002610 x23:0x00000000  x5=0x80002610
       16725000	      1671	80002d58	dcb53613	sltiu	x12,x10,-565	 x10:0x80002cb8 x12=0x00000001
       16735000	      1672	80002d5c	033f4063	blt	x30,x19,80002d7c	 x30:0xffffffff x19:0x0000051b
       16745000	      1673	00000000	00000013	addi	x0,x0,0	  x0:0x00000000
       16755000	      1674	80002d78	00000013	addi	x0,x0,0	  x0:0x00000000
       16765000	      1675	80002d7c	01e68c63	beq	x13,x30,80002d94	 x13:0x80002bb5 x30:0xffffffff
       16775000	      1676	80002d80	36016293	ori	x5,x2,864	  x2:0x80009fc4  x5=0x80009fe4
       16785000	      1677	80002d84	004949b3	xor	x19,x18,x4	 x18:0x00800029  x4:0x80002610 x19=0x80802639
       16795000	      1678	80002d88	053f5863	bge	x30,x19,80002dd8	 x30:0xffffffff x19:0x80802639
       16805000	      1679	00000000	00000013	addi	x0,x0,0	  x0:0x00000000
       16815000	      1680	80002dd4	00000013	addi	x0,x0,0	  x0:0x00000000
       16825000	      1681	80002dd8	0c68f997	auipc	x19,0xc68f	 x19=0x8c691dd4
       16835000	      1682	80002ddc	41c058b3	sra	x17,x0,x28	  x0:0x00000000 x28:0x80009f64 x17=0x00000000
       16845000	      1683	80002de0	4acca493	slti	x9,x25,1196	 x25:0x00000000  x9=0x00000001
       16855000	      1684	80002de4	04304463	blt	x0,x3,80002e2c	  x0:0x00000000  x3:0x80002a99
       16865000	      1685	80002de8	39af2c37	lui	x24,0x39af2	 x24=0x39af2000
       16875000	      1686	80002dec	00000013	addi	x0,x0,0	  x0:0x00000000
       16885000	      1687	80002df0	030cee63	bltu	x25,x16,80002e2c	 x25:0x00000000 x16:0x135afdaa
       16895000	      1688	00000000	00000013	addi	x0,x0,0	  x0:0x00000000
       16905000	      1689	80002e28	00000013	addi	x0,x0,0	  x0:0x00000000
       16915000	      1690	80002e2c	0281f263	bgeu	x3,x8,80002e50	  x3:0x80002a99  x8:0x80002a1c
       16925000	      1691	00000000	00000013	addi	x0,x0,0	  x0:0x00000000
       16935000	      1692	80002e4c	00000013	addi	x0,x0,0	  x0:0x00000000
       16945000	      1693	80002e50	041c0863	beq	x24,x1,80002ea0	 x24:0x39af2000  x1:0x80007ff6
       16955000	      1694	80002e54	012d9513	slli	x10,x27,0x12	 x27:0xc0001500 x10=0x54000000
       16965000	      1695	80002e58	4092d633	sra	x12,x5,x9	  x5:0x80009fe4  x9:0x00000001 x12=0xc0004ff2
       16975000	      1696	80002e5c	a215bc17	auipc	x24,0xa215b	 x24=0x2215de58
       16985000	      1697	80002e60	2a63ac13	slti	x24,x7,678	  x7:0xfffff800 x24=0x00000001
       16995000	      1698	80002e64	015bddb3	srl	x27,x23,x21	 x23:0x00000000 x21:0x00000144 x27=0x00000000
       17005000	      1699	80002e68	07b3b7b7	lui	x15,0x7b3b	 x15=0x07b3b000
       17015000	      1700	80002e6c	85eb8493	addi	x9,x23,-1954	 x23:0x00000000  x9=0xfffff85e
       17025000	      1701	80002e70	e1e8d897	auipc	x17,0xe1e8d	 x17=0x61e8fe6c
       17035000	      1702	80002e74	40dcd2b3	sra	x5,x25,x13	 x25:0x00000000 x13:0x80002bb5  x5=0x00000000
       17045000	      1703	80002e78	19757093	andi	x1,x10,407	 x10:0x54000000  x1=0x00000000
       17055000	      1704	80002e7c	fe472c93	slti	x25,x14,-28	 x14:0x00000244 x25=0x00000000
       17065000	      1705	80002e80	012a7a63	bgeu	x20,x18,80002e94	 x20:0x00000001 x18:0x00800029
       17075000	      1706	80002e84	01bc8863	beq	x25,x27,80002e94	 x25:0x00000000 x27:0x00000000
       17085000	      1707	00000000	00000013	addi	x0,x0,0	  x0:0x00000000
       17095000	      1708	80002e90	00000013	addi	x0,x0,0	  x0:0x00000000
       17105000	      1709	80002e94	0032d893	srli	x17,x5,0x3	  x5:0x00000000 x17=0x00000000
       17115000	      1710	80002e98	002534b3	sltu	x9,x10,x2	 x10:0x54000000  x2:0x80009fc4  x9=0x00000001
       17125000	      1711	80002e9c	04012793	slti	x15,x2,64	  x2:0x80009fc4 x15=0x00000001
       17135000	      1712	80002ea0	04104463	blt	x0,x1,80002ee8	  x0:0x00000000  x1:0x00000000
       17145000	      1713	80002ea4	00cc4fb3	xor	x31,x24,x12	 x24:0x00000001 x12:0xc0004ff2 x31=0xc0004ff3
       17155000	      1714	80002ea8	01b47e63	bgeu	x8,x27,80002ec4	  x8:0x80002a1c x27:0x00000000
       17165000	      1715	00000000	00000013	addi	x0,x0,0	  x0:0x00000000
       17175000	      1716	80002ec0	00000013	addi	x0,x0,0	  x0:0x00000000
       17185000	      1717	80002ec4	356cc793	xori	x15,x25,854	 x25:0x00000000 x15=0x00000356
       17195000	      1718	80002ec8	00000013	addi	x0,x0,0	  x0:0x00000000
       17205000	      1719	80002ecc	001e5393	srli	x7,x28,0x1	 x28:0x80009f64  x7=0x40004fb2
       17215000	      1720	80002ed0	003505b3	add	x11,x10,x3	 x10:0x54000000  x3:0x80002a99 x11=0xd4002a99
       17225000	      1721	80002ed4	413f07b3	sub	x15,x30,x19	 x30:0xffffffff x19:0x8c691dd4 x15=0x7396e22b
       17235000	      1722	80002ed8	05a44263	blt	x8,x26,80002f1c	  x8:0x80002a1c x26:0x00000001
       17245000	      1723	00000000	00000013	addi	x0,x0,0	  x0:0x00000000
       17255000	      1724	80002f18	00000013	addi	x0,x0,0	  x0:0x00000000
       17265000	      1725	80002f1c	02564a63	blt	x12,x5,80002f50	 x12:0xc0004ff2  x5:0x00000000
       17275000	      1726	00000000	00000013	addi	x0,x0,0	  x0:0x00000000
       17285000	      1727	80002f4c	00000013	addi	x0,x0,0	  x0:0x00000000
       17295000	      1728	80002f50	40e95333	sra	x6,x18,x14	 x18:0x00800029 x14:0x00000244  x6=0x00080002
       17305000	      1729	80002f54	00f4c5b3	xor	x11,x9,x15	  x9:0x00000001 x15:0x7396e22b x11=0x7396e22a
       17315000	      1730	80002f58	a65cc393	xori	x7,x25,-1435	 x25:0x00000000  x7=0xfffffa65
       17325000	      1731	80002f5c	8221a393	slti	x7,x3,-2014	  x3:0x80002a99  x7=0x00000001
       17335000	      1732	80002f60	00000013	addi	x0,x0,0	  x0:0x00000000
       17345000	      1733	80002f64	bcfeee93	ori	x29,x29,-1073	 x29:0x000054f6 x29=0xffffffff
       17355000	      1734	80002f68	015acdb3	xor	x27,x21,x21	 x21:0x00000144 x21:0x00000144 x27=0x00000000
       17365000	      1735	80002f6c	fb814413	xori	x8,x2,-72	  x2:0x80009fc4  x8=0x7fff607c
       17375000	      1736	80002f70	40f9d6b3	sra	x13,x19,x15	 x19:0x8c691dd4 x15:0x7396e22b x13=0xfff18d23
       17385000	      1737	80002f74	84f2e193	ori	x3,x5,-1969	  x5:0x00000000  x3=0xfffff84f
       17395000	      1738	80002f78	0b80f013	andi	x0,x1,184	  x1:0x00000000
       17405000	      1739	80002f7c	05b69063	bne	x13,x27,80002fbc	 x13:0xfff18d23 x27:0x00000000
       17415000	      1740	00000000	00000013	addi	x0,x0,0	  x0:0x00000000
       17425000	      1741	80002fb8	00000013	addi	x0,x0,0	  x0:0x00000000
       17435000	      1742	80002fbc	00e1d313	srli	x6,x3,0xe	  x3:0xfffff84f  x6=0x0003ffff
       17445000	      1743	80002fc0	00447e63	bgeu	x8,x4,80002fdc	  x8:0x7fff607c  x4:0x80002610
       17455000	      1744	80002fc4	405e8db3	sub	x27,x29,x5	 x29:0xffffffff  x5:0x00000000 x27=0xffffffff
       17465000	      1745	80002fc8	01684e63	blt	x16,x22,80002fe4	 x16:0x135afdaa x22:0x800028f8
       17475000	      1746	80002fcc	01444a63	blt	x8,x20,80002fe0	  x8:0x7fff607c x20:0x00000001
       17485000	      1747	80002fd0	00cde6b3	or	x13,x27,x12	 x27:0xffffffff x12:0xc0004ff2 x13=0xffffffff
       17495000	      1748	80002fd4	d6d2eb17	auipc	x22,0xd6d2e	 x22=0x56d30fd0
       17505000	      1749	80002fd8	40905393	srai	x7,x0,0x9	  x0:0x00000000  x7=0x00000000
       17515000	      1750	80002fdc	014736b3	sltu	x13,x14,x20	 x14:0x00000244 x20:0x00000001 x13=0x00000000
       17525000	      1751	80002fe0	907ec693	xori	x13,x29,-1785	 x29:0xffffffff x13=0x000006f8
       17535000	      1752	80002fe4	cb56ab13	slti	x22,x13,-843	 x13:0x000006f8 x22=0x00000000
       17545000	      1753	80002fe8	023a0a63	beq	x20,x3,8000301c	 x20:0x00000001  x3:0xfffff84f
       17555000	      1754	80002fec	00000013	addi	x0,x0,0	  x0:0x00000000
       17565000	      1755	80002ff0	e53fb993	sltiu	x19,x31,-429	 x31:0xc0004ff3 x19=0x00000001
       17575000	      1756	80002ff4	00edabb3	slt	x23,x27,x14	 x27:0xffffffff x14:0x00000244 x23=0x00000001
       17585000	      1757	80002ff8	892cb213	sltiu	x4,x25,-1902	 x25:0x00000000  x4=0x00000001
       17595000	      1758	80002ffc	95d9f613	andi	x12,x19,-1699	 x19:0x00000001 x12=0x00000001
       17605000	      1759	80003000	018d8ab3	add	x21,x27,x24	 x27:0xffffffff x24:0x00000001 x21=0x00000000
       17615000	      1760	80003004	00000013	addi	x0,x0,0	  x0:0x00000000
       17625000	      1761	80003008	01fe3733	sltu	x14,x28,x31	 x28:0x80009f64 x31:0xc0004ff3 x14=0x00000001
       17635000	      1762	8000300c	00fe6733	or	x14,x28,x15	 x28:0x80009f64 x15:0x7396e22b x14=0xf396ff6f
       17645000	      1763	80003010	40075233	sra	x4,x14,x0	 x14:0xf396ff6f  x0:0x00000000  x4=0xf396ff6f
       17655000	      1764	80003014	0042f733	and	x14,x5,x4	  x5:0x00000000  x4:0xf396ff6f x14=0x00000000
       17665000	      1765	80003018	00c26263	bltu	x4,x12,8000301c	  x4:0xf396ff6f x12:0x00000001
       17675000	      1766	8000301c	00867863	bgeu	x12,x8,8000302c	 x12:0x00000001  x8:0x7fff607c
       17685000	      1767	80003020	ba307d93	andi	x27,x0,-1117	  x0:0x00000000 x27=0x00000000
       17695000	      1768	80003024	f3530693	addi	x13,x6,-203	  x6:0x0003ffff x13=0x0003ff34
       17705000	      1769	80003028	012631b3	sltu	x3,x12,x18	 x12:0x00000001 x18:0x00800029  x3=0x00000001
       17715000	      1770	8000302c	02b1e263	bltu	x3,x11,80003050	  x3:0x00000001 x11:0x7396e22a
       17725000	      1771	00000000	00000013	addi	x0,x0,0	  x0:0x00000000
       17735000	      1772	8000304c	00000013	addi	x0,x0,0	  x0:0x00000000
       17745000	      1773	80003050	43990217	auipc	x4,0x43990	  x4=0xc399304c
       17755000	      1774	80003054	007ff8b3	and	x17,x31,x7	 x31:0xc0004ff3  x7:0x00000000 x17=0x00000000
       17765000	      1775	80003058	01145cb3	srl	x25,x8,x17	  x8:0x7fff607c x17:0x00000000 x25=0x7fff607c
       17775000	      1776	8000305c	0064d233	srl	x4,x9,x6	  x9:0x00000001  x6:0x0003ffff  x4=0x00000000
       17785000	      1777	80003060	03f89063	bne	x17,x31,80003080	 x17:0x00000000 x31:0xc0004ff3
       17795000	      1778	00000000	00000013	addi	x0,x0,0	  x0:0x00000000
       17805000	      1779	8000307c	00000013	addi	x0,x0,0	  x0:0x00000000
       17815000	      1780	80003080	02951063	bne	x10,x9,800030a0	 x10:0x54000000  x9:0x00000001
       17825000	      1781	00000000	00000013	addi	x0,x0,0	  x0:0x00000000
       17835000	      1782	8000309c	00000013	addi	x0,x0,0	  x0:0x00000000
       17845000	      1783	800030a0	c7d9a0b7	lui	x1,0xc7d9a	  x1=0xc7d9a000
       17855000	      1784	800030a4	036d4a63	blt	x26,x22,800030d8	 x26:0x00000001 x22:0x00000000
       17865000	      1785	800030a8	00000013	addi	x0,x0,0	  x0:0x00000000
       17875000	      1786	800030ac	015d4c63	blt	x26,x21,800030c4	 x26:0x00000001 x21:0x00000000
       17885000	      1787	800030b0	525f4b93	xori	x23,x30,1317	 x30:0xffffffff x23=0xfffffada
       17895000	      1788	800030b4	00edf533	and	x10,x27,x14	 x27:0x00000000 x14:0x00000000 x10=0x00000000
       17905000	      1789	800030b8	2ec42693	slti	x13,x8,748	  x8:0x7fff607c x13=0x00000000
       17915000	      1790	800030bc	415c5f13	srai	x30,x24,0x15	 x24:0x00000001 x30=0x00000000
       17925000	      1791	800030c0	00000013	addi	x0,x0,0	  x0:0x00000000
       17935000	      1792	800030c4	be1ba393	slti	x7,x23,-1055	 x23:0xfffffada  x7=0x00000001
       17945000	      1793	800030c8	1a4cfc13	andi	x24,x25,420	 x25:0x7fff607c x24=0x00000024
       17955000	      1794	800030cc	03cd0c63	beq	x26,x28,80003104	 x26:0x00000001 x28:0x80009f64
       17965000	      1795	800030d0	01ac5913	srli	x18,x24,0x1a	 x24:0x00000024 x18=0x00000000
       17975000	      1796	800030d4	0154abb3	slt	x23,x9,x21	  x9:0x00000001 x21:0x00000000 x23=0x00000000
       17985000	      1797	800030d8	01c27db3	and	x27,x4,x28	  x4:0x00000000 x28:0x80009f64 x27=0x00000000
       17995000	      1798	800030dc	00f0e3b3	or	x7,x1,x15	  x1:0xc7d9a000 x15:0x7396e22b  x7=0xf7dfe22b
       18005000	      1799	800030e0	0176d293	srli	x5,x13,0x17	 x13:0x00000000  x5=0x00000000
       18015000	      1800	800030e4	052d4863	blt	x26,x18,80003134	 x26:0x00000001 x18:0x00000000
       18025000	      1801	800030e8	0184b2b3	sltu	x5,x9,x24	  x9:0x00000001 x24:0x00000024  x5=0x00000001
       18035000	      1802	800030ec	00f27463	bgeu	x4,x15,800030f4	  x4:0x00000000 x15:0x7396e22b
       18045000	      1803	800030f0	053f7063	bgeu	x30,x19,80003130	 x30:0x00000000 x19:0x00000001
       18055000	      1804	800030f4	007ca9b3	slt	x19,x25,x7	 x25:0x7fff607c  x7:0xf7dfe22b x19=0x00000000
       18065000	      1805	800030f8	0513d063	bge	x7,x17,80003138	  x7:0xf7dfe22b x17:0x00000000
       18075000	      1806	800030fc	010cf333	and	x6,x25,x16	 x25:0x7fff607c x16:0x135afdaa  x6=0x135a6028
       18085000	      1807	80003100	01630a63	beq	x6,x22,80003114	  x6:0x135a6028 x22:0x00000000
       18095000	      1808	80003104	01081033	sll	x0,x16,x16	 x16:0x135afdaa x16:0x135afdaa
       18105000	      1809	80003108	41c3d713	srai	x14,x7,0x1c	  x7:0xf7dfe22b x14=0xffffffff
       18115000	      1810	8000310c	01fb1213	slli	x4,x22,0x1f	 x22:0x00000000  x4=0x00000000
       18125000	      1811	80003110	90961d17	auipc	x26,0x90961	 x26=0x1096410c
       18135000	      1812	80003114	a9b47717	auipc	x14,0xa9b47	 x14=0x29b4a110
       18145000	      1813	80003118	01e87733	and	x14,x16,x30	 x16:0x135afdaa x30:0x00000000 x14=0x00000000
       18155000	      1814	8000311c	00d50f33	add	x30,x10,x13	 x10:0x00000000 x13:0x00000000 x30=0x00000000
       18165000	      1815	80003120	baa2eb13	ori	x22,x5,-1110	  x5:0x00000001 x22=0xfffffbab
       18175000	      1816	80003124	39f22d13	slti	x26,x4,927	  x4:0x00000000 x26=0x00000001
       18185000	      1817	80003128	04c60263	beq	x12,x12,8000316c	 x12:0x00000001 x12:0x00000001
       18195000	      1818	00000000	00000013	addi	x0,x0,0	  x0:0x00000000
       18205000	      1819	80003168	00000013	addi	x0,x0,0	  x0:0x00000000
       18215000	      1820	8000316c	4122d293	srai	x5,x5,0x12	  x5:0x00000001  x5=0x00000000
       18225000	      1821	80003170	021d8e63	beq	x27,x1,800031ac	 x27:0x00000000  x1:0xc7d9a000
       18235000	      1822	80003174	03361e63	bne	x12,x19,800031b0	 x12:0x00000001 x19:0x00000000
       18245000	      1823	00000000	00000013	addi	x0,x0,0	  x0:0x00000000
       18255000	      1824	800031ac	00000013	addi	x0,x0,0	  x0:0x00000000
       18265000	      1825	800031b0	01cdbdb3	sltu	x27,x27,x28	 x27:0x00000000 x28:0x80009f64 x27=0x00000001
       18275000	      1826	800031b4	0de63893	sltiu	x17,x12,222	 x12:0x00000001 x17=0x00000001
       18285000	      1827	800031b8	18ebc893	xori	x17,x23,398	 x23:0x00000000 x17=0x0000018e
       18295000	      1828	800031bc	41e0d9b3	sra	x19,x1,x30	  x1:0xc7d9a000 x30:0x00000000 x19=0xc7d9a000
       18305000	      1829	800031c0	e29dc493	xori	x9,x27,-471	 x27:0x00000001  x9=0xfffffe28
       18315000	      1830	800031c4	009f6cb3	or	x25,x30,x9	 x30:0x00000000  x9:0xfffffe28 x25=0xfffffe28
       18325000	      1831	800031c8	00ca23b3	slt	x7,x20,x12	 x20:0x00000001 x12:0x00000001  x7=0x00000000
       18335000	      1832	800031cc	019df533	and	x10,x27,x25	 x27:0x00000001 x25:0xfffffe28 x10=0x00000000
       18345000	      1833	800031d0	d2e0a217	auipc	x4,0xd2e0a	  x4=0x52e0d1cc
       18355000	      1834	800031d4	02518063	beq	x3,x5,800031f4	  x3:0x00000001  x5:0x00000000
       18365000	      1835	800031d8	01951463	bne	x10,x25,800031e0	 x10:0x00000000 x25:0xfffffe28
       18375000	      1836	00000000	00000013	addi	x0,x0,0	  x0:0x00000000
       18385000	      1837	800031dc	00000013	addi	x0,x0,0	  x0:0x00000000
       18395000	      1838	800031e0	05e45463	bge	x8,x30,80003228	  x8:0x7fff607c x30:0x00000000
       18405000	      1839	00000000	00000013	addi	x0,x0,0	  x0:0x00000000
       18415000	      1840	80003224	00000013	addi	x0,x0,0	  x0:0x00000000
       18425000	      1841	80003228	007020b3	slt	x1,x0,x7	  x0:0x00000000  x7:0x00000000  x1=0x00000000
       18435000	      1842	8000322c	00c7de63	bge	x15,x12,80003248	 x15:0x7396e22b x12:0x00000001
       18445000	      1843	00000000	00000013	addi	x0,x0,0	  x0:0x00000000
       18455000	      1844	80003244	00000013	addi	x0,x0,0	  x0:0x00000000
       18465000	      1845	80003248	01576633	or	x12,x14,x21	 x14:0x00000000 x21:0x00000000 x12=0x00000000
       18475000	      1846	8000324c	001b06b3	add	x13,x22,x1	 x22:0xfffffbab  x1:0x00000000 x13=0xfffffbab
       18485000	      1847	80003250	56930793	addi	x15,x6,1385	  x6:0x135a6028 x15=0x135a6591
       18495000	      1848	80003254	41195513	srai	x10,x18,0x11	 x18:0x00000000 x10=0x00000000
       18505000	      1849	80003258	b145e393	ori	x7,x11,-1260	 x11:0x7396e22a  x7=0xfffffb3e
       18515000	      1850	8000325c	05d2ba13	sltiu	x20,x5,93	  x5:0x00000000 x20=0x00000001
       18525000	      1851	80003260	01f14933	xor	x18,x2,x31	  x2:0x80009fc4 x31:0xc0004ff3 x18=0x4000d037
       18535000	      1852	80003264	d5386d13	ori	x26,x16,-685	 x16:0x135afdaa x26=0xfffffdfb
       18545000	      1853	80003268	0bd02293	slti	x5,x0,189	  x0:0x00000000  x5=0x00000001
       18555000	      1854	8000326c	015522b3	slt	x5,x10,x21	 x10:0x00000000 x21:0x00000000  x5=0x00000000
       18565000	      1855	80003270	41005333	sra	x6,x0,x16	  x0:0x00000000 x16:0x135afdaa  x6=0x00000000
       18575000	      1856	80003274	01fb5213	srli	x4,x22,0x1f	 x22:0xfffffbab  x4=0x00000001
       18585000	      1857	80003278	00f819b3	sll	x19,x16,x15	 x16:0x135afdaa x15:0x135a6591 x19=0xfb540000
       18595000	      1858	8000327c	0084e033	or	x0,x9,x8	  x9:0xfffffe28  x8:0x7fff607c
       18605000	      1859	80003280	afb52213	slti	x4,x10,-1285	 x10:0x00000000  x4=0x00000000
       18615000	      1860	80003284	40065b13	srai	x22,x12,0x0	 x12:0x00000000 x22=0x00000000
       18625000	      1861	80003288	404e5613	srai	x12,x28,0x4	 x28:0x80009f64 x12=0xf80009f6
       18635000	      1862	8000328c	97199497	auipc	x9,0x97199	  x9=0x1719c288
       18645000	      1863	80003290	00000013	addi	x0,x0,0	  x0:0x00000000
       18655000	      1864	80003294	0380ee63	bltu	x1,x24,800032d0	  x1:0x00000000 x24:0x00000024
       18665000	      1865	00000000	00000013	addi	x0,x0,0	  x0:0x00000000
       18675000	      1866	800032cc	00000013	addi	x0,x0,0	  x0:0x00000000
       18685000	      1867	800032d0	418080b3	sub	x1,x1,x24	  x1:0x00000000 x24:0x00000024  x1=0xffffffdc
       18695000	      1868	800032d4	4191db13	srai	x22,x3,0x19	  x3:0x00000001 x22=0x00000000
       18705000	      1869	800032d8	84f88693	addi	x13,x17,-1969	 x17:0x0000018e x13=0xfffff9dd
       18715000	      1870	800032dc	00584933	xor	x18,x16,x5	 x16:0x135afdaa  x5:0x00000000 x18=0x135afdaa
       18725000	      1871	800032e0	41e75793	srai	x15,x14,0x1e	 x14:0x00000000 x15=0x00000000
       18735000	      1872	800032e4	00191a93	slli	x21,x18,0x1	 x18:0x135afdaa x21=0x26b5fb54
       18745000	      1873	800032e8	010c8733	add	x14,x25,x16	 x25:0xfffffe28 x16:0x135afdaa x14=0x135afbd2
       18755000	      1874	800032ec	001607b3	add	x15,x12,x1	 x12:0xf80009f6  x1:0xffffffdc x15=0xf80009d2
       18765000	      1875	800032f0	0055c263	blt	x11,x5,800032f4	 x11:0x7396e22a  x5:0x00000000
       18775000	      1876	800032f4	19cef037	lui	x0,0x19cef	
       18785000	      1877	800032f8	f1fc8e93	addi	x29,x25,-225	 x25:0xfffffe28 x29=0xfffffd47
       18795000	      1878	800032fc	03910263	beq	x2,x25,80003320	  x2:0x80009fc4 x25:0xfffffe28
       18805000	      1879	80003300	05227663	bgeu	x4,x18,8000334c	  x4:0x00000000 x18:0x135afdaa
       18815000	      1880	80003304	01aa92b3	sll	x5,x21,x26	 x21:0x26b5fb54 x26:0xfffffdfb  x5=0xa0000000
       18825000	      1881	80003308	01fce5b3	or	x11,x25,x31	 x25:0xfffffe28 x31:0xc0004ff3 x11=0xfffffffb
       18835000	      1882	8000330c	ec0f7f13	andi	x30,x30,-320	 x30:0x00000000 x30=0x00000000
       18845000	      1883	80003310	00ab1493	slli	x9,x22,0xa	 x22:0x00000000  x9=0x00000000
       18855000	      1884	80003314	805b3c13	sltiu	x24,x22,-2043	 x22:0x00000000 x24=0x00000001
       18865000	      1885	80003318	00df5713	srli	x14,x30,0xd	 x30:0x00000000 x14=0x00000000
       18875000	      1886	8000331c	01e50e63	beq	x10,x30,80003338	 x10:0x00000000 x30:0x00000000
       18885000	      1887	00000000	00000013	addi	x0,x0,0	  x0:0x00000000
       18895000	      1888	80003334	00000013	addi	x0,x0,0	  x0:0x00000000
       18905000	      1889	80003338	921f6413	ori	x8,x30,-1759	 x30:0x00000000  x8=0xfffff921
       18915000	      1890	8000333c	004080b3	add	x1,x1,x4	  x1:0xffffffdc  x4:0x00000000  x1=0xffffffdc
       18925000	      1891	80003340	cf81a913	slti	x18,x3,-776	  x3:0x00000001 x18=0x00000000
       18935000	      1892	80003344	0a3e6863	bltu	x28,x3,800033f4	 x28:0x80009f64  x3:0x00000001
       18945000	      1893	80003348	416cd1b3	sra	x3,x25,x22	 x25:0xfffffe28 x22:0x00000000  x3=0xfffffe28
       18955000	      1894	8000334c	00000013	addi	x0,x0,0	  x0:0x00000000
       18965000	      1895	80003350	0161df33	srl	x30,x3,x22	  x3:0xfffffe28 x22:0x00000000 x30=0xfffffe28
       18975000	      1896	80003354	40c857b3	sra	x15,x16,x12	 x16:0x135afdaa x12:0xf80009f6 x15=0x0000004d
       18985000	      1897	80003358	01f145b3	xor	x11,x2,x31	  x2:0x80009fc4 x31:0xc0004ff3 x11=0x4000d037
       18995000	      1898	8000335c	01c000ef	jal	x1,8000335c	  x1=0x8000335c
       19005000	      1899	00000000	00000013	addi	x0,x0,0	  x0:0x00000000
       19015000	      1900	80003374	00000013	addi	x0,x0,0	  x0:0x00000000
       19025000	      1901	80003378	038000ef	jal	x1,80003378	  x1=0x80003378
       19035000	      1902	00000000	00000013	addi	x0,x0,0	  x0:0x00000000
       19045000	      1903	800033ac	00000013	addi	x0,x0,0	  x0:0x00000000
       19055000	      1904	800033b0	ffdff0ef	jal	x1,800033b0	  x1=0x800033b0
       19065000	      1905	00000000	00000013	addi	x0,x0,0	  x0:0x00000000
       19075000	      1906	800033a8	00000013	addi	x0,x0,0	  x0:0x00000000
       19085000	      1907	800033ac	018000ef	jal	x1,800033ac	  x1=0x800033ac
       19095000	      1908	00000000	00000013	addi	x0,x0,0	  x0:0x00000000
       19105000	      1909	800033c0	00000013	addi	x0,x0,0	  x0:0x00000000
       19115000	      1910	800033c4	fb1ff36f	jal	x6,800033c4	  x6=0x800033c4
       19125000	      1911	00000000	00000013	addi	x0,x0,0	  x0:0x00000000
       19135000	      1912	80003370	00000013	addi	x0,x0,0	  x0:0x00000000
       19145000	      1913	80003374	ff1ffa6f	jal	x20,80003374	 x20=0x80003374
       19155000	      1914	00000000	00000013	addi	x0,x0,0	  x0:0x00000000
       19165000	      1915	80003360	00000013	addi	x0,x0,0	  x0:0x00000000
       19175000	      1916	80003364	040000ef	jal	x1,80003364	  x1=0x80003364
       19185000	      1917	00000000	00000013	addi	x0,x0,0	  x0:0x00000000
       19195000	      1918	800033a0	00000013	addi	x0,x0,0	  x0:0x00000000
       19205000	      1919	800033a4	01c00b6f	jal	x22,800033a4	 x22=0x800033a4
       19215000	      1920	00000000	00000013	addi	x0,x0,0	  x0:0x00000000
       19225000	      1921	800033bc	00000013	addi	x0,x0,0	  x0:0x00000000
       19235000	      1922	800033c0	fcdff0ef	jal	x1,800033c0	  x1=0x800033c0
       19245000	      1923	00000000	00000013	addi	x0,x0,0	  x0:0x00000000
       19255000	      1924	80003388	00000013	addi	x0,x0,0	  x0:0x00000000
       19265000	      1925	8000338c	02c0036f	jal	x6,8000338c	  x6=0x8000338c
       19275000	      1926	00000000	00000013	addi	x0,x0,0	  x0:0x00000000
       19285000	      1927	800033b4	00000013	addi	x0,x0,0	  x0:0x00000000
       19295000	      1928	800033b8	fcdff0ef	jal	x1,800033b8	  x1=0x800033b8
       19305000	      1929	00000000	00000013	addi	x0,x0,0	  x0:0x00000000
       19315000	      1930	80003380	00000013	addi	x0,x0,0	  x0:0x00000000
       19325000	      1931	80003384	fddffdef	jal	x27,80003384	 x27=0x80003384
       19335000	      1932	00000000	00000013	addi	x0,x0,0	  x0:0x00000000
       19345000	      1933	8000335c	00000013	addi	x0,x0,0	  x0:0x00000000
       19355000	      1934	80003360	054000ef	jal	x1,80003360	  x1=0x80003360
       19365000	      1935	00000000	00000013	addi	x0,x0,0	  x0:0x00000000
       19375000	      1936	800033b0	00000013	addi	x0,x0,0	  x0:0x00000000
       19385000	      1937	800033b4	fe5ff0ef	jal	x1,800033b4	  x1=0x800033b4
       19395000	      1938	00000000	00000013	addi	x0,x0,0	  x0:0x00000000
       19405000	      1939	80003394	00000013	addi	x0,x0,0	  x0:0x00000000
       19415000	      1940	80003398	004008ef	jal	x17,80003398	 x17=0x80003398
       19425000	      1941	00000000	00000013	addi	x0,x0,0	  x0:0x00000000
       19435000	      1942	80003398	00000013	addi	x0,x0,0	  x0:0x00000000
       19445000	      1943	8000339c	ff9ff0ef	jal	x1,8000339c	  x1=0x8000339c
       19455000	      1944	00000000	00000013	addi	x0,x0,0	  x0:0x00000000
       19465000	      1945	80003390	00000013	addi	x0,x0,0	  x0:0x00000000
       19475000	      1946	80003394	fddff36f	jal	x6,80003394	  x6=0x80003394
       19485000	      1947	00000000	00000013	addi	x0,x0,0	  x0:0x00000000
       19495000	      1948	8000336c	00000013	addi	x0,x0,0	  x0:0x00000000
       19505000	      1949	80003370	018000ef	jal	x1,80003370	  x1=0x80003370
       19515000	      1950	00000000	00000013	addi	x0,x0,0	  x0:0x00000000
       19525000	      1951	80003384	00000013	addi	x0,x0,0	  x0:0x00000000
       19535000	      1952	80003388	00800a6f	jal	x20,80003388	 x20=0x80003388
       19545000	      1953	00000000	00000013	addi	x0,x0,0	  x0:0x00000000
       19555000	      1954	8000338c	00000013	addi	x0,x0,0	  x0:0x00000000
       19565000	      1955	80003390	fddff36f	jal	x6,80003390	  x6=0x80003390
       19575000	      1956	00000000	00000013	addi	x0,x0,0	  x0:0x00000000
       19585000	      1957	80003368	00000013	addi	x0,x0,0	  x0:0x00000000
       19595000	      1958	8000336c	050000ef	jal	x1,8000336c	  x1=0x8000336c
       19605000	      1959	00000000	00000013	addi	x0,x0,0	  x0:0x00000000
       19615000	      1960	800033b8	00000013	addi	x0,x0,0	  x0:0x00000000
       19625000	      1961	800033bc	fedff0ef	jal	x1,800033bc	  x1=0x800033bc
       19635000	      1962	00000000	00000013	addi	x0,x0,0	  x0:0x00000000
       19645000	      1963	800033a4	00000013	addi	x0,x0,0	  x0:0x00000000
       19655000	      1964	800033a8	fd5ff0ef	jal	x1,800033a8	  x1=0x800033a8
       19665000	      1965	00000000	00000013	addi	x0,x0,0	  x0:0x00000000
       19675000	      1966	80003378	00000013	addi	x0,x0,0	  x0:0x00000000
       19685000	      1967	8000337c	004000ef	jal	x1,8000337c	  x1=0x8000337c
       19695000	      1968	00000000	00000013	addi	x0,x0,0	  x0:0x00000000
       19705000	      1969	8000337c	00000013	addi	x0,x0,0	  x0:0x00000000
       19715000	      1970	80003380	fe9ff0ef	jal	x1,80003380	  x1=0x80003380
       19725000	      1971	00000000	00000013	addi	x0,x0,0	  x0:0x00000000
       19735000	      1972	80003364	00000013	addi	x0,x0,0	  x0:0x00000000
       19745000	      1973	80003368	0380026f	jal	x4,80003368	  x4=0x80003368
       19755000	      1974	00000000	00000013	addi	x0,x0,0	  x0:0x00000000
       19765000	      1975	8000339c	00000013	addi	x0,x0,0	  x0:0x00000000
       19775000	      1976	800033a0	028000ef	jal	x1,800033a0	  x1=0x800033a0
       19785000	      1977	00000000	00000013	addi	x0,x0,0	  x0:0x00000000
       19795000	      1978	800033c4	00000013	addi	x0,x0,0	  x0:0x00000000
       19805000	      1979	800033c8	00bfa0b3	slt	x1,x31,x11	 x31:0xc0004ff3 x11:0x4000d037  x1=0x00000001
       19815000	      1980	800033cc	0099a933	slt	x18,x19,x9	 x19:0xfb540000  x9:0x00000000 x18=0x00000001
       19825000	      1981	800033d0	0132dc93	srli	x25,x5,0x13	  x5:0xa0000000 x25=0x00001400
       19835000	      1982	800033d4	40d251b3	sra	x3,x4,x13	  x4:0x80003368 x13:0xfffff9dd  x3=0xfffffffc
       19845000	      1983	800033d8	274c2593	slti	x11,x24,628	 x24:0x00000001 x11=0x00000001
       19855000	      1984	800033dc	98060793	addi	x15,x12,-1664	 x12:0xf80009f6 x15=0xf8000376
       19865000	      1985	800033e0	026af263	bgeu	x21,x6,80003404	 x21:0x26b5fb54  x6:0x80003390
       19875000	      1986	800033e4	00000013	addi	x0,x0,0	  x0:0x00000000
       19885000	      1987	800033e8	021fe037	lui	x0,0x21fe	
       19895000	      1988	800033ec	403a86b3	sub	x13,x21,x3	 x21:0x26b5fb54  x3:0xfffffffc x13=0x26b5fb58
       19905000	      1989	800033f0	00266a63	bltu	x12,x2,80003404	 x12:0xf80009f6  x2:0x80009fc4
       19915000	      1990	800033f4	017b5e63	bge	x22,x23,80003410	 x22:0x800033a4 x23:0x00000000
       19925000	      1991	800033f8	01505033	srl	x0,x0,x21	  x0:0x00000000 x21:0x26b5fb54
       19935000	      1992	800033fc	03d18e63	beq	x3,x29,80003438	  x3:0xfffffffc x29:0xfffffd47
       19945000	      1993	80003400	01adfa33	and	x20,x27,x26	 x27:0x80003384 x26:0xfffffdfb x20=0x80003180
       19955000	      1994	80003404	def0f237	lui	x4,0xdef0f	  x4=0xdef0f000
       19965000	      1995	80003408	01e24fb3	xor	x31,x4,x30	  x4:0xdef0f000 x30:0xfffffe28 x31=0x210f0e28
       19975000	      1996	8000340c	01395e63	bge	x18,x19,80003428	 x18:0x00000001 x19:0xfb540000
       19985000	      1997	00000000	00000013	addi	x0,x0,0	  x0:0x00000000
       19995000	      1998	80003424	00000013	addi	x0,x0,0	  x0:0x00000000
       20005000	      1999	80003428	3cab3a13	sltiu	x20,x22,970	 x22:0x800033a4 x20=0x00000000
       20015000	      2000	8000342c	01ac29b3	slt	x19,x24,x26	 x24:0x00000001 x26:0xfffffdfb x19=0x00000000
       20025000	      2001	80003430	40e782b3	sub	x5,x15,x14	 x15:0xf8000376 x14:0x00000000  x5=0xf8000376
       20035000	      2002	80003434	2f834e93	xori	x29,x6,760	  x6:0x80003390 x29=0x80003168
       20045000	      2003	80003438	01d7da63	bge	x15,x29,8000344c	 x15:0xf8000376 x29:0x80003168
       20055000	      2004	00000000	00000013	addi	x0,x0,0	  x0:0x00000000
       20065000	      2005	80003448	00000013	addi	x0,x0,0	  x0:0x00000000
       20075000	      2006	8000344c	b4fa3c93	sltiu	x25,x20,-1201	 x20:0x00000000 x25=0x00000001
       20085000	      2007	80003450	0127ca33	xor	x20,x15,x18	 x15:0xf8000376 x18:0x00000001 x20=0xf8000377
       20095000	      2008	80003454	00000013	addi	x0,x0,0	  x0:0x00000000
       20105000	      2009	80003458	04b9ca13	xori	x20,x19,75	 x19:0x00000000 x20=0x0000004b
       20115000	      2010	8000345c	0139c433	xor	x8,x19,x19	 x19:0x00000000 x19:0x00000000  x8=0x00000000
       20125000	      2011	80003460	0375aa13	slti	x20,x11,55	 x11:0x00000001 x20=0x00000001
       20135000	      2012	80003464	8028b393	sltiu	x7,x17,-2046	 x17:0x80003398  x7=0x00000001
       20145000	      2013	80003468	007124b3	slt	x9,x2,x7	  x2:0x80009fc4  x7:0x00000001  x9=0x00000001
       20155000	      2014	8000346c	0003df33	srl	x30,x7,x0	  x7:0x00000001  x0:0x00000000 x30=0x00000001
       20165000	      2015	80003470	eb8f3b13	sltiu	x22,x30,-328	 x30:0x00000001 x22=0x00000001
       20175000	      2016	80003474	00056c33	or	x24,x10,x0	 x10:0x00000000  x0:0x00000000 x24=0x00000000
       20185000	      2017	80003478	41f38d33	sub	x26,x7,x31	  x7:0x00000001 x31:0x210f0e28 x26=0xdef0f1d9
       20195000	      2018	8000347c	00b95f93	srli	x31,x18,0xb	 x18:0x00000001 x31=0x00000000
       20205000	      2019	80003480	f379e893	ori	x17,x19,-201	 x19:0x00000000 x17=0xffffff37
       20215000	      2020	80003484	034ce063	bltu	x25,x20,800034a4	 x25:0x00000001 x20:0x00000001
       20225000	      2021	80003488	017bd0b3	srl	x1,x23,x23	 x23:0x00000000 x23:0x00000000  x1=0x00000000
       20235000	      2022	8000348c	8bedac13	slti	x24,x27,-1858	 x27:0x80003384 x24=0x00000001
       20245000	      2023	80003490	026c8a63	beq	x25,x6,800034c4	 x25:0x00000001  x6:0x80003390
       20255000	      2024	80003494	0159f533	and	x10,x19,x21	 x19:0x00000000 x21:0x26b5fb54 x10=0x00000000
       20265000	      2025	80003498	05ede263	bltu	x27,x30,800034dc	 x27:0x80003384 x30:0x00000001
       20275000	      2026	8000349c	00bba6b3	slt	x13,x23,x11	 x23:0x00000000 x11:0x00000001 x13=0x00000001
       20285000	      2027	800034a0	019021b3	slt	x3,x0,x25	  x0:0x00000000 x25:0x00000001  x3=0x00000001
       20295000	      2028	800034a4	0183b733	sltu	x14,x7,x24	  x7:0x00000001 x24:0x00000001 x14=0x00000000
       20305000	      2029	800034a8	00791513	slli	x10,x18,0x7	 x18:0x00000001 x10=0x00000080
       20315000	      2030	800034ac	00a77433	and	x8,x14,x10	 x14:0x00000000 x10:0x00000080  x8=0x00000000
       20325000	      2031	800034b0	012e7bb3	and	x23,x28,x18	 x28:0x80009f64 x18:0x00000001 x23=0x00000000
       20335000	      2032	800034b4	0126ee63	bltu	x13,x18,800034d0	 x13:0x00000001 x18:0x00000001
       20345000	      2033	800034b8	11644c93	xori	x25,x8,278	  x8:0x00000000 x25=0x00000116
       20355000	      2034	800034bc	025d1e63	bne	x26,x5,800034f8	 x26:0xdef0f1d9  x5:0xf8000376
       20365000	      2035	00000000	00000013	addi	x0,x0,0	  x0:0x00000000
       20375000	      2036	800034f4	00000013	addi	x0,x0,0	  x0:0x00000000
       20385000	      2037	800034f8	018b68b3	or	x17,x22,x24	 x22:0x00000001 x24:0x00000001 x17=0x00000001
       20395000	      2038	800034fc	4189d713	srai	x14,x19,0x18	 x19:0x00000000 x14=0x00000000
       20405000	      2039	80003500	40345933	sra	x18,x8,x3	  x8:0x00000000  x3:0x00000001 x18=0x00000000
       20415000	      2040	80003504	002fd533	srl	x10,x31,x2	 x31:0x00000000  x2:0x80009fc4 x10=0x00000000
       20425000	      2041	80003508	01835a93	srli	x21,x6,0x18	  x6:0x80003390 x21=0x00000080
       20435000	      2042	8000350c	00257533	and	x10,x10,x2	 x10:0x00000000  x2:0x80009fc4 x10=0x00000000
       20445000	      2043	80003510	0179fbb3	and	x23,x19,x23	 x19:0x00000000 x23:0x00000000 x23=0x00000000
       20455000	      2044	80003514	0f399997	auipc	x19,0xf399	 x19=0x8f39c510
       20465000	      2045	80003518	01306463	bltu	x0,x19,80003520	  x0:0x00000000 x19:0x8f39c510
       20475000	      2046	00000000	00000013	addi	x0,x0,0	  x0:0x00000000
       20485000	      2047	8000351c	00000013	addi	x0,x0,0	  x0:0x00000000
       20495000	      2048	80003520	0086b1b3	sltu	x3,x13,x8	 x13:0x00000001  x8:0x00000000  x3=0x00000000
       20505000	      2049	80003524	01f649b3	xor	x19,x12,x31	 x12:0xf80009f6 x31:0x00000000 x19=0xf80009f6
       20515000	      2050	80003528	01378233	add	x4,x15,x19	 x15:0xf8000376 x19:0xf80009f6  x4=0xf0000d6c
       20525000	      2051	8000352c	00000013	addi	x0,x0,0	  x0:0x00000000
       20535000	      2052	80003530	03e2e063	bltu	x5,x30,80003550	  x5:0xf8000376 x30:0x00000001
       20545000	      2053	80003534	5ea73693	sltiu	x13,x14,1514	 x14:0x00000000 x13=0x00000001
       20555000	      2054	80003538	053a4863	blt	x20,x19,80003588	 x20:0x00000001 x19:0xf80009f6
       20565000	      2055	8000353c	00ba4e63	blt	x20,x11,80003558	 x20:0x00000001 x11:0x00000001
       20575000	      2056	80003540	05b45063	bge	x8,x27,80003580	  x8:0x00000000 x27:0x80003384
       20585000	      2057	00000000	00000013	addi	x0,x0,0	  x0:0x00000000
       20595000	      2058	8000357c	00000013	addi	x0,x0,0	  x0:0x00000000
       20605000	      2059	80003580	02c60263	beq	x12,x12,800035a4	 x12:0xf80009f6 x12:0xf80009f6
       20615000	      2060	00000000	00000013	addi	x0,x0,0	  x0:0x00000000
       20625000	      2061	800035a0	00000013	addi	x0,x0,0	  x0:0x00000000
       20635000	      2062	800035a4	40bbd693	srai	x13,x23,0xb	 x23:0x00000000 x13=0x00000000
       20645000	      2063	800035a8	00541593	slli	x11,x8,0x5	  x8:0x00000000 x11=0x00000000
       20655000	      2064	800035ac	410c57b3	sra	x15,x24,x16	 x24:0x00000001 x16:0x135afdaa x15=0x00000000
       20665000	      2065	800035b0	011fd193	srli	x3,x31,0x11	 x31:0x00000000  x3=0x00000000
       20675000	      2066	800035b4	40465f33	sra	x30,x12,x4	 x12:0xf80009f6  x4:0xf0000d6c x30=0xffff8000
       20685000	      2067	800035b8	fb528093	addi	x1,x5,-75	  x5:0xf8000376  x1=0xf800032b
       20695000	      2068	800035bc	3cd77c13	andi	x24,x14,973	 x14:0x00000000 x24=0x00000000
       20705000	      2069	800035c0	01f70cb3	add	x25,x14,x31	 x14:0x00000000 x31:0x00000000 x25=0x00000000
       20715000	      2070	800035c4	6d099617	auipc	x12,0x6d099	 x12=0xed09c5c0
       20725000	      2071	800035c8	7feec213	xori	x4,x29,2046	 x29:0x80003168  x4=0x80003696
       20735000	      2072	800035cc	00421e63	bne	x4,x4,800035e8	  x4:0x80003696  x4:0x80003696
       20745000	      2073	800035d0	41e6dfb3	sra	x31,x13,x30	 x13:0x00000000 x30:0xffff8000 x31=0x00000000
       20755000	      2074	800035d4	ca89e717	auipc	x14,0xca89e	 x14=0x4a8a15d0
       20765000	      2075	800035d8	f4922d93	slti	x27,x4,-183	  x4:0x80003696 x27=0x00000001
       20775000	      2076	800035dc	013c76b3	and	x13,x24,x19	 x24:0x00000000 x19:0xf80009f6 x13=0x00000000
       20785000	      2077	800035e0	d5406b13	ori	x22,x0,-684	  x0:0x00000000 x22=0xfffffd54
       20795000	      2078	800035e4	01feffb3	and	x31,x29,x31	 x29:0x80003168 x31:0x00000000 x31=0x00000000
       20805000	      2079	800035e8	d8528293	addi	x5,x5,-635	  x5:0xf8000376  x5=0xf80000fb
       20815000	      2080	800035ec	40d95533	sra	x10,x18,x13	 x18:0x00000000 x13:0x00000000 x10=0x00000000
       20825000	      2081	800035f0	0170c863	blt	x1,x23,80003600	  x1:0xf800032b x23:0x00000000
       20835000	      2082	00000000	00000013	addi	x0,x0,0	  x0:0x00000000
       20845000	      2083	800035fc	00000013	addi	x0,x0,0	  x0:0x00000000
       20855000	      2084	80003600	00b78a63	beq	x15,x11,80003614	 x15:0x00000000 x11:0x00000000
       20865000	      2085	00000000	00000013	addi	x0,x0,0	  x0:0x00000000
       20875000	      2086	80003610	00000013	addi	x0,x0,0	  x0:0x00000000
       20885000	      2087	80003614	d180ca13	xori	x20,x1,-744	  x1:0xf800032b x20=0x07fffe33
       20895000	      2088	80003618	017a8233	add	x4,x21,x23	 x21:0x00000080 x23:0x00000000  x4=0x00000080
       20905000	      2089	8000361c	24fb8513	addi	x10,x23,591	 x23:0x00000000 x10=0x0000024f
       20915000	      2090	80003620	020a0e63	beq	x20,x0,8000365c	 x20:0x07fffe33  x0:0x00000000
       20925000	      2091	80003624	9c4c4a13	xori	x20,x24,-1596	 x24:0x00000000 x20=0xfffff9c4
       20935000	      2092	80003628	5957c613	xori	x12,x15,1429	 x15:0x00000000 x12=0x00000595
       20945000	      2093	8000362c	014cca63	blt	x25,x20,80003640	 x25:0x00000000 x20:0xfffff9c4
       20955000	      2094	80003630	41910db3	sub	x27,x2,x25	  x2:0x80009fc4 x25:0x00000000 x27=0x80009fc4
       20965000	      2095	80003634	0556f463	bgeu	x13,x21,8000367c	 x13:0x00000000 x21:0x00000080
       20975000	      2096	80003638	b214cd93	xori	x27,x9,-1247	  x9:0x00000001 x27=0xfffffb20
       20985000	      2097	8000363c	5db14a97	auipc	x21,0x5db14	 x21=0xddb17638
       20995000	      2098	80003640	e9523e93	sltiu	x29,x4,-363	  x4:0x00000080 x29=0x00000001
       21005000	      2099	80003644	40a455b3	sra	x11,x8,x10	  x8:0x00000000 x10:0x0000024f x11=0x00000000
       21015000	      2100	80003648	00949263	bne	x9,x9,8000364c	  x9:0x00000001  x9:0x00000001
       21025000	      2101	8000364c	8509ef13	ori	x30,x19,-1968	 x19:0xf80009f6 x30=0xfffff9f6
       21035000	      2102	80003650	01f51a63	bne	x10,x31,80003664	 x10:0x0000024f x31:0x00000000
       21045000	      2103	00000000	00000013	addi	x0,x0,0	  x0:0x00000000
       21055000	      2104	80003660	00000013	addi	x0,x0,0	  x0:0x00000000
       21065000	      2105	80003664	885aba13	sltiu	x20,x21,-1915	 x21:0xddb17638 x20=0x00000001
       21075000	      2106	80003668	05c2b237	lui	x4,0x5c2b	  x4=0x05c2b000
       21085000	      2107	8000366c	02298e63	beq	x19,x2,800036a8	 x19:0xf80009f6  x2:0x80009fc4
       21095000	      2108	80003670	b537ea97	auipc	x21,0xb537e	 x21=0x3538166c
       21105000	      2109	80003674	f6edaa13	slti	x20,x27,-146	 x27:0xfffffb20 x20=0x00000001
       21115000	      2110	80003678	00000013	addi	x0,x0,0	  x0:0x00000000
       21125000	      2111	8000367c	7cc7b313	sltiu	x6,x15,1996	 x15:0x00000000  x6=0x00000001
       21135000	      2112	80003680	230acdb7	lui	x27,0x230ac	 x27=0x230ac000
       21145000	      2113	80003684	01ad1f13	slli	x30,x26,0x1a	 x26:0xdef0f1d9 x30=0x64000000
       21155000	      2114	80003688	00ba6fb3	or	x31,x20,x11	 x20:0x00000001 x11:0x00000000 x31=0x00000001
       21165000	      2115	8000368c	cfa68313	addi	x6,x13,-774	 x13:0x00000000  x6=0xfffffcfa
       21175000	      2116	80003690	016c6533	or	x10,x24,x22	 x24:0x00000000 x22:0xfffffd54 x10=0xfffffd54
       21185000	      2117	80003694	00572c33	slt	x24,x14,x5	 x14:0x4a8a15d0  x5:0xf80000fb x24=0x00000000
       21195000	      2118	80003698	e218c513	xori	x10,x17,-479	 x17:0x00000001 x10=0xfffffe20
       21205000	      2119	8000369c	01c87e63	bgeu	x16,x28,800036b8	 x16:0x135afdaa x28:0x80009f64
       21215000	      2120	800036a0	ead5fdb7	lui	x27,0xead5f	 x27=0xead5f000
       21225000	      2121	800036a4	002d4a63	blt	x26,x2,800036b8	 x26:0xdef0f1d9  x2:0x80009fc4
       21235000	      2122	800036a8	00000013	addi	x0,x0,0	  x0:0x00000000
       21245000	      2123	800036ac	d1c3b913	sltiu	x18,x7,-740	  x7:0x00000001 x18=0x00000001
       21255000	      2124	800036b0	89b0b693	sltiu	x13,x1,-1893	  x1:0xf800032b x13=0x00000001
       21265000	      2125	800036b4	00000013	addi	x0,x0,0	  x0:0x00000000
       21275000	      2126	800036b8	46f8c713	xori	x14,x17,1135	 x17:0x00000001 x14=0x0000046e
       21285000	      2127	800036bc	414b0d33	sub	x26,x22,x20	 x22:0xfffffd54 x20:0x00000001 x26=0xfffffd53
       21295000	      2128	800036c0	415dd2b3	sra	x5,x27,x21	 x27:0xead5f000 x21:0x3538166c  x5=0xfffead5f
       21305000	      2129	800036c4	6d48ec93	ori	x25,x17,1748	 x17:0x00000001 x25=0x000006d5
       21315000	      2130	800036c8	ce490593	addi	x11,x18,-796	 x18:0x00000001 x11=0xfffffce5
       21325000	      2131	800036cc	02775063	bge	x14,x7,800036ec	 x14:0x0000046e  x7:0x00000001
       21335000	      2132	00000000	00000013	addi	x0,x0,0	  x0:0x00000000
       21345000	      2133	800036e8	00000013	addi	x0,x0,0	  x0:0x00000000
       21355000	      2134	800036ec	02e6e063	bltu	x13,x14,8000370c	 x13:0x00000001 x14:0x0000046e
       21365000	      2135	00000000	00000013	addi	x0,x0,0	  x0:0x00000000
       21375000	      2136	80003708	00000013	addi	x0,x0,0	  x0:0x00000000
       21385000	      2137	8000370c	01910cb3	add	x25,x2,x25	  x2:0x80009fc4 x25:0x000006d5 x25=0x8000a699
       21395000	      2138	80003710	6858c993	xori	x19,x17,1669	 x17:0x00000001 x19=0x00000684
       21405000	      2139	80003714	05acc863	blt	x25,x26,80003764	 x25:0x8000a699 x26:0xfffffd53
       21415000	      2140	00000000	00000013	addi	x0,x0,0	  x0:0x00000000
       21425000	      2141	80003760	00000013	addi	x0,x0,0	  x0:0x00000000
       21435000	      2142	80003764	2e9c7593	andi	x11,x24,745	 x24:0x00000000 x11=0x00000000
       21445000	      2143	80003768	01208c63	beq	x1,x18,80003780	  x1:0xf800032b x18:0x00000001
       21455000	      2144	8000376c	10d0ef13	ori	x30,x1,269	  x1:0xf800032b x30=0xf800032f
       21465000	      2145	80003770	5188c513	xori	x10,x17,1304	 x17:0x00000001 x10=0x00000519
       21475000	      2146	80003774	012520b3	slt	x1,x10,x18	 x10:0x00000519 x18:0x00000001  x1=0x00000000
       21485000	      2147	80003778	00feb6b3	sltu	x13,x29,x15	 x29:0x00000001 x15:0x00000000 x13=0x00000000
       21495000	      2148	8000377c	c10934b7	lui	x9,0xc1093	  x9=0xc1093000
       21505000	      2149	80003780	08b81463	bne	x16,x11,80003808	 x16:0x135afdaa x11:0x00000000
       21515000	      2150	00000000	00000013	addi	x0,x0,0	  x0:0x00000000
       21525000	      2151	80003804	00000013	addi	x0,x0,0	  x0:0x00000000
       21535000	      2152	80003808	00bf0b33	add	x22,x30,x11	 x30:0xf800032f x11:0x00000000 x22=0xf800032f
       21545000	      2153	8000380c	03786c63	bltu	x16,x23,80003844	 x16:0x135afdaa x23:0x00000000
       21555000	      2154	80003810	00000013	addi	x0,x0,0	  x0:0x00000000
       21565000	      2155	80003814	40d88913	addi	x18,x17,1037	 x17:0x00000001 x18=0x0000040e
       21575000	      2156	80003818	00921c93	slli	x25,x4,0x9	  x4:0x05c2b000 x25=0x85600000
       21585000	      2157	8000381c	01c20eb3	add	x29,x4,x28	  x4:0x05c2b000 x28:0x80009f64 x29=0x85c34f64
       21595000	      2158	80003820	40480cb3	sub	x25,x16,x4	 x16:0x135afdaa  x4:0x05c2b000 x25=0x0d984daa
       21605000	      2159	80003824	f751cc93	xori	x25,x3,-139	  x3:0x00000000 x25=0xffffff75
       21615000	      2160	80003828	ebcd0993	addi	x19,x26,-324	 x26:0xfffffd53 x19=0xfffffc0f
       21625000	      2161	8000382c	00999613	slli	x12,x19,0x9	 x19:0xfffffc0f x12=0xfff81e00
       21635000	      2162	80003830	b5b23513	sltiu	x10,x4,-1189	  x4:0x05c2b000 x10=0x00000001
       21645000	      2163	80003834	aeab2393	slti	x7,x22,-1302	 x22:0xf800032f  x7=0x00000001
       21655000	      2164	80003838	05695663	bge	x18,x22,80003884	 x18:0x0000040e x22:0xf800032f
       21665000	      2165	00000000	00000013	addi	x0,x0,0	  x0:0x00000000
       21675000	      2166	80003880	00000013	addi	x0,x0,0	  x0:0x00000000
       21685000	      2167	80003884	04c76063	bltu	x14,x12,800038c4	 x14:0x0000046e x12:0xfff81e00
       21695000	      2168	00000000	00000013	addi	x0,x0,0	  x0:0x00000000
       21705000	      2169	800038c0	00000013	addi	x0,x0,0	  x0:0x00000000
       21715000	      2170	800038c4	01101cb3	sll	x25,x0,x17	  x0:0x00000000 x17:0x00000001 x25=0x00000000
       21725000	      2171	800038c8	00a77e63	bgeu	x14,x10,800038e4	 x14:0x0000046e x10:0x00000001
       21735000	      2172	00000000	00000013	addi	x0,x0,0	  x0:0x00000000
       21745000	      2173	800038e0	00000013	addi	x0,x0,0	  x0:0x00000000
       21755000	      2174	800038e4	0a996393	ori	x7,x18,169	 x18:0x0000040e  x7=0x000004af
       21765000	      2175	800038e8	01fa7f33	and	x30,x20,x31	 x20:0x00000001 x31:0x00000001 x30=0x00000001
       21775000	      2176	800038ec	40b4db13	srai	x22,x9,0xb	  x9:0xc1093000 x22=0xfff82126
       21785000	      2177	800038f0	03bc7a63	bgeu	x24,x27,80003924	 x24:0x00000000 x27:0xead5f000
       21795000	      2178	800038f4	00141433	sll	x8,x8,x1	  x8:0x00000000  x1:0x00000000  x8=0x00000000
       21805000	      2179	800038f8	37b36793	ori	x15,x6,891	  x6:0xfffffcfa x15=0xfffffffb
       21815000	      2180	800038fc	01129263	bne	x5,x17,80003900	  x5:0xfffead5f x17:0x00000001
       21825000	      2181	00000000	00000013	addi	x0,x0,0	  x0:0x00000000
       21835000	      2182	800038fc	00000013	addi	x0,x0,0	  x0:0x00000000
       21845000	      2183	80003900	00a16a63	bltu	x2,x10,80003914	  x2:0x80009fc4 x10:0x00000001
       21855000	      2184	80003904	001ae233	or	x4,x21,x1	 x21:0x3538166c  x1:0x00000000  x4=0x3538166c
       21865000	      2185	80003908	01a55c63	bge	x10,x26,80003920	 x10:0x00000001 x26:0xfffffd53
       21875000	      2186	00000000	00000013	addi	x0,x0,0	  x0:0x00000000
       21885000	      2187	8000391c	00000013	addi	x0,x0,0	  x0:0x00000000
       21895000	      2188	80003920	3192a413	slti	x8,x5,793	  x5:0xfffead5f  x8=0x00000001
       21905000	      2189	80003924	04174863	blt	x14,x1,80003974	 x14:0x0000046e  x1:0x00000000
       21915000	      2190	80003928	00ebcab3	xor	x21,x23,x14	 x23:0x00000000 x14:0x0000046e x21=0x0000046e
       21925000	      2191	8000392c	005033b3	sltu	x7,x0,x5	  x0:0x00000000  x5:0xfffead5f  x7=0x00000001
       21935000	      2192	80003930	4080d413	srai	x8,x1,0x8	  x1:0x00000000  x8=0x00000000
       21945000	      2193	80003934	40400f33	sub	x30,x0,x4	  x0:0x00000000  x4:0x3538166c x30=0xcac7e994
       21955000	      2194	80003938	02970263	beq	x14,x9,8000395c	 x14:0x0000046e  x9:0xc1093000
       21965000	      2195	8000393c	00869213	slli	x4,x13,0x8	 x13:0x00000000  x4=0x00000000
       21975000	      2196	80003940	00b08fb3	add	x31,x1,x11	  x1:0x00000000 x11:0x00000000 x31=0x00000000
       21985000	      2197	80003944	9adbe993	ori	x19,x23,-1619	 x23:0x00000000 x19=0xfffff9ad
       21995000	      2198	80003948	1a936b93	ori	x23,x6,425	  x6:0xfffffcfa x23=0xfffffdfb
       22005000	      2199	8000394c	4068d1b3	sra	x3,x17,x6	 x17:0x00000001  x6:0xfffffcfa  x3=0x00000000
       22015000	      2200	80003950	efe7ea17	auipc	x20,0xefe7e	 x20=0x6fe8194c
       22025000	      2201	80003954	00515e93	srli	x29,x2,0x5	  x2:0x80009fc4 x29=0x040004fe
       22035000	      2202	80003958	01d8ccb3	xor	x25,x17,x29	 x17:0x00000001 x29:0x040004fe x25=0x040004ff
       22045000	      2203	8000395c	40f05d93	srai	x27,x0,0xf	  x0:0x00000000 x27=0x00000000
       22055000	      2204	80003960	017bb633	sltu	x12,x23,x23	 x23:0xfffffdfb x23:0xfffffdfb x12=0x00000000
       22065000	      2205	80003964	dbeac193	xori	x3,x21,-578	 x21:0x0000046e  x3=0xfffff9d0
       22075000	      2206	80003968	013fee63	bltu	x31,x19,80003984	 x31:0x00000000 x19:0xfffff9ad
       22085000	      2207	00000000	00000013	addi	x0,x0,0	  x0:0x00000000
       22095000	      2208	80003980	00000013	addi	x0,x0,0	  x0:0x00000000
       22105000	      2209	80003984	023f6e63	bltu	x30,x3,800039c0	 x30:0xcac7e994  x3:0xfffff9d0
       22115000	      2210	00000000	00000013	addi	x0,x0,0	  x0:0x00000000
       22125000	      2211	800039bc	00000013	addi	x0,x0,0	  x0:0x00000000
       22135000	      2212	800039c0	00dc4663	blt	x24,x13,800039cc	 x24:0x00000000 x13:0x00000000
       22145000	      2213	800039c4	00e83db3	sltu	x27,x16,x14	 x16:0x135afdaa x14:0x0000046e x27=0x00000000
       22155000	      2214	800039c8	00b50263	beq	x10,x11,800039cc	 x10:0x00000001 x11:0x00000000
       22165000	      2215	800039cc	00641793	slli	x15,x8,0x6	  x8:0x00000000 x15=0x00000000
       22175000	      2216	800039d0	1af20a13	addi	x20,x4,431	  x4:0x00000000 x20=0x000001af
       22185000	      2217	800039d4	9846a493	slti	x9,x13,-1660	 x13:0x00000000  x9=0x00000000
       22195000	      2218	800039d8	003a7a33	and	x20,x20,x3	 x20:0x000001af  x3:0xfffff9d0 x20=0x00000180
       22205000	      2219	800039dc	004e2083	lw	x1,4(x28)	 x28:0x80009f64  x1=0x800005b4 PA:0x80009f68
       22215000	      2220	800039e0	632e0313	addi	x6,x28,1586	 x28:0x80009f64  x6=0x8000a596
       22225000	      2221	800039e4	04d22313	slti	x6,x4,77	  x4:0x00000000  x6=0x00000001
       22235000	      2222	800039e8	551a2d13	slti	x26,x20,1361	 x20:0x00000180 x26=0x00000001
       22245000	      2223	800039ec	020e0e13	addi	x28,x28,32	 x28:0x80009f64 x28=0x80009f84
       22255000	      2224	800039f0	a0e60a13	addi	x20,x12,-1522	 x12:0x00000000 x20=0xfffffa0e
       22265000	      2225	800039f4	00108293	addi	x5,x1,1	  x1:0x800005b4  x5=0x800005b5
       22275000	      2226	800039f8	000282e7	jalr	x5,x5,0	  x5:0x800005b5  x5=0x800039f8
       22285000	      2227	00000000	00000013	addi	x0,x0,0	  x0:0x00000000
       22295000	      2228	800005b4	00000013	addi	x0,x0,0	  x0:0x00000000
       22305000	      2229	800005b8	01fb30b3	sltu	x1,x22,x31	 x22:0xfff82126 x31:0x00000000  x1=0x00000000
       22315000	      2230	800005bc	a6c8c593	xori	x11,x17,-1428	 x17:0x00000001 x11=0xfffffa6d
       22325000	      2231	800005c0	01579533	sll	x10,x15,x21	 x15:0x00000000 x21:0x0000046e x10=0x00000000
       22335000	      2232	800005c4	01131233	sll	x4,x6,x17	  x6:0x00000001 x17:0x00000001  x4=0x00000002
       22345000	      2233	800005c8	00458733	add	x14,x11,x4	 x11:0xfffffa6d  x4:0x00000002 x14=0xfffffa6f
       22355000	      2234	800005cc	022e0863	beq	x28,x2,800005fc	 x28:0x80009f84  x2:0x80009fc4
       22365000	      2235	800005d0	81ccb093	sltiu	x1,x25,-2020	 x25:0x040004ff  x1=0x00000001
       22375000	      2236	800005d4	01dc8733	add	x14,x25,x29	 x25:0x040004ff x29:0x040004fe x14=0x080009fd
       22385000	      2237	800005d8	4017de93	srai	x29,x15,0x1	 x15:0x00000000 x29=0x00000000
       22395000	      2238	800005dc	40cb5c93	srai	x25,x22,0xc	 x22:0xfff82126 x25=0xffffff82
       22405000	      2239	800005e0	5a932f13	slti	x30,x6,1449	  x6:0x00000001 x30=0x00000001
       22415000	      2240	800005e4	007f7933	and	x18,x30,x7	 x30:0x00000001  x7:0x00000001 x18=0x00000001
       22425000	      2241	800005e8	00000013	addi	x0,x0,0	  x0:0x00000000
       22435000	      2242	800005ec	008d9d93	slli	x27,x27,0x8	 x27:0x00000000 x27=0x00000000
       22445000	      2243	800005f0	01969b13	slli	x22,x13,0x19	 x13:0x00000000 x22=0x00000000
       22455000	      2244	800005f4	eee7b613	sltiu	x12,x15,-274	 x15:0x00000000 x12=0x00000001
       22465000	      2245	800005f8	00000013	addi	x0,x0,0	  x0:0x00000000
       22475000	      2246	800005fc	05338063	beq	x7,x19,8000063c	  x7:0x00000001 x19:0xfffff9ad
       22485000	      2247	80000600	ae7ffb13	andi	x22,x31,-1305	 x31:0x00000000 x22=0x00000000
       22495000	      2248	80000604	00000013	addi	x0,x0,0	  x0:0x00000000
       22505000	      2249	80000608	01830863	beq	x6,x24,80000618	  x6:0x00000001 x24:0x00000000
       22515000	      2250	8000060c	00ec8863	beq	x25,x14,8000061c	 x25:0xffffff82 x14:0x080009fd
       22525000	      2251	80000610	00c9dd93	srli	x27,x19,0xc	 x19:0xfffff9ad x27=0x000fffff
       22535000	      2252	80000614	412887b3	sub	x15,x17,x18	 x17:0x00000001 x18:0x00000001 x15=0x00000000
       22545000	      2253	80000618	b93f4193	xori	x3,x30,-1133	 x30:0x00000001  x3=0xfffffb92
       22555000	      2254	8000061c	019f5733	srl	x14,x30,x25	 x30:0x00000001 x25:0xffffff82 x14=0x00000000
       22565000	      2255	80000620	00acd333	srl	x6,x25,x10	 x25:0xffffff82 x10:0x00000000  x6=0xffffff82
       22575000	      2256	80000624	41bb8eb3	sub	x29,x23,x27	 x23:0xfffffdfb x27:0x000fffff x29=0xffeffdfc
       22585000	      2257	80000628	00fa7433	and	x8,x20,x15	 x20:0xfffffa0e x15:0x00000000  x8=0x00000000
       22595000	      2258	8000062c	01ad06b3	add	x13,x26,x26	 x26:0x00000001 x26:0x00000001 x13=0x00000002
       22605000	      2259	80000630	40195713	srai	x14,x18,0x1	 x18:0x00000001 x14=0x00000000
       22615000	      2260	80000634	0da67063	bgeu	x12,x26,800006f4	 x12:0x00000001 x26:0x00000001
       22625000	      2261	00000000	00000013	addi	x0,x0,0	  x0:0x00000000
       22635000	      2262	800006f0	00000013	addi	x0,x0,0	  x0:0x00000000
       22645000	      2263	800006f4	40d95bb3	sra	x23,x18,x13	 x18:0x00000001 x13:0x00000002 x23=0x00000000
       22655000	      2264	800006f8	51f86713	ori	x14,x16,1311	 x16:0x135afdaa x14=0x135afdbf
       22665000	      2265	800006fc	ebf3ad93	slti	x27,x7,-321	  x7:0x00000001 x27=0x00000000
       22675000	      2266	80000700	00fdf533	and	x10,x27,x15	 x27:0x00000000 x15:0x00000000 x10=0x00000000
       22685000	      2267	80000704	2d6ca393	slti	x7,x25,726	 x25:0xffffff82  x7=0x00000001
       22695000	      2268	80000708	05cc5863	bge	x24,x28,80000758	 x24:0x00000000 x28:0x80009f84
       22705000	      2269	00000000	00000013	addi	x0,x0,0	  x0:0x00000000
       22715000	      2270	80000754	00000013	addi	x0,x0,0	  x0:0x00000000
       22725000	      2271	80000758	02adcc63	blt	x27,x10,80000790	 x27:0x00000000 x10:0x00000000
       22735000	      2272	8000075c	39a62297	auipc	x5,0x39a62	  x5=0xb9a62758
       22745000	      2273	80000760	0033c4b3	xor	x9,x7,x3	  x7:0x00000001  x3:0xfffffb92  x9=0xfffffb93
       22755000	      2274	80000764	0085c9b3	xor	x19,x11,x8	 x11:0xfffffa6d  x8:0x00000000 x19=0xfffffa6d
       22765000	      2275	80000768	e7514eb7	lui	x29,0xe7514	 x29=0xe7514000
       22775000	      2276	8000076c	336b7213	andi	x4,x22,822	 x22:0x00000000  x4=0x00000000
       22785000	      2277	80000770	00bb9693	slli	x13,x23,0xb	 x23:0x00000000 x13=0x00000000
       22795000	      2278	80000774	c4e78793	addi	x15,x15,-946	 x15:0x00000000 x15=0xfffffc4e
       22805000	      2279	80000778	ba362093	slti	x1,x12,-1117	 x12:0x00000001  x1=0x00000000
       22815000	      2280	8000077c	01d74863	blt	x14,x29,8000078c	 x14:0x135afdbf x29:0xe7514000
       22825000	      2281	80000780	01a467b3	or	x15,x8,x26	  x8:0x00000000 x26:0x00000001 x15=0x00000001
       22835000	      2282	80000784	40ed02b3	sub	x5,x26,x14	 x26:0x00000001 x14:0x135afdbf  x5=0xeca50242
       22845000	      2283	80000788	00b44263	blt	x8,x11,8000078c	  x8:0x00000000 x11:0xfffffa6d
       22855000	      2284	8000078c	024a7863	bgeu	x20,x4,800007bc	 x20:0xfffffa0e  x4:0x00000000
       22865000	      2285	00000000	00000013	addi	x0,x0,0	  x0:0x00000000
       22875000	      2286	800007b8	00000013	addi	x0,x0,0	  x0:0x00000000
       22885000	      2287	800007bc	025f6e63	bltu	x30,x5,800007f8	 x30:0x00000001  x5:0xeca50242
       22895000	      2288	00000000	00000013	addi	x0,x0,0	  x0:0x00000000
       22905000	      2289	800007f4	00000013	addi	x0,x0,0	  x0:0x00000000
       22915000	      2290	800007f8	00747c33	and	x24,x8,x7	  x8:0x00000000  x7:0x00000001 x24=0x00000000
       22925000	      2291	800007fc	971fe893	ori	x17,x31,-1679	 x31:0x00000000 x17=0xfffff971
       22935000	      2292	80000800	2e2acc13	xori	x24,x21,738	 x21:0x0000046e x24=0x0000068c
       22945000	      2293	80000804	039a8863	beq	x21,x25,80000834	 x21:0x0000046e x25:0xffffff82
       22955000	      2294	80000808	008dd263	bge	x27,x8,8000080c	 x27:0x00000000  x8:0x00000000
       22965000	      2295	00000000	00000013	addi	x0,x0,0	  x0:0x00000000
       22975000	      2296	80000808	00000013	addi	x0,x0,0	  x0:0x00000000
       22985000	      2297	8000080c	00236a63	bltu	x6,x2,80000820	  x6:0xffffff82  x2:0x80009fc4
       22995000	      2298	80000810	73fd8b97	auipc	x23,0x73fd8	 x23=0xf3fd880c
       23005000	      2299	80000814	017157b3	srl	x15,x2,x23	  x2:0x80009fc4 x23:0xf3fd880c x15=0x00080009
       23015000	      2300	80000818	4198d3b3	sra	x7,x17,x25	 x17:0xfffff971 x25:0xffffff82  x7=0xfffffe5c
       23025000	      2301	8000081c	00c2e033	or	x0,x5,x12	  x5:0xeca50242 x12:0x00000001
       23035000	      2302	80000820	4ff3dc37	lui	x24,0x4ff3d	 x24=0x4ff3d000
       23045000	      2303	80000824	1f5160b7	lui	x1,0x1f516	  x1=0x1f516000
       23055000	      2304	80000828	4154d233	sra	x4,x9,x21	  x9:0xfffffb93 x21:0x0000046e  x4=0xffffffff
       23065000	      2305	8000082c	01c69933	sll	x18,x13,x28	 x13:0x00000000 x28:0x80009f84 x18=0x00000000
       23075000	      2306	80000830	565504b7	lui	x9,0x56550	  x9=0x56550000
       23085000	      2307	80000834	01345893	srli	x17,x8,0x13	  x8:0x00000000 x17=0x00000000
       23095000	      2308	80000838	f6e0bf93	sltiu	x31,x1,-146	  x1:0x1f516000 x31=0x00000001
       23105000	      2309	8000083c	00faa6b3	slt	x13,x21,x15	 x21:0x0000046e x15:0x00080009 x13=0x00000001
       23115000	      2310	80000840	41bb59b3	sra	x19,x22,x27	 x22:0x00000000 x27:0x00000000 x19=0x00000000
       23125000	      2311	80000844	400dd333	sra	x6,x27,x0	 x27:0x00000000  x0:0x00000000  x6=0x00000000
       23135000	      2312	80000848	00000013	addi	x0,x0,0	  x0:0x00000000
       23145000	      2313	8000084c	1b21b513	sltiu	x10,x3,434	  x3:0xfffffb92 x10=0x00000000
       23155000	      2314	80000850	00002d97	auipc	x27,0x2	 x27=0x8000284c
       23165000	      2315	80000854	850d8d93	addi	x27,x27,-1968	 x27:0x8000284c x27=0x8000209c
       23175000	      2316	80000858	eb60ca13	xori	x20,x1,-330	  x1:0x1f516000 x20=0xe0ae9eb6
       23185000	      2317	8000085c	012b5233	srl	x4,x22,x18	 x22:0x00000000 x18:0x00000000  x4=0x00000000
       23195000	      2318	80000860	003f9313	slli	x6,x31,0x3	 x31:0x00000001  x6=0x00000008
       23205000	      2319	80000864	01cd9c93	slli	x25,x27,0x1c	 x27:0x8000209c x25=0xc0000000
       23215000	      2320	80000868	018ab4b3	sltu	x9,x21,x24	 x21:0x0000046e x24:0x4ff3d000  x9=0x00000001
       23225000	      2321	8000086c	ddbd8d93	addi	x27,x27,-549	 x27:0x8000209c x27=0x80001e77
       23235000	      2322	80000870	001086b3	add	x13,x1,x1	  x1:0x1f516000  x1:0x1f516000 x13=0x3ea2c000
       23245000	      2323	80000874	74f30993	addi	x19,x6,1871	  x6:0x00000008 x19=0x00000757
       23255000	      2324	80000878	225d80e7	jalr	x1,x27,549	 x27:0x80001e77  x1=0x80000878
       23265000	      2325	00000000	00000013	addi	x0,x0,0	  x0:0x00000000
       23275000	      2326	8000209c	00000013	addi	x0,x0,0	  x0:0x00000000
       23285000	      2327	800020a0	01d155b3	srl	x11,x2,x29	  x2:0x80009fc4 x29:0xe7514000 x11=0x80009fc4
       23295000	      2328	800020a4	294b4c13	xori	x24,x22,660	 x22:0x00000000 x24=0x00000294
       23305000	      2329	800020a8	016a8033	add	x0,x21,x22	 x21:0x0000046e x22:0x00000000
       23315000	      2330	800020ac	00f97eb3	and	x29,x18,x15	 x18:0x00000000 x15:0x00080009 x29=0x00000000
       23325000	      2331	800020b0	750e8193	addi	x3,x29,1872	 x29:0x00000000  x3=0x00000750
       23335000	      2332	800020b4	000f8db3	add	x27,x31,x0	 x31:0x00000001  x0:0x00000000 x27=0x00000001
       23345000	      2333	800020b8	01dbd263	bge	x23,x29,800020bc	 x23:0xf3fd880c x29:0x00000000
       23355000	      2334	800020bc	fe4e0e13	addi	x28,x28,-28	 x28:0x80009f84 x28=0x80009f68
       23365000	      2335	800020c0	01d0c233	xor	x4,x1,x29	  x1:0x80000878 x29:0x00000000  x4=0x80000878
       23375000	      2336	800020c4	001e2223	sw	x1,4(x28)	 x28:0x80009f68  x1:0x80000878 PA:0x80009f6c
       23385000	      2337	800020c8	0048c533	xor	x10,x17,x4	 x17:0x00000000  x4:0x80000878 x10=0x80000878
       23395000	      2338	800020cc	01626cb3	or	x25,x4,x22	  x4:0x80000878 x22:0x00000000 x25=0x80000878
       23405000	      2339	800020d0	00002317	auipc	x6,0x2	  x6=0x800040cc
       23415000	      2340	800020d4	e0030313	addi	x6,x6,-512	  x6:0x800040cc  x6=0x80003ecc
       23425000	      2341	800020d8	2b330313	addi	x6,x6,691	  x6:0x80003ecc  x6=0x8000417f
       23435000	      2342	800020dc	01ece033	or	x0,x25,x30	 x25:0x80000878 x30:0x00000001
       23445000	      2343	800020e0	00906ab3	or	x21,x0,x9	  x0:0x00000000  x9:0x00000001 x21=0x00000001
       23455000	      2344	800020e4	173eab37	lui	x22,0x173ea	 x22=0x173ea000
       23465000	      2345	800020e8	41450633	sub	x12,x10,x20	 x10:0x80000878 x20:0xe0ae9eb6 x12=0x9f5169c2
       23475000	      2346	800020ec	01d402b3	add	x5,x8,x29	  x8:0x00000000 x29:0x00000000  x5=0x00000000
       23485000	      2347	800020f0	015fc533	xor	x10,x31,x21	 x31:0x00000001 x21:0x00000001 x10=0x00000000
       23495000	      2348	800020f4	0129fd33	and	x26,x19,x18	 x19:0x00000757 x18:0x00000000 x26=0x00000000
       23505000	      2349	800020f8	d4e300e7	jalr	x1,x6,-690	  x6:0x8000417f  x1=0x800020f8
       23515000	      2350	00000000	00000013	addi	x0,x0,0	  x0:0x00000000
       23525000	      2351	80003ecc	00000013	addi	x0,x0,0	  x0:0x00000000
       23535000	      2352	80003ed0	00f7c263	blt	x15,x15,80003ed4	 x15:0x00080009 x15:0x00080009
       23545000	      2353	80003ed4	ff0e0e13	addi	x28,x28,-16	 x28:0x80009f68 x28=0x80009f58
       23555000	      2354	80003ed8	e28cf493	andi	x9,x25,-472	 x25:0x80000878  x9=0x80000828
       23565000	      2355	80003edc	009e78b3	and	x17,x28,x9	 x28:0x80009f58  x9:0x80000828 x17=0x80000808
       23575000	      2356	80003ee0	001e2223	sw	x1,4(x28)	 x28:0x80009f58  x1:0x800020f8 PA:0x80009f5c
       23585000	      2357	80003ee4	00b675b3	and	x11,x12,x11	 x12:0x9f5169c2 x11:0x80009fc4 x11=0x800009c0
       23595000	      2358	80003ee8	11ea4393	xori	x7,x20,286	 x20:0xe0ae9eb6  x7=0xe0ae9fa8
       23605000	      2359	80003eec	57dcae93	slti	x29,x25,1405	 x25:0x80000878 x29=0x00000001
       23615000	      2360	80003ef0	41465c33	sra	x24,x12,x20	 x12:0x9f5169c2 x20:0xe0ae9eb6 x24=0xfffffe7d
       23625000	      2361	80003ef4	00000013	addi	x0,x0,0	  x0:0x00000000
       23635000	      2362	80003ef8	40d85a13	srai	x20,x16,0xd	 x16:0x135afdaa x20=0x00009ad7
       23645000	      2363	80003efc	5c3c4993	xori	x19,x24,1475	 x24:0xfffffe7d x19=0xfffffbbe
       23655000	      2364	80003f00	b9390317	auipc	x6,0xb9390	  x6=0x39393efc
       23665000	      2365	80003f04	0151bd33	sltu	x26,x3,x21	  x3:0x00000750 x21:0x00000001 x26=0x00000000
       23675000	      2366	80003f08	bc22b613	sltiu	x12,x5,-1086	  x5:0x00000000 x12=0x00000001
       23685000	      2367	80003f0c	41b45a13	srai	x20,x8,0x1b	  x8:0x00000000 x20=0x00000000
       23695000	      2368	80003f10	bf5fc0ef	jal	x1,80003f10	  x1=0x80003f10
       23705000	      2369	00000000	00000013	addi	x0,x0,0	  x0:0x00000000
       23715000	      2370	80000b00	00000013	addi	x0,x0,0	  x0:0x00000000
       23725000	      2371	80000b04	012a1a13	slli	x20,x20,0x12	 x20:0x00000000 x20=0x00000000
       23735000	      2372	80000b08	410285b3	sub	x11,x5,x16	  x5:0x00000000 x16:0x135afdaa x11=0xeca50256
       23745000	      2373	80000b0c	008dc463	blt	x27,x8,80000b14	 x27:0x00000001  x8:0x00000000
       23755000	      2374	80000b10	41785cb3	sra	x25,x16,x23	 x16:0x135afdaa x23:0xf3fd880c x25=0x000135af
       23765000	      2375	80000b14	fc4e0e13	addi	x28,x28,-60	 x28:0x80009f58 x28=0x80009f1c
       23775000	      2376	80000b18	00bde5b3	or	x11,x27,x11	 x27:0x00000001 x11:0xeca50256 x11=0xeca50257
       23785000	      2377	80000b1c	222f42b7	lui	x5,0x222f4	  x5=0x222f4000
       23795000	      2378	80000b20	001e2223	sw	x1,4(x28)	 x28:0x80009f1c  x1:0x80003f10 PA:0x80009f20
       23805000	      2379	80000b24	01dcf233	and	x4,x25,x29	 x25:0x000135af x29:0x00000001  x4=0x00000001
       23815000	      2380	80000b28	00069393	slli	x7,x13,0x0	 x13:0x3ea2c000  x7=0x3ea2c000
       23825000	      2381	80000b2c	9d16c717	auipc	x14,0x9d16c	 x14=0x1d16cb28
       23835000	      2382	80000b30	40938eb3	sub	x29,x7,x9	  x7:0x3ea2c000  x9:0x80000828 x29=0xbea2b7d8
       23845000	      2383	80000b34	024000ef	jal	x1,80000b34	  x1=0x80000b34
       23855000	      2384	00000000	00000013	addi	x0,x0,0	  x0:0x00000000
       23865000	      2385	80000b54	00000013	addi	x0,x0,0	  x0:0x00000000
       23875000	      2386	80000b58	fe9ff0ef	jal	x1,80000b58	  x1=0x80000b58
       23885000	      2387	00000000	00000013	addi	x0,x0,0	  x0:0x00000000
       23895000	      2388	80000b3c	00000013	addi	x0,x0,0	  x0:0x00000000
       23905000	      2389	80000b40	040000ef	jal	x1,80000b40	  x1=0x80000b40
       23915000	      2390	00000000	00000013	addi	x0,x0,0	  x0:0x00000000
       23925000	      2391	80000b7c	00000013	addi	x0,x0,0	  x0:0x00000000
       23935000	      2392	80000b80	ff5fff6f	jal	x30,80000b80	 x30=0x80000b80
       23945000	      2393	00000000	00000013	addi	x0,x0,0	  x0:0x00000000
       23955000	      2394	80000b70	00000013	addi	x0,x0,0	  x0:0x00000000
       23965000	      2395	80000b74	fc5ff76f	jal	x14,80000b74	 x14=0x80000b74
       23975000	      2396	00000000	00000013	addi	x0,x0,0	  x0:0x00000000
       23985000	      2397	80000b34	00000013	addi	x0,x0,0	  x0:0x00000000
       23995000	      2398	80000b38	0380036f	jal	x6,80000b38	  x6=0x80000b38
       24005000	      2399	00000000	00000013	addi	x0,x0,0	  x0:0x00000000
       24015000	      2400	80000b6c	00000013	addi	x0,x0,0	  x0:0x00000000
       24025000	      2401	80000b70	ff9ffc6f	jal	x24,80000b70	 x24=0x80000b70
       24035000	      2402	00000000	00000013	addi	x0,x0,0	  x0:0x00000000
       24045000	      2403	80000b64	00000013	addi	x0,x0,0	  x0:0x00000000
       24055000	      2404	80000b68	fe9ff36f	jal	x6,80000b68	  x6=0x80000b68
       24065000	      2405	00000000	00000013	addi	x0,x0,0	  x0:0x00000000
       24075000	      2406	80000b4c	00000013	addi	x0,x0,0	  x0:0x00000000
       24085000	      2407	80000b50	0380036f	jal	x6,80000b50	  x6=0x80000b50
       24095000	      2408	00000000	00000013	addi	x0,x0,0	  x0:0x00000000
       24105000	      2409	80000b84	00000013	addi	x0,x0,0	  x0:0x00000000
       24115000	      2410	80000b88	fd9ff0ef	jal	x1,80000b88	  x1=0x80000b88
       24125000	      2411	00000000	00000013	addi	x0,x0,0	  x0:0x00000000
       24135000	      2412	80000b5c	00000013	addi	x0,x0,0	  x0:0x00000000
       24145000	      2413	80000b60	01c0036f	jal	x6,80000b60	  x6=0x80000b60
       24155000	      2414	00000000	00000013	addi	x0,x0,0	  x0:0x00000000
       24165000	      2415	80000b78	00000013	addi	x0,x0,0	  x0:0x00000000
       24175000	      2416	80000b7c	fe1ff0ef	jal	x1,80000b7c	  x1=0x80000b7c
       24185000	      2417	00000000	00000013	addi	x0,x0,0	  x0:0x00000000
       24195000	      2418	80000b58	00000013	addi	x0,x0,0	  x0:0x00000000
       24205000	      2419	80000b5c	028000ef	jal	x1,80000b5c	  x1=0x80000b5c
       24215000	      2420	00000000	00000013	addi	x0,x0,0	  x0:0x00000000
       24225000	      2421	80000b80	00000013	addi	x0,x0,0	  x0:0x00000000
       24235000	      2422	80000b84	fd1ff0ef	jal	x1,80000b84	  x1=0x80000b84
       24245000	      2423	00000000	00000013	addi	x0,x0,0	  x0:0x00000000
       24255000	      2424	80000b50	00000013	addi	x0,x0,0	  x0:0x00000000
       24265000	      2425	80000b54	ff9ff0ef	jal	x1,80000b54	  x1=0x80000b54
       24275000	      2426	00000000	00000013	addi	x0,x0,0	  x0:0x00000000
       24285000	      2427	80000b48	00000013	addi	x0,x0,0	  x0:0x00000000
       24295000	      2428	80000b4c	0180036f	jal	x6,80000b4c	  x6=0x80000b4c
       24305000	      2429	00000000	00000013	addi	x0,x0,0	  x0:0x00000000
       24315000	      2430	80000b60	00000013	addi	x0,x0,0	  x0:0x00000000
       24325000	      2431	80000b64	fe1ff0ef	jal	x1,80000b64	  x1=0x80000b64
       24335000	      2432	00000000	00000013	addi	x0,x0,0	  x0:0x00000000
       24345000	      2433	80000b40	00000013	addi	x0,x0,0	  x0:0x00000000
       24355000	      2434	80000b44	ff9ff9ef	jal	x19,80000b44	 x19=0x80000b44
       24365000	      2435	00000000	00000013	addi	x0,x0,0	  x0:0x00000000
       24375000	      2436	80000b38	00000013	addi	x0,x0,0	  x0:0x00000000
       24385000	      2437	80000b3c	00c000ef	jal	x1,80000b3c	  x1=0x80000b3c
       24395000	      2438	00000000	00000013	addi	x0,x0,0	  x0:0x00000000
       24405000	      2439	80000b44	00000013	addi	x0,x0,0	  x0:0x00000000
       24415000	      2440	80000b48	0240036f	jal	x6,80000b48	  x6=0x80000b48
       24425000	      2441	00000000	00000013	addi	x0,x0,0	  x0:0x00000000
       24435000	      2442	80000b68	00000013	addi	x0,x0,0	  x0:0x00000000
       24445000	      2443	80000b6c	00c0036f	jal	x6,80000b6c	  x6=0x80000b6c
       24455000	      2444	00000000	00000013	addi	x0,x0,0	  x0:0x00000000
       24465000	      2445	80000b74	00000013	addi	x0,x0,0	  x0:0x00000000
       24475000	      2446	80000b78	014000ef	jal	x1,80000b78	  x1=0x80000b78
       24485000	      2447	00000000	00000013	addi	x0,x0,0	  x0:0x00000000
       24495000	      2448	80000b88	00000013	addi	x0,x0,0	  x0:0x00000000
       24505000	      2449	80000b8c	019c9c13	slli	x24,x25,0x19	 x25:0x000135af x24=0x5e000000
       24515000	      2450	80000b90	038000ef	jal	x1,80000b90	  x1=0x80000b90
       24525000	      2451	00000000	00000013	addi	x0,x0,0	  x0:0x00000000
       24535000	      2452	80000bc4	00000013	addi	x0,x0,0	  x0:0x00000000
       24545000	      2453	80000bc8	fe1ff0ef	jal	x1,80000bc8	  x1=0x80000bc8
       24555000	      2454	00000000	00000013	addi	x0,x0,0	  x0:0x00000000
       24565000	      2455	80000ba4	00000013	addi	x0,x0,0	  x0:0x00000000
       24575000	      2456	80000ba8	ff9ff0ef	jal	x1,80000ba8	  x1=0x80000ba8
       24585000	      2457	00000000	00000013	addi	x0,x0,0	  x0:0x00000000
       24595000	      2458	80000b9c	00000013	addi	x0,x0,0	  x0:0x00000000
       24605000	      2459	80000ba0	034000ef	jal	x1,80000ba0	  x1=0x80000ba0
       24615000	      2460	00000000	00000013	addi	x0,x0,0	  x0:0x00000000
       24625000	      2461	80000bd0	00000013	addi	x0,x0,0	  x0:0x00000000
       24635000	      2462	80000bd4	01c000ef	jal	x1,80000bd4	  x1=0x80000bd4
       24645000	      2463	00000000	00000013	addi	x0,x0,0	  x0:0x00000000
       24655000	      2464	80000bec	00000013	addi	x0,x0,0	  x0:0x00000000
       24665000	      2465	80000bf0	ff5ff0ef	jal	x1,80000bf0	  x1=0x80000bf0
       24675000	      2466	00000000	00000013	addi	x0,x0,0	  x0:0x00000000
       24685000	      2467	80000be0	00000013	addi	x0,x0,0	  x0:0x00000000
       24695000	      2468	80000be4	ffdff0ef	jal	x1,80000be4	  x1=0x80000be4
       24705000	      2469	00000000	00000013	addi	x0,x0,0	  x0:0x00000000
       24715000	      2470	80000bdc	00000013	addi	x0,x0,0	  x0:0x00000000
       24725000	      2471	80000be0	020009ef	jal	x19,80000be0	 x19=0x80000be0
       24735000	      2472	00000000	00000013	addi	x0,x0,0	  x0:0x00000000
       24745000	      2473	80000bfc	00000013	addi	x0,x0,0	  x0:0x00000000
       24755000	      2474	80000c00	fd9fffef	jal	x31,80000c00	 x31=0x80000c00
       24765000	      2475	00000000	00000013	addi	x0,x0,0	  x0:0x00000000
       24775000	      2476	80000bd4	00000013	addi	x0,x0,0	  x0:0x00000000
       24785000	      2477	80000bd8	fddff0ef	jal	x1,80000bd8	  x1=0x80000bd8
       24795000	      2478	00000000	00000013	addi	x0,x0,0	  x0:0x00000000
       24805000	      2479	80000bb0	00000013	addi	x0,x0,0	  x0:0x00000000
       24815000	      2480	80000bb4	010002ef	jal	x5,80000bb4	  x5=0x80000bb4
       24825000	      2481	00000000	00000013	addi	x0,x0,0	  x0:0x00000000
       24835000	      2482	80000bc0	00000013	addi	x0,x0,0	  x0:0x00000000
       24845000	      2483	80000bc4	fd5ff36f	jal	x6,80000bc4	  x6=0x80000bc4
       24855000	      2484	00000000	00000013	addi	x0,x0,0	  x0:0x00000000
       24865000	      2485	80000b94	00000013	addi	x0,x0,0	  x0:0x00000000
       24875000	      2486	80000b98	044000ef	jal	x1,80000b98	  x1=0x80000b98
       24885000	      2487	00000000	00000013	addi	x0,x0,0	  x0:0x00000000
       24895000	      2488	80000bd8	00000013	addi	x0,x0,0	  x0:0x00000000
       24905000	      2489	80000bdc	00c0036f	jal	x6,80000bdc	  x6=0x80000bdc
       24915000	      2490	00000000	00000013	addi	x0,x0,0	  x0:0x00000000
       24925000	      2491	80000be4	00000013	addi	x0,x0,0	  x0:0x00000000
       24935000	      2492	80000be8	fc5ff0ef	jal	x1,80000be8	  x1=0x80000be8
       24945000	      2493	00000000	00000013	addi	x0,x0,0	  x0:0x00000000
       24955000	      2494	80000ba8	00000013	addi	x0,x0,0	  x0:0x00000000
       24965000	      2495	80000bac	ff9ff0ef	jal	x1,80000bac	  x1=0x80000bac
       24975000	      2496	00000000	00000013	addi	x0,x0,0	  x0:0x00000000
       24985000	      2497	80000ba0	00000013	addi	x0,x0,0	  x0:0x00000000
       24995000	      2498	80000ba4	050000ef	jal	x1,80000ba4	  x1=0x80000ba4
       25005000	      2499	00000000	00000013	addi	x0,x0,0	  x0:0x00000000
       25015000	      2500	80000bf0	00000013	addi	x0,x0,0	  x0:0x00000000
       25025000	      2501	80000bf4	004005ef	jal	x11,80000bf4	 x11=0x80000bf4
       25035000	      2502	00000000	00000013	addi	x0,x0,0	  x0:0x00000000
       25045000	      2503	80000bf4	00000013	addi	x0,x0,0	  x0:0x00000000
       25055000	      2504	80000bf8	fc9ff3ef	jal	x7,80000bf8	  x7=0x80000bf8
       25065000	      2505	00000000	00000013	addi	x0,x0,0	  x0:0x00000000
       25075000	      2506	80000bbc	00000013	addi	x0,x0,0	  x0:0x00000000
       25085000	      2507	80000bc0	fd5ff0ef	jal	x1,80000bc0	  x1=0x80000bc0
       25095000	      2508	00000000	00000013	addi	x0,x0,0	  x0:0x00000000
       25105000	      2509	80000b90	00000013	addi	x0,x0,0	  x0:0x00000000
       25115000	      2510	80000b94	0700036f	jal	x6,80000b94	  x6=0x80000b94
       25125000	      2511	00000000	00000013	addi	x0,x0,0	  x0:0x00000000
       25135000	      2512	80000c00	00000013	addi	x0,x0,0	  x0:0x00000000
       25145000	      2513	80000c04	fb5ff9ef	jal	x19,80000c04	 x19=0x80000c04
       25155000	      2514	00000000	00000013	addi	x0,x0,0	  x0:0x00000000
       25165000	      2515	80000bb4	00000013	addi	x0,x0,0	  x0:0x00000000
       25175000	      2516	80000bb8	004000ef	jal	x1,80000bb8	  x1=0x80000bb8
       25185000	      2517	00000000	00000013	addi	x0,x0,0	  x0:0x00000000
       25195000	      2518	80000bb8	00000013	addi	x0,x0,0	  x0:0x00000000
       25205000	      2519	80000bbc	030000ef	jal	x1,80000bbc	  x1=0x80000bbc
       25215000	      2520	00000000	00000013	addi	x0,x0,0	  x0:0x00000000
       25225000	      2521	80000be8	00000013	addi	x0,x0,0	  x0:0x00000000
       25235000	      2522	80000bec	fc5ff0ef	jal	x1,80000bec	  x1=0x80000bec
       25245000	      2523	00000000	00000013	addi	x0,x0,0	  x0:0x00000000
       25255000	      2524	80000bac	00000013	addi	x0,x0,0	  x0:0x00000000
       25265000	      2525	80000bb0	fedff0ef	jal	x1,80000bb0	  x1=0x80000bb0
       25275000	      2526	00000000	00000013	addi	x0,x0,0	  x0:0x00000000
       25285000	      2527	80000b98	00000013	addi	x0,x0,0	  x0:0x00000000
       25295000	      2528	80000b9c	06c002ef	jal	x5,80000b9c	  x5=0x80000b9c
       25305000	      2529	00000000	00000013	addi	x0,x0,0	  x0:0x00000000
       25315000	      2530	80000c04	00000013	addi	x0,x0,0	  x0:0x00000000
       25325000	      2531	80000c08	fc9ff3ef	jal	x7,80000c08	  x7=0x80000c08
       25335000	      2532	00000000	00000013	addi	x0,x0,0	  x0:0x00000000
       25345000	      2533	80000bcc	00000013	addi	x0,x0,0	  x0:0x00000000
       25355000	      2534	80000bd0	02c00a6f	jal	x20,80000bd0	 x20=0x80000bd0
       25365000	      2535	00000000	00000013	addi	x0,x0,0	  x0:0x00000000
       25375000	      2536	80000bf8	00000013	addi	x0,x0,0	  x0:0x00000000
       25385000	      2537	80000bfc	fd1ff36f	jal	x6,80000bfc	  x6=0x80000bfc
       25395000	      2538	00000000	00000013	addi	x0,x0,0	  x0:0x00000000
       25405000	      2539	80000bc8	00000013	addi	x0,x0,0	  x0:0x00000000
       25415000	      2540	80000bcc	040000ef	jal	x1,80000bcc	  x1=0x80000bcc
       25425000	      2541	00000000	00000013	addi	x0,x0,0	  x0:0x00000000
       25435000	      2542	80000c08	00000013	addi	x0,x0,0	  x0:0x00000000
       25445000	      2543	80000c0c	423ca193	slti	x3,x25,1059	 x25:0x000135af  x3=0x00000000
       25455000	      2544	80000c10	040000ef	jal	x1,80000c10	  x1=0x80000c10
       25465000	      2545	00000000	00000013	addi	x0,x0,0	  x0:0x00000000
       25475000	      2546	80000c4c	00000013	addi	x0,x0,0	  x0:0x00000000
       25485000	      2547	80000c50	02c000ef	jal	x1,80000c50	  x1=0x80000c50
       25495000	      2548	00000000	00000013	addi	x0,x0,0	  x0:0x00000000
       25505000	      2549	80000c78	00000013	addi	x0,x0,0	  x0:0x00000000
       25515000	      2550	80000c7c	004000ef	jal	x1,80000c7c	  x1=0x80000c7c
       25525000	      2551	00000000	00000013	addi	x0,x0,0	  x0:0x00000000
       25535000	      2552	80000c7c	00000013	addi	x0,x0,0	  x0:0x00000000
       25545000	      2553	80000c80	fc5ffcef	jal	x25,80000c80	 x25=0x80000c80
       25555000	      2554	00000000	00000013	addi	x0,x0,0	  x0:0x00000000
       25565000	      2555	80000c40	00000013	addi	x0,x0,0	  x0:0x00000000
       25575000	      2556	80000c44	014000ef	jal	x1,80000c44	  x1=0x80000c44
       25585000	      2557	00000000	00000013	addi	x0,x0,0	  x0:0x00000000
       25595000	      2558	80000c54	00000013	addi	x0,x0,0	  x0:0x00000000
       25605000	      2559	80000c58	fd9ff0ef	jal	x1,80000c58	  x1=0x80000c58
       25615000	      2560	00000000	00000013	addi	x0,x0,0	  x0:0x00000000
       25625000	      2561	80000c2c	00000013	addi	x0,x0,0	  x0:0x00000000
       25635000	      2562	80000c30	0580036f	jal	x6,80000c30	  x6=0x80000c30
       25645000	      2563	00000000	00000013	addi	x0,x0,0	  x0:0x00000000
       25655000	      2564	80000c84	00000013	addi	x0,x0,0	  x0:0x00000000
       25665000	      2565	80000c88	fc5ff36f	jal	x6,80000c88	  x6=0x80000c88
       25675000	      2566	00000000	00000013	addi	x0,x0,0	  x0:0x00000000
       25685000	      2567	80000c48	00000013	addi	x0,x0,0	  x0:0x00000000
       25695000	      2568	80000c4c	0100026f	jal	x4,80000c4c	  x4=0x80000c4c
       25705000	      2569	00000000	00000013	addi	x0,x0,0	  x0:0x00000000
       25715000	      2570	80000c58	00000013	addi	x0,x0,0	  x0:0x00000000
       25725000	      2571	80000c5c	fd1ff0ef	jal	x1,80000c5c	  x1=0x80000c5c
       25735000	      2572	00000000	00000013	addi	x0,x0,0	  x0:0x00000000
       25745000	      2573	80000c28	00000013	addi	x0,x0,0	  x0:0x00000000
       25755000	      2574	80000c2c	044000ef	jal	x1,80000c2c	  x1=0x80000c2c
       25765000	      2575	00000000	00000013	addi	x0,x0,0	  x0:0x00000000
       25775000	      2576	80000c6c	00000013	addi	x0,x0,0	  x0:0x00000000
       25785000	      2577	80000c70	008000ef	jal	x1,80000c70	  x1=0x80000c70
       25795000	      2578	00000000	00000013	addi	x0,x0,0	  x0:0x00000000
       25805000	      2579	80000c74	00000013	addi	x0,x0,0	  x0:0x00000000
       25815000	      2580	80000c78	fc1ffbef	jal	x23,80000c78	 x23=0x80000c78
       25825000	      2581	00000000	00000013	addi	x0,x0,0	  x0:0x00000000
       25835000	      2582	80000c34	00000013	addi	x0,x0,0	  x0:0x00000000
       25845000	      2583	80000c38	fe1ff0ef	jal	x1,80000c38	  x1=0x80000c38
       25855000	      2584	00000000	00000013	addi	x0,x0,0	  x0:0x00000000
       25865000	      2585	80000c14	00000013	addi	x0,x0,0	  x0:0x00000000
       25875000	      2586	80000c18	ffdff26f	jal	x4,80000c18	  x4=0x80000c18
       25885000	      2587	00000000	00000013	addi	x0,x0,0	  x0:0x00000000
       25895000	      2588	80000c10	00000013	addi	x0,x0,0	  x0:0x00000000
       25905000	      2589	80000c14	00c000ef	jal	x1,80000c14	  x1=0x80000c14
       25915000	      2590	00000000	00000013	addi	x0,x0,0	  x0:0x00000000
       25925000	      2591	80000c1c	00000013	addi	x0,x0,0	  x0:0x00000000
       25935000	      2592	80000c20	04c000ef	jal	x1,80000c20	  x1=0x80000c20
       25945000	      2593	00000000	00000013	addi	x0,x0,0	  x0:0x00000000
       25955000	      2594	80000c68	00000013	addi	x0,x0,0	  x0:0x00000000
       25965000	      2595	80000c6c	fd5ff36f	jal	x6,80000c6c	  x6=0x80000c6c
       25975000	      2596	00000000	00000013	addi	x0,x0,0	  x0:0x00000000
       25985000	      2597	80000c3c	00000013	addi	x0,x0,0	  x0:0x00000000
       25995000	      2598	80000c40	024000ef	jal	x1,80000c40	  x1=0x80000c40
       26005000	      2599	00000000	00000013	addi	x0,x0,0	  x0:0x00000000
       26015000	      2600	80000c60	00000013	addi	x0,x0,0	  x0:0x00000000
       26025000	      2601	80000c64	ff1ff0ef	jal	x1,80000c64	  x1=0x80000c64
       26035000	      2602	00000000	00000013	addi	x0,x0,0	  x0:0x00000000
       26045000	      2603	80000c50	00000013	addi	x0,x0,0	  x0:0x00000000
       26055000	      2604	80000c54	030000ef	jal	x1,80000c54	  x1=0x80000c54
       26065000	      2605	00000000	00000013	addi	x0,x0,0	  x0:0x00000000
       26075000	      2606	80000c80	00000013	addi	x0,x0,0	  x0:0x00000000
       26085000	      2607	80000c84	fb9ff0ef	jal	x1,80000c84	  x1=0x80000c84
       26095000	      2608	00000000	00000013	addi	x0,x0,0	  x0:0x00000000
       26105000	      2609	80000c38	00000013	addi	x0,x0,0	  x0:0x00000000
       26115000	      2610	80000c3c	fedff0ef	jal	x1,80000c3c	  x1=0x80000c3c
       26125000	      2611	00000000	00000013	addi	x0,x0,0	  x0:0x00000000
       26135000	      2612	80000c24	00000013	addi	x0,x0,0	  x0:0x00000000
       26145000	      2613	80000c28	00c000ef	jal	x1,80000c28	  x1=0x80000c28
       26155000	      2614	00000000	00000013	addi	x0,x0,0	  x0:0x00000000
       26165000	      2615	80000c30	00000013	addi	x0,x0,0	  x0:0x00000000
       26175000	      2616	80000c34	ff1ff2ef	jal	x5,80000c34	  x5=0x80000c34
       26185000	      2617	00000000	00000013	addi	x0,x0,0	  x0:0x00000000
       26195000	      2618	80000c20	00000013	addi	x0,x0,0	  x0:0x00000000
       26205000	      2619	80000c24	03c000ef	jal	x1,80000c24	  x1=0x80000c24
       26215000	      2620	00000000	00000013	addi	x0,x0,0	  x0:0x00000000
       26225000	      2621	80000c5c	00000013	addi	x0,x0,0	  x0:0x00000000
       26235000	      2622	80000c60	fbdff0ef	jal	x1,80000c60	  x1=0x80000c60
       26245000	      2623	00000000	00000013	addi	x0,x0,0	  x0:0x00000000
       26255000	      2624	80000c18	00000013	addi	x0,x0,0	  x0:0x00000000
       26265000	      2625	80000c1c	04c007ef	jal	x15,80000c1c	 x15=0x80000c1c
       26275000	      2626	00000000	00000013	addi	x0,x0,0	  x0:0x00000000
       26285000	      2627	80000c64	00000013	addi	x0,x0,0	  x0:0x00000000
       26295000	      2628	80000c68	fe1ff0ef	jal	x1,80000c68	  x1=0x80000c68
       26305000	      2629	00000000	00000013	addi	x0,x0,0	  x0:0x00000000
       26315000	      2630	80000c44	00000013	addi	x0,x0,0	  x0:0x00000000
       26325000	      2631	80000c48	02c000ef	jal	x1,80000c48	  x1=0x80000c48
       26335000	      2632	00000000	00000013	addi	x0,x0,0	  x0:0x00000000
       26345000	      2633	80000c70	00000013	addi	x0,x0,0	  x0:0x00000000
       26355000	      2634	80000c74	0180036f	jal	x6,80000c74	  x6=0x80000c74
       26365000	      2635	00000000	00000013	addi	x0,x0,0	  x0:0x00000000
       26375000	      2636	80000c88	00000013	addi	x0,x0,0	  x0:0x00000000
       26385000	      2637	80000c8c	c674c8b7	lui	x17,0xc674c	 x17=0xc674c000
       26395000	      2638	80000c90	038000ef	jal	x1,80000c90	  x1=0x80000c90
       26405000	      2639	00000000	00000013	addi	x0,x0,0	  x0:0x00000000
       26415000	      2640	80000cc4	00000013	addi	x0,x0,0	  x0:0x00000000
       26425000	      2641	80000cc8	ff1ff0ef	jal	x1,80000cc8	  x1=0x80000cc8
       26435000	      2642	00000000	00000013	addi	x0,x0,0	  x0:0x00000000
       26445000	      2643	80000cb4	00000013	addi	x0,x0,0	  x0:0x00000000
       26455000	      2644	80000cb8	fe9ff0ef	jal	x1,80000cb8	  x1=0x80000cb8
       26465000	      2645	00000000	00000013	addi	x0,x0,0	  x0:0x00000000
       26475000	      2646	80000c9c	00000013	addi	x0,x0,0	  x0:0x00000000
       26485000	      2647	80000ca0	04c0026f	jal	x4,80000ca0	  x4=0x80000ca0
       26495000	      2648	00000000	00000013	addi	x0,x0,0	  x0:0x00000000
       26505000	      2649	80000ce8	00000013	addi	x0,x0,0	  x0:0x00000000
       26515000	      2650	80000cec	fc5ff0ef	jal	x1,80000cec	  x1=0x80000cec
       26525000	      2651	00000000	00000013	addi	x0,x0,0	  x0:0x00000000
       26535000	      2652	80000cac	00000013	addi	x0,x0,0	  x0:0x00000000
       26545000	      2653	80000cb0	00c0066f	jal	x12,80000cb0	 x12=0x80000cb0
       26555000	      2654	00000000	00000013	addi	x0,x0,0	  x0:0x00000000
       26565000	      2655	80000cb8	00000013	addi	x0,x0,0	  x0:0x00000000
       26575000	      2656	80000cbc	0200036f	jal	x6,80000cbc	  x6=0x80000cbc
       26585000	      2657	00000000	00000013	addi	x0,x0,0	  x0:0x00000000
       26595000	      2658	80000cd8	00000013	addi	x0,x0,0	  x0:0x00000000
       26605000	      2659	80000cdc	00c0036f	jal	x6,80000cdc	  x6=0x80000cdc
       26615000	      2660	00000000	00000013	addi	x0,x0,0	  x0:0x00000000
       26625000	      2661	80000ce4	00000013	addi	x0,x0,0	  x0:0x00000000
       26635000	      2662	80000ce8	ff1ff0ef	jal	x1,80000ce8	  x1=0x80000ce8
       26645000	      2663	00000000	00000013	addi	x0,x0,0	  x0:0x00000000
       26655000	      2664	80000cd4	00000013	addi	x0,x0,0	  x0:0x00000000
       26665000	      2665	80000cd8	fd1ff36f	jal	x6,80000cd8	  x6=0x80000cd8
       26675000	      2666	00000000	00000013	addi	x0,x0,0	  x0:0x00000000
       26685000	      2667	80000ca4	00000013	addi	x0,x0,0	  x0:0x00000000
       26695000	      2668	80000ca8	ff1ff1ef	jal	x3,80000ca8	  x3=0x80000ca8
       26705000	      2669	00000000	00000013	addi	x0,x0,0	  x0:0x00000000
       26715000	      2670	80000c94	00000013	addi	x0,x0,0	  x0:0x00000000
       26725000	      2671	80000c98	004000ef	jal	x1,80000c98	  x1=0x80000c98
       26735000	      2672	00000000	00000013	addi	x0,x0,0	  x0:0x00000000
       26745000	      2673	80000c98	00000013	addi	x0,x0,0	  x0:0x00000000
       26755000	      2674	80000c9c	0680036f	jal	x6,80000c9c	  x6=0x80000c9c
       26765000	      2675	00000000	00000013	addi	x0,x0,0	  x0:0x00000000
       26775000	      2676	80000d00	00000013	addi	x0,x0,0	  x0:0x00000000
       26785000	      2677	80000d04	fcdff0ef	jal	x1,80000d04	  x1=0x80000d04
       26795000	      2678	00000000	00000013	addi	x0,x0,0	  x0:0x00000000
       26805000	      2679	80000ccc	00000013	addi	x0,x0,0	  x0:0x00000000
       26815000	      2680	80000cd0	004000ef	jal	x1,80000cd0	  x1=0x80000cd0
       26825000	      2681	00000000	00000013	addi	x0,x0,0	  x0:0x00000000
       26835000	      2682	80000cd0	00000013	addi	x0,x0,0	  x0:0x00000000
       26845000	      2683	80000cd4	fedff36f	jal	x6,80000cd4	  x6=0x80000cd4
       26855000	      2684	00000000	00000013	addi	x0,x0,0	  x0:0x00000000
       26865000	      2685	80000cbc	00000013	addi	x0,x0,0	  x0:0x00000000
       26875000	      2686	80000cc0	fd5ff0ef	jal	x1,80000cc0	  x1=0x80000cc0
       26885000	      2687	00000000	00000013	addi	x0,x0,0	  x0:0x00000000
       26895000	      2688	80000c90	00000013	addi	x0,x0,0	  x0:0x00000000
       26905000	      2689	80000c94	06c000ef	jal	x1,80000c94	  x1=0x80000c94
       26915000	      2690	00000000	00000013	addi	x0,x0,0	  x0:0x00000000
       26925000	      2691	80000cfc	00000013	addi	x0,x0,0	  x0:0x00000000
       26935000	      2692	80000d00	fadffeef	jal	x29,80000d00	 x29=0x80000d00
       26945000	      2693	00000000	00000013	addi	x0,x0,0	  x0:0x00000000
       26955000	      2694	80000ca8	00000013	addi	x0,x0,0	  x0:0x00000000
       26965000	      2695	80000cac	0080026f	jal	x4,80000cac	  x4=0x80000cac
       26975000	      2696	00000000	00000013	addi	x0,x0,0	  x0:0x00000000
       26985000	      2697	80000cb0	00000013	addi	x0,x0,0	  x0:0x00000000
       26995000	      2698	80000cb4	048003ef	jal	x7,80000cb4	  x7=0x80000cb4
       27005000	      2699	00000000	00000013	addi	x0,x0,0	  x0:0x00000000
       27015000	      2700	80000cf8	00000013	addi	x0,x0,0	  x0:0x00000000
       27025000	      2701	80000cfc	ff9ff8ef	jal	x17,80000cfc	 x17=0x80000cfc
       27035000	      2702	00000000	00000013	addi	x0,x0,0	  x0:0x00000000
       27045000	      2703	80000cf0	00000013	addi	x0,x0,0	  x0:0x00000000
       27055000	      2704	80000cf4	ff1ff76f	jal	x14,80000cf4	 x14=0x80000cf4
       27065000	      2705	00000000	00000013	addi	x0,x0,0	  x0:0x00000000
       27075000	      2706	80000ce0	00000013	addi	x0,x0,0	  x0:0x00000000
       27085000	      2707	80000ce4	fe9ff8ef	jal	x17,80000ce4	 x17=0x80000ce4
       27095000	      2708	00000000	00000013	addi	x0,x0,0	  x0:0x00000000
       27105000	      2709	80000cc8	00000013	addi	x0,x0,0	  x0:0x00000000
       27115000	      2710	80000ccc	014000ef	jal	x1,80000ccc	  x1=0x80000ccc
       27125000	      2711	00000000	00000013	addi	x0,x0,0	  x0:0x00000000
       27135000	      2712	80000cdc	00000013	addi	x0,x0,0	  x0:0x00000000
       27145000	      2713	80000ce0	010000ef	jal	x1,80000ce0	  x1=0x80000ce0
       27155000	      2714	00000000	00000013	addi	x0,x0,0	  x0:0x00000000
       27165000	      2715	80000cec	00000013	addi	x0,x0,0	  x0:0x00000000
       27175000	      2716	80000cf0	fd5ff0ef	jal	x1,80000cf0	  x1=0x80000cf0
       27185000	      2717	00000000	00000013	addi	x0,x0,0	  x0:0x00000000
       27195000	      2718	80000cc0	00000013	addi	x0,x0,0	  x0:0x00000000
       27205000	      2719	80000cc4	0340036f	jal	x6,80000cc4	  x6=0x80000cc4
       27215000	      2720	00000000	00000013	addi	x0,x0,0	  x0:0x00000000
       27225000	      2721	80000cf4	00000013	addi	x0,x0,0	  x0:0x00000000
       27235000	      2722	80000cf8	fadff0ef	jal	x1,80000cf8	  x1=0x80000cf8
       27245000	      2723	00000000	00000013	addi	x0,x0,0	  x0:0x00000000
       27255000	      2724	80000ca0	00000013	addi	x0,x0,0	  x0:0x00000000
       27265000	      2725	80000ca4	064000ef	jal	x1,80000ca4	  x1=0x80000ca4
       27275000	      2726	00000000	00000013	addi	x0,x0,0	  x0:0x00000000
       27285000	      2727	80000d04	00000013	addi	x0,x0,0	  x0:0x00000000
       27295000	      2728	80000d08	41dc5b33	sra	x22,x24,x29	 x24:0x5e000000 x29:0x80000d00 x22=0x5e000000
       27305000	      2729	80000d0c	018000ef	jal	x1,80000d0c	  x1=0x80000d0c
       27315000	      2730	00000000	00000013	addi	x0,x0,0	  x0:0x00000000
       27325000	      2731	80000d20	00000013	addi	x0,x0,0	  x0:0x00000000
       27335000	      2732	80000d24	010000ef	jal	x1,80000d24	  x1=0x80000d24
       27345000	      2733	00000000	00000013	addi	x0,x0,0	  x0:0x00000000
       27355000	      2734	80000d30	00000013	addi	x0,x0,0	  x0:0x00000000
       27365000	      2735	80000d34	fe5ff36f	jal	x6,80000d34	  x6=0x80000d34
       27375000	      2736	00000000	00000013	addi	x0,x0,0	  x0:0x00000000
       27385000	      2737	80000d14	00000013	addi	x0,x0,0	  x0:0x00000000
       27395000	      2738	80000d18	01400b6f	jal	x22,80000d18	 x22=0x80000d18
       27405000	      2739	00000000	00000013	addi	x0,x0,0	  x0:0x00000000
       27415000	      2740	80000d28	00000013	addi	x0,x0,0	  x0:0x00000000
       27425000	      2741	80000d2c	ffdff0ef	jal	x1,80000d2c	  x1=0x80000d2c
       27435000	      2742	00000000	00000013	addi	x0,x0,0	  x0:0x00000000
       27445000	      2743	80000d24	00000013	addi	x0,x0,0	  x0:0x00000000
       27455000	      2744	80000d28	010000ef	jal	x1,80000d28	  x1=0x80000d28
       27465000	      2745	00000000	00000013	addi	x0,x0,0	  x0:0x00000000
       27475000	      2746	80000d34	00000013	addi	x0,x0,0	  x0:0x00000000
       27485000	      2747	80000d38	ff9ffbef	jal	x23,80000d38	 x23=0x80000d38
       27495000	      2748	00000000	00000013	addi	x0,x0,0	  x0:0x00000000
       27505000	      2749	80000d2c	00000013	addi	x0,x0,0	  x0:0x00000000
       27515000	      2750	80000d30	fe1ff0ef	jal	x1,80000d30	  x1=0x80000d30
       27525000	      2751	00000000	00000013	addi	x0,x0,0	  x0:0x00000000
       27535000	      2752	80000d0c	00000013	addi	x0,x0,0	  x0:0x00000000
       27545000	      2753	80000d10	01000def	jal	x27,80000d10	 x27=0x80000d10
       27555000	      2754	00000000	00000013	addi	x0,x0,0	  x0:0x00000000
       27565000	      2755	80000d1c	00000013	addi	x0,x0,0	  x0:0x00000000
       27575000	      2756	80000d20	ffdff36f	jal	x6,80000d20	  x6=0x80000d20
       27585000	      2757	00000000	00000013	addi	x0,x0,0	  x0:0x00000000
       27595000	      2758	80000d18	00000013	addi	x0,x0,0	  x0:0x00000000
       27605000	      2759	80000d1c	ff9ff36f	jal	x6,80000d1c	  x6=0x80000d1c
       27615000	      2760	00000000	00000013	addi	x0,x0,0	  x0:0x00000000
       27625000	      2761	80000d10	00000013	addi	x0,x0,0	  x0:0x00000000
       27635000	      2762	80000d14	028000ef	jal	x1,80000d14	  x1=0x80000d14
       27645000	      2763	00000000	00000013	addi	x0,x0,0	  x0:0x00000000
       27655000	      2764	80000d38	00000013	addi	x0,x0,0	  x0:0x00000000
       27665000	      2765	80000d3c	8175cc13	xori	x24,x11,-2025	 x11:0x80000bf4 x24=0x7ffff3e3
       27675000	      2766	80000d40	014000ef	jal	x1,80000d40	  x1=0x80000d40
       27685000	      2767	00000000	00000013	addi	x0,x0,0	  x0:0x00000000
       27695000	      2768	80000d50	00000013	addi	x0,x0,0	  x0:0x00000000
       27705000	      2769	80000d54	02c000ef	jal	x1,80000d54	  x1=0x80000d54
       27715000	      2770	00000000	00000013	addi	x0,x0,0	  x0:0x00000000
       27725000	      2771	80000d7c	00000013	addi	x0,x0,0	  x0:0x00000000
       27735000	      2772	80000d80	020000ef	jal	x1,80000d80	  x1=0x80000d80
       27745000	      2773	00000000	00000013	addi	x0,x0,0	  x0:0x00000000
       27755000	      2774	80000d9c	00000013	addi	x0,x0,0	  x0:0x00000000
       27765000	      2775	80000da0	ff9ff0ef	jal	x1,80000da0	  x1=0x80000da0
       27775000	      2776	00000000	00000013	addi	x0,x0,0	  x0:0x00000000
       27785000	      2777	80000d94	00000013	addi	x0,x0,0	  x0:0x00000000
       27795000	      2778	80000d98	fb5ff0ef	jal	x1,80000d98	  x1=0x80000d98
       27805000	      2779	00000000	00000013	addi	x0,x0,0	  x0:0x00000000
       27815000	      2780	80000d48	00000013	addi	x0,x0,0	  x0:0x00000000
       27825000	      2781	80000d4c	044000ef	jal	x1,80000d4c	  x1=0x80000d4c
       27835000	      2782	00000000	00000013	addi	x0,x0,0	  x0:0x00000000
       27845000	      2783	80000d8c	00000013	addi	x0,x0,0	  x0:0x00000000
       27855000	      2784	80000d90	fd9ff0ef	jal	x1,80000d90	  x1=0x80000d90
       27865000	      2785	00000000	00000013	addi	x0,x0,0	  x0:0x00000000
       27875000	      2786	80000d64	00000013	addi	x0,x0,0	  x0:0x00000000
       27885000	      2787	80000d68	fe1ff36f	jal	x6,80000d68	  x6=0x80000d68
       27895000	      2788	00000000	00000013	addi	x0,x0,0	  x0:0x00000000
       27905000	      2789	80000d44	00000013	addi	x0,x0,0	  x0:0x00000000
       27915000	      2790	80000d48	030001ef	jal	x3,80000d48	  x3=0x80000d48
       27925000	      2791	00000000	00000013	addi	x0,x0,0	  x0:0x00000000
       27935000	      2792	80000d74	00000013	addi	x0,x0,0	  x0:0x00000000
       27945000	      2793	80000d78	014000ef	jal	x1,80000d78	  x1=0x80000d78
       27955000	      2794	00000000	00000013	addi	x0,x0,0	  x0:0x00000000
       27965000	      2795	80000d88	00000013	addi	x0,x0,0	  x0:0x00000000
       27975000	      2796	80000d8c	ffdff26f	jal	x4,80000d8c	  x4=0x80000d8c
       27985000	      2797	00000000	00000013	addi	x0,x0,0	  x0:0x00000000
       27995000	      2798	80000d84	00000013	addi	x0,x0,0	  x0:0x00000000
       28005000	      2799	80000d88	020000ef	jal	x1,80000d88	  x1=0x80000d88
       28015000	      2800	00000000	00000013	addi	x0,x0,0	  x0:0x00000000
       28025000	      2801	80000da4	00000013	addi	x0,x0,0	  x0:0x00000000
       28035000	      2802	80000da8	fedff66f	jal	x12,80000da8	 x12=0x80000da8
       28045000	      2803	00000000	00000013	addi	x0,x0,0	  x0:0x00000000
       28055000	      2804	80000d90	00000013	addi	x0,x0,0	  x0:0x00000000
       28065000	      2805	80000d94	fb1ff0ef	jal	x1,80000d94	  x1=0x80000d94
       28075000	      2806	00000000	00000013	addi	x0,x0,0	  x0:0x00000000
       28085000	      2807	80000d40	00000013	addi	x0,x0,0	  x0:0x00000000
       28095000	      2808	80000d44	018000ef	jal	x1,80000d44	  x1=0x80000d44
       28105000	      2809	00000000	00000013	addi	x0,x0,0	  x0:0x00000000
       28115000	      2810	80000d58	00000013	addi	x0,x0,0	  x0:0x00000000
       28125000	      2811	80000d5c	014000ef	jal	x1,80000d5c	  x1=0x80000d5c
       28135000	      2812	00000000	00000013	addi	x0,x0,0	  x0:0x00000000
       28145000	      2813	80000d6c	00000013	addi	x0,x0,0	  x0:0x00000000
       28155000	      2814	80000d70	02c000ef	jal	x1,80000d70	  x1=0x80000d70
       28165000	      2815	00000000	00000013	addi	x0,x0,0	  x0:0x00000000
       28175000	      2816	80000d98	00000013	addi	x0,x0,0	  x0:0x00000000
       28185000	      2817	80000d9c	fd1ff0ef	jal	x1,80000d9c	  x1=0x80000d9c
       28195000	      2818	00000000	00000013	addi	x0,x0,0	  x0:0x00000000
       28205000	      2819	80000d68	00000013	addi	x0,x0,0	  x0:0x00000000
       28215000	      2820	80000d6c	fe5ff0ef	jal	x1,80000d6c	  x1=0x80000d6c
       28225000	      2821	00000000	00000013	addi	x0,x0,0	  x0:0x00000000
       28235000	      2822	80000d4c	00000013	addi	x0,x0,0	  x0:0x00000000
       28245000	      2823	80000d50	034000ef	jal	x1,80000d50	  x1=0x80000d50
       28255000	      2824	00000000	00000013	addi	x0,x0,0	  x0:0x00000000
       28265000	      2825	80000d80	00000013	addi	x0,x0,0	  x0:0x00000000
       28275000	      2826	80000d84	ff9ff0ef	jal	x1,80000d84	  x1=0x80000d84
       28285000	      2827	00000000	00000013	addi	x0,x0,0	  x0:0x00000000
       28295000	      2828	80000d78	00000013	addi	x0,x0,0	  x0:0x00000000
       28305000	      2829	80000d7c	030000ef	jal	x1,80000d7c	  x1=0x80000d7c
       28315000	      2830	00000000	00000013	addi	x0,x0,0	  x0:0x00000000
       28325000	      2831	80000da8	00000013	addi	x0,x0,0	  x0:0x00000000
       28335000	      2832	80000dac	fc9ff36f	jal	x6,80000dac	  x6=0x80000dac
       28345000	      2833	00000000	00000013	addi	x0,x0,0	  x0:0x00000000
       28355000	      2834	80000d70	00000013	addi	x0,x0,0	  x0:0x00000000
       28365000	      2835	80000d74	03c0046f	jal	x8,80000d74	  x8=0x80000d74
       28375000	      2836	00000000	00000013	addi	x0,x0,0	  x0:0x00000000
       28385000	      2837	80000dac	00000013	addi	x0,x0,0	  x0:0x00000000
       28395000	      2838	80000db0	fa9ff0ef	jal	x1,80000db0	  x1=0x80000db0
       28405000	      2839	00000000	00000013	addi	x0,x0,0	  x0:0x00000000
       28415000	      2840	80000d54	00000013	addi	x0,x0,0	  x0:0x00000000
       28425000	      2841	80000d58	04c000ef	jal	x1,80000d58	  x1=0x80000d58
       28435000	      2842	00000000	00000013	addi	x0,x0,0	  x0:0x00000000
       28445000	      2843	80000da0	00000013	addi	x0,x0,0	  x0:0x00000000
       28455000	      2844	80000da4	fbdff36f	jal	x6,80000da4	  x6=0x80000da4
       28465000	      2845	00000000	00000013	addi	x0,x0,0	  x0:0x00000000
       28475000	      2846	80000d5c	00000013	addi	x0,x0,0	  x0:0x00000000
       28485000	      2847	80000d60	004000ef	jal	x1,80000d60	  x1=0x80000d60
       28495000	      2848	00000000	00000013	addi	x0,x0,0	  x0:0x00000000
       28505000	      2849	80000d60	00000013	addi	x0,x0,0	  x0:0x00000000
       28515000	      2850	80000d64	050000ef	jal	x1,80000d64	  x1=0x80000d64
       28525000	      2851	00000000	00000013	addi	x0,x0,0	  x0:0x00000000
       28535000	      2852	80000db0	00000013	addi	x0,x0,0	  x0:0x00000000
       28545000	      2853	80000db4	01a46033	or	x0,x8,x26	  x8:0x80000d74 x26:0x00000000
       28555000	      2854	80000db8	044000ef	jal	x1,80000db8	  x1=0x80000db8
       28565000	      2855	00000000	00000013	addi	x0,x0,0	  x0:0x00000000
       28575000	      2856	80000df8	00000013	addi	x0,x0,0	  x0:0x00000000
       28585000	      2857	80000dfc	fedff46f	jal	x8,80000dfc	  x8=0x80000dfc
       28595000	      2858	00000000	00000013	addi	x0,x0,0	  x0:0x00000000
       28605000	      2859	80000de4	00000013	addi	x0,x0,0	  x0:0x00000000
       28615000	      2860	80000de8	fddff0ef	jal	x1,80000de8	  x1=0x80000de8
       28625000	      2861	00000000	00000013	addi	x0,x0,0	  x0:0x00000000
       28635000	      2862	80000dc0	00000013	addi	x0,x0,0	  x0:0x00000000
       28645000	      2863	80000dc4	00c0036f	jal	x6,80000dc4	  x6=0x80000dc4
       28655000	      2864	00000000	00000013	addi	x0,x0,0	  x0:0x00000000
       28665000	      2865	80000dcc	00000013	addi	x0,x0,0	  x0:0x00000000
       28675000	      2866	80000dd0	ff1ff0ef	jal	x1,80000dd0	  x1=0x80000dd0
       28685000	      2867	00000000	00000013	addi	x0,x0,0	  x0:0x00000000
       28695000	      2868	80000dbc	00000013	addi	x0,x0,0	  x0:0x00000000
       28705000	      2869	80000dc0	024009ef	jal	x19,80000dc0	 x19=0x80000dc0
       28715000	      2870	00000000	00000013	addi	x0,x0,0	  x0:0x00000000
       28725000	      2871	80000de0	00000013	addi	x0,x0,0	  x0:0x00000000
       28735000	      2872	80000de4	00c0036f	jal	x6,80000de4	  x6=0x80000de4
       28745000	      2873	00000000	00000013	addi	x0,x0,0	  x0:0x00000000
       28755000	      2874	80000dec	00000013	addi	x0,x0,0	  x0:0x00000000
       28765000	      2875	80000df0	fcdff0ef	jal	x1,80000df0	  x1=0x80000df0
       28775000	      2876	00000000	00000013	addi	x0,x0,0	  x0:0x00000000
       28785000	      2877	80000db8	00000013	addi	x0,x0,0	  x0:0x00000000
       28795000	      2878	80000dbc	03c000ef	jal	x1,80000dbc	  x1=0x80000dbc
       28805000	      2879	00000000	00000013	addi	x0,x0,0	  x0:0x00000000
       28815000	      2880	80000df4	00000013	addi	x0,x0,0	  x0:0x00000000
       28825000	      2881	80000df8	fe9ff0ef	jal	x1,80000df8	  x1=0x80000df8
       28835000	      2882	00000000	00000013	addi	x0,x0,0	  x0:0x00000000
       28845000	      2883	80000ddc	00000013	addi	x0,x0,0	  x0:0x00000000
       28855000	      2884	80000de0	fe9ff0ef	jal	x1,80000de0	  x1=0x80000de0
       28865000	      2885	00000000	00000013	addi	x0,x0,0	  x0:0x00000000
       28875000	      2886	80000dc4	00000013	addi	x0,x0,0	  x0:0x00000000
       28885000	      2887	80000dc8	004000ef	jal	x1,80000dc8	  x1=0x80000dc8
       28895000	      2888	00000000	00000013	addi	x0,x0,0	  x0:0x00000000
       28905000	      2889	80000dc8	00000013	addi	x0,x0,0	  x0:0x00000000
       28915000	      2890	80000dcc	0280056f	jal	x10,80000dcc	 x10=0x80000dcc
       28925000	      2891	00000000	00000013	addi	x0,x0,0	  x0:0x00000000
       28935000	      2892	80000df0	00000013	addi	x0,x0,0	  x0:0x00000000
       28945000	      2893	80000df4	fe5ff0ef	jal	x1,80000df4	  x1=0x80000df4
       28955000	      2894	00000000	00000013	addi	x0,x0,0	  x0:0x00000000
       28965000	      2895	80000dd4	00000013	addi	x0,x0,0	  x0:0x00000000
       28975000	      2896	80000dd8	028000ef	jal	x1,80000dd8	  x1=0x80000dd8
       28985000	      2897	00000000	00000013	addi	x0,x0,0	  x0:0x00000000
       28995000	      2898	80000dfc	00000013	addi	x0,x0,0	  x0:0x00000000
       29005000	      2899	80000e00	fedff36f	jal	x6,80000e00	  x6=0x80000e00
       29015000	      2900	00000000	00000013	addi	x0,x0,0	  x0:0x00000000
       29025000	      2901	80000de8	00000013	addi	x0,x0,0	  x0:0x00000000
       29035000	      2902	80000dec	018000ef	jal	x1,80000dec	  x1=0x80000dec
       29045000	      2903	00000000	00000013	addi	x0,x0,0	  x0:0x00000000
       29055000	      2904	80000e00	00000013	addi	x0,x0,0	  x0:0x00000000
       29065000	      2905	80000e04	fd9ff0ef	jal	x1,80000e04	  x1=0x80000e04
       29075000	      2906	00000000	00000013	addi	x0,x0,0	  x0:0x00000000
       29085000	      2907	80000dd8	00000013	addi	x0,x0,0	  x0:0x00000000
       29095000	      2908	80000ddc	ff9ffd6f	jal	x26,80000ddc	 x26=0x80000ddc
       29105000	      2909	00000000	00000013	addi	x0,x0,0	  x0:0x00000000
       29115000	      2910	80000dd0	00000013	addi	x0,x0,0	  x0:0x00000000
       29125000	      2911	80000dd4	034000ef	jal	x1,80000dd4	  x1=0x80000dd4
       29135000	      2912	00000000	00000013	addi	x0,x0,0	  x0:0x00000000
       29145000	      2913	80000e04	00000013	addi	x0,x0,0	  x0:0x00000000
       29155000	      2914	80000e08	008b3ab3	sltu	x21,x22,x8	 x22:0x80000d18  x8:0x80000dfc x21=0x00000001
       29165000	      2915	80000e0c	004000ef	jal	x1,80000e0c	  x1=0x80000e0c
       29175000	      2916	00000000	00000013	addi	x0,x0,0	  x0:0x00000000
       29185000	      2917	80000e0c	00000013	addi	x0,x0,0	  x0:0x00000000
       29195000	      2918	80000e10	030000ef	jal	x1,80000e10	  x1=0x80000e10
       29205000	      2919	00000000	00000013	addi	x0,x0,0	  x0:0x00000000
       29215000	      2920	80000e3c	00000013	addi	x0,x0,0	  x0:0x00000000
       29225000	      2921	80000e40	ffdff0ef	jal	x1,80000e40	  x1=0x80000e40
       29235000	      2922	00000000	00000013	addi	x0,x0,0	  x0:0x00000000
       29245000	      2923	80000e38	00000013	addi	x0,x0,0	  x0:0x00000000
       29255000	      2924	80000e3c	ff1ff6ef	jal	x13,80000e3c	 x13=0x80000e3c
       29265000	      2925	00000000	00000013	addi	x0,x0,0	  x0:0x00000000
       29275000	      2926	80000e28	00000013	addi	x0,x0,0	  x0:0x00000000
       29285000	      2927	80000e2c	ffdff0ef	jal	x1,80000e2c	  x1=0x80000e2c
       29295000	      2928	00000000	00000013	addi	x0,x0,0	  x0:0x00000000
       29305000	      2929	80000e24	00000013	addi	x0,x0,0	  x0:0x00000000
       29315000	      2930	80000e28	008000ef	jal	x1,80000e28	  x1=0x80000e28
       29325000	      2931	00000000	00000013	addi	x0,x0,0	  x0:0x00000000
       29335000	      2932	80000e2c	00000013	addi	x0,x0,0	  x0:0x00000000
       29345000	      2933	80000e30	fe5ff0ef	jal	x1,80000e30	  x1=0x80000e30
       29355000	      2934	00000000	00000013	addi	x0,x0,0	  x0:0x00000000
       29365000	      2935	80000e10	00000013	addi	x0,x0,0	  x0:0x00000000
       29375000	      2936	80000e14	00c000ef	jal	x1,80000e14	  x1=0x80000e14
       29385000	      2937	00000000	00000013	addi	x0,x0,0	  x0:0x00000000
       29395000	      2938	80000e1c	00000013	addi	x0,x0,0	  x0:0x00000000
       29405000	      2939	80000e20	018000ef	jal	x1,80000e20	  x1=0x80000e20
       29415000	      2940	00000000	00000013	addi	x0,x0,0	  x0:0x00000000
       29425000	      2941	80000e34	00000013	addi	x0,x0,0	  x0:0x00000000
       29435000	      2942	80000e38	fedff36f	jal	x6,80000e38	  x6=0x80000e38
       29445000	      2943	00000000	00000013	addi	x0,x0,0	  x0:0x00000000
       29455000	      2944	80000e20	00000013	addi	x0,x0,0	  x0:0x00000000
       29465000	      2945	80000e24	ff9ff36f	jal	x6,80000e24	  x6=0x80000e24
       29475000	      2946	00000000	00000013	addi	x0,x0,0	  x0:0x00000000
       29485000	      2947	80000e18	00000013	addi	x0,x0,0	  x0:0x00000000
       29495000	      2948	80000e1c	ffdff66f	jal	x12,80000e1c	 x12=0x80000e1c
       29505000	      2949	00000000	00000013	addi	x0,x0,0	  x0:0x00000000
       29515000	      2950	80000e14	00000013	addi	x0,x0,0	  x0:0x00000000
       29525000	      2951	80000e18	01c000ef	jal	x1,80000e18	  x1=0x80000e18
       29535000	      2952	00000000	00000013	addi	x0,x0,0	  x0:0x00000000
       29545000	      2953	80000e30	00000013	addi	x0,x0,0	  x0:0x00000000
       29555000	      2954	80000e34	010000ef	jal	x1,80000e34	  x1=0x80000e34
       29565000	      2955	00000000	00000013	addi	x0,x0,0	  x0:0x00000000
       29575000	      2956	80000e40	00000013	addi	x0,x0,0	  x0:0x00000000
       29585000	      2957	80000e44	a18aca93	xori	x21,x21,-1512	 x21:0x00000001 x21=0xfffffa19
       29595000	      2958	80000e48	008000ef	jal	x1,80000e48	  x1=0x80000e48
       29605000	      2959	00000000	00000013	addi	x0,x0,0	  x0:0x00000000
       29615000	      2960	80000e4c	00000013	addi	x0,x0,0	  x0:0x00000000
       29625000	      2961	80000e50	0500036f	jal	x6,80000e50	  x6=0x80000e50
       29635000	      2962	00000000	00000013	addi	x0,x0,0	  x0:0x00000000
       29645000	      2963	80000e9c	00000013	addi	x0,x0,0	  x0:0x00000000
       29655000	      2964	80000ea0	ff1ff36f	jal	x6,80000ea0	  x6=0x80000ea0
       29665000	      2965	00000000	00000013	addi	x0,x0,0	  x0:0x00000000
       29675000	      2966	80000e8c	00000013	addi	x0,x0,0	  x0:0x00000000
       29685000	      2967	80000e90	fcdff0ef	jal	x1,80000e90	  x1=0x80000e90
       29695000	      2968	00000000	00000013	addi	x0,x0,0	  x0:0x00000000
       29705000	      2969	80000e58	00000013	addi	x0,x0,0	  x0:0x00000000
       29715000	      2970	80000e5c	020000ef	jal	x1,80000e5c	  x1=0x80000e5c
       29725000	      2971	00000000	00000013	addi	x0,x0,0	  x0:0x00000000
       29735000	      2972	80000e78	00000013	addi	x0,x0,0	  x0:0x00000000
       29745000	      2973	80000e7c	018000ef	jal	x1,80000e7c	  x1=0x80000e7c
       29755000	      2974	00000000	00000013	addi	x0,x0,0	  x0:0x00000000
       29765000	      2975	80000e90	00000013	addi	x0,x0,0	  x0:0x00000000
       29775000	      2976	80000e94	fb9ff0ef	jal	x1,80000e94	  x1=0x80000e94
       29785000	      2977	00000000	00000013	addi	x0,x0,0	  x0:0x00000000
       29795000	      2978	80000e48	00000013	addi	x0,x0,0	  x0:0x00000000
       29805000	      2979	80000e4c	034000ef	jal	x1,80000e4c	  x1=0x80000e4c
       29815000	      2980	00000000	00000013	addi	x0,x0,0	  x0:0x00000000
       29825000	      2981	80000e7c	00000013	addi	x0,x0,0	  x0:0x00000000
       29835000	      2982	80000e80	00c00b6f	jal	x22,80000e80	 x22=0x80000e80
       29845000	      2983	00000000	00000013	addi	x0,x0,0	  x0:0x00000000
       29855000	      2984	80000e88	00000013	addi	x0,x0,0	  x0:0x00000000
       29865000	      2985	80000e8c	fc9ff0ef	jal	x1,80000e8c	  x1=0x80000e8c
       29875000	      2986	00000000	00000013	addi	x0,x0,0	  x0:0x00000000
       29885000	      2987	80000e50	00000013	addi	x0,x0,0	  x0:0x00000000
       29895000	      2988	80000e54	054000ef	jal	x1,80000e54	  x1=0x80000e54
       29905000	      2989	00000000	00000013	addi	x0,x0,0	  x0:0x00000000
       29915000	      2990	80000ea4	00000013	addi	x0,x0,0	  x0:0x00000000
       29925000	      2991	80000ea8	ff5ff0ef	jal	x1,80000ea8	  x1=0x80000ea8
       29935000	      2992	00000000	00000013	addi	x0,x0,0	  x0:0x00000000
       29945000	      2993	80000e98	00000013	addi	x0,x0,0	  x0:0x00000000
       29955000	      2994	80000e9c	fe9ff0ef	jal	x1,80000e9c	  x1=0x80000e9c
       29965000	      2995	00000000	00000013	addi	x0,x0,0	  x0:0x00000000
       29975000	      2996	80000e80	00000013	addi	x0,x0,0	  x0:0x00000000
       29985000	      2997	80000e84	ff1ff0ef	jal	x1,80000e84	  x1=0x80000e84
       29995000	      2998	00000000	00000013	addi	x0,x0,0	  x0:0x00000000
       30005000	      2999	80000e70	00000013	addi	x0,x0,0	  x0:0x00000000
       30015000	      3000	80000e74	fedff36f	jal	x6,80000e74	  x6=0x80000e74
       30025000	      3001	00000000	00000013	addi	x0,x0,0	  x0:0x00000000
       30035000	      3002	80000e5c	00000013	addi	x0,x0,0	  x0:0x00000000
       30045000	      3003	80000e60	03800d6f	jal	x26,80000e60	 x26=0x80000e60
       30055000	      3004	00000000	00000013	addi	x0,x0,0	  x0:0x00000000
       30065000	      3005	80000e94	00000013	addi	x0,x0,0	  x0:0x00000000
       30075000	      3006	80000e98	00c000ef	jal	x1,80000e98	  x1=0x80000e98
       30085000	      3007	00000000	00000013	addi	x0,x0,0	  x0:0x00000000
       30095000	      3008	80000ea0	00000013	addi	x0,x0,0	  x0:0x00000000
       30105000	      3009	80000ea4	fb5ff0ef	jal	x1,80000ea4	  x1=0x80000ea4
       30115000	      3010	00000000	00000013	addi	x0,x0,0	  x0:0x00000000
       30125000	      3011	80000e54	00000013	addi	x0,x0,0	  x0:0x00000000
       30135000	      3012	80000e58	030000ef	jal	x1,80000e58	  x1=0x80000e58
       30145000	      3013	00000000	00000013	addi	x0,x0,0	  x0:0x00000000
       30155000	      3014	80000e84	00000013	addi	x0,x0,0	  x0:0x00000000
       30165000	      3015	80000e88	024000ef	jal	x1,80000e88	  x1=0x80000e88
       30175000	      3016	00000000	00000013	addi	x0,x0,0	  x0:0x00000000
       30185000	      3017	80000ea8	00000013	addi	x0,x0,0	  x0:0x00000000
       30195000	      3018	80000eac	fb9ff36f	jal	x6,80000eac	  x6=0x80000eac
       30205000	      3019	00000000	00000013	addi	x0,x0,0	  x0:0x00000000
       30215000	      3020	80000e60	00000013	addi	x0,x0,0	  x0:0x00000000
       30225000	      3021	80000e64	00c000ef	jal	x1,80000e64	  x1=0x80000e64
       30235000	      3022	00000000	00000013	addi	x0,x0,0	  x0:0x00000000
       30245000	      3023	80000e6c	00000013	addi	x0,x0,0	  x0:0x00000000
       30255000	      3024	80000e70	008000ef	jal	x1,80000e70	  x1=0x80000e70
       30265000	      3025	00000000	00000013	addi	x0,x0,0	  x0:0x00000000
       30275000	      3026	80000e74	00000013	addi	x0,x0,0	  x0:0x00000000
       30285000	      3027	80000e78	ff5ff0ef	jal	x1,80000e78	  x1=0x80000e78
       30295000	      3028	00000000	00000013	addi	x0,x0,0	  x0:0x00000000
       30305000	      3029	80000e68	00000013	addi	x0,x0,0	  x0:0x00000000
       30315000	      3030	80000e6c	044000ef	jal	x1,80000e6c	  x1=0x80000e6c
       30325000	      3031	00000000	00000013	addi	x0,x0,0	  x0:0x00000000
       30335000	      3032	80000eac	00000013	addi	x0,x0,0	  x0:0x00000000
       30345000	      3033	80000eb0	fb9ff0ef	jal	x1,80000eb0	  x1=0x80000eb0
       30355000	      3034	00000000	00000013	addi	x0,x0,0	  x0:0x00000000
       30365000	      3035	80000e64	00000013	addi	x0,x0,0	  x0:0x00000000
       30375000	      3036	80000e68	04c000ef	jal	x1,80000e68	  x1=0x80000e68
       30385000	      3037	00000000	00000013	addi	x0,x0,0	  x0:0x00000000
       30395000	      3038	80000eb0	00000013	addi	x0,x0,0	  x0:0x00000000
       30405000	      3039	80000eb4	007187b3	add	x15,x3,x7	  x3:0x80000d48  x7:0x80000cb4 x15=0x000019fc
       30415000	      3040	80000eb8	048000ef	jal	x1,80000eb8	  x1=0x80000eb8
       30425000	      3041	00000000	00000013	addi	x0,x0,0	  x0:0x00000000
       30435000	      3042	80000efc	00000013	addi	x0,x0,0	  x0:0x00000000
       30445000	      3043	80000f00	fe5ff36f	jal	x6,80000f00	  x6=0x80000f00
       30455000	      3044	00000000	00000013	addi	x0,x0,0	  x0:0x00000000
       30465000	      3045	80000ee0	00000013	addi	x0,x0,0	  x0:0x00000000
       30475000	      3046	80000ee4	014000ef	jal	x1,80000ee4	  x1=0x80000ee4
       30485000	      3047	00000000	00000013	addi	x0,x0,0	  x0:0x00000000
       30495000	      3048	80000ef4	00000013	addi	x0,x0,0	  x0:0x00000000
       30505000	      3049	80000ef8	fe5ff0ef	jal	x1,80000ef8	  x1=0x80000ef8
       30515000	      3050	00000000	00000013	addi	x0,x0,0	  x0:0x00000000
       30525000	      3051	80000ed8	00000013	addi	x0,x0,0	  x0:0x00000000
       30535000	      3052	80000edc	fe9ffdef	jal	x27,80000edc	 x27=0x80000edc
       30545000	      3053	00000000	00000013	addi	x0,x0,0	  x0:0x00000000
       30555000	      3054	80000ec0	00000013	addi	x0,x0,0	  x0:0x00000000
       30565000	      3055	80000ec4	0040026f	jal	x4,80000ec4	  x4=0x80000ec4
       30575000	      3056	00000000	00000013	addi	x0,x0,0	  x0:0x00000000
       30585000	      3057	80000ec4	00000013	addi	x0,x0,0	  x0:0x00000000
       30595000	      3058	80000ec8	028000ef	jal	x1,80000ec8	  x1=0x80000ec8
       30605000	      3059	00000000	00000013	addi	x0,x0,0	  x0:0x00000000
       30615000	      3060	80000eec	00000013	addi	x0,x0,0	  x0:0x00000000
       30625000	      3061	80000ef0	00c0036f	jal	x6,80000ef0	  x6=0x80000ef0
       30635000	      3062	00000000	00000013	addi	x0,x0,0	  x0:0x00000000
       30645000	      3063	80000ef8	00000013	addi	x0,x0,0	  x0:0x00000000
       30655000	      3064	80000efc	fedff36f	jal	x6,80000efc	  x6=0x80000efc
       30665000	      3065	00000000	00000013	addi	x0,x0,0	  x0:0x00000000
       30675000	      3066	80000ee4	00000013	addi	x0,x0,0	  x0:0x00000000
       30685000	      3067	80000ee8	fe5ff0ef	jal	x1,80000ee8	  x1=0x80000ee8
       30695000	      3068	00000000	00000013	addi	x0,x0,0	  x0:0x00000000
       30705000	      3069	80000ec8	00000013	addi	x0,x0,0	  x0:0x00000000
       30715000	      3070	80000ecc	0380036f	jal	x6,80000ecc	  x6=0x80000ecc
       30725000	      3071	00000000	00000013	addi	x0,x0,0	  x0:0x00000000
       30735000	      3072	80000f00	00000013	addi	x0,x0,0	  x0:0x00000000
       30745000	      3073	80000f04	008000ef	jal	x1,80000f04	  x1=0x80000f04
       30755000	      3074	00000000	00000013	addi	x0,x0,0	  x0:0x00000000
       30765000	      3075	80000f08	00000013	addi	x0,x0,0	  x0:0x00000000
       30775000	      3076	80000f0c	ffdff36f	jal	x6,80000f0c	  x6=0x80000f0c
       30785000	      3077	00000000	00000013	addi	x0,x0,0	  x0:0x00000000
       30795000	      3078	80000f04	00000013	addi	x0,x0,0	  x0:0x00000000
       30805000	      3079	80000f08	fb5ff0ef	jal	x1,80000f08	  x1=0x80000f08
       30815000	      3080	00000000	00000013	addi	x0,x0,0	  x0:0x00000000
       30825000	      3081	80000eb8	00000013	addi	x0,x0,0	  x0:0x00000000
       30835000	      3082	80000ebc	024000ef	jal	x1,80000ebc	  x1=0x80000ebc
       30845000	      3083	00000000	00000013	addi	x0,x0,0	  x0:0x00000000
       30855000	      3084	80000edc	00000013	addi	x0,x0,0	  x0:0x00000000
       30865000	      3085	80000ee0	ff9ff0ef	jal	x1,80000ee0	  x1=0x80000ee0
       30875000	      3086	00000000	00000013	addi	x0,x0,0	  x0:0x00000000
       30885000	      3087	80000ed4	00000013	addi	x0,x0,0	  x0:0x00000000
       30895000	      3088	80000ed8	01c0036f	jal	x6,80000ed8	  x6=0x80000ed8
       30905000	      3089	00000000	00000013	addi	x0,x0,0	  x0:0x00000000
       30915000	      3090	80000ef0	00000013	addi	x0,x0,0	  x0:0x00000000
       30925000	      3091	80000ef4	fe1ff76f	jal	x14,80000ef4	 x14=0x80000ef4
       30935000	      3092	00000000	00000013	addi	x0,x0,0	  x0:0x00000000
       30945000	      3093	80000ed0	00000013	addi	x0,x0,0	  x0:0x00000000
       30955000	      3094	80000ed4	fedff0ef	jal	x1,80000ed4	  x1=0x80000ed4
       30965000	      3095	00000000	00000013	addi	x0,x0,0	  x0:0x00000000
       30975000	      3096	80000ebc	00000013	addi	x0,x0,0	  x0:0x00000000
       30985000	      3097	80000ec0	02c000ef	jal	x1,80000ec0	  x1=0x80000ec0
       30995000	      3098	00000000	00000013	addi	x0,x0,0	  x0:0x00000000
       31005000	      3099	80000ee8	00000013	addi	x0,x0,0	  x0:0x00000000
       31015000	      3100	80000eec	fe5ff36f	jal	x6,80000eec	  x6=0x80000eec
       31025000	      3101	00000000	00000013	addi	x0,x0,0	  x0:0x00000000
       31035000	      3102	80000ecc	00000013	addi	x0,x0,0	  x0:0x00000000
       31045000	      3103	80000ed0	040000ef	jal	x1,80000ed0	  x1=0x80000ed0
       31055000	      3104	00000000	00000013	addi	x0,x0,0	  x0:0x00000000
       31065000	      3105	80000f0c	00000013	addi	x0,x0,0	  x0:0x00000000
       31075000	      3106	80000f10	0145bcb3	sltu	x25,x11,x20	 x11:0x80000bf4 x20:0x80000bd0 x25=0x00000000
       31085000	      3107	80000f14	030000ef	jal	x1,80000f14	  x1=0x80000f14
       31095000	      3108	00000000	00000013	addi	x0,x0,0	  x0:0x00000000
       31105000	      3109	80000f40	00000013	addi	x0,x0,0	  x0:0x00000000
       31115000	      3110	80000f44	ff5ff0ef	jal	x1,80000f44	  x1=0x80000f44
       31125000	      3111	00000000	00000013	addi	x0,x0,0	  x0:0x00000000
       31135000	      3112	80000f34	00000013	addi	x0,x0,0	  x0:0x00000000
       31145000	      3113	80000f38	010000ef	jal	x1,80000f38	  x1=0x80000f38
       31155000	      3114	00000000	00000013	addi	x0,x0,0	  x0:0x00000000
       31165000	      3115	80000f44	00000013	addi	x0,x0,0	  x0:0x00000000
       31175000	      3116	80000f48	0240036f	jal	x6,80000f48	  x6=0x80000f48
       31185000	      3117	00000000	00000013	addi	x0,x0,0	  x0:0x00000000
       31195000	      3118	80000f68	00000013	addi	x0,x0,0	  x0:0x00000000
       31205000	      3119	80000f6c	0080036f	jal	x6,80000f6c	  x6=0x80000f6c
       31215000	      3120	00000000	00000013	addi	x0,x0,0	  x0:0x00000000
       31225000	      3121	80000f70	00000013	addi	x0,x0,0	  x0:0x00000000
       31235000	      3122	80000f74	fbdff0ef	jal	x1,80000f74	  x1=0x80000f74
       31245000	      3123	00000000	00000013	addi	x0,x0,0	  x0:0x00000000
       31255000	      3124	80000f2c	00000013	addi	x0,x0,0	  x0:0x00000000
       31265000	      3125	80000f30	0280036f	jal	x6,80000f30	  x6=0x80000f30
       31275000	      3126	00000000	00000013	addi	x0,x0,0	  x0:0x00000000
       31285000	      3127	80000f54	00000013	addi	x0,x0,0	  x0:0x00000000
       31295000	      3128	80000f58	020000ef	jal	x1,80000f58	  x1=0x80000f58
       31305000	      3129	00000000	00000013	addi	x0,x0,0	  x0:0x00000000
       31315000	      3130	80000f74	00000013	addi	x0,x0,0	  x0:0x00000000
       31325000	      3131	80000f78	fa1ffeef	jal	x29,80000f78	 x29=0x80000f78
       31335000	      3132	00000000	00000013	addi	x0,x0,0	  x0:0x00000000
       31345000	      3133	80000f14	00000013	addi	x0,x0,0	  x0:0x00000000
       31355000	      3134	80000f18	014000ef	jal	x1,80000f18	  x1=0x80000f18
       31365000	      3135	00000000	00000013	addi	x0,x0,0	  x0:0x00000000
       31375000	      3136	80000f28	00000013	addi	x0,x0,0	  x0:0x00000000
       31385000	      3137	80000f2c	028000ef	jal	x1,80000f2c	  x1=0x80000f2c
       31395000	      3138	00000000	00000013	addi	x0,x0,0	  x0:0x00000000
       31405000	      3139	80000f50	00000013	addi	x0,x0,0	  x0:0x00000000
       31415000	      3140	80000f54	fe9ff26f	jal	x4,80000f54	  x4=0x80000f54
       31425000	      3141	00000000	00000013	addi	x0,x0,0	  x0:0x00000000
       31435000	      3142	80000f38	00000013	addi	x0,x0,0	  x0:0x00000000
       31445000	      3143	80000f3c	0280096f	jal	x18,80000f3c	 x18=0x80000f3c
       31455000	      3144	00000000	00000013	addi	x0,x0,0	  x0:0x00000000
       31465000	      3145	80000f60	00000013	addi	x0,x0,0	  x0:0x00000000
       31475000	      3146	80000f64	fe9ff26f	jal	x4,80000f64	  x4=0x80000f64
       31485000	      3147	00000000	00000013	addi	x0,x0,0	  x0:0x00000000
       31495000	      3148	80000f48	00000013	addi	x0,x0,0	  x0:0x00000000
       31505000	      3149	80000f4c	fe9ff0ef	jal	x1,80000f4c	  x1=0x80000f4c
       31515000	      3150	00000000	00000013	addi	x0,x0,0	  x0:0x00000000
       31525000	      3151	80000f30	00000013	addi	x0,x0,0	  x0:0x00000000
       31535000	      3152	80000f34	0280036f	jal	x6,80000f34	  x6=0x80000f34
       31545000	      3153	00000000	00000013	addi	x0,x0,0	  x0:0x00000000
       31555000	      3154	80000f58	00000013	addi	x0,x0,0	  x0:0x00000000
       31565000	      3155	80000f5c	ff5ff0ef	jal	x1,80000f5c	  x1=0x80000f5c
       31575000	      3156	00000000	00000013	addi	x0,x0,0	  x0:0x00000000
       31585000	      3157	80000f4c	00000013	addi	x0,x0,0	  x0:0x00000000
       31595000	      3158	80000f50	fd5ffa6f	jal	x20,80000f50	 x20=0x80000f50
       31605000	      3159	00000000	00000013	addi	x0,x0,0	  x0:0x00000000
       31615000	      3160	80000f20	00000013	addi	x0,x0,0	  x0:0x00000000
       31625000	      3161	80000f24	ff9ff36f	jal	x6,80000f24	  x6=0x80000f24
       31635000	      3162	00000000	00000013	addi	x0,x0,0	  x0:0x00000000
       31645000	      3163	80000f18	00000013	addi	x0,x0,0	  x0:0x00000000
       31655000	      3164	80000f1c	04c0036f	jal	x6,80000f1c	  x6=0x80000f1c
       31665000	      3165	00000000	00000013	addi	x0,x0,0	  x0:0x00000000
       31675000	      3166	80000f64	00000013	addi	x0,x0,0	  x0:0x00000000
       31685000	      3167	80000f68	fb9ff0ef	jal	x1,80000f68	  x1=0x80000f68
       31695000	      3168	00000000	00000013	addi	x0,x0,0	  x0:0x00000000
       31705000	      3169	80000f1c	00000013	addi	x0,x0,0	  x0:0x00000000
       31715000	      3170	80000f20	020000ef	jal	x1,80000f20	  x1=0x80000f20
       31725000	      3171	00000000	00000013	addi	x0,x0,0	  x0:0x00000000
       31735000	      3172	80000f3c	00000013	addi	x0,x0,0	  x0:0x00000000
       31745000	      3173	80000f40	020000ef	jal	x1,80000f40	  x1=0x80000f40
       31755000	      3174	00000000	00000013	addi	x0,x0,0	  x0:0x00000000
       31765000	      3175	80000f5c	00000013	addi	x0,x0,0	  x0:0x00000000
       31775000	      3176	80000f60	fc9ff36f	jal	x6,80000f60	  x6=0x80000f60
       31785000	      3177	00000000	00000013	addi	x0,x0,0	  x0:0x00000000
       31795000	      3178	80000f24	00000013	addi	x0,x0,0	  x0:0x00000000
       31805000	      3179	80000f28	048004ef	jal	x9,80000f28	  x9=0x80000f28
       31815000	      3180	00000000	00000013	addi	x0,x0,0	  x0:0x00000000
       31825000	      3181	80000f6c	00000013	addi	x0,x0,0	  x0:0x00000000
       31835000	      3182	80000f70	00c000ef	jal	x1,80000f70	  x1=0x80000f70
       31845000	      3183	00000000	00000013	addi	x0,x0,0	  x0:0x00000000
       31855000	      3184	80000f78	00000013	addi	x0,x0,0	  x0:0x00000000
       31865000	      3185	80000f7c	00111eb3	sll	x29,x2,x1	  x2:0x80009fc4  x1:0x80000f70 x29=0x9fc40000
       31875000	      3186	80000f80	004000ef	jal	x1,80000f80	  x1=0x80000f80
       31885000	      3187	00000000	00000013	addi	x0,x0,0	  x0:0x00000000
       31895000	      3188	80000f80	00000013	addi	x0,x0,0	  x0:0x00000000
       31905000	      3189	80000f84	028000ef	jal	x1,80000f84	  x1=0x80000f84
       31915000	      3190	00000000	00000013	addi	x0,x0,0	  x0:0x00000000
       31925000	      3191	80000fa8	00000013	addi	x0,x0,0	  x0:0x00000000
       31935000	      3192	80000fac	028006ef	jal	x13,80000fac	 x13=0x80000fac
       31945000	      3193	00000000	00000013	addi	x0,x0,0	  x0:0x00000000
       31955000	      3194	80000fd0	00000013	addi	x0,x0,0	  x0:0x00000000
       31965000	      3195	80000fd4	fd5ff36f	jal	x6,80000fd4	  x6=0x80000fd4
       31975000	      3196	00000000	00000013	addi	x0,x0,0	  x0:0x00000000
       31985000	      3197	80000fa4	00000013	addi	x0,x0,0	  x0:0x00000000
       31995000	      3198	80000fa8	030000ef	jal	x1,80000fa8	  x1=0x80000fa8
       32005000	      3199	00000000	00000013	addi	x0,x0,0	  x0:0x00000000
       32015000	      3200	80000fd4	00000013	addi	x0,x0,0	  x0:0x00000000
       32025000	      3201	80000fd8	fcdff0ef	jal	x1,80000fd8	  x1=0x80000fd8
       32035000	      3202	00000000	00000013	addi	x0,x0,0	  x0:0x00000000
       32045000	      3203	80000fa0	00000013	addi	x0,x0,0	  x0:0x00000000
       32055000	      3204	80000fa4	ff5ff0ef	jal	x1,80000fa4	  x1=0x80000fa4
       32065000	      3205	00000000	00000013	addi	x0,x0,0	  x0:0x00000000
       32075000	      3206	80000f94	00000013	addi	x0,x0,0	  x0:0x00000000
       32085000	      3207	80000f98	020000ef	jal	x1,80000f98	  x1=0x80000f98
       32095000	      3208	00000000	00000013	addi	x0,x0,0	  x0:0x00000000
       32105000	      3209	80000fb4	00000013	addi	x0,x0,0	  x0:0x00000000
       32115000	      3210	80000fb8	fe5ff0ef	jal	x1,80000fb8	  x1=0x80000fb8
       32125000	      3211	00000000	00000013	addi	x0,x0,0	  x0:0x00000000
       32135000	      3212	80000f98	00000013	addi	x0,x0,0	  x0:0x00000000
       32145000	      3213	80000f9c	02000f6f	jal	x30,80000f9c	 x30=0x80000f9c
       32155000	      3214	00000000	00000013	addi	x0,x0,0	  x0:0x00000000
       32165000	      3215	80000fb8	00000013	addi	x0,x0,0	  x0:0x00000000
       32175000	      3216	80000fbc	ff9ff36f	jal	x6,80000fbc	  x6=0x80000fbc
       32185000	      3217	00000000	00000013	addi	x0,x0,0	  x0:0x00000000
       32195000	      3218	80000fb0	00000013	addi	x0,x0,0	  x0:0x00000000
       32205000	      3219	80000fb4	fe1ff1ef	jal	x3,80000fb4	  x3=0x80000fb4
       32215000	      3220	00000000	00000013	addi	x0,x0,0	  x0:0x00000000
       32225000	      3221	80000f90	00000013	addi	x0,x0,0	  x0:0x00000000
       32235000	      3222	80000f94	01c000ef	jal	x1,80000f94	  x1=0x80000f94
       32245000	      3223	00000000	00000013	addi	x0,x0,0	  x0:0x00000000
       32255000	      3224	80000fac	00000013	addi	x0,x0,0	  x0:0x00000000
       32265000	      3225	80000fb0	014000ef	jal	x1,80000fb0	  x1=0x80000fb0
       32275000	      3226	00000000	00000013	addi	x0,x0,0	  x0:0x00000000
       32285000	      3227	80000fc0	00000013	addi	x0,x0,0	  x0:0x00000000
       32295000	      3228	80000fc4	fc9ff0ef	jal	x1,80000fc4	  x1=0x80000fc4
       32305000	      3229	00000000	00000013	addi	x0,x0,0	  x0:0x00000000
       32315000	      3230	80000f88	00000013	addi	x0,x0,0	  x0:0x00000000
       32325000	      3231	80000f8c	034008ef	jal	x17,80000f8c	 x17=0x80000f8c
       32335000	      3232	00000000	00000013	addi	x0,x0,0	  x0:0x00000000
       32345000	      3233	80000fbc	00000013	addi	x0,x0,0	  x0:0x00000000
       32355000	      3234	80000fc0	008000ef	jal	x1,80000fc0	  x1=0x80000fc0
       32365000	      3235	00000000	00000013	addi	x0,x0,0	  x0:0x00000000
       32375000	      3236	80000fc4	00000013	addi	x0,x0,0	  x0:0x00000000
       32385000	      3237	80000fc8	008000ef	jal	x1,80000fc8	  x1=0x80000fc8
       32395000	      3238	00000000	00000013	addi	x0,x0,0	  x0:0x00000000
       32405000	      3239	80000fcc	00000013	addi	x0,x0,0	  x0:0x00000000
       32415000	      3240	80000fd0	fc1ff0ef	jal	x1,80000fd0	  x1=0x80000fd0
       32425000	      3241	00000000	00000013	addi	x0,x0,0	  x0:0x00000000
       32435000	      3242	80000f8c	00000013	addi	x0,x0,0	  x0:0x00000000
       32445000	      3243	80000f90	ff9ff0ef	jal	x1,80000f90	  x1=0x80000f90
       32455000	      3244	00000000	00000013	addi	x0,x0,0	  x0:0x00000000
       32465000	      3245	80000f84	00000013	addi	x0,x0,0	  x0:0x00000000
       32475000	      3246	80000f88	018000ef	jal	x1,80000f88	  x1=0x80000f88
       32485000	      3247	00000000	00000013	addi	x0,x0,0	  x0:0x00000000
       32495000	      3248	80000f9c	00000013	addi	x0,x0,0	  x0:0x00000000
       32505000	      3249	80000fa0	02c000ef	jal	x1,80000fa0	  x1=0x80000fa0
       32515000	      3250	00000000	00000013	addi	x0,x0,0	  x0:0x00000000
       32525000	      3251	80000fc8	00000013	addi	x0,x0,0	  x0:0x00000000
       32535000	      3252	80000fcc	010001ef	jal	x3,80000fcc	  x3=0x80000fcc
       32545000	      3253	00000000	00000013	addi	x0,x0,0	  x0:0x00000000
       32555000	      3254	80000fd8	00000013	addi	x0,x0,0	  x0:0x00000000
       32565000	      3255	80000fdc	001ab033	sltu	x0,x21,x1	 x21:0xfffffa19  x1:0x80000fa0
       32575000	      3256	80000fe0	020000ef	jal	x1,80000fe0	  x1=0x80000fe0
       32585000	      3257	00000000	00000013	addi	x0,x0,0	  x0:0x00000000
       32595000	      3258	80000ffc	00000013	addi	x0,x0,0	  x0:0x00000000
       32605000	      3259	80001000	ffdff0ef	jal	x1,80001000	  x1=0x80001000
       32615000	      3260	00000000	00000013	addi	x0,x0,0	  x0:0x00000000
       32625000	      3261	80000ff8	00000013	addi	x0,x0,0	  x0:0x00000000
       32635000	      3262	80000ffc	ff9ff0ef	jal	x1,80000ffc	  x1=0x80000ffc
       32645000	      3263	00000000	00000013	addi	x0,x0,0	  x0:0x00000000
       32655000	      3264	80000ff0	00000013	addi	x0,x0,0	  x0:0x00000000
       32665000	      3265	80000ff4	010007ef	jal	x15,80000ff4	 x15=0x80000ff4
       32675000	      3266	00000000	00000013	addi	x0,x0,0	  x0:0x00000000
       32685000	      3267	80001000	00000013	addi	x0,x0,0	  x0:0x00000000
       32695000	      3268	80001004	fe9ff0ef	jal	x1,80001004	  x1=0x80001004
       32705000	      3269	00000000	00000013	addi	x0,x0,0	  x0:0x00000000
       32715000	      3270	80000fe8	00000013	addi	x0,x0,0	  x0:0x00000000
       32725000	      3271	80000fec	02800fef	jal	x31,80000fec	 x31=0x80000fec
       32735000	      3272	00000000	00000013	addi	x0,x0,0	  x0:0x00000000
       32745000	      3273	80001010	00000013	addi	x0,x0,0	  x0:0x00000000
       32755000	      3274	80001014	ff9ff0ef	jal	x1,80001014	  x1=0x80001014
       32765000	      3275	00000000	00000013	addi	x0,x0,0	  x0:0x00000000
       32775000	      3276	80001008	00000013	addi	x0,x0,0	  x0:0x00000000
       32785000	      3277	8000100c	00c000ef	jal	x1,8000100c	  x1=0x8000100c
       32795000	      3278	00000000	00000013	addi	x0,x0,0	  x0:0x00000000
       32805000	      3279	80001014	00000013	addi	x0,x0,0	  x0:0x00000000
       32815000	      3280	80001018	ff9ff0ef	jal	x1,80001018	  x1=0x80001018
       32825000	      3281	00000000	00000013	addi	x0,x0,0	  x0:0x00000000
       32835000	      3282	8000100c	00000013	addi	x0,x0,0	  x0:0x00000000
       32845000	      3283	80001010	fd9ff1ef	jal	x3,80001010	  x3=0x80001010
       32855000	      3284	00000000	00000013	addi	x0,x0,0	  x0:0x00000000
       32865000	      3285	80000fe4	00000013	addi	x0,x0,0	  x0:0x00000000
       32875000	      3286	80000fe8	010000ef	jal	x1,80000fe8	  x1=0x80000fe8
       32885000	      3287	00000000	00000013	addi	x0,x0,0	  x0:0x00000000
       32895000	      3288	80000ff4	00000013	addi	x0,x0,0	  x0:0x00000000
       32905000	      3289	80000ff8	fedff0ef	jal	x1,80000ff8	  x1=0x80000ff8
       32915000	      3290	00000000	00000013	addi	x0,x0,0	  x0:0x00000000
       32925000	      3291	80000fe0	00000013	addi	x0,x0,0	  x0:0x00000000
       32935000	      3292	80000fe4	0240036f	jal	x6,80000fe4	  x6=0x80000fe4
       32945000	      3293	00000000	00000013	addi	x0,x0,0	  x0:0x00000000
       32955000	      3294	80001004	00000013	addi	x0,x0,0	  x0:0x00000000
       32965000	      3295	80001008	fe9ff36f	jal	x6,80001008	  x6=0x80001008
       32975000	      3296	00000000	00000013	addi	x0,x0,0	  x0:0x00000000
       32985000	      3297	80000fec	00000013	addi	x0,x0,0	  x0:0x00000000
       32995000	      3298	80000ff0	02c0026f	jal	x4,80000ff0	  x4=0x80000ff0
       33005000	      3299	00000000	00000013	addi	x0,x0,0	  x0:0x00000000
       33015000	      3300	80001018	00000013	addi	x0,x0,0	  x0:0x00000000
       33025000	      3301	8000101c	aac42f13	slti	x30,x8,-1364	  x8:0x80000dfc x30=0x00000001
       33035000	      3302	80001020	008000ef	jal	x1,80001020	  x1=0x80001020
       33045000	      3303	00000000	00000013	addi	x0,x0,0	  x0:0x00000000
       33055000	      3304	80001024	00000013	addi	x0,x0,0	  x0:0x00000000
       33065000	      3305	80001028	0280056f	jal	x10,80001028	 x10=0x80001028
       33075000	      3306	00000000	00000013	addi	x0,x0,0	  x0:0x00000000
       33085000	      3307	8000104c	00000013	addi	x0,x0,0	  x0:0x00000000
       33095000	      3308	80001050	fe9ff0ef	jal	x1,80001050	  x1=0x80001050
       33105000	      3309	00000000	00000013	addi	x0,x0,0	  x0:0x00000000
       33115000	      3310	80001034	00000013	addi	x0,x0,0	  x0:0x00000000
       33125000	      3311	80001038	ff9ff0ef	jal	x1,80001038	  x1=0x80001038
       33135000	      3312	00000000	00000013	addi	x0,x0,0	  x0:0x00000000
       33145000	      3313	8000102c	00000013	addi	x0,x0,0	  x0:0x00000000
       33155000	      3314	80001030	0240036f	jal	x6,80001030	  x6=0x80001030
       33165000	      3315	00000000	00000013	addi	x0,x0,0	  x0:0x00000000
       33175000	      3316	80001050	00000013	addi	x0,x0,0	  x0:0x00000000
       33185000	      3317	80001054	fe9ff0ef	jal	x1,80001054	  x1=0x80001054
       33195000	      3318	00000000	00000013	addi	x0,x0,0	  x0:0x00000000
       33205000	      3319	80001038	00000013	addi	x0,x0,0	  x0:0x00000000
       33215000	      3320	8000103c	008000ef	jal	x1,8000103c	  x1=0x8000103c
       33225000	      3321	00000000	00000013	addi	x0,x0,0	  x0:0x00000000
       33235000	      3322	80001040	00000013	addi	x0,x0,0	  x0:0x00000000
       33245000	      3323	80001044	ffdff66f	jal	x12,80001044	 x12=0x80001044
       33255000	      3324	00000000	00000013	addi	x0,x0,0	  x0:0x00000000
       33265000	      3325	8000103c	00000013	addi	x0,x0,0	  x0:0x00000000
       33275000	      3326	80001040	00c000ef	jal	x1,80001040	  x1=0x80001040
       33285000	      3327	00000000	00000013	addi	x0,x0,0	  x0:0x00000000
       33295000	      3328	80001048	00000013	addi	x0,x0,0	  x0:0x00000000
       33305000	      3329	8000104c	fe1ff36f	jal	x6,8000104c	  x6=0x8000104c
       33315000	      3330	00000000	00000013	addi	x0,x0,0	  x0:0x00000000
       33325000	      3331	80001028	00000013	addi	x0,x0,0	  x0:0x00000000
       33335000	      3332	8000102c	01c0036f	jal	x6,8000102c	  x6=0x8000102c
       33345000	      3333	00000000	00000013	addi	x0,x0,0	  x0:0x00000000
       33355000	      3334	80001044	00000013	addi	x0,x0,0	  x0:0x00000000
       33365000	      3335	80001048	fddff36f	jal	x6,80001048	  x6=0x80001048
       33375000	      3336	00000000	00000013	addi	x0,x0,0	  x0:0x00000000
       33385000	      3337	80001020	00000013	addi	x0,x0,0	  x0:0x00000000
       33395000	      3338	80001024	010000ef	jal	x1,80001024	  x1=0x80001024
       33405000	      3339	00000000	00000013	addi	x0,x0,0	  x0:0x00000000
       33415000	      3340	80001030	00000013	addi	x0,x0,0	  x0:0x00000000
       33425000	      3341	80001034	024000ef	jal	x1,80001034	  x1=0x80001034
       33435000	      3342	00000000	00000013	addi	x0,x0,0	  x0:0x00000000
       33445000	      3343	80001054	00000013	addi	x0,x0,0	  x0:0x00000000
       33455000	      3344	80001058	01d231b3	sltu	x3,x4,x29	  x4:0x80000ff0 x29:0x9fc40000  x3=0x00000001
       33465000	      3345	8000105c	034000ef	jal	x1,8000105c	  x1=0x8000105c
       33475000	      3346	00000000	00000013	addi	x0,x0,0	  x0:0x00000000
       33485000	      3347	8000108c	00000013	addi	x0,x0,0	  x0:0x00000000
       33495000	      3348	80001090	fe5ff0ef	jal	x1,80001090	  x1=0x80001090
       33505000	      3349	00000000	00000013	addi	x0,x0,0	  x0:0x00000000
       33515000	      3350	80001070	00000013	addi	x0,x0,0	  x0:0x00000000
       33525000	      3351	80001074	01400d6f	jal	x26,80001074	 x26=0x80001074
       33535000	      3352	00000000	00000013	addi	x0,x0,0	  x0:0x00000000
       33545000	      3353	80001084	00000013	addi	x0,x0,0	  x0:0x00000000
       33555000	      3354	80001088	0040036f	jal	x6,80001088	  x6=0x80001088
       33565000	      3355	00000000	00000013	addi	x0,x0,0	  x0:0x00000000
       33575000	      3356	80001088	00000013	addi	x0,x0,0	  x0:0x00000000
       33585000	      3357	8000108c	ff5ff0ef	jal	x1,8000108c	  x1=0x8000108c
       33595000	      3358	00000000	00000013	addi	x0,x0,0	  x0:0x00000000
       33605000	      3359	8000107c	00000013	addi	x0,x0,0	  x0:0x00000000
       33615000	      3360	80001080	01c0026f	jal	x4,80001080	  x4=0x80001080
       33625000	      3361	00000000	00000013	addi	x0,x0,0	  x0:0x00000000
       33635000	      3362	80001098	00000013	addi	x0,x0,0	  x0:0x00000000
       33645000	      3363	8000109c	00800cef	jal	x25,8000109c	 x25=0x8000109c
       33655000	      3364	00000000	00000013	addi	x0,x0,0	  x0:0x00000000
       33665000	      3365	800010a0	00000013	addi	x0,x0,0	  x0:0x00000000
       33675000	      3366	800010a4	fcdff0ef	jal	x1,800010a4	  x1=0x800010a4
       33685000	      3367	00000000	00000013	addi	x0,x0,0	  x0:0x00000000
       33695000	      3368	8000106c	00000013	addi	x0,x0,0	  x0:0x00000000
       33705000	      3369	80001070	03c000ef	jal	x1,80001070	  x1=0x80001070
       33715000	      3370	00000000	00000013	addi	x0,x0,0	  x0:0x00000000
       33725000	      3371	800010a8	00000013	addi	x0,x0,0	  x0:0x00000000
       33735000	      3372	800010ac	ffdff0ef	jal	x1,800010ac	  x1=0x800010ac
       33745000	      3373	00000000	00000013	addi	x0,x0,0	  x0:0x00000000
       33755000	      3374	800010a4	00000013	addi	x0,x0,0	  x0:0x00000000
       33765000	      3375	800010a8	fd5ff5ef	jal	x11,800010a8	 x11=0x800010a8
       33775000	      3376	00000000	00000013	addi	x0,x0,0	  x0:0x00000000
       33785000	      3377	80001078	00000013	addi	x0,x0,0	  x0:0x00000000
       33795000	      3378	8000107c	fe9ff36f	jal	x6,8000107c	  x6=0x8000107c
       33805000	      3379	00000000	00000013	addi	x0,x0,0	  x0:0x00000000
       33815000	      3380	80001060	00000013	addi	x0,x0,0	  x0:0x00000000
       33825000	      3381	80001064	ffdff36f	jal	x6,80001064	  x6=0x80001064
       33835000	      3382	00000000	00000013	addi	x0,x0,0	  x0:0x00000000
       33845000	      3383	8000105c	00000013	addi	x0,x0,0	  x0:0x00000000
       33855000	      3384	80001060	034000ef	jal	x1,80001060	  x1=0x80001060
       33865000	      3385	00000000	00000013	addi	x0,x0,0	  x0:0x00000000
       33875000	      3386	80001090	00000013	addi	x0,x0,0	  x0:0x00000000
       33885000	      3387	80001094	0200036f	jal	x6,80001094	  x6=0x80001094
       33895000	      3388	00000000	00000013	addi	x0,x0,0	  x0:0x00000000
       33905000	      3389	800010b0	00000013	addi	x0,x0,0	  x0:0x00000000
       33915000	      3390	800010b4	fedff0ef	jal	x1,800010b4	  x1=0x800010b4
       33925000	      3391	00000000	00000013	addi	x0,x0,0	  x0:0x00000000
       33935000	      3392	8000109c	00000013	addi	x0,x0,0	  x0:0x00000000
       33945000	      3393	800010a0	0100036f	jal	x6,800010a0	  x6=0x800010a0
       33955000	      3394	00000000	00000013	addi	x0,x0,0	  x0:0x00000000
       33965000	      3395	800010ac	00000013	addi	x0,x0,0	  x0:0x00000000
       33975000	      3396	800010b0	fb9ff0ef	jal	x1,800010b0	  x1=0x800010b0
       33985000	      3397	00000000	00000013	addi	x0,x0,0	  x0:0x00000000
       33995000	      3398	80001064	00000013	addi	x0,x0,0	  x0:0x00000000
       34005000	      3399	80001068	0300036f	jal	x6,80001068	  x6=0x80001068
       34015000	      3400	00000000	00000013	addi	x0,x0,0	  x0:0x00000000
       34025000	      3401	80001094	00000013	addi	x0,x0,0	  x0:0x00000000
       34035000	      3402	80001098	fe1ff0ef	jal	x1,80001098	  x1=0x80001098
       34045000	      3403	00000000	00000013	addi	x0,x0,0	  x0:0x00000000
       34055000	      3404	80001074	00000013	addi	x0,x0,0	  x0:0x00000000
       34065000	      3405	80001078	00c000ef	jal	x1,80001078	  x1=0x80001078
       34075000	      3406	00000000	00000013	addi	x0,x0,0	  x0:0x00000000
       34085000	      3407	80001080	00000013	addi	x0,x0,0	  x0:0x00000000
       34095000	      3408	80001084	fe9ff36f	jal	x6,80001084	  x6=0x80001084
       34105000	      3409	00000000	00000013	addi	x0,x0,0	  x0:0x00000000
       34115000	      3410	80001068	00000013	addi	x0,x0,0	  x0:0x00000000
       34125000	      3411	8000106c	04c0056f	jal	x10,8000106c	 x10=0x8000106c
       34135000	      3412	00000000	00000013	addi	x0,x0,0	  x0:0x00000000
       34145000	      3413	800010b4	00000013	addi	x0,x0,0	  x0:0x00000000
       34155000	      3414	800010b8	72d2e413	ori	x8,x5,1837	  x5:0x80000c34  x8=0x80000f3d
       34165000	      3415	800010bc	040000ef	jal	x1,800010bc	  x1=0x800010bc
       34175000	      3416	00000000	00000013	addi	x0,x0,0	  x0:0x00000000
       34185000	      3417	800010f8	00000013	addi	x0,x0,0	  x0:0x00000000
       34195000	      3418	800010fc	fc5ff36f	jal	x6,800010fc	  x6=0x800010fc
       34205000	      3419	00000000	00000013	addi	x0,x0,0	  x0:0x00000000
       34215000	      3420	800010bc	00000013	addi	x0,x0,0	  x0:0x00000000
       34225000	      3421	800010c0	03400c6f	jal	x24,800010c0	 x24=0x800010c0
       34235000	      3422	00000000	00000013	addi	x0,x0,0	  x0:0x00000000
       34245000	      3423	800010f0	00000013	addi	x0,x0,0	  x0:0x00000000
       34255000	      3424	800010f4	010000ef	jal	x1,800010f4	  x1=0x800010f4
       34265000	      3425	00000000	00000013	addi	x0,x0,0	  x0:0x00000000
       34275000	      3426	80001100	00000013	addi	x0,x0,0	  x0:0x00000000
       34285000	      3427	80001104	fd9ff0ef	jal	x1,80001104	  x1=0x80001104
       34295000	      3428	00000000	00000013	addi	x0,x0,0	  x0:0x00000000
       34305000	      3429	800010d8	00000013	addi	x0,x0,0	  x0:0x00000000
       34315000	      3430	800010dc	ff1ff0ef	jal	x1,800010dc	  x1=0x800010dc
       34325000	      3431	00000000	00000013	addi	x0,x0,0	  x0:0x00000000
       34335000	      3432	800010c8	00000013	addi	x0,x0,0	  x0:0x00000000
       34345000	      3433	800010cc	020000ef	jal	x1,800010cc	  x1=0x800010cc
       34355000	      3434	00000000	00000013	addi	x0,x0,0	  x0:0x00000000
       34365000	      3435	800010e8	00000013	addi	x0,x0,0	  x0:0x00000000
       34375000	      3436	800010ec	020000ef	jal	x1,800010ec	  x1=0x800010ec
       34385000	      3437	00000000	00000013	addi	x0,x0,0	  x0:0x00000000
       34395000	      3438	80001108	00000013	addi	x0,x0,0	  x0:0x00000000
       34405000	      3439	8000110c	fe5ff8ef	jal	x17,8000110c	 x17=0x8000110c
       34415000	      3440	00000000	00000013	addi	x0,x0,0	  x0:0x00000000
       34425000	      3441	800010ec	00000013	addi	x0,x0,0	  x0:0x00000000
       34435000	      3442	800010f0	fe1ff0ef	jal	x1,800010f0	  x1=0x800010f0
       34445000	      3443	00000000	00000013	addi	x0,x0,0	  x0:0x00000000
       34455000	      3444	800010cc	00000013	addi	x0,x0,0	  x0:0x00000000
       34465000	      3445	800010d0	014000ef	jal	x1,800010d0	  x1=0x800010d0
       34475000	      3446	00000000	00000013	addi	x0,x0,0	  x0:0x00000000
       34485000	      3447	800010e0	00000013	addi	x0,x0,0	  x0:0x00000000
       34495000	      3448	800010e4	ff1ff0ef	jal	x1,800010e4	  x1=0x800010e4
       34505000	      3449	00000000	00000013	addi	x0,x0,0	  x0:0x00000000
       34515000	      3450	800010d0	00000013	addi	x0,x0,0	  x0:0x00000000
       34525000	      3451	800010d4	ff5ff36f	jal	x6,800010d4	  x6=0x800010d4
       34535000	      3452	00000000	00000013	addi	x0,x0,0	  x0:0x00000000
       34545000	      3453	800010c4	00000013	addi	x0,x0,0	  x0:0x00000000
       34555000	      3454	800010c8	030002ef	jal	x5,800010c8	  x5=0x800010c8
       34565000	      3455	00000000	00000013	addi	x0,x0,0	  x0:0x00000000
       34575000	      3456	800010f4	00000013	addi	x0,x0,0	  x0:0x00000000
       34585000	      3457	800010f8	fe9ff0ef	jal	x1,800010f8	  x1=0x800010f8
       34595000	      3458	00000000	00000013	addi	x0,x0,0	  x0:0x00000000
       34605000	      3459	800010dc	00000013	addi	x0,x0,0	  x0:0x00000000
       34615000	      3460	800010e0	0080046f	jal	x8,800010e0	  x8=0x800010e0
       34625000	      3461	00000000	00000013	addi	x0,x0,0	  x0:0x00000000
       34635000	      3462	800010e4	00000013	addi	x0,x0,0	  x0:0x00000000
       34645000	      3463	800010e8	fddff1ef	jal	x3,800010e8	  x3=0x800010e8
       34655000	      3464	00000000	00000013	addi	x0,x0,0	  x0:0x00000000
       34665000	      3465	800010c0	00000013	addi	x0,x0,0	  x0:0x00000000
       34675000	      3466	800010c4	014000ef	jal	x1,800010c4	  x1=0x800010c4
       34685000	      3467	00000000	00000013	addi	x0,x0,0	  x0:0x00000000
       34695000	      3468	800010d4	00000013	addi	x0,x0,0	  x0:0x00000000
       34705000	      3469	800010d8	0300036f	jal	x6,800010d8	  x6=0x800010d8
       34715000	      3470	00000000	00000013	addi	x0,x0,0	  x0:0x00000000
       34725000	      3471	80001104	00000013	addi	x0,x0,0	  x0:0x00000000
       34735000	      3472	80001108	ff9ff0ef	jal	x1,80001108	  x1=0x80001108
       34745000	      3473	00000000	00000013	addi	x0,x0,0	  x0:0x00000000
       34755000	      3474	800010fc	00000013	addi	x0,x0,0	  x0:0x00000000
       34765000	      3475	80001100	010000ef	jal	x1,80001100	  x1=0x80001100
       34775000	      3476	00000000	00000013	addi	x0,x0,0	  x0:0x00000000
       34785000	      3477	8000110c	00000013	addi	x0,x0,0	  x0:0x00000000
       34795000	      3478	80001110	00842eb3	slt	x29,x8,x8	  x8:0x800010e0  x8:0x800010e0 x29=0x00000000
       34805000	      3479	80001114	0080a5b3	slt	x11,x1,x8	  x1:0x80001100  x8:0x800010e0 x11=0x00000000
       34815000	      3480	80001118	00dbb293	sltiu	x5,x23,13	 x23:0x80000d38  x5=0x00000000
       34825000	      3481	8000111c	01677cb3	and	x25,x14,x22	 x14:0x80000ef4 x22:0x80000e80 x25=0x80000e80
       34835000	      3482	80001120	cf943793	sltiu	x15,x8,-775	  x8:0x800010e0 x15=0x00000001
       34845000	      3483	80001124	56cd4d13	xori	x26,x26,1388	 x26:0x80001074 x26=0x80001518
       34855000	      3484	80001128	40675cb3	sra	x25,x14,x6	 x14:0x80000ef4  x6:0x800010d8 x25=0xffffff80
       34865000	      3485	8000112c	263b2997	auipc	x19,0x263b2	 x19=0xa63b3128
       34875000	      3486	80001130	013e8e63	beq	x29,x19,8000114c	 x29:0x00000000 x19:0xa63b3128
       34885000	      3487	80001134	00865f13	srli	x30,x12,0x8	 x12:0x80001044 x30=0x00800010
       34895000	      3488	80001138	0422d063	bge	x5,x2,80001178	  x5:0x00000000  x2:0x80009fc4
       34905000	      3489	00000000	00000013	addi	x0,x0,0	  x0:0x00000000
       34915000	      3490	80001174	00000013	addi	x0,x0,0	  x0:0x00000000
       34925000	      3491	80001178	febba793	slti	x15,x23,-21	 x23:0x80000d38 x15=0x00000001
       34935000	      3492	8000117c	01359ab3	sll	x21,x11,x19	 x11:0x00000000 x19:0xa63b3128 x21=0x00000000
       34945000	      3493	80001180	01104433	xor	x8,x0,x17	  x0:0x00000000 x17:0x8000110c  x8=0x8000110c
       34955000	      3494	80001184	03764863	blt	x12,x23,800011b4	 x12:0x80001044 x23:0x80000d38
       34965000	      3495	80001188	00721893	slli	x17,x4,0x7	  x4:0x80001080 x17=0x00084000
       34975000	      3496	8000118c	00e9fe63	bgeu	x19,x14,800011a8	 x19:0xa63b3128 x14:0x80000ef4
       34985000	      3497	00000000	00000013	addi	x0,x0,0	  x0:0x00000000
       34995000	      3498	800011a4	00000013	addi	x0,x0,0	  x0:0x00000000
       35005000	      3499	800011a8	ea2c3f13	sltiu	x30,x24,-350	 x24:0x800010c0 x30=0x00000001
       35015000	      3500	800011ac	00000013	addi	x0,x0,0	  x0:0x00000000
       35025000	      3501	800011b0	03ff5e63	bge	x30,x31,800011ec	 x30:0x00000001 x31:0x80000fec
       35035000	      3502	00000000	00000013	addi	x0,x0,0	  x0:0x00000000
       35045000	      3503	800011e8	00000013	addi	x0,x0,0	  x0:0x00000000
       35055000	      3504	800011ec	01de00b3	add	x1,x28,x29	 x28:0x80009f1c x29:0x00000000  x1=0x80009f1c
       35065000	      3505	800011f0	40d604b3	sub	x9,x12,x13	 x12:0x80001044 x13:0x80000fac  x9=0x00000098
       35075000	      3506	800011f4	008cf663	bgeu	x25,x8,80001200	 x25:0xffffff80  x8:0x8000110c
       35085000	      3507	00000000	00000013	addi	x0,x0,0	  x0:0x00000000
       35095000	      3508	800011fc	00000013	addi	x0,x0,0	  x0:0x00000000
       35105000	      3509	80001200	73ec2613	slti	x12,x24,1854	 x24:0x800010c0 x12=0x00000001
       35115000	      3510	80001204	7120c893	xori	x17,x1,1810	  x1:0x80009f1c x17=0x8000980e
       35125000	      3511	80001208	866b3413	sltiu	x8,x22,-1946	 x22:0x80000e80  x8=0x00000001
       35135000	      3512	8000120c	055b7463	bgeu	x22,x21,80001254	 x22:0x80000e80 x21:0x00000000
       35145000	      3513	00000000	00000013	addi	x0,x0,0	  x0:0x00000000
       35155000	      3514	80001250	00000013	addi	x0,x0,0	  x0:0x00000000
       35165000	      3515	80001254	00000013	addi	x0,x0,0	  x0:0x00000000
       35175000	      3516	80001258	41690633	sub	x12,x18,x22	 x18:0x80000f3c x22:0x80000e80 x12=0x000000bc
       35185000	      3517	8000125c	00000013	addi	x0,x0,0	  x0:0x00000000
       35195000	      3518	80001260	01c06a63	bltu	x0,x28,80001274	  x0:0x00000000 x28:0x80009f1c
       35205000	      3519	00000000	00000013	addi	x0,x0,0	  x0:0x00000000
       35215000	      3520	80001270	00000013	addi	x0,x0,0	  x0:0x00000000
       35225000	      3521	80001274	014bd263	bge	x23,x20,80001278	 x23:0x80000d38 x20:0x80000f50
       35235000	      3522	80001278	018ed0b3	srl	x1,x29,x24	 x29:0x00000000 x24:0x800010c0  x1=0x00000000
       35245000	      3523	8000127c	401ed713	srai	x14,x29,0x1	 x29:0x00000000 x14=0x00000000
       35255000	      3524	80001280	016e43b3	xor	x7,x28,x22	 x28:0x80009f1c x22:0x80000e80  x7=0x0000919c
       35265000	      3525	80001284	dfe30b13	addi	x22,x6,-514	  x6:0x800010d8 x22=0x80000ed6
       35275000	      3526	80001288	405c8cb3	sub	x25,x25,x5	 x25:0xffffff80  x5:0x00000000 x25=0xffffff80
       35285000	      3527	8000128c	00416863	bltu	x2,x4,8000129c	  x2:0x80009fc4  x4:0x80001080
       35295000	      3528	80001290	004a7e63	bgeu	x20,x4,800012ac	 x20:0x80000f50  x4:0x80001080
       35305000	      3529	80001294	00355a93	srli	x21,x10,0x3	 x10:0x8000106c x21=0x1000020d
       35315000	      3530	80001298	4015d733	sra	x14,x11,x1	 x11:0x00000000  x1:0x00000000 x14=0x00000000
       35325000	      3531	8000129c	410fd213	srai	x4,x31,0x10	 x31:0x80000fec  x4=0xffff8000
       35335000	      3532	800012a0	02c16863	bltu	x2,x12,800012d0	  x2:0x80009fc4 x12:0x000000bc
       35345000	      3533	800012a4	052ed063	bge	x29,x18,800012e4	 x29:0x00000000 x18:0x80000f3c
       35355000	      3534	00000000	00000013	addi	x0,x0,0	  x0:0x00000000
       35365000	      3535	800012e0	00000013	addi	x0,x0,0	  x0:0x00000000
       35375000	      3536	800012e4	006046b3	xor	x13,x0,x6	  x0:0x00000000  x6:0x800010d8 x13=0x800010d8
       35385000	      3537	800012e8	0013c463	blt	x7,x1,800012f0	  x7:0x0000919c  x1:0x00000000
       35395000	      3538	800012ec	e8b3ee93	ori	x29,x7,-373	  x7:0x0000919c x29=0xffffff9f
       35405000	      3539	800012f0	00c26bb3	or	x23,x4,x12	  x4:0xffff8000 x12:0x000000bc x23=0xffff80bc
       35415000	      3540	800012f4	8833ef93	ori	x31,x7,-1917	  x7:0x0000919c x31=0xfffff99f
       35425000	      3541	800012f8	04bba393	slti	x7,x23,75	 x23:0xffff80bc  x7=0x00000001
       35435000	      3542	800012fc	45232993	slti	x19,x6,1106	  x6:0x800010d8 x19=0x00000001
       35445000	      3543	80001300	009bee63	bltu	x23,x9,8000131c	 x23:0xffff80bc  x9:0x00000098
       35455000	      3544	80001304	00db5e93	srli	x29,x22,0xd	 x22:0x80000ed6 x29=0x00040000
       35465000	      3545	80001308	7ace39b7	lui	x19,0x7ace3	 x19=0x7ace3000
       35475000	      3546	8000130c	0105c263	blt	x11,x16,80001310	 x11:0x00000000 x16:0x135afdaa
       35485000	      3547	00000000	00000013	addi	x0,x0,0	  x0:0x00000000
       35495000	      3548	8000130c	00000013	addi	x0,x0,0	  x0:0x00000000
       35505000	      3549	80001310	00f5c663	blt	x11,x15,8000131c	 x11:0x00000000 x15:0x00000001
       35515000	      3550	00000000	00000013	addi	x0,x0,0	  x0:0x00000000
       35525000	      3551	80001318	00000013	addi	x0,x0,0	  x0:0x00000000
       35535000	      3552	8000131c	01db0a33	add	x20,x22,x29	 x22:0x80000ed6 x29:0x00040000 x20=0x80040ed6
       35545000	      3553	80001320	01df5e63	bge	x30,x29,8000133c	 x30:0x00000001 x29:0x00040000
       35555000	      3554	80001324	7caa3d93	sltiu	x27,x20,1994	 x20:0x80040ed6 x27=0x00000000
       35565000	      3555	80001328	003d5b13	srli	x22,x26,0x3	 x26:0x80001518 x22=0x100002a3
       35575000	      3556	8000132c	00b08d33	add	x26,x1,x11	  x1:0x00000000 x11:0x00000000 x26=0x00000000
       35585000	      3557	80001330	00b0c033	xor	x0,x1,x11	  x1:0x00000000 x11:0x00000000
       35595000	      3558	80001334	d3c63693	sltiu	x13,x12,-708	 x12:0x000000bc x13=0x00000001
       35605000	      3559	80001338	40edda93	srai	x21,x27,0xe	 x27:0x00000000 x21=0x00000000
       35615000	      3560	8000133c	00621293	slli	x5,x4,0x6	  x4:0xffff8000  x5=0xffe00000
       35625000	      3561	80001340	a4167313	andi	x6,x12,-1471	 x12:0x000000bc  x6=0x00000000
       35635000	      3562	80001344	781a6d13	ori	x26,x20,1921	 x20:0x80040ed6 x26=0x80040fd7
       35645000	      3563	80001348	41c4da33	sra	x20,x9,x28	  x9:0x00000098 x28:0x80009f1c x20=0x00000000
       35655000	      3564	8000134c	a6dd0d93	addi	x27,x26,-1427	 x26:0x80040fd7 x27=0x80040a44
       35665000	      3565	80001350	00263633	sltu	x12,x12,x2	 x12:0x000000bc  x2:0x80009fc4 x12=0x00000001
       35675000	      3566	80001354	421b73b7	lui	x7,0x421b7	  x7=0x421b7000
       35685000	      3567	80001358	01cd9333	sll	x6,x27,x28	 x27:0x80040a44 x28:0x80009f1c  x6=0x40000000
       35695000	      3568	8000135c	018d7b33	and	x22,x26,x24	 x26:0x80040fd7 x24:0x800010c0 x22=0x800000c0
       35705000	      3569	80001360	01eb6c33	or	x24,x22,x30	 x22:0x800000c0 x30:0x00000001 x24=0x800000c1
       35715000	      3570	80001364	f3dca013	slti	x0,x25,-195	 x25:0xffffff80
       35725000	      3571	80001368	03288863	beq	x17,x18,80001398	 x17:0x8000980e x18:0x80000f3c
       35735000	      3572	8000136c	4015dd93	srai	x27,x11,0x1	 x11:0x00000000 x27=0x00000000
       35745000	      3573	80001370	00621513	slli	x10,x4,0x6	  x4:0xffff8000 x10=0xffe00000
       35755000	      3574	80001374	007e3c33	sltu	x24,x28,x7	 x28:0x80009f1c  x7:0x421b7000 x24=0x00000000
       35765000	      3575	80001378	00bdbdb3	sltu	x27,x27,x11	 x27:0x00000000 x11:0x00000000 x27=0x00000000
       35775000	      3576	8000137c	78877697	auipc	x13,0x78877	 x13=0xf8878378
       35785000	      3577	80001380	dc496613	ori	x12,x18,-572	 x18:0x80000f3c x12=0xfffffffc
       35795000	      3578	80001384	03345463	bge	x8,x19,800013ac	  x8:0x00000001 x19:0x7ace3000
       35805000	      3579	80001388	4012d613	srai	x12,x5,0x1	  x5:0xffe00000 x12=0xfff00000
       35815000	      3580	8000138c	0181a1b3	slt	x3,x3,x24	  x3:0x800010e8 x24:0x00000000  x3=0x00000001
       35825000	      3581	80001390	0c49b313	sltiu	x6,x19,196	 x19:0x7ace3000  x6=0x00000000
       35835000	      3582	80001394	00339433	sll	x8,x7,x3	  x7:0x421b7000  x3:0x00000001  x8=0x8436e000
       35845000	      3583	80001398	5c472713	slti	x14,x14,1476	 x14:0x00000000 x14=0x00000001
       35855000	      3584	8000139c	d9f70893	addi	x17,x14,-609	 x14:0x00000001 x17=0xfffffda0
       35865000	      3585	800013a0	00000013	addi	x0,x0,0	  x0:0x00000000
       35875000	      3586	800013a4	a2e23d17	auipc	x26,0xa2e23	 x26=0x22e243a0
       35885000	      3587	800013a8	0489e063	bltu	x19,x8,800013e8	 x19:0x7ace3000  x8:0x8436e000
       35895000	      3588	00000000	00000013	addi	x0,x0,0	  x0:0x00000000
       35905000	      3589	800013e4	00000013	addi	x0,x0,0	  x0:0x00000000
       35915000	      3590	800013e8	001d4bb3	xor	x23,x26,x1	 x26:0x22e243a0  x1:0x00000000 x23=0x22e243a0
       35925000	      3591	800013ec	00000013	addi	x0,x0,0	  x0:0x00000000
       35935000	      3592	800013f0	410cd593	srai	x11,x25,0x10	 x25:0xffffff80 x11=0xffffffff
       35945000	      3593	800013f4	00fe6263	bltu	x28,x15,800013f8	 x28:0x80009f1c x15:0x00000001
       35955000	      3594	800013f8	01fcadb3	slt	x27,x25,x31	 x25:0xffffff80 x31:0xfffff99f x27=0x00000000
       35965000	      3595	800013fc	016ca4b3	slt	x9,x25,x22	 x25:0xffffff80 x22:0x800000c0  x9=0x00000000
       35975000	      3596	80001400	0056da33	srl	x20,x13,x5	 x13:0xf8878378  x5:0xffe00000 x20=0xf8878378
       35985000	      3597	80001404	00e77333	and	x6,x14,x14	 x14:0x00000001 x14:0x00000001  x6=0x00000001
       35995000	      3598	80001408	44c8cd93	xori	x27,x17,1100	 x17:0xfffffda0 x27=0xfffff9ec
       36005000	      3599	8000140c	01c9e7b3	or	x15,x19,x28	 x19:0x7ace3000 x28:0x80009f1c x15=0xfacebf1c
       36015000	      3600	80001410	01a4d513	srli	x10,x9,0x1a	  x9:0x00000000 x10=0x00000000
       36025000	      3601	80001414	d4e15797	auipc	x15,0xd4e15	 x15=0x54e16410
       36035000	      3602	80001418	7a1c3593	sltiu	x11,x24,1953	 x24:0x00000000 x11=0x00000001
       36045000	      3603	8000141c	008c6263	bltu	x24,x8,80001420	 x24:0x00000000  x8:0x8436e000
       36055000	      3604	00000000	00000013	addi	x0,x0,0	  x0:0x00000000
       36065000	      3605	8000141c	00000013	addi	x0,x0,0	  x0:0x00000000
       36075000	      3606	80001420	0153f933	and	x18,x7,x21	  x7:0x421b7000 x21:0x00000000 x18=0x00000000
       36085000	      3607	80001424	4033da93	srai	x21,x7,0x3	  x7:0x421b7000 x21=0x08436e00
       36095000	      3608	80001428	00e934b3	sltu	x9,x18,x14	 x18:0x00000000 x14:0x00000001  x9=0x00000001
       36105000	      3609	8000142c	41d4d633	sra	x12,x9,x29	  x9:0x00000001 x29:0x00040000 x12=0x00000001
       36115000	      3610	80001430	00000013	addi	x0,x0,0	  x0:0x00000000
       36125000	      3611	80001434	01f7fdb3	and	x27,x15,x31	 x15:0x54e16410 x31:0xfffff99f x27=0x54e16010
       36135000	      3612	80001438	01e17463	bgeu	x2,x30,80001440	  x2:0x80009fc4 x30:0x00000001
       36145000	      3613	00000000	00000013	addi	x0,x0,0	  x0:0x00000000
       36155000	      3614	8000143c	00000013	addi	x0,x0,0	  x0:0x00000000
       36165000	      3615	80001440	41d5d4b3	sra	x9,x11,x29	 x11:0x00000001 x29:0x00040000  x9=0x00000001
       36175000	      3616	80001444	011f7333	and	x6,x30,x17	 x30:0x00000001 x17:0xfffffda0  x6=0x00000000
       36185000	      3617	80001448	00efa433	slt	x8,x31,x14	 x31:0xfffff99f x14:0x00000001  x8=0x00000001
       36195000	      3618	8000144c	014becb3	or	x25,x23,x20	 x23:0x22e243a0 x20:0xf8878378 x25=0xfae7c3f8
       36205000	      3619	80001450	7d997093	andi	x1,x18,2009	 x18:0x00000000  x1=0x00000000
       36215000	      3620	80001454	01c75293	srli	x5,x14,0x1c	 x14:0x00000001  x5=0x00000000
       36225000	      3621	80001458	23db4013	xori	x0,x22,573	 x22:0x800000c0
       36235000	      3622	8000145c	12e64b13	xori	x22,x12,302	 x12:0x00000001 x22=0x0000012f
       36245000	      3623	80001460	48036c93	ori	x25,x6,1152	  x6:0x00000000 x25=0x00000480
       36255000	      3624	80001464	d5dc8d13	addi	x26,x25,-675	 x25:0x00000480 x26=0x000001dd
       36265000	      3625	80001468	001f0033	add	x0,x30,x1	 x30:0x00000001  x1:0x00000000
       36275000	      3626	8000146c	ba966b17	auipc	x22,0xba966	 x22=0x3a967468
       36285000	      3627	80001470	ea264513	xori	x10,x12,-350	 x12:0x00000001 x10=0xfffffea3
       36295000	      3628	80001474	9f8f3d93	sltiu	x27,x30,-1544	 x30:0x00000001 x27=0x00000001
       36305000	      3629	80001478	02856063	bltu	x10,x8,80001498	 x10:0xfffffea3  x8:0x00000001
       36315000	      3630	8000147c	00588863	beq	x17,x5,8000148c	 x17:0xfffffda0  x5:0x00000000
       36325000	      3631	80001480	784c3d93	sltiu	x27,x24,1924	 x24:0x00000000 x27=0x00000001
       36335000	      3632	80001484	906bf413	andi	x8,x23,-1786	 x23:0x22e243a0  x8=0x22e24100
       36345000	      3633	80001488	4007d0b3	sra	x1,x15,x0	 x15:0x54e16410  x0:0x00000000  x1=0x54e16410
       36355000	      3634	8000148c	41228db3	sub	x27,x5,x18	  x5:0x00000000 x18:0x00000000 x27=0x00000000
       36365000	      3635	80001490	00ae5993	srli	x19,x28,0xa	 x28:0x80009f1c x19=0x00200027
       36375000	      3636	80001494	8ea60517	auipc	x10,0x8ea60	 x10=0x0ea61490
       36385000	      3637	80001498	0136dd33	srl	x26,x13,x19	 x13:0xf8878378 x19:0x00200027 x26=0x01f10f06
       36395000	      3638	8000149c	012b6463	bltu	x22,x18,800014a4	 x22:0x3a967468 x18:0x00000000
       36405000	      3639	800014a0	0005da63	bge	x11,x0,800014b4	 x11:0x00000001  x0:0x00000000
       36415000	      3640	00000000	00000013	addi	x0,x0,0	  x0:0x00000000
       36425000	      3641	800014b0	00000013	addi	x0,x0,0	  x0:0x00000000
       36435000	      3642	800014b4	78cfe213	ori	x4,x31,1932	 x31:0xfffff99f  x4=0xffffff9f
       36445000	      3643	800014b8	40e45f13	srai	x30,x8,0xe	  x8:0x22e24100 x30=0x00008b89
       36455000	      3644	800014bc	01285e63	bge	x16,x18,800014d8	 x16:0x135afdaa x18:0x00000000
       36465000	      3645	00000000	00000013	addi	x0,x0,0	  x0:0x00000000
       36475000	      3646	800014d4	00000013	addi	x0,x0,0	  x0:0x00000000
       36485000	      3647	800014d8	00000013	addi	x0,x0,0	  x0:0x00000000
       36495000	      3648	800014dc	f58ef393	andi	x7,x29,-168	 x29:0x00040000  x7=0x00040000
       36505000	      3649	800014e0	034ef063	bgeu	x29,x20,80001500	 x29:0x00040000 x20:0xf8878378
       36515000	      3650	800014e4	00b2cc63	blt	x5,x11,800014fc	  x5:0x00000000 x11:0x00000001
       36525000	      3651	00000000	00000013	addi	x0,x0,0	  x0:0x00000000
       36535000	      3652	800014f8	00000013	addi	x0,x0,0	  x0:0x00000000
       36545000	      3653	800014fc	a24cfa17	auipc	x20,0xa24cf	 x20=0x224d04f8
       36555000	      3654	80001500	00751bb3	sll	x23,x10,x7	 x10:0x0ea61490  x7:0x00040000 x23=0x0ea61490
       36565000	      3655	80001504	0141dbb3	srl	x23,x3,x20	  x3:0x00000001 x20:0x224d04f8 x23=0x00000000
       36575000	      3656	80001508	00b00033	add	x0,x0,x11	  x0:0x00000000 x11:0x00000001
       36585000	      3657	8000150c	03944a63	blt	x8,x25,80001540	  x8:0x22e24100 x25:0x00000480
       36595000	      3658	80001510	00696333	or	x6,x18,x6	 x18:0x00000000  x6:0x00000000  x6=0x00000000
       36605000	      3659	80001514	007649b3	xor	x19,x12,x7	 x12:0x00000001  x7:0x00040000 x19=0x00040001
       36615000	      3660	80001518	7b0a0013	addi	x0,x20,1968	 x20:0x224d04f8
       36625000	      3661	8000151c	00daa633	slt	x12,x21,x13	 x21:0x08436e00 x13:0xf8878378 x12=0x00000000
       36635000	      3662	80001520	01b7e933	or	x18,x15,x27	 x15:0x54e16410 x27:0x00000000 x18=0x54e16410
       36645000	      3663	80001524	00c4e0b3	or	x1,x9,x12	  x9:0x00000001 x12:0x00000000  x1=0x00000001
       36655000	      3664	80001528	00964db3	xor	x27,x12,x9	 x12:0x00000000  x9:0x00000001 x27=0x00000001
       36665000	      3665	8000152c	01d31f93	slli	x31,x6,0x1d	  x6:0x00000000 x31=0x00000000
       36675000	      3666	80001530	5281a613	slti	x12,x3,1320	  x3:0x00000001 x12=0x00000001
       36685000	      3667	80001534	e2156793	ori	x15,x10,-479	 x10:0x0ea61490 x15=0xfffffeb1
       36695000	      3668	80001538	00b17a63	bgeu	x2,x11,8000154c	  x2:0x80009fc4 x11:0x00000001
       36705000	      3669	00000000	00000013	addi	x0,x0,0	  x0:0x00000000
       36715000	      3670	80001548	00000013	addi	x0,x0,0	  x0:0x00000000
       36725000	      3671	8000154c	00041b93	slli	x23,x8,0x0	  x8:0x22e24100 x23=0x22e24100
       36735000	      3672	80001550	1eef2c37	lui	x24,0x1eef2	 x24=0x1eef2000
       36745000	      3673	80001554	40fb5db3	sra	x27,x22,x15	 x22:0x3a967468 x15:0xfffffeb1 x27=0x00001d4b
       36755000	      3674	80001558	1fcb4413	xori	x8,x22,508	 x22:0x3a967468  x8=0x3a967594
       36765000	      3675	8000155c	01ef1ab3	sll	x21,x30,x30	 x30:0x00008b89 x30:0x00008b89 x21=0x01171200
       36775000	      3676	80001560	58e29717	auipc	x14,0x58e29	 x14=0xd8e2a55c
       36785000	      3677	80001564	0198fcb3	and	x25,x17,x25	 x17:0xfffffda0 x25:0x00000480 x25=0x00000480
       36795000	      3678	80001568	4e78fa13	andi	x20,x17,1255	 x17:0xfffffda0 x20=0x000004a0
       36805000	      3679	8000156c	003c3533	sltu	x10,x24,x3	 x24:0x1eef2000  x3:0x00000001 x10=0x00000000
       36815000	      3680	80001570	00e26433	or	x8,x4,x14	  x4:0xffffff9f x14:0xd8e2a55c  x8=0xffffffdf
       36825000	      3681	80001574	01f20a63	beq	x4,x31,80001588	  x4:0xffffff9f x31:0x00000000
       36835000	      3682	80001578	01160033	add	x0,x12,x17	 x12:0x00000001 x17:0xfffffda0
       36845000	      3683	8000157c	018444b3	xor	x9,x8,x24	  x8:0xffffffdf x24:0x1eef2000  x9=0xe110dfdf
       36855000	      3684	80001580	015a5213	srli	x4,x20,0x15	 x20:0x000004a0  x4=0x00000000
       36865000	      3685	80001584	02ec0063	beq	x24,x14,800015a4	 x24:0x1eef2000 x14:0xd8e2a55c
       36875000	      3686	80001588	20450f37	lui	x30,0x20450	 x30=0x20450000
       36885000	      3687	8000158c	40345993	srai	x19,x8,0x3	  x8:0xffffffdf x19=0xfffffffb
       36895000	      3688	80001590	3c71bc93	sltiu	x25,x3,967	  x3:0x00000001 x25=0x00000001
       36905000	      3689	80001594	6eca7f93	andi	x31,x20,1772	 x20:0x000004a0 x31=0x000004a0
       36915000	      3690	80001598	a0fc0693	addi	x13,x24,-1521	 x24:0x1eef2000 x13=0x1eef1a0f
       36925000	      3691	8000159c	2e25e593	ori	x11,x11,738	 x11:0x00000001 x11=0x000002e3
       36935000	      3692	800015a0	cfd8a913	slti	x18,x17,-771	 x17:0xfffffda0 x18=0x00000000
       36945000	      3693	800015a4	0018e4b3	or	x9,x17,x1	 x17:0xfffffda0  x1:0x00000001  x9=0xfffffda1
       36955000	      3694	800015a8	441a35b7	lui	x11,0x441a3	 x11=0x441a3000
       36965000	      3695	800015ac	4104d593	srai	x11,x9,0x10	  x9:0xfffffda1 x11=0xffffffff
       36975000	      3696	800015b0	00890d33	add	x26,x18,x8	 x18:0x00000000  x8:0xffffffdf x26=0xffffffdf
       36985000	      3697	800015b4	41ddd433	sra	x8,x27,x29	 x27:0x00001d4b x29:0x00040000  x8=0x00001d4b
       36995000	      3698	800015b8	47fa2c93	slti	x25,x20,1151	 x20:0x000004a0 x25=0x00000000
       37005000	      3699	800015bc	0042f263	bgeu	x5,x4,800015c0	  x5:0x00000000  x4:0x00000000
       37015000	      3700	00000000	00000013	addi	x0,x0,0	  x0:0x00000000
       37025000	      3701	800015bc	00000013	addi	x0,x0,0	  x0:0x00000000
       37035000	      3702	800015c0	01abd1b3	srl	x3,x23,x26	 x23:0x22e24100 x26:0xffffffdf  x3=0x00000000
       37045000	      3703	800015c4	01c11e93	slli	x29,x2,0x1c	  x2:0x80009fc4 x29=0x40000000
       37055000	      3704	800015c8	228f1a97	auipc	x21,0x228f1	 x21=0xa28f25c4
       37065000	      3705	800015cc	41ac5513	srai	x10,x24,0x1a	 x24:0x1eef2000 x10=0x00000007
       37075000	      3706	800015d0	01875913	srli	x18,x14,0x18	 x14:0xd8e2a55c x18=0x000000d8
       37085000	      3707	800015d4	01785e63	bge	x16,x23,800015f0	 x16:0x135afdaa x23:0x22e24100
       37095000	      3708	800015d8	28e9ac97	auipc	x25,0x28e9a	 x25=0xa8e9b5d4
       37105000	      3709	800015dc	054fab13	slti	x22,x31,84	 x31:0x000004a0 x22=0x00000000
       37115000	      3710	800015e0	da2d8793	addi	x15,x27,-606	 x27:0x00001d4b x15=0x00001aed
       37125000	      3711	800015e4	feb4af13	slti	x30,x9,-21	  x9:0xfffffda1 x30=0x00000001
       37135000	      3712	800015e8	01bf9933	sll	x18,x31,x27	 x31:0x000004a0 x27:0x00001d4b x18=0x00250000
       37145000	      3713	800015ec	00664463	blt	x12,x6,800015f4	 x12:0x00000001  x6:0x00000000
       37155000	      3714	800015f0	01e14e63	blt	x2,x30,8000160c	  x2:0x80009fc4 x30:0x00000001
       37165000	      3715	00000000	00000013	addi	x0,x0,0	  x0:0x00000000
       37175000	      3716	80001608	00000013	addi	x0,x0,0	  x0:0x00000000
       37185000	      3717	8000160c	01462033	slt	x0,x12,x20	 x12:0x00000001 x20:0x000004a0
       37195000	      3718	80001610	01463633	sltu	x12,x12,x20	 x12:0x00000001 x20:0x000004a0 x12=0x00000001
       37205000	      3719	80001614	38b76097	auipc	x1,0x38b76	  x1=0xb8b77610
       37215000	      3720	80001618	01130463	beq	x6,x17,80001620	  x6:0x00000000 x17:0xfffffda0
       37225000	      3721	8000161c	3d546cb7	lui	x25,0x3d546	 x25=0x3d546000
       37235000	      3722	80001620	ebdd0313	addi	x6,x26,-323	 x26:0xffffffdf  x6=0xfffffe9c
       37245000	      3723	80001624	010f0a63	beq	x30,x16,80001638	 x30:0x00000001 x16:0x135afdaa
       37255000	      3724	80001628	0505f063	bgeu	x11,x16,80001668	 x11:0xffffffff x16:0x135afdaa
       37265000	      3725	00000000	00000013	addi	x0,x0,0	  x0:0x00000000
       37275000	      3726	80001664	00000013	addi	x0,x0,0	  x0:0x00000000
       37285000	      3727	80001668	37a10d17	auipc	x26,0x37a10	 x26=0xb7a11664
       37295000	      3728	8000166c	03af5c63	bge	x30,x26,800016a4	 x30:0x00000001 x26:0xb7a11664
       37305000	      3729	00000000	00000013	addi	x0,x0,0	  x0:0x00000000
       37315000	      3730	800016a0	00000013	addi	x0,x0,0	  x0:0x00000000
       37325000	      3731	800016a4	00000013	addi	x0,x0,0	  x0:0x00000000
       37335000	      3732	800016a8	412e5293	srai	x5,x28,0x12	 x28:0x80009f1c  x5=0xffffe000
       37345000	      3733	800016ac	01836263	bltu	x6,x24,800016b0	  x6:0xfffffe9c x24:0x1eef2000
       37355000	      3734	800016b0	01a9d1b3	srl	x3,x19,x26	 x19:0xfffffffb x26:0xb7a11664  x3=0x0fffffff
       37365000	      3735	800016b4	037f8063	beq	x31,x23,800016d4	 x31:0x000004a0 x23:0x22e24100
       37375000	      3736	800016b8	01dd0e63	beq	x26,x29,800016d4	 x26:0xb7a11664 x29:0x40000000
       37385000	      3737	800016bc	0087a0b3	slt	x1,x15,x8	 x15:0x00001aed  x8:0x00001d4b  x1=0x00000001
       37395000	      3738	800016c0	012cb3b3	sltu	x7,x25,x18	 x25:0x3d546000 x18:0x00250000  x7=0x00000000
       37405000	      3739	800016c4	05945063	bge	x8,x25,80001704	  x8:0x00001d4b x25:0x3d546000
       37415000	      3740	800016c8	023a5e63	bge	x20,x3,80001704	 x20:0x000004a0  x3:0x0fffffff
       37425000	      3741	800016cc	299cf013	andi	x0,x25,665	 x25:0x3d546000
       37435000	      3742	800016d0	e5dba897	auipc	x17,0xe5dba	 x17=0x65dbb6cc
       37445000	      3743	800016d4	f0e20a93	addi	x21,x4,-242	  x4:0x00000000 x21=0xffffff0e
       37455000	      3744	800016d8	00b35733	srl	x14,x6,x11	  x6:0xfffffe9c x11:0xffffffff x14=0x00000001
       37465000	      3745	800016dc	01da8b33	add	x22,x21,x29	 x21:0xffffff0e x29:0x40000000 x22=0x3fffff0e
       37475000	      3746	800016e0	015c3b33	sltu	x22,x24,x21	 x24:0x1eef2000 x21:0xffffff0e x22=0x00000001
       37485000	      3747	800016e4	28cf9bb7	lui	x23,0x28cf9	 x23=0x28cf9000
       37495000	      3748	800016e8	d3aeb693	sltiu	x13,x29,-710	 x29:0x40000000 x13=0x00000001
       37505000	      3749	800016ec	91702237	lui	x4,0x91702	  x4=0x91702000
       37515000	      3750	800016f0	95f4b513	sltiu	x10,x9,-1697	  x9:0xfffffda1 x10=0x00000000
       37525000	      3751	800016f4	0082fc63	bgeu	x5,x8,8000170c	  x5:0xffffe000  x8:0x00001d4b
       37535000	      3752	00000000	00000013	addi	x0,x0,0	  x0:0x00000000
       37545000	      3753	80001708	00000013	addi	x0,x0,0	  x0:0x00000000
       37555000	      3754	8000170c	010b0863	beq	x22,x16,8000171c	 x22:0x00000001 x16:0x135afdaa
       37565000	      3755	80001710	013a5413	srli	x8,x20,0x13	 x20:0x000004a0  x8=0x00000000
       37575000	      3756	80001714	c432bf13	sltiu	x30,x5,-957	  x5:0xffffe000 x30=0x00000001
       37585000	      3757	80001718	01febbb3	sltu	x23,x29,x31	 x29:0x40000000 x31:0x000004a0 x23=0x00000000
       37595000	      3758	8000171c	01cdf463	bgeu	x27,x28,80001724	 x27:0x00001d4b x28:0x80009f1c
       37605000	      3759	80001720	0ed48493	addi	x9,x9,237	  x9:0xfffffda1  x9=0xfffffe8e
       37615000	      3760	80001724	b260ca13	xori	x20,x1,-1242	  x1:0x00000001 x20=0xfffffb27
       37625000	      3761	80001728	1b816793	ori	x15,x2,440	  x2:0x80009fc4 x15=0x80009ffc
       37635000	      3762	8000172c	03649c63	bne	x9,x22,80001764	  x9:0xfffffe8e x22:0x00000001
       37645000	      3763	00000000	00000013	addi	x0,x0,0	  x0:0x00000000
       37655000	      3764	80001760	00000013	addi	x0,x0,0	  x0:0x00000000
       37665000	      3765	80001764	05588063	beq	x17,x21,800017a4	 x17:0x65dbb6cc x21:0xffffff0e
       37675000	      3766	80001768	00cd8fb3	add	x31,x27,x12	 x27:0x00001d4b x12:0x00000001 x31=0x00001d4c
       37685000	      3767	8000176c	fdf56893	ori	x17,x10,-33	 x10:0x00000000 x17=0xffffffdf
       37695000	      3768	80001770	01c7c433	xor	x8,x15,x28	 x15:0x80009ffc x28:0x80009f1c  x8=0x000000e0
       37705000	      3769	80001774	01937263	bgeu	x6,x25,80001778	  x6:0xfffffe9c x25:0x3d546000
       37715000	      3770	00000000	00000013	addi	x0,x0,0	  x0:0x00000000
       37725000	      3771	80001774	00000013	addi	x0,x0,0	  x0:0x00000000
       37735000	      3772	80001778	01bf66b3	or	x13,x30,x27	 x30:0x00000001 x27:0x00001d4b x13=0x00001d4b
       37745000	      3773	8000177c	40d501b3	sub	x3,x10,x13	 x10:0x00000000 x13:0x00001d4b  x3=0xffffe2b5
       37755000	      3774	80001780	7ef0a013	slti	x0,x1,2031	  x1:0x00000001
       37765000	      3775	80001784	38502d13	slti	x26,x0,901	  x0:0x00000000 x26=0x00000001
       37775000	      3776	80001788	1e1e3713	sltiu	x14,x28,481	 x28:0x80009f1c x14=0x00000000
       37785000	      3777	8000178c	8b3c0493	addi	x9,x24,-1869	 x24:0x1eef2000  x9=0x1eef18b3
       37795000	      3778	80001790	00a39463	bne	x7,x10,80001798	  x7:0x00000000 x10:0x00000000
       37805000	      3779	80001794	40b381b3	sub	x3,x7,x11	  x7:0x00000000 x11:0xffffffff  x3=0x00000001
       37815000	      3780	80001798	03e0d863	bge	x1,x30,800017c8	  x1:0x00000001 x30:0x00000001
       37825000	      3781	00000000	00000013	addi	x0,x0,0	  x0:0x00000000
       37835000	      3782	800017c4	00000013	addi	x0,x0,0	  x0:0x00000000
       37845000	      3783	800017c8	bced0393	addi	x7,x26,-1074	 x26:0x00000001  x7=0xfffffbcf
       37855000	      3784	800017cc	02d58863	beq	x11,x13,800017fc	 x11:0xffffffff x13:0x00001d4b
       37865000	      3785	800017d0	8eb20313	addi	x6,x4,-1813	  x4:0x91702000  x6=0x917018eb
       37875000	      3786	800017d4	40c95733	sra	x14,x18,x12	 x18:0x00250000 x12:0x00000001 x14=0x00128000
       37885000	      3787	800017d8	015e70b3	and	x1,x28,x21	 x28:0x80009f1c x21:0xffffff0e  x1=0x80009f0c
       37895000	      3788	800017dc	67f3ea93	ori	x21,x7,1663	  x7:0xfffffbcf x21=0xffffffff
       37905000	      3789	800017e0	012fd713	srli	x14,x31,0x12	 x31:0x00001d4c x14=0x00000000
       37915000	      3790	800017e4	0ba78013	addi	x0,x15,186	 x15:0x80009ffc
       37925000	      3791	800017e8	00000013	addi	x0,x0,0	  x0:0x00000000
       37935000	      3792	800017ec	41a7db33	sra	x22,x15,x26	 x15:0x80009ffc x26:0x00000001 x22=0xc0004ffe
       37945000	      3793	800017f0	00000013	addi	x0,x0,0	  x0:0x00000000
       37955000	      3794	800017f4	019ace63	blt	x21,x25,80001810	 x21:0xffffffff x25:0x3d546000
       37965000	      3795	00000000	00000013	addi	x0,x0,0	  x0:0x00000000
       37975000	      3796	8000180c	00000013	addi	x0,x0,0	  x0:0x00000000
       37985000	      3797	80001810	7c43f213	andi	x4,x7,1988	  x7:0xfffffbcf  x4=0x000003c4
       37995000	      3798	80001814	012e5263	bge	x28,x18,80001818	 x28:0x80009f1c x18:0x00250000
       38005000	      3799	80001818	017b3b33	sltu	x22,x22,x23	 x22:0xc0004ffe x23:0x00000000 x22=0x00000000
       38015000	      3800	8000181c	01305e63	bge	x0,x19,80001838	  x0:0x00000000 x19:0xfffffffb
       38025000	      3801	00000000	00000013	addi	x0,x0,0	  x0:0x00000000
       38035000	      3802	80001834	00000013	addi	x0,x0,0	  x0:0x00000000
       38045000	      3803	80001838	53b26013	ori	x0,x4,1339	  x4:0x000003c4
       38055000	      3804	8000183c	41180993	addi	x19,x16,1041	 x16:0x135afdaa x19=0x135b01bb
       38065000	      3805	80001840	0ec5c293	xori	x5,x11,236	 x11:0xffffffff  x5=0xffffff13
       38075000	      3806	80001844	01e6de63	bge	x13,x30,80001860	 x13:0x00001d4b x30:0x00000001
       38085000	      3807	00000000	00000013	addi	x0,x0,0	  x0:0x00000000
       38095000	      3808	8000185c	00000013	addi	x0,x0,0	  x0:0x00000000
       38105000	      3809	80001860	40795933	sra	x18,x18,x7	 x18:0x00250000  x7:0xfffffbcf x18=0x0000004a
       38115000	      3810	80001864	00a73433	sltu	x8,x14,x10	 x14:0x00000000 x10:0x00000000  x8=0x00000000
       38125000	      3811	80001868	418a0b33	sub	x22,x20,x24	 x20:0xfffffb27 x24:0x1eef2000 x22=0xe110db27
       38135000	      3812	8000186c	01da5793	srli	x15,x20,0x1d	 x20:0xfffffb27 x15=0x00000007
       38145000	      3813	80001870	51652593	slti	x11,x10,1302	 x10:0x00000000 x11=0x00000001
       38155000	      3814	80001874	0060ecb3	or	x25,x1,x6	  x1:0x80009f0c  x6:0x917018eb x25=0x91709fef
       38165000	      3815	80001878	a926a493	slti	x9,x13,-1390	 x13:0x00001d4b  x9=0x00000000
       38175000	      3816	8000187c	412fdcb3	sra	x25,x31,x18	 x31:0x00001d4c x18:0x0000004a x25=0x00000007
       38185000	      3817	80001880	90678493	addi	x9,x15,-1786	 x15:0x00000007  x9=0xfffff90d
       38195000	      3818	80001884	01167a63	bgeu	x12,x17,80001898	 x12:0x00000001 x17:0xffffffdf
       38205000	      3819	80001888	3346f793	andi	x15,x13,820	 x13:0x00001d4b x15=0x00000100
       38215000	      3820	8000188c	02831863	bne	x6,x8,800018bc	  x6:0x917018eb  x8:0x00000000
       38225000	      3821	00000000	00000013	addi	x0,x0,0	  x0:0x00000000
       38235000	      3822	800018b8	00000013	addi	x0,x0,0	  x0:0x00000000
       38245000	      3823	800018bc	01f66033	or	x0,x12,x31	 x12:0x00000001 x31:0x00001d4c
       38255000	      3824	800018c0	410f5893	srai	x17,x30,0x10	 x30:0x00000001 x17=0x00000000
       38265000	      3825	800018c4	036dd063	bge	x27,x22,800018e4	 x27:0x00001d4b x22:0xe110db27
       38275000	      3826	00000000	00000013	addi	x0,x0,0	  x0:0x00000000
       38285000	      3827	800018e0	00000013	addi	x0,x0,0	  x0:0x00000000
       38295000	      3828	800018e4	eb63a617	auipc	x12,0xeb63a	 x12=0x6b63b8e0
       38305000	      3829	800018e8	40e003b3	sub	x7,x0,x14	  x0:0x00000000 x14:0x00000000  x7=0x00000000
       38315000	      3830	800018ec	01eb79b3	and	x19,x22,x30	 x22:0xe110db27 x30:0x00000001 x19=0x00000001
       38325000	      3831	800018f0	00e45d93	srli	x27,x8,0xe	  x8:0x00000000 x27=0x00000000
       38335000	      3832	800018f4	00135d93	srli	x27,x6,0x1	  x6:0x917018eb x27=0x48b80c75
       38345000	      3833	800018f8	13128f93	addi	x31,x5,305	  x5:0xffffff13 x31=0x00000044
       38355000	      3834	800018fc	01248663	beq	x9,x18,80001908	  x9:0xfffff90d x18:0x0000004a
       38365000	      3835	80001900	0a2fc893	xori	x17,x31,162	 x31:0x00000044 x17=0x000000e6
       38375000	      3836	80001904	019de263	bltu	x27,x25,80001908	 x27:0x48b80c75 x25:0x00000007
       38385000	      3837	80001908	80f0eab7	lui	x21,0x80f0e	 x21=0x80f0e000
       38395000	      3838	8000190c	01c1f463	bgeu	x3,x28,80001914	  x3:0x00000001 x28:0x80009f1c
       38405000	      3839	80001910	00a01863	bne	x0,x10,80001920	  x0:0x00000000 x10:0x00000000
       38415000	      3840	80001914	018790b3	sll	x1,x15,x24	 x15:0x00000100 x24:0x1eef2000  x1=0x00000100
       38425000	      3841	80001918	9f5d8993	addi	x19,x27,-1547	 x27:0x48b80c75 x19=0x48b8066a
       38435000	      3842	8000191c	01acc233	xor	x4,x25,x26	 x25:0x00000007 x26:0x00000001  x4=0x00000006
       38445000	      3843	80001920	05f44b13	xori	x22,x8,95	  x8:0x00000000 x22=0x0000005f
       38455000	      3844	80001924	01e7da13	srli	x20,x15,0x1e	 x15:0x00000100 x20=0x00000000
       38465000	      3845	80001928	0187ce63	blt	x15,x24,80001944	 x15:0x00000100 x24:0x1eef2000
       38475000	      3846	00000000	00000013	addi	x0,x0,0	  x0:0x00000000
       38485000	      3847	80001940	00000013	addi	x0,x0,0	  x0:0x00000000
       38495000	      3848	80001944	0370ee63	bltu	x1,x23,80001980	  x1:0x00000100 x23:0x00000000
       38505000	      3849	80001948	00871d13	slli	x26,x14,0x8	 x14:0x00000000 x26=0x00000000
       38515000	      3850	8000194c	41a05993	srai	x19,x0,0x1a	  x0:0x00000000 x19=0x00000000
       38525000	      3851	80001950	001e9033	sll	x0,x29,x1	 x29:0x40000000  x1:0x00000100
       38535000	      3852	80001954	01ad2db3	slt	x27,x26,x26	 x26:0x00000000 x26:0x00000000 x27=0x00000000
       38545000	      3853	80001958	014902b3	add	x5,x18,x20	 x18:0x0000004a x20:0x00000000  x5=0x0000004a
       38555000	      3854	8000195c	00dc8333	add	x6,x25,x13	 x25:0x00000007 x13:0x00001d4b  x6=0x00001d52
       38565000	      3855	80001960	03dcea63	bltu	x25,x29,80001994	 x25:0x00000007 x29:0x40000000
       38575000	      3856	00000000	00000013	addi	x0,x0,0	  x0:0x00000000
       38585000	      3857	80001990	00000013	addi	x0,x0,0	  x0:0x00000000
       38595000	      3858	80001994	c47daa13	slti	x20,x27,-953	 x27:0x00000000 x20=0x00000000
       38605000	      3859	80001998	027d1863	bne	x26,x7,800019c8	 x26:0x00000000  x7:0x00000000
       38615000	      3860	8000199c	19e0a193	slti	x3,x1,414	  x1:0x00000100  x3=0x00000001
       38625000	      3861	800019a0	025b4863	blt	x22,x5,800019d0	 x22:0x0000005f  x5:0x0000004a
       38635000	      3862	800019a4	006d7463	bgeu	x26,x6,800019ac	 x26:0x00000000  x6:0x00001d52
       38645000	      3863	800019a8	01c78e63	beq	x15,x28,800019c4	 x15:0x00000100 x28:0x80009f1c
       38655000	      3864	800019ac	03dc7863	bgeu	x24,x29,800019dc	 x24:0x1eef2000 x29:0x40000000
       38665000	      3865	800019b0	949d8193	addi	x3,x27,-1719	 x27:0x00000000  x3=0xfffff949
       38675000	      3866	800019b4	005f7263	bgeu	x30,x5,800019b8	 x30:0x00000001  x5:0x0000004a
       38685000	      3867	800019b8	67614a13	xori	x20,x2,1654	  x2:0x80009fc4 x20=0x800099b2
       38695000	      3868	800019bc	d0242013	slti	x0,x8,-766	  x8:0x00000000
       38705000	      3869	800019c0	0bc9f893	andi	x17,x19,188	 x19:0x00000000 x17=0x00000000
       38715000	      3870	800019c4	01af2033	slt	x0,x30,x26	 x30:0x00000001 x26:0x00000000
       38725000	      3871	800019c8	00e2fa63	bgeu	x5,x14,800019dc	  x5:0x0000004a x14:0x00000000
       38735000	      3872	00000000	00000013	addi	x0,x0,0	  x0:0x00000000
       38745000	      3873	800019d8	00000013	addi	x0,x0,0	  x0:0x00000000
       38755000	      3874	800019dc	01177533	and	x10,x14,x17	 x14:0x00000000 x17:0x00000000 x10=0x00000000
       38765000	      3875	800019e0	a8dd8613	addi	x12,x27,-1395	 x27:0x00000000 x12=0xfffffa8d
       38775000	      3876	800019e4	7ea1a493	slti	x9,x3,2026	  x3:0xfffff949  x9=0x00000001
       38785000	      3877	800019e8	a4c67b13	andi	x22,x12,-1460	 x12:0xfffffa8d x22=0xfffffa0c
       38795000	      3878	800019ec	003a41b3	xor	x3,x20,x3	 x20:0x800099b2  x3:0xfffff949  x3=0x7fff60fb
       38805000	      3879	800019f0	01e1ed33	or	x26,x3,x30	  x3:0x7fff60fb x30:0x00000001 x26=0x7fff60fb
       38815000	      3880	800019f4	40d85eb3	sra	x29,x16,x13	 x16:0x135afdaa x13:0x00001d4b x29=0x00026b5f
       38825000	      3881	800019f8	40475193	srai	x3,x14,0x4	 x14:0x00000000  x3=0x00000000
       38835000	      3882	800019fc	01118e63	beq	x3,x17,80001a18	  x3:0x00000000 x17:0x00000000
       38845000	      3883	00000000	00000013	addi	x0,x0,0	  x0:0x00000000
       38855000	      3884	80001a14	00000013	addi	x0,x0,0	  x0:0x00000000
       38865000	      3885	80001a18	00000013	addi	x0,x0,0	  x0:0x00000000
       38875000	      3886	80001a1c	00701263	bne	x0,x7,80001a20	  x0:0x00000000  x7:0x00000000
       38885000	      3887	80001a20	04705463	bge	x0,x7,80001a68	  x0:0x00000000  x7:0x00000000
       38895000	      3888	00000000	00000013	addi	x0,x0,0	  x0:0x00000000
       38905000	      3889	80001a64	00000013	addi	x0,x0,0	  x0:0x00000000
       38915000	      3890	80001a68	00471c93	slli	x25,x14,0x4	 x14:0x00000000 x25=0x00000000
       38925000	      3891	80001a6c	f13df013	andi	x0,x27,-237	 x27:0x00000000
       38935000	      3892	80001a70	03c80863	beq	x16,x28,80001aa0	 x16:0x135afdaa x28:0x80009f1c
       38945000	      3893	80001a74	2b2b0893	addi	x17,x22,690	 x22:0xfffffa0c x17=0xfffffcbe
       38955000	      3894	80001a78	01461663	bne	x12,x20,80001a84	 x12:0xfffffa8d x20:0x800099b2
       38965000	      3895	00000000	00000013	addi	x0,x0,0	  x0:0x00000000
       38975000	      3896	80001a80	00000013	addi	x0,x0,0	  x0:0x00000000
       38985000	      3897	80001a84	40e553b3	sra	x7,x10,x14	 x10:0x00000000 x14:0x00000000  x7=0x00000000
       38995000	      3898	80001a88	55452793	slti	x15,x10,1364	 x10:0x00000000 x15=0x00000001
       39005000	      3899	80001a8c	00951e63	bne	x10,x9,80001aa8	 x10:0x00000000  x9:0x00000001
       39015000	      3900	00000000	00000013	addi	x0,x0,0	  x0:0x00000000
       39025000	      3901	80001aa4	00000013	addi	x0,x0,0	  x0:0x00000000
       39035000	      3902	80001aa8	40c9d0b3	sra	x1,x19,x12	 x19:0x00000000 x12:0xfffffa8d  x1=0x00000000
       39045000	      3903	80001aac	2f838393	addi	x7,x7,760	  x7:0x00000000  x7=0x000002f8
       39055000	      3904	80001ab0	94e7ac93	slti	x25,x15,-1714	 x15:0x00000001 x25=0x00000000
       39065000	      3905	80001ab4	00000013	addi	x0,x0,0	  x0:0x00000000
       39075000	      3906	80001ab8	55dbe613	ori	x12,x23,1373	 x23:0x00000000 x12=0x0000055d
       39085000	      3907	80001abc	00156233	or	x4,x10,x1	 x10:0x00000000  x1:0x00000000  x4=0x00000000
       39095000	      3908	80001ac0	6fde6093	ori	x1,x28,1789	 x28:0x80009f1c  x1=0x80009ffd
       39105000	      3909	80001ac4	ee198f13	addi	x30,x19,-287	 x19:0x00000000 x30=0xfffffee1
       39115000	      3910	80001ac8	04c000ef	jal	x1,80001ac8	  x1=0x80001ac8
       39125000	      3911	00000000	00000013	addi	x0,x0,0	  x0:0x00000000
       39135000	      3912	80001b10	00000013	addi	x0,x0,0	  x0:0x00000000
       39145000	      3913	80001b14	fedff36f	jal	x6,80001b14	  x6=0x80001b14
       39155000	      3914	00000000	00000013	addi	x0,x0,0	  x0:0x00000000
       39165000	      3915	80001afc	00000013	addi	x0,x0,0	  x0:0x00000000
       39175000	      3916	80001b00	ff9ff0ef	jal	x1,80001b00	  x1=0x80001b00
       39185000	      3917	00000000	00000013	addi	x0,x0,0	  x0:0x00000000
       39195000	      3918	80001af4	00000013	addi	x0,x0,0	  x0:0x00000000
       39205000	      3919	80001af8	018000ef	jal	x1,80001af8	  x1=0x80001af8
       39215000	      3920	00000000	00000013	addi	x0,x0,0	  x0:0x00000000
       39225000	      3921	80001b0c	00000013	addi	x0,x0,0	  x0:0x00000000
       39235000	      3922	80001b10	ffdff36f	jal	x6,80001b10	  x6=0x80001b10
       39245000	      3923	00000000	00000013	addi	x0,x0,0	  x0:0x00000000
       39255000	      3924	80001b08	00000013	addi	x0,x0,0	  x0:0x00000000
       39265000	      3925	80001b0c	fcdff0ef	jal	x1,80001b0c	  x1=0x80001b0c
       39275000	      3926	00000000	00000013	addi	x0,x0,0	  x0:0x00000000
       39285000	      3927	80001ad4	00000013	addi	x0,x0,0	  x0:0x00000000
       39295000	      3928	80001ad8	ff9ff36f	jal	x6,80001ad8	  x6=0x80001ad8
       39305000	      3929	00000000	00000013	addi	x0,x0,0	  x0:0x00000000
       39315000	      3930	80001acc	00000013	addi	x0,x0,0	  x0:0x00000000
       39325000	      3931	80001ad0	048000ef	jal	x1,80001ad0	  x1=0x80001ad0
       39335000	      3932	00000000	00000013	addi	x0,x0,0	  x0:0x00000000
       39345000	      3933	80001b14	00000013	addi	x0,x0,0	  x0:0x00000000
       39355000	      3934	80001b18	ff1ff0ef	jal	x1,80001b18	  x1=0x80001b18
       39365000	      3935	00000000	00000013	addi	x0,x0,0	  x0:0x00000000
       39375000	      3936	80001b04	00000013	addi	x0,x0,0	  x0:0x00000000
       39385000	      3937	80001b08	fc5ff0ef	jal	x1,80001b08	  x1=0x80001b08
       39395000	      3938	00000000	00000013	addi	x0,x0,0	  x0:0x00000000
       39405000	      3939	80001ac8	00000013	addi	x0,x0,0	  x0:0x00000000
       39415000	      3940	80001acc	0240066f	jal	x12,80001acc	 x12=0x80001acc
       39425000	      3941	00000000	00000013	addi	x0,x0,0	  x0:0x00000000
       39435000	      3942	80001aec	00000013	addi	x0,x0,0	  x0:0x00000000
       39445000	      3943	80001af0	ff9ff36f	jal	x6,80001af0	  x6=0x80001af0
       39455000	      3944	00000000	00000013	addi	x0,x0,0	  x0:0x00000000
       39465000	      3945	80001ae4	00000013	addi	x0,x0,0	  x0:0x00000000
       39475000	      3946	80001ae8	ffdff0ef	jal	x1,80001ae8	  x1=0x80001ae8
       39485000	      3947	00000000	00000013	addi	x0,x0,0	  x0:0x00000000
       39495000	      3948	80001ae0	00000013	addi	x0,x0,0	  x0:0x00000000
       39505000	      3949	80001ae4	010000ef	jal	x1,80001ae4	  x1=0x80001ae4
       39515000	      3950	00000000	00000013	addi	x0,x0,0	  x0:0x00000000
       39525000	      3951	80001af0	00000013	addi	x0,x0,0	  x0:0x00000000
       39535000	      3952	80001af4	fe9ff1ef	jal	x3,80001af4	  x3=0x80001af4
       39545000	      3953	00000000	00000013	addi	x0,x0,0	  x0:0x00000000
       39555000	      3954	80001ad8	00000013	addi	x0,x0,0	  x0:0x00000000
       39565000	      3955	80001adc	020000ef	jal	x1,80001adc	  x1=0x80001adc
       39575000	      3956	00000000	00000013	addi	x0,x0,0	  x0:0x00000000
       39585000	      3957	80001af8	00000013	addi	x0,x0,0	  x0:0x00000000
       39595000	      3958	80001afc	fe5ff0ef	jal	x1,80001afc	  x1=0x80001afc
       39605000	      3959	00000000	00000013	addi	x0,x0,0	  x0:0x00000000
       39615000	      3960	80001adc	00000013	addi	x0,x0,0	  x0:0x00000000
       39625000	      3961	80001ae0	ff5ffeef	jal	x29,80001ae0	 x29=0x80001ae0
       39635000	      3962	00000000	00000013	addi	x0,x0,0	  x0:0x00000000
       39645000	      3963	80001ad0	00000013	addi	x0,x0,0	  x0:0x00000000
       39655000	      3964	80001ad4	018002ef	jal	x5,80001ad4	  x5=0x80001ad4
       39665000	      3965	00000000	00000013	addi	x0,x0,0	  x0:0x00000000
       39675000	      3966	80001ae8	00000013	addi	x0,x0,0	  x0:0x00000000
       39685000	      3967	80001aec	018000ef	jal	x1,80001aec	  x1=0x80001aec
       39695000	      3968	00000000	00000013	addi	x0,x0,0	  x0:0x00000000
       39705000	      3969	80001b00	00000013	addi	x0,x0,0	  x0:0x00000000
       39715000	      3970	80001b04	018000ef	jal	x1,80001b04	  x1=0x80001b04
       39725000	      3971	00000000	00000013	addi	x0,x0,0	  x0:0x00000000
       39735000	      3972	80001b18	00000013	addi	x0,x0,0	  x0:0x00000000
       39745000	      3973	80001b1c	0040026f	jal	x4,80001b1c	  x4=0x80001b1c
       39755000	      3974	00000000	00000013	addi	x0,x0,0	  x0:0x00000000
       39765000	      3975	80001b1c	00000013	addi	x0,x0,0	  x0:0x00000000
       39775000	      3976	80001b20	8fb38617	auipc	x12,0x8fb38	 x12=0x0fb39b1c
       39785000	      3977	80001b24	0166b0b3	sltu	x1,x13,x22	 x13:0x00001d4b x22:0xfffffa0c  x1=0x00000001
       39795000	      3978	80001b28	eee34737	lui	x14,0xeee34	 x14=0xeee34000
       39805000	      3979	80001b2c	00dfe8b3	or	x17,x31,x13	 x31:0x00000044 x13:0x00001d4b x17=0x00001d4f
       39815000	      3980	80001b30	41460f33	sub	x30,x12,x20	 x12:0x0fb39b1c x20:0x800099b2 x30=0x8fb3016a
       39825000	      3981	80001b34	3962a193	slti	x3,x5,918	  x5:0x80001ad4  x3=0x00000001
       39835000	      3982	80001b38	00bea3b3	slt	x7,x29,x11	 x29:0x80001ae0 x11:0x00000001  x7=0x00000001
       39845000	      3983	80001b3c	008c3c33	sltu	x24,x24,x8	 x24:0x1eef2000  x8:0x00000000 x24=0x00000000
       39855000	      3984	80001b40	f29ac093	xori	x1,x21,-215	 x21:0x80f0e000  x1=0x7f0f1f29
       39865000	      3985	80001b44	007415b3	sll	x11,x8,x7	  x8:0x00000000  x7:0x00000001 x11=0x00000000
       39875000	      3986	80001b48	02147e63	bgeu	x8,x1,80001b84	  x8:0x00000000  x1:0x7f0f1f29
       39885000	      3987	80001b4c	d7b20f13	addi	x30,x4,-645	  x4:0x80001b1c x30=0x80001897
       39895000	      3988	80001b50	00688f33	add	x30,x17,x6	 x17:0x00001d4f  x6:0x80001af0 x30=0x8000383f
       39905000	      3989	80001b54	0171c0b3	xor	x1,x3,x23	  x3:0x00000001 x23:0x00000000  x1=0x00000001
       39915000	      3990	80001b58	f8291297	auipc	x5,0xf8291	  x5=0x78292b54
       39925000	      3991	80001b5c	022b8463	beq	x23,x2,80001b84	 x23:0x00000000  x2:0x80009fc4
       39935000	      3992	80001b60	01df1513	slli	x10,x30,0x1d	 x30:0x8000383f x10=0xe0000000
       39945000	      3993	80001b64	01be76b3	and	x13,x28,x27	 x28:0x80009f1c x27:0x00000000 x13=0x00000000
       39955000	      3994	80001b68	401001b3	sub	x3,x0,x1	  x0:0x00000000  x1:0x00000001  x3=0xffffffff
       39965000	      3995	80001b6c	b6ebf717	auipc	x14,0xb6ebf	 x14=0x36ec0b68
       39975000	      3996	80001b70	ec678393	addi	x7,x15,-314	 x15:0x00000001  x7=0xfffffec7
       39985000	      3997	80001b74	a694a6b7	lui	x13,0xa694a	 x13=0xa694a000
       39995000	      3998	80001b78	0172dc63	bge	x5,x23,80001b90	  x5:0x78292b54 x23:0x00000000
       40005000	      3999	00000000	00000013	addi	x0,x0,0	  x0:0x00000000
       40015000	      4000	80001b8c	00000013	addi	x0,x0,0	  x0:0x00000000
       40025000	      4001	80001b90	c028a893	slti	x17,x17,-1022	 x17:0x00001d4f x17=0x00000000
       40035000	      4002	80001b94	016ab9b3	sltu	x19,x21,x22	 x21:0x80f0e000 x22:0xfffffa0c x19=0x00000001
       40045000	      4003	80001b98	c14e2b13	slti	x22,x28,-1004	 x28:0x80009f1c x22=0x00000001
       40055000	      4004	80001b9c	0095d913	srli	x18,x11,0x9	 x11:0x00000000 x18=0x00000000
       40065000	      4005	80001ba0	01056463	bltu	x10,x16,80001ba8	 x10:0xe0000000 x16:0x135afdaa
       40075000	      4006	80001ba4	013b7b33	and	x22,x22,x19	 x22:0x00000001 x19:0x00000001 x22=0x00000001
       40085000	      4007	80001ba8	41e5d993	srai	x19,x11,0x1e	 x11:0x00000000 x19=0x00000000
       40095000	      4008	80001bac	40545693	srai	x13,x8,0x5	  x8:0x00000000 x13=0x00000000
       40105000	      4009	80001bb0	02709863	bne	x1,x7,80001be0	  x1:0x00000001  x7:0xfffffec7
       40115000	      4010	00000000	00000013	addi	x0,x0,0	  x0:0x00000000
       40125000	      4011	80001bdc	00000013	addi	x0,x0,0	  x0:0x00000000
       40135000	      4012	80001be0	2133f393	andi	x7,x7,531	  x7:0xfffffec7  x7=0x00000203
       40145000	      4013	80001be4	41c75cb3	sra	x25,x14,x28	 x14:0x36ec0b68 x28:0x80009f1c x25=0x00000003
       40155000	      4014	80001be8	0219d063	bge	x19,x1,80001c08	 x19:0x00000000  x1:0x00000001
       40165000	      4015	80001bec	7cc24993	xori	x19,x4,1996	  x4:0x80001b1c x19=0x80001cd0
       40175000	      4016	80001bf0	a8cf3c93	sltiu	x25,x30,-1396	 x30:0x8000383f x25=0x00000001
       40185000	      4017	80001bf4	03ac8063	beq	x25,x26,80001c14	 x25:0x00000001 x26:0x7fff60fb
       40195000	      4018	80001bf8	0e560f37	lui	x30,0xe560	 x30=0x0e560000
       40205000	      4019	80001bfc	a1682513	slti	x10,x16,-1514	 x16:0x135afdaa x10=0x00000000
       40215000	      4020	80001c00	418b5a13	srai	x20,x22,0x18	 x22:0x00000001 x20=0x00000000
       40225000	      4021	80001c04	04ef5063	bge	x30,x14,80001c44	 x30:0x0e560000 x14:0x36ec0b68
       40235000	      4022	80001c08	00000013	addi	x0,x0,0	  x0:0x00000000
       40245000	      4023	80001c0c	0182fd33	and	x26,x5,x24	  x5:0x78292b54 x24:0x00000000 x26=0x00000000
       40255000	      4024	80001c10	01064a63	blt	x12,x16,80001c24	 x12:0x0fb39b1c x16:0x135afdaa
       40265000	      4025	00000000	00000013	addi	x0,x0,0	  x0:0x00000000
       40275000	      4026	80001c20	00000013	addi	x0,x0,0	  x0:0x00000000
       40285000	      4027	80001c24	005b3c33	sltu	x24,x22,x5	 x22:0x00000001  x5:0x78292b54 x24=0x00000001
       40295000	      4028	80001c28	41c38c33	sub	x24,x7,x28	  x7:0x00000203 x28:0x80009f1c x24=0x7fff62e7
       40305000	      4029	80001c2c	03edd863	bge	x27,x30,80001c5c	 x27:0x00000000 x30:0x0e560000
       40315000	      4030	80001c30	01f3e263	bltu	x7,x31,80001c34	  x7:0x00000203 x31:0x00000044
       40325000	      4031	80001c34	00000013	addi	x0,x0,0	  x0:0x00000000
       40335000	      4032	80001c38	01abe533	or	x10,x23,x26	 x23:0x00000000 x26:0x00000000 x10=0x00000000
       40345000	      4033	80001c3c	01df7a63	bgeu	x30,x29,80001c50	 x30:0x0e560000 x29:0x80001ae0
       40355000	      4034	80001c40	01501263	bne	x0,x21,80001c44	  x0:0x00000000 x21:0x80f0e000
       40365000	      4035	00000000	00000013	addi	x0,x0,0	  x0:0x00000000
       40375000	      4036	80001c40	00000013	addi	x0,x0,0	  x0:0x00000000
       40385000	      4037	80001c44	00dddbb3	srl	x23,x27,x13	 x27:0x00000000 x13:0x00000000 x23=0x00000000
       40395000	      4038	80001c48	006d4c33	xor	x24,x26,x6	 x26:0x00000000  x6:0x80001af0 x24=0x80001af0
       40405000	      4039	80001c4c	009cadb3	slt	x27,x25,x9	 x25:0x00000001  x9:0x00000001 x27=0x00000000
       40415000	      4040	80001c50	032e7863	bgeu	x28,x18,80001c80	 x28:0x80009f1c x18:0x00000000
       40425000	      4041	00000000	00000013	addi	x0,x0,0	  x0:0x00000000
       40435000	      4042	80001c7c	00000013	addi	x0,x0,0	  x0:0x00000000
       40445000	      4043	80001c80	03b66863	bltu	x12,x27,80001cb0	 x12:0x0fb39b1c x27:0x00000000
       40455000	      4044	80001c84	010f5cb3	srl	x25,x30,x16	 x30:0x0e560000 x16:0x135afdaa x25=0x00039580
       40465000	      4045	80001c88	01dd4bb3	xor	x23,x26,x29	 x26:0x00000000 x29:0x80001ae0 x23=0x80001ae0
       40475000	      4046	80001c8c	7c2ebd93	sltiu	x27,x29,1986	 x29:0x80001ae0 x27=0x00000000
       40485000	      4047	80001c90	05cc5463	bge	x24,x28,80001cd8	 x24:0x80001af0 x28:0x80009f1c
       40495000	      4048	80001c94	b5e64f93	xori	x31,x12,-1186	 x12:0x0fb39b1c x31=0xf04c6042
       40505000	      4049	80001c98	c4534e93	xori	x29,x6,-955	  x6:0x80001af0 x29=0x7fffe6b5
       40515000	      4050	80001c9c	0191d933	srl	x18,x3,x25	  x3:0xffffffff x25:0x00039580 x18=0xffffffff
       40525000	      4051	80001ca0	0024d793	srli	x15,x9,0x2	  x9:0x00000001 x15=0x00000000
       40535000	      4052	80001ca4	01caf233	and	x4,x21,x28	 x21:0x80f0e000 x28:0x80009f1c  x4=0x80008000
       40545000	      4053	80001ca8	7cafba13	sltiu	x20,x31,1994	 x31:0xf04c6042 x20=0x00000000
       40555000	      4054	80001cac	4052db93	srai	x23,x5,0x5	  x5:0x78292b54 x23=0x03c1495a
       40565000	      4055	80001cb0	17c12b97	auipc	x23,0x17c12	 x23=0x97c13cac
       40575000	      4056	80001cb4	000ac633	xor	x12,x21,x0	 x21:0x80f0e000  x0:0x00000000 x12=0x80f0e000
       40585000	      4057	80001cb8	009c4e63	blt	x24,x9,80001cd4	 x24:0x80001af0  x9:0x00000001
       40595000	      4058	00000000	00000013	addi	x0,x0,0	  x0:0x00000000
       40605000	      4059	80001cd0	00000013	addi	x0,x0,0	  x0:0x00000000
       40615000	      4060	80001cd4	68390c93	addi	x25,x18,1667	 x18:0xffffffff x25=0x00000682
       40625000	      4061	80001cd8	006cf463	bgeu	x25,x6,80001ce0	 x25:0x00000682  x6:0x80001af0
       40635000	      4062	80001cdc	00d80db3	add	x27,x16,x13	 x16:0x135afdaa x13:0x00000000 x27=0x135afdaa
       40645000	      4063	80001ce0	017b1293	slli	x5,x22,0x17	 x22:0x00000001  x5=0x00800000
       40655000	      4064	80001ce4	09689863	bne	x17,x22,80001d74	 x17:0x00000000 x22:0x00000001
       40665000	      4065	00000000	00000013	addi	x0,x0,0	  x0:0x00000000
       40675000	      4066	80001d70	00000013	addi	x0,x0,0	  x0:0x00000000
       40685000	      4067	80001d74	07aa4237	lui	x4,0x7aa4	  x4=0x07aa4000
       40695000	      4068	80001d78	40c2dd93	srai	x27,x5,0xc	  x5:0x00800000 x27=0x00000800
       40705000	      4069	80001d7c	7d892597	auipc	x11,0x7d892	 x11=0xfd893d78
       40715000	      4070	80001d80	00000013	addi	x0,x0,0	  x0:0x00000000
       40725000	      4071	80001d84	bfdb3093	sltiu	x1,x22,-1027	 x22:0x00000001  x1=0x00000001
       40735000	      4072	80001d88	7fc68513	addi	x10,x13,2044	 x13:0x00000000 x10=0x000007fc
       40745000	      4073	80001d8c	00000013	addi	x0,x0,0	  x0:0x00000000
       40755000	      4074	80001d90	017987b3	add	x15,x19,x23	 x19:0x80001cd0 x23:0x97c13cac x15=0x17c1597c
       40765000	      4075	80001d94	0094ab33	slt	x22,x9,x9	  x9:0x00000001  x9:0x00000001 x22=0x00000000
       40775000	      4076	80001d98	925b2213	slti	x4,x22,-1755	 x22:0x00000000  x4=0x00000000
       40785000	      4077	80001d9c	41e38b33	sub	x22,x7,x30	  x7:0x00000203 x30:0x0e560000 x22=0xf1aa0203
       40795000	      4078	80001da0	9f246b93	ori	x23,x8,-1550	  x8:0x00000000 x23=0xfffff9f2
       40805000	      4079	80001da4	03320863	beq	x4,x19,80001dd4	  x4:0x00000000 x19:0x80001cd0
       40815000	      4080	80001da8	e2632013	slti	x0,x6,-474	  x6:0x80001af0
       40825000	      4081	80001dac	7ab66b13	ori	x22,x12,1963	 x12:0x80f0e000 x22=0x80f0e7ab
       40835000	      4082	80001db0	b4131197	auipc	x3,0xb4131	  x3=0x34132dac
       40845000	      4083	80001db4	8016a537	lui	x10,0x8016a	 x10=0x8016a000
       40855000	      4084	80001db8	04516063	bltu	x2,x5,80001df8	  x2:0x80009fc4  x5:0x00800000
       40865000	      4085	80001dbc	00376463	bltu	x14,x3,80001dc4	 x14:0x36ec0b68  x3:0x34132dac
       40875000	      4086	80001dc0	dd94ec13	ori	x24,x9,-551	  x9:0x00000001 x24=0xfffffdd9
       40885000	      4087	80001dc4	004c6bb3	or	x23,x24,x4	 x24:0xfffffdd9  x4:0x00000000 x23=0xfffffdd9
       40895000	      4088	80001dc8	01e5e463	bltu	x11,x30,80001dd0	 x11:0xfd893d78 x30:0x0e560000
       40905000	      4089	80001dcc	befd3f13	sltiu	x30,x26,-1041	 x26:0x00000000 x30=0x00000001
       40915000	      4090	80001dd0	00aada13	srli	x20,x21,0xa	 x21:0x80f0e000 x20=0x00203c38
       40925000	      4091	80001dd4	01957263	bgeu	x10,x25,80001dd8	 x10:0x8016a000 x25:0x00000682
       40935000	      4092	00000000	00000013	addi	x0,x0,0	  x0:0x00000000
       40945000	      4093	80001dd4	00000013	addi	x0,x0,0	  x0:0x00000000
       40955000	      4094	80001dd8	00000013	addi	x0,x0,0	  x0:0x00000000
       40965000	      4095	80001ddc	41f8d733	sra	x14,x17,x31	 x17:0x00000000 x31:0xf04c6042 x14=0x00000000
       40975000	      4096	80001de0	01aaeb33	or	x22,x21,x26	 x21:0x80f0e000 x26:0x00000000 x22=0x80f0e000
       40985000	      4097	80001de4	70da3c13	sltiu	x24,x20,1805	 x20:0x00203c38 x24=0x00000000
       40995000	      4098	80001de8	40743c93	sltiu	x25,x8,1031	  x8:0x00000000 x25=0x00000001
       41005000	      4099	80001dec	9e184513	xori	x10,x16,-1567	 x16:0x135afdaa x10=0xeca5044b
       41015000	      4100	80001df0	0527e463	bltu	x15,x18,80001e38	 x15:0x17c1597c x18:0xffffffff
       41025000	      4101	00000000	00000013	addi	x0,x0,0	  x0:0x00000000
       41035000	      4102	80001e34	00000013	addi	x0,x0,0	  x0:0x00000000
       41045000	      4103	80001e38	01b6ce63	blt	x13,x27,80001e54	 x13:0x00000000 x27:0x00000800
       41055000	      4104	00000000	00000013	addi	x0,x0,0	  x0:0x00000000
       41065000	      4105	80001e50	00000013	addi	x0,x0,0	  x0:0x00000000
       41075000	      4106	80001e54	013889b3	add	x19,x17,x19	 x17:0x00000000 x19:0x80001cd0 x19=0x80001cd0
       41085000	      4107	80001e58	00c461b3	or	x3,x8,x12	  x8:0x00000000 x12:0x80f0e000  x3=0x80f0e000
       41095000	      4108	80001e5c	00f89013	slli	x0,x17,0xf	 x17:0x00000000
       41105000	      4109	80001e60	1cc8e713	ori	x14,x17,460	 x17:0x00000000 x14=0x000001cc
       41115000	      4110	80001e64	013554b3	srl	x9,x10,x19	 x10:0xeca5044b x19:0x80001cd0  x9=0x0000eca5
       41125000	      4111	80001e68	4174dc33	sra	x24,x9,x23	  x9:0x0000eca5 x23:0xfffffdd9 x24=0x00000000
       41135000	      4112	80001e6c	a7196d97	auipc	x27,0xa7196	 x27=0x27197e68
       41145000	      4113	80001e70	01a39a13	slli	x20,x7,0x1a	  x7:0x00000203 x20=0x0c000000
       41155000	      4114	80001e74	01a9bd33	sltu	x26,x19,x26	 x19:0x80001cd0 x26:0x00000000 x26=0x00000000
       41165000	      4115	80001e78	7c77e337	lui	x6,0x7c77e	  x6=0x7c77e000
       41175000	      4116	80001e7c	03730063	beq	x6,x23,80001e9c	  x6:0x7c77e000 x23:0xfffffdd9
       41185000	      4117	80001e80	0010d733	srl	x14,x1,x1	  x1:0x00000001  x1:0x00000001 x14=0x00000000
       41195000	      4118	80001e84	01772633	slt	x12,x14,x23	 x14:0x00000000 x23:0xfffffdd9 x12=0x00000000
       41205000	      4119	80001e88	00412d33	slt	x26,x2,x4	  x2:0x80009fc4  x4:0x00000000 x26=0x00000001
       41215000	      4120	80001e8c	18fae993	ori	x19,x21,399	 x21:0x80f0e000 x19=0x80f0e18f
       41225000	      4121	80001e90	d20cc693	xori	x13,x25,-736	 x25:0x00000001 x13=0xfffffd21
       41235000	      4122	80001e94	6e703c93	sltiu	x25,x0,1767	  x0:0x00000000 x25=0x00000001
       41245000	      4123	80001e98	c343e897	auipc	x17,0xc343e	 x17=0x4343fe94
       41255000	      4124	80001e9c	1479c993	xori	x19,x19,327	 x19:0x80f0e18f x19=0x80f0e0c8
       41265000	      4125	80001ea0	403ad733	sra	x14,x21,x3	 x21:0x80f0e000  x3:0x80f0e000 x14=0x80f0e000
       41275000	      4126	80001ea4	f4f8e513	ori	x10,x17,-177	 x17:0x4343fe94 x10=0xffffffdf
       41285000	      4127	80001ea8	40c10f93	addi	x31,x2,1036	  x2:0x80009fc4 x31=0x8000a3d0
       41295000	      4128	80001eac	01076c63	bltu	x14,x16,80001ec4	 x14:0x80f0e000 x16:0x135afdaa
       41305000	      4129	80001eb0	41e1dbb3	sra	x23,x3,x30	  x3:0x80f0e000 x30:0x00000001 x23=0xc0787000
       41315000	      4130	80001eb4	00b71b13	slli	x22,x14,0xb	 x14:0x80f0e000 x22=0x87000000
       41325000	      4131	80001eb8	029adc63	bge	x21,x9,80001ef0	 x21:0x80f0e000  x9:0x0000eca5
       41335000	      4132	80001ebc	01879263	bne	x15,x24,80001ec0	 x15:0x17c1597c x24:0x00000000
       41345000	      4133	00000000	00000013	addi	x0,x0,0	  x0:0x00000000
       41355000	      4134	80001ebc	00000013	addi	x0,x0,0	  x0:0x00000000
       41365000	      4135	80001ec0	d89c7b13	andi	x22,x24,-631	 x24:0x00000000 x22=0x00000000
       41375000	      4136	80001ec4	018c88b3	add	x17,x25,x24	 x25:0x00000001 x24:0x00000000 x17=0x00000001
       41385000	      4137	80001ec8	01a71993	slli	x19,x14,0x1a	 x14:0x80f0e000 x19=0x00000000
       41395000	      4138	80001ecc	00000013	addi	x0,x0,0	  x0:0x00000000
       41405000	      4139	80001ed0	01f11bb3	sll	x23,x2,x31	  x2:0x80009fc4 x31:0x8000a3d0 x23=0x9fc40000
       41415000	      4140	80001ed4	00e8da13	srli	x20,x17,0xe	 x17:0x00000001 x20=0x00000000
       41425000	      4141	80001ed8	0087de63	bge	x15,x8,80001ef4	 x15:0x17c1597c  x8:0x00000000
       41435000	      4142	00000000	00000013	addi	x0,x0,0	  x0:0x00000000
       41445000	      4143	80001ef0	00000013	addi	x0,x0,0	  x0:0x00000000
       41455000	      4144	80001ef4	6e4cb013	sltiu	x0,x25,1764	 x25:0x00000001
       41465000	      4145	80001ef8	00d59f33	sll	x30,x11,x13	 x11:0xfd893d78 x13:0xfffffd21 x30=0xfb127af0
       41475000	      4146	80001efc	00acfd33	and	x26,x25,x10	 x25:0x00000001 x10:0xffffffdf x26=0x00000001
       41485000	      4147	80001f00	69e86d97	auipc	x27,0x69e86	 x27=0xe9e87efc
       41495000	      4148	80001f04	00cd9733	sll	x14,x27,x12	 x27:0xe9e87efc x12:0x00000000 x14=0xe9e87efc
       41505000	      4149	80001f08	d36a8d97	auipc	x27,0xd36a8	 x27=0x536a9f04
       41515000	      4150	80001f0c	c1484537	lui	x10,0xc1484	 x10=0xc1484000
       41525000	      4151	80001f10	92d90017	auipc	x0,0x92d90	
       41535000	      4152	80001f14	ee1ea193	slti	x3,x29,-287	 x29:0x7fffe6b5  x3=0x00000000
       41545000	      4153	80001f18	001219b3	sll	x19,x4,x1	  x4:0x00000000  x1:0x00000001 x19=0x00000000
       41555000	      4154	80001f1c	01175663	bge	x14,x17,80001f28	 x14:0xe9e87efc x17:0x00000001
       41565000	      4155	80001f20	99ee2eb7	lui	x29,0x99ee2	 x29=0x99ee2000
       41575000	      4156	80001f24	41b0d293	srai	x5,x1,0x1b	  x1:0x00000001  x5=0x00000000
       41585000	      4157	80001f28	04daa913	slti	x18,x21,77	 x21:0x80f0e000 x18=0x00000001
       41595000	      4158	80001f2c	415a5bb3	sra	x23,x20,x21	 x20:0x00000000 x21:0x80f0e000 x23=0x00000000
       41605000	      4159	80001f30	0108beb3	sltu	x29,x17,x16	 x17:0x00000001 x16:0x135afdaa x29=0x00000001
       41615000	      4160	80001f34	00000013	addi	x0,x0,0	  x0:0x00000000
       41625000	      4161	80001f38	016b6633	or	x12,x22,x22	 x22:0x00000000 x22:0x00000000 x12=0x00000000
       41635000	      4162	80001f3c	0155c4b3	xor	x9,x11,x21	 x11:0xfd893d78 x21:0x80f0e000  x9=0x7d79dd78
       41645000	      4163	80001f40	01d95e63	bge	x18,x29,80001f5c	 x18:0x00000001 x29:0x00000001
       41655000	      4164	00000000	00000013	addi	x0,x0,0	  x0:0x00000000
       41665000	      4165	80001f58	00000013	addi	x0,x0,0	  x0:0x00000000
       41675000	      4166	80001f5c	01566db3	or	x27,x12,x21	 x12:0x00000000 x21:0x80f0e000 x27=0x80f0e000
       41685000	      4167	80001f60	18f2e497	auipc	x9,0x18f2e	  x9=0x98f2ff5c
       41695000	      4168	80001f64	00ef78b3	and	x17,x30,x14	 x30:0xfb127af0 x14:0xe9e87efc x17=0xe9007af0
       41705000	      4169	80001f68	019bceb3	xor	x29,x23,x25	 x23:0x00000000 x25:0x00000001 x29=0x00000001
       41715000	      4170	80001f6c	40f7dd33	sra	x26,x15,x15	 x15:0x17c1597c x15:0x17c1597c x26=0x00000001
       41725000	      4171	80001f70	01ac2933	slt	x18,x24,x26	 x24:0x00000000 x26:0x00000001 x18=0x00000001
       41735000	      4172	80001f74	00e24cb3	xor	x25,x4,x14	  x4:0x00000000 x14:0xe9e87efc x25=0xe9e87efc
       41745000	      4173	80001f78	edcc4c93	xori	x25,x24,-292	 x24:0x00000000 x25=0xfffffedc
       41755000	      4174	80001f7c	007fc9b3	xor	x19,x31,x7	 x31:0x8000a3d0  x7:0x00000203 x19=0x8000a1d3
       41765000	      4175	80001f80	01077bb3	and	x23,x14,x16	 x14:0xe9e87efc x16:0x135afdaa x23=0x01487ca8
       41775000	      4176	80001f84	01263db3	sltu	x27,x12,x18	 x12:0x00000000 x18:0x00000001 x27=0x00000001
       41785000	      4177	80001f88	73d98e97	auipc	x29,0x73d98	 x29=0xf3d99f84
       41795000	      4178	80001f8c	008b0a63	beq	x22,x8,80001fa0	 x22:0x00000000  x8:0x00000000
       41805000	      4179	00000000	00000013	addi	x0,x0,0	  x0:0x00000000
       41815000	      4180	80001f9c	00000013	addi	x0,x0,0	  x0:0x00000000
       41825000	      4181	80001fa0	05554063	blt	x10,x21,80001fe0	 x10:0xc1484000 x21:0x80f0e000
       41835000	      4182	80001fa4	007d89b3	add	x19,x27,x7	 x27:0x00000001  x7:0x00000203 x19=0x00000204
       41845000	      4183	80001fa8	41015d13	srai	x26,x2,0x10	  x2:0x80009fc4 x26=0xffff8000
       41855000	      4184	80001fac	41f45233	sra	x4,x8,x31	  x8:0x00000000 x31:0x8000a3d0  x4=0x00000000
       41865000	      4185	80001fb0	01d34ab3	xor	x21,x6,x29	  x6:0x7c77e000 x29:0xf3d99f84 x21=0x8fae7f84
       41875000	      4186	80001fb4	00404e63	blt	x0,x4,80001fd0	  x0:0x00000000  x4:0x00000000
       41885000	      4187	80001fb8	01bc9f13	slli	x30,x25,0x1b	 x25:0xfffffedc x30=0xe0000000
       41895000	      4188	80001fbc	00de6a63	bltu	x28,x13,80001fd0	 x28:0x80009f1c x13:0xfffffd21
       41905000	      4189	00000000	00000013	addi	x0,x0,0	  x0:0x00000000
       41915000	      4190	80001fcc	00000013	addi	x0,x0,0	  x0:0x00000000
       41925000	      4191	80001fd0	e307b393	sltiu	x7,x15,-464	 x15:0x17c1597c  x7=0x00000001
       41935000	      4192	80001fd4	03e71863	bne	x14,x30,80002004	 x14:0xe9e87efc x30:0xe0000000
       41945000	      4193	00000000	00000013	addi	x0,x0,0	  x0:0x00000000
       41955000	      4194	80002000	00000013	addi	x0,x0,0	  x0:0x00000000
       41965000	      4195	80002004	41efd533	sra	x10,x31,x30	 x31:0x8000a3d0 x30:0xe0000000 x10=0x8000a3d0
       41975000	      4196	80002008	00a0bb33	sltu	x22,x1,x10	  x1:0x00000001 x10:0x8000a3d0 x22=0x00000001
       41985000	      4197	8000200c	01096ab3	or	x21,x18,x16	 x18:0x00000001 x16:0x135afdaa x21=0x135afdab
       41995000	      4198	80002010	9820bd13	sltiu	x26,x1,-1662	  x1:0x00000001 x26=0x00000001
       42005000	      4199	80002014	fdacf993	andi	x19,x25,-38	 x25:0xfffffedc x19=0xfffffed8
       42015000	      4200	80002018	01c75bb3	srl	x23,x14,x28	 x14:0xe9e87efc x28:0x80009f1c x23=0x0000000e
       42025000	      4201	8000201c	02729463	bne	x5,x7,80002044	  x5:0x00000000  x7:0x00000001
       42035000	      4202	00000000	00000013	addi	x0,x0,0	  x0:0x00000000
       42045000	      4203	80002040	00000013	addi	x0,x0,0	  x0:0x00000000
       42055000	      4204	80002044	007781b3	add	x3,x15,x7	 x15:0x17c1597c  x7:0x00000001  x3=0x17c1597d
       42065000	      4205	80002048	0036d433	srl	x8,x13,x3	 x13:0xfffffd21  x3:0x17c1597d  x8=0x00000007
       42075000	      4206	8000204c	00000013	addi	x0,x0,0	  x0:0x00000000
       42085000	      4207	80002050	01a1b8b3	sltu	x17,x3,x26	  x3:0x17c1597d x26:0x00000001 x17=0x00000000
       42095000	      4208	80002054	0ee4b213	sltiu	x4,x9,238	  x9:0x98f2ff5c  x4=0x00000000
       42105000	      4209	80002058	00831663	bne	x6,x8,80002064	  x6:0x7c77e000  x8:0x00000007
       42115000	      4210	00000000	00000013	addi	x0,x0,0	  x0:0x00000000
       42125000	      4211	80002060	00000013	addi	x0,x0,0	  x0:0x00000000
       42135000	      4212	80002064	00e78863	beq	x15,x14,80002074	 x15:0x17c1597c x14:0xe9e87efc
       42145000	      4213	80002068	01aa28b3	slt	x17,x20,x26	 x20:0x00000000 x26:0x00000001 x17=0x00000001
       42155000	      4214	8000206c	01db5463	bge	x22,x29,80002074	 x22:0x00000001 x29:0xf3d99f84
       42165000	      4215	00000000	00000013	addi	x0,x0,0	  x0:0x00000000
       42175000	      4216	80002070	00000013	addi	x0,x0,0	  x0:0x00000000
       42185000	      4217	80002074	faf1ff17	auipc	x30,0xfaf1f	 x30=0x7af21070
       42195000	      4218	80002078	9b84c793	xori	x15,x9,-1608	  x9:0x98f2ff5c x15=0x670d06e4
       42205000	      4219	8000207c	004e2083	lw	x1,4(x28)	 x28:0x80009f1c  x1=0x80003f10 PA:0x80009f20
       42215000	      4220	80002080	013c32b3	sltu	x5,x24,x19	 x24:0x00000000 x19:0xfffffed8  x5=0x00000001
       42225000	      4221	80002084	efeefb13	andi	x22,x29,-258	 x29:0xf3d99f84 x22=0xf3d99e84
       42235000	      4222	80002088	03ce0e13	addi	x28,x28,60	 x28:0x80009f1c x28=0x80009f58
       42245000	      4223	8000208c	00198d33	add	x26,x19,x1	 x19:0xfffffed8  x1:0x80003f10 x26=0x80003de8
       42255000	      4224	80002090	e6292d93	slti	x27,x18,-414	 x18:0x00000001 x27=0x00000000
       42265000	      4225	80002094	0017beb3	sltu	x29,x15,x1	 x15:0x670d06e4  x1:0x80003f10 x29=0x00000001
       42275000	      4226	80002098	00108793	addi	x15,x1,1	  x1:0x80003f10 x15=0x80003f11
       42285000	      4227	8000209c	000787e7	jalr	x15,x15,0	 x15:0x80003f11 x15=0x8000209c
       42295000	      4228	00000000	00000013	addi	x0,x0,0	  x0:0x00000000
       42305000	      4229	80003f10	00000013	addi	x0,x0,0	  x0:0x00000000
       42315000	      4230	80003f14	01c000ef	jal	x1,80003f14	  x1=0x80003f14
       42325000	      4231	00000000	00000013	addi	x0,x0,0	  x0:0x00000000
       42335000	      4232	80003f2c	00000013	addi	x0,x0,0	  x0:0x00000000
       42345000	      4233	80003f30	ff5ff36f	jal	x6,80003f30	  x6=0x80003f30
       42355000	      4234	00000000	00000013	addi	x0,x0,0	  x0:0x00000000
       42365000	      4235	80003f20	00000013	addi	x0,x0,0	  x0:0x00000000
       42375000	      4236	80003f24	018000ef	jal	x1,80003f24	  x1=0x80003f24
       42385000	      4237	00000000	00000013	addi	x0,x0,0	  x0:0x00000000
       42395000	      4238	80003f38	00000013	addi	x0,x0,0	  x0:0x00000000
       42405000	      4239	80003f3c	ff1ff0ef	jal	x1,80003f3c	  x1=0x80003f3c
       42415000	      4240	00000000	00000013	addi	x0,x0,0	  x0:0x00000000
       42425000	      4241	80003f28	00000013	addi	x0,x0,0	  x0:0x00000000
       42435000	      4242	80003f2c	ffdffa6f	jal	x20,80003f2c	 x20=0x80003f2c
       42445000	      4243	00000000	00000013	addi	x0,x0,0	  x0:0x00000000
       42455000	      4244	80003f24	00000013	addi	x0,x0,0	  x0:0x00000000
       42465000	      4245	80003f28	01000bef	jal	x23,80003f28	 x23=0x80003f28
       42475000	      4246	00000000	00000013	addi	x0,x0,0	  x0:0x00000000
       42485000	      4247	80003f34	00000013	addi	x0,x0,0	  x0:0x00000000
       42495000	      4248	80003f38	fe9ff0ef	jal	x1,80003f38	  x1=0x80003f38
       42505000	      4249	00000000	00000013	addi	x0,x0,0	  x0:0x00000000
       42515000	      4250	80003f1c	00000013	addi	x0,x0,0	  x0:0x00000000
       42525000	      4251	80003f20	0240036f	jal	x6,80003f20	  x6=0x80003f20
       42535000	      4252	00000000	00000013	addi	x0,x0,0	  x0:0x00000000
       42545000	      4253	80003f40	00000013	addi	x0,x0,0	  x0:0x00000000
       42555000	      4254	80003f44	fd5ff0ef	jal	x1,80003f44	  x1=0x80003f44
       42565000	      4255	00000000	00000013	addi	x0,x0,0	  x0:0x00000000
       42575000	      4256	80003f14	00000013	addi	x0,x0,0	  x0:0x00000000
       42585000	      4257	80003f18	004000ef	jal	x1,80003f18	  x1=0x80003f18
       42595000	      4258	00000000	00000013	addi	x0,x0,0	  x0:0x00000000
       42605000	      4259	80003f18	00000013	addi	x0,x0,0	  x0:0x00000000
       42615000	      4260	80003f1c	0240036f	jal	x6,80003f1c	  x6=0x80003f1c
       42625000	      4261	00000000	00000013	addi	x0,x0,0	  x0:0x00000000
       42635000	      4262	80003f3c	00000013	addi	x0,x0,0	  x0:0x00000000
       42645000	      4263	80003f40	ff5ff0ef	jal	x1,80003f40	  x1=0x80003f40
       42655000	      4264	00000000	00000013	addi	x0,x0,0	  x0:0x00000000
       42665000	      4265	80003f30	00000013	addi	x0,x0,0	  x0:0x00000000
       42675000	      4266	80003f34	0140036f	jal	x6,80003f34	  x6=0x80003f34
       42685000	      4267	00000000	00000013	addi	x0,x0,0	  x0:0x00000000
       42695000	      4268	80003f44	00000013	addi	x0,x0,0	  x0:0x00000000
       42705000	      4269	80003f48	0040036f	jal	x6,80003f48	  x6=0x80003f48
       42715000	      4270	00000000	00000013	addi	x0,x0,0	  x0:0x00000000
       42725000	      4271	80003f48	00000013	addi	x0,x0,0	  x0:0x00000000
       42735000	      4272	80003f4c	0040036f	jal	x6,80003f4c	  x6=0x80003f4c
       42745000	      4273	00000000	00000013	addi	x0,x0,0	  x0:0x00000000
       42755000	      4274	80003f4c	00000013	addi	x0,x0,0	  x0:0x00000000
       42765000	      4275	80003f50	009bd513	srli	x10,x23,0x9	 x23:0x80003f28 x10=0x0040001f
       42775000	      4276	80003f54	00c000ef	jal	x1,80003f54	  x1=0x80003f54
       42785000	      4277	00000000	00000013	addi	x0,x0,0	  x0:0x00000000
       42795000	      4278	80003f5c	00000013	addi	x0,x0,0	  x0:0x00000000
       42805000	      4279	80003f60	038000ef	jal	x1,80003f60	  x1=0x80003f60
       42815000	      4280	00000000	00000013	addi	x0,x0,0	  x0:0x00000000
       42825000	      4281	80003f94	00000013	addi	x0,x0,0	  x0:0x00000000
       42835000	      4282	80003f98	fd9ff36f	jal	x6,80003f98	  x6=0x80003f98
       42845000	      4283	00000000	00000013	addi	x0,x0,0	  x0:0x00000000
       42855000	      4284	80003f6c	00000013	addi	x0,x0,0	  x0:0x00000000
       42865000	      4285	80003f70	0300036f	jal	x6,80003f70	  x6=0x80003f70
       42875000	      4286	00000000	00000013	addi	x0,x0,0	  x0:0x00000000
       42885000	      4287	80003f9c	00000013	addi	x0,x0,0	  x0:0x00000000
       42895000	      4288	80003fa0	fd5ffd6f	jal	x26,80003fa0	 x26=0x80003fa0
       42905000	      4289	00000000	00000013	addi	x0,x0,0	  x0:0x00000000
       42915000	      4290	80003f70	00000013	addi	x0,x0,0	  x0:0x00000000
       42925000	      4291	80003f74	004000ef	jal	x1,80003f74	  x1=0x80003f74
       42935000	      4292	00000000	00000013	addi	x0,x0,0	  x0:0x00000000
       42945000	      4293	80003f74	00000013	addi	x0,x0,0	  x0:0x00000000
       42955000	      4294	80003f78	fe5ff0ef	jal	x1,80003f78	  x1=0x80003f78
       42965000	      4295	00000000	00000013	addi	x0,x0,0	  x0:0x00000000
       42975000	      4296	80003f58	00000013	addi	x0,x0,0	  x0:0x00000000
       42985000	      4297	80003f5c	028003ef	jal	x7,80003f5c	  x7=0x80003f5c
       42995000	      4298	00000000	00000013	addi	x0,x0,0	  x0:0x00000000
       43005000	      4299	80003f80	00000013	addi	x0,x0,0	  x0:0x00000000
       43015000	      4300	80003f84	0100036f	jal	x6,80003f84	  x6=0x80003f84
       43025000	      4301	00000000	00000013	addi	x0,x0,0	  x0:0x00000000
       43035000	      4302	80003f90	00000013	addi	x0,x0,0	  x0:0x00000000
       43045000	      4303	80003f94	0100036f	jal	x6,80003f94	  x6=0x80003f94
       43055000	      4304	00000000	00000013	addi	x0,x0,0	  x0:0x00000000
       43065000	      4305	80003fa0	00000013	addi	x0,x0,0	  x0:0x00000000
       43075000	      4306	80003fa4	fddff1ef	jal	x3,80003fa4	  x3=0x80003fa4
       43085000	      4307	00000000	00000013	addi	x0,x0,0	  x0:0x00000000
       43095000	      4308	80003f7c	00000013	addi	x0,x0,0	  x0:0x00000000
       43105000	      4309	80003f80	00c0056f	jal	x10,80003f80	 x10=0x80003f80
       43115000	      4310	00000000	00000013	addi	x0,x0,0	  x0:0x00000000
       43125000	      4311	80003f88	00000013	addi	x0,x0,0	  x0:0x00000000
       43135000	      4312	80003f8c	fe1ff1ef	jal	x3,80003f8c	  x3=0x80003f8c
       43145000	      4313	00000000	00000013	addi	x0,x0,0	  x0:0x00000000
       43155000	      4314	80003f68	00000013	addi	x0,x0,0	  x0:0x00000000
       43165000	      4315	80003f6c	0240036f	jal	x6,80003f6c	  x6=0x80003f6c
       43175000	      4316	00000000	00000013	addi	x0,x0,0	  x0:0x00000000
       43185000	      4317	80003f8c	00000013	addi	x0,x0,0	  x0:0x00000000
       43195000	      4318	80003f90	fd5ff0ef	jal	x1,80003f90	  x1=0x80003f90
       43205000	      4319	00000000	00000013	addi	x0,x0,0	  x0:0x00000000
       43215000	      4320	80003f60	00000013	addi	x0,x0,0	  x0:0x00000000
       43225000	      4321	80003f64	00400d6f	jal	x26,80003f64	 x26=0x80003f64
       43235000	      4322	00000000	00000013	addi	x0,x0,0	  x0:0x00000000
       43245000	      4323	80003f64	00000013	addi	x0,x0,0	  x0:0x00000000
       43255000	      4324	80003f68	0340026f	jal	x4,80003f68	  x4=0x80003f68
       43265000	      4325	00000000	00000013	addi	x0,x0,0	  x0:0x00000000
       43275000	      4326	80003f98	00000013	addi	x0,x0,0	  x0:0x00000000
       43285000	      4327	80003f9c	fbdff0ef	jal	x1,80003f9c	  x1=0x80003f9c
       43295000	      4328	00000000	00000013	addi	x0,x0,0	  x0:0x00000000
       43305000	      4329	80003f54	00000013	addi	x0,x0,0	  x0:0x00000000
       43315000	      4330	80003f58	030006ef	jal	x13,80003f58	 x13=0x80003f58
       43325000	      4331	00000000	00000013	addi	x0,x0,0	  x0:0x00000000
       43335000	      4332	80003f84	00000013	addi	x0,x0,0	  x0:0x00000000
       43345000	      4333	80003f88	ff5ff0ef	jal	x1,80003f88	  x1=0x80003f88
       43355000	      4334	00000000	00000013	addi	x0,x0,0	  x0:0x00000000
       43365000	      4335	80003f78	00000013	addi	x0,x0,0	  x0:0x00000000
       43375000	      4336	80003f7c	02c00cef	jal	x25,80003f7c	 x25=0x80003f7c
       43385000	      4337	00000000	00000013	addi	x0,x0,0	  x0:0x00000000
       43395000	      4338	80003fa4	00000013	addi	x0,x0,0	  x0:0x00000000
       43405000	      4339	80003fa8	80880013	addi	x0,x16,-2040	 x16:0x135afdaa
       43415000	      4340	80003fac	010000ef	jal	x1,80003fac	  x1=0x80003fac
       43425000	      4341	00000000	00000013	addi	x0,x0,0	  x0:0x00000000
       43435000	      4342	80003fb8	00000013	addi	x0,x0,0	  x0:0x00000000
       43445000	      4343	80003fbc	030000ef	jal	x1,80003fbc	  x1=0x80003fbc
       43455000	      4344	00000000	00000013	addi	x0,x0,0	  x0:0x00000000
       43465000	      4345	80003fe8	00000013	addi	x0,x0,0	  x0:0x00000000
       43475000	      4346	80003fec	fe5ff0ef	jal	x1,80003fec	  x1=0x80003fec
       43485000	      4347	00000000	00000013	addi	x0,x0,0	  x0:0x00000000
       43495000	      4348	80003fcc	00000013	addi	x0,x0,0	  x0:0x00000000
       43505000	      4349	80003fd0	028001ef	jal	x3,80003fd0	  x3=0x80003fd0
       43515000	      4350	00000000	00000013	addi	x0,x0,0	  x0:0x00000000
       43525000	      4351	80003ff4	00000013	addi	x0,x0,0	  x0:0x00000000
       43535000	      4352	80003ff8	fe9ff1ef	jal	x3,80003ff8	  x3=0x80003ff8
       43545000	      4353	00000000	00000013	addi	x0,x0,0	  x0:0x00000000
       43555000	      4354	80003fdc	00000013	addi	x0,x0,0	  x0:0x00000000
       43565000	      4355	80003fe0	ff5ff36f	jal	x6,80003fe0	  x6=0x80003fe0
       43575000	      4356	00000000	00000013	addi	x0,x0,0	  x0:0x00000000
       43585000	      4357	80003fd0	00000013	addi	x0,x0,0	  x0:0x00000000
       43595000	      4358	80003fd4	ff1ff26f	jal	x4,80003fd4	  x4=0x80003fd4
       43605000	      4359	00000000	00000013	addi	x0,x0,0	  x0:0x00000000
       43615000	      4360	80003fc0	00000013	addi	x0,x0,0	  x0:0x00000000
       43625000	      4361	80003fc4	fedffcef	jal	x25,80003fc4	 x25=0x80003fc4
       43635000	      4362	00000000	00000013	addi	x0,x0,0	  x0:0x00000000
       43645000	      4363	80003fac	00000013	addi	x0,x0,0	  x0:0x00000000
       43655000	      4364	80003fb0	018000ef	jal	x1,80003fb0	  x1=0x80003fb0
       43665000	      4365	00000000	00000013	addi	x0,x0,0	  x0:0x00000000
       43675000	      4366	80003fc4	00000013	addi	x0,x0,0	  x0:0x00000000
       43685000	      4367	80003fc8	034000ef	jal	x1,80003fc8	  x1=0x80003fc8
       43695000	      4368	00000000	00000013	addi	x0,x0,0	  x0:0x00000000
       43705000	      4369	80003ff8	00000013	addi	x0,x0,0	  x0:0x00000000
       43715000	      4370	80003ffc	fc5ff36f	jal	x6,80003ffc	  x6=0x80003ffc
       43725000	      4371	00000000	00000013	addi	x0,x0,0	  x0:0x00000000
       43735000	      4372	80003fbc	00000013	addi	x0,x0,0	  x0:0x00000000
       43745000	      4373	80003fc0	018003ef	jal	x7,80003fc0	  x7=0x80003fc0
       43755000	      4374	00000000	00000013	addi	x0,x0,0	  x0:0x00000000
       43765000	      4375	80003fd4	00000013	addi	x0,x0,0	  x0:0x00000000
       43775000	      4376	80003fd8	fddff0ef	jal	x1,80003fd8	  x1=0x80003fd8
       43785000	      4377	00000000	00000013	addi	x0,x0,0	  x0:0x00000000
       43795000	      4378	80003fb0	00000013	addi	x0,x0,0	  x0:0x00000000
       43805000	      4379	80003fb4	050000ef	jal	x1,80003fb4	  x1=0x80003fb4
       43815000	      4380	00000000	00000013	addi	x0,x0,0	  x0:0x00000000
       43825000	      4381	80004000	00000013	addi	x0,x0,0	  x0:0x00000000
       43835000	      4382	80004004	fc9ff0ef	jal	x1,80004004	  x1=0x80004004
       43845000	      4383	00000000	00000013	addi	x0,x0,0	  x0:0x00000000
       43855000	      4384	80003fc8	00000013	addi	x0,x0,0	  x0:0x00000000
       43865000	      4385	80003fcc	01c0056f	jal	x10,80003fcc	 x10=0x80003fcc
       43875000	      4386	00000000	00000013	addi	x0,x0,0	  x0:0x00000000
       43885000	      4387	80003fe4	00000013	addi	x0,x0,0	  x0:0x00000000
       43895000	      4388	80003fe8	ffdff0ef	jal	x1,80003fe8	  x1=0x80003fe8
       43905000	      4389	00000000	00000013	addi	x0,x0,0	  x0:0x00000000
       43915000	      4390	80003fe0	00000013	addi	x0,x0,0	  x0:0x00000000
       43925000	      4391	80003fe4	fd5ff0ef	jal	x1,80003fe4	  x1=0x80003fe4
       43935000	      4392	00000000	00000013	addi	x0,x0,0	  x0:0x00000000
       43945000	      4393	80003fb4	00000013	addi	x0,x0,0	  x0:0x00000000
       43955000	      4394	80003fb8	048000ef	jal	x1,80003fb8	  x1=0x80003fb8
       43965000	      4395	00000000	00000013	addi	x0,x0,0	  x0:0x00000000
       43975000	      4396	80003ffc	00000013	addi	x0,x0,0	  x0:0x00000000
       43985000	      4397	80004000	00800cef	jal	x25,80004000	 x25=0x80004000
       43995000	      4398	00000000	00000013	addi	x0,x0,0	  x0:0x00000000
       44005000	      4399	80004004	00000013	addi	x0,x0,0	  x0:0x00000000
       44015000	      4400	80004008	fd5ffaef	jal	x21,80004008	 x21=0x80004008
       44025000	      4401	00000000	00000013	addi	x0,x0,0	  x0:0x00000000
       44035000	      4402	80003fd8	00000013	addi	x0,x0,0	  x0:0x00000000
       44045000	      4403	80003fdc	0180036f	jal	x6,80003fdc	  x6=0x80003fdc
       44055000	      4404	00000000	00000013	addi	x0,x0,0	  x0:0x00000000
       44065000	      4405	80003ff0	00000013	addi	x0,x0,0	  x0:0x00000000
       44075000	      4406	80003ff4	ffdffa6f	jal	x20,80003ff4	 x20=0x80003ff4
       44085000	      4407	00000000	00000013	addi	x0,x0,0	  x0:0x00000000
       44095000	      4408	80003fec	00000013	addi	x0,x0,0	  x0:0x00000000
       44105000	      4409	80003ff0	01c007ef	jal	x15,80003ff0	 x15=0x80003ff0
       44115000	      4410	00000000	00000013	addi	x0,x0,0	  x0:0x00000000
       44125000	      4411	80004008	00000013	addi	x0,x0,0	  x0:0x00000000
       44135000	      4412	8000400c	0035ed33	or	x26,x11,x3	 x11:0xfd893d78  x3:0x80003ff8 x26=0xfd893ff8
       44145000	      4413	80004010	008000ef	jal	x1,80004010	  x1=0x80004010
       44155000	      4414	00000000	00000013	addi	x0,x0,0	  x0:0x00000000
       44165000	      4415	80004014	00000013	addi	x0,x0,0	  x0:0x00000000
       44175000	      4416	80004018	02c0036f	jal	x6,80004018	  x6=0x80004018
       44185000	      4417	00000000	00000013	addi	x0,x0,0	  x0:0x00000000
       44195000	      4418	80004040	00000013	addi	x0,x0,0	  x0:0x00000000
       44205000	      4419	80004044	044000ef	jal	x1,80004044	  x1=0x80004044
       44215000	      4420	00000000	00000013	addi	x0,x0,0	  x0:0x00000000
       44225000	      4421	80004084	00000013	addi	x0,x0,0	  x0:0x00000000
       44235000	      4422	80004088	fddff36f	jal	x6,80004088	  x6=0x80004088
       44245000	      4423	00000000	00000013	addi	x0,x0,0	  x0:0x00000000
       44255000	      4424	80004060	00000013	addi	x0,x0,0	  x0:0x00000000
       44265000	      4425	80004064	014000ef	jal	x1,80004064	  x1=0x80004064
       44275000	      4426	00000000	00000013	addi	x0,x0,0	  x0:0x00000000
       44285000	      4427	80004074	00000013	addi	x0,x0,0	  x0:0x00000000
       44295000	      4428	80004078	fa9ff36f	jal	x6,80004078	  x6=0x80004078
       44305000	      4429	00000000	00000013	addi	x0,x0,0	  x0:0x00000000
       44315000	      4430	8000401c	00000013	addi	x0,x0,0	  x0:0x00000000
       44325000	      4431	80004020	050000ef	jal	x1,80004020	  x1=0x80004020
       44335000	      4432	00000000	00000013	addi	x0,x0,0	  x0:0x00000000
       44345000	      4433	8000406c	00000013	addi	x0,x0,0	  x0:0x00000000
       44355000	      4434	80004070	ff1ff36f	jal	x6,80004070	  x6=0x80004070
       44365000	      4435	00000000	00000013	addi	x0,x0,0	  x0:0x00000000
       44375000	      4436	8000405c	00000013	addi	x0,x0,0	  x0:0x00000000
       44385000	      4437	80004060	00c000ef	jal	x1,80004060	  x1=0x80004060
       44395000	      4438	00000000	00000013	addi	x0,x0,0	  x0:0x00000000
       44405000	      4439	80004068	00000013	addi	x0,x0,0	  x0:0x00000000
       44415000	      4440	8000406c	fc5ff96f	jal	x18,8000406c	 x18=0x8000406c
       44425000	      4441	00000000	00000013	addi	x0,x0,0	  x0:0x00000000
       44435000	      4442	8000402c	00000013	addi	x0,x0,0	  x0:0x00000000
       44445000	      4443	80004030	04c008ef	jal	x17,80004030	 x17=0x80004030
       44455000	      4444	00000000	00000013	addi	x0,x0,0	  x0:0x00000000
       44465000	      4445	80004078	00000013	addi	x0,x0,0	  x0:0x00000000
       44475000	      4446	8000407c	fc1ff0ef	jal	x1,8000407c	  x1=0x8000407c
       44485000	      4447	00000000	00000013	addi	x0,x0,0	  x0:0x00000000
       44495000	      4448	80004038	00000013	addi	x0,x0,0	  x0:0x00000000
       44505000	      4449	8000403c	fd9ff0ef	jal	x1,8000403c	  x1=0x8000403c
       44515000	      4450	00000000	00000013	addi	x0,x0,0	  x0:0x00000000
       44525000	      4451	80004010	00000013	addi	x0,x0,0	  x0:0x00000000
       44535000	      4452	80004014	048000ef	jal	x1,80004014	  x1=0x80004014
       44545000	      4453	00000000	00000013	addi	x0,x0,0	  x0:0x00000000
       44555000	      4454	80004058	00000013	addi	x0,x0,0	  x0:0x00000000
       44565000	      4455	8000405c	ff1ff0ef	jal	x1,8000405c	  x1=0x8000405c
       44575000	      4456	00000000	00000013	addi	x0,x0,0	  x0:0x00000000
       44585000	      4457	80004048	00000013	addi	x0,x0,0	  x0:0x00000000
       44595000	      4458	8000404c	008009ef	jal	x19,8000404c	 x19=0x8000404c
       44605000	      4459	00000000	00000013	addi	x0,x0,0	  x0:0x00000000
       44615000	      4460	80004050	00000013	addi	x0,x0,0	  x0:0x00000000
       44625000	      4461	80004054	020000ef	jal	x1,80004054	  x1=0x80004054
       44635000	      4462	00000000	00000013	addi	x0,x0,0	  x0:0x00000000
       44645000	      4463	80004070	00000013	addi	x0,x0,0	  x0:0x00000000
       44655000	      4464	80004074	fb5ff0ef	jal	x1,80004074	  x1=0x80004074
       44665000	      4465	00000000	00000013	addi	x0,x0,0	  x0:0x00000000
       44675000	      4466	80004024	00000013	addi	x0,x0,0	  x0:0x00000000
       44685000	      4467	80004028	0400036f	jal	x6,80004028	  x6=0x80004028
       44695000	      4468	00000000	00000013	addi	x0,x0,0	  x0:0x00000000
       44705000	      4469	80004064	00000013	addi	x0,x0,0	  x0:0x00000000
       44715000	      4470	80004068	0180036f	jal	x6,80004068	  x6=0x80004068
       44725000	      4471	00000000	00000013	addi	x0,x0,0	  x0:0x00000000
       44735000	      4472	8000407c	00000013	addi	x0,x0,0	  x0:0x00000000
       44745000	      4473	80004080	fd9ff36f	jal	x6,80004080	  x6=0x80004080
       44755000	      4474	00000000	00000013	addi	x0,x0,0	  x0:0x00000000
       44765000	      4475	80004054	00000013	addi	x0,x0,0	  x0:0x00000000
       44775000	      4476	80004058	fd5ff0ef	jal	x1,80004058	  x1=0x80004058
       44785000	      4477	00000000	00000013	addi	x0,x0,0	  x0:0x00000000
       44795000	      4478	80004028	00000013	addi	x0,x0,0	  x0:0x00000000
       44805000	      4479	8000402c	0140096f	jal	x18,8000402c	 x18=0x8000402c
       44815000	      4480	00000000	00000013	addi	x0,x0,0	  x0:0x00000000
       44825000	      4481	8000403c	00000013	addi	x0,x0,0	  x0:0x00000000
       44835000	      4482	80004040	ff5ff0ef	jal	x1,80004040	  x1=0x80004040
       44845000	      4483	00000000	00000013	addi	x0,x0,0	  x0:0x00000000
       44855000	      4484	80004030	00000013	addi	x0,x0,0	  x0:0x00000000
       44865000	      4485	80004034	050008ef	jal	x17,80004034	 x17=0x80004034
       44875000	      4486	00000000	00000013	addi	x0,x0,0	  x0:0x00000000
       44885000	      4487	80004080	00000013	addi	x0,x0,0	  x0:0x00000000
       44895000	      4488	80004084	f99ff0ef	jal	x1,80004084	  x1=0x80004084
       44905000	      4489	00000000	00000013	addi	x0,x0,0	  x0:0x00000000
       44915000	      4490	80004018	00000013	addi	x0,x0,0	  x0:0x00000000
       44925000	      4491	8000401c	0340056f	jal	x10,8000401c	 x10=0x8000401c
       44935000	      4492	00000000	00000013	addi	x0,x0,0	  x0:0x00000000
       44945000	      4493	8000404c	00000013	addi	x0,x0,0	  x0:0x00000000
       44955000	      4494	80004050	ff9ff0ef	jal	x1,80004050	  x1=0x80004050
       44965000	      4495	00000000	00000013	addi	x0,x0,0	  x0:0x00000000
       44975000	      4496	80004044	00000013	addi	x0,x0,0	  x0:0x00000000
       44985000	      4497	80004048	fddff0ef	jal	x1,80004048	  x1=0x80004048
       44995000	      4498	00000000	00000013	addi	x0,x0,0	  x0:0x00000000
       45005000	      4499	80004020	00000013	addi	x0,x0,0	  x0:0x00000000
       45015000	      4500	80004024	01400def	jal	x27,80004024	 x27=0x80004024
       45025000	      4501	00000000	00000013	addi	x0,x0,0	  x0:0x00000000
       45035000	      4502	80004034	00000013	addi	x0,x0,0	  x0:0x00000000
       45045000	      4503	80004038	05400a6f	jal	x20,80004038	 x20=0x80004038
       45055000	      4504	00000000	00000013	addi	x0,x0,0	  x0:0x00000000
       45065000	      4505	80004088	00000013	addi	x0,x0,0	  x0:0x00000000
       45075000	      4506	8000408c	400cdb33	sra	x22,x25,x0	 x25:0x80004000  x0:0x00000000 x22=0x80004000
       45085000	      4507	80004090	00c000ef	jal	x1,80004090	  x1=0x80004090
       45095000	      4508	00000000	00000013	addi	x0,x0,0	  x0:0x00000000
       45105000	      4509	80004098	00000013	addi	x0,x0,0	  x0:0x00000000
       45115000	      4510	8000409c	028000ef	jal	x1,8000409c	  x1=0x8000409c
       45125000	      4511	00000000	00000013	addi	x0,x0,0	  x0:0x00000000
       45135000	      4512	800040c0	00000013	addi	x0,x0,0	  x0:0x00000000
       45145000	      4513	800040c4	fd1ff0ef	jal	x1,800040c4	  x1=0x800040c4
       45155000	      4514	00000000	00000013	addi	x0,x0,0	  x0:0x00000000
       45165000	      4515	80004090	00000013	addi	x0,x0,0	  x0:0x00000000
       45175000	      4516	80004094	004000ef	jal	x1,80004094	  x1=0x80004094
       45185000	      4517	00000000	00000013	addi	x0,x0,0	  x0:0x00000000
       45195000	      4518	80004094	00000013	addi	x0,x0,0	  x0:0x00000000
       45205000	      4519	80004098	048000ef	jal	x1,80004098	  x1=0x80004098
       45215000	      4520	00000000	00000013	addi	x0,x0,0	  x0:0x00000000
       45225000	      4521	800040dc	00000013	addi	x0,x0,0	  x0:0x00000000
       45235000	      4522	800040e0	fc1ff0ef	jal	x1,800040e0	  x1=0x800040e0
       45245000	      4523	00000000	00000013	addi	x0,x0,0	  x0:0x00000000
       45255000	      4524	8000409c	00000013	addi	x0,x0,0	  x0:0x00000000
       45265000	      4525	800040a0	0280036f	jal	x6,800040a0	  x6=0x800040a0
       45275000	      4526	00000000	00000013	addi	x0,x0,0	  x0:0x00000000
       45285000	      4527	800040c4	00000013	addi	x0,x0,0	  x0:0x00000000
       45295000	      4528	800040c8	ff9ff0ef	jal	x1,800040c8	  x1=0x800040c8
       45305000	      4529	00000000	00000013	addi	x0,x0,0	  x0:0x00000000
       45315000	      4530	800040bc	00000013	addi	x0,x0,0	  x0:0x00000000
       45325000	      4531	800040c0	fe5ff1ef	jal	x3,800040c0	  x3=0x800040c0
       45335000	      4532	00000000	00000013	addi	x0,x0,0	  x0:0x00000000
       45345000	      4533	800040a0	00000013	addi	x0,x0,0	  x0:0x00000000
       45355000	      4534	800040a4	038002ef	jal	x5,800040a4	  x5=0x800040a4
       45365000	      4535	00000000	00000013	addi	x0,x0,0	  x0:0x00000000
       45375000	      4536	800040d8	00000013	addi	x0,x0,0	  x0:0x00000000
       45385000	      4537	800040dc	fe1ff0ef	jal	x1,800040dc	  x1=0x800040dc
       45395000	      4538	00000000	00000013	addi	x0,x0,0	  x0:0x00000000
       45405000	      4539	800040b8	00000013	addi	x0,x0,0	  x0:0x00000000
       45415000	      4540	800040bc	ff9ff26f	jal	x4,800040bc	  x4=0x800040bc
       45425000	      4541	00000000	00000013	addi	x0,x0,0	  x0:0x00000000
       45435000	      4542	800040b0	00000013	addi	x0,x0,0	  x0:0x00000000
       45445000	      4543	800040b4	00400eef	jal	x29,800040b4	 x29=0x800040b4
       45455000	      4544	00000000	00000013	addi	x0,x0,0	  x0:0x00000000
       45465000	      4545	800040b4	00000013	addi	x0,x0,0	  x0:0x00000000
       45475000	      4546	800040b8	0200036f	jal	x6,800040b8	  x6=0x800040b8
       45485000	      4547	00000000	00000013	addi	x0,x0,0	  x0:0x00000000
       45495000	      4548	800040d4	00000013	addi	x0,x0,0	  x0:0x00000000
       45505000	      4549	800040d8	fd5ff46f	jal	x8,800040d8	  x8=0x800040d8
       45515000	      4550	00000000	00000013	addi	x0,x0,0	  x0:0x00000000
       45525000	      4551	800040a8	00000013	addi	x0,x0,0	  x0:0x00000000
       45535000	      4552	800040ac	024000ef	jal	x1,800040ac	  x1=0x800040ac
       45545000	      4553	00000000	00000013	addi	x0,x0,0	  x0:0x00000000
       45555000	      4554	800040cc	00000013	addi	x0,x0,0	  x0:0x00000000
       45565000	      4555	800040d0	004000ef	jal	x1,800040d0	  x1=0x800040d0
       45575000	      4556	00000000	00000013	addi	x0,x0,0	  x0:0x00000000
       45585000	      4557	800040d0	00000013	addi	x0,x0,0	  x0:0x00000000
       45595000	      4558	800040d4	ff9ff0ef	jal	x1,800040d4	  x1=0x800040d4
       45605000	      4559	00000000	00000013	addi	x0,x0,0	  x0:0x00000000
       45615000	      4560	800040c8	00000013	addi	x0,x0,0	  x0:0x00000000
       45625000	      4561	800040cc	01c0036f	jal	x6,800040cc	  x6=0x800040cc
       45635000	      4562	00000000	00000013	addi	x0,x0,0	  x0:0x00000000
       45645000	      4563	800040e4	00000013	addi	x0,x0,0	  x0:0x00000000
       45655000	      4564	800040e8	ffdff7ef	jal	x15,800040e8	 x15=0x800040e8
       45665000	      4565	00000000	00000013	addi	x0,x0,0	  x0:0x00000000
       45675000	      4566	800040e0	00000013	addi	x0,x0,0	  x0:0x00000000
       45685000	      4567	800040e4	fcdff2ef	jal	x5,800040e4	  x5=0x800040e4
       45695000	      4568	00000000	00000013	addi	x0,x0,0	  x0:0x00000000
       45705000	      4569	800040ac	00000013	addi	x0,x0,0	  x0:0x00000000
       45715000	      4570	800040b0	ff9ff36f	jal	x6,800040b0	  x6=0x800040b0
       45725000	      4571	00000000	00000013	addi	x0,x0,0	  x0:0x00000000
       45735000	      4572	800040a4	00000013	addi	x0,x0,0	  x0:0x00000000
       45745000	      4573	800040a8	0440036f	jal	x6,800040a8	  x6=0x800040a8
       45755000	      4574	00000000	00000013	addi	x0,x0,0	  x0:0x00000000
       45765000	      4575	800040e8	00000013	addi	x0,x0,0	  x0:0x00000000
       45775000	      4576	800040ec	0025d913	srli	x18,x11,0x2	 x11:0xfd893d78 x18=0x3f624f5e
       45785000	      4577	800040f0	0056e0b3	or	x1,x13,x5	 x13:0x80003f58  x5:0x800040e4  x1=0x80007ffc
       45795000	      4578	800040f4	41f2d693	srai	x13,x5,0x1f	  x5:0x800040e4 x13=0xffffffff
       45805000	      4579	800040f8	86ee0f93	addi	x31,x28,-1938	 x28:0x80009f58 x31=0x800097c6
       45815000	      4580	800040fc	038ae063	bltu	x21,x24,8000411c	 x21:0x80004008 x24:0x00000000
       45825000	      4581	80004100	015d8433	add	x8,x27,x21	 x27:0x80004024 x21:0x80004008  x8=0x0000802c
       45835000	      4582	80004104	b7478a13	addi	x20,x15,-1164	 x15:0x800040e8 x20=0x80003c5c
       45845000	      4583	80004108	41395913	srai	x18,x18,0x13	 x18:0x3f624f5e x18=0x000007ec
       45855000	      4584	8000410c	9f47b093	sltiu	x1,x15,-1548	 x15:0x800040e8  x1=0x00000001
       45865000	      4585	80004110	00de59b3	srl	x19,x28,x13	 x28:0x80009f58 x13:0xffffffff x19=0x00000001
       45875000	      4586	80004114	01809a13	slli	x20,x1,0x18	  x1:0x00000001 x20=0x01000000
       45885000	      4587	80004118	007c3933	sltu	x18,x24,x7	 x24:0x00000000  x7:0x80003fc0 x18=0x00000001
       45895000	      4588	8000411c	006bb7b3	sltu	x15,x23,x6	 x23:0x80003f28  x6:0x800040a8 x15=0x00000001
       45905000	      4589	80004120	00e11293	slli	x5,x2,0xe	  x2:0x80009fc4  x5=0x27f10000
       45915000	      4590	80004124	0180d713	srli	x14,x1,0x18	  x1:0x00000001 x14=0x00000000
       45925000	      4591	80004128	009d1033	sll	x0,x26,x9	 x26:0xfd893ff8  x9:0x98f2ff5c
       45935000	      4592	8000412c	00c605b3	add	x11,x12,x12	 x12:0x00000000 x12:0x00000000 x11=0x00000000
       45945000	      4593	80004130	03a60c63	beq	x12,x26,80004168	 x12:0x00000000 x26:0xfd893ff8
       45955000	      4594	80004134	024a6e63	bltu	x20,x4,80004170	 x20:0x01000000  x4:0x800040bc
       45965000	      4595	00000000	00000013	addi	x0,x0,0	  x0:0x00000000
       45975000	      4596	8000416c	00000013	addi	x0,x0,0	  x0:0x00000000
       45985000	      4597	80004170	8fda6f13	ori	x30,x20,-1795	 x20:0x01000000 x30=0xfffff8fd
       45995000	      4598	80004174	02d58463	beq	x11,x13,8000419c	 x11:0x00000000 x13:0xffffffff
       46005000	      4599	80004178	04528063	beq	x5,x5,800041b8	  x5:0x27f10000  x5:0x27f10000
       46015000	      4600	00000000	00000013	addi	x0,x0,0	  x0:0x00000000
       46025000	      4601	800041b4	00000013	addi	x0,x0,0	  x0:0x00000000
       46035000	      4602	800041b8	7e723793	sltiu	x15,x4,2023	  x4:0x800040bc x15=0x00000000
       46045000	      4603	800041bc	0598c863	blt	x17,x25,8000420c	 x17:0x80004034 x25:0x80004000
       46055000	      4604	800041c0	41e70633	sub	x12,x14,x30	 x14:0x00000000 x30:0xfffff8fd x12=0x00000703
       46065000	      4605	800041c4	01ecb4b3	sltu	x9,x25,x30	 x25:0x80004000 x30:0xfffff8fd  x9=0x00000001
       46075000	      4606	800041c8	1540ad13	slti	x26,x1,340	  x1:0x00000001 x26=0x00000001
       46085000	      4607	800041cc	00039693	slli	x13,x7,0x0	  x7:0x80003fc0 x13=0x80003fc0
       46095000	      4608	800041d0	012a0bb3	add	x23,x20,x18	 x20:0x01000000 x18:0x00000001 x23=0x01000001
       46105000	      4609	800041d4	02f06063	bltu	x0,x15,800041f4	  x0:0x00000000 x15:0x00000000
       46115000	      4610	800041d8	00a289b3	add	x19,x5,x10	  x5:0x27f10000 x10:0x8000401c x19=0xa7f1401c
       46125000	      4611	800041dc	00b2ddb3	srl	x27,x5,x11	  x5:0x27f10000 x11:0x00000000 x27=0x27f10000
       46135000	      4612	800041e0	413f0c33	sub	x24,x30,x19	 x30:0xfffff8fd x19:0xa7f1401c x24=0x580eb8e1
       46145000	      4613	800041e4	417d8d33	sub	x26,x27,x23	 x27:0x27f10000 x23:0x01000001 x26=0x26f0ffff
       46155000	      4614	800041e8	05dcd863	bge	x25,x29,80004238	 x25:0x80004000 x29:0x800040b4
       46165000	      4615	800041ec	7d920f93	addi	x31,x4,2009	  x4:0x800040bc x31=0x80004895
       46175000	      4616	800041f0	00202eb3	slt	x29,x0,x2	  x0:0x00000000  x2:0x80009fc4 x29=0x00000000
       46185000	      4617	800041f4	012dedb3	or	x27,x27,x18	 x27:0x27f10000 x18:0x00000001 x27=0x27f10001
       46195000	      4618	800041f8	40780cb3	sub	x25,x16,x7	 x16:0x135afdaa  x7:0x80003fc0 x25=0x935abdea
       46205000	      4619	800041fc	a4fdb037	lui	x0,0xa4fdb	
       46215000	      4620	80004200	01dd04b3	add	x9,x26,x29	 x26:0x26f0ffff x29:0x00000000  x9=0x26f0ffff
       46225000	      4621	80004204	c5033b97	auipc	x23,0xc5033	 x23=0x45037200
       46235000	      4622	80004208	0231f463	bgeu	x3,x3,80004230	  x3:0x800040c0  x3:0x800040c0
       46245000	      4623	00000000	00000013	addi	x0,x0,0	  x0:0x00000000
       46255000	      4624	8000422c	00000013	addi	x0,x0,0	  x0:0x00000000
       46265000	      4625	80004230	54b0aa93	slti	x21,x1,1355	  x1:0x00000001 x21=0x00000001
       46275000	      4626	80004234	008a2fb3	slt	x31,x20,x8	 x20:0x01000000  x8:0x0000802c x31=0x00000000
       46285000	      4627	80004238	13d16793	ori	x15,x2,317	  x2:0x80009fc4 x15=0x80009ffd
       46295000	      4628	8000423c	418f54b3	sra	x9,x30,x24	 x30:0xfffff8fd x24:0x580eb8e1  x9=0xfffffc7e
       46305000	      4629	80004240	82fc9417	auipc	x8,0x82fc9	  x8=0x02fcd23c
       46315000	      4630	80004244	40f48eb3	sub	x29,x9,x15	  x9:0xfffffc7e x15:0x80009ffd x29=0x7fff5c81
       46325000	      4631	80004248	005fbc33	sltu	x24,x31,x5	 x31:0x00000000  x5:0x27f10000 x24=0x00000001
       46335000	      4632	8000424c	01039263	bne	x7,x16,80004250	  x7:0x80003fc0 x16:0x135afdaa
       46345000	      4633	00000000	00000013	addi	x0,x0,0	  x0:0x00000000
       46355000	      4634	8000424c	00000013	addi	x0,x0,0	  x0:0x00000000
       46365000	      4635	80004250	00a5f463	bgeu	x11,x10,80004258	 x11:0x00000000 x10:0x8000401c
       46375000	      4636	80004254	02be8063	beq	x29,x11,80004274	 x29:0x7fff5c81 x11:0x00000000
       46385000	      4637	80004258	01ca93b3	sll	x7,x21,x28	 x21:0x00000001 x28:0x80009f58  x7=0x01000000
       46395000	      4638	8000425c	411bdf33	sra	x30,x23,x17	 x23:0x45037200 x17:0x80004034 x30=0x00000450
       46405000	      4639	80004260	dc07f913	andi	x18,x15,-576	 x15:0x80009ffd x18=0x80009dc0
       46415000	      4640	80004264	00cbcb33	xor	x22,x23,x12	 x23:0x45037200 x12:0x00000703 x22=0x45037503
       46425000	      4641	80004268	180d3097	auipc	x1,0x180d3	  x1=0x980d7264
       46435000	      4642	8000426c	3ac02193	slti	x3,x0,940	  x0:0x00000000  x3=0x00000001
       46445000	      4643	80004270	01abde93	srli	x29,x23,0x1a	 x23:0x45037200 x29=0x00000011
       46455000	      4644	80004274	00c85613	srli	x12,x16,0xc	 x16:0x135afdaa x12=0x000135af
       46465000	      4645	80004278	006b6c63	bltu	x22,x6,80004290	 x22:0x45037503  x6:0x800040a8
       46475000	      4646	00000000	00000013	addi	x0,x0,0	  x0:0x00000000
       46485000	      4647	8000428c	00000013	addi	x0,x0,0	  x0:0x00000000
       46495000	      4648	80004290	0495e863	bltu	x11,x9,800042e0	 x11:0x00000000  x9:0xfffffc7e
       46505000	      4649	00000000	00000013	addi	x0,x0,0	  x0:0x00000000
       46515000	      4650	800042dc	00000013	addi	x0,x0,0	  x0:0x00000000
       46525000	      4651	800042e0	40d80db3	sub	x27,x16,x13	 x16:0x135afdaa x13:0x80003fc0 x27=0x935abdea
       46535000	      4652	800042e4	b5c88d13	addi	x26,x17,-1188	 x17:0x80004034 x26=0x80003b90
       46545000	      4653	800042e8	40b30333	sub	x6,x6,x11	  x6:0x800040a8 x11:0x00000000  x6=0x800040a8
       46555000	      4654	800042ec	598c37b7	lui	x15,0x598c3	 x15=0x598c3000
       46565000	      4655	800042f0	411fdc33	sra	x24,x31,x17	 x31:0x00000000 x17:0x80004034 x24=0x00000000
       46575000	      4656	800042f4	40e75033	sra	x0,x14,x14	 x14:0x00000000 x14:0x00000000
       46585000	      4657	800042f8	41aedf93	srai	x31,x29,0x1a	 x29:0x00000011 x31=0x00000000
       46595000	      4658	800042fc	0067c463	blt	x15,x6,80004304	 x15:0x598c3000  x6:0x800040a8
       46605000	      4659	80004300	43673f13	sltiu	x30,x14,1078	 x14:0x00000000 x30=0x00000001
       46615000	      4660	80004304	015a5033	srl	x0,x20,x21	 x20:0x01000000 x21:0x00000001
       46625000	      4661	80004308	05d3d063	bge	x7,x29,80004348	  x7:0x01000000 x29:0x00000011
       46635000	      4662	00000000	00000013	addi	x0,x0,0	  x0:0x00000000
       46645000	      4663	80004344	00000013	addi	x0,x0,0	  x0:0x00000000
       46655000	      4664	80004348	0143f0b3	and	x1,x7,x20	  x7:0x01000000 x20:0x01000000  x1=0x01000000
       46665000	      4665	8000434c	01f94d33	xor	x26,x18,x31	 x18:0x80009dc0 x31:0x00000000 x26=0x80009dc0
       46675000	      4666	80004350	dbfa4413	xori	x8,x20,-577	 x20:0x01000000  x8=0xfefffdbf
       46685000	      4667	80004354	00000013	addi	x0,x0,0	  x0:0x00000000
       46695000	      4668	80004358	40bd0233	sub	x4,x26,x11	 x26:0x80009dc0 x11:0x00000000  x4=0x80009dc0
       46705000	      4669	8000435c	02aa5c63	bge	x20,x10,80004394	 x20:0x01000000 x10:0x8000401c
       46715000	      4670	00000000	00000013	addi	x0,x0,0	  x0:0x00000000
       46725000	      4671	80004390	00000013	addi	x0,x0,0	  x0:0x00000000
       46735000	      4672	80004394	00ab60b3	or	x1,x22,x10	 x22:0x45037503 x10:0x8000401c  x1=0xc503751f
       46745000	      4673	80004398	00000013	addi	x0,x0,0	  x0:0x00000000
       46755000	      4674	8000439c	00c77db3	and	x27,x14,x12	 x14:0x00000000 x12:0x000135af x27=0x00000000
       46765000	      4675	800043a0	021a4c63	blt	x20,x1,800043d8	 x20:0x01000000  x1:0xc503751f
       46775000	      4676	800043a4	f53e6693	ori	x13,x28,-173	 x28:0x80009f58 x13=0xffffff5b
       46785000	      4677	800043a8	01fc5393	srli	x7,x24,0x1f	 x24:0x00000000  x7=0x00000000
       46795000	      4678	800043ac	002beb33	or	x22,x23,x2	 x23:0x45037200  x2:0x80009fc4 x22=0xc503ffc4
       46805000	      4679	800043b0	008ec6b3	xor	x13,x29,x8	 x29:0x00000011  x8:0xfefffdbf x13=0xfefffdae
       46815000	      4680	800043b4	92ad6c13	ori	x24,x26,-1750	 x26:0x80009dc0 x24=0xfffffdea
       46825000	      4681	800043b8	04845863	bge	x8,x8,80004408	  x8:0xfefffdbf  x8:0xfefffdbf
       46835000	      4682	00000000	00000013	addi	x0,x0,0	  x0:0x00000000
       46845000	      4683	80004404	00000013	addi	x0,x0,0	  x0:0x00000000
       46855000	      4684	80004408	5d2c4013	xori	x0,x24,1490	 x24:0xfffffdea
       46865000	      4685	8000440c	0022f933	and	x18,x5,x2	  x5:0x27f10000  x2:0x80009fc4 x18=0x00000000
       46875000	      4686	80004410	010fceb3	xor	x29,x31,x16	 x31:0x00000000 x16:0x135afdaa x29=0x135afdaa
       46885000	      4687	80004414	0030db13	srli	x22,x1,0x3	  x1:0xc503751f x22=0x18a06ea3
       46895000	      4688	80004418	01bace63	blt	x21,x27,80004434	 x21:0x00000001 x27:0x00000000
       46905000	      4689	8000441c	e6636993	ori	x19,x6,-410	  x6:0x800040a8 x19=0xfffffeee
       46915000	      4690	80004420	f3938393	addi	x7,x7,-199	  x7:0x00000000  x7=0xffffff39
       46925000	      4691	80004424	01559eb3	sll	x29,x11,x21	 x11:0x00000000 x21:0x00000001 x29=0x00000000
       46935000	      4692	80004428	01a96c33	or	x24,x18,x26	 x18:0x00000000 x26:0x80009dc0 x24=0x80009dc0
       46945000	      4693	8000442c	00be96b3	sll	x13,x29,x11	 x29:0x00000000 x11:0x00000000 x13=0x00000000
       46955000	      4694	80004430	410dd893	srai	x17,x27,0x10	 x27:0x00000000 x17=0x00000000
       46965000	      4695	80004434	00797db3	and	x27,x18,x7	 x18:0x00000000  x7:0xffffff39 x27=0x00000000
       46975000	      4696	80004438	0028de63	bge	x17,x2,80004454	 x17:0x00000000  x2:0x80009fc4
       46985000	      4697	00000000	00000013	addi	x0,x0,0	  x0:0x00000000
       46995000	      4698	80004450	00000013	addi	x0,x0,0	  x0:0x00000000
       47005000	      4699	80004454	4e533f13	sltiu	x30,x6,1253	  x6:0x800040a8 x30=0x00000000
       47015000	      4700	80004458	006b6333	or	x6,x22,x6	 x22:0x18a06ea3  x6:0x800040a8  x6=0x98a06eab
       47025000	      4701	8000445c	424e7993	andi	x19,x28,1060	 x28:0x80009f58 x19=0x00000400
       47035000	      4702	80004460	03f95263	bge	x18,x31,80004484	 x18:0x00000000 x31:0x00000000
       47045000	      4703	00000000	00000013	addi	x0,x0,0	  x0:0x00000000
       47055000	      4704	80004480	00000013	addi	x0,x0,0	  x0:0x00000000
       47065000	      4705	80004484	d2e93a93	sltiu	x21,x18,-722	 x18:0x00000000 x21=0x00000001
       47075000	      4706	80004488	04d86863	bltu	x16,x13,800044d8	 x16:0x135afdaa x13:0x00000000
       47085000	      4707	8000448c	01f95613	srli	x12,x18,0x1f	 x18:0x00000000 x12=0x00000000
       47095000	      4708	80004490	02ef7063	bgeu	x30,x14,800044b0	 x30:0x00000000 x14:0x00000000
       47105000	      4709	00000000	00000013	addi	x0,x0,0	  x0:0x00000000
       47115000	      4710	800044ac	00000013	addi	x0,x0,0	  x0:0x00000000
       47125000	      4711	800044b0	01648263	beq	x9,x22,800044b4	  x9:0xfffffc7e x22:0x18a06ea3
       47135000	      4712	800044b4	48bbf793	andi	x15,x23,1163	 x23:0x45037200 x15=0x00000000
       47145000	      4713	800044b8	c1312413	slti	x8,x2,-1005	  x2:0x80009fc4  x8=0x00000001
       47155000	      4714	800044bc	0052d033	srl	x0,x5,x5	  x5:0x27f10000  x5:0x27f10000
       47165000	      4715	800044c0	0466e463	bltu	x13,x6,80004508	 x13:0x00000000  x6:0x98a06eab
       47175000	      4716	00000000	00000013	addi	x0,x0,0	  x0:0x00000000
       47185000	      4717	80004504	00000013	addi	x0,x0,0	  x0:0x00000000
       47195000	      4718	80004508	a6158037	lui	x0,0xa6158	
       47205000	      4719	8000450c	d7768913	addi	x18,x13,-649	 x13:0x00000000 x18=0xfffffd77
       47215000	      4720	80004510	03d9f063	bgeu	x19,x29,80004530	 x19:0x00000400 x29:0x00000000
       47225000	      4721	00000000	00000013	addi	x0,x0,0	  x0:0x00000000
       47235000	      4722	8000452c	00000013	addi	x0,x0,0	  x0:0x00000000
       47245000	      4723	80004530	01c74233	xor	x4,x14,x28	 x14:0x00000000 x28:0x80009f58  x4=0x80009f58
       47255000	      4724	80004534	0109d463	bge	x19,x16,8000453c	 x19:0x00000400 x16:0x135afdaa
       47265000	      4725	80004538	0233fe63	bgeu	x7,x3,80004574	  x7:0xffffff39  x3:0x00000001
       47275000	      4726	00000000	00000013	addi	x0,x0,0	  x0:0x00000000
       47285000	      4727	80004570	00000013	addi	x0,x0,0	  x0:0x00000000
       47295000	      4728	80004574	0095fb33	and	x22,x11,x9	 x11:0x00000000  x9:0xfffffc7e x22=0x00000000
       47305000	      4729	80004578	05948063	beq	x9,x25,800045b8	  x9:0xfffffc7e x25:0x935abdea
       47315000	      4730	8000457c	00000013	addi	x0,x0,0	  x0:0x00000000
       47325000	      4731	80004580	019b4263	blt	x22,x25,80004584	 x22:0x00000000 x25:0x935abdea
       47335000	      4732	80004584	00a3d0b3	srl	x1,x7,x10	  x7:0xffffff39 x10:0x8000401c  x1=0x0000000f
       47345000	      4733	80004588	01955c13	srli	x24,x10,0x19	 x10:0x8000401c x24=0x00000040
       47355000	      4734	8000458c	2d6fc593	xori	x11,x31,726	 x31:0x00000000 x11=0x000002d6
       47365000	      4735	80004590	01a05463	bge	x0,x26,80004598	  x0:0x00000000 x26:0x80009dc0
       47375000	      4736	00000000	00000013	addi	x0,x0,0	  x0:0x00000000
       47385000	      4737	80004594	00000013	addi	x0,x0,0	  x0:0x00000000
       47395000	      4738	80004598	0136edb3	or	x27,x13,x19	 x13:0x00000000 x19:0x00000400 x27=0x00000400
       47405000	      4739	8000459c	00bf38b3	sltu	x17,x30,x11	 x30:0x00000000 x11:0x000002d6 x17=0x00000001
       47415000	      4740	800045a0	0109d4b3	srl	x9,x19,x16	 x19:0x00000400 x16:0x135afdaa  x9=0x00000001
       47425000	      4741	800045a4	01122d33	slt	x26,x4,x17	  x4:0x80009f58 x17:0x00000001 x26=0x00000001
       47435000	      4742	800045a8	01f05993	srli	x19,x0,0x1f	  x0:0x00000000 x19=0x00000000
       47445000	      4743	800045ac	b4a2a793	slti	x15,x5,-1206	  x5:0x27f10000 x15=0x00000000
       47455000	      4744	800045b0	009898b3	sll	x17,x17,x9	 x17:0x00000001  x9:0x00000001 x17=0x00000002
       47465000	      4745	800045b4	41200633	sub	x12,x0,x18	  x0:0x00000000 x18:0xfffffd77 x12=0x00000289
       47475000	      4746	800045b8	c6292793	slti	x15,x18,-926	 x18:0xfffffd77 x15=0x00000000
       47485000	      4747	800045bc	016acc33	xor	x24,x21,x22	 x21:0x00000001 x22:0x00000000 x24=0x00000001
       47495000	      4748	800045c0	402887b3	sub	x15,x17,x2	 x17:0x00000002  x2:0x80009fc4 x15=0x7fff603e
       47505000	      4749	800045c4	894c2b93	slti	x23,x24,-1900	 x24:0x00000001 x23=0x00000000
       47515000	      4750	800045c8	27b13013	sltiu	x0,x2,635	  x2:0x80009fc4
       47525000	      4751	800045cc	027f9063	bne	x31,x7,800045ec	 x31:0x00000000  x7:0xffffff39
       47535000	      4752	00000000	00000013	addi	x0,x0,0	  x0:0x00000000
       47545000	      4753	800045e8	00000013	addi	x0,x0,0	  x0:0x00000000
       47555000	      4754	800045ec	030f6063	bltu	x30,x16,8000460c	 x30:0x00000000 x16:0x135afdaa
       47565000	      4755	00000000	00000013	addi	x0,x0,0	  x0:0x00000000
       47575000	      4756	80004608	00000013	addi	x0,x0,0	  x0:0x00000000
       47585000	      4757	8000460c	4d74f713	andi	x14,x9,1239	  x9:0x00000001 x14=0x00000001
       47595000	      4758	80004610	006d4c33	xor	x24,x26,x6	 x26:0x00000001  x6:0x98a06eab x24=0x98a06eaa
       47605000	      4759	80004614	40a40733	sub	x14,x8,x10	  x8:0x00000001 x10:0x8000401c x14=0x7fffbfe5
       47615000	      4760	80004618	40bad093	srai	x1,x21,0xb	 x21:0x00000001  x1=0x00000000
       47625000	      4761	8000461c	040000ef	jal	x1,8000461c	  x1=0x8000461c
       47635000	      4762	00000000	00000013	addi	x0,x0,0	  x0:0x00000000
       47645000	      4763	80004658	00000013	addi	x0,x0,0	  x0:0x00000000
       47655000	      4764	8000465c	008000ef	jal	x1,8000465c	  x1=0x8000465c
       47665000	      4765	00000000	00000013	addi	x0,x0,0	  x0:0x00000000
       47675000	      4766	80004660	00000013	addi	x0,x0,0	  x0:0x00000000
       47685000	      4767	80004664	fe9ff36f	jal	x6,80004664	  x6=0x80004664
       47695000	      4768	00000000	00000013	addi	x0,x0,0	  x0:0x00000000
       47705000	      4769	80004648	00000013	addi	x0,x0,0	  x0:0x00000000
       47715000	      4770	8000464c	fd5ff0ef	jal	x1,8000464c	  x1=0x8000464c
       47725000	      4771	00000000	00000013	addi	x0,x0,0	  x0:0x00000000
       47735000	      4772	8000461c	00000013	addi	x0,x0,0	  x0:0x00000000
       47745000	      4773	80004620	004000ef	jal	x1,80004620	  x1=0x80004620
       47755000	      4774	00000000	00000013	addi	x0,x0,0	  x0:0x00000000
       47765000	      4775	80004620	00000013	addi	x0,x0,0	  x0:0x00000000
       47775000	      4776	80004624	030009ef	jal	x19,80004624	 x19=0x80004624
       47785000	      4777	00000000	00000013	addi	x0,x0,0	  x0:0x00000000
       47795000	      4778	80004650	00000013	addi	x0,x0,0	  x0:0x00000000
       47805000	      4779	80004654	014000ef	jal	x1,80004654	  x1=0x80004654
       47815000	      4780	00000000	00000013	addi	x0,x0,0	  x0:0x00000000
       47825000	      4781	80004664	00000013	addi	x0,x0,0	  x0:0x00000000
       47835000	      4782	80004668	ff9ff0ef	jal	x1,80004668	  x1=0x80004668
       47845000	      4783	00000000	00000013	addi	x0,x0,0	  x0:0x00000000
       47855000	      4784	8000465c	00000013	addi	x0,x0,0	  x0:0x00000000
       47865000	      4785	80004660	01c000ef	jal	x1,80004660	  x1=0x80004660
       47875000	      4786	00000000	00000013	addi	x0,x0,0	  x0:0x00000000
       47885000	      4787	80004678	00000013	addi	x0,x0,0	  x0:0x00000000
       47895000	      4788	8000467c	fbdff0ef	jal	x1,8000467c	  x1=0x8000467c
       47905000	      4789	00000000	00000013	addi	x0,x0,0	  x0:0x00000000
       47915000	      4790	80004634	00000013	addi	x0,x0,0	  x0:0x00000000
       47925000	      4791	80004638	034000ef	jal	x1,80004638	  x1=0x80004638
       47935000	      4792	00000000	00000013	addi	x0,x0,0	  x0:0x00000000
       47945000	      4793	80004668	00000013	addi	x0,x0,0	  x0:0x00000000
       47955000	      4794	8000466c	fd9ff36f	jal	x6,8000466c	  x6=0x8000466c
       47965000	      4795	00000000	00000013	addi	x0,x0,0	  x0:0x00000000
       47975000	      4796	80004640	00000013	addi	x0,x0,0	  x0:0x00000000
       47985000	      4797	80004644	ff1ff0ef	jal	x1,80004644	  x1=0x80004644
       47995000	      4798	00000000	00000013	addi	x0,x0,0	  x0:0x00000000
       48005000	      4799	80004630	00000013	addi	x0,x0,0	  x0:0x00000000
       48015000	      4800	80004634	ffdffa6f	jal	x20,80004634	 x20=0x80004634
       48025000	      4801	00000000	00000013	addi	x0,x0,0	  x0:0x00000000
       48035000	      4802	8000462c	00000013	addi	x0,x0,0	  x0:0x00000000
       48045000	      4803	80004630	044000ef	jal	x1,80004630	  x1=0x80004630
       48055000	      4804	00000000	00000013	addi	x0,x0,0	  x0:0x00000000
       48065000	      4805	80004670	00000013	addi	x0,x0,0	  x0:0x00000000
       48075000	      4806	80004674	fe5ff36f	jal	x6,80004674	  x6=0x80004674
       48085000	      4807	00000000	00000013	addi	x0,x0,0	  x0:0x00000000
       48095000	      4808	80004654	00000013	addi	x0,x0,0	  x0:0x00000000
       48105000	      4809	80004658	ff1ff0ef	jal	x1,80004658	  x1=0x80004658
       48115000	      4810	00000000	00000013	addi	x0,x0,0	  x0:0x00000000
       48125000	      4811	80004644	00000013	addi	x0,x0,0	  x0:0x00000000
       48135000	      4812	80004648	ff5ff0ef	jal	x1,80004648	  x1=0x80004648
       48145000	      4813	00000000	00000013	addi	x0,x0,0	  x0:0x00000000
       48155000	      4814	80004638	00000013	addi	x0,x0,0	  x0:0x00000000
       48165000	      4815	8000463c	fedff0ef	jal	x1,8000463c	  x1=0x8000463c
       48175000	      4816	00000000	00000013	addi	x0,x0,0	  x0:0x00000000
       48185000	      4817	80004624	00000013	addi	x0,x0,0	  x0:0x00000000
       48195000	      4818	80004628	0280036f	jal	x6,80004628	  x6=0x80004628
       48205000	      4819	00000000	00000013	addi	x0,x0,0	  x0:0x00000000
       48215000	      4820	8000464c	00000013	addi	x0,x0,0	  x0:0x00000000
       48225000	      4821	80004650	0200036f	jal	x6,80004650	  x6=0x80004650
       48235000	      4822	00000000	00000013	addi	x0,x0,0	  x0:0x00000000
       48245000	      4823	8000466c	00000013	addi	x0,x0,0	  x0:0x00000000
       48255000	      4824	80004670	008006ef	jal	x13,80004670	 x13=0x80004670
       48265000	      4825	00000000	00000013	addi	x0,x0,0	  x0:0x00000000
       48275000	      4826	80004674	00000013	addi	x0,x0,0	  x0:0x00000000
       48285000	      4827	80004678	fb5ff46f	jal	x8,80004678	  x8=0x80004678
       48295000	      4828	00000000	00000013	addi	x0,x0,0	  x0:0x00000000
       48305000	      4829	80004628	00000013	addi	x0,x0,0	  x0:0x00000000
       48315000	      4830	8000462c	014000ef	jal	x1,8000462c	  x1=0x8000462c
       48325000	      4831	00000000	00000013	addi	x0,x0,0	  x0:0x00000000
       48335000	      4832	8000463c	00000013	addi	x0,x0,0	  x0:0x00000000
       48345000	      4833	80004640	040000ef	jal	x1,80004640	  x1=0x80004640
       48355000	      4834	00000000	00000013	addi	x0,x0,0	  x0:0x00000000
       48365000	      4835	8000467c	00000013	addi	x0,x0,0	  x0:0x00000000
       48375000	      4836	80004680	0064d893	srli	x17,x9,0x6	  x9:0x00000001 x17=0x00000000
       48385000	      4837	80004684	5c9a8293	addi	x5,x21,1481	 x21:0x00000001  x5=0x000005ca
       48395000	      4838	80004688	e5ba2213	slti	x4,x20,-421	 x20:0x80004634  x4=0x00000001
       48405000	      4839	8000468c	002d8a63	beq	x27,x2,800046a0	 x27:0x00000400  x2:0x80009fc4
       48415000	      4840	80004690	41715333	sra	x6,x2,x23	  x2:0x80009fc4 x23:0x00000000  x6=0x80009fc4
       48425000	      4841	80004694	4bbff593	andi	x11,x31,1211	 x31:0x00000000 x11=0x00000000
       48435000	      4842	80004698	00a07c33	and	x24,x0,x10	  x0:0x00000000 x10:0x8000401c x24=0x00000000
       48445000	      4843	8000469c	010624b3	slt	x9,x12,x16	 x12:0x00000289 x16:0x135afdaa  x9=0x00000001
       48455000	      4844	800046a0	003a2033	slt	x0,x20,x3	 x20:0x80004634  x3:0x00000001
       48465000	      4845	800046a4	004e2083	lw	x1,4(x28)	 x28:0x80009f58  x1=0x800020f8 PA:0x80009f5c
       48475000	      4846	800046a8	010e0e13	addi	x28,x28,16	 x28:0x80009f58 x28=0x80009f68
       48485000	      4847	800046ac	18796a13	ori	x20,x18,391	 x18:0xfffffd77 x20=0xfffffdf7
       48495000	      4848	800046b0	0192f433	and	x8,x5,x25	  x5:0x000005ca x25:0x935abdea  x8=0x000005ca
       48505000	      4849	800046b4	00718533	add	x10,x3,x7	  x3:0x00000001  x7:0xffffff39 x10=0xffffff3a
       48515000	      4850	800046b8	005be5b3	or	x11,x23,x5	 x23:0x00000000  x5:0x000005ca x11=0x000005ca
       48525000	      4851	800046bc	00788033	add	x0,x17,x7	 x17:0x00000000  x7:0xffffff39
       48535000	      4852	800046c0	00ac6933	or	x18,x24,x10	 x24:0x00000000 x10:0xffffff3a x18=0xffffff3a
       48545000	      4853	800046c4	41b0d233	sra	x4,x1,x27	  x1:0x800020f8 x27:0x00000400  x4=0x800020f8
       48555000	      4854	800046c8	00008193	addi	x3,x1,0	  x1:0x800020f8  x3=0x800020f8
       48565000	      4855	800046cc	000181e7	jalr	x3,x3,0	  x3:0x800020f8  x3=0x800046cc
       48575000	      4856	00000000	00000013	addi	x0,x0,0	  x0:0x00000000
       48585000	      4857	800020f8	00000013	addi	x0,x0,0	  x0:0x00000000
       48595000	      4858	800020fc	028000ef	jal	x1,800020fc	  x1=0x800020fc
       48605000	      4859	00000000	00000013	addi	x0,x0,0	  x0:0x00000000
       48615000	      4860	80002120	00000013	addi	x0,x0,0	  x0:0x00000000
       48625000	      4861	80002124	ffdffaef	jal	x21,80002124	 x21=0x80002124
       48635000	      4862	00000000	00000013	addi	x0,x0,0	  x0:0x00000000
       48645000	      4863	8000211c	00000013	addi	x0,x0,0	  x0:0x00000000
       48655000	      4864	80002120	ff5ff0ef	jal	x1,80002120	  x1=0x80002120
       48665000	      4865	00000000	00000013	addi	x0,x0,0	  x0:0x00000000
       48675000	      4866	80002110	00000013	addi	x0,x0,0	  x0:0x00000000
       48685000	      4867	80002114	ff9ff36f	jal	x6,80002114	  x6=0x80002114
       48695000	      4868	00000000	00000013	addi	x0,x0,0	  x0:0x00000000
       48705000	      4869	80002108	00000013	addi	x0,x0,0	  x0:0x00000000
       48715000	      4870	8000210c	ffdff36f	jal	x6,8000210c	  x6=0x8000210c
       48725000	      4871	00000000	00000013	addi	x0,x0,0	  x0:0x00000000
       48735000	      4872	80002104	00000013	addi	x0,x0,0	  x0:0x00000000
       48745000	      4873	80002108	00800eef	jal	x29,80002108	 x29=0x80002108
       48755000	      4874	00000000	00000013	addi	x0,x0,0	  x0:0x00000000
       48765000	      4875	8000210c	00000013	addi	x0,x0,0	  x0:0x00000000
       48775000	      4876	80002110	008000ef	jal	x1,80002110	  x1=0x80002110
       48785000	      4877	00000000	00000013	addi	x0,x0,0	  x0:0x00000000
       48795000	      4878	80002114	00000013	addi	x0,x0,0	  x0:0x00000000
       48805000	      4879	80002118	0040036f	jal	x6,80002118	  x6=0x80002118
       48815000	      4880	00000000	00000013	addi	x0,x0,0	  x0:0x00000000
       48825000	      4881	80002118	00000013	addi	x0,x0,0	  x0:0x00000000
       48835000	      4882	8000211c	fe9ff6ef	jal	x13,8000211c	 x13=0x8000211c
       48845000	      4883	00000000	00000013	addi	x0,x0,0	  x0:0x00000000
       48855000	      4884	80002100	00000013	addi	x0,x0,0	  x0:0x00000000
       48865000	      4885	80002104	ffdff8ef	jal	x17,80002104	 x17=0x80002104
       48875000	      4886	00000000	00000013	addi	x0,x0,0	  x0:0x00000000
       48885000	      4887	800020fc	00000013	addi	x0,x0,0	  x0:0x00000000
       48895000	      4888	80002100	028000ef	jal	x1,80002100	  x1=0x80002100
       48905000	      4889	00000000	00000013	addi	x0,x0,0	  x0:0x00000000
       48915000	      4890	80002124	00000013	addi	x0,x0,0	  x0:0x00000000
       48925000	      4891	80002128	01229413	slli	x8,x5,0x12	  x5:0x000005ca  x8=0x17280000
       48935000	      4892	8000212c	070000ef	jal	x1,8000212c	  x1=0x8000212c
       48945000	      4893	00000000	00000013	addi	x0,x0,0	  x0:0x00000000
       48955000	      4894	80002198	00000013	addi	x0,x0,0	  x0:0x00000000
       48965000	      4895	8000219c	fcdff36f	jal	x6,8000219c	  x6=0x8000219c
       48975000	      4896	00000000	00000013	addi	x0,x0,0	  x0:0x00000000
       48985000	      4897	80002164	00000013	addi	x0,x0,0	  x0:0x00000000
       48995000	      4898	80002168	fd9ff36f	jal	x6,80002168	  x6=0x80002168
       49005000	      4899	00000000	00000013	addi	x0,x0,0	  x0:0x00000000
       49015000	      4900	8000213c	00000013	addi	x0,x0,0	  x0:0x00000000
       49025000	      4901	80002140	004000ef	jal	x1,80002140	  x1=0x80002140
       49035000	      4902	00000000	00000013	addi	x0,x0,0	  x0:0x00000000
       49045000	      4903	80002140	00000013	addi	x0,x0,0	  x0:0x00000000
       49055000	      4904	80002144	03c0036f	jal	x6,80002144	  x6=0x80002144
       49065000	      4905	00000000	00000013	addi	x0,x0,0	  x0:0x00000000
       49075000	      4906	8000217c	00000013	addi	x0,x0,0	  x0:0x00000000
       49085000	      4907	80002180	020000ef	jal	x1,80002180	  x1=0x80002180
       49095000	      4908	00000000	00000013	addi	x0,x0,0	  x0:0x00000000
       49105000	      4909	8000219c	00000013	addi	x0,x0,0	  x0:0x00000000
       49115000	      4910	800021a0	f9dff0ef	jal	x1,800021a0	  x1=0x800021a0
       49125000	      4911	00000000	00000013	addi	x0,x0,0	  x0:0x00000000
       49135000	      4912	80002138	00000013	addi	x0,x0,0	  x0:0x00000000
       49145000	      4913	8000213c	048000ef	jal	x1,8000213c	  x1=0x8000213c
       49155000	      4914	00000000	00000013	addi	x0,x0,0	  x0:0x00000000
       49165000	      4915	80002180	00000013	addi	x0,x0,0	  x0:0x00000000
       49175000	      4916	80002184	fc5ff66f	jal	x12,80002184	 x12=0x80002184
       49185000	      4917	00000000	00000013	addi	x0,x0,0	  x0:0x00000000
       49195000	      4918	80002144	00000013	addi	x0,x0,0	  x0:0x00000000
       49205000	      4919	80002148	048000ef	jal	x1,80002148	  x1=0x80002148
       49215000	      4920	00000000	00000013	addi	x0,x0,0	  x0:0x00000000
       49225000	      4921	8000218c	00000013	addi	x0,x0,0	  x0:0x00000000
       49235000	      4922	80002190	fa1ff0ef	jal	x1,80002190	  x1=0x80002190
       49245000	      4923	00000000	00000013	addi	x0,x0,0	  x0:0x00000000
       49255000	      4924	8000212c	00000013	addi	x0,x0,0	  x0:0x00000000
       49265000	      4925	80002130	0280036f	jal	x6,80002130	  x6=0x80002130
       49275000	      4926	00000000	00000013	addi	x0,x0,0	  x0:0x00000000
       49285000	      4927	80002154	00000013	addi	x0,x0,0	  x0:0x00000000
       49295000	      4928	80002158	0240036f	jal	x6,80002158	  x6=0x80002158
       49305000	      4929	00000000	00000013	addi	x0,x0,0	  x0:0x00000000
       49315000	      4930	80002178	00000013	addi	x0,x0,0	  x0:0x00000000
       49325000	      4931	8000217c	ff9ffa6f	jal	x20,8000217c	 x20=0x8000217c
       49335000	      4932	00000000	00000013	addi	x0,x0,0	  x0:0x00000000
       49345000	      4933	80002170	00000013	addi	x0,x0,0	  x0:0x00000000
       49355000	      4934	80002174	0240026f	jal	x4,80002174	  x4=0x80002174
       49365000	      4935	00000000	00000013	addi	x0,x0,0	  x0:0x00000000
       49375000	      4936	80002194	00000013	addi	x0,x0,0	  x0:0x00000000
       49385000	      4937	80002198	ff5ff36f	jal	x6,80002198	  x6=0x80002198
       49395000	      4938	00000000	00000013	addi	x0,x0,0	  x0:0x00000000
       49405000	      4939	80002188	00000013	addi	x0,x0,0	  x0:0x00000000
       49415000	      4940	8000218c	fc9ff2ef	jal	x5,8000218c	  x5=0x8000218c
       49425000	      4941	00000000	00000013	addi	x0,x0,0	  x0:0x00000000
       49435000	      4942	80002150	00000013	addi	x0,x0,0	  x0:0x00000000
       49445000	      4943	80002154	0340036f	jal	x6,80002154	  x6=0x80002154
       49455000	      4944	00000000	00000013	addi	x0,x0,0	  x0:0x00000000
       49465000	      4945	80002184	00000013	addi	x0,x0,0	  x0:0x00000000
       49475000	      4946	80002188	fb1ff0ef	jal	x1,80002188	  x1=0x80002188
       49485000	      4947	00000000	00000013	addi	x0,x0,0	  x0:0x00000000
       49495000	      4948	80002134	00000013	addi	x0,x0,0	  x0:0x00000000
       49505000	      4949	80002138	02c000ef	jal	x1,80002138	  x1=0x80002138
       49515000	      4950	00000000	00000013	addi	x0,x0,0	  x0:0x00000000
       49525000	      4951	80002160	00000013	addi	x0,x0,0	  x0:0x00000000
       49535000	      4952	80002164	fe9ff26f	jal	x4,80002164	  x4=0x80002164
       49545000	      4953	00000000	00000013	addi	x0,x0,0	  x0:0x00000000
       49555000	      4954	80002148	00000013	addi	x0,x0,0	  x0:0x00000000
       49565000	      4955	8000214c	014004ef	jal	x9,8000214c	  x9=0x8000214c
       49575000	      4956	00000000	00000013	addi	x0,x0,0	  x0:0x00000000
       49585000	      4957	8000215c	00000013	addi	x0,x0,0	  x0:0x00000000
       49595000	      4958	80002160	ff1ff26f	jal	x4,80002160	  x4=0x80002160
       49605000	      4959	00000000	00000013	addi	x0,x0,0	  x0:0x00000000
       49615000	      4960	8000214c	00000013	addi	x0,x0,0	  x0:0x00000000
       49625000	      4961	80002150	0440036f	jal	x6,80002150	  x6=0x80002150
       49635000	      4962	00000000	00000013	addi	x0,x0,0	  x0:0x00000000
       49645000	      4963	80002190	00000013	addi	x0,x0,0	  x0:0x00000000
       49655000	      4964	80002194	fe5ffaef	jal	x21,80002194	 x21=0x80002194
       49665000	      4965	00000000	00000013	addi	x0,x0,0	  x0:0x00000000
       49675000	      4966	80002174	00000013	addi	x0,x0,0	  x0:0x00000000
       49685000	      4967	80002178	ff9ff0ef	jal	x1,80002178	  x1=0x80002178
       49695000	      4968	00000000	00000013	addi	x0,x0,0	  x0:0x00000000
       49705000	      4969	8000216c	00000013	addi	x0,x0,0	  x0:0x00000000
       49715000	      4970	80002170	fedff0ef	jal	x1,80002170	  x1=0x80002170
       49725000	      4971	00000000	00000013	addi	x0,x0,0	  x0:0x00000000
       49735000	      4972	80002158	00000013	addi	x0,x0,0	  x0:0x00000000
       49745000	      4973	8000215c	fd9ff0ef	jal	x1,8000215c	  x1=0x8000215c
       49755000	      4974	00000000	00000013	addi	x0,x0,0	  x0:0x00000000
       49765000	      4975	80002130	00000013	addi	x0,x0,0	  x0:0x00000000
       49775000	      4976	80002134	0380036f	jal	x6,80002134	  x6=0x80002134
       49785000	      4977	00000000	00000013	addi	x0,x0,0	  x0:0x00000000
       49795000	      4978	80002168	00000013	addi	x0,x0,0	  x0:0x00000000
       49805000	      4979	8000216c	038000ef	jal	x1,8000216c	  x1=0x8000216c
       49815000	      4980	00000000	00000013	addi	x0,x0,0	  x0:0x00000000
       49825000	      4981	800021a0	00000013	addi	x0,x0,0	  x0:0x00000000
       49835000	      4982	800021a4	0052d733	srl	x14,x5,x5	  x5:0x8000218c  x5:0x8000218c x14=0x00080002
       49845000	      4983	800021a8	01c000ef	jal	x1,800021a8	  x1=0x800021a8
       49855000	      4984	00000000	00000013	addi	x0,x0,0	  x0:0x00000000
       49865000	      4985	800021c0	00000013	addi	x0,x0,0	  x0:0x00000000
       49875000	      4986	800021c4	0080036f	jal	x6,800021c4	  x6=0x800021c4
       49885000	      4987	00000000	00000013	addi	x0,x0,0	  x0:0x00000000
       49895000	      4988	800021c8	00000013	addi	x0,x0,0	  x0:0x00000000
       49905000	      4989	800021cc	ff5fffef	jal	x31,800021cc	 x31=0x800021cc
       49915000	      4990	00000000	00000013	addi	x0,x0,0	  x0:0x00000000
       49925000	      4991	800021bc	00000013	addi	x0,x0,0	  x0:0x00000000
       49935000	      4992	800021c0	ffdff0ef	jal	x1,800021c0	  x1=0x800021c0
       49945000	      4993	00000000	00000013	addi	x0,x0,0	  x0:0x00000000
       49955000	      4994	800021b8	00000013	addi	x0,x0,0	  x0:0x00000000
       49965000	      4995	800021bc	ffdff0ef	jal	x1,800021bc	  x1=0x800021bc
       49975000	      4996	00000000	00000013	addi	x0,x0,0	  x0:0x00000000
       49985000	      4997	800021b4	00000013	addi	x0,x0,0	  x0:0x00000000
       49995000	      4998	800021b8	0100036f	jal	x6,800021b8	  x6=0x800021b8
       50005000	      4999	00000000	00000013	addi	x0,x0,0	  x0:0x00000000
       50015000	      5000	800021c4	00000013	addi	x0,x0,0	  x0:0x00000000
       50025000	      5001	800021c8	020000ef	jal	x1,800021c8	  x1=0x800021c8
       50035000	      5002	00000000	00000013	addi	x0,x0,0	  x0:0x00000000
       50045000	      5003	800021e4	00000013	addi	x0,x0,0	  x0:0x00000000
       50055000	      5004	800021e8	fc9ff0ef	jal	x1,800021e8	  x1=0x800021e8
       50065000	      5005	00000000	00000013	addi	x0,x0,0	  x0:0x00000000
       50075000	      5006	800021ac	00000013	addi	x0,x0,0	  x0:0x00000000
       50085000	      5007	800021b0	0280036f	jal	x6,800021b0	  x6=0x800021b0
       50095000	      5008	00000000	00000013	addi	x0,x0,0	  x0:0x00000000
       50105000	      5009	800021d4	00000013	addi	x0,x0,0	  x0:0x00000000
       50115000	      5010	800021d8	00c000ef	jal	x1,800021d8	  x1=0x800021d8
       50125000	      5011	00000000	00000013	addi	x0,x0,0	  x0:0x00000000
       50135000	      5012	800021e0	00000013	addi	x0,x0,0	  x0:0x00000000
       50145000	      5013	800021e4	fedff0ef	jal	x1,800021e4	  x1=0x800021e4
       50155000	      5014	00000000	00000013	addi	x0,x0,0	  x0:0x00000000
       50165000	      5015	800021cc	00000013	addi	x0,x0,0	  x0:0x00000000
       50175000	      5016	800021d0	fddff36f	jal	x6,800021d0	  x6=0x800021d0
       50185000	      5017	00000000	00000013	addi	x0,x0,0	  x0:0x00000000
       50195000	      5018	800021a8	00000013	addi	x0,x0,0	  x0:0x00000000
       50205000	      5019	800021ac	028000ef	jal	x1,800021ac	  x1=0x800021ac
       50215000	      5020	00000000	00000013	addi	x0,x0,0	  x0:0x00000000
       50225000	      5021	800021d0	00000013	addi	x0,x0,0	  x0:0x00000000
       50235000	      5022	800021d4	008002ef	jal	x5,800021d4	  x5=0x800021d4
       50245000	      5023	00000000	00000013	addi	x0,x0,0	  x0:0x00000000
       50255000	      5024	800021d8	00000013	addi	x0,x0,0	  x0:0x00000000
       50265000	      5025	800021dc	fd9ff0ef	jal	x1,800021dc	  x1=0x800021dc
       50275000	      5026	00000000	00000013	addi	x0,x0,0	  x0:0x00000000
       50285000	      5027	800021b0	00000013	addi	x0,x0,0	  x0:0x00000000
       50295000	      5028	800021b4	02c000ef	jal	x1,800021b4	  x1=0x800021b4
       50305000	      5029	00000000	00000013	addi	x0,x0,0	  x0:0x00000000
       50315000	      5030	800021dc	00000013	addi	x0,x0,0	  x0:0x00000000
       50325000	      5031	800021e0	00c008ef	jal	x17,800021e0	 x17=0x800021e0
       50335000	      5032	00000000	00000013	addi	x0,x0,0	  x0:0x00000000
       50345000	      5033	800021e8	00000013	addi	x0,x0,0	  x0:0x00000000
       50355000	      5034	800021ec	40d1d5b3	sra	x11,x3,x13	  x3:0x800046cc x13:0x8000211c x11=0xfffffff8
       50365000	      5035	800021f0	020000ef	jal	x1,800021f0	  x1=0x800021f0
       50375000	      5036	00000000	00000013	addi	x0,x0,0	  x0:0x00000000
       50385000	      5037	8000220c	00000013	addi	x0,x0,0	  x0:0x00000000
       50395000	      5038	80002210	01c0036f	jal	x6,80002210	  x6=0x80002210
       50405000	      5039	00000000	00000013	addi	x0,x0,0	  x0:0x00000000
       50415000	      5040	80002228	00000013	addi	x0,x0,0	  x0:0x00000000
       50425000	      5041	8000222c	fe9ff1ef	jal	x3,8000222c	  x3=0x8000222c
       50435000	      5042	00000000	00000013	addi	x0,x0,0	  x0:0x00000000
       50445000	      5043	80002210	00000013	addi	x0,x0,0	  x0:0x00000000
       50455000	      5044	80002214	010000ef	jal	x1,80002214	  x1=0x80002214
       50465000	      5045	00000000	00000013	addi	x0,x0,0	  x0:0x00000000
       50475000	      5046	80002220	00000013	addi	x0,x0,0	  x0:0x00000000
       50485000	      5047	80002224	ff9ff36f	jal	x6,80002224	  x6=0x80002224
       50495000	      5048	00000000	00000013	addi	x0,x0,0	  x0:0x00000000
       50505000	      5049	80002218	00000013	addi	x0,x0,0	  x0:0x00000000
       50515000	      5050	8000221c	fedff0ef	jal	x1,8000221c	  x1=0x8000221c
       50525000	      5051	00000000	00000013	addi	x0,x0,0	  x0:0x00000000
       50535000	      5052	80002204	00000013	addi	x0,x0,0	  x0:0x00000000
       50545000	      5053	80002208	ffdff0ef	jal	x1,80002208	  x1=0x80002208
       50555000	      5054	00000000	00000013	addi	x0,x0,0	  x0:0x00000000
       50565000	      5055	80002200	00000013	addi	x0,x0,0	  x0:0x00000000
       50575000	      5056	80002204	ff1ff9ef	jal	x19,80002204	 x19=0x80002204
       50585000	      5057	00000000	00000013	addi	x0,x0,0	  x0:0x00000000
       50595000	      5058	800021f0	00000013	addi	x0,x0,0	  x0:0x00000000
       50605000	      5059	800021f4	024000ef	jal	x1,800021f4	  x1=0x800021f4
       50615000	      5060	00000000	00000013	addi	x0,x0,0	  x0:0x00000000
       50625000	      5061	80002214	00000013	addi	x0,x0,0	  x0:0x00000000
       50635000	      5062	80002218	010000ef	jal	x1,80002218	  x1=0x80002218
       50645000	      5063	00000000	00000013	addi	x0,x0,0	  x0:0x00000000
       50655000	      5064	80002224	00000013	addi	x0,x0,0	  x0:0x00000000
       50665000	      5065	80002228	fd5ff36f	jal	x6,80002228	  x6=0x80002228
       50675000	      5066	00000000	00000013	addi	x0,x0,0	  x0:0x00000000
       50685000	      5067	800021f8	00000013	addi	x0,x0,0	  x0:0x00000000
       50695000	      5068	800021fc	024000ef	jal	x1,800021fc	  x1=0x800021fc
       50705000	      5069	00000000	00000013	addi	x0,x0,0	  x0:0x00000000
       50715000	      5070	8000221c	00000013	addi	x0,x0,0	  x0:0x00000000
       50725000	      5071	80002220	fe1ff0ef	jal	x1,80002220	  x1=0x80002220
       50735000	      5072	00000000	00000013	addi	x0,x0,0	  x0:0x00000000
       50745000	      5073	800021fc	00000013	addi	x0,x0,0	  x0:0x00000000
       50755000	      5074	80002200	00c000ef	jal	x1,80002200	  x1=0x80002200
       50765000	      5075	00000000	00000013	addi	x0,x0,0	  x0:0x00000000
       50775000	      5076	80002208	00000013	addi	x0,x0,0	  x0:0x00000000
       50785000	      5077	8000220c	024001ef	jal	x3,8000220c	  x3=0x8000220c
       50795000	      5078	00000000	00000013	addi	x0,x0,0	  x0:0x00000000
       50805000	      5079	8000222c	00000013	addi	x0,x0,0	  x0:0x00000000
       50815000	      5080	80002230	fc9ff26f	jal	x4,80002230	  x4=0x80002230
       50825000	      5081	00000000	00000013	addi	x0,x0,0	  x0:0x00000000
       50835000	      5082	800021f4	00000013	addi	x0,x0,0	  x0:0x00000000
       50845000	      5083	800021f8	03c000ef	jal	x1,800021f8	  x1=0x800021f8
       50855000	      5084	00000000	00000013	addi	x0,x0,0	  x0:0x00000000
       50865000	      5085	80002230	00000013	addi	x0,x0,0	  x0:0x00000000
       50875000	      5086	80002234	42242493	slti	x9,x8,1058	  x8:0x17280000  x9=0x00000000
       50885000	      5087	80002238	008597b3	sll	x15,x11,x8	 x11:0xfffffff8  x8:0x17280000 x15=0xfffffff8
       50895000	      5088	8000223c	0181aab3	slt	x21,x3,x24	  x3:0x8000220c x24:0x00000000 x21=0x00000001
       50905000	      5089	80002240	bbc44293	xori	x5,x8,-1092	  x8:0x17280000  x5=0xe8d7fbbc
       50915000	      5090	80002244	41b10d33	sub	x26,x2,x27	  x2:0x80009fc4 x27:0x00000400 x26=0x80009bc4
       50925000	      5091	80002248	00000013	addi	x0,x0,0	  x0:0x00000000
       50935000	      5092	8000224c	b807be93	sltiu	x29,x15,-1152	 x15:0xfffffff8 x29=0x00000000
       50945000	      5093	80002250	dfb76bb7	lui	x23,0xdfb76	 x23=0xdfb76000
       50955000	      5094	80002254	00f8e263	bltu	x17,x15,80002258	 x17:0x800021e0 x15:0xfffffff8
       50965000	      5095	00000000	00000013	addi	x0,x0,0	  x0:0x00000000
       50975000	      5096	80002254	00000013	addi	x0,x0,0	  x0:0x00000000
       50985000	      5097	80002258	00497263	bgeu	x18,x4,8000225c	 x18:0xffffff3a  x4:0x80002230
       50995000	      5098	00000000	00000013	addi	x0,x0,0	  x0:0x00000000
       51005000	      5099	80002258	00000013	addi	x0,x0,0	  x0:0x00000000
       51015000	      5100	8000225c	40c05413	srai	x8,x0,0xc	  x0:0x00000000  x8=0x00000000
       51025000	      5101	80002260	01f277b3	and	x15,x4,x31	  x4:0x80002230 x31:0x800021cc x15=0x80002000
       51035000	      5102	80002264	1070b213	sltiu	x4,x1,263	  x1:0x800021f8  x4=0x00000000
       51045000	      5103	80002268	019396b3	sll	x13,x7,x25	  x7:0xffffff39 x25:0x935abdea x13=0xfffce400
       51055000	      5104	8000226c	000e1013	slli	x0,x28,0x0	 x28:0x80009f68
       51065000	      5105	80002270	018ee5b3	or	x11,x29,x24	 x29:0x00000000 x24:0x00000000 x11=0x00000000
       51075000	      5106	80002274	4046d993	srai	x19,x13,0x4	 x13:0xfffce400 x19=0xffffce40
       51085000	      5107	80002278	004a8533	add	x10,x21,x4	 x21:0x00000001  x4:0x00000000 x10=0x00000001
       51095000	      5108	8000227c	01f41c13	slli	x24,x8,0x1f	  x8:0x00000000 x24=0x00000000
       51105000	      5109	80002280	60776c37	lui	x24,0x60776	 x24=0x60776000
       51115000	      5110	80002284	7748a313	slti	x6,x17,1908	 x17:0x800021e0  x6=0x00000001
       51125000	      5111	80002288	00137933	and	x18,x6,x1	  x6:0x00000001  x1:0x800021f8 x18=0x00000000
       51135000	      5112	8000228c	0400c663	blt	x1,x0,800022d8	  x1:0x800021f8  x0:0x00000000
       51145000	      5113	00000000	00000013	addi	x0,x0,0	  x0:0x00000000
       51155000	      5114	800022d4	00000013	addi	x0,x0,0	  x0:0x00000000
       51165000	      5115	800022d8	37950a13	addi	x20,x10,889	 x10:0x00000001 x20=0x0000037a
       51175000	      5116	800022dc	41e35d33	sra	x26,x6,x30	  x6:0x00000001 x30:0x00000000 x26=0x00000001
       51185000	      5117	800022e0	43cbac97	auipc	x25,0x43cba	 x25=0xc3cbc2dc
       51195000	      5118	800022e4	6beef913	andi	x18,x29,1726	 x29:0x00000000 x18=0x00000000
       51205000	      5119	800022e8	00a77463	bgeu	x14,x10,800022f0	 x14:0x00080002 x10:0x00000001
       51215000	      5120	00000000	00000013	addi	x0,x0,0	  x0:0x00000000
       51225000	      5121	800022ec	00000013	addi	x0,x0,0	  x0:0x00000000
       51235000	      5122	800022f0	94692913	slti	x18,x18,-1722	 x18:0x00000000 x18=0x00000000
       51245000	      5123	800022f4	cf428793	addi	x15,x5,-780	  x5:0xe8d7fbbc x15=0xe8d7f8b0
       51255000	      5124	800022f8	006d45b3	xor	x11,x26,x6	 x26:0x00000001  x6:0x00000001 x11=0x00000000
       51265000	      5125	800022fc	05249863	bne	x9,x18,8000234c	  x9:0x00000000 x18:0x00000000
       51275000	      5126	80002300	001037b3	sltu	x15,x0,x1	  x0:0x00000000  x1:0x800021f8 x15=0x00000001
       51285000	      5127	80002304	40b782b3	sub	x5,x15,x11	 x15:0x00000001 x11:0x00000000  x5=0x00000001
       51295000	      5128	80002308	0081bc33	sltu	x24,x3,x8	  x3:0x8000220c  x8:0x00000000 x24=0x00000000
       51305000	      5129	8000230c	7576c893	xori	x17,x13,1879	 x13:0xfffce400 x17=0xfffce357
       51315000	      5130	80002310	01d2e4b3	or	x9,x5,x29	  x5:0x00000001 x29:0x00000000  x9=0x00000001
       51325000	      5131	80002314	400d5213	srai	x4,x26,0x0	 x26:0x00000001  x4=0x00000001
       51335000	      5132	80002318	ad27e893	ori	x17,x15,-1326	 x15:0x00000001 x17=0xfffffad3
       51345000	      5133	8000231c	0198cc33	xor	x24,x17,x25	 x17:0xfffffad3 x25:0xc3cbc2dc x24=0x3c34380f
       51355000	      5134	80002320	00b56863	bltu	x10,x11,80002330	 x10:0x00000001 x11:0x00000000
       51365000	      5135	80002324	419508b3	sub	x17,x10,x25	 x10:0x00000001 x25:0xc3cbc2dc x17=0x3c343d25
       51375000	      5136	80002328	008369b3	or	x19,x6,x8	  x6:0x00000001  x8:0x00000000 x19=0x00000001
       51385000	      5137	8000232c	008f00b3	add	x1,x30,x8	 x30:0x00000000  x8:0x00000000  x1=0x00000000
       51395000	      5138	80002330	01a63a33	sltu	x20,x12,x26	 x12:0x80002184 x26:0x00000001 x20=0x00000000
       51405000	      5139	80002334	00ffbc33	sltu	x24,x31,x15	 x31:0x800021cc x15:0x00000001 x24=0x00000000
       51415000	      5140	80002338	d120b313	sltiu	x6,x1,-750	  x1:0x00000000  x6=0x00000001
       51425000	      5141	8000233c	00a8c613	xori	x12,x17,10	 x17:0x3c343d25 x12=0x3c343d2f
       51435000	      5142	80002340	00fcdeb3	srl	x29,x25,x15	 x25:0xc3cbc2dc x15:0x00000001 x29=0x61e5e16e
       51445000	      5143	80002344	0181ba33	sltu	x20,x3,x24	  x3:0x8000220c x24:0x00000000 x20=0x00000000
       51455000	      5144	80002348	00e95263	bge	x18,x14,8000234c	 x18:0x00000000 x14:0x00080002
       51465000	      5145	8000234c	e1768593	addi	x11,x13,-489	 x13:0xfffce400 x11=0xfffce217
       51475000	      5146	80002350	03609c63	bne	x1,x22,80002388	  x1:0x00000000 x22:0x00000000
       51485000	      5147	80002354	0119cc63	blt	x19,x17,8000236c	 x19:0x00000001 x17:0x3c343d25
       51495000	      5148	00000000	00000013	addi	x0,x0,0	  x0:0x00000000
       51505000	      5149	80002368	00000013	addi	x0,x0,0	  x0:0x00000000
       51515000	      5150	8000236c	65723737	lui	x14,0x65723	 x14=0x65723000
       51525000	      5151	80002370	3ebdcf93	xori	x31,x27,1003	 x27:0x00000400 x31=0x000007eb
       51535000	      5152	80002374	0189cc33	xor	x24,x19,x24	 x19:0x00000001 x24:0x00000000 x24=0x00000001
       51545000	      5153	80002378	01d6ad33	slt	x26,x13,x29	 x13:0xfffce400 x29:0x61e5e16e x26=0x00000001
       51555000	      5154	8000237c	00277463	bgeu	x14,x2,80002384	 x14:0x65723000  x2:0x80009fc4
       51565000	      5155	80002380	01a95533	srl	x10,x18,x26	 x18:0x00000000 x26:0x00000001 x10=0x00000000
       51575000	      5156	80002384	c4557693	andi	x13,x10,-955	 x10:0x00000000 x13=0x00000000
       51585000	      5157	80002388	04981063	bne	x16,x9,800023c8	 x16:0x135afdaa  x9:0x00000001
       51595000	      5158	00000000	00000013	addi	x0,x0,0	  x0:0x00000000
       51605000	      5159	800023c4	00000013	addi	x0,x0,0	  x0:0x00000000
       51615000	      5160	800023c8	40c5d8b3	sra	x17,x11,x12	 x11:0xfffce217 x12:0x3c343d2f x17=0xfffffff9
       51625000	      5161	800023cc	00ff2db3	slt	x27,x30,x15	 x30:0x00000000 x15:0x00000001 x27=0x00000001
       51635000	      5162	800023d0	0315e463	bltu	x11,x17,800023f8	 x11:0xfffce217 x17:0xfffffff9
       51645000	      5163	00000000	00000013	addi	x0,x0,0	  x0:0x00000000
       51655000	      5164	800023f4	00000013	addi	x0,x0,0	  x0:0x00000000
       51665000	      5165	800023f8	00c5f863	bgeu	x11,x12,80002408	 x11:0xfffce217 x12:0x3c343d2f
       51675000	      5166	00000000	00000013	addi	x0,x0,0	  x0:0x00000000
       51685000	      5167	80002404	00000013	addi	x0,x0,0	  x0:0x00000000
       51695000	      5168	80002408	00717a63	bgeu	x2,x7,8000241c	  x2:0x80009fc4  x7:0xffffff39
       51705000	      5169	8000240c	00890fb3	add	x31,x18,x8	 x18:0x00000000  x8:0x00000000 x31=0x00000000
       51715000	      5170	80002410	f973f517	auipc	x10,0xf973f	 x10=0x7974140c
       51725000	      5171	80002414	6c224337	lui	x6,0x6c224	  x6=0x6c224000
       51735000	      5172	80002418	015dce63	blt	x27,x21,80002434	 x27:0x00000001 x21:0x00000001
       51745000	      5173	8000241c	0ebd4b13	xori	x22,x26,235	 x26:0x00000001 x22=0x000000ea
       51755000	      5174	80002420	0129cf33	xor	x30,x19,x18	 x19:0x00000001 x18:0x00000000 x30=0x00000001
       51765000	      5175	80002424	04cb4063	blt	x22,x12,80002464	 x22:0x000000ea x12:0x3c343d2f
       51775000	      5176	00000000	00000013	addi	x0,x0,0	  x0:0x00000000
       51785000	      5177	80002460	00000013	addi	x0,x0,0	  x0:0x00000000
       51795000	      5178	80002464	00ea59b3	srl	x19,x20,x14	 x20:0x00000000 x14:0x65723000 x19=0x00000000
       51805000	      5179	80002468	40ddd733	sra	x14,x27,x13	 x27:0x00000001 x13:0x00000000 x14=0x00000001
       51815000	      5180	8000246c	e1ed52b7	lui	x5,0xe1ed5	  x5=0xe1ed5000
       51825000	      5181	80002470	a580a313	slti	x6,x1,-1448	  x1:0x00000000  x6=0x00000000
       51835000	      5182	80002474	41bb0933	sub	x18,x22,x27	 x22:0x000000ea x27:0x00000001 x18=0x000000e9
       51845000	      5183	80002478	97db3413	sltiu	x8,x22,-1667	 x22:0x000000ea  x8=0x00000001
       51855000	      5184	8000247c	01fefc33	and	x24,x29,x31	 x29:0x61e5e16e x31:0x00000000 x24=0x00000000
       51865000	      5185	80002480	00000013	addi	x0,x0,0	  x0:0x00000000
       51875000	      5186	80002484	00608db3	add	x27,x1,x6	  x1:0x00000000  x6:0x00000000 x27=0x00000000
       51885000	      5187	80002488	012d59b3	srl	x19,x26,x18	 x26:0x00000001 x18:0x000000e9 x19=0x00000000
       51895000	      5188	8000248c	0105e733	or	x14,x11,x16	 x11:0xfffce217 x16:0x135afdaa x14=0xfffeffbf
       51905000	      5189	80002490	8b928293	addi	x5,x5,-1863	  x5:0xe1ed5000  x5=0xe1ed48b9
       51915000	      5190	80002494	0164f463	bgeu	x9,x22,8000249c	  x9:0x00000001 x22:0x000000ea
       51925000	      5191	80002498	2f6c7393	andi	x7,x24,758	 x24:0x00000000  x7=0x00000000
       51935000	      5192	8000249c	2a370693	addi	x13,x14,675	 x14:0xfffeffbf x13=0xffff0262
       51945000	      5193	800024a0	00b3d263	bge	x7,x11,800024a4	  x7:0x00000000 x11:0xfffce217
       51955000	      5194	00000000	00000013	addi	x0,x0,0	  x0:0x00000000
       51965000	      5195	800024a0	00000013	addi	x0,x0,0	  x0:0x00000000
       51975000	      5196	800024a4	197df793	andi	x15,x27,407	 x27:0x00000000 x15=0x00000000
       51985000	      5197	800024a8	04676ab7	lui	x21,0x4676	 x21=0x04676000
       51995000	      5198	800024ac	df1a9337	lui	x6,0xdf1a9	  x6=0xdf1a9000
       52005000	      5199	800024b0	05f56863	bltu	x10,x31,80002500	 x10:0x7974140c x31:0x00000000
       52015000	      5200	800024b4	011b9b33	sll	x22,x23,x17	 x23:0xdfb76000 x17:0xfffffff9 x22=0x00000000
       52025000	      5201	800024b8	012d1b93	slli	x23,x26,0x12	 x26:0x00000001 x23=0x00040000
       52035000	      5202	800024bc	6f8b4f13	xori	x30,x22,1784	 x22:0x00000000 x30=0x000006f8
       52045000	      5203	800024c0	6ec77d93	andi	x27,x14,1772	 x14:0xfffeffbf x27=0x000006ac
       52055000	      5204	800024c4	15e7e3b7	lui	x7,0x15e7e	  x7=0x15e7e000
       52065000	      5205	800024c8	415b0d33	sub	x26,x22,x21	 x22:0x00000000 x21:0x04676000 x26=0xfb98a000
       52075000	      5206	800024cc	a6f09b17	auipc	x22,0xa6f09	 x22=0x26f0b4c8
       52085000	      5207	800024d0	01c4b7b3	sltu	x15,x9,x28	  x9:0x00000001 x28:0x80009f68 x15=0x00000001
       52095000	      5208	800024d4	01ad3033	sltu	x0,x26,x26	 x26:0xfb98a000 x26:0xfb98a000
       52105000	      5209	800024d8	05385663	bge	x16,x19,80002524	 x16:0x135afdaa x19:0x00000000
       52115000	      5210	00000000	00000013	addi	x0,x0,0	  x0:0x00000000
       52125000	      5211	80002520	00000013	addi	x0,x0,0	  x0:0x00000000
       52135000	      5212	80002524	dbb9ff17	auipc	x30,0xdbb9f	 x30=0x5bba1520
       52145000	      5213	80002528	01f449b3	xor	x19,x8,x31	  x8:0x00000001 x31:0x00000000 x19=0x00000001
       52155000	      5214	8000252c	deff3017	auipc	x0,0xdeff3	
       52165000	      5215	80002530	01dc5493	srli	x9,x24,0x1d	 x24:0x00000000  x9=0x00000000
       52175000	      5216	80002534	1afeec13	ori	x24,x29,431	 x29:0x61e5e16e x24=0x61e5e1ef
       52185000	      5217	80002538	00000013	addi	x0,x0,0	  x0:0x00000000
       52195000	      5218	8000253c	aad3d197	auipc	x3,0xaad3d	  x3=0x2ad3f538
       52205000	      5219	80002540	a04f4993	xori	x19,x30,-1532	 x30:0x5bba1520 x19=0xa445ef24
       52215000	      5220	80002544	01934a63	blt	x6,x25,80002558	  x6:0xdf1a9000 x25:0xc3cbc2dc
       52225000	      5221	80002548	02f0f863	bgeu	x1,x15,80002578	  x1:0x00000000 x15:0x00000001
       52235000	      5222	8000254c	41dbd593	srai	x11,x23,0x1d	 x23:0x00040000 x11=0x00000000
       52245000	      5223	80002550	40848233	sub	x4,x9,x8	  x9:0x00000000  x8:0x00000001  x4=0xffffffff
       52255000	      5224	80002554	012ab233	sltu	x4,x21,x18	 x21:0x04676000 x18:0x000000e9  x4=0x00000000
       52265000	      5225	80002558	004b5fb3	srl	x31,x22,x4	 x22:0x26f0b4c8  x4:0x00000000 x31=0x26f0b4c8
       52275000	      5226	8000255c	00ea9b93	slli	x23,x21,0xe	 x21:0x04676000 x23=0xd8000000
       52285000	      5227	80002560	17288913	addi	x18,x17,370	 x17:0xfffffff9 x18=0x0000016b
       52295000	      5228	80002564	e4544213	xori	x4,x8,-443	  x8:0x00000001  x4=0xfffffe44
       52305000	      5229	80002568	0571e263	bltu	x3,x23,800025ac	  x3:0x2ad3f538 x23:0xd8000000
       52315000	      5230	00000000	00000013	addi	x0,x0,0	  x0:0x00000000
       52325000	      5231	800025a8	00000013	addi	x0,x0,0	  x0:0x00000000
       52335000	      5232	800025ac	007a9293	slli	x5,x21,0x7	 x21:0x04676000  x5=0x33b00000
       52345000	      5233	800025b0	002fb633	sltu	x12,x31,x2	 x31:0x26f0b4c8  x2:0x80009fc4 x12=0x00000001
       52355000	      5234	800025b4	004e2083	lw	x1,4(x28)	 x28:0x80009f68  x1=0x80000878 PA:0x80009f6c
       52365000	      5235	800025b8	00d9d333	srl	x6,x19,x13	 x19:0xa445ef24 x13:0xffff0262  x6=0x29117bc9
       52375000	      5236	800025bc	01711f93	slli	x31,x2,0x17	  x2:0x80009fc4 x31=0xe2000000
       52385000	      5237	800025c0	41f50ab3	sub	x21,x10,x31	 x10:0x7974140c x31:0xe2000000 x21=0x9774140c
       52395000	      5238	800025c4	404983b3	sub	x7,x19,x4	 x19:0xa445ef24  x4:0xfffffe44  x7=0xa445f0e0
       52405000	      5239	800025c8	00a0c433	xor	x8,x1,x10	  x1:0x80000878 x10:0x7974140c  x8=0xf9741c74
       52415000	      5240	800025cc	2be12913	slti	x18,x2,702	  x2:0x80009fc4 x18=0x00000001
       52425000	      5241	800025d0	175ca393	slti	x7,x25,373	 x25:0xc3cbc2dc  x7=0x00000001
       52435000	      5242	800025d4	01ce0e13	addi	x28,x28,28	 x28:0x80009f68 x28=0x80009f84
       52445000	      5243	800025d8	01f76fb3	or	x31,x14,x31	 x14:0xfffeffbf x31:0xe2000000 x31=0xfffeffbf
       52455000	      5244	800025dc	00008413	addi	x8,x1,0	  x1:0x80000878  x8=0x80000878
       52465000	      5245	800025e0	00040467	jalr	x8,x8,0	  x8:0x80000878  x8=0x800025e0
       52475000	      5246	00000000	00000013	addi	x0,x0,0	  x0:0x00000000
       52485000	      5247	80000878	00000013	addi	x0,x0,0	  x0:0x00000000
       52495000	      5248	8000087c	8d834093	xori	x1,x6,-1832	  x6:0x29117bc9  x1=0xd6ee8311
       52505000	      5249	80000880	012c5433	srl	x8,x24,x18	 x24:0x61e5e1ef x18:0x00000001  x8=0x30f2f0f7
       52515000	      5250	80000884	007c1413	slli	x8,x24,0x7	 x24:0x61e5e1ef  x8=0xf2f0f780
       52525000	      5251	80000888	05a79063	bne	x15,x26,800008c8	 x15:0x00000001 x26:0xfb98a000
       52535000	      5252	00000000	00000013	addi	x0,x0,0	  x0:0x00000000
       52545000	      5253	800008c4	00000013	addi	x0,x0,0	  x0:0x00000000
       52555000	      5254	800008c8	4d515db7	lui	x27,0x4d515	 x27=0x4d515000
       52565000	      5255	800008cc	41790db3	sub	x27,x18,x23	 x18:0x00000001 x23:0xd8000000 x27=0x28000001
       52575000	      5256	800008d0	41fed9b3	sra	x19,x29,x31	 x29:0x61e5e16e x31:0xfffeffbf x19=0x00000000
       52585000	      5257	800008d4	005d6bb3	or	x23,x26,x5	 x26:0xfb98a000  x5:0x33b00000 x23=0xfbb8a000
       52595000	      5258	800008d8	0163d993	srli	x19,x7,0x16	  x7:0x00000001 x19=0x00000000
       52605000	      5259	800008dc	e26fe893	ori	x17,x31,-474	 x31:0xfffeffbf x17=0xffffffbf
       52615000	      5260	800008e0	00b8a633	slt	x12,x17,x11	 x17:0xffffffbf x11:0x00000000 x12=0x00000001
       52625000	      5261	800008e4	05cd7863	bgeu	x26,x28,80000934	 x26:0xfb98a000 x28:0x80009f84
       52635000	      5262	00000000	00000013	addi	x0,x0,0	  x0:0x00000000
       52645000	      5263	80000930	00000013	addi	x0,x0,0	  x0:0x00000000
       52655000	      5264	80000934	7abeec13	ori	x24,x29,1963	 x29:0x61e5e16e x24=0x61e5e7ef
       52665000	      5265	80000938	01c0e933	or	x18,x1,x28	  x1:0xd6ee8311 x28:0x80009f84 x18=0xd6ee9f95
       52675000	      5266	8000093c	b9fa9737	lui	x14,0xb9fa9	 x14=0xb9fa9000
       52685000	      5267	80000940	011e0233	add	x4,x28,x17	 x28:0x80009f84 x17:0xffffffbf  x4=0x80009f43
       52695000	      5268	80000944	40b752b3	sra	x5,x14,x11	 x14:0xb9fa9000 x11:0x00000000  x5=0xb9fa9000
       52705000	      5269	80000948	07457e63	bgeu	x10,x20,800009c4	 x10:0x7974140c x20:0x00000000
       52715000	      5270	00000000	00000013	addi	x0,x0,0	  x0:0x00000000
       52725000	      5271	800009c0	00000013	addi	x0,x0,0	  x0:0x00000000
       52735000	      5272	800009c4	41e55493	srai	x9,x10,0x1e	 x10:0x7974140c  x9=0x00000001
       52745000	      5273	800009c8	406ed933	sra	x18,x29,x6	 x29:0x61e5e16e  x6:0x29117bc9 x18=0x0030f2f0
       52755000	      5274	800009cc	94e3c693	xori	x13,x7,-1714	  x7:0x00000001 x13=0xfffff94f
       52765000	      5275	800009d0	02977863	bgeu	x14,x9,80000a00	 x14:0xb9fa9000  x9:0x00000001
       52775000	      5276	00000000	00000013	addi	x0,x0,0	  x0:0x00000000
       52785000	      5277	800009fc	00000013	addi	x0,x0,0	  x0:0x00000000
       52795000	      5278	80000a00	0037d733	srl	x14,x15,x3	 x15:0x00000001  x3:0x2ad3f538 x14=0x00000000
       52805000	      5279	80000a04	011f4863	blt	x30,x17,80000a14	 x30:0x5bba1520 x17:0xffffffbf
       52815000	      5280	80000a08	5dcbc417	auipc	x8,0x5dcbc	  x8=0xddcbca04
       52825000	      5281	80000a0c	00ddc5b3	xor	x11,x27,x13	 x27:0x28000001 x13:0xfffff94f x11=0xd7fff94e
       52835000	      5282	80000a10	b8604d13	xori	x26,x0,-1146	  x0:0x00000000 x26=0xfffffb86
       52845000	      5283	80000a14	001c50b3	srl	x1,x24,x1	 x24:0x61e5e7ef  x1:0xd6ee8311  x1=0x000030f2
       52855000	      5284	80000a18	8e24ac93	slti	x25,x9,-1822	  x9:0x00000001 x25=0x00000000
       52865000	      5285	80000a1c	9af90e93	addi	x29,x18,-1617	 x18:0x0030f2f0 x29=0x0030ec9f
       52875000	      5286	80000a20	057a7063	bgeu	x20,x23,80000a60	 x20:0x00000000 x23:0xfbb8a000
       52885000	      5287	80000a24	0085bbb3	sltu	x23,x11,x8	 x11:0xd7fff94e  x8:0xddcbca04 x23=0x00000001
       52895000	      5288	80000a28	0182c433	xor	x8,x5,x24	  x5:0xb9fa9000 x24:0x61e5e7ef  x8=0xd81f77ef
       52905000	      5289	80000a2c	00dae4b3	or	x9,x21,x13	 x21:0x9774140c x13:0xfffff94f  x9=0xfffffd4f
       52915000	      5290	80000a30	d7278b13	addi	x22,x15,-654	 x15:0x00000001 x22=0xfffffd73
       52925000	      5291	80000a34	0120fab3	and	x21,x1,x18	  x1:0x000030f2 x18:0x0030f2f0 x21=0x000030f0
       52935000	      5292	80000a38	41ced5b3	sra	x11,x29,x28	 x29:0x0030ec9f x28:0x80009f84 x11=0x00030ec9
       52945000	      5293	80000a3c	00a3c863	blt	x7,x10,80000a4c	  x7:0x00000001 x10:0x7974140c
       52955000	      5294	00000000	00000013	addi	x0,x0,0	  x0:0x00000000
       52965000	      5295	80000a48	00000013	addi	x0,x0,0	  x0:0x00000000
       52975000	      5296	80000a4c	8a0c1537	lui	x10,0x8a0c1	 x10=0x8a0c1000
       52985000	      5297	80000a50	00481db3	sll	x27,x16,x4	 x16:0x135afdaa  x4:0x80009f43 x27=0x9ad7ed50
       52995000	      5298	80000a54	40e5d913	srai	x18,x11,0xe	 x11:0x00030ec9 x18=0x0000000c
       53005000	      5299	80000a58	05286463	bltu	x16,x18,80000aa0	 x16:0x135afdaa x18:0x0000000c
       53015000	      5300	80000a5c	0083f8b3	and	x17,x7,x8	  x7:0x00000001  x8:0xd81f77ef x17=0x00000001
       53025000	      5301	80000a60	013fe6b3	or	x13,x31,x19	 x31:0xfffeffbf x19:0x00000000 x13=0xfffeffbf
       53035000	      5302	80000a64	01399993	slli	x19,x19,0x13	 x19:0x00000000 x19=0x00000000
       53045000	      5303	80000a68	83d17b93	andi	x23,x2,-1987	  x2:0x80009fc4 x23=0x80009804
       53055000	      5304	80000a6c	0132f633	and	x12,x5,x19	  x5:0xb9fa9000 x19:0x00000000 x12=0x00000000
       53065000	      5305	80000a70	01b19b93	slli	x23,x3,0x1b	  x3:0x2ad3f538 x23=0xc0000000
       53075000	      5306	80000a74	176aaf93	slti	x31,x21,374	 x21:0x000030f0 x31=0x00000000
       53085000	      5307	80000a78	01831a63	bne	x6,x24,80000a8c	  x6:0x29117bc9 x24:0x61e5e7ef
       53095000	      5308	00000000	00000013	addi	x0,x0,0	  x0:0x00000000
       53105000	      5309	80000a88	00000013	addi	x0,x0,0	  x0:0x00000000
       53115000	      5310	80000a8c	00d68463	beq	x13,x13,80000a94	 x13:0xfffeffbf x13:0xfffeffbf
       53125000	      5311	00000000	00000013	addi	x0,x0,0	  x0:0x00000000
       53135000	      5312	80000a90	00000013	addi	x0,x0,0	  x0:0x00000000
       53145000	      5313	80000a94	419ad593	srai	x11,x21,0x19	 x21:0x000030f0 x11=0x00000000
       53155000	      5314	80000a98	1b5b7613	andi	x12,x22,437	 x22:0xfffffd73 x12=0x00000131
       53165000	      5315	80000a9c	00000013	addi	x0,x0,0	  x0:0x00000000
       53175000	      5316	80000aa0	01e81393	slli	x7,x16,0x1e	 x16:0x135afdaa  x7=0x80000000
       53185000	      5317	80000aa4	36462c93	slti	x25,x12,868	 x12:0x00000131 x25=0x00000001
       53195000	      5318	80000aa8	04665263	bge	x12,x6,80000aec	 x12:0x00000131  x6:0x29117bc9
       53205000	      5319	80000aac	01344a33	xor	x20,x8,x19	  x8:0xd81f77ef x19:0x00000000 x20=0xd81f77ef
       53215000	      5320	80000ab0	40265733	sra	x14,x12,x2	 x12:0x00000131  x2:0x80009fc4 x14=0x00000013
       53225000	      5321	80000ab4	01c6d593	srli	x11,x13,0x1c	 x13:0xfffeffbf x11=0x0000000f
       53235000	      5322	80000ab8	8b104913	xori	x18,x0,-1871	  x0:0x00000000 x18=0xfffff8b1
       53245000	      5323	80000abc	013e5333	srl	x6,x28,x19	 x28:0x80009f84 x19:0x00000000  x6=0x80009f84
       53255000	      5324	80000ac0	8c920c13	addi	x24,x4,-1847	  x4:0x80009f43 x24=0x8000980c
       53265000	      5325	80000ac4	038e4463	blt	x28,x24,80000aec	 x28:0x80009f84 x24:0x8000980c
       53275000	      5326	80000ac8	02484263	blt	x16,x4,80000aec	 x16:0x135afdaa  x4:0x80009f43
       53285000	      5327	80000acc	6ac234b7	lui	x9,0x6ac23	  x9=0x6ac23000
       53295000	      5328	80000ad0	cda10793	addi	x15,x2,-806	  x2:0x80009fc4 x15=0x80009c9e
       53305000	      5329	80000ad4	4184ddb3	sra	x27,x9,x24	  x9:0x6ac23000 x24:0x8000980c x27=0x0006ac23
       53315000	      5330	80000ad8	0032cd33	xor	x26,x5,x3	  x5:0xb9fa9000  x3:0x2ad3f538 x26=0x93296538
       53325000	      5331	80000adc	00aaccb3	xor	x25,x21,x10	 x21:0x000030f0 x10:0x8a0c1000 x25=0x8a0c20f0
       53335000	      5332	80000ae0	13408913	addi	x18,x1,308	  x1:0x000030f2 x18=0x00003226
       53345000	      5333	80000ae4	007cc263	blt	x25,x7,80000ae8	 x25:0x8a0c20f0  x7:0x80000000
       53355000	      5334	80000ae8	01c247b3	xor	x15,x4,x28	  x4:0x80009f43 x28:0x80009f84 x15=0x000000c7
       53365000	      5335	80000aec	01270333	add	x6,x14,x18	 x14:0x00000013 x18:0x00003226  x6=0x00003239
       53375000	      5336	80000af0	00000817	auipc	x16,0x0	 x16=0x80000aec
       53385000	      5337	80000af4	00c80813	addi	x16,x16,12	 x16:0x80000aec x16=0x80000af8
       53395000	      5338	80000af8	00080067	jalr	x0,x16,0	 x16:0x80000af8
       53405000	      5339	00000000	00000013	addi	x0,x0,0	  x0:0x00000000
       53415000	      5340	80000af8	00000013	addi	x0,x0,0	  x0:0x00000000
       53425000	      5341	80000afc	00100193	addi	x3,x0,1	  x0:0x00000000  x3=0x00000001
       53435000	      5342	80000b00	00000073	ecall	
       53445000	      5343	80000b04	012a1a13	slli	x20,x20,0x12	 x20:0xd81f77ef x20=0xdfbc0000
