		Time			Cycle	PC		Insn	Decoded instruction	Register and memory contents
          65000	         5	80000004	00000293	addi	x5,x0,0	  x0:0x00000000  x5=0x00000000
          75000	         6	80000008	00000313	addi	x6,x0,0	  x0:0x00000000  x6=0x00000000
          85000	         7	8000000c	00628263	beq	x5,x6,80000010	  x5:0x00000000  x6:0x00000000
          95000	         8	00000000	00000013	addi	x0,x0,0	  x0:0x00000000
         105000	         9	8000000c	00000013	addi	x0,x0,0	  x0:0x00000000
         115000	        10	80000010	00000297	auipc	x5,0x0	  x5=0x8000000c
         125000	        11	80000014	00c28293	addi	x5,x5,12	  x5:0x8000000c  x5=0x80000018
         135000	        12	80000018	00028067	jalr	x0,x5,0	  x5:0x80000018
         145000	        13	00000000	00000013	addi	x0,x0,0	  x0:0x00000000
         155000	        14	80000018	00000013	addi	x0,x0,0	  x0:0x00000000
         165000	        15	8000001c	400008b7	lui	x17,0x40000	 x17=0x40000000
         175000	        16	80000020	10088893	addi	x17,x17,256	 x17:0x40000000 x17=0x40000100
         185000	        17	80000024	00000013	addi	x0,x0,0	  x0:0x00000000
         195000	        18	80000028	0000a717	auipc	x14,0xa	 x14=0x8000a024
         205000	        19	8000002c	fa070713	addi	x14,x14,-96	 x14:0x8000a024 x14=0x80009fc4
         215000	        20	80000030	00004897	auipc	x17,0x4	 x17=0x8000402c
         225000	        21	80000034	57888893	addi	x17,x17,1400	 x17:0x8000402c x17=0x800045a4
         235000	        22	80000038	0008e893	ori	x17,x17,0	 x17:0x800045a4 x17=0x800045a4
         245000	        23	8000003c	00000013	addi	x0,x0,0	  x0:0x00000000
         255000	        24	80000040	00000897	auipc	x17,0x0	 x17=0x8000003c
         265000	        25	80000044	02088893	addi	x17,x17,32	 x17:0x8000003c x17=0x8000005c
         275000	        26	80000048	00000013	addi	x0,x0,0	  x0:0x00000000
         285000	        27	8000004c	00000013	addi	x0,x0,0	  x0:0x00000000
         295000	        28	80000050	000028b7	lui	x17,0x2	 x17=0x00002000
         305000	        29	80000054	80088893	addi	x17,x17,-2048	 x17:0x00002000 x17=0x00001800
         315000	        30	80000058	00000013	addi	x0,x0,0	  x0:0x00000000
         325000	        31	8000005c	00000013	addi	x0,x0,0	  x0:0x00000000
         335000	        32	80000060	f1a8b037	lui	x0,0xf1a8b	
         345000	        33	80000064	59100013	addi	x0,x0,1425	  x0:0x00000000
         355000	        34	80000068	f767a0b7	lui	x1,0xf767a	  x1=0xf767a000
         365000	        35	8000006c	e8c08093	addi	x1,x1,-372	  x1:0xf767a000  x1=0xf7679e8c
         375000	        36	80000070	00000113	addi	x2,x0,0	  x0:0x00000000  x2=0x00000000
         385000	        37	80000074	03d621b7	lui	x3,0x3d62	  x3=0x03d62000
         395000	        38	80000078	26818193	addi	x3,x3,616	  x3:0x03d62000  x3=0x03d62268
         405000	        39	8000007c	00900213	addi	x4,x0,9	  x0:0x00000000  x4=0x00000009
         415000	        40	80000080	00000293	addi	x5,x0,0	  x0:0x00000000  x5=0x00000000
         425000	        41	80000084	15e68337	lui	x6,0x15e68	  x6=0x15e68000
         435000	        42	80000088	cae30313	addi	x6,x6,-850	  x6:0x15e68000  x6=0x15e67cae
         445000	        43	8000008c	800003b7	lui	x7,0x80000	  x7=0x80000000
         455000	        44	80000090	e0ddc437	lui	x8,0xe0ddc	  x8=0xe0ddc000
         465000	        45	80000094	90040413	addi	x8,x8,-1792	  x8:0xe0ddc000  x8=0xe0ddb900
         475000	        46	80000098	00400493	addi	x9,x0,4	  x0:0x00000000  x9=0x00000004
         485000	        47	8000009c	c728a537	lui	x10,0xc728a	 x10=0xc728a000
         495000	        48	800000a0	76650513	addi	x10,x10,1894	 x10:0xc728a000 x10=0xc728a766
         505000	        49	800000a4	00000593	addi	x11,x0,0	  x0:0x00000000 x11=0x00000000
         515000	        50	800000a8	00d00613	addi	x12,x0,13	  x0:0x00000000 x12=0x0000000d
         525000	        51	800000ac	2fe3a7b7	lui	x15,0x2fe3a	 x15=0x2fe3a000
         535000	        52	800000b0	99178793	addi	x15,x15,-1647	 x15:0x2fe3a000 x15=0x2fe39991
         545000	        53	800000b4	00000813	addi	x16,x0,0	  x0:0x00000000 x16=0x00000000
         555000	        54	800000b8	00000893	addi	x17,x0,0	  x0:0x00000000 x17=0x00000000
         565000	        55	800000bc	9a03c937	lui	x18,0x9a03c	 x18=0x9a03c000
         575000	        56	800000c0	95990913	addi	x18,x18,-1703	 x18:0x9a03c000 x18=0x9a03b959
         585000	        57	800000c4	5aabc9b7	lui	x19,0x5aabc	 x19=0x5aabc000
         595000	        58	800000c8	cf998993	addi	x19,x19,-775	 x19:0x5aabc000 x19=0x5aabbcf9
         605000	        59	800000cc	fb9c8a37	lui	x20,0xfb9c8	 x20=0xfb9c8000
         615000	        60	800000d0	b46a0a13	addi	x20,x20,-1210	 x20:0xfb9c8000 x20=0xfb9c7b46
         625000	        61	800000d4	00900a93	addi	x21,x0,9	  x0:0x00000000 x21=0x00000009
         635000	        62	800000d8	00000b13	addi	x22,x0,0	  x0:0x00000000 x22=0x00000000
         645000	        63	800000dc	fb835bb7	lui	x23,0xfb835	 x23=0xfb835000
         655000	        64	800000e0	5c1b8b93	addi	x23,x23,1473	 x23:0xfb835000 x23=0xfb8355c1
         665000	        65	800000e4	fc52fc37	lui	x24,0xfc52f	 x24=0xfc52f000
         675000	        66	800000e8	b0ac0c13	addi	x24,x24,-1270	 x24:0xfc52f000 x24=0xfc52eb0a
         685000	        67	800000ec	00000c93	addi	x25,x0,0	  x0:0x00000000 x25=0x00000000
         695000	        68	800000f0	9ed2cd37	lui	x26,0x9ed2c	 x26=0x9ed2c000
         705000	        69	800000f4	6fad0d13	addi	x26,x26,1786	 x26:0x9ed2c000 x26=0x9ed2c6fa
         715000	        70	800000f8	00e00d93	addi	x27,x0,14	  x0:0x00000000 x27=0x0000000e
         725000	        71	800000fc	8f8cce37	lui	x28,0x8f8cc	 x28=0x8f8cc000
         735000	        72	80000100	1e7e0e13	addi	x28,x28,487	 x28:0x8f8cc000 x28=0x8f8cc1e7
         745000	        73	80000104	56654eb7	lui	x29,0x56654	 x29=0x56654000
         755000	        74	80000108	63ae8e93	addi	x29,x29,1594	 x29:0x56654000 x29=0x5665463a
         765000	        75	8000010c	7cbecf37	lui	x30,0x7cbec	 x30=0x7cbec000
         775000	        76	80000110	a78f0f13	addi	x30,x30,-1416	 x30:0x7cbec000 x30=0x7cbeba78
         785000	        77	80000114	00000f93	addi	x31,x0,0	  x0:0x00000000 x31=0x00000000
         795000	        78	80000118	0000a697	auipc	x13,0xa	 x13=0x8000a114
         805000	        79	8000011c	e7068693	addi	x13,x13,-400	 x13:0x8000a114 x13=0x80009f84
         815000	        80	80000120	02c0036f	jal	x6,80000120	  x6=0x80000120
         825000	        81	00000000	00000013	addi	x0,x0,0	  x0:0x00000000
         835000	        82	80000148	00000013	addi	x0,x0,0	  x0:0x00000000
         845000	        83	8000014c	fe1ffd6f	jal	x26,8000014c	 x26=0x8000014c
         855000	        84	00000000	00000013	addi	x0,x0,0	  x0:0x00000000
         865000	        85	80000128	00000013	addi	x0,x0,0	  x0:0x00000000
         875000	        86	8000012c	0300056f	jal	x10,8000012c	 x10=0x8000012c
         885000	        87	00000000	00000013	addi	x0,x0,0	  x0:0x00000000
         895000	        88	80000158	00000013	addi	x0,x0,0	  x0:0x00000000
         905000	        89	8000015c	fd5ff36f	jal	x6,8000015c	  x6=0x8000015c
         915000	        90	00000000	00000013	addi	x0,x0,0	  x0:0x00000000
         925000	        91	8000012c	00000013	addi	x0,x0,0	  x0:0x00000000
         935000	        92	80000130	00800eef	jal	x29,80000130	 x29=0x80000130
         945000	        93	00000000	00000013	addi	x0,x0,0	  x0:0x00000000
         955000	        94	80000134	00000013	addi	x0,x0,0	  x0:0x00000000
         965000	        95	80000138	008000ef	jal	x1,80000138	  x1=0x80000138
         975000	        96	00000000	00000013	addi	x0,x0,0	  x0:0x00000000
         985000	        97	8000013c	00000013	addi	x0,x0,0	  x0:0x00000000
         995000	        98	80000140	fe5ff0ef	jal	x1,80000140	  x1=0x80000140
        1005000	        99	00000000	00000013	addi	x0,x0,0	  x0:0x00000000
        1015000	       100	80000120	00000013	addi	x0,x0,0	  x0:0x00000000
        1025000	       101	80000124	004003ef	jal	x7,80000124	  x7=0x80000124
        1035000	       102	00000000	00000013	addi	x0,x0,0	  x0:0x00000000
        1045000	       103	80000124	00000013	addi	x0,x0,0	  x0:0x00000000
        1055000	       104	80000128	014000ef	jal	x1,80000128	  x1=0x80000128
        1065000	       105	00000000	00000013	addi	x0,x0,0	  x0:0x00000000
        1075000	       106	80000138	00000013	addi	x0,x0,0	  x0:0x00000000
        1085000	       107	8000013c	ff9ff0ef	jal	x1,8000013c	  x1=0x8000013c
        1095000	       108	00000000	00000013	addi	x0,x0,0	  x0:0x00000000
        1105000	       109	80000130	00000013	addi	x0,x0,0	  x0:0x00000000
        1115000	       110	80000134	0200056f	jal	x10,80000134	 x10=0x80000134
        1125000	       111	00000000	00000013	addi	x0,x0,0	  x0:0x00000000
        1135000	       112	80000150	00000013	addi	x0,x0,0	  x0:0x00000000
        1145000	       113	80000154	ff1ff5ef	jal	x11,80000154	 x11=0x80000154
        1155000	       114	00000000	00000013	addi	x0,x0,0	  x0:0x00000000
        1165000	       115	80000140	00000013	addi	x0,x0,0	  x0:0x00000000
        1175000	       116	80000144	004000ef	jal	x1,80000144	  x1=0x80000144
        1185000	       117	00000000	00000013	addi	x0,x0,0	  x0:0x00000000
        1195000	       118	80000144	00000013	addi	x0,x0,0	  x0:0x00000000
        1205000	       119	80000148	0080036f	jal	x6,80000148	  x6=0x80000148
        1215000	       120	00000000	00000013	addi	x0,x0,0	  x0:0x00000000
        1225000	       121	8000014c	00000013	addi	x0,x0,0	  x0:0x00000000
        1235000	       122	80000150	008000ef	jal	x1,80000150	  x1=0x80000150
        1245000	       123	00000000	00000013	addi	x0,x0,0	  x0:0x00000000
        1255000	       124	80000154	00000013	addi	x0,x0,0	  x0:0x00000000
        1265000	       125	80000158	008000ef	jal	x1,80000158	  x1=0x80000158
        1275000	       126	00000000	00000013	addi	x0,x0,0	  x0:0x00000000
        1285000	       127	8000015c	00000013	addi	x0,x0,0	  x0:0x00000000
        1295000	       128	80000160	00de5793	srli	x15,x28,0xd	 x28:0x8f8cc1e7 x15=0x00047c66
        1305000	       129	80000164	0080036f	jal	x6,80000164	  x6=0x80000164
        1315000	       130	00000000	00000013	addi	x0,x0,0	  x0:0x00000000
        1325000	       131	80000168	00000013	addi	x0,x0,0	  x0:0x00000000
        1335000	       132	8000016c	024000ef	jal	x1,8000016c	  x1=0x8000016c
        1345000	       133	00000000	00000013	addi	x0,x0,0	  x0:0x00000000
        1355000	       134	8000018c	00000013	addi	x0,x0,0	  x0:0x00000000
        1365000	       135	80000190	0140036f	jal	x6,80000190	  x6=0x80000190
        1375000	       136	00000000	00000013	addi	x0,x0,0	  x0:0x00000000
        1385000	       137	800001a0	00000013	addi	x0,x0,0	  x0:0x00000000
        1395000	       138	800001a4	fd1ff86f	jal	x16,800001a4	 x16=0x800001a4
        1405000	       139	00000000	00000013	addi	x0,x0,0	  x0:0x00000000
        1415000	       140	80000170	00000013	addi	x0,x0,0	  x0:0x00000000
        1425000	       141	80000174	018001ef	jal	x3,80000174	  x3=0x80000174
        1435000	       142	00000000	00000013	addi	x0,x0,0	  x0:0x00000000
        1445000	       143	80000188	00000013	addi	x0,x0,0	  x0:0x00000000
        1455000	       144	8000018c	fe5ff0ef	jal	x1,8000018c	  x1=0x8000018c
        1465000	       145	00000000	00000013	addi	x0,x0,0	  x0:0x00000000
        1475000	       146	8000016c	00000013	addi	x0,x0,0	  x0:0x00000000
        1485000	       147	80000170	028000ef	jal	x1,80000170	  x1=0x80000170
        1495000	       148	00000000	00000013	addi	x0,x0,0	  x0:0x00000000
        1505000	       149	80000194	00000013	addi	x0,x0,0	  x0:0x00000000
        1515000	       150	80000198	ff1ff16f	jal	x2,80000198	  x2=0x80000198
        1525000	       151	00000000	00000013	addi	x0,x0,0	  x0:0x00000000
        1535000	       152	80000184	00000013	addi	x0,x0,0	  x0:0x00000000
        1545000	       153	80000188	ff5ff0ef	jal	x1,80000188	  x1=0x80000188
        1555000	       154	00000000	00000013	addi	x0,x0,0	  x0:0x00000000
        1565000	       155	80000178	00000013	addi	x0,x0,0	  x0:0x00000000
        1575000	       156	8000017c	024003ef	jal	x7,8000017c	  x7=0x8000017c
        1585000	       157	00000000	00000013	addi	x0,x0,0	  x0:0x00000000
        1595000	       158	8000019c	00000013	addi	x0,x0,0	  x0:0x00000000
        1605000	       159	800001a0	ffdff36f	jal	x6,800001a0	  x6=0x800001a0
        1615000	       160	00000000	00000013	addi	x0,x0,0	  x0:0x00000000
        1625000	       161	80000198	00000013	addi	x0,x0,0	  x0:0x00000000
        1635000	       162	8000019c	fddffc6f	jal	x24,8000019c	 x24=0x8000019c
        1645000	       163	00000000	00000013	addi	x0,x0,0	  x0:0x00000000
        1655000	       164	80000174	00000013	addi	x0,x0,0	  x0:0x00000000
        1665000	       165	80000178	03000eef	jal	x29,80000178	 x29=0x80000178
        1675000	       166	00000000	00000013	addi	x0,x0,0	  x0:0x00000000
        1685000	       167	800001a4	00000013	addi	x0,x0,0	  x0:0x00000000
        1695000	       168	800001a8	fd9ff36f	jal	x6,800001a8	  x6=0x800001a8
        1705000	       169	00000000	00000013	addi	x0,x0,0	  x0:0x00000000
        1715000	       170	8000017c	00000013	addi	x0,x0,0	  x0:0x00000000
        1725000	       171	80000180	014000ef	jal	x1,80000180	  x1=0x80000180
        1735000	       172	00000000	00000013	addi	x0,x0,0	  x0:0x00000000
        1745000	       173	80000190	00000013	addi	x0,x0,0	  x0:0x00000000
        1755000	       174	80000194	fd5ff0ef	jal	x1,80000194	  x1=0x80000194
        1765000	       175	00000000	00000013	addi	x0,x0,0	  x0:0x00000000
        1775000	       176	80000164	00000013	addi	x0,x0,0	  x0:0x00000000
        1785000	       177	80000168	01c0036f	jal	x6,80000168	  x6=0x80000168
        1795000	       178	00000000	00000013	addi	x0,x0,0	  x0:0x00000000
        1805000	       179	80000180	00000013	addi	x0,x0,0	  x0:0x00000000
        1815000	       180	80000184	02800e6f	jal	x28,80000184	 x28=0x80000184
        1825000	       181	00000000	00000013	addi	x0,x0,0	  x0:0x00000000
        1835000	       182	800001a8	00000013	addi	x0,x0,0	  x0:0x00000000
        1845000	       183	800001ac	00789a33	sll	x20,x17,x7	 x17:0x00000000  x7:0x8000017c x20=0x00000000
        1855000	       184	800001b0	00c0036f	jal	x6,800001b0	  x6=0x800001b0
        1865000	       185	00000000	00000013	addi	x0,x0,0	  x0:0x00000000
        1875000	       186	800001b8	00000013	addi	x0,x0,0	  x0:0x00000000
        1885000	       187	800001bc	ff9ff8ef	jal	x17,800001bc	 x17=0x800001bc
        1895000	       188	00000000	00000013	addi	x0,x0,0	  x0:0x00000000
        1905000	       189	800001b0	00000013	addi	x0,x0,0	  x0:0x00000000
        1915000	       190	800001b4	038005ef	jal	x11,800001b4	 x11=0x800001b4
        1925000	       191	00000000	00000013	addi	x0,x0,0	  x0:0x00000000
        1935000	       192	800001e8	00000013	addi	x0,x0,0	  x0:0x00000000
        1945000	       193	800001ec	fcdff0ef	jal	x1,800001ec	  x1=0x800001ec
        1955000	       194	00000000	00000013	addi	x0,x0,0	  x0:0x00000000
        1965000	       195	800001b4	00000013	addi	x0,x0,0	  x0:0x00000000
        1975000	       196	800001b8	04c000ef	jal	x1,800001b8	  x1=0x800001b8
        1985000	       197	00000000	00000013	addi	x0,x0,0	  x0:0x00000000
        1995000	       198	80000200	00000013	addi	x0,x0,0	  x0:0x00000000
        2005000	       199	80000204	fd9ff0ef	jal	x1,80000204	  x1=0x80000204
        2015000	       200	00000000	00000013	addi	x0,x0,0	  x0:0x00000000
        2025000	       201	800001d8	00000013	addi	x0,x0,0	  x0:0x00000000
        2035000	       202	800001dc	04c000ef	jal	x1,800001dc	  x1=0x800001dc
        2045000	       203	00000000	00000013	addi	x0,x0,0	  x0:0x00000000
        2055000	       204	80000224	00000013	addi	x0,x0,0	  x0:0x00000000
        2065000	       205	80000228	fe9ff0ef	jal	x1,80000228	  x1=0x80000228
        2075000	       206	00000000	00000013	addi	x0,x0,0	  x0:0x00000000
        2085000	       207	8000020c	00000013	addi	x0,x0,0	  x0:0x00000000
        2095000	       208	80000210	fc1ff16f	jal	x2,80000210	  x2=0x80000210
        2105000	       209	00000000	00000013	addi	x0,x0,0	  x0:0x00000000
        2115000	       210	800001cc	00000013	addi	x0,x0,0	  x0:0x00000000
        2125000	       211	800001d0	04800b6f	jal	x22,800001d0	 x22=0x800001d0
        2135000	       212	00000000	00000013	addi	x0,x0,0	  x0:0x00000000
        2145000	       213	80000214	00000013	addi	x0,x0,0	  x0:0x00000000
        2155000	       214	80000218	00c0036f	jal	x6,80000218	  x6=0x80000218
        2165000	       215	00000000	00000013	addi	x0,x0,0	  x0:0x00000000
        2175000	       216	80000220	00000013	addi	x0,x0,0	  x0:0x00000000
        2185000	       217	80000224	fd1ff36f	jal	x6,80000224	  x6=0x80000224
        2195000	       218	00000000	00000013	addi	x0,x0,0	  x0:0x00000000
        2205000	       219	800001f0	00000013	addi	x0,x0,0	  x0:0x00000000
        2215000	       220	800001f4	fedff36f	jal	x6,800001f4	  x6=0x800001f4
        2225000	       221	00000000	00000013	addi	x0,x0,0	  x0:0x00000000
        2235000	       222	800001dc	00000013	addi	x0,x0,0	  x0:0x00000000
        2245000	       223	800001e0	03c0036f	jal	x6,800001e0	  x6=0x800001e0
        2255000	       224	00000000	00000013	addi	x0,x0,0	  x0:0x00000000
        2265000	       225	80000218	00000013	addi	x0,x0,0	  x0:0x00000000
        2275000	       226	8000021c	fe1ff7ef	jal	x15,8000021c	 x15=0x8000021c
        2285000	       227	00000000	00000013	addi	x0,x0,0	  x0:0x00000000
        2295000	       228	800001f8	00000013	addi	x0,x0,0	  x0:0x00000000
        2305000	       229	800001fc	fc5ff0ef	jal	x1,800001fc	  x1=0x800001fc
        2315000	       230	00000000	00000013	addi	x0,x0,0	  x0:0x00000000
        2325000	       231	800001bc	00000013	addi	x0,x0,0	  x0:0x00000000
        2335000	       232	800001c0	038004ef	jal	x9,800001c0	  x9=0x800001c0
        2345000	       233	00000000	00000013	addi	x0,x0,0	  x0:0x00000000
        2355000	       234	800001f4	00000013	addi	x0,x0,0	  x0:0x00000000
        2365000	       235	800001f8	fd5ff0ef	jal	x1,800001f8	  x1=0x800001f8
        2375000	       236	00000000	00000013	addi	x0,x0,0	  x0:0x00000000
        2385000	       237	800001c8	00000013	addi	x0,x0,0	  x0:0x00000000
        2395000	       238	800001cc	04800eef	jal	x29,800001cc	 x29=0x800001cc
        2405000	       239	00000000	00000013	addi	x0,x0,0	  x0:0x00000000
        2415000	       240	80000210	00000013	addi	x0,x0,0	  x0:0x00000000
        2425000	       241	80000214	fb5ffaef	jal	x21,80000214	 x21=0x80000214
        2435000	       242	00000000	00000013	addi	x0,x0,0	  x0:0x00000000
        2445000	       243	800001c4	00000013	addi	x0,x0,0	  x0:0x00000000
        2455000	       244	800001c8	01c00cef	jal	x25,800001c8	 x25=0x800001c8
        2465000	       245	00000000	00000013	addi	x0,x0,0	  x0:0x00000000
        2475000	       246	800001e0	00000013	addi	x0,x0,0	  x0:0x00000000
        2485000	       247	800001e4	ff5ff0ef	jal	x1,800001e4	  x1=0x800001e4
        2495000	       248	00000000	00000013	addi	x0,x0,0	  x0:0x00000000
        2505000	       249	800001d4	00000013	addi	x0,x0,0	  x0:0x00000000
        2515000	       250	800001d8	ffdff16f	jal	x2,800001d8	  x2=0x800001d8
        2525000	       251	00000000	00000013	addi	x0,x0,0	  x0:0x00000000
        2535000	       252	800001d0	00000013	addi	x0,x0,0	  x0:0x00000000
        2545000	       253	800001d4	01c0036f	jal	x6,800001d4	  x6=0x800001d4
        2555000	       254	00000000	00000013	addi	x0,x0,0	  x0:0x00000000
        2565000	       255	800001ec	00000013	addi	x0,x0,0	  x0:0x00000000
        2575000	       256	800001f0	018000ef	jal	x1,800001f0	  x1=0x800001f0
        2585000	       257	00000000	00000013	addi	x0,x0,0	  x0:0x00000000
        2595000	       258	80000204	00000013	addi	x0,x0,0	  x0:0x00000000
        2605000	       259	80000208	fe1ff36f	jal	x6,80000208	  x6=0x80000208
        2615000	       260	00000000	00000013	addi	x0,x0,0	  x0:0x00000000
        2625000	       261	800001e4	00000013	addi	x0,x0,0	  x0:0x00000000
        2635000	       262	800001e8	fddff7ef	jal	x15,800001e8	 x15=0x800001e8
        2645000	       263	00000000	00000013	addi	x0,x0,0	  x0:0x00000000
        2655000	       264	800001c0	00000013	addi	x0,x0,0	  x0:0x00000000
        2665000	       265	800001c4	048000ef	jal	x1,800001c4	  x1=0x800001c4
        2675000	       266	00000000	00000013	addi	x0,x0,0	  x0:0x00000000
        2685000	       267	80000208	00000013	addi	x0,x0,0	  x0:0x00000000
        2695000	       268	8000020c	ff5ff36f	jal	x6,8000020c	  x6=0x8000020c
        2705000	       269	00000000	00000013	addi	x0,x0,0	  x0:0x00000000
        2715000	       270	800001fc	00000013	addi	x0,x0,0	  x0:0x00000000
        2725000	       271	80000200	0200036f	jal	x6,80000200	  x6=0x80000200
        2735000	       272	00000000	00000013	addi	x0,x0,0	  x0:0x00000000
        2745000	       273	8000021c	00000013	addi	x0,x0,0	  x0:0x00000000
        2755000	       274	80000220	00c0036f	jal	x6,80000220	  x6=0x80000220
        2765000	       275	00000000	00000013	addi	x0,x0,0	  x0:0x00000000
        2775000	       276	80000228	00000013	addi	x0,x0,0	  x0:0x00000000
        2785000	       277	8000022c	19362d93	slti	x27,x12,403	 x12:0x0000000d x27=0x00000001
        2795000	       278	80000230	0340036f	jal	x6,80000230	  x6=0x80000230
        2805000	       279	00000000	00000013	addi	x0,x0,0	  x0:0x00000000
        2815000	       280	80000260	00000013	addi	x0,x0,0	  x0:0x00000000
        2825000	       281	80000264	fe1ff0ef	jal	x1,80000264	  x1=0x80000264
        2835000	       282	00000000	00000013	addi	x0,x0,0	  x0:0x00000000
        2845000	       283	80000240	00000013	addi	x0,x0,0	  x0:0x00000000
        2855000	       284	80000244	01000e6f	jal	x28,80000244	 x28=0x80000244
        2865000	       285	00000000	00000013	addi	x0,x0,0	  x0:0x00000000
        2875000	       286	80000250	00000013	addi	x0,x0,0	  x0:0x00000000
        2885000	       287	80000254	fe1ffdef	jal	x27,80000254	 x27=0x80000254
        2895000	       288	00000000	00000013	addi	x0,x0,0	  x0:0x00000000
        2905000	       289	80000230	00000013	addi	x0,x0,0	  x0:0x00000000
        2915000	       290	80000234	004001ef	jal	x3,80000234	  x3=0x80000234
        2925000	       291	00000000	00000013	addi	x0,x0,0	  x0:0x00000000
        2935000	       292	80000234	00000013	addi	x0,x0,0	  x0:0x00000000
        2945000	       293	80000238	0280036f	jal	x6,80000238	  x6=0x80000238
        2955000	       294	00000000	00000013	addi	x0,x0,0	  x0:0x00000000
        2965000	       295	8000025c	00000013	addi	x0,x0,0	  x0:0x00000000
        2975000	       296	80000260	fddff26f	jal	x4,80000260	  x4=0x80000260
        2985000	       297	00000000	00000013	addi	x0,x0,0	  x0:0x00000000
        2995000	       298	80000238	00000013	addi	x0,x0,0	  x0:0x00000000
        3005000	       299	8000023c	0140036f	jal	x6,8000023c	  x6=0x8000023c
        3015000	       300	00000000	00000013	addi	x0,x0,0	  x0:0x00000000
        3025000	       301	8000024c	00000013	addi	x0,x0,0	  x0:0x00000000
        3035000	       302	80000250	ff1ff36f	jal	x6,80000250	  x6=0x80000250
        3045000	       303	00000000	00000013	addi	x0,x0,0	  x0:0x00000000
        3055000	       304	8000023c	00000013	addi	x0,x0,0	  x0:0x00000000
        3065000	       305	80000240	00c000ef	jal	x1,80000240	  x1=0x80000240
        3075000	       306	00000000	00000013	addi	x0,x0,0	  x0:0x00000000
        3085000	       307	80000248	00000013	addi	x0,x0,0	  x0:0x00000000
        3095000	       308	8000024c	ffdff0ef	jal	x1,8000024c	  x1=0x8000024c
        3105000	       309	00000000	00000013	addi	x0,x0,0	  x0:0x00000000
        3115000	       310	80000244	00000013	addi	x0,x0,0	  x0:0x00000000
        3125000	       311	80000248	010000ef	jal	x1,80000248	  x1=0x80000248
        3135000	       312	00000000	00000013	addi	x0,x0,0	  x0:0x00000000
        3145000	       313	80000254	00000013	addi	x0,x0,0	  x0:0x00000000
        3155000	       314	80000258	004000ef	jal	x1,80000258	  x1=0x80000258
        3165000	       315	00000000	00000013	addi	x0,x0,0	  x0:0x00000000
        3175000	       316	80000258	00000013	addi	x0,x0,0	  x0:0x00000000
        3185000	       317	8000025c	00c0016f	jal	x2,8000025c	  x2=0x8000025c
        3195000	       318	00000000	00000013	addi	x0,x0,0	  x0:0x00000000
        3205000	       319	80000264	00000013	addi	x0,x0,0	  x0:0x00000000
        3215000	       320	80000268	9b39ea93	ori	x21,x19,-1613	 x19:0x5aabbcf9 x21=0xfffffdfb
        3225000	       321	8000026c	0380036f	jal	x6,8000026c	  x6=0x8000026c
        3235000	       322	00000000	00000013	addi	x0,x0,0	  x0:0x00000000
        3245000	       323	800002a0	00000013	addi	x0,x0,0	  x0:0x00000000
        3255000	       324	800002a4	fcdff0ef	jal	x1,800002a4	  x1=0x800002a4
        3265000	       325	00000000	00000013	addi	x0,x0,0	  x0:0x00000000
        3275000	       326	8000026c	00000013	addi	x0,x0,0	  x0:0x00000000
        3285000	       327	80000270	0040026f	jal	x4,80000270	  x4=0x80000270
        3295000	       328	00000000	00000013	addi	x0,x0,0	  x0:0x00000000
        3305000	       329	80000270	00000013	addi	x0,x0,0	  x0:0x00000000
        3315000	       330	80000274	010000ef	jal	x1,80000274	  x1=0x80000274
        3325000	       331	00000000	00000013	addi	x0,x0,0	  x0:0x00000000
        3335000	       332	80000280	00000013	addi	x0,x0,0	  x0:0x00000000
        3345000	       333	80000284	0280036f	jal	x6,80000284	  x6=0x80000284
        3355000	       334	00000000	00000013	addi	x0,x0,0	  x0:0x00000000
        3365000	       335	800002a8	00000013	addi	x0,x0,0	  x0:0x00000000
        3375000	       336	800002ac	00800b6f	jal	x22,800002ac	 x22=0x800002ac
        3385000	       337	00000000	00000013	addi	x0,x0,0	  x0:0x00000000
        3395000	       338	800002b0	00000013	addi	x0,x0,0	  x0:0x00000000
        3405000	       339	800002b4	fe9ff0ef	jal	x1,800002b4	  x1=0x800002b4
        3415000	       340	00000000	00000013	addi	x0,x0,0	  x0:0x00000000
        3425000	       341	80000298	00000013	addi	x0,x0,0	  x0:0x00000000
        3435000	       342	8000029c	fe5ff0ef	jal	x1,8000029c	  x1=0x8000029c
        3445000	       343	00000000	00000013	addi	x0,x0,0	  x0:0x00000000
        3455000	       344	8000027c	00000013	addi	x0,x0,0	  x0:0x00000000
        3465000	       345	80000280	008000ef	jal	x1,80000280	  x1=0x80000280
        3475000	       346	00000000	00000013	addi	x0,x0,0	  x0:0x00000000
        3485000	       347	80000284	00000013	addi	x0,x0,0	  x0:0x00000000
        3495000	       348	80000288	ff1ff0ef	jal	x1,80000288	  x1=0x80000288
        3505000	       349	00000000	00000013	addi	x0,x0,0	  x0:0x00000000
        3515000	       350	80000274	00000013	addi	x0,x0,0	  x0:0x00000000
        3525000	       351	80000278	0200066f	jal	x12,80000278	 x12=0x80000278
        3535000	       352	00000000	00000013	addi	x0,x0,0	  x0:0x00000000
        3545000	       353	80000294	00000013	addi	x0,x0,0	  x0:0x00000000
        3555000	       354	80000298	fe5ff16f	jal	x2,80000298	  x2=0x80000298
        3565000	       355	00000000	00000013	addi	x0,x0,0	  x0:0x00000000
        3575000	       356	80000278	00000013	addi	x0,x0,0	  x0:0x00000000
        3585000	       357	8000027c	02c00eef	jal	x29,8000027c	 x29=0x8000027c
        3595000	       358	00000000	00000013	addi	x0,x0,0	  x0:0x00000000
        3605000	       359	800002a4	00000013	addi	x0,x0,0	  x0:0x00000000
        3615000	       360	800002a8	008000ef	jal	x1,800002a8	  x1=0x800002a8
        3625000	       361	00000000	00000013	addi	x0,x0,0	  x0:0x00000000
        3635000	       362	800002ac	00000013	addi	x0,x0,0	  x0:0x00000000
        3645000	       363	800002b0	fddff0ef	jal	x1,800002b0	  x1=0x800002b0
        3655000	       364	00000000	00000013	addi	x0,x0,0	  x0:0x00000000
        3665000	       365	80000288	00000013	addi	x0,x0,0	  x0:0x00000000
        3675000	       366	8000028c	008000ef	jal	x1,8000028c	  x1=0x8000028c
        3685000	       367	00000000	00000013	addi	x0,x0,0	  x0:0x00000000
        3695000	       368	80000290	00000013	addi	x0,x0,0	  x0:0x00000000
        3705000	       369	80000294	ffdff1ef	jal	x3,80000294	  x3=0x80000294
        3715000	       370	00000000	00000013	addi	x0,x0,0	  x0:0x00000000
        3725000	       371	8000028c	00000013	addi	x0,x0,0	  x0:0x00000000
        3735000	       372	80000290	0100036f	jal	x6,80000290	  x6=0x80000290
        3745000	       373	00000000	00000013	addi	x0,x0,0	  x0:0x00000000
        3755000	       374	8000029c	00000013	addi	x0,x0,0	  x0:0x00000000
        3765000	       375	800002a0	018000ef	jal	x1,800002a0	  x1=0x800002a0
        3775000	       376	00000000	00000013	addi	x0,x0,0	  x0:0x00000000
        3785000	       377	800002b4	00000013	addi	x0,x0,0	  x0:0x00000000
        3795000	       378	800002b8	b9f9a897	auipc	x17,0xb9f9a	 x17=0x39f9a2b4
        3805000	       379	800002bc	01c0036f	jal	x6,800002bc	  x6=0x800002bc
        3815000	       380	00000000	00000013	addi	x0,x0,0	  x0:0x00000000
        3825000	       381	800002d4	00000013	addi	x0,x0,0	  x0:0x00000000
        3835000	       382	800002d8	004000ef	jal	x1,800002d8	  x1=0x800002d8
        3845000	       383	00000000	00000013	addi	x0,x0,0	  x0:0x00000000
        3855000	       384	800002d8	00000013	addi	x0,x0,0	  x0:0x00000000
        3865000	       385	800002dc	fe9ff0ef	jal	x1,800002dc	  x1=0x800002dc
        3875000	       386	00000000	00000013	addi	x0,x0,0	  x0:0x00000000
        3885000	       387	800002c0	00000013	addi	x0,x0,0	  x0:0x00000000
        3895000	       388	800002c4	004000ef	jal	x1,800002c4	  x1=0x800002c4
        3905000	       389	00000000	00000013	addi	x0,x0,0	  x0:0x00000000
        3915000	       390	800002c4	00000013	addi	x0,x0,0	  x0:0x00000000
        3925000	       391	800002c8	008000ef	jal	x1,800002c8	  x1=0x800002c8
        3935000	       392	00000000	00000013	addi	x0,x0,0	  x0:0x00000000
        3945000	       393	800002cc	00000013	addi	x0,x0,0	  x0:0x00000000
        3955000	       394	800002d0	010001ef	jal	x3,800002d0	  x3=0x800002d0
        3965000	       395	00000000	00000013	addi	x0,x0,0	  x0:0x00000000
        3975000	       396	800002dc	00000013	addi	x0,x0,0	  x0:0x00000000
        3985000	       397	800002e0	fe1ff0ef	jal	x1,800002e0	  x1=0x800002e0
        3995000	       398	00000000	00000013	addi	x0,x0,0	  x0:0x00000000
        4005000	       399	800002bc	00000013	addi	x0,x0,0	  x0:0x00000000
        4015000	       400	800002c0	024000ef	jal	x1,800002c0	  x1=0x800002c0
        4025000	       401	00000000	00000013	addi	x0,x0,0	  x0:0x00000000
        4035000	       402	800002e0	00000013	addi	x0,x0,0	  x0:0x00000000
        4045000	       403	800002e4	ff1ff86f	jal	x16,800002e4	 x16=0x800002e4
        4055000	       404	00000000	00000013	addi	x0,x0,0	  x0:0x00000000
        4065000	       405	800002d0	00000013	addi	x0,x0,0	  x0:0x00000000
        4075000	       406	800002d4	ff9ff0ef	jal	x1,800002d4	  x1=0x800002d4
        4085000	       407	00000000	00000013	addi	x0,x0,0	  x0:0x00000000
        4095000	       408	800002c8	00000013	addi	x0,x0,0	  x0:0x00000000
        4105000	       409	800002cc	01c00eef	jal	x29,800002cc	 x29=0x800002cc
        4115000	       410	00000000	00000013	addi	x0,x0,0	  x0:0x00000000
        4125000	       411	800002e4	00000013	addi	x0,x0,0	  x0:0x00000000
        4135000	       412	800002e8	01065c93	srli	x25,x12,0x10	 x12:0x80000278 x25=0x00008000
        4145000	       413	800002ec	06c0036f	jal	x6,800002ec	  x6=0x800002ec
        4155000	       414	00000000	00000013	addi	x0,x0,0	  x0:0x00000000
        4165000	       415	80000354	00000013	addi	x0,x0,0	  x0:0x00000000
        4175000	       416	80000358	ffdff0ef	jal	x1,80000358	  x1=0x80000358
        4185000	       417	00000000	00000013	addi	x0,x0,0	  x0:0x00000000
        4195000	       418	80000350	00000013	addi	x0,x0,0	  x0:0x00000000
        4205000	       419	80000354	fc1ff26f	jal	x4,80000354	  x4=0x80000354
        4215000	       420	00000000	00000013	addi	x0,x0,0	  x0:0x00000000
        4225000	       421	80000310	00000013	addi	x0,x0,0	  x0:0x00000000
        4235000	       422	80000314	01c0036f	jal	x6,80000314	  x6=0x80000314
        4245000	       423	00000000	00000013	addi	x0,x0,0	  x0:0x00000000
        4255000	       424	8000032c	00000013	addi	x0,x0,0	  x0:0x00000000
        4265000	       425	80000330	01c000ef	jal	x1,80000330	  x1=0x80000330
        4275000	       426	00000000	00000013	addi	x0,x0,0	  x0:0x00000000
        4285000	       427	80000348	00000013	addi	x0,x0,0	  x0:0x00000000
        4295000	       428	8000034c	fadff0ef	jal	x1,8000034c	  x1=0x8000034c
        4305000	       429	00000000	00000013	addi	x0,x0,0	  x0:0x00000000
        4315000	       430	800002f4	00000013	addi	x0,x0,0	  x0:0x00000000
        4325000	       431	800002f8	0340036f	jal	x6,800002f8	  x6=0x800002f8
        4335000	       432	00000000	00000013	addi	x0,x0,0	  x0:0x00000000
        4345000	       433	80000328	00000013	addi	x0,x0,0	  x0:0x00000000
        4355000	       434	8000032c	fddff0ef	jal	x1,8000032c	  x1=0x8000032c
        4365000	       435	00000000	00000013	addi	x0,x0,0	  x0:0x00000000
        4375000	       436	80000304	00000013	addi	x0,x0,0	  x0:0x00000000
        4385000	       437	80000308	020000ef	jal	x1,80000308	  x1=0x80000308
        4395000	       438	00000000	00000013	addi	x0,x0,0	  x0:0x00000000
        4405000	       439	80000324	00000013	addi	x0,x0,0	  x0:0x00000000
        4415000	       440	80000328	0380086f	jal	x16,80000328	 x16=0x80000328
        4425000	       441	00000000	00000013	addi	x0,x0,0	  x0:0x00000000
        4435000	       442	8000035c	00000013	addi	x0,x0,0	  x0:0x00000000
        4445000	       443	80000360	ff1ff0ef	jal	x1,80000360	  x1=0x80000360
        4455000	       444	00000000	00000013	addi	x0,x0,0	  x0:0x00000000
        4465000	       445	8000034c	00000013	addi	x0,x0,0	  x0:0x00000000
        4475000	       446	80000350	fb1ffe6f	jal	x28,80000350	 x28=0x80000350
        4485000	       447	00000000	00000013	addi	x0,x0,0	  x0:0x00000000
        4495000	       448	800002fc	00000013	addi	x0,x0,0	  x0:0x00000000
        4505000	       449	80000300	040000ef	jal	x1,80000300	  x1=0x80000300
        4515000	       450	00000000	00000013	addi	x0,x0,0	  x0:0x00000000
        4525000	       451	8000033c	00000013	addi	x0,x0,0	  x0:0x00000000
        4535000	       452	80000340	01c000ef	jal	x1,80000340	  x1=0x80000340
        4545000	       453	00000000	00000013	addi	x0,x0,0	  x0:0x00000000
        4555000	       454	80000358	00000013	addi	x0,x0,0	  x0:0x00000000
        4565000	       455	8000035c	fc1ff0ef	jal	x1,8000035c	  x1=0x8000035c
        4575000	       456	00000000	00000013	addi	x0,x0,0	  x0:0x00000000
        4585000	       457	80000318	00000013	addi	x0,x0,0	  x0:0x00000000
        4595000	       458	8000031c	004000ef	jal	x1,8000031c	  x1=0x8000031c
        4605000	       459	00000000	00000013	addi	x0,x0,0	  x0:0x00000000
        4615000	       460	8000031c	00000013	addi	x0,x0,0	  x0:0x00000000
        4625000	       461	80000320	fddff0ef	jal	x1,80000320	  x1=0x80000320
        4635000	       462	00000000	00000013	addi	x0,x0,0	  x0:0x00000000
        4645000	       463	800002f8	00000013	addi	x0,x0,0	  x0:0x00000000
        4655000	       464	800002fc	0140096f	jal	x18,800002fc	 x18=0x800002fc
        4665000	       465	00000000	00000013	addi	x0,x0,0	  x0:0x00000000
        4675000	       466	8000030c	00000013	addi	x0,x0,0	  x0:0x00000000
        4685000	       467	80000310	fe1ff3ef	jal	x7,80000310	  x7=0x80000310
        4695000	       468	00000000	00000013	addi	x0,x0,0	  x0:0x00000000
        4705000	       469	800002ec	00000013	addi	x0,x0,0	  x0:0x00000000
        4715000	       470	800002f0	044000ef	jal	x1,800002f0	  x1=0x800002f0
        4725000	       471	00000000	00000013	addi	x0,x0,0	  x0:0x00000000
        4735000	       472	80000330	00000013	addi	x0,x0,0	  x0:0x00000000
        4745000	       473	80000334	ff1ff0ef	jal	x1,80000334	  x1=0x80000334
        4755000	       474	00000000	00000013	addi	x0,x0,0	  x0:0x00000000
        4765000	       475	80000320	00000013	addi	x0,x0,0	  x0:0x00000000
        4775000	       476	80000324	020000ef	jal	x1,80000324	  x1=0x80000324
        4785000	       477	00000000	00000013	addi	x0,x0,0	  x0:0x00000000
        4795000	       478	80000340	00000013	addi	x0,x0,0	  x0:0x00000000
        4805000	       479	80000344	ff5ffbef	jal	x23,80000344	 x23=0x80000344
        4815000	       480	00000000	00000013	addi	x0,x0,0	  x0:0x00000000
        4825000	       481	80000334	00000013	addi	x0,x0,0	  x0:0x00000000
        4835000	       482	80000338	010000ef	jal	x1,80000338	  x1=0x80000338
        4845000	       483	00000000	00000013	addi	x0,x0,0	  x0:0x00000000
        4855000	       484	80000344	00000013	addi	x0,x0,0	  x0:0x00000000
        4865000	       485	80000348	fadff16f	jal	x2,80000348	  x2=0x80000348
        4875000	       486	00000000	00000013	addi	x0,x0,0	  x0:0x00000000
        4885000	       487	800002f0	00000013	addi	x0,x0,0	  x0:0x00000000
        4895000	       488	800002f4	018001ef	jal	x3,800002f4	  x3=0x800002f4
        4905000	       489	00000000	00000013	addi	x0,x0,0	  x0:0x00000000
        4915000	       490	80000308	00000013	addi	x0,x0,0	  x0:0x00000000
        4925000	       491	8000030c	00c00bef	jal	x23,8000030c	 x23=0x8000030c
        4935000	       492	00000000	00000013	addi	x0,x0,0	  x0:0x00000000
        4945000	       493	80000314	00000013	addi	x0,x0,0	  x0:0x00000000
        4955000	       494	80000318	0240046f	jal	x8,80000318	  x8=0x80000318
        4965000	       495	00000000	00000013	addi	x0,x0,0	  x0:0x00000000
        4975000	       496	80000338	00000013	addi	x0,x0,0	  x0:0x00000000
        4985000	       497	8000033c	fc9ff0ef	jal	x1,8000033c	  x1=0x8000033c
        4995000	       498	00000000	00000013	addi	x0,x0,0	  x0:0x00000000
        5005000	       499	80000300	00000013	addi	x0,x0,0	  x0:0x00000000
        5015000	       500	80000304	060000ef	jal	x1,80000304	  x1=0x80000304
        5025000	       501	00000000	00000013	addi	x0,x0,0	  x0:0x00000000
        5035000	       502	80000360	00000013	addi	x0,x0,0	  x0:0x00000000
        5045000	       503	80000364	41ba8b33	sub	x22,x21,x27	 x21:0xfffffdfb x27:0x80000254 x22=0x7ffffba7
        5055000	       504	80000368	0380036f	jal	x6,80000368	  x6=0x80000368
        5065000	       505	00000000	00000013	addi	x0,x0,0	  x0:0x00000000
        5075000	       506	8000039c	00000013	addi	x0,x0,0	  x0:0x00000000
        5085000	       507	800003a0	0380066f	jal	x12,800003a0	 x12=0x800003a0
        5095000	       508	00000000	00000013	addi	x0,x0,0	  x0:0x00000000
        5105000	       509	800003d4	00000013	addi	x0,x0,0	  x0:0x00000000
        5115000	       510	800003d8	fddff36f	jal	x6,800003d8	  x6=0x800003d8
        5125000	       511	00000000	00000013	addi	x0,x0,0	  x0:0x00000000
        5135000	       512	800003b0	00000013	addi	x0,x0,0	  x0:0x00000000
        5145000	       513	800003b4	01c000ef	jal	x1,800003b4	  x1=0x800003b4
        5155000	       514	00000000	00000013	addi	x0,x0,0	  x0:0x00000000
        5165000	       515	800003cc	00000013	addi	x0,x0,0	  x0:0x00000000
        5175000	       516	800003d0	fc9ff36f	jal	x6,800003d0	  x6=0x800003d0
        5185000	       517	00000000	00000013	addi	x0,x0,0	  x0:0x00000000
        5195000	       518	80000394	00000013	addi	x0,x0,0	  x0:0x00000000
        5205000	       519	80000398	034000ef	jal	x1,80000398	  x1=0x80000398
        5215000	       520	00000000	00000013	addi	x0,x0,0	  x0:0x00000000
        5225000	       521	800003c8	00000013	addi	x0,x0,0	  x0:0x00000000
        5235000	       522	800003cc	fa1ff16f	jal	x2,800003cc	  x2=0x800003cc
        5245000	       523	00000000	00000013	addi	x0,x0,0	  x0:0x00000000
        5255000	       524	80000368	00000013	addi	x0,x0,0	  x0:0x00000000
        5265000	       525	8000036c	074000ef	jal	x1,8000036c	  x1=0x8000036c
        5275000	       526	00000000	00000013	addi	x0,x0,0	  x0:0x00000000
        5285000	       527	800003dc	00000013	addi	x0,x0,0	  x0:0x00000000
        5295000	       528	800003e0	fe9ff16f	jal	x2,800003e0	  x2=0x800003e0
        5305000	       529	00000000	00000013	addi	x0,x0,0	  x0:0x00000000
        5315000	       530	800003c4	00000013	addi	x0,x0,0	  x0:0x00000000
        5325000	       531	800003c8	fe9ff66f	jal	x12,800003c8	 x12=0x800003c8
        5335000	       532	00000000	00000013	addi	x0,x0,0	  x0:0x00000000
        5345000	       533	800003ac	00000013	addi	x0,x0,0	  x0:0x00000000
        5355000	       534	800003b0	ffdff0ef	jal	x1,800003b0	  x1=0x800003b0
        5365000	       535	00000000	00000013	addi	x0,x0,0	  x0:0x00000000
        5375000	       536	800003a8	00000013	addi	x0,x0,0	  x0:0x00000000
        5385000	       537	800003ac	ffdff0ef	jal	x1,800003ac	  x1=0x800003ac
        5395000	       538	00000000	00000013	addi	x0,x0,0	  x0:0x00000000
        5405000	       539	800003a4	00000013	addi	x0,x0,0	  x0:0x00000000
        5415000	       540	800003a8	fedff56f	jal	x10,800003a8	 x10=0x800003a8
        5425000	       541	00000000	00000013	addi	x0,x0,0	  x0:0x00000000
        5435000	       542	80000390	00000013	addi	x0,x0,0	  x0:0x00000000
        5445000	       543	80000394	fedff0ef	jal	x1,80000394	  x1=0x80000394
        5455000	       544	00000000	00000013	addi	x0,x0,0	  x0:0x00000000
        5465000	       545	8000037c	00000013	addi	x0,x0,0	  x0:0x00000000
        5475000	       546	80000380	044000ef	jal	x1,80000380	  x1=0x80000380
        5485000	       547	00000000	00000013	addi	x0,x0,0	  x0:0x00000000
        5495000	       548	800003c0	00000013	addi	x0,x0,0	  x0:0x00000000
        5505000	       549	800003c4	ffdff0ef	jal	x1,800003c4	  x1=0x800003c4
        5515000	       550	00000000	00000013	addi	x0,x0,0	  x0:0x00000000
        5525000	       551	800003bc	00000013	addi	x0,x0,0	  x0:0x00000000
        5535000	       552	800003c0	fddffa6f	jal	x20,800003c0	 x20=0x800003c0
        5545000	       553	00000000	00000013	addi	x0,x0,0	  x0:0x00000000
        5555000	       554	80000398	00000013	addi	x0,x0,0	  x0:0x00000000
        5565000	       555	8000039c	ff5ff86f	jal	x16,8000039c	 x16=0x8000039c
        5575000	       556	00000000	00000013	addi	x0,x0,0	  x0:0x00000000
        5585000	       557	8000038c	00000013	addi	x0,x0,0	  x0:0x00000000
        5595000	       558	80000390	028000ef	jal	x1,80000390	  x1=0x80000390
        5605000	       559	00000000	00000013	addi	x0,x0,0	  x0:0x00000000
        5615000	       560	800003b4	00000013	addi	x0,x0,0	  x0:0x00000000
        5625000	       561	800003b8	004000ef	jal	x1,800003b8	  x1=0x800003b8
        5635000	       562	00000000	00000013	addi	x0,x0,0	  x0:0x00000000
        5645000	       563	800003b8	00000013	addi	x0,x0,0	  x0:0x00000000
        5655000	       564	800003bc	fcdff36f	jal	x6,800003bc	  x6=0x800003bc
        5665000	       565	00000000	00000013	addi	x0,x0,0	  x0:0x00000000
        5675000	       566	80000384	00000013	addi	x0,x0,0	  x0:0x00000000
        5685000	       567	80000388	0040096f	jal	x18,80000388	 x18=0x80000388
        5695000	       568	00000000	00000013	addi	x0,x0,0	  x0:0x00000000
        5705000	       569	80000388	00000013	addi	x0,x0,0	  x0:0x00000000
        5715000	       570	8000038c	fe5ff16f	jal	x2,8000038c	  x2=0x8000038c
        5725000	       571	00000000	00000013	addi	x0,x0,0	  x0:0x00000000
        5735000	       572	8000036c	00000013	addi	x0,x0,0	  x0:0x00000000
        5745000	       573	80000370	014007ef	jal	x15,80000370	 x15=0x80000370
        5755000	       574	00000000	00000013	addi	x0,x0,0	  x0:0x00000000
        5765000	       575	80000380	00000013	addi	x0,x0,0	  x0:0x00000000
        5775000	       576	80000384	05800d6f	jal	x26,80000384	 x26=0x80000384
        5785000	       577	00000000	00000013	addi	x0,x0,0	  x0:0x00000000
        5795000	       578	800003d8	00000013	addi	x0,x0,0	  x0:0x00000000
        5805000	       579	800003dc	ff9ff5ef	jal	x11,800003dc	 x11=0x800003dc
        5815000	       580	00000000	00000013	addi	x0,x0,0	  x0:0x00000000
        5825000	       581	800003d0	00000013	addi	x0,x0,0	  x0:0x00000000
        5835000	       582	800003d4	fa1ff36f	jal	x6,800003d4	  x6=0x800003d4
        5845000	       583	00000000	00000013	addi	x0,x0,0	  x0:0x00000000
        5855000	       584	80000370	00000013	addi	x0,x0,0	  x0:0x00000000
        5865000	       585	80000374	004000ef	jal	x1,80000374	  x1=0x80000374
        5875000	       586	00000000	00000013	addi	x0,x0,0	  x0:0x00000000
        5885000	       587	80000374	00000013	addi	x0,x0,0	  x0:0x00000000
        5895000	       588	80000378	0040036f	jal	x6,80000378	  x6=0x80000378
        5905000	       589	00000000	00000013	addi	x0,x0,0	  x0:0x00000000
        5915000	       590	80000378	00000013	addi	x0,x0,0	  x0:0x00000000
        5925000	       591	8000037c	0280036f	jal	x6,8000037c	  x6=0x8000037c
        5935000	       592	00000000	00000013	addi	x0,x0,0	  x0:0x00000000
        5945000	       593	800003a0	00000013	addi	x0,x0,0	  x0:0x00000000
        5955000	       594	800003a4	0400036f	jal	x6,800003a4	  x6=0x800003a4
        5965000	       595	00000000	00000013	addi	x0,x0,0	  x0:0x00000000
        5975000	       596	800003e0	00000013	addi	x0,x0,0	  x0:0x00000000
        5985000	       597	800003e4	78cfa993	slti	x19,x31,1932	 x31:0x00000000 x19=0x00000001
        5995000	       598	800003e8	0180036f	jal	x6,800003e8	  x6=0x800003e8
        6005000	       599	00000000	00000013	addi	x0,x0,0	  x0:0x00000000
        6015000	       600	800003fc	00000013	addi	x0,x0,0	  x0:0x00000000
        6025000	       601	80000400	01c0046f	jal	x8,80000400	  x8=0x80000400
        6035000	       602	00000000	00000013	addi	x0,x0,0	  x0:0x00000000
        6045000	       603	80000418	00000013	addi	x0,x0,0	  x0:0x00000000
        6055000	       604	8000041c	fe9ff0ef	jal	x1,8000041c	  x1=0x8000041c
        6065000	       605	00000000	00000013	addi	x0,x0,0	  x0:0x00000000
        6075000	       606	80000400	00000013	addi	x0,x0,0	  x0:0x00000000
        6085000	       607	80000404	0100036f	jal	x6,80000404	  x6=0x80000404
        6095000	       608	00000000	00000013	addi	x0,x0,0	  x0:0x00000000
        6105000	       609	80000410	00000013	addi	x0,x0,0	  x0:0x00000000
        6115000	       610	80000414	fe5ff0ef	jal	x1,80000414	  x1=0x80000414
        6125000	       611	00000000	00000013	addi	x0,x0,0	  x0:0x00000000
        6135000	       612	800003f4	00000013	addi	x0,x0,0	  x0:0x00000000
        6145000	       613	800003f8	ff5ff8ef	jal	x17,800003f8	 x17=0x800003f8
        6155000	       614	00000000	00000013	addi	x0,x0,0	  x0:0x00000000
        6165000	       615	800003e8	00000013	addi	x0,x0,0	  x0:0x00000000
        6175000	       616	800003ec	024000ef	jal	x1,800003ec	  x1=0x800003ec
        6185000	       617	00000000	00000013	addi	x0,x0,0	  x0:0x00000000
        6195000	       618	8000040c	00000013	addi	x0,x0,0	  x0:0x00000000
        6205000	       619	80000410	fedff16f	jal	x2,80000410	  x2=0x80000410
        6215000	       620	00000000	00000013	addi	x0,x0,0	  x0:0x00000000
        6225000	       621	800003f8	00000013	addi	x0,x0,0	  x0:0x00000000
        6235000	       622	800003fc	00c000ef	jal	x1,800003fc	  x1=0x800003fc
        6245000	       623	00000000	00000013	addi	x0,x0,0	  x0:0x00000000
        6255000	       624	80000404	00000013	addi	x0,x0,0	  x0:0x00000000
        6265000	       625	80000408	0040036f	jal	x6,80000408	  x6=0x80000408
        6275000	       626	00000000	00000013	addi	x0,x0,0	  x0:0x00000000
        6285000	       627	80000408	00000013	addi	x0,x0,0	  x0:0x00000000
        6295000	       628	8000040c	fe5ffc6f	jal	x24,8000040c	 x24=0x8000040c
        6305000	       629	00000000	00000013	addi	x0,x0,0	  x0:0x00000000
        6315000	       630	800003ec	00000013	addi	x0,x0,0	  x0:0x00000000
        6325000	       631	800003f0	0280036f	jal	x6,800003f0	  x6=0x800003f0
        6335000	       632	00000000	00000013	addi	x0,x0,0	  x0:0x00000000
        6345000	       633	80000414	00000013	addi	x0,x0,0	  x0:0x00000000
        6355000	       634	80000418	fddffa6f	jal	x20,80000418	 x20=0x80000418
        6365000	       635	00000000	00000013	addi	x0,x0,0	  x0:0x00000000
        6375000	       636	800003f0	00000013	addi	x0,x0,0	  x0:0x00000000
        6385000	       637	800003f4	02c00d6f	jal	x26,800003f4	 x26=0x800003f4
        6395000	       638	00000000	00000013	addi	x0,x0,0	  x0:0x00000000
        6405000	       639	8000041c	00000013	addi	x0,x0,0	  x0:0x00000000
        6415000	       640	80000420	018a7eb3	and	x29,x20,x24	 x20:0x80000418 x24:0x8000040c x29=0x80000408
        6425000	       641	80000424	0200036f	jal	x6,80000424	  x6=0x80000424
        6435000	       642	00000000	00000013	addi	x0,x0,0	  x0:0x00000000
        6445000	       643	80000440	00000013	addi	x0,x0,0	  x0:0x00000000
        6455000	       644	80000444	044000ef	jal	x1,80000444	  x1=0x80000444
        6465000	       645	00000000	00000013	addi	x0,x0,0	  x0:0x00000000
        6475000	       646	80000484	00000013	addi	x0,x0,0	  x0:0x00000000
        6485000	       647	80000488	00c000ef	jal	x1,80000488	  x1=0x80000488
        6495000	       648	00000000	00000013	addi	x0,x0,0	  x0:0x00000000
        6505000	       649	80000490	00000013	addi	x0,x0,0	  x0:0x00000000
        6515000	       650	80000494	fddff0ef	jal	x1,80000494	  x1=0x80000494
        6525000	       651	00000000	00000013	addi	x0,x0,0	  x0:0x00000000
        6535000	       652	8000046c	00000013	addi	x0,x0,0	  x0:0x00000000
        6545000	       653	80000470	fd9ff0ef	jal	x1,80000470	  x1=0x80000470
        6555000	       654	00000000	00000013	addi	x0,x0,0	  x0:0x00000000
        6565000	       655	80000444	00000013	addi	x0,x0,0	  x0:0x00000000
        6575000	       656	80000448	038000ef	jal	x1,80000448	  x1=0x80000448
        6585000	       657	00000000	00000013	addi	x0,x0,0	  x0:0x00000000
        6595000	       658	8000047c	00000013	addi	x0,x0,0	  x0:0x00000000
        6605000	       659	80000480	004000ef	jal	x1,80000480	  x1=0x80000480
        6615000	       660	00000000	00000013	addi	x0,x0,0	  x0:0x00000000
        6625000	       661	80000480	00000013	addi	x0,x0,0	  x0:0x00000000
        6635000	       662	80000484	fe9ff36f	jal	x6,80000484	  x6=0x80000484
        6645000	       663	00000000	00000013	addi	x0,x0,0	  x0:0x00000000
        6655000	       664	80000468	00000013	addi	x0,x0,0	  x0:0x00000000
        6665000	       665	8000046c	fc5ff0ef	jal	x1,8000046c	  x1=0x8000046c
        6675000	       666	00000000	00000013	addi	x0,x0,0	  x0:0x00000000
        6685000	       667	8000042c	00000013	addi	x0,x0,0	  x0:0x00000000
        6695000	       668	80000430	024000ef	jal	x1,80000430	  x1=0x80000430
        6705000	       669	00000000	00000013	addi	x0,x0,0	  x0:0x00000000
        6715000	       670	80000450	00000013	addi	x0,x0,0	  x0:0x00000000
        6725000	       671	80000454	028004ef	jal	x9,80000454	  x9=0x80000454
        6735000	       672	00000000	00000013	addi	x0,x0,0	  x0:0x00000000
        6745000	       673	80000478	00000013	addi	x0,x0,0	  x0:0x00000000
        6755000	       674	8000047c	fe5ff9ef	jal	x19,8000047c	 x19=0x8000047c
        6765000	       675	00000000	00000013	addi	x0,x0,0	  x0:0x00000000
        6775000	       676	8000045c	00000013	addi	x0,x0,0	  x0:0x00000000
        6785000	       677	80000460	ff9ff0ef	jal	x1,80000460	  x1=0x80000460
        6795000	       678	00000000	00000013	addi	x0,x0,0	  x0:0x00000000
        6805000	       679	80000454	00000013	addi	x0,x0,0	  x0:0x00000000
        6815000	       680	80000458	fd1ffa6f	jal	x20,80000458	 x20=0x80000458
        6825000	       681	00000000	00000013	addi	x0,x0,0	  x0:0x00000000
        6835000	       682	80000424	00000013	addi	x0,x0,0	  x0:0x00000000
        6845000	       683	80000428	0680026f	jal	x4,80000428	  x4=0x80000428
        6855000	       684	00000000	00000013	addi	x0,x0,0	  x0:0x00000000
        6865000	       685	8000048c	00000013	addi	x0,x0,0	  x0:0x00000000
        6875000	       686	80000490	fe9ff0ef	jal	x1,80000490	  x1=0x80000490
        6885000	       687	00000000	00000013	addi	x0,x0,0	  x0:0x00000000
        6895000	       688	80000474	00000013	addi	x0,x0,0	  x0:0x00000000
        6905000	       689	80000478	fc1ff16f	jal	x2,80000478	  x2=0x80000478
        6915000	       690	00000000	00000013	addi	x0,x0,0	  x0:0x00000000
        6925000	       691	80000434	00000013	addi	x0,x0,0	  x0:0x00000000
        6935000	       692	80000438	03c000ef	jal	x1,80000438	  x1=0x80000438
        6945000	       693	00000000	00000013	addi	x0,x0,0	  x0:0x00000000
        6955000	       694	80000470	00000013	addi	x0,x0,0	  x0:0x00000000
        6965000	       695	80000474	fc1ff0ef	jal	x1,80000474	  x1=0x80000474
        6975000	       696	00000000	00000013	addi	x0,x0,0	  x0:0x00000000
        6985000	       697	80000430	00000013	addi	x0,x0,0	  x0:0x00000000
        6995000	       698	80000434	0340026f	jal	x4,80000434	  x4=0x80000434
        7005000	       699	00000000	00000013	addi	x0,x0,0	  x0:0x00000000
        7015000	       700	80000464	00000013	addi	x0,x0,0	  x0:0x00000000
        7025000	       701	80000468	ff5ff0ef	jal	x1,80000468	  x1=0x80000468
        7035000	       702	00000000	00000013	addi	x0,x0,0	  x0:0x00000000
        7045000	       703	80000458	00000013	addi	x0,x0,0	  x0:0x00000000
        7055000	       704	8000045c	ff1ff36f	jal	x6,8000045c	  x6=0x8000045c
        7065000	       705	00000000	00000013	addi	x0,x0,0	  x0:0x00000000
        7075000	       706	80000448	00000013	addi	x0,x0,0	  x0:0x00000000
        7085000	       707	8000044c	ff1ffd6f	jal	x26,8000044c	 x26=0x8000044c
        7095000	       708	00000000	00000013	addi	x0,x0,0	  x0:0x00000000
        7105000	       709	80000438	00000013	addi	x0,x0,0	  x0:0x00000000
        7115000	       710	8000043c	0500036f	jal	x6,8000043c	  x6=0x8000043c
        7125000	       711	00000000	00000013	addi	x0,x0,0	  x0:0x00000000
        7135000	       712	80000488	00000013	addi	x0,x0,0	  x0:0x00000000
        7145000	       713	8000048c	fc5ffa6f	jal	x20,8000048c	 x20=0x8000048c
        7155000	       714	00000000	00000013	addi	x0,x0,0	  x0:0x00000000
        7165000	       715	8000044c	00000013	addi	x0,x0,0	  x0:0x00000000
        7175000	       716	80000450	014000ef	jal	x1,80000450	  x1=0x80000450
        7185000	       717	00000000	00000013	addi	x0,x0,0	  x0:0x00000000
        7195000	       718	80000460	00000013	addi	x0,x0,0	  x0:0x00000000
        7205000	       719	80000464	fc9ff36f	jal	x6,80000464	  x6=0x80000464
        7215000	       720	00000000	00000013	addi	x0,x0,0	  x0:0x00000000
        7225000	       721	80000428	00000013	addi	x0,x0,0	  x0:0x00000000
        7235000	       722	8000042c	014000ef	jal	x1,8000042c	  x1=0x8000042c
        7245000	       723	00000000	00000013	addi	x0,x0,0	  x0:0x00000000
        7255000	       724	8000043c	00000013	addi	x0,x0,0	  x0:0x00000000
        7265000	       725	80000440	0580036f	jal	x6,80000440	  x6=0x80000440
        7275000	       726	00000000	00000013	addi	x0,x0,0	  x0:0x00000000
        7285000	       727	80000494	00000013	addi	x0,x0,0	  x0:0x00000000
        7295000	       728	80000498	00e5c0b3	xor	x1,x11,x14	 x11:0x800003dc x14:0x80009fc4  x1=0x00009c18
        7305000	       729	8000049c	01c0036f	jal	x6,8000049c	  x6=0x8000049c
        7315000	       730	00000000	00000013	addi	x0,x0,0	  x0:0x00000000
        7325000	       731	800004b4	00000013	addi	x0,x0,0	  x0:0x00000000
        7335000	       732	800004b8	ff5ff0ef	jal	x1,800004b8	  x1=0x800004b8
        7345000	       733	00000000	00000013	addi	x0,x0,0	  x0:0x00000000
        7355000	       734	800004a8	00000013	addi	x0,x0,0	  x0:0x00000000
        7365000	       735	800004ac	0180016f	jal	x2,800004ac	  x2=0x800004ac
        7375000	       736	00000000	00000013	addi	x0,x0,0	  x0:0x00000000
        7385000	       737	800004c0	00000013	addi	x0,x0,0	  x0:0x00000000
        7395000	       738	800004c4	fe5ff0ef	jal	x1,800004c4	  x1=0x800004c4
        7405000	       739	00000000	00000013	addi	x0,x0,0	  x0:0x00000000
        7415000	       740	800004a4	00000013	addi	x0,x0,0	  x0:0x00000000
        7425000	       741	800004a8	01400cef	jal	x25,800004a8	 x25=0x800004a8
        7435000	       742	00000000	00000013	addi	x0,x0,0	  x0:0x00000000
        7445000	       743	800004b8	00000013	addi	x0,x0,0	  x0:0x00000000
        7455000	       744	800004bc	ff5ff36f	jal	x6,800004bc	  x6=0x800004bc
        7465000	       745	00000000	00000013	addi	x0,x0,0	  x0:0x00000000
        7475000	       746	800004ac	00000013	addi	x0,x0,0	  x0:0x00000000
        7485000	       747	800004b0	ff1ff0ef	jal	x1,800004b0	  x1=0x800004b0
        7495000	       748	00000000	00000013	addi	x0,x0,0	  x0:0x00000000
        7505000	       749	8000049c	00000013	addi	x0,x0,0	  x0:0x00000000
        7515000	       750	800004a0	0140036f	jal	x6,800004a0	  x6=0x800004a0
        7525000	       751	00000000	00000013	addi	x0,x0,0	  x0:0x00000000
        7535000	       752	800004b0	00000013	addi	x0,x0,0	  x0:0x00000000
        7545000	       753	800004b4	ff1ffcef	jal	x25,800004b4	 x25=0x800004b4
        7555000	       754	00000000	00000013	addi	x0,x0,0	  x0:0x00000000
        7565000	       755	800004a0	00000013	addi	x0,x0,0	  x0:0x00000000
        7575000	       756	800004a4	01c0026f	jal	x4,800004a4	  x4=0x800004a4
        7585000	       757	00000000	00000013	addi	x0,x0,0	  x0:0x00000000
        7595000	       758	800004bc	00000013	addi	x0,x0,0	  x0:0x00000000
        7605000	       759	800004c0	008000ef	jal	x1,800004c0	  x1=0x800004c0
        7615000	       760	00000000	00000013	addi	x0,x0,0	  x0:0x00000000
        7625000	       761	800004c4	00000013	addi	x0,x0,0	  x0:0x00000000
        7635000	       762	800004c8	7166eb13	ori	x22,x13,1814	 x13:0x80009f84 x22=0x80009f96
        7645000	       763	800004cc	0040036f	jal	x6,800004cc	  x6=0x800004cc
        7655000	       764	00000000	00000013	addi	x0,x0,0	  x0:0x00000000
        7665000	       765	800004cc	00000013	addi	x0,x0,0	  x0:0x00000000
        7675000	       766	800004d0	0300036f	jal	x6,800004d0	  x6=0x800004d0
        7685000	       767	00000000	00000013	addi	x0,x0,0	  x0:0x00000000
        7695000	       768	800004fc	00000013	addi	x0,x0,0	  x0:0x00000000
        7705000	       769	80000500	ff5ff0ef	jal	x1,80000500	  x1=0x80000500
        7715000	       770	00000000	00000013	addi	x0,x0,0	  x0:0x00000000
        7725000	       771	800004f0	00000013	addi	x0,x0,0	  x0:0x00000000
        7735000	       772	800004f4	ff9ff36f	jal	x6,800004f4	  x6=0x800004f4
        7745000	       773	00000000	00000013	addi	x0,x0,0	  x0:0x00000000
        7755000	       774	800004e8	00000013	addi	x0,x0,0	  x0:0x00000000
        7765000	       775	800004ec	020000ef	jal	x1,800004ec	  x1=0x800004ec
        7775000	       776	00000000	00000013	addi	x0,x0,0	  x0:0x00000000
        7785000	       777	80000508	00000013	addi	x0,x0,0	  x0:0x00000000
        7795000	       778	8000050c	fd1ff0ef	jal	x1,8000050c	  x1=0x8000050c
        7805000	       779	00000000	00000013	addi	x0,x0,0	  x0:0x00000000
        7815000	       780	800004d8	00000013	addi	x0,x0,0	  x0:0x00000000
        7825000	       781	800004dc	014000ef	jal	x1,800004dc	  x1=0x800004dc
        7835000	       782	00000000	00000013	addi	x0,x0,0	  x0:0x00000000
        7845000	       783	800004ec	00000013	addi	x0,x0,0	  x0:0x00000000
        7855000	       784	800004f0	fe9ff26f	jal	x4,800004f0	  x4=0x800004f0
        7865000	       785	00000000	00000013	addi	x0,x0,0	  x0:0x00000000
        7875000	       786	800004d4	00000013	addi	x0,x0,0	  x0:0x00000000
        7885000	       787	800004d8	008000ef	jal	x1,800004d8	  x1=0x800004d8
        7895000	       788	00000000	00000013	addi	x0,x0,0	  x0:0x00000000
        7905000	       789	800004dc	00000013	addi	x0,x0,0	  x0:0x00000000
        7915000	       790	800004e0	008000ef	jal	x1,800004e0	  x1=0x800004e0
        7925000	       791	00000000	00000013	addi	x0,x0,0	  x0:0x00000000
        7935000	       792	800004e4	00000013	addi	x0,x0,0	  x0:0x00000000
        7945000	       793	800004e8	010000ef	jal	x1,800004e8	  x1=0x800004e8
        7955000	       794	00000000	00000013	addi	x0,x0,0	  x0:0x00000000
        7965000	       795	800004f4	00000013	addi	x0,x0,0	  x0:0x00000000
        7975000	       796	800004f8	0100026f	jal	x4,800004f8	  x4=0x800004f8
        7985000	       797	00000000	00000013	addi	x0,x0,0	  x0:0x00000000
        7995000	       798	80000504	00000013	addi	x0,x0,0	  x0:0x00000000
        8005000	       799	80000508	fcdff16f	jal	x2,80000508	  x2=0x80000508
        8015000	       800	00000000	00000013	addi	x0,x0,0	  x0:0x00000000
        8025000	       801	800004d0	00000013	addi	x0,x0,0	  x0:0x00000000
        8035000	       802	800004d4	028000ef	jal	x1,800004d4	  x1=0x800004d4
        8045000	       803	00000000	00000013	addi	x0,x0,0	  x0:0x00000000
        8055000	       804	800004f8	00000013	addi	x0,x0,0	  x0:0x00000000
        8065000	       805	800004fc	fe9ffd6f	jal	x26,800004fc	 x26=0x800004fc
        8075000	       806	00000000	00000013	addi	x0,x0,0	  x0:0x00000000
        8085000	       807	800004e0	00000013	addi	x0,x0,0	  x0:0x00000000
        8095000	       808	800004e4	0200096f	jal	x18,800004e4	 x18=0x800004e4
        8105000	       809	00000000	00000013	addi	x0,x0,0	  x0:0x00000000
        8115000	       810	80000500	00000013	addi	x0,x0,0	  x0:0x00000000
        8125000	       811	80000504	00c0026f	jal	x4,80000504	  x4=0x80000504
        8135000	       812	00000000	00000013	addi	x0,x0,0	  x0:0x00000000
        8145000	       813	8000050c	00000013	addi	x0,x0,0	  x0:0x00000000
        8155000	       814	80000510	f6230893	addi	x17,x6,-158	  x6:0x800004f4 x17=0x80000456
        8165000	       815	80000514	01c0036f	jal	x6,80000514	  x6=0x80000514
        8175000	       816	00000000	00000013	addi	x0,x0,0	  x0:0x00000000
        8185000	       817	8000052c	00000013	addi	x0,x0,0	  x0:0x00000000
        8195000	       818	80000530	0040026f	jal	x4,80000530	  x4=0x80000530
        8205000	       819	00000000	00000013	addi	x0,x0,0	  x0:0x00000000
        8215000	       820	80000530	00000013	addi	x0,x0,0	  x0:0x00000000
        8225000	       821	80000534	004000ef	jal	x1,80000534	  x1=0x80000534
        8235000	       822	00000000	00000013	addi	x0,x0,0	  x0:0x00000000
        8245000	       823	80000534	00000013	addi	x0,x0,0	  x0:0x00000000
        8255000	       824	80000538	ff5ff0ef	jal	x1,80000538	  x1=0x80000538
        8265000	       825	00000000	00000013	addi	x0,x0,0	  x0:0x00000000
        8275000	       826	80000528	00000013	addi	x0,x0,0	  x0:0x00000000
        8285000	       827	8000052c	010000ef	jal	x1,8000052c	  x1=0x8000052c
        8295000	       828	00000000	00000013	addi	x0,x0,0	  x0:0x00000000
        8305000	       829	80000538	00000013	addi	x0,x0,0	  x0:0x00000000
        8315000	       830	8000053c	fe1ff36f	jal	x6,8000053c	  x6=0x8000053c
        8325000	       831	00000000	00000013	addi	x0,x0,0	  x0:0x00000000
        8335000	       832	80000518	00000013	addi	x0,x0,0	  x0:0x00000000
        8345000	       833	8000051c	ffdff0ef	jal	x1,8000051c	  x1=0x8000051c
        8355000	       834	00000000	00000013	addi	x0,x0,0	  x0:0x00000000
        8365000	       835	80000514	00000013	addi	x0,x0,0	  x0:0x00000000
        8375000	       836	80000518	048000ef	jal	x1,80000518	  x1=0x80000518
        8385000	       837	00000000	00000013	addi	x0,x0,0	  x0:0x00000000
        8395000	       838	8000055c	00000013	addi	x0,x0,0	  x0:0x00000000
        8405000	       839	80000560	fc9ff0ef	jal	x1,80000560	  x1=0x80000560
        8415000	       840	00000000	00000013	addi	x0,x0,0	  x0:0x00000000
        8425000	       841	80000524	00000013	addi	x0,x0,0	  x0:0x00000000
        8435000	       842	80000528	02c0036f	jal	x6,80000528	  x6=0x80000528
        8445000	       843	00000000	00000013	addi	x0,x0,0	  x0:0x00000000
        8455000	       844	80000550	00000013	addi	x0,x0,0	  x0:0x00000000
        8465000	       845	80000554	028000ef	jal	x1,80000554	  x1=0x80000554
        8475000	       846	00000000	00000013	addi	x0,x0,0	  x0:0x00000000
        8485000	       847	80000578	00000013	addi	x0,x0,0	  x0:0x00000000
        8495000	       848	8000057c	fd5ff36f	jal	x6,8000057c	  x6=0x8000057c
        8505000	       849	00000000	00000013	addi	x0,x0,0	  x0:0x00000000
        8515000	       850	8000054c	00000013	addi	x0,x0,0	  x0:0x00000000
        8525000	       851	80000550	ff1ff0ef	jal	x1,80000550	  x1=0x80000550
        8535000	       852	00000000	00000013	addi	x0,x0,0	  x0:0x00000000
        8545000	       853	8000053c	00000013	addi	x0,x0,0	  x0:0x00000000
        8555000	       854	80000540	028000ef	jal	x1,80000540	  x1=0x80000540
        8565000	       855	00000000	00000013	addi	x0,x0,0	  x0:0x00000000
        8575000	       856	80000564	00000013	addi	x0,x0,0	  x0:0x00000000
        8585000	       857	80000568	ff1ff1ef	jal	x3,80000568	  x3=0x80000568
        8595000	       858	00000000	00000013	addi	x0,x0,0	  x0:0x00000000
        8605000	       859	80000554	00000013	addi	x0,x0,0	  x0:0x00000000
        8615000	       860	80000558	018000ef	jal	x1,80000558	  x1=0x80000558
        8625000	       861	00000000	00000013	addi	x0,x0,0	  x0:0x00000000
        8635000	       862	8000056c	00000013	addi	x0,x0,0	  x0:0x00000000
        8645000	       863	80000570	fddffaef	jal	x21,80000570	 x21=0x80000570
        8655000	       864	00000000	00000013	addi	x0,x0,0	  x0:0x00000000
        8665000	       865	80000548	00000013	addi	x0,x0,0	  x0:0x00000000
        8675000	       866	8000054c	fd9fff6f	jal	x30,8000054c	 x30=0x8000054c
        8685000	       867	00000000	00000013	addi	x0,x0,0	  x0:0x00000000
        8695000	       868	80000520	00000013	addi	x0,x0,0	  x0:0x00000000
        8705000	       869	80000524	0240036f	jal	x6,80000524	  x6=0x80000524
        8715000	       870	00000000	00000013	addi	x0,x0,0	  x0:0x00000000
        8725000	       871	80000544	00000013	addi	x0,x0,0	  x0:0x00000000
        8735000	       872	80000548	fd9ff0ef	jal	x1,80000548	  x1=0x80000548
        8745000	       873	00000000	00000013	addi	x0,x0,0	  x0:0x00000000
        8755000	       874	8000051c	00000013	addi	x0,x0,0	  x0:0x00000000
        8765000	       875	80000520	04400aef	jal	x21,80000520	 x21=0x80000520
        8775000	       876	00000000	00000013	addi	x0,x0,0	  x0:0x00000000
        8785000	       877	80000560	00000013	addi	x0,x0,0	  x0:0x00000000
        8795000	       878	80000564	00800fef	jal	x31,80000564	 x31=0x80000564
        8805000	       879	00000000	00000013	addi	x0,x0,0	  x0:0x00000000
        8815000	       880	80000568	00000013	addi	x0,x0,0	  x0:0x00000000
        8825000	       881	8000056c	fd9ff36f	jal	x6,8000056c	  x6=0x8000056c
        8835000	       882	00000000	00000013	addi	x0,x0,0	  x0:0x00000000
        8845000	       883	80000540	00000013	addi	x0,x0,0	  x0:0x00000000
        8855000	       884	80000544	03c001ef	jal	x3,80000544	  x3=0x80000544
        8865000	       885	00000000	00000013	addi	x0,x0,0	  x0:0x00000000
        8875000	       886	8000057c	00000013	addi	x0,x0,0	  x0:0x00000000
        8885000	       887	80000580	0040016f	jal	x2,80000580	  x2=0x80000580
        8895000	       888	00000000	00000013	addi	x0,x0,0	  x0:0x00000000
        8905000	       889	80000580	00000013	addi	x0,x0,0	  x0:0x00000000
        8915000	       890	80000584	ff1ff0ef	jal	x1,80000584	  x1=0x80000584
        8925000	       891	00000000	00000013	addi	x0,x0,0	  x0:0x00000000
        8935000	       892	80000570	00000013	addi	x0,x0,0	  x0:0x00000000
        8945000	       893	80000574	004000ef	jal	x1,80000574	  x1=0x80000574
        8955000	       894	00000000	00000013	addi	x0,x0,0	  x0:0x00000000
        8965000	       895	80000574	00000013	addi	x0,x0,0	  x0:0x00000000
        8975000	       896	80000578	fe5ff0ef	jal	x1,80000578	  x1=0x80000578
        8985000	       897	00000000	00000013	addi	x0,x0,0	  x0:0x00000000
        8995000	       898	80000558	00000013	addi	x0,x0,0	  x0:0x00000000
        9005000	       899	8000055c	02c000ef	jal	x1,8000055c	  x1=0x8000055c
        9015000	       900	00000000	00000013	addi	x0,x0,0	  x0:0x00000000
        9025000	       901	80000584	00000013	addi	x0,x0,0	  x0:0x00000000
        9035000	       902	80000588	01a85593	srli	x11,x16,0x1a	 x16:0x8000039c x11=0x00000020
        9045000	       903	8000058c	00c0036f	jal	x6,8000058c	  x6=0x8000058c
        9055000	       904	00000000	00000013	addi	x0,x0,0	  x0:0x00000000
        9065000	       905	80000594	00000013	addi	x0,x0,0	  x0:0x00000000
        9075000	       906	80000598	028000ef	jal	x1,80000598	  x1=0x80000598
        9085000	       907	00000000	00000013	addi	x0,x0,0	  x0:0x00000000
        9095000	       908	800005bc	00000013	addi	x0,x0,0	  x0:0x00000000
        9105000	       909	800005c0	ffdff36f	jal	x6,800005c0	  x6=0x800005c0
        9115000	       910	00000000	00000013	addi	x0,x0,0	  x0:0x00000000
        9125000	       911	800005b8	00000013	addi	x0,x0,0	  x0:0x00000000
        9135000	       912	800005bc	fd5ff7ef	jal	x15,800005bc	 x15=0x800005bc
        9145000	       913	00000000	00000013	addi	x0,x0,0	  x0:0x00000000
        9155000	       914	8000058c	00000013	addi	x0,x0,0	  x0:0x00000000
        9165000	       915	80000590	0100016f	jal	x2,80000590	  x2=0x80000590
        9175000	       916	00000000	00000013	addi	x0,x0,0	  x0:0x00000000
        9185000	       917	8000059c	00000013	addi	x0,x0,0	  x0:0x00000000
        9195000	       918	800005a0	0040036f	jal	x6,800005a0	  x6=0x800005a0
        9205000	       919	00000000	00000013	addi	x0,x0,0	  x0:0x00000000
        9215000	       920	800005a0	00000013	addi	x0,x0,0	  x0:0x00000000
        9225000	       921	800005a4	0140016f	jal	x2,800005a4	  x2=0x800005a4
        9235000	       922	00000000	00000013	addi	x0,x0,0	  x0:0x00000000
        9245000	       923	800005b4	00000013	addi	x0,x0,0	  x0:0x00000000
        9255000	       924	800005b8	fe5ff0ef	jal	x1,800005b8	  x1=0x800005b8
        9265000	       925	00000000	00000013	addi	x0,x0,0	  x0:0x00000000
        9275000	       926	80000598	00000013	addi	x0,x0,0	  x0:0x00000000
        9285000	       927	8000059c	018000ef	jal	x1,8000059c	  x1=0x8000059c
        9295000	       928	00000000	00000013	addi	x0,x0,0	  x0:0x00000000
        9305000	       929	800005b0	00000013	addi	x0,x0,0	  x0:0x00000000
        9315000	       930	800005b4	ff9ff0ef	jal	x1,800005b4	  x1=0x800005b4
        9325000	       931	00000000	00000013	addi	x0,x0,0	  x0:0x00000000
        9335000	       932	800005a8	00000013	addi	x0,x0,0	  x0:0x00000000
        9345000	       933	800005ac	ffdff4ef	jal	x9,800005ac	  x9=0x800005ac
        9355000	       934	00000000	00000013	addi	x0,x0,0	  x0:0x00000000
        9365000	       935	800005a4	00000013	addi	x0,x0,0	  x0:0x00000000
        9375000	       936	800005a8	008000ef	jal	x1,800005a8	  x1=0x800005a8
        9385000	       937	00000000	00000013	addi	x0,x0,0	  x0:0x00000000
        9395000	       938	800005ac	00000013	addi	x0,x0,0	  x0:0x00000000
        9405000	       939	800005b0	fe5ff36f	jal	x6,800005b0	  x6=0x800005b0
        9415000	       940	00000000	00000013	addi	x0,x0,0	  x0:0x00000000
        9425000	       941	80000590	00000013	addi	x0,x0,0	  x0:0x00000000
        9435000	       942	80000594	0300036f	jal	x6,80000594	  x6=0x80000594
        9445000	       943	00000000	00000013	addi	x0,x0,0	  x0:0x00000000
        9455000	       944	800005c0	00000013	addi	x0,x0,0	  x0:0x00000000
        9465000	       945	800005c4	013de7b3	or	x15,x27,x19	 x27:0x80000254 x19:0x8000047c x15=0x8000067c
        9475000	       946	800005c8	0080036f	jal	x6,800005c8	  x6=0x800005c8
        9485000	       947	00000000	00000013	addi	x0,x0,0	  x0:0x00000000
        9495000	       948	800005cc	00000013	addi	x0,x0,0	  x0:0x00000000
        9505000	       949	800005d0	0040026f	jal	x4,800005d0	  x4=0x800005d0
        9515000	       950	00000000	00000013	addi	x0,x0,0	  x0:0x00000000
        9525000	       951	800005d0	00000013	addi	x0,x0,0	  x0:0x00000000
        9535000	       952	800005d4	0140036f	jal	x6,800005d4	  x6=0x800005d4
        9545000	       953	00000000	00000013	addi	x0,x0,0	  x0:0x00000000
        9555000	       954	800005e4	00000013	addi	x0,x0,0	  x0:0x00000000
        9565000	       955	800005e8	0280066f	jal	x12,800005e8	 x12=0x800005e8
        9575000	       956	00000000	00000013	addi	x0,x0,0	  x0:0x00000000
        9585000	       957	8000060c	00000013	addi	x0,x0,0	  x0:0x00000000
        9595000	       958	80000610	fc9ff36f	jal	x6,80000610	  x6=0x80000610
        9605000	       959	00000000	00000013	addi	x0,x0,0	  x0:0x00000000
        9615000	       960	800005d4	00000013	addi	x0,x0,0	  x0:0x00000000
        9625000	       961	800005d8	ff5ff0ef	jal	x1,800005d8	  x1=0x800005d8
        9635000	       962	00000000	00000013	addi	x0,x0,0	  x0:0x00000000
        9645000	       963	800005c8	00000013	addi	x0,x0,0	  x0:0x00000000
        9655000	       964	800005cc	048000ef	jal	x1,800005cc	  x1=0x800005cc
        9665000	       965	00000000	00000013	addi	x0,x0,0	  x0:0x00000000
        9675000	       966	80000610	00000013	addi	x0,x0,0	  x0:0x00000000
        9685000	       967	80000614	004000ef	jal	x1,80000614	  x1=0x80000614
        9695000	       968	00000000	00000013	addi	x0,x0,0	  x0:0x00000000
        9705000	       969	80000614	00000013	addi	x0,x0,0	  x0:0x00000000
        9715000	       970	80000618	fe1ff0ef	jal	x1,80000618	  x1=0x80000618
        9725000	       971	00000000	00000013	addi	x0,x0,0	  x0:0x00000000
        9735000	       972	800005f4	00000013	addi	x0,x0,0	  x0:0x00000000
        9745000	       973	800005f8	ff9ff0ef	jal	x1,800005f8	  x1=0x800005f8
        9755000	       974	00000000	00000013	addi	x0,x0,0	  x0:0x00000000
        9765000	       975	800005ec	00000013	addi	x0,x0,0	  x0:0x00000000
        9775000	       976	800005f0	010000ef	jal	x1,800005f0	  x1=0x800005f0
        9785000	       977	00000000	00000013	addi	x0,x0,0	  x0:0x00000000
        9795000	       978	800005fc	00000013	addi	x0,x0,0	  x0:0x00000000
        9805000	       979	80000600	00c0026f	jal	x4,80000600	  x4=0x80000600
        9815000	       980	00000000	00000013	addi	x0,x0,0	  x0:0x00000000
        9825000	       981	80000608	00000013	addi	x0,x0,0	  x0:0x00000000
        9835000	       982	8000060c	ff1ff0ef	jal	x1,8000060c	  x1=0x8000060c
        9845000	       983	00000000	00000013	addi	x0,x0,0	  x0:0x00000000
        9855000	       984	800005f8	00000013	addi	x0,x0,0	  x0:0x00000000
        9865000	       985	800005fc	00c000ef	jal	x1,800005fc	  x1=0x800005fc
        9875000	       986	00000000	00000013	addi	x0,x0,0	  x0:0x00000000
        9885000	       987	80000604	00000013	addi	x0,x0,0	  x0:0x00000000
        9895000	       988	80000608	fddffaef	jal	x21,80000608	 x21=0x80000608
        9905000	       989	00000000	00000013	addi	x0,x0,0	  x0:0x00000000
        9915000	       990	800005e0	00000013	addi	x0,x0,0	  x0:0x00000000
        9925000	       991	800005e4	0200036f	jal	x6,800005e4	  x6=0x800005e4
        9935000	       992	00000000	00000013	addi	x0,x0,0	  x0:0x00000000
        9945000	       993	80000600	00000013	addi	x0,x0,0	  x0:0x00000000
        9955000	       994	80000604	fd9ff0ef	jal	x1,80000604	  x1=0x80000604
        9965000	       995	00000000	00000013	addi	x0,x0,0	  x0:0x00000000
        9975000	       996	800005d8	00000013	addi	x0,x0,0	  x0:0x00000000
        9985000	       997	800005dc	004000ef	jal	x1,800005dc	  x1=0x800005dc
        9995000	       998	00000000	00000013	addi	x0,x0,0	  x0:0x00000000
       10005000	       999	800005dc	00000013	addi	x0,x0,0	  x0:0x00000000
       10015000	      1000	800005e0	01400d6f	jal	x26,800005e0	 x26=0x800005e0
       10025000	      1001	00000000	00000013	addi	x0,x0,0	  x0:0x00000000
       10035000	      1002	800005f0	00000013	addi	x0,x0,0	  x0:0x00000000
       10045000	      1003	800005f4	ff9ff0ef	jal	x1,800005f4	  x1=0x800005f4
       10055000	      1004	00000000	00000013	addi	x0,x0,0	  x0:0x00000000
       10065000	      1005	800005e8	00000013	addi	x0,x0,0	  x0:0x00000000
       10075000	      1006	800005ec	0300036f	jal	x6,800005ec	  x6=0x800005ec
       10085000	      1007	00000000	00000013	addi	x0,x0,0	  x0:0x00000000
       10095000	      1008	80000618	00000013	addi	x0,x0,0	  x0:0x00000000
       10105000	      1009	8000061c	018c53b3	srl	x7,x24,x24	 x24:0x8000040c x24:0x8000040c  x7=0x00080000
       10115000	      1010	80000620	0200036f	jal	x6,80000620	  x6=0x80000620
       10125000	      1011	00000000	00000013	addi	x0,x0,0	  x0:0x00000000
       10135000	      1012	8000063c	00000013	addi	x0,x0,0	  x0:0x00000000
       10145000	      1013	80000640	ff5ff36f	jal	x6,80000640	  x6=0x80000640
       10155000	      1014	00000000	00000013	addi	x0,x0,0	  x0:0x00000000
       10165000	      1015	80000630	00000013	addi	x0,x0,0	  x0:0x00000000
       10175000	      1016	80000634	010007ef	jal	x15,80000634	 x15=0x80000634
       10185000	      1017	00000000	00000013	addi	x0,x0,0	  x0:0x00000000
       10195000	      1018	80000640	00000013	addi	x0,x0,0	  x0:0x00000000
       10205000	      1019	80000644	fedff0ef	jal	x1,80000644	  x1=0x80000644
       10215000	      1020	00000000	00000013	addi	x0,x0,0	  x0:0x00000000
       10225000	      1021	8000062c	00000013	addi	x0,x0,0	  x0:0x00000000
       10235000	      1022	80000630	01c000ef	jal	x1,80000630	  x1=0x80000630
       10245000	      1023	00000000	00000013	addi	x0,x0,0	  x0:0x00000000
       10255000	      1024	80000648	00000013	addi	x0,x0,0	  x0:0x00000000
       10265000	      1025	8000064c	fd9ff56f	jal	x10,8000064c	 x10=0x8000064c
       10275000	      1026	00000000	00000013	addi	x0,x0,0	  x0:0x00000000
       10285000	      1027	80000620	00000013	addi	x0,x0,0	  x0:0x00000000
       10295000	      1028	80000624	01800e6f	jal	x28,80000624	 x28=0x80000624
       10305000	      1029	00000000	00000013	addi	x0,x0,0	  x0:0x00000000
       10315000	      1030	80000638	00000013	addi	x0,x0,0	  x0:0x00000000
       10325000	      1031	8000063c	00c0026f	jal	x4,8000063c	  x4=0x8000063c
       10335000	      1032	00000000	00000013	addi	x0,x0,0	  x0:0x00000000
       10345000	      1033	80000644	00000013	addi	x0,x0,0	  x0:0x00000000
       10355000	      1034	80000648	ff1ff0ef	jal	x1,80000648	  x1=0x80000648
       10365000	      1035	00000000	00000013	addi	x0,x0,0	  x0:0x00000000
       10375000	      1036	80000634	00000013	addi	x0,x0,0	  x0:0x00000000
       10385000	      1037	80000638	ff5ff16f	jal	x2,80000638	  x2=0x80000638
       10395000	      1038	00000000	00000013	addi	x0,x0,0	  x0:0x00000000
       10405000	      1039	80000628	00000013	addi	x0,x0,0	  x0:0x00000000
       10415000	      1040	8000062c	024000ef	jal	x1,8000062c	  x1=0x8000062c
       10425000	      1041	00000000	00000013	addi	x0,x0,0	  x0:0x00000000
       10435000	      1042	8000064c	00000013	addi	x0,x0,0	  x0:0x00000000
       10445000	      1043	80000650	fd9ff36f	jal	x6,80000650	  x6=0x80000650
       10455000	      1044	00000000	00000013	addi	x0,x0,0	  x0:0x00000000
       10465000	      1045	80000624	00000013	addi	x0,x0,0	  x0:0x00000000
       10475000	      1046	80000628	02c0036f	jal	x6,80000628	  x6=0x80000628
       10485000	      1047	00000000	00000013	addi	x0,x0,0	  x0:0x00000000
       10495000	      1048	80000650	00000013	addi	x0,x0,0	  x0:0x00000000
       10505000	      1049	80000654	002078b3	and	x17,x0,x2	  x0:0x00000000  x2:0x80000638 x17=0x00000000
       10515000	      1050	80000658	0080036f	jal	x6,80000658	  x6=0x80000658
       10525000	      1051	00000000	00000013	addi	x0,x0,0	  x0:0x00000000
       10535000	      1052	8000065c	00000013	addi	x0,x0,0	  x0:0x00000000
       10545000	      1053	80000660	028000ef	jal	x1,80000660	  x1=0x80000660
       10555000	      1054	00000000	00000013	addi	x0,x0,0	  x0:0x00000000
       10565000	      1055	80000684	00000013	addi	x0,x0,0	  x0:0x00000000
       10575000	      1056	80000688	ff5ff0ef	jal	x1,80000688	  x1=0x80000688
       10585000	      1057	00000000	00000013	addi	x0,x0,0	  x0:0x00000000
       10595000	      1058	80000678	00000013	addi	x0,x0,0	  x0:0x00000000
       10605000	      1059	8000067c	ffdff56f	jal	x10,8000067c	 x10=0x8000067c
       10615000	      1060	00000000	00000013	addi	x0,x0,0	  x0:0x00000000
       10625000	      1061	80000674	00000013	addi	x0,x0,0	  x0:0x00000000
       10635000	      1062	80000678	02800bef	jal	x23,80000678	 x23=0x80000678
       10645000	      1063	00000000	00000013	addi	x0,x0,0	  x0:0x00000000
       10655000	      1064	8000069c	00000013	addi	x0,x0,0	  x0:0x00000000
       10665000	      1065	800006a0	fbdff0ef	jal	x1,800006a0	  x1=0x800006a0
       10675000	      1066	00000000	00000013	addi	x0,x0,0	  x0:0x00000000
       10685000	      1067	80000658	00000013	addi	x0,x0,0	  x0:0x00000000
       10695000	      1068	8000065c	0140036f	jal	x6,8000065c	  x6=0x8000065c
       10705000	      1069	00000000	00000013	addi	x0,x0,0	  x0:0x00000000
       10715000	      1070	8000066c	00000013	addi	x0,x0,0	  x0:0x00000000
       10725000	      1071	80000670	024008ef	jal	x17,80000670	 x17=0x80000670
       10735000	      1072	00000000	00000013	addi	x0,x0,0	  x0:0x00000000
       10745000	      1073	80000690	00000013	addi	x0,x0,0	  x0:0x00000000
       10755000	      1074	80000694	008000ef	jal	x1,80000694	  x1=0x80000694
       10765000	      1075	00000000	00000013	addi	x0,x0,0	  x0:0x00000000
       10775000	      1076	80000698	00000013	addi	x0,x0,0	  x0:0x00000000
       10785000	      1077	8000069c	ffdff0ef	jal	x1,8000069c	  x1=0x8000069c
       10795000	      1078	00000000	00000013	addi	x0,x0,0	  x0:0x00000000
       10805000	      1079	80000694	00000013	addi	x0,x0,0	  x0:0x00000000
       10815000	      1080	80000698	00c000ef	jal	x1,80000698	  x1=0x80000698
       10825000	      1081	00000000	00000013	addi	x0,x0,0	  x0:0x00000000
       10835000	      1082	800006a0	00000013	addi	x0,x0,0	  x0:0x00000000
       10845000	      1083	800006a4	fd1ff36f	jal	x6,800006a4	  x6=0x800006a4
       10855000	      1084	00000000	00000013	addi	x0,x0,0	  x0:0x00000000
       10865000	      1085	80000670	00000013	addi	x0,x0,0	  x0:0x00000000
       10875000	      1086	80000674	ff1ff0ef	jal	x1,80000674	  x1=0x80000674
       10885000	      1087	00000000	00000013	addi	x0,x0,0	  x0:0x00000000
       10895000	      1088	80000660	00000013	addi	x0,x0,0	  x0:0x00000000
       10905000	      1089	80000664	020000ef	jal	x1,80000664	  x1=0x80000664
       10915000	      1090	00000000	00000013	addi	x0,x0,0	  x0:0x00000000
       10925000	      1091	80000680	00000013	addi	x0,x0,0	  x0:0x00000000
       10935000	      1092	80000684	008000ef	jal	x1,80000684	  x1=0x80000684
       10945000	      1093	00000000	00000013	addi	x0,x0,0	  x0:0x00000000
       10955000	      1094	80000688	00000013	addi	x0,x0,0	  x0:0x00000000
       10965000	      1095	8000068c	020000ef	jal	x1,8000068c	  x1=0x8000068c
       10975000	      1096	00000000	00000013	addi	x0,x0,0	  x0:0x00000000
       10985000	      1097	800006a8	00000013	addi	x0,x0,0	  x0:0x00000000
       10995000	      1098	800006ac	fd5ff26f	jal	x4,800006ac	  x4=0x800006ac
       11005000	      1099	00000000	00000013	addi	x0,x0,0	  x0:0x00000000
       11015000	      1100	8000067c	00000013	addi	x0,x0,0	  x0:0x00000000
       11025000	      1101	80000680	0100036f	jal	x6,80000680	  x6=0x80000680
       11035000	      1102	00000000	00000013	addi	x0,x0,0	  x0:0x00000000
       11045000	      1103	8000068c	00000013	addi	x0,x0,0	  x0:0x00000000
       11055000	      1104	80000690	fddff1ef	jal	x3,80000690	  x3=0x80000690
       11065000	      1105	00000000	00000013	addi	x0,x0,0	  x0:0x00000000
       11075000	      1106	80000668	00000013	addi	x0,x0,0	  x0:0x00000000
       11085000	      1107	8000066c	ffdff0ef	jal	x1,8000066c	  x1=0x8000066c
       11095000	      1108	00000000	00000013	addi	x0,x0,0	  x0:0x00000000
       11105000	      1109	80000664	00000013	addi	x0,x0,0	  x0:0x00000000
       11115000	      1110	80000668	040001ef	jal	x3,80000668	  x3=0x80000668
       11125000	      1111	00000000	00000013	addi	x0,x0,0	  x0:0x00000000
       11135000	      1112	800006a4	00000013	addi	x0,x0,0	  x0:0x00000000
       11145000	      1113	800006a8	008000ef	jal	x1,800006a8	  x1=0x800006a8
       11155000	      1114	00000000	00000013	addi	x0,x0,0	  x0:0x00000000
       11165000	      1115	800006ac	00000013	addi	x0,x0,0	  x0:0x00000000
       11175000	      1116	800006b0	003d4d33	xor	x26,x26,x3	 x26:0x800005e0  x3:0x80000668 x26=0x00000388
       11185000	      1117	800006b4	0300036f	jal	x6,800006b4	  x6=0x800006b4
       11195000	      1118	00000000	00000013	addi	x0,x0,0	  x0:0x00000000
       11205000	      1119	800006e0	00000013	addi	x0,x0,0	  x0:0x00000000
       11215000	      1120	800006e4	01c000ef	jal	x1,800006e4	  x1=0x800006e4
       11225000	      1121	00000000	00000013	addi	x0,x0,0	  x0:0x00000000
       11235000	      1122	800006fc	00000013	addi	x0,x0,0	  x0:0x00000000
       11245000	      1123	80000700	fc1ff0ef	jal	x1,80000700	  x1=0x80000700
       11255000	      1124	00000000	00000013	addi	x0,x0,0	  x0:0x00000000
       11265000	      1125	800006bc	00000013	addi	x0,x0,0	  x0:0x00000000
       11275000	      1126	800006c0	038009ef	jal	x19,800006c0	 x19=0x800006c0
       11285000	      1127	00000000	00000013	addi	x0,x0,0	  x0:0x00000000
       11295000	      1128	800006f4	00000013	addi	x0,x0,0	  x0:0x00000000
       11305000	      1129	800006f8	fe9ffd6f	jal	x26,800006f8	 x26=0x800006f8
       11315000	      1130	00000000	00000013	addi	x0,x0,0	  x0:0x00000000
       11325000	      1131	800006dc	00000013	addi	x0,x0,0	  x0:0x00000000
       11335000	      1132	800006e0	008007ef	jal	x15,800006e0	 x15=0x800006e0
       11345000	      1133	00000000	00000013	addi	x0,x0,0	  x0:0x00000000
       11355000	      1134	800006e4	00000013	addi	x0,x0,0	  x0:0x00000000
       11365000	      1135	800006e8	0140036f	jal	x6,800006e8	  x6=0x800006e8
       11375000	      1136	00000000	00000013	addi	x0,x0,0	  x0:0x00000000
       11385000	      1137	800006f8	00000013	addi	x0,x0,0	  x0:0x00000000
       11395000	      1138	800006fc	ff5ff0ef	jal	x1,800006fc	  x1=0x800006fc
       11405000	      1139	00000000	00000013	addi	x0,x0,0	  x0:0x00000000
       11415000	      1140	800006ec	00000013	addi	x0,x0,0	  x0:0x00000000
       11425000	      1141	800006f0	fe1ff0ef	jal	x1,800006f0	  x1=0x800006f0
       11435000	      1142	00000000	00000013	addi	x0,x0,0	  x0:0x00000000
       11445000	      1143	800006cc	00000013	addi	x0,x0,0	  x0:0x00000000
       11455000	      1144	800006d0	ffdff0ef	jal	x1,800006d0	  x1=0x800006d0
       11465000	      1145	00000000	00000013	addi	x0,x0,0	  x0:0x00000000
       11475000	      1146	800006c8	00000013	addi	x0,x0,0	  x0:0x00000000
       11485000	      1147	800006cc	010000ef	jal	x1,800006cc	  x1=0x800006cc
       11495000	      1148	00000000	00000013	addi	x0,x0,0	  x0:0x00000000
       11505000	      1149	800006d8	00000013	addi	x0,x0,0	  x0:0x00000000
       11515000	      1150	800006dc	010000ef	jal	x1,800006dc	  x1=0x800006dc
       11525000	      1151	00000000	00000013	addi	x0,x0,0	  x0:0x00000000
       11535000	      1152	800006e8	00000013	addi	x0,x0,0	  x0:0x00000000
       11545000	      1153	800006ec	fd1ff0ef	jal	x1,800006ec	  x1=0x800006ec
       11555000	      1154	00000000	00000013	addi	x0,x0,0	  x0:0x00000000
       11565000	      1155	800006b8	00000013	addi	x0,x0,0	  x0:0x00000000
       11575000	      1156	800006bc	008009ef	jal	x19,800006bc	 x19=0x800006bc
       11585000	      1157	00000000	00000013	addi	x0,x0,0	  x0:0x00000000
       11595000	      1158	800006c0	00000013	addi	x0,x0,0	  x0:0x00000000
       11605000	      1159	800006c4	004000ef	jal	x1,800006c4	  x1=0x800006c4
       11615000	      1160	00000000	00000013	addi	x0,x0,0	  x0:0x00000000
       11625000	      1161	800006c4	00000013	addi	x0,x0,0	  x0:0x00000000
       11635000	      1162	800006c8	00c0066f	jal	x12,800006c8	 x12=0x800006c8
       11645000	      1163	00000000	00000013	addi	x0,x0,0	  x0:0x00000000
       11655000	      1164	800006d0	00000013	addi	x0,x0,0	  x0:0x00000000
       11665000	      1165	800006d4	020004ef	jal	x9,800006d4	  x9=0x800006d4
       11675000	      1166	00000000	00000013	addi	x0,x0,0	  x0:0x00000000
       11685000	      1167	800006f0	00000013	addi	x0,x0,0	  x0:0x00000000
       11695000	      1168	800006f4	fe5ff0ef	jal	x1,800006f4	  x1=0x800006f4
       11705000	      1169	00000000	00000013	addi	x0,x0,0	  x0:0x00000000
       11715000	      1170	800006d4	00000013	addi	x0,x0,0	  x0:0x00000000
       11725000	      1171	800006d8	fe1ff0ef	jal	x1,800006d8	  x1=0x800006d8
       11735000	      1172	00000000	00000013	addi	x0,x0,0	  x0:0x00000000
       11745000	      1173	800006b4	00000013	addi	x0,x0,0	  x0:0x00000000
       11755000	      1174	800006b8	04c00fef	jal	x31,800006b8	 x31=0x800006b8
       11765000	      1175	00000000	00000013	addi	x0,x0,0	  x0:0x00000000
       11775000	      1176	80000700	00000013	addi	x0,x0,0	  x0:0x00000000
       11785000	      1177	80000704	41870f33	sub	x30,x14,x24	 x14:0x80009fc4 x24:0x8000040c x30=0x00009bb8
       11795000	      1178	80000708	0080036f	jal	x6,80000708	  x6=0x80000708
       11805000	      1179	00000000	00000013	addi	x0,x0,0	  x0:0x00000000
       11815000	      1180	8000070c	00000013	addi	x0,x0,0	  x0:0x00000000
       11825000	      1181	80000710	02c0016f	jal	x2,80000710	  x2=0x80000710
       11835000	      1182	00000000	00000013	addi	x0,x0,0	  x0:0x00000000
       11845000	      1183	80000738	00000013	addi	x0,x0,0	  x0:0x00000000
       11855000	      1184	8000073c	fd9ff0ef	jal	x1,8000073c	  x1=0x8000073c
       11865000	      1185	00000000	00000013	addi	x0,x0,0	  x0:0x00000000
       11875000	      1186	80000710	00000013	addi	x0,x0,0	  x0:0x00000000
       11885000	      1187	80000714	0200026f	jal	x4,80000714	  x4=0x80000714
       11895000	      1188	00000000	00000013	addi	x0,x0,0	  x0:0x00000000
       11905000	      1189	80000730	00000013	addi	x0,x0,0	  x0:0x00000000
       11915000	      1190	80000734	ff9ff0ef	jal	x1,80000734	  x1=0x80000734
       11925000	      1191	00000000	00000013	addi	x0,x0,0	  x0:0x00000000
       11935000	      1192	80000728	00000013	addi	x0,x0,0	  x0:0x00000000
       11945000	      1193	8000072c	014000ef	jal	x1,8000072c	  x1=0x8000072c
       11955000	      1194	00000000	00000013	addi	x0,x0,0	  x0:0x00000000
       11965000	      1195	8000073c	00000013	addi	x0,x0,0	  x0:0x00000000
       11975000	      1196	80000740	004000ef	jal	x1,80000740	  x1=0x80000740
       11985000	      1197	00000000	00000013	addi	x0,x0,0	  x0:0x00000000
       11995000	      1198	80000740	00000013	addi	x0,x0,0	  x0:0x00000000
       12005000	      1199	80000744	fd5ff86f	jal	x16,80000744	 x16=0x80000744
       12015000	      1200	00000000	00000013	addi	x0,x0,0	  x0:0x00000000
       12025000	      1201	80000714	00000013	addi	x0,x0,0	  x0:0x00000000
       12035000	      1202	80000718	018000ef	jal	x1,80000718	  x1=0x80000718
       12045000	      1203	00000000	00000013	addi	x0,x0,0	  x0:0x00000000
       12055000	      1204	8000072c	00000013	addi	x0,x0,0	  x0:0x00000000
       12065000	      1205	80000730	ff1ff0ef	jal	x1,80000730	  x1=0x80000730
       12075000	      1206	00000000	00000013	addi	x0,x0,0	  x0:0x00000000
       12085000	      1207	8000071c	00000013	addi	x0,x0,0	  x0:0x00000000
       12095000	      1208	80000720	004000ef	jal	x1,80000720	  x1=0x80000720
       12105000	      1209	00000000	00000013	addi	x0,x0,0	  x0:0x00000000
       12115000	      1210	80000720	00000013	addi	x0,x0,0	  x0:0x00000000
       12125000	      1211	80000724	004000ef	jal	x1,80000724	  x1=0x80000724
       12135000	      1212	00000000	00000013	addi	x0,x0,0	  x0:0x00000000
       12145000	      1213	80000724	00000013	addi	x0,x0,0	  x0:0x00000000
       12155000	      1214	80000728	fe5ffd6f	jal	x26,80000728	 x26=0x80000728
       12165000	      1215	00000000	00000013	addi	x0,x0,0	  x0:0x00000000
       12175000	      1216	80000708	00000013	addi	x0,x0,0	  x0:0x00000000
       12185000	      1217	8000070c	01000aef	jal	x21,8000070c	 x21=0x8000070c
       12195000	      1218	00000000	00000013	addi	x0,x0,0	  x0:0x00000000
       12205000	      1219	80000718	00000013	addi	x0,x0,0	  x0:0x00000000
       12215000	      1220	8000071c	01c003ef	jal	x7,8000071c	  x7=0x8000071c
       12225000	      1221	00000000	00000013	addi	x0,x0,0	  x0:0x00000000
       12235000	      1222	80000734	00000013	addi	x0,x0,0	  x0:0x00000000
       12245000	      1223	80000738	010000ef	jal	x1,80000738	  x1=0x80000738
       12255000	      1224	00000000	00000013	addi	x0,x0,0	  x0:0x00000000
       12265000	      1225	80000744	00000013	addi	x0,x0,0	  x0:0x00000000
       12275000	      1226	80000748	41cf5b13	srai	x22,x30,0x1c	 x30:0x00009bb8 x22=0x00000000
       12285000	      1227	8000074c	0040036f	jal	x6,8000074c	  x6=0x8000074c
       12295000	      1228	00000000	00000013	addi	x0,x0,0	  x0:0x00000000
       12305000	      1229	8000074c	00000013	addi	x0,x0,0	  x0:0x00000000
       12315000	      1230	80000750	0280026f	jal	x4,80000750	  x4=0x80000750
       12325000	      1231	00000000	00000013	addi	x0,x0,0	  x0:0x00000000
       12335000	      1232	80000774	00000013	addi	x0,x0,0	  x0:0x00000000
       12345000	      1233	80000778	0300036f	jal	x6,80000778	  x6=0x80000778
       12355000	      1234	00000000	00000013	addi	x0,x0,0	  x0:0x00000000
       12365000	      1235	800007a4	00000013	addi	x0,x0,0	  x0:0x00000000
       12375000	      1236	800007a8	fb1ff66f	jal	x12,800007a8	 x12=0x800007a8
       12385000	      1237	00000000	00000013	addi	x0,x0,0	  x0:0x00000000
       12395000	      1238	80000754	00000013	addi	x0,x0,0	  x0:0x00000000
       12405000	      1239	80000758	01c0026f	jal	x4,80000758	  x4=0x80000758
       12415000	      1240	00000000	00000013	addi	x0,x0,0	  x0:0x00000000
       12425000	      1241	80000770	00000013	addi	x0,x0,0	  x0:0x00000000
       12435000	      1242	80000774	ffdff36f	jal	x6,80000774	  x6=0x80000774
       12445000	      1243	00000000	00000013	addi	x0,x0,0	  x0:0x00000000
       12455000	      1244	8000076c	00000013	addi	x0,x0,0	  x0:0x00000000
       12465000	      1245	80000770	ff9ff66f	jal	x12,80000770	 x12=0x80000770
       12475000	      1246	00000000	00000013	addi	x0,x0,0	  x0:0x00000000
       12485000	      1247	80000764	00000013	addi	x0,x0,0	  x0:0x00000000
       12495000	      1248	80000768	0240026f	jal	x4,80000768	  x4=0x80000768
       12505000	      1249	00000000	00000013	addi	x0,x0,0	  x0:0x00000000
       12515000	      1250	80000788	00000013	addi	x0,x0,0	  x0:0x00000000
       12525000	      1251	8000078c	0200026f	jal	x4,8000078c	  x4=0x8000078c
       12535000	      1252	00000000	00000013	addi	x0,x0,0	  x0:0x00000000
       12545000	      1253	800007a8	00000013	addi	x0,x0,0	  x0:0x00000000
       12555000	      1254	800007ac	fc1ff36f	jal	x6,800007ac	  x6=0x800007ac
       12565000	      1255	00000000	00000013	addi	x0,x0,0	  x0:0x00000000
       12575000	      1256	80000768	00000013	addi	x0,x0,0	  x0:0x00000000
       12585000	      1257	8000076c	ff5ff36f	jal	x6,8000076c	  x6=0x8000076c
       12595000	      1258	00000000	00000013	addi	x0,x0,0	  x0:0x00000000
       12605000	      1259	8000075c	00000013	addi	x0,x0,0	  x0:0x00000000
       12615000	      1260	80000760	0440036f	jal	x6,80000760	  x6=0x80000760
       12625000	      1261	00000000	00000013	addi	x0,x0,0	  x0:0x00000000
       12635000	      1262	800007a0	00000013	addi	x0,x0,0	  x0:0x00000000
       12645000	      1263	800007a4	fedff0ef	jal	x1,800007a4	  x1=0x800007a4
       12655000	      1264	00000000	00000013	addi	x0,x0,0	  x0:0x00000000
       12665000	      1265	8000078c	00000013	addi	x0,x0,0	  x0:0x00000000
       12675000	      1266	80000790	ff5ff0ef	jal	x1,80000790	  x1=0x80000790
       12685000	      1267	00000000	00000013	addi	x0,x0,0	  x0:0x00000000
       12695000	      1268	80000780	00000013	addi	x0,x0,0	  x0:0x00000000
       12705000	      1269	80000784	0180016f	jal	x2,80000784	  x2=0x80000784
       12715000	      1270	00000000	00000013	addi	x0,x0,0	  x0:0x00000000
       12725000	      1271	80000798	00000013	addi	x0,x0,0	  x0:0x00000000
       12735000	      1272	8000079c	fe5ff7ef	jal	x15,8000079c	 x15=0x8000079c
       12745000	      1273	00000000	00000013	addi	x0,x0,0	  x0:0x00000000
       12755000	      1274	8000077c	00000013	addi	x0,x0,0	  x0:0x00000000
       12765000	      1275	80000780	fddffeef	jal	x29,80000780	 x29=0x80000780
       12775000	      1276	00000000	00000013	addi	x0,x0,0	  x0:0x00000000
       12785000	      1277	80000758	00000013	addi	x0,x0,0	  x0:0x00000000
       12795000	      1278	8000075c	020000ef	jal	x1,8000075c	  x1=0x8000075c
       12805000	      1279	00000000	00000013	addi	x0,x0,0	  x0:0x00000000
       12815000	      1280	80000778	00000013	addi	x0,x0,0	  x0:0x00000000
       12825000	      1281	8000077c	018000ef	jal	x1,8000077c	  x1=0x8000077c
       12835000	      1282	00000000	00000013	addi	x0,x0,0	  x0:0x00000000
       12845000	      1283	80000790	00000013	addi	x0,x0,0	  x0:0x00000000
       12855000	      1284	80000794	ff5ff0ef	jal	x1,80000794	  x1=0x80000794
       12865000	      1285	00000000	00000013	addi	x0,x0,0	  x0:0x00000000
       12875000	      1286	80000784	00000013	addi	x0,x0,0	  x0:0x00000000
       12885000	      1287	80000788	fcdff36f	jal	x6,80000788	  x6=0x80000788
       12895000	      1288	00000000	00000013	addi	x0,x0,0	  x0:0x00000000
       12905000	      1289	80000750	00000013	addi	x0,x0,0	  x0:0x00000000
       12915000	      1290	80000754	010000ef	jal	x1,80000754	  x1=0x80000754
       12925000	      1291	00000000	00000013	addi	x0,x0,0	  x0:0x00000000
       12935000	      1292	80000760	00000013	addi	x0,x0,0	  x0:0x00000000
       12945000	      1293	80000764	0340086f	jal	x16,80000764	 x16=0x80000764
       12955000	      1294	00000000	00000013	addi	x0,x0,0	  x0:0x00000000
       12965000	      1295	80000794	00000013	addi	x0,x0,0	  x0:0x00000000
       12975000	      1296	80000798	0080036f	jal	x6,80000798	  x6=0x80000798
       12985000	      1297	00000000	00000013	addi	x0,x0,0	  x0:0x00000000
       12995000	      1298	8000079c	00000013	addi	x0,x0,0	  x0:0x00000000
       13005000	      1299	800007a0	010009ef	jal	x19,800007a0	 x19=0x800007a0
       13015000	      1300	00000000	00000013	addi	x0,x0,0	  x0:0x00000000
       13025000	      1301	800007ac	00000013	addi	x0,x0,0	  x0:0x00000000
       13035000	      1302	800007b0	47d23037	lui	x0,0x47d23	
       13045000	      1303	800007b4	0580036f	jal	x6,800007b4	  x6=0x800007b4
       13055000	      1304	00000000	00000013	addi	x0,x0,0	  x0:0x00000000
       13065000	      1305	80000808	00000013	addi	x0,x0,0	  x0:0x00000000
       13075000	      1306	8000080c	fe1ff36f	jal	x6,8000080c	  x6=0x8000080c
       13085000	      1307	00000000	00000013	addi	x0,x0,0	  x0:0x00000000
       13095000	      1308	800007e8	00000013	addi	x0,x0,0	  x0:0x00000000
       13105000	      1309	800007ec	fcdff0ef	jal	x1,800007ec	  x1=0x800007ec
       13115000	      1310	00000000	00000013	addi	x0,x0,0	  x0:0x00000000
       13125000	      1311	800007b4	00000013	addi	x0,x0,0	  x0:0x00000000
       13135000	      1312	800007b8	0300036f	jal	x6,800007b8	  x6=0x800007b8
       13145000	      1313	00000000	00000013	addi	x0,x0,0	  x0:0x00000000
       13155000	      1314	800007e4	00000013	addi	x0,x0,0	  x0:0x00000000
       13165000	      1315	800007e8	fd9ff0ef	jal	x1,800007e8	  x1=0x800007e8
       13175000	      1316	00000000	00000013	addi	x0,x0,0	  x0:0x00000000
       13185000	      1317	800007bc	00000013	addi	x0,x0,0	  x0:0x00000000
       13195000	      1318	800007c0	024000ef	jal	x1,800007c0	  x1=0x800007c0
       13205000	      1319	00000000	00000013	addi	x0,x0,0	  x0:0x00000000
       13215000	      1320	800007e0	00000013	addi	x0,x0,0	  x0:0x00000000
       13225000	      1321	800007e4	fedff0ef	jal	x1,800007e4	  x1=0x800007e4
       13235000	      1322	00000000	00000013	addi	x0,x0,0	  x0:0x00000000
       13245000	      1323	800007cc	00000013	addi	x0,x0,0	  x0:0x00000000
       13255000	      1324	800007d0	038000ef	jal	x1,800007d0	  x1=0x800007d0
       13265000	      1325	00000000	00000013	addi	x0,x0,0	  x0:0x00000000
       13275000	      1326	80000804	00000013	addi	x0,x0,0	  x0:0x00000000
       13285000	      1327	80000808	fd5ff36f	jal	x6,80000808	  x6=0x80000808
       13295000	      1328	00000000	00000013	addi	x0,x0,0	  x0:0x00000000
       13305000	      1329	800007d8	00000013	addi	x0,x0,0	  x0:0x00000000
       13315000	      1330	800007dc	ff9ff0ef	jal	x1,800007dc	  x1=0x800007dc
       13325000	      1331	00000000	00000013	addi	x0,x0,0	  x0:0x00000000
       13335000	      1332	800007d0	00000013	addi	x0,x0,0	  x0:0x00000000
       13345000	      1333	800007d4	0400036f	jal	x6,800007d4	  x6=0x800007d4
       13355000	      1334	00000000	00000013	addi	x0,x0,0	  x0:0x00000000
       13365000	      1335	80000810	00000013	addi	x0,x0,0	  x0:0x00000000
       13375000	      1336	80000814	fc5ff36f	jal	x6,80000814	  x6=0x80000814
       13385000	      1337	00000000	00000013	addi	x0,x0,0	  x0:0x00000000
       13395000	      1338	800007d4	00000013	addi	x0,x0,0	  x0:0x00000000
       13405000	      1339	800007d8	02400b6f	jal	x22,800007d8	 x22=0x800007d8
       13415000	      1340	00000000	00000013	addi	x0,x0,0	  x0:0x00000000
       13425000	      1341	800007f8	00000013	addi	x0,x0,0	  x0:0x00000000
       13435000	      1342	800007fc	fc9ff0ef	jal	x1,800007fc	  x1=0x800007fc
       13445000	      1343	00000000	00000013	addi	x0,x0,0	  x0:0x00000000
       13455000	      1344	800007c0	00000013	addi	x0,x0,0	  x0:0x00000000
       13465000	      1345	800007c4	030001ef	jal	x3,800007c4	  x3=0x800007c4
       13475000	      1346	00000000	00000013	addi	x0,x0,0	  x0:0x00000000
       13485000	      1347	800007f0	00000013	addi	x0,x0,0	  x0:0x00000000
       13495000	      1348	800007f4	fedffeef	jal	x29,800007f4	 x29=0x800007f4
       13505000	      1349	00000000	00000013	addi	x0,x0,0	  x0:0x00000000
       13515000	      1350	800007dc	00000013	addi	x0,x0,0	  x0:0x00000000
       13525000	      1351	800007e0	fedff0ef	jal	x1,800007e0	  x1=0x800007e0
       13535000	      1352	00000000	00000013	addi	x0,x0,0	  x0:0x00000000
       13545000	      1353	800007c8	00000013	addi	x0,x0,0	  x0:0x00000000
       13555000	      1354	800007cc	034000ef	jal	x1,800007cc	  x1=0x800007cc
       13565000	      1355	00000000	00000013	addi	x0,x0,0	  x0:0x00000000
       13575000	      1356	800007fc	00000013	addi	x0,x0,0	  x0:0x00000000
       13585000	      1357	80000800	fc9ff36f	jal	x6,80000800	  x6=0x80000800
       13595000	      1358	00000000	00000013	addi	x0,x0,0	  x0:0x00000000
       13605000	      1359	800007c4	00000013	addi	x0,x0,0	  x0:0x00000000
       13615000	      1360	800007c8	030000ef	jal	x1,800007c8	  x1=0x800007c8
       13625000	      1361	00000000	00000013	addi	x0,x0,0	  x0:0x00000000
       13635000	      1362	800007f4	00000013	addi	x0,x0,0	  x0:0x00000000
       13645000	      1363	800007f8	fc5ff0ef	jal	x1,800007f8	  x1=0x800007f8
       13655000	      1364	00000000	00000013	addi	x0,x0,0	  x0:0x00000000
       13665000	      1365	800007b8	00000013	addi	x0,x0,0	  x0:0x00000000
       13675000	      1366	800007bc	03400a6f	jal	x20,800007bc	 x20=0x800007bc
       13685000	      1367	00000000	00000013	addi	x0,x0,0	  x0:0x00000000
       13695000	      1368	800007ec	00000013	addi	x0,x0,0	  x0:0x00000000
       13705000	      1369	800007f0	020000ef	jal	x1,800007f0	  x1=0x800007f0
       13715000	      1370	00000000	00000013	addi	x0,x0,0	  x0:0x00000000
       13725000	      1371	8000080c	00000013	addi	x0,x0,0	  x0:0x00000000
       13735000	      1372	80000810	ff5ff0ef	jal	x1,80000810	  x1=0x80000810
       13745000	      1373	00000000	00000013	addi	x0,x0,0	  x0:0x00000000
       13755000	      1374	80000800	00000013	addi	x0,x0,0	  x0:0x00000000
       13765000	      1375	80000804	0140036f	jal	x6,80000804	  x6=0x80000804
       13775000	      1376	00000000	00000013	addi	x0,x0,0	  x0:0x00000000
       13785000	      1377	80000814	00000013	addi	x0,x0,0	  x0:0x00000000
       13795000	      1378	80000818	00741393	slli	x7,x8,0x7	  x8:0x80000400  x7=0x00020000
       13805000	      1379	8000081c	01c0036f	jal	x6,8000081c	  x6=0x8000081c
       13815000	      1380	00000000	00000013	addi	x0,x0,0	  x0:0x00000000
       13825000	      1381	80000834	00000013	addi	x0,x0,0	  x0:0x00000000
       13835000	      1382	80000838	fedff0ef	jal	x1,80000838	  x1=0x80000838
       13845000	      1383	00000000	00000013	addi	x0,x0,0	  x0:0x00000000
       13855000	      1384	80000820	00000013	addi	x0,x0,0	  x0:0x00000000
       13865000	      1385	80000824	01c000ef	jal	x1,80000824	  x1=0x80000824
       13875000	      1386	00000000	00000013	addi	x0,x0,0	  x0:0x00000000
       13885000	      1387	8000083c	00000013	addi	x0,x0,0	  x0:0x00000000
       13895000	      1388	80000840	fe9ff0ef	jal	x1,80000840	  x1=0x80000840
       13905000	      1389	00000000	00000013	addi	x0,x0,0	  x0:0x00000000
       13915000	      1390	80000824	00000013	addi	x0,x0,0	  x0:0x00000000
       13925000	      1391	80000828	014000ef	jal	x1,80000828	  x1=0x80000828
       13935000	      1392	00000000	00000013	addi	x0,x0,0	  x0:0x00000000
       13945000	      1393	80000838	00000013	addi	x0,x0,0	  x0:0x00000000
       13955000	      1394	8000083c	ff5ff36f	jal	x6,8000083c	  x6=0x8000083c
       13965000	      1395	00000000	00000013	addi	x0,x0,0	  x0:0x00000000
       13975000	      1396	8000082c	00000013	addi	x0,x0,0	  x0:0x00000000
       13985000	      1397	80000830	0040066f	jal	x12,80000830	 x12=0x80000830
       13995000	      1398	00000000	00000013	addi	x0,x0,0	  x0:0x00000000
       14005000	      1399	80000830	00000013	addi	x0,x0,0	  x0:0x00000000
       14015000	      1400	80000834	010008ef	jal	x17,80000834	 x17=0x80000834
       14025000	      1401	00000000	00000013	addi	x0,x0,0	  x0:0x00000000
       14035000	      1402	80000840	00000013	addi	x0,x0,0	  x0:0x00000000
       14045000	      1403	80000844	004000ef	jal	x1,80000844	  x1=0x80000844
       14055000	      1404	00000000	00000013	addi	x0,x0,0	  x0:0x00000000
       14065000	      1405	80000844	00000013	addi	x0,x0,0	  x0:0x00000000
       14075000	      1406	80000848	fe5ff36f	jal	x6,80000848	  x6=0x80000848
       14085000	      1407	00000000	00000013	addi	x0,x0,0	  x0:0x00000000
       14095000	      1408	80000828	00000013	addi	x0,x0,0	  x0:0x00000000
       14105000	      1409	8000082c	ff5ff66f	jal	x12,8000082c	 x12=0x8000082c
       14115000	      1410	00000000	00000013	addi	x0,x0,0	  x0:0x00000000
       14125000	      1411	8000081c	00000013	addi	x0,x0,0	  x0:0x00000000
       14135000	      1412	80000820	02c008ef	jal	x17,80000820	 x17=0x80000820
       14145000	      1413	00000000	00000013	addi	x0,x0,0	  x0:0x00000000
       14155000	      1414	80000848	00000013	addi	x0,x0,0	  x0:0x00000000
       14165000	      1415	8000084c	017b28b3	slt	x17,x22,x23	 x22:0x800007d8 x23:0x80000678 x17=0x00000000
       14175000	      1416	80000850	0140036f	jal	x6,80000850	  x6=0x80000850
       14185000	      1417	00000000	00000013	addi	x0,x0,0	  x0:0x00000000
       14195000	      1418	80000860	00000013	addi	x0,x0,0	  x0:0x00000000
       14205000	      1419	80000864	03c00def	jal	x27,80000864	 x27=0x80000864
       14215000	      1420	00000000	00000013	addi	x0,x0,0	  x0:0x00000000
       14225000	      1421	8000089c	00000013	addi	x0,x0,0	  x0:0x00000000
       14235000	      1422	800008a0	008001ef	jal	x3,800008a0	  x3=0x800008a0
       14245000	      1423	00000000	00000013	addi	x0,x0,0	  x0:0x00000000
       14255000	      1424	800008a4	00000013	addi	x0,x0,0	  x0:0x00000000
       14265000	      1425	800008a8	ffdff0ef	jal	x1,800008a8	  x1=0x800008a8
       14275000	      1426	00000000	00000013	addi	x0,x0,0	  x0:0x00000000
       14285000	      1427	800008a0	00000013	addi	x0,x0,0	  x0:0x00000000
       14295000	      1428	800008a4	fddff0ef	jal	x1,800008a4	  x1=0x800008a4
       14305000	      1429	00000000	00000013	addi	x0,x0,0	  x0:0x00000000
       14315000	      1430	8000087c	00000013	addi	x0,x0,0	  x0:0x00000000
       14325000	      1431	80000880	040000ef	jal	x1,80000880	  x1=0x80000880
       14335000	      1432	00000000	00000013	addi	x0,x0,0	  x0:0x00000000
       14345000	      1433	800008bc	00000013	addi	x0,x0,0	  x0:0x00000000
       14355000	      1434	800008c0	fd5ff96f	jal	x18,800008c0	 x18=0x800008c0
       14365000	      1435	00000000	00000013	addi	x0,x0,0	  x0:0x00000000
       14375000	      1436	80000890	00000013	addi	x0,x0,0	  x0:0x00000000
       14385000	      1437	80000894	0200016f	jal	x2,80000894	  x2=0x80000894
       14395000	      1438	00000000	00000013	addi	x0,x0,0	  x0:0x00000000
       14405000	      1439	800008b0	00000013	addi	x0,x0,0	  x0:0x00000000
       14415000	      1440	800008b4	fd5ff3ef	jal	x7,800008b4	  x7=0x800008b4
       14425000	      1441	00000000	00000013	addi	x0,x0,0	  x0:0x00000000
       14435000	      1442	80000884	00000013	addi	x0,x0,0	  x0:0x00000000
       14445000	      1443	80000888	ff1ff1ef	jal	x3,80000888	  x3=0x80000888
       14455000	      1444	00000000	00000013	addi	x0,x0,0	  x0:0x00000000
       14465000	      1445	80000874	00000013	addi	x0,x0,0	  x0:0x00000000
       14475000	      1446	80000878	014000ef	jal	x1,80000878	  x1=0x80000878
       14485000	      1447	00000000	00000013	addi	x0,x0,0	  x0:0x00000000
       14495000	      1448	80000888	00000013	addi	x0,x0,0	  x0:0x00000000
       14505000	      1449	8000088c	fddff0ef	jal	x1,8000088c	  x1=0x8000088c
       14515000	      1450	00000000	00000013	addi	x0,x0,0	  x0:0x00000000
       14525000	      1451	80000864	00000013	addi	x0,x0,0	  x0:0x00000000
       14535000	      1452	80000868	00c0036f	jal	x6,80000868	  x6=0x80000868
       14545000	      1453	00000000	00000013	addi	x0,x0,0	  x0:0x00000000
       14555000	      1454	80000870	00000013	addi	x0,x0,0	  x0:0x00000000
       14565000	      1455	80000874	028000ef	jal	x1,80000874	  x1=0x80000874
       14575000	      1456	00000000	00000013	addi	x0,x0,0	  x0:0x00000000
       14585000	      1457	80000898	00000013	addi	x0,x0,0	  x0:0x00000000
       14595000	      1458	8000089c	fe1ff36f	jal	x6,8000089c	  x6=0x8000089c
       14605000	      1459	00000000	00000013	addi	x0,x0,0	  x0:0x00000000
       14615000	      1460	80000878	00000013	addi	x0,x0,0	  x0:0x00000000
       14625000	      1461	8000087c	040000ef	jal	x1,8000087c	  x1=0x8000087c
       14635000	      1462	00000000	00000013	addi	x0,x0,0	  x0:0x00000000
       14645000	      1463	800008b8	00000013	addi	x0,x0,0	  x0:0x00000000
       14655000	      1464	800008bc	fc9ff0ef	jal	x1,800008bc	  x1=0x800008bc
       14665000	      1465	00000000	00000013	addi	x0,x0,0	  x0:0x00000000
       14675000	      1466	80000880	00000013	addi	x0,x0,0	  x0:0x00000000
       14685000	      1467	80000884	fddff0ef	jal	x1,80000884	  x1=0x80000884
       14695000	      1468	00000000	00000013	addi	x0,x0,0	  x0:0x00000000
       14705000	      1469	8000085c	00000013	addi	x0,x0,0	  x0:0x00000000
       14715000	      1470	80000860	05000e6f	jal	x28,80000860	 x28=0x80000860
       14725000	      1471	00000000	00000013	addi	x0,x0,0	  x0:0x00000000
       14735000	      1472	800008ac	00000013	addi	x0,x0,0	  x0:0x00000000
       14745000	      1473	800008b0	fc1ff0ef	jal	x1,800008b0	  x1=0x800008b0
       14755000	      1474	00000000	00000013	addi	x0,x0,0	  x0:0x00000000
       14765000	      1475	8000086c	00000013	addi	x0,x0,0	  x0:0x00000000
       14775000	      1476	80000870	0280046f	jal	x8,80000870	  x8=0x80000870
       14785000	      1477	00000000	00000013	addi	x0,x0,0	  x0:0x00000000
       14795000	      1478	80000894	00000013	addi	x0,x0,0	  x0:0x00000000
       14805000	      1479	80000898	fd5ff0ef	jal	x1,80000898	  x1=0x80000898
       14815000	      1480	00000000	00000013	addi	x0,x0,0	  x0:0x00000000
       14825000	      1481	80000868	00000013	addi	x0,x0,0	  x0:0x00000000
       14835000	      1482	8000086c	0400036f	jal	x6,8000086c	  x6=0x8000086c
       14845000	      1483	00000000	00000013	addi	x0,x0,0	  x0:0x00000000
       14855000	      1484	800008a8	00000013	addi	x0,x0,0	  x0:0x00000000
       14865000	      1485	800008ac	fadff0ef	jal	x1,800008ac	  x1=0x800008ac
       14875000	      1486	00000000	00000013	addi	x0,x0,0	  x0:0x00000000
       14885000	      1487	80000854	00000013	addi	x0,x0,0	  x0:0x00000000
       14895000	      1488	80000858	ffdff36f	jal	x6,80000858	  x6=0x80000858
       14905000	      1489	00000000	00000013	addi	x0,x0,0	  x0:0x00000000
       14915000	      1490	80000850	00000013	addi	x0,x0,0	  x0:0x00000000
       14925000	      1491	80000854	064001ef	jal	x3,80000854	  x3=0x80000854
       14935000	      1492	00000000	00000013	addi	x0,x0,0	  x0:0x00000000
       14945000	      1493	800008b4	00000013	addi	x0,x0,0	  x0:0x00000000
       14955000	      1494	800008b8	fa5ff36f	jal	x6,800008b8	  x6=0x800008b8
       14965000	      1495	00000000	00000013	addi	x0,x0,0	  x0:0x00000000
       14975000	      1496	80000858	00000013	addi	x0,x0,0	  x0:0x00000000
       14985000	      1497	8000085c	034000ef	jal	x1,8000085c	  x1=0x8000085c
       14995000	      1498	00000000	00000013	addi	x0,x0,0	  x0:0x00000000
       15005000	      1499	8000088c	00000013	addi	x0,x0,0	  x0:0x00000000
       15015000	      1500	80000890	034000ef	jal	x1,80000890	  x1=0x80000890
       15025000	      1501	00000000	00000013	addi	x0,x0,0	  x0:0x00000000
       15035000	      1502	800008c0	00000013	addi	x0,x0,0	  x0:0x00000000
       15045000	      1503	800008c4	40e7db13	srai	x22,x15,0xe	 x15:0x8000079c x22=0xfffe0000
       15055000	      1504	800008c8	0500036f	jal	x6,800008c8	  x6=0x800008c8
       15065000	      1505	00000000	00000013	addi	x0,x0,0	  x0:0x00000000
       15075000	      1506	80000914	00000013	addi	x0,x0,0	  x0:0x00000000
       15085000	      1507	80000918	008001ef	jal	x3,80000918	  x3=0x80000918
       15095000	      1508	00000000	00000013	addi	x0,x0,0	  x0:0x00000000
       15105000	      1509	8000091c	00000013	addi	x0,x0,0	  x0:0x00000000
       15115000	      1510	80000920	fddff0ef	jal	x1,80000920	  x1=0x80000920
       15125000	      1511	00000000	00000013	addi	x0,x0,0	  x0:0x00000000
       15135000	      1512	800008f8	00000013	addi	x0,x0,0	  x0:0x00000000
       15145000	      1513	800008fc	fe9ffd6f	jal	x26,800008fc	 x26=0x800008fc
       15155000	      1514	00000000	00000013	addi	x0,x0,0	  x0:0x00000000
       15165000	      1515	800008e0	00000013	addi	x0,x0,0	  x0:0x00000000
       15175000	      1516	800008e4	01c000ef	jal	x1,800008e4	  x1=0x800008e4
       15185000	      1517	00000000	00000013	addi	x0,x0,0	  x0:0x00000000
       15195000	      1518	800008fc	00000013	addi	x0,x0,0	  x0:0x00000000
       15205000	      1519	80000900	fd1ff0ef	jal	x1,80000900	  x1=0x80000900
       15215000	      1520	00000000	00000013	addi	x0,x0,0	  x0:0x00000000
       15225000	      1521	800008cc	00000013	addi	x0,x0,0	  x0:0x00000000
       15235000	      1522	800008d0	ffdff0ef	jal	x1,800008d0	  x1=0x800008d0
       15245000	      1523	00000000	00000013	addi	x0,x0,0	  x0:0x00000000
       15255000	      1524	800008c8	00000013	addi	x0,x0,0	  x0:0x00000000
       15265000	      1525	800008cc	02400eef	jal	x29,800008cc	 x29=0x800008cc
       15275000	      1526	00000000	00000013	addi	x0,x0,0	  x0:0x00000000
       15285000	      1527	800008ec	00000013	addi	x0,x0,0	  x0:0x00000000
       15295000	      1528	800008f0	018000ef	jal	x1,800008f0	  x1=0x800008f0
       15305000	      1529	00000000	00000013	addi	x0,x0,0	  x0:0x00000000
       15315000	      1530	80000904	00000013	addi	x0,x0,0	  x0:0x00000000
       15325000	      1531	80000908	fe5ff36f	jal	x6,80000908	  x6=0x80000908
       15335000	      1532	00000000	00000013	addi	x0,x0,0	  x0:0x00000000
       15345000	      1533	800008e8	00000013	addi	x0,x0,0	  x0:0x00000000
       15355000	      1534	800008ec	0240046f	jal	x8,800008ec	  x8=0x800008ec
       15365000	      1535	00000000	00000013	addi	x0,x0,0	  x0:0x00000000
       15375000	      1536	8000090c	00000013	addi	x0,x0,0	  x0:0x00000000
       15385000	      1537	80000910	fc9ff0ef	jal	x1,80000910	  x1=0x80000910
       15395000	      1538	00000000	00000013	addi	x0,x0,0	  x0:0x00000000
       15405000	      1539	800008d4	00000013	addi	x0,x0,0	  x0:0x00000000
       15415000	      1540	800008d8	044001ef	jal	x3,800008d8	  x3=0x800008d8
       15425000	      1541	00000000	00000013	addi	x0,x0,0	  x0:0x00000000
       15435000	      1542	80000918	00000013	addi	x0,x0,0	  x0:0x00000000
       15445000	      1543	8000091c	fc5ff86f	jal	x16,8000091c	 x16=0x8000091c
       15455000	      1544	00000000	00000013	addi	x0,x0,0	  x0:0x00000000
       15465000	      1545	800008dc	00000013	addi	x0,x0,0	  x0:0x00000000
       15475000	      1546	800008e0	014000ef	jal	x1,800008e0	  x1=0x800008e0
       15485000	      1547	00000000	00000013	addi	x0,x0,0	  x0:0x00000000
       15495000	      1548	800008f0	00000013	addi	x0,x0,0	  x0:0x00000000
       15505000	      1549	800008f4	020000ef	jal	x1,800008f4	  x1=0x800008f4
       15515000	      1550	00000000	00000013	addi	x0,x0,0	  x0:0x00000000
       15525000	      1551	80000910	00000013	addi	x0,x0,0	  x0:0x00000000
       15535000	      1552	80000914	fe5ff0ef	jal	x1,80000914	  x1=0x80000914
       15545000	      1553	00000000	00000013	addi	x0,x0,0	  x0:0x00000000
       15555000	      1554	800008f4	00000013	addi	x0,x0,0	  x0:0x00000000
       15565000	      1555	800008f8	0140036f	jal	x6,800008f8	  x6=0x800008f8
       15575000	      1556	00000000	00000013	addi	x0,x0,0	  x0:0x00000000
       15585000	      1557	80000908	00000013	addi	x0,x0,0	  x0:0x00000000
       15595000	      1558	8000090c	ff9ff0ef	jal	x1,8000090c	  x1=0x8000090c
       15605000	      1559	00000000	00000013	addi	x0,x0,0	  x0:0x00000000
       15615000	      1560	80000900	00000013	addi	x0,x0,0	  x0:0x00000000
       15625000	      1561	80000904	fd1ff0ef	jal	x1,80000904	  x1=0x80000904
       15635000	      1562	00000000	00000013	addi	x0,x0,0	  x0:0x00000000
       15645000	      1563	800008d0	00000013	addi	x0,x0,0	  x0:0x00000000
       15655000	      1564	800008d4	008000ef	jal	x1,800008d4	  x1=0x800008d4
       15665000	      1565	00000000	00000013	addi	x0,x0,0	  x0:0x00000000
       15675000	      1566	800008d8	00000013	addi	x0,x0,0	  x0:0x00000000
       15685000	      1567	800008dc	04800e6f	jal	x28,800008dc	 x28=0x800008dc
       15695000	      1568	00000000	00000013	addi	x0,x0,0	  x0:0x00000000
       15705000	      1569	80000920	00000013	addi	x0,x0,0	  x0:0x00000000
       15715000	      1570	80000924	fc5ff1ef	jal	x3,80000924	  x3=0x80000924
       15725000	      1571	00000000	00000013	addi	x0,x0,0	  x0:0x00000000
       15735000	      1572	800008e4	00000013	addi	x0,x0,0	  x0:0x00000000
       15745000	      1573	800008e8	0400016f	jal	x2,800008e8	  x2=0x800008e8
       15755000	      1574	00000000	00000013	addi	x0,x0,0	  x0:0x00000000
       15765000	      1575	80000924	00000013	addi	x0,x0,0	  x0:0x00000000
       15775000	      1576	80000928	015de633	or	x12,x27,x21	 x27:0x80000864 x21:0x8000070c x12=0x80000f6c
       15785000	      1577	8000092c	0600036f	jal	x6,8000092c	  x6=0x8000092c
       15795000	      1578	00000000	00000013	addi	x0,x0,0	  x0:0x00000000
       15805000	      1579	80000988	00000013	addi	x0,x0,0	  x0:0x00000000
       15815000	      1580	8000098c	fb1ff0ef	jal	x1,8000098c	  x1=0x8000098c
       15825000	      1581	00000000	00000013	addi	x0,x0,0	  x0:0x00000000
       15835000	      1582	80000938	00000013	addi	x0,x0,0	  x0:0x00000000
       15845000	      1583	8000093c	ffdff36f	jal	x6,8000093c	  x6=0x8000093c
       15855000	      1584	00000000	00000013	addi	x0,x0,0	  x0:0x00000000
       15865000	      1585	80000934	00000013	addi	x0,x0,0	  x0:0x00000000
       15875000	      1586	80000938	01c000ef	jal	x1,80000938	  x1=0x80000938
       15885000	      1587	00000000	00000013	addi	x0,x0,0	  x0:0x00000000
       15895000	      1588	80000950	00000013	addi	x0,x0,0	  x0:0x00000000
       15905000	      1589	80000954	fddff36f	jal	x6,80000954	  x6=0x80000954
       15915000	      1590	00000000	00000013	addi	x0,x0,0	  x0:0x00000000
       15925000	      1591	8000092c	00000013	addi	x0,x0,0	  x0:0x00000000
       15935000	      1592	80000930	03c0036f	jal	x6,80000930	  x6=0x80000930
       15945000	      1593	00000000	00000013	addi	x0,x0,0	  x0:0x00000000
       15955000	      1594	80000968	00000013	addi	x0,x0,0	  x0:0x00000000
       15965000	      1595	8000096c	fddff36f	jal	x6,8000096c	  x6=0x8000096c
       15975000	      1596	00000000	00000013	addi	x0,x0,0	  x0:0x00000000
       15985000	      1597	80000944	00000013	addi	x0,x0,0	  x0:0x00000000
       15995000	      1598	80000948	01c000ef	jal	x1,80000948	  x1=0x80000948
       16005000	      1599	00000000	00000013	addi	x0,x0,0	  x0:0x00000000
       16015000	      1600	80000960	00000013	addi	x0,x0,0	  x0:0x00000000
       16025000	      1601	80000964	004000ef	jal	x1,80000964	  x1=0x80000964
       16035000	      1602	00000000	00000013	addi	x0,x0,0	  x0:0x00000000
       16045000	      1603	80000964	00000013	addi	x0,x0,0	  x0:0x00000000
       16055000	      1604	80000968	010000ef	jal	x1,80000968	  x1=0x80000968
       16065000	      1605	00000000	00000013	addi	x0,x0,0	  x0:0x00000000
       16075000	      1606	80000974	00000013	addi	x0,x0,0	  x0:0x00000000
       16085000	      1607	80000978	fd9ff0ef	jal	x1,80000978	  x1=0x80000978
       16095000	      1608	00000000	00000013	addi	x0,x0,0	  x0:0x00000000
       16105000	      1609	8000094c	00000013	addi	x0,x0,0	  x0:0x00000000
       16115000	      1610	80000950	008000ef	jal	x1,80000950	  x1=0x80000950
       16125000	      1611	00000000	00000013	addi	x0,x0,0	  x0:0x00000000
       16135000	      1612	80000954	00000013	addi	x0,x0,0	  x0:0x00000000
       16145000	      1613	80000958	fedff0ef	jal	x1,80000958	  x1=0x80000958
       16155000	      1614	00000000	00000013	addi	x0,x0,0	  x0:0x00000000
       16165000	      1615	80000940	00000013	addi	x0,x0,0	  x0:0x00000000
       16175000	      1616	80000944	0300036f	jal	x6,80000944	  x6=0x80000944
       16185000	      1617	00000000	00000013	addi	x0,x0,0	  x0:0x00000000
       16195000	      1618	80000970	00000013	addi	x0,x0,0	  x0:0x00000000
       16205000	      1619	80000974	014000ef	jal	x1,80000974	  x1=0x80000974
       16215000	      1620	00000000	00000013	addi	x0,x0,0	  x0:0x00000000
       16225000	      1621	80000984	00000013	addi	x0,x0,0	  x0:0x00000000
       16235000	      1622	80000988	ff5ff0ef	jal	x1,80000988	  x1=0x80000988
       16245000	      1623	00000000	00000013	addi	x0,x0,0	  x0:0x00000000
       16255000	      1624	80000978	00000013	addi	x0,x0,0	  x0:0x00000000
       16265000	      1625	8000097c	00800eef	jal	x29,8000097c	 x29=0x8000097c
       16275000	      1626	00000000	00000013	addi	x0,x0,0	  x0:0x00000000
       16285000	      1627	80000980	00000013	addi	x0,x0,0	  x0:0x00000000
       16295000	      1628	80000984	fb1ff36f	jal	x6,80000984	  x6=0x80000984
       16305000	      1629	00000000	00000013	addi	x0,x0,0	  x0:0x00000000
       16315000	      1630	80000930	00000013	addi	x0,x0,0	  x0:0x00000000
       16325000	      1631	80000934	018000ef	jal	x1,80000934	  x1=0x80000934
       16335000	      1632	00000000	00000013	addi	x0,x0,0	  x0:0x00000000
       16345000	      1633	80000948	00000013	addi	x0,x0,0	  x0:0x00000000
       16355000	      1634	8000094c	ff5ff0ef	jal	x1,8000094c	  x1=0x8000094c
       16365000	      1635	00000000	00000013	addi	x0,x0,0	  x0:0x00000000
       16375000	      1636	8000093c	00000013	addi	x0,x0,0	  x0:0x00000000
       16385000	      1637	80000940	030000ef	jal	x1,80000940	  x1=0x80000940
       16395000	      1638	00000000	00000013	addi	x0,x0,0	  x0:0x00000000
       16405000	      1639	8000096c	00000013	addi	x0,x0,0	  x0:0x00000000
       16415000	      1640	80000970	ff1ff8ef	jal	x17,80000970	 x17=0x80000970
       16425000	      1641	00000000	00000013	addi	x0,x0,0	  x0:0x00000000
       16435000	      1642	8000095c	00000013	addi	x0,x0,0	  x0:0x00000000
       16445000	      1643	80000960	0200026f	jal	x4,80000960	  x4=0x80000960
       16455000	      1644	00000000	00000013	addi	x0,x0,0	  x0:0x00000000
       16465000	      1645	8000097c	00000013	addi	x0,x0,0	  x0:0x00000000
       16475000	      1646	80000980	fddff0ef	jal	x1,80000980	  x1=0x80000980
       16485000	      1647	00000000	00000013	addi	x0,x0,0	  x0:0x00000000
       16495000	      1648	80000958	00000013	addi	x0,x0,0	  x0:0x00000000
       16505000	      1649	8000095c	034000ef	jal	x1,8000095c	  x1=0x8000095c
       16515000	      1650	00000000	00000013	addi	x0,x0,0	  x0:0x00000000
       16525000	      1651	8000098c	00000013	addi	x0,x0,0	  x0:0x00000000
       16535000	      1652	80000990	017841b3	xor	x3,x16,x23	 x16:0x8000091c x23:0x80000678  x3=0x00000f64
       16545000	      1653	80000994	0040036f	jal	x6,80000994	  x6=0x80000994
       16555000	      1654	00000000	00000013	addi	x0,x0,0	  x0:0x00000000
       16565000	      1655	80000994	00000013	addi	x0,x0,0	  x0:0x00000000
       16575000	      1656	80000998	02800bef	jal	x23,80000998	 x23=0x80000998
       16585000	      1657	00000000	00000013	addi	x0,x0,0	  x0:0x00000000
       16595000	      1658	800009bc	00000013	addi	x0,x0,0	  x0:0x00000000
       16605000	      1659	800009c0	ff9ff36f	jal	x6,800009c0	  x6=0x800009c0
       16615000	      1660	00000000	00000013	addi	x0,x0,0	  x0:0x00000000
       16625000	      1661	800009b4	00000013	addi	x0,x0,0	  x0:0x00000000
       16635000	      1662	800009b8	ff5ff36f	jal	x6,800009b8	  x6=0x800009b8
       16645000	      1663	00000000	00000013	addi	x0,x0,0	  x0:0x00000000
       16655000	      1664	800009a8	00000013	addi	x0,x0,0	  x0:0x00000000
       16665000	      1665	800009ac	01000aef	jal	x21,800009ac	 x21=0x800009ac
       16675000	      1666	00000000	00000013	addi	x0,x0,0	  x0:0x00000000
       16685000	      1667	800009b8	00000013	addi	x0,x0,0	  x0:0x00000000
       16695000	      1668	800009bc	018000ef	jal	x1,800009bc	  x1=0x800009bc
       16705000	      1669	00000000	00000013	addi	x0,x0,0	  x0:0x00000000
       16715000	      1670	800009d0	00000013	addi	x0,x0,0	  x0:0x00000000
       16725000	      1671	800009d4	fd5ff0ef	jal	x1,800009d4	  x1=0x800009d4
       16735000	      1672	00000000	00000013	addi	x0,x0,0	  x0:0x00000000
       16745000	      1673	800009a4	00000013	addi	x0,x0,0	  x0:0x00000000
       16755000	      1674	800009a8	01c0036f	jal	x6,800009a8	  x6=0x800009a8
       16765000	      1675	00000000	00000013	addi	x0,x0,0	  x0:0x00000000
       16775000	      1676	800009c0	00000013	addi	x0,x0,0	  x0:0x00000000
       16785000	      1677	800009c4	ff1ff26f	jal	x4,800009c4	  x4=0x800009c4
       16795000	      1678	00000000	00000013	addi	x0,x0,0	  x0:0x00000000
       16805000	      1679	800009b0	00000013	addi	x0,x0,0	  x0:0x00000000
       16815000	      1680	800009b4	024000ef	jal	x1,800009b4	  x1=0x800009b4
       16825000	      1681	00000000	00000013	addi	x0,x0,0	  x0:0x00000000
       16835000	      1682	800009d4	00000013	addi	x0,x0,0	  x0:0x00000000
       16845000	      1683	800009d8	ff1ffbef	jal	x23,800009d8	 x23=0x800009d8
       16855000	      1684	00000000	00000013	addi	x0,x0,0	  x0:0x00000000
       16865000	      1685	800009c4	00000013	addi	x0,x0,0	  x0:0x00000000
       16875000	      1686	800009c8	008009ef	jal	x19,800009c8	 x19=0x800009c8
       16885000	      1687	00000000	00000013	addi	x0,x0,0	  x0:0x00000000
       16895000	      1688	800009cc	00000013	addi	x0,x0,0	  x0:0x00000000
       16905000	      1689	800009d0	fcdff0ef	jal	x1,800009d0	  x1=0x800009d0
       16915000	      1690	00000000	00000013	addi	x0,x0,0	  x0:0x00000000
       16925000	      1691	80000998	00000013	addi	x0,x0,0	  x0:0x00000000
       16935000	      1692	8000099c	004000ef	jal	x1,8000099c	  x1=0x8000099c
       16945000	      1693	00000000	00000013	addi	x0,x0,0	  x0:0x00000000
       16955000	      1694	8000099c	00000013	addi	x0,x0,0	  x0:0x00000000
       16965000	      1695	800009a0	02c000ef	jal	x1,800009a0	  x1=0x800009a0
       16975000	      1696	00000000	00000013	addi	x0,x0,0	  x0:0x00000000
       16985000	      1697	800009c8	00000013	addi	x0,x0,0	  x0:0x00000000
       16995000	      1698	800009cc	fd9ff0ef	jal	x1,800009cc	  x1=0x800009cc
       17005000	      1699	00000000	00000013	addi	x0,x0,0	  x0:0x00000000
       17015000	      1700	800009a0	00000013	addi	x0,x0,0	  x0:0x00000000
       17025000	      1701	800009a4	00c000ef	jal	x1,800009a4	  x1=0x800009a4
       17035000	      1702	00000000	00000013	addi	x0,x0,0	  x0:0x00000000
       17045000	      1703	800009ac	00000013	addi	x0,x0,0	  x0:0x00000000
       17055000	      1704	800009b0	02c0036f	jal	x6,800009b0	  x6=0x800009b0
       17065000	      1705	00000000	00000013	addi	x0,x0,0	  x0:0x00000000
       17075000	      1706	800009d8	00000013	addi	x0,x0,0	  x0:0x00000000
       17085000	      1707	800009dc	009c0493	addi	x9,x24,9	 x24:0x8000040c  x9=0x80000415
       17095000	      1708	800009e0	0440036f	jal	x6,800009e0	  x6=0x800009e0
       17105000	      1709	00000000	00000013	addi	x0,x0,0	  x0:0x00000000
       17115000	      1710	80000a20	00000013	addi	x0,x0,0	  x0:0x00000000
       17125000	      1711	80000a24	fe9ffaef	jal	x21,80000a24	 x21=0x80000a24
       17135000	      1712	00000000	00000013	addi	x0,x0,0	  x0:0x00000000
       17145000	      1713	80000a08	00000013	addi	x0,x0,0	  x0:0x00000000
       17155000	      1714	80000a0c	fe1ff0ef	jal	x1,80000a0c	  x1=0x80000a0c
       17165000	      1715	00000000	00000013	addi	x0,x0,0	  x0:0x00000000
       17175000	      1716	800009e8	00000013	addi	x0,x0,0	  x0:0x00000000
       17185000	      1717	800009ec	03c000ef	jal	x1,800009ec	  x1=0x800009ec
       17195000	      1718	00000000	00000013	addi	x0,x0,0	  x0:0x00000000
       17205000	      1719	80000a24	00000013	addi	x0,x0,0	  x0:0x00000000
       17215000	      1720	80000a28	0040036f	jal	x6,80000a28	  x6=0x80000a28
       17225000	      1721	00000000	00000013	addi	x0,x0,0	  x0:0x00000000
       17235000	      1722	80000a28	00000013	addi	x0,x0,0	  x0:0x00000000
       17245000	      1723	80000a2c	fd9ff0ef	jal	x1,80000a2c	  x1=0x80000a2c
       17255000	      1724	00000000	00000013	addi	x0,x0,0	  x0:0x00000000
       17265000	      1725	80000a00	00000013	addi	x0,x0,0	  x0:0x00000000
       17275000	      1726	80000a04	ff9ff9ef	jal	x19,80000a04	 x19=0x80000a04
       17285000	      1727	00000000	00000013	addi	x0,x0,0	  x0:0x00000000
       17295000	      1728	800009f8	00000013	addi	x0,x0,0	  x0:0x00000000
       17305000	      1729	800009fc	0140036f	jal	x6,800009fc	  x6=0x800009fc
       17315000	      1730	00000000	00000013	addi	x0,x0,0	  x0:0x00000000
       17325000	      1731	80000a0c	00000013	addi	x0,x0,0	  x0:0x00000000
       17335000	      1732	80000a10	0100036f	jal	x6,80000a10	  x6=0x80000a10
       17345000	      1733	00000000	00000013	addi	x0,x0,0	  x0:0x00000000
       17355000	      1734	80000a1c	00000013	addi	x0,x0,0	  x0:0x00000000
       17365000	      1735	80000a20	fe1ff1ef	jal	x3,80000a20	  x3=0x80000a20
       17375000	      1736	00000000	00000013	addi	x0,x0,0	  x0:0x00000000
       17385000	      1737	800009fc	00000013	addi	x0,x0,0	  x0:0x00000000
       17395000	      1738	80000a00	fe5ff0ef	jal	x1,80000a00	  x1=0x80000a00
       17405000	      1739	00000000	00000013	addi	x0,x0,0	  x0:0x00000000
       17415000	      1740	800009e0	00000013	addi	x0,x0,0	  x0:0x00000000
       17425000	      1741	800009e4	010000ef	jal	x1,800009e4	  x1=0x800009e4
       17435000	      1742	00000000	00000013	addi	x0,x0,0	  x0:0x00000000
       17445000	      1743	800009f0	00000013	addi	x0,x0,0	  x0:0x00000000
       17455000	      1744	800009f4	ffdff0ef	jal	x1,800009f4	  x1=0x800009f4
       17465000	      1745	00000000	00000013	addi	x0,x0,0	  x0:0x00000000
       17475000	      1746	800009ec	00000013	addi	x0,x0,0	  x0:0x00000000
       17485000	      1747	800009f0	024001ef	jal	x3,800009f0	  x3=0x800009f0
       17495000	      1748	00000000	00000013	addi	x0,x0,0	  x0:0x00000000
       17505000	      1749	80000a10	00000013	addi	x0,x0,0	  x0:0x00000000
       17515000	      1750	80000a14	008000ef	jal	x1,80000a14	  x1=0x80000a14
       17525000	      1751	00000000	00000013	addi	x0,x0,0	  x0:0x00000000
       17535000	      1752	80000a18	00000013	addi	x0,x0,0	  x0:0x00000000
       17545000	      1753	80000a1c	fedff16f	jal	x2,80000a1c	  x2=0x80000a1c
       17555000	      1754	00000000	00000013	addi	x0,x0,0	  x0:0x00000000
       17565000	      1755	80000a04	00000013	addi	x0,x0,0	  x0:0x00000000
       17575000	      1756	80000a08	ff1ff0ef	jal	x1,80000a08	  x1=0x80000a08
       17585000	      1757	00000000	00000013	addi	x0,x0,0	  x0:0x00000000
       17595000	      1758	800009f4	00000013	addi	x0,x0,0	  x0:0x00000000
       17605000	      1759	800009f8	020000ef	jal	x1,800009f8	  x1=0x800009f8
       17615000	      1760	00000000	00000013	addi	x0,x0,0	  x0:0x00000000
       17625000	      1761	80000a14	00000013	addi	x0,x0,0	  x0:0x00000000
       17635000	      1762	80000a18	fd1ff0ef	jal	x1,80000a18	  x1=0x80000a18
       17645000	      1763	00000000	00000013	addi	x0,x0,0	  x0:0x00000000
       17655000	      1764	800009e4	00000013	addi	x0,x0,0	  x0:0x00000000
       17665000	      1765	800009e8	048000ef	jal	x1,800009e8	  x1=0x800009e8
       17675000	      1766	00000000	00000013	addi	x0,x0,0	  x0:0x00000000
       17685000	      1767	80000a2c	00000013	addi	x0,x0,0	  x0:0x00000000
       17695000	      1768	80000a30	c3ba0797	auipc	x15,0xc3ba0	 x15=0x43ba0a2c
       17705000	      1769	80000a34	00c0036f	jal	x6,80000a34	  x6=0x80000a34
       17715000	      1770	00000000	00000013	addi	x0,x0,0	  x0:0x00000000
       17725000	      1771	80000a3c	00000013	addi	x0,x0,0	  x0:0x00000000
       17735000	      1772	80000a40	018000ef	jal	x1,80000a40	  x1=0x80000a40
       17745000	      1773	00000000	00000013	addi	x0,x0,0	  x0:0x00000000
       17755000	      1774	80000a54	00000013	addi	x0,x0,0	  x0:0x00000000
       17765000	      1775	80000a58	00400a6f	jal	x20,80000a58	 x20=0x80000a58
       17775000	      1776	00000000	00000013	addi	x0,x0,0	  x0:0x00000000
       17785000	      1777	80000a58	00000013	addi	x0,x0,0	  x0:0x00000000
       17795000	      1778	80000a5c	fedff36f	jal	x6,80000a5c	  x6=0x80000a5c
       17805000	      1779	00000000	00000013	addi	x0,x0,0	  x0:0x00000000
       17815000	      1780	80000a44	00000013	addi	x0,x0,0	  x0:0x00000000
       17825000	      1781	80000a48	00800d6f	jal	x26,80000a48	 x26=0x80000a48
       17835000	      1782	00000000	00000013	addi	x0,x0,0	  x0:0x00000000
       17845000	      1783	80000a4c	00000013	addi	x0,x0,0	  x0:0x00000000
       17855000	      1784	80000a50	fe9ff0ef	jal	x1,80000a50	  x1=0x80000a50
       17865000	      1785	00000000	00000013	addi	x0,x0,0	  x0:0x00000000
       17875000	      1786	80000a34	00000013	addi	x0,x0,0	  x0:0x00000000
       17885000	      1787	80000a38	0140046f	jal	x8,80000a38	  x8=0x80000a38
       17895000	      1788	00000000	00000013	addi	x0,x0,0	  x0:0x00000000
       17905000	      1789	80000a48	00000013	addi	x0,x0,0	  x0:0x00000000
       17915000	      1790	80000a4c	ff1ff36f	jal	x6,80000a4c	  x6=0x80000a4c
       17925000	      1791	00000000	00000013	addi	x0,x0,0	  x0:0x00000000
       17935000	      1792	80000a38	00000013	addi	x0,x0,0	  x0:0x00000000
       17945000	      1793	80000a3c	0180036f	jal	x6,80000a3c	  x6=0x80000a3c
       17955000	      1794	00000000	00000013	addi	x0,x0,0	  x0:0x00000000
       17965000	      1795	80000a50	00000013	addi	x0,x0,0	  x0:0x00000000
       17975000	      1796	80000a54	00c0046f	jal	x8,80000a54	  x8=0x80000a54
       17985000	      1797	00000000	00000013	addi	x0,x0,0	  x0:0x00000000
       17995000	      1798	80000a5c	00000013	addi	x0,x0,0	  x0:0x00000000
       18005000	      1799	80000a60	fe5ff0ef	jal	x1,80000a60	  x1=0x80000a60
       18015000	      1800	00000000	00000013	addi	x0,x0,0	  x0:0x00000000
       18025000	      1801	80000a40	00000013	addi	x0,x0,0	  x0:0x00000000
       18035000	      1802	80000a44	020000ef	jal	x1,80000a44	  x1=0x80000a44
       18045000	      1803	00000000	00000013	addi	x0,x0,0	  x0:0x00000000
       18055000	      1804	80000a60	00000013	addi	x0,x0,0	  x0:0x00000000
       18065000	      1805	80000a64	01c7e833	or	x16,x15,x28	 x15:0x43ba0a2c x28:0x800008dc x16=0xc3ba0afc
       18075000	      1806	80000a68	0400036f	jal	x6,80000a68	  x6=0x80000a68
       18085000	      1807	00000000	00000013	addi	x0,x0,0	  x0:0x00000000
       18095000	      1808	80000aa4	00000013	addi	x0,x0,0	  x0:0x00000000
       18105000	      1809	80000aa8	ff1ff0ef	jal	x1,80000aa8	  x1=0x80000aa8
       18115000	      1810	00000000	00000013	addi	x0,x0,0	  x0:0x00000000
       18125000	      1811	80000a94	00000013	addi	x0,x0,0	  x0:0x00000000
       18135000	      1812	80000a98	fe1ff0ef	jal	x1,80000a98	  x1=0x80000a98
       18145000	      1813	00000000	00000013	addi	x0,x0,0	  x0:0x00000000
       18155000	      1814	80000a74	00000013	addi	x0,x0,0	  x0:0x00000000
       18165000	      1815	80000a78	03c000ef	jal	x1,80000a78	  x1=0x80000a78
       18175000	      1816	00000000	00000013	addi	x0,x0,0	  x0:0x00000000
       18185000	      1817	80000ab0	00000013	addi	x0,x0,0	  x0:0x00000000
       18195000	      1818	80000ab4	ff1ffcef	jal	x25,80000ab4	 x25=0x80000ab4
       18205000	      1819	00000000	00000013	addi	x0,x0,0	  x0:0x00000000
       18215000	      1820	80000aa0	00000013	addi	x0,x0,0	  x0:0x00000000
       18225000	      1821	80000aa4	fddff0ef	jal	x1,80000aa4	  x1=0x80000aa4
       18235000	      1822	00000000	00000013	addi	x0,x0,0	  x0:0x00000000
       18245000	      1823	80000a7c	00000013	addi	x0,x0,0	  x0:0x00000000
       18255000	      1824	80000a80	00800aef	jal	x21,80000a80	 x21=0x80000a80
       18265000	      1825	00000000	00000013	addi	x0,x0,0	  x0:0x00000000
       18275000	      1826	80000a84	00000013	addi	x0,x0,0	  x0:0x00000000
       18285000	      1827	80000a88	00c000ef	jal	x1,80000a88	  x1=0x80000a88
       18295000	      1828	00000000	00000013	addi	x0,x0,0	  x0:0x00000000
       18305000	      1829	80000a90	00000013	addi	x0,x0,0	  x0:0x00000000
       18315000	      1830	80000a94	fd9ff56f	jal	x10,80000a94	 x10=0x80000a94
       18325000	      1831	00000000	00000013	addi	x0,x0,0	  x0:0x00000000
       18335000	      1832	80000a68	00000013	addi	x0,x0,0	  x0:0x00000000
       18345000	      1833	80000a6c	020004ef	jal	x9,80000a6c	  x9=0x80000a6c
       18355000	      1834	00000000	00000013	addi	x0,x0,0	  x0:0x00000000
       18365000	      1835	80000a88	00000013	addi	x0,x0,0	  x0:0x00000000
       18375000	      1836	80000a8c	0140036f	jal	x6,80000a8c	  x6=0x80000a8c
       18385000	      1837	00000000	00000013	addi	x0,x0,0	  x0:0x00000000
       18395000	      1838	80000a9c	00000013	addi	x0,x0,0	  x0:0x00000000
       18405000	      1839	80000aa0	0100036f	jal	x6,80000aa0	  x6=0x80000aa0
       18415000	      1840	00000000	00000013	addi	x0,x0,0	  x0:0x00000000
       18425000	      1841	80000aac	00000013	addi	x0,x0,0	  x0:0x00000000
       18435000	      1842	80000ab0	fc5ffaef	jal	x21,80000ab0	 x21=0x80000ab0
       18445000	      1843	00000000	00000013	addi	x0,x0,0	  x0:0x00000000
       18455000	      1844	80000a70	00000013	addi	x0,x0,0	  x0:0x00000000
       18465000	      1845	80000a74	0380036f	jal	x6,80000a74	  x6=0x80000a74
       18475000	      1846	00000000	00000013	addi	x0,x0,0	  x0:0x00000000
       18485000	      1847	80000aa8	00000013	addi	x0,x0,0	  x0:0x00000000
       18495000	      1848	80000aac	fc5ff0ef	jal	x1,80000aac	  x1=0x80000aac
       18505000	      1849	00000000	00000013	addi	x0,x0,0	  x0:0x00000000
       18515000	      1850	80000a6c	00000013	addi	x0,x0,0	  x0:0x00000000
       18525000	      1851	80000a70	02c000ef	jal	x1,80000a70	  x1=0x80000a70
       18535000	      1852	00000000	00000013	addi	x0,x0,0	  x0:0x00000000
       18545000	      1853	80000a98	00000013	addi	x0,x0,0	  x0:0x00000000
       18555000	      1854	80000a9c	ff5ff0ef	jal	x1,80000a9c	  x1=0x80000a9c
       18565000	      1855	00000000	00000013	addi	x0,x0,0	  x0:0x00000000
       18575000	      1856	80000a8c	00000013	addi	x0,x0,0	  x0:0x00000000
       18585000	      1857	80000a90	0380036f	jal	x6,80000a90	  x6=0x80000a90
       18595000	      1858	00000000	00000013	addi	x0,x0,0	  x0:0x00000000
       18605000	      1859	80000ac4	00000013	addi	x0,x0,0	  x0:0x00000000
       18615000	      1860	80000ac8	fb5ff36f	jal	x6,80000ac8	  x6=0x80000ac8
       18625000	      1861	00000000	00000013	addi	x0,x0,0	  x0:0x00000000
       18635000	      1862	80000a78	00000013	addi	x0,x0,0	  x0:0x00000000
       18645000	      1863	80000a7c	04400fef	jal	x31,80000a7c	 x31=0x80000a7c
       18655000	      1864	00000000	00000013	addi	x0,x0,0	  x0:0x00000000
       18665000	      1865	80000abc	00000013	addi	x0,x0,0	  x0:0x00000000
       18675000	      1866	80000ac0	ffdff36f	jal	x6,80000ac0	  x6=0x80000ac0
       18685000	      1867	00000000	00000013	addi	x0,x0,0	  x0:0x00000000
       18695000	      1868	80000ab8	00000013	addi	x0,x0,0	  x0:0x00000000
       18705000	      1869	80000abc	ffdff0ef	jal	x1,80000abc	  x1=0x80000abc
       18715000	      1870	00000000	00000013	addi	x0,x0,0	  x0:0x00000000
       18725000	      1871	80000ab4	00000013	addi	x0,x0,0	  x0:0x00000000
       18735000	      1872	80000ab8	fcdff0ef	jal	x1,80000ab8	  x1=0x80000ab8
       18745000	      1873	00000000	00000013	addi	x0,x0,0	  x0:0x00000000
       18755000	      1874	80000a80	00000013	addi	x0,x0,0	  x0:0x00000000
       18765000	      1875	80000a84	0400016f	jal	x2,80000a84	  x2=0x80000a84
       18775000	      1876	00000000	00000013	addi	x0,x0,0	  x0:0x00000000
       18785000	      1877	80000ac0	00000013	addi	x0,x0,0	  x0:0x00000000
       18795000	      1878	80000ac4	008000ef	jal	x1,80000ac4	  x1=0x80000ac4
       18805000	      1879	00000000	00000013	addi	x0,x0,0	  x0:0x00000000
       18815000	      1880	80000ac8	00000013	addi	x0,x0,0	  x0:0x00000000
       18825000	      1881	80000acc	00000013	addi	x0,x0,0	  x0:0x00000000
       18835000	      1882	80000ad0	00c0036f	jal	x6,80000ad0	  x6=0x80000ad0
       18845000	      1883	00000000	00000013	addi	x0,x0,0	  x0:0x00000000
       18855000	      1884	80000ad8	00000013	addi	x0,x0,0	  x0:0x00000000
       18865000	      1885	80000adc	0180036f	jal	x6,80000adc	  x6=0x80000adc
       18875000	      1886	00000000	00000013	addi	x0,x0,0	  x0:0x00000000
       18885000	      1887	80000af0	00000013	addi	x0,x0,0	  x0:0x00000000
       18895000	      1888	80000af4	004000ef	jal	x1,80000af4	  x1=0x80000af4
       18905000	      1889	00000000	00000013	addi	x0,x0,0	  x0:0x00000000
       18915000	      1890	80000af4	00000013	addi	x0,x0,0	  x0:0x00000000
       18925000	      1891	80000af8	fe9ff96f	jal	x18,80000af8	 x18=0x80000af8
       18935000	      1892	00000000	00000013	addi	x0,x0,0	  x0:0x00000000
       18945000	      1893	80000adc	00000013	addi	x0,x0,0	  x0:0x00000000
       18955000	      1894	80000ae0	ff5ff36f	jal	x6,80000ae0	  x6=0x80000ae0
       18965000	      1895	00000000	00000013	addi	x0,x0,0	  x0:0x00000000
       18975000	      1896	80000ad0	00000013	addi	x0,x0,0	  x0:0x00000000
       18985000	      1897	80000ad4	02c0036f	jal	x6,80000ad4	  x6=0x80000ad4
       18995000	      1898	00000000	00000013	addi	x0,x0,0	  x0:0x00000000
       19005000	      1899	80000afc	00000013	addi	x0,x0,0	  x0:0x00000000
       19015000	      1900	80000b00	fedff0ef	jal	x1,80000b00	  x1=0x80000b00
       19025000	      1901	00000000	00000013	addi	x0,x0,0	  x0:0x00000000
       19035000	      1902	80000ae8	00000013	addi	x0,x0,0	  x0:0x00000000
       19045000	      1903	80000aec	00400c6f	jal	x24,80000aec	 x24=0x80000aec
       19055000	      1904	00000000	00000013	addi	x0,x0,0	  x0:0x00000000
       19065000	      1905	80000aec	00000013	addi	x0,x0,0	  x0:0x00000000
       19075000	      1906	80000af0	ff5ff0ef	jal	x1,80000af0	  x1=0x80000af0
       19085000	      1907	00000000	00000013	addi	x0,x0,0	  x0:0x00000000
       19095000	      1908	80000ae0	00000013	addi	x0,x0,0	  x0:0x00000000
       19105000	      1909	80000ae4	004000ef	jal	x1,80000ae4	  x1=0x80000ae4
       19115000	      1910	00000000	00000013	addi	x0,x0,0	  x0:0x00000000
       19125000	      1911	80000ae4	00000013	addi	x0,x0,0	  x0:0x00000000
       19135000	      1912	80000ae8	ff1ff0ef	jal	x1,80000ae8	  x1=0x80000ae8
       19145000	      1913	00000000	00000013	addi	x0,x0,0	  x0:0x00000000
       19155000	      1914	80000ad4	00000013	addi	x0,x0,0	  x0:0x00000000
       19165000	      1915	80000ad8	0240036f	jal	x6,80000ad8	  x6=0x80000ad8
       19175000	      1916	00000000	00000013	addi	x0,x0,0	  x0:0x00000000
       19185000	      1917	80000af8	00000013	addi	x0,x0,0	  x0:0x00000000
       19195000	      1918	80000afc	00800a6f	jal	x20,80000afc	 x20=0x80000afc
       19205000	      1919	00000000	00000013	addi	x0,x0,0	  x0:0x00000000
       19215000	      1920	80000b00	00000013	addi	x0,x0,0	  x0:0x00000000
       19225000	      1921	80000b04	4137db13	srai	x22,x15,0x13	 x15:0x43ba0a2c x22=0x00000877
       19235000	      1922	80000b08	04c0036f	jal	x6,80000b08	  x6=0x80000b08
       19245000	      1923	00000000	00000013	addi	x0,x0,0	  x0:0x00000000
       19255000	      1924	80000b50	00000013	addi	x0,x0,0	  x0:0x00000000
       19265000	      1925	80000b54	fe9ff0ef	jal	x1,80000b54	  x1=0x80000b54
       19275000	      1926	00000000	00000013	addi	x0,x0,0	  x0:0x00000000
       19285000	      1927	80000b38	00000013	addi	x0,x0,0	  x0:0x00000000
       19295000	      1928	80000b3c	ffdffd6f	jal	x26,80000b3c	 x26=0x80000b3c
       19305000	      1929	00000000	00000013	addi	x0,x0,0	  x0:0x00000000
       19315000	      1930	80000b34	00000013	addi	x0,x0,0	  x0:0x00000000
       19325000	      1931	80000b38	fd9ff0ef	jal	x1,80000b38	  x1=0x80000b38
       19335000	      1932	00000000	00000013	addi	x0,x0,0	  x0:0x00000000
       19345000	      1933	80000b0c	00000013	addi	x0,x0,0	  x0:0x00000000
       19355000	      1934	80000b10	01c00cef	jal	x25,80000b10	 x25=0x80000b10
       19365000	      1935	00000000	00000013	addi	x0,x0,0	  x0:0x00000000
       19375000	      1936	80000b28	00000013	addi	x0,x0,0	  x0:0x00000000
       19385000	      1937	80000b2c	ff1ff0ef	jal	x1,80000b2c	  x1=0x80000b2c
       19395000	      1938	00000000	00000013	addi	x0,x0,0	  x0:0x00000000
       19405000	      1939	80000b18	00000013	addi	x0,x0,0	  x0:0x00000000
       19415000	      1940	80000b1c	0080026f	jal	x4,80000b1c	  x4=0x80000b1c
       19425000	      1941	00000000	00000013	addi	x0,x0,0	  x0:0x00000000
       19435000	      1942	80000b20	00000013	addi	x0,x0,0	  x0:0x00000000
       19445000	      1943	80000b24	ffdff36f	jal	x6,80000b24	  x6=0x80000b24
       19455000	      1944	00000000	00000013	addi	x0,x0,0	  x0:0x00000000
       19465000	      1945	80000b1c	00000013	addi	x0,x0,0	  x0:0x00000000
       19475000	      1946	80000b20	038000ef	jal	x1,80000b20	  x1=0x80000b20
       19485000	      1947	00000000	00000013	addi	x0,x0,0	  x0:0x00000000
       19495000	      1948	80000b54	00000013	addi	x0,x0,0	  x0:0x00000000
       19505000	      1949	80000b58	fedff0ef	jal	x1,80000b58	  x1=0x80000b58
       19515000	      1950	00000000	00000013	addi	x0,x0,0	  x0:0x00000000
       19525000	      1951	80000b40	00000013	addi	x0,x0,0	  x0:0x00000000
       19535000	      1952	80000b44	00c000ef	jal	x1,80000b44	  x1=0x80000b44
       19545000	      1953	00000000	00000013	addi	x0,x0,0	  x0:0x00000000
       19555000	      1954	80000b4c	00000013	addi	x0,x0,0	  x0:0x00000000
       19565000	      1955	80000b50	fd9ff36f	jal	x6,80000b50	  x6=0x80000b50
       19575000	      1956	00000000	00000013	addi	x0,x0,0	  x0:0x00000000
       19585000	      1957	80000b24	00000013	addi	x0,x0,0	  x0:0x00000000
       19595000	      1958	80000b28	024000ef	jal	x1,80000b28	  x1=0x80000b28
       19605000	      1959	00000000	00000013	addi	x0,x0,0	  x0:0x00000000
       19615000	      1960	80000b48	00000013	addi	x0,x0,0	  x0:0x00000000
       19625000	      1961	80000b4c	fc9ff36f	jal	x6,80000b4c	  x6=0x80000b4c
       19635000	      1962	00000000	00000013	addi	x0,x0,0	  x0:0x00000000
       19645000	      1963	80000b10	00000013	addi	x0,x0,0	  x0:0x00000000
       19655000	      1964	80000b14	020000ef	jal	x1,80000b14	  x1=0x80000b14
       19665000	      1965	00000000	00000013	addi	x0,x0,0	  x0:0x00000000
       19675000	      1966	80000b30	00000013	addi	x0,x0,0	  x0:0x00000000
       19685000	      1967	80000b34	0140036f	jal	x6,80000b34	  x6=0x80000b34
       19695000	      1968	00000000	00000013	addi	x0,x0,0	  x0:0x00000000
       19705000	      1969	80000b44	00000013	addi	x0,x0,0	  x0:0x00000000
       19715000	      1970	80000b48	fe9ff0ef	jal	x1,80000b48	  x1=0x80000b48
       19725000	      1971	00000000	00000013	addi	x0,x0,0	  x0:0x00000000
       19735000	      1972	80000b2c	00000013	addi	x0,x0,0	  x0:0x00000000
       19745000	      1973	80000b30	fe9ff16f	jal	x2,80000b30	  x2=0x80000b30
       19755000	      1974	00000000	00000013	addi	x0,x0,0	  x0:0x00000000
       19765000	      1975	80000b14	00000013	addi	x0,x0,0	  x0:0x00000000
       19775000	      1976	80000b18	028000ef	jal	x1,80000b18	  x1=0x80000b18
       19785000	      1977	00000000	00000013	addi	x0,x0,0	  x0:0x00000000
       19795000	      1978	80000b3c	00000013	addi	x0,x0,0	  x0:0x00000000
       19805000	      1979	80000b40	fcdff36f	jal	x6,80000b40	  x6=0x80000b40
       19815000	      1980	00000000	00000013	addi	x0,x0,0	  x0:0x00000000
       19825000	      1981	80000b08	00000013	addi	x0,x0,0	  x0:0x00000000
       19835000	      1982	80000b0c	0500036f	jal	x6,80000b0c	  x6=0x80000b0c
       19845000	      1983	00000000	00000013	addi	x0,x0,0	  x0:0x00000000
       19855000	      1984	80000b58	00000013	addi	x0,x0,0	  x0:0x00000000
       19865000	      1985	80000b5c	018243b3	xor	x7,x4,x24	  x4:0x80000b1c x24:0x80000aec  x7=0x000001f0
       19875000	      1986	80000b60	0180036f	jal	x6,80000b60	  x6=0x80000b60
       19885000	      1987	00000000	00000013	addi	x0,x0,0	  x0:0x00000000
       19895000	      1988	80000b74	00000013	addi	x0,x0,0	  x0:0x00000000
       19905000	      1989	80000b78	00c0026f	jal	x4,80000b78	  x4=0x80000b78
       19915000	      1990	00000000	00000013	addi	x0,x0,0	  x0:0x00000000
       19925000	      1991	80000b80	00000013	addi	x0,x0,0	  x0:0x00000000
       19935000	      1992	80000b84	014000ef	jal	x1,80000b84	  x1=0x80000b84
       19945000	      1993	00000000	00000013	addi	x0,x0,0	  x0:0x00000000
       19955000	      1994	80000b94	00000013	addi	x0,x0,0	  x0:0x00000000
       19965000	      1995	80000b98	fe5ff0ef	jal	x1,80000b98	  x1=0x80000b98
       19975000	      1996	00000000	00000013	addi	x0,x0,0	  x0:0x00000000
       19985000	      1997	80000b78	00000013	addi	x0,x0,0	  x0:0x00000000
       19995000	      1998	80000b7c	ff1ff0ef	jal	x1,80000b7c	  x1=0x80000b7c
       20005000	      1999	00000000	00000013	addi	x0,x0,0	  x0:0x00000000
       20015000	      2000	80000b68	00000013	addi	x0,x0,0	  x0:0x00000000
       20025000	      2001	80000b6c	024000ef	jal	x1,80000b6c	  x1=0x80000b6c
       20035000	      2002	00000000	00000013	addi	x0,x0,0	  x0:0x00000000
       20045000	      2003	80000b8c	00000013	addi	x0,x0,0	  x0:0x00000000
       20055000	      2004	80000b90	fe1ff0ef	jal	x1,80000b90	  x1=0x80000b90
       20065000	      2005	00000000	00000013	addi	x0,x0,0	  x0:0x00000000
       20075000	      2006	80000b6c	00000013	addi	x0,x0,0	  x0:0x00000000
       20085000	      2007	80000b70	010000ef	jal	x1,80000b70	  x1=0x80000b70
       20095000	      2008	00000000	00000013	addi	x0,x0,0	  x0:0x00000000
       20105000	      2009	80000b7c	00000013	addi	x0,x0,0	  x0:0x00000000
       20115000	      2010	80000b80	0280026f	jal	x4,80000b80	  x4=0x80000b80
       20125000	      2011	00000000	00000013	addi	x0,x0,0	  x0:0x00000000
       20135000	      2012	80000ba4	00000013	addi	x0,x0,0	  x0:0x00000000
       20145000	      2013	80000ba8	fc1ff0ef	jal	x1,80000ba8	  x1=0x80000ba8
       20155000	      2014	00000000	00000013	addi	x0,x0,0	  x0:0x00000000
       20165000	      2015	80000b64	00000013	addi	x0,x0,0	  x0:0x00000000
       20175000	      2016	80000b68	03c000ef	jal	x1,80000b68	  x1=0x80000b68
       20185000	      2017	00000000	00000013	addi	x0,x0,0	  x0:0x00000000
       20195000	      2018	80000ba0	00000013	addi	x0,x0,0	  x0:0x00000000
       20205000	      2019	80000ba4	fe9ff0ef	jal	x1,80000ba4	  x1=0x80000ba4
       20215000	      2020	00000000	00000013	addi	x0,x0,0	  x0:0x00000000
       20225000	      2021	80000b88	00000013	addi	x0,x0,0	  x0:0x00000000
       20235000	      2022	80000b8c	020009ef	jal	x19,80000b8c	 x19=0x80000b8c
       20245000	      2023	00000000	00000013	addi	x0,x0,0	  x0:0x00000000
       20255000	      2024	80000ba8	00000013	addi	x0,x0,0	  x0:0x00000000
       20265000	      2025	80000bac	fddff0ef	jal	x1,80000bac	  x1=0x80000bac
       20275000	      2026	00000000	00000013	addi	x0,x0,0	  x0:0x00000000
       20285000	      2027	80000b84	00000013	addi	x0,x0,0	  x0:0x00000000
       20295000	      2028	80000b88	0140016f	jal	x2,80000b88	  x2=0x80000b88
       20305000	      2029	00000000	00000013	addi	x0,x0,0	  x0:0x00000000
       20315000	      2030	80000b98	00000013	addi	x0,x0,0	  x0:0x00000000
       20325000	      2031	80000b9c	0040036f	jal	x6,80000b9c	  x6=0x80000b9c
       20335000	      2032	00000000	00000013	addi	x0,x0,0	  x0:0x00000000
       20345000	      2033	80000b9c	00000013	addi	x0,x0,0	  x0:0x00000000
       20355000	      2034	80000ba0	fd5ff0ef	jal	x1,80000ba0	  x1=0x80000ba0
       20365000	      2035	00000000	00000013	addi	x0,x0,0	  x0:0x00000000
       20375000	      2036	80000b70	00000013	addi	x0,x0,0	  x0:0x00000000
       20385000	      2037	80000b74	0200036f	jal	x6,80000b74	  x6=0x80000b74
       20395000	      2038	00000000	00000013	addi	x0,x0,0	  x0:0x00000000
       20405000	      2039	80000b90	00000013	addi	x0,x0,0	  x0:0x00000000
       20415000	      2040	80000b94	fd1ff56f	jal	x10,80000b94	 x10=0x80000b94
       20425000	      2041	00000000	00000013	addi	x0,x0,0	  x0:0x00000000
       20435000	      2042	80000b60	00000013	addi	x0,x0,0	  x0:0x00000000
       20445000	      2043	80000b64	04c000ef	jal	x1,80000b64	  x1=0x80000b64
       20455000	      2044	00000000	00000013	addi	x0,x0,0	  x0:0x00000000
       20465000	      2045	80000bac	00000013	addi	x0,x0,0	  x0:0x00000000
       20475000	      2046	80000bb0	01d77833	and	x16,x14,x29	 x14:0x80009fc4 x29:0x8000097c x16=0x80000944
       20485000	      2047	80000bb4	0240036f	jal	x6,80000bb4	  x6=0x80000bb4
       20495000	      2048	00000000	00000013	addi	x0,x0,0	  x0:0x00000000
       20505000	      2049	80000bd4	00000013	addi	x0,x0,0	  x0:0x00000000
       20515000	      2050	80000bd8	ff9ffdef	jal	x27,80000bd8	 x27=0x80000bd8
       20525000	      2051	00000000	00000013	addi	x0,x0,0	  x0:0x00000000
       20535000	      2052	80000bcc	00000013	addi	x0,x0,0	  x0:0x00000000
       20545000	      2053	80000bd0	ff9ff36f	jal	x6,80000bd0	  x6=0x80000bd0
       20555000	      2054	00000000	00000013	addi	x0,x0,0	  x0:0x00000000
       20565000	      2055	80000bc4	00000013	addi	x0,x0,0	  x0:0x00000000
       20575000	      2056	80000bc8	ffdff0ef	jal	x1,80000bc8	  x1=0x80000bc8
       20585000	      2057	00000000	00000013	addi	x0,x0,0	  x0:0x00000000
       20595000	      2058	80000bc0	00000013	addi	x0,x0,0	  x0:0x00000000
       20605000	      2059	80000bc4	02c001ef	jal	x3,80000bc4	  x3=0x80000bc4
       20615000	      2060	00000000	00000013	addi	x0,x0,0	  x0:0x00000000
       20625000	      2061	80000bec	00000013	addi	x0,x0,0	  x0:0x00000000
       20635000	      2062	80000bf0	fe5ff0ef	jal	x1,80000bf0	  x1=0x80000bf0
       20645000	      2063	00000000	00000013	addi	x0,x0,0	  x0:0x00000000
       20655000	      2064	80000bd0	00000013	addi	x0,x0,0	  x0:0x00000000
       20665000	      2065	80000bd4	00800a6f	jal	x20,80000bd4	 x20=0x80000bd4
       20675000	      2066	00000000	00000013	addi	x0,x0,0	  x0:0x00000000
       20685000	      2067	80000bd8	00000013	addi	x0,x0,0	  x0:0x00000000
       20695000	      2068	80000bdc	fe5ff36f	jal	x6,80000bdc	  x6=0x80000bdc
       20705000	      2069	00000000	00000013	addi	x0,x0,0	  x0:0x00000000
       20715000	      2070	80000bbc	00000013	addi	x0,x0,0	  x0:0x00000000
       20725000	      2071	80000bc0	02c000ef	jal	x1,80000bc0	  x1=0x80000bc0
       20735000	      2072	00000000	00000013	addi	x0,x0,0	  x0:0x00000000
       20745000	      2073	80000be8	00000013	addi	x0,x0,0	  x0:0x00000000
       20755000	      2074	80000bec	0080036f	jal	x6,80000bec	  x6=0x80000bec
       20765000	      2075	00000000	00000013	addi	x0,x0,0	  x0:0x00000000
       20775000	      2076	80000bf0	00000013	addi	x0,x0,0	  x0:0x00000000
       20785000	      2077	80000bf4	fedff16f	jal	x2,80000bf4	  x2=0x80000bf4
       20795000	      2078	00000000	00000013	addi	x0,x0,0	  x0:0x00000000
       20805000	      2079	80000bdc	00000013	addi	x0,x0,0	  x0:0x00000000
       20815000	      2080	80000be0	fedff16f	jal	x2,80000be0	  x2=0x80000be0
       20825000	      2081	00000000	00000013	addi	x0,x0,0	  x0:0x00000000
       20835000	      2082	80000bc8	00000013	addi	x0,x0,0	  x0:0x00000000
       20845000	      2083	80000bcc	ff1ff26f	jal	x4,80000bcc	  x4=0x80000bcc
       20855000	      2084	00000000	00000013	addi	x0,x0,0	  x0:0x00000000
       20865000	      2085	80000bb8	00000013	addi	x0,x0,0	  x0:0x00000000
       20875000	      2086	80000bbc	02c000ef	jal	x1,80000bbc	  x1=0x80000bbc
       20885000	      2087	00000000	00000013	addi	x0,x0,0	  x0:0x00000000
       20895000	      2088	80000be4	00000013	addi	x0,x0,0	  x0:0x00000000
       20905000	      2089	80000be8	ffdff36f	jal	x6,80000be8	  x6=0x80000be8
       20915000	      2090	00000000	00000013	addi	x0,x0,0	  x0:0x00000000
       20925000	      2091	80000be0	00000013	addi	x0,x0,0	  x0:0x00000000
       20935000	      2092	80000be4	014000ef	jal	x1,80000be4	  x1=0x80000be4
       20945000	      2093	00000000	00000013	addi	x0,x0,0	  x0:0x00000000
       20955000	      2094	80000bf4	00000013	addi	x0,x0,0	  x0:0x00000000
       20965000	      2095	80000bf8	fc1ff36f	jal	x6,80000bf8	  x6=0x80000bf8
       20975000	      2096	00000000	00000013	addi	x0,x0,0	  x0:0x00000000
       20985000	      2097	80000bb4	00000013	addi	x0,x0,0	  x0:0x00000000
       20995000	      2098	80000bb8	044000ef	jal	x1,80000bb8	  x1=0x80000bb8
       21005000	      2099	00000000	00000013	addi	x0,x0,0	  x0:0x00000000
       21015000	      2100	80000bf8	00000013	addi	x0,x0,0	  x0:0x00000000
       21025000	      2101	80000bfc	00000013	addi	x0,x0,0	  x0:0x00000000
       21035000	      2102	80000c00	01c0036f	jal	x6,80000c00	  x6=0x80000c00
       21045000	      2103	00000000	00000013	addi	x0,x0,0	  x0:0x00000000
       21055000	      2104	80000c18	00000013	addi	x0,x0,0	  x0:0x00000000
       21065000	      2105	80000c1c	024000ef	jal	x1,80000c1c	  x1=0x80000c1c
       21075000	      2106	00000000	00000013	addi	x0,x0,0	  x0:0x00000000
       21085000	      2107	80000c3c	00000013	addi	x0,x0,0	  x0:0x00000000
       21095000	      2108	80000c40	fd5ff1ef	jal	x3,80000c40	  x3=0x80000c40
       21105000	      2109	00000000	00000013	addi	x0,x0,0	  x0:0x00000000
       21115000	      2110	80000c10	00000013	addi	x0,x0,0	  x0:0x00000000
       21125000	      2111	80000c14	004000ef	jal	x1,80000c14	  x1=0x80000c14
       21135000	      2112	00000000	00000013	addi	x0,x0,0	  x0:0x00000000
       21145000	      2113	80000c14	00000013	addi	x0,x0,0	  x0:0x00000000
       21155000	      2114	80000c18	ff5ff7ef	jal	x15,80000c18	 x15=0x80000c18
       21165000	      2115	00000000	00000013	addi	x0,x0,0	  x0:0x00000000
       21175000	      2116	80000c08	00000013	addi	x0,x0,0	  x0:0x00000000
       21185000	      2117	80000c0c	014000ef	jal	x1,80000c0c	  x1=0x80000c0c
       21195000	      2118	00000000	00000013	addi	x0,x0,0	  x0:0x00000000
       21205000	      2119	80000c1c	00000013	addi	x0,x0,0	  x0:0x00000000
       21215000	      2120	80000c20	fe9ff0ef	jal	x1,80000c20	  x1=0x80000c20
       21225000	      2121	00000000	00000013	addi	x0,x0,0	  x0:0x00000000
       21235000	      2122	80000c04	00000013	addi	x0,x0,0	  x0:0x00000000
       21245000	      2123	80000c08	ffdff0ef	jal	x1,80000c08	  x1=0x80000c08
       21255000	      2124	00000000	00000013	addi	x0,x0,0	  x0:0x00000000
       21265000	      2125	80000c00	00000013	addi	x0,x0,0	  x0:0x00000000
       21275000	      2126	80000c04	02c000ef	jal	x1,80000c04	  x1=0x80000c04
       21285000	      2127	00000000	00000013	addi	x0,x0,0	  x0:0x00000000
       21295000	      2128	80000c2c	00000013	addi	x0,x0,0	  x0:0x00000000
       21305000	      2129	80000c30	ff9ff36f	jal	x6,80000c30	  x6=0x80000c30
       21315000	      2130	00000000	00000013	addi	x0,x0,0	  x0:0x00000000
       21325000	      2131	80000c24	00000013	addi	x0,x0,0	  x0:0x00000000
       21335000	      2132	80000c28	00c0026f	jal	x4,80000c28	  x4=0x80000c28
       21345000	      2133	00000000	00000013	addi	x0,x0,0	  x0:0x00000000
       21355000	      2134	80000c30	00000013	addi	x0,x0,0	  x0:0x00000000
       21365000	      2135	80000c34	ff1ff36f	jal	x6,80000c34	  x6=0x80000c34
       21375000	      2136	00000000	00000013	addi	x0,x0,0	  x0:0x00000000
       21385000	      2137	80000c20	00000013	addi	x0,x0,0	  x0:0x00000000
       21395000	      2138	80000c24	008000ef	jal	x1,80000c24	  x1=0x80000c24
       21405000	      2139	00000000	00000013	addi	x0,x0,0	  x0:0x00000000
       21415000	      2140	80000c28	00000013	addi	x0,x0,0	  x0:0x00000000
       21425000	      2141	80000c2c	0100036f	jal	x6,80000c2c	  x6=0x80000c2c
       21435000	      2142	00000000	00000013	addi	x0,x0,0	  x0:0x00000000
       21445000	      2143	80000c38	00000013	addi	x0,x0,0	  x0:0x00000000
       21455000	      2144	80000c3c	0080026f	jal	x4,80000c3c	  x4=0x80000c3c
       21465000	      2145	00000000	00000013	addi	x0,x0,0	  x0:0x00000000
       21475000	      2146	80000c40	00000013	addi	x0,x0,0	  x0:0x00000000
       21485000	      2147	80000c44	ff5ff36f	jal	x6,80000c44	  x6=0x80000c44
       21495000	      2148	00000000	00000013	addi	x0,x0,0	  x0:0x00000000
       21505000	      2149	80000c34	00000013	addi	x0,x0,0	  x0:0x00000000
       21515000	      2150	80000c38	fd9ff3ef	jal	x7,80000c38	  x7=0x80000c38
       21525000	      2151	00000000	00000013	addi	x0,x0,0	  x0:0x00000000
       21535000	      2152	80000c0c	00000013	addi	x0,x0,0	  x0:0x00000000
       21545000	      2153	80000c10	038000ef	jal	x1,80000c10	  x1=0x80000c10
       21555000	      2154	00000000	00000013	addi	x0,x0,0	  x0:0x00000000
       21565000	      2155	80000c44	00000013	addi	x0,x0,0	  x0:0x00000000
       21575000	      2156	80000c48	013c8cb3	add	x25,x25,x19	 x25:0x80000b10 x19:0x80000b8c x25=0x0000169c
       21585000	      2157	80000c4c	0440036f	jal	x6,80000c4c	  x6=0x80000c4c
       21595000	      2158	00000000	00000013	addi	x0,x0,0	  x0:0x00000000
       21605000	      2159	80000c8c	00000013	addi	x0,x0,0	  x0:0x00000000
       21615000	      2160	80000c90	fc5ff0ef	jal	x1,80000c90	  x1=0x80000c90
       21625000	      2161	00000000	00000013	addi	x0,x0,0	  x0:0x00000000
       21635000	      2162	80000c50	00000013	addi	x0,x0,0	  x0:0x00000000
       21645000	      2163	80000c54	04c001ef	jal	x3,80000c54	  x3=0x80000c54
       21655000	      2164	00000000	00000013	addi	x0,x0,0	  x0:0x00000000
       21665000	      2165	80000c9c	00000013	addi	x0,x0,0	  x0:0x00000000
       21675000	      2166	80000ca0	fbdff5ef	jal	x11,80000ca0	 x11=0x80000ca0
       21685000	      2167	00000000	00000013	addi	x0,x0,0	  x0:0x00000000
       21695000	      2168	80000c58	00000013	addi	x0,x0,0	  x0:0x00000000
       21705000	      2169	80000c5c	048000ef	jal	x1,80000c5c	  x1=0x80000c5c
       21715000	      2170	00000000	00000013	addi	x0,x0,0	  x0:0x00000000
       21725000	      2171	80000ca0	00000013	addi	x0,x0,0	  x0:0x00000000
       21735000	      2172	80000ca4	fe9ff16f	jal	x2,80000ca4	  x2=0x80000ca4
       21745000	      2173	00000000	00000013	addi	x0,x0,0	  x0:0x00000000
       21755000	      2174	80000c88	00000013	addi	x0,x0,0	  x0:0x00000000
       21765000	      2175	80000c8c	fd9ff0ef	jal	x1,80000c8c	  x1=0x80000c8c
       21775000	      2176	00000000	00000013	addi	x0,x0,0	  x0:0x00000000
       21785000	      2177	80000c60	00000013	addi	x0,x0,0	  x0:0x00000000
       21795000	      2178	80000c64	0100016f	jal	x2,80000c64	  x2=0x80000c64
       21805000	      2179	00000000	00000013	addi	x0,x0,0	  x0:0x00000000
       21815000	      2180	80000c70	00000013	addi	x0,x0,0	  x0:0x00000000
       21825000	      2181	80000c74	004000ef	jal	x1,80000c74	  x1=0x80000c74
       21835000	      2182	00000000	00000013	addi	x0,x0,0	  x0:0x00000000
       21845000	      2183	80000c74	00000013	addi	x0,x0,0	  x0:0x00000000
       21855000	      2184	80000c78	fe9ff9ef	jal	x19,80000c78	 x19=0x80000c78
       21865000	      2185	00000000	00000013	addi	x0,x0,0	  x0:0x00000000
       21875000	      2186	80000c5c	00000013	addi	x0,x0,0	  x0:0x00000000
       21885000	      2187	80000c60	01c000ef	jal	x1,80000c60	  x1=0x80000c60
       21895000	      2188	00000000	00000013	addi	x0,x0,0	  x0:0x00000000
       21905000	      2189	80000c78	00000013	addi	x0,x0,0	  x0:0x00000000
       21915000	      2190	80000c7c	0180036f	jal	x6,80000c7c	  x6=0x80000c7c
       21925000	      2191	00000000	00000013	addi	x0,x0,0	  x0:0x00000000
       21935000	      2192	80000c90	00000013	addi	x0,x0,0	  x0:0x00000000
       21945000	      2193	80000c94	fedff0ef	jal	x1,80000c94	  x1=0x80000c94
       21955000	      2194	00000000	00000013	addi	x0,x0,0	  x0:0x00000000
       21965000	      2195	80000c7c	00000013	addi	x0,x0,0	  x0:0x00000000
       21975000	      2196	80000c80	fe9ff0ef	jal	x1,80000c80	  x1=0x80000c80
       21985000	      2197	00000000	00000013	addi	x0,x0,0	  x0:0x00000000
       21995000	      2198	80000c64	00000013	addi	x0,x0,0	  x0:0x00000000
       22005000	      2199	80000c68	ff1ff0ef	jal	x1,80000c68	  x1=0x80000c68
       22015000	      2200	00000000	00000013	addi	x0,x0,0	  x0:0x00000000
       22025000	      2201	80000c54	00000013	addi	x0,x0,0	  x0:0x00000000
       22035000	      2202	80000c58	ff9ff0ef	jal	x1,80000c58	  x1=0x80000c58
       22045000	      2203	00000000	00000013	addi	x0,x0,0	  x0:0x00000000
       22055000	      2204	80000c4c	00000013	addi	x0,x0,0	  x0:0x00000000
       22065000	      2205	80000c50	01c000ef	jal	x1,80000c50	  x1=0x80000c50
       22075000	      2206	00000000	00000013	addi	x0,x0,0	  x0:0x00000000
       22085000	      2207	80000c68	00000013	addi	x0,x0,0	  x0:0x00000000
       22095000	      2208	80000c6c	03c000ef	jal	x1,80000c6c	  x1=0x80000c6c
       22105000	      2209	00000000	00000013	addi	x0,x0,0	  x0:0x00000000
       22115000	      2210	80000ca4	00000013	addi	x0,x0,0	  x0:0x00000000
       22125000	      2211	80000ca8	ff5ff0ef	jal	x1,80000ca8	  x1=0x80000ca8
       22135000	      2212	00000000	00000013	addi	x0,x0,0	  x0:0x00000000
       22145000	      2213	80000c98	00000013	addi	x0,x0,0	  x0:0x00000000
       22155000	      2214	80000c9c	fe9ff0ef	jal	x1,80000c9c	  x1=0x80000c9c
       22165000	      2215	00000000	00000013	addi	x0,x0,0	  x0:0x00000000
       22175000	      2216	80000c80	00000013	addi	x0,x0,0	  x0:0x00000000
       22185000	      2217	80000c84	0040016f	jal	x2,80000c84	  x2=0x80000c84
       22195000	      2218	00000000	00000013	addi	x0,x0,0	  x0:0x00000000
       22205000	      2219	80000c84	00000013	addi	x0,x0,0	  x0:0x00000000
       22215000	      2220	80000c88	fe9ff1ef	jal	x3,80000c88	  x3=0x80000c88
       22225000	      2221	00000000	00000013	addi	x0,x0,0	  x0:0x00000000
       22235000	      2222	80000c6c	00000013	addi	x0,x0,0	  x0:0x00000000
       22245000	      2223	80000c70	028000ef	jal	x1,80000c70	  x1=0x80000c70
       22255000	      2224	00000000	00000013	addi	x0,x0,0	  x0:0x00000000
       22265000	      2225	80000c94	00000013	addi	x0,x0,0	  x0:0x00000000
       22275000	      2226	80000c98	014000ef	jal	x1,80000c98	  x1=0x80000c98
       22285000	      2227	00000000	00000013	addi	x0,x0,0	  x0:0x00000000
       22295000	      2228	80000ca8	00000013	addi	x0,x0,0	  x0:0x00000000
       22305000	      2229	80000cac	00000013	addi	x0,x0,0	  x0:0x00000000
       22315000	      2230	80000cb0	0380036f	jal	x6,80000cb0	  x6=0x80000cb0
       22325000	      2231	00000000	00000013	addi	x0,x0,0	  x0:0x00000000
       22335000	      2232	80000ce4	00000013	addi	x0,x0,0	  x0:0x00000000
       22345000	      2233	80000ce8	fddff0ef	jal	x1,80000ce8	  x1=0x80000ce8
       22355000	      2234	00000000	00000013	addi	x0,x0,0	  x0:0x00000000
       22365000	      2235	80000cc0	00000013	addi	x0,x0,0	  x0:0x00000000
       22375000	      2236	80000cc4	ffdff0ef	jal	x1,80000cc4	  x1=0x80000cc4
       22385000	      2237	00000000	00000013	addi	x0,x0,0	  x0:0x00000000
       22395000	      2238	80000cbc	00000013	addi	x0,x0,0	  x0:0x00000000
       22405000	      2239	80000cc0	0240026f	jal	x4,80000cc0	  x4=0x80000cc0
       22415000	      2240	00000000	00000013	addi	x0,x0,0	  x0:0x00000000
       22425000	      2241	80000ce0	00000013	addi	x0,x0,0	  x0:0x00000000
       22435000	      2242	80000ce4	ff9ff0ef	jal	x1,80000ce4	  x1=0x80000ce4
       22445000	      2243	00000000	00000013	addi	x0,x0,0	  x0:0x00000000
       22455000	      2244	80000cd8	00000013	addi	x0,x0,0	  x0:0x00000000
       22465000	      2245	80000cdc	044005ef	jal	x11,80000cdc	 x11=0x80000cdc
       22475000	      2246	00000000	00000013	addi	x0,x0,0	  x0:0x00000000
       22485000	      2247	80000d1c	00000013	addi	x0,x0,0	  x0:0x00000000
       22495000	      2248	80000d20	fcdff0ef	jal	x1,80000d20	  x1=0x80000d20
       22505000	      2249	00000000	00000013	addi	x0,x0,0	  x0:0x00000000
       22515000	      2250	80000ce8	00000013	addi	x0,x0,0	  x0:0x00000000
       22525000	      2251	80000cec	010000ef	jal	x1,80000cec	  x1=0x80000cec
       22535000	      2252	00000000	00000013	addi	x0,x0,0	  x0:0x00000000
       22545000	      2253	80000cf8	00000013	addi	x0,x0,0	  x0:0x00000000
       22555000	      2254	80000cfc	01c000ef	jal	x1,80000cfc	  x1=0x80000cfc
       22565000	      2255	00000000	00000013	addi	x0,x0,0	  x0:0x00000000
       22575000	      2256	80000d14	00000013	addi	x0,x0,0	  x0:0x00000000
       22585000	      2257	80000d18	ff5ff0ef	jal	x1,80000d18	  x1=0x80000d18
       22595000	      2258	00000000	00000013	addi	x0,x0,0	  x0:0x00000000
       22605000	      2259	80000d08	00000013	addi	x0,x0,0	  x0:0x00000000
       22615000	      2260	80000d0c	fadff26f	jal	x4,80000d0c	  x4=0x80000d0c
       22625000	      2261	00000000	00000013	addi	x0,x0,0	  x0:0x00000000
       22635000	      2262	80000cb4	00000013	addi	x0,x0,0	  x0:0x00000000
       22645000	      2263	80000cb8	05000d6f	jal	x26,80000cb8	 x26=0x80000cb8
       22655000	      2264	00000000	00000013	addi	x0,x0,0	  x0:0x00000000
       22665000	      2265	80000d04	00000013	addi	x0,x0,0	  x0:0x00000000
       22675000	      2266	80000d08	008000ef	jal	x1,80000d08	  x1=0x80000d08
       22685000	      2267	00000000	00000013	addi	x0,x0,0	  x0:0x00000000
       22695000	      2268	80000d0c	00000013	addi	x0,x0,0	  x0:0x00000000
       22705000	      2269	80000d10	fc1ff0ef	jal	x1,80000d10	  x1=0x80000d10
       22715000	      2270	00000000	00000013	addi	x0,x0,0	  x0:0x00000000
       22725000	      2271	80000ccc	00000013	addi	x0,x0,0	  x0:0x00000000
       22735000	      2272	80000cd0	028000ef	jal	x1,80000cd0	  x1=0x80000cd0
       22745000	      2273	00000000	00000013	addi	x0,x0,0	  x0:0x00000000
       22755000	      2274	80000cf4	00000013	addi	x0,x0,0	  x0:0x00000000
       22765000	      2275	80000cf8	fe9ff0ef	jal	x1,80000cf8	  x1=0x80000cf8
       22775000	      2276	00000000	00000013	addi	x0,x0,0	  x0:0x00000000
       22785000	      2277	80000cdc	00000013	addi	x0,x0,0	  x0:0x00000000
       22795000	      2278	80000ce0	034000ef	jal	x1,80000ce0	  x1=0x80000ce0
       22805000	      2279	00000000	00000013	addi	x0,x0,0	  x0:0x00000000
       22815000	      2280	80000d10	00000013	addi	x0,x0,0	  x0:0x00000000
       22825000	      2281	80000d14	fddff0ef	jal	x1,80000d14	  x1=0x80000d14
       22835000	      2282	00000000	00000013	addi	x0,x0,0	  x0:0x00000000
       22845000	      2283	80000cec	00000013	addi	x0,x0,0	  x0:0x00000000
       22855000	      2284	80000cf0	fc5ff0ef	jal	x1,80000cf0	  x1=0x80000cf0
       22865000	      2285	00000000	00000013	addi	x0,x0,0	  x0:0x00000000
       22875000	      2286	80000cb0	00000013	addi	x0,x0,0	  x0:0x00000000
       22885000	      2287	80000cb4	018000ef	jal	x1,80000cb4	  x1=0x80000cb4
       22895000	      2288	00000000	00000013	addi	x0,x0,0	  x0:0x00000000
       22905000	      2289	80000cc8	00000013	addi	x0,x0,0	  x0:0x00000000
       22915000	      2290	80000ccc	ff1ff26f	jal	x4,80000ccc	  x4=0x80000ccc
       22925000	      2291	00000000	00000013	addi	x0,x0,0	  x0:0x00000000
       22935000	      2292	80000cb8	00000013	addi	x0,x0,0	  x0:0x00000000
       22945000	      2293	80000cbc	0600026f	jal	x4,80000cbc	  x4=0x80000cbc
       22955000	      2294	00000000	00000013	addi	x0,x0,0	  x0:0x00000000
       22965000	      2295	80000d18	00000013	addi	x0,x0,0	  x0:0x00000000
       22975000	      2296	80000d1c	fbdff0ef	jal	x1,80000d1c	  x1=0x80000d1c
       22985000	      2297	00000000	00000013	addi	x0,x0,0	  x0:0x00000000
       22995000	      2298	80000cd4	00000013	addi	x0,x0,0	  x0:0x00000000
       23005000	      2299	80000cd8	02c0036f	jal	x6,80000cd8	  x6=0x80000cd8
       23015000	      2300	00000000	00000013	addi	x0,x0,0	  x0:0x00000000
       23025000	      2301	80000d00	00000013	addi	x0,x0,0	  x0:0x00000000
       23035000	      2302	80000d04	fd1ff16f	jal	x2,80000d04	  x2=0x80000d04
       23045000	      2303	00000000	00000013	addi	x0,x0,0	  x0:0x00000000
       23055000	      2304	80000cd0	00000013	addi	x0,x0,0	  x0:0x00000000
       23065000	      2305	80000cd4	020000ef	jal	x1,80000cd4	  x1=0x80000cd4
       23075000	      2306	00000000	00000013	addi	x0,x0,0	  x0:0x00000000
       23085000	      2307	80000cf0	00000013	addi	x0,x0,0	  x0:0x00000000
       23095000	      2308	80000cf4	fd5ff26f	jal	x4,80000cf4	  x4=0x80000cf4
       23105000	      2309	00000000	00000013	addi	x0,x0,0	  x0:0x00000000
       23115000	      2310	80000cc4	00000013	addi	x0,x0,0	  x0:0x00000000
       23125000	      2311	80000cc8	038000ef	jal	x1,80000cc8	  x1=0x80000cc8
       23135000	      2312	00000000	00000013	addi	x0,x0,0	  x0:0x00000000
       23145000	      2313	80000cfc	00000013	addi	x0,x0,0	  x0:0x00000000
       23155000	      2314	80000d00	024000ef	jal	x1,80000d00	  x1=0x80000d00
       23165000	      2315	00000000	00000013	addi	x0,x0,0	  x0:0x00000000
       23175000	      2316	80000d20	00000013	addi	x0,x0,0	  x0:0x00000000
       23185000	      2317	80000d24	8b54eb93	ori	x23,x9,-1867	  x9:0x80000a6c x23=0xfffffafd
       23195000	      2318	80000d28	0200036f	jal	x6,80000d28	  x6=0x80000d28
       23205000	      2319	00000000	00000013	addi	x0,x0,0	  x0:0x00000000
       23215000	      2320	80000d44	00000013	addi	x0,x0,0	  x0:0x00000000
       23225000	      2321	80000d48	ff5ff0ef	jal	x1,80000d48	  x1=0x80000d48
       23235000	      2322	00000000	00000013	addi	x0,x0,0	  x0:0x00000000
       23245000	      2323	80000d38	00000013	addi	x0,x0,0	  x0:0x00000000
       23255000	      2324	80000d3c	03c00aef	jal	x21,80000d3c	 x21=0x80000d3c
       23265000	      2325	00000000	00000013	addi	x0,x0,0	  x0:0x00000000
       23275000	      2326	80000d74	00000013	addi	x0,x0,0	  x0:0x00000000
       23285000	      2327	80000d78	fd5ff1ef	jal	x3,80000d78	  x3=0x80000d78
       23295000	      2328	00000000	00000013	addi	x0,x0,0	  x0:0x00000000
       23305000	      2329	80000d48	00000013	addi	x0,x0,0	  x0:0x00000000
       23315000	      2330	80000d4c	028000ef	jal	x1,80000d4c	  x1=0x80000d4c
       23325000	      2331	00000000	00000013	addi	x0,x0,0	  x0:0x00000000
       23335000	      2332	80000d70	00000013	addi	x0,x0,0	  x0:0x00000000
       23345000	      2333	80000d74	fe1ff0ef	jal	x1,80000d74	  x1=0x80000d74
       23355000	      2334	00000000	00000013	addi	x0,x0,0	  x0:0x00000000
       23365000	      2335	80000d50	00000013	addi	x0,x0,0	  x0:0x00000000
       23375000	      2336	80000d54	010000ef	jal	x1,80000d54	  x1=0x80000d54
       23385000	      2337	00000000	00000013	addi	x0,x0,0	  x0:0x00000000
       23395000	      2338	80000d60	00000013	addi	x0,x0,0	  x0:0x00000000
       23405000	      2339	80000d64	fcdff36f	jal	x6,80000d64	  x6=0x80000d64
       23415000	      2340	00000000	00000013	addi	x0,x0,0	  x0:0x00000000
       23425000	      2341	80000d2c	00000013	addi	x0,x0,0	  x0:0x00000000
       23435000	      2342	80000d30	03c004ef	jal	x9,80000d30	  x9=0x80000d30
       23445000	      2343	00000000	00000013	addi	x0,x0,0	  x0:0x00000000
       23455000	      2344	80000d68	00000013	addi	x0,x0,0	  x0:0x00000000
       23465000	      2345	80000d6c	fc1ff26f	jal	x4,80000d6c	  x4=0x80000d6c
       23475000	      2346	00000000	00000013	addi	x0,x0,0	  x0:0x00000000
       23485000	      2347	80000d28	00000013	addi	x0,x0,0	  x0:0x00000000
       23495000	      2348	80000d2c	044000ef	jal	x1,80000d2c	  x1=0x80000d2c
       23505000	      2349	00000000	00000013	addi	x0,x0,0	  x0:0x00000000
       23515000	      2350	80000d6c	00000013	addi	x0,x0,0	  x0:0x00000000
       23525000	      2351	80000d70	fedff0ef	jal	x1,80000d70	  x1=0x80000d70
       23535000	      2352	00000000	00000013	addi	x0,x0,0	  x0:0x00000000
       23545000	      2353	80000d58	00000013	addi	x0,x0,0	  x0:0x00000000
       23555000	      2354	80000d5c	ffdff0ef	jal	x1,80000d5c	  x1=0x80000d5c
       23565000	      2355	00000000	00000013	addi	x0,x0,0	  x0:0x00000000
       23575000	      2356	80000d54	00000013	addi	x0,x0,0	  x0:0x00000000
       23585000	      2357	80000d58	fe1ff0ef	jal	x1,80000d58	  x1=0x80000d58
       23595000	      2358	00000000	00000013	addi	x0,x0,0	  x0:0x00000000
       23605000	      2359	80000d34	00000013	addi	x0,x0,0	  x0:0x00000000
       23615000	      2360	80000d38	ffdff0ef	jal	x1,80000d38	  x1=0x80000d38
       23625000	      2361	00000000	00000013	addi	x0,x0,0	  x0:0x00000000
       23635000	      2362	80000d30	00000013	addi	x0,x0,0	  x0:0x00000000
       23645000	      2363	80000d34	01c000ef	jal	x1,80000d34	  x1=0x80000d34
       23655000	      2364	00000000	00000013	addi	x0,x0,0	  x0:0x00000000
       23665000	      2365	80000d4c	00000013	addi	x0,x0,0	  x0:0x00000000
       23675000	      2366	80000d50	ff5ff0ef	jal	x1,80000d50	  x1=0x80000d50
       23685000	      2367	00000000	00000013	addi	x0,x0,0	  x0:0x00000000
       23695000	      2368	80000d40	00000013	addi	x0,x0,0	  x0:0x00000000
       23705000	      2369	80000d44	01c000ef	jal	x1,80000d44	  x1=0x80000d44
       23715000	      2370	00000000	00000013	addi	x0,x0,0	  x0:0x00000000
       23725000	      2371	80000d5c	00000013	addi	x0,x0,0	  x0:0x00000000
       23735000	      2372	80000d60	fe1ff36f	jal	x6,80000d60	  x6=0x80000d60
       23745000	      2373	00000000	00000013	addi	x0,x0,0	  x0:0x00000000
       23755000	      2374	80000d3c	00000013	addi	x0,x0,0	  x0:0x00000000
       23765000	      2375	80000d40	028000ef	jal	x1,80000d40	  x1=0x80000d40
       23775000	      2376	00000000	00000013	addi	x0,x0,0	  x0:0x00000000
       23785000	      2377	80000d64	00000013	addi	x0,x0,0	  x0:0x00000000
       23795000	      2378	80000d68	0140036f	jal	x6,80000d68	  x6=0x80000d68
       23805000	      2379	00000000	00000013	addi	x0,x0,0	  x0:0x00000000
       23815000	      2380	80000d78	00000013	addi	x0,x0,0	  x0:0x00000000
       23825000	      2381	80000d7c	41b5d813	srai	x16,x11,0x1b	 x11:0x80000cdc x16=0xfffffff0
       23835000	      2382	80000d80	02c0036f	jal	x6,80000d80	  x6=0x80000d80
       23845000	      2383	00000000	00000013	addi	x0,x0,0	  x0:0x00000000
       23855000	      2384	80000da8	00000013	addi	x0,x0,0	  x0:0x00000000
       23865000	      2385	80000dac	fe9ff3ef	jal	x7,80000dac	  x7=0x80000dac
       23875000	      2386	00000000	00000013	addi	x0,x0,0	  x0:0x00000000
       23885000	      2387	80000d90	00000013	addi	x0,x0,0	  x0:0x00000000
       23895000	      2388	80000d94	02c000ef	jal	x1,80000d94	  x1=0x80000d94
       23905000	      2389	00000000	00000013	addi	x0,x0,0	  x0:0x00000000
       23915000	      2390	80000dbc	00000013	addi	x0,x0,0	  x0:0x00000000
       23925000	      2391	80000dc0	fd9ff0ef	jal	x1,80000dc0	  x1=0x80000dc0
       23935000	      2392	00000000	00000013	addi	x0,x0,0	  x0:0x00000000
       23945000	      2393	80000d94	00000013	addi	x0,x0,0	  x0:0x00000000
       23955000	      2394	80000d98	010000ef	jal	x1,80000d98	  x1=0x80000d98
       23965000	      2395	00000000	00000013	addi	x0,x0,0	  x0:0x00000000
       23975000	      2396	80000da4	00000013	addi	x0,x0,0	  x0:0x00000000
       23985000	      2397	80000da8	ffdff0ef	jal	x1,80000da8	  x1=0x80000da8
       23995000	      2398	00000000	00000013	addi	x0,x0,0	  x0:0x00000000
       24005000	      2399	80000da0	00000013	addi	x0,x0,0	  x0:0x00000000
       24015000	      2400	80000da4	ff9ff0ef	jal	x1,80000da4	  x1=0x80000da4
       24025000	      2401	00000000	00000013	addi	x0,x0,0	  x0:0x00000000
       24035000	      2402	80000d98	00000013	addi	x0,x0,0	  x0:0x00000000
       24045000	      2403	80000d9c	028008ef	jal	x17,80000d9c	 x17=0x80000d9c
       24055000	      2404	00000000	00000013	addi	x0,x0,0	  x0:0x00000000
       24065000	      2405	80000dc0	00000013	addi	x0,x0,0	  x0:0x00000000
       24075000	      2406	80000dc4	004000ef	jal	x1,80000dc4	  x1=0x80000dc4
       24085000	      2407	00000000	00000013	addi	x0,x0,0	  x0:0x00000000
       24095000	      2408	80000dc4	00000013	addi	x0,x0,0	  x0:0x00000000
       24105000	      2409	80000dc8	fedff66f	jal	x12,80000dc8	 x12=0x80000dc8
       24115000	      2410	00000000	00000013	addi	x0,x0,0	  x0:0x00000000
       24125000	      2411	80000db0	00000013	addi	x0,x0,0	  x0:0x00000000
       24135000	      2412	80000db4	004000ef	jal	x1,80000db4	  x1=0x80000db4
       24145000	      2413	00000000	00000013	addi	x0,x0,0	  x0:0x00000000
       24155000	      2414	80000db4	00000013	addi	x0,x0,0	  x0:0x00000000
       24165000	      2415	80000db8	004000ef	jal	x1,80000db8	  x1=0x80000db8
       24175000	      2416	00000000	00000013	addi	x0,x0,0	  x0:0x00000000
       24185000	      2417	80000db8	00000013	addi	x0,x0,0	  x0:0x00000000
       24195000	      2418	80000dbc	fc9ff0ef	jal	x1,80000dbc	  x1=0x80000dbc
       24205000	      2419	00000000	00000013	addi	x0,x0,0	  x0:0x00000000
       24215000	      2420	80000d80	00000013	addi	x0,x0,0	  x0:0x00000000
       24225000	      2421	80000d84	004000ef	jal	x1,80000d84	  x1=0x80000d84
       24235000	      2422	00000000	00000013	addi	x0,x0,0	  x0:0x00000000
       24245000	      2423	80000d84	00000013	addi	x0,x0,0	  x0:0x00000000
       24255000	      2424	80000d88	008000ef	jal	x1,80000d88	  x1=0x80000d88
       24265000	      2425	00000000	00000013	addi	x0,x0,0	  x0:0x00000000
       24275000	      2426	80000d8c	00000013	addi	x0,x0,0	  x0:0x00000000
       24285000	      2427	80000d90	020000ef	jal	x1,80000d90	  x1=0x80000d90
       24295000	      2428	00000000	00000013	addi	x0,x0,0	  x0:0x00000000
       24305000	      2429	80000dac	00000013	addi	x0,x0,0	  x0:0x00000000
       24315000	      2430	80000db0	fddff36f	jal	x6,80000db0	  x6=0x80000db0
       24325000	      2431	00000000	00000013	addi	x0,x0,0	  x0:0x00000000
       24335000	      2432	80000d88	00000013	addi	x0,x0,0	  x0:0x00000000
       24345000	      2433	80000d8c	01400bef	jal	x23,80000d8c	 x23=0x80000d8c
       24355000	      2434	00000000	00000013	addi	x0,x0,0	  x0:0x00000000
       24365000	      2435	80000d9c	00000013	addi	x0,x0,0	  x0:0x00000000
       24375000	      2436	80000da0	02c0036f	jal	x6,80000da0	  x6=0x80000da0
       24385000	      2437	00000000	00000013	addi	x0,x0,0	  x0:0x00000000
       24395000	      2438	80000dc8	00000013	addi	x0,x0,0	  x0:0x00000000
       24405000	      2439	80000dcc	014e8c33	add	x24,x29,x20	 x29:0x8000097c x20:0x80000bd4 x24=0x00001550
       24415000	      2440	80000dd0	02c0036f	jal	x6,80000dd0	  x6=0x80000dd0
       24425000	      2441	00000000	00000013	addi	x0,x0,0	  x0:0x00000000
       24435000	      2442	80000df8	00000013	addi	x0,x0,0	  x0:0x00000000
       24445000	      2443	80000dfc	004000ef	jal	x1,80000dfc	  x1=0x80000dfc
       24455000	      2444	00000000	00000013	addi	x0,x0,0	  x0:0x00000000
       24465000	      2445	80000dfc	00000013	addi	x0,x0,0	  x0:0x00000000
       24475000	      2446	80000e00	fddfff6f	jal	x30,80000e00	 x30=0x80000e00
       24485000	      2447	00000000	00000013	addi	x0,x0,0	  x0:0x00000000
       24495000	      2448	80000dd8	00000013	addi	x0,x0,0	  x0:0x00000000
       24505000	      2449	80000ddc	ff9ff0ef	jal	x1,80000ddc	  x1=0x80000ddc
       24515000	      2450	00000000	00000013	addi	x0,x0,0	  x0:0x00000000
       24525000	      2451	80000dd0	00000013	addi	x0,x0,0	  x0:0x00000000
       24535000	      2452	80000dd4	038000ef	jal	x1,80000dd4	  x1=0x80000dd4
       24545000	      2453	00000000	00000013	addi	x0,x0,0	  x0:0x00000000
       24555000	      2454	80000e08	00000013	addi	x0,x0,0	  x0:0x00000000
       24565000	      2455	80000e0c	fedff36f	jal	x6,80000e0c	  x6=0x80000e0c
       24575000	      2456	00000000	00000013	addi	x0,x0,0	  x0:0x00000000
       24585000	      2457	80000df4	00000013	addi	x0,x0,0	  x0:0x00000000
       24595000	      2458	80000df8	ff5ff0ef	jal	x1,80000df8	  x1=0x80000df8
       24605000	      2459	00000000	00000013	addi	x0,x0,0	  x0:0x00000000
       24615000	      2460	80000de8	00000013	addi	x0,x0,0	  x0:0x00000000
       24625000	      2461	80000dec	ff9ff0ef	jal	x1,80000dec	  x1=0x80000dec
       24635000	      2462	00000000	00000013	addi	x0,x0,0	  x0:0x00000000
       24645000	      2463	80000de0	00000013	addi	x0,x0,0	  x0:0x00000000
       24655000	      2464	80000de4	030000ef	jal	x1,80000de4	  x1=0x80000de4
       24665000	      2465	00000000	00000013	addi	x0,x0,0	  x0:0x00000000
       24675000	      2466	80000e10	00000013	addi	x0,x0,0	  x0:0x00000000
       24685000	      2467	80000e14	ff1ff26f	jal	x4,80000e14	  x4=0x80000e14
       24695000	      2468	00000000	00000013	addi	x0,x0,0	  x0:0x00000000
       24705000	      2469	80000e00	00000013	addi	x0,x0,0	  x0:0x00000000
       24715000	      2470	80000e04	fedff36f	jal	x6,80000e04	  x6=0x80000e04
       24725000	      2471	00000000	00000013	addi	x0,x0,0	  x0:0x00000000
       24735000	      2472	80000dec	00000013	addi	x0,x0,0	  x0:0x00000000
       24745000	      2473	80000df0	02c0036f	jal	x6,80000df0	  x6=0x80000df0
       24755000	      2474	00000000	00000013	addi	x0,x0,0	  x0:0x00000000
       24765000	      2475	80000e18	00000013	addi	x0,x0,0	  x0:0x00000000
       24775000	      2476	80000e1c	fedff0ef	jal	x1,80000e1c	  x1=0x80000e1c
       24785000	      2477	00000000	00000013	addi	x0,x0,0	  x0:0x00000000
       24795000	      2478	80000e04	00000013	addi	x0,x0,0	  x0:0x00000000
       24805000	      2479	80000e08	fd9ff36f	jal	x6,80000e08	  x6=0x80000e08
       24815000	      2480	00000000	00000013	addi	x0,x0,0	  x0:0x00000000
       24825000	      2481	80000ddc	00000013	addi	x0,x0,0	  x0:0x00000000
       24835000	      2482	80000de0	0400036f	jal	x6,80000de0	  x6=0x80000de0
       24845000	      2483	00000000	00000013	addi	x0,x0,0	  x0:0x00000000
       24855000	      2484	80000e1c	00000013	addi	x0,x0,0	  x0:0x00000000
       24865000	      2485	80000e20	ff9ff0ef	jal	x1,80000e20	  x1=0x80000e20
       24875000	      2486	00000000	00000013	addi	x0,x0,0	  x0:0x00000000
       24885000	      2487	80000e14	00000013	addi	x0,x0,0	  x0:0x00000000
       24895000	      2488	80000e18	fddffeef	jal	x29,80000e18	 x29=0x80000e18
       24905000	      2489	00000000	00000013	addi	x0,x0,0	  x0:0x00000000
       24915000	      2490	80000df0	00000013	addi	x0,x0,0	  x0:0x00000000
       24925000	      2491	80000df4	ff5ff0ef	jal	x1,80000df4	  x1=0x80000df4
       24935000	      2492	00000000	00000013	addi	x0,x0,0	  x0:0x00000000
       24945000	      2493	80000de4	00000013	addi	x0,x0,0	  x0:0x00000000
       24955000	      2494	80000de8	0280026f	jal	x4,80000de8	  x4=0x80000de8
       24965000	      2495	00000000	00000013	addi	x0,x0,0	  x0:0x00000000
       24975000	      2496	80000e0c	00000013	addi	x0,x0,0	  x0:0x00000000
       24985000	      2497	80000e10	fc9fffef	jal	x31,80000e10	 x31=0x80000e10
       24995000	      2498	00000000	00000013	addi	x0,x0,0	  x0:0x00000000
       25005000	      2499	80000dd4	00000013	addi	x0,x0,0	  x0:0x00000000
       25015000	      2500	80000dd8	04c0026f	jal	x4,80000dd8	  x4=0x80000dd8
       25025000	      2501	00000000	00000013	addi	x0,x0,0	  x0:0x00000000
       25035000	      2502	80000e20	00000013	addi	x0,x0,0	  x0:0x00000000
       25045000	      2503	80000e24	0040086f	jal	x16,80000e24	 x16=0x80000e24
       25055000	      2504	00000000	00000013	addi	x0,x0,0	  x0:0x00000000
       25065000	      2505	80000e24	00000013	addi	x0,x0,0	  x0:0x00000000
       25075000	      2506	80000e28	5540b4b7	lui	x9,0x5540b	  x9=0x5540b000
       25085000	      2507	80000e2c	0240036f	jal	x6,80000e2c	  x6=0x80000e2c
       25095000	      2508	00000000	00000013	addi	x0,x0,0	  x0:0x00000000
       25105000	      2509	80000e4c	00000013	addi	x0,x0,0	  x0:0x00000000
       25115000	      2510	80000e50	ffdff0ef	jal	x1,80000e50	  x1=0x80000e50
       25125000	      2511	00000000	00000013	addi	x0,x0,0	  x0:0x00000000
       25135000	      2512	80000e48	00000013	addi	x0,x0,0	  x0:0x00000000
       25145000	      2513	80000e4c	0180036f	jal	x6,80000e4c	  x6=0x80000e4c
       25155000	      2514	00000000	00000013	addi	x0,x0,0	  x0:0x00000000
       25165000	      2515	80000e60	00000013	addi	x0,x0,0	  x0:0x00000000
       25175000	      2516	80000e64	018000ef	jal	x1,80000e64	  x1=0x80000e64
       25185000	      2517	00000000	00000013	addi	x0,x0,0	  x0:0x00000000
       25195000	      2518	80000e78	00000013	addi	x0,x0,0	  x0:0x00000000
       25205000	      2519	80000e7c	fe1ff5ef	jal	x11,80000e7c	 x11=0x80000e7c
       25215000	      2520	00000000	00000013	addi	x0,x0,0	  x0:0x00000000
       25225000	      2521	80000e58	00000013	addi	x0,x0,0	  x0:0x00000000
       25235000	      2522	80000e5c	004000ef	jal	x1,80000e5c	  x1=0x80000e5c
       25245000	      2523	00000000	00000013	addi	x0,x0,0	  x0:0x00000000
       25255000	      2524	80000e5c	00000013	addi	x0,x0,0	  x0:0x00000000
       25265000	      2525	80000e60	ff5ff36f	jal	x6,80000e60	  x6=0x80000e60
       25275000	      2526	00000000	00000013	addi	x0,x0,0	  x0:0x00000000
       25285000	      2527	80000e50	00000013	addi	x0,x0,0	  x0:0x00000000
       25295000	      2528	80000e54	014000ef	jal	x1,80000e54	  x1=0x80000e54
       25305000	      2529	00000000	00000013	addi	x0,x0,0	  x0:0x00000000
       25315000	      2530	80000e64	00000013	addi	x0,x0,0	  x0:0x00000000
       25325000	      2531	80000e68	fd1ff36f	jal	x6,80000e68	  x6=0x80000e68
       25335000	      2532	00000000	00000013	addi	x0,x0,0	  x0:0x00000000
       25345000	      2533	80000e34	00000013	addi	x0,x0,0	  x0:0x00000000
       25355000	      2534	80000e38	020001ef	jal	x3,80000e38	  x3=0x80000e38
       25365000	      2535	00000000	00000013	addi	x0,x0,0	  x0:0x00000000
       25375000	      2536	80000e54	00000013	addi	x0,x0,0	  x0:0x00000000
       25385000	      2537	80000e58	ff1ff0ef	jal	x1,80000e58	  x1=0x80000e58
       25395000	      2538	00000000	00000013	addi	x0,x0,0	  x0:0x00000000
       25405000	      2539	80000e44	00000013	addi	x0,x0,0	  x0:0x00000000
       25415000	      2540	80000e48	038000ef	jal	x1,80000e48	  x1=0x80000e48
       25425000	      2541	00000000	00000013	addi	x0,x0,0	  x0:0x00000000
       25435000	      2542	80000e7c	00000013	addi	x0,x0,0	  x0:0x00000000
       25445000	      2543	80000e80	ff9ff26f	jal	x4,80000e80	  x4=0x80000e80
       25455000	      2544	00000000	00000013	addi	x0,x0,0	  x0:0x00000000
       25465000	      2545	80000e74	00000013	addi	x0,x0,0	  x0:0x00000000
       25475000	      2546	80000e78	fb9ff36f	jal	x6,80000e78	  x6=0x80000e78
       25485000	      2547	00000000	00000013	addi	x0,x0,0	  x0:0x00000000
       25495000	      2548	80000e2c	00000013	addi	x0,x0,0	  x0:0x00000000
       25505000	      2549	80000e30	00c000ef	jal	x1,80000e30	  x1=0x80000e30
       25515000	      2550	00000000	00000013	addi	x0,x0,0	  x0:0x00000000
       25525000	      2551	80000e38	00000013	addi	x0,x0,0	  x0:0x00000000
       25535000	      2552	80000e3c	008000ef	jal	x1,80000e3c	  x1=0x80000e3c
       25545000	      2553	00000000	00000013	addi	x0,x0,0	  x0:0x00000000
       25555000	      2554	80000e40	00000013	addi	x0,x0,0	  x0:0x00000000
       25565000	      2555	80000e44	030000ef	jal	x1,80000e44	  x1=0x80000e44
       25575000	      2556	00000000	00000013	addi	x0,x0,0	  x0:0x00000000
       25585000	      2557	80000e70	00000013	addi	x0,x0,0	  x0:0x00000000
       25595000	      2558	80000e74	fcdff0ef	jal	x1,80000e74	  x1=0x80000e74
       25605000	      2559	00000000	00000013	addi	x0,x0,0	  x0:0x00000000
       25615000	      2560	80000e3c	00000013	addi	x0,x0,0	  x0:0x00000000
       25625000	      2561	80000e40	030001ef	jal	x3,80000e40	  x3=0x80000e40
       25635000	      2562	00000000	00000013	addi	x0,x0,0	  x0:0x00000000
       25645000	      2563	80000e6c	00000013	addi	x0,x0,0	  x0:0x00000000
       25655000	      2564	80000e70	ffdff0ef	jal	x1,80000e70	  x1=0x80000e70
       25665000	      2565	00000000	00000013	addi	x0,x0,0	  x0:0x00000000
       25675000	      2566	80000e68	00000013	addi	x0,x0,0	  x0:0x00000000
       25685000	      2567	80000e6c	fc9ff36f	jal	x6,80000e6c	  x6=0x80000e6c
       25695000	      2568	00000000	00000013	addi	x0,x0,0	  x0:0x00000000
       25705000	      2569	80000e30	00000013	addi	x0,x0,0	  x0:0x00000000
       25715000	      2570	80000e34	0500026f	jal	x4,80000e34	  x4=0x80000e34
       25725000	      2571	00000000	00000013	addi	x0,x0,0	  x0:0x00000000
       25735000	      2572	80000e80	00000013	addi	x0,x0,0	  x0:0x00000000
       25745000	      2573	80000e84	0040036f	jal	x6,80000e84	  x6=0x80000e84
       25755000	      2574	00000000	00000013	addi	x0,x0,0	  x0:0x00000000
       25765000	      2575	80000e84	00000013	addi	x0,x0,0	  x0:0x00000000
       25775000	      2576	80000e88	04273a93	sltiu	x21,x14,66	 x14:0x80009fc4 x21=0x00000000
       25785000	      2577	80000e8c	01c0036f	jal	x6,80000e8c	  x6=0x80000e8c
       25795000	      2578	00000000	00000013	addi	x0,x0,0	  x0:0x00000000
       25805000	      2579	80000ea4	00000013	addi	x0,x0,0	  x0:0x00000000
       25815000	      2580	80000ea8	ff5ff0ef	jal	x1,80000ea8	  x1=0x80000ea8
       25825000	      2581	00000000	00000013	addi	x0,x0,0	  x0:0x00000000
       25835000	      2582	80000e98	00000013	addi	x0,x0,0	  x0:0x00000000
       25845000	      2583	80000e9c	008000ef	jal	x1,80000e9c	  x1=0x80000e9c
       25855000	      2584	00000000	00000013	addi	x0,x0,0	  x0:0x00000000
       25865000	      2585	80000ea0	00000013	addi	x0,x0,0	  x0:0x00000000
       25875000	      2586	80000ea4	0080036f	jal	x6,80000ea4	  x6=0x80000ea4
       25885000	      2587	00000000	00000013	addi	x0,x0,0	  x0:0x00000000
       25895000	      2588	80000ea8	00000013	addi	x0,x0,0	  x0:0x00000000
       25905000	      2589	80000eac	fe9ff0ef	jal	x1,80000eac	  x1=0x80000eac
       25915000	      2590	00000000	00000013	addi	x0,x0,0	  x0:0x00000000
       25925000	      2591	80000e90	00000013	addi	x0,x0,0	  x0:0x00000000
       25935000	      2592	80000e94	00c0036f	jal	x6,80000e94	  x6=0x80000e94
       25945000	      2593	00000000	00000013	addi	x0,x0,0	  x0:0x00000000
       25955000	      2594	80000e9c	00000013	addi	x0,x0,0	  x0:0x00000000
       25965000	      2595	80000ea0	010007ef	jal	x15,80000ea0	 x15=0x80000ea0
       25975000	      2596	00000000	00000013	addi	x0,x0,0	  x0:0x00000000
       25985000	      2597	80000eac	00000013	addi	x0,x0,0	  x0:0x00000000
       25995000	      2598	80000eb0	004000ef	jal	x1,80000eb0	  x1=0x80000eb0
       26005000	      2599	00000000	00000013	addi	x0,x0,0	  x0:0x00000000
       26015000	      2600	80000eb0	00000013	addi	x0,x0,0	  x0:0x00000000
       26025000	      2601	80000eb4	fddff36f	jal	x6,80000eb4	  x6=0x80000eb4
       26035000	      2602	00000000	00000013	addi	x0,x0,0	  x0:0x00000000
       26045000	      2603	80000e8c	00000013	addi	x0,x0,0	  x0:0x00000000
       26055000	      2604	80000e90	008000ef	jal	x1,80000e90	  x1=0x80000e90
       26065000	      2605	00000000	00000013	addi	x0,x0,0	  x0:0x00000000
       26075000	      2606	80000e94	00000013	addi	x0,x0,0	  x0:0x00000000
       26085000	      2607	80000e98	020000ef	jal	x1,80000e98	  x1=0x80000e98
       26095000	      2608	00000000	00000013	addi	x0,x0,0	  x0:0x00000000
       26105000	      2609	80000eb4	00000013	addi	x0,x0,0	  x0:0x00000000
       26115000	      2610	80000eb8	4075d393	srai	x7,x11,0x7	 x11:0x80000e7c  x7=0xff00001c
       26125000	      2611	80000ebc	0140036f	jal	x6,80000ebc	  x6=0x80000ebc
       26135000	      2612	00000000	00000013	addi	x0,x0,0	  x0:0x00000000
       26145000	      2613	80000ecc	00000013	addi	x0,x0,0	  x0:0x00000000
       26155000	      2614	80000ed0	014000ef	jal	x1,80000ed0	  x1=0x80000ed0
       26165000	      2615	00000000	00000013	addi	x0,x0,0	  x0:0x00000000
       26175000	      2616	80000ee0	00000013	addi	x0,x0,0	  x0:0x00000000
       26185000	      2617	80000ee4	018000ef	jal	x1,80000ee4	  x1=0x80000ee4
       26195000	      2618	00000000	00000013	addi	x0,x0,0	  x0:0x00000000
       26205000	      2619	80000ef8	00000013	addi	x0,x0,0	  x0:0x00000000
       26215000	      2620	80000efc	fcdff36f	jal	x6,80000efc	  x6=0x80000efc
       26225000	      2621	00000000	00000013	addi	x0,x0,0	  x0:0x00000000
       26235000	      2622	80000ec4	00000013	addi	x0,x0,0	  x0:0x00000000
       26245000	      2623	80000ec8	018000ef	jal	x1,80000ec8	  x1=0x80000ec8
       26255000	      2624	00000000	00000013	addi	x0,x0,0	  x0:0x00000000
       26265000	      2625	80000edc	00000013	addi	x0,x0,0	  x0:0x00000000
       26275000	      2626	80000ee0	fe1ff36f	jal	x6,80000ee0	  x6=0x80000ee0
       26285000	      2627	00000000	00000013	addi	x0,x0,0	  x0:0x00000000
       26295000	      2628	80000ebc	00000013	addi	x0,x0,0	  x0:0x00000000
       26305000	      2629	80000ec0	02800fef	jal	x31,80000ec0	 x31=0x80000ec0
       26315000	      2630	00000000	00000013	addi	x0,x0,0	  x0:0x00000000
       26325000	      2631	80000ee4	00000013	addi	x0,x0,0	  x0:0x00000000
       26335000	      2632	80000ee8	00c000ef	jal	x1,80000ee8	  x1=0x80000ee8
       26345000	      2633	00000000	00000013	addi	x0,x0,0	  x0:0x00000000
       26355000	      2634	80000ef0	00000013	addi	x0,x0,0	  x0:0x00000000
       26365000	      2635	80000ef4	fd9ff56f	jal	x10,80000ef4	 x10=0x80000ef4
       26375000	      2636	00000000	00000013	addi	x0,x0,0	  x0:0x00000000
       26385000	      2637	80000ec8	00000013	addi	x0,x0,0	  x0:0x00000000
       26395000	      2638	80000ecc	ff9ff0ef	jal	x1,80000ecc	  x1=0x80000ecc
       26405000	      2639	00000000	00000013	addi	x0,x0,0	  x0:0x00000000
       26415000	      2640	80000ec0	00000013	addi	x0,x0,0	  x0:0x00000000
       26425000	      2641	80000ec4	0180086f	jal	x16,80000ec4	 x16=0x80000ec4
       26435000	      2642	00000000	00000013	addi	x0,x0,0	  x0:0x00000000
       26445000	      2643	80000ed8	00000013	addi	x0,x0,0	  x0:0x00000000
       26455000	      2644	80000edc	0140066f	jal	x12,80000edc	 x12=0x80000edc
       26465000	      2645	00000000	00000013	addi	x0,x0,0	  x0:0x00000000
       26475000	      2646	80000eec	00000013	addi	x0,x0,0	  x0:0x00000000
       26485000	      2647	80000ef0	ffdffb6f	jal	x22,80000ef0	 x22=0x80000ef0
       26495000	      2648	00000000	00000013	addi	x0,x0,0	  x0:0x00000000
       26505000	      2649	80000ee8	00000013	addi	x0,x0,0	  x0:0x00000000
       26515000	      2650	80000eec	fe9ff0ef	jal	x1,80000eec	  x1=0x80000eec
       26525000	      2651	00000000	00000013	addi	x0,x0,0	  x0:0x00000000
       26535000	      2652	80000ed0	00000013	addi	x0,x0,0	  x0:0x00000000
       26545000	      2653	80000ed4	004000ef	jal	x1,80000ed4	  x1=0x80000ed4
       26555000	      2654	00000000	00000013	addi	x0,x0,0	  x0:0x00000000
       26565000	      2655	80000ed4	00000013	addi	x0,x0,0	  x0:0x00000000
       26575000	      2656	80000ed8	0200036f	jal	x6,80000ed8	  x6=0x80000ed8
       26585000	      2657	00000000	00000013	addi	x0,x0,0	  x0:0x00000000
       26595000	      2658	80000ef4	00000013	addi	x0,x0,0	  x0:0x00000000
       26605000	      2659	80000ef8	008000ef	jal	x1,80000ef8	  x1=0x80000ef8
       26615000	      2660	00000000	00000013	addi	x0,x0,0	  x0:0x00000000
       26625000	      2661	80000efc	00000013	addi	x0,x0,0	  x0:0x00000000
       26635000	      2662	80000f00	e52b7c97	auipc	x25,0xe52b7	 x25=0x652b7efc
       26645000	      2663	80000f04	04001863	bne	x0,x0,80000f54	  x0:0x00000000  x0:0x00000000
       26655000	      2664	80000f08	0017cfb3	xor	x31,x15,x1	 x15:0x80000ea0  x1:0x80000ef8 x31=0x00000058
       26665000	      2665	80000f0c	00c6dbb3	srl	x23,x13,x12	 x13:0x80009f84 x12:0x80000edc x23=0x00000008
       26675000	      2666	80000f10	01026a33	or	x20,x4,x16	  x4:0x80000e34 x16:0x80000ec4 x20=0x80000ef4
       26685000	      2667	80000f14	01245263	bge	x8,x18,80000f18	  x8:0x80000a54 x18:0x80000af8
       26695000	      2668	80000f18	86aef493	andi	x9,x29,-1942	 x29:0x80000e18  x9=0x80000808
       26705000	      2669	80000f1c	00f6e333	or	x6,x13,x15	 x13:0x80009f84 x15:0x80000ea0  x6=0x80009fa4
       26715000	      2670	80000f20	41978033	sub	x0,x15,x25	 x15:0x80000ea0 x25:0x652b7efc
       26725000	      2671	80000f24	a0dfc013	xori	x0,x31,-1523	 x31:0x00000058
       26735000	      2672	80000f28	01f5da33	srl	x20,x11,x31	 x11:0x80000e7c x31:0x00000058 x20=0x00000080
       26745000	      2673	80000f2c	00000013	addi	x0,x0,0	  x0:0x00000000
       26755000	      2674	80000f30	01e31613	slli	x12,x6,0x1e	  x6:0x80009fa4 x12=0x00000000
       26765000	      2675	80000f34	003179b3	and	x19,x2,x3	  x2:0x80000d04  x3:0x80000e40 x19=0x80000c00
       26775000	      2676	80000f38	b7670e93	addi	x29,x14,-1162	 x14:0x80009fc4 x29=0x80009b3a
       26785000	      2677	80000f3c	e8774e93	xori	x29,x14,-377	 x14:0x80009fc4 x29=0x7fff6143
       26795000	      2678	80000f40	386d1fb7	lui	x31,0x386d1	 x31=0x386d1000
       26805000	      2679	80000f44	0148d793	srli	x15,x17,0x14	 x17:0x80000d9c x15=0x00000800
       26815000	      2680	80000f48	01e91863	bne	x18,x30,80000f58	 x18:0x80000af8 x30:0x80000e00
       26825000	      2681	00000000	00000013	addi	x0,x0,0	  x0:0x00000000
       26835000	      2682	80000f54	00000013	addi	x0,x0,0	  x0:0x00000000
       26845000	      2683	80000f58	05e56063	bltu	x10,x30,80000f98	 x10:0x80000ef4 x30:0x80000e00
       26855000	      2684	80000f5c	bfff4937	lui	x18,0xbfff4	 x18=0xbfff4000
       26865000	      2685	80000f60	02389663	bne	x17,x3,80000f8c	 x17:0x80000d9c  x3:0x80000e40
       26875000	      2686	00000000	00000013	addi	x0,x0,0	  x0:0x00000000
       26885000	      2687	80000f88	00000013	addi	x0,x0,0	  x0:0x00000000
       26895000	      2688	80000f8c	003e6533	or	x10,x28,x3	 x28:0x800008dc  x3:0x80000e40 x10=0x80000edc
       26905000	      2689	80000f90	fa7e8f13	addi	x30,x29,-89	 x29:0x7fff6143 x30=0x7fff60ea
       26915000	      2690	80000f94	b0b78593	addi	x11,x15,-1269	 x15:0x00000800 x11=0x0000030b
       26925000	      2691	80000f98	00fe5a63	bge	x28,x15,80000fac	 x28:0x800008dc x15:0x00000800
       26935000	      2692	80000f9c	2d087593	andi	x11,x16,720	 x16:0x80000ec4 x11=0x000002c0
       26945000	      2693	80000fa0	00c8d1b3	srl	x3,x17,x12	 x17:0x80000d9c x12:0x00000000  x3=0x80000d9c
       26955000	      2694	80000fa4	6f8af213	andi	x4,x21,1784	 x21:0x00000000  x4=0x00000000
       26965000	      2695	80000fa8	00a015b3	sll	x11,x0,x10	  x0:0x00000000 x10:0x80000edc x11=0x00000000
       26975000	      2696	80000fac	01918bb3	add	x23,x3,x25	  x3:0x80000d9c x25:0x652b7efc x23=0xe52b8c98
       26985000	      2697	80000fb0	c07b3517	auipc	x10,0xc07b3	 x10=0x407b3fac
       26995000	      2698	80000fb4	01de2e33	slt	x28,x28,x29	 x28:0x800008dc x29:0x7fff6143 x28=0x00000001
       27005000	      2699	80000fb8	40d55b33	sra	x22,x10,x13	 x10:0x407b3fac x13:0x80009f84 x22=0x0407b3fa
       27015000	      2700	80000fbc	00000013	addi	x0,x0,0	  x0:0x00000000
       27025000	      2701	80000fc0	41868c33	sub	x24,x13,x24	 x13:0x80009f84 x24:0x00001550 x24=0x80008a34
       27035000	      2702	80000fc4	f9a47fb7	lui	x31,0xf9a47	 x31=0xf9a47000
       27045000	      2703	80000fc8	1cb4bbb7	lui	x23,0x1cb4b	 x23=0x1cb4b000
       27055000	      2704	80000fcc	41b7de93	srai	x29,x15,0x1b	 x15:0x00000800 x29=0x00000000
       27065000	      2705	80000fd0	00a8f033	and	x0,x17,x10	 x17:0x80000d9c x10:0x407b3fac
       27075000	      2706	80000fd4	03b6c663	blt	x13,x27,80001000	 x13:0x80009f84 x27:0x80000bd8
       27085000	      2707	80000fd8	135aa793	slti	x15,x21,309	 x21:0x00000000 x15=0x00000001
       27095000	      2708	80000fdc	4e1a8b17	auipc	x22,0x4e1a8	 x22=0xce1a8fd8
       27105000	      2709	80000fe0	41e15c33	sra	x24,x2,x30	  x2:0x80000d04 x30:0x7fff60ea x24=0xffe00003
       27115000	      2710	80000fe4	04cfd063	bge	x31,x12,80001024	 x31:0xf9a47000 x12:0x00000000
       27125000	      2711	80000fe8	010c8fb3	add	x31,x25,x16	 x25:0x652b7efc x16:0x80000ec4 x31=0xe52b8dc0
       27135000	      2712	80000fec	4d7dae17	auipc	x28,0x4d7da	 x28=0xcd7dafe8
       27145000	      2713	80000ff0	522c3f93	sltiu	x31,x24,1314	 x24:0xffe00003 x31=0x00000000
       27155000	      2714	80000ff4	41de59b3	sra	x19,x28,x29	 x28:0xcd7dafe8 x29:0x00000000 x19=0xcd7dafe8
       27165000	      2715	80000ff8	00cf0db3	add	x27,x30,x12	 x30:0x7fff60ea x12:0x00000000 x27=0x7fff60ea
       27175000	      2716	80000ffc	012724b3	slt	x9,x14,x18	 x14:0x80009fc4 x18:0xbfff4000  x9=0x00000001
       27185000	      2717	80001000	02ba1c63	bne	x20,x11,80001038	 x20:0x00000080 x11:0x00000000
       27195000	      2718	00000000	00000013	addi	x0,x0,0	  x0:0x00000000
       27205000	      2719	80001034	00000013	addi	x0,x0,0	  x0:0x00000000
       27215000	      2720	80001038	0c7f7913	andi	x18,x30,199	 x30:0x7fff60ea x18=0x000000c2
       27225000	      2721	8000103c	9efeebb7	lui	x23,0x9efee	 x23=0x9efee000
       27235000	      2722	80001040	ad71fd97	auipc	x27,0xad71f	 x27=0x2d72003c
       27245000	      2723	80001044	ce49cf93	xori	x31,x19,-796	 x19:0xcd7dafe8 x31=0x3282530c
       27255000	      2724	80001048	04b7e463	bltu	x15,x11,80001090	 x15:0x00000001 x11:0x00000000
       27265000	      2725	8000104c	cd15f193	andi	x3,x11,-815	 x11:0x00000000  x3=0x00000000
       27275000	      2726	80001050	01aa5633	srl	x12,x20,x26	 x20:0x00000080 x26:0x80000cb8 x12=0x00000000
       27285000	      2727	80001054	411554b3	sra	x9,x10,x17	 x10:0x407b3fac x17:0x80000d9c  x9=0x00000004
       27295000	      2728	80001058	03ce6e63	bltu	x28,x28,80001094	 x28:0xcd7dafe8 x28:0xcd7dafe8
       27305000	      2729	8000105c	744c6b37	lui	x22,0x744c6	 x22=0x744c6000
       27315000	      2730	80001060	00516e63	bltu	x2,x5,8000107c	  x2:0x80000d04  x5:0x00000000
       27325000	      2731	80001064	01b15463	bge	x2,x27,8000106c	  x2:0x80000d04 x27:0x2d72003c
       27335000	      2732	80001068	0124cdb3	xor	x27,x9,x18	  x9:0x00000004 x18:0x000000c2 x27=0x000000c6
       27345000	      2733	8000106c	87248593	addi	x11,x9,-1934	  x9:0x00000004 x11=0xfffff876
       27355000	      2734	80001070	41925833	sra	x16,x4,x25	  x4:0x00000000 x25:0x652b7efc x16=0x00000000
       27365000	      2735	80001074	40428933	sub	x18,x5,x4	  x5:0x00000000  x4:0x00000000 x18=0x00000000
       27375000	      2736	80001078	02866063	bltu	x12,x8,80001098	 x12:0x00000000  x8:0x80000a54
       27385000	      2737	00000000	00000013	addi	x0,x0,0	  x0:0x00000000
       27395000	      2738	80001094	00000013	addi	x0,x0,0	  x0:0x00000000
       27405000	      2739	80001098	018adb93	srli	x23,x21,0x18	 x21:0x00000000 x23=0x00000000
       27415000	      2740	8000109c	415bd433	sra	x8,x23,x21	 x23:0x00000000 x21:0x00000000  x8=0x00000000
       27425000	      2741	800010a0	0005d9b3	srl	x19,x11,x0	 x11:0xfffff876  x0:0x00000000 x19=0xfffff876
       27435000	      2742	800010a4	414e5593	srai	x11,x28,0x14	 x28:0xcd7dafe8 x11=0xfffffcd7
       27445000	      2743	800010a8	40ab5513	srai	x10,x22,0xa	 x22:0x744c6000 x10=0x001d1318
       27455000	      2744	800010ac	00000013	addi	x0,x0,0	  x0:0x00000000
       27465000	      2745	800010b0	00525093	srli	x1,x4,0x5	  x4:0x00000000  x1=0x00000000
       27475000	      2746	800010b4	012dd463	bge	x27,x18,800010bc	 x27:0x000000c6 x18:0x00000000
       27485000	      2747	00000000	00000013	addi	x0,x0,0	  x0:0x00000000
       27495000	      2748	800010b8	00000013	addi	x0,x0,0	  x0:0x00000000
       27505000	      2749	800010bc	e1bdfa37	lui	x20,0xe1bdf	 x20=0xe1bdf000
       27515000	      2750	800010c0	03d96863	bltu	x18,x29,800010f0	 x18:0x00000000 x29:0x00000000
       27525000	      2751	800010c4	01293833	sltu	x16,x18,x18	 x18:0x00000000 x18:0x00000000 x16=0x00000000
       27535000	      2752	800010c8	af9c0793	addi	x15,x24,-1287	 x24:0xffe00003 x15=0xffdffafc
       27545000	      2753	800010cc	41598533	sub	x10,x19,x21	 x19:0xfffff876 x21:0x00000000 x10=0xfffff876
       27555000	      2754	800010d0	01f3dc63	bge	x7,x31,800010e8	  x7:0xff00001c x31:0x3282530c
       27565000	      2755	800010d4	0128ed33	or	x26,x17,x18	 x17:0x80000d9c x18:0x00000000 x26=0x80000d9c
       27575000	      2756	800010d8	050de063	bltu	x27,x16,80001118	 x27:0x000000c6 x16:0x00000000
       27585000	      2757	800010dc	df688513	addi	x10,x17,-522	 x17:0x80000d9c x10=0x80000b92
       27595000	      2758	800010e0	b65dff93	andi	x31,x27,-1179	 x27:0x000000c6 x31=0x00000044
       27605000	      2759	800010e4	b1fb64b7	lui	x9,0xb1fb6	  x9=0xb1fb6000
       27615000	      2760	800010e8	010b5463	bge	x22,x16,800010f0	 x22:0x744c6000 x16:0x00000000
       27625000	      2761	00000000	00000013	addi	x0,x0,0	  x0:0x00000000
       27635000	      2762	800010ec	00000013	addi	x0,x0,0	  x0:0x00000000
       27645000	      2763	800010f0	86be6e93	ori	x29,x28,-1941	 x28:0xcd7dafe8 x29=0xffffffeb
       27655000	      2764	800010f4	0128dbb3	srl	x23,x17,x18	 x17:0x80000d9c x18:0x00000000 x23=0x80000d9c
       27665000	      2765	800010f8	92d8b113	sltiu	x2,x17,-1747	 x17:0x80000d9c  x2=0x00000001
       27675000	      2766	800010fc	0107c433	xor	x8,x15,x16	 x15:0xffdffafc x16:0x00000000  x8=0xffdffafc
       27685000	      2767	80001100	7806a513	slti	x10,x13,1920	 x13:0x80009f84 x10=0x00000001
       27695000	      2768	80001104	00a9d4b3	srl	x9,x19,x10	 x19:0xfffff876 x10:0x00000001  x9=0x7ffffc3b
       27705000	      2769	80001108	9a129e37	lui	x28,0x9a129	 x28=0x9a129000
       27715000	      2770	8000110c	00815213	srli	x4,x2,0x8	  x2:0x00000001  x4=0x00000000
       27725000	      2771	80001110	015ae863	bltu	x21,x21,80001120	 x21:0x00000000 x21:0x00000000
       27735000	      2772	80001114	00e6dd93	srli	x27,x13,0xe	 x13:0x80009f84 x27=0x00020002
       27745000	      2773	80001118	00057033	and	x0,x10,x0	 x10:0x00000001  x0:0x00000000
       27755000	      2774	8000111c	0311d063	bge	x3,x17,8000113c	  x3:0x00000000 x17:0x80000d9c
       27765000	      2775	00000000	00000013	addi	x0,x0,0	  x0:0x00000000
       27775000	      2776	80001138	00000013	addi	x0,x0,0	  x0:0x00000000
       27785000	      2777	8000113c	013837b3	sltu	x15,x16,x19	 x16:0x00000000 x19:0xfffff876 x15=0x00000001
       27795000	      2778	80001140	00000013	addi	x0,x0,0	  x0:0x00000000
       27805000	      2779	80001144	01a63e33	sltu	x28,x12,x26	 x12:0x00000000 x26:0x80000d9c x28=0x00000001
       27815000	      2780	80001148	01412ab3	slt	x21,x2,x20	  x2:0x00000001 x20:0xe1bdf000 x21=0x00000000
       27825000	      2781	8000114c	04dd1063	bne	x26,x13,8000118c	 x26:0x80000d9c x13:0x80009f84
       27835000	      2782	00000000	00000013	addi	x0,x0,0	  x0:0x00000000
       27845000	      2783	80001188	00000013	addi	x0,x0,0	  x0:0x00000000
       27855000	      2784	8000118c	003098b3	sll	x17,x1,x3	  x1:0x00000000  x3:0x00000000 x17=0x00000000
       27865000	      2785	80001190	407d5b33	sra	x22,x26,x7	 x26:0x80000d9c  x7:0xff00001c x22=0xfffffff8
       27875000	      2786	80001194	01818bb3	add	x23,x3,x24	  x3:0x00000000 x24:0xffe00003 x23=0xffe00003
       27885000	      2787	80001198	008cf463	bgeu	x25,x8,800011a0	 x25:0x652b7efc  x8:0xffdffafc
       27895000	      2788	8000119c	008d3eb3	sltu	x29,x26,x8	 x26:0x80000d9c  x8:0xffdffafc x29=0x00000001
       27905000	      2789	800011a0	0085d037	lui	x0,0x85d	
       27915000	      2790	800011a4	3ea40513	addi	x10,x8,1002	  x8:0xffdffafc x10=0xffdffee6
       27925000	      2791	800011a8	00010863	beq	x2,x0,800011b8	  x2:0x00000001  x0:0x00000000
       27935000	      2792	800011ac	0177d413	srli	x8,x15,0x17	 x15:0x00000001  x8=0x00000000
       27945000	      2793	800011b0	d4a4bd93	sltiu	x27,x9,-694	  x9:0x7ffffc3b x27=0x00000001
       27955000	      2794	800011b4	7ae36893	ori	x17,x6,1966	  x6:0x80009fa4 x17=0x80009fae
       27965000	      2795	800011b8	0349d663	bge	x19,x20,800011e4	 x19:0xfffff876 x20:0xe1bdf000
       27975000	      2796	00000000	00000013	addi	x0,x0,0	  x0:0x00000000
       27985000	      2797	800011e0	00000013	addi	x0,x0,0	  x0:0x00000000
       27995000	      2798	800011e4	e4dfff13	andi	x30,x31,-435	 x31:0x00000044 x30=0x00000044
       28005000	      2799	800011e8	01cbef33	or	x30,x23,x28	 x23:0xffe00003 x28:0x00000001 x30=0xffe00003
       28015000	      2800	800011ec	91af0413	addi	x8,x30,-1766	 x30:0xffe00003  x8=0xffdff91d
       28025000	      2801	800011f0	02ec4a63	blt	x24,x14,80001224	 x24:0xffe00003 x14:0x80009fc4
       28035000	      2802	800011f4	0090c463	blt	x1,x9,800011fc	  x1:0x00000000  x9:0x7ffffc3b
       28045000	      2803	00000000	00000013	addi	x0,x0,0	  x0:0x00000000
       28055000	      2804	800011f8	00000013	addi	x0,x0,0	  x0:0x00000000
       28065000	      2805	800011fc	0372c063	blt	x5,x23,8000121c	  x5:0x00000000 x23:0xffe00003
       28075000	      2806	80001200	518a2f13	slti	x30,x20,1304	 x20:0xe1bdf000 x30=0x00000001
       28085000	      2807	80001204	f828cf13	xori	x30,x17,-126	 x17:0x80009fae x30=0x7fff602c
       28095000	      2808	80001208	0465c063	blt	x11,x6,80001248	 x11:0xfffffcd7  x6:0x80009fa4
       28105000	      2809	8000120c	048ae663	bltu	x21,x8,80001258	 x21:0x00000000  x8:0xffdff91d
       28115000	      2810	00000000	00000013	addi	x0,x0,0	  x0:0x00000000
       28125000	      2811	80001254	00000013	addi	x0,x0,0	  x0:0x00000000
       28135000	      2812	80001258	00d20b33	add	x22,x4,x13	  x4:0x00000000 x13:0x80009f84 x22=0x80009f84
       28145000	      2813	8000125c	536cf793	andi	x15,x25,1334	 x25:0x652b7efc x15=0x00000434
       28155000	      2814	80001260	03699863	bne	x19,x22,80001290	 x19:0xfffff876 x22:0x80009f84
       28165000	      2815	00000000	00000013	addi	x0,x0,0	  x0:0x00000000
       28175000	      2816	8000128c	00000013	addi	x0,x0,0	  x0:0x00000000
       28185000	      2817	80001290	31622b13	slti	x22,x4,790	  x4:0x00000000 x22=0x00000001
       28195000	      2818	80001294	01519933	sll	x18,x3,x21	  x3:0x00000000 x21:0x00000000 x18=0x00000000
       28205000	      2819	80001298	00c4db33	srl	x22,x9,x12	  x9:0x7ffffc3b x12:0x00000000 x22=0x7ffffc3b
       28215000	      2820	8000129c	00151cb3	sll	x25,x10,x1	 x10:0xffdffee6  x1:0x00000000 x25=0xffdffee6
       28225000	      2821	800012a0	03527663	bgeu	x4,x21,800012cc	  x4:0x00000000 x21:0x00000000
       28235000	      2822	00000000	00000013	addi	x0,x0,0	  x0:0x00000000
       28245000	      2823	800012c8	00000013	addi	x0,x0,0	  x0:0x00000000
       28255000	      2824	800012cc	0143d313	srli	x6,x7,0x14	  x7:0xff00001c  x6=0x00000ff0
       28265000	      2825	800012d0	db517d97	auipc	x27,0xdb517	 x27=0x5b5182cc
       28275000	      2826	800012d4	7dafaa93	slti	x21,x31,2010	 x31:0x00000044 x21=0x00000001
       28285000	      2827	800012d8	00e74633	xor	x12,x14,x14	 x14:0x80009fc4 x14:0x80009fc4 x12=0x00000000
       28295000	      2828	800012dc	01e09d33	sll	x26,x1,x30	  x1:0x00000000 x30:0x7fff602c x26=0x00000000
       28305000	      2829	800012e0	b848ef93	ori	x31,x17,-1148	 x17:0x80009fae x31=0xffffffae
       28315000	      2830	800012e4	004cfe63	bgeu	x25,x4,80001300	 x25:0xffdffee6  x4:0x00000000
       28325000	      2831	00000000	00000013	addi	x0,x0,0	  x0:0x00000000
       28335000	      2832	800012fc	00000013	addi	x0,x0,0	  x0:0x00000000
       28345000	      2833	80001300	0235c663	blt	x11,x3,8000132c	 x11:0xfffffcd7  x3:0x00000000
       28355000	      2834	00000000	00000013	addi	x0,x0,0	  x0:0x00000000
       28365000	      2835	80001328	00000013	addi	x0,x0,0	  x0:0x00000000
       28375000	      2836	8000132c	004854b3	srl	x9,x16,x4	 x16:0x00000000  x4:0x00000000  x9=0x00000000
       28385000	      2837	80001330	00324433	xor	x8,x4,x3	  x4:0x00000000  x3:0x00000000  x8=0x00000000
       28395000	      2838	80001334	01f897b3	sll	x15,x17,x31	 x17:0x80009fae x31:0xffffffae x15=0x27eb8000
       28405000	      2839	80001338	01e6c333	xor	x6,x13,x30	 x13:0x80009f84 x30:0x7fff602c  x6=0xffffffa8
       28415000	      2840	8000133c	0161bbb3	sltu	x23,x3,x22	  x3:0x00000000 x22:0x7ffffc3b x23=0x00000001
       28425000	      2841	80001340	190ae4b7	lui	x9,0x190ae	  x9=0x190ae000
       28435000	      2842	80001344	0002edb3	or	x27,x5,x0	  x5:0x00000000  x0:0x00000000 x27=0x00000000
       28445000	      2843	80001348	00c9fe33	and	x28,x19,x12	 x19:0xfffff876 x12:0x00000000 x28=0x00000000
       28455000	      2844	8000134c	0157ebb3	or	x23,x15,x21	 x15:0x27eb8000 x21:0x00000001 x23=0x27eb8001
       28465000	      2845	80001350	6171cc13	xori	x24,x3,1559	  x3:0x00000000 x24=0x00000617
       28475000	      2846	80001354	d4787813	andi	x16,x16,-697	 x16:0x00000000 x16=0x00000000
       28485000	      2847	80001358	54f51797	auipc	x15,0x54f51	 x15=0xd4f52354
       28495000	      2848	8000135c	3c76bd13	sltiu	x26,x13,967	 x13:0x80009f84 x26=0x00000000
       28505000	      2849	80001360	416e8fb3	sub	x31,x29,x22	 x29:0x00000001 x22:0x7ffffc3b x31=0x800003c6
       28515000	      2850	80001364	012b01b3	add	x3,x22,x18	 x22:0x7ffffc3b x18:0x00000000  x3=0x7ffffc3b
       28525000	      2851	80001368	0136cab3	xor	x21,x13,x19	 x13:0x80009f84 x19:0xfffff876 x21=0x7fff67f2
       28535000	      2852	8000136c	4cd90893	addi	x17,x18,1229	 x18:0x00000000 x17=0x000004cd
       28545000	      2853	80001370	0120af33	slt	x30,x1,x18	  x1:0x00000000 x18:0x00000000 x30=0x00000000
       28555000	      2854	80001374	05e9d263	bge	x19,x30,800013b8	 x19:0xfffff876 x30:0x00000000
       28565000	      2855	80001378	01330463	beq	x6,x19,80001380	  x6:0xffffffa8 x19:0xfffff876
       28575000	      2856	8000137c	ca2f7fb7	lui	x31,0xca2f7	 x31=0xca2f7000
       28585000	      2857	80001380	9f4d8813	addi	x16,x27,-1548	 x27:0x00000000 x16=0xfffff9f4
       28595000	      2858	80001384	0476c663	blt	x13,x7,800013d0	 x13:0x80009f84  x7:0xff00001c
       28605000	      2859	00000000	00000013	addi	x0,x0,0	  x0:0x00000000
       28615000	      2860	800013cc	00000013	addi	x0,x0,0	  x0:0x00000000
       28625000	      2861	800013d0	01d5ad33	slt	x26,x11,x29	 x11:0xfffffcd7 x29:0x00000001 x26=0x00000001
       28635000	      2862	800013d4	00000013	addi	x0,x0,0	  x0:0x00000000
       28645000	      2863	800013d8	03890663	beq	x18,x24,80001404	 x18:0x00000000 x24:0x00000617
       28655000	      2864	800013dc	00bb53b3	srl	x7,x22,x11	 x22:0x7ffffc3b x11:0xfffffcd7  x7=0x000000ff
       28665000	      2865	800013e0	40840fb3	sub	x31,x8,x8	  x8:0x00000000  x8:0x00000000 x31=0x00000000
       28675000	      2866	800013e4	00636463	bltu	x6,x6,800013ec	  x6:0xffffffa8  x6:0xffffffa8
       28685000	      2867	800013e8	015d0863	beq	x26,x21,800013f8	 x26:0x00000001 x21:0x7fff67f2
       28695000	      2868	800013ec	4004dbb3	sra	x23,x9,x0	  x9:0x190ae000  x0:0x00000000 x23=0x190ae000
       28705000	      2869	800013f0	363b88b7	lui	x17,0x363b8	 x17=0x363b8000
       28715000	      2870	800013f4	01af08b3	add	x17,x30,x26	 x30:0x00000000 x26:0x00000001 x17=0x00000001
       28725000	      2871	800013f8	d7d23593	sltiu	x11,x4,-643	  x4:0x00000000 x11=0x00000001
       28735000	      2872	800013fc	221b4b13	xori	x22,x22,545	 x22:0x7ffffc3b x22=0x7ffffe1a
       28745000	      2873	80001400	009b5863	bge	x22,x9,80001410	 x22:0x7ffffe1a  x9:0x190ae000
       28755000	      2874	00000000	00000013	addi	x0,x0,0	  x0:0x00000000
       28765000	      2875	8000140c	00000013	addi	x0,x0,0	  x0:0x00000000
       28775000	      2876	80001410	00c85e63	bge	x16,x12,8000142c	 x16:0xfffff9f4 x12:0x00000000
       28785000	      2877	80001414	018969b3	or	x19,x18,x24	 x18:0x00000000 x24:0x00000617 x19=0x00000617
       28795000	      2878	80001418	03ecc663	blt	x25,x30,80001444	 x25:0xffdffee6 x30:0x00000000
       28805000	      2879	00000000	00000013	addi	x0,x0,0	  x0:0x00000000
       28815000	      2880	80001440	00000013	addi	x0,x0,0	  x0:0x00000000
       28825000	      2881	80001444	49a26613	ori	x12,x4,1178	  x4:0x00000000 x12=0x0000049a
       28835000	      2882	80001448	c4bbf613	andi	x12,x23,-949	 x23:0x190ae000 x12=0x190ae000
       28845000	      2883	8000144c	4b1364b7	lui	x9,0x4b136	  x9=0x4b136000
       28855000	      2884	80001450	ea43fb13	andi	x22,x7,-348	  x7:0x000000ff x22=0x000000a4
       28865000	      2885	80001454	3f05dd17	auipc	x26,0x3f05d	 x26=0xbf05e450
       28875000	      2886	80001458	00e46633	or	x12,x8,x14	  x8:0x00000000 x14:0x80009fc4 x12=0x80009fc4
       28885000	      2887	8000145c	01b98433	add	x8,x19,x27	 x19:0x00000617 x27:0x00000000  x8=0x00000617
       28895000	      2888	80001460	04416e63	bltu	x2,x4,800014bc	  x2:0x00000001  x4:0x00000000
       28905000	      2889	80001464	00003c17	auipc	x24,0x3	 x24=0x80004460
       28915000	      2890	80001468	8b8c0c13	addi	x24,x24,-1864	 x24:0x80004460 x24=0x80003d18
       28925000	      2891	8000146c	41f25193	srai	x3,x4,0x1f	  x4:0x00000000  x3=0x00000000
       28935000	      2892	80001470	010f49b3	xor	x19,x30,x16	 x30:0x00000000 x16:0xfffff9f4 x19=0xfffff9f4
       28945000	      2893	80001474	e5220113	addi	x2,x4,-430	  x4:0x00000000  x2=0xfffffe52
       28955000	      2894	80001478	284c0c13	addi	x24,x24,644	 x24:0x80003d18 x24=0x80003f9c
       28965000	      2895	8000147c	01493ab3	sltu	x21,x18,x20	 x18:0x00000000 x20:0xe1bdf000 x21=0x00000001
       28975000	      2896	80001480	004b5493	srli	x9,x22,0x4	 x22:0x000000a4  x9=0x0000000a
       28985000	      2897	80001484	be807b93	andi	x23,x0,-1048	  x0:0x00000000 x23=0x00000000
       28995000	      2898	80001488	d7dc0367	jalr	x6,x24,-643	 x24:0x80003f9c  x6=0x80001488
       29005000	      2899	00000000	00000013	addi	x0,x0,0	  x0:0x00000000
       29015000	      2900	80003d18	00000013	addi	x0,x0,0	  x0:0x00000000
       29025000	      2901	80003d1c	9653e393	ori	x7,x7,-1691	  x7:0x000000ff  x7=0xfffff9ff
       29035000	      2902	80003d20	fc194593	xori	x11,x18,-63	 x18:0x00000000 x11=0xffffffc1
       29045000	      2903	80003d24	018d5663	bge	x26,x24,80003d30	 x26:0xbf05e450 x24:0x80003f9c
       29055000	      2904	00000000	00000013	addi	x0,x0,0	  x0:0x00000000
       29065000	      2905	80003d2c	00000013	addi	x0,x0,0	  x0:0x00000000
       29075000	      2906	80003d30	fc468693	addi	x13,x13,-60	 x13:0x80009f84 x13=0x80009f48
       29085000	      2907	80003d34	0ade3db7	lui	x27,0xade3	 x27=0x0ade3000
       29095000	      2908	80003d38	0066a223	sw	x6,4(x13)	 x13:0x80009f48  x6:0x80001488 PA:0x80009f4c
       29105000	      2909	80003d3c	9e3d2493	slti	x9,x26,-1565	 x26:0xbf05e450  x9=0x00000001
       29115000	      2910	80003d40	012199b3	sll	x19,x3,x18	  x3:0x00000000 x18:0x00000000 x19=0x00000000
       29125000	      2911	80003d44	e6f08a93	addi	x21,x1,-401	  x1:0x00000000 x21=0xfffffe6f
       29135000	      2912	80003d48	00000e17	auipc	x28,0x0	 x28=0x80003d44
       29145000	      2913	80003d4c	794e0e13	addi	x28,x28,1940	 x28:0x80003d44 x28=0x800044d8
       29155000	      2914	80003d50	01caaab3	slt	x21,x21,x28	 x21:0xfffffe6f x28:0x800044d8 x21=0x00000000
       29165000	      2915	80003d54	401c0a33	sub	x20,x24,x1	 x24:0x80003f9c  x1:0x00000000 x20=0x80003f9c
       29175000	      2916	80003d58	9ac92b93	slti	x23,x18,-1620	 x18:0x00000000 x23=0x00000000
       29185000	      2917	80003d5c	b8970093	addi	x1,x14,-1143	 x14:0x80009fc4  x1=0x80009b4d
       29195000	      2918	80003d60	e6ae0e13	addi	x28,x28,-406	 x28:0x800044d8 x28=0x80004342
       29205000	      2919	80003d64	00190433	add	x8,x18,x1	 x18:0x00000000  x1:0x80009b4d  x8=0x80009b4d
       29215000	      2920	80003d68	00459463	bne	x11,x4,80003d70	 x11:0xffffffc1  x4:0x00000000
       29225000	      2921	00000000	00000013	addi	x0,x0,0	  x0:0x00000000
       29235000	      2922	80003d6c	00000013	addi	x0,x0,0	  x0:0x00000000
       29245000	      2923	80003d70	196e0367	jalr	x6,x28,406	 x28:0x80004342  x6=0x80003d70
       29255000	      2924	00000000	00000013	addi	x0,x0,0	  x0:0x00000000
       29265000	      2925	800044d8	00000013	addi	x0,x0,0	  x0:0x00000000
       29275000	      2926	800044dc	ba03ee13	ori	x28,x7,-1120	  x7:0xfffff9ff x28=0xfffffbff
       29285000	      2927	800044e0	fe468693	addi	x13,x13,-28	 x13:0x80009f48 x13=0x80009f2c
       29295000	      2928	800044e4	414a8eb3	sub	x29,x21,x20	 x21:0x00000000 x20:0x80003f9c x29=0x7fffc064
       29305000	      2929	800044e8	a70e6d13	ori	x26,x28,-1424	 x28:0xfffffbff x26=0xfffffbff
       29315000	      2930	800044ec	1c1d7f93	andi	x31,x26,449	 x26:0xfffffbff x31=0x000001c1
       29325000	      2931	800044f0	00f3b633	sltu	x12,x7,x15	  x7:0xfffff9ff x15:0xd4f52354 x12=0x00000000
       29335000	      2932	800044f4	41c450b3	sra	x1,x8,x28	  x8:0x80009b4d x28:0xfffffbff  x1=0xffffffff
       29345000	      2933	800044f8	01c93e33	sltu	x28,x18,x28	 x18:0x00000000 x28:0xfffffbff x28=0x00000001
       29355000	      2934	800044fc	dfe90197	auipc	x3,0xdfe90	  x3=0x5fe944f8
       29365000	      2935	80004500	0066a223	sw	x6,4(x13)	 x13:0x80009f2c  x6:0x80003d70 PA:0x80009f30
       29375000	      2936	80004504	00cac533	xor	x10,x21,x12	 x21:0x00000000 x12:0x00000000 x10=0x00000000
       29385000	      2937	80004508	6c2e2013	slti	x0,x28,1730	 x28:0x00000001
       29395000	      2938	8000450c	00946c33	or	x24,x8,x9	  x8:0x80009b4d  x9:0x00000001 x24=0x80009b4d
       29405000	      2939	80004510	409301b3	sub	x3,x6,x9	  x6:0x80003d70  x9:0x00000001  x3=0x80003d6f
       29415000	      2940	80004514	41bdd213	srai	x4,x27,0x1b	 x27:0x0ade3000  x4=0x00000001
       29425000	      2941	80004518	561e2013	slti	x0,x28,1377	 x28:0x00000001
       29435000	      2942	8000451c	00000013	addi	x0,x0,0	  x0:0x00000000
       29445000	      2943	80004520	007c49b3	xor	x19,x24,x7	 x24:0x80009b4d  x7:0xfffff9ff x19=0x7fff62b2
       29455000	      2944	80004524	a39ff36f	jal	x6,80004524	  x6=0x80004524
       29465000	      2945	00000000	00000013	addi	x0,x0,0	  x0:0x00000000
       29475000	      2946	80003f58	00000013	addi	x0,x0,0	  x0:0x00000000
       29485000	      2947	80003f5c	000c9813	slli	x16,x25,0x0	 x25:0xffdffee6 x16=0xffdffee6
       29495000	      2948	80003f60	0026fbb3	and	x23,x13,x2	 x13:0x80009f2c  x2:0xfffffe52 x23=0x80009e00
       29505000	      2949	80003f64	fc468693	addi	x13,x13,-60	 x13:0x80009f2c x13=0x80009ef0
       29515000	      2950	80003f68	00800eb3	add	x29,x0,x8	  x0:0x00000000  x8:0x80009b4d x29=0x80009b4d
       29525000	      2951	80003f6c	0066a223	sw	x6,4(x13)	 x13:0x80009ef0  x6:0x80004524 PA:0x80009ef4
       29535000	      2952	80003f70	01cbffb3	and	x31,x23,x28	 x23:0x80009e00 x28:0x00000001 x31=0x00000000
       29545000	      2953	80003f74	0a6d8993	addi	x19,x27,166	 x27:0x0ade3000 x19=0x0ade30a6
       29555000	      2954	80003f78	0177b833	sltu	x16,x15,x23	 x15:0xd4f52354 x23:0x80009e00 x16=0x00000000
       29565000	      2955	80003f7c	03c0036f	jal	x6,80003f7c	  x6=0x80003f7c
       29575000	      2956	00000000	00000013	addi	x0,x0,0	  x0:0x00000000
       29585000	      2957	80003fb4	00000013	addi	x0,x0,0	  x0:0x00000000
       29595000	      2958	80003fb8	00c000ef	jal	x1,80003fb8	  x1=0x80003fb8
       29605000	      2959	00000000	00000013	addi	x0,x0,0	  x0:0x00000000
       29615000	      2960	80003fc0	00000013	addi	x0,x0,0	  x0:0x00000000
       29625000	      2961	80003fc4	fc5ff0ef	jal	x1,80003fc4	  x1=0x80003fc4
       29635000	      2962	00000000	00000013	addi	x0,x0,0	  x0:0x00000000
       29645000	      2963	80003f84	00000013	addi	x0,x0,0	  x0:0x00000000
       29655000	      2964	80003f88	0100026f	jal	x4,80003f88	  x4=0x80003f88
       29665000	      2965	00000000	00000013	addi	x0,x0,0	  x0:0x00000000
       29675000	      2966	80003f94	00000013	addi	x0,x0,0	  x0:0x00000000
       29685000	      2967	80003f98	ff5ff0ef	jal	x1,80003f98	  x1=0x80003f98
       29695000	      2968	00000000	00000013	addi	x0,x0,0	  x0:0x00000000
       29705000	      2969	80003f88	00000013	addi	x0,x0,0	  x0:0x00000000
       29715000	      2970	80003f8c	010000ef	jal	x1,80003f8c	  x1=0x80003f8c
       29725000	      2971	00000000	00000013	addi	x0,x0,0	  x0:0x00000000
       29735000	      2972	80003f98	00000013	addi	x0,x0,0	  x0:0x00000000
       29745000	      2973	80003f9c	ff9ff0ef	jal	x1,80003f9c	  x1=0x80003f9c
       29755000	      2974	00000000	00000013	addi	x0,x0,0	  x0:0x00000000
       29765000	      2975	80003f90	00000013	addi	x0,x0,0	  x0:0x00000000
       29775000	      2976	80003f94	02c0016f	jal	x2,80003f94	  x2=0x80003f94
       29785000	      2977	00000000	00000013	addi	x0,x0,0	  x0:0x00000000
       29795000	      2978	80003fbc	00000013	addi	x0,x0,0	  x0:0x00000000
       29805000	      2979	80003fc0	ff5ff0ef	jal	x1,80003fc0	  x1=0x80003fc0
       29815000	      2980	00000000	00000013	addi	x0,x0,0	  x0:0x00000000
       29825000	      2981	80003fb0	00000013	addi	x0,x0,0	  x0:0x00000000
       29835000	      2982	80003fb4	fd1ff36f	jal	x6,80003fb4	  x6=0x80003fb4
       29845000	      2983	00000000	00000013	addi	x0,x0,0	  x0:0x00000000
       29855000	      2984	80003f80	00000013	addi	x0,x0,0	  x0:0x00000000
       29865000	      2985	80003f84	028000ef	jal	x1,80003f84	  x1=0x80003f84
       29875000	      2986	00000000	00000013	addi	x0,x0,0	  x0:0x00000000
       29885000	      2987	80003fa8	00000013	addi	x0,x0,0	  x0:0x00000000
       29895000	      2988	80003fac	fd5ff0ef	jal	x1,80003fac	  x1=0x80003fac
       29905000	      2989	00000000	00000013	addi	x0,x0,0	  x0:0x00000000
       29915000	      2990	80003f7c	00000013	addi	x0,x0,0	  x0:0x00000000
       29925000	      2991	80003f80	0200036f	jal	x6,80003f80	  x6=0x80003f80
       29935000	      2992	00000000	00000013	addi	x0,x0,0	  x0:0x00000000
       29945000	      2993	80003f9c	00000013	addi	x0,x0,0	  x0:0x00000000
       29955000	      2994	80003fa0	0040036f	jal	x6,80003fa0	  x6=0x80003fa0
       29965000	      2995	00000000	00000013	addi	x0,x0,0	  x0:0x00000000
       29975000	      2996	80003fa0	00000013	addi	x0,x0,0	  x0:0x00000000
       29985000	      2997	80003fa4	018000ef	jal	x1,80003fa4	  x1=0x80003fa4
       29995000	      2998	00000000	00000013	addi	x0,x0,0	  x0:0x00000000
       30005000	      2999	80003fb8	00000013	addi	x0,x0,0	  x0:0x00000000
       30015000	      3000	80003fbc	fd5ff0ef	jal	x1,80003fbc	  x1=0x80003fbc
       30025000	      3001	00000000	00000013	addi	x0,x0,0	  x0:0x00000000
       30035000	      3002	80003f8c	00000013	addi	x0,x0,0	  x0:0x00000000
       30045000	      3003	80003f90	018000ef	jal	x1,80003f90	  x1=0x80003f90
       30055000	      3004	00000000	00000013	addi	x0,x0,0	  x0:0x00000000
       30065000	      3005	80003fa4	00000013	addi	x0,x0,0	  x0:0x00000000
       30075000	      3006	80003fa8	00800bef	jal	x23,80003fa8	 x23=0x80003fa8
       30085000	      3007	00000000	00000013	addi	x0,x0,0	  x0:0x00000000
       30095000	      3008	80003fac	00000013	addi	x0,x0,0	  x0:0x00000000
       30105000	      3009	80003fb0	018000ef	jal	x1,80003fb0	  x1=0x80003fb0
       30115000	      3010	00000000	00000013	addi	x0,x0,0	  x0:0x00000000
       30125000	      3011	80003fc4	00000013	addi	x0,x0,0	  x0:0x00000000
       30135000	      3012	80003fc8	2f0dc393	xori	x7,x27,752	 x27:0x0ade3000  x7=0x0ade32f0
       30145000	      3013	80003fcc	0040036f	jal	x6,80003fcc	  x6=0x80003fcc
       30155000	      3014	00000000	00000013	addi	x0,x0,0	  x0:0x00000000
       30165000	      3015	80003fcc	00000013	addi	x0,x0,0	  x0:0x00000000
       30175000	      3016	80003fd0	0380016f	jal	x2,80003fd0	  x2=0x80003fd0
       30185000	      3017	00000000	00000013	addi	x0,x0,0	  x0:0x00000000
       30195000	      3018	80004004	00000013	addi	x0,x0,0	  x0:0x00000000
       30205000	      3019	80004008	fd1ff0ef	jal	x1,80004008	  x1=0x80004008
       30215000	      3020	00000000	00000013	addi	x0,x0,0	  x0:0x00000000
       30225000	      3021	80003fd4	00000013	addi	x0,x0,0	  x0:0x00000000
       30235000	      3022	80003fd8	018000ef	jal	x1,80003fd8	  x1=0x80003fd8
       30245000	      3023	00000000	00000013	addi	x0,x0,0	  x0:0x00000000
       30255000	      3024	80003fec	00000013	addi	x0,x0,0	  x0:0x00000000
       30265000	      3025	80003ff0	03c00def	jal	x27,80003ff0	 x27=0x80003ff0
       30275000	      3026	00000000	00000013	addi	x0,x0,0	  x0:0x00000000
       30285000	      3027	80004028	00000013	addi	x0,x0,0	  x0:0x00000000
       30295000	      3028	8000402c	ff9ff0ef	jal	x1,8000402c	  x1=0x8000402c
       30305000	      3029	00000000	00000013	addi	x0,x0,0	  x0:0x00000000
       30315000	      3030	80004020	00000013	addi	x0,x0,0	  x0:0x00000000
       30325000	      3031	80004024	fd1ff0ef	jal	x1,80004024	  x1=0x80004024
       30335000	      3032	00000000	00000013	addi	x0,x0,0	  x0:0x00000000
       30345000	      3033	80003ff0	00000013	addi	x0,x0,0	  x0:0x00000000
       30355000	      3034	80003ff4	028001ef	jal	x3,80003ff4	  x3=0x80003ff4
       30365000	      3035	00000000	00000013	addi	x0,x0,0	  x0:0x00000000
       30375000	      3036	80004018	00000013	addi	x0,x0,0	  x0:0x00000000
       30385000	      3037	8000401c	fd1ff0ef	jal	x1,8000401c	  x1=0x8000401c
       30395000	      3038	00000000	00000013	addi	x0,x0,0	  x0:0x00000000
       30405000	      3039	80003fe8	00000013	addi	x0,x0,0	  x0:0x00000000
       30415000	      3040	80003fec	ff9ffa6f	jal	x20,80003fec	 x20=0x80003fec
       30425000	      3041	00000000	00000013	addi	x0,x0,0	  x0:0x00000000
       30435000	      3042	80003fe0	00000013	addi	x0,x0,0	  x0:0x00000000
       30445000	      3043	80003fe4	030001ef	jal	x3,80003fe4	  x3=0x80003fe4
       30455000	      3044	00000000	00000013	addi	x0,x0,0	  x0:0x00000000
       30465000	      3045	80004010	00000013	addi	x0,x0,0	  x0:0x00000000
       30475000	      3046	80004014	fd5ff86f	jal	x16,80004014	 x16=0x80004014
       30485000	      3047	00000000	00000013	addi	x0,x0,0	  x0:0x00000000
       30495000	      3048	80003fe4	00000013	addi	x0,x0,0	  x0:0x00000000
       30505000	      3049	80003fe8	fedff0ef	jal	x1,80003fe8	  x1=0x80003fe8
       30515000	      3050	00000000	00000013	addi	x0,x0,0	  x0:0x00000000
       30525000	      3051	80003fd0	00000013	addi	x0,x0,0	  x0:0x00000000
       30535000	      3052	80003fd4	04c000ef	jal	x1,80003fd4	  x1=0x80003fd4
       30545000	      3053	00000000	00000013	addi	x0,x0,0	  x0:0x00000000
       30555000	      3054	8000401c	00000013	addi	x0,x0,0	  x0:0x00000000
       30565000	      3055	80004020	fc1ff36f	jal	x6,80004020	  x6=0x80004020
       30575000	      3056	00000000	00000013	addi	x0,x0,0	  x0:0x00000000
       30585000	      3057	80003fdc	00000013	addi	x0,x0,0	  x0:0x00000000
       30595000	      3058	80003fe0	01800def	jal	x27,80003fe0	 x27=0x80003fe0
       30605000	      3059	00000000	00000013	addi	x0,x0,0	  x0:0x00000000
       30615000	      3060	80003ff4	00000013	addi	x0,x0,0	  x0:0x00000000
       30625000	      3061	80003ff8	030000ef	jal	x1,80003ff8	  x1=0x80003ff8
       30635000	      3062	00000000	00000013	addi	x0,x0,0	  x0:0x00000000
       30645000	      3063	80004024	00000013	addi	x0,x0,0	  x0:0x00000000
       30655000	      3064	80004028	fe5ffc6f	jal	x24,80004028	 x24=0x80004028
       30665000	      3065	00000000	00000013	addi	x0,x0,0	  x0:0x00000000
       30675000	      3066	80004008	00000013	addi	x0,x0,0	  x0:0x00000000
       30685000	      3067	8000400c	ff9ffa6f	jal	x20,8000400c	 x20=0x8000400c
       30695000	      3068	00000000	00000013	addi	x0,x0,0	  x0:0x00000000
       30705000	      3069	80004000	00000013	addi	x0,x0,0	  x0:0x00000000
       30715000	      3070	80004004	01400aef	jal	x21,80004004	 x21=0x80004004
       30725000	      3071	00000000	00000013	addi	x0,x0,0	  x0:0x00000000
       30735000	      3072	80004014	00000013	addi	x0,x0,0	  x0:0x00000000
       30745000	      3073	80004018	fe5ff0ef	jal	x1,80004018	  x1=0x80004018
       30755000	      3074	00000000	00000013	addi	x0,x0,0	  x0:0x00000000
       30765000	      3075	80003ff8	00000013	addi	x0,x0,0	  x0:0x00000000
       30775000	      3076	80003ffc	004000ef	jal	x1,80003ffc	  x1=0x80003ffc
       30785000	      3077	00000000	00000013	addi	x0,x0,0	  x0:0x00000000
       30795000	      3078	80003ffc	00000013	addi	x0,x0,0	  x0:0x00000000
       30805000	      3079	80004000	fddff1ef	jal	x3,80004000	  x3=0x80004000
       30815000	      3080	00000000	00000013	addi	x0,x0,0	  x0:0x00000000
       30825000	      3081	80003fd8	00000013	addi	x0,x0,0	  x0:0x00000000
       30835000	      3082	80003fdc	03400fef	jal	x31,80003fdc	 x31=0x80003fdc
       30845000	      3083	00000000	00000013	addi	x0,x0,0	  x0:0x00000000
       30855000	      3084	8000400c	00000013	addi	x0,x0,0	  x0:0x00000000
       30865000	      3085	80004010	0200036f	jal	x6,80004010	  x6=0x80004010
       30875000	      3086	00000000	00000013	addi	x0,x0,0	  x0:0x00000000
       30885000	      3087	8000402c	00000013	addi	x0,x0,0	  x0:0x00000000
       30895000	      3088	80004030	00986f33	or	x30,x16,x9	 x16:0x80004014  x9:0x00000001 x30=0x80004015
       30905000	      3089	80004034	01c0036f	jal	x6,80004034	  x6=0x80004034
       30915000	      3090	00000000	00000013	addi	x0,x0,0	  x0:0x00000000
       30925000	      3091	8000404c	00000013	addi	x0,x0,0	  x0:0x00000000
       30935000	      3092	80004050	008000ef	jal	x1,80004050	  x1=0x80004050
       30945000	      3093	00000000	00000013	addi	x0,x0,0	  x0:0x00000000
       30955000	      3094	80004054	00000013	addi	x0,x0,0	  x0:0x00000000
       30965000	      3095	80004058	ff5ff0ef	jal	x1,80004058	  x1=0x80004058
       30975000	      3096	00000000	00000013	addi	x0,x0,0	  x0:0x00000000
       30985000	      3097	80004048	00000013	addi	x0,x0,0	  x0:0x00000000
       30995000	      3098	8000404c	ffdff7ef	jal	x15,8000404c	 x15=0x8000404c
       31005000	      3099	00000000	00000013	addi	x0,x0,0	  x0:0x00000000
       31015000	      3100	80004044	00000013	addi	x0,x0,0	  x0:0x00000000
       31025000	      3101	80004048	ffdff0ef	jal	x1,80004048	  x1=0x80004048
       31035000	      3102	00000000	00000013	addi	x0,x0,0	  x0:0x00000000
       31045000	      3103	80004040	00000013	addi	x0,x0,0	  x0:0x00000000
       31055000	      3104	80004044	ff9ff36f	jal	x6,80004044	  x6=0x80004044
       31065000	      3105	00000000	00000013	addi	x0,x0,0	  x0:0x00000000
       31075000	      3106	80004038	00000013	addi	x0,x0,0	  x0:0x00000000
       31085000	      3107	8000403c	028000ef	jal	x1,8000403c	  x1=0x8000403c
       31095000	      3108	00000000	00000013	addi	x0,x0,0	  x0:0x00000000
       31105000	      3109	80004060	00000013	addi	x0,x0,0	  x0:0x00000000
       31115000	      3110	80004064	ff1ff0ef	jal	x1,80004064	  x1=0x80004064
       31125000	      3111	00000000	00000013	addi	x0,x0,0	  x0:0x00000000
       31135000	      3112	80004050	00000013	addi	x0,x0,0	  x0:0x00000000
       31145000	      3113	80004054	fe5ff0ef	jal	x1,80004054	  x1=0x80004054
       31155000	      3114	00000000	00000013	addi	x0,x0,0	  x0:0x00000000
       31165000	      3115	80004034	00000013	addi	x0,x0,0	  x0:0x00000000
       31175000	      3116	80004038	0240026f	jal	x4,80004038	  x4=0x80004038
       31185000	      3117	00000000	00000013	addi	x0,x0,0	  x0:0x00000000
       31195000	      3118	80004058	00000013	addi	x0,x0,0	  x0:0x00000000
       31205000	      3119	8000405c	fe5ff0ef	jal	x1,8000405c	  x1=0x8000405c
       31215000	      3120	00000000	00000013	addi	x0,x0,0	  x0:0x00000000
       31225000	      3121	8000403c	00000013	addi	x0,x0,0	  x0:0x00000000
       31235000	      3122	80004040	0200026f	jal	x4,80004040	  x4=0x80004040
       31245000	      3123	00000000	00000013	addi	x0,x0,0	  x0:0x00000000
       31255000	      3124	8000405c	00000013	addi	x0,x0,0	  x0:0x00000000
       31265000	      3125	80004060	008000ef	jal	x1,80004060	  x1=0x80004060
       31275000	      3126	00000000	00000013	addi	x0,x0,0	  x0:0x00000000
       31285000	      3127	80004064	00000013	addi	x0,x0,0	  x0:0x00000000
       31295000	      3128	80004068	006e79b3	and	x19,x28,x6	 x28:0x00000001  x6:0x80004044 x19=0x00000000
       31305000	      3129	8000406c	0740036f	jal	x6,8000406c	  x6=0x8000406c
       31315000	      3130	00000000	00000013	addi	x0,x0,0	  x0:0x00000000
       31325000	      3131	800040dc	00000013	addi	x0,x0,0	  x0:0x00000000
       31335000	      3132	800040e0	fc9ff36f	jal	x6,800040e0	  x6=0x800040e0
       31345000	      3133	00000000	00000013	addi	x0,x0,0	  x0:0x00000000
       31355000	      3134	800040a4	00000013	addi	x0,x0,0	  x0:0x00000000
       31365000	      3135	800040a8	02c000ef	jal	x1,800040a8	  x1=0x800040a8
       31375000	      3136	00000000	00000013	addi	x0,x0,0	  x0:0x00000000
       31385000	      3137	800040d0	00000013	addi	x0,x0,0	  x0:0x00000000
       31395000	      3138	800040d4	fadff0ef	jal	x1,800040d4	  x1=0x800040d4
       31405000	      3139	00000000	00000013	addi	x0,x0,0	  x0:0x00000000
       31415000	      3140	8000407c	00000013	addi	x0,x0,0	  x0:0x00000000
       31425000	      3141	80004080	020000ef	jal	x1,80004080	  x1=0x80004080
       31435000	      3142	00000000	00000013	addi	x0,x0,0	  x0:0x00000000
       31445000	      3143	8000409c	00000013	addi	x0,x0,0	  x0:0x00000000
       31455000	      3144	800040a0	010000ef	jal	x1,800040a0	  x1=0x800040a0
       31465000	      3145	00000000	00000013	addi	x0,x0,0	  x0:0x00000000
       31475000	      3146	800040ac	00000013	addi	x0,x0,0	  x0:0x00000000
       31485000	      3147	800040b0	fe1ff0ef	jal	x1,800040b0	  x1=0x800040b0
       31495000	      3148	00000000	00000013	addi	x0,x0,0	  x0:0x00000000
       31505000	      3149	8000408c	00000013	addi	x0,x0,0	  x0:0x00000000
       31515000	      3150	80004090	0340096f	jal	x18,80004090	 x18=0x80004090
       31525000	      3151	00000000	00000013	addi	x0,x0,0	  x0:0x00000000
       31535000	      3152	800040c0	00000013	addi	x0,x0,0	  x0:0x00000000
       31545000	      3153	800040c4	ff9ffe6f	jal	x28,800040c4	 x28=0x800040c4
       31555000	      3154	00000000	00000013	addi	x0,x0,0	  x0:0x00000000
       31565000	      3155	800040b8	00000013	addi	x0,x0,0	  x0:0x00000000
       31575000	      3156	800040bc	fd1ff0ef	jal	x1,800040bc	  x1=0x800040bc
       31585000	      3157	00000000	00000013	addi	x0,x0,0	  x0:0x00000000
       31595000	      3158	80004088	00000013	addi	x0,x0,0	  x0:0x00000000
       31605000	      3159	8000408c	ffdff0ef	jal	x1,8000408c	  x1=0x8000408c
       31615000	      3160	00000000	00000013	addi	x0,x0,0	  x0:0x00000000
       31625000	      3161	80004084	00000013	addi	x0,x0,0	  x0:0x00000000
       31635000	      3162	80004088	ffdff36f	jal	x6,80004088	  x6=0x80004088
       31645000	      3163	00000000	00000013	addi	x0,x0,0	  x0:0x00000000
       31655000	      3164	80004080	00000013	addi	x0,x0,0	  x0:0x00000000
       31665000	      3165	80004084	0440036f	jal	x6,80004084	  x6=0x80004084
       31675000	      3166	00000000	00000013	addi	x0,x0,0	  x0:0x00000000
       31685000	      3167	800040c4	00000013	addi	x0,x0,0	  x0:0x00000000
       31695000	      3168	800040c8	01c003ef	jal	x7,800040c8	  x7=0x800040c8
       31705000	      3169	00000000	00000013	addi	x0,x0,0	  x0:0x00000000
       31715000	      3170	800040e0	00000013	addi	x0,x0,0	  x0:0x00000000
       31725000	      3171	800040e4	fe9ff26f	jal	x4,800040e4	  x4=0x800040e4
       31735000	      3172	00000000	00000013	addi	x0,x0,0	  x0:0x00000000
       31745000	      3173	800040c8	00000013	addi	x0,x0,0	  x0:0x00000000
       31755000	      3174	800040cc	fe9ffe6f	jal	x28,800040cc	 x28=0x800040cc
       31765000	      3175	00000000	00000013	addi	x0,x0,0	  x0:0x00000000
       31775000	      3176	800040b0	00000013	addi	x0,x0,0	  x0:0x00000000
       31785000	      3177	800040b4	ff9ff1ef	jal	x3,800040b4	  x3=0x800040b4
       31795000	      3178	00000000	00000013	addi	x0,x0,0	  x0:0x00000000
       31805000	      3179	800040a8	00000013	addi	x0,x0,0	  x0:0x00000000
       31815000	      3180	800040ac	fc9ff0ef	jal	x1,800040ac	  x1=0x800040ac
       31825000	      3181	00000000	00000013	addi	x0,x0,0	  x0:0x00000000
       31835000	      3182	80004070	00000013	addi	x0,x0,0	  x0:0x00000000
       31845000	      3183	80004074	04c00a6f	jal	x20,80004074	 x20=0x80004074
       31855000	      3184	00000000	00000013	addi	x0,x0,0	  x0:0x00000000
       31865000	      3185	800040bc	00000013	addi	x0,x0,0	  x0:0x00000000
       31875000	      3186	800040c0	fb9ff36f	jal	x6,800040c0	  x6=0x800040c0
       31885000	      3187	00000000	00000013	addi	x0,x0,0	  x0:0x00000000
       31895000	      3188	80004074	00000013	addi	x0,x0,0	  x0:0x00000000
       31905000	      3189	80004078	024000ef	jal	x1,80004078	  x1=0x80004078
       31915000	      3190	00000000	00000013	addi	x0,x0,0	  x0:0x00000000
       31925000	      3191	80004098	00000013	addi	x0,x0,0	  x0:0x00000000
       31935000	      3192	8000409c	ff9ff66f	jal	x12,8000409c	 x12=0x8000409c
       31945000	      3193	00000000	00000013	addi	x0,x0,0	  x0:0x00000000
       31955000	      3194	80004090	00000013	addi	x0,x0,0	  x0:0x00000000
       31965000	      3195	80004094	fddff36f	jal	x6,80004094	  x6=0x80004094
       31975000	      3196	00000000	00000013	addi	x0,x0,0	  x0:0x00000000
       31985000	      3197	8000406c	00000013	addi	x0,x0,0	  x0:0x00000000
       31995000	      3198	80004070	06c0036f	jal	x6,80004070	  x6=0x80004070
       32005000	      3199	00000000	00000013	addi	x0,x0,0	  x0:0x00000000
       32015000	      3200	800040d8	00000013	addi	x0,x0,0	  x0:0x00000000
       32025000	      3201	800040dc	fbdff0ef	jal	x1,800040dc	  x1=0x800040dc
       32035000	      3202	00000000	00000013	addi	x0,x0,0	  x0:0x00000000
       32045000	      3203	80004094	00000013	addi	x0,x0,0	  x0:0x00000000
       32055000	      3204	80004098	00c0026f	jal	x4,80004098	  x4=0x80004098
       32065000	      3205	00000000	00000013	addi	x0,x0,0	  x0:0x00000000
       32075000	      3206	800040a0	00000013	addi	x0,x0,0	  x0:0x00000000
       32085000	      3207	800040a4	034001ef	jal	x3,800040a4	  x3=0x800040a4
       32095000	      3208	00000000	00000013	addi	x0,x0,0	  x0:0x00000000
       32105000	      3209	800040d4	00000013	addi	x0,x0,0	  x0:0x00000000
       32115000	      3210	800040d8	fe1ff0ef	jal	x1,800040d8	  x1=0x800040d8
       32125000	      3211	00000000	00000013	addi	x0,x0,0	  x0:0x00000000
       32135000	      3212	800040b4	00000013	addi	x0,x0,0	  x0:0x00000000
       32145000	      3213	800040b8	fc5ff16f	jal	x2,800040b8	  x2=0x800040b8
       32155000	      3214	00000000	00000013	addi	x0,x0,0	  x0:0x00000000
       32165000	      3215	80004078	00000013	addi	x0,x0,0	  x0:0x00000000
       32175000	      3216	8000407c	05400eef	jal	x29,8000407c	 x29=0x8000407c
       32185000	      3217	00000000	00000013	addi	x0,x0,0	  x0:0x00000000
       32195000	      3218	800040cc	00000013	addi	x0,x0,0	  x0:0x00000000
       32205000	      3219	800040d0	01800a6f	jal	x20,800040d0	 x20=0x800040d0
       32215000	      3220	00000000	00000013	addi	x0,x0,0	  x0:0x00000000
       32225000	      3221	800040e4	00000013	addi	x0,x0,0	  x0:0x00000000
       32235000	      3222	800040e8	833fad97	auipc	x27,0x833fa	 x27=0x033fe0e4
       32245000	      3223	800040ec	6b268213	addi	x4,x13,1714	 x13:0x80009ef0  x4=0x8000a5a2
       32255000	      3224	800040f0	41585cb3	sra	x25,x16,x21	 x16:0x80004014 x21:0x80004004 x25=0xf8000401
       32265000	      3225	800040f4	f773ff93	andi	x31,x7,-137	  x7:0x800040c8 x31=0x80004040
       32275000	      3226	800040f8	9f5e4d13	xori	x26,x28,-1547	 x28:0x800040cc x26=0x7fffb939
       32285000	      3227	800040fc	003bbf33	sltu	x30,x23,x3	 x23:0x80003fa8  x3:0x800040a4 x30=0x00000001
       32295000	      3228	80004100	01bade93	srli	x29,x21,0x1b	 x21:0x80004004 x29=0x00000010
       32305000	      3229	80004104	808049b7	lui	x19,0x80804	 x19=0x80804000
       32315000	      3230	80004108	008a5093	srli	x1,x20,0x8	 x20:0x800040d0  x1=0x00800040
       32325000	      3231	8000410c	03bcd463	bge	x25,x27,80004134	 x25:0xf8000401 x27:0x033fe0e4
       32335000	      3232	80004110	62d80913	addi	x18,x16,1581	 x16:0x80004014 x18=0x80004641
       32345000	      3233	80004114	00000013	addi	x0,x0,0	  x0:0x00000000
       32355000	      3234	80004118	028c9463	bne	x25,x8,80004140	 x25:0xf8000401  x8:0x80009b4d
       32365000	      3235	00000000	00000013	addi	x0,x0,0	  x0:0x00000000
       32375000	      3236	8000413c	00000013	addi	x0,x0,0	  x0:0x00000000
       32385000	      3237	80004140	0296ea63	bltu	x13,x9,80004174	 x13:0x80009ef0  x9:0x00000001
       32395000	      3238	80004144	01384a63	blt	x16,x19,80004158	 x16:0x80004014 x19:0x80804000
       32405000	      3239	00000000	00000013	addi	x0,x0,0	  x0:0x00000000
       32415000	      3240	80004154	00000013	addi	x0,x0,0	  x0:0x00000000
       32425000	      3241	80004158	41bad3b3	sra	x7,x21,x27	 x21:0x80004004 x27:0x033fe0e4  x7=0xf8000400
       32435000	      3242	8000415c	5fc8f513	andi	x10,x17,1532	 x17:0x00000001 x10=0x00000000
       32445000	      3243	80004160	41d25593	srai	x11,x4,0x1d	  x4:0x8000a5a2 x11=0xfffffffc
       32455000	      3244	80004164	010df263	bgeu	x27,x16,80004168	 x27:0x033fe0e4 x16:0x80004014
       32465000	      3245	80004168	03a27663	bgeu	x4,x26,80004194	  x4:0x8000a5a2 x26:0x7fffb939
       32475000	      3246	00000000	00000013	addi	x0,x0,0	  x0:0x00000000
       32485000	      3247	80004190	00000013	addi	x0,x0,0	  x0:0x00000000
       32495000	      3248	80004194	0011fc63	bgeu	x3,x1,800041ac	  x3:0x800040a4  x1:0x00800040
       32505000	      3249	00000000	00000013	addi	x0,x0,0	  x0:0x00000000
       32515000	      3250	800041a8	00000013	addi	x0,x0,0	  x0:0x00000000
       32525000	      3251	800041ac	441a2913	slti	x18,x20,1089	 x20:0x800040d0 x18=0x00000001
       32535000	      3252	800041b0	40d6d233	sra	x4,x13,x13	 x13:0x80009ef0 x13:0x80009ef0  x4=0xffff8000
       32545000	      3253	800041b4	0a966a93	ori	x21,x12,169	 x12:0x8000409c x21=0x800040bd
       32555000	      3254	800041b8	04721863	bne	x4,x7,80004208	  x4:0xffff8000  x7:0xf8000400
       32565000	      3255	00000000	00000013	addi	x0,x0,0	  x0:0x00000000
       32575000	      3256	80004204	00000013	addi	x0,x0,0	  x0:0x00000000
       32585000	      3257	80004208	40e90ab3	sub	x21,x18,x14	 x18:0x00000001 x14:0x80009fc4 x21=0x7fff603d
       32595000	      3258	8000420c	00618a63	beq	x3,x6,80004220	  x3:0x800040a4  x6:0x80004070
       32605000	      3259	80004210	013bf533	and	x10,x23,x19	 x23:0x80003fa8 x19:0x80804000 x10=0x80000000
       32615000	      3260	80004214	41438bb3	sub	x23,x7,x20	  x7:0xf8000400 x20:0x800040d0 x23=0x77ffc330
       32625000	      3261	80004218	41190133	sub	x2,x18,x17	 x18:0x00000001 x17:0x00000001  x2=0x00000000
       32635000	      3262	8000421c	00375e63	bge	x14,x3,80004238	 x14:0x80009fc4  x3:0x800040a4
       32645000	      3263	00000000	00000013	addi	x0,x0,0	  x0:0x00000000
       32655000	      3264	80004234	00000013	addi	x0,x0,0	  x0:0x00000000
       32665000	      3265	80004238	040f9863	bne	x31,x0,80004288	 x31:0x80004040  x0:0x00000000
       32675000	      3266	00000000	00000013	addi	x0,x0,0	  x0:0x00000000
       32685000	      3267	80004284	00000013	addi	x0,x0,0	  x0:0x00000000
       32695000	      3268	80004288	02bc8863	beq	x25,x11,800042b8	 x25:0xf8000401 x11:0xfffffffc
       32705000	      3269	8000428c	01351e33	sll	x28,x10,x19	 x10:0x80000000 x19:0x80804000 x28=0x80000000
       32715000	      3270	80004290	1a62dc17	auipc	x24,0x1a62d	 x24=0x9a63128c
       32725000	      3271	80004294	05446613	ori	x12,x8,84	  x8:0x80009b4d x12=0x80009b5d
       32735000	      3272	80004298	0171f033	and	x0,x3,x23	  x3:0x800040a4 x23:0x77ffc330
       32745000	      3273	8000429c	0118ac33	slt	x24,x17,x17	 x17:0x00000001 x17:0x00000001 x24=0x00000000
       32755000	      3274	800042a0	01561c63	bne	x12,x21,800042b8	 x12:0x80009b5d x21:0x7fff603d
       32765000	      3275	00000000	00000013	addi	x0,x0,0	  x0:0x00000000
       32775000	      3276	800042b4	00000013	addi	x0,x0,0	  x0:0x00000000
       32785000	      3277	800042b8	4109d793	srai	x15,x19,0x10	 x19:0x80804000 x15=0xffff8080
       32795000	      3278	800042bc	4bdfab97	auipc	x23,0x4bdfa	 x23=0xcbdfe2b8
       32805000	      3279	800042c0	04e40063	beq	x8,x14,80004300	  x8:0x80009b4d x14:0x80009fc4
       32815000	      3280	800042c4	40538833	sub	x16,x7,x5	  x7:0xf8000400  x5:0x00000000 x16=0xf8000400
       32825000	      3281	800042c8	40f0d533	sra	x10,x1,x15	  x1:0x00800040 x15:0xffff8080 x10=0x00800040
       32835000	      3282	800042cc	418a5493	srai	x9,x20,0x18	 x20:0x800040d0  x9=0xffffff80
       32845000	      3283	800042d0	00121113	slli	x2,x4,0x1	  x4:0xffff8000  x2=0xffff0000
       32855000	      3284	800042d4	058dc463	blt	x27,x24,8000431c	 x27:0x033fe0e4 x24:0x00000000
       32865000	      3285	800042d8	94b5fb93	andi	x23,x11,-1717	 x11:0xfffffffc x23=0xfffff948
       32875000	      3286	800042dc	01b7db33	srl	x22,x15,x27	 x15:0xffff8080 x27:0x033fe0e4 x22=0x0ffff808
       32885000	      3287	800042e0	414500b3	sub	x1,x10,x20	 x10:0x00800040 x20:0x800040d0  x1=0x807fbf70
       32895000	      3288	800042e4	019607b3	add	x15,x12,x25	 x12:0x80009b5d x25:0xf8000401 x15=0x78009f5e
       32905000	      3289	800042e8	159b3f13	sltiu	x30,x22,345	 x22:0x0ffff808 x30=0x00000000
       32915000	      3290	800042ec	019fa8b7	lui	x17,0x19fa	 x17=0x019fa000
       32925000	      3291	800042f0	0018eb33	or	x22,x17,x1	 x17:0x019fa000  x1:0x807fbf70 x22=0x81ffbf70
       32935000	      3292	800042f4	7c447393	andi	x7,x8,1988	  x8:0x80009b4d  x7=0x00000344
       32945000	      3293	800042f8	003231b3	sltu	x3,x4,x3	  x4:0xffff8000  x3:0x800040a4  x3=0x00000000
       32955000	      3294	800042fc	03e89c63	bne	x17,x30,80004334	 x17:0x019fa000 x30:0x00000000
       32965000	      3295	00000000	00000013	addi	x0,x0,0	  x0:0x00000000
       32975000	      3296	80004330	00000013	addi	x0,x0,0	  x0:0x00000000
       32985000	      3297	80004334	00603933	sltu	x18,x0,x6	  x0:0x00000000  x6:0x80004070 x18=0x00000001
       32995000	      3298	80004338	016a33b3	sltu	x7,x20,x22	 x20:0x800040d0 x22:0x81ffbf70  x7=0x00000001
       33005000	      3299	8000433c	00d08a63	beq	x1,x13,80004350	  x1:0x807fbf70 x13:0x80009ef0
       33015000	      3300	80004340	02b60663	beq	x12,x11,8000436c	 x12:0x80009b5d x11:0xfffffffc
       33025000	      3301	80004344	0345fc63	bgeu	x11,x20,8000437c	 x11:0xfffffffc x20:0x800040d0
       33035000	      3302	00000000	00000013	addi	x0,x0,0	  x0:0x00000000
       33045000	      3303	80004378	00000013	addi	x0,x0,0	  x0:0x00000000
       33055000	      3304	8000437c	054ee863	bltu	x29,x20,800043cc	 x29:0x00000010 x20:0x800040d0
       33065000	      3305	00000000	00000013	addi	x0,x0,0	  x0:0x00000000
       33075000	      3306	800043c8	00000013	addi	x0,x0,0	  x0:0x00000000
       33085000	      3307	800043cc	00f59433	sll	x8,x11,x15	 x11:0xfffffffc x15:0x78009f5e  x8=0x00000000
       33095000	      3308	800043d0	5045d417	auipc	x8,0x5045d	  x8=0xd04613cc
       33105000	      3309	800043d4	40290633	sub	x12,x18,x2	 x18:0x00000001  x2:0xffff0000 x12=0x00010001
       33115000	      3310	800043d8	ed5127b7	lui	x15,0xed512	 x15=0xed512000
       33125000	      3311	800043dc	98c82813	slti	x16,x16,-1652	 x16:0xf8000400 x16=0x00000001
       33135000	      3312	800043e0	d95c4893	xori	x17,x24,-619	 x24:0x00000000 x17=0xfffffd95
       33145000	      3313	800043e4	01e6d7b3	srl	x15,x13,x30	 x13:0x80009ef0 x30:0x00000000 x15=0x80009ef0
       33155000	      3314	800043e8	00000013	addi	x0,x0,0	  x0:0x00000000
       33165000	      3315	800043ec	05c80e93	addi	x29,x16,92	 x16:0x00000001 x29=0x0000005d
       33175000	      3316	800043f0	01d3e9b3	or	x19,x7,x29	  x7:0x00000001 x29:0x0000005d x19=0x0000005d
       33185000	      3317	800043f4	03e19463	bne	x3,x30,8000441c	  x3:0x00000000 x30:0x00000000
       33195000	      3318	800043f8	035cfa63	bgeu	x25,x21,8000442c	 x25:0xf8000401 x21:0x7fff603d
       33205000	      3319	00000000	00000013	addi	x0,x0,0	  x0:0x00000000
       33215000	      3320	80004428	00000013	addi	x0,x0,0	  x0:0x00000000
       33225000	      3321	8000442c	012068b3	or	x17,x0,x18	  x0:0x00000000 x18:0x00000001 x17=0x00000001
       33235000	      3322	80004430	00000013	addi	x0,x0,0	  x0:0x00000000
       33245000	      3323	80004434	414658b3	sra	x17,x12,x20	 x12:0x00010001 x20:0x800040d0 x17=0x00000001
       33255000	      3324	80004438	00ce1893	slli	x17,x28,0xc	 x28:0x80000000 x17=0x00000000
       33265000	      3325	8000443c	bc6aab37	lui	x22,0xbc6aa	 x22=0xbc6aa000
       33275000	      3326	80004440	24532913	slti	x18,x6,581	  x6:0x80004070 x18=0x00000001
       33285000	      3327	80004444	01f95533	srl	x10,x18,x31	 x18:0x00000001 x31:0x80004040 x10=0x00000001
       33295000	      3328	80004448	00014863	blt	x2,x0,80004458	  x2:0xffff0000  x0:0x00000000
       33305000	      3329	00000000	00000013	addi	x0,x0,0	  x0:0x00000000
       33315000	      3330	80004454	00000013	addi	x0,x0,0	  x0:0x00000000
       33325000	      3331	80004458	0117df93	srli	x31,x15,0x11	 x15:0x80009ef0 x31=0x00004000
       33335000	      3332	8000445c	05145263	bge	x8,x17,800044a0	  x8:0xd04613cc x17:0x00000000
       33345000	      3333	80004460	0154b7b3	sltu	x15,x9,x21	  x9:0xffffff80 x21:0x7fff603d x15=0x00000000
       33355000	      3334	80004464	0136d113	srli	x2,x13,0x13	 x13:0x80009ef0  x2=0x00001000
       33365000	      3335	80004468	eea25037	lui	x0,0xeea25	
       33375000	      3336	8000446c	67d48813	addi	x16,x9,1661	  x9:0xffffff80 x16=0x000005fd
       33385000	      3337	80004470	01cf44b3	xor	x9,x30,x28	 x30:0x00000000 x28:0x80000000  x9=0x80000000
       33395000	      3338	80004474	02f17463	bgeu	x2,x15,8000449c	  x2:0x00001000 x15:0x00000000
       33405000	      3339	00000000	00000013	addi	x0,x0,0	  x0:0x00000000
       33415000	      3340	80004498	00000013	addi	x0,x0,0	  x0:0x00000000
       33425000	      3341	8000449c	00ba3b33	sltu	x22,x20,x11	 x20:0x800040d0 x11:0xfffffffc x22=0x00000001
       33435000	      3342	800044a0	6f668b93	addi	x23,x13,1782	 x13:0x80009ef0 x23=0x8000a5e6
       33445000	      3343	800044a4	00a95863	bge	x18,x10,800044b4	 x18:0x00000001 x10:0x00000001
       33455000	      3344	00000000	00000013	addi	x0,x0,0	  x0:0x00000000
       33465000	      3345	800044b0	00000013	addi	x0,x0,0	  x0:0x00000000
       33475000	      3346	800044b4	01bba933	slt	x18,x23,x27	 x23:0x8000a5e6 x27:0x033fe0e4 x18=0x00000001
       33485000	      3347	800044b8	01c871b3	and	x3,x16,x28	 x16:0x000005fd x28:0x80000000  x3=0x00000000
       33495000	      3348	800044bc	0046a303	lw	x6,4(x13)	 x13:0x80009ef0  x6=0x80004524 PA:0x80009ef4
       33505000	      3349	800044c0	03c68693	addi	x13,x13,60	 x13:0x80009ef0 x13=0x80009f2c
       33515000	      3350	800044c4	008a4ab3	xor	x21,x20,x8	 x20:0x800040d0  x8:0xd04613cc x21=0x5046531c
       33525000	      3351	800044c8	00f25fb3	srl	x31,x4,x15	  x4:0xffff8000 x15:0x00000000 x31=0xffff8000
       33535000	      3352	800044cc	014499b3	sll	x19,x9,x20	  x9:0x80000000 x20:0x800040d0 x19=0x00000000
       33545000	      3353	800044d0	d660a113	slti	x2,x1,-666	  x1:0x807fbf70  x2=0x00000001
       33555000	      3354	800044d4	00130c13	addi	x24,x6,1	  x6:0x80004524 x24=0x80004525
       33565000	      3355	800044d8	000c0c67	jalr	x24,x24,0	 x24:0x80004525 x24=0x800044d8
       33575000	      3356	00000000	00000013	addi	x0,x0,0	  x0:0x00000000
       33585000	      3357	80004524	00000013	addi	x0,x0,0	  x0:0x00000000
       33595000	      3358	80004528	40730033	sub	x0,x6,x7	  x6:0x80004524  x7:0x00000001
       33605000	      3359	8000452c	a6b83b37	lui	x22,0xa6b83	 x22=0xa6b83000
       33615000	      3360	80004530	01085fb3	srl	x31,x16,x16	 x16:0x000005fd x16:0x000005fd x31=0x00000000
       33625000	      3361	80004534	404dde13	srai	x28,x27,0x4	 x27:0x033fe0e4 x28=0x0033fe0e
       33635000	      3362	80004538	009d08b3	add	x17,x26,x9	 x26:0x7fffb939  x9:0x80000000 x17=0xffffb939
       33645000	      3363	8000453c	03418263	beq	x3,x20,80004560	  x3:0x00000000 x20:0x800040d0
       33655000	      3364	80004540	00000013	addi	x0,x0,0	  x0:0x00000000
       33665000	      3365	80004544	411c0d33	sub	x26,x24,x17	 x24:0x800044d8 x17:0xffffb939 x26=0x80008b9f
       33675000	      3366	80004548	00412233	slt	x4,x2,x4	  x2:0x00000001  x4:0xffff8000  x4=0x00000000
       33685000	      3367	8000454c	0045d0b3	srl	x1,x11,x4	 x11:0xfffffffc  x4:0x00000000  x1=0xfffffffc
       33695000	      3368	80004550	010e5533	srl	x10,x28,x16	 x28:0x0033fe0e x16:0x000005fd x10=0x00000000
       33705000	      3369	80004554	016e3cb3	sltu	x25,x28,x22	 x28:0x0033fe0e x22:0xa6b83000 x25=0x00000001
       33715000	      3370	80004558	00ac7a63	bgeu	x24,x10,8000456c	 x24:0x800044d8 x10:0x00000000
       33725000	      3371	00000000	00000013	addi	x0,x0,0	  x0:0x00000000
       33735000	      3372	80004568	00000013	addi	x0,x0,0	  x0:0x00000000
       33745000	      3373	8000456c	402b0c33	sub	x24,x22,x2	 x22:0xa6b83000  x2:0x00000001 x24=0xa6b82fff
       33755000	      3374	80004570	01269413	slli	x8,x13,0x12	 x13:0x80009f2c  x8=0x7cb00000
       33765000	      3375	80004574	01418433	add	x8,x3,x20	  x3:0x00000000 x20:0x800040d0  x8=0x800040d0
       33775000	      3376	80004578	0046a303	lw	x6,4(x13)	 x13:0x80009f2c  x6=0x80003d70 PA:0x80009f30
       33785000	      3377	8000457c	01b64133	xor	x2,x12,x27	 x12:0x00010001 x27:0x033fe0e4  x2=0x033ee0e5
       33795000	      3378	80004580	01c68693	addi	x13,x13,28	 x13:0x80009f2c x13=0x80009f48
       33805000	      3379	80004584	0a39cb13	xori	x22,x19,163	 x19:0x00000000 x22=0x000000a3
       33815000	      3380	80004588	db264d13	xori	x26,x12,-590	 x12:0x00010001 x26=0xfffefdb3
       33825000	      3381	8000458c	00000013	addi	x0,x0,0	  x0:0x00000000
       33835000	      3382	80004590	00130313	addi	x6,x6,1	  x6:0x80003d70  x6=0x80003d71
       33845000	      3383	80004594	00030367	jalr	x6,x6,0	  x6:0x80003d71  x6=0x80004594
       33855000	      3384	00000000	00000013	addi	x0,x0,0	  x0:0x00000000
       33865000	      3385	80003d70	00000013	addi	x0,x0,0	  x0:0x00000000
       33875000	      3386	80003d74	0240036f	jal	x6,80003d74	  x6=0x80003d74
       33885000	      3387	00000000	00000013	addi	x0,x0,0	  x0:0x00000000
       33895000	      3388	80003d94	00000013	addi	x0,x0,0	  x0:0x00000000
       33905000	      3389	80003d98	fedff0ef	jal	x1,80003d98	  x1=0x80003d98
       33915000	      3390	00000000	00000013	addi	x0,x0,0	  x0:0x00000000
       33925000	      3391	80003d80	00000013	addi	x0,x0,0	  x0:0x00000000
       33935000	      3392	80003d84	0040036f	jal	x6,80003d84	  x6=0x80003d84
       33945000	      3393	00000000	00000013	addi	x0,x0,0	  x0:0x00000000
       33955000	      3394	80003d84	00000013	addi	x0,x0,0	  x0:0x00000000
       33965000	      3395	80003d88	004000ef	jal	x1,80003d88	  x1=0x80003d88
       33975000	      3396	00000000	00000013	addi	x0,x0,0	  x0:0x00000000
       33985000	      3397	80003d88	00000013	addi	x0,x0,0	  x0:0x00000000
       33995000	      3398	80003d8c	0140036f	jal	x6,80003d8c	  x6=0x80003d8c
       34005000	      3399	00000000	00000013	addi	x0,x0,0	  x0:0x00000000
       34015000	      3400	80003d9c	00000013	addi	x0,x0,0	  x0:0x00000000
       34025000	      3401	80003da0	ff5ff0ef	jal	x1,80003da0	  x1=0x80003da0
       34035000	      3402	00000000	00000013	addi	x0,x0,0	  x0:0x00000000
       34045000	      3403	80003d90	00000013	addi	x0,x0,0	  x0:0x00000000
       34055000	      3404	80003d94	fe9ffcef	jal	x25,80003d94	 x25=0x80003d94
       34065000	      3405	00000000	00000013	addi	x0,x0,0	  x0:0x00000000
       34075000	      3406	80003d78	00000013	addi	x0,x0,0	  x0:0x00000000
       34085000	      3407	80003d7c	ffdff0ef	jal	x1,80003d7c	  x1=0x80003d7c
       34095000	      3408	00000000	00000013	addi	x0,x0,0	  x0:0x00000000
       34105000	      3409	80003d74	00000013	addi	x0,x0,0	  x0:0x00000000
       34115000	      3410	80003d78	018000ef	jal	x1,80003d78	  x1=0x80003d78
       34125000	      3411	00000000	00000013	addi	x0,x0,0	  x0:0x00000000
       34135000	      3412	80003d8c	00000013	addi	x0,x0,0	  x0:0x00000000
       34145000	      3413	80003d90	00c00cef	jal	x25,80003d90	 x25=0x80003d90
       34155000	      3414	00000000	00000013	addi	x0,x0,0	  x0:0x00000000
       34165000	      3415	80003d98	00000013	addi	x0,x0,0	  x0:0x00000000
       34175000	      3416	80003d9c	fe5ff0ef	jal	x1,80003d9c	  x1=0x80003d9c
       34185000	      3417	00000000	00000013	addi	x0,x0,0	  x0:0x00000000
       34195000	      3418	80003d7c	00000013	addi	x0,x0,0	  x0:0x00000000
       34205000	      3419	80003d80	0240036f	jal	x6,80003d80	  x6=0x80003d80
       34215000	      3420	00000000	00000013	addi	x0,x0,0	  x0:0x00000000
       34225000	      3421	80003da0	00000013	addi	x0,x0,0	  x0:0x00000000
       34235000	      3422	80003da4	0169b4b3	sltu	x9,x19,x22	 x19:0x00000000 x22:0x000000a3  x9=0x00000001
       34245000	      3423	80003da8	01707433	and	x8,x0,x23	  x0:0x00000000 x23:0x8000a5e6  x8=0x00000000
       34255000	      3424	80003dac	008e4633	xor	x12,x28,x8	 x28:0x0033fe0e  x8:0x00000000 x12=0x0033fe0e
       34265000	      3425	80003db0	0193a5b3	slt	x11,x7,x25	  x7:0x00000001 x25:0x80003d90 x11=0x00000000
       34275000	      3426	80003db4	0190d813	srli	x16,x1,0x19	  x1:0x80003d9c x16=0x00000040
       34285000	      3427	80003db8	016e8ab3	add	x21,x29,x22	 x29:0x0000005d x22:0x000000a3 x21=0x00000100
       34295000	      3428	80003dbc	01ba57b3	srl	x15,x20,x27	 x20:0x800040d0 x27:0x033fe0e4 x15=0x0800040d
       34305000	      3429	80003dc0	0056c263	blt	x13,x5,80003dc4	 x13:0x80009f48  x5:0x00000000
       34315000	      3430	00000000	00000013	addi	x0,x0,0	  x0:0x00000000
       34325000	      3431	80003dc0	00000013	addi	x0,x0,0	  x0:0x00000000
       34335000	      3432	80003dc4	01433fb3	sltu	x31,x6,x20	  x6:0x80003d80 x20:0x800040d0 x31=0x00000001
       34345000	      3433	80003dc8	9f8964b7	lui	x9,0x9f896	  x9=0x9f896000
       34355000	      3434	80003dcc	00c91093	slli	x1,x18,0xc	 x18:0x00000001  x1=0x00001000
       34365000	      3435	80003dd0	0084db33	srl	x22,x9,x8	  x9:0x9f896000  x8:0x00000000 x22=0x9f896000
       34375000	      3436	80003dd4	01fb0263	beq	x22,x31,80003dd8	 x22:0x9f896000 x31:0x00000001
       34385000	      3437	80003dd8	41735a13	srai	x20,x6,0x17	  x6:0x80003d80 x20=0xffffff00
       34395000	      3438	80003ddc	01000463	beq	x0,x16,80003de4	  x0:0x00000000 x16:0x00000040
       34405000	      3439	80003de0	01362533	slt	x10,x12,x19	 x12:0x0033fe0e x19:0x00000000 x10=0x00000000
       34415000	      3440	80003de4	0489e263	bltu	x19,x8,80003e28	 x19:0x00000000  x8:0x00000000
       34425000	      3441	80003de8	003f9313	slli	x6,x31,0x3	 x31:0x00000001  x6=0x00000008
       34435000	      3442	80003dec	41640b33	sub	x22,x8,x22	  x8:0x00000000 x22:0x9f896000 x22=0x6076a000
       34445000	      3443	80003df0	00000013	addi	x0,x0,0	  x0:0x00000000
       34455000	      3444	80003df4	419305b3	sub	x11,x6,x25	  x6:0x00000008 x25:0x80003d90 x11=0x7fffc278
       34465000	      3445	80003df8	41d607b3	sub	x15,x12,x29	 x12:0x0033fe0e x29:0x0000005d x15=0x0033fdb1
       34475000	      3446	80003dfc	0120d393	srli	x7,x1,0x12	  x1:0x00001000  x7=0x00000000
       34485000	      3447	80003e00	02f18a63	beq	x3,x15,80003e34	  x3:0x00000000 x15:0x0033fdb1
       34495000	      3448	80003e04	41d6d1b3	sra	x3,x13,x29	 x13:0x80009f48 x29:0x0000005d  x3=0xfffffffc
       34505000	      3449	80003e08	a2908f13	addi	x30,x1,-1495	  x1:0x00001000 x30=0x00000a29
       34515000	      3450	80003e0c	01705463	bge	x0,x23,80003e14	  x0:0x00000000 x23:0x8000a5e6
       34525000	      3451	00000000	00000013	addi	x0,x0,0	  x0:0x00000000
       34535000	      3452	80003e10	00000013	addi	x0,x0,0	  x0:0x00000000
       34545000	      3453	80003e14	00816f33	or	x30,x2,x8	  x2:0x033ee0e5  x8:0x00000000 x30=0x033ee0e5
       34555000	      3454	80003e18	b68b4893	xori	x17,x22,-1176	 x22:0x6076a000 x17=0x9f895b68
       34565000	      3455	80003e1c	0135d593	srli	x11,x11,0x13	 x11:0x7fffc278 x11=0x00000fff
       34575000	      3456	80003e20	005ef5b3	and	x11,x29,x5	 x29:0x0000005d  x5:0x00000000 x11=0x00000000
       34585000	      3457	80003e24	05cb3b37	lui	x22,0x5cb3	 x22=0x05cb3000
       34595000	      3458	80003e28	007bbd33	sltu	x26,x23,x7	 x23:0x8000a5e6  x7:0x00000000 x26=0x00000000
       34605000	      3459	80003e2c	4193f517	auipc	x10,0x4193f	 x10=0xc1942e28
       34615000	      3460	80003e30	0083d913	srli	x18,x7,0x8	  x7:0x00000000 x18=0x00000000
       34625000	      3461	80003e34	00a29933	sll	x18,x5,x10	  x5:0x00000000 x10:0xc1942e28 x18=0x00000000
       34635000	      3462	80003e38	02840a63	beq	x8,x8,80003e6c	  x8:0x00000000  x8:0x00000000
       34645000	      3463	00000000	00000013	addi	x0,x0,0	  x0:0x00000000
       34655000	      3464	80003e68	00000013	addi	x0,x0,0	  x0:0x00000000
       34665000	      3465	80003e6c	01b24263	blt	x4,x27,80003e70	  x4:0x00000000 x27:0x033fe0e4
       34675000	      3466	00000000	00000013	addi	x0,x0,0	  x0:0x00000000
       34685000	      3467	80003e6c	00000013	addi	x0,x0,0	  x0:0x00000000
       34695000	      3468	80003e70	007e0133	add	x2,x28,x7	 x28:0x0033fe0e  x7:0x00000000  x2=0x0033fe0e
       34705000	      3469	80003e74	41195c33	sra	x24,x18,x17	 x18:0x00000000 x17:0x9f895b68 x24=0x00000000
       34715000	      3470	80003e78	4fc3c893	xori	x17,x7,1276	  x7:0x00000000 x17=0x000004fc
       34725000	      3471	80003e7c	00e4e933	or	x18,x9,x14	  x9:0x9f896000 x14:0x80009fc4 x18=0x9f89ffc4
       34735000	      3472	80003e80	0041f033	and	x0,x3,x4	  x3:0xfffffffc  x4:0x00000000
       34745000	      3473	80003e84	0184c333	xor	x6,x9,x24	  x9:0x9f896000 x24:0x00000000  x6=0x9f896000
       34755000	      3474	80003e88	4167de93	srai	x29,x15,0x16	 x15:0x0033fdb1 x29=0x00000000
       34765000	      3475	80003e8c	48e709b7	lui	x19,0x48e70	 x19=0x48e70000
       34775000	      3476	80003e90	00005cb3	srl	x25,x0,x0	  x0:0x00000000  x0:0x00000000 x25=0x00000000
       34785000	      3477	80003e94	014fdd33	srl	x26,x31,x20	 x31:0x00000001 x20:0xffffff00 x26=0x00000001
       34795000	      3478	80003e98	00092d33	slt	x26,x18,x0	 x18:0x9f89ffc4  x0:0x00000000 x26=0x00000001
       34805000	      3479	80003e9c	00a5df93	srli	x31,x11,0xa	 x11:0x00000000 x31=0x00000000
       34815000	      3480	80003ea0	022ad263	bge	x21,x2,80003ec4	 x21:0x00000100  x2:0x0033fe0e
       34825000	      3481	80003ea4	40f55593	srai	x11,x10,0xf	 x10:0xc1942e28 x11=0xffff8328
       34835000	      3482	80003ea8	0115db33	srl	x22,x11,x17	 x11:0xffff8328 x17:0x000004fc x22=0x0000000f
       34845000	      3483	80003eac	01482c33	slt	x24,x16,x20	 x16:0x00000040 x20:0xffffff00 x24=0x00000000
       34855000	      3484	80003eb0	02667863	bgeu	x12,x6,80003ee0	 x12:0x0033fe0e  x6:0x9f896000
       34865000	      3485	80003eb4	008019b3	sll	x19,x0,x8	  x0:0x00000000  x8:0x00000000 x19=0x00000000
       34875000	      3486	80003eb8	01d91c63	bne	x18,x29,80003ed0	 x18:0x9f89ffc4 x29:0x00000000
       34885000	      3487	00000000	00000013	addi	x0,x0,0	  x0:0x00000000
       34895000	      3488	80003ecc	00000013	addi	x0,x0,0	  x0:0x00000000
       34905000	      3489	80003ed0	008c6e63	bltu	x24,x8,80003eec	 x24:0x00000000  x8:0x00000000
       34915000	      3490	80003ed4	03c04463	blt	x0,x28,80003efc	  x0:0x00000000 x28:0x0033fe0e
       34925000	      3491	00000000	00000013	addi	x0,x0,0	  x0:0x00000000
       34935000	      3492	80003ef8	00000013	addi	x0,x0,0	  x0:0x00000000
       34945000	      3493	80003efc	013f9093	slli	x1,x31,0x13	 x31:0x00000000  x1=0x00000000
       34955000	      3494	80003f00	00a7d093	srli	x1,x15,0xa	 x15:0x0033fdb1  x1=0x00000cff
       34965000	      3495	80003f04	01927663	bgeu	x4,x25,80003f10	  x4:0x00000000 x25:0x00000000
       34975000	      3496	00000000	00000013	addi	x0,x0,0	  x0:0x00000000
       34985000	      3497	80003f0c	00000013	addi	x0,x0,0	  x0:0x00000000
       34995000	      3498	80003f10	01f0edb3	or	x27,x1,x31	  x1:0x00000cff x31:0x00000000 x27=0x00000cff
       35005000	      3499	80003f14	ec444393	xori	x7,x8,-316	  x8:0x00000000  x7=0xfffffec4
       35015000	      3500	80003f18	b6d9b0b7	lui	x1,0xb6d9b	  x1=0xb6d9b000
       35025000	      3501	80003f1c	019e9463	bne	x29,x25,80003f24	 x29:0x00000000 x25:0x00000000
       35035000	      3502	80003f20	00fef0b3	and	x1,x29,x15	 x29:0x00000000 x15:0x0033fdb1  x1=0x00000000
       35045000	      3503	80003f24	01b2ebb3	or	x23,x5,x27	  x5:0x00000000 x27:0x00000cff x23=0x00000cff
       35055000	      3504	80003f28	0046a303	lw	x6,4(x13)	 x13:0x80009f48  x6=0x80001488 PA:0x80009f4c
       35065000	      3505	80003f2c	003a7bb3	and	x23,x20,x3	 x20:0xffffff00  x3:0xfffffffc x23=0xffffff00
       35075000	      3506	80003f30	b08fa613	slti	x12,x31,-1272	 x31:0x00000000 x12=0x00000000
       35085000	      3507	80003f34	03c68693	addi	x13,x13,60	 x13:0x80009f48 x13=0x80009f84
       35095000	      3508	80003f38	40bd8033	sub	x0,x27,x11	 x27:0x00000cff x11:0xffff8328
       35105000	      3509	80003f3c	01ad64b3	or	x9,x26,x26	 x26:0x00000001 x26:0x00000001  x9=0x00000001
       35115000	      3510	80003f40	41885eb3	sra	x29,x16,x24	 x16:0x00000040 x24:0x00000000 x29=0x00000040
       35125000	      3511	80003f44	01f29d33	sll	x26,x5,x31	  x5:0x00000000 x31:0x00000000 x26=0x00000000
       35135000	      3512	80003f48	00c79f93	slli	x31,x15,0xc	 x15:0x0033fdb1 x31=0x3fdb1000
       35145000	      3513	80003f4c	218a3a13	sltiu	x20,x20,536	 x20:0xffffff00 x20=0x00000000
       35155000	      3514	80003f50	d92e2a93	slti	x21,x28,-622	 x28:0x0033fe0e x21=0x00000000
       35165000	      3515	80003f54	00030c93	addi	x25,x6,0	  x6:0x80001488 x25=0x80001488
       35175000	      3516	80003f58	000c8ce7	jalr	x25,x25,0	 x25:0x80001488 x25=0x80003f58
       35185000	      3517	00000000	00000013	addi	x0,x0,0	  x0:0x00000000
       35195000	      3518	80001488	00000013	addi	x0,x0,0	  x0:0x00000000
       35205000	      3519	8000148c	02901863	bne	x0,x9,800014bc	  x0:0x00000000  x9:0x00000001
       35215000	      3520	00000000	00000013	addi	x0,x0,0	  x0:0x00000000
       35225000	      3521	800014b8	00000013	addi	x0,x0,0	  x0:0x00000000
       35235000	      3522	800014bc	fb8bbc13	sltiu	x24,x23,-72	 x23:0xffffff00 x24=0x00000001
       35245000	      3523	800014c0	0958cb13	xori	x22,x17,149	 x17:0x000004fc x22=0x00000469
       35255000	      3524	800014c4	01f1ffb3	and	x31,x3,x31	  x3:0xfffffffc x31:0x3fdb1000 x31=0x3fdb1000
       35265000	      3525	800014c8	41c68bb3	sub	x23,x13,x28	 x13:0x80009f84 x28:0x0033fe0e x23=0x7fcca176
       35275000	      3526	800014cc	7b39e193	ori	x3,x19,1971	 x19:0x00000000  x3=0x000007b3
       35285000	      3527	800014d0	ed303493	sltiu	x9,x0,-301	  x0:0x00000000  x9=0x00000001
       35295000	      3528	800014d4	414884b3	sub	x9,x17,x20	 x17:0x000004fc x20:0x00000000  x9=0x000004fc
       35305000	      3529	800014d8	408e5933	sra	x18,x28,x8	 x28:0x0033fe0e  x8:0x00000000 x18=0x0033fe0e
       35315000	      3530	800014dc	01730c63	beq	x6,x23,800014f4	  x6:0x80001488 x23:0x7fcca176
       35325000	      3531	800014e0	00829d33	sll	x26,x5,x8	  x5:0x00000000  x8:0x00000000 x26=0x00000000
       35335000	      3532	800014e4	e5662113	slti	x2,x12,-426	 x12:0x00000000  x2=0x00000000
       35345000	      3533	800014e8	0096ba33	sltu	x20,x13,x9	 x13:0x80009f84  x9:0x000004fc x20=0x00000000
       35355000	      3534	800014ec	6d888413	addi	x8,x17,1752	 x17:0x000004fc  x8=0x00000bd4
       35365000	      3535	800014f0	40d55993	srai	x19,x10,0xd	 x10:0xc1942e28 x19=0xfffe0ca1
       35375000	      3536	800014f4	00319333	sll	x6,x3,x3	  x3:0x000007b3  x3:0x000007b3  x6=0x3d980000
       35385000	      3537	800014f8	0aa65a63	bge	x12,x10,800015ac	 x12:0x00000000 x10:0xc1942e28
       35395000	      3538	00000000	00000013	addi	x0,x0,0	  x0:0x00000000
       35405000	      3539	800015a8	00000013	addi	x0,x0,0	  x0:0x00000000
       35415000	      3540	800015ac	00cfe463	bltu	x31,x12,800015b4	 x31:0x3fdb1000 x12:0x00000000
       35425000	      3541	800015b0	01a16e33	or	x28,x2,x26	  x2:0x00000000 x26:0x00000000 x28=0x00000000
       35435000	      3542	800015b4	d94ebd97	auipc	x27,0xd94eb	 x27=0x594ec5b0
       35445000	      3543	800015b8	40e40bb3	sub	x23,x8,x14	  x8:0x00000bd4 x14:0x80009fc4 x23=0x7fff6c10
       35455000	      3544	800015bc	473f0913	addi	x18,x30,1139	 x30:0x033ee0e5 x18=0x033ee558
       35465000	      3545	800015c0	d5c1a993	slti	x19,x3,-676	  x3:0x000007b3 x19=0x00000000
       35475000	      3546	800015c4	f81f7137	lui	x2,0xf81f7	  x2=0xf81f7000
       35485000	      3547	800015c8	00627f33	and	x30,x4,x6	  x4:0x00000000  x6:0x3d980000 x30=0x00000000
       35495000	      3548	800015cc	01cf3d33	sltu	x26,x30,x28	 x30:0x00000000 x28:0x00000000 x26=0x00000000
       35505000	      3549	800015d0	6a314b97	auipc	x23,0x6a314	 x23=0xea3155cc
       35515000	      3550	800015d4	01c50833	add	x16,x10,x28	 x10:0xc1942e28 x28:0x00000000 x16=0xc1942e28
       35525000	      3551	800015d8	00000013	addi	x0,x0,0	  x0:0x00000000
       35535000	      3552	800015dc	000e91b3	sll	x3,x29,x0	 x29:0x00000040  x0:0x00000000  x3=0x00000040
       35545000	      3553	800015e0	01c938b3	sltu	x17,x18,x28	 x18:0x033ee558 x28:0x00000000 x17=0x00000000
       35555000	      3554	800015e4	04c94863	blt	x18,x12,80001634	 x18:0x033ee558 x12:0x00000000
       35565000	      3555	800015e8	187b6f93	ori	x31,x22,391	 x22:0x00000469 x31=0x000005ef
       35575000	      3556	800015ec	0313f663	bgeu	x7,x17,80001618	  x7:0xfffffec4 x17:0x00000000
       35585000	      3557	00000000	00000013	addi	x0,x0,0	  x0:0x00000000
       35595000	      3558	80001614	00000013	addi	x0,x0,0	  x0:0x00000000
       35605000	      3559	80001618	7a7ae213	ori	x4,x21,1959	 x21:0x00000000  x4=0x000007a7
       35615000	      3560	8000161c	d7890813	addi	x16,x18,-648	 x18:0x033ee558 x16=0x033ee2d0
       35625000	      3561	80001620	0170a633	slt	x12,x1,x23	  x1:0x00000000 x23:0xea3155cc x12=0x00000000
       35635000	      3562	80001624	00709533	sll	x10,x1,x7	  x1:0x00000000  x7:0xfffffec4 x10=0x00000000
       35645000	      3563	80001628	00569093	slli	x1,x13,0x5	 x13:0x80009f84  x1=0x0013f080
       35655000	      3564	8000162c	0049ba33	sltu	x20,x19,x4	 x19:0x00000000  x4:0x000007a7 x20=0x00000001
       35665000	      3565	80001630	01247a63	bgeu	x8,x18,80001644	  x8:0x00000bd4 x18:0x033ee558
       35675000	      3566	80001634	00a0d463	bge	x1,x10,8000163c	  x1:0x0013f080 x10:0x00000000
       35685000	      3567	00000000	00000013	addi	x0,x0,0	  x0:0x00000000
       35695000	      3568	80001638	00000013	addi	x0,x0,0	  x0:0x00000000
       35705000	      3569	8000163c	0022d863	bge	x5,x2,8000164c	  x5:0x00000000  x2:0xf81f7000
       35715000	      3570	00000000	00000013	addi	x0,x0,0	  x0:0x00000000
       35725000	      3571	80001648	00000013	addi	x0,x0,0	  x0:0x00000000
       35735000	      3572	8000164c	41685d93	srai	x27,x16,0x16	 x16:0x033ee2d0 x27=0x0000000c
       35745000	      3573	80001650	00bc9c13	slli	x24,x25,0xb	 x25:0x80003f58 x24=0x01fac000
       35755000	      3574	80001654	01731f13	slli	x30,x6,0x17	  x6:0x3d980000 x30=0x00000000
       35765000	      3575	80001658	ad1aee13	ori	x28,x21,-1327	 x21:0x00000000 x28=0xfffffad1
       35775000	      3576	8000165c	00803833	sltu	x16,x0,x8	  x0:0x00000000  x8:0x00000bd4 x16=0x00000001
       35785000	      3577	80001660	000a1033	sll	x0,x20,x0	 x20:0x00000001  x0:0x00000000
       35795000	      3578	80001664	97c20a93	addi	x21,x4,-1668	  x4:0x000007a7 x21=0x00000123
       35805000	      3579	80001668	b3bac113	xori	x2,x21,-1221	 x21:0x00000123  x2=0xfffffa18
       35815000	      3580	8000166c	00564133	xor	x2,x12,x5	 x12:0x00000000  x5:0x00000000  x2=0x00000000
       35825000	      3581	80001670	00d4adb3	slt	x27,x9,x13	  x9:0x000004fc x13:0x80009f84 x27=0x00000000
       35835000	      3582	80001674	00beb633	sltu	x12,x29,x11	 x29:0x00000040 x11:0xffff8328 x12=0x00000001
       35845000	      3583	80001678	010763b3	or	x7,x14,x16	 x14:0x80009fc4 x16:0x00000001  x7=0x80009fc5
       35855000	      3584	8000167c	03591a63	bne	x18,x21,800016b0	 x18:0x033ee558 x21:0x00000123
       35865000	      3585	00000000	00000013	addi	x0,x0,0	  x0:0x00000000
       35875000	      3586	800016ac	00000013	addi	x0,x0,0	  x0:0x00000000
       35885000	      3587	800016b0	004c3433	sltu	x8,x24,x4	 x24:0x01fac000  x4:0x000007a7  x8=0x00000000
       35895000	      3588	800016b4	015d15b3	sll	x11,x26,x21	 x26:0x00000000 x21:0x00000123 x11=0x00000000
       35905000	      3589	800016b8	00745d13	srli	x26,x8,0x7	  x8:0x00000000 x26=0x00000000
       35915000	      3590	800016bc	054d5863	bge	x26,x20,8000170c	 x26:0x00000000 x20:0x00000001
       35925000	      3591	800016c0	019085b3	add	x11,x1,x25	  x1:0x0013f080 x25:0x80003f58 x11=0x80142fd8
       35935000	      3592	800016c4	04fd7463	bgeu	x26,x15,8000170c	 x26:0x00000000 x15:0x0033fdb1
       35945000	      3593	800016c8	00675463	bge	x14,x6,800016d0	 x14:0x80009fc4  x6:0x3d980000
       35955000	      3594	800016cc	54af7e13	andi	x28,x30,1354	 x30:0x00000000 x28=0x00000000
       35965000	      3595	800016d0	02385663	bge	x16,x3,800016fc	 x16:0x00000001  x3:0x00000040
       35975000	      3596	800016d4	00ff4bb3	xor	x23,x30,x15	 x30:0x00000000 x15:0x0033fdb1 x23=0x0033fdb1
       35985000	      3597	800016d8	0148c263	blt	x17,x20,800016dc	 x17:0x00000000 x20:0x00000001
       35995000	      3598	00000000	00000013	addi	x0,x0,0	  x0:0x00000000
       36005000	      3599	800016d8	00000013	addi	x0,x0,0	  x0:0x00000000
       36015000	      3600	800016dc	402c5eb3	sra	x29,x24,x2	 x24:0x01fac000  x2:0x00000000 x29=0x01fac000
       36025000	      3601	800016e0	007a0e33	add	x28,x20,x7	 x20:0x00000001  x7:0x80009fc5 x28=0x80009fc6
       36035000	      3602	800016e4	015c2333	slt	x6,x24,x21	 x24:0x01fac000 x21:0x00000123  x6=0x00000000
       36045000	      3603	800016e8	4172d613	srai	x12,x5,0x17	  x5:0x00000000 x12=0x00000000
       36055000	      3604	800016ec	01ec6f33	or	x30,x24,x30	 x24:0x01fac000 x30:0x00000000 x30=0x01fac000
       36065000	      3605	800016f0	05590463	beq	x18,x21,80001738	 x18:0x033ee558 x21:0x00000123
       36075000	      3606	800016f4	0032f433	and	x8,x5,x3	  x5:0x00000000  x3:0x00000040  x8=0x00000000
       36085000	      3607	800016f8	81a1a313	slti	x6,x3,-2022	  x3:0x00000040  x6=0x00000000
       36095000	      3608	800016fc	00bb3d33	sltu	x26,x22,x11	 x22:0x00000469 x11:0x80142fd8 x26=0x00000001
       36105000	      3609	80001700	01f77db3	and	x27,x14,x31	 x14:0x80009fc4 x31:0x000005ef x27=0x000005c4
       36115000	      3610	80001704	41890233	sub	x4,x18,x24	 x18:0x033ee558 x24:0x01fac000  x4=0x01442558
       36125000	      3611	80001708	406e0433	sub	x8,x28,x6	 x28:0x80009fc6  x6:0x00000000  x8=0x80009fc6
       36135000	      3612	8000170c	b8124e13	xori	x28,x4,-1151	  x4:0x01442558 x28=0xfebbded9
       36145000	      3613	80001710	03690263	beq	x18,x22,80001734	 x18:0x033ee558 x22:0x00000469
       36155000	      3614	80001714	016e1b13	slli	x22,x28,0x16	 x28:0xfebbded9 x22=0xb6400000
       36165000	      3615	80001718	040e7063	bgeu	x28,x0,80001758	 x28:0xfebbded9  x0:0x00000000
       36175000	      3616	00000000	00000013	addi	x0,x0,0	  x0:0x00000000
       36185000	      3617	80001754	00000013	addi	x0,x0,0	  x0:0x00000000
       36195000	      3618	80001758	00285913	srli	x18,x16,0x2	 x16:0x00000001 x18=0x00000000
       36205000	      3619	8000175c	012d1463	bne	x26,x18,80001764	 x26:0x00000001 x18:0x00000000
       36215000	      3620	00000000	00000013	addi	x0,x0,0	  x0:0x00000000
       36225000	      3621	80001760	00000013	addi	x0,x0,0	  x0:0x00000000
       36235000	      3622	80001764	031d5663	bge	x26,x17,80001790	 x26:0x00000001 x17:0x00000000
       36245000	      3623	00000000	00000013	addi	x0,x0,0	  x0:0x00000000
       36255000	      3624	8000178c	00000013	addi	x0,x0,0	  x0:0x00000000
       36265000	      3625	80001790	012d6eb3	or	x29,x26,x18	 x26:0x00000001 x18:0x00000000 x29=0x00000001
       36275000	      3626	80001794	40e904b3	sub	x9,x18,x14	 x18:0x00000000 x14:0x80009fc4  x9=0x7fff603c
       36285000	      3627	80001798	01e5acb3	slt	x25,x11,x30	 x11:0x80142fd8 x30:0x01fac000 x25=0x00000001
       36295000	      3628	8000179c	0169bd33	sltu	x26,x19,x22	 x19:0x00000000 x22:0xb6400000 x26=0x00000001
       36305000	      3629	800017a0	41f35013	srai	x0,x6,0x1f	  x6:0x00000000
       36315000	      3630	800017a4	05bdc063	blt	x27,x27,800017e4	 x27:0x000005c4 x27:0x000005c4
       36325000	      3631	800017a8	01d19863	bne	x3,x29,800017b8	  x3:0x00000040 x29:0x00000001
       36335000	      3632	00000000	00000013	addi	x0,x0,0	  x0:0x00000000
       36345000	      3633	800017b4	00000013	addi	x0,x0,0	  x0:0x00000000
       36355000	      3634	800017b8	03821a63	bne	x4,x24,800017ec	  x4:0x01442558 x24:0x01fac000
       36365000	      3635	00000000	00000013	addi	x0,x0,0	  x0:0x00000000
       36375000	      3636	800017e8	00000013	addi	x0,x0,0	  x0:0x00000000
       36385000	      3637	800017ec	95b199b7	lui	x19,0x95b19	 x19=0x95b19000
       36395000	      3638	800017f0	000cf9b3	and	x19,x25,x0	 x25:0x00000001  x0:0x00000000 x19=0x00000000
       36405000	      3639	800017f4	01408ab3	add	x21,x1,x20	  x1:0x0013f080 x20:0x00000001 x21=0x0013f081
       36415000	      3640	800017f8	00f0a233	slt	x4,x1,x15	  x1:0x0013f080 x15:0x0033fdb1  x4=0x00000001
       36425000	      3641	800017fc	40800e33	sub	x28,x0,x8	  x0:0x00000000  x8:0x80009fc6 x28=0x7fff603a
       36435000	      3642	80001800	03a46c63	bltu	x8,x26,80001838	  x8:0x80009fc6 x26:0x00000001
       36445000	      3643	80001804	03b21063	bne	x4,x27,80001824	  x4:0x00000001 x27:0x000005c4
       36455000	      3644	00000000	00000013	addi	x0,x0,0	  x0:0x00000000
       36465000	      3645	80001820	00000013	addi	x0,x0,0	  x0:0x00000000
       36475000	      3646	80001824	acb8e893	ori	x17,x17,-1333	 x17:0x00000000 x17=0xfffffacb
       36485000	      3647	80001828	b11cf917	auipc	x18,0xb11cf	 x18=0x311d0824
       36495000	      3648	8000182c	d0bffa13	andi	x20,x31,-757	 x31:0x000005ef x20=0x0000050b
       36505000	      3649	80001830	017619b3	sll	x19,x12,x23	 x12:0x00000000 x23:0x0033fdb1 x19=0x00000000
       36515000	      3650	80001834	05eff463	bgeu	x31,x30,8000187c	 x31:0x000005ef x30:0x01fac000
       36525000	      3651	80001838	41b75f93	srai	x31,x14,0x1b	 x14:0x80009fc4 x31=0xfffffff0
       36535000	      3652	8000183c	00e98633	add	x12,x19,x14	 x19:0x00000000 x14:0x80009fc4 x12=0x80009fc4
       36545000	      3653	80001840	016e18b3	sll	x17,x28,x22	 x28:0x7fff603a x22:0xb6400000 x17=0x7fff603a
       36555000	      3654	80001844	000ad013	srli	x0,x21,0x0	 x21:0x0013f081
       36565000	      3655	80001848	02864663	blt	x12,x8,80001874	 x12:0x80009fc4  x8:0x80009fc6
       36575000	      3656	00000000	00000013	addi	x0,x0,0	  x0:0x00000000
       36585000	      3657	80001870	00000013	addi	x0,x0,0	  x0:0x00000000
       36595000	      3658	80001874	40b3dbb3	sra	x23,x7,x11	  x7:0x80009fc5 x11:0x80142fd8 x23=0xffffff80
       36605000	      3659	80001878	04530063	beq	x6,x5,800018b8	  x6:0x00000000  x5:0x00000000
       36615000	      3660	00000000	00000013	addi	x0,x0,0	  x0:0x00000000
       36625000	      3661	800018b4	00000013	addi	x0,x0,0	  x0:0x00000000
       36635000	      3662	800018b8	010c1233	sll	x4,x24,x16	 x24:0x01fac000 x16:0x00000001  x4=0x03f58000
       36645000	      3663	800018bc	40a05e93	srai	x29,x0,0xa	  x0:0x00000000 x29=0x00000000
       36655000	      3664	800018c0	a570e993	ori	x19,x1,-1449	  x1:0x0013f080 x19=0xfffffad7
       36665000	      3665	800018c4	035ae863	bltu	x21,x21,800018f4	 x21:0x0013f081 x21:0x0013f081
       36675000	      3666	800018c8	1b4bca13	xori	x20,x23,436	 x23:0xffffff80 x20=0xfffffe34
       36685000	      3667	800018cc	d0f57413	andi	x8,x10,-753	 x10:0x00000000  x8=0x00000000
       36695000	      3668	800018d0	01b75c13	srli	x24,x14,0x1b	 x14:0x80009fc4 x24=0x00000010
       36705000	      3669	800018d4	4060d793	srai	x15,x1,0x6	  x1:0x0013f080 x15=0x00004fc2
       36715000	      3670	800018d8	01f2c8b3	xor	x17,x5,x31	  x5:0x00000000 x31:0xfffffff0 x17=0xfffffff0
       36725000	      3671	800018dc	414808b3	sub	x17,x16,x20	 x16:0x00000001 x20:0xfffffe34 x17=0x000001cd
       36735000	      3672	800018e0	009a04b3	add	x9,x20,x9	 x20:0xfffffe34  x9:0x7fff603c  x9=0x7fff5e70
       36745000	      3673	800018e4	00f910b3	sll	x1,x18,x15	 x18:0x311d0824 x15:0x00004fc2  x1=0xc4742090
       36755000	      3674	800018e8	01082833	slt	x16,x16,x16	 x16:0x00000001 x16:0x00000001 x16=0x00000000
       36765000	      3675	800018ec	009a5463	bge	x20,x9,800018f4	 x20:0xfffffe34  x9:0x7fff5e70
       36775000	      3676	800018f0	cbc80913	addi	x18,x16,-836	 x16:0x00000000 x18=0xfffffcbc
       36785000	      3677	800018f4	012fed33	or	x26,x31,x18	 x31:0xfffffff0 x18:0xfffffcbc x26=0xfffffffc
       36795000	      3678	800018f8	02ae1e63	bne	x28,x10,80001934	 x28:0x7fff603a x10:0x00000000
       36805000	      3679	00000000	00000013	addi	x0,x0,0	  x0:0x00000000
       36815000	      3680	80001930	00000013	addi	x0,x0,0	  x0:0x00000000
       36825000	      3681	80001934	01a6d3b3	srl	x7,x13,x26	 x13:0x80009f84 x26:0xfffffffc  x7=0x00000008
       36835000	      3682	80001938	01e19233	sll	x4,x3,x30	  x3:0x00000040 x30:0x01fac000  x4=0x00000040
       36845000	      3683	8000193c	04c20863	beq	x4,x12,8000198c	  x4:0x00000040 x12:0x80009fc4
       36855000	      3684	80001940	9c08ab13	slti	x22,x17,-1600	 x17:0x000001cd x22=0x00000000
       36865000	      3685	80001944	00146e33	or	x28,x8,x1	  x8:0x00000000  x1:0xc4742090 x28=0xc4742090
       36875000	      3686	80001948	902a4e93	xori	x29,x20,-1790	 x20:0xfffffe34 x29=0x00000736
       36885000	      3687	8000194c	01fc1133	sll	x2,x24,x31	 x24:0x00000010 x31:0xfffffff0  x2=0x00100000
       36895000	      3688	80001950	01e4a8b3	slt	x17,x9,x30	  x9:0x7fff5e70 x30:0x01fac000 x17=0x00000000
       36905000	      3689	80001954	0008d513	srli	x10,x17,0x0	 x17:0x00000000 x10=0x00000000
       36915000	      3690	80001958	0ab90217	auipc	x4,0xab90	  x4=0x8ab91954
       36925000	      3691	8000195c	04ea4063	blt	x20,x14,8000199c	 x20:0xfffffe34 x14:0x80009fc4
       36935000	      3692	80001960	039cc063	blt	x25,x25,80001980	 x25:0x00000001 x25:0x00000001
       36945000	      3693	80001964	00000013	addi	x0,x0,0	  x0:0x00000000
       36955000	      3694	80001968	09125463	bge	x4,x17,800019f0	  x4:0x8ab91954 x17:0x00000000
       36965000	      3695	8000196c	0aba4537	lui	x10,0xaba4	 x10=0x0aba4000
       36975000	      3696	80001970	00adceb3	xor	x29,x27,x10	 x27:0x000005c4 x10:0x0aba4000 x29=0x0aba45c4
       36985000	      3697	80001974	01d560b3	or	x1,x10,x29	 x10:0x0aba4000 x29:0x0aba45c4  x1=0x0aba45c4
       36995000	      3698	80001978	00f2d3b3	srl	x7,x5,x15	  x5:0x00000000 x15:0x00004fc2  x7=0x00000000
       37005000	      3699	8000197c	00bb10b3	sll	x1,x22,x11	 x22:0x00000000 x11:0x80142fd8  x1=0x00000000
       37015000	      3700	80001980	48547d37	lui	x26,0x48547	 x26=0x48547000
       37025000	      3701	80001984	00ec7863	bgeu	x24,x14,80001994	 x24:0x00000010 x14:0x80009fc4
       37035000	      3702	80001988	23f74c93	xori	x25,x14,575	 x14:0x80009fc4 x25=0x80009dfb
       37045000	      3703	8000198c	06136e63	bltu	x6,x1,80001a08	  x6:0x00000000  x1:0x00000000
       37055000	      3704	80001990	361a4f13	xori	x30,x20,865	 x20:0xfffffe34 x30=0xfffffd55
       37065000	      3705	80001994	01487e37	lui	x28,0x1487	 x28=0x01487000
       37075000	      3706	80001998	01f3b233	sltu	x4,x7,x31	  x7:0x00000000 x31:0xfffffff0  x4=0x00000001
       37085000	      3707	8000199c	1dfa0493	addi	x9,x20,479	 x20:0xfffffe34  x9=0x00000013
       37095000	      3708	800019a0	00247ab3	and	x21,x8,x2	  x8:0x00000000  x2:0x00100000 x21=0x00000000
       37105000	      3709	800019a4	00118463	beq	x3,x1,800019ac	  x3:0x00000040  x1:0x00000000
       37115000	      3710	800019a8	c0590993	addi	x19,x18,-1019	 x18:0xfffffcbc x19=0xfffff8c1
       37125000	      3711	800019ac	01e94e33	xor	x28,x18,x30	 x18:0xfffffcbc x30:0xfffffd55 x28=0x000001e9
       37135000	      3712	800019b0	9d39ea97	auipc	x21,0x9d39e	 x21=0x1d39f9ac
       37145000	      3713	800019b4	f0e00e13	addi	x28,x0,-242	  x0:0x00000000 x28=0xffffff0e
       37155000	      3714	800019b8	0240036f	jal	x6,800019b8	  x6=0x800019b8
       37165000	      3715	00000000	00000013	addi	x0,x0,0	  x0:0x00000000
       37175000	      3716	800019d8	00000013	addi	x0,x0,0	  x0:0x00000000
       37185000	      3717	800019dc	fe1ff36f	jal	x6,800019dc	  x6=0x800019dc
       37195000	      3718	00000000	00000013	addi	x0,x0,0	  x0:0x00000000
       37205000	      3719	800019b8	00000013	addi	x0,x0,0	  x0:0x00000000
       37215000	      3720	800019bc	018000ef	jal	x1,800019bc	  x1=0x800019bc
       37225000	      3721	00000000	00000013	addi	x0,x0,0	  x0:0x00000000
       37235000	      3722	800019d0	00000013	addi	x0,x0,0	  x0:0x00000000
       37245000	      3723	800019d4	ff9ff0ef	jal	x1,800019d4	  x1=0x800019d4
       37255000	      3724	00000000	00000013	addi	x0,x0,0	  x0:0x00000000
       37265000	      3725	800019c8	00000013	addi	x0,x0,0	  x0:0x00000000
       37275000	      3726	800019cc	014000ef	jal	x1,800019cc	  x1=0x800019cc
       37285000	      3727	00000000	00000013	addi	x0,x0,0	  x0:0x00000000
       37295000	      3728	800019dc	00000013	addi	x0,x0,0	  x0:0x00000000
       37305000	      3729	800019e0	ff1ff0ef	jal	x1,800019e0	  x1=0x800019e0
       37315000	      3730	00000000	00000013	addi	x0,x0,0	  x0:0x00000000
       37325000	      3731	800019cc	00000013	addi	x0,x0,0	  x0:0x00000000
       37335000	      3732	800019d0	ff9ff26f	jal	x4,800019d0	  x4=0x800019d0
       37345000	      3733	00000000	00000013	addi	x0,x0,0	  x0:0x00000000
       37355000	      3734	800019c4	00000013	addi	x0,x0,0	  x0:0x00000000
       37365000	      3735	800019c8	01c00c6f	jal	x24,800019c8	 x24=0x800019c8
       37375000	      3736	00000000	00000013	addi	x0,x0,0	  x0:0x00000000
       37385000	      3737	800019e0	00000013	addi	x0,x0,0	  x0:0x00000000
       37395000	      3738	800019e4	fddff0ef	jal	x1,800019e4	  x1=0x800019e4
       37405000	      3739	00000000	00000013	addi	x0,x0,0	  x0:0x00000000
       37415000	      3740	800019bc	00000013	addi	x0,x0,0	  x0:0x00000000
       37425000	      3741	800019c0	018000ef	jal	x1,800019c0	  x1=0x800019c0
       37435000	      3742	00000000	00000013	addi	x0,x0,0	  x0:0x00000000
       37445000	      3743	800019d4	00000013	addi	x0,x0,0	  x0:0x00000000
       37455000	      3744	800019d8	010001ef	jal	x3,800019d8	  x3=0x800019d8
       37465000	      3745	00000000	00000013	addi	x0,x0,0	  x0:0x00000000
       37475000	      3746	800019e4	00000013	addi	x0,x0,0	  x0:0x00000000
       37485000	      3747	800019e8	fddfff6f	jal	x30,800019e8	 x30=0x800019e8
       37495000	      3748	00000000	00000013	addi	x0,x0,0	  x0:0x00000000
       37505000	      3749	800019c0	00000013	addi	x0,x0,0	  x0:0x00000000
       37515000	      3750	800019c4	028000ef	jal	x1,800019c4	  x1=0x800019c4
       37525000	      3751	00000000	00000013	addi	x0,x0,0	  x0:0x00000000
       37535000	      3752	800019e8	00000013	addi	x0,x0,0	  x0:0x00000000
       37545000	      3753	800019ec	01af1513	slli	x10,x30,0x1a	 x30:0x800019e8 x10=0xa0000000
       37555000	      3754	800019f0	00402a33	slt	x20,x0,x4	  x0:0x00000000  x4:0x800019d0 x20=0x00000000
       37565000	      3755	800019f4	016e6233	or	x4,x28,x22	 x28:0xffffff0e x22:0x00000000  x4=0xffffff0e
       37575000	      3756	800019f8	6f37c193	xori	x3,x15,1779	 x15:0x00004fc2  x3=0x00004931
       37585000	      3757	800019fc	017e2633	slt	x12,x28,x23	 x28:0xffffff0e x23:0xffffff80 x12=0x00000001
       37595000	      3758	80001a00	69f73d17	auipc	x26,0x69f73	 x26=0xe9f749fc
       37605000	      3759	80001a04	01e4f263	bgeu	x9,x30,80001a08	  x9:0x00000013 x30:0x800019e8
       37615000	      3760	80001a08	01cd8db3	add	x27,x27,x28	 x27:0x000005c4 x28:0xffffff0e x27=0x000004d2
       37625000	      3761	80001a0c	01d1fd33	and	x26,x3,x29	  x3:0x00004931 x29:0x0aba45c4 x26=0x00004100
       37635000	      3762	80001a10	01ed4463	blt	x26,x30,80001a18	 x26:0x00004100 x30:0x800019e8
       37645000	      3763	80001a14	40f3d413	srai	x8,x7,0xf	  x7:0x00000000  x8=0x00000000
       37655000	      3764	80001a18	00000013	addi	x0,x0,0	  x0:0x00000000
       37665000	      3765	80001a1c	f83fea93	ori	x21,x31,-125	 x31:0xfffffff0 x21=0xfffffff3
       37675000	      3766	80001a20	cb31cb93	xori	x23,x3,-845	  x3:0x00004931 x23=0xffffb582
       37685000	      3767	80001a24	e91b6013	ori	x0,x22,-367	 x22:0x00000000
       37695000	      3768	80001a28	4dda8813	addi	x16,x21,1245	 x21:0xfffffff3 x16=0x000004d0
       37705000	      3769	80001a2c	40b70ab3	sub	x21,x14,x11	 x14:0x80009fc4 x11:0x80142fd8 x21=0xffec6fec
       37715000	      3770	80001a30	002e4db3	xor	x27,x28,x2	 x28:0xffffff0e  x2:0x00100000 x27=0xffefff0e
       37725000	      3771	80001a34	0363d663	bge	x7,x22,80001a60	  x7:0x00000000 x22:0x00000000
       37735000	      3772	00000000	00000013	addi	x0,x0,0	  x0:0x00000000
       37745000	      3773	80001a5c	00000013	addi	x0,x0,0	  x0:0x00000000
       37755000	      3774	80001a60	010a9c13	slli	x24,x21,0x10	 x21:0xffec6fec x24=0x6fec0000
       37765000	      3775	80001a64	01fb40b3	xor	x1,x22,x31	 x22:0x00000000 x31:0xfffffff0  x1=0xfffffff0
       37775000	      3776	80001a68	00059e13	slli	x28,x11,0x0	 x11:0x80142fd8 x28=0x80142fd8
       37785000	      3777	80001a6c	001fb933	sltu	x18,x31,x1	 x31:0xfffffff0  x1:0xfffffff0 x18=0x00000000
       37795000	      3778	80001a70	030d4663	blt	x26,x16,80001a9c	 x26:0x00004100 x16:0x000004d0
       37805000	      3779	80001a74	013d2fb3	slt	x31,x26,x19	 x26:0x00004100 x19:0xfffff8c1 x31=0x00000000
       37815000	      3780	80001a78	01602133	slt	x2,x0,x22	  x0:0x00000000 x22:0x00000000  x2=0x00000000
       37825000	      3781	80001a7c	000879b3	and	x19,x16,x0	 x16:0x000004d0  x0:0x00000000 x19=0x00000000
       37835000	      3782	80001a80	00b11eb3	sll	x29,x2,x11	  x2:0x00000000 x11:0x80142fd8 x29=0x00000000
       37845000	      3783	80001a84	01ee6a63	bltu	x28,x30,80001a98	 x28:0x80142fd8 x30:0x800019e8
       37855000	      3784	80001a88	416f5813	srai	x16,x30,0x16	 x30:0x800019e8 x16=0xfffffe00
       37865000	      3785	80001a8c	00044433	xor	x8,x8,x0	  x8:0x00000000  x0:0x00000000  x8=0x00000000
       37875000	      3786	80001a90	41cfd813	srai	x16,x31,0x1c	 x31:0x00000000 x16=0x00000000
       37885000	      3787	80001a94	403cd1b3	sra	x3,x25,x3	 x25:0x80009dfb  x3:0x00004931  x3=0xffffc000
       37895000	      3788	80001a98	01bab8b3	sltu	x17,x21,x27	 x21:0xffec6fec x27:0xffefff0e x17=0x00000001
       37905000	      3789	80001a9c	0e6ec093	xori	x1,x29,230	 x29:0x00000000  x1=0x000000e6
       37915000	      3790	80001aa0	06a97c63	bgeu	x18,x10,80001b18	 x18:0x00000000 x10:0xa0000000
       37925000	      3791	80001aa4	0004e863	bltu	x9,x0,80001ab4	  x9:0x00000013  x0:0x00000000
       37935000	      3792	80001aa8	00629e93	slli	x29,x5,0x6	  x5:0x00000000 x29=0x00000000
       37945000	      3793	80001aac	0102a433	slt	x8,x5,x16	  x5:0x00000000 x16:0x00000000  x8=0x00000000
       37955000	      3794	80001ab0	06d18063	beq	x3,x13,80001b10	  x3:0xffffc000 x13:0x80009f84
       37965000	      3795	80001ab4	01131433	sll	x8,x6,x17	  x6:0x800019dc x17:0x00000001  x8=0x000033b8
       37975000	      3796	80001ab8	aa2aa413	slti	x8,x21,-1374	 x21:0xffec6fec  x8=0x00000001
       37985000	      3797	80001abc	5933e813	ori	x16,x7,1427	  x7:0x00000000 x16=0x00000593
       37995000	      3798	80001ac0	007451b3	srl	x3,x8,x7	  x8:0x00000001  x7:0x00000000  x3=0x00000001
       38005000	      3799	80001ac4	46e44a13	xori	x20,x8,1134	  x8:0x00000001 x20=0x0000046f
       38015000	      3800	80001ac8	00002f97	auipc	x31,0x2	 x31=0x80003ac4
       38025000	      3801	80001acc	084f8f93	addi	x31,x31,132	 x31:0x80003ac4 x31=0x80003b48
       38035000	      3802	80001ad0	1a236b17	auipc	x22,0x1a236	 x22=0x9a237acc
       38045000	      3803	80001ad4	256f8f93	addi	x31,x31,598	 x31:0x80003b48 x31=0x80003d9e
       38055000	      3804	80001ad8	38a3ae13	slti	x28,x7,906	  x7:0x00000000 x28=0x00000001
       38065000	      3805	80001adc	0173da63	bge	x7,x23,80001af0	  x7:0x00000000 x23:0xffffb582
       38075000	      3806	00000000	00000013	addi	x0,x0,0	  x0:0x00000000
       38085000	      3807	80001aec	00000013	addi	x0,x0,0	  x0:0x00000000
       38095000	      3808	80001af0	dabf8367	jalr	x6,x31,-597	 x31:0x80003d9e  x6=0x80001af0
       38105000	      3809	00000000	00000013	addi	x0,x0,0	  x0:0x00000000
       38115000	      3810	80003b48	00000013	addi	x0,x0,0	  x0:0x00000000
       38125000	      3811	80003b4c	40a20bb3	sub	x23,x4,x10	  x4:0xffffff0e x10:0xa0000000 x23=0x5fffff0e
       38135000	      3812	80003b50	ff868693	addi	x13,x13,-8	 x13:0x80009f84 x13=0x80009f7c
       38145000	      3813	80003b54	01828033	add	x0,x5,x24	  x5:0x00000000 x24:0x6fec0000
       38155000	      3814	80003b58	07134913	xori	x18,x6,113	  x6:0x80001af0 x18=0x80001a81
       38165000	      3815	80003b5c	0066a223	sw	x6,4(x13)	 x13:0x80009f7c  x6:0x80001af0 PA:0x80009f80
       38175000	      3816	80003b60	410fd533	sra	x10,x31,x16	 x31:0x80003d9e x16:0x00000593 x10=0xfffff000
       38185000	      3817	80003b64	6463f793	andi	x15,x7,1606	  x7:0x00000000 x15=0x00000000
       38195000	      3818	80003b68	00313633	sltu	x12,x2,x3	  x2:0x00000000  x3:0x00000001 x12=0x00000001
       38205000	      3819	80003b6c	0197edb3	or	x27,x15,x25	 x15:0x00000000 x25:0x80009dfb x27=0x80009dfb
       38215000	      3820	80003b70	41025793	srai	x15,x4,0x10	  x4:0xffffff0e x15=0xffffffff
       38225000	      3821	80003b74	0280036f	jal	x6,80003b74	  x6=0x80003b74
       38235000	      3822	00000000	00000013	addi	x0,x0,0	  x0:0x00000000
       38245000	      3823	80003b98	00000013	addi	x0,x0,0	  x0:0x00000000
       38255000	      3824	80003b9c	004000ef	jal	x1,80003b9c	  x1=0x80003b9c
       38265000	      3825	00000000	00000013	addi	x0,x0,0	  x0:0x00000000
       38275000	      3826	80003b9c	00000013	addi	x0,x0,0	  x0:0x00000000
       38285000	      3827	80003ba0	04400a6f	jal	x20,80003ba0	 x20=0x80003ba0
       38295000	      3828	00000000	00000013	addi	x0,x0,0	  x0:0x00000000
       38305000	      3829	80003be0	00000013	addi	x0,x0,0	  x0:0x00000000
       38315000	      3830	80003be4	ff9ff0ef	jal	x1,80003be4	  x1=0x80003be4
       38325000	      3831	00000000	00000013	addi	x0,x0,0	  x0:0x00000000
       38335000	      3832	80003bd8	00000013	addi	x0,x0,0	  x0:0x00000000
       38345000	      3833	80003bdc	fb9ff0ef	jal	x1,80003bdc	  x1=0x80003bdc
       38355000	      3834	00000000	00000013	addi	x0,x0,0	  x0:0x00000000
       38365000	      3835	80003b90	00000013	addi	x0,x0,0	  x0:0x00000000
       38375000	      3836	80003b94	fe5ff36f	jal	x6,80003b94	  x6=0x80003b94
       38385000	      3837	00000000	00000013	addi	x0,x0,0	  x0:0x00000000
       38395000	      3838	80003b74	00000013	addi	x0,x0,0	  x0:0x00000000
       38405000	      3839	80003b78	0080036f	jal	x6,80003b78	  x6=0x80003b78
       38415000	      3840	00000000	00000013	addi	x0,x0,0	  x0:0x00000000
       38425000	      3841	80003b7c	00000013	addi	x0,x0,0	  x0:0x00000000
       38435000	      3842	80003b80	008001ef	jal	x3,80003b80	  x3=0x80003b80
       38445000	      3843	00000000	00000013	addi	x0,x0,0	  x0:0x00000000
       38455000	      3844	80003b84	00000013	addi	x0,x0,0	  x0:0x00000000
       38465000	      3845	80003b88	04c000ef	jal	x1,80003b88	  x1=0x80003b88
       38475000	      3846	00000000	00000013	addi	x0,x0,0	  x0:0x00000000
       38485000	      3847	80003bd0	00000013	addi	x0,x0,0	  x0:0x00000000
       38495000	      3848	80003bd4	fe1ff36f	jal	x6,80003bd4	  x6=0x80003bd4
       38505000	      3849	00000000	00000013	addi	x0,x0,0	  x0:0x00000000
       38515000	      3850	80003bb0	00000013	addi	x0,x0,0	  x0:0x00000000
       38525000	      3851	80003bb4	ff5ff0ef	jal	x1,80003bb4	  x1=0x80003bb4
       38535000	      3852	00000000	00000013	addi	x0,x0,0	  x0:0x00000000
       38545000	      3853	80003ba4	00000013	addi	x0,x0,0	  x0:0x00000000
       38555000	      3854	80003ba8	014000ef	jal	x1,80003ba8	  x1=0x80003ba8
       38565000	      3855	00000000	00000013	addi	x0,x0,0	  x0:0x00000000
       38575000	      3856	80003bb8	00000013	addi	x0,x0,0	  x0:0x00000000
       38585000	      3857	80003bbc	fc9ff0ef	jal	x1,80003bbc	  x1=0x80003bbc
       38595000	      3858	00000000	00000013	addi	x0,x0,0	  x0:0x00000000
       38605000	      3859	80003b80	00000013	addi	x0,x0,0	  x0:0x00000000
       38615000	      3860	80003b84	0280036f	jal	x6,80003b84	  x6=0x80003b84
       38625000	      3861	00000000	00000013	addi	x0,x0,0	  x0:0x00000000
       38635000	      3862	80003ba8	00000013	addi	x0,x0,0	  x0:0x00000000
       38645000	      3863	80003bac	ff9ff0ef	jal	x1,80003bac	  x1=0x80003bac
       38655000	      3864	00000000	00000013	addi	x0,x0,0	  x0:0x00000000
       38665000	      3865	80003ba0	00000013	addi	x0,x0,0	  x0:0x00000000
       38675000	      3866	80003ba4	024000ef	jal	x1,80003ba4	  x1=0x80003ba4
       38685000	      3867	00000000	00000013	addi	x0,x0,0	  x0:0x00000000
       38695000	      3868	80003bc4	00000013	addi	x0,x0,0	  x0:0x00000000
       38705000	      3869	80003bc8	ff1ff0ef	jal	x1,80003bc8	  x1=0x80003bc8
       38715000	      3870	00000000	00000013	addi	x0,x0,0	  x0:0x00000000
       38725000	      3871	80003bb4	00000013	addi	x0,x0,0	  x0:0x00000000
       38735000	      3872	80003bb8	fc5ff0ef	jal	x1,80003bb8	  x1=0x80003bb8
       38745000	      3873	00000000	00000013	addi	x0,x0,0	  x0:0x00000000
       38755000	      3874	80003b78	00000013	addi	x0,x0,0	  x0:0x00000000
       38765000	      3875	80003b7c	0340026f	jal	x4,80003b7c	  x4=0x80003b7c
       38775000	      3876	00000000	00000013	addi	x0,x0,0	  x0:0x00000000
       38785000	      3877	80003bac	00000013	addi	x0,x0,0	  x0:0x00000000
       38795000	      3878	80003bb0	01c009ef	jal	x19,80003bb0	 x19=0x80003bb0
       38805000	      3879	00000000	00000013	addi	x0,x0,0	  x0:0x00000000
       38815000	      3880	80003bc8	00000013	addi	x0,x0,0	  x0:0x00000000
       38825000	      3881	80003bcc	004000ef	jal	x1,80003bcc	  x1=0x80003bcc
       38835000	      3882	00000000	00000013	addi	x0,x0,0	  x0:0x00000000
       38845000	      3883	80003bcc	00000013	addi	x0,x0,0	  x0:0x00000000
       38855000	      3884	80003bd0	fc1ff0ef	jal	x1,80003bd0	  x1=0x80003bd0
       38865000	      3885	00000000	00000013	addi	x0,x0,0	  x0:0x00000000
       38875000	      3886	80003b8c	00000013	addi	x0,x0,0	  x0:0x00000000
       38885000	      3887	80003b90	034000ef	jal	x1,80003b90	  x1=0x80003b90
       38895000	      3888	00000000	00000013	addi	x0,x0,0	  x0:0x00000000
       38905000	      3889	80003bc0	00000013	addi	x0,x0,0	  x0:0x00000000
       38915000	      3890	80003bc4	fd5ff0ef	jal	x1,80003bc4	  x1=0x80003bc4
       38925000	      3891	00000000	00000013	addi	x0,x0,0	  x0:0x00000000
       38935000	      3892	80003b94	00000013	addi	x0,x0,0	  x0:0x00000000
       38945000	      3893	80003b98	ff5ff36f	jal	x6,80003b98	  x6=0x80003b98
       38955000	      3894	00000000	00000013	addi	x0,x0,0	  x0:0x00000000
       38965000	      3895	80003b88	00000013	addi	x0,x0,0	  x0:0x00000000
       38975000	      3896	80003b8c	054000ef	jal	x1,80003b8c	  x1=0x80003b8c
       38985000	      3897	00000000	00000013	addi	x0,x0,0	  x0:0x00000000
       38995000	      3898	80003bdc	00000013	addi	x0,x0,0	  x0:0x00000000
       39005000	      3899	80003be0	ff9ff36f	jal	x6,80003be0	  x6=0x80003be0
       39015000	      3900	00000000	00000013	addi	x0,x0,0	  x0:0x00000000
       39025000	      3901	80003bd4	00000013	addi	x0,x0,0	  x0:0x00000000
       39035000	      3902	80003bd8	fe9ff0ef	jal	x1,80003bd8	  x1=0x80003bd8
       39045000	      3903	00000000	00000013	addi	x0,x0,0	  x0:0x00000000
       39055000	      3904	80003bbc	00000013	addi	x0,x0,0	  x0:0x00000000
       39065000	      3905	80003bc0	028000ef	jal	x1,80003bc0	  x1=0x80003bc0
       39075000	      3906	00000000	00000013	addi	x0,x0,0	  x0:0x00000000
       39085000	      3907	80003be4	00000013	addi	x0,x0,0	  x0:0x00000000
       39095000	      3908	80003be8	8fdd4a93	xori	x21,x26,-1795	 x26:0x00004100 x21=0xffffb9fd
       39105000	      3909	80003bec	fbd34013	xori	x0,x6,-67	  x6:0x80003be0
       39115000	      3910	80003bf0	00ae9013	slli	x0,x29,0xa	 x29:0x00000000
       39125000	      3911	80003bf4	60088f13	addi	x30,x17,1536	 x17:0x00000001 x30=0x00000601
       39135000	      3912	80003bf8	02934a63	blt	x6,x9,80003c2c	  x6:0x80003be0  x9:0x00000013
       39145000	      3913	00000000	00000013	addi	x0,x0,0	  x0:0x00000000
       39155000	      3914	80003c28	00000013	addi	x0,x0,0	  x0:0x00000000
       39165000	      3915	80003c2c	3e5ad497	auipc	x9,0x3e5ad	  x9=0xbe5b0c28
       39175000	      3916	80003c30	02a01663	bne	x0,x10,80003c5c	  x0:0x00000000 x10:0xfffff000
       39185000	      3917	00000000	00000013	addi	x0,x0,0	  x0:0x00000000
       39195000	      3918	80003c58	00000013	addi	x0,x0,0	  x0:0x00000000
       39205000	      3919	80003c5c	03a41463	bne	x8,x26,80003c84	  x8:0x00000001 x26:0x00004100
       39215000	      3920	00000000	00000013	addi	x0,x0,0	  x0:0x00000000
       39225000	      3921	80003c80	00000013	addi	x0,x0,0	  x0:0x00000000
       39235000	      3922	80003c84	40d18cb3	sub	x25,x3,x13	  x3:0x80003b80 x13:0x80009f7c x25=0xffff9c04
       39245000	      3923	80003c88	46428493	addi	x9,x5,1124	  x5:0x00000000  x9=0x00000464
       39255000	      3924	80003c8c	4ea37193	andi	x3,x6,1258	  x6:0x80003be0  x3=0x000000e0
       39265000	      3925	80003c90	013ef633	and	x12,x29,x19	 x29:0x00000000 x19:0x80003bb0 x12=0x00000000
       39275000	      3926	80003c94	01a1d933	srl	x18,x3,x26	  x3:0x000000e0 x26:0x00004100 x18=0x000000e0
       39285000	      3927	80003c98	01b4d263	bge	x9,x27,80003c9c	  x9:0x00000464 x27:0x80009dfb
       39295000	      3928	00000000	00000013	addi	x0,x0,0	  x0:0x00000000
       39305000	      3929	80003c98	00000013	addi	x0,x0,0	  x0:0x00000000
       39315000	      3930	80003c9c	01d74d33	xor	x26,x14,x29	 x14:0x80009fc4 x29:0x00000000 x26=0x80009fc4
       39325000	      3931	80003ca0	017ff033	and	x0,x31,x23	 x31:0x80003d9e x23:0x5fffff0e
       39335000	      3932	80003ca4	37f15637	lui	x12,0x37f15	 x12=0x37f15000
       39345000	      3933	80003ca8	43fd7d13	andi	x26,x26,1087	 x26:0x80009fc4 x26=0x00000404
       39355000	      3934	80003cac	02811063	bne	x2,x8,80003ccc	  x2:0x00000000  x8:0x00000001
       39365000	      3935	00000000	00000013	addi	x0,x0,0	  x0:0x00000000
       39375000	      3936	80003cc8	00000013	addi	x0,x0,0	  x0:0x00000000
       39385000	      3937	80003ccc	c9c08a93	addi	x21,x1,-868	  x1:0x80003bc0 x21=0x8000385c
       39395000	      3938	80003cd0	ac3eca93	xori	x21,x29,-1341	 x29:0x00000000 x21=0xfffffac3
       39405000	      3939	80003cd4	406bd893	srai	x17,x23,0x6	 x23:0x5fffff0e x17=0x017ffffc
       39415000	      3940	80003cd8	27526893	ori	x17,x4,629	  x4:0x80003b7c x17=0x80003b7d
       39425000	      3941	80003cdc	4a320b93	addi	x23,x4,1187	  x4:0x80003b7c x23=0x8000401f
       39435000	      3942	80003ce0	40225913	srai	x18,x4,0x2	  x4:0x80003b7c x18=0xe0000edf
       39445000	      3943	80003ce4	41dddfb3	sra	x31,x27,x29	 x27:0x80009dfb x29:0x00000000 x31=0x80009dfb
       39455000	      3944	80003ce8	00a821b3	slt	x3,x16,x10	 x16:0x00000593 x10:0xfffff000  x3=0x00000000
       39465000	      3945	80003cec	c06f6e13	ori	x28,x30,-1018	 x30:0x00000601 x28=0xfffffe07
       39475000	      3946	80003cf0	01a784b3	add	x9,x15,x26	 x15:0xffffffff x26:0x00000404  x9=0x00000403
       39485000	      3947	80003cf4	00186263	bltu	x16,x1,80003cf8	 x16:0x00000593  x1:0x80003bc0
       39495000	      3948	00000000	00000013	addi	x0,x0,0	  x0:0x00000000
       39505000	      3949	80003cf4	00000013	addi	x0,x0,0	  x0:0x00000000
       39515000	      3950	80003cf8	00000013	addi	x0,x0,0	  x0:0x00000000
       39525000	      3951	80003cfc	0046a303	lw	x6,4(x13)	 x13:0x80009f7c  x6=0x80001af0 PA:0x80009f80
       39535000	      3952	80003d00	4111d813	srai	x16,x3,0x11	  x3:0x00000000 x16=0x00000000
       39545000	      3953	80003d04	fdbf3213	sltiu	x4,x30,-37	 x30:0x00000601  x4=0x00000001
       39555000	      3954	80003d08	0032f033	and	x0,x5,x3	  x5:0x00000000  x3:0x00000000
       39565000	      3955	80003d0c	00868693	addi	x13,x13,8	 x13:0x80009f7c x13=0x80009f84
       39575000	      3956	80003d10	004aba33	sltu	x20,x21,x4	 x21:0xfffffac3  x4:0x00000001 x20=0x00000000
       39585000	      3957	80003d14	00130e13	addi	x28,x6,1	  x6:0x80001af0 x28=0x80001af1
       39595000	      3958	80003d18	000e0e67	jalr	x28,x28,0	 x28:0x80001af1 x28=0x80003d18
       39605000	      3959	00000000	00000013	addi	x0,x0,0	  x0:0x00000000
       39615000	      3960	80001af0	00000013	addi	x0,x0,0	  x0:0x00000000
       39625000	      3961	80001af4	40555913	srai	x18,x10,0x5	 x10:0xfffff000 x18=0xffffff80
       39635000	      3962	80001af8	0002f133	and	x2,x5,x0	  x5:0x00000000  x0:0x00000000  x2=0x00000000
       39645000	      3963	80001afc	05f8e463	bltu	x17,x31,80001b44	 x17:0x80003b7d x31:0x80009dfb
       39655000	      3964	00000000	00000013	addi	x0,x0,0	  x0:0x00000000
       39665000	      3965	80001b40	00000013	addi	x0,x0,0	  x0:0x00000000
       39675000	      3966	80001b44	01f265b3	or	x11,x4,x31	  x4:0x00000001 x31:0x80009dfb x11=0x80009dfb
       39685000	      3967	80001b48	00a949b3	xor	x19,x18,x10	 x18:0xffffff80 x10:0xfffff000 x19=0x00000f80
       39695000	      3968	80001b4c	04266663	bltu	x12,x2,80001b98	 x12:0x37f15000  x2:0x00000000
       39705000	      3969	80001b50	a6700e13	addi	x28,x0,-1433	  x0:0x00000000 x28=0xfffffa67
       39715000	      3970	80001b54	8a686e13	ori	x28,x16,-1882	 x16:0x00000000 x28=0xfffff8a6
       39725000	      3971	80001b58	244e7337	lui	x6,0x244e7	  x6=0x244e7000
       39735000	      3972	80001b5c	bce27a13	andi	x20,x4,-1074	  x4:0x00000001 x20=0x00000000
       39745000	      3973	80001b60	41895033	sra	x0,x18,x24	 x18:0xffffff80 x24:0x6fec0000
       39755000	      3974	80001b64	01c8d593	srli	x11,x17,0x1c	 x17:0x80003b7d x11=0x00000008
       39765000	      3975	80001b68	41a4d0b3	sra	x1,x9,x26	  x9:0x00000403 x26:0x00000404  x1=0x00000040
       39775000	      3976	80001b6c	0151d833	srl	x16,x3,x21	  x3:0x00000000 x21:0xfffffac3 x16=0x00000000
       39785000	      3977	80001b70	006d7d33	and	x26,x26,x6	 x26:0x00000404  x6:0x244e7000 x26=0x00000000
       39795000	      3978	80001b74	01ea45b3	xor	x11,x20,x30	 x20:0x00000000 x30:0x00000601 x11=0x00000601
       39805000	      3979	80001b78	01ba2c33	slt	x24,x20,x27	 x20:0x00000000 x27:0x80009dfb x24=0x00000000
       39815000	      3980	80001b7c	01ac9113	slli	x2,x25,0x1a	 x25:0xffff9c04  x2=0x10000000
       39825000	      3981	80001b80	016ad393	srli	x7,x21,0x16	 x21:0xfffffac3  x7=0x000003ff
       39835000	      3982	80001b84	41f4d933	sra	x18,x9,x31	  x9:0x00000403 x31:0x80009dfb x18=0x00000000
       39845000	      3983	80001b88	03929063	bne	x5,x25,80001ba8	  x5:0x00000000 x25:0xffff9c04
       39855000	      3984	00000000	00000013	addi	x0,x0,0	  x0:0x00000000
       39865000	      3985	80001ba4	00000013	addi	x0,x0,0	  x0:0x00000000
       39875000	      3986	80001ba8	00f3de63	bge	x7,x15,80001bc4	  x7:0x000003ff x15:0xffffffff
       39885000	      3987	00000000	00000013	addi	x0,x0,0	  x0:0x00000000
       39895000	      3988	80001bc0	00000013	addi	x0,x0,0	  x0:0x00000000
       39905000	      3989	80001bc4	7595f913	andi	x18,x11,1881	 x11:0x00000601 x18=0x00000601
       39915000	      3990	80001bc8	00fec463	blt	x29,x15,80001bd0	 x29:0x00000000 x15:0xffffffff
       39925000	      3991	80001bcc	00ca9e93	slli	x29,x21,0xc	 x21:0xfffffac3 x29=0xffac3000
       39935000	      3992	80001bd0	4f6a8d13	addi	x26,x21,1270	 x21:0xfffffac3 x26=0xffffffb9
       39945000	      3993	80001bd4	005d1b33	sll	x22,x26,x5	 x26:0xffffffb9  x5:0x00000000 x22=0xffffffb9
       39955000	      3994	80001bd8	011bd463	bge	x23,x17,80001be0	 x23:0x8000401f x17:0x80003b7d
       39965000	      3995	00000000	00000013	addi	x0,x0,0	  x0:0x00000000
       39975000	      3996	80001bdc	00000013	addi	x0,x0,0	  x0:0x00000000
       39985000	      3997	80001be0	006c0c63	beq	x24,x6,80001bf8	 x24:0x00000000  x6:0x244e7000
       39995000	      3998	80001be4	05126663	bltu	x4,x17,80001c30	  x4:0x00000001 x17:0x80003b7d
       40005000	      3999	00000000	00000013	addi	x0,x0,0	  x0:0x00000000
       40015000	      4000	80001c2c	00000013	addi	x0,x0,0	  x0:0x00000000
       40025000	      4001	80001c30	82578113	addi	x2,x15,-2011	 x15:0xffffffff  x2=0xfffff824
       40035000	      4002	80001c34	001f1e13	slli	x28,x30,0x1	 x30:0x00000601 x28=0x00000c02
       40045000	      4003	80001c38	005b8133	add	x2,x23,x5	 x23:0x8000401f  x5:0x00000000  x2=0x8000401f
       40055000	      4004	80001c3c	fe2ea193	slti	x3,x29,-30	 x29:0xffac3000  x3=0x00000001
       40065000	      4005	80001c40	02d1f263	bgeu	x3,x13,80001c64	  x3:0x00000001 x13:0x80009f84
       40075000	      4006	80001c44	da910c93	addi	x25,x2,-599	  x2:0x8000401f x25=0x80003dc8
       40085000	      4007	80001c48	00539793	slli	x15,x7,0x5	  x7:0x000003ff x15=0x00007fe0
       40095000	      4008	80001c4c	01293233	sltu	x4,x18,x18	 x18:0x00000601 x18:0x00000601  x4=0x00000000
       40105000	      4009	80001c50	46db2a93	slti	x21,x22,1133	 x22:0xffffffb9 x21=0x00000001
       40115000	      4010	80001c54	00bc1c13	slli	x24,x24,0xb	 x24:0x00000000 x24=0x00000000
       40125000	      4011	80001c58	00861433	sll	x8,x12,x8	 x12:0x37f15000  x8:0x00000001  x8=0x6fe2a000
       40135000	      4012	80001c5c	41105e13	srai	x28,x0,0x11	  x0:0x00000000 x28=0x00000000
       40145000	      4013	80001c60	4188df13	srai	x30,x17,0x18	 x17:0x80003b7d x30=0xffffff80
       40155000	      4014	80001c64	879e2f17	auipc	x30,0x879e2	 x30=0x079e3c60
       40165000	      4015	80001c68	012d87b3	add	x15,x27,x18	 x27:0x80009dfb x18:0x00000601 x15=0x8000a3fc
       40175000	      4016	80001c6c	32ad0a37	lui	x20,0x32ad0	 x20=0x32ad0000
       40185000	      4017	80001c70	01541e93	slli	x29,x8,0x15	  x8:0x6fe2a000 x29=0x00000000
       40195000	      4018	80001c74	013b2ab3	slt	x21,x22,x19	 x22:0xffffffb9 x19:0x00000f80 x21=0x00000001
       40205000	      4019	80001c78	057df863	bgeu	x27,x23,80001cc8	 x27:0x80009dfb x23:0x8000401f
       40215000	      4020	00000000	00000013	addi	x0,x0,0	  x0:0x00000000
       40225000	      4021	80001cc4	00000013	addi	x0,x0,0	  x0:0x00000000
       40235000	      4022	80001cc8	0108bcb3	sltu	x25,x17,x16	 x17:0x80003b7d x16:0x00000000 x25=0x00000000
       40245000	      4023	80001ccc	0071afb3	slt	x31,x3,x7	  x3:0x00000001  x7:0x000003ff x31=0x00000001
       40255000	      4024	80001cd0	382d6793	ori	x15,x26,898	 x26:0xffffffb9 x15=0xffffffbb
       40265000	      4025	80001cd4	044e9063	bne	x29,x4,80001d14	 x29:0x00000000  x4:0x00000000
       40275000	      4026	80001cd8	3d298a13	addi	x20,x19,978	 x19:0x00000f80 x20=0x00001352
       40285000	      4027	80001cdc	d5aba393	slti	x7,x23,-678	 x23:0x8000401f  x7=0x00000001
       40295000	      4028	80001ce0	44ed1317	auipc	x6,0x44ed1	  x6=0xc4ed2cdc
       40305000	      4029	80001ce4	419f0213	addi	x4,x30,1049	 x30:0x079e3c60  x4=0x079e4079
       40315000	      4030	80001ce8	0159d463	bge	x19,x21,80001cf0	 x19:0x00000f80 x21:0x00000001
       40325000	      4031	00000000	00000013	addi	x0,x0,0	  x0:0x00000000
       40335000	      4032	80001cec	00000013	addi	x0,x0,0	  x0:0x00000000
       40345000	      4033	80001cf0	01757c63	bgeu	x10,x23,80001d08	 x10:0xfffff000 x23:0x8000401f
       40355000	      4034	00000000	00000013	addi	x0,x0,0	  x0:0x00000000
       40365000	      4035	80001d04	00000013	addi	x0,x0,0	  x0:0x00000000
       40375000	      4036	80001d08	0443f063	bgeu	x7,x4,80001d48	  x7:0x00000001  x4:0x079e4079
       40385000	      4037	80001d0c	7951fa13	andi	x20,x3,1941	  x3:0x00000001 x20=0x00000001
       40395000	      4038	80001d10	05a40263	beq	x8,x26,80001d54	  x8:0x6fe2a000 x26:0xffffffb9
       40405000	      4039	80001d14	df9ebe93	sltiu	x29,x29,-519	 x29:0x00000000 x29=0x00000001
       40415000	      4040	80001d18	709efc97	auipc	x25,0x709ef	 x25=0xf09f0d14
       40425000	      4041	80001d1c	007503b3	add	x7,x10,x7	 x10:0xfffff000  x7:0x00000001  x7=0xfffff001
       40435000	      4042	80001d20	018ddc93	srli	x25,x27,0x18	 x27:0x80009dfb x25=0x00000080
       40445000	      4043	80001d24	018c2933	slt	x18,x24,x24	 x24:0x00000000 x24:0x00000000 x18=0x00000000
       40455000	      4044	80001d28	64e4a413	slti	x8,x9,1614	  x9:0x00000403  x8=0x00000001
       40465000	      4045	80001d2c	031a5063	bge	x20,x17,80001d4c	 x20:0x00000001 x17:0x80003b7d
       40475000	      4046	00000000	00000013	addi	x0,x0,0	  x0:0x00000000
       40485000	      4047	80001d48	00000013	addi	x0,x0,0	  x0:0x00000000
       40495000	      4048	80001d4c	00731093	slli	x1,x6,0x7	  x6:0xc4ed2cdc  x1=0x76966e00
       40505000	      4049	80001d50	404807b3	sub	x15,x16,x4	 x16:0x00000000  x4:0x079e4079 x15=0xf861bf87
       40515000	      4050	80001d54	505dcd93	xori	x27,x27,1285	 x27:0x80009dfb x27=0x800098fe
       40525000	      4051	80001d58	01adf463	bgeu	x27,x26,80001d60	 x27:0x800098fe x26:0xffffffb9
       40535000	      4052	80001d5c	00ccc263	blt	x25,x12,80001d60	 x25:0x00000080 x12:0x37f15000
       40545000	      4053	00000000	00000013	addi	x0,x0,0	  x0:0x00000000
       40555000	      4054	80001d5c	00000013	addi	x0,x0,0	  x0:0x00000000
       40565000	      4055	80001d60	00519863	bne	x3,x5,80001d70	  x3:0x00000001  x5:0x00000000
       40575000	      4056	00000000	00000013	addi	x0,x0,0	  x0:0x00000000
       40585000	      4057	80001d6c	00000013	addi	x0,x0,0	  x0:0x00000000
       40595000	      4058	80001d70	017f5f93	srli	x31,x30,0x17	 x30:0x079e3c60 x31=0x0000000f
       40605000	      4059	80001d74	c1fe4c13	xori	x24,x28,-993	 x28:0x00000000 x24=0xfffffc1f
       40615000	      4060	80001d78	01edc5b3	xor	x11,x27,x30	 x27:0x800098fe x30:0x079e3c60 x11=0x879ea49e
       40625000	      4061	80001d7c	6986cf37	lui	x30,0x6986c	 x30=0x6986c000
       40635000	      4062	80001d80	34b8c8b7	lui	x17,0x34b8c	 x17=0x34b8c000
       40645000	      4063	80001d84	047a7663	bgeu	x20,x7,80001dd0	 x20:0x00000001  x7:0xfffff001
       40655000	      4064	80001d88	00460433	add	x8,x12,x4	 x12:0x37f15000  x4:0x079e4079  x8=0x3f8f9079
       40665000	      4065	80001d8c	764ef013	andi	x0,x29,1892	 x29:0x00000001
       40675000	      4066	80001d90	8d92d337	lui	x6,0x8d92d	  x6=0x8d92d000
       40685000	      4067	80001d94	00000013	addi	x0,x0,0	  x0:0x00000000
       40695000	      4068	80001d98	007dde63	bge	x27,x7,80001db4	 x27:0x800098fe  x7:0xfffff001
       40705000	      4069	80001d9c	01cb9413	slli	x8,x23,0x1c	 x23:0x8000401f  x8=0xf0000000
       40715000	      4070	80001da0	bb8dc893	xori	x17,x27,-1096	 x27:0x800098fe x17=0x7fff6346
       40725000	      4071	80001da4	bfd0e313	ori	x6,x1,-1027	  x1:0x76966e00  x6=0xfffffffd
       40735000	      4072	80001da8	0092ca63	blt	x5,x9,80001dbc	  x5:0x00000000  x9:0x00000403
       40745000	      4073	00000000	00000013	addi	x0,x0,0	  x0:0x00000000
       40755000	      4074	80001db8	00000013	addi	x0,x0,0	  x0:0x00000000
       40765000	      4075	80001dbc	18b57793	andi	x15,x10,395	 x10:0xfffff000 x15=0x00000000
       40775000	      4076	80001dc0	7e2f7493	andi	x9,x30,2018	 x30:0x6986c000  x9=0x00000000
       40785000	      4077	80001dc4	1662a513	slti	x10,x5,358	  x5:0x00000000 x10=0x00000001
       40795000	      4078	80001dc8	fcb6b193	sltiu	x3,x13,-53	 x13:0x80009f84  x3=0x00000001
       40805000	      4079	80001dcc	00f2fc33	and	x24,x5,x15	  x5:0x00000000 x15:0x00000000 x24=0x00000000
       40815000	      4080	80001dd0	01e85493	srli	x9,x16,0x1e	 x16:0x00000000  x9=0x00000000
       40825000	      4081	80001dd4	00000013	addi	x0,x0,0	  x0:0x00000000
       40835000	      4082	80001dd8	001a5f33	srl	x30,x20,x1	 x20:0x00000001  x1:0x76966e00 x30=0x00000001
       40845000	      4083	80001ddc	00305e93	srli	x29,x0,0x3	  x0:0x00000000 x29=0x00000000
       40855000	      4084	80001de0	e8d03093	sltiu	x1,x0,-371	  x0:0x00000000  x1=0x00000001
       40865000	      4085	80001de4	e6954013	xori	x0,x10,-407	 x10:0x00000001
       40875000	      4086	80001de8	e32efd93	andi	x27,x29,-462	 x29:0x00000000 x27=0x00000000
       40885000	      4087	80001dec	04d0e863	bltu	x1,x13,80001e3c	  x1:0x00000001 x13:0x80009f84
       40895000	      4088	00000000	00000013	addi	x0,x0,0	  x0:0x00000000
       40905000	      4089	80001e38	00000013	addi	x0,x0,0	  x0:0x00000000
       40915000	      4090	80001e3c	e449fd93	andi	x27,x19,-444	 x19:0x00000f80 x27=0x00000e00
       40925000	      4091	80001e40	41ccd933	sra	x18,x25,x28	 x25:0x00000080 x28:0x00000000 x18=0x00000080
       40935000	      4092	80001e44	05288063	beq	x17,x18,80001e84	 x17:0x7fff6346 x18:0x00000080
       40945000	      4093	80001e48	04fae663	bltu	x21,x15,80001e94	 x21:0x00000001 x15:0x00000000
       40955000	      4094	80001e4c	01df35b3	sltu	x11,x30,x29	 x30:0x00000001 x29:0x00000000 x11=0x00000000
       40965000	      4095	80001e50	fbdea217	auipc	x4,0xfbdea	  x4=0x7bdebe4c
       40975000	      4096	80001e54	01da5fb3	srl	x31,x20,x29	 x20:0x00000001 x29:0x00000000 x31=0x00000001
       40985000	      4097	80001e58	012ace33	xor	x28,x21,x18	 x21:0x00000001 x18:0x00000080 x28=0x00000081
       40995000	      4098	80001e5c	01815263	bge	x2,x24,80001e60	  x2:0x8000401f x24:0x00000000
       41005000	      4099	80001e60	0103d863	bge	x7,x16,80001e70	  x7:0xfffff001 x16:0x00000000
       41015000	      4100	80001e64	00cf6c63	bltu	x30,x12,80001e7c	 x30:0x00000001 x12:0x37f15000
       41025000	      4101	00000000	00000013	addi	x0,x0,0	  x0:0x00000000
       41035000	      4102	80001e78	00000013	addi	x0,x0,0	  x0:0x00000000
       41045000	      4103	80001e7c	01d23033	sltu	x0,x4,x29	  x4:0x7bdebe4c x29:0x00000000
       41055000	      4104	80001e80	dba33f93	sltiu	x31,x6,-582	  x6:0xfffffffd x31=0x00000000
       41065000	      4105	80001e84	41f0deb3	sra	x29,x1,x31	  x1:0x00000001 x31:0x00000000 x29=0x00000001
       41075000	      4106	80001e88	402057b3	sra	x15,x0,x2	  x0:0x00000000  x2:0x8000401f x15=0x00000000
       41085000	      4107	80001e8c	841d3f17	auipc	x30,0x841d3	 x30=0x041d4e88
       41095000	      4108	80001e90	016d8463	beq	x27,x22,80001e98	 x27:0x00000e00 x22:0xffffffb9
       41105000	      4109	80001e94	41fd5bb3	sra	x23,x26,x31	 x26:0xffffffb9 x31:0x00000000 x23=0xffffffb9
       41115000	      4110	80001e98	4081dd93	srai	x27,x3,0x8	  x3:0x00000001 x27=0x00000000
       41125000	      4111	80001e9c	67bb4c93	xori	x25,x22,1659	 x22:0xffffffb9 x25=0xfffff9c2
       41135000	      4112	80001ea0	000091b3	sll	x3,x1,x0	  x1:0x00000001  x0:0x00000000  x3=0x00000001
       41145000	      4113	80001ea4	40e35a93	srai	x21,x6,0xe	  x6:0xfffffffd x21=0xffffffff
       41155000	      4114	80001ea8	00000013	addi	x0,x0,0	  x0:0x00000000
       41165000	      4115	80001eac	0197a8b3	slt	x17,x15,x25	 x15:0x00000000 x25:0xfffff9c2 x17=0x00000000
       41175000	      4116	80001eb0	01d70ab3	add	x21,x14,x29	 x14:0x80009fc4 x29:0x00000001 x21=0x80009fc5
       41185000	      4117	80001eb4	3ff7ef13	ori	x30,x15,1023	 x15:0x00000000 x30=0x000003ff
       41195000	      4118	80001eb8	02c0036f	jal	x6,80001eb8	  x6=0x80001eb8
       41205000	      4119	00000000	00000013	addi	x0,x0,0	  x0:0x00000000
       41215000	      4120	80001ee0	00000013	addi	x0,x0,0	  x0:0x00000000
       41225000	      4121	80001ee4	010000ef	jal	x1,80001ee4	  x1=0x80001ee4
       41235000	      4122	00000000	00000013	addi	x0,x0,0	  x0:0x00000000
       41245000	      4123	80001ef0	00000013	addi	x0,x0,0	  x0:0x00000000
       41255000	      4124	80001ef4	024000ef	jal	x1,80001ef4	  x1=0x80001ef4
       41265000	      4125	00000000	00000013	addi	x0,x0,0	  x0:0x00000000
       41275000	      4126	80001f14	00000013	addi	x0,x0,0	  x0:0x00000000
       41285000	      4127	80001f18	fa9ff26f	jal	x4,80001f18	  x4=0x80001f18
       41295000	      4128	00000000	00000013	addi	x0,x0,0	  x0:0x00000000
       41305000	      4129	80001ebc	00000013	addi	x0,x0,0	  x0:0x00000000
       41315000	      4130	80001ec0	048000ef	jal	x1,80001ec0	  x1=0x80001ec0
       41325000	      4131	00000000	00000013	addi	x0,x0,0	  x0:0x00000000
       41335000	      4132	80001f04	00000013	addi	x0,x0,0	  x0:0x00000000
       41345000	      4133	80001f08	fd9ff26f	jal	x4,80001f08	  x4=0x80001f08
       41355000	      4134	00000000	00000013	addi	x0,x0,0	  x0:0x00000000
       41365000	      4135	80001edc	00000013	addi	x0,x0,0	  x0:0x00000000
       41375000	      4136	80001ee0	01c007ef	jal	x15,80001ee0	 x15=0x80001ee0
       41385000	      4137	00000000	00000013	addi	x0,x0,0	  x0:0x00000000
       41395000	      4138	80001ef8	00000013	addi	x0,x0,0	  x0:0x00000000
       41405000	      4139	80001efc	010000ef	jal	x1,80001efc	  x1=0x80001efc
       41415000	      4140	00000000	00000013	addi	x0,x0,0	  x0:0x00000000
       41425000	      4141	80001f08	00000013	addi	x0,x0,0	  x0:0x00000000
       41435000	      4142	80001f0c	0040046f	jal	x8,80001f0c	  x8=0x80001f0c
       41445000	      4143	00000000	00000013	addi	x0,x0,0	  x0:0x00000000
       41455000	      4144	80001f0c	00000013	addi	x0,x0,0	  x0:0x00000000
       41465000	      4145	80001f10	fadff4ef	jal	x9,80001f10	  x9=0x80001f10
       41475000	      4146	00000000	00000013	addi	x0,x0,0	  x0:0x00000000
       41485000	      4147	80001eb8	00000013	addi	x0,x0,0	  x0:0x00000000
       41495000	      4148	80001ebc	02c00e6f	jal	x28,80001ebc	 x28=0x80001ebc
       41505000	      4149	00000000	00000013	addi	x0,x0,0	  x0:0x00000000
       41515000	      4150	80001ee4	00000013	addi	x0,x0,0	  x0:0x00000000
       41525000	      4151	80001ee8	0100026f	jal	x4,80001ee8	  x4=0x80001ee8
       41535000	      4152	00000000	00000013	addi	x0,x0,0	  x0:0x00000000
       41545000	      4153	80001ef4	00000013	addi	x0,x0,0	  x0:0x00000000
       41555000	      4154	80001ef8	ff5ff9ef	jal	x19,80001ef8	 x19=0x80001ef8
       41565000	      4155	00000000	00000013	addi	x0,x0,0	  x0:0x00000000
       41575000	      4156	80001ee8	00000013	addi	x0,x0,0	  x0:0x00000000
       41585000	      4157	80001eec	ff1ff0ef	jal	x1,80001eec	  x1=0x80001eec
       41595000	      4158	00000000	00000013	addi	x0,x0,0	  x0:0x00000000
       41605000	      4159	80001ed8	00000013	addi	x0,x0,0	  x0:0x00000000
       41615000	      4160	80001edc	ff1ffc6f	jal	x24,80001edc	 x24=0x80001edc
       41625000	      4161	00000000	00000013	addi	x0,x0,0	  x0:0x00000000
       41635000	      4162	80001ec8	00000013	addi	x0,x0,0	  x0:0x00000000
       41645000	      4163	80001ecc	ffdff26f	jal	x4,80001ecc	  x4=0x80001ecc
       41655000	      4164	00000000	00000013	addi	x0,x0,0	  x0:0x00000000
       41665000	      4165	80001ec4	00000013	addi	x0,x0,0	  x0:0x00000000
       41675000	      4166	80001ec8	04c00b6f	jal	x22,80001ec8	 x22=0x80001ec8
       41685000	      4167	00000000	00000013	addi	x0,x0,0	  x0:0x00000000
       41695000	      4168	80001f10	00000013	addi	x0,x0,0	  x0:0x00000000
       41705000	      4169	80001f14	fc1ff36f	jal	x6,80001f14	  x6=0x80001f14
       41715000	      4170	00000000	00000013	addi	x0,x0,0	  x0:0x00000000
       41725000	      4171	80001ed0	00000013	addi	x0,x0,0	  x0:0x00000000
       41735000	      4172	80001ed4	ff1ff0ef	jal	x1,80001ed4	  x1=0x80001ed4
       41745000	      4173	00000000	00000013	addi	x0,x0,0	  x0:0x00000000
       41755000	      4174	80001ec0	00000013	addi	x0,x0,0	  x0:0x00000000
       41765000	      4175	80001ec4	03c00a6f	jal	x20,80001ec4	 x20=0x80001ec4
       41775000	      4176	00000000	00000013	addi	x0,x0,0	  x0:0x00000000
       41785000	      4177	80001efc	00000013	addi	x0,x0,0	  x0:0x00000000
       41795000	      4178	80001f00	ff1ff36f	jal	x6,80001f00	  x6=0x80001f00
       41805000	      4179	00000000	00000013	addi	x0,x0,0	  x0:0x00000000
       41815000	      4180	80001eec	00000013	addi	x0,x0,0	  x0:0x00000000
       41825000	      4181	80001ef0	014000ef	jal	x1,80001ef0	  x1=0x80001ef0
       41835000	      4182	00000000	00000013	addi	x0,x0,0	  x0:0x00000000
       41845000	      4183	80001f00	00000013	addi	x0,x0,0	  x0:0x00000000
       41855000	      4184	80001f04	0180026f	jal	x4,80001f04	  x4=0x80001f04
       41865000	      4185	00000000	00000013	addi	x0,x0,0	  x0:0x00000000
       41875000	      4186	80001f18	00000013	addi	x0,x0,0	  x0:0x00000000
       41885000	      4187	80001f1c	fb5ff0ef	jal	x1,80001f1c	  x1=0x80001f1c
       41895000	      4188	00000000	00000013	addi	x0,x0,0	  x0:0x00000000
       41905000	      4189	80001ecc	00000013	addi	x0,x0,0	  x0:0x00000000
       41915000	      4190	80001ed0	00800aef	jal	x21,80001ed0	 x21=0x80001ed0
       41925000	      4191	00000000	00000013	addi	x0,x0,0	  x0:0x00000000
       41935000	      4192	80001ed4	00000013	addi	x0,x0,0	  x0:0x00000000
       41945000	      4193	80001ed8	0480036f	jal	x6,80001ed8	  x6=0x80001ed8
       41955000	      4194	00000000	00000013	addi	x0,x0,0	  x0:0x00000000
       41965000	      4195	80001f1c	00000013	addi	x0,x0,0	  x0:0x00000000
       41975000	      4196	80001f20	004b39b3	sltu	x19,x22,x4	 x22:0x80001ec8  x4:0x80001f04 x19=0x00000001
       41985000	      4197	80001f24	0130eb33	or	x22,x1,x19	  x1:0x80001f1c x19:0x00000001 x22=0x80001f1d
       41995000	      4198	80001f28	00416cb3	or	x25,x2,x4	  x2:0x8000401f  x4:0x80001f04 x25=0x80005f1f
       42005000	      4199	80001f2c	010eaf33	slt	x30,x29,x16	 x29:0x00000001 x16:0x00000000 x30=0x00000000
       42015000	      4200	80001f30	2ad75f17	auipc	x30,0x2ad75	 x30=0xaad76f2c
       42025000	      4201	80001f34	03340a63	beq	x8,x19,80001f68	  x8:0x80001f0c x19:0x00000001
       42035000	      4202	80001f38	4f103413	sltiu	x8,x0,1265	  x0:0x00000000  x8=0x00000001
       42045000	      4203	80001f3c	013f5393	srli	x7,x30,0x13	 x30:0xaad76f2c  x7=0x0000155a
       42055000	      4204	80001f40	002eba33	sltu	x20,x29,x2	 x29:0x00000001  x2:0x8000401f x20=0x00000001
       42065000	      4205	80001f44	02195e63	bge	x18,x1,80001f80	 x18:0x00000080  x1:0x80001f1c
       42075000	      4206	00000000	00000013	addi	x0,x0,0	  x0:0x00000000
       42085000	      4207	80001f7c	00000013	addi	x0,x0,0	  x0:0x00000000
       42095000	      4208	80001f80	a3b03593	sltiu	x11,x0,-1477	  x0:0x00000000 x11=0x00000001
       42105000	      4209	80001f84	61538093	addi	x1,x7,1557	  x7:0x0000155a  x1=0x00001b6f
       42115000	      4210	80001f88	413f5f13	srai	x30,x30,0x13	 x30:0xaad76f2c x30=0xfffff55a
       42125000	      4211	80001f8c	0436d063	bge	x13,x3,80001fcc	 x13:0x80009f84  x3:0x00000001
       42135000	      4212	80001f90	410dd633	sra	x12,x27,x16	 x27:0x00000000 x16:0x00000000 x12=0x00000000
       42145000	      4213	80001f94	011904b3	add	x9,x18,x17	 x18:0x00000080 x17:0x00000000  x9=0x00000080
       42155000	      4214	80001f98	022ff263	bgeu	x31,x2,80001fbc	 x31:0x00000000  x2:0x8000401f
       42165000	      4215	80001f9c	9dda2213	slti	x4,x20,-1571	 x20:0x00000001  x4=0x00000000
       42175000	      4216	80001fa0	01380ab3	add	x21,x16,x19	 x16:0x00000000 x19:0x00000001 x21=0x00000001
       42185000	      4217	80001fa4	00503f33	sltu	x30,x0,x5	  x0:0x00000000  x5:0x00000000 x30=0x00000000
       42195000	      4218	80001fa8	4163dcb3	sra	x25,x7,x22	  x7:0x0000155a x22:0x80001f1d x25=0x00000000
       42205000	      4219	80001fac	41215d13	srai	x26,x2,0x12	  x2:0x8000401f x26=0xffffe000
       42215000	      4220	80001fb0	01330463	beq	x6,x19,80001fb8	  x6:0x80001ed8 x19:0x00000001
       42225000	      4221	80001fb4	00000013	addi	x0,x0,0	  x0:0x00000000
       42235000	      4222	80001fb8	01d43133	sltu	x2,x8,x29	  x8:0x00000001 x29:0x00000001  x2=0x00000000
       42245000	      4223	80001fbc	03425c63	bge	x4,x20,80001ff4	  x4:0x00000000 x20:0x00000001
       42255000	      4224	80001fc0	01685213	srli	x4,x16,0x16	 x16:0x00000000  x4=0x00000000
       42265000	      4225	80001fc4	00704a63	blt	x0,x7,80001fd8	  x0:0x00000000  x7:0x0000155a
       42275000	      4226	00000000	00000013	addi	x0,x0,0	  x0:0x00000000
       42285000	      4227	80001fd4	00000013	addi	x0,x0,0	  x0:0x00000000
       42295000	      4228	80001fd8	017f90b3	sll	x1,x31,x23	 x31:0x00000000 x23:0xffffffb9  x1=0x00000000
       42305000	      4229	80001fdc	41e15933	sra	x18,x2,x30	  x2:0x00000000 x30:0x00000000 x18=0x00000000
       42315000	      4230	80001fe0	38ef0513	addi	x10,x30,910	 x30:0x00000000 x10=0x0000038e
       42325000	      4231	80001fe4	f805aa13	slti	x20,x11,-128	 x11:0x00000001 x20=0x00000000
       42335000	      4232	80001fe8	05ba1463	bne	x20,x27,80002030	 x20:0x00000000 x27:0x00000000
       42345000	      4233	80001fec	03a25663	bge	x4,x26,80002018	  x4:0x00000000 x26:0xffffe000
       42355000	      4234	00000000	00000013	addi	x0,x0,0	  x0:0x00000000
       42365000	      4235	80002014	00000013	addi	x0,x0,0	  x0:0x00000000
       42375000	      4236	80002018	68abed37	lui	x26,0x68abe	 x26=0x68abe000
       42385000	      4237	8000201c	09f32c13	slti	x24,x6,159	  x6:0x80001ed8 x24=0x00000001
       42395000	      4238	80002020	2653aeb7	lui	x29,0x2653a	 x29=0x2653a000
       42405000	      4239	80002024	3133fb93	andi	x23,x7,787	  x7:0x0000155a x23=0x00000112
       42415000	      4240	80002028	1ba6fd13	andi	x26,x13,442	 x13:0x80009f84 x26=0x00000180
       42425000	      4241	8000202c	346eb493	sltiu	x9,x29,838	 x29:0x2653a000  x9=0x00000000
       42435000	      4242	80002030	00b375b3	and	x11,x6,x11	  x6:0x80001ed8 x11:0x00000001 x11=0x00000000
       42445000	      4243	80002034	01e5d333	srl	x6,x11,x30	 x11:0x00000000 x30:0x00000000  x6=0x00000000
       42455000	      4244	80002038	012e7433	and	x8,x28,x18	 x28:0x80001ebc x18:0x00000000  x8=0x00000000
       42465000	      4245	8000203c	01ad49b3	xor	x19,x26,x26	 x26:0x00000180 x26:0x00000180 x19=0x00000000
       42475000	      4246	80002040	0024f433	and	x8,x9,x2	  x9:0x00000000  x2:0x00000000  x8=0x00000000
       42485000	      4247	80002044	16d60493	addi	x9,x12,365	 x12:0x00000000  x9=0x0000016d
       42495000	      4248	80002048	675da537	lui	x10,0x675da	 x10=0x675da000
       42505000	      4249	8000204c	01dcf463	bgeu	x25,x29,80002054	 x25:0x00000000 x29:0x2653a000
       42515000	      4250	80002050	02e97663	bgeu	x18,x14,8000207c	 x18:0x00000000 x14:0x80009fc4
       42525000	      4251	80002054	01f51393	slli	x7,x10,0x1f	 x10:0x675da000  x7=0x00000000
       42535000	      4252	80002058	006b4433	xor	x8,x22,x6	 x22:0x80001f1d  x6:0x00000000  x8=0x80001f1d
       42545000	      4253	8000205c	41b85bb3	sra	x23,x16,x27	 x16:0x00000000 x27:0x00000000 x23=0x00000000
       42555000	      4254	80002060	01224fb3	xor	x31,x4,x18	  x4:0x00000000 x18:0x00000000 x31=0x00000000
       42565000	      4255	80002064	40788eb3	sub	x29,x17,x7	 x17:0x00000000  x7:0x00000000 x29=0x00000000
       42575000	      4256	80002068	000b5893	srli	x17,x22,0x0	 x22:0x80001f1d x17=0x80001f1d
       42585000	      4257	8000206c	005a5b93	srli	x23,x20,0x5	 x20:0x00000000 x23=0x00000000
       42595000	      4258	80002070	01a5d4b3	srl	x9,x11,x26	 x11:0x00000000 x26:0x00000180  x9=0x00000000
       42605000	      4259	80002074	013a7333	and	x6,x20,x19	 x20:0x00000000 x19:0x00000000  x6=0x00000000
       42615000	      4260	80002078	05621263	bne	x4,x22,800020bc	  x4:0x00000000 x22:0x80001f1d
       42625000	      4261	00000000	00000013	addi	x0,x0,0	  x0:0x00000000
       42635000	      4262	800020b8	00000013	addi	x0,x0,0	  x0:0x00000000
       42645000	      4263	800020bc	3365e413	ori	x8,x11,822	 x11:0x00000000  x8=0x00000336
       42655000	      4264	800020c0	6d1c8f13	addi	x30,x25,1745	 x25:0x00000000 x30=0x000006d1
       42665000	      4265	800020c4	1322a513	slti	x10,x5,306	  x5:0x00000000 x10=0x00000001
       42675000	      4266	800020c8	404404b3	sub	x9,x8,x4	  x8:0x00000336  x4:0x00000000  x9=0x00000336
       42685000	      4267	800020cc	01c99413	slli	x8,x19,0x1c	 x19:0x00000000  x8=0x00000000
       42695000	      4268	800020d0	01351263	bne	x10,x19,800020d4	 x10:0x00000001 x19:0x00000000
       42705000	      4269	00000000	00000013	addi	x0,x0,0	  x0:0x00000000
       42715000	      4270	800020d0	00000013	addi	x0,x0,0	  x0:0x00000000
       42725000	      4271	800020d4	07600e63	beq	x0,x22,80002150	  x0:0x00000000 x22:0x80001f1d
       42735000	      4272	800020d8	06cf4e63	blt	x30,x12,80002154	 x30:0x000006d1 x12:0x00000000
       42745000	      4273	800020dc	53c1bb17	auipc	x22,0x53c1b	 x22=0xd3c1d0d8
       42755000	      4274	800020e0	00bb09b3	add	x19,x22,x11	 x22:0xd3c1d0d8 x11:0x00000000 x19=0xd3c1d0d8
       42765000	      4275	800020e4	005fca33	xor	x20,x31,x5	 x31:0x00000000  x5:0x00000000 x20=0x00000000
       42775000	      4276	800020e8	015e5133	srl	x2,x28,x21	 x28:0x80001ebc x21:0x00000001  x2=0x40000f5e
       42785000	      4277	800020ec	00000013	addi	x0,x0,0	  x0:0x00000000
       42795000	      4278	800020f0	0040036f	jal	x6,800020f0	  x6=0x800020f0
       42805000	      4279	00000000	00000013	addi	x0,x0,0	  x0:0x00000000
       42815000	      4280	800020f0	00000013	addi	x0,x0,0	  x0:0x00000000
       42825000	      4281	800020f4	0040086f	jal	x16,800020f4	 x16=0x800020f4
       42835000	      4282	00000000	00000013	addi	x0,x0,0	  x0:0x00000000
       42845000	      4283	800020f4	00000013	addi	x0,x0,0	  x0:0x00000000
       42855000	      4284	800020f8	01c0066f	jal	x12,800020f8	 x12=0x800020f8
       42865000	      4285	00000000	00000013	addi	x0,x0,0	  x0:0x00000000
       42875000	      4286	80002110	00000013	addi	x0,x0,0	  x0:0x00000000
       42885000	      4287	80002114	0100016f	jal	x2,80002114	  x2=0x80002114
       42895000	      4288	00000000	00000013	addi	x0,x0,0	  x0:0x00000000
       42905000	      4289	80002120	00000013	addi	x0,x0,0	  x0:0x00000000
       42915000	      4290	80002124	fe5ff36f	jal	x6,80002124	  x6=0x80002124
       42925000	      4291	00000000	00000013	addi	x0,x0,0	  x0:0x00000000
       42935000	      4292	80002104	00000013	addi	x0,x0,0	  x0:0x00000000
       42945000	      4293	80002108	00400fef	jal	x31,80002108	 x31=0x80002108
       42955000	      4294	00000000	00000013	addi	x0,x0,0	  x0:0x00000000
       42965000	      4295	80002108	00000013	addi	x0,x0,0	  x0:0x00000000
       42975000	      4296	8000210c	0140036f	jal	x6,8000210c	  x6=0x8000210c
       42985000	      4297	00000000	00000013	addi	x0,x0,0	  x0:0x00000000
       42995000	      4298	8000211c	00000013	addi	x0,x0,0	  x0:0x00000000
       43005000	      4299	80002120	fe5ff46f	jal	x8,80002120	  x8=0x80002120
       43015000	      4300	00000000	00000013	addi	x0,x0,0	  x0:0x00000000
       43025000	      4301	80002100	00000013	addi	x0,x0,0	  x0:0x00000000
       43035000	      4302	80002104	00c0036f	jal	x6,80002104	  x6=0x80002104
       43045000	      4303	00000000	00000013	addi	x0,x0,0	  x0:0x00000000
       43055000	      4304	8000210c	00000013	addi	x0,x0,0	  x0:0x00000000
       43065000	      4305	80002110	008001ef	jal	x3,80002110	  x3=0x80002110
       43075000	      4306	00000000	00000013	addi	x0,x0,0	  x0:0x00000000
       43085000	      4307	80002114	00000013	addi	x0,x0,0	  x0:0x00000000
       43095000	      4308	80002118	0040036f	jal	x6,80002118	  x6=0x80002118
       43105000	      4309	00000000	00000013	addi	x0,x0,0	  x0:0x00000000
       43115000	      4310	80002118	00000013	addi	x0,x0,0	  x0:0x00000000
       43125000	      4311	8000211c	fe5ff0ef	jal	x1,8000211c	  x1=0x8000211c
       43135000	      4312	00000000	00000013	addi	x0,x0,0	  x0:0x00000000
       43145000	      4313	800020fc	00000013	addi	x0,x0,0	  x0:0x00000000
       43155000	      4314	80002100	ffdff36f	jal	x6,80002100	  x6=0x80002100
       43165000	      4315	00000000	00000013	addi	x0,x0,0	  x0:0x00000000
       43175000	      4316	800020f8	00000013	addi	x0,x0,0	  x0:0x00000000
       43185000	      4317	800020fc	02c000ef	jal	x1,800020fc	  x1=0x800020fc
       43195000	      4318	00000000	00000013	addi	x0,x0,0	  x0:0x00000000
       43205000	      4319	80002124	00000013	addi	x0,x0,0	  x0:0x00000000
       43215000	      4320	80002128	71e4ea97	auipc	x21,0x71e4e	 x21=0xf1e50124
       43225000	      4321	8000212c	03821a63	bne	x4,x24,80002160	  x4:0x00000000 x24:0x00000001
       43235000	      4322	00000000	00000013	addi	x0,x0,0	  x0:0x00000000
       43245000	      4323	8000215c	00000013	addi	x0,x0,0	  x0:0x00000000
       43255000	      4324	80002160	009a5633	srl	x12,x20,x9	 x20:0x00000000  x9:0x00000336 x12=0x00000000
       43265000	      4325	80002164	009b1793	slli	x15,x22,0x9	 x22:0xd3c1d0d8 x15=0x83a1b000
       43275000	      4326	80002168	40f85993	srai	x19,x16,0xf	 x16:0x800020f4 x19=0xffff0000
       43285000	      4327	8000216c	00c919b3	sll	x19,x18,x12	 x18:0x00000000 x12:0x00000000 x19=0x00000000
       43295000	      4328	80002170	029c0063	beq	x24,x9,80002190	 x24:0x00000001  x9:0x00000336
       43305000	      4329	80002174	00891b93	slli	x23,x18,0x8	 x18:0x00000000 x23=0x00000000
       43315000	      4330	80002178	030dd263	bge	x27,x16,8000219c	 x27:0x00000000 x16:0x800020f4
       43325000	      4331	00000000	00000013	addi	x0,x0,0	  x0:0x00000000
       43335000	      4332	80002198	00000013	addi	x0,x0,0	  x0:0x00000000
       43345000	      4333	8000219c	9569cfb7	lui	x31,0x9569c	 x31=0x9569c000
       43355000	      4334	800021a0	0009bdb3	sltu	x27,x19,x0	 x19:0x00000000  x0:0x00000000 x27=0x00000000
       43365000	      4335	800021a4	00813533	sltu	x10,x2,x8	  x2:0x80002114  x8:0x80002120 x10=0x00000001
       43375000	      4336	800021a8	008d5433	srl	x8,x26,x8	 x26:0x00000180  x8:0x80002120  x8=0x00000180
       43385000	      4337	800021ac	01a4f7b3	and	x15,x9,x26	  x9:0x00000336 x26:0x00000180 x15=0x00000100
       43395000	      4338	800021b0	03a78863	beq	x15,x26,800021e0	 x15:0x00000100 x26:0x00000180
       43405000	      4339	800021b4	40d857b3	sra	x15,x16,x13	 x16:0x800020f4 x13:0x80009f84 x15=0xf800020f
       43415000	      4340	800021b8	013165b3	or	x11,x2,x19	  x2:0x80002114 x19:0x00000000 x11=0x80002114
       43425000	      4341	800021bc	512aa1b7	lui	x3,0x512aa	  x3=0x512aa000
       43435000	      4342	800021c0	41d00bb3	sub	x23,x0,x29	  x0:0x00000000 x29:0x00000000 x23=0x00000000
       43445000	      4343	800021c4	5f6a2f93	slti	x31,x20,1526	 x20:0x00000000 x31=0x00000001
       43455000	      4344	800021c8	3f11b013	sltiu	x0,x3,1009	  x3:0x512aa000
       43465000	      4345	800021cc	5e6a4d93	xori	x27,x20,1510	 x20:0x00000000 x27=0x000005e6
       43475000	      4346	800021d0	efd8be93	sltiu	x29,x17,-259	 x17:0x80001f1d x29=0x00000001
       43485000	      4347	800021d4	40405493	srai	x9,x0,0x4	  x0:0x00000000  x9=0x00000000
       43495000	      4348	800021d8	26258a37	lui	x20,0x26258	 x20=0x26258000
       43505000	      4349	800021dc	01f2c1b3	xor	x3,x5,x31	  x5:0x00000000 x31:0x00000001  x3=0x00000001
       43515000	      4350	800021e0	00e0bb33	sltu	x22,x1,x14	  x1:0x800020fc x14:0x80009fc4 x22=0x00000001
       43525000	      4351	800021e4	010d7833	and	x16,x26,x16	 x26:0x00000180 x16:0x800020f4 x16=0x00000080
       43535000	      4352	800021e8	01e70bb3	add	x23,x14,x30	 x14:0x80009fc4 x30:0x000006d1 x23=0x8000a695
       43545000	      4353	800021ec	68cff193	andi	x3,x31,1676	 x31:0x00000001  x3=0x00000000
       43555000	      4354	800021f0	00c6b633	sltu	x12,x13,x12	 x13:0x80009f84 x12:0x00000000 x12=0x00000000
       43565000	      4355	800021f4	4ab12093	slti	x1,x2,1195	  x2:0x80002114  x1=0x00000001
       43575000	      4356	800021f8	01e309b3	add	x19,x6,x30	  x6:0x80002100 x30:0x000006d1 x19=0x800027d1
       43585000	      4357	800021fc	eecc2913	slti	x18,x24,-276	 x24:0x00000001 x18=0x00000000
       43595000	      4358	80002200	d9b2cc93	xori	x25,x5,-613	  x5:0x00000000 x25=0xfffffd9b
       43605000	      4359	80002204	40cf5633	sra	x12,x30,x12	 x30:0x000006d1 x12:0x00000000 x12=0x000006d1
       43615000	      4360	80002208	00520fb3	add	x31,x4,x5	  x4:0x00000000  x5:0x00000000 x31=0x00000000
       43625000	      4361	8000220c	00000013	addi	x0,x0,0	  x0:0x00000000
       43635000	      4362	80002210	bcd06313	ori	x6,x0,-1075	  x0:0x00000000  x6=0xfffffbcd
       43645000	      4363	80002214	01494633	xor	x12,x18,x20	 x18:0x00000000 x20:0x26258000 x12=0x26258000
       43655000	      4364	80002218	00000013	addi	x0,x0,0	  x0:0x00000000
       43665000	      4365	8000221c	0070e033	or	x0,x1,x7	  x1:0x00000001  x7:0x00000000
       43675000	      4366	80002220	5487f113	andi	x2,x15,1352	 x15:0xf800020f  x2=0x00000008
       43685000	      4367	80002224	0003b133	sltu	x2,x7,x0	  x7:0x00000000  x0:0x00000000  x2=0x00000000
       43695000	      4368	80002228	66412093	slti	x1,x2,1636	  x2:0x00000000  x1=0x00000001
       43705000	      4369	8000222c	c24d2b97	auipc	x23,0xc24d2	 x23=0x424d4228
       43715000	      4370	80002230	0035c633	xor	x12,x11,x3	 x11:0x80002114  x3:0x00000000 x12=0x80002114
       43725000	      4371	80002234	04771863	bne	x14,x7,80002284	 x14:0x80009fc4  x7:0x00000000
       43735000	      4372	00000000	00000013	addi	x0,x0,0	  x0:0x00000000
       43745000	      4373	80002280	00000013	addi	x0,x0,0	  x0:0x00000000
       43755000	      4374	80002284	00000013	addi	x0,x0,0	  x0:0x00000000
       43765000	      4375	80002288	0084deb3	srl	x29,x9,x8	  x9:0x00000000  x8:0x00000180 x29=0x00000000
       43775000	      4376	8000228c	00096633	or	x12,x18,x0	 x18:0x00000000  x0:0x00000000 x12=0x00000000
       43785000	      4377	80002290	011f0c33	add	x24,x30,x17	 x30:0x000006d1 x17:0x80001f1d x24=0x800025ee
       43795000	      4378	80002294	03509c63	bne	x1,x21,800022cc	  x1:0x00000001 x21:0xf1e50124
       43805000	      4379	00000000	00000013	addi	x0,x0,0	  x0:0x00000000
       43815000	      4380	800022c8	00000013	addi	x0,x0,0	  x0:0x00000000
       43825000	      4381	800022cc	051c4663	blt	x24,x17,80002318	 x24:0x800025ee x17:0x80001f1d
       43835000	      4382	800022d0	00bd6463	bltu	x26,x11,800022d8	 x26:0x00000180 x11:0x80002114
       43845000	      4383	00000000	00000013	addi	x0,x0,0	  x0:0x00000000
       43855000	      4384	800022d4	00000013	addi	x0,x0,0	  x0:0x00000000
       43865000	      4385	800022d8	eb6cb793	sltiu	x15,x25,-330	 x25:0xfffffd9b x15=0x00000001
       43875000	      4386	800022dc	fa456537	lui	x10,0xfa456	 x10=0xfa456000
       43885000	      4387	800022e0	3739f037	lui	x0,0x3739f	
       43895000	      4388	800022e4	7fbd2a13	slti	x20,x26,2043	 x26:0x00000180 x20=0x00000001
       43905000	      4389	800022e8	2574abb7	lui	x23,0x2574a	 x23=0x2574a000
       43915000	      4390	800022ec	00a179b3	and	x19,x2,x10	  x2:0x00000000 x10:0xfa456000 x19=0x00000000
       43925000	      4391	800022f0	00f819b7	lui	x19,0xf81	 x19=0x00f81000
       43935000	      4392	800022f4	40128f33	sub	x30,x5,x1	  x5:0x00000000  x1:0x00000001 x30=0xffffffff
       43945000	      4393	800022f8	7de38113	addi	x2,x7,2014	  x7:0x00000000  x2=0x000007de
       43955000	      4394	800022fc	2d807793	andi	x15,x0,728	  x0:0x00000000 x15=0x00000000
       43965000	      4395	80002300	00dc0463	beq	x24,x13,80002308	 x24:0x800025ee x13:0x80009f84
       43975000	      4396	80002304	40968933	sub	x18,x13,x9	 x13:0x80009f84  x9:0x00000000 x18=0x80009f84
       43985000	      4397	80002308	05af5463	bge	x30,x26,80002350	 x30:0xffffffff x26:0x00000180
       43995000	      4398	8000230c	8da64397	auipc	x7,0x8da64	  x7=0x0da66308
       44005000	      4399	80002310	0114fcb3	and	x25,x9,x17	  x9:0x00000000 x17:0x80001f1d x25=0x00000000
       44015000	      4400	80002314	41dd5333	sra	x6,x26,x29	 x26:0x00000180 x29:0x00000000  x6=0x00000180
       44025000	      4401	80002318	00516c33	or	x24,x2,x5	  x2:0x000007de  x5:0x00000000 x24=0x000007de
       44035000	      4402	8000231c	f6577a13	andi	x20,x14,-155	 x14:0x80009fc4 x20=0x80009f44
       44045000	      4403	80002320	00000013	addi	x0,x0,0	  x0:0x00000000
       44055000	      4404	80002324	01905013	srli	x0,x0,0x19	  x0:0x00000000
       44065000	      4405	80002328	015d3eb3	sltu	x29,x26,x21	 x26:0x00000180 x21:0xf1e50124 x29=0x00000001
       44075000	      4406	8000232c	034b6e63	bltu	x22,x20,80002368	 x22:0x00000001 x20:0x80009f44
       44085000	      4407	00000000	00000013	addi	x0,x0,0	  x0:0x00000000
       44095000	      4408	80002364	00000013	addi	x0,x0,0	  x0:0x00000000
       44105000	      4409	80002368	9bab2213	slti	x4,x22,-1606	 x22:0x00000001  x4=0x00000000
       44115000	      4410	8000236c	016a9863	bne	x21,x22,8000237c	 x21:0xf1e50124 x22:0x00000001
       44125000	      4411	00000000	00000013	addi	x0,x0,0	  x0:0x00000000
       44135000	      4412	80002378	00000013	addi	x0,x0,0	  x0:0x00000000
       44145000	      4413	8000237c	009dd0b3	srl	x1,x27,x9	 x27:0x000005e6  x9:0x00000000  x1=0x000005e6
       44155000	      4414	80002380	00bc43b3	xor	x7,x24,x11	 x24:0x000007de x11:0x80002114  x7=0x800026ca
       44165000	      4415	80002384	0129e463	bltu	x19,x18,8000238c	 x19:0x00f81000 x18:0x80009f84
       44175000	      4416	00000000	00000013	addi	x0,x0,0	  x0:0x00000000
       44185000	      4417	80002388	00000013	addi	x0,x0,0	  x0:0x00000000
       44195000	      4418	8000238c	00000013	addi	x0,x0,0	  x0:0x00000000
       44205000	      4419	80002390	00000013	addi	x0,x0,0	  x0:0x00000000
       44215000	      4420	80002394	01a59333	sll	x6,x11,x26	 x11:0x80002114 x26:0x00000180  x6=0x80002114
       44225000	      4421	80002398	01a89213	slli	x4,x17,0x1a	 x17:0x80001f1d  x4=0x74000000
       44235000	      4422	8000239c	6d0b2513	slti	x10,x22,1744	 x22:0x00000001 x10=0x00000001
       44245000	      4423	800023a0	01a491b3	sll	x3,x9,x26	  x9:0x00000000 x26:0x00000180  x3=0x00000000
       44255000	      4424	800023a4	85446c13	ori	x24,x8,-1964	  x8:0x00000180 x24=0xfffff9d4
       44265000	      4425	800023a8	f67a0d13	addi	x26,x20,-153	 x20:0x80009f44 x26=0x80009eab
       44275000	      4426	800023ac	01a37463	bgeu	x6,x26,800023b4	  x6:0x80002114 x26:0x80009eab
       44285000	      4427	800023b0	fdcdf193	andi	x3,x27,-36	 x27:0x000005e6  x3=0x000005c4
       44295000	      4428	800023b4	00591113	slli	x2,x18,0x5	 x18:0x80009f84  x2=0x0013f080
       44305000	      4429	800023b8	321540b7	lui	x1,0x32154	  x1=0x32154000
       44315000	      4430	800023bc	001127b3	slt	x15,x2,x1	  x2:0x0013f080  x1:0x32154000 x15=0x00000001
       44325000	      4431	800023c0	00f2c233	xor	x4,x5,x15	  x5:0x00000000 x15:0x00000001  x4=0x00000001
       44335000	      4432	800023c4	41a95033	sra	x0,x18,x26	 x18:0x80009f84 x26:0x80009eab
       44345000	      4433	800023c8	03397663	bgeu	x18,x19,800023f4	 x18:0x80009f84 x19:0x00f81000
       44355000	      4434	00000000	00000013	addi	x0,x0,0	  x0:0x00000000
       44365000	      4435	800023f0	00000013	addi	x0,x0,0	  x0:0x00000000
       44375000	      4436	800023f4	00935613	srli	x12,x6,0x9	  x6:0x80002114 x12=0x00400010
       44385000	      4437	800023f8	00875793	srli	x15,x14,0x8	 x14:0x80009fc4 x15=0x0080009f
       44395000	      4438	800023fc	ed593d93	sltiu	x27,x18,-299	 x18:0x80009f84 x27=0x00000001
       44405000	      4439	80002400	010b1933	sll	x18,x22,x16	 x22:0x00000001 x16:0x00000080 x18=0x00000001
       44415000	      4440	80002404	41d00ab3	sub	x21,x0,x29	  x0:0x00000000 x29:0x00000001 x21=0xffffffff
       44425000	      4441	80002408	005ee933	or	x18,x29,x5	 x29:0x00000001  x5:0x00000000 x18=0x00000001
       44435000	      4442	8000240c	1efa2c93	slti	x25,x20,495	 x20:0x80009f44 x25=0x00000001
       44445000	      4443	80002410	76e9f193	andi	x3,x19,1902	 x19:0x00f81000  x3=0x00000000
       44455000	      4444	80002414	00000013	addi	x0,x0,0	  x0:0x00000000
       44465000	      4445	80002418	412e5413	srai	x8,x28,0x12	 x28:0x80001ebc  x8=0xffffe000
       44475000	      4446	8000241c	00b23ab3	sltu	x21,x4,x11	  x4:0x00000001 x11:0x80002114 x21=0x00000001
       44485000	      4447	80002420	a3bb3893	sltiu	x17,x22,-1477	 x22:0x00000001 x17=0x00000001
       44495000	      4448	80002424	b273a093	slti	x1,x7,-1241	  x7:0x800026ca  x1=0x00000001
       44505000	      4449	80002428	00e98eb3	add	x29,x19,x14	 x19:0x00f81000 x14:0x80009fc4 x29=0x80f8afc4
       44515000	      4450	8000242c	02de5c63	bge	x28,x13,80002464	 x28:0x80001ebc x13:0x80009f84
       44525000	      4451	80002430	00779463	bne	x15,x7,80002438	 x15:0x0080009f  x7:0x800026ca
       44535000	      4452	00000000	00000013	addi	x0,x0,0	  x0:0x00000000
       44545000	      4453	80002434	00000013	addi	x0,x0,0	  x0:0x00000000
       44555000	      4454	80002438	00000013	addi	x0,x0,0	  x0:0x00000000
       44565000	      4455	8000243c	00000013	addi	x0,x0,0	  x0:0x00000000
       44575000	      4456	80002440	00c7d863	bge	x15,x12,80002450	 x15:0x0080009f x12:0x00400010
       44585000	      4457	00000000	00000013	addi	x0,x0,0	  x0:0x00000000
       44595000	      4458	8000244c	00000013	addi	x0,x0,0	  x0:0x00000000
       44605000	      4459	80002450	0146c7b3	xor	x15,x13,x20	 x13:0x80009f84 x20:0x80009f44 x15=0x000000c0
       44615000	      4460	80002454	10bb1037	lui	x0,0x10bb1	
       44625000	      4461	80002458	00a1d0b3	srl	x1,x3,x10	  x3:0x00000000 x10:0x00000001  x1=0x00000000
       44635000	      4462	8000245c	04756863	bltu	x10,x7,800024ac	 x10:0x00000001  x7:0x800026ca
       44645000	      4463	00000000	00000013	addi	x0,x0,0	  x0:0x00000000
       44655000	      4464	800024a8	00000013	addi	x0,x0,0	  x0:0x00000000
       44665000	      4465	800024ac	012548b3	xor	x17,x10,x18	 x10:0x00000001 x18:0x00000001 x17=0x00000000
       44675000	      4466	800024b0	01eb4933	xor	x18,x22,x30	 x22:0x00000001 x30:0xffffffff x18=0xfffffffe
       44685000	      4467	800024b4	00e1c633	xor	x12,x3,x14	  x3:0x00000000 x14:0x80009fc4 x12=0x80009fc4
       44695000	      4468	800024b8	00ffdf33	srl	x30,x31,x15	 x31:0x00000000 x15:0x000000c0 x30=0x00000000
       44705000	      4469	800024bc	0017c863	blt	x15,x1,800024cc	 x15:0x000000c0  x1:0x00000000
       44715000	      4470	800024c0	0597c063	blt	x15,x25,80002500	 x15:0x000000c0 x25:0x00000001
       44725000	      4471	800024c4	015c1463	bne	x24,x21,800024cc	 x24:0xfffff9d4 x21:0x00000001
       44735000	      4472	00000000	00000013	addi	x0,x0,0	  x0:0x00000000
       44745000	      4473	800024c8	00000013	addi	x0,x0,0	  x0:0x00000000
       44755000	      4474	800024cc	e9e94e13	xori	x28,x18,-354	 x18:0xfffffffe x28=0x00000160
       44765000	      4475	800024d0	00ee4d33	xor	x26,x28,x14	 x28:0x00000160 x14:0x80009fc4 x26=0x80009ea4
       44775000	      4476	800024d4	0530e663	bltu	x1,x19,80002520	  x1:0x00000000 x19:0x00f81000
       44785000	      4477	00000000	00000013	addi	x0,x0,0	  x0:0x00000000
       44795000	      4478	8000251c	00000013	addi	x0,x0,0	  x0:0x00000000
       44805000	      4479	80002520	e5060113	addi	x2,x12,-432	 x12:0x80009fc4  x2=0x80009e14
       44815000	      4480	80002524	00000013	addi	x0,x0,0	  x0:0x00000000
       44825000	      4481	80002528	401e5033	sra	x0,x28,x1	 x28:0x00000160  x1:0x00000000
       44835000	      4482	8000252c	012188b3	add	x17,x3,x18	  x3:0x00000000 x18:0xfffffffe x17=0xfffffffe
       44845000	      4483	80002530	41675413	srai	x8,x14,0x16	 x14:0x80009fc4  x8=0xfffffe00
       44855000	      4484	80002534	6f6a8913	addi	x18,x21,1782	 x21:0x00000001 x18=0x000006f7
       44865000	      4485	80002538	00bd8333	add	x6,x27,x11	 x27:0x00000001 x11:0x80002114  x6=0x80002115
       44875000	      4486	8000253c	79c20093	addi	x1,x4,1948	  x4:0x00000001  x1=0x0000079d
       44885000	      4487	80002540	965bac93	slti	x25,x23,-1691	 x23:0x2574a000 x25=0x00000000
       44895000	      4488	80002544	05eafd13	andi	x26,x21,94	 x21:0x00000001 x26=0x00000000
       44905000	      4489	80002548	01947463	bgeu	x8,x25,80002550	  x8:0xfffffe00 x25:0x00000000
       44915000	      4490	00000000	00000013	addi	x0,x0,0	  x0:0x00000000
       44925000	      4491	8000254c	00000013	addi	x0,x0,0	  x0:0x00000000
       44935000	      4492	80002550	e9d42617	auipc	x12,0xe9d42	 x12=0x69d4454c
       44945000	      4493	80002554	01bd38b3	sltu	x17,x26,x27	 x26:0x00000000 x27:0x00000001 x17=0x00000001
       44955000	      4494	80002558	05cf0463	beq	x30,x28,800025a0	 x30:0x00000000 x28:0x00000160
       44965000	      4495	8000255c	40118633	sub	x12,x3,x1	  x3:0x00000000  x1:0x0000079d x12=0xfffff863
       44975000	      4496	80002560	03b4de63	bge	x9,x27,8000259c	  x9:0x00000000 x27:0x00000001
       44985000	      4497	80002564	c96c5897	auipc	x17,0xc96c5	 x17=0x496c7560
       44995000	      4498	80002568	00900ab3	add	x21,x0,x9	  x0:0x00000000  x9:0x00000000 x21=0x00000000
       45005000	      4499	8000256c	eafe6393	ori	x7,x28,-337	 x28:0x00000160  x7=0xffffffef
       45015000	      4500	80002570	0193df33	srl	x30,x7,x25	  x7:0xffffffef x25:0x00000000 x30=0xffffffef
       45025000	      4501	80002574	40655eb3	sra	x29,x10,x6	 x10:0x00000001  x6:0x80002115 x29=0x00000000
       45035000	      4502	80002578	01c583b3	add	x7,x11,x28	 x11:0x80002114 x28:0x00000160  x7=0x80002274
       45045000	      4503	8000257c	009c19b3	sll	x19,x24,x9	 x24:0xfffff9d4  x9:0x00000000 x19=0xfffff9d4
       45055000	      4504	80002580	01406a63	bltu	x0,x20,80002594	  x0:0x00000000 x20:0x80009f44
       45065000	      4505	00000000	00000013	addi	x0,x0,0	  x0:0x00000000
       45075000	      4506	80002590	00000013	addi	x0,x0,0	  x0:0x00000000
       45085000	      4507	80002594	0093a633	slt	x12,x7,x9	  x7:0x80002274  x9:0x00000000 x12=0x00000001
       45095000	      4508	80002598	001bd393	srli	x7,x23,0x1	 x23:0x2574a000  x7=0x12ba5000
       45105000	      4509	8000259c	004c5263	bge	x24,x4,800025a0	 x24:0xfffff9d4  x4:0x00000001
       45115000	      4510	800025a0	00615e63	bge	x2,x6,800025bc	  x2:0x80009e14  x6:0x80002115
       45125000	      4511	00000000	00000013	addi	x0,x0,0	  x0:0x00000000
       45135000	      4512	800025b8	00000013	addi	x0,x0,0	  x0:0x00000000
       45145000	      4513	800025bc	b152f8b7	lui	x17,0xb152f	 x17=0xb152f000
       45155000	      4514	800025c0	5528cd93	xori	x27,x17,1362	 x17:0xb152f000 x27=0xb152f552
       45165000	      4515	800025c4	5d5e4093	xori	x1,x28,1493	 x28:0x00000160  x1=0x000004b5
       45175000	      4516	800025c8	a52dfc13	andi	x24,x27,-1454	 x27:0xb152f552 x24=0xb152f052
       45185000	      4517	800025cc	14e22e13	slti	x28,x4,334	  x4:0x00000001 x28=0x00000001
       45195000	      4518	800025d0	664e4113	xori	x2,x28,1636	 x28:0x00000001  x2=0x00000665
       45205000	      4519	800025d4	03b5d063	bge	x11,x27,800025f4	 x11:0x80002114 x27:0xb152f552
       45215000	      4520	800025d8	04486063	bltu	x16,x4,80002618	 x16:0x00000080  x4:0x00000001
       45225000	      4521	800025dc	1396d017	auipc	x0,0x1396d	
       45235000	      4522	800025e0	00cc1d33	sll	x26,x24,x12	 x24:0xb152f052 x12:0x00000001 x26=0x62a5e0a4
       45245000	      4523	800025e4	00403c33	sltu	x24,x0,x4	  x0:0x00000000  x4:0x00000001 x24=0x00000001
       45255000	      4524	800025e8	06516b13	ori	x22,x2,101	  x2:0x00000665 x22=0x00000665
       45265000	      4525	800025ec	01562833	slt	x16,x12,x21	 x12:0x00000001 x21:0x00000000 x16=0x00000000
       45275000	      4526	800025f0	03c48863	beq	x9,x28,80002620	  x9:0x00000000 x28:0x00000001
       45285000	      4527	800025f4	00732ab3	slt	x21,x6,x7	  x6:0x80002115  x7:0x12ba5000 x21=0x00000001
       45295000	      4528	800025f8	d62eef13	ori	x30,x29,-670	 x29:0x00000000 x30=0xfffffd62
       45305000	      4529	800025fc	00d68933	add	x18,x13,x13	 x13:0x80009f84 x13:0x80009f84 x18=0x00013f08
       45315000	      4530	80002600	009d3b33	sltu	x22,x26,x9	 x26:0x62a5e0a4  x9:0x00000000 x22=0x00000000
       45325000	      4531	80002604	40695f33	sra	x30,x18,x6	 x18:0x00013f08  x6:0x80002115 x30=0x00000000
       45335000	      4532	80002608	7f126d13	ori	x26,x4,2033	  x4:0x00000001 x26=0x000007f1
       45345000	      4533	8000260c	40ebd313	srai	x6,x23,0xe	 x23:0x2574a000  x6=0x000095d2
       45355000	      4534	80002610	27feaf93	slti	x31,x29,639	 x29:0x00000000 x31=0x00000001
       45365000	      4535	80002614	02960663	beq	x12,x9,80002640	 x12:0x00000001  x9:0x00000000
       45375000	      4536	80002618	c8e92113	slti	x2,x18,-882	 x18:0x00013f08  x2=0x00000000
       45385000	      4537	8000261c	5e13e993	ori	x19,x7,1505	  x7:0x12ba5000 x19=0x12ba55e1
       45395000	      4538	80002620	0209fc63	bgeu	x19,x0,80002658	 x19:0x12ba55e1  x0:0x00000000
       45405000	      4539	00000000	00000013	addi	x0,x0,0	  x0:0x00000000
       45415000	      4540	80002654	00000013	addi	x0,x0,0	  x0:0x00000000
       45425000	      4541	80002658	01268333	add	x6,x13,x18	 x13:0x80009f84 x18:0x00013f08  x6=0x8001de8c
       45435000	      4542	8000265c	03951863	bne	x10,x25,8000268c	 x10:0x00000001 x25:0x00000000
       45445000	      4543	00000000	00000013	addi	x0,x0,0	  x0:0x00000000
       45455000	      4544	80002688	00000013	addi	x0,x0,0	  x0:0x00000000
       45465000	      4545	8000268c	00000013	addi	x0,x0,0	  x0:0x00000000
       45475000	      4546	80002690	405f5eb3	sra	x29,x30,x5	 x30:0x00000000  x5:0x00000000 x29=0x00000000
       45485000	      4547	80002694	00114e63	blt	x2,x1,800026b0	  x2:0x00000000  x1:0x000004b5
       45495000	      4548	00000000	00000013	addi	x0,x0,0	  x0:0x00000000
       45505000	      4549	800026ac	00000013	addi	x0,x0,0	  x0:0x00000000
       45515000	      4550	800026b0	7f89b813	sltiu	x16,x19,2040	 x19:0x12ba55e1 x16=0x00000000
       45525000	      4551	800026b4	00110b33	add	x22,x2,x1	  x2:0x00000000  x1:0x000004b5 x22=0x000004b5
       45535000	      4552	800026b8	01baeb33	or	x22,x21,x27	 x21:0x00000001 x27:0xb152f552 x22=0xb152f553
       45545000	      4553	800026bc	004b6cb3	or	x25,x22,x4	 x22:0xb152f553  x4:0x00000001 x25=0xb152f553
       45555000	      4554	800026c0	59978ab7	lui	x21,0x59978	 x21=0x59978000
       45565000	      4555	800026c4	00000013	addi	x0,x0,0	  x0:0x00000000
       45575000	      4556	800026c8	03b24063	blt	x4,x27,800026e8	  x4:0x00000001 x27:0xb152f552
       45585000	      4557	800026cc	5f2b7793	andi	x15,x22,1522	 x22:0xb152f553 x15=0x00000552
       45595000	      4558	800026d0	02e36663	bltu	x6,x14,800026fc	  x6:0x8001de8c x14:0x80009fc4
       45605000	      4559	800026d4	239d6f93	ori	x31,x26,569	 x26:0x000007f1 x31=0x000007f9
       45615000	      4560	800026d8	40930433	sub	x8,x6,x9	  x6:0x8001de8c  x9:0x00000000  x8=0x8001de8c
       45625000	      4561	800026dc	0014f463	bgeu	x9,x1,800026e4	  x9:0x00000000  x1:0x000004b5
       45635000	      4562	800026e0	01eb0db3	add	x27,x22,x30	 x22:0xb152f553 x30:0x00000000 x27=0xb152f553
       45645000	      4563	800026e4	04c05463	bge	x0,x12,8000272c	  x0:0x00000000 x12:0x00000001
       45655000	      4564	800026e8	019fe1b3	or	x3,x31,x25	 x31:0x000007f9 x25:0xb152f553  x3=0xb152f7fb
       45665000	      4565	800026ec	00000013	addi	x0,x0,0	  x0:0x00000000
       45675000	      4566	800026f0	05ff9863	bne	x31,x31,80002740	 x31:0x000007f9 x31:0x000007f9
       45685000	      4567	800026f4	01abe0b3	or	x1,x23,x26	 x23:0x2574a000 x26:0x000007f1  x1=0x2574a7f1
       45695000	      4568	800026f8	16d27c93	andi	x25,x4,365	  x4:0x00000001 x25=0x00000001
       45705000	      4569	800026fc	00c47933	and	x18,x8,x12	  x8:0x8001de8c x12:0x00000001 x18=0x00000000
       45715000	      4570	80002700	00000013	addi	x0,x0,0	  x0:0x00000000
       45725000	      4571	80002704	40c95833	sra	x16,x18,x12	 x18:0x00000000 x12:0x00000001 x16=0x00000000
       45735000	      4572	80002708	01ee28b3	slt	x17,x28,x30	 x28:0x00000001 x30:0x00000000 x17=0x00000000
       45745000	      4573	8000270c	008c9993	slli	x19,x25,0x8	 x25:0x00000001 x19=0x00000100
       45755000	      4574	80002710	9c333c93	sltiu	x25,x6,-1597	  x6:0x8001de8c x25=0x00000001
       45765000	      4575	80002714	00000013	addi	x0,x0,0	  x0:0x00000000
       45775000	      4576	80002718	ebe235b7	lui	x11,0xebe23	 x11=0xebe23000
       45785000	      4577	8000271c	008cd1b3	srl	x3,x25,x8	 x25:0x00000001  x8:0x8001de8c  x3=0x00000000
       45795000	      4578	80002720	00142bb3	slt	x23,x8,x1	  x8:0x8001de8c  x1:0x2574a7f1 x23=0x00000001
       45805000	      4579	80002724	001e2333	slt	x6,x28,x1	 x28:0x00000001  x1:0x2574a7f1  x6=0x00000001
       45815000	      4580	80002728	019d5db3	srl	x27,x26,x25	 x26:0x000007f1 x25:0x00000001 x27=0x000003f8
       45825000	      4581	8000272c	014c63b3	or	x7,x24,x20	 x24:0x00000001 x20:0x80009f44  x7=0x80009f45
       45835000	      4582	80002730	ebba8493	addi	x9,x21,-325	 x21:0x59978000  x9=0x59977ebb
       45845000	      4583	80002734	01c82a33	slt	x20,x16,x28	 x16:0x00000000 x28:0x00000001 x20=0x00000001
       45855000	      4584	80002738	052ec463	blt	x29,x18,80002780	 x29:0x00000000 x18:0x00000000
       45865000	      4585	8000273c	04337663	bgeu	x6,x3,80002788	  x6:0x00000001  x3:0x00000000
       45875000	      4586	00000000	00000013	addi	x0,x0,0	  x0:0x00000000
       45885000	      4587	80002784	00000013	addi	x0,x0,0	  x0:0x00000000
       45895000	      4588	80002788	53dc0f13	addi	x30,x24,1341	 x24:0x00000001 x30=0x0000053e
       45905000	      4589	8000278c	67a20c93	addi	x25,x4,1658	  x4:0x00000001 x25=0x0000067b
       45915000	      4590	80002790	048ef063	bgeu	x29,x8,800027d0	 x29:0x00000000  x8:0x8001de8c
       45925000	      4591	80002794	0e35f313	andi	x6,x11,227	 x11:0xebe23000  x6=0x00000000
       45935000	      4592	80002798	015d1463	bne	x26,x21,800027a0	 x26:0x000007f1 x21:0x59978000
       45945000	      4593	00000000	00000013	addi	x0,x0,0	  x0:0x00000000
       45955000	      4594	8000279c	00000013	addi	x0,x0,0	  x0:0x00000000
       45965000	      4595	800027a0	00ac0863	beq	x24,x10,800027b0	 x24:0x00000001 x10:0x00000001
       45975000	      4596	00000000	00000013	addi	x0,x0,0	  x0:0x00000000
       45985000	      4597	800027ac	00000013	addi	x0,x0,0	  x0:0x00000000
       45995000	      4598	800027b0	05fa7263	bgeu	x20,x31,800027f4	 x20:0x00000001 x31:0x000007f9
       46005000	      4599	800027b4	418bd7b3	sra	x15,x23,x24	 x23:0x00000001 x24:0x00000001 x15=0x00000000
       46015000	      4600	800027b8	2dfe6113	ori	x2,x28,735	 x28:0x00000001  x2=0x000002df
       46025000	      4601	800027bc	0018ec33	or	x24,x17,x1	 x17:0x00000000  x1:0x2574a7f1 x24=0x2574a7f1
       46035000	      4602	800027c0	2a60f7b7	lui	x15,0x2a60f	 x15=0x2a60f000
       46045000	      4603	800027c4	40835993	srai	x19,x6,0x8	  x6:0x00000000 x19=0x00000000
       46055000	      4604	800027c8	002f4263	blt	x30,x2,800027cc	 x30:0x0000053e  x2:0x000002df
       46065000	      4605	800027cc	01f1f463	bgeu	x3,x31,800027d4	  x3:0x00000000 x31:0x000007f9
       46075000	      4606	800027d0	00000013	addi	x0,x0,0	  x0:0x00000000
       46085000	      4607	800027d4	02389c63	bne	x17,x3,8000280c	 x17:0x00000000  x3:0x00000000
       46095000	      4608	800027d8	00621e33	sll	x28,x4,x6	  x4:0x00000001  x6:0x00000000 x28=0x00000001
       46105000	      4609	800027dc	016eadb3	slt	x27,x29,x22	 x29:0x00000000 x22:0xb152f553 x27=0x00000000
       46115000	      4610	800027e0	00000013	addi	x0,x0,0	  x0:0x00000000
       46125000	      4611	800027e4	012d7bb3	and	x23,x26,x18	 x26:0x000007f1 x18:0x00000000 x23=0x00000000
       46135000	      4612	800027e8	018d4463	blt	x26,x24,800027f0	 x26:0x000007f1 x24:0x2574a7f1
       46145000	      4613	00000000	00000013	addi	x0,x0,0	  x0:0x00000000
       46155000	      4614	800027ec	00000013	addi	x0,x0,0	  x0:0x00000000
       46165000	      4615	800027f0	41728f33	sub	x30,x5,x23	  x5:0x00000000 x23:0x00000000 x30=0x00000000
       46175000	      4616	800027f4	00b0c1b3	xor	x3,x1,x11	  x1:0x2574a7f1 x11:0xebe23000  x3=0xce9697f1
       46185000	      4617	800027f8	2ba22837	lui	x16,0x2ba22	 x16=0x2ba22000
       46195000	      4618	800027fc	d3112e13	slti	x28,x2,-719	  x2:0x000002df x28=0x00000000
       46205000	      4619	80002800	9230e413	ori	x8,x1,-1757	  x1:0x2574a7f1  x8=0xfffffff3
       46215000	      4620	80002804	014e7eb3	and	x29,x28,x20	 x28:0x00000000 x20:0x00000001 x29=0x00000000
       46225000	      4621	80002808	016149b3	xor	x19,x2,x22	  x2:0x000002df x22:0xb152f553 x19=0xb152f78c
       46235000	      4622	8000280c	00619863	bne	x3,x6,8000281c	  x3:0xce9697f1  x6:0x00000000
       46245000	      4623	00000000	00000013	addi	x0,x0,0	  x0:0x00000000
       46255000	      4624	80002818	00000013	addi	x0,x0,0	  x0:0x00000000
       46265000	      4625	8000281c	00492433	slt	x8,x18,x4	 x18:0x00000000  x4:0x00000001  x8=0x00000001
       46275000	      4626	80002820	4038d8b3	sra	x17,x17,x3	 x17:0x00000000  x3:0xce9697f1 x17=0x00000000
       46285000	      4627	80002824	01aceeb3	or	x29,x25,x26	 x25:0x0000067b x26:0x000007f1 x29=0x000007fb
       46295000	      4628	80002828	01165d13	srli	x26,x12,0x11	 x12:0x00000001 x26=0x00000000
       46305000	      4629	8000282c	005b8a63	beq	x23,x5,80002840	 x23:0x00000000  x5:0x00000000
       46315000	      4630	00000000	00000013	addi	x0,x0,0	  x0:0x00000000
       46325000	      4631	8000283c	00000013	addi	x0,x0,0	  x0:0x00000000
       46335000	      4632	80002840	01b6f1b3	and	x3,x13,x27	 x13:0x80009f84 x27:0x00000000  x3=0x00000000
       46345000	      4633	80002844	413789b3	sub	x19,x15,x19	 x15:0x2a60f000 x19:0xb152f78c x19=0x790df874
       46355000	      4634	80002848	05708663	beq	x1,x23,80002894	  x1:0x2574a7f1 x23:0x00000000
       46365000	      4635	8000284c	01491e63	bne	x18,x20,80002868	 x18:0x00000000 x20:0x00000001
       46375000	      4636	00000000	00000013	addi	x0,x0,0	  x0:0x00000000
       46385000	      4637	80002864	00000013	addi	x0,x0,0	  x0:0x00000000
       46395000	      4638	80002868	005c3b33	sltu	x22,x24,x5	 x24:0x2574a7f1  x5:0x00000000 x22=0x00000000
       46405000	      4639	8000286c	4008d813	srai	x16,x17,0x0	 x17:0x00000000 x16=0x00000000
       46415000	      4640	80002870	7a0afdb7	lui	x27,0x7a0af	 x27=0x7a0af000
       46425000	      4641	80002874	00fb0463	beq	x22,x15,8000287c	 x22:0x00000000 x15:0x2a60f000
       46435000	      4642	80002878	00bb6463	bltu	x22,x11,80002880	 x22:0x00000000 x11:0xebe23000
       46445000	      4643	00000000	00000013	addi	x0,x0,0	  x0:0x00000000
       46455000	      4644	8000287c	00000013	addi	x0,x0,0	  x0:0x00000000
       46465000	      4645	80002880	408300b3	sub	x1,x6,x8	  x6:0x00000000  x8:0x00000001  x1=0xffffffff
       46475000	      4646	80002884	01b840b3	xor	x1,x16,x27	 x16:0x00000000 x27:0x7a0af000  x1=0x7a0af000
       46485000	      4647	80002888	17dd6a13	ori	x20,x26,381	 x26:0x00000000 x20=0x0000017d
       46495000	      4648	8000288c	00385f93	srli	x31,x16,0x3	 x16:0x00000000 x31=0x00000000
       46505000	      4649	80002890	75f88b13	addi	x22,x17,1887	 x17:0x00000000 x22=0x0000075f
       46515000	      4650	80002894	40f95913	srai	x18,x18,0xf	 x18:0x00000000 x18=0x00000000
       46525000	      4651	80002898	0119fdb3	and	x27,x19,x17	 x19:0x790df874 x17:0x00000000 x27=0x00000000
       46535000	      4652	8000289c	0e77a493	slti	x9,x15,231	 x15:0x2a60f000  x9=0x00000000
       46545000	      4653	800028a0	01eb3c33	sltu	x24,x22,x30	 x22:0x0000075f x30:0x00000000 x24=0x00000000
       46555000	      4654	800028a4	01079513	slli	x10,x15,0x10	 x15:0x2a60f000 x10=0xf0000000
       46565000	      4655	800028a8	0138fa33	and	x20,x17,x19	 x17:0x00000000 x19:0x790df874 x20=0x00000000
       46575000	      4656	800028ac	41dad7b3	sra	x15,x21,x29	 x21:0x59978000 x29:0x000007fb x15=0x0000000b
       46585000	      4657	800028b0	003b69b3	or	x19,x22,x3	 x22:0x0000075f  x3:0x00000000 x19=0x0000075f
       46595000	      4658	800028b4	6fb52093	slti	x1,x10,1787	 x10:0xf0000000  x1=0x00000001
       46605000	      4659	800028b8	01c01633	sll	x12,x0,x28	  x0:0x00000000 x28:0x00000000 x12=0x00000000
       46615000	      4660	800028bc	417f5cb3	sra	x25,x30,x23	 x30:0x00000000 x23:0x00000000 x25=0x00000000
       46625000	      4661	800028c0	48589897	auipc	x17,0x48589	 x17=0xc858b8bc
       46635000	      4662	800028c4	93dbe093	ori	x1,x23,-1731	 x23:0x00000000  x1=0xfffff93d
       46645000	      4663	800028c8	01219f13	slli	x30,x3,0x12	  x3:0x00000000 x30=0x00000000
       46655000	      4664	800028cc	e24d1597	auipc	x11,0xe24d1	 x11=0x624d38c8
       46665000	      4665	800028d0	7ce96437	lui	x8,0x7ce96	  x8=0x7ce96000
       46675000	      4666	800028d4	08a3bc13	sltiu	x24,x7,138	  x7:0x80009f45 x24=0x00000000
       46685000	      4667	800028d8	9c50f913	andi	x18,x1,-1595	  x1:0xfffff93d x18=0xfffff905
       46695000	      4668	800028dc	c006b937	lui	x18,0xc006b	 x18=0xc006b000
       46705000	      4669	800028e0	00e06833	or	x16,x0,x14	  x0:0x00000000 x14:0x80009fc4 x16=0x80009fc4
       46715000	      4670	800028e4	001f5eb3	srl	x29,x30,x1	 x30:0x00000000  x1:0xfffff93d x29=0x00000000
       46725000	      4671	800028e8	0353d663	bge	x7,x21,80002914	  x7:0x80009f45 x21:0x59978000
       46735000	      4672	800028ec	016690b3	sll	x1,x13,x22	 x13:0x80009f84 x22:0x0000075f  x1=0x00000000
       46745000	      4673	800028f0	0268e063	bltu	x17,x6,80002910	 x17:0xc858b8bc  x6:0x00000000
       46755000	      4674	800028f4	057c0463	beq	x24,x23,8000293c	 x24:0x00000000 x23:0x00000000
       46765000	      4675	00000000	00000013	addi	x0,x0,0	  x0:0x00000000
       46775000	      4676	80002938	00000013	addi	x0,x0,0	  x0:0x00000000
       46785000	      4677	8000293c	41c2fa93	andi	x21,x5,1052	  x5:0x00000000 x21=0x00000000
       46795000	      4678	80002940	04889063	bne	x17,x8,80002980	 x17:0xc858b8bc  x8:0x7ce96000
       46805000	      4679	00000000	00000013	addi	x0,x0,0	  x0:0x00000000
       46815000	      4680	8000297c	00000013	addi	x0,x0,0	  x0:0x00000000
       46825000	      4681	80002980	0038aab3	slt	x21,x17,x3	 x17:0xc858b8bc  x3:0x00000000 x21=0x00000001
       46835000	      4682	80002984	40ff5493	srai	x9,x30,0xf	 x30:0x00000000  x9=0x00000000
       46845000	      4683	80002988	00235013	srli	x0,x6,0x2	  x6:0x00000000
       46855000	      4684	8000298c	013545b3	xor	x11,x10,x19	 x10:0xf0000000 x19:0x0000075f x11=0xf000075f
       46865000	      4685	80002990	f7922c37	lui	x24,0xf7922	 x24=0xf7922000
       46875000	      4686	80002994	00f797b3	sll	x15,x15,x15	 x15:0x0000000b x15:0x0000000b x15=0x00005800
       46885000	      4687	80002998	01c81db3	sll	x27,x16,x28	 x16:0x80009fc4 x28:0x00000000 x27=0x80009fc4
       46895000	      4688	8000299c	05744663	blt	x8,x23,800029e8	  x8:0x7ce96000 x23:0x00000000
       46905000	      4689	800029a0	e44f4db7	lui	x27,0xe44f4	 x27=0xe44f4000
       46915000	      4690	800029a4	00000013	addi	x0,x0,0	  x0:0x00000000
       46925000	      4691	800029a8	40b9d533	sra	x10,x19,x11	 x19:0x0000075f x11:0xf000075f x10=0x00000000
       46935000	      4692	800029ac	011b1a33	sll	x20,x22,x17	 x22:0x0000075f x17:0xc858b8bc x20=0xf0000000
       46945000	      4693	800029b0	6d34abb7	lui	x23,0x6d34a	 x23=0x6d34a000
       46955000	      4694	800029b4	01a2cbb3	xor	x23,x5,x26	  x5:0x00000000 x26:0x00000000 x23=0x00000000
       46965000	      4695	800029b8	0337d663	bge	x15,x19,800029e4	 x15:0x00005800 x19:0x0000075f
       46975000	      4696	00000000	00000013	addi	x0,x0,0	  x0:0x00000000
       46985000	      4697	800029e0	00000013	addi	x0,x0,0	  x0:0x00000000
       46995000	      4698	800029e4	19638037	lui	x0,0x19638	
       47005000	      4699	800029e8	008ac4b3	xor	x9,x21,x8	 x21:0x00000001  x8:0x7ce96000  x9=0x7ce96001
       47015000	      4700	800029ec	05c5e263	bltu	x11,x28,80002a30	 x11:0xf000075f x28:0x00000000
       47025000	      4701	800029f0	002e71b3	and	x3,x28,x2	 x28:0x00000000  x2:0x000002df  x3=0x00000000
       47035000	      4702	800029f4	419bdd13	srai	x26,x23,0x19	 x23:0x00000000 x26=0x00000000
       47045000	      4703	800029f8	3f9fb893	sltiu	x17,x31,1017	 x31:0x00000000 x17=0x00000001
       47055000	      4704	800029fc	40ce5793	srai	x15,x28,0xc	 x28:0x00000000 x15=0x00000000
       47065000	      4705	80002a00	418454b3	sra	x9,x8,x24	  x8:0x7ce96000 x24:0xf7922000  x9=0x7ce96000
       47075000	      4706	80002a04	056f7063	bgeu	x30,x22,80002a44	 x30:0x00000000 x22:0x0000075f
       47085000	      4707	80002a08	0086beb3	sltu	x29,x13,x8	 x13:0x80009f84  x8:0x7ce96000 x29=0x00000000
       47095000	      4708	80002a0c	01449513	slli	x10,x9,0x14	  x9:0x7ce96000 x10=0x00000000
       47105000	      4709	80002a10	0029ae33	slt	x28,x19,x2	 x19:0x0000075f  x2:0x000002df x28=0x00000000
       47115000	      4710	80002a14	0077c7b3	xor	x15,x15,x7	 x15:0x00000000  x7:0x80009f45 x15=0x80009f45
       47125000	      4711	80002a18	00000013	addi	x0,x0,0	  x0:0x00000000
       47135000	      4712	80002a1c	3eae3597	auipc	x11,0x3eae3	 x11=0xbeae5a18
       47145000	      4713	80002a20	40910fb3	sub	x31,x2,x9	  x2:0x000002df  x9:0x7ce96000 x31=0x8316a2df
       47155000	      4714	80002a24	03628e63	beq	x5,x22,80002a60	  x5:0x00000000 x22:0x0000075f
       47165000	      4715	80002a28	ac3cb837	lui	x16,0xac3cb	 x16=0xac3cb000
       47175000	      4716	80002a2c	00e3fc33	and	x24,x7,x14	  x7:0x80009f45 x14:0x80009fc4 x24=0x80009f44
       47185000	      4717	80002a30	c1e48a93	addi	x21,x9,-994	  x9:0x7ce96000 x21=0x7ce95c1e
       47195000	      4718	80002a34	01c2df93	srli	x31,x5,0x1c	  x5:0x00000000 x31=0x00000000
       47205000	      4719	80002a38	01d7de63	bge	x15,x29,80002a54	 x15:0x80009f45 x29:0x00000000
       47215000	      4720	80002a3c	00535cb3	srl	x25,x6,x5	  x6:0x00000000  x5:0x00000000 x25=0x00000000
       47225000	      4721	80002a40	f10b8813	addi	x16,x23,-240	 x23:0x00000000 x16=0xffffff10
       47235000	      4722	80002a44	019f5863	bge	x30,x25,80002a54	 x30:0x00000000 x25:0x00000000
       47245000	      4723	00000000	00000013	addi	x0,x0,0	  x0:0x00000000
       47255000	      4724	80002a50	00000013	addi	x0,x0,0	  x0:0x00000000
       47265000	      4725	80002a54	8ac54e93	xori	x29,x10,-1876	 x10:0x00000000 x29=0xfffff8ac
       47275000	      4726	80002a58	00175a63	bge	x14,x1,80002a6c	 x14:0x80009fc4  x1:0x00000000
       47285000	      4727	80002a5c	041f8663	beq	x31,x1,80002aa8	 x31:0x00000000  x1:0x00000000
       47295000	      4728	00000000	00000013	addi	x0,x0,0	  x0:0x00000000
       47305000	      4729	80002aa4	00000013	addi	x0,x0,0	  x0:0x00000000
       47315000	      4730	80002aa8	000d98b3	sll	x17,x27,x0	 x27:0xe44f4000  x0:0x00000000 x17=0xe44f4000
       47325000	      4731	80002aac	03b31663	bne	x6,x27,80002ad8	  x6:0x00000000 x27:0xe44f4000
       47335000	      4732	00000000	00000013	addi	x0,x0,0	  x0:0x00000000
       47345000	      4733	80002ad4	00000013	addi	x0,x0,0	  x0:0x00000000
       47355000	      4734	80002ad8	00f25333	srl	x6,x4,x15	  x4:0x00000001 x15:0x80009f45  x6=0x00000000
       47365000	      4735	80002adc	00868233	add	x4,x13,x8	 x13:0x80009f84  x8:0x7ce96000  x4=0xfce9ff84
       47375000	      4736	80002ae0	01f533b3	sltu	x7,x10,x31	 x10:0x00000000 x31:0x00000000  x7=0x00000000
       47385000	      4737	80002ae4	001bcab3	xor	x21,x23,x1	 x23:0x00000000  x1:0x00000000 x21=0x00000000
       47395000	      4738	80002ae8	01679613	slli	x12,x15,0x16	 x15:0x80009f45 x12=0xd1400000
       47405000	      4739	80002aec	03967863	bgeu	x12,x25,80002b1c	 x12:0xd1400000 x25:0x00000000
       47415000	      4740	00000000	00000013	addi	x0,x0,0	  x0:0x00000000
       47425000	      4741	80002b18	00000013	addi	x0,x0,0	  x0:0x00000000
       47435000	      4742	80002b1c	01b49213	slli	x4,x9,0x1b	  x9:0x7ce96000  x4=0x00000000
       47445000	      4743	80002b20	043ed463	bge	x29,x3,80002b68	 x29:0xfffff8ac  x3:0x00000000
       47455000	      4744	80002b24	015b9b93	slli	x23,x23,0x15	 x23:0x00000000 x23=0x00000000
       47465000	      4745	80002b28	0119ef33	or	x30,x19,x17	 x19:0x0000075f x17:0xe44f4000 x30=0xe44f475f
       47475000	      4746	80002b2c	00bd8263	beq	x27,x11,80002b30	 x27:0xe44f4000 x11:0xbeae5a18
       47485000	      4747	80002b30	b987f093	andi	x1,x15,-1128	 x15:0x80009f45  x1=0x80009b00
       47495000	      4748	80002b34	5c6aac13	slti	x24,x21,1478	 x21:0x00000000 x24=0x00000001
       47505000	      4749	80002b38	043685b7	lui	x11,0x4368	 x11=0x04368000
       47515000	      4750	80002b3c	00000013	addi	x0,x0,0	  x0:0x00000000
       47525000	      4751	80002b40	05eef063	bgeu	x29,x30,80002b80	 x29:0xfffff8ac x30:0xe44f475f
       47535000	      4752	00000000	00000013	addi	x0,x0,0	  x0:0x00000000
       47545000	      4753	80002b7c	00000013	addi	x0,x0,0	  x0:0x00000000
       47555000	      4754	80002b80	415bdc93	srai	x25,x23,0x15	 x23:0x00000000 x25=0x00000000
       47565000	      4755	80002b84	4128de13	srai	x28,x17,0x12	 x17:0xe44f4000 x28=0xfffff913
       47575000	      4756	80002b88	01acad33	slt	x26,x25,x26	 x25:0x00000000 x26:0x00000000 x26=0x00000000
       47585000	      4757	80002b8c	0072d613	srli	x12,x5,0x7	  x5:0x00000000 x12=0x00000000
       47595000	      4758	80002b90	00fc9513	slli	x10,x25,0xf	 x25:0x00000000 x10=0x00000000
       47605000	      4759	80002b94	056af863	bgeu	x21,x22,80002be4	 x21:0x00000000 x22:0x0000075f
       47615000	      4760	80002b98	01f2d993	srli	x19,x5,0x1f	  x5:0x00000000 x19=0x00000000
       47625000	      4761	80002b9c	003849b3	xor	x19,x16,x3	 x16:0xffffff10  x3:0x00000000 x19=0xffffff10
       47635000	      4762	80002ba0	0039bd33	sltu	x26,x19,x3	 x19:0xffffff10  x3:0x00000000 x26=0x00000000
       47645000	      4763	80002ba4	d845ab93	slti	x23,x11,-636	 x11:0x04368000 x23=0x00000000
       47655000	      4764	80002ba8	00d25333	srl	x6,x4,x13	  x4:0x00000000 x13:0x80009f84  x6=0x00000000
       47665000	      4765	80002bac	c21bfc93	andi	x25,x23,-991	 x23:0x00000000 x25=0x00000000
       47675000	      4766	80002bb0	415c0fb3	sub	x31,x24,x21	 x24:0x00000001 x21:0x00000000 x31=0x00000001
       47685000	      4767	80002bb4	001adc13	srli	x24,x21,0x1	 x21:0x00000000 x24=0x00000000
       47695000	      4768	80002bb8	00f52ab3	slt	x21,x10,x15	 x10:0x00000000 x15:0x80009f45 x21=0x00000000
       47705000	      4769	80002bbc	40d9e493	ori	x9,x19,1037	 x19:0xffffff10  x9=0xffffff1d
       47715000	      4770	80002bc0	98a82013	slti	x0,x16,-1654	 x16:0xffffff10
       47725000	      4771	80002bc4	4e133493	sltiu	x9,x6,1249	  x6:0x00000000  x9=0x00000001
       47735000	      4772	80002bc8	8dec8e13	addi	x28,x25,-1826	 x25:0x00000000 x28=0xfffff8de
       47745000	      4773	80002bcc	0127a533	slt	x10,x15,x18	 x15:0x80009f45 x18:0xc006b000 x10=0x00000001
       47755000	      4774	80002bd0	b5d2fa93	andi	x21,x5,-1187	  x5:0x00000000 x21=0x00000000
       47765000	      4775	80002bd4	41edd193	srai	x3,x27,0x1e	 x27:0xe44f4000  x3=0xffffffff
       47775000	      4776	80002bd8	01b79333	sll	x6,x15,x27	 x15:0x80009f45 x27:0xe44f4000  x6=0x80009f45
       47785000	      4777	80002bdc	01338bb3	add	x23,x7,x19	  x7:0x00000000 x19:0xffffff10 x23=0xffffff10
       47795000	      4778	80002be0	00531463	bne	x6,x5,80002be8	  x6:0x80009f45  x5:0x00000000
       47805000	      4779	00000000	00000013	addi	x0,x0,0	  x0:0x00000000
       47815000	      4780	80002be4	00000013	addi	x0,x0,0	  x0:0x00000000
       47825000	      4781	80002be8	05238463	beq	x7,x18,80002c30	  x7:0x00000000 x18:0xc006b000
       47835000	      4782	80002bec	00305a13	srli	x20,x0,0x3	  x0:0x00000000 x20=0x00000000
       47845000	      4783	80002bf0	001385b3	add	x11,x7,x1	  x7:0x00000000  x1:0x80009b00 x11=0x80009b00
       47855000	      4784	80002bf4	002dd7b3	srl	x15,x27,x2	 x27:0xe44f4000  x2:0x000002df x15=0x00000001
       47865000	      4785	80002bf8	e5c63813	sltiu	x16,x12,-420	 x12:0x00000000 x16=0x00000001
       47875000	      4786	80002bfc	01c86fb3	or	x31,x16,x28	 x16:0x00000001 x28:0xfffff8de x31=0xfffff8df
       47885000	      4787	80002c00	00a17333	and	x6,x2,x10	  x2:0x000002df x10:0x00000001  x6=0x00000001
       47895000	      4788	80002c04	8a957313	andi	x6,x10,-1879	 x10:0x00000001  x6=0x00000001
       47905000	      4789	80002c08	00ab5a13	srli	x20,x22,0xa	 x22:0x0000075f x20=0x00000001
       47915000	      4790	80002c0c	4f974813	xori	x16,x14,1273	 x14:0x80009fc4 x16=0x80009b3d
       47925000	      4791	80002c10	008249b3	xor	x19,x4,x8	  x4:0x00000000  x8:0x7ce96000 x19=0x7ce96000
       47935000	      4792	80002c14	27f1c613	xori	x12,x3,639	  x3:0xffffffff x12=0xfffffd80
       47945000	      4793	80002c18	0bd2e063	bltu	x5,x29,80002cb8	  x5:0x00000000 x29:0xfffff8ac
       47955000	      4794	00000000	00000013	addi	x0,x0,0	  x0:0x00000000
       47965000	      4795	80002cb4	00000013	addi	x0,x0,0	  x0:0x00000000
       47975000	      4796	80002cb8	40185e93	srai	x29,x16,0x1	 x16:0x80009b3d x29=0xc0004d9e
       47985000	      4797	80002cbc	08468863	beq	x13,x4,80002d4c	 x13:0x80009f84  x4:0x00000000
       47995000	      4798	80002cc0	6ec0f213	andi	x4,x1,1772	  x1:0x80009b00  x4=0x00000200
       48005000	      4799	80002cc4	b3164313	xori	x6,x12,-1231	 x12:0xfffffd80  x6=0x000006b1
       48015000	      4800	80002cc8	2ac62493	slti	x9,x12,684	 x12:0xfffffd80  x9=0x00000001
       48025000	      4801	80002ccc	3979b997	auipc	x19,0x3979b	 x19=0xb979dcc8
       48035000	      4802	80002cd0	4fe2af97	auipc	x31,0x4fe2a	 x31=0xcfe2cccc
       48045000	      4803	80002cd4	00adae33	slt	x28,x27,x10	 x27:0xe44f4000 x10:0x00000001 x28=0x00000001
       48055000	      4804	80002cd8	01361c13	slli	x24,x12,0x13	 x12:0xfffffd80 x24=0xec000000
       48065000	      4805	80002cdc	41485493	srai	x9,x16,0x14	 x16:0x80009b3d  x9=0xfffff800
       48075000	      4806	80002ce0	01354463	blt	x10,x19,80002ce8	 x10:0x00000001 x19:0xb979dcc8
       48085000	      4807	80002ce4	09917263	bgeu	x2,x25,80002d68	  x2:0x000002df x25:0x00000000
       48095000	      4808	00000000	00000013	addi	x0,x0,0	  x0:0x00000000
       48105000	      4809	80002d64	00000013	addi	x0,x0,0	  x0:0x00000000
       48115000	      4810	80002d68	c9d7fd13	andi	x26,x15,-867	 x15:0x00000001 x26=0x00000001
       48125000	      4811	80002d6c	000f9463	bne	x31,x0,80002d74	 x31:0xcfe2cccc  x0:0x00000000
       48135000	      4812	00000000	00000013	addi	x0,x0,0	  x0:0x00000000
       48145000	      4813	80002d70	00000013	addi	x0,x0,0	  x0:0x00000000
       48155000	      4814	80002d74	415d5113	srai	x2,x26,0x15	 x26:0x00000001  x2=0x00000000
       48165000	      4815	80002d78	000f4833	xor	x16,x30,x0	 x30:0xe44f475f  x0:0x00000000 x16=0xe44f475f
       48175000	      4816	80002d7c	17bd4213	xori	x4,x26,379	 x26:0x00000001  x4=0x0000017a
       48185000	      4817	80002d80	008489b3	add	x19,x9,x8	  x9:0xfffff800  x8:0x7ce96000 x19=0x7ce95800
       48195000	      4818	80002d84	415b81b3	sub	x3,x23,x21	 x23:0xffffff10 x21:0x00000000  x3=0xffffff10
       48205000	      4819	80002d88	00b429b3	slt	x19,x8,x11	  x8:0x7ce96000 x11:0x80009b00 x19=0x00000000
       48215000	      4820	80002d8c	03c44063	blt	x8,x28,80002dac	  x8:0x7ce96000 x28:0x00000001
       48225000	      4821	80002d90	6fc3ff93	andi	x31,x7,1788	  x7:0x00000000 x31=0x00000000
       48235000	      4822	80002d94	41c5d393	srai	x7,x11,0x1c	 x11:0x80009b00  x7=0xfffffff8
       48245000	      4823	80002d98	02d48063	beq	x9,x13,80002db8	  x9:0xfffff800 x13:0x80009f84
       48255000	      4824	80002d9c	01b06f33	or	x30,x0,x27	  x0:0x00000000 x27:0xe44f4000 x30=0xe44f4000
       48265000	      4825	80002da0	00674d33	xor	x26,x14,x6	 x14:0x80009fc4  x6:0x000006b1 x26=0x80009975
       48275000	      4826	80002da4	23c9ed93	ori	x27,x19,572	 x19:0x00000000 x27=0x0000023c
       48285000	      4827	80002da8	28ba0493	addi	x9,x20,651	 x20:0x00000001  x9=0x0000028c
       48295000	      4828	80002dac	0189d313	srli	x6,x19,0x18	 x19:0x00000000  x6=0x00000000
       48305000	      4829	80002db0	00b11a13	slli	x20,x2,0xb	  x2:0x00000000 x20=0x00000000
       48315000	      4830	80002db4	0131d863	bge	x3,x19,80002dc4	  x3:0xffffff10 x19:0x00000000
       48325000	      4831	80002db8	00745463	bge	x8,x7,80002dc0	  x8:0x7ce96000  x7:0xfffffff8
       48335000	      4832	00000000	00000013	addi	x0,x0,0	  x0:0x00000000
       48345000	      4833	80002dbc	00000013	addi	x0,x0,0	  x0:0x00000000
       48355000	      4834	80002dc0	00851c93	slli	x25,x10,0x8	 x10:0x00000001 x25=0x00000100
       48365000	      4835	80002dc4	03a08863	beq	x1,x26,80002df4	  x1:0x80009b00 x26:0x80009975
       48375000	      4836	80002dc8	2dd2a193	slti	x3,x5,733	  x5:0x00000000  x3=0x00000001
       48385000	      4837	80002dcc	00227e33	and	x28,x4,x2	  x4:0x0000017a  x2:0x00000000 x28=0x00000000
       48395000	      4838	80002dd0	c27ff513	andi	x10,x31,-985	 x31:0x00000000 x10=0x00000000
       48405000	      4839	80002dd4	01990e63	beq	x18,x25,80002df0	 x18:0xc006b000 x25:0x00000100
       48415000	      4840	80002dd8	00672533	slt	x10,x14,x6	 x14:0x80009fc4  x6:0x00000000 x10=0x00000001
       48425000	      4841	80002ddc	41a60833	sub	x16,x12,x26	 x12:0xfffffd80 x26:0x80009975 x16=0x7fff640b
       48435000	      4842	80002de0	3740b113	sltiu	x2,x1,884	  x1:0x80009b00  x2=0x00000000
       48445000	      4843	80002de4	041d0663	beq	x26,x1,80002e30	 x26:0x80009975  x1:0x80009b00
       48455000	      4844	80002de8	004491b3	sll	x3,x9,x4	  x9:0x0000028c  x4:0x0000017a  x3=0x30000000
       48465000	      4845	80002dec	26d4f213	andi	x4,x9,621	  x9:0x0000028c  x4=0x0000020c
       48475000	      4846	80002df0	01d7c863	blt	x15,x29,80002e00	 x15:0x00000001 x29:0xc0004d9e
       48485000	      4847	80002df4	7e9fbe13	sltiu	x28,x31,2025	 x31:0x00000000 x28=0x00000001
       48495000	      4848	80002df8	00c19193	slli	x3,x3,0xc	  x3:0x30000000  x3=0x00000000
       48505000	      4849	80002dfc	5f98f013	andi	x0,x17,1529	 x17:0xe44f4000
       48515000	      4850	80002e00	016cc833	xor	x16,x25,x22	 x25:0x00000100 x22:0x0000075f x16=0x0000065f
       48525000	      4851	80002e04	047c6263	bltu	x24,x7,80002e48	 x24:0xec000000  x7:0xfffffff8
       48535000	      4852	00000000	00000013	addi	x0,x0,0	  x0:0x00000000
       48545000	      4853	80002e44	00000013	addi	x0,x0,0	  x0:0x00000000
       48555000	      4854	80002e48	03471e63	bne	x14,x20,80002e84	 x14:0x80009fc4 x20:0x00000000
       48565000	      4855	00000000	00000013	addi	x0,x0,0	  x0:0x00000000
       48575000	      4856	80002e80	00000013	addi	x0,x0,0	  x0:0x00000000
       48585000	      4857	80002e84	00b29d93	slli	x27,x5,0xb	  x5:0x00000000 x27=0x00000000
       48595000	      4858	80002e88	001ccd33	xor	x26,x25,x1	 x25:0x00000100  x1:0x80009b00 x26=0x80009a00
       48605000	      4859	80002e8c	01969b13	slli	x22,x13,0x19	 x13:0x80009f84 x22=0x08000000
       48615000	      4860	80002e90	41715113	srai	x2,x2,0x17	  x2:0x00000000  x2=0x00000000
       48625000	      4861	80002e94	013eb7b3	sltu	x15,x29,x19	 x29:0xc0004d9e x19:0x00000000 x15=0x00000000
       48635000	      4862	80002e98	72418a93	addi	x21,x3,1828	  x3:0x00000000 x21=0x00000724
       48645000	      4863	80002e9c	01243d33	sltu	x26,x8,x18	  x8:0x7ce96000 x18:0xc006b000 x26=0x00000001
       48655000	      4864	80002ea0	41830433	sub	x8,x6,x24	  x6:0x00000000 x24:0xec000000  x8=0x14000000
       48665000	      4865	80002ea4	0074ccb3	xor	x25,x9,x7	  x9:0x0000028c  x7:0xfffffff8 x25=0xfffffd74
       48675000	      4866	80002ea8	00c88c63	beq	x17,x12,80002ec0	 x17:0xe44f4000 x12:0xfffffd80
       48685000	      4867	80002eac	01d5bbb3	sltu	x23,x11,x29	 x11:0x80009b00 x29:0xc0004d9e x23=0x00000001
       48695000	      4868	80002eb0	04606063	bltu	x0,x6,80002ef0	  x0:0x00000000  x6:0x00000000
       48705000	      4869	80002eb4	8c470413	addi	x8,x14,-1852	 x14:0x80009fc4  x8=0x80009888
       48715000	      4870	80002eb8	40a55c33	sra	x24,x10,x10	 x10:0x00000001 x10:0x00000001 x24=0x00000000
       48725000	      4871	80002ebc	03789663	bne	x17,x23,80002ee8	 x17:0xe44f4000 x23:0x00000001
       48735000	      4872	00000000	00000013	addi	x0,x0,0	  x0:0x00000000
       48745000	      4873	80002ee4	00000013	addi	x0,x0,0	  x0:0x00000000
       48755000	      4874	80002ee8	4038deb3	sra	x29,x17,x3	 x17:0xe44f4000  x3:0x00000000 x29=0xe44f4000
       48765000	      4875	80002eec	bee0f093	andi	x1,x1,-1042	  x1:0x80009b00  x1=0x80009b00
       48775000	      4876	80002ef0	00dc1333	sll	x6,x24,x13	 x24:0x00000000 x13:0x80009f84  x6=0x00000000
       48785000	      4877	80002ef4	40325513	srai	x10,x4,0x3	  x4:0x0000020c x10=0x00000041
       48795000	      4878	80002ef8	05dbd463	bge	x23,x29,80002f40	 x23:0x00000001 x29:0xe44f4000
       48805000	      4879	00000000	00000013	addi	x0,x0,0	  x0:0x00000000
       48815000	      4880	80002f3c	00000013	addi	x0,x0,0	  x0:0x00000000
       48825000	      4881	80002f40	d9f70113	addi	x2,x14,-609	 x14:0x80009fc4  x2=0x80009d63
       48835000	      4882	80002f44	01728ab3	add	x21,x5,x23	  x5:0x00000000 x23:0x00000001 x21=0x00000001
       48845000	      4883	80002f48	40f8df13	srai	x30,x17,0xf	 x17:0xe44f4000 x30=0xffffc89e
       48855000	      4884	80002f4c	f5e203b7	lui	x7,0xf5e20	  x7=0xf5e20000
       48865000	      4885	80002f50	5ecead93	slti	x27,x29,1516	 x29:0xe44f4000 x27=0x00000001
       48875000	      4886	80002f54	ddd57497	auipc	x9,0xddd57	  x9=0x5dd59f50
       48885000	      4887	80002f58	001645b3	xor	x11,x12,x1	 x12:0xfffffd80  x1:0x80009b00 x11=0x7fff6680
       48895000	      4888	80002f5c	7c79f793	andi	x15,x19,1991	 x19:0x00000000 x15=0x00000000
       48905000	      4889	80002f60	4077dab3	sra	x21,x15,x7	 x15:0x00000000  x7:0xf5e20000 x21=0x00000000
       48915000	      4890	80002f64	41cf5913	srai	x18,x30,0x1c	 x30:0xffffc89e x18=0xffffffff
       48925000	      4891	80002f68	4094d893	srai	x17,x9,0x9	  x9:0x5dd59f50 x17=0x002eeacf
       48935000	      4892	80002f6c	00daccb3	xor	x25,x21,x13	 x21:0x00000000 x13:0x80009f84 x25=0x80009f84
       48945000	      4893	80002f70	0181de33	srl	x28,x3,x24	  x3:0x00000000 x24:0x00000000 x28=0x00000000
       48955000	      4894	80002f74	00925793	srli	x15,x4,0x9	  x4:0x0000020c x15=0x00000001
       48965000	      4895	80002f78	34852393	slti	x7,x10,840	 x10:0x00000041  x7=0x00000001
       48975000	      4896	80002f7c	6c8d2a13	slti	x20,x26,1736	 x26:0x00000001 x20=0x00000001
       48985000	      4897	80002f80	29658513	addi	x10,x11,662	 x11:0x7fff6680 x10=0x7fff6916
       48995000	      4898	80002f84	41fed813	srai	x16,x29,0x1f	 x29:0xe44f4000 x16=0xffffffff
       49005000	      4899	80002f88	01347933	and	x18,x8,x19	  x8:0x80009888 x19:0x00000000 x18=0x00000000
       49015000	      4900	80002f8c	00000013	addi	x0,x0,0	  x0:0x00000000
       49025000	      4901	80002f90	00debeb3	sltu	x29,x29,x13	 x29:0xe44f4000 x13:0x80009f84 x29=0x00000000
       49035000	      4902	80002f94	009144b3	xor	x9,x2,x9	  x2:0x80009d63  x9:0x5dd59f50  x9=0xddd50233
       49045000	      4903	80002f98	01bc1333	sll	x6,x24,x27	 x24:0x00000000 x27:0x00000001  x6=0x00000000
       49055000	      4904	80002f9c	4108dfb3	sra	x31,x17,x16	 x17:0x002eeacf x16:0xffffffff x31=0x00000000
       49065000	      4905	80002fa0	002a7833	and	x16,x20,x2	 x20:0x00000001  x2:0x80009d63 x16=0x00000001
       49075000	      4906	80002fa4	01835f93	srli	x31,x6,0x18	  x6:0x00000000 x31=0x00000000
       49085000	      4907	80002fa8	6af08d13	addi	x26,x1,1711	  x1:0x80009b00 x26=0x8000a1af
       49095000	      4908	80002fac	01061f33	sll	x30,x12,x16	 x12:0xfffffd80 x16:0x00000001 x30=0xfffffb00
       49105000	      4909	80002fb0	d7c2c013	xori	x0,x5,-644	  x5:0x00000000
       49115000	      4910	80002fb4	004ed833	srl	x16,x29,x4	 x29:0x00000000  x4:0x0000020c x16=0x00000000
       49125000	      4911	80002fb8	418fa813	slti	x16,x31,1048	 x31:0x00000000 x16=0x00000001
       49135000	      4912	80002fbc	4091d633	sra	x12,x3,x9	  x3:0x00000000  x9:0xddd50233 x12=0x00000000
       49145000	      4913	80002fc0	01ccd313	srli	x6,x25,0x1c	 x25:0x80009f84  x6=0x00000008
       49155000	      4914	80002fc4	00f7de33	srl	x28,x15,x15	 x15:0x00000001 x15:0x00000001 x28=0x00000000
       49165000	      4915	80002fc8	00000013	addi	x0,x0,0	  x0:0x00000000
       49175000	      4916	80002fcc	00fd1463	bne	x26,x15,80002fd4	 x26:0x8000a1af x15:0x00000001
       49185000	      4917	00000000	00000013	addi	x0,x0,0	  x0:0x00000000
       49195000	      4918	80002fd0	00000013	addi	x0,x0,0	  x0:0x00000000
       49205000	      4919	80002fd4	41325013	srai	x0,x4,0x13	  x4:0x0000020c
       49215000	      4920	80002fd8	00f60463	beq	x12,x15,80002fe0	 x12:0x00000000 x15:0x00000001
       49225000	      4921	80002fdc	05a5e263	bltu	x11,x26,80003020	 x11:0x7fff6680 x26:0x8000a1af
       49235000	      4922	00000000	00000013	addi	x0,x0,0	  x0:0x00000000
       49245000	      4923	8000301c	00000013	addi	x0,x0,0	  x0:0x00000000
       49255000	      4924	80003020	781aef93	ori	x31,x21,1921	 x21:0x00000000 x31=0x00000781
       49265000	      4925	80003024	4048d8b3	sra	x17,x17,x4	 x17:0x002eeacf  x4:0x0000020c x17=0x000002ee
       49275000	      4926	80003028	03904663	blt	x0,x25,80003054	  x0:0x00000000 x25:0x80009f84
       49285000	      4927	8000302c	01596833	or	x16,x18,x21	 x18:0x00000000 x21:0x00000000 x16=0x00000000
       49295000	      4928	80003030	01fe7cb3	and	x25,x28,x31	 x28:0x00000000 x31:0x00000781 x25=0x00000000
       49305000	      4929	80003034	00125993	srli	x19,x4,0x1	  x4:0x0000020c x19=0x00000106
       49315000	      4930	80003038	042e4063	blt	x28,x2,80003078	 x28:0x00000000  x2:0x80009d63
       49325000	      4931	8000303c	c282b013	sltiu	x0,x5,-984	  x5:0x00000000
       49335000	      4932	80003040	a302c993	xori	x19,x5,-1488	  x5:0x00000000 x19=0xfffffa30
       49345000	      4933	80003044	28338d13	addi	x26,x7,643	  x7:0x00000001 x26=0x00000284
       49355000	      4934	80003048	01a2a133	slt	x2,x5,x26	  x5:0x00000000 x26:0x00000284  x2=0x00000001
       49365000	      4935	8000304c	41210633	sub	x12,x2,x18	  x2:0x00000001 x18:0x00000000 x12=0x00000001
       49375000	      4936	80003050	05988063	beq	x17,x25,80003090	 x17:0x000002ee x25:0x00000000
       49385000	      4937	80003054	00c827b3	slt	x15,x16,x12	 x16:0x00000000 x12:0x00000001 x15=0x00000001
       49395000	      4938	80003058	01365d33	srl	x26,x12,x19	 x12:0x00000001 x19:0xfffffa30 x26=0x00000000
       49405000	      4939	8000305c	017c8c33	add	x24,x25,x23	 x25:0x00000000 x23:0x00000001 x24=0x00000001
       49415000	      4940	80003060	97fa4793	xori	x15,x20,-1665	 x20:0x00000001 x15=0xfffff97e
       49425000	      4941	80003064	c9a2ae93	slti	x29,x5,-870	  x5:0x00000000 x29=0x00000000
       49435000	      4942	80003068	c01cca93	xori	x21,x25,-1023	 x25:0x00000000 x21=0xfffffc01
       49445000	      4943	8000306c	40715d13	srai	x26,x2,0x7	  x2:0x00000001 x26=0x00000000
       49455000	      4944	80003070	005e8d33	add	x26,x29,x5	 x29:0x00000000  x5:0x00000000 x26=0x00000000
       49465000	      4945	80003074	01dc2bb3	slt	x23,x24,x29	 x24:0x00000001 x29:0x00000000 x23=0x00000000
       49475000	      4946	80003078	3d7e2513	slti	x10,x28,983	 x28:0x00000000 x10=0x00000001
       49485000	      4947	8000307c	0091dbb3	srl	x23,x3,x9	  x3:0x00000000  x9:0xddd50233 x23=0x00000000
       49495000	      4948	80003080	a42db093	sltiu	x1,x27,-1470	 x27:0x00000001  x1=0x00000001
       49505000	      4949	80003084	042a4663	blt	x20,x2,800030d0	 x20:0x00000001  x2:0x00000001
       49515000	      4950	80003088	57966a17	auipc	x20,0x57966	 x20=0xd7969084
       49525000	      4951	8000308c	a1ce6b37	lui	x22,0xa1ce6	 x22=0xa1ce6000
       49535000	      4952	80003090	8fe1e613	ori	x12,x3,-1794	  x3:0x00000000 x12=0xfffff8fe
       49545000	      4953	80003094	017a9633	sll	x12,x21,x23	 x21:0xfffffc01 x23:0x00000000 x12=0xfffffc01
       49555000	      4954	80003098	df198593	addi	x11,x19,-527	 x19:0xfffffa30 x11=0xfffff821
       49565000	      4955	8000309c	b5b27793	andi	x15,x4,-1189	  x4:0x0000020c x15=0x00000208
       49575000	      4956	800030a0	31777313	andi	x6,x14,791	 x14:0x80009fc4  x6=0x00000304
       49585000	      4957	800030a4	33c34513	xori	x10,x6,828	  x6:0x00000304 x10=0x00000038
       49595000	      4958	800030a8	00167333	and	x6,x12,x1	 x12:0xfffffc01  x1:0x00000001  x6=0x00000001
       49605000	      4959	800030ac	d6def797	auipc	x15,0xd6def	 x15=0x56df20a8
       49615000	      4960	800030b0	00ca7db3	and	x27,x20,x12	 x20:0xd7969084 x12:0xfffffc01 x27=0xd7969000
       49625000	      4961	800030b4	031b2b93	slti	x23,x22,49	 x22:0xa1ce6000 x23=0x00000001
       49635000	      4962	800030b8	040bc863	blt	x23,x0,80003108	 x23:0x00000001  x0:0x00000000
       49645000	      4963	800030bc	7c781037	lui	x0,0x7c781	
       49655000	      4964	800030c0	593b2897	auipc	x17,0x593b2	 x17=0xd93b50bc
       49665000	      4965	800030c4	036cfe63	bgeu	x25,x22,80003100	 x25:0x00000000 x22:0xa1ce6000
       49675000	      4966	800030c8	31307e93	andi	x29,x0,787	  x0:0x00000000 x29=0x00000000
       49685000	      4967	800030cc	67c6a013	slti	x0,x13,1660	 x13:0x80009f84
       49695000	      4968	800030d0	009a2833	slt	x16,x20,x9	 x20:0xd7969084  x9:0xddd50233 x16=0x00000001
       49705000	      4969	800030d4	40400ab3	sub	x21,x0,x4	  x0:0x00000000  x4:0x0000020c x21=0xfffffdf4
       49715000	      4970	800030d8	00925ab3	srl	x21,x4,x9	  x4:0x0000020c  x9:0xddd50233 x21=0x00000000
       49725000	      4971	800030dc	003e7bb3	and	x23,x28,x3	 x28:0x00000000  x3:0x00000000 x23=0x00000000
       49735000	      4972	800030e0	04435463	bge	x6,x4,80003128	  x6:0x00000001  x4:0x0000020c
       49745000	      4973	800030e4	00000013	addi	x0,x0,0	  x0:0x00000000
       49755000	      4974	800030e8	01b21e93	slli	x29,x4,0x1b	  x4:0x0000020c x29=0x60000000
       49765000	      4975	800030ec	415b5fb3	sra	x31,x22,x21	 x22:0xa1ce6000 x21:0x00000000 x31=0xa1ce6000
       49775000	      4976	800030f0	0077b7b3	sltu	x15,x15,x7	 x15:0x56df20a8  x7:0x00000001 x15=0x00000000
       49785000	      4977	800030f4	00b8c463	blt	x17,x11,800030fc	 x17:0xd93b50bc x11:0xfffff821
       49795000	      4978	00000000	00000013	addi	x0,x0,0	  x0:0x00000000
       49805000	      4979	800030f8	00000013	addi	x0,x0,0	  x0:0x00000000
       49815000	      4980	800030fc	40255333	sra	x6,x10,x2	 x10:0x00000038  x2:0x00000001  x6=0x0000001c
       49825000	      4981	80003100	00f0e933	or	x18,x1,x15	  x1:0x00000001 x15:0x00000000 x18=0x00000001
       49835000	      4982	80003104	01905263	bge	x0,x25,80003108	  x0:0x00000000 x25:0x00000000
       49845000	      4983	00000000	00000013	addi	x0,x0,0	  x0:0x00000000
       49855000	      4984	80003104	00000013	addi	x0,x0,0	  x0:0x00000000
       49865000	      4985	80003108	0108e233	or	x4,x17,x16	 x17:0xd93b50bc x16:0x00000001  x4=0xd93b50bd
       49875000	      4986	8000310c	005759b3	srl	x19,x14,x5	 x14:0x80009fc4  x5:0x00000000 x19=0x80009fc4
       49885000	      4987	80003110	fdeab313	sltiu	x6,x21,-34	 x21:0x00000000  x6=0x00000001
       49895000	      4988	80003114	01d27c33	and	x24,x4,x29	  x4:0xd93b50bd x29:0x60000000 x24=0x40000000
       49905000	      4989	80003118	01a4d213	srli	x4,x9,0x1a	  x9:0xddd50233  x4=0x00000037
       49915000	      4990	8000311c	b2a63013	sltiu	x0,x12,-1238	 x12:0xfffffc01
       49925000	      4991	80003120	03221c63	bne	x4,x18,80003158	  x4:0x00000037 x18:0x00000001
       49935000	      4992	00000000	00000013	addi	x0,x0,0	  x0:0x00000000
       49945000	      4993	80003154	00000013	addi	x0,x0,0	  x0:0x00000000
       49955000	      4994	80003158	dafdeb17	auipc	x22,0xdafde	 x22=0x5afe1154
       49965000	      4995	8000315c	df3b6913	ori	x18,x22,-525	 x22:0x5afe1154 x18=0xfffffdf7
       49975000	      4996	80003160	8d73f497	auipc	x9,0x8d73f	  x9=0x0d74215c
       49985000	      4997	80003164	401f0633	sub	x12,x30,x1	 x30:0xfffffb00  x1:0x00000001 x12=0xfffffaff
       49995000	      4998	80003168	01c1fc63	bgeu	x3,x28,80003180	  x3:0x00000000 x28:0x00000000
       50005000	      4999	00000000	00000013	addi	x0,x0,0	  x0:0x00000000
       50015000	      5000	8000317c	00000013	addi	x0,x0,0	  x0:0x00000000
       50025000	      5001	80003180	41d98633	sub	x12,x19,x29	 x19:0x80009fc4 x29:0x60000000 x12=0x20009fc4
       50035000	      5002	80003184	0020b333	sltu	x6,x1,x2	  x1:0x00000001  x2:0x00000001  x6=0x00000000
       50045000	      5003	80003188	410d5433	sra	x8,x26,x16	 x26:0x00000000 x16:0x00000001  x8=0x00000000
       50055000	      5004	8000318c	40658433	sub	x8,x11,x6	 x11:0xfffff821  x6:0x00000000  x8=0xfffff821
       50065000	      5005	80003190	01b0dc13	srli	x24,x1,0x1b	  x1:0x00000001 x24=0x00000000
       50075000	      5006	80003194	4d452813	slti	x16,x10,1236	 x10:0x00000038 x16=0x00000001
       50085000	      5007	80003198	01adb433	sltu	x8,x27,x26	 x27:0xd7969000 x26:0x00000000  x8=0x00000000
       50095000	      5008	8000319c	01f9d3b3	srl	x7,x19,x31	 x19:0x80009fc4 x31:0xa1ce6000  x7=0x80009fc4
       50105000	      5009	800031a0	059be463	bltu	x23,x25,800031e8	 x23:0x00000000 x25:0x00000000
       50115000	      5010	800031a4	00362033	slt	x0,x12,x3	 x12:0x20009fc4  x3:0x00000000
       50125000	      5011	800031a8	01741a13	slli	x20,x8,0x17	  x8:0x00000000 x20=0x00000000
       50135000	      5012	800031ac	34bc5797	auipc	x15,0x34bc5	 x15=0xb4bc81a8
       50145000	      5013	800031b0	409fd633	sra	x12,x31,x9	 x31:0xa1ce6000  x9:0x0d74215c x12=0xfffffffa
       50155000	      5014	800031b4	253e7e13	andi	x28,x28,595	 x28:0x00000000 x28=0x00000000
       50165000	      5015	800031b8	010f1db3	sll	x27,x30,x16	 x30:0xfffffb00 x16:0x00000001 x27=0xfffff600
       50175000	      5016	800031bc	000b8863	beq	x23,x0,800031cc	 x23:0x00000000  x0:0x00000000
       50185000	      5017	00000000	00000013	addi	x0,x0,0	  x0:0x00000000
       50195000	      5018	800031c8	00000013	addi	x0,x0,0	  x0:0x00000000
       50205000	      5019	800031cc	01211ab3	sll	x21,x2,x18	  x2:0x00000001 x18:0xfffffdf7 x21=0x00800000
       50215000	      5020	800031d0	007c5463	bge	x24,x7,800031d8	 x24:0x00000000  x7:0x80009fc4
       50225000	      5021	00000000	00000013	addi	x0,x0,0	  x0:0x00000000
       50235000	      5022	800031d4	00000013	addi	x0,x0,0	  x0:0x00000000
       50245000	      5023	800031d8	40a00333	sub	x6,x0,x10	  x0:0x00000000 x10:0x00000038  x6=0xffffffc8
       50255000	      5024	800031dc	05f7e663	bltu	x15,x31,80003228	 x15:0xb4bc81a8 x31:0xa1ce6000
       50265000	      5025	800031e0	00568e63	beq	x13,x5,800031fc	 x13:0x80009f84  x5:0x00000000
       50275000	      5026	800031e4	05457063	bgeu	x10,x20,80003224	 x10:0x00000038 x20:0x00000000
       50285000	      5027	00000000	00000013	addi	x0,x0,0	  x0:0x00000000
       50295000	      5028	80003220	00000013	addi	x0,x0,0	  x0:0x00000000
       50305000	      5029	80003224	00c9f3b3	and	x7,x19,x12	 x19:0x80009fc4 x12:0xfffffffa  x7=0x80009fc0
       50315000	      5030	80003228	0112de63	bge	x5,x17,80003244	  x5:0x00000000 x17:0xd93b50bc
       50325000	      5031	00000000	00000013	addi	x0,x0,0	  x0:0x00000000
       50335000	      5032	80003240	00000013	addi	x0,x0,0	  x0:0x00000000
       50345000	      5033	80003244	016164b3	or	x9,x2,x22	  x2:0x00000001 x22:0x5afe1154  x9=0x5afe1155
       50355000	      5034	80003248	14abee13	ori	x28,x23,330	 x23:0x00000000 x28=0x0000014a
       50365000	      5035	8000324c	001b0463	beq	x22,x1,80003254	 x22:0x5afe1154  x1:0x00000001
       50375000	      5036	80003250	01f97333	and	x6,x18,x31	 x18:0xfffffdf7 x31:0xa1ce6000  x6=0xa1ce6000
       50385000	      5037	80003254	01d917b3	sll	x15,x18,x29	 x18:0xfffffdf7 x29:0x60000000 x15=0xfffffdf7
       50395000	      5038	80003258	40548f33	sub	x30,x9,x5	  x9:0x5afe1155  x5:0x00000000 x30=0x5afe1155
       50405000	      5039	8000325c	e454ef97	auipc	x31,0xe454e	 x31=0x64551258
       50415000	      5040	80003260	0104c133	xor	x2,x9,x16	  x9:0x5afe1155 x16:0x00000001  x2=0x5afe1154
       50425000	      5041	80003264	5c280893	addi	x17,x16,1474	 x16:0x00000001 x17=0x000005c3
       50435000	      5042	80003268	010839b3	sltu	x19,x16,x16	 x16:0x00000001 x16:0x00000001 x19=0x00000000
       50445000	      5043	8000326c	bde10637	lui	x12,0xbde10	 x12=0xbde10000
       50455000	      5044	80003270	40025c33	sra	x24,x4,x0	  x4:0x00000037  x0:0x00000000 x24=0x00000037
       50465000	      5045	80003274	009a8c33	add	x24,x21,x9	 x21:0x00800000  x9:0x5afe1155 x24=0x5b7e1155
       50475000	      5046	80003278	03275a63	bge	x14,x18,800032ac	 x14:0x80009fc4 x18:0xfffffdf7
       50485000	      5047	8000327c	03d25863	bge	x4,x29,800032ac	  x4:0x00000037 x29:0x60000000
       50495000	      5048	80003280	0a5ade37	lui	x28,0xa5ad	 x28=0x0a5ad000
       50505000	      5049	80003284	97d66f13	ori	x30,x12,-1667	 x12:0xbde10000 x30=0xfffff97d
       50515000	      5050	80003288	041f1863	bne	x30,x1,800032d8	 x30:0xfffff97d  x1:0x00000001
       50525000	      5051	00000000	00000013	addi	x0,x0,0	  x0:0x00000000
       50535000	      5052	800032d4	00000013	addi	x0,x0,0	  x0:0x00000000
       50545000	      5053	800032d8	d16ef613	andi	x12,x29,-746	 x29:0x60000000 x12=0x60000000
       50555000	      5054	800032dc	bf6caf13	slti	x30,x25,-1034	 x25:0x00000000 x30=0x00000000
       50565000	      5055	800032e0	002750b3	srl	x1,x14,x2	 x14:0x80009fc4  x2:0x5afe1154  x1=0x00000800
       50575000	      5056	800032e4	c1b82013	slti	x0,x16,-997	 x16:0x00000001
       50585000	      5057	800032e8	00000013	addi	x0,x0,0	  x0:0x00000000
       50595000	      5058	800032ec	00a550b3	srl	x1,x10,x10	 x10:0x00000038 x10:0x00000038  x1=0x00000000
       50605000	      5059	800032f0	01ae4c33	xor	x24,x28,x26	 x28:0x0a5ad000 x26:0x00000000 x24=0x0a5ad000
       50615000	      5060	800032f4	0184f263	bgeu	x9,x24,800032f8	  x9:0x5afe1155 x24:0x0a5ad000
       50625000	      5061	00000000	00000013	addi	x0,x0,0	  x0:0x00000000
       50635000	      5062	800032f4	00000013	addi	x0,x0,0	  x0:0x00000000
       50645000	      5063	800032f8	3b382393	slti	x7,x16,947	 x16:0x00000001  x7=0x00000001
       50655000	      5064	800032fc	00000013	addi	x0,x0,0	  x0:0x00000000
       50665000	      5065	80003300	01945413	srli	x8,x8,0x19	  x8:0x00000000  x8=0x00000000
       50675000	      5066	80003304	0012fcb3	and	x25,x5,x1	  x5:0x00000000  x1:0x00000000 x25=0x00000000
       50685000	      5067	80003308	e92a4613	xori	x12,x20,-366	 x20:0x00000000 x12=0xfffffe92
       50695000	      5068	8000330c	00806463	bltu	x0,x8,80003314	  x0:0x00000000  x8:0x00000000
       50705000	      5069	80003310	057d9063	bne	x27,x23,80003350	 x27:0xfffff600 x23:0x00000000
       50715000	      5070	00000000	00000013	addi	x0,x0,0	  x0:0x00000000
       50725000	      5071	8000334c	00000013	addi	x0,x0,0	  x0:0x00000000
       50735000	      5072	80003350	406d5d13	srai	x26,x26,0x6	 x26:0x00000000 x26=0x00000000
       50745000	      5073	80003354	005277b3	and	x15,x4,x5	  x4:0x00000037  x5:0x00000000 x15=0x00000000
       50755000	      5074	80003358	01a053b3	srl	x7,x0,x26	  x0:0x00000000 x26:0x00000000  x7=0x00000000
       50765000	      5075	8000335c	01849863	bne	x9,x24,8000336c	  x9:0x5afe1155 x24:0x0a5ad000
       50775000	      5076	00000000	00000013	addi	x0,x0,0	  x0:0x00000000
       50785000	      5077	80003368	00000013	addi	x0,x0,0	  x0:0x00000000
       50795000	      5078	8000336c	01fce533	or	x10,x25,x31	 x25:0x00000000 x31:0x64551258 x10=0x64551258
       50805000	      5079	80003370	c9437437	lui	x8,0xc9437	  x8=0xc9437000
       50815000	      5080	80003374	012aa7b3	slt	x15,x21,x18	 x21:0x00800000 x18:0xfffffdf7 x15=0x00000000
       50825000	      5081	80003378	00690cb3	add	x25,x18,x6	 x18:0xfffffdf7  x6:0xa1ce6000 x25=0xa1ce5df7
       50835000	      5082	8000337c	019c0ab3	add	x21,x24,x25	 x24:0x0a5ad000 x25:0xa1ce5df7 x21=0xac292df7
       50845000	      5083	80003380	009f2a33	slt	x20,x30,x9	 x30:0x00000000  x9:0x5afe1155 x20=0x00000001
       50855000	      5084	80003384	f0a4e813	ori	x16,x9,-246	  x9:0x5afe1155 x16=0xffffff5f
       50865000	      5085	80003388	41328bb3	sub	x23,x5,x19	  x5:0x00000000 x19:0x00000000 x23=0x00000000
       50875000	      5086	8000338c	015b50b3	srl	x1,x22,x21	 x22:0x5afe1154 x21:0xac292df7  x1=0x000000b5
       50885000	      5087	80003390	ef90eeb7	lui	x29,0xef90e	 x29=0xef90e000
       50895000	      5088	80003394	02505663	bge	x0,x5,800033c0	  x0:0x00000000  x5:0x00000000
       50905000	      5089	00000000	00000013	addi	x0,x0,0	  x0:0x00000000
       50915000	      5090	800033bc	00000013	addi	x0,x0,0	  x0:0x00000000
       50925000	      5091	800033c0	0083f033	and	x0,x7,x8	  x7:0x00000000  x8:0xc9437000
       50935000	      5092	800033c4	b1098013	addi	x0,x19,-1264	 x19:0x00000000
       50945000	      5093	800033c8	774e3113	sltiu	x2,x28,1908	 x28:0x0a5ad000  x2=0x00000000
       50955000	      5094	800033cc	05e55263	bge	x10,x30,80003410	 x10:0x64551258 x30:0x00000000
       50965000	      5095	00000000	00000013	addi	x0,x0,0	  x0:0x00000000
       50975000	      5096	8000340c	00000013	addi	x0,x0,0	  x0:0x00000000
       50985000	      5097	80003410	2e562913	slti	x18,x12,741	 x12:0xfffffe92 x18=0x00000001
       50995000	      5098	80003414	03476663	bltu	x14,x20,80003440	 x14:0x80009fc4 x20:0x00000001
       51005000	      5099	80003418	5433c413	xori	x8,x7,1347	  x7:0x00000000  x8=0x00000543
       51015000	      5100	8000341c	01fcb133	sltu	x2,x25,x31	 x25:0xa1ce5df7 x31:0x64551258  x2=0x00000000
       51025000	      5101	80003420	3a1b0513	addi	x10,x22,929	 x22:0x5afe1154 x10=0x5afe14f5
       51035000	      5102	80003424	412c8bb3	sub	x23,x25,x18	 x25:0xa1ce5df7 x18:0x00000001 x23=0xa1ce5df6
       51045000	      5103	80003428	6ec18d13	addi	x26,x3,1772	  x3:0x00000000 x26=0x000006ec
       51055000	      5104	8000342c	002eaf33	slt	x30,x29,x2	 x29:0xef90e000  x2:0x00000000 x30=0x00000001
       51065000	      5105	80003430	c0b8e913	ori	x18,x17,-1013	 x17:0x000005c3 x18=0xfffffdcb
       51075000	      5106	80003434	01adf0b3	and	x1,x27,x26	 x27:0xfffff600 x26:0x000006ec  x1=0x00000600
       51085000	      5107	80003438	00000013	addi	x0,x0,0	  x0:0x00000000
       51095000	      5108	8000343c	0129d333	srl	x6,x19,x18	 x19:0x00000000 x18:0xfffffdcb  x6=0x00000000
       51105000	      5109	80003440	00b92b33	slt	x22,x18,x11	 x18:0xfffffdcb x11:0xfffff821 x22=0x00000000
       51115000	      5110	80003444	00639bb3	sll	x23,x7,x6	  x7:0x00000000  x6:0x00000000 x23=0x00000000
       51125000	      5111	80003448	013b1993	slli	x19,x22,0x13	 x22:0x00000000 x19=0x00000000
       51135000	      5112	8000344c	59e30a93	addi	x21,x6,1438	  x6:0x00000000 x21=0x0000059e
       51145000	      5113	80003450	37cf5997	auipc	x19,0x37cf5	 x19=0xb7cf844c
       51155000	      5114	80003454	05e35063	bge	x6,x30,80003494	  x6:0x00000000 x30:0x00000001
       51165000	      5115	80003458	019131b3	sltu	x3,x2,x25	  x2:0x00000000 x25:0xa1ce5df7  x3=0x00000001
       51175000	      5116	8000345c	41c053b3	sra	x7,x0,x28	  x0:0x00000000 x28:0x0a5ad000  x7=0x00000000
       51185000	      5117	80003460	dd5e0193	addi	x3,x28,-555	 x28:0x0a5ad000  x3=0x0a5acdd5
       51195000	      5118	80003464	415a5b93	srai	x23,x20,0x15	 x20:0x00000001 x23=0x00000000
       51205000	      5119	80003468	04fd6863	bltu	x26,x15,800034b8	 x26:0x000006ec x15:0x00000000
       51215000	      5120	8000346c	41ffdbb3	sra	x23,x31,x31	 x31:0x64551258 x31:0x64551258 x23=0x00000064
       51225000	      5121	80003470	40acda13	srai	x20,x25,0xa	 x25:0xa1ce5df7 x20=0xffe87397
       51235000	      5122	80003474	0131c833	xor	x16,x3,x19	  x3:0x0a5acdd5 x19:0xb7cf844c x16=0xbd954999
       51245000	      5123	80003478	415255b3	sra	x11,x4,x21	  x4:0x00000037 x21:0x0000059e x11=0x00000000
       51255000	      5124	8000347c	00e6ec63	bltu	x13,x14,80003494	 x13:0x80009f84 x14:0x80009fc4
       51265000	      5125	00000000	00000013	addi	x0,x0,0	  x0:0x00000000
       51275000	      5126	80003490	00000013	addi	x0,x0,0	  x0:0x00000000
       51285000	      5127	80003494	00e34463	blt	x6,x14,8000349c	  x6:0x00000000 x14:0x80009fc4
       51295000	      5128	80003498	8179f613	andi	x12,x19,-2025	 x19:0xb7cf844c x12=0xb7cf8004
       51305000	      5129	8000349c	006cd933	srl	x18,x25,x6	 x25:0xa1ce5df7  x6:0x00000000 x18=0xa1ce5df7
       51315000	      5130	800034a0	0520c663	blt	x1,x18,800034ec	  x1:0x00000600 x18:0xa1ce5df7
       51325000	      5131	800034a4	415e8033	sub	x0,x29,x21	 x29:0xef90e000 x21:0x0000059e
       51335000	      5132	800034a8	016c6933	or	x18,x24,x22	 x24:0x0a5ad000 x22:0x00000000 x18=0x0a5ad000
       51345000	      5133	800034ac	69e7bf13	sltiu	x30,x15,1694	 x15:0x00000000 x30=0x00000001
       51355000	      5134	800034b0	044de263	bltu	x27,x4,800034f4	 x27:0xfffff600  x4:0x00000037
       51365000	      5135	800034b4	525dc337	lui	x6,0x525dc	  x6=0x525dc000
       51375000	      5136	800034b8	00035b93	srli	x23,x6,0x0	  x6:0x525dc000 x23=0x525dc000
       51385000	      5137	800034bc	d5696437	lui	x8,0xd5696	  x8=0xd5696000
       51395000	      5138	800034c0	ae06b137	lui	x2,0xae06b	  x2=0xae06b000
       51405000	      5139	800034c4	e8ca8313	addi	x6,x21,-372	 x21:0x0000059e  x6=0x0000042a
       51415000	      5140	800034c8	01fdf863	bgeu	x27,x31,800034d8	 x27:0xfffff600 x31:0x64551258
       51425000	      5141	00000000	00000013	addi	x0,x0,0	  x0:0x00000000
       51435000	      5142	800034d4	00000013	addi	x0,x0,0	  x0:0x00000000
       51445000	      5143	800034d8	008289b3	add	x19,x5,x8	  x5:0x00000000  x8:0xd5696000 x19=0xd5696000
       51455000	      5144	800034dc	000f9313	slli	x6,x31,0x0	 x31:0x64551258  x6=0x64551258
       51465000	      5145	800034e0	04b4c063	blt	x9,x11,80003520	  x9:0x5afe1155 x11:0x00000000
       51475000	      5146	800034e4	014d88b3	add	x17,x27,x20	 x27:0xfffff600 x20:0xffe87397 x17=0xffe86997
       51485000	      5147	800034e8	00ca1493	slli	x9,x20,0xc	 x20:0xffe87397  x9=0x87397000
       51495000	      5148	800034ec	d4c7d497	auipc	x9,0xd4c7d	  x9=0x54c804e8
       51505000	      5149	800034f0	017f8a63	beq	x31,x23,80003504	 x31:0x64551258 x23:0x525dc000
       51515000	      5150	800034f4	b1e88313	addi	x6,x17,-1250	 x17:0xffe86997  x6=0xffe864b5
       51525000	      5151	800034f8	0055a7b3	slt	x15,x11,x5	 x11:0x00000000  x5:0x00000000 x15=0x00000000
       51535000	      5152	800034fc	01bc5f13	srli	x30,x24,0x1b	 x24:0x0a5ad000 x30=0x00000001
       51545000	      5153	80003500	012ee0b3	or	x1,x29,x18	 x29:0xef90e000 x18:0x0a5ad000  x1=0xefdaf000
       51555000	      5154	80003504	71b34813	xori	x16,x6,1819	  x6:0xffe864b5 x16=0xffe863ae
       51565000	      5155	80003508	02f05a63	bge	x0,x15,8000353c	  x0:0x00000000 x15:0x00000000
       51575000	      5156	00000000	00000013	addi	x0,x0,0	  x0:0x00000000
       51585000	      5157	80003538	00000013	addi	x0,x0,0	  x0:0x00000000
       51595000	      5158	8000353c	00d4b4b3	sltu	x9,x9,x13	  x9:0x54c804e8 x13:0x80009f84  x9=0x00000001
       51605000	      5159	80003540	00000013	addi	x0,x0,0	  x0:0x00000000
       51615000	      5160	80003544	01195db3	srl	x27,x18,x17	 x18:0x0a5ad000 x17:0xffe86997 x27=0x00000014
       51625000	      5161	80003548	00c25633	srl	x12,x4,x12	  x4:0x00000037 x12:0xb7cf8004 x12=0x00000003
       51635000	      5162	8000354c	01fc0863	beq	x24,x31,8000355c	 x24:0x0a5ad000 x31:0x64551258
       51645000	      5163	80003550	024f1c63	bne	x30,x4,80003588	 x30:0x00000001  x4:0x00000037
       51655000	      5164	00000000	00000013	addi	x0,x0,0	  x0:0x00000000
       51665000	      5165	80003584	00000013	addi	x0,x0,0	  x0:0x00000000
       51675000	      5166	80003588	81830c13	addi	x24,x6,-2024	  x6:0xffe864b5 x24=0xffe85ccd
       51685000	      5167	8000358c	305cb193	sltiu	x3,x25,773	 x25:0xa1ce5df7  x3=0x00000000
       51695000	      5168	80003590	002504b3	add	x9,x10,x2	 x10:0x5afe14f5  x2:0xae06b000  x9=0x0904c4f5
       51705000	      5169	80003594	583b0993	addi	x19,x22,1411	 x22:0x00000000 x19=0x00000583
       51715000	      5170	80003598	0131c1b3	xor	x3,x3,x19	  x3:0x00000000 x19:0x00000583  x3=0x00000583
       51725000	      5171	8000359c	ec87b093	sltiu	x1,x15,-312	 x15:0x00000000  x1=0x00000001
       51735000	      5172	800035a0	0045a933	slt	x18,x11,x4	 x11:0x00000000  x4:0x00000037 x18=0x00000001
       51745000	      5173	800035a4	009d5463	bge	x26,x9,800035ac	 x26:0x000006ec  x9:0x0904c4f5
       51755000	      5174	800035a8	0e1d8f13	addi	x30,x27,225	 x27:0x00000014 x30=0x000000f5
       51765000	      5175	800035ac	01721a13	slli	x20,x4,0x17	  x4:0x00000037 x20=0x1b800000
       51775000	      5176	800035b0	05911063	bne	x2,x25,800035f0	  x2:0xae06b000 x25:0xa1ce5df7
       51785000	      5177	00000000	00000013	addi	x0,x0,0	  x0:0x00000000
       51795000	      5178	800035ec	00000013	addi	x0,x0,0	  x0:0x00000000
       51805000	      5179	800035f0	0028ac33	slt	x24,x17,x2	 x17:0xffe86997  x2:0xae06b000 x24=0x00000000
       51815000	      5180	800035f4	939415b7	lui	x11,0x93941	 x11=0x93941000
       51825000	      5181	800035f8	00176633	or	x12,x14,x1	 x14:0x80009fc4  x1:0x00000001 x12=0x80009fc5
       51835000	      5182	800035fc	fc253e93	sltiu	x29,x10,-62	 x10:0x5afe14f5 x29=0x00000001
       51845000	      5183	80003600	00d51133	sll	x2,x10,x13	 x10:0x5afe14f5 x13:0x80009f84  x2=0xafe14f50
       51855000	      5184	80003604	41dada93	srai	x21,x21,0x1d	 x21:0x0000059e x21=0x00000000
       51865000	      5185	80003608	57eb3897	auipc	x17,0x57eb3	 x17=0xd7eb6604
       51875000	      5186	8000360c	044b5863	bge	x22,x4,8000365c	 x22:0x00000000  x4:0x00000037
       51885000	      5187	80003610	03a7e863	bltu	x15,x26,80003640	 x15:0x00000000 x26:0x000006ec
       51895000	      5188	00000000	00000013	addi	x0,x0,0	  x0:0x00000000
       51905000	      5189	8000363c	00000013	addi	x0,x0,0	  x0:0x00000000
       51915000	      5190	80003640	00000013	addi	x0,x0,0	  x0:0x00000000
       51925000	      5191	80003644	9c9c7613	andi	x12,x24,-1591	 x24:0x00000000 x12=0x00000000
       51935000	      5192	80003648	5e817413	andi	x8,x2,1512	  x2:0xafe14f50  x8=0x00000540
       51945000	      5193	8000364c	0561c463	blt	x3,x22,80003694	  x3:0x00000583 x22:0x00000000
       51955000	      5194	80003650	01989213	slli	x4,x17,0x19	 x17:0xd7eb6604  x4=0x08000000
       51965000	      5195	80003654	00a9f463	bgeu	x19,x10,8000365c	 x19:0x00000583 x10:0x5afe14f5
       51975000	      5196	80003658	08038b37	lui	x22,0x8038	 x22=0x08038000
       51985000	      5197	8000365c	f99fe593	ori	x11,x31,-103	 x31:0x64551258 x11=0xffffffd9
       51995000	      5198	80003660	014de9b3	or	x19,x27,x20	 x27:0x00000014 x20:0x1b800000 x19=0x1b800014
       52005000	      5199	80003664	d64c3313	sltiu	x6,x24,-668	 x24:0x00000000  x6=0x00000001
       52015000	      5200	80003668	00cd6233	or	x4,x26,x12	 x26:0x000006ec x12:0x00000000  x4=0x000006ec
       52025000	      5201	8000366c	00e8a233	slt	x4,x17,x14	 x17:0xd7eb6604 x14:0x80009fc4  x4=0x00000000
       52035000	      5202	80003670	403bd433	sra	x8,x23,x3	 x23:0x525dc000  x3:0x00000583  x8=0x0a4bb800
       52045000	      5203	80003674	017cc433	xor	x8,x25,x23	 x25:0xa1ce5df7 x23:0x525dc000  x8=0xf3939df7
       52055000	      5204	80003678	01ebdcb3	srl	x25,x23,x30	 x23:0x525dc000 x30:0x000000f5 x25=0x00000292
       52065000	      5205	8000367c	40c3db13	srai	x22,x7,0xc	  x7:0x00000000 x22=0x00000000
       52075000	      5206	80003680	06d73213	sltiu	x4,x14,109	 x14:0x80009fc4  x4=0x00000000
       52085000	      5207	80003684	00550463	beq	x10,x5,8000368c	 x10:0x5afe14f5  x5:0x00000000
       52095000	      5208	80003688	00000013	addi	x0,x0,0	  x0:0x00000000
       52105000	      5209	8000368c	01e0edb3	or	x27,x1,x30	  x1:0x00000001 x30:0x000000f5 x27=0x000000f5
       52115000	      5210	80003690	00000013	addi	x0,x0,0	  x0:0x00000000
       52125000	      5211	80003694	033dde63	bge	x27,x19,800036d0	 x27:0x000000f5 x19:0x1b800014
       52135000	      5212	80003698	013b99b3	sll	x19,x23,x19	 x23:0x525dc000 x19:0x1b800014 x19=0x00000000
       52145000	      5213	8000369c	413cd393	srai	x7,x25,0x13	 x25:0x00000292  x7=0x00000000
       52155000	      5214	800036a0	0119ce63	blt	x19,x17,800036bc	 x19:0x00000000 x17:0xd7eb6604
       52165000	      5215	800036a4	8de8a137	lui	x2,0x8de8a	  x2=0x8de8a000
       52175000	      5216	800036a8	01e62b33	slt	x22,x12,x30	 x12:0x00000000 x30:0x000000f5 x22=0x00000001
       52185000	      5217	800036ac	01cda9b3	slt	x19,x27,x28	 x27:0x000000f5 x28:0x0a5ad000 x19=0x00000001
       52195000	      5218	800036b0	01eb2ab3	slt	x21,x22,x30	 x22:0x00000001 x30:0x000000f5 x21=0x00000001
       52205000	      5219	800036b4	01dc3433	sltu	x8,x24,x29	 x24:0x00000000 x29:0x00000001  x8=0x00000001
       52215000	      5220	800036b8	0041a3b3	slt	x7,x3,x4	  x3:0x00000583  x4:0x00000000  x7=0x00000000
       52225000	      5221	800036bc	41c3d913	srai	x18,x7,0x1c	  x7:0x00000000 x18=0x00000000
       52235000	      5222	800036c0	01f27833	and	x16,x4,x31	  x4:0x00000000 x31:0x64551258 x16=0x00000000
       52245000	      5223	800036c4	41f08f33	sub	x30,x1,x31	  x1:0x00000001 x31:0x64551258 x30=0x9baaeda9
       52255000	      5224	800036c8	01780a33	add	x20,x16,x23	 x16:0x00000000 x23:0x525dc000 x20=0x525dc000
       52265000	      5225	800036cc	00d99cb3	sll	x25,x19,x13	 x19:0x00000001 x13:0x80009f84 x25=0x00000010
       52275000	      5226	800036d0	00196833	or	x16,x18,x1	 x18:0x00000000  x1:0x00000001 x16=0x00000001
       52285000	      5227	800036d4	b801c5b7	lui	x11,0xb801c	 x11=0xb801c000
       52295000	      5228	800036d8	029e8063	beq	x29,x9,800036f8	 x29:0x00000001  x9:0x0904c4f5
       52305000	      5229	800036dc	00fcffb3	and	x31,x25,x15	 x25:0x00000010 x15:0x00000000 x31=0x00000000
       52315000	      5230	800036e0	41e6da93	srai	x21,x13,0x1e	 x13:0x80009f84 x21=0xfffffffe
       52325000	      5231	800036e4	14559437	lui	x8,0x14559	  x8=0x14559000
       52335000	      5232	800036e8	0007b9b3	sltu	x19,x15,x0	 x15:0x00000000  x0:0x00000000 x19=0x00000000
       52345000	      5233	800036ec	4179dd33	sra	x26,x19,x23	 x19:0x00000000 x23:0x525dc000 x26=0x00000000
       52355000	      5234	800036f0	00347033	and	x0,x8,x3	  x8:0x14559000  x3:0x00000583
       52365000	      5235	800036f4	027f6663	bltu	x30,x7,80003720	 x30:0x9baaeda9  x7:0x00000000
       52375000	      5236	800036f8	8603c913	xori	x18,x7,-1952	  x7:0x00000000 x18=0xfffff860
       52385000	      5237	800036fc	01106233	or	x4,x0,x17	  x0:0x00000000 x17:0xd7eb6604  x4=0xd7eb6604
       52395000	      5238	80003700	413fd513	srai	x10,x31,0x13	 x31:0x00000000 x10=0x00000000
       52405000	      5239	80003704	014a5f33	srl	x30,x20,x20	 x20:0x525dc000 x20:0x525dc000 x30=0x525dc000
       52415000	      5240	80003708	40e50cb3	sub	x25,x10,x14	 x10:0x00000000 x14:0x80009fc4 x25=0x7fff603c
       52425000	      5241	8000370c	0123d913	srli	x18,x7,0x12	  x7:0x00000000 x18=0x00000000
       52435000	      5242	80003710	050d1063	bne	x26,x16,80003750	 x26:0x00000000 x16:0x00000001
       52445000	      5243	00000000	00000013	addi	x0,x0,0	  x0:0x00000000
       52455000	      5244	8000374c	00000013	addi	x0,x0,0	  x0:0x00000000
       52465000	      5245	80003750	feb88e13	addi	x28,x17,-21	 x17:0xd7eb6604 x28=0xd7eb65ef
       52475000	      5246	80003754	00b6d593	srli	x11,x13,0xb	 x13:0x80009f84 x11=0x00100013
       52485000	      5247	80003758	00110263	beq	x2,x1,8000375c	  x2:0x8de8a000  x1:0x00000001
       52495000	      5248	8000375c	08456663	bltu	x10,x4,800037e8	 x10:0x00000000  x4:0xd7eb6604
       52505000	      5249	00000000	00000013	addi	x0,x0,0	  x0:0x00000000
       52515000	      5250	800037e4	00000013	addi	x0,x0,0	  x0:0x00000000
       52525000	      5251	800037e8	019131b3	sltu	x3,x2,x25	  x2:0x8de8a000 x25:0x7fff603c  x3=0x00000000
       52535000	      5252	800037ec	003c40b3	xor	x1,x24,x3	 x24:0x00000000  x3:0x00000000  x1=0x00000000
       52545000	      5253	800037f0	01187db3	and	x27,x16,x17	 x16:0x00000001 x17:0xd7eb6604 x27=0x00000000
       52555000	      5254	800037f4	0804c063	blt	x9,x0,80003874	  x9:0x0904c4f5  x0:0x00000000
       52565000	      5255	800037f8	abc02d93	slti	x27,x0,-1348	  x0:0x00000000 x27=0x00000000
       52575000	      5256	800037fc	0747ca63	blt	x15,x20,80003870	 x15:0x00000000 x20:0x525dc000
       52585000	      5257	00000000	00000013	addi	x0,x0,0	  x0:0x00000000
       52595000	      5258	8000386c	00000013	addi	x0,x0,0	  x0:0x00000000
       52605000	      5259	80003870	408f81b3	sub	x3,x31,x8	 x31:0x00000000  x8:0x14559000  x3=0xebaa7000
       52615000	      5260	80003874	00c66533	or	x10,x12,x12	 x12:0x00000000 x12:0x00000000 x10=0x00000000
       52625000	      5261	80003878	c545b613	sltiu	x12,x11,-940	 x11:0x00100013 x12=0x00000001
       52635000	      5262	8000387c	00000013	addi	x0,x0,0	  x0:0x00000000
       52645000	      5263	80003880	0136f833	and	x16,x13,x19	 x13:0x80009f84 x19:0x00000000 x16=0x00000000
       52655000	      5264	80003884	032f0063	beq	x30,x18,800038a4	 x30:0x525dc000 x18:0x00000000
       52665000	      5265	80003888	03391263	bne	x18,x19,800038ac	 x18:0x00000000 x19:0x00000000
       52675000	      5266	8000388c	002f5bb3	srl	x23,x30,x2	 x30:0x525dc000  x2:0x8de8a000 x23=0x525dc000
       52685000	      5267	80003890	40105433	sra	x8,x0,x1	  x0:0x00000000  x1:0x00000000  x8=0x00000000
       52695000	      5268	80003894	01589cb3	sll	x25,x17,x21	 x17:0xd7eb6604 x21:0xfffffffe x25=0x00000000
       52705000	      5269	80003898	0284c263	blt	x9,x8,800038bc	  x9:0x0904c4f5  x8:0x00000000
       52715000	      5270	8000389c	02408863	beq	x1,x4,800038cc	  x1:0x00000000  x4:0xd7eb6604
       52725000	      5271	800038a0	00dc0f33	add	x30,x24,x13	 x24:0x00000000 x13:0x80009f84 x30=0x80009f84
       52735000	      5272	800038a4	015a1913	slli	x18,x20,0x15	 x20:0x525dc000 x18=0x00000000
       52745000	      5273	800038a8	d87d4f13	xori	x30,x26,-633	 x26:0x00000000 x30=0xfffffd87
       52755000	      5274	800038ac	d207ab93	slti	x23,x15,-736	 x15:0x00000000 x23=0x00000000
       52765000	      5275	800038b0	26a37597	auipc	x11,0x26a37	 x11=0xa6a3a8ac
       52775000	      5276	800038b4	01635413	srli	x8,x6,0x16	  x6:0x00000001  x8=0x00000000
       52785000	      5277	800038b8	003527b3	slt	x15,x10,x3	 x10:0x00000000  x3:0xebaa7000 x15=0x00000000
       52795000	      5278	800038bc	018b7863	bgeu	x22,x24,800038cc	 x22:0x00000001 x24:0x00000000
       52805000	      5279	00000000	00000013	addi	x0,x0,0	  x0:0x00000000
       52815000	      5280	800038c8	00000013	addi	x0,x0,0	  x0:0x00000000
       52825000	      5281	800038cc	01efb133	sltu	x2,x31,x30	 x31:0x00000000 x30:0xfffffd87  x2=0x00000001
       52835000	      5282	800038d0	40e4d613	srai	x12,x9,0xe	  x9:0x0904c4f5 x12=0x00002413
       52845000	      5283	800038d4	0280036f	jal	x6,800038d4	  x6=0x800038d4
       52855000	      5284	00000000	00000013	addi	x0,x0,0	  x0:0x00000000
       52865000	      5285	800038f8	00000013	addi	x0,x0,0	  x0:0x00000000
       52875000	      5286	800038fc	020000ef	jal	x1,800038fc	  x1=0x800038fc
       52885000	      5287	00000000	00000013	addi	x0,x0,0	  x0:0x00000000
       52895000	      5288	80003918	00000013	addi	x0,x0,0	  x0:0x00000000
       52905000	      5289	8000391c	fedff46f	jal	x8,8000391c	  x8=0x8000391c
       52915000	      5290	00000000	00000013	addi	x0,x0,0	  x0:0x00000000
       52925000	      5291	80003904	00000013	addi	x0,x0,0	  x0:0x00000000
       52935000	      5292	80003908	ffdffeef	jal	x29,80003908	 x29=0x80003908
       52945000	      5293	00000000	00000013	addi	x0,x0,0	  x0:0x00000000
       52955000	      5294	80003900	00000013	addi	x0,x0,0	  x0:0x00000000
       52965000	      5295	80003904	0100036f	jal	x6,80003904	  x6=0x80003904
       52975000	      5296	00000000	00000013	addi	x0,x0,0	  x0:0x00000000
       52985000	      5297	80003910	00000013	addi	x0,x0,0	  x0:0x00000000
       52995000	      5298	80003914	fddff0ef	jal	x1,80003914	  x1=0x80003914
       53005000	      5299	00000000	00000013	addi	x0,x0,0	  x0:0x00000000
       53015000	      5300	800038ec	00000013	addi	x0,x0,0	  x0:0x00000000
       53025000	      5301	800038f0	0100036f	jal	x6,800038f0	  x6=0x800038f0
       53035000	      5302	00000000	00000013	addi	x0,x0,0	  x0:0x00000000
       53045000	      5303	800038fc	00000013	addi	x0,x0,0	  x0:0x00000000
       53055000	      5304	80003900	fddff0ef	jal	x1,80003900	  x1=0x80003900
       53065000	      5305	00000000	00000013	addi	x0,x0,0	  x0:0x00000000
       53075000	      5306	800038d8	00000013	addi	x0,x0,0	  x0:0x00000000
       53085000	      5307	800038dc	0100036f	jal	x6,800038dc	  x6=0x800038dc
       53095000	      5308	00000000	00000013	addi	x0,x0,0	  x0:0x00000000
       53105000	      5309	800038e8	00000013	addi	x0,x0,0	  x0:0x00000000
       53115000	      5310	800038ec	ff5ff0ef	jal	x1,800038ec	  x1=0x800038ec
       53125000	      5311	00000000	00000013	addi	x0,x0,0	  x0:0x00000000
       53135000	      5312	800038dc	00000013	addi	x0,x0,0	  x0:0x00000000
       53145000	      5313	800038e0	038004ef	jal	x9,800038e0	  x9=0x800038e0
       53155000	      5314	00000000	00000013	addi	x0,x0,0	  x0:0x00000000
       53165000	      5315	80003914	00000013	addi	x0,x0,0	  x0:0x00000000
       53175000	      5316	80003918	010000ef	jal	x1,80003918	  x1=0x80003918
       53185000	      5317	00000000	00000013	addi	x0,x0,0	  x0:0x00000000
       53195000	      5318	80003924	00000013	addi	x0,x0,0	  x0:0x00000000
       53205000	      5319	80003928	fc1ff66f	jal	x12,80003928	 x12=0x80003928
       53215000	      5320	00000000	00000013	addi	x0,x0,0	  x0:0x00000000
       53225000	      5321	800038e4	00000013	addi	x0,x0,0	  x0:0x00000000
       53235000	      5322	800038e8	0240016f	jal	x2,800038e8	  x2=0x800038e8
       53245000	      5323	00000000	00000013	addi	x0,x0,0	  x0:0x00000000
       53255000	      5324	80003908	00000013	addi	x0,x0,0	  x0:0x00000000
       53265000	      5325	8000390c	fcdff0ef	jal	x1,8000390c	  x1=0x8000390c
       53275000	      5326	00000000	00000013	addi	x0,x0,0	  x0:0x00000000
       53285000	      5327	800038d4	00000013	addi	x0,x0,0	  x0:0x00000000
       53295000	      5328	800038d8	0200036f	jal	x6,800038d8	  x6=0x800038d8
       53305000	      5329	00000000	00000013	addi	x0,x0,0	  x0:0x00000000
       53315000	      5330	800038f4	00000013	addi	x0,x0,0	  x0:0x00000000
       53325000	      5331	800038f8	ffdff0ef	jal	x1,800038f8	  x1=0x800038f8
       53335000	      5332	00000000	00000013	addi	x0,x0,0	  x0:0x00000000
       53345000	      5333	800038f0	00000013	addi	x0,x0,0	  x0:0x00000000
       53355000	      5334	800038f4	01c000ef	jal	x1,800038f4	  x1=0x800038f4
       53365000	      5335	00000000	00000013	addi	x0,x0,0	  x0:0x00000000
       53375000	      5336	8000390c	00000013	addi	x0,x0,0	  x0:0x00000000
       53385000	      5337	80003910	fd5ff16f	jal	x2,80003910	  x2=0x80003910
       53395000	      5338	00000000	00000013	addi	x0,x0,0	  x0:0x00000000
       53405000	      5339	800038e0	00000013	addi	x0,x0,0	  x0:0x00000000
       53415000	      5340	800038e4	048000ef	jal	x1,800038e4	  x1=0x800038e4
       53425000	      5341	00000000	00000013	addi	x0,x0,0	  x0:0x00000000
       53435000	      5342	80003928	00000013	addi	x0,x0,0	  x0:0x00000000
       53445000	      5343	8000392c	ff9ff36f	jal	x6,8000392c	  x6=0x8000392c
       53455000	      5344	00000000	00000013	addi	x0,x0,0	  x0:0x00000000
       53465000	      5345	80003920	00000013	addi	x0,x0,0	  x0:0x00000000
       53475000	      5346	80003924	ffdff0ef	jal	x1,80003924	  x1=0x80003924
       53485000	      5347	00000000	00000013	addi	x0,x0,0	  x0:0x00000000
       53495000	      5348	8000391c	00000013	addi	x0,x0,0	  x0:0x00000000
       53505000	      5349	80003920	010000ef	jal	x1,80003920	  x1=0x80003920
       53515000	      5350	00000000	00000013	addi	x0,x0,0	  x0:0x00000000
       53525000	      5351	8000392c	00000013	addi	x0,x0,0	  x0:0x00000000
       53535000	      5352	80003930	410480b3	sub	x1,x9,x16	  x9:0x800038e0 x16:0x00000000  x1=0x800038e0
       53545000	      5353	80003934	014b57b3	srl	x15,x22,x20	 x22:0x00000001 x20:0x525dc000 x15=0x00000001
       53555000	      5354	80003938	76666793	ori	x15,x12,1894	 x12:0x80003928 x15=0x80003f6e
       53565000	      5355	8000393c	7840fc13	andi	x24,x1,1924	  x1:0x800038e0 x24=0x00000080
       53575000	      5356	80003940	00b45463	bge	x8,x11,80003948	  x8:0x8000391c x11:0xa6a3a8ac
       53585000	      5357	80003944	02e0fa63	bgeu	x1,x14,80003978	  x1:0x800038e0 x14:0x80009fc4
       53595000	      5358	80003948	162b4fb7	lui	x31,0x162b4	 x31=0x162b4000
       53605000	      5359	8000394c	01bc1263	bne	x24,x27,80003950	 x24:0x00000080 x27:0x00000000
       53615000	      5360	00000000	00000013	addi	x0,x0,0	  x0:0x00000000
       53625000	      5361	8000394c	00000013	addi	x0,x0,0	  x0:0x00000000
       53635000	      5362	80003950	5ad83b93	sltiu	x23,x16,1453	 x16:0x00000000 x23=0x00000001
       53645000	      5363	80003954	02bcf063	bgeu	x25,x11,80003974	 x25:0x00000000 x11:0xa6a3a8ac
       53655000	      5364	80003958	00746433	or	x8,x8,x7	  x8:0x8000391c  x7:0x00000000  x8=0x8000391c
       53665000	      5365	8000395c	01607c33	and	x24,x0,x22	  x0:0x00000000 x22:0x00000001 x24=0x00000000
       53675000	      5366	80003960	1173cc93	xori	x25,x7,279	  x7:0x00000000 x25=0x00000117
       53685000	      5367	80003964	00833eb3	sltu	x29,x6,x8	  x6:0x8000392c  x8:0x8000391c x29=0x00000000
       53695000	      5368	80003968	dfc53a97	auipc	x21,0xdfc53	 x21=0x5fc56964
       53705000	      5369	8000396c	01912533	slt	x10,x2,x25	  x2:0x80003910 x25:0x00000117 x10=0x00000001
       53715000	      5370	80003970	40d35193	srai	x3,x6,0xd	  x6:0x8000392c  x3=0xfffc0001
       53725000	      5371	80003974	4129d333	sra	x6,x19,x18	 x19:0x00000000 x18:0x00000000  x6=0x00000000
       53735000	      5372	80003978	40105f13	srai	x30,x0,0x1	  x0:0x00000000 x30=0x00000000
       53745000	      5373	8000397c	40fb5d93	srai	x27,x22,0xf	 x22:0x00000001 x27=0x00000000
       53755000	      5374	80003980	5d977913	andi	x18,x14,1497	 x14:0x80009fc4 x18=0x000005c0
       53765000	      5375	80003984	a8b8ea37	lui	x20,0xa8b8e	 x20=0xa8b8e000
       53775000	      5376	80003988	01434933	xor	x18,x6,x20	  x6:0x00000000 x20:0xa8b8e000 x18=0xa8b8e000
       53785000	      5377	8000398c	00782233	slt	x4,x16,x7	 x16:0x00000000  x7:0x00000000  x4=0x00000000
       53795000	      5378	80003990	002e1463	bne	x28,x2,80003998	 x28:0xd7eb65ef  x2:0x80003910
       53805000	      5379	00000000	00000013	addi	x0,x0,0	  x0:0x00000000
       53815000	      5380	80003994	00000013	addi	x0,x0,0	  x0:0x00000000
       53825000	      5381	80003998	01c85433	srl	x8,x16,x28	 x16:0x00000000 x28:0xd7eb65ef  x8=0x00000000
       53835000	      5382	8000399c	020c0663	beq	x24,x0,800039c8	 x24:0x00000000  x0:0x00000000
       53845000	      5383	00000000	00000013	addi	x0,x0,0	  x0:0x00000000
       53855000	      5384	800039c4	00000013	addi	x0,x0,0	  x0:0x00000000
       53865000	      5385	800039c8	3336f913	andi	x18,x13,819	 x13:0x80009f84 x18=0x00000300
       53875000	      5386	800039cc	0310f663	bgeu	x1,x17,800039f8	  x1:0x800038e0 x17:0xd7eb6604
       53885000	      5387	800039d0	01a77833	and	x16,x14,x26	 x14:0x80009fc4 x26:0x00000000 x16=0x00000000
       53895000	      5388	800039d4	010b60b3	or	x1,x22,x16	 x22:0x00000001 x16:0x00000000  x1=0x00000001
       53905000	      5389	800039d8	01f40333	add	x6,x8,x31	  x8:0x00000000 x31:0x162b4000  x6=0x162b4000
       53915000	      5390	800039dc	41985cb3	sra	x25,x16,x25	 x16:0x00000000 x25:0x00000117 x25=0x00000000
       53925000	      5391	800039e0	400407b3	sub	x15,x8,x0	  x8:0x00000000  x0:0x00000000 x15=0x00000000
       53935000	      5392	800039e4	a6efbb93	sltiu	x23,x31,-1426	 x31:0x162b4000 x23=0x00000001
       53945000	      5393	800039e8	c073cc13	xori	x24,x7,-1017	  x7:0x00000000 x24=0xfffffc07
       53955000	      5394	800039ec	00d31013	slli	x0,x6,0xd	  x6:0x162b4000
       53965000	      5395	800039f0	e3178593	addi	x11,x15,-463	 x15:0x00000000 x11=0xfffffe31
       53975000	      5396	800039f4	01c00333	add	x6,x0,x28	  x0:0x00000000 x28:0xd7eb65ef  x6=0xd7eb65ef
       53985000	      5397	800039f8	409edb33	sra	x22,x29,x9	 x29:0x00000000  x9:0x800038e0 x22=0x00000000
       53995000	      5398	800039fc	01d39833	sll	x16,x7,x29	  x7:0x00000000 x29:0x00000000 x16=0x00000000
       54005000	      5399	80003a00	0133c7b3	xor	x15,x7,x19	  x7:0x00000000 x19:0x00000000 x15=0x00000000
       54015000	      5400	80003a04	5e630193	addi	x3,x6,1510	  x6:0xd7eb65ef  x3=0xd7eb6bd5
       54025000	      5401	80003a08	04a37663	bgeu	x6,x10,80003a54	  x6:0xd7eb65ef x10:0x00000001
       54035000	      5402	00000000	00000013	addi	x0,x0,0	  x0:0x00000000
       54045000	      5403	80003a50	00000013	addi	x0,x0,0	  x0:0x00000000
       54055000	      5404	80003a54	642f8b13	addi	x22,x31,1602	 x31:0x162b4000 x22=0x162b4642
       54065000	      5405	80003a58	014f9193	slli	x3,x31,0x14	 x31:0x162b4000  x3=0x00000000
       54075000	      5406	80003a5c	00000013	addi	x0,x0,0	  x0:0x00000000
       54085000	      5407	80003a60	02b8f063	bgeu	x17,x11,80003a80	 x17:0xd7eb6604 x11:0xfffffe31
       54095000	      5408	80003a64	00000013	addi	x0,x0,0	  x0:0x00000000
       54105000	      5409	80003a68	0135ac93	slti	x25,x11,19	 x11:0xfffffe31 x25=0x00000001
       54115000	      5410	80003a6c	01685893	srli	x17,x16,0x16	 x16:0x00000000 x17=0x00000000
       54125000	      5411	80003a70	01e5da33	srl	x20,x11,x30	 x11:0xfffffe31 x30:0x00000000 x20=0xfffffe31
       54135000	      5412	80003a74	40d95b33	sra	x22,x18,x13	 x18:0x00000300 x13:0x80009f84 x22=0x00000030
       54145000	      5413	80003a78	52def537	lui	x10,0x52def	 x10=0x52def000
       54155000	      5414	80003a7c	0ffc35b7	lui	x11,0xffc3	 x11=0x0ffc3000
       54165000	      5415	80003a80	41245813	srai	x16,x8,0x12	  x8:0x00000000 x16=0x00000000
       54175000	      5416	80003a84	00000297	auipc	x5,0x0	  x5=0x80003a80
       54185000	      5417	80003a88	00c28293	addi	x5,x5,12	  x5:0x80003a80  x5=0x80003a8c
       54195000	      5418	80003a8c	00028067	jalr	x0,x5,0	  x5:0x80003a8c
       54205000	      5419	00000000	00000013	addi	x0,x0,0	  x0:0x00000000
       54215000	      5420	80003a8c	00000013	addi	x0,x0,0	  x0:0x00000000
       54225000	      5421	80003a90	00100193	addi	x3,x0,1	  x0:0x00000000  x3=0x00000001
       54235000	      5422	80003a94	00000073	ecall	
       54245000	      5423	80003a98	66a67113	andi	x2,x12,1642	 x12:0x80003928  x2=0x00000028
