		Time			Cycle	PC		Insn	Decoded instruction	Register and memory contents
          65000	         5	80000004	00000293	addi	x5,x0,0	  x0:0x00000000  x5=0x00000000
          75000	         6	80000008	00000313	addi	x6,x0,0	  x0:0x00000000  x6=0x00000000
          85000	         7	8000000c	00628263	beq	x5,x6,80000010	  x5:0x00000000  x6:0x00000000
          95000	         8	00000000	00000013	addi	x0,x0,0	  x0:0x00000000
         105000	         9	8000000c	00000013	addi	x0,x0,0	  x0:0x00000000
         115000	        10	80000010	00000e97	auipc	x29,0x0	 x29=0x8000000c
         125000	        11	80000014	00ce8e93	addi	x29,x29,12	 x29:0x8000000c x29=0x80000018
         135000	        12	80000018	000e8067	jalr	x0,x29,0	 x29:0x80000018
         145000	        13	00000000	00000013	addi	x0,x0,0	  x0:0x00000000
         155000	        14	80000018	00000013	addi	x0,x0,0	  x0:0x00000000
         165000	        15	8000001c	40000a37	lui	x20,0x40000	 x20=0x40000000
         175000	        16	80000020	100a0a13	addi	x20,x20,256	 x20:0x40000000 x20=0x40000100
         185000	        17	80000024	00000013	addi	x0,x0,0	  x0:0x00000000
         195000	        18	80000028	0000a117	auipc	x2,0xa	  x2=0x8000a024
         205000	        19	8000002c	fa010113	addi	x2,x2,-96	  x2:0x8000a024  x2=0x80009fc4
         215000	        20	80000030	00005a17	auipc	x20,0x5	 x20=0x8000502c
         225000	        21	80000034	164a0a13	addi	x20,x20,356	 x20:0x8000502c x20=0x80005190
         235000	        22	80000038	001a6a13	ori	x20,x20,1	 x20:0x80005190 x20=0x80005191
         245000	        23	8000003c	00000013	addi	x0,x0,0	  x0:0x00000000
         255000	        24	80000040	00000a17	auipc	x20,0x0	 x20=0x8000003c
         265000	        25	80000044	020a0a13	addi	x20,x20,32	 x20:0x8000003c x20=0x8000005c
         275000	        26	80000048	00000013	addi	x0,x0,0	  x0:0x00000000
         285000	        27	8000004c	00000013	addi	x0,x0,0	  x0:0x00000000
         295000	        28	80000050	00002a37	lui	x20,0x2	 x20=0x00002000
         305000	        29	80000054	800a0a13	addi	x20,x20,-2048	 x20:0x00002000 x20=0x00001800
         315000	        30	80000058	00000013	addi	x0,x0,0	  x0:0x00000000
         325000	        31	8000005c	00000013	addi	x0,x0,0	  x0:0x00000000
         335000	        32	80000060	abce6037	lui	x0,0xabce6	
         345000	        33	80000064	e0e00013	addi	x0,x0,-498	  x0:0x00000000
         355000	        34	80000068	00000093	addi	x1,x0,0	  x0:0x00000000  x1=0x00000000
         365000	        35	8000006c	fc9df1b7	lui	x3,0xfc9df	  x3=0xfc9df000
         375000	        36	80000070	3b418193	addi	x3,x3,948	  x3:0xfc9df000  x3=0xfc9df3b4
         385000	        37	80000074	87a27237	lui	x4,0x87a27	  x4=0x87a27000
         395000	        38	80000078	04620213	addi	x4,x4,70	  x4:0x87a27000  x4=0x87a27046
         405000	        39	8000007c	800002b7	lui	x5,0x80000	  x5=0x80000000
         415000	        40	80000080	80000337	lui	x6,0x80000	  x6=0x80000000
         425000	        41	80000084	3732e3b7	lui	x7,0x3732e	  x7=0x3732e000
         435000	        42	80000088	ae838393	addi	x7,x7,-1304	  x7:0x3732e000  x7=0x3732dae8
         445000	        43	8000008c	00000413	addi	x8,x0,0	  x0:0x00000000  x8=0x00000000
         455000	        44	80000090	800004b7	lui	x9,0x80000	  x9=0x80000000
         465000	        45	80000094	80000537	lui	x10,0x80000	 x10=0x80000000
         475000	        46	80000098	00600593	addi	x11,x0,6	  x0:0x00000000 x11=0x00000006
         485000	        47	8000009c	80000637	lui	x12,0x80000	 x12=0x80000000
         495000	        48	800000a0	800006b7	lui	x13,0x80000	 x13=0x80000000
         505000	        49	800000a4	00700713	addi	x14,x0,7	  x0:0x00000000 x14=0x00000007
         515000	        50	800000a8	800007b7	lui	x15,0x80000	 x15=0x80000000
         525000	        51	800000ac	00000813	addi	x16,x0,0	  x0:0x00000000 x16=0x00000000
         535000	        52	800000b0	00f00893	addi	x17,x0,15	  x0:0x00000000 x17=0x0000000f
         545000	        53	800000b4	00800913	addi	x18,x0,8	  x0:0x00000000 x18=0x00000008
         555000	        54	800000b8	f97a79b7	lui	x19,0xf97a7	 x19=0xf97a7000
         565000	        55	800000bc	37198993	addi	x19,x19,881	 x19:0xf97a7000 x19=0xf97a7371
         575000	        56	800000c0	00000a13	addi	x20,x0,0	  x0:0x00000000 x20=0x00000000
         585000	        57	800000c4	fc985ab7	lui	x21,0xfc985	 x21=0xfc985000
         595000	        58	800000c8	e1ba8a93	addi	x21,x21,-485	 x21:0xfc985000 x21=0xfc984e1b
         605000	        59	800000cc	06f08b37	lui	x22,0x6f08	 x22=0x06f08000
         615000	        60	800000d0	9edb0b13	addi	x22,x22,-1555	 x22:0x06f08000 x22=0x06f079ed
         625000	        61	800000d4	e0ce9bb7	lui	x23,0xe0ce9	 x23=0xe0ce9000
         635000	        62	800000d8	dabb8b93	addi	x23,x23,-597	 x23:0xe0ce9000 x23=0xe0ce8dab
         645000	        63	800000dc	00000c13	addi	x24,x0,0	  x0:0x00000000 x24=0x00000000
         655000	        64	800000e0	80000cb7	lui	x25,0x80000	 x25=0x80000000
         665000	        65	800000e4	80000db7	lui	x27,0x80000	 x27=0x80000000
         675000	        66	800000e8	80000e37	lui	x28,0x80000	 x28=0x80000000
         685000	        67	800000ec	f22f5eb7	lui	x29,0xf22f5	 x29=0xf22f5000
         695000	        68	800000f0	9aee8e93	addi	x29,x29,-1618	 x29:0xf22f5000 x29=0xf22f49ae
         705000	        69	800000f4	00000f13	addi	x30,x0,0	  x0:0x00000000 x30=0x00000000
         715000	        70	800000f8	7d6c0fb7	lui	x31,0x7d6c0	 x31=0x7d6c0000
         725000	        71	800000fc	736f8f93	addi	x31,x31,1846	 x31:0x7d6c0000 x31=0x7d6c0736
         735000	        72	80000100	0000ad17	auipc	x26,0xa	 x26=0x8000a0fc
         745000	        73	80000104	e88d0d13	addi	x26,x26,-376	 x26:0x8000a0fc x26=0x80009f84
         755000	        74	80000108	e2406813	ori	x16,x0,-476	  x0:0x00000000 x16=0xfffffe24
         765000	        75	8000010c	00003f97	auipc	x31,0x3	 x31=0x80003108
         775000	        76	80000110	048f8f93	addi	x31,x31,72	 x31:0x80003108 x31=0x80003150
         785000	        77	80000114	ceef8f93	addi	x31,x31,-786	 x31:0x80003150 x31=0x80002e3e
         795000	        78	80000118	00e79993	slli	x19,x15,0xe	 x15:0x80000000 x19=0x00000000
         805000	        79	8000011c	00011233	sll	x4,x2,x0	  x2:0x80009fc4  x0:0x00000000  x4=0x80009fc4
         815000	        80	80000120	169f2b17	auipc	x22,0x169f2	 x22=0x969f211c
         825000	        81	80000124	7717c193	xori	x3,x15,1905	 x15:0x80000000  x3=0x80000771
         835000	        82	80000128	91c54693	xori	x13,x10,-1764	 x10:0x80000000 x13=0x7ffff91c
         845000	        83	8000012c	313f8367	jalr	x6,x31,787	 x31:0x80002e3e  x6=0x8000012c
         855000	        84	00000000	00000013	addi	x0,x0,0	  x0:0x00000000
         865000	        85	80003150	00000013	addi	x0,x0,0	  x0:0x00000000
         875000	        86	80003154	0198af33	slt	x30,x17,x25	 x17:0x0000000f x25:0x80000000 x30=0x00000000
         885000	        87	80003158	22a2ae13	slti	x28,x5,554	  x5:0x80000000 x28=0x00000001
         895000	        88	8000315c	d67e6013	ori	x0,x28,-665	 x28:0x00000001
         905000	        89	80003160	00000013	addi	x0,x0,0	  x0:0x00000000
         915000	        90	80003164	017f4463	blt	x30,x23,8000316c	 x30:0x00000000 x23:0xe0ce8dab
         925000	        91	80003168	01178f33	add	x30,x15,x17	 x15:0x80000000 x17:0x0000000f x30=0x8000000f
         935000	        92	8000316c	fd0d0d13	addi	x26,x26,-48	 x26:0x80009f84 x26=0x80009f54
         945000	        93	80003170	006d2223	sw	x6,4(x26)	 x26:0x80009f54  x6:0x8000012c PA:0x80009f58
         955000	        94	80003174	00111733	sll	x14,x2,x1	  x2:0x80009fc4  x1:0x00000000 x14=0x80009fc4
         965000	        95	80003178	40268e33	sub	x28,x13,x2	 x13:0x7ffff91c  x2:0x80009fc4 x28=0xffff5958
         975000	        96	8000317c	00b619b3	sll	x19,x12,x11	 x12:0x80000000 x11:0x00000006 x19=0x00000000
         985000	        97	80003180	0076fb33	and	x22,x13,x7	 x13:0x7ffff91c  x7:0x3732dae8 x22=0x3732d808
         995000	        98	80003184	c1468b13	addi	x22,x13,-1004	 x13:0x7ffff91c x22=0x7ffff530
        1005000	        99	80003188	009216b3	sll	x13,x4,x9	  x4:0x80009fc4  x9:0x80000000 x13=0x80009fc4
        1015000	       100	8000318c	414a5493	srai	x9,x20,0x14	 x20:0x00000000  x9=0x00000000
        1025000	       101	80003190	00ab7b33	and	x22,x22,x10	 x22:0x7ffff530 x10:0x80000000 x22=0x00000000
        1035000	       102	80003194	8951fb13	andi	x22,x3,-1899	  x3:0x80000771 x22=0x80000011
        1045000	       103	80003198	418d5293	srai	x5,x26,0x18	 x26:0x80009f54  x5=0xffffff80
        1055000	       104	8000319c	0018c233	xor	x4,x17,x1	 x17:0x0000000f  x1:0x00000000  x4=0x0000000f
        1065000	       105	800031a0	0134f663	bgeu	x9,x19,800031ac	  x9:0x00000000 x19:0x00000000
        1075000	       106	00000000	00000013	addi	x0,x0,0	  x0:0x00000000
        1085000	       107	800031a8	00000013	addi	x0,x0,0	  x0:0x00000000
        1095000	       108	800031ac	bddfd36f	jal	x6,800031ac	  x6=0x800031ac
        1105000	       109	00000000	00000013	addi	x0,x0,0	  x0:0x00000000
        1115000	       110	80000d84	00000013	addi	x0,x0,0	  x0:0x00000000
        1125000	       111	80000d88	01ee6263	bltu	x28,x30,80000d8c	 x28:0xffff5958 x30:0x8000000f
        1135000	       112	80000d8c	ff8d0d13	addi	x26,x26,-8	 x26:0x80009f54 x26=0x80009f4c
        1145000	       113	80000d90	00a87db3	and	x27,x16,x10	 x16:0xfffffe24 x10:0x80000000 x27=0x80000000
        1155000	       114	80000d94	64acaf93	slti	x31,x25,1610	 x25:0x80000000 x31=0x00000001
        1165000	       115	80000d98	006d2223	sw	x6,4(x26)	 x26:0x80009f4c  x6:0x800031ac PA:0x80009f50
        1175000	       116	80000d9c	90b74ab7	lui	x21,0x90b74	 x21=0x90b74000
        1185000	       117	80000da0	00601433	sll	x8,x0,x6	  x0:0x00000000  x6:0x800031ac  x8=0x00000000
        1195000	       118	80000da4	4092da33	sra	x20,x5,x9	  x5:0xffffff80  x9:0x00000000 x20=0xffffff80
        1205000	       119	80000da8	0180036f	jal	x6,80000da8	  x6=0x80000da8
        1215000	       120	00000000	00000013	addi	x0,x0,0	  x0:0x00000000
        1225000	       121	80000dbc	00000013	addi	x0,x0,0	  x0:0x00000000
        1235000	       122	80000dc0	ff1ff76f	jal	x14,80000dc0	 x14=0x80000dc0
        1245000	       123	00000000	00000013	addi	x0,x0,0	  x0:0x00000000
        1255000	       124	80000dac	00000013	addi	x0,x0,0	  x0:0x00000000
        1265000	       125	80000db0	0040036f	jal	x6,80000db0	  x6=0x80000db0
        1275000	       126	00000000	00000013	addi	x0,x0,0	  x0:0x00000000
        1285000	       127	80000db0	00000013	addi	x0,x0,0	  x0:0x00000000
        1295000	       128	80000db4	0040026f	jal	x4,80000db4	  x4=0x80000db4
        1305000	       129	00000000	00000013	addi	x0,x0,0	  x0:0x00000000
        1315000	       130	80000db4	00000013	addi	x0,x0,0	  x0:0x00000000
        1325000	       131	80000db8	00c0036f	jal	x6,80000db8	  x6=0x80000db8
        1335000	       132	00000000	00000013	addi	x0,x0,0	  x0:0x00000000
        1345000	       133	80000dc0	00000013	addi	x0,x0,0	  x0:0x00000000
        1355000	       134	80000dc4	01c00aef	jal	x21,80000dc4	 x21=0x80000dc4
        1365000	       135	00000000	00000013	addi	x0,x0,0	  x0:0x00000000
        1375000	       136	80000ddc	00000013	addi	x0,x0,0	  x0:0x00000000
        1385000	       137	80000de0	004000ef	jal	x1,80000de0	  x1=0x80000de0
        1395000	       138	00000000	00000013	addi	x0,x0,0	  x0:0x00000000
        1405000	       139	80000de0	00000013	addi	x0,x0,0	  x0:0x00000000
        1415000	       140	80000de4	004003ef	jal	x7,80000de4	  x7=0x80000de4
        1425000	       141	00000000	00000013	addi	x0,x0,0	  x0:0x00000000
        1435000	       142	80000de4	00000013	addi	x0,x0,0	  x0:0x00000000
        1445000	       143	80000de8	fd5ff0ef	jal	x1,80000de8	  x1=0x80000de8
        1455000	       144	00000000	00000013	addi	x0,x0,0	  x0:0x00000000
        1465000	       145	80000db8	00000013	addi	x0,x0,0	  x0:0x00000000
        1475000	       146	80000dbc	03800b6f	jal	x22,80000dbc	 x22=0x80000dbc
        1485000	       147	00000000	00000013	addi	x0,x0,0	  x0:0x00000000
        1495000	       148	80000df0	00000013	addi	x0,x0,0	  x0:0x00000000
        1505000	       149	80000df4	fe5ff0ef	jal	x1,80000df4	  x1=0x80000df4
        1515000	       150	00000000	00000013	addi	x0,x0,0	  x0:0x00000000
        1525000	       151	80000dd4	00000013	addi	x0,x0,0	  x0:0x00000000
        1535000	       152	80000dd8	014000ef	jal	x1,80000dd8	  x1=0x80000dd8
        1545000	       153	00000000	00000013	addi	x0,x0,0	  x0:0x00000000
        1555000	       154	80000de8	00000013	addi	x0,x0,0	  x0:0x00000000
        1565000	       155	80000dec	00c000ef	jal	x1,80000dec	  x1=0x80000dec
        1575000	       156	00000000	00000013	addi	x0,x0,0	  x0:0x00000000
        1585000	       157	80000df4	00000013	addi	x0,x0,0	  x0:0x00000000
        1595000	       158	80000df8	0040036f	jal	x6,80000df8	  x6=0x80000df8
        1605000	       159	00000000	00000013	addi	x0,x0,0	  x0:0x00000000
        1615000	       160	80000df8	00000013	addi	x0,x0,0	  x0:0x00000000
        1625000	       161	80000dfc	fe1ff0ef	jal	x1,80000dfc	  x1=0x80000dfc
        1635000	       162	00000000	00000013	addi	x0,x0,0	  x0:0x00000000
        1645000	       163	80000dd8	00000013	addi	x0,x0,0	  x0:0x00000000
        1655000	       164	80000ddc	fd1ff26f	jal	x4,80000ddc	  x4=0x80000ddc
        1665000	       165	00000000	00000013	addi	x0,x0,0	  x0:0x00000000
        1675000	       166	80000da8	00000013	addi	x0,x0,0	  x0:0x00000000
        1685000	       167	80000dac	02400cef	jal	x25,80000dac	 x25=0x80000dac
        1695000	       168	00000000	00000013	addi	x0,x0,0	  x0:0x00000000
        1705000	       169	80000dcc	00000013	addi	x0,x0,0	  x0:0x00000000
        1715000	       170	80000dd0	004000ef	jal	x1,80000dd0	  x1=0x80000dd0
        1725000	       171	00000000	00000013	addi	x0,x0,0	  x0:0x00000000
        1735000	       172	80000dd0	00000013	addi	x0,x0,0	  x0:0x00000000
        1745000	       173	80000dd4	ff9ff0ef	jal	x1,80000dd4	  x1=0x80000dd4
        1755000	       174	00000000	00000013	addi	x0,x0,0	  x0:0x00000000
        1765000	       175	80000dc8	00000013	addi	x0,x0,0	  x0:0x00000000
        1775000	       176	80000dcc	024000ef	jal	x1,80000dcc	  x1=0x80000dcc
        1785000	       177	00000000	00000013	addi	x0,x0,0	  x0:0x00000000
        1795000	       178	80000dec	00000013	addi	x0,x0,0	  x0:0x00000000
        1805000	       179	80000df0	fd9ff0ef	jal	x1,80000df0	  x1=0x80000df0
        1815000	       180	00000000	00000013	addi	x0,x0,0	  x0:0x00000000
        1825000	       181	80000dc4	00000013	addi	x0,x0,0	  x0:0x00000000
        1835000	       182	80000dc8	0380056f	jal	x10,80000dc8	 x10=0x80000dc8
        1845000	       183	00000000	00000013	addi	x0,x0,0	  x0:0x00000000
        1855000	       184	80000dfc	00000013	addi	x0,x0,0	  x0:0x00000000
        1865000	       185	80000e00	959107b7	lui	x15,0x95910	 x15=0x95910000
        1875000	       186	80000e04	0100036f	jal	x6,80000e04	  x6=0x80000e04
        1885000	       187	00000000	00000013	addi	x0,x0,0	  x0:0x00000000
        1895000	       188	80000e10	00000013	addi	x0,x0,0	  x0:0x00000000
        1905000	       189	80000e14	05800f6f	jal	x30,80000e14	 x30=0x80000e14
        1915000	       190	00000000	00000013	addi	x0,x0,0	  x0:0x00000000
        1925000	       191	80000e68	00000013	addi	x0,x0,0	  x0:0x00000000
        1935000	       192	80000e6c	fb1ff0ef	jal	x1,80000e6c	  x1=0x80000e6c
        1945000	       193	00000000	00000013	addi	x0,x0,0	  x0:0x00000000
        1955000	       194	80000e18	00000013	addi	x0,x0,0	  x0:0x00000000
        1965000	       195	80000e1c	0580036f	jal	x6,80000e1c	  x6=0x80000e1c
        1975000	       196	00000000	00000013	addi	x0,x0,0	  x0:0x00000000
        1985000	       197	80000e70	00000013	addi	x0,x0,0	  x0:0x00000000
        1995000	       198	80000e74	fadffc6f	jal	x24,80000e74	 x24=0x80000e74
        2005000	       199	00000000	00000013	addi	x0,x0,0	  x0:0x00000000
        2015000	       200	80000e1c	00000013	addi	x0,x0,0	  x0:0x00000000
        2025000	       201	80000e20	030000ef	jal	x1,80000e20	  x1=0x80000e20
        2035000	       202	00000000	00000013	addi	x0,x0,0	  x0:0x00000000
        2045000	       203	80000e4c	00000013	addi	x0,x0,0	  x0:0x00000000
        2055000	       204	80000e50	fc1ff0ef	jal	x1,80000e50	  x1=0x80000e50
        2065000	       205	00000000	00000013	addi	x0,x0,0	  x0:0x00000000
        2075000	       206	80000e0c	00000013	addi	x0,x0,0	  x0:0x00000000
        2085000	       207	80000e10	014000ef	jal	x1,80000e10	  x1=0x80000e10
        2095000	       208	00000000	00000013	addi	x0,x0,0	  x0:0x00000000
        2105000	       209	80000e20	00000013	addi	x0,x0,0	  x0:0x00000000
        2115000	       210	80000e24	024000ef	jal	x1,80000e24	  x1=0x80000e24
        2125000	       211	00000000	00000013	addi	x0,x0,0	  x0:0x00000000
        2135000	       212	80000e44	00000013	addi	x0,x0,0	  x0:0x00000000
        2145000	       213	80000e48	fedff26f	jal	x4,80000e48	  x4=0x80000e48
        2155000	       214	00000000	00000013	addi	x0,x0,0	  x0:0x00000000
        2165000	       215	80000e30	00000013	addi	x0,x0,0	  x0:0x00000000
        2175000	       216	80000e34	034002ef	jal	x5,80000e34	  x5=0x80000e34
        2185000	       217	00000000	00000013	addi	x0,x0,0	  x0:0x00000000
        2195000	       218	80000e64	00000013	addi	x0,x0,0	  x0:0x00000000
        2205000	       219	80000e68	ff1ff2ef	jal	x5,80000e68	  x5=0x80000e68
        2215000	       220	00000000	00000013	addi	x0,x0,0	  x0:0x00000000
        2225000	       221	80000e54	00000013	addi	x0,x0,0	  x0:0x00000000
        2235000	       222	80000e58	fb1ff0ef	jal	x1,80000e58	  x1=0x80000e58
        2245000	       223	00000000	00000013	addi	x0,x0,0	  x0:0x00000000
        2255000	       224	80000e04	00000013	addi	x0,x0,0	  x0:0x00000000
        2265000	       225	80000e08	01000aef	jal	x21,80000e08	 x21=0x80000e08
        2275000	       226	00000000	00000013	addi	x0,x0,0	  x0:0x00000000
        2285000	       227	80000e14	00000013	addi	x0,x0,0	  x0:0x00000000
        2295000	       228	80000e18	018000ef	jal	x1,80000e18	  x1=0x80000e18
        2305000	       229	00000000	00000013	addi	x0,x0,0	  x0:0x00000000
        2315000	       230	80000e2c	00000013	addi	x0,x0,0	  x0:0x00000000
        2325000	       231	80000e30	010000ef	jal	x1,80000e30	  x1=0x80000e30
        2335000	       232	00000000	00000013	addi	x0,x0,0	  x0:0x00000000
        2345000	       233	80000e3c	00000013	addi	x0,x0,0	  x0:0x00000000
        2355000	       234	80000e40	ffdff0ef	jal	x1,80000e40	  x1=0x80000e40
        2365000	       235	00000000	00000013	addi	x0,x0,0	  x0:0x00000000
        2375000	       236	80000e38	00000013	addi	x0,x0,0	  x0:0x00000000
        2385000	       237	80000e3c	0180026f	jal	x4,80000e3c	  x4=0x80000e3c
        2395000	       238	00000000	00000013	addi	x0,x0,0	  x0:0x00000000
        2405000	       239	80000e50	00000013	addi	x0,x0,0	  x0:0x00000000
        2415000	       240	80000e54	ff9ff0ef	jal	x1,80000e54	  x1=0x80000e54
        2425000	       241	00000000	00000013	addi	x0,x0,0	  x0:0x00000000
        2435000	       242	80000e48	00000013	addi	x0,x0,0	  x0:0x00000000
        2445000	       243	80000e4c	010000ef	jal	x1,80000e4c	  x1=0x80000e4c
        2455000	       244	00000000	00000013	addi	x0,x0,0	  x0:0x00000000
        2465000	       245	80000e58	00000013	addi	x0,x0,0	  x0:0x00000000
        2475000	       246	80000e5c	fddff36f	jal	x6,80000e5c	  x6=0x80000e5c
        2485000	       247	00000000	00000013	addi	x0,x0,0	  x0:0x00000000
        2495000	       248	80000e34	00000013	addi	x0,x0,0	  x0:0x00000000
        2505000	       249	80000e38	ff5ff0ef	jal	x1,80000e38	  x1=0x80000e38
        2515000	       250	00000000	00000013	addi	x0,x0,0	  x0:0x00000000
        2525000	       251	80000e28	00000013	addi	x0,x0,0	  x0:0x00000000
        2535000	       252	80000e2c	ffdff36f	jal	x6,80000e2c	  x6=0x80000e2c
        2545000	       253	00000000	00000013	addi	x0,x0,0	  x0:0x00000000
        2555000	       254	80000e24	00000013	addi	x0,x0,0	  x0:0x00000000
        2565000	       255	80000e28	01c000ef	jal	x1,80000e28	  x1=0x80000e28
        2575000	       256	00000000	00000013	addi	x0,x0,0	  x0:0x00000000
        2585000	       257	80000e40	00000013	addi	x0,x0,0	  x0:0x00000000
        2595000	       258	80000e44	02c0026f	jal	x4,80000e44	  x4=0x80000e44
        2605000	       259	00000000	00000013	addi	x0,x0,0	  x0:0x00000000
        2615000	       260	80000e6c	00000013	addi	x0,x0,0	  x0:0x00000000
        2625000	       261	80000e70	ff1ff0ef	jal	x1,80000e70	  x1=0x80000e70
        2635000	       262	00000000	00000013	addi	x0,x0,0	  x0:0x00000000
        2645000	       263	80000e5c	00000013	addi	x0,x0,0	  x0:0x00000000
        2655000	       264	80000e60	004000ef	jal	x1,80000e60	  x1=0x80000e60
        2665000	       265	00000000	00000013	addi	x0,x0,0	  x0:0x00000000
        2675000	       266	80000e60	00000013	addi	x0,x0,0	  x0:0x00000000
        2685000	       267	80000e64	fa9ff3ef	jal	x7,80000e64	  x7=0x80000e64
        2695000	       268	00000000	00000013	addi	x0,x0,0	  x0:0x00000000
        2705000	       269	80000e08	00000013	addi	x0,x0,0	  x0:0x00000000
        2715000	       270	80000e0c	06c000ef	jal	x1,80000e0c	  x1=0x80000e0c
        2725000	       271	00000000	00000013	addi	x0,x0,0	  x0:0x00000000
        2735000	       272	80000e74	00000013	addi	x0,x0,0	  x0:0x00000000
        2745000	       273	80000e78	0c8ff913	andi	x18,x31,200	 x31:0x00000001 x18=0x00000000
        2755000	       274	80000e7c	0200036f	jal	x6,80000e7c	  x6=0x80000e7c
        2765000	       275	00000000	00000013	addi	x0,x0,0	  x0:0x00000000
        2775000	       276	80000e98	00000013	addi	x0,x0,0	  x0:0x00000000
        2785000	       277	80000e9c	0040036f	jal	x6,80000e9c	  x6=0x80000e9c
        2795000	       278	00000000	00000013	addi	x0,x0,0	  x0:0x00000000
        2805000	       279	80000e9c	00000013	addi	x0,x0,0	  x0:0x00000000
        2815000	       280	80000ea0	01000cef	jal	x25,80000ea0	 x25=0x80000ea0
        2825000	       281	00000000	00000013	addi	x0,x0,0	  x0:0x00000000
        2835000	       282	80000eac	00000013	addi	x0,x0,0	  x0:0x00000000
        2845000	       283	80000eb0	fddffc6f	jal	x24,80000eb0	 x24=0x80000eb0
        2855000	       284	00000000	00000013	addi	x0,x0,0	  x0:0x00000000
        2865000	       285	80000e88	00000013	addi	x0,x0,0	  x0:0x00000000
        2875000	       286	80000e8c	004000ef	jal	x1,80000e8c	  x1=0x80000e8c
        2885000	       287	00000000	00000013	addi	x0,x0,0	  x0:0x00000000
        2895000	       288	80000e8c	00000013	addi	x0,x0,0	  x0:0x00000000
        2905000	       289	80000e90	ff9fffef	jal	x31,80000e90	 x31=0x80000e90
        2915000	       290	00000000	00000013	addi	x0,x0,0	  x0:0x00000000
        2925000	       291	80000e84	00000013	addi	x0,x0,0	  x0:0x00000000
        2935000	       292	80000e88	020000ef	jal	x1,80000e88	  x1=0x80000e88
        2945000	       293	00000000	00000013	addi	x0,x0,0	  x0:0x00000000
        2955000	       294	80000ea4	00000013	addi	x0,x0,0	  x0:0x00000000
        2965000	       295	80000ea8	fedff0ef	jal	x1,80000ea8	  x1=0x80000ea8
        2975000	       296	00000000	00000013	addi	x0,x0,0	  x0:0x00000000
        2985000	       297	80000e90	00000013	addi	x0,x0,0	  x0:0x00000000
        2995000	       298	80000e94	018000ef	jal	x1,80000e94	  x1=0x80000e94
        3005000	       299	00000000	00000013	addi	x0,x0,0	  x0:0x00000000
        3015000	       300	80000ea8	00000013	addi	x0,x0,0	  x0:0x00000000
        3025000	       301	80000eac	ff9ff0ef	jal	x1,80000eac	  x1=0x80000eac
        3035000	       302	00000000	00000013	addi	x0,x0,0	  x0:0x00000000
        3045000	       303	80000ea0	00000013	addi	x0,x0,0	  x0:0x00000000
        3055000	       304	80000ea4	fe1ff0ef	jal	x1,80000ea4	  x1=0x80000ea4
        3065000	       305	00000000	00000013	addi	x0,x0,0	  x0:0x00000000
        3075000	       306	80000e80	00000013	addi	x0,x0,0	  x0:0x00000000
        3085000	       307	80000e84	ffdff36f	jal	x6,80000e84	  x6=0x80000e84
        3095000	       308	00000000	00000013	addi	x0,x0,0	  x0:0x00000000
        3105000	       309	80000e7c	00000013	addi	x0,x0,0	  x0:0x00000000
        3115000	       310	80000e80	0180036f	jal	x6,80000e80	  x6=0x80000e80
        3125000	       311	00000000	00000013	addi	x0,x0,0	  x0:0x00000000
        3135000	       312	80000e94	00000013	addi	x0,x0,0	  x0:0x00000000
        3145000	       313	80000e98	01c000ef	jal	x1,80000e98	  x1=0x80000e98
        3155000	       314	00000000	00000013	addi	x0,x0,0	  x0:0x00000000
        3165000	       315	80000eb0	00000013	addi	x0,x0,0	  x0:0x00000000
        3175000	       316	80000eb4	01d70e33	add	x28,x14,x29	 x14:0x80000dc0 x29:0xf22f49ae x28=0x722f576e
        3185000	       317	80000eb8	0580036f	jal	x6,80000eb8	  x6=0x80000eb8
        3195000	       318	00000000	00000013	addi	x0,x0,0	  x0:0x00000000
        3205000	       319	80000f0c	00000013	addi	x0,x0,0	  x0:0x00000000
        3215000	       320	80000f10	fb9ff2ef	jal	x5,80000f10	  x5=0x80000f10
        3225000	       321	00000000	00000013	addi	x0,x0,0	  x0:0x00000000
        3235000	       322	80000ec4	00000013	addi	x0,x0,0	  x0:0x00000000
        3245000	       323	80000ec8	050000ef	jal	x1,80000ec8	  x1=0x80000ec8
        3255000	       324	00000000	00000013	addi	x0,x0,0	  x0:0x00000000
        3265000	       325	80000f14	00000013	addi	x0,x0,0	  x0:0x00000000
        3275000	       326	80000f18	fe1ffaef	jal	x21,80000f18	 x21=0x80000f18
        3285000	       327	00000000	00000013	addi	x0,x0,0	  x0:0x00000000
        3295000	       328	80000ef4	00000013	addi	x0,x0,0	  x0:0x00000000
        3305000	       329	80000ef8	fd9ff0ef	jal	x1,80000ef8	  x1=0x80000ef8
        3315000	       330	00000000	00000013	addi	x0,x0,0	  x0:0x00000000
        3325000	       331	80000ecc	00000013	addi	x0,x0,0	  x0:0x00000000
        3335000	       332	80000ed0	01c00e6f	jal	x28,80000ed0	 x28=0x80000ed0
        3345000	       333	00000000	00000013	addi	x0,x0,0	  x0:0x00000000
        3355000	       334	80000ee8	00000013	addi	x0,x0,0	  x0:0x00000000
        3365000	       335	80000eec	ff5ff0ef	jal	x1,80000eec	  x1=0x80000eec
        3375000	       336	00000000	00000013	addi	x0,x0,0	  x0:0x00000000
        3385000	       337	80000edc	00000013	addi	x0,x0,0	  x0:0x00000000
        3395000	       338	80000ee0	044000ef	jal	x1,80000ee0	  x1=0x80000ee0
        3405000	       339	00000000	00000013	addi	x0,x0,0	  x0:0x00000000
        3415000	       340	80000f20	00000013	addi	x0,x0,0	  x0:0x00000000
        3425000	       341	80000f24	fd1ff0ef	jal	x1,80000f24	  x1=0x80000f24
        3435000	       342	00000000	00000013	addi	x0,x0,0	  x0:0x00000000
        3445000	       343	80000ef0	00000013	addi	x0,x0,0	  x0:0x00000000
        3455000	       344	80000ef4	010000ef	jal	x1,80000ef4	  x1=0x80000ef4
        3465000	       345	00000000	00000013	addi	x0,x0,0	  x0:0x00000000
        3475000	       346	80000f00	00000013	addi	x0,x0,0	  x0:0x00000000
        3485000	       347	80000f04	fd9ffaef	jal	x21,80000f04	 x21=0x80000f04
        3495000	       348	00000000	00000013	addi	x0,x0,0	  x0:0x00000000
        3505000	       349	80000ed8	00000013	addi	x0,x0,0	  x0:0x00000000
        3515000	       350	80000edc	00c000ef	jal	x1,80000edc	  x1=0x80000edc
        3525000	       351	00000000	00000013	addi	x0,x0,0	  x0:0x00000000
        3535000	       352	80000ee4	00000013	addi	x0,x0,0	  x0:0x00000000
        3545000	       353	80000ee8	0340036f	jal	x6,80000ee8	  x6=0x80000ee8
        3555000	       354	00000000	00000013	addi	x0,x0,0	  x0:0x00000000
        3565000	       355	80000f18	00000013	addi	x0,x0,0	  x0:0x00000000
        3575000	       356	80000f1c	fa5ffe6f	jal	x28,80000f1c	 x28=0x80000f1c
        3585000	       357	00000000	00000013	addi	x0,x0,0	  x0:0x00000000
        3595000	       358	80000ebc	00000013	addi	x0,x0,0	  x0:0x00000000
        3605000	       359	80000ec0	0180056f	jal	x10,80000ec0	 x10=0x80000ec0
        3615000	       360	00000000	00000013	addi	x0,x0,0	  x0:0x00000000
        3625000	       361	80000ed4	00000013	addi	x0,x0,0	  x0:0x00000000
        3635000	       362	80000ed8	fe5ff1ef	jal	x3,80000ed8	  x3=0x80000ed8
        3645000	       363	00000000	00000013	addi	x0,x0,0	  x0:0x00000000
        3655000	       364	80000eb8	00000013	addi	x0,x0,0	  x0:0x00000000
        3665000	       365	80000ebc	01000fef	jal	x31,80000ebc	 x31=0x80000ebc
        3675000	       366	00000000	00000013	addi	x0,x0,0	  x0:0x00000000
        3685000	       367	80000ec8	00000013	addi	x0,x0,0	  x0:0x00000000
        3695000	       368	80000ecc	ff9ff36f	jal	x6,80000ecc	  x6=0x80000ecc
        3705000	       369	00000000	00000013	addi	x0,x0,0	  x0:0x00000000
        3715000	       370	80000ec0	00000013	addi	x0,x0,0	  x0:0x00000000
        3725000	       371	80000ec4	02c0036f	jal	x6,80000ec4	  x6=0x80000ec4
        3735000	       372	00000000	00000013	addi	x0,x0,0	  x0:0x00000000
        3745000	       373	80000eec	00000013	addi	x0,x0,0	  x0:0x00000000
        3755000	       374	80000ef0	0180036f	jal	x6,80000ef0	  x6=0x80000ef0
        3765000	       375	00000000	00000013	addi	x0,x0,0	  x0:0x00000000
        3775000	       376	80000f04	00000013	addi	x0,x0,0	  x0:0x00000000
        3785000	       377	80000f08	00c000ef	jal	x1,80000f08	  x1=0x80000f08
        3795000	       378	00000000	00000013	addi	x0,x0,0	  x0:0x00000000
        3805000	       379	80000f10	00000013	addi	x0,x0,0	  x0:0x00000000
        3815000	       380	80000f14	014001ef	jal	x3,80000f14	  x3=0x80000f14
        3825000	       381	00000000	00000013	addi	x0,x0,0	  x0:0x00000000
        3835000	       382	80000f24	00000013	addi	x0,x0,0	  x0:0x00000000
        3845000	       383	80000f28	fe5ff36f	jal	x6,80000f28	  x6=0x80000f28
        3855000	       384	00000000	00000013	addi	x0,x0,0	  x0:0x00000000
        3865000	       385	80000f08	00000013	addi	x0,x0,0	  x0:0x00000000
        3875000	       386	80000f0c	ff5ff5ef	jal	x11,80000f0c	 x11=0x80000f0c
        3885000	       387	00000000	00000013	addi	x0,x0,0	  x0:0x00000000
        3895000	       388	80000efc	00000013	addi	x0,x0,0	  x0:0x00000000
        3905000	       389	80000f00	fe5ff36f	jal	x6,80000f00	  x6=0x80000f00
        3915000	       390	00000000	00000013	addi	x0,x0,0	  x0:0x00000000
        3925000	       391	80000ee0	00000013	addi	x0,x0,0	  x0:0x00000000
        3935000	       392	80000ee4	03c0076f	jal	x14,80000ee4	 x14=0x80000ee4
        3945000	       393	00000000	00000013	addi	x0,x0,0	  x0:0x00000000
        3955000	       394	80000f1c	00000013	addi	x0,x0,0	  x0:0x00000000
        3965000	       395	80000f20	fb5ff0ef	jal	x1,80000f20	  x1=0x80000f20
        3975000	       396	00000000	00000013	addi	x0,x0,0	  x0:0x00000000
        3985000	       397	80000ed0	00000013	addi	x0,x0,0	  x0:0x00000000
        3995000	       398	80000ed4	0280036f	jal	x6,80000ed4	  x6=0x80000ed4
        4005000	       399	00000000	00000013	addi	x0,x0,0	  x0:0x00000000
        4015000	       400	80000ef8	00000013	addi	x0,x0,0	  x0:0x00000000
        4025000	       401	80000efc	0300036f	jal	x6,80000efc	  x6=0x80000efc
        4035000	       402	00000000	00000013	addi	x0,x0,0	  x0:0x00000000
        4045000	       403	80000f28	00000013	addi	x0,x0,0	  x0:0x00000000
        4055000	       404	80000f2c	2ea6e813	ori	x16,x13,746	 x13:0x80009fc4 x16=0x80009fee
        4065000	       405	80000f30	05c0036f	jal	x6,80000f30	  x6=0x80000f30
        4075000	       406	00000000	00000013	addi	x0,x0,0	  x0:0x00000000
        4085000	       407	80000f88	00000013	addi	x0,x0,0	  x0:0x00000000
        4095000	       408	80000f8c	fddff0ef	jal	x1,80000f8c	  x1=0x80000f8c
        4105000	       409	00000000	00000013	addi	x0,x0,0	  x0:0x00000000
        4115000	       410	80000f64	00000013	addi	x0,x0,0	  x0:0x00000000
        4125000	       411	80000f68	020000ef	jal	x1,80000f68	  x1=0x80000f68
        4135000	       412	00000000	00000013	addi	x0,x0,0	  x0:0x00000000
        4145000	       413	80000f84	00000013	addi	x0,x0,0	  x0:0x00000000
        4155000	       414	80000f88	fcdffe6f	jal	x28,80000f88	 x28=0x80000f88
        4165000	       415	00000000	00000013	addi	x0,x0,0	  x0:0x00000000
        4175000	       416	80000f50	00000013	addi	x0,x0,0	  x0:0x00000000
        4185000	       417	80000f54	0280036f	jal	x6,80000f54	  x6=0x80000f54
        4195000	       418	00000000	00000013	addi	x0,x0,0	  x0:0x00000000
        4205000	       419	80000f78	00000013	addi	x0,x0,0	  x0:0x00000000
        4215000	       420	80000f7c	fb9ff0ef	jal	x1,80000f7c	  x1=0x80000f7c
        4225000	       421	00000000	00000013	addi	x0,x0,0	  x0:0x00000000
        4235000	       422	80000f30	00000013	addi	x0,x0,0	  x0:0x00000000
        4245000	       423	80000f34	0500036f	jal	x6,80000f34	  x6=0x80000f34
        4255000	       424	00000000	00000013	addi	x0,x0,0	  x0:0x00000000
        4265000	       425	80000f80	00000013	addi	x0,x0,0	  x0:0x00000000
        4275000	       426	80000f84	ffdffbef	jal	x23,80000f84	 x23=0x80000f84
        4285000	       427	00000000	00000013	addi	x0,x0,0	  x0:0x00000000
        4295000	       428	80000f7c	00000013	addi	x0,x0,0	  x0:0x00000000
        4305000	       429	80000f80	fc5ff0ef	jal	x1,80000f80	  x1=0x80000f80
        4315000	       430	00000000	00000013	addi	x0,x0,0	  x0:0x00000000
        4325000	       431	80000f40	00000013	addi	x0,x0,0	  x0:0x00000000
        4335000	       432	80000f44	034005ef	jal	x11,80000f44	 x11=0x80000f44
        4345000	       433	00000000	00000013	addi	x0,x0,0	  x0:0x00000000
        4355000	       434	80000f74	00000013	addi	x0,x0,0	  x0:0x00000000
        4365000	       435	80000f78	fc9ff0ef	jal	x1,80000f78	  x1=0x80000f78
        4375000	       436	00000000	00000013	addi	x0,x0,0	  x0:0x00000000
        4385000	       437	80000f3c	00000013	addi	x0,x0,0	  x0:0x00000000
        4395000	       438	80000f40	024000ef	jal	x1,80000f40	  x1=0x80000f40
        4405000	       439	00000000	00000013	addi	x0,x0,0	  x0:0x00000000
        4415000	       440	80000f60	00000013	addi	x0,x0,0	  x0:0x00000000
        4425000	       441	80000f64	fe9ff0ef	jal	x1,80000f64	  x1=0x80000f64
        4435000	       442	00000000	00000013	addi	x0,x0,0	  x0:0x00000000
        4445000	       443	80000f48	00000013	addi	x0,x0,0	  x0:0x00000000
        4455000	       444	80000f4c	ffdff0ef	jal	x1,80000f4c	  x1=0x80000f4c
        4465000	       445	00000000	00000013	addi	x0,x0,0	  x0:0x00000000
        4475000	       446	80000f44	00000013	addi	x0,x0,0	  x0:0x00000000
        4485000	       447	80000f48	ff5ff0ef	jal	x1,80000f48	  x1=0x80000f48
        4495000	       448	00000000	00000013	addi	x0,x0,0	  x0:0x00000000
        4505000	       449	80000f38	00000013	addi	x0,x0,0	  x0:0x00000000
        4515000	       450	80000f3c	024000ef	jal	x1,80000f3c	  x1=0x80000f3c
        4525000	       451	00000000	00000013	addi	x0,x0,0	  x0:0x00000000
        4535000	       452	80000f5c	00000013	addi	x0,x0,0	  x0:0x00000000
        4545000	       453	80000f60	ff1ff0ef	jal	x1,80000f60	  x1=0x80000f60
        4555000	       454	00000000	00000013	addi	x0,x0,0	  x0:0x00000000
        4565000	       455	80000f4c	00000013	addi	x0,x0,0	  x0:0x00000000
        4575000	       456	80000f50	020002ef	jal	x5,80000f50	  x5=0x80000f50
        4585000	       457	00000000	00000013	addi	x0,x0,0	  x0:0x00000000
        4595000	       458	80000f6c	00000013	addi	x0,x0,0	  x0:0x00000000
        4605000	       459	80000f70	ffdff36f	jal	x6,80000f70	  x6=0x80000f70
        4615000	       460	00000000	00000013	addi	x0,x0,0	  x0:0x00000000
        4625000	       461	80000f68	00000013	addi	x0,x0,0	  x0:0x00000000
        4635000	       462	80000f6c	024001ef	jal	x3,80000f6c	  x3=0x80000f6c
        4645000	       463	00000000	00000013	addi	x0,x0,0	  x0:0x00000000
        4655000	       464	80000f8c	00000013	addi	x0,x0,0	  x0:0x00000000
        4665000	       465	80000f90	fcdff36f	jal	x6,80000f90	  x6=0x80000f90
        4675000	       466	00000000	00000013	addi	x0,x0,0	  x0:0x00000000
        4685000	       467	80000f58	00000013	addi	x0,x0,0	  x0:0x00000000
        4695000	       468	80000f5c	fddff36f	jal	x6,80000f5c	  x6=0x80000f5c
        4705000	       469	00000000	00000013	addi	x0,x0,0	  x0:0x00000000
        4715000	       470	80000f34	00000013	addi	x0,x0,0	  x0:0x00000000
        4725000	       471	80000f38	03c000ef	jal	x1,80000f38	  x1=0x80000f38
        4735000	       472	00000000	00000013	addi	x0,x0,0	  x0:0x00000000
        4745000	       473	80000f70	00000013	addi	x0,x0,0	  x0:0x00000000
        4755000	       474	80000f74	fe5ff36f	jal	x6,80000f74	  x6=0x80000f74
        4765000	       475	00000000	00000013	addi	x0,x0,0	  x0:0x00000000
        4775000	       476	80000f54	00000013	addi	x0,x0,0	  x0:0x00000000
        4785000	       477	80000f58	03c000ef	jal	x1,80000f58	  x1=0x80000f58
        4795000	       478	00000000	00000013	addi	x0,x0,0	  x0:0x00000000
        4805000	       479	80000f90	00000013	addi	x0,x0,0	  x0:0x00000000
        4815000	       480	80000f94	8f582313	slti	x6,x16,-1803	 x16:0x80009fee  x6=0x00000001
        4825000	       481	80000f98	02c0036f	jal	x6,80000f98	  x6=0x80000f98
        4835000	       482	00000000	00000013	addi	x0,x0,0	  x0:0x00000000
        4845000	       483	80000fc0	00000013	addi	x0,x0,0	  x0:0x00000000
        4855000	       484	80000fc4	ff1ffb6f	jal	x22,80000fc4	 x22=0x80000fc4
        4865000	       485	00000000	00000013	addi	x0,x0,0	  x0:0x00000000
        4875000	       486	80000fb0	00000013	addi	x0,x0,0	  x0:0x00000000
        4885000	       487	80000fb4	fe9ff0ef	jal	x1,80000fb4	  x1=0x80000fb4
        4895000	       488	00000000	00000013	addi	x0,x0,0	  x0:0x00000000
        4905000	       489	80000f98	00000013	addi	x0,x0,0	  x0:0x00000000
        4915000	       490	80000f9c	01c0036f	jal	x6,80000f9c	  x6=0x80000f9c
        4925000	       491	00000000	00000013	addi	x0,x0,0	  x0:0x00000000
        4935000	       492	80000fb4	00000013	addi	x0,x0,0	  x0:0x00000000
        4945000	       493	80000fb8	0500036f	jal	x6,80000fb8	  x6=0x80000fb8
        4955000	       494	00000000	00000013	addi	x0,x0,0	  x0:0x00000000
        4965000	       495	80001004	00000013	addi	x0,x0,0	  x0:0x00000000
        4975000	       496	80001008	ffdff8ef	jal	x17,80001008	 x17=0x80001008
        4985000	       497	00000000	00000013	addi	x0,x0,0	  x0:0x00000000
        4995000	       498	80001000	00000013	addi	x0,x0,0	  x0:0x00000000
        5005000	       499	80001004	fa9ff0ef	jal	x1,80001004	  x1=0x80001004
        5015000	       500	00000000	00000013	addi	x0,x0,0	  x0:0x00000000
        5025000	       501	80000fa8	00000013	addi	x0,x0,0	  x0:0x00000000
        5035000	       502	80000fac	0240036f	jal	x6,80000fac	  x6=0x80000fac
        5045000	       503	00000000	00000013	addi	x0,x0,0	  x0:0x00000000
        5055000	       504	80000fcc	00000013	addi	x0,x0,0	  x0:0x00000000
        5065000	       505	80000fd0	03c0036f	jal	x6,80000fd0	  x6=0x80000fd0
        5075000	       506	00000000	00000013	addi	x0,x0,0	  x0:0x00000000
        5085000	       507	80001008	00000013	addi	x0,x0,0	  x0:0x00000000
        5095000	       508	8000100c	ff1ff0ef	jal	x1,8000100c	  x1=0x8000100c
        5105000	       509	00000000	00000013	addi	x0,x0,0	  x0:0x00000000
        5115000	       510	80000ff8	00000013	addi	x0,x0,0	  x0:0x00000000
        5125000	       511	80000ffc	ff1ffdef	jal	x27,80000ffc	 x27=0x80000ffc
        5135000	       512	00000000	00000013	addi	x0,x0,0	  x0:0x00000000
        5145000	       513	80000fe8	00000013	addi	x0,x0,0	  x0:0x00000000
        5155000	       514	80000fec	fbdff46f	jal	x8,80000fec	  x8=0x80000fec
        5165000	       515	00000000	00000013	addi	x0,x0,0	  x0:0x00000000
        5175000	       516	80000fa4	00000013	addi	x0,x0,0	  x0:0x00000000
        5185000	       517	80000fa8	0480046f	jal	x8,80000fa8	  x8=0x80000fa8
        5195000	       518	00000000	00000013	addi	x0,x0,0	  x0:0x00000000
        5205000	       519	80000fec	00000013	addi	x0,x0,0	  x0:0x00000000
        5215000	       520	80000ff0	ff9ff26f	jal	x4,80000ff0	  x4=0x80000ff0
        5225000	       521	00000000	00000013	addi	x0,x0,0	  x0:0x00000000
        5235000	       522	80000fe4	00000013	addi	x0,x0,0	  x0:0x00000000
        5245000	       523	80000fe8	fbdff0ef	jal	x1,80000fe8	  x1=0x80000fe8
        5255000	       524	00000000	00000013	addi	x0,x0,0	  x0:0x00000000
        5265000	       525	80000fa0	00000013	addi	x0,x0,0	  x0:0x00000000
        5275000	       526	80000fa4	05c006ef	jal	x13,80000fa4	 x13=0x80000fa4
        5285000	       527	00000000	00000013	addi	x0,x0,0	  x0:0x00000000
        5295000	       528	80000ffc	00000013	addi	x0,x0,0	  x0:0x00000000
        5305000	       529	80001000	fc1ff2ef	jal	x5,80001000	  x5=0x80001000
        5315000	       530	00000000	00000013	addi	x0,x0,0	  x0:0x00000000
        5325000	       531	80000fbc	00000013	addi	x0,x0,0	  x0:0x00000000
        5335000	       532	80000fc0	0200036f	jal	x6,80000fc0	  x6=0x80000fc0
        5345000	       533	00000000	00000013	addi	x0,x0,0	  x0:0x00000000
        5355000	       534	80000fdc	00000013	addi	x0,x0,0	  x0:0x00000000
        5365000	       535	80000fe0	fe9ff0ef	jal	x1,80000fe0	  x1=0x80000fe0
        5375000	       536	00000000	00000013	addi	x0,x0,0	  x0:0x00000000
        5385000	       537	80000fc4	00000013	addi	x0,x0,0	  x0:0x00000000
        5395000	       538	80000fc8	fe9ff36f	jal	x6,80000fc8	  x6=0x80000fc8
        5405000	       539	00000000	00000013	addi	x0,x0,0	  x0:0x00000000
        5415000	       540	80000fac	00000013	addi	x0,x0,0	  x0:0x00000000
        5425000	       541	80000fb0	044009ef	jal	x19,80000fb0	 x19=0x80000fb0
        5435000	       542	00000000	00000013	addi	x0,x0,0	  x0:0x00000000
        5445000	       543	80000ff0	00000013	addi	x0,x0,0	  x0:0x00000000
        5455000	       544	80000ff4	004000ef	jal	x1,80000ff4	  x1=0x80000ff4
        5465000	       545	00000000	00000013	addi	x0,x0,0	  x0:0x00000000
        5475000	       546	80000ff4	00000013	addi	x0,x0,0	  x0:0x00000000
        5485000	       547	80000ff8	fc5ff0ef	jal	x1,80000ff8	  x1=0x80000ff8
        5495000	       548	00000000	00000013	addi	x0,x0,0	  x0:0x00000000
        5505000	       549	80000fb8	00000013	addi	x0,x0,0	  x0:0x00000000
        5515000	       550	80000fbc	fe5ff1ef	jal	x3,80000fbc	  x3=0x80000fbc
        5525000	       551	00000000	00000013	addi	x0,x0,0	  x0:0x00000000
        5535000	       552	80000f9c	00000013	addi	x0,x0,0	  x0:0x00000000
        5545000	       553	80000fa0	03c0026f	jal	x4,80000fa0	  x4=0x80000fa0
        5555000	       554	00000000	00000013	addi	x0,x0,0	  x0:0x00000000
        5565000	       555	80000fd8	00000013	addi	x0,x0,0	  x0:0x00000000
        5575000	       556	80000fdc	ff9ffaef	jal	x21,80000fdc	 x21=0x80000fdc
        5585000	       557	00000000	00000013	addi	x0,x0,0	  x0:0x00000000
        5595000	       558	80000fd0	00000013	addi	x0,x0,0	  x0:0x00000000
        5605000	       559	80000fd4	03c0036f	jal	x6,80000fd4	  x6=0x80000fd4
        5615000	       560	00000000	00000013	addi	x0,x0,0	  x0:0x00000000
        5625000	       561	8000100c	00000013	addi	x0,x0,0	  x0:0x00000000
        5635000	       562	80001010	fd5ff0ef	jal	x1,80001010	  x1=0x80001010
        5645000	       563	00000000	00000013	addi	x0,x0,0	  x0:0x00000000
        5655000	       564	80000fe0	00000013	addi	x0,x0,0	  x0:0x00000000
        5665000	       565	80000fe4	fe9ff0ef	jal	x1,80000fe4	  x1=0x80000fe4
        5675000	       566	00000000	00000013	addi	x0,x0,0	  x0:0x00000000
        5685000	       567	80000fc8	00000013	addi	x0,x0,0	  x0:0x00000000
        5695000	       568	80000fcc	00c0026f	jal	x4,80000fcc	  x4=0x80000fcc
        5705000	       569	00000000	00000013	addi	x0,x0,0	  x0:0x00000000
        5715000	       570	80000fd4	00000013	addi	x0,x0,0	  x0:0x00000000
        5725000	       571	80000fd8	03c00a6f	jal	x20,80000fd8	 x20=0x80000fd8
        5735000	       572	00000000	00000013	addi	x0,x0,0	  x0:0x00000000
        5745000	       573	80001010	00000013	addi	x0,x0,0	  x0:0x00000000
        5755000	       574	80001014	019a05b3	add	x11,x20,x25	 x20:0x80000fd8 x25:0x80000ea0 x11=0x00001e78
        5765000	       575	80001018	0300036f	jal	x6,80001018	  x6=0x80001018
        5775000	       576	00000000	00000013	addi	x0,x0,0	  x0:0x00000000
        5785000	       577	80001044	00000013	addi	x0,x0,0	  x0:0x00000000
        5795000	       578	80001048	018000ef	jal	x1,80001048	  x1=0x80001048
        5805000	       579	00000000	00000013	addi	x0,x0,0	  x0:0x00000000
        5815000	       580	8000105c	00000013	addi	x0,x0,0	  x0:0x00000000
        5825000	       581	80001060	fddff4ef	jal	x9,80001060	  x9=0x80001060
        5835000	       582	00000000	00000013	addi	x0,x0,0	  x0:0x00000000
        5845000	       583	80001038	00000013	addi	x0,x0,0	  x0:0x00000000
        5855000	       584	8000103c	fe9ff5ef	jal	x11,8000103c	 x11=0x8000103c
        5865000	       585	00000000	00000013	addi	x0,x0,0	  x0:0x00000000
        5875000	       586	80001020	00000013	addi	x0,x0,0	  x0:0x00000000
        5885000	       587	80001024	0280076f	jal	x14,80001024	 x14=0x80001024
        5895000	       588	00000000	00000013	addi	x0,x0,0	  x0:0x00000000
        5905000	       589	80001048	00000013	addi	x0,x0,0	  x0:0x00000000
        5915000	       590	8000104c	00400fef	jal	x31,8000104c	 x31=0x8000104c
        5925000	       591	00000000	00000013	addi	x0,x0,0	  x0:0x00000000
        5935000	       592	8000104c	00000013	addi	x0,x0,0	  x0:0x00000000
        5945000	       593	80001050	ff1ff0ef	jal	x1,80001050	  x1=0x80001050
        5955000	       594	00000000	00000013	addi	x0,x0,0	  x0:0x00000000
        5965000	       595	8000103c	00000013	addi	x0,x0,0	  x0:0x00000000
        5975000	       596	80001040	fe9ff5ef	jal	x11,80001040	 x11=0x80001040
        5985000	       597	00000000	00000013	addi	x0,x0,0	  x0:0x00000000
        5995000	       598	80001024	00000013	addi	x0,x0,0	  x0:0x00000000
        6005000	       599	80001028	00400b6f	jal	x22,80001028	 x22=0x80001028
        6015000	       600	00000000	00000013	addi	x0,x0,0	  x0:0x00000000
        6025000	       601	80001028	00000013	addi	x0,x0,0	  x0:0x00000000
        6035000	       602	8000102c	ff1ff0ef	jal	x1,8000102c	  x1=0x8000102c
        6045000	       603	00000000	00000013	addi	x0,x0,0	  x0:0x00000000
        6055000	       604	80001018	00000013	addi	x0,x0,0	  x0:0x00000000
        6065000	       605	8000101c	0140036f	jal	x6,8000101c	  x6=0x8000101c
        6075000	       606	00000000	00000013	addi	x0,x0,0	  x0:0x00000000
        6085000	       607	8000102c	00000013	addi	x0,x0,0	  x0:0x00000000
        6095000	       608	80001030	004001ef	jal	x3,80001030	  x3=0x80001030
        6105000	       609	00000000	00000013	addi	x0,x0,0	  x0:0x00000000
        6115000	       610	80001030	00000013	addi	x0,x0,0	  x0:0x00000000
        6125000	       611	80001034	024000ef	jal	x1,80001034	  x1=0x80001034
        6135000	       612	00000000	00000013	addi	x0,x0,0	  x0:0x00000000
        6145000	       613	80001054	00000013	addi	x0,x0,0	  x0:0x00000000
        6155000	       614	80001058	ffdff4ef	jal	x9,80001058	  x9=0x80001058
        6165000	       615	00000000	00000013	addi	x0,x0,0	  x0:0x00000000
        6175000	       616	80001050	00000013	addi	x0,x0,0	  x0:0x00000000
        6185000	       617	80001054	008000ef	jal	x1,80001054	  x1=0x80001054
        6195000	       618	00000000	00000013	addi	x0,x0,0	  x0:0x00000000
        6205000	       619	80001058	00000013	addi	x0,x0,0	  x0:0x00000000
        6215000	       620	8000105c	fddff0ef	jal	x1,8000105c	  x1=0x8000105c
        6225000	       621	00000000	00000013	addi	x0,x0,0	  x0:0x00000000
        6235000	       622	80001034	00000013	addi	x0,x0,0	  x0:0x00000000
        6245000	       623	80001038	fe9ff0ef	jal	x1,80001038	  x1=0x80001038
        6255000	       624	00000000	00000013	addi	x0,x0,0	  x0:0x00000000
        6265000	       625	8000101c	00000013	addi	x0,x0,0	  x0:0x00000000
        6275000	       626	80001020	048000ef	jal	x1,80001020	  x1=0x80001020
        6285000	       627	00000000	00000013	addi	x0,x0,0	  x0:0x00000000
        6295000	       628	80001064	00000013	addi	x0,x0,0	  x0:0x00000000
        6305000	       629	80001068	fddffe6f	jal	x28,80001068	 x28=0x80001068
        6315000	       630	00000000	00000013	addi	x0,x0,0	  x0:0x00000000
        6325000	       631	80001040	00000013	addi	x0,x0,0	  x0:0x00000000
        6335000	       632	80001044	020000ef	jal	x1,80001044	  x1=0x80001044
        6345000	       633	00000000	00000013	addi	x0,x0,0	  x0:0x00000000
        6355000	       634	80001060	00000013	addi	x0,x0,0	  x0:0x00000000
        6365000	       635	80001064	00800f6f	jal	x30,80001064	 x30=0x80001064
        6375000	       636	00000000	00000013	addi	x0,x0,0	  x0:0x00000000
        6385000	       637	80001068	00000013	addi	x0,x0,0	  x0:0x00000000
        6395000	       638	8000106c	0f52a913	slti	x18,x5,245	  x5:0x80001000 x18=0x00000001
        6405000	       639	80001070	0700036f	jal	x6,80001070	  x6=0x80001070
        6415000	       640	00000000	00000013	addi	x0,x0,0	  x0:0x00000000
        6425000	       641	800010dc	00000013	addi	x0,x0,0	  x0:0x00000000
        6435000	       642	800010e0	fb9ff76f	jal	x14,800010e0	 x14=0x800010e0
        6445000	       643	00000000	00000013	addi	x0,x0,0	  x0:0x00000000
        6455000	       644	80001094	00000013	addi	x0,x0,0	  x0:0x00000000
        6465000	       645	80001098	0300036f	jal	x6,80001098	  x6=0x80001098
        6475000	       646	00000000	00000013	addi	x0,x0,0	  x0:0x00000000
        6485000	       647	800010c4	00000013	addi	x0,x0,0	  x0:0x00000000
        6495000	       648	800010c8	008001ef	jal	x3,800010c8	  x3=0x800010c8
        6505000	       649	00000000	00000013	addi	x0,x0,0	  x0:0x00000000
        6515000	       650	800010cc	00000013	addi	x0,x0,0	  x0:0x00000000
        6525000	       651	800010d0	ff5ff0ef	jal	x1,800010d0	  x1=0x800010d0
        6535000	       652	00000000	00000013	addi	x0,x0,0	  x0:0x00000000
        6545000	       653	800010c0	00000013	addi	x0,x0,0	  x0:0x00000000
        6555000	       654	800010c4	fedff5ef	jal	x11,800010c4	 x11=0x800010c4
        6565000	       655	00000000	00000013	addi	x0,x0,0	  x0:0x00000000
        6575000	       656	800010ac	00000013	addi	x0,x0,0	  x0:0x00000000
        6585000	       657	800010b0	ff9ff76f	jal	x14,800010b0	 x14=0x800010b0
        6595000	       658	00000000	00000013	addi	x0,x0,0	  x0:0x00000000
        6605000	       659	800010a4	00000013	addi	x0,x0,0	  x0:0x00000000
        6615000	       660	800010a8	fedff0ef	jal	x1,800010a8	  x1=0x800010a8
        6625000	       661	00000000	00000013	addi	x0,x0,0	  x0:0x00000000
        6635000	       662	80001090	00000013	addi	x0,x0,0	  x0:0x00000000
        6645000	       663	80001094	fedff0ef	jal	x1,80001094	  x1=0x80001094
        6655000	       664	00000000	00000013	addi	x0,x0,0	  x0:0x00000000
        6665000	       665	8000107c	00000013	addi	x0,x0,0	  x0:0x00000000
        6675000	       666	80001080	01c000ef	jal	x1,80001080	  x1=0x80001080
        6685000	       667	00000000	00000013	addi	x0,x0,0	  x0:0x00000000
        6695000	       668	80001098	00000013	addi	x0,x0,0	  x0:0x00000000
        6705000	       669	8000109c	fe9ff0ef	jal	x1,8000109c	  x1=0x8000109c
        6715000	       670	00000000	00000013	addi	x0,x0,0	  x0:0x00000000
        6725000	       671	80001080	00000013	addi	x0,x0,0	  x0:0x00000000
        6735000	       672	80001084	0580056f	jal	x10,80001084	 x10=0x80001084
        6745000	       673	00000000	00000013	addi	x0,x0,0	  x0:0x00000000
        6755000	       674	800010d8	00000013	addi	x0,x0,0	  x0:0x00000000
        6765000	       675	800010dc	fa1ff0ef	jal	x1,800010dc	  x1=0x800010dc
        6775000	       676	00000000	00000013	addi	x0,x0,0	  x0:0x00000000
        6785000	       677	80001078	00000013	addi	x0,x0,0	  x0:0x00000000
        6795000	       678	8000107c	0440036f	jal	x6,8000107c	  x6=0x8000107c
        6805000	       679	00000000	00000013	addi	x0,x0,0	  x0:0x00000000
        6815000	       680	800010bc	00000013	addi	x0,x0,0	  x0:0x00000000
        6825000	       681	800010c0	fd1ff0ef	jal	x1,800010c0	  x1=0x800010c0
        6835000	       682	00000000	00000013	addi	x0,x0,0	  x0:0x00000000
        6845000	       683	8000108c	00000013	addi	x0,x0,0	  x0:0x00000000
        6855000	       684	80001090	fe5ff0ef	jal	x1,80001090	  x1=0x80001090
        6865000	       685	00000000	00000013	addi	x0,x0,0	  x0:0x00000000
        6875000	       686	80001070	00000013	addi	x0,x0,0	  x0:0x00000000
        6885000	       687	80001074	040000ef	jal	x1,80001074	  x1=0x80001074
        6895000	       688	00000000	00000013	addi	x0,x0,0	  x0:0x00000000
        6905000	       689	800010b0	00000013	addi	x0,x0,0	  x0:0x00000000
        6915000	       690	800010b4	024000ef	jal	x1,800010b4	  x1=0x800010b4
        6925000	       691	00000000	00000013	addi	x0,x0,0	  x0:0x00000000
        6935000	       692	800010d4	00000013	addi	x0,x0,0	  x0:0x00000000
        6945000	       693	800010d8	fe5ff2ef	jal	x5,800010d8	  x5=0x800010d8
        6955000	       694	00000000	00000013	addi	x0,x0,0	  x0:0x00000000
        6965000	       695	800010b8	00000013	addi	x0,x0,0	  x0:0x00000000
        6975000	       696	800010bc	fe5ff36f	jal	x6,800010bc	  x6=0x800010bc
        6985000	       697	00000000	00000013	addi	x0,x0,0	  x0:0x00000000
        6995000	       698	8000109c	00000013	addi	x0,x0,0	  x0:0x00000000
        7005000	       699	800010a0	fd9ff0ef	jal	x1,800010a0	  x1=0x800010a0
        7015000	       700	00000000	00000013	addi	x0,x0,0	  x0:0x00000000
        7025000	       701	80001074	00000013	addi	x0,x0,0	  x0:0x00000000
        7035000	       702	80001078	054000ef	jal	x1,80001078	  x1=0x80001078
        7045000	       703	00000000	00000013	addi	x0,x0,0	  x0:0x00000000
        7055000	       704	800010c8	00000013	addi	x0,x0,0	  x0:0x00000000
        7065000	       705	800010cc	fe1ff36f	jal	x6,800010cc	  x6=0x800010cc
        7075000	       706	00000000	00000013	addi	x0,x0,0	  x0:0x00000000
        7085000	       707	800010a8	00000013	addi	x0,x0,0	  x0:0x00000000
        7095000	       708	800010ac	00c0036f	jal	x6,800010ac	  x6=0x800010ac
        7105000	       709	00000000	00000013	addi	x0,x0,0	  x0:0x00000000
        7115000	       710	800010b4	00000013	addi	x0,x0,0	  x0:0x00000000
        7125000	       711	800010b8	01c00f6f	jal	x30,800010b8	 x30=0x800010b8
        7135000	       712	00000000	00000013	addi	x0,x0,0	  x0:0x00000000
        7145000	       713	800010d0	00000013	addi	x0,x0,0	  x0:0x00000000
        7155000	       714	800010d4	fd1ff1ef	jal	x3,800010d4	  x3=0x800010d4
        7165000	       715	00000000	00000013	addi	x0,x0,0	  x0:0x00000000
        7175000	       716	800010a0	00000013	addi	x0,x0,0	  x0:0x00000000
        7185000	       717	800010a4	fe5ff0ef	jal	x1,800010a4	  x1=0x800010a4
        7195000	       718	00000000	00000013	addi	x0,x0,0	  x0:0x00000000
        7205000	       719	80001084	00000013	addi	x0,x0,0	  x0:0x00000000
        7215000	       720	80001088	0040036f	jal	x6,80001088	  x6=0x80001088
        7225000	       721	00000000	00000013	addi	x0,x0,0	  x0:0x00000000
        7235000	       722	80001088	00000013	addi	x0,x0,0	  x0:0x00000000
        7245000	       723	8000108c	0580036f	jal	x6,8000108c	  x6=0x8000108c
        7255000	       724	00000000	00000013	addi	x0,x0,0	  x0:0x00000000
        7265000	       725	800010e0	00000013	addi	x0,x0,0	  x0:0x00000000
        7275000	       726	800010e4	00000013	addi	x0,x0,0	  x0:0x00000000
        7285000	       727	800010e8	0300036f	jal	x6,800010e8	  x6=0x800010e8
        7295000	       728	00000000	00000013	addi	x0,x0,0	  x0:0x00000000
        7305000	       729	80001114	00000013	addi	x0,x0,0	  x0:0x00000000
        7315000	       730	80001118	fe1ff36f	jal	x6,80001118	  x6=0x80001118
        7325000	       731	00000000	00000013	addi	x0,x0,0	  x0:0x00000000
        7335000	       732	800010f4	00000013	addi	x0,x0,0	  x0:0x00000000
        7345000	       733	800010f8	ff9ff7ef	jal	x15,800010f8	 x15=0x800010f8
        7355000	       734	00000000	00000013	addi	x0,x0,0	  x0:0x00000000
        7365000	       735	800010ec	00000013	addi	x0,x0,0	  x0:0x00000000
        7375000	       736	800010f0	ffdff36f	jal	x6,800010f0	  x6=0x800010f0
        7385000	       737	00000000	00000013	addi	x0,x0,0	  x0:0x00000000
        7395000	       738	800010e8	00000013	addi	x0,x0,0	  x0:0x00000000
        7405000	       739	800010ec	0340036f	jal	x6,800010ec	  x6=0x800010ec
        7415000	       740	00000000	00000013	addi	x0,x0,0	  x0:0x00000000
        7425000	       741	8000111c	00000013	addi	x0,x0,0	  x0:0x00000000
        7435000	       742	80001120	fe5ff26f	jal	x4,80001120	  x4=0x80001120
        7445000	       743	00000000	00000013	addi	x0,x0,0	  x0:0x00000000
        7455000	       744	80001100	00000013	addi	x0,x0,0	  x0:0x00000000
        7465000	       745	80001104	0100036f	jal	x6,80001104	  x6=0x80001104
        7475000	       746	00000000	00000013	addi	x0,x0,0	  x0:0x00000000
        7485000	       747	80001110	00000013	addi	x0,x0,0	  x0:0x00000000
        7495000	       748	80001114	fe9ff36f	jal	x6,80001114	  x6=0x80001114
        7505000	       749	00000000	00000013	addi	x0,x0,0	  x0:0x00000000
        7515000	       750	800010f8	00000013	addi	x0,x0,0	  x0:0x00000000
        7525000	       751	800010fc	ff9ff0ef	jal	x1,800010fc	  x1=0x800010fc
        7535000	       752	00000000	00000013	addi	x0,x0,0	  x0:0x00000000
        7545000	       753	800010f0	00000013	addi	x0,x0,0	  x0:0x00000000
        7555000	       754	800010f4	00c0036f	jal	x6,800010f4	  x6=0x800010f4
        7565000	       755	00000000	00000013	addi	x0,x0,0	  x0:0x00000000
        7575000	       756	800010fc	00000013	addi	x0,x0,0	  x0:0x00000000
        7585000	       757	80001100	0100036f	jal	x6,80001100	  x6=0x80001100
        7595000	       758	00000000	00000013	addi	x0,x0,0	  x0:0x00000000
        7605000	       759	8000110c	00000013	addi	x0,x0,0	  x0:0x00000000
        7615000	       760	80001110	00c000ef	jal	x1,80001110	  x1=0x80001110
        7625000	       761	00000000	00000013	addi	x0,x0,0	  x0:0x00000000
        7635000	       762	80001118	00000013	addi	x0,x0,0	  x0:0x00000000
        7645000	       763	8000111c	fedff0ef	jal	x1,8000111c	  x1=0x8000111c
        7655000	       764	00000000	00000013	addi	x0,x0,0	  x0:0x00000000
        7665000	       765	80001104	00000013	addi	x0,x0,0	  x0:0x00000000
        7675000	       766	80001108	004000ef	jal	x1,80001108	  x1=0x80001108
        7685000	       767	00000000	00000013	addi	x0,x0,0	  x0:0x00000000
        7695000	       768	80001108	00000013	addi	x0,x0,0	  x0:0x00000000
        7705000	       769	8000110c	0180036f	jal	x6,8000110c	  x6=0x8000110c
        7715000	       770	00000000	00000013	addi	x0,x0,0	  x0:0x00000000
        7725000	       771	80001120	00000013	addi	x0,x0,0	  x0:0x00000000
        7735000	       772	80001124	415f0333	sub	x6,x30,x21	 x30:0x800010b8 x21:0x80000fdc  x6=0x000000dc
        7745000	       773	80001128	0180036f	jal	x6,80001128	  x6=0x80001128
        7755000	       774	00000000	00000013	addi	x0,x0,0	  x0:0x00000000
        7765000	       775	8000113c	00000013	addi	x0,x0,0	  x0:0x00000000
        7775000	       776	80001140	0240036f	jal	x6,80001140	  x6=0x80001140
        7785000	       777	00000000	00000013	addi	x0,x0,0	  x0:0x00000000
        7795000	       778	80001160	00000013	addi	x0,x0,0	  x0:0x00000000
        7805000	       779	80001164	fe1ffa6f	jal	x20,80001164	 x20=0x80001164
        7815000	       780	00000000	00000013	addi	x0,x0,0	  x0:0x00000000
        7825000	       781	80001140	00000013	addi	x0,x0,0	  x0:0x00000000
        7835000	       782	80001144	fe9ff0ef	jal	x1,80001144	  x1=0x80001144
        7845000	       783	00000000	00000013	addi	x0,x0,0	  x0:0x00000000
        7855000	       784	80001128	00000013	addi	x0,x0,0	  x0:0x00000000
        7865000	       785	8000112c	0040036f	jal	x6,8000112c	  x6=0x8000112c
        7875000	       786	00000000	00000013	addi	x0,x0,0	  x0:0x00000000
        7885000	       787	8000112c	00000013	addi	x0,x0,0	  x0:0x00000000
        7895000	       788	80001130	018009ef	jal	x19,80001130	 x19=0x80001130
        7905000	       789	00000000	00000013	addi	x0,x0,0	  x0:0x00000000
        7915000	       790	80001144	00000013	addi	x0,x0,0	  x0:0x00000000
        7925000	       791	80001148	004000ef	jal	x1,80001148	  x1=0x80001148
        7935000	       792	00000000	00000013	addi	x0,x0,0	  x0:0x00000000
        7945000	       793	80001148	00000013	addi	x0,x0,0	  x0:0x00000000
        7955000	       794	8000114c	fedff0ef	jal	x1,8000114c	  x1=0x8000114c
        7965000	       795	00000000	00000013	addi	x0,x0,0	  x0:0x00000000
        7975000	       796	80001134	00000013	addi	x0,x0,0	  x0:0x00000000
        7985000	       797	80001138	004000ef	jal	x1,80001138	  x1=0x80001138
        7995000	       798	00000000	00000013	addi	x0,x0,0	  x0:0x00000000
        8005000	       799	80001138	00000013	addi	x0,x0,0	  x0:0x00000000
        8015000	       800	8000113c	014000ef	jal	x1,8000113c	  x1=0x8000113c
        8025000	       801	00000000	00000013	addi	x0,x0,0	  x0:0x00000000
        8035000	       802	8000114c	00000013	addi	x0,x0,0	  x0:0x00000000
        8045000	       803	80001150	fe5ff0ef	jal	x1,80001150	  x1=0x80001150
        8055000	       804	00000000	00000013	addi	x0,x0,0	  x0:0x00000000
        8065000	       805	80001130	00000013	addi	x0,x0,0	  x0:0x00000000
        8075000	       806	80001134	024000ef	jal	x1,80001134	  x1=0x80001134
        8085000	       807	00000000	00000013	addi	x0,x0,0	  x0:0x00000000
        8095000	       808	80001154	00000013	addi	x0,x0,0	  x0:0x00000000
        8105000	       809	80001158	0040036f	jal	x6,80001158	  x6=0x80001158
        8115000	       810	00000000	00000013	addi	x0,x0,0	  x0:0x00000000
        8125000	       811	80001158	00000013	addi	x0,x0,0	  x0:0x00000000
        8135000	       812	8000115c	ff9ffaef	jal	x21,8000115c	 x21=0x8000115c
        8145000	       813	00000000	00000013	addi	x0,x0,0	  x0:0x00000000
        8155000	       814	80001150	00000013	addi	x0,x0,0	  x0:0x00000000
        8165000	       815	80001154	00c0036f	jal	x6,80001154	  x6=0x80001154
        8175000	       816	00000000	00000013	addi	x0,x0,0	  x0:0x00000000
        8185000	       817	8000115c	00000013	addi	x0,x0,0	  x0:0x00000000
        8195000	       818	80001160	008000ef	jal	x1,80001160	  x1=0x80001160
        8205000	       819	00000000	00000013	addi	x0,x0,0	  x0:0x00000000
        8215000	       820	80001164	00000013	addi	x0,x0,0	  x0:0x00000000
        8225000	       821	80001168	0132f633	and	x12,x5,x19	  x5:0x800010d8 x19:0x80001130 x12=0x80001010
        8235000	       822	8000116c	0380036f	jal	x6,8000116c	  x6=0x8000116c
        8245000	       823	00000000	00000013	addi	x0,x0,0	  x0:0x00000000
        8255000	       824	800011a0	00000013	addi	x0,x0,0	  x0:0x00000000
        8265000	       825	800011a4	fe5ff2ef	jal	x5,800011a4	  x5=0x800011a4
        8275000	       826	00000000	00000013	addi	x0,x0,0	  x0:0x00000000
        8285000	       827	80001184	00000013	addi	x0,x0,0	  x0:0x00000000
        8295000	       828	80001188	02c004ef	jal	x9,80001188	  x9=0x80001188
        8305000	       829	00000000	00000013	addi	x0,x0,0	  x0:0x00000000
        8315000	       830	800011b0	00000013	addi	x0,x0,0	  x0:0x00000000
        8325000	       831	800011b4	fc9ff0ef	jal	x1,800011b4	  x1=0x800011b4
        8335000	       832	00000000	00000013	addi	x0,x0,0	  x0:0x00000000
        8345000	       833	80001178	00000013	addi	x0,x0,0	  x0:0x00000000
        8355000	       834	8000117c	048000ef	jal	x1,8000117c	  x1=0x8000117c
        8365000	       835	00000000	00000013	addi	x0,x0,0	  x0:0x00000000
        8375000	       836	800011c0	00000013	addi	x0,x0,0	  x0:0x00000000
        8385000	       837	800011c4	fcdff0ef	jal	x1,800011c4	  x1=0x800011c4
        8395000	       838	00000000	00000013	addi	x0,x0,0	  x0:0x00000000
        8405000	       839	8000118c	00000013	addi	x0,x0,0	  x0:0x00000000
        8415000	       840	80001190	ff5ff0ef	jal	x1,80001190	  x1=0x80001190
        8425000	       841	00000000	00000013	addi	x0,x0,0	  x0:0x00000000
        8435000	       842	80001180	00000013	addi	x0,x0,0	  x0:0x00000000
        8445000	       843	80001184	024000ef	jal	x1,80001184	  x1=0x80001184
        8455000	       844	00000000	00000013	addi	x0,x0,0	  x0:0x00000000
        8465000	       845	800011a4	00000013	addi	x0,x0,0	  x0:0x00000000
        8475000	       846	800011a8	0240036f	jal	x6,800011a8	  x6=0x800011a8
        8485000	       847	00000000	00000013	addi	x0,x0,0	  x0:0x00000000
        8495000	       848	800011c8	00000013	addi	x0,x0,0	  x0:0x00000000
        8505000	       849	800011cc	fb5ff0ef	jal	x1,800011cc	  x1=0x800011cc
        8515000	       850	00000000	00000013	addi	x0,x0,0	  x0:0x00000000
        8525000	       851	8000117c	00000013	addi	x0,x0,0	  x0:0x00000000
        8535000	       852	80001180	018000ef	jal	x1,80001180	  x1=0x80001180
        8545000	       853	00000000	00000013	addi	x0,x0,0	  x0:0x00000000
        8555000	       854	80001194	00000013	addi	x0,x0,0	  x0:0x00000000
        8565000	       855	80001198	008000ef	jal	x1,80001198	  x1=0x80001198
        8575000	       856	00000000	00000013	addi	x0,x0,0	  x0:0x00000000
        8585000	       857	8000119c	00000013	addi	x0,x0,0	  x0:0x00000000
        8595000	       858	800011a0	030005ef	jal	x11,800011a0	 x11=0x800011a0
        8605000	       859	00000000	00000013	addi	x0,x0,0	  x0:0x00000000
        8615000	       860	800011cc	00000013	addi	x0,x0,0	  x0:0x00000000
        8625000	       861	800011d0	fbdff0ef	jal	x1,800011d0	  x1=0x800011d0
        8635000	       862	00000000	00000013	addi	x0,x0,0	  x0:0x00000000
        8645000	       863	80001188	00000013	addi	x0,x0,0	  x0:0x00000000
        8655000	       864	8000118c	0200036f	jal	x6,8000118c	  x6=0x8000118c
        8665000	       865	00000000	00000013	addi	x0,x0,0	  x0:0x00000000
        8675000	       866	800011a8	00000013	addi	x0,x0,0	  x0:0x00000000
        8685000	       867	800011ac	028000ef	jal	x1,800011ac	  x1=0x800011ac
        8695000	       868	00000000	00000013	addi	x0,x0,0	  x0:0x00000000
        8705000	       869	800011d0	00000013	addi	x0,x0,0	  x0:0x00000000
        8715000	       870	800011d4	fa1ff0ef	jal	x1,800011d4	  x1=0x800011d4
        8725000	       871	00000000	00000013	addi	x0,x0,0	  x0:0x00000000
        8735000	       872	80001170	00000013	addi	x0,x0,0	  x0:0x00000000
        8745000	       873	80001174	048000ef	jal	x1,80001174	  x1=0x80001174
        8755000	       874	00000000	00000013	addi	x0,x0,0	  x0:0x00000000
        8765000	       875	800011b8	00000013	addi	x0,x0,0	  x0:0x00000000
        8775000	       876	800011bc	fd9ff0ef	jal	x1,800011bc	  x1=0x800011bc
        8785000	       877	00000000	00000013	addi	x0,x0,0	  x0:0x00000000
        8795000	       878	80001190	00000013	addi	x0,x0,0	  x0:0x00000000
        8805000	       879	80001194	024002ef	jal	x5,80001194	  x5=0x80001194
        8815000	       880	00000000	00000013	addi	x0,x0,0	  x0:0x00000000
        8825000	       881	800011b4	00000013	addi	x0,x0,0	  x0:0x00000000
        8835000	       882	800011b8	fb9ff0ef	jal	x1,800011b8	  x1=0x800011b8
        8845000	       883	00000000	00000013	addi	x0,x0,0	  x0:0x00000000
        8855000	       884	8000116c	00000013	addi	x0,x0,0	  x0:0x00000000
        8865000	       885	80001170	008000ef	jal	x1,80001170	  x1=0x80001170
        8875000	       886	00000000	00000013	addi	x0,x0,0	  x0:0x00000000
        8885000	       887	80001174	00000013	addi	x0,x0,0	  x0:0x00000000
        8895000	       888	80001178	050000ef	jal	x1,80001178	  x1=0x80001178
        8905000	       889	00000000	00000013	addi	x0,x0,0	  x0:0x00000000
        8915000	       890	800011c4	00000013	addi	x0,x0,0	  x0:0x00000000
        8925000	       891	800011c8	ff9ff46f	jal	x8,800011c8	  x8=0x800011c8
        8935000	       892	00000000	00000013	addi	x0,x0,0	  x0:0x00000000
        8945000	       893	800011bc	00000013	addi	x0,x0,0	  x0:0x00000000
        8955000	       894	800011c0	fddff36f	jal	x6,800011c0	  x6=0x800011c0
        8965000	       895	00000000	00000013	addi	x0,x0,0	  x0:0x00000000
        8975000	       896	80001198	00000013	addi	x0,x0,0	  x0:0x00000000
        8985000	       897	8000119c	0140036f	jal	x6,8000119c	  x6=0x8000119c
        8995000	       898	00000000	00000013	addi	x0,x0,0	  x0:0x00000000
        9005000	       899	800011ac	00000013	addi	x0,x0,0	  x0:0x00000000
        9015000	       900	800011b0	0280036f	jal	x6,800011b0	  x6=0x800011b0
        9025000	       901	00000000	00000013	addi	x0,x0,0	  x0:0x00000000
        9035000	       902	800011d4	00000013	addi	x0,x0,0	  x0:0x00000000
        9045000	       903	800011d8	776ac593	xori	x11,x21,1910	 x21:0x8000115c x11=0x8000162a
        9055000	       904	800011dc	0080036f	jal	x6,800011dc	  x6=0x800011dc
        9065000	       905	00000000	00000013	addi	x0,x0,0	  x0:0x00000000
        9075000	       906	800011e0	00000013	addi	x0,x0,0	  x0:0x00000000
        9085000	       907	800011e4	ffdff0ef	jal	x1,800011e4	  x1=0x800011e4
        9095000	       908	00000000	00000013	addi	x0,x0,0	  x0:0x00000000
        9105000	       909	800011dc	00000013	addi	x0,x0,0	  x0:0x00000000
        9115000	       910	800011e0	0200056f	jal	x10,800011e0	 x10=0x800011e0
        9125000	       911	00000000	00000013	addi	x0,x0,0	  x0:0x00000000
        9135000	       912	800011fc	00000013	addi	x0,x0,0	  x0:0x00000000
        9145000	       913	80001200	ffdff1ef	jal	x3,80001200	  x3=0x80001200
        9155000	       914	00000000	00000013	addi	x0,x0,0	  x0:0x00000000
        9165000	       915	800011f8	00000013	addi	x0,x0,0	  x0:0x00000000
        9175000	       916	800011fc	ff9ff2ef	jal	x5,800011fc	  x5=0x800011fc
        9185000	       917	00000000	00000013	addi	x0,x0,0	  x0:0x00000000
        9195000	       918	800011f0	00000013	addi	x0,x0,0	  x0:0x00000000
        9205000	       919	800011f4	004000ef	jal	x1,800011f4	  x1=0x800011f4
        9215000	       920	00000000	00000013	addi	x0,x0,0	  x0:0x00000000
        9225000	       921	800011f4	00000013	addi	x0,x0,0	  x0:0x00000000
        9235000	       922	800011f8	00c000ef	jal	x1,800011f8	  x1=0x800011f8
        9245000	       923	00000000	00000013	addi	x0,x0,0	  x0:0x00000000
        9255000	       924	80001200	00000013	addi	x0,x0,0	  x0:0x00000000
        9265000	       925	80001204	0040036f	jal	x6,80001204	  x6=0x80001204
        9275000	       926	00000000	00000013	addi	x0,x0,0	  x0:0x00000000
        9285000	       927	80001204	00000013	addi	x0,x0,0	  x0:0x00000000
        9295000	       928	80001208	fe5ff36f	jal	x6,80001208	  x6=0x80001208
        9305000	       929	00000000	00000013	addi	x0,x0,0	  x0:0x00000000
        9315000	       930	800011e8	00000013	addi	x0,x0,0	  x0:0x00000000
        9325000	       931	800011ec	004000ef	jal	x1,800011ec	  x1=0x800011ec
        9335000	       932	00000000	00000013	addi	x0,x0,0	  x0:0x00000000
        9345000	       933	800011ec	00000013	addi	x0,x0,0	  x0:0x00000000
        9355000	       934	800011f0	ff9ff0ef	jal	x1,800011f0	  x1=0x800011f0
        9365000	       935	00000000	00000013	addi	x0,x0,0	  x0:0x00000000
        9375000	       936	800011e4	00000013	addi	x0,x0,0	  x0:0x00000000
        9385000	       937	800011e8	0240036f	jal	x6,800011e8	  x6=0x800011e8
        9395000	       938	00000000	00000013	addi	x0,x0,0	  x0:0x00000000
        9405000	       939	80001208	00000013	addi	x0,x0,0	  x0:0x00000000
        9415000	       940	8000120c	01597933	and	x18,x18,x21	 x18:0x00000001 x21:0x8000115c x18=0x00000000
        9425000	       941	80001210	0740036f	jal	x6,80001210	  x6=0x80001210
        9435000	       942	00000000	00000013	addi	x0,x0,0	  x0:0x00000000
        9445000	       943	80001280	00000013	addi	x0,x0,0	  x0:0x00000000
        9455000	       944	80001284	ff1ff0ef	jal	x1,80001284	  x1=0x80001284
        9465000	       945	00000000	00000013	addi	x0,x0,0	  x0:0x00000000
        9475000	       946	80001270	00000013	addi	x0,x0,0	  x0:0x00000000
        9485000	       947	80001274	fc9ff0ef	jal	x1,80001274	  x1=0x80001274
        9495000	       948	00000000	00000013	addi	x0,x0,0	  x0:0x00000000
        9505000	       949	80001238	00000013	addi	x0,x0,0	  x0:0x00000000
        9515000	       950	8000123c	014000ef	jal	x1,8000123c	  x1=0x8000123c
        9525000	       951	00000000	00000013	addi	x0,x0,0	  x0:0x00000000
        9535000	       952	8000124c	00000013	addi	x0,x0,0	  x0:0x00000000
        9545000	       953	80001250	0140036f	jal	x6,80001250	  x6=0x80001250
        9555000	       954	00000000	00000013	addi	x0,x0,0	  x0:0x00000000
        9565000	       955	80001260	00000013	addi	x0,x0,0	  x0:0x00000000
        9575000	       956	80001264	018000ef	jal	x1,80001264	  x1=0x80001264
        9585000	       957	00000000	00000013	addi	x0,x0,0	  x0:0x00000000
        9595000	       958	80001278	00000013	addi	x0,x0,0	  x0:0x00000000
        9605000	       959	8000127c	fcdfffef	jal	x31,8000127c	 x31=0x8000127c
        9615000	       960	00000000	00000013	addi	x0,x0,0	  x0:0x00000000
        9625000	       961	80001244	00000013	addi	x0,x0,0	  x0:0x00000000
        9635000	       962	80001248	fe1ff0ef	jal	x1,80001248	  x1=0x80001248
        9645000	       963	00000000	00000013	addi	x0,x0,0	  x0:0x00000000
        9655000	       964	80001224	00000013	addi	x0,x0,0	  x0:0x00000000
        9665000	       965	80001228	0300036f	jal	x6,80001228	  x6=0x80001228
        9675000	       966	00000000	00000013	addi	x0,x0,0	  x0:0x00000000
        9685000	       967	80001254	00000013	addi	x0,x0,0	  x0:0x00000000
        9695000	       968	80001258	030009ef	jal	x19,80001258	 x19=0x80001258
        9705000	       969	00000000	00000013	addi	x0,x0,0	  x0:0x00000000
        9715000	       970	80001284	00000013	addi	x0,x0,0	  x0:0x00000000
        9725000	       971	80001288	fa5ff0ef	jal	x1,80001288	  x1=0x80001288
        9735000	       972	00000000	00000013	addi	x0,x0,0	  x0:0x00000000
        9745000	       973	80001228	00000013	addi	x0,x0,0	  x0:0x00000000
        9755000	       974	8000122c	03c0036f	jal	x6,8000122c	  x6=0x8000122c
        9765000	       975	00000000	00000013	addi	x0,x0,0	  x0:0x00000000
        9775000	       976	80001264	00000013	addi	x0,x0,0	  x0:0x00000000
        9785000	       977	80001268	ff5ff0ef	jal	x1,80001268	  x1=0x80001268
        9795000	       978	00000000	00000013	addi	x0,x0,0	  x0:0x00000000
        9805000	       979	80001258	00000013	addi	x0,x0,0	  x0:0x00000000
        9815000	       980	8000125c	01400f6f	jal	x30,8000125c	 x30=0x8000125c
        9825000	       981	00000000	00000013	addi	x0,x0,0	  x0:0x00000000
        9835000	       982	8000126c	00000013	addi	x0,x0,0	  x0:0x00000000
        9845000	       983	80001270	fa5ff0ef	jal	x1,80001270	  x1=0x80001270
        9855000	       984	00000000	00000013	addi	x0,x0,0	  x0:0x00000000
        9865000	       985	80001210	00000013	addi	x0,x0,0	  x0:0x00000000
        9875000	       986	80001214	04c0056f	jal	x10,80001214	 x10=0x80001214
        9885000	       987	00000000	00000013	addi	x0,x0,0	  x0:0x00000000
        9895000	       988	8000125c	00000013	addi	x0,x0,0	  x0:0x00000000
        9905000	       989	80001260	fe5ff0ef	jal	x1,80001260	  x1=0x80001260
        9915000	       990	00000000	00000013	addi	x0,x0,0	  x0:0x00000000
        9925000	       991	80001240	00000013	addi	x0,x0,0	  x0:0x00000000
        9935000	       992	80001244	fd9ff36f	jal	x6,80001244	  x6=0x80001244
        9945000	       993	00000000	00000013	addi	x0,x0,0	  x0:0x00000000
        9955000	       994	80001218	00000013	addi	x0,x0,0	  x0:0x00000000
        9965000	       995	8000121c	018000ef	jal	x1,8000121c	  x1=0x8000121c
        9975000	       996	00000000	00000013	addi	x0,x0,0	  x0:0x00000000
        9985000	       997	80001230	00000013	addi	x0,x0,0	  x0:0x00000000
        9995000	       998	80001234	04c0036f	jal	x6,80001234	  x6=0x80001234
       10005000	       999	00000000	00000013	addi	x0,x0,0	  x0:0x00000000
       10015000	      1000	8000127c	00000013	addi	x0,x0,0	  x0:0x00000000
       10025000	      1001	80001280	fcdff36f	jal	x6,80001280	  x6=0x80001280
       10035000	      1002	00000000	00000013	addi	x0,x0,0	  x0:0x00000000
       10045000	      1003	80001248	00000013	addi	x0,x0,0	  x0:0x00000000
       10055000	      1004	8000124c	fe5ffe6f	jal	x28,8000124c	 x28=0x8000124c
       10065000	      1005	00000000	00000013	addi	x0,x0,0	  x0:0x00000000
       10075000	      1006	8000122c	00000013	addi	x0,x0,0	  x0:0x00000000
       10085000	      1007	80001230	048000ef	jal	x1,80001230	  x1=0x80001230
       10095000	      1008	00000000	00000013	addi	x0,x0,0	  x0:0x00000000
       10105000	      1009	80001274	00000013	addi	x0,x0,0	  x0:0x00000000
       10115000	      1010	80001278	fddffb6f	jal	x22,80001278	 x22=0x80001278
       10125000	      1011	00000000	00000013	addi	x0,x0,0	  x0:0x00000000
       10135000	      1012	80001250	00000013	addi	x0,x0,0	  x0:0x00000000
       10145000	      1013	80001254	fd1ff0ef	jal	x1,80001254	  x1=0x80001254
       10155000	      1014	00000000	00000013	addi	x0,x0,0	  x0:0x00000000
       10165000	      1015	80001220	00000013	addi	x0,x0,0	  x0:0x00000000
       10175000	      1016	80001224	01c0036f	jal	x6,80001224	  x6=0x80001224
       10185000	      1017	00000000	00000013	addi	x0,x0,0	  x0:0x00000000
       10195000	      1018	8000123c	00000013	addi	x0,x0,0	  x0:0x00000000
       10205000	      1019	80001240	fd9ff3ef	jal	x7,80001240	  x7=0x80001240
       10215000	      1020	00000000	00000013	addi	x0,x0,0	  x0:0x00000000
       10225000	      1021	80001214	00000013	addi	x0,x0,0	  x0:0x00000000
       10235000	      1022	80001218	008002ef	jal	x5,80001218	  x5=0x80001218
       10245000	      1023	00000000	00000013	addi	x0,x0,0	  x0:0x00000000
       10255000	      1024	8000121c	00000013	addi	x0,x0,0	  x0:0x00000000
       10265000	      1025	80001220	018008ef	jal	x17,80001220	 x17=0x80001220
       10275000	      1026	00000000	00000013	addi	x0,x0,0	  x0:0x00000000
       10285000	      1027	80001234	00000013	addi	x0,x0,0	  x0:0x00000000
       10295000	      1028	80001238	03400bef	jal	x23,80001238	 x23=0x80001238
       10305000	      1029	00000000	00000013	addi	x0,x0,0	  x0:0x00000000
       10315000	      1030	80001268	00000013	addi	x0,x0,0	  x0:0x00000000
       10325000	      1031	8000126c	020000ef	jal	x1,8000126c	  x1=0x8000126c
       10335000	      1032	00000000	00000013	addi	x0,x0,0	  x0:0x00000000
       10345000	      1033	80001288	00000013	addi	x0,x0,0	  x0:0x00000000
       10355000	      1034	8000128c	015def33	or	x30,x27,x21	 x27:0x80000ffc x21:0x8000115c x30=0x80001ffc
       10365000	      1035	80001290	05c0036f	jal	x6,80001290	  x6=0x80001290
       10375000	      1036	00000000	00000013	addi	x0,x0,0	  x0:0x00000000
       10385000	      1037	800012e8	00000013	addi	x0,x0,0	  x0:0x00000000
       10395000	      1038	800012ec	fb9ff0ef	jal	x1,800012ec	  x1=0x800012ec
       10405000	      1039	00000000	00000013	addi	x0,x0,0	  x0:0x00000000
       10415000	      1040	800012a0	00000013	addi	x0,x0,0	  x0:0x00000000
       10425000	      1041	800012a4	04c0036f	jal	x6,800012a4	  x6=0x800012a4
       10435000	      1042	00000000	00000013	addi	x0,x0,0	  x0:0x00000000
       10445000	      1043	800012ec	00000013	addi	x0,x0,0	  x0:0x00000000
       10455000	      1044	800012f0	fedff36f	jal	x6,800012f0	  x6=0x800012f0
       10465000	      1045	00000000	00000013	addi	x0,x0,0	  x0:0x00000000
       10475000	      1046	800012d8	00000013	addi	x0,x0,0	  x0:0x00000000
       10485000	      1047	800012dc	01c0026f	jal	x4,800012dc	  x4=0x800012dc
       10495000	      1048	00000000	00000013	addi	x0,x0,0	  x0:0x00000000
       10505000	      1049	800012f4	00000013	addi	x0,x0,0	  x0:0x00000000
       10515000	      1050	800012f8	f9dff0ef	jal	x1,800012f8	  x1=0x800012f8
       10525000	      1051	00000000	00000013	addi	x0,x0,0	  x0:0x00000000
       10535000	      1052	80001290	00000013	addi	x0,x0,0	  x0:0x00000000
       10545000	      1053	80001294	01400c6f	jal	x24,80001294	 x24=0x80001294
       10555000	      1054	00000000	00000013	addi	x0,x0,0	  x0:0x00000000
       10565000	      1055	800012a4	00000013	addi	x0,x0,0	  x0:0x00000000
       10575000	      1056	800012a8	030007ef	jal	x15,800012a8	 x15=0x800012a8
       10585000	      1057	00000000	00000013	addi	x0,x0,0	  x0:0x00000000
       10595000	      1058	800012d4	00000013	addi	x0,x0,0	  x0:0x00000000
       10605000	      1059	800012d8	fd5ff0ef	jal	x1,800012d8	  x1=0x800012d8
       10615000	      1060	00000000	00000013	addi	x0,x0,0	  x0:0x00000000
       10625000	      1061	800012a8	00000013	addi	x0,x0,0	  x0:0x00000000
       10635000	      1062	800012ac	048001ef	jal	x3,800012ac	  x3=0x800012ac
       10645000	      1063	00000000	00000013	addi	x0,x0,0	  x0:0x00000000
       10655000	      1064	800012f0	00000013	addi	x0,x0,0	  x0:0x00000000
       10665000	      1065	800012f4	fbdff36f	jal	x6,800012f4	  x6=0x800012f4
       10675000	      1066	00000000	00000013	addi	x0,x0,0	  x0:0x00000000
       10685000	      1067	800012ac	00000013	addi	x0,x0,0	  x0:0x00000000
       10695000	      1068	800012b0	0340036f	jal	x6,800012b0	  x6=0x800012b0
       10705000	      1069	00000000	00000013	addi	x0,x0,0	  x0:0x00000000
       10715000	      1070	800012e0	00000013	addi	x0,x0,0	  x0:0x00000000
       10725000	      1071	800012e4	fe5ff0ef	jal	x1,800012e4	  x1=0x800012e4
       10735000	      1072	00000000	00000013	addi	x0,x0,0	  x0:0x00000000
       10745000	      1073	800012c4	00000013	addi	x0,x0,0	  x0:0x00000000
       10755000	      1074	800012c8	0180036f	jal	x6,800012c8	  x6=0x800012c8
       10765000	      1075	00000000	00000013	addi	x0,x0,0	  x0:0x00000000
       10775000	      1076	800012dc	00000013	addi	x0,x0,0	  x0:0x00000000
       10785000	      1077	800012e0	fbdff0ef	jal	x1,800012e0	  x1=0x800012e0
       10795000	      1078	00000000	00000013	addi	x0,x0,0	  x0:0x00000000
       10805000	      1079	80001298	00000013	addi	x0,x0,0	  x0:0x00000000
       10815000	      1080	8000129c	ffdff0ef	jal	x1,8000129c	  x1=0x8000129c
       10825000	      1081	00000000	00000013	addi	x0,x0,0	  x0:0x00000000
       10835000	      1082	80001294	00000013	addi	x0,x0,0	  x0:0x00000000
       10845000	      1083	80001298	020000ef	jal	x1,80001298	  x1=0x80001298
       10855000	      1084	00000000	00000013	addi	x0,x0,0	  x0:0x00000000
       10865000	      1085	800012b4	00000013	addi	x0,x0,0	  x0:0x00000000
       10875000	      1086	800012b8	0440026f	jal	x4,800012b8	  x4=0x800012b8
       10885000	      1087	00000000	00000013	addi	x0,x0,0	  x0:0x00000000
       10895000	      1088	800012f8	00000013	addi	x0,x0,0	  x0:0x00000000
       10905000	      1089	800012fc	fa5ff0ef	jal	x1,800012fc	  x1=0x800012fc
       10915000	      1090	00000000	00000013	addi	x0,x0,0	  x0:0x00000000
       10925000	      1091	8000129c	00000013	addi	x0,x0,0	  x0:0x00000000
       10935000	      1092	800012a0	01c000ef	jal	x1,800012a0	  x1=0x800012a0
       10945000	      1093	00000000	00000013	addi	x0,x0,0	  x0:0x00000000
       10955000	      1094	800012b8	00000013	addi	x0,x0,0	  x0:0x00000000
       10965000	      1095	800012bc	0140036f	jal	x6,800012bc	  x6=0x800012bc
       10975000	      1096	00000000	00000013	addi	x0,x0,0	  x0:0x00000000
       10985000	      1097	800012cc	00000013	addi	x0,x0,0	  x0:0x00000000
       10995000	      1098	800012d0	ff5ff0ef	jal	x1,800012d0	  x1=0x800012d0
       11005000	      1099	00000000	00000013	addi	x0,x0,0	  x0:0x00000000
       11015000	      1100	800012c0	00000013	addi	x0,x0,0	  x0:0x00000000
       11025000	      1101	800012c4	010005ef	jal	x11,800012c4	 x11=0x800012c4
       11035000	      1102	00000000	00000013	addi	x0,x0,0	  x0:0x00000000
       11045000	      1103	800012d0	00000013	addi	x0,x0,0	  x0:0x00000000
       11055000	      1104	800012d4	fe1ff4ef	jal	x9,800012d4	  x9=0x800012d4
       11065000	      1105	00000000	00000013	addi	x0,x0,0	  x0:0x00000000
       11075000	      1106	800012b0	00000013	addi	x0,x0,0	  x0:0x00000000
       11085000	      1107	800012b4	00c0036f	jal	x6,800012b4	  x6=0x800012b4
       11095000	      1108	00000000	00000013	addi	x0,x0,0	  x0:0x00000000
       11105000	      1109	800012bc	00000013	addi	x0,x0,0	  x0:0x00000000
       11115000	      1110	800012c0	028000ef	jal	x1,800012c0	  x1=0x800012c0
       11125000	      1111	00000000	00000013	addi	x0,x0,0	  x0:0x00000000
       11135000	      1112	800012e4	00000013	addi	x0,x0,0	  x0:0x00000000
       11145000	      1113	800012e8	fe5ff0ef	jal	x1,800012e8	  x1=0x800012e8
       11155000	      1114	00000000	00000013	addi	x0,x0,0	  x0:0x00000000
       11165000	      1115	800012c8	00000013	addi	x0,x0,0	  x0:0x00000000
       11175000	      1116	800012cc	034000ef	jal	x1,800012cc	  x1=0x800012cc
       11185000	      1117	00000000	00000013	addi	x0,x0,0	  x0:0x00000000
       11195000	      1118	800012fc	00000013	addi	x0,x0,0	  x0:0x00000000
       11205000	      1119	80001300	f45eb913	sltiu	x18,x29,-187	 x29:0xf22f49ae x18=0x00000001
       11215000	      1120	80001304	0400036f	jal	x6,80001304	  x6=0x80001304
       11225000	      1121	00000000	00000013	addi	x0,x0,0	  x0:0x00000000
       11235000	      1122	80001340	00000013	addi	x0,x0,0	  x0:0x00000000
       11245000	      1123	80001344	fd5ffdef	jal	x27,80001344	 x27=0x80001344
       11255000	      1124	00000000	00000013	addi	x0,x0,0	  x0:0x00000000
       11265000	      1125	80001314	00000013	addi	x0,x0,0	  x0:0x00000000
       11275000	      1126	80001318	ff5ff0ef	jal	x1,80001318	  x1=0x80001318
       11285000	      1127	00000000	00000013	addi	x0,x0,0	  x0:0x00000000
       11295000	      1128	80001308	00000013	addi	x0,x0,0	  x0:0x00000000
       11305000	      1129	8000130c	028000ef	jal	x1,8000130c	  x1=0x8000130c
       11315000	      1130	00000000	00000013	addi	x0,x0,0	  x0:0x00000000
       11325000	      1131	80001330	00000013	addi	x0,x0,0	  x0:0x00000000
       11335000	      1132	80001334	ff9ff0ef	jal	x1,80001334	  x1=0x80001334
       11345000	      1133	00000000	00000013	addi	x0,x0,0	  x0:0x00000000
       11355000	      1134	80001328	00000013	addi	x0,x0,0	  x0:0x00000000
       11365000	      1135	8000132c	024000ef	jal	x1,8000132c	  x1=0x8000132c
       11375000	      1136	00000000	00000013	addi	x0,x0,0	  x0:0x00000000
       11385000	      1137	8000134c	00000013	addi	x0,x0,0	  x0:0x00000000
       11395000	      1138	80001350	fe9ffbef	jal	x23,80001350	 x23=0x80001350
       11405000	      1139	00000000	00000013	addi	x0,x0,0	  x0:0x00000000
       11415000	      1140	80001334	00000013	addi	x0,x0,0	  x0:0x00000000
       11425000	      1141	80001338	010000ef	jal	x1,80001338	  x1=0x80001338
       11435000	      1142	00000000	00000013	addi	x0,x0,0	  x0:0x00000000
       11445000	      1143	80001344	00000013	addi	x0,x0,0	  x0:0x00000000
       11455000	      1144	80001348	024000ef	jal	x1,80001348	  x1=0x80001348
       11465000	      1145	00000000	00000013	addi	x0,x0,0	  x0:0x00000000
       11475000	      1146	80001368	00000013	addi	x0,x0,0	  x0:0x00000000
       11485000	      1147	8000136c	004007ef	jal	x15,8000136c	 x15=0x8000136c
       11495000	      1148	00000000	00000013	addi	x0,x0,0	  x0:0x00000000
       11505000	      1149	8000136c	00000013	addi	x0,x0,0	  x0:0x00000000
       11515000	      1150	80001370	fe9ff0ef	jal	x1,80001370	  x1=0x80001370
       11525000	      1151	00000000	00000013	addi	x0,x0,0	  x0:0x00000000
       11535000	      1152	80001354	00000013	addi	x0,x0,0	  x0:0x00000000
       11545000	      1153	80001358	fcdff0ef	jal	x1,80001358	  x1=0x80001358
       11555000	      1154	00000000	00000013	addi	x0,x0,0	  x0:0x00000000
       11565000	      1155	80001320	00000013	addi	x0,x0,0	  x0:0x00000000
       11575000	      1156	80001324	03c000ef	jal	x1,80001324	  x1=0x80001324
       11585000	      1157	00000000	00000013	addi	x0,x0,0	  x0:0x00000000
       11595000	      1158	8000135c	00000013	addi	x0,x0,0	  x0:0x00000000
       11605000	      1159	80001360	fddff36f	jal	x6,80001360	  x6=0x80001360
       11615000	      1160	00000000	00000013	addi	x0,x0,0	  x0:0x00000000
       11625000	      1161	80001338	00000013	addi	x0,x0,0	  x0:0x00000000
       11635000	      1162	8000133c	fedff0ef	jal	x1,8000133c	  x1=0x8000133c
       11645000	      1163	00000000	00000013	addi	x0,x0,0	  x0:0x00000000
       11655000	      1164	80001324	00000013	addi	x0,x0,0	  x0:0x00000000
       11665000	      1165	80001328	02c0036f	jal	x6,80001328	  x6=0x80001328
       11675000	      1166	00000000	00000013	addi	x0,x0,0	  x0:0x00000000
       11685000	      1167	80001350	00000013	addi	x0,x0,0	  x0:0x00000000
       11695000	      1168	80001354	fddff36f	jal	x6,80001354	  x6=0x80001354
       11705000	      1169	00000000	00000013	addi	x0,x0,0	  x0:0x00000000
       11715000	      1170	8000132c	00000013	addi	x0,x0,0	  x0:0x00000000
       11725000	      1171	80001330	038000ef	jal	x1,80001330	  x1=0x80001330
       11735000	      1172	00000000	00000013	addi	x0,x0,0	  x0:0x00000000
       11745000	      1173	80001364	00000013	addi	x0,x0,0	  x0:0x00000000
       11755000	      1174	80001368	fadff36f	jal	x6,80001368	  x6=0x80001368
       11765000	      1175	00000000	00000013	addi	x0,x0,0	  x0:0x00000000
       11775000	      1176	80001310	00000013	addi	x0,x0,0	  x0:0x00000000
       11785000	      1177	80001314	048008ef	jal	x17,80001314	 x17=0x80001314
       11795000	      1178	00000000	00000013	addi	x0,x0,0	  x0:0x00000000
       11805000	      1179	80001358	00000013	addi	x0,x0,0	  x0:0x00000000
       11815000	      1180	8000135c	fc5ff36f	jal	x6,8000135c	  x6=0x8000135c
       11825000	      1181	00000000	00000013	addi	x0,x0,0	  x0:0x00000000
       11835000	      1182	8000131c	00000013	addi	x0,x0,0	  x0:0x00000000
       11845000	      1183	80001320	02c00b6f	jal	x22,80001320	 x22=0x80001320
       11855000	      1184	00000000	00000013	addi	x0,x0,0	  x0:0x00000000
       11865000	      1185	80001348	00000013	addi	x0,x0,0	  x0:0x00000000
       11875000	      1186	8000134c	ff5ff0ef	jal	x1,8000134c	  x1=0x8000134c
       11885000	      1187	00000000	00000013	addi	x0,x0,0	  x0:0x00000000
       11895000	      1188	8000133c	00000013	addi	x0,x0,0	  x0:0x00000000
       11905000	      1189	80001340	024000ef	jal	x1,80001340	  x1=0x80001340
       11915000	      1190	00000000	00000013	addi	x0,x0,0	  x0:0x00000000
       11925000	      1191	80001360	00000013	addi	x0,x0,0	  x0:0x00000000
       11935000	      1192	80001364	fa5ff36f	jal	x6,80001364	  x6=0x80001364
       11945000	      1193	00000000	00000013	addi	x0,x0,0	  x0:0x00000000
       11955000	      1194	80001304	00000013	addi	x0,x0,0	  x0:0x00000000
       11965000	      1195	80001308	0140036f	jal	x6,80001308	  x6=0x80001308
       11975000	      1196	00000000	00000013	addi	x0,x0,0	  x0:0x00000000
       11985000	      1197	80001318	00000013	addi	x0,x0,0	  x0:0x00000000
       11995000	      1198	8000131c	ff5ff0ef	jal	x1,8000131c	  x1=0x8000131c
       12005000	      1199	00000000	00000013	addi	x0,x0,0	  x0:0x00000000
       12015000	      1200	8000130c	00000013	addi	x0,x0,0	  x0:0x00000000
       12025000	      1201	80001310	064000ef	jal	x1,80001310	  x1=0x80001310
       12035000	      1202	00000000	00000013	addi	x0,x0,0	  x0:0x00000000
       12045000	      1203	80001370	00000013	addi	x0,x0,0	  x0:0x00000000
       12055000	      1204	80001374	014a5493	srli	x9,x20,0x14	 x20:0x80001164  x9=0x00000800
       12065000	      1205	80001378	0240036f	jal	x6,80001378	  x6=0x80001378
       12075000	      1206	00000000	00000013	addi	x0,x0,0	  x0:0x00000000
       12085000	      1207	80001398	00000013	addi	x0,x0,0	  x0:0x00000000
       12095000	      1208	8000139c	004002ef	jal	x5,8000139c	  x5=0x8000139c
       12105000	      1209	00000000	00000013	addi	x0,x0,0	  x0:0x00000000
       12115000	      1210	8000139c	00000013	addi	x0,x0,0	  x0:0x00000000
       12125000	      1211	800013a0	fe5ff0ef	jal	x1,800013a0	  x1=0x800013a0
       12135000	      1212	00000000	00000013	addi	x0,x0,0	  x0:0x00000000
       12145000	      1213	80001380	00000013	addi	x0,x0,0	  x0:0x00000000
       12155000	      1214	80001384	0200026f	jal	x4,80001384	  x4=0x80001384
       12165000	      1215	00000000	00000013	addi	x0,x0,0	  x0:0x00000000
       12175000	      1216	800013a0	00000013	addi	x0,x0,0	  x0:0x00000000
       12185000	      1217	800013a4	fd9ff0ef	jal	x1,800013a4	  x1=0x800013a4
       12195000	      1218	00000000	00000013	addi	x0,x0,0	  x0:0x00000000
       12205000	      1219	80001378	00000013	addi	x0,x0,0	  x0:0x00000000
       12215000	      1220	8000137c	03c00b6f	jal	x22,8000137c	 x22=0x8000137c
       12225000	      1221	00000000	00000013	addi	x0,x0,0	  x0:0x00000000
       12235000	      1222	800013b4	00000013	addi	x0,x0,0	  x0:0x00000000
       12245000	      1223	800013b8	fd9ff36f	jal	x6,800013b8	  x6=0x800013b8
       12255000	      1224	00000000	00000013	addi	x0,x0,0	  x0:0x00000000
       12265000	      1225	8000138c	00000013	addi	x0,x0,0	  x0:0x00000000
       12275000	      1226	80001390	ff9ff0ef	jal	x1,80001390	  x1=0x80001390
       12285000	      1227	00000000	00000013	addi	x0,x0,0	  x0:0x00000000
       12295000	      1228	80001384	00000013	addi	x0,x0,0	  x0:0x00000000
       12305000	      1229	80001388	ff9ff0ef	jal	x1,80001388	  x1=0x80001388
       12315000	      1230	00000000	00000013	addi	x0,x0,0	  x0:0x00000000
       12325000	      1231	8000137c	00000013	addi	x0,x0,0	  x0:0x00000000
       12335000	      1232	80001380	028000ef	jal	x1,80001380	  x1=0x80001380
       12345000	      1233	00000000	00000013	addi	x0,x0,0	  x0:0x00000000
       12355000	      1234	800013a4	00000013	addi	x0,x0,0	  x0:0x00000000
       12365000	      1235	800013a8	01c0066f	jal	x12,800013a8	 x12=0x800013a8
       12375000	      1236	00000000	00000013	addi	x0,x0,0	  x0:0x00000000
       12385000	      1237	800013c0	00000013	addi	x0,x0,0	  x0:0x00000000
       12395000	      1238	800013c4	fc9ff0ef	jal	x1,800013c4	  x1=0x800013c4
       12405000	      1239	00000000	00000013	addi	x0,x0,0	  x0:0x00000000
       12415000	      1240	80001388	00000013	addi	x0,x0,0	  x0:0x00000000
       12425000	      1241	8000138c	00c000ef	jal	x1,8000138c	  x1=0x8000138c
       12435000	      1242	00000000	00000013	addi	x0,x0,0	  x0:0x00000000
       12445000	      1243	80001394	00000013	addi	x0,x0,0	  x0:0x00000000
       12455000	      1244	80001398	0280056f	jal	x10,80001398	 x10=0x80001398
       12465000	      1245	00000000	00000013	addi	x0,x0,0	  x0:0x00000000
       12475000	      1246	800013bc	00000013	addi	x0,x0,0	  x0:0x00000000
       12485000	      1247	800013c0	fedff36f	jal	x6,800013c0	  x6=0x800013c0
       12495000	      1248	00000000	00000013	addi	x0,x0,0	  x0:0x00000000
       12505000	      1249	800013a8	00000013	addi	x0,x0,0	  x0:0x00000000
       12515000	      1250	800013ac	fe9ff36f	jal	x6,800013ac	  x6=0x800013ac
       12525000	      1251	00000000	00000013	addi	x0,x0,0	  x0:0x00000000
       12535000	      1252	80001390	00000013	addi	x0,x0,0	  x0:0x00000000
       12545000	      1253	80001394	0280026f	jal	x4,80001394	  x4=0x80001394
       12555000	      1254	00000000	00000013	addi	x0,x0,0	  x0:0x00000000
       12565000	      1255	800013b8	00000013	addi	x0,x0,0	  x0:0x00000000
       12575000	      1256	800013bc	ff5ff0ef	jal	x1,800013bc	  x1=0x800013bc
       12585000	      1257	00000000	00000013	addi	x0,x0,0	  x0:0x00000000
       12595000	      1258	800013ac	00000013	addi	x0,x0,0	  x0:0x00000000
       12605000	      1259	800013b0	004000ef	jal	x1,800013b0	  x1=0x800013b0
       12615000	      1260	00000000	00000013	addi	x0,x0,0	  x0:0x00000000
       12625000	      1261	800013b0	00000013	addi	x0,x0,0	  x0:0x00000000
       12635000	      1262	800013b4	0140036f	jal	x6,800013b4	  x6=0x800013b4
       12645000	      1263	00000000	00000013	addi	x0,x0,0	  x0:0x00000000
       12655000	      1264	800013c4	00000013	addi	x0,x0,0	  x0:0x00000000
       12665000	      1265	800013c8	019b0433	add	x8,x22,x25	 x22:0x8000137c x25:0x80000ea0  x8=0x0000221c
       12675000	      1266	800013cc	05c0036f	jal	x6,800013cc	  x6=0x800013cc
       12685000	      1267	00000000	00000013	addi	x0,x0,0	  x0:0x00000000
       12695000	      1268	80001424	00000013	addi	x0,x0,0	  x0:0x00000000
       12705000	      1269	80001428	ff9ff36f	jal	x6,80001428	  x6=0x80001428
       12715000	      1270	00000000	00000013	addi	x0,x0,0	  x0:0x00000000
       12725000	      1271	8000141c	00000013	addi	x0,x0,0	  x0:0x00000000
       12735000	      1272	80001420	fddff0ef	jal	x1,80001420	  x1=0x80001420
       12745000	      1273	00000000	00000013	addi	x0,x0,0	  x0:0x00000000
       12755000	      1274	800013f8	00000013	addi	x0,x0,0	  x0:0x00000000
       12765000	      1275	800013fc	0080036f	jal	x6,800013fc	  x6=0x800013fc
       12775000	      1276	00000000	00000013	addi	x0,x0,0	  x0:0x00000000
       12785000	      1277	80001400	00000013	addi	x0,x0,0	  x0:0x00000000
       12795000	      1278	80001404	028005ef	jal	x11,80001404	 x11=0x80001404
       12805000	      1279	00000000	00000013	addi	x0,x0,0	  x0:0x00000000
       12815000	      1280	80001428	00000013	addi	x0,x0,0	  x0:0x00000000
       12825000	      1281	8000142c	fe1ff0ef	jal	x1,8000142c	  x1=0x8000142c
       12835000	      1282	00000000	00000013	addi	x0,x0,0	  x0:0x00000000
       12845000	      1283	80001408	00000013	addi	x0,x0,0	  x0:0x00000000
       12855000	      1284	8000140c	024000ef	jal	x1,8000140c	  x1=0x8000140c
       12865000	      1285	00000000	00000013	addi	x0,x0,0	  x0:0x00000000
       12875000	      1286	8000142c	00000013	addi	x0,x0,0	  x0:0x00000000
       12885000	      1287	80001430	fd9ff0ef	jal	x1,80001430	  x1=0x80001430
       12895000	      1288	00000000	00000013	addi	x0,x0,0	  x0:0x00000000
       12905000	      1289	80001404	00000013	addi	x0,x0,0	  x0:0x00000000
       12915000	      1290	80001408	01c000ef	jal	x1,80001408	  x1=0x80001408
       12925000	      1291	00000000	00000013	addi	x0,x0,0	  x0:0x00000000
       12935000	      1292	80001420	00000013	addi	x0,x0,0	  x0:0x00000000
       12945000	      1293	80001424	ff1ff0ef	jal	x1,80001424	  x1=0x80001424
       12955000	      1294	00000000	00000013	addi	x0,x0,0	  x0:0x00000000
       12965000	      1295	80001410	00000013	addi	x0,x0,0	  x0:0x00000000
       12975000	      1296	80001414	028000ef	jal	x1,80001414	  x1=0x80001414
       12985000	      1297	00000000	00000013	addi	x0,x0,0	  x0:0x00000000
       12995000	      1298	80001438	00000013	addi	x0,x0,0	  x0:0x00000000
       13005000	      1299	8000143c	fc5ff0ef	jal	x1,8000143c	  x1=0x8000143c
       13015000	      1300	00000000	00000013	addi	x0,x0,0	  x0:0x00000000
       13025000	      1301	800013fc	00000013	addi	x0,x0,0	  x0:0x00000000
       13035000	      1302	80001400	fe1ffc6f	jal	x24,80001400	 x24=0x80001400
       13045000	      1303	00000000	00000013	addi	x0,x0,0	  x0:0x00000000
       13055000	      1304	800013dc	00000013	addi	x0,x0,0	  x0:0x00000000
       13065000	      1305	800013e0	010000ef	jal	x1,800013e0	  x1=0x800013e0
       13075000	      1306	00000000	00000013	addi	x0,x0,0	  x0:0x00000000
       13085000	      1307	800013ec	00000013	addi	x0,x0,0	  x0:0x00000000
       13095000	      1308	800013f0	028000ef	jal	x1,800013f0	  x1=0x800013f0
       13105000	      1309	00000000	00000013	addi	x0,x0,0	  x0:0x00000000
       13115000	      1310	80001414	00000013	addi	x0,x0,0	  x0:0x00000000
       13125000	      1311	80001418	fc1ff36f	jal	x6,80001418	  x6=0x80001418
       13135000	      1312	00000000	00000013	addi	x0,x0,0	  x0:0x00000000
       13145000	      1313	800013d4	00000013	addi	x0,x0,0	  x0:0x00000000
       13155000	      1314	800013d8	038000ef	jal	x1,800013d8	  x1=0x800013d8
       13165000	      1315	00000000	00000013	addi	x0,x0,0	  x0:0x00000000
       13175000	      1316	8000140c	00000013	addi	x0,x0,0	  x0:0x00000000
       13185000	      1317	80001410	034000ef	jal	x1,80001410	  x1=0x80001410
       13195000	      1318	00000000	00000013	addi	x0,x0,0	  x0:0x00000000
       13205000	      1319	80001440	00000013	addi	x0,x0,0	  x0:0x00000000
       13215000	      1320	80001444	f8dff36f	jal	x6,80001444	  x6=0x80001444
       13225000	      1321	00000000	00000013	addi	x0,x0,0	  x0:0x00000000
       13235000	      1322	800013cc	00000013	addi	x0,x0,0	  x0:0x00000000
       13245000	      1323	800013d0	0700036f	jal	x6,800013d0	  x6=0x800013d0
       13255000	      1324	00000000	00000013	addi	x0,x0,0	  x0:0x00000000
       13265000	      1325	8000143c	00000013	addi	x0,x0,0	  x0:0x00000000
       13275000	      1326	80001440	fa5ffa6f	jal	x20,80001440	 x20=0x80001440
       13285000	      1327	00000000	00000013	addi	x0,x0,0	  x0:0x00000000
       13295000	      1328	800013e0	00000013	addi	x0,x0,0	  x0:0x00000000
       13305000	      1329	800013e4	05400aef	jal	x21,800013e4	 x21=0x800013e4
       13315000	      1330	00000000	00000013	addi	x0,x0,0	  x0:0x00000000
       13325000	      1331	80001434	00000013	addi	x0,x0,0	  x0:0x00000000
       13335000	      1332	80001438	fa5ff36f	jal	x6,80001438	  x6=0x80001438
       13345000	      1333	00000000	00000013	addi	x0,x0,0	  x0:0x00000000
       13355000	      1334	800013d8	00000013	addi	x0,x0,0	  x0:0x00000000
       13365000	      1335	800013dc	00c000ef	jal	x1,800013dc	  x1=0x800013dc
       13375000	      1336	00000000	00000013	addi	x0,x0,0	  x0:0x00000000
       13385000	      1337	800013e4	00000013	addi	x0,x0,0	  x0:0x00000000
       13395000	      1338	800013e8	004000ef	jal	x1,800013e8	  x1=0x800013e8
       13405000	      1339	00000000	00000013	addi	x0,x0,0	  x0:0x00000000
       13415000	      1340	800013e8	00000013	addi	x0,x0,0	  x0:0x00000000
       13425000	      1341	800013ec	0300066f	jal	x12,800013ec	 x12=0x800013ec
       13435000	      1342	00000000	00000013	addi	x0,x0,0	  x0:0x00000000
       13445000	      1343	80001418	00000013	addi	x0,x0,0	  x0:0x00000000
       13455000	      1344	8000141c	fd9ff2ef	jal	x5,8000141c	  x5=0x8000141c
       13465000	      1345	00000000	00000013	addi	x0,x0,0	  x0:0x00000000
       13475000	      1346	800013f0	00000013	addi	x0,x0,0	  x0:0x00000000
       13485000	      1347	800013f4	0400036f	jal	x6,800013f4	  x6=0x800013f4
       13495000	      1348	00000000	00000013	addi	x0,x0,0	  x0:0x00000000
       13505000	      1349	80001430	00000013	addi	x0,x0,0	  x0:0x00000000
       13515000	      1350	80001434	fa1ff0ef	jal	x1,80001434	  x1=0x80001434
       13525000	      1351	00000000	00000013	addi	x0,x0,0	  x0:0x00000000
       13535000	      1352	800013d0	00000013	addi	x0,x0,0	  x0:0x00000000
       13545000	      1353	800013d4	024000ef	jal	x1,800013d4	  x1=0x800013d4
       13555000	      1354	00000000	00000013	addi	x0,x0,0	  x0:0x00000000
       13565000	      1355	800013f4	00000013	addi	x0,x0,0	  x0:0x00000000
       13575000	      1356	800013f8	0500036f	jal	x6,800013f8	  x6=0x800013f8
       13585000	      1357	00000000	00000013	addi	x0,x0,0	  x0:0x00000000
       13595000	      1358	80001444	00000013	addi	x0,x0,0	  x0:0x00000000
       13605000	      1359	80001448	cd15b493	sltiu	x9,x11,-815	 x11:0x80001404  x9=0x00000001
       13615000	      1360	8000144c	0300036f	jal	x6,8000144c	  x6=0x8000144c
       13625000	      1361	00000000	00000013	addi	x0,x0,0	  x0:0x00000000
       13635000	      1362	80001478	00000013	addi	x0,x0,0	  x0:0x00000000
       13645000	      1363	8000147c	ffdff0ef	jal	x1,8000147c	  x1=0x8000147c
       13655000	      1364	00000000	00000013	addi	x0,x0,0	  x0:0x00000000
       13665000	      1365	80001474	00000013	addi	x0,x0,0	  x0:0x00000000
       13675000	      1366	80001478	ffdff2ef	jal	x5,80001478	  x5=0x80001478
       13685000	      1367	00000000	00000013	addi	x0,x0,0	  x0:0x00000000
       13695000	      1368	80001470	00000013	addi	x0,x0,0	  x0:0x00000000
       13705000	      1369	80001474	fe9ff0ef	jal	x1,80001474	  x1=0x80001474
       13715000	      1370	00000000	00000013	addi	x0,x0,0	  x0:0x00000000
       13725000	      1371	80001458	00000013	addi	x0,x0,0	  x0:0x00000000
       13735000	      1372	8000145c	00800f6f	jal	x30,8000145c	 x30=0x8000145c
       13745000	      1373	00000000	00000013	addi	x0,x0,0	  x0:0x00000000
       13755000	      1374	80001460	00000013	addi	x0,x0,0	  x0:0x00000000
       13765000	      1375	80001464	ff5ff4ef	jal	x9,80001464	  x9=0x80001464
       13775000	      1376	00000000	00000013	addi	x0,x0,0	  x0:0x00000000
       13785000	      1377	80001454	00000013	addi	x0,x0,0	  x0:0x00000000
       13795000	      1378	80001458	0300036f	jal	x6,80001458	  x6=0x80001458
       13805000	      1379	00000000	00000013	addi	x0,x0,0	  x0:0x00000000
       13815000	      1380	80001484	00000013	addi	x0,x0,0	  x0:0x00000000
       13825000	      1381	80001488	fe9ff0ef	jal	x1,80001488	  x1=0x80001488
       13835000	      1382	00000000	00000013	addi	x0,x0,0	  x0:0x00000000
       13845000	      1383	8000146c	00000013	addi	x0,x0,0	  x0:0x00000000
       13855000	      1384	80001470	0100036f	jal	x6,80001470	  x6=0x80001470
       13865000	      1385	00000000	00000013	addi	x0,x0,0	  x0:0x00000000
       13875000	      1386	8000147c	00000013	addi	x0,x0,0	  x0:0x00000000
       13885000	      1387	80001480	010000ef	jal	x1,80001480	  x1=0x80001480
       13895000	      1388	00000000	00000013	addi	x0,x0,0	  x0:0x00000000
       13905000	      1389	8000148c	00000013	addi	x0,x0,0	  x0:0x00000000
       13915000	      1390	80001490	fc1ff0ef	jal	x1,80001490	  x1=0x80001490
       13925000	      1391	00000000	00000013	addi	x0,x0,0	  x0:0x00000000
       13935000	      1392	8000144c	00000013	addi	x0,x0,0	  x0:0x00000000
       13945000	      1393	80001450	01c000ef	jal	x1,80001450	  x1=0x80001450
       13955000	      1394	00000000	00000013	addi	x0,x0,0	  x0:0x00000000
       13965000	      1395	80001468	00000013	addi	x0,x0,0	  x0:0x00000000
       13975000	      1396	8000146c	ffdff36f	jal	x6,8000146c	  x6=0x8000146c
       13985000	      1397	00000000	00000013	addi	x0,x0,0	  x0:0x00000000
       13995000	      1398	80001464	00000013	addi	x0,x0,0	  x0:0x00000000
       14005000	      1399	80001468	fedff7ef	jal	x15,80001468	 x15=0x80001468
       14015000	      1400	00000000	00000013	addi	x0,x0,0	  x0:0x00000000
       14025000	      1401	80001450	00000013	addi	x0,x0,0	  x0:0x00000000
       14035000	      1402	80001454	00c000ef	jal	x1,80001454	  x1=0x80001454
       14045000	      1403	00000000	00000013	addi	x0,x0,0	  x0:0x00000000
       14055000	      1404	8000145c	00000013	addi	x0,x0,0	  x0:0x00000000
       14065000	      1405	80001460	02c000ef	jal	x1,80001460	  x1=0x80001460
       14075000	      1406	00000000	00000013	addi	x0,x0,0	  x0:0x00000000
       14085000	      1407	80001488	00000013	addi	x0,x0,0	  x0:0x00000000
       14095000	      1408	8000148c	ff9ff36f	jal	x6,8000148c	  x6=0x8000148c
       14105000	      1409	00000000	00000013	addi	x0,x0,0	  x0:0x00000000
       14115000	      1410	80001480	00000013	addi	x0,x0,0	  x0:0x00000000
       14125000	      1411	80001484	010000ef	jal	x1,80001484	  x1=0x80001484
       14135000	      1412	00000000	00000013	addi	x0,x0,0	  x0:0x00000000
       14145000	      1413	80001490	00000013	addi	x0,x0,0	  x0:0x00000000
       14155000	      1414	80001494	00a961b3	or	x3,x18,x10	 x18:0x00000001 x10:0x80001398  x3=0x80001399
       14165000	      1415	80001498	0280036f	jal	x6,80001498	  x6=0x80001498
       14175000	      1416	00000000	00000013	addi	x0,x0,0	  x0:0x00000000
       14185000	      1417	800014bc	00000013	addi	x0,x0,0	  x0:0x00000000
       14195000	      1418	800014c0	020003ef	jal	x7,800014c0	  x7=0x800014c0
       14205000	      1419	00000000	00000013	addi	x0,x0,0	  x0:0x00000000
       14215000	      1420	800014dc	00000013	addi	x0,x0,0	  x0:0x00000000
       14225000	      1421	800014e0	00c000ef	jal	x1,800014e0	  x1=0x800014e0
       14235000	      1422	00000000	00000013	addi	x0,x0,0	  x0:0x00000000
       14245000	      1423	800014e8	00000013	addi	x0,x0,0	  x0:0x00000000
       14255000	      1424	800014ec	fbdff56f	jal	x10,800014ec	 x10=0x800014ec
       14265000	      1425	00000000	00000013	addi	x0,x0,0	  x0:0x00000000
       14275000	      1426	800014a4	00000013	addi	x0,x0,0	  x0:0x00000000
       14285000	      1427	800014a8	05000fef	jal	x31,800014a8	 x31=0x800014a8
       14295000	      1428	00000000	00000013	addi	x0,x0,0	  x0:0x00000000
       14305000	      1429	800014f4	00000013	addi	x0,x0,0	  x0:0x00000000
       14315000	      1430	800014f8	fa5ff0ef	jal	x1,800014f8	  x1=0x800014f8
       14325000	      1431	00000000	00000013	addi	x0,x0,0	  x0:0x00000000
       14335000	      1432	80001498	00000013	addi	x0,x0,0	  x0:0x00000000
       14345000	      1433	8000149c	01c00aef	jal	x21,8000149c	 x21=0x8000149c
       14355000	      1434	00000000	00000013	addi	x0,x0,0	  x0:0x00000000
       14365000	      1435	800014b4	00000013	addi	x0,x0,0	  x0:0x00000000
       14375000	      1436	800014b8	054000ef	jal	x1,800014b8	  x1=0x800014b8
       14385000	      1437	00000000	00000013	addi	x0,x0,0	  x0:0x00000000
       14395000	      1438	80001508	00000013	addi	x0,x0,0	  x0:0x00000000
       14405000	      1439	8000150c	fe9ff0ef	jal	x1,8000150c	  x1=0x8000150c
       14415000	      1440	00000000	00000013	addi	x0,x0,0	  x0:0x00000000
       14425000	      1441	800014f0	00000013	addi	x0,x0,0	  x0:0x00000000
       14435000	      1442	800014f4	fddff1ef	jal	x3,800014f4	  x3=0x800014f4
       14445000	      1443	00000000	00000013	addi	x0,x0,0	  x0:0x00000000
       14455000	      1444	800014cc	00000013	addi	x0,x0,0	  x0:0x00000000
       14465000	      1445	800014d0	ffdff0ef	jal	x1,800014d0	  x1=0x800014d0
       14475000	      1446	00000000	00000013	addi	x0,x0,0	  x0:0x00000000
       14485000	      1447	800014c8	00000013	addi	x0,x0,0	  x0:0x00000000
       14495000	      1448	800014cc	03c000ef	jal	x1,800014cc	  x1=0x800014cc
       14505000	      1449	00000000	00000013	addi	x0,x0,0	  x0:0x00000000
       14515000	      1450	80001504	00000013	addi	x0,x0,0	  x0:0x00000000
       14525000	      1451	80001508	fcdff0ef	jal	x1,80001508	  x1=0x80001508
       14535000	      1452	00000000	00000013	addi	x0,x0,0	  x0:0x00000000
       14545000	      1453	800014d0	00000013	addi	x0,x0,0	  x0:0x00000000
       14555000	      1454	800014d4	030000ef	jal	x1,800014d4	  x1=0x800014d4
       14565000	      1455	00000000	00000013	addi	x0,x0,0	  x0:0x00000000
       14575000	      1456	80001500	00000013	addi	x0,x0,0	  x0:0x00000000
       14585000	      1457	80001504	00c002ef	jal	x5,80001504	  x5=0x80001504
       14595000	      1458	00000000	00000013	addi	x0,x0,0	  x0:0x00000000
       14605000	      1459	8000150c	00000013	addi	x0,x0,0	  x0:0x00000000
       14615000	      1460	80001510	fd5ffdef	jal	x27,80001510	 x27=0x80001510
       14625000	      1461	00000000	00000013	addi	x0,x0,0	  x0:0x00000000
       14635000	      1462	800014e0	00000013	addi	x0,x0,0	  x0:0x00000000
       14645000	      1463	800014e4	fbdff36f	jal	x6,800014e4	  x6=0x800014e4
       14655000	      1464	00000000	00000013	addi	x0,x0,0	  x0:0x00000000
       14665000	      1465	8000149c	00000013	addi	x0,x0,0	  x0:0x00000000
       14675000	      1466	800014a0	060000ef	jal	x1,800014a0	  x1=0x800014a0
       14685000	      1467	00000000	00000013	addi	x0,x0,0	  x0:0x00000000
       14695000	      1468	800014fc	00000013	addi	x0,x0,0	  x0:0x00000000
       14705000	      1469	80001500	ffdff0ef	jal	x1,80001500	  x1=0x80001500
       14715000	      1470	00000000	00000013	addi	x0,x0,0	  x0:0x00000000
       14725000	      1471	800014f8	00000013	addi	x0,x0,0	  x0:0x00000000
       14735000	      1472	800014fc	fb5ff0ef	jal	x1,800014fc	  x1=0x800014fc
       14745000	      1473	00000000	00000013	addi	x0,x0,0	  x0:0x00000000
       14755000	      1474	800014ac	00000013	addi	x0,x0,0	  x0:0x00000000
       14765000	      1475	800014b0	038000ef	jal	x1,800014b0	  x1=0x800014b0
       14775000	      1476	00000000	00000013	addi	x0,x0,0	  x0:0x00000000
       14785000	      1477	800014e4	00000013	addi	x0,x0,0	  x0:0x00000000
       14795000	      1478	800014e8	fe1ff0ef	jal	x1,800014e8	  x1=0x800014e8
       14805000	      1479	00000000	00000013	addi	x0,x0,0	  x0:0x00000000
       14815000	      1480	800014c4	00000013	addi	x0,x0,0	  x0:0x00000000
       14825000	      1481	800014c8	014001ef	jal	x3,800014c8	  x3=0x800014c8
       14835000	      1482	00000000	00000013	addi	x0,x0,0	  x0:0x00000000
       14845000	      1483	800014d8	00000013	addi	x0,x0,0	  x0:0x00000000
       14855000	      1484	800014dc	fe9ff2ef	jal	x5,800014dc	  x5=0x800014dc
       14865000	      1485	00000000	00000013	addi	x0,x0,0	  x0:0x00000000
       14875000	      1486	800014c0	00000013	addi	x0,x0,0	  x0:0x00000000
       14885000	      1487	800014c4	ff1ff2ef	jal	x5,800014c4	  x5=0x800014c4
       14895000	      1488	00000000	00000013	addi	x0,x0,0	  x0:0x00000000
       14905000	      1489	800014b0	00000013	addi	x0,x0,0	  x0:0x00000000
       14915000	      1490	800014b4	ff1ff36f	jal	x6,800014b4	  x6=0x800014b4
       14925000	      1491	00000000	00000013	addi	x0,x0,0	  x0:0x00000000
       14935000	      1492	800014a0	00000013	addi	x0,x0,0	  x0:0x00000000
       14945000	      1493	800014a4	04c000ef	jal	x1,800014a4	  x1=0x800014a4
       14955000	      1494	00000000	00000013	addi	x0,x0,0	  x0:0x00000000
       14965000	      1495	800014ec	00000013	addi	x0,x0,0	  x0:0x00000000
       14975000	      1496	800014f0	fe9ff0ef	jal	x1,800014f0	  x1=0x800014f0
       14985000	      1497	00000000	00000013	addi	x0,x0,0	  x0:0x00000000
       14995000	      1498	800014d4	00000013	addi	x0,x0,0	  x0:0x00000000
       15005000	      1499	800014d8	fd5ff36f	jal	x6,800014d8	  x6=0x800014d8
       15015000	      1500	00000000	00000013	addi	x0,x0,0	  x0:0x00000000
       15025000	      1501	800014a8	00000013	addi	x0,x0,0	  x0:0x00000000
       15035000	      1502	800014ac	010000ef	jal	x1,800014ac	  x1=0x800014ac
       15045000	      1503	00000000	00000013	addi	x0,x0,0	  x0:0x00000000
       15055000	      1504	800014b8	00000013	addi	x0,x0,0	  x0:0x00000000
       15065000	      1505	800014bc	058000ef	jal	x1,800014bc	  x1=0x800014bc
       15075000	      1506	00000000	00000013	addi	x0,x0,0	  x0:0x00000000
       15085000	      1507	80001510	00000013	addi	x0,x0,0	  x0:0x00000000
       15095000	      1508	80001514	b10f9a17	auipc	x20,0xb10f9	 x20=0x310fa510
       15105000	      1509	80001518	0680036f	jal	x6,80001518	  x6=0x80001518
       15115000	      1510	00000000	00000013	addi	x0,x0,0	  x0:0x00000000
       15125000	      1511	8000157c	00000013	addi	x0,x0,0	  x0:0x00000000
       15135000	      1512	80001580	fd5ff36f	jal	x6,80001580	  x6=0x80001580
       15145000	      1513	00000000	00000013	addi	x0,x0,0	  x0:0x00000000
       15155000	      1514	80001550	00000013	addi	x0,x0,0	  x0:0x00000000
       15165000	      1515	80001554	fe9ff36f	jal	x6,80001554	  x6=0x80001554
       15175000	      1516	00000000	00000013	addi	x0,x0,0	  x0:0x00000000
       15185000	      1517	80001538	00000013	addi	x0,x0,0	  x0:0x00000000
       15195000	      1518	8000153c	03c000ef	jal	x1,8000153c	  x1=0x8000153c
       15205000	      1519	00000000	00000013	addi	x0,x0,0	  x0:0x00000000
       15215000	      1520	80001574	00000013	addi	x0,x0,0	  x0:0x00000000
       15225000	      1521	80001578	ff1ff0ef	jal	x1,80001578	  x1=0x80001578
       15235000	      1522	00000000	00000013	addi	x0,x0,0	  x0:0x00000000
       15245000	      1523	80001564	00000013	addi	x0,x0,0	  x0:0x00000000
       15255000	      1524	80001568	ffdff0ef	jal	x1,80001568	  x1=0x80001568
       15265000	      1525	00000000	00000013	addi	x0,x0,0	  x0:0x00000000
       15275000	      1526	80001560	00000013	addi	x0,x0,0	  x0:0x00000000
       15285000	      1527	80001564	010000ef	jal	x1,80001564	  x1=0x80001564
       15295000	      1528	00000000	00000013	addi	x0,x0,0	  x0:0x00000000
       15305000	      1529	80001570	00000013	addi	x0,x0,0	  x0:0x00000000
       15315000	      1530	80001574	0100036f	jal	x6,80001574	  x6=0x80001574
       15325000	      1531	00000000	00000013	addi	x0,x0,0	  x0:0x00000000
       15335000	      1532	80001580	00000013	addi	x0,x0,0	  x0:0x00000000
       15345000	      1533	80001584	fd5ff0ef	jal	x1,80001584	  x1=0x80001584
       15355000	      1534	00000000	00000013	addi	x0,x0,0	  x0:0x00000000
       15365000	      1535	80001554	00000013	addi	x0,x0,0	  x0:0x00000000
       15375000	      1536	80001558	02400f6f	jal	x30,80001558	 x30=0x80001558
       15385000	      1537	00000000	00000013	addi	x0,x0,0	  x0:0x00000000
       15395000	      1538	80001578	00000013	addi	x0,x0,0	  x0:0x00000000
       15405000	      1539	8000157c	fa5ff0ef	jal	x1,8000157c	  x1=0x8000157c
       15415000	      1540	00000000	00000013	addi	x0,x0,0	  x0:0x00000000
       15425000	      1541	8000151c	00000013	addi	x0,x0,0	  x0:0x00000000
       15435000	      1542	80001520	040005ef	jal	x11,80001520	 x11=0x80001520
       15445000	      1543	00000000	00000013	addi	x0,x0,0	  x0:0x00000000
       15455000	      1544	8000155c	00000013	addi	x0,x0,0	  x0:0x00000000
       15465000	      1545	80001560	fbdff36f	jal	x6,80001560	  x6=0x80001560
       15475000	      1546	00000000	00000013	addi	x0,x0,0	  x0:0x00000000
       15485000	      1547	80001518	00000013	addi	x0,x0,0	  x0:0x00000000
       15495000	      1548	8000151c	0080036f	jal	x6,8000151c	  x6=0x8000151c
       15505000	      1549	00000000	00000013	addi	x0,x0,0	  x0:0x00000000
       15515000	      1550	80001520	00000013	addi	x0,x0,0	  x0:0x00000000
       15525000	      1551	80001524	008000ef	jal	x1,80001524	  x1=0x80001524
       15535000	      1552	00000000	00000013	addi	x0,x0,0	  x0:0x00000000
       15545000	      1553	80001528	00000013	addi	x0,x0,0	  x0:0x00000000
       15555000	      1554	8000152c	0200026f	jal	x4,8000152c	  x4=0x8000152c
       15565000	      1555	00000000	00000013	addi	x0,x0,0	  x0:0x00000000
       15575000	      1556	80001548	00000013	addi	x0,x0,0	  x0:0x00000000
       15585000	      1557	8000154c	fe5ff0ef	jal	x1,8000154c	  x1=0x8000154c
       15595000	      1558	00000000	00000013	addi	x0,x0,0	  x0:0x00000000
       15605000	      1559	8000152c	00000013	addi	x0,x0,0	  x0:0x00000000
       15615000	      1560	80001530	018000ef	jal	x1,80001530	  x1=0x80001530
       15625000	      1561	00000000	00000013	addi	x0,x0,0	  x0:0x00000000
       15635000	      1562	80001544	00000013	addi	x0,x0,0	  x0:0x00000000
       15645000	      1563	80001548	024000ef	jal	x1,80001548	  x1=0x80001548
       15655000	      1564	00000000	00000013	addi	x0,x0,0	  x0:0x00000000
       15665000	      1565	80001568	00000013	addi	x0,x0,0	  x0:0x00000000
       15675000	      1566	8000156c	fd5ff0ef	jal	x1,8000156c	  x1=0x8000156c
       15685000	      1567	00000000	00000013	addi	x0,x0,0	  x0:0x00000000
       15695000	      1568	8000153c	00000013	addi	x0,x0,0	  x0:0x00000000
       15705000	      1569	80001540	fe9ff6ef	jal	x13,80001540	 x13=0x80001540
       15715000	      1570	00000000	00000013	addi	x0,x0,0	  x0:0x00000000
       15725000	      1571	80001524	00000013	addi	x0,x0,0	  x0:0x00000000
       15735000	      1572	80001528	00c000ef	jal	x1,80001528	  x1=0x80001528
       15745000	      1573	00000000	00000013	addi	x0,x0,0	  x0:0x00000000
       15755000	      1574	80001530	00000013	addi	x0,x0,0	  x0:0x00000000
       15765000	      1575	80001534	004000ef	jal	x1,80001534	  x1=0x80001534
       15775000	      1576	00000000	00000013	addi	x0,x0,0	  x0:0x00000000
       15785000	      1577	80001534	00000013	addi	x0,x0,0	  x0:0x00000000
       15795000	      1578	80001538	03800b6f	jal	x22,80001538	 x22=0x80001538
       15805000	      1579	00000000	00000013	addi	x0,x0,0	  x0:0x00000000
       15815000	      1580	8000156c	00000013	addi	x0,x0,0	  x0:0x00000000
       15825000	      1581	80001570	fe1ff0ef	jal	x1,80001570	  x1=0x80001570
       15835000	      1582	00000000	00000013	addi	x0,x0,0	  x0:0x00000000
       15845000	      1583	8000154c	00000013	addi	x0,x0,0	  x0:0x00000000
       15855000	      1584	80001550	00c0036f	jal	x6,80001550	  x6=0x80001550
       15865000	      1585	00000000	00000013	addi	x0,x0,0	  x0:0x00000000
       15875000	      1586	80001558	00000013	addi	x0,x0,0	  x0:0x00000000
       15885000	      1587	8000155c	fe9ff0ef	jal	x1,8000155c	  x1=0x8000155c
       15895000	      1588	00000000	00000013	addi	x0,x0,0	  x0:0x00000000
       15905000	      1589	80001540	00000013	addi	x0,x0,0	  x0:0x00000000
       15915000	      1590	80001544	044000ef	jal	x1,80001544	  x1=0x80001544
       15925000	      1591	00000000	00000013	addi	x0,x0,0	  x0:0x00000000
       15935000	      1592	80001584	00000013	addi	x0,x0,0	  x0:0x00000000
       15945000	      1593	80001588	00000013	addi	x0,x0,0	  x0:0x00000000
       15955000	      1594	8000158c	0240036f	jal	x6,8000158c	  x6=0x8000158c
       15965000	      1595	00000000	00000013	addi	x0,x0,0	  x0:0x00000000
       15975000	      1596	800015ac	00000013	addi	x0,x0,0	  x0:0x00000000
       15985000	      1597	800015b0	00c000ef	jal	x1,800015b0	  x1=0x800015b0
       15995000	      1598	00000000	00000013	addi	x0,x0,0	  x0:0x00000000
       16005000	      1599	800015b8	00000013	addi	x0,x0,0	  x0:0x00000000
       16015000	      1600	800015bc	ff1ff2ef	jal	x5,800015bc	  x5=0x800015bc
       16025000	      1601	00000000	00000013	addi	x0,x0,0	  x0:0x00000000
       16035000	      1602	800015a8	00000013	addi	x0,x0,0	  x0:0x00000000
       16045000	      1603	800015ac	018000ef	jal	x1,800015ac	  x1=0x800015ac
       16055000	      1604	00000000	00000013	addi	x0,x0,0	  x0:0x00000000
       16065000	      1605	800015c0	00000013	addi	x0,x0,0	  x0:0x00000000
       16075000	      1606	800015c4	fd1ff0ef	jal	x1,800015c4	  x1=0x800015c4
       16085000	      1607	00000000	00000013	addi	x0,x0,0	  x0:0x00000000
       16095000	      1608	80001590	00000013	addi	x0,x0,0	  x0:0x00000000
       16105000	      1609	80001594	ffdffaef	jal	x21,80001594	 x21=0x80001594
       16115000	      1610	00000000	00000013	addi	x0,x0,0	  x0:0x00000000
       16125000	      1611	8000158c	00000013	addi	x0,x0,0	  x0:0x00000000
       16135000	      1612	80001590	044000ef	jal	x1,80001590	  x1=0x80001590
       16145000	      1613	00000000	00000013	addi	x0,x0,0	  x0:0x00000000
       16155000	      1614	800015d0	00000013	addi	x0,x0,0	  x0:0x00000000
       16165000	      1615	800015d4	fe1ff36f	jal	x6,800015d4	  x6=0x800015d4
       16175000	      1616	00000000	00000013	addi	x0,x0,0	  x0:0x00000000
       16185000	      1617	800015b0	00000013	addi	x0,x0,0	  x0:0x00000000
       16195000	      1618	800015b4	030000ef	jal	x1,800015b4	  x1=0x800015b4
       16205000	      1619	00000000	00000013	addi	x0,x0,0	  x0:0x00000000
       16215000	      1620	800015e0	00000013	addi	x0,x0,0	  x0:0x00000000
       16225000	      1621	800015e4	ffdff36f	jal	x6,800015e4	  x6=0x800015e4
       16235000	      1622	00000000	00000013	addi	x0,x0,0	  x0:0x00000000
       16245000	      1623	800015dc	00000013	addi	x0,x0,0	  x0:0x00000000
       16255000	      1624	800015e0	fc1ff36f	jal	x6,800015e0	  x6=0x800015e0
       16265000	      1625	00000000	00000013	addi	x0,x0,0	  x0:0x00000000
       16275000	      1626	8000159c	00000013	addi	x0,x0,0	  x0:0x00000000
       16285000	      1627	800015a0	018000ef	jal	x1,800015a0	  x1=0x800015a0
       16295000	      1628	00000000	00000013	addi	x0,x0,0	  x0:0x00000000
       16305000	      1629	800015b4	00000013	addi	x0,x0,0	  x0:0x00000000
       16315000	      1630	800015b8	0080036f	jal	x6,800015b8	  x6=0x800015b8
       16325000	      1631	00000000	00000013	addi	x0,x0,0	  x0:0x00000000
       16335000	      1632	800015bc	00000013	addi	x0,x0,0	  x0:0x00000000
       16345000	      1633	800015c0	018000ef	jal	x1,800015c0	  x1=0x800015c0
       16355000	      1634	00000000	00000013	addi	x0,x0,0	  x0:0x00000000
       16365000	      1635	800015d4	00000013	addi	x0,x0,0	  x0:0x00000000
       16375000	      1636	800015d8	004001ef	jal	x3,800015d8	  x3=0x800015d8
       16385000	      1637	00000000	00000013	addi	x0,x0,0	  x0:0x00000000
       16395000	      1638	800015d8	00000013	addi	x0,x0,0	  x0:0x00000000
       16405000	      1639	800015dc	fc1ff0ef	jal	x1,800015dc	  x1=0x800015dc
       16415000	      1640	00000000	00000013	addi	x0,x0,0	  x0:0x00000000
       16425000	      1641	80001598	00000013	addi	x0,x0,0	  x0:0x00000000
       16435000	      1642	8000159c	030003ef	jal	x7,8000159c	  x7=0x8000159c
       16445000	      1643	00000000	00000013	addi	x0,x0,0	  x0:0x00000000
       16455000	      1644	800015c8	00000013	addi	x0,x0,0	  x0:0x00000000
       16465000	      1645	800015cc	020000ef	jal	x1,800015cc	  x1=0x800015cc
       16475000	      1646	00000000	00000013	addi	x0,x0,0	  x0:0x00000000
       16485000	      1647	800015e8	00000013	addi	x0,x0,0	  x0:0x00000000
       16495000	      1648	800015ec	fb9ff0ef	jal	x1,800015ec	  x1=0x800015ec
       16505000	      1649	00000000	00000013	addi	x0,x0,0	  x0:0x00000000
       16515000	      1650	800015a0	00000013	addi	x0,x0,0	  x0:0x00000000
       16525000	      1651	800015a4	044000ef	jal	x1,800015a4	  x1=0x800015a4
       16535000	      1652	00000000	00000013	addi	x0,x0,0	  x0:0x00000000
       16545000	      1653	800015e4	00000013	addi	x0,x0,0	  x0:0x00000000
       16555000	      1654	800015e8	0080036f	jal	x6,800015e8	  x6=0x800015e8
       16565000	      1655	00000000	00000013	addi	x0,x0,0	  x0:0x00000000
       16575000	      1656	800015ec	00000013	addi	x0,x0,0	  x0:0x00000000
       16585000	      1657	800015f0	fe1ff0ef	jal	x1,800015f0	  x1=0x800015f0
       16595000	      1658	00000000	00000013	addi	x0,x0,0	  x0:0x00000000
       16605000	      1659	800015cc	00000013	addi	x0,x0,0	  x0:0x00000000
       16615000	      1660	800015d0	ff9ff0ef	jal	x1,800015d0	  x1=0x800015d0
       16625000	      1661	00000000	00000013	addi	x0,x0,0	  x0:0x00000000
       16635000	      1662	800015c4	00000013	addi	x0,x0,0	  x0:0x00000000
       16645000	      1663	800015c8	fe1ff0ef	jal	x1,800015c8	  x1=0x800015c8
       16655000	      1664	00000000	00000013	addi	x0,x0,0	  x0:0x00000000
       16665000	      1665	800015a4	00000013	addi	x0,x0,0	  x0:0x00000000
       16675000	      1666	800015a8	ff1ff2ef	jal	x5,800015a8	  x5=0x800015a8
       16685000	      1667	00000000	00000013	addi	x0,x0,0	  x0:0x00000000
       16695000	      1668	80001594	00000013	addi	x0,x0,0	  x0:0x00000000
       16705000	      1669	80001598	05c0066f	jal	x12,80001598	 x12=0x80001598
       16715000	      1670	00000000	00000013	addi	x0,x0,0	  x0:0x00000000
       16725000	      1671	800015f0	00000013	addi	x0,x0,0	  x0:0x00000000
       16735000	      1672	800015f4	01c15c93	srli	x25,x2,0x1c	  x2:0x80009fc4 x25=0x00000008
       16745000	      1673	800015f8	03c0036f	jal	x6,800015f8	  x6=0x800015f8
       16755000	      1674	00000000	00000013	addi	x0,x0,0	  x0:0x00000000
       16765000	      1675	80001630	00000013	addi	x0,x0,0	  x0:0x00000000
       16775000	      1676	80001634	fedff0ef	jal	x1,80001634	  x1=0x80001634
       16785000	      1677	00000000	00000013	addi	x0,x0,0	  x0:0x00000000
       16795000	      1678	8000161c	00000013	addi	x0,x0,0	  x0:0x00000000
       16805000	      1679	80001620	fe9ff0ef	jal	x1,80001620	  x1=0x80001620
       16815000	      1680	00000000	00000013	addi	x0,x0,0	  x0:0x00000000
       16825000	      1681	80001604	00000013	addi	x0,x0,0	  x0:0x00000000
       16835000	      1682	80001608	01c007ef	jal	x15,80001608	 x15=0x80001608
       16845000	      1683	00000000	00000013	addi	x0,x0,0	  x0:0x00000000
       16855000	      1684	80001620	00000013	addi	x0,x0,0	  x0:0x00000000
       16865000	      1685	80001624	fe1ff0ef	jal	x1,80001624	  x1=0x80001624
       16875000	      1686	00000000	00000013	addi	x0,x0,0	  x0:0x00000000
       16885000	      1687	80001600	00000013	addi	x0,x0,0	  x0:0x00000000
       16895000	      1688	80001604	044000ef	jal	x1,80001604	  x1=0x80001604
       16905000	      1689	00000000	00000013	addi	x0,x0,0	  x0:0x00000000
       16915000	      1690	80001644	00000013	addi	x0,x0,0	  x0:0x00000000
       16925000	      1691	80001648	fcdff36f	jal	x6,80001648	  x6=0x80001648
       16935000	      1692	00000000	00000013	addi	x0,x0,0	  x0:0x00000000
       16945000	      1693	80001610	00000013	addi	x0,x0,0	  x0:0x00000000
       16955000	      1694	80001614	004000ef	jal	x1,80001614	  x1=0x80001614
       16965000	      1695	00000000	00000013	addi	x0,x0,0	  x0:0x00000000
       16975000	      1696	80001614	00000013	addi	x0,x0,0	  x0:0x00000000
       16985000	      1697	80001618	ff9ff0ef	jal	x1,80001618	  x1=0x80001618
       16995000	      1698	00000000	00000013	addi	x0,x0,0	  x0:0x00000000
       17005000	      1699	8000160c	00000013	addi	x0,x0,0	  x0:0x00000000
       17015000	      1700	80001610	00c0056f	jal	x10,80001610	 x10=0x80001610
       17025000	      1701	00000000	00000013	addi	x0,x0,0	  x0:0x00000000
       17035000	      1702	80001618	00000013	addi	x0,x0,0	  x0:0x00000000
       17045000	      1703	8000161c	028000ef	jal	x1,8000161c	  x1=0x8000161c
       17055000	      1704	00000000	00000013	addi	x0,x0,0	  x0:0x00000000
       17065000	      1705	80001640	00000013	addi	x0,x0,0	  x0:0x00000000
       17075000	      1706	80001644	fbdff1ef	jal	x3,80001644	  x3=0x80001644
       17085000	      1707	00000000	00000013	addi	x0,x0,0	  x0:0x00000000
       17095000	      1708	800015fc	00000013	addi	x0,x0,0	  x0:0x00000000
       17105000	      1709	80001600	040000ef	jal	x1,80001600	  x1=0x80001600
       17115000	      1710	00000000	00000013	addi	x0,x0,0	  x0:0x00000000
       17125000	      1711	8000163c	00000013	addi	x0,x0,0	  x0:0x00000000
       17135000	      1712	80001640	ffdff3ef	jal	x7,80001640	  x7=0x80001640
       17145000	      1713	00000000	00000013	addi	x0,x0,0	  x0:0x00000000
       17155000	      1714	80001638	00000013	addi	x0,x0,0	  x0:0x00000000
       17165000	      1715	8000163c	fd1ff0ef	jal	x1,8000163c	  x1=0x8000163c
       17175000	      1716	00000000	00000013	addi	x0,x0,0	  x0:0x00000000
       17185000	      1717	80001608	00000013	addi	x0,x0,0	  x0:0x00000000
       17195000	      1718	8000160c	020001ef	jal	x3,8000160c	  x3=0x8000160c
       17205000	      1719	00000000	00000013	addi	x0,x0,0	  x0:0x00000000
       17215000	      1720	80001628	00000013	addi	x0,x0,0	  x0:0x00000000
       17225000	      1721	8000162c	fd1ff4ef	jal	x9,8000162c	  x9=0x8000162c
       17235000	      1722	00000000	00000013	addi	x0,x0,0	  x0:0x00000000
       17245000	      1723	800015f8	00000013	addi	x0,x0,0	  x0:0x00000000
       17255000	      1724	800015fc	034000ef	jal	x1,800015fc	  x1=0x800015fc
       17265000	      1725	00000000	00000013	addi	x0,x0,0	  x0:0x00000000
       17275000	      1726	8000162c	00000013	addi	x0,x0,0	  x0:0x00000000
       17285000	      1727	80001630	01c0026f	jal	x4,80001630	  x4=0x80001630
       17295000	      1728	00000000	00000013	addi	x0,x0,0	  x0:0x00000000
       17305000	      1729	80001648	00000013	addi	x0,x0,0	  x0:0x00000000
       17315000	      1730	8000164c	fddff0ef	jal	x1,8000164c	  x1=0x8000164c
       17325000	      1731	00000000	00000013	addi	x0,x0,0	  x0:0x00000000
       17335000	      1732	80001624	00000013	addi	x0,x0,0	  x0:0x00000000
       17345000	      1733	80001628	0100086f	jal	x16,80001628	 x16=0x80001628
       17355000	      1734	00000000	00000013	addi	x0,x0,0	  x0:0x00000000
       17365000	      1735	80001634	00000013	addi	x0,x0,0	  x0:0x00000000
       17375000	      1736	80001638	018000ef	jal	x1,80001638	  x1=0x80001638
       17385000	      1737	00000000	00000013	addi	x0,x0,0	  x0:0x00000000
       17395000	      1738	8000164c	00000013	addi	x0,x0,0	  x0:0x00000000
       17405000	      1739	80001650	017b1393	slli	x7,x22,0x17	 x22:0x80001538  x7=0x9c000000
       17415000	      1740	80001654	01c0036f	jal	x6,80001654	  x6=0x80001654
       17425000	      1741	00000000	00000013	addi	x0,x0,0	  x0:0x00000000
       17435000	      1742	8000166c	00000013	addi	x0,x0,0	  x0:0x00000000
       17445000	      1743	80001670	0140036f	jal	x6,80001670	  x6=0x80001670
       17455000	      1744	00000000	00000013	addi	x0,x0,0	  x0:0x00000000
       17465000	      1745	80001680	00000013	addi	x0,x0,0	  x0:0x00000000
       17475000	      1746	80001684	fddff0ef	jal	x1,80001684	  x1=0x80001684
       17485000	      1747	00000000	00000013	addi	x0,x0,0	  x0:0x00000000
       17495000	      1748	8000165c	00000013	addi	x0,x0,0	  x0:0x00000000
       17505000	      1749	80001660	01c000ef	jal	x1,80001660	  x1=0x80001660
       17515000	      1750	00000000	00000013	addi	x0,x0,0	  x0:0x00000000
       17525000	      1751	80001678	00000013	addi	x0,x0,0	  x0:0x00000000
       17535000	      1752	8000167c	fe9ff0ef	jal	x1,8000167c	  x1=0x8000167c
       17545000	      1753	00000000	00000013	addi	x0,x0,0	  x0:0x00000000
       17555000	      1754	80001660	00000013	addi	x0,x0,0	  x0:0x00000000
       17565000	      1755	80001664	ff5ff96f	jal	x18,80001664	 x18=0x80001664
       17575000	      1756	00000000	00000013	addi	x0,x0,0	  x0:0x00000000
       17585000	      1757	80001654	00000013	addi	x0,x0,0	  x0:0x00000000
       17595000	      1758	80001658	030000ef	jal	x1,80001658	  x1=0x80001658
       17605000	      1759	00000000	00000013	addi	x0,x0,0	  x0:0x00000000
       17615000	      1760	80001684	00000013	addi	x0,x0,0	  x0:0x00000000
       17625000	      1761	80001688	fedff2ef	jal	x5,80001688	  x5=0x80001688
       17635000	      1762	00000000	00000013	addi	x0,x0,0	  x0:0x00000000
       17645000	      1763	80001670	00000013	addi	x0,x0,0	  x0:0x00000000
       17655000	      1764	80001674	004000ef	jal	x1,80001674	  x1=0x80001674
       17665000	      1765	00000000	00000013	addi	x0,x0,0	  x0:0x00000000
       17675000	      1766	80001674	00000013	addi	x0,x0,0	  x0:0x00000000
       17685000	      1767	80001678	ff5ff36f	jal	x6,80001678	  x6=0x80001678
       17695000	      1768	00000000	00000013	addi	x0,x0,0	  x0:0x00000000
       17705000	      1769	80001668	00000013	addi	x0,x0,0	  x0:0x00000000
       17715000	      1770	8000166c	014002ef	jal	x5,8000166c	  x5=0x8000166c
       17725000	      1771	00000000	00000013	addi	x0,x0,0	  x0:0x00000000
       17735000	      1772	8000167c	00000013	addi	x0,x0,0	  x0:0x00000000
       17745000	      1773	80001680	fe9ff0ef	jal	x1,80001680	  x1=0x80001680
       17755000	      1774	00000000	00000013	addi	x0,x0,0	  x0:0x00000000
       17765000	      1775	80001664	00000013	addi	x0,x0,0	  x0:0x00000000
       17775000	      1776	80001668	ff5ff36f	jal	x6,80001668	  x6=0x80001668
       17785000	      1777	00000000	00000013	addi	x0,x0,0	  x0:0x00000000
       17795000	      1778	80001658	00000013	addi	x0,x0,0	  x0:0x00000000
       17805000	      1779	8000165c	030000ef	jal	x1,8000165c	  x1=0x8000165c
       17815000	      1780	00000000	00000013	addi	x0,x0,0	  x0:0x00000000
       17825000	      1781	80001688	00000013	addi	x0,x0,0	  x0:0x00000000
       17835000	      1782	8000168c	00701913	slli	x18,x0,0x7	  x0:0x00000000 x18=0x00000000
       17845000	      1783	80001690	0380036f	jal	x6,80001690	  x6=0x80001690
       17855000	      1784	00000000	00000013	addi	x0,x0,0	  x0:0x00000000
       17865000	      1785	800016c4	00000013	addi	x0,x0,0	  x0:0x00000000
       17875000	      1786	800016c8	fe1ff0ef	jal	x1,800016c8	  x1=0x800016c8
       17885000	      1787	00000000	00000013	addi	x0,x0,0	  x0:0x00000000
       17895000	      1788	800016a4	00000013	addi	x0,x0,0	  x0:0x00000000
       17905000	      1789	800016a8	008002ef	jal	x5,800016a8	  x5=0x800016a8
       17915000	      1790	00000000	00000013	addi	x0,x0,0	  x0:0x00000000
       17925000	      1791	800016ac	00000013	addi	x0,x0,0	  x0:0x00000000
       17935000	      1792	800016b0	008000ef	jal	x1,800016b0	  x1=0x800016b0
       17945000	      1793	00000000	00000013	addi	x0,x0,0	  x0:0x00000000
       17955000	      1794	800016b4	00000013	addi	x0,x0,0	  x0:0x00000000
       17965000	      1795	800016b8	fe1ff0ef	jal	x1,800016b8	  x1=0x800016b8
       17975000	      1796	00000000	00000013	addi	x0,x0,0	  x0:0x00000000
       17985000	      1797	80001694	00000013	addi	x0,x0,0	  x0:0x00000000
       17995000	      1798	80001698	01c000ef	jal	x1,80001698	  x1=0x80001698
       18005000	      1799	00000000	00000013	addi	x0,x0,0	  x0:0x00000000
       18015000	      1800	800016b0	00000013	addi	x0,x0,0	  x0:0x00000000
       18025000	      1801	800016b4	ff9ff36f	jal	x6,800016b4	  x6=0x800016b4
       18035000	      1802	00000000	00000013	addi	x0,x0,0	  x0:0x00000000
       18045000	      1803	800016a8	00000013	addi	x0,x0,0	  x0:0x00000000
       18055000	      1804	800016ac	018000ef	jal	x1,800016ac	  x1=0x800016ac
       18065000	      1805	00000000	00000013	addi	x0,x0,0	  x0:0x00000000
       18075000	      1806	800016c0	00000013	addi	x0,x0,0	  x0:0x00000000
       18085000	      1807	800016c4	fe1ff7ef	jal	x15,800016c4	 x15=0x800016c4
       18095000	      1808	00000000	00000013	addi	x0,x0,0	  x0:0x00000000
       18105000	      1809	800016a0	00000013	addi	x0,x0,0	  x0:0x00000000
       18115000	      1810	800016a4	ffdffc6f	jal	x24,800016a4	 x24=0x800016a4
       18125000	      1811	00000000	00000013	addi	x0,x0,0	  x0:0x00000000
       18135000	      1812	8000169c	00000013	addi	x0,x0,0	  x0:0x00000000
       18145000	      1813	800016a0	020000ef	jal	x1,800016a0	  x1=0x800016a0
       18155000	      1814	00000000	00000013	addi	x0,x0,0	  x0:0x00000000
       18165000	      1815	800016bc	00000013	addi	x0,x0,0	  x0:0x00000000
       18175000	      1816	800016c0	ffdff0ef	jal	x1,800016c0	  x1=0x800016c0
       18185000	      1817	00000000	00000013	addi	x0,x0,0	  x0:0x00000000
       18195000	      1818	800016b8	00000013	addi	x0,x0,0	  x0:0x00000000
       18205000	      1819	800016bc	fd9ff0ef	jal	x1,800016bc	  x1=0x800016bc
       18215000	      1820	00000000	00000013	addi	x0,x0,0	  x0:0x00000000
       18225000	      1821	80001690	00000013	addi	x0,x0,0	  x0:0x00000000
       18235000	      1822	80001694	008000ef	jal	x1,80001694	  x1=0x80001694
       18245000	      1823	00000000	00000013	addi	x0,x0,0	  x0:0x00000000
       18255000	      1824	80001698	00000013	addi	x0,x0,0	  x0:0x00000000
       18265000	      1825	8000169c	0300026f	jal	x4,8000169c	  x4=0x8000169c
       18275000	      1826	00000000	00000013	addi	x0,x0,0	  x0:0x00000000
       18285000	      1827	800016c8	00000013	addi	x0,x0,0	  x0:0x00000000
       18295000	      1828	800016cc	00599933	sll	x18,x19,x5	 x19:0x80001258  x5:0x800016a8 x18=0x00125800
       18305000	      1829	800016d0	64edf613	andi	x12,x27,1614	 x27:0x80001510 x12=0x00000400
       18315000	      1830	800016d4	00000013	addi	x0,x0,0	  x0:0x00000000
       18325000	      1831	800016d8	008aef33	or	x30,x21,x8	 x21:0x80001594  x8:0x0000221c x30=0x8000379c
       18335000	      1832	800016dc	01b5d613	srli	x12,x11,0x1b	 x11:0x80001520 x12=0x00000010
       18345000	      1833	800016e0	006ebab3	sltu	x21,x29,x6	 x29:0xf22f49ae  x6:0x800016b4 x21=0x00000000
       18355000	      1834	800016e4	01e05913	srli	x18,x0,0x1e	  x0:0x00000000 x18=0x00000000
       18365000	      1835	800016e8	03670663	beq	x14,x22,80001714	 x14:0x800010b0 x22:0x80001538
       18375000	      1836	800016ec	63e84393	xori	x7,x16,1598	 x16:0x80001628  x7=0x80001016
       18385000	      1837	800016f0	3ff36e37	lui	x28,0x3ff36	 x28=0x3ff36000
       18395000	      1838	800016f4	01f55e13	srli	x28,x10,0x1f	 x10:0x80001610 x28=0x00000001
       18405000	      1839	800016f8	0034bdb3	sltu	x27,x9,x3	  x9:0x8000162c  x3:0x8000160c x27=0x00000000
       18415000	      1840	800016fc	f7abf813	andi	x16,x23,-134	 x23:0x80001350 x16=0x80001350
       18425000	      1841	80001700	404d0833	sub	x16,x26,x4	 x26:0x80009f4c  x4:0x8000169c x16=0x000088b0
       18435000	      1842	80001704	01b89263	bne	x17,x27,80001708	 x17:0x80001314 x27:0x00000000
       18445000	      1843	00000000	00000013	addi	x0,x0,0	  x0:0x00000000
       18455000	      1844	80001704	00000013	addi	x0,x0,0	  x0:0x00000000
       18465000	      1845	80001708	a782f393	andi	x7,x5,-1416	  x5:0x800016a8  x7=0x80001228
       18475000	      1846	8000170c	28a9b497	auipc	x9,0x28a9b	  x9=0xa8a9c708
       18485000	      1847	80001710	2c5c7513	andi	x10,x24,709	 x24:0x800016a4 x10=0x00000284
       18495000	      1848	80001714	014a07b3	add	x15,x20,x20	 x20:0x310fa510 x20:0x310fa510 x15=0x621f4a20
       18505000	      1849	80001718	00000013	addi	x0,x0,0	  x0:0x00000000
       18515000	      1850	8000171c	0116ae33	slt	x28,x13,x17	 x13:0x80001540 x17:0x80001314 x28=0x00000000
       18525000	      1851	80001720	8fbbfb93	andi	x23,x23,-1797	 x23:0x80001350 x23=0x80001050
       18535000	      1852	80001724	01e3dbb3	srl	x23,x7,x30	  x7:0x80001228 x30:0x8000379c x23=0x00000008
       18545000	      1853	80001728	043dc263	blt	x27,x3,8000176c	 x27:0x00000000  x3:0x8000160c
       18555000	      1854	8000172c	00ea0533	add	x10,x20,x14	 x20:0x310fa510 x14:0x800010b0 x10=0xb10fb5c0
       18565000	      1855	80001730	037d1863	bne	x26,x23,80001760	 x26:0x80009f4c x23:0x00000008
       18575000	      1856	00000000	00000013	addi	x0,x0,0	  x0:0x00000000
       18585000	      1857	8000175c	00000013	addi	x0,x0,0	  x0:0x00000000
       18595000	      1858	80001760	ef03a893	slti	x17,x7,-272	  x7:0x80001228 x17=0x00000001
       18605000	      1859	80001764	414d8db3	sub	x27,x27,x20	 x27:0x00000000 x20:0x310fa510 x27=0xcef05af0
       18615000	      1860	80001768	001044b3	xor	x9,x0,x1	  x0:0x00000000  x1:0x80001694  x9=0x80001694
       18625000	      1861	8000176c	2ba9c513	xori	x10,x19,698	 x19:0x80001258 x10=0x800010e2
       18635000	      1862	80001770	05fc8263	beq	x25,x31,800017b4	 x25:0x00000008 x31:0x800014a8
       18645000	      1863	80001774	0c89a413	slti	x8,x19,200	 x19:0x80001258  x8=0x00000001
       18655000	      1864	80001778	024cce63	blt	x25,x4,800017b4	 x25:0x00000008  x4:0x8000169c
       18665000	      1865	8000177c	011bfcb3	and	x25,x23,x17	 x23:0x00000008 x17:0x00000001 x25=0x00000000
       18675000	      1866	80001780	4200ed93	ori	x27,x1,1056	  x1:0x80001694 x27=0x800016b4
       18685000	      1867	80001784	87eb6c13	ori	x24,x22,-1922	 x22:0x80001538 x24=0xfffffd7e
       18695000	      1868	80001788	03d4c863	blt	x9,x29,800017b8	  x9:0x80001694 x29:0xf22f49ae
       18705000	      1869	00000000	00000013	addi	x0,x0,0	  x0:0x00000000
       18715000	      1870	800017b4	00000013	addi	x0,x0,0	  x0:0x00000000
       18725000	      1871	800017b8	4093d693	srai	x13,x7,0x9	  x7:0x80001228 x13=0xffc00009
       18735000	      1872	800017bc	01ba5c93	srli	x25,x20,0x1b	 x20:0x310fa510 x25=0x00000006
       18745000	      1873	800017c0	06e2ec63	bltu	x5,x14,80001838	  x5:0x800016a8 x14:0x800010b0
       18755000	      1874	800017c4	00e71233	sll	x4,x14,x14	 x14:0x800010b0 x14:0x800010b0  x4=0x10b00000
       18765000	      1875	800017c8	0085d8b3	srl	x17,x11,x8	 x11:0x80001520  x8:0x00000001 x17=0x40000a90
       18775000	      1876	800017cc	331bf593	andi	x11,x23,817	 x23:0x00000008 x11=0x00000000
       18785000	      1877	800017d0	015fd093	srli	x1,x31,0x15	 x31:0x800014a8  x1=0x00000400
       18795000	      1878	800017d4	015293b3	sll	x7,x5,x21	  x5:0x800016a8 x21:0x00000000  x7=0x800016a8
       18805000	      1879	800017d8	a165fe13	andi	x28,x11,-1514	 x11:0x00000000 x28=0x00000000
       18815000	      1880	800017dc	47015097	auipc	x1,0x47015	  x1=0xc70167d8
       18825000	      1881	800017e0	06eeca63	blt	x29,x14,80001854	 x29:0xf22f49ae x14:0x800010b0
       18835000	      1882	800017e4	0124e933	or	x18,x9,x18	  x9:0x80001694 x18:0x00000000 x18=0x80001694
       18845000	      1883	800017e8	00949fb3	sll	x31,x9,x9	  x9:0x80001694  x9:0x80001694 x31=0x69400000
       18855000	      1884	800017ec	008cc433	xor	x8,x25,x8	 x25:0x00000006  x8:0x00000001  x8=0x00000007
       18865000	      1885	800017f0	fffff617	auipc	x12,0xfffff	 x12=0x800007ec
       18875000	      1886	800017f4	29860613	addi	x12,x12,664	 x12:0x800007ec x12=0x80000a84
       18885000	      1887	800017f8	2e060613	addi	x12,x12,736	 x12:0x80000a84 x12=0x80000d64
       18895000	      1888	800017fc	005bc433	xor	x8,x23,x5	 x23:0x00000008  x5:0x800016a8  x8=0x800016a0
       18905000	      1889	80001800	fa228493	addi	x9,x5,-94	  x5:0x800016a8  x9=0x8000164a
       18915000	      1890	80001804	0091b433	sltu	x8,x3,x9	  x3:0x8000160c  x9:0x8000164a  x8=0x00000001
       18925000	      1891	80001808	4ca129b7	lui	x19,0x4ca12	 x19=0x4ca12000
       18935000	      1892	8000180c	9df7c893	xori	x17,x15,-1569	 x15:0x621f4a20 x17=0x9de0b3ff
       18945000	      1893	80001810	d2060367	jalr	x6,x12,-736	 x12:0x80000d64  x6=0x80001810
       18955000	      1894	00000000	00000013	addi	x0,x0,0	  x0:0x00000000
       18965000	      1895	80000a84	00000013	addi	x0,x0,0	  x0:0x00000000
       18975000	      1896	80000a88	2484ad97	auipc	x27,0x2484a	 x27=0xa484aa84
       18985000	      1897	80000a8c	00d36f33	or	x30,x6,x13	  x6:0x80001810 x13:0xffc00009 x30=0xffc01819
       18995000	      1898	80000a90	017b4663	blt	x22,x23,80000a9c	 x22:0x80001538 x23:0x00000008
       19005000	      1899	00000000	00000013	addi	x0,x0,0	  x0:0x00000000
       19015000	      1900	80000a98	00000013	addi	x0,x0,0	  x0:0x00000000
       19025000	      1901	80000a9c	fccd0d13	addi	x26,x26,-52	 x26:0x80009f4c x26=0x80009f18
       19035000	      1902	80000aa0	01f79c33	sll	x24,x15,x31	 x15:0x621f4a20 x31:0x69400000 x24=0x621f4a20
       19045000	      1903	80000aa4	006d2223	sw	x6,4(x26)	 x26:0x80009f18  x6:0x80001810 PA:0x80009f1c
       19055000	      1904	80000aa8	01db32b3	sltu	x5,x22,x29	 x22:0x80001538 x29:0xf22f49ae  x5=0x00000001
       19065000	      1905	80000aac	01a150b3	srl	x1,x2,x26	  x2:0x80009fc4 x26:0x80009f18  x1=0x00000080
       19075000	      1906	80000ab0	01d8dcb3	srl	x25,x17,x29	 x17:0x9de0b3ff x29:0xf22f49ae x25=0x00027782
       19085000	      1907	80000ab4	00669ab3	sll	x21,x13,x6	 x13:0xffc00009  x6:0x80001810 x21=0x00090000
       19095000	      1908	80000ab8	00651d93	slli	x27,x10,0x6	 x10:0x800010e2 x27=0x00043880
       19105000	      1909	80000abc	00d25e33	srl	x28,x4,x13	  x4:0x10b00000 x13:0xffc00009 x28=0x00085800
       19115000	      1910	80000ac0	948b4697	auipc	x13,0x948b4	 x13=0x148b4abc
       19125000	      1911	80000ac4	00c1c863	blt	x3,x12,80000ad4	  x3:0x8000160c x12:0x80000d64
       19135000	      1912	80000ac8	00000013	addi	x0,x0,0	  x0:0x00000000
       19145000	      1913	80000acc	c9a5cf37	lui	x30,0xc9a5c	 x30=0xc9a5c000
       19155000	      1914	80000ad0	4030d693	srai	x13,x1,0x3	  x1:0x00000080 x13=0x00000010
       19165000	      1915	80000ad4	3b40236f	jal	x6,80000ad4	  x6=0x80000ad4
       19175000	      1916	00000000	00000013	addi	x0,x0,0	  x0:0x00000000
       19185000	      1917	80002e84	00000013	addi	x0,x0,0	  x0:0x00000000
       19195000	      1918	80002e88	31066513	ori	x10,x12,784	 x12:0x80000d64 x10=0x80000f74
       19205000	      1919	80002e8c	017034b3	sltu	x9,x0,x23	  x0:0x00000000 x23:0x00000008  x9=0x00000001
       19215000	      1920	80002e90	2e920513	addi	x10,x4,745	  x4:0x10b00000 x10=0x10b002e9
       19225000	      1921	80002e94	fecd0d13	addi	x26,x26,-20	 x26:0x80009f18 x26=0x80009f04
       19235000	      1922	80002e98	006d2223	sw	x6,4(x26)	 x26:0x80009f04  x6:0x80000ad4 PA:0x80009f08
       19245000	      1923	80002e9c	013d62b3	or	x5,x26,x19	 x26:0x80009f04 x19:0x4ca12000  x5=0xcca1bf04
       19255000	      1924	80002ea0	414083b3	sub	x7,x1,x20	  x1:0x00000080 x20:0x310fa510  x7=0xcef05b70
       19265000	      1925	80002ea4	0400036f	jal	x6,80002ea4	  x6=0x80002ea4
       19275000	      1926	00000000	00000013	addi	x0,x0,0	  x0:0x00000000
       19285000	      1927	80002ee0	00000013	addi	x0,x0,0	  x0:0x00000000
       19295000	      1928	80002ee4	018000ef	jal	x1,80002ee4	  x1=0x80002ee4
       19305000	      1929	00000000	00000013	addi	x0,x0,0	  x0:0x00000000
       19315000	      1930	80002ef8	00000013	addi	x0,x0,0	  x0:0x00000000
       19325000	      1931	80002efc	fddff0ef	jal	x1,80002efc	  x1=0x80002efc
       19335000	      1932	00000000	00000013	addi	x0,x0,0	  x0:0x00000000
       19345000	      1933	80002ed4	00000013	addi	x0,x0,0	  x0:0x00000000
       19355000	      1934	80002ed8	fedff36f	jal	x6,80002ed8	  x6=0x80002ed8
       19365000	      1935	00000000	00000013	addi	x0,x0,0	  x0:0x00000000
       19375000	      1936	80002ec0	00000013	addi	x0,x0,0	  x0:0x00000000
       19385000	      1937	80002ec4	ffdff0ef	jal	x1,80002ec4	  x1=0x80002ec4
       19395000	      1938	00000000	00000013	addi	x0,x0,0	  x0:0x00000000
       19405000	      1939	80002ebc	00000013	addi	x0,x0,0	  x0:0x00000000
       19415000	      1940	80002ec0	ff1ffe6f	jal	x28,80002ec0	 x28=0x80002ec0
       19425000	      1941	00000000	00000013	addi	x0,x0,0	  x0:0x00000000
       19435000	      1942	80002eac	00000013	addi	x0,x0,0	  x0:0x00000000
       19445000	      1943	80002eb0	02c000ef	jal	x1,80002eb0	  x1=0x80002eb0
       19455000	      1944	00000000	00000013	addi	x0,x0,0	  x0:0x00000000
       19465000	      1945	80002ed8	00000013	addi	x0,x0,0	  x0:0x00000000
       19475000	      1946	80002edc	fddff0ef	jal	x1,80002edc	  x1=0x80002edc
       19485000	      1947	00000000	00000013	addi	x0,x0,0	  x0:0x00000000
       19495000	      1948	80002eb4	00000013	addi	x0,x0,0	  x0:0x00000000
       19505000	      1949	80002eb8	014000ef	jal	x1,80002eb8	  x1=0x80002eb8
       19515000	      1950	00000000	00000013	addi	x0,x0,0	  x0:0x00000000
       19525000	      1951	80002ec8	00000013	addi	x0,x0,0	  x0:0x00000000
       19535000	      1952	80002ecc	034001ef	jal	x3,80002ecc	  x3=0x80002ecc
       19545000	      1953	00000000	00000013	addi	x0,x0,0	  x0:0x00000000
       19555000	      1954	80002efc	00000013	addi	x0,x0,0	  x0:0x00000000
       19565000	      1955	80002f00	004000ef	jal	x1,80002f00	  x1=0x80002f00
       19575000	      1956	00000000	00000013	addi	x0,x0,0	  x0:0x00000000
       19585000	      1957	80002f00	00000013	addi	x0,x0,0	  x0:0x00000000
       19595000	      1958	80002f04	fb9ffe6f	jal	x28,80002f04	 x28=0x80002f04
       19605000	      1959	00000000	00000013	addi	x0,x0,0	  x0:0x00000000
       19615000	      1960	80002eb8	00000013	addi	x0,x0,0	  x0:0x00000000
       19625000	      1961	80002ebc	030000ef	jal	x1,80002ebc	  x1=0x80002ebc
       19635000	      1962	00000000	00000013	addi	x0,x0,0	  x0:0x00000000
       19645000	      1963	80002ee8	00000013	addi	x0,x0,0	  x0:0x00000000
       19655000	      1964	80002eec	00c0046f	jal	x8,80002eec	  x8=0x80002eec
       19665000	      1965	00000000	00000013	addi	x0,x0,0	  x0:0x00000000
       19675000	      1966	80002ef4	00000013	addi	x0,x0,0	  x0:0x00000000
       19685000	      1967	80002ef8	fb1ff36f	jal	x6,80002ef8	  x6=0x80002ef8
       19695000	      1968	00000000	00000013	addi	x0,x0,0	  x0:0x00000000
       19705000	      1969	80002ea4	00000013	addi	x0,x0,0	  x0:0x00000000
       19715000	      1970	80002ea8	0480036f	jal	x6,80002ea8	  x6=0x80002ea8
       19725000	      1971	00000000	00000013	addi	x0,x0,0	  x0:0x00000000
       19735000	      1972	80002eec	00000013	addi	x0,x0,0	  x0:0x00000000
       19745000	      1973	80002ef0	fc5ff0ef	jal	x1,80002ef0	  x1=0x80002ef0
       19755000	      1974	00000000	00000013	addi	x0,x0,0	  x0:0x00000000
       19765000	      1975	80002eb0	00000013	addi	x0,x0,0	  x0:0x00000000
       19775000	      1976	80002eb4	0340036f	jal	x6,80002eb4	  x6=0x80002eb4
       19785000	      1977	00000000	00000013	addi	x0,x0,0	  x0:0x00000000
       19795000	      1978	80002ee4	00000013	addi	x0,x0,0	  x0:0x00000000
       19805000	      1979	80002ee8	ff9ff0ef	jal	x1,80002ee8	  x1=0x80002ee8
       19815000	      1980	00000000	00000013	addi	x0,x0,0	  x0:0x00000000
       19825000	      1981	80002edc	00000013	addi	x0,x0,0	  x0:0x00000000
       19835000	      1982	80002ee0	ff1ff0ef	jal	x1,80002ee0	  x1=0x80002ee0
       19845000	      1983	00000000	00000013	addi	x0,x0,0	  x0:0x00000000
       19855000	      1984	80002ecc	00000013	addi	x0,x0,0	  x0:0x00000000
       19865000	      1985	80002ed0	004000ef	jal	x1,80002ed0	  x1=0x80002ed0
       19875000	      1986	00000000	00000013	addi	x0,x0,0	  x0:0x00000000
       19885000	      1987	80002ed0	00000013	addi	x0,x0,0	  x0:0x00000000
       19895000	      1988	80002ed4	ff5ff0ef	jal	x1,80002ed4	  x1=0x80002ed4
       19905000	      1989	00000000	00000013	addi	x0,x0,0	  x0:0x00000000
       19915000	      1990	80002ec4	00000013	addi	x0,x0,0	  x0:0x00000000
       19925000	      1991	80002ec8	02c008ef	jal	x17,80002ec8	 x17=0x80002ec8
       19935000	      1992	00000000	00000013	addi	x0,x0,0	  x0:0x00000000
       19945000	      1993	80002ef0	00000013	addi	x0,x0,0	  x0:0x00000000
       19955000	      1994	80002ef4	fb9ff1ef	jal	x3,80002ef4	  x3=0x80002ef4
       19965000	      1995	00000000	00000013	addi	x0,x0,0	  x0:0x00000000
       19975000	      1996	80002ea8	00000013	addi	x0,x0,0	  x0:0x00000000
       19985000	      1997	80002eac	05c0036f	jal	x6,80002eac	  x6=0x80002eac
       19995000	      1998	00000000	00000013	addi	x0,x0,0	  x0:0x00000000
       20005000	      1999	80002f04	00000013	addi	x0,x0,0	  x0:0x00000000
       20015000	      2000	80002f08	003b2433	slt	x8,x22,x3	 x22:0x80001538  x3:0x80002ef4  x8=0x00000001
       20025000	      2001	80002f0c	0640036f	jal	x6,80002f0c	  x6=0x80002f0c
       20035000	      2002	00000000	00000013	addi	x0,x0,0	  x0:0x00000000
       20045000	      2003	80002f6c	00000013	addi	x0,x0,0	  x0:0x00000000
       20055000	      2004	80002f70	ffdff36f	jal	x6,80002f70	  x6=0x80002f70
       20065000	      2005	00000000	00000013	addi	x0,x0,0	  x0:0x00000000
       20075000	      2006	80002f68	00000013	addi	x0,x0,0	  x0:0x00000000
       20085000	      2007	80002f6c	fd1ff26f	jal	x4,80002f6c	  x4=0x80002f6c
       20095000	      2008	00000000	00000013	addi	x0,x0,0	  x0:0x00000000
       20105000	      2009	80002f38	00000013	addi	x0,x0,0	  x0:0x00000000
       20115000	      2010	80002f3c	004000ef	jal	x1,80002f3c	  x1=0x80002f3c
       20125000	      2011	00000000	00000013	addi	x0,x0,0	  x0:0x00000000
       20135000	      2012	80002f3c	00000013	addi	x0,x0,0	  x0:0x00000000
       20145000	      2013	80002f40	01c0036f	jal	x6,80002f40	  x6=0x80002f40
       20155000	      2014	00000000	00000013	addi	x0,x0,0	  x0:0x00000000
       20165000	      2015	80002f58	00000013	addi	x0,x0,0	  x0:0x00000000
       20175000	      2016	80002f5c	fb5ff36f	jal	x6,80002f5c	  x6=0x80002f5c
       20185000	      2017	00000000	00000013	addi	x0,x0,0	  x0:0x00000000
       20195000	      2018	80002f0c	00000013	addi	x0,x0,0	  x0:0x00000000
       20205000	      2019	80002f10	06c000ef	jal	x1,80002f10	  x1=0x80002f10
       20215000	      2020	00000000	00000013	addi	x0,x0,0	  x0:0x00000000
       20225000	      2021	80002f78	00000013	addi	x0,x0,0	  x0:0x00000000
       20235000	      2022	80002f7c	fb9ff0ef	jal	x1,80002f7c	  x1=0x80002f7c
       20245000	      2023	00000000	00000013	addi	x0,x0,0	  x0:0x00000000
       20255000	      2024	80002f30	00000013	addi	x0,x0,0	  x0:0x00000000
       20265000	      2025	80002f34	ff1ff0ef	jal	x1,80002f34	  x1=0x80002f34
       20275000	      2026	00000000	00000013	addi	x0,x0,0	  x0:0x00000000
       20285000	      2027	80002f20	00000013	addi	x0,x0,0	  x0:0x00000000
       20295000	      2028	80002f24	030000ef	jal	x1,80002f24	  x1=0x80002f24
       20305000	      2029	00000000	00000013	addi	x0,x0,0	  x0:0x00000000
       20315000	      2030	80002f50	00000013	addi	x0,x0,0	  x0:0x00000000
       20325000	      2031	80002f54	014000ef	jal	x1,80002f54	  x1=0x80002f54
       20335000	      2032	00000000	00000013	addi	x0,x0,0	  x0:0x00000000
       20345000	      2033	80002f64	00000013	addi	x0,x0,0	  x0:0x00000000
       20355000	      2034	80002f68	00c000ef	jal	x1,80002f68	  x1=0x80002f68
       20365000	      2035	00000000	00000013	addi	x0,x0,0	  x0:0x00000000
       20375000	      2036	80002f70	00000013	addi	x0,x0,0	  x0:0x00000000
       20385000	      2037	80002f74	fd5ff86f	jal	x16,80002f74	 x16=0x80002f74
       20395000	      2038	00000000	00000013	addi	x0,x0,0	  x0:0x00000000
       20405000	      2039	80002f44	00000013	addi	x0,x0,0	  x0:0x00000000
       20415000	      2040	80002f48	ffdff0ef	jal	x1,80002f48	  x1=0x80002f48
       20425000	      2041	00000000	00000013	addi	x0,x0,0	  x0:0x00000000
       20435000	      2042	80002f40	00000013	addi	x0,x0,0	  x0:0x00000000
       20445000	      2043	80002f44	034000ef	jal	x1,80002f44	  x1=0x80002f44
       20455000	      2044	00000000	00000013	addi	x0,x0,0	  x0:0x00000000
       20465000	      2045	80002f74	00000013	addi	x0,x0,0	  x0:0x00000000
       20475000	      2046	80002f78	fa5ff0ef	jal	x1,80002f78	  x1=0x80002f78
       20485000	      2047	00000000	00000013	addi	x0,x0,0	  x0:0x00000000
       20495000	      2048	80002f18	00000013	addi	x0,x0,0	  x0:0x00000000
       20505000	      2049	80002f1c	ff9ff0ef	jal	x1,80002f1c	  x1=0x80002f1c
       20515000	      2050	00000000	00000013	addi	x0,x0,0	  x0:0x00000000
       20525000	      2051	80002f10	00000013	addi	x0,x0,0	  x0:0x00000000
       20535000	      2052	80002f14	0440036f	jal	x6,80002f14	  x6=0x80002f14
       20545000	      2053	00000000	00000013	addi	x0,x0,0	  x0:0x00000000
       20555000	      2054	80002f54	00000013	addi	x0,x0,0	  x0:0x00000000
       20565000	      2055	80002f58	fe1ff0ef	jal	x1,80002f58	  x1=0x80002f58
       20575000	      2056	00000000	00000013	addi	x0,x0,0	  x0:0x00000000
       20585000	      2057	80002f34	00000013	addi	x0,x0,0	  x0:0x00000000
       20595000	      2058	80002f38	fe1fffef	jal	x31,80002f38	 x31=0x80002f38
       20605000	      2059	00000000	00000013	addi	x0,x0,0	  x0:0x00000000
       20615000	      2060	80002f14	00000013	addi	x0,x0,0	  x0:0x00000000
       20625000	      2061	80002f18	010000ef	jal	x1,80002f18	  x1=0x80002f18
       20635000	      2062	00000000	00000013	addi	x0,x0,0	  x0:0x00000000
       20645000	      2063	80002f24	00000013	addi	x0,x0,0	  x0:0x00000000
       20655000	      2064	80002f28	0240056f	jal	x10,80002f28	 x10=0x80002f28
       20665000	      2065	00000000	00000013	addi	x0,x0,0	  x0:0x00000000
       20675000	      2066	80002f48	00000013	addi	x0,x0,0	  x0:0x00000000
       20685000	      2067	80002f4c	fd5ff36f	jal	x6,80002f4c	  x6=0x80002f4c
       20695000	      2068	00000000	00000013	addi	x0,x0,0	  x0:0x00000000
       20705000	      2069	80002f1c	00000013	addi	x0,x0,0	  x0:0x00000000
       20715000	      2070	80002f20	0400036f	jal	x6,80002f20	  x6=0x80002f20
       20725000	      2071	00000000	00000013	addi	x0,x0,0	  x0:0x00000000
       20735000	      2072	80002f5c	00000013	addi	x0,x0,0	  x0:0x00000000
       20745000	      2073	80002f60	ff1ff0ef	jal	x1,80002f60	  x1=0x80002f60
       20755000	      2074	00000000	00000013	addi	x0,x0,0	  x0:0x00000000
       20765000	      2075	80002f4c	00000013	addi	x0,x0,0	  x0:0x00000000
       20775000	      2076	80002f50	fe1ff4ef	jal	x9,80002f50	  x9=0x80002f50
       20785000	      2077	00000000	00000013	addi	x0,x0,0	  x0:0x00000000
       20795000	      2078	80002f2c	00000013	addi	x0,x0,0	  x0:0x00000000
       20805000	      2079	80002f30	ffdff1ef	jal	x3,80002f30	  x3=0x80002f30
       20815000	      2080	00000000	00000013	addi	x0,x0,0	  x0:0x00000000
       20825000	      2081	80002f28	00000013	addi	x0,x0,0	  x0:0x00000000
       20835000	      2082	80002f2c	038000ef	jal	x1,80002f2c	  x1=0x80002f2c
       20845000	      2083	00000000	00000013	addi	x0,x0,0	  x0:0x00000000
       20855000	      2084	80002f60	00000013	addi	x0,x0,0	  x0:0x00000000
       20865000	      2085	80002f64	01c000ef	jal	x1,80002f64	  x1=0x80002f64
       20875000	      2086	00000000	00000013	addi	x0,x0,0	  x0:0x00000000
       20885000	      2087	80002f7c	00000013	addi	x0,x0,0	  x0:0x00000000
       20895000	      2088	80002f80	fc69f393	andi	x7,x19,-58	 x19:0x4ca12000  x7=0x4ca12000
       20905000	      2089	80002f84	59fd9437	lui	x8,0x59fd9	  x8=0x59fd9000
       20915000	      2090	80002f88	02a95c63	bge	x18,x10,80002fc0	 x18:0x80001694 x10:0x80002f28
       20925000	      2091	80002f8c	012c0db3	add	x27,x24,x18	 x24:0x621f4a20 x18:0x80001694 x27=0xe21f60b4
       20935000	      2092	80002f90	726b0713	addi	x14,x22,1830	 x22:0x80001538 x14=0x80001c5e
       20945000	      2093	80002f94	01511fb3	sll	x31,x2,x21	  x2:0x80009fc4 x21:0x00090000 x31=0x80009fc4
       20955000	      2094	80002f98	02ad8063	beq	x27,x10,80002fb8	 x27:0xe21f60b4 x10:0x80002f28
       20965000	      2095	80002f9c	018a4263	blt	x20,x24,80002fa0	 x20:0x310fa510 x24:0x621f4a20
       20975000	      2096	00000000	00000013	addi	x0,x0,0	  x0:0x00000000
       20985000	      2097	80002f9c	00000013	addi	x0,x0,0	  x0:0x00000000
       20995000	      2098	80002fa0	05f35463	bge	x6,x31,80002fe8	  x6:0x80002f20 x31:0x80009fc4
       21005000	      2099	80002fa4	00000013	addi	x0,x0,0	  x0:0x00000000
       21015000	      2100	80002fa8	04d09663	bne	x1,x13,80002ff4	  x1:0x80002f64 x13:0x00000010
       21025000	      2101	00000000	00000013	addi	x0,x0,0	  x0:0x00000000
       21035000	      2102	80002ff0	00000013	addi	x0,x0,0	  x0:0x00000000
       21045000	      2103	80002ff4	46623893	sltiu	x17,x4,1126	  x4:0x80002f6c x17=0x00000000
       21055000	      2104	80002ff8	004b4663	blt	x22,x4,80003004	 x22:0x80001538  x4:0x80002f6c
       21065000	      2105	00000000	00000013	addi	x0,x0,0	  x0:0x00000000
       21075000	      2106	80003000	00000013	addi	x0,x0,0	  x0:0x00000000
       21085000	      2107	80003004	7142ba93	sltiu	x21,x5,1812	  x5:0xcca1bf04 x21=0x00000000
       21095000	      2108	80003008	01b4b733	sltu	x14,x9,x27	  x9:0x80002f50 x27:0xe21f60b4 x14=0x00000001
       21105000	      2109	8000300c	0100d813	srli	x16,x1,0x10	  x1:0x80002f64 x16=0x00008000
       21115000	      2110	80003010	02995663	bge	x18,x9,8000303c	 x18:0x80001694  x9:0x80002f50
       21125000	      2111	80003014	f913ac93	slti	x25,x7,-111	  x7:0x4ca12000 x25=0x00000000
       21135000	      2112	80003018	01aa30b3	sltu	x1,x20,x26	 x20:0x310fa510 x26:0x80009f04  x1=0x00000001
       21145000	      2113	8000301c	000b6c33	or	x24,x22,x0	 x22:0x80001538  x0:0x00000000 x24=0x80001538
       21155000	      2114	80003020	003b09b3	add	x19,x22,x3	 x22:0x80001538  x3:0x80002f30 x19=0x00004468
       21165000	      2115	80003024	012be033	or	x0,x23,x18	 x23:0x00000008 x18:0x80001694
       21175000	      2116	80003028	0055ce33	xor	x28,x11,x5	 x11:0x00000000  x5:0xcca1bf04 x28=0xcca1bf04
       21185000	      2117	8000302c	018db6b3	sltu	x13,x27,x24	 x27:0xe21f60b4 x24:0x80001538 x13=0x00000000
       21195000	      2118	80003030	01da4033	xor	x0,x20,x29	 x20:0x310fa510 x29:0xf22f49ae
       21205000	      2119	80003034	eda22393	slti	x7,x4,-294	  x4:0x80002f6c  x7=0x00000001
       21215000	      2120	80003038	016b97b3	sll	x15,x23,x22	 x23:0x00000008 x22:0x80001538 x15=0x08000000
       21225000	      2121	8000303c	00cac633	xor	x12,x21,x12	 x21:0x00000000 x12:0x80000d64 x12=0x80000d64
       21235000	      2122	80003040	29ecb493	sltiu	x9,x25,670	 x25:0x00000000  x9=0x00000001
       21245000	      2123	80003044	037bc663	blt	x23,x23,80003070	 x23:0x00000008 x23:0x00000008
       21255000	      2124	80003048	01fc5663	bge	x24,x31,80003054	 x24:0x80001538 x31:0x80009fc4
       21265000	      2125	8000304c	0044da93	srli	x21,x9,0x4	  x9:0x00000001 x21=0x00000000
       21275000	      2126	80003050	41f08c33	sub	x24,x1,x31	  x1:0x00000001 x31:0x80009fc4 x24=0x7fff603d
       21285000	      2127	80003054	01d21093	slli	x1,x4,0x1d	  x4:0x80002f6c  x1=0x80000000
       21295000	      2128	80003058	5829ab93	slti	x23,x19,1410	 x19:0x00004468 x23=0x00000000
       21305000	      2129	8000305c	2d1a2913	slti	x18,x20,721	 x20:0x310fa510 x18=0x00000000
       21315000	      2130	80003060	04af0463	beq	x30,x10,800030a8	 x30:0xc9a5c000 x10:0x80002f28
       21325000	      2131	80003064	7b6b8813	addi	x16,x23,1974	 x23:0x00000000 x16=0x000007b6
       21335000	      2132	80003068	2d141fb7	lui	x31,0x2d141	 x31=0x2d141000
       21345000	      2133	8000306c	003c1a13	slli	x20,x24,0x3	 x24:0x7fff603d x20=0xfffb01e8
       21355000	      2134	80003070	45633513	sltiu	x10,x6,1110	  x6:0x80002f20 x10=0x00000000
       21365000	      2135	80003074	412c80b3	sub	x1,x25,x18	 x25:0x00000000 x18:0x00000000  x1=0x00000000
       21375000	      2136	80003078	03c85263	bge	x16,x28,8000309c	 x16:0x000007b6 x28:0xcca1bf04
       21385000	      2137	00000000	00000013	addi	x0,x0,0	  x0:0x00000000
       21395000	      2138	80003098	00000013	addi	x0,x0,0	  x0:0x00000000
       21405000	      2139	8000309c	03424a63	blt	x4,x20,800030d0	  x4:0x80002f6c x20:0xfffb01e8
       21415000	      2140	00000000	00000013	addi	x0,x0,0	  x0:0x00000000
       21425000	      2141	800030cc	00000013	addi	x0,x0,0	  x0:0x00000000
       21435000	      2142	800030d0	41afdb93	srai	x23,x31,0x1a	 x31:0x2d141000 x23=0x0000000b
       21445000	      2143	800030d4	0031d333	srl	x6,x3,x3	  x3:0x80002f30  x3:0x80002f30  x6=0x00008000
       21455000	      2144	800030d8	dd4ae493	ori	x9,x21,-556	 x21:0x00000000  x9=0xfffffdd4
       21465000	      2145	800030dc	028c0863	beq	x24,x8,8000310c	 x24:0x7fff603d  x8:0x59fd9000
       21475000	      2146	800030e0	4039d913	srai	x18,x19,0x3	 x19:0x00004468 x18=0x0000088d
       21485000	      2147	800030e4	7f148e13	addi	x28,x9,2033	  x9:0xfffffdd4 x28=0x000005c5
       21495000	      2148	800030e8	40205f33	sra	x30,x0,x2	  x0:0x00000000  x2:0x80009fc4 x30=0x00000000
       21505000	      2149	800030ec	4bde7c13	andi	x24,x28,1213	 x28:0x000005c5 x24=0x00000485
       21515000	      2150	800030f0	412f5033	sra	x0,x30,x18	 x30:0x00000000 x18:0x0000088d
       21525000	      2151	800030f4	02baca63	blt	x21,x11,80003128	 x21:0x00000000 x11:0x00000000
       21535000	      2152	800030f8	48f370b7	lui	x1,0x48f37	  x1=0x48f37000
       21545000	      2153	800030fc	01a71b93	slli	x23,x14,0x1a	 x14:0x00000001 x23=0x04000000
       21555000	      2154	80003100	02d75063	bge	x14,x13,80003120	 x14:0x00000001 x13:0x00000000
       21565000	      2155	00000000	00000013	addi	x0,x0,0	  x0:0x00000000
       21575000	      2156	8000311c	00000013	addi	x0,x0,0	  x0:0x00000000
       21585000	      2157	80003120	010e0333	add	x6,x28,x16	 x28:0x000005c5 x16:0x000007b6  x6=0x00000d7b
       21595000	      2158	80003124	33994413	xori	x8,x18,825	 x18:0x0000088d  x8=0x00000bb4
       21605000	      2159	80003128	002b9f33	sll	x30,x23,x2	 x23:0x04000000  x2:0x80009fc4 x30=0x40000000
       21615000	      2160	8000312c	004d2303	lw	x6,4(x26)	 x26:0x80009f04  x6=0x80000ad4 PA:0x80009f08
       21625000	      2161	00000000	00000013	addi	x0,x0,0	  x0:0x00000000
       21635000	      2162	80003130	00641033	sll	x0,x8,x6	  x8:0x00000bb4  x6:0x80000ad4
       21645000	      2163	80003134	404ed0b3	sra	x1,x29,x4	 x29:0xf22f49ae  x4:0x80002f6c  x1=0xffff22f4
       21655000	      2164	80003138	00141013	slli	x0,x8,0x1	  x8:0x00000bb4
       21665000	      2165	8000313c	b7acdf97	auipc	x31,0xb7acd	 x31=0x37ad0138
       21675000	      2166	80003140	00206ab3	or	x21,x0,x2	  x0:0x00000000  x2:0x80009fc4 x21=0x80009fc4
       21685000	      2167	80003144	014d0d13	addi	x26,x26,20	 x26:0x80009f04 x26=0x80009f18
       21695000	      2168	80003148	00121d93	slli	x27,x4,0x1	  x4:0x80002f6c x27=0x00005ed8
       21705000	      2169	8000314c	00130413	addi	x8,x6,1	  x6:0x80000ad4  x8=0x80000ad5
       21715000	      2170	80003150	00040467	jalr	x8,x8,0	  x8:0x80000ad5  x8=0x80003150
       21725000	      2171	00000000	00000013	addi	x0,x0,0	  x0:0x00000000
       21735000	      2172	80000ad4	00000013	addi	x0,x0,0	  x0:0x00000000
       21745000	      2173	80000ad8	0380036f	jal	x6,80000ad8	  x6=0x80000ad8
       21755000	      2174	00000000	00000013	addi	x0,x0,0	  x0:0x00000000
       21765000	      2175	80000b0c	00000013	addi	x0,x0,0	  x0:0x00000000
       21775000	      2176	80000b10	014000ef	jal	x1,80000b10	  x1=0x80000b10
       21785000	      2177	00000000	00000013	addi	x0,x0,0	  x0:0x00000000
       21795000	      2178	80000b20	00000013	addi	x0,x0,0	  x0:0x00000000
       21805000	      2179	80000b24	0100036f	jal	x6,80000b24	  x6=0x80000b24
       21815000	      2180	00000000	00000013	addi	x0,x0,0	  x0:0x00000000
       21825000	      2181	80000b30	00000013	addi	x0,x0,0	  x0:0x00000000
       21835000	      2182	80000b34	0040036f	jal	x6,80000b34	  x6=0x80000b34
       21845000	      2183	00000000	00000013	addi	x0,x0,0	  x0:0x00000000
       21855000	      2184	80000b34	00000013	addi	x0,x0,0	  x0:0x00000000
       21865000	      2185	80000b38	fc9ff26f	jal	x4,80000b38	  x4=0x80000b38
       21875000	      2186	00000000	00000013	addi	x0,x0,0	  x0:0x00000000
       21885000	      2187	80000afc	00000013	addi	x0,x0,0	  x0:0x00000000
       21895000	      2188	80000b00	ff9ff36f	jal	x6,80000b00	  x6=0x80000b00
       21905000	      2189	00000000	00000013	addi	x0,x0,0	  x0:0x00000000
       21915000	      2190	80000af4	00000013	addi	x0,x0,0	  x0:0x00000000
       21925000	      2191	80000af8	010000ef	jal	x1,80000af8	  x1=0x80000af8
       21935000	      2192	00000000	00000013	addi	x0,x0,0	  x0:0x00000000
       21945000	      2193	80000b04	00000013	addi	x0,x0,0	  x0:0x00000000
       21955000	      2194	80000b08	fe9ffb6f	jal	x22,80000b08	 x22=0x80000b08
       21965000	      2195	00000000	00000013	addi	x0,x0,0	  x0:0x00000000
       21975000	      2196	80000aec	00000013	addi	x0,x0,0	  x0:0x00000000
       21985000	      2197	80000af0	0240036f	jal	x6,80000af0	  x6=0x80000af0
       21995000	      2198	00000000	00000013	addi	x0,x0,0	  x0:0x00000000
       22005000	      2199	80000b10	00000013	addi	x0,x0,0	  x0:0x00000000
       22015000	      2200	80000b14	018000ef	jal	x1,80000b14	  x1=0x80000b14
       22025000	      2201	00000000	00000013	addi	x0,x0,0	  x0:0x00000000
       22035000	      2202	80000b28	00000013	addi	x0,x0,0	  x0:0x00000000
       22045000	      2203	80000b2c	ff5ff0ef	jal	x1,80000b2c	  x1=0x80000b2c
       22055000	      2204	00000000	00000013	addi	x0,x0,0	  x0:0x00000000
       22065000	      2205	80000b1c	00000013	addi	x0,x0,0	  x0:0x00000000
       22075000	      2206	80000b20	fedff8ef	jal	x17,80000b20	 x17=0x80000b20
       22085000	      2207	00000000	00000013	addi	x0,x0,0	  x0:0x00000000
       22095000	      2208	80000b08	00000013	addi	x0,x0,0	  x0:0x00000000
       22105000	      2209	80000b0c	ff9ff2ef	jal	x5,80000b0c	  x5=0x80000b0c
       22115000	      2210	00000000	00000013	addi	x0,x0,0	  x0:0x00000000
       22125000	      2211	80000b00	00000013	addi	x0,x0,0	  x0:0x00000000
       22135000	      2212	80000b04	fddff0ef	jal	x1,80000b04	  x1=0x80000b04
       22145000	      2213	00000000	00000013	addi	x0,x0,0	  x0:0x00000000
       22155000	      2214	80000adc	00000013	addi	x0,x0,0	  x0:0x00000000
       22165000	      2215	80000ae0	008000ef	jal	x1,80000ae0	  x1=0x80000ae0
       22175000	      2216	00000000	00000013	addi	x0,x0,0	  x0:0x00000000
       22185000	      2217	80000ae4	00000013	addi	x0,x0,0	  x0:0x00000000
       22195000	      2218	80000ae8	004000ef	jal	x1,80000ae8	  x1=0x80000ae8
       22205000	      2219	00000000	00000013	addi	x0,x0,0	  x0:0x00000000
       22215000	      2220	80000ae8	00000013	addi	x0,x0,0	  x0:0x00000000
       22225000	      2221	80000aec	03c0076f	jal	x14,80000aec	 x14=0x80000aec
       22235000	      2222	00000000	00000013	addi	x0,x0,0	  x0:0x00000000
       22245000	      2223	80000b24	00000013	addi	x0,x0,0	  x0:0x00000000
       22255000	      2224	80000b28	ff1ff0ef	jal	x1,80000b28	  x1=0x80000b28
       22265000	      2225	00000000	00000013	addi	x0,x0,0	  x0:0x00000000
       22275000	      2226	80000b14	00000013	addi	x0,x0,0	  x0:0x00000000
       22285000	      2227	80000b18	0180026f	jal	x4,80000b18	  x4=0x80000b18
       22295000	      2228	00000000	00000013	addi	x0,x0,0	  x0:0x00000000
       22305000	      2229	80000b2c	00000013	addi	x0,x0,0	  x0:0x00000000
       22315000	      2230	80000b30	fcdff36f	jal	x6,80000b30	  x6=0x80000b30
       22325000	      2231	00000000	00000013	addi	x0,x0,0	  x0:0x00000000
       22335000	      2232	80000af8	00000013	addi	x0,x0,0	  x0:0x00000000
       22345000	      2233	80000afc	fe1ff0ef	jal	x1,80000afc	  x1=0x80000afc
       22355000	      2234	00000000	00000013	addi	x0,x0,0	  x0:0x00000000
       22365000	      2235	80000ad8	00000013	addi	x0,x0,0	  x0:0x00000000
       22375000	      2236	80000adc	018000ef	jal	x1,80000adc	  x1=0x80000adc
       22385000	      2237	00000000	00000013	addi	x0,x0,0	  x0:0x00000000
       22395000	      2238	80000af0	00000013	addi	x0,x0,0	  x0:0x00000000
       22405000	      2239	80000af4	ff1ff0ef	jal	x1,80000af4	  x1=0x80000af4
       22415000	      2240	00000000	00000013	addi	x0,x0,0	  x0:0x00000000
       22425000	      2241	80000ae0	00000013	addi	x0,x0,0	  x0:0x00000000
       22435000	      2242	80000ae4	038000ef	jal	x1,80000ae4	  x1=0x80000ae4
       22445000	      2243	00000000	00000013	addi	x0,x0,0	  x0:0x00000000
       22455000	      2244	80000b18	00000013	addi	x0,x0,0	  x0:0x00000000
       22465000	      2245	80000b1c	020000ef	jal	x1,80000b1c	  x1=0x80000b1c
       22475000	      2246	00000000	00000013	addi	x0,x0,0	  x0:0x00000000
       22485000	      2247	80000b38	00000013	addi	x0,x0,0	  x0:0x00000000
       22495000	      2248	80000b3c	5c2e6f13	ori	x30,x28,1474	 x28:0x000005c5 x30=0x000005c7
       22505000	      2249	80000b40	0500036f	jal	x6,80000b40	  x6=0x80000b40
       22515000	      2250	00000000	00000013	addi	x0,x0,0	  x0:0x00000000
       22525000	      2251	80000b8c	00000013	addi	x0,x0,0	  x0:0x00000000
       22535000	      2252	80000b90	fedff36f	jal	x6,80000b90	  x6=0x80000b90
       22545000	      2253	00000000	00000013	addi	x0,x0,0	  x0:0x00000000
       22555000	      2254	80000b78	00000013	addi	x0,x0,0	  x0:0x00000000
       22565000	      2255	80000b7c	fcdff0ef	jal	x1,80000b7c	  x1=0x80000b7c
       22575000	      2256	00000000	00000013	addi	x0,x0,0	  x0:0x00000000
       22585000	      2257	80000b44	00000013	addi	x0,x0,0	  x0:0x00000000
       22595000	      2258	80000b48	028000ef	jal	x1,80000b48	  x1=0x80000b48
       22605000	      2259	00000000	00000013	addi	x0,x0,0	  x0:0x00000000
       22615000	      2260	80000b6c	00000013	addi	x0,x0,0	  x0:0x00000000
       22625000	      2261	80000b70	004000ef	jal	x1,80000b70	  x1=0x80000b70
       22635000	      2262	00000000	00000013	addi	x0,x0,0	  x0:0x00000000
       22645000	      2263	80000b70	00000013	addi	x0,x0,0	  x0:0x00000000
       22655000	      2264	80000b74	018000ef	jal	x1,80000b74	  x1=0x80000b74
       22665000	      2265	00000000	00000013	addi	x0,x0,0	  x0:0x00000000
       22675000	      2266	80000b88	00000013	addi	x0,x0,0	  x0:0x00000000
       22685000	      2267	80000b8c	fddff0ef	jal	x1,80000b8c	  x1=0x80000b8c
       22695000	      2268	00000000	00000013	addi	x0,x0,0	  x0:0x00000000
       22705000	      2269	80000b64	00000013	addi	x0,x0,0	  x0:0x00000000
       22715000	      2270	80000b68	034000ef	jal	x1,80000b68	  x1=0x80000b68
       22725000	      2271	00000000	00000013	addi	x0,x0,0	  x0:0x00000000
       22735000	      2272	80000b98	00000013	addi	x0,x0,0	  x0:0x00000000
       22745000	      2273	80000b9c	fc9ff36f	jal	x6,80000b9c	  x6=0x80000b9c
       22755000	      2274	00000000	00000013	addi	x0,x0,0	  x0:0x00000000
       22765000	      2275	80000b60	00000013	addi	x0,x0,0	  x0:0x00000000
       22775000	      2276	80000b64	024000ef	jal	x1,80000b64	  x1=0x80000b64
       22785000	      2277	00000000	00000013	addi	x0,x0,0	  x0:0x00000000
       22795000	      2278	80000b84	00000013	addi	x0,x0,0	  x0:0x00000000
       22805000	      2279	80000b88	028000ef	jal	x1,80000b88	  x1=0x80000b88
       22815000	      2280	00000000	00000013	addi	x0,x0,0	  x0:0x00000000
       22825000	      2281	80000bac	00000013	addi	x0,x0,0	  x0:0x00000000
       22835000	      2282	80000bb0	ff9ffb6f	jal	x22,80000bb0	 x22=0x80000bb0
       22845000	      2283	00000000	00000013	addi	x0,x0,0	  x0:0x00000000
       22855000	      2284	80000ba4	00000013	addi	x0,x0,0	  x0:0x00000000
       22865000	      2285	80000ba8	0100036f	jal	x6,80000ba8	  x6=0x80000ba8
       22875000	      2286	00000000	00000013	addi	x0,x0,0	  x0:0x00000000
       22885000	      2287	80000bb4	00000013	addi	x0,x0,0	  x0:0x00000000
       22895000	      2288	80000bb8	fcdff0ef	jal	x1,80000bb8	  x1=0x80000bb8
       22905000	      2289	00000000	00000013	addi	x0,x0,0	  x0:0x00000000
       22915000	      2290	80000b80	00000013	addi	x0,x0,0	  x0:0x00000000
       22925000	      2291	80000b84	fd1ff0ef	jal	x1,80000b84	  x1=0x80000b84
       22935000	      2292	00000000	00000013	addi	x0,x0,0	  x0:0x00000000
       22945000	      2293	80000b50	00000013	addi	x0,x0,0	  x0:0x00000000
       22955000	      2294	80000b54	00c000ef	jal	x1,80000b54	  x1=0x80000b54
       22965000	      2295	00000000	00000013	addi	x0,x0,0	  x0:0x00000000
       22975000	      2296	80000b5c	00000013	addi	x0,x0,0	  x0:0x00000000
       22985000	      2297	80000b60	ff1ff36f	jal	x6,80000b60	  x6=0x80000b60
       22995000	      2298	00000000	00000013	addi	x0,x0,0	  x0:0x00000000
       23005000	      2299	80000b4c	00000013	addi	x0,x0,0	  x0:0x00000000
       23015000	      2300	80000b50	0640056f	jal	x10,80000b50	 x10=0x80000b50
       23025000	      2301	00000000	00000013	addi	x0,x0,0	  x0:0x00000000
       23035000	      2302	80000bb0	00000013	addi	x0,x0,0	  x0:0x00000000
       23045000	      2303	80000bb4	fe5ff36f	jal	x6,80000bb4	  x6=0x80000bb4
       23055000	      2304	00000000	00000013	addi	x0,x0,0	  x0:0x00000000
       23065000	      2305	80000b94	00000013	addi	x0,x0,0	  x0:0x00000000
       23075000	      2306	80000b98	fd5ff0ef	jal	x1,80000b98	  x1=0x80000b98
       23085000	      2307	00000000	00000013	addi	x0,x0,0	  x0:0x00000000
       23095000	      2308	80000b68	00000013	addi	x0,x0,0	  x0:0x00000000
       23105000	      2309	80000b6c	fedff0ef	jal	x1,80000b6c	  x1=0x80000b6c
       23115000	      2310	00000000	00000013	addi	x0,x0,0	  x0:0x00000000
       23125000	      2311	80000b54	00000013	addi	x0,x0,0	  x0:0x00000000
       23135000	      2312	80000b58	028005ef	jal	x11,80000b58	 x11=0x80000b58
       23145000	      2313	00000000	00000013	addi	x0,x0,0	  x0:0x00000000
       23155000	      2314	80000b7c	00000013	addi	x0,x0,0	  x0:0x00000000
       23165000	      2315	80000b80	0240096f	jal	x18,80000b80	 x18=0x80000b80
       23175000	      2316	00000000	00000013	addi	x0,x0,0	  x0:0x00000000
       23185000	      2317	80000ba0	00000013	addi	x0,x0,0	  x0:0x00000000
       23195000	      2318	80000ba4	fd5ff0ef	jal	x1,80000ba4	  x1=0x80000ba4
       23205000	      2319	00000000	00000013	addi	x0,x0,0	  x0:0x00000000
       23215000	      2320	80000b74	00000013	addi	x0,x0,0	  x0:0x00000000
       23225000	      2321	80000b78	01c0036f	jal	x6,80000b78	  x6=0x80000b78
       23235000	      2322	00000000	00000013	addi	x0,x0,0	  x0:0x00000000
       23245000	      2323	80000b90	00000013	addi	x0,x0,0	  x0:0x00000000
       23255000	      2324	80000b94	00c000ef	jal	x1,80000b94	  x1=0x80000b94
       23265000	      2325	00000000	00000013	addi	x0,x0,0	  x0:0x00000000
       23275000	      2326	80000b9c	00000013	addi	x0,x0,0	  x0:0x00000000
       23285000	      2327	80000ba0	fbdff36f	jal	x6,80000ba0	  x6=0x80000ba0
       23295000	      2328	00000000	00000013	addi	x0,x0,0	  x0:0x00000000
       23305000	      2329	80000b58	00000013	addi	x0,x0,0	  x0:0x00000000
       23315000	      2330	80000b5c	fe9ff0ef	jal	x1,80000b5c	  x1=0x80000b5c
       23325000	      2331	00000000	00000013	addi	x0,x0,0	  x0:0x00000000
       23335000	      2332	80000b40	00000013	addi	x0,x0,0	  x0:0x00000000
       23345000	      2333	80000b44	008000ef	jal	x1,80000b44	  x1=0x80000b44
       23355000	      2334	00000000	00000013	addi	x0,x0,0	  x0:0x00000000
       23365000	      2335	80000b48	00000013	addi	x0,x0,0	  x0:0x00000000
       23375000	      2336	80000b4c	0600026f	jal	x4,80000b4c	  x4=0x80000b4c
       23385000	      2337	00000000	00000013	addi	x0,x0,0	  x0:0x00000000
       23395000	      2338	80000ba8	00000013	addi	x0,x0,0	  x0:0x00000000
       23405000	      2339	80000bac	010000ef	jal	x1,80000bac	  x1=0x80000bac
       23415000	      2340	00000000	00000013	addi	x0,x0,0	  x0:0x00000000
       23425000	      2341	80000bb8	00000013	addi	x0,x0,0	  x0:0x00000000
       23435000	      2342	80000bbc	01a94233	xor	x4,x18,x26	 x18:0x80000b80 x26:0x80009f18  x4=0x00009498
       23445000	      2343	80000bc0	00736263	bltu	x6,x7,80000bc4	  x6:0x80000ba0  x7:0x00000001
       23455000	      2344	80000bc4	0100da13	srli	x20,x1,0x10	  x1:0x80000bac x20=0x00008000
       23465000	      2345	80000bc8	01cbebb3	or	x23,x23,x28	 x23:0x04000000 x28:0x000005c5 x23=0x040005c5
       23475000	      2346	80000bcc	04f98063	beq	x19,x15,80000c0c	 x19:0x00004468 x15:0x08000000
       23485000	      2347	80000bd0	04fd4063	blt	x26,x15,80000c10	 x26:0x80009f18 x15:0x08000000
       23495000	      2348	00000000	00000013	addi	x0,x0,0	  x0:0x00000000
       23505000	      2349	80000c0c	00000013	addi	x0,x0,0	  x0:0x00000000
       23515000	      2350	80000c10	05070863	beq	x14,x16,80000c60	 x14:0x80000aec x16:0x000007b6
       23525000	      2351	80000c14	01cf70b3	and	x1,x30,x28	 x30:0x000005c7 x28:0x000005c5  x1=0x000005c5
       23535000	      2352	80000c18	00d18463	beq	x3,x13,80000c20	  x3:0x80002f30 x13:0x00000000
       23545000	      2353	80000c1c	03591e63	bne	x18,x21,80000c58	 x18:0x80000b80 x21:0x80009fc4
       23555000	      2354	00000000	00000013	addi	x0,x0,0	  x0:0x00000000
       23565000	      2355	80000c54	00000013	addi	x0,x0,0	  x0:0x00000000
       23575000	      2356	80000c58	04df9463	bne	x31,x13,80000ca0	 x31:0x37ad0138 x13:0x00000000
       23585000	      2357	00000000	00000013	addi	x0,x0,0	  x0:0x00000000
       23595000	      2358	80000c9c	00000013	addi	x0,x0,0	  x0:0x00000000
       23605000	      2359	80000ca0	3deaa093	slti	x1,x21,990	 x21:0x80009fc4  x1=0x00000001
       23615000	      2360	80000ca4	05a0e663	bltu	x1,x26,80000cf0	  x1:0x00000001 x26:0x80009f18
       23625000	      2361	00000000	00000013	addi	x0,x0,0	  x0:0x00000000
       23635000	      2362	80000cec	00000013	addi	x0,x0,0	  x0:0x00000000
       23645000	      2363	80000cf0	00724c33	xor	x24,x4,x7	  x4:0x00009498  x7:0x00000001 x24=0x00009499
       23655000	      2364	80000cf4	00680db3	add	x27,x16,x6	 x16:0x000007b6  x6:0x80000ba0 x27=0x80001356
       23665000	      2365	80000cf8	02a41e63	bne	x8,x10,80000d34	  x8:0x80003150 x10:0x80000b50
       23675000	      2366	00000000	00000013	addi	x0,x0,0	  x0:0x00000000
       23685000	      2367	80000d30	00000013	addi	x0,x0,0	  x0:0x00000000
       23695000	      2368	80000d34	b5fcc413	xori	x8,x25,-1185	 x25:0x00000000  x8=0xfffffb5f
       23705000	      2369	80000d38	000a22b3	slt	x5,x20,x0	 x20:0x00008000  x0:0x00000000  x5=0x00000000
       23715000	      2370	80000d3c	00d34db3	xor	x27,x6,x13	  x6:0x80000ba0 x13:0x00000000 x27=0x80000ba0
       23725000	      2371	80000d40	01884863	blt	x16,x24,80000d50	 x16:0x000007b6 x24:0x00009499
       23735000	      2372	00000000	00000013	addi	x0,x0,0	  x0:0x00000000
       23745000	      2373	80000d4c	00000013	addi	x0,x0,0	  x0:0x00000000
       23755000	      2374	80000d50	202a2313	slti	x6,x20,514	 x20:0x00008000  x6=0x00000000
       23765000	      2375	80000d54	9372c613	xori	x12,x5,-1737	  x5:0x00000000 x12=0xfffff937
       23775000	      2376	80000d58	004d2303	lw	x6,4(x26)	 x26:0x80009f18  x6=0x80001810 PA:0x80009f1c
       23785000	      2377	80000d5c	009e23b3	slt	x7,x28,x9	 x28:0x000005c5  x9:0xfffffdd4  x7=0x00000000
       23795000	      2378	80000d60	00000013	addi	x0,x0,0	  x0:0x00000000
       23805000	      2379	80000d64	000d76b3	and	x13,x26,x0	 x26:0x80009f18  x0:0x00000000 x13=0x00000000
       23815000	      2380	80000d68	00fa1993	slli	x19,x20,0xf	 x20:0x00008000 x19=0x40000000
       23825000	      2381	80000d6c	034d0d13	addi	x26,x26,52	 x26:0x80009f18 x26=0x80009f4c
       23835000	      2382	80000d70	f27bfb93	andi	x23,x23,-217	 x23:0x040005c5 x23=0x04000505
       23845000	      2383	80000d74	414c50b3	sra	x1,x24,x20	 x24:0x00009499 x20:0x00008000  x1=0x00009499
       23855000	      2384	80000d78	2aa3b693	sltiu	x13,x7,682	  x7:0x00000000 x13=0x00000001
       23865000	      2385	80000d7c	1e576713	ori	x14,x14,485	 x14:0x80000aec x14=0x80000bed
       23875000	      2386	80000d80	00030213	addi	x4,x6,0	  x6:0x80001810  x4=0x80001810
       23885000	      2387	80000d84	00020267	jalr	x4,x4,0	  x4:0x80001810  x4=0x80000d84
       23895000	      2388	00000000	00000013	addi	x0,x0,0	  x0:0x00000000
       23905000	      2389	80001810	00000013	addi	x0,x0,0	  x0:0x00000000
       23915000	      2390	80001814	4106db93	srai	x23,x13,0x10	 x13:0x00000001 x23=0x00000000
       23925000	      2391	80001818	011bb433	sltu	x8,x23,x17	 x23:0x00000000 x17:0x80000b20  x8=0x00000001
       23935000	      2392	8000181c	000f5013	srli	x0,x30,0x0	 x30:0x000005c7
       23945000	      2393	80001820	00910cb3	add	x25,x2,x9	  x2:0x80009fc4  x9:0xfffffdd4 x25=0x80009d98
       23955000	      2394	80001824	04859663	bne	x11,x8,80001870	 x11:0x80000b58  x8:0x00000001
       23965000	      2395	00000000	00000013	addi	x0,x0,0	  x0:0x00000000
       23975000	      2396	8000186c	00000013	addi	x0,x0,0	  x0:0x00000000
       23985000	      2397	80001870	41765813	srai	x16,x12,0x17	 x12:0xfffff937 x16=0xffffffff
       23995000	      2398	80001874	01c824b3	slt	x9,x16,x28	 x16:0xffffffff x28:0x000005c5  x9=0x00000001
       24005000	      2399	80001878	0040036f	jal	x6,80001878	  x6=0x80001878
       24015000	      2400	00000000	00000013	addi	x0,x0,0	  x0:0x00000000
       24025000	      2401	80001878	00000013	addi	x0,x0,0	  x0:0x00000000
       24035000	      2402	8000187c	010000ef	jal	x1,8000187c	  x1=0x8000187c
       24045000	      2403	00000000	00000013	addi	x0,x0,0	  x0:0x00000000
       24055000	      2404	80001888	00000013	addi	x0,x0,0	  x0:0x00000000
       24065000	      2405	8000188c	03c0036f	jal	x6,8000188c	  x6=0x8000188c
       24075000	      2406	00000000	00000013	addi	x0,x0,0	  x0:0x00000000
       24085000	      2407	800018c4	00000013	addi	x0,x0,0	  x0:0x00000000
       24095000	      2408	800018c8	fe1ff0ef	jal	x1,800018c8	  x1=0x800018c8
       24105000	      2409	00000000	00000013	addi	x0,x0,0	  x0:0x00000000
       24115000	      2410	800018a4	00000013	addi	x0,x0,0	  x0:0x00000000
       24125000	      2411	800018a8	0080026f	jal	x4,800018a8	  x4=0x800018a8
       24135000	      2412	00000000	00000013	addi	x0,x0,0	  x0:0x00000000
       24145000	      2413	800018ac	00000013	addi	x0,x0,0	  x0:0x00000000
       24155000	      2414	800018b0	00c000ef	jal	x1,800018b0	  x1=0x800018b0
       24165000	      2415	00000000	00000013	addi	x0,x0,0	  x0:0x00000000
       24175000	      2416	800018b8	00000013	addi	x0,x0,0	  x0:0x00000000
       24185000	      2417	800018bc	fddfffef	jal	x31,800018bc	 x31=0x800018bc
       24195000	      2418	00000000	00000013	addi	x0,x0,0	  x0:0x00000000
       24205000	      2419	80001894	00000013	addi	x0,x0,0	  x0:0x00000000
       24215000	      2420	80001898	040000ef	jal	x1,80001898	  x1=0x80001898
       24225000	      2421	00000000	00000013	addi	x0,x0,0	  x0:0x00000000
       24235000	      2422	800018d4	00000013	addi	x0,x0,0	  x0:0x00000000
       24245000	      2423	800018d8	ff5ff6ef	jal	x13,800018d8	 x13=0x800018d8
       24255000	      2424	00000000	00000013	addi	x0,x0,0	  x0:0x00000000
       24265000	      2425	800018c8	00000013	addi	x0,x0,0	  x0:0x00000000
       24275000	      2426	800018cc	00400b6f	jal	x22,800018cc	 x22=0x800018cc
       24285000	      2427	00000000	00000013	addi	x0,x0,0	  x0:0x00000000
       24295000	      2428	800018cc	00000013	addi	x0,x0,0	  x0:0x00000000
       24305000	      2429	800018d0	ff5ff0ef	jal	x1,800018d0	  x1=0x800018d0
       24315000	      2430	00000000	00000013	addi	x0,x0,0	  x0:0x00000000
       24325000	      2431	800018c0	00000013	addi	x0,x0,0	  x0:0x00000000
       24335000	      2432	800018c4	ffdff76f	jal	x14,800018c4	 x14=0x800018c4
       24345000	      2433	00000000	00000013	addi	x0,x0,0	  x0:0x00000000
       24355000	      2434	800018bc	00000013	addi	x0,x0,0	  x0:0x00000000
       24365000	      2435	800018c0	fe5ff0ef	jal	x1,800018c0	  x1=0x800018c0
       24375000	      2436	00000000	00000013	addi	x0,x0,0	  x0:0x00000000
       24385000	      2437	800018a0	00000013	addi	x0,x0,0	  x0:0x00000000
       24395000	      2438	800018a4	ff1ff36f	jal	x6,800018a4	  x6=0x800018a4
       24405000	      2439	00000000	00000013	addi	x0,x0,0	  x0:0x00000000
       24415000	      2440	80001890	00000013	addi	x0,x0,0	  x0:0x00000000
       24425000	      2441	80001894	ffdff0ef	jal	x1,80001894	  x1=0x80001894
       24435000	      2442	00000000	00000013	addi	x0,x0,0	  x0:0x00000000
       24445000	      2443	8000188c	00000013	addi	x0,x0,0	  x0:0x00000000
       24455000	      2444	80001890	028002ef	jal	x5,80001890	  x5=0x80001890
       24465000	      2445	00000000	00000013	addi	x0,x0,0	  x0:0x00000000
       24475000	      2446	800018b4	00000013	addi	x0,x0,0	  x0:0x00000000
       24485000	      2447	800018b8	fe5ff0ef	jal	x1,800018b8	  x1=0x800018b8
       24495000	      2448	00000000	00000013	addi	x0,x0,0	  x0:0x00000000
       24505000	      2449	80001898	00000013	addi	x0,x0,0	  x0:0x00000000
       24515000	      2450	8000189c	fe5ff0ef	jal	x1,8000189c	  x1=0x8000189c
       24525000	      2451	00000000	00000013	addi	x0,x0,0	  x0:0x00000000
       24535000	      2452	8000187c	00000013	addi	x0,x0,0	  x0:0x00000000
       24545000	      2453	80001880	008004ef	jal	x9,80001880	  x9=0x80001880
       24555000	      2454	00000000	00000013	addi	x0,x0,0	  x0:0x00000000
       24565000	      2455	80001884	00000013	addi	x0,x0,0	  x0:0x00000000
       24575000	      2456	80001888	018000ef	jal	x1,80001888	  x1=0x80001888
       24585000	      2457	00000000	00000013	addi	x0,x0,0	  x0:0x00000000
       24595000	      2458	8000189c	00000013	addi	x0,x0,0	  x0:0x00000000
       24605000	      2459	800018a0	0140036f	jal	x6,800018a0	  x6=0x800018a0
       24615000	      2460	00000000	00000013	addi	x0,x0,0	  x0:0x00000000
       24625000	      2461	800018b0	00000013	addi	x0,x0,0	  x0:0x00000000
       24635000	      2462	800018b4	020000ef	jal	x1,800018b4	  x1=0x800018b4
       24645000	      2463	00000000	00000013	addi	x0,x0,0	  x0:0x00000000
       24655000	      2464	800018d0	00000013	addi	x0,x0,0	  x0:0x00000000
       24665000	      2465	800018d4	fb1ff0ef	jal	x1,800018d4	  x1=0x800018d4
       24675000	      2466	00000000	00000013	addi	x0,x0,0	  x0:0x00000000
       24685000	      2467	80001880	00000013	addi	x0,x0,0	  x0:0x00000000
       24695000	      2468	80001884	028001ef	jal	x3,80001884	  x3=0x80001884
       24705000	      2469	00000000	00000013	addi	x0,x0,0	  x0:0x00000000
       24715000	      2470	800018a8	00000013	addi	x0,x0,0	  x0:0x00000000
       24725000	      2471	800018ac	030000ef	jal	x1,800018ac	  x1=0x800018ac
       24735000	      2472	00000000	00000013	addi	x0,x0,0	  x0:0x00000000
       24745000	      2473	800018d8	00000013	addi	x0,x0,0	  x0:0x00000000
       24755000	      2474	800018dc	41d2da93	srai	x21,x5,0x1d	  x5:0x80001890 x21=0xfffffffc
       24765000	      2475	800018e0	017b4033	xor	x0,x22,x23	 x22:0x800018cc x23:0x00000000
       24775000	      2476	800018e4	03318863	beq	x3,x19,80001914	  x3:0x80001884 x19:0x40000000
       24785000	      2477	800018e8	414d5e13	srai	x28,x26,0x14	 x26:0x80009f4c x28=0xfffff800
       24795000	      2478	800018ec	53e12b93	slti	x23,x2,1342	  x2:0x80009fc4 x23=0x00000001
       24805000	      2479	800018f0	01f76533	or	x10,x14,x31	 x14:0x800018c4 x31:0x800018bc x10=0x800018fc
       24815000	      2480	800018f4	00c6bab3	sltu	x21,x13,x12	 x13:0x800018d8 x12:0xfffff937 x21=0x00000001
       24825000	      2481	800018f8	04c21863	bne	x4,x12,80001948	  x4:0x800018a8 x12:0xfffff937
       24835000	      2482	00000000	00000013	addi	x0,x0,0	  x0:0x00000000
       24845000	      2483	80001944	00000013	addi	x0,x0,0	  x0:0x00000000
       24855000	      2484	80001948	3ff3ef17	auipc	x30,0x3ff3e	 x30=0xbff3f944
       24865000	      2485	8000194c	0132e8b3	or	x17,x5,x19	  x5:0x80001890 x19:0x40000000 x17=0xc0001890
       24875000	      2486	80001950	04fa1463	bne	x20,x15,80001998	 x20:0x00008000 x15:0x08000000
       24885000	      2487	00000000	00000013	addi	x0,x0,0	  x0:0x00000000
       24895000	      2488	80001994	00000013	addi	x0,x0,0	  x0:0x00000000
       24905000	      2489	80001998	00ec72b3	and	x5,x24,x14	 x24:0x00009499 x14:0x800018c4  x5=0x00001080
       24915000	      2490	8000199c	023ee863	bltu	x29,x3,800019cc	 x29:0xf22f49ae  x3:0x80001884
       24925000	      2491	800019a0	ae55fa93	andi	x21,x11,-1307	 x11:0x80000b58 x21=0x80000a40
       24935000	      2492	800019a4	414d5813	srai	x16,x26,0x14	 x26:0x80009f4c x16=0xfffff800
       24945000	      2493	800019a8	00000013	addi	x0,x0,0	  x0:0x00000000
       24955000	      2494	800019ac	0c746393	ori	x7,x8,199	  x8:0x00000001  x7=0x000000c7
       24965000	      2495	800019b0	39b8bf13	sltiu	x30,x17,923	 x17:0xc0001890 x30=0x00000000
       24975000	      2496	800019b4	0be1e593	ori	x11,x3,190	  x3:0x80001884 x11=0x800018be
       24985000	      2497	800019b8	049e5263	bge	x28,x9,800019fc	 x28:0xfffff800  x9:0x80001880
       24995000	      2498	00000000	00000013	addi	x0,x0,0	  x0:0x00000000
       25005000	      2499	800019f8	00000013	addi	x0,x0,0	  x0:0x00000000
       25015000	      2500	800019fc	03f50663	beq	x10,x31,80001a28	 x10:0x800018fc x31:0x800018bc
       25025000	      2501	80001a00	41068b33	sub	x22,x13,x16	 x13:0x800018d8 x16:0xfffff800 x22=0x800020d8
       25035000	      2502	80001a04	02224063	blt	x4,x2,80001a24	  x4:0x800018a8  x2:0x80009fc4
       25045000	      2503	00000000	00000013	addi	x0,x0,0	  x0:0x00000000
       25055000	      2504	80001a20	00000013	addi	x0,x0,0	  x0:0x00000000
       25065000	      2505	80001a24	04fe9463	bne	x29,x15,80001a6c	 x29:0xf22f49ae x15:0x08000000
       25075000	      2506	00000000	00000013	addi	x0,x0,0	  x0:0x00000000
       25085000	      2507	80001a68	00000013	addi	x0,x0,0	  x0:0x00000000
       25095000	      2508	80001a6c	26ff02b7	lui	x5,0x26ff0	  x5=0x26ff0000
       25105000	      2509	80001a70	004683b3	add	x7,x13,x4	 x13:0x800018d8  x4:0x800018a8  x7=0x00003180
       25115000	      2510	80001a74	01b79cb3	sll	x25,x15,x27	 x15:0x08000000 x27:0x80000ba0 x25=0x08000000
       25125000	      2511	80001a78	01936db3	or	x27,x6,x25	  x6:0x800018a0 x25:0x08000000 x27=0x880018a0
       25135000	      2512	80001a7c	03c9f663	bgeu	x19,x28,80001aa8	 x19:0x40000000 x28:0xfffff800
       25145000	      2513	80001a80	4139d233	sra	x4,x19,x19	 x19:0x40000000 x19:0x40000000  x4=0x40000000
       25155000	      2514	80001a84	8ee32e13	slti	x28,x6,-1810	  x6:0x800018a0 x28=0x00000001
       25165000	      2515	80001a88	013e7533	and	x10,x28,x19	 x28:0x00000001 x19:0x40000000 x10=0x00000000
       25175000	      2516	80001a8c	009c5593	srli	x11,x24,0x9	 x24:0x00009499 x11=0x0000004a
       25185000	      2517	80001a90	02f20c63	beq	x4,x15,80001ac8	  x4:0x40000000 x15:0x08000000
       25195000	      2518	80001a94	40e56313	ori	x6,x10,1038	 x10:0x00000000  x6=0x0000040e
       25205000	      2519	80001a98	92c12513	slti	x10,x2,-1748	  x2:0x80009fc4 x10=0x00000001
       25215000	      2520	80001a9c	00622933	slt	x18,x4,x6	  x4:0x40000000  x6:0x0000040e x18=0x00000000
       25225000	      2521	80001aa0	44440993	addi	x19,x8,1092	  x8:0x00000001 x19=0x00000445
       25235000	      2522	80001aa4	f5b9c737	lui	x14,0xf5b9c	 x14=0xf5b9c000
       25245000	      2523	80001aa8	445af397	auipc	x7,0x445af	  x7=0xc45b0aa4
       25255000	      2524	80001aac	002dcc63	blt	x27,x2,80001ac4	 x27:0x880018a0  x2:0x80009fc4
       25265000	      2525	80001ab0	26543c93	sltiu	x25,x8,613	  x8:0x00000001 x25=0x00000001
       25275000	      2526	80001ab4	bf16fc93	andi	x25,x13,-1039	 x13:0x800018d8 x25=0x800018d0
       25285000	      2527	80001ab8	20e86e13	ori	x28,x16,526	 x16:0xfffff800 x28=0xfffffa0e
       25295000	      2528	80001abc	04af7263	bgeu	x30,x10,80001b00	 x30:0x00000000 x10:0x00000001
       25305000	      2529	80001ac0	020ac863	blt	x21,x0,80001af0	 x21:0x80000a40  x0:0x00000000
       25315000	      2530	00000000	00000013	addi	x0,x0,0	  x0:0x00000000
       25325000	      2531	80001aec	00000013	addi	x0,x0,0	  x0:0x00000000
       25335000	      2532	80001af0	40815513	srai	x10,x2,0x8	  x2:0x80009fc4 x10=0xff80009f
       25345000	      2533	80001af4	05936663	bltu	x6,x25,80001b40	  x6:0x0000040e x25:0x800018d0
       25355000	      2534	00000000	00000013	addi	x0,x0,0	  x0:0x00000000
       25365000	      2535	80001b3c	00000013	addi	x0,x0,0	  x0:0x00000000
       25375000	      2536	80001b40	01047263	bgeu	x8,x16,80001b44	  x8:0x00000001 x16:0xfffff800
       25385000	      2537	80001b44	40309017	auipc	x0,0x40309	
       25395000	      2538	80001b48	9cde7893	andi	x17,x28,-1587	 x28:0xfffffa0e x17=0xfffff80c
       25405000	      2539	80001b4c	40e05633	sra	x12,x0,x14	  x0:0x00000000 x14:0xf5b9c000 x12=0x00000000
       25415000	      2540	80001b50	0132d713	srli	x14,x5,0x13	  x5:0x26ff0000 x14=0x000004df
       25425000	      2541	80001b54	00000013	addi	x0,x0,0	  x0:0x00000000
       25435000	      2542	80001b58	05bf4263	blt	x30,x27,80001b9c	 x30:0x00000000 x27:0x880018a0
       25445000	      2543	80001b5c	0072f2b3	and	x5,x5,x7	  x5:0x26ff0000  x7:0xc45b0aa4  x5=0x045b0000
       25455000	      2544	80001b60	857b6817	auipc	x16,0x857b6	 x16=0x057b7b5c
       25465000	      2545	80001b64	05abc863	blt	x23,x26,80001bb4	 x23:0x00000001 x26:0x80009f4c
       25475000	      2546	80001b68	9039f093	andi	x1,x19,-1789	 x19:0x00000445  x1=0x00000001
       25485000	      2547	80001b6c	00855333	srl	x6,x10,x8	 x10:0xff80009f  x8:0x00000001  x6=0x7fc0004f
       25495000	      2548	80001b70	007a3333	sltu	x6,x20,x7	 x20:0x00008000  x7:0xc45b0aa4  x6=0x00000001
       25505000	      2549	80001b74	daf28793	addi	x15,x5,-593	  x5:0x045b0000 x15=0x045afdaf
       25515000	      2550	80001b78	016e1a33	sll	x20,x28,x22	 x28:0xfffffa0e x22:0x800020d8 x20=0x0e000000
       25525000	      2551	80001b7c	01f083b3	add	x7,x1,x31	  x1:0x00000001 x31:0x800018bc  x7=0x800018bd
       25535000	      2552	80001b80	02824863	blt	x4,x8,80001bb0	  x4:0x40000000  x8:0x00000001
       25545000	      2553	80001b84	41b60a33	sub	x20,x12,x27	 x12:0x00000000 x27:0x880018a0 x20=0x77ffe760
       25555000	      2554	80001b88	01452fb3	slt	x31,x10,x20	 x10:0xff80009f x20:0x77ffe760 x31=0x00000001
       25565000	      2555	80001b8c	00beb833	sltu	x16,x29,x11	 x29:0xf22f49ae x11:0x0000004a x16=0x00000000
       25575000	      2556	80001b90	0f682613	slti	x12,x16,246	 x16:0x00000000 x12=0x00000001
       25585000	      2557	80001b94	00000013	addi	x0,x0,0	  x0:0x00000000
       25595000	      2558	80001b98	c43d2893	slti	x17,x26,-957	 x26:0x80009f4c x17=0x00000001
       25605000	      2559	80001b9c	01b988b3	add	x17,x19,x27	 x19:0x00000445 x27:0x880018a0 x17=0x88001ce5
       25615000	      2560	80001ba0	00f80ab3	add	x21,x16,x15	 x16:0x00000000 x15:0x045afdaf x21=0x045afdaf
       25625000	      2561	80001ba4	003d02b3	add	x5,x26,x3	 x26:0x80009f4c  x3:0x80001884  x5=0x0000b7d0
       25635000	      2562	80001ba8	0130d233	srl	x4,x1,x19	  x1:0x00000001 x19:0x00000445  x4=0x00000000
       25645000	      2563	80001bac	05e9d263	bge	x19,x30,80001bf0	 x19:0x00000445 x30:0x00000000
       25655000	      2564	00000000	00000013	addi	x0,x0,0	  x0:0x00000000
       25665000	      2565	80001bec	00000013	addi	x0,x0,0	  x0:0x00000000
       25675000	      2566	80001bf0	40625313	srai	x6,x4,0x6	  x4:0x00000000  x6=0x00000000
       25685000	      2567	80001bf4	011bd413	srli	x8,x23,0x11	 x23:0x00000001  x8=0x00000000
       25695000	      2568	80001bf8	02891063	bne	x18,x8,80001c18	 x18:0x00000000  x8:0x00000000
       25705000	      2569	80001bfc	00c461b3	or	x3,x8,x12	  x8:0x00000000 x12:0x00000001  x3=0x00000001
       25715000	      2570	80001c00	019ca6b3	slt	x13,x25,x25	 x25:0x800018d0 x25:0x800018d0 x13=0x00000000
       25725000	      2571	80001c04	05617513	andi	x10,x2,86	  x2:0x80009fc4 x10=0x00000044
       25735000	      2572	80001c08	01d298b3	sll	x17,x5,x29	  x5:0x0000b7d0 x29:0xf22f49ae x17=0x2df40000
       25745000	      2573	80001c0c	009068b3	or	x17,x0,x9	  x0:0x00000000  x9:0x80001880 x17=0x80001880
       25755000	      2574	80001c10	0dc80a93	addi	x21,x16,220	 x16:0x00000000 x21=0x000000dc
       25765000	      2575	80001c14	01099613	slli	x12,x19,0x10	 x19:0x00000445 x12=0x04450000
       25775000	      2576	80001c18	05868463	beq	x13,x24,80001c60	 x13:0x00000000 x24:0x00009499
       25785000	      2577	80001c1c	03650663	beq	x10,x22,80001c48	 x10:0x00000044 x22:0x800020d8
       25795000	      2578	80001c20	bf098813	addi	x16,x19,-1040	 x19:0x00000445 x16=0x00000035
       25805000	      2579	80001c24	0093d313	srli	x6,x7,0x9	  x7:0x800018bd  x6=0x0040000c
       25815000	      2580	80001c28	c8a24593	xori	x11,x4,-886	  x4:0x00000000 x11=0xfffffc8a
       25825000	      2581	80001c2c	40d2dc93	srai	x25,x5,0xd	  x5:0x0000b7d0 x25=0x00000005
       25835000	      2582	80001c30	0088edb3	or	x27,x17,x8	 x17:0x80001880  x8:0x00000000 x27=0x80001880
       25845000	      2583	80001c34	014ebe33	sltu	x28,x29,x20	 x29:0xf22f49ae x20:0x77ffe760 x28=0x00000000
       25855000	      2584	80001c38	30012993	slti	x19,x2,768	  x2:0x80009fc4 x19=0x00000001
       25865000	      2585	80001c3c	d3ae2f97	auipc	x31,0xd3ae2	 x31=0x53ae3c38
       25875000	      2586	80001c40	00a7eb33	or	x22,x15,x10	 x15:0x045afdaf x10:0x00000044 x22=0x045afdef
       25885000	      2587	80001c44	0148cc63	blt	x17,x20,80001c5c	 x17:0x80001880 x20:0x77ffe760
       25895000	      2588	00000000	00000013	addi	x0,x0,0	  x0:0x00000000
       25905000	      2589	80001c58	00000013	addi	x0,x0,0	  x0:0x00000000
       25915000	      2590	80001c5c	0097b433	sltu	x8,x15,x9	 x15:0x045afdaf  x9:0x80001880  x8=0x00000001
       25925000	      2591	80001c60	41ead213	srai	x4,x21,0x1e	 x21:0x000000dc  x4=0x00000000
       25935000	      2592	80001c64	a41c7613	andi	x12,x24,-1471	 x24:0x00009499 x12=0x00009001
       25945000	      2593	80001c68	07c66063	bltu	x12,x28,80001cc8	 x12:0x00009001 x28:0x00000000
       25955000	      2594	80001c6c	008f3bb3	sltu	x23,x30,x8	 x30:0x00000000  x8:0x00000001 x23=0x00000001
       25965000	      2595	80001c70	013744b3	xor	x9,x14,x19	 x14:0x000004df x19:0x00000001  x9=0x000004de
       25975000	      2596	80001c74	014880b3	add	x1,x17,x20	 x17:0x80001880 x20:0x77ffe760  x1=0xf7ffffe0
       25985000	      2597	80001c78	074dce63	blt	x27,x20,80001cf4	 x27:0x80001880 x20:0x77ffe760
       25995000	      2598	00000000	00000013	addi	x0,x0,0	  x0:0x00000000
       26005000	      2599	80001cf0	00000013	addi	x0,x0,0	  x0:0x00000000
       26015000	      2600	80001cf4	00243033	sltu	x0,x8,x2	  x8:0x00000001  x2:0x80009fc4
       26025000	      2601	80001cf8	00cc3fb3	sltu	x31,x24,x12	 x24:0x00009499 x12:0x00009001 x31=0x00000000
       26035000	      2602	80001cfc	0437d063	bge	x15,x3,80001d3c	 x15:0x045afdaf  x3:0x00000001
       26045000	      2603	00000000	00000013	addi	x0,x0,0	  x0:0x00000000
       26055000	      2604	80001d38	00000013	addi	x0,x0,0	  x0:0x00000000
       26065000	      2605	80001d3c	d2a92c37	lui	x24,0xd2a92	 x24=0xd2a92000
       26075000	      2606	80001d40	41c75cb3	sra	x25,x14,x28	 x14:0x000004df x28:0x00000000 x25=0x000004df
       26085000	      2607	80001d44	65263e13	sltiu	x28,x12,1618	 x12:0x00009001 x28=0x00000000
       26095000	      2608	80001d48	41e606b3	sub	x13,x12,x30	 x12:0x00009001 x30:0x00000000 x13=0x00009001
       26105000	      2609	80001d4c	4185d633	sra	x12,x11,x24	 x11:0xfffffc8a x24:0xd2a92000 x12=0xfffffc8a
       26115000	      2610	80001d50	0125a233	slt	x4,x11,x18	 x11:0xfffffc8a x18:0x00000000  x4=0x00000001
       26125000	      2611	80001d54	00000013	addi	x0,x0,0	  x0:0x00000000
       26135000	      2612	80001d58	053ac863	blt	x21,x19,80001da8	 x21:0x000000dc x19:0x00000001
       26145000	      2613	80001d5c	2eb80613	addi	x12,x16,747	 x16:0x00000035 x12=0x00000320
       26155000	      2614	80001d60	004696b3	sll	x13,x13,x4	 x13:0x00009001  x4:0x00000001 x13=0x00012002
       26165000	      2615	80001d64	015d11b3	sll	x3,x26,x21	 x26:0x80009f4c x21:0x000000dc  x3=0xc0000000
       26175000	      2616	80001d68	17bc76b7	lui	x13,0x17bc7	 x13=0x17bc7000
       26185000	      2617	80001d6c	04f89063	bne	x17,x15,80001dac	 x17:0x80001880 x15:0x045afdaf
       26195000	      2618	00000000	00000013	addi	x0,x0,0	  x0:0x00000000
       26205000	      2619	80001da8	00000013	addi	x0,x0,0	  x0:0x00000000
       26215000	      2620	80001dac	b13f7513	andi	x10,x30,-1261	 x30:0x00000000 x10=0x00000000
       26225000	      2621	80001db0	9612b813	sltiu	x16,x5,-1695	  x5:0x0000b7d0 x16=0x00000001
       26235000	      2622	80001db4	0091fc63	bgeu	x3,x9,80001dcc	  x3:0xc0000000  x9:0x000004de
       26245000	      2623	00000000	00000013	addi	x0,x0,0	  x0:0x00000000
       26255000	      2624	80001dc8	00000013	addi	x0,x0,0	  x0:0x00000000
       26265000	      2625	80001dcc	4b1d6f93	ori	x31,x26,1201	 x26:0x80009f4c x31=0x80009ffd
       26275000	      2626	80001dd0	00d448b3	xor	x17,x8,x13	  x8:0x00000001 x13:0x17bc7000 x17=0x17bc7001
       26285000	      2627	80001dd4	63505197	auipc	x3,0x63505	  x3=0xe3506dd0
       26295000	      2628	80001dd8	e11be413	ori	x8,x23,-495	 x23:0x00000001  x8=0xfffffe11
       26305000	      2629	80001ddc	00ae4863	blt	x28,x10,80001dec	 x28:0x00000000 x10:0x00000000
       26315000	      2630	80001de0	037e9c63	bne	x29,x23,80001e18	 x29:0xf22f49ae x23:0x00000001
       26325000	      2631	00000000	00000013	addi	x0,x0,0	  x0:0x00000000
       26335000	      2632	80001e14	00000013	addi	x0,x0,0	  x0:0x00000000
       26345000	      2633	80001e18	016067b3	or	x15,x0,x22	  x0:0x00000000 x22:0x045afdef x15=0x045afdef
       26355000	      2634	80001e1c	25047f93	andi	x31,x8,592	  x8:0xfffffe11 x31=0x00000210
       26365000	      2635	80001e20	415785b3	sub	x11,x15,x21	 x15:0x045afdef x21:0x000000dc x11=0x045afd13
       26375000	      2636	80001e24	00f81813	slli	x16,x16,0xf	 x16:0x00000001 x16=0x00008000
       26385000	      2637	80001e28	456bf937	lui	x18,0x456bf	 x18=0x456bf000
       26395000	      2638	80001e2c	00e86333	or	x6,x16,x14	 x16:0x00008000 x14:0x000004df  x6=0x000084df
       26405000	      2639	80001e30	0141ce33	xor	x28,x3,x20	  x3:0xe3506dd0 x20:0x77ffe760 x28=0x94af8ab0
       26415000	      2640	80001e34	03b50863	beq	x10,x27,80001e64	 x10:0x00000000 x27:0x80001880
       26425000	      2641	80001e38	014addb3	srl	x27,x21,x20	 x21:0x000000dc x20:0x77ffe760 x27=0x000000dc
       26435000	      2642	80001e3c	019162b3	or	x5,x2,x25	  x2:0x80009fc4 x25:0x000004df  x5=0x80009fdf
       26445000	      2643	80001e40	91d47413	andi	x8,x8,-1763	  x8:0xfffffe11  x8=0xfffff811
       26455000	      2644	80001e44	0120a2b3	slt	x5,x1,x18	  x1:0xf7ffffe0 x18:0x456bf000  x5=0x00000001
       26465000	      2645	80001e48	0125f663	bgeu	x11,x18,80001e54	 x11:0x045afd13 x18:0x456bf000
       26475000	      2646	80001e4c	40d50f33	sub	x30,x10,x13	 x10:0x00000000 x13:0x17bc7000 x30=0xe8439000
       26485000	      2647	80001e50	00c08c33	add	x24,x1,x12	  x1:0xf7ffffe0 x12:0x00000320 x24=0xf8000300
       26495000	      2648	80001e54	05274663	blt	x14,x18,80001ea0	 x14:0x000004df x18:0x456bf000
       26505000	      2649	00000000	00000013	addi	x0,x0,0	  x0:0x00000000
       26515000	      2650	80001e9c	00000013	addi	x0,x0,0	  x0:0x00000000
       26525000	      2651	80001ea0	41e2dc93	srai	x25,x5,0x1e	  x5:0x00000001 x25=0x00000000
       26535000	      2652	80001ea4	0006d5b3	srl	x11,x13,x0	 x13:0x17bc7000  x0:0x00000000 x11=0x17bc7000
       26545000	      2653	80001ea8	1cb06513	ori	x10,x0,459	  x0:0x00000000 x10=0x000001cb
       26555000	      2654	80001eac	01332433	slt	x8,x6,x19	  x6:0x000084df x19:0x00000001  x8=0x00000000
       26565000	      2655	80001eb0	f7967913	andi	x18,x12,-135	 x12:0x00000320 x18=0x00000320
       26575000	      2656	80001eb4	018c6233	or	x4,x24,x24	 x24:0xf8000300 x24:0xf8000300  x4=0xf8000300
       26585000	      2657	80001eb8	01c01263	bne	x0,x28,80001ebc	  x0:0x00000000 x28:0x94af8ab0
       26595000	      2658	00000000	00000013	addi	x0,x0,0	  x0:0x00000000
       26605000	      2659	80001eb8	00000013	addi	x0,x0,0	  x0:0x00000000
       26615000	      2660	80001ebc	404adf33	sra	x30,x21,x4	 x21:0x000000dc  x4:0xf8000300 x30=0x000000dc
       26625000	      2661	80001ec0	2cb5e197	auipc	x3,0x2cb5e	  x3=0xacb5febc
       26635000	      2662	80001ec4	6c07f993	andi	x19,x15,1728	 x15:0x045afdef x19=0x000004c0
       26645000	      2663	80001ec8	404a03b3	sub	x7,x20,x4	 x20:0x77ffe760  x4:0xf8000300  x7=0x7fffe460
       26655000	      2664	80001ecc	01cc8c63	beq	x25,x28,80001ee4	 x25:0x00000000 x28:0x94af8ab0
       26665000	      2665	80001ed0	017cf0b3	and	x1,x25,x23	 x25:0x00000000 x23:0x00000001  x1=0x00000000
       26675000	      2666	80001ed4	00000013	addi	x0,x0,0	  x0:0x00000000
       26685000	      2667	80001ed8	01685333	srl	x6,x16,x22	 x16:0x00008000 x22:0x045afdef  x6=0x00000001
       26695000	      2668	80001edc	00e8f733	and	x14,x17,x14	 x17:0x17bc7001 x14:0x000004df x14=0x00000001
       26705000	      2669	80001ee0	8e843993	sltiu	x19,x8,-1816	  x8:0x00000000 x19=0x00000001
       26715000	      2670	80001ee4	02e10663	beq	x2,x14,80001f10	  x2:0x80009fc4 x14:0x00000001
       26725000	      2671	80001ee8	01a9ee33	or	x28,x19,x26	 x19:0x00000001 x26:0x80009f4c x28=0x80009f4d
       26735000	      2672	80001eec	00459663	bne	x11,x4,80001ef8	 x11:0x17bc7000  x4:0xf8000300
       26745000	      2673	00000000	00000013	addi	x0,x0,0	  x0:0x00000000
       26755000	      2674	80001ef4	00000013	addi	x0,x0,0	  x0:0x00000000
       26765000	      2675	80001ef8	017cd013	srli	x0,x25,0x17	 x25:0x00000000
       26775000	      2676	80001efc	11e04093	xori	x1,x0,286	  x0:0x00000000  x1=0x0000011e
       26785000	      2677	80001f00	01f7e533	or	x10,x15,x31	 x15:0x045afdef x31:0x00000210 x10=0x045affff
       26795000	      2678	80001f04	02d7f663	bgeu	x15,x13,80001f30	 x15:0x045afdef x13:0x17bc7000
       26805000	      2679	80001f08	0198f033	and	x0,x17,x25	 x17:0x17bc7001 x25:0x00000000
       26815000	      2680	80001f0c	001c9a33	sll	x20,x25,x1	 x25:0x00000000  x1:0x0000011e x20=0x00000000
       26825000	      2681	80001f10	00c0df33	srl	x30,x1,x12	  x1:0x0000011e x12:0x00000320 x30=0x0000011e
       26835000	      2682	80001f14	01e5b833	sltu	x16,x11,x30	 x11:0x17bc7000 x30:0x0000011e x16=0x00000000
       26845000	      2683	80001f18	41c40233	sub	x4,x8,x28	  x8:0x00000000 x28:0x80009f4d  x4=0x7fff60b3
       26855000	      2684	80001f1c	00159db3	sll	x27,x11,x1	 x11:0x17bc7000  x1:0x0000011e x27=0x00000000
       26865000	      2685	80001f20	04a8d463	bge	x17,x10,80001f68	 x17:0x17bc7001 x10:0x045affff
       26875000	      2686	00000000	00000013	addi	x0,x0,0	  x0:0x00000000
       26885000	      2687	80001f64	00000013	addi	x0,x0,0	  x0:0x00000000
       26895000	      2688	80001f68	023dcd93	xori	x27,x27,35	 x27:0x00000000 x27=0x00000023
       26905000	      2689	80001f6c	0120b4b3	sltu	x9,x1,x18	  x1:0x0000011e x18:0x00000320  x9=0x00000001
       26915000	      2690	80001f70	05a1d263	bge	x3,x26,80001fb4	  x3:0xacb5febc x26:0x80009f4c
       26925000	      2691	00000000	00000013	addi	x0,x0,0	  x0:0x00000000
       26935000	      2692	80001fb0	00000013	addi	x0,x0,0	  x0:0x00000000
       26945000	      2693	80001fb4	01cf4db3	xor	x27,x30,x28	 x30:0x0000011e x28:0x80009f4d x27=0x80009e53
       26955000	      2694	80001fb8	400a8ab3	sub	x21,x21,x0	 x21:0x000000dc  x0:0x00000000 x21=0x000000dc
       26965000	      2695	80001fbc	406286b3	sub	x13,x5,x6	  x5:0x00000001  x6:0x00000001 x13=0x00000000
       26975000	      2696	80001fc0	010ca333	slt	x6,x25,x16	 x25:0x00000000 x16:0x00000000  x6=0x00000000
       26985000	      2697	80001fc4	00000013	addi	x0,x0,0	  x0:0x00000000
       26995000	      2698	80001fc8	01daecb3	or	x25,x21,x29	 x21:0x000000dc x29:0xf22f49ae x25=0xf22f49fe
       27005000	      2699	80001fcc	02b39663	bne	x7,x11,80001ff8	  x7:0x7fffe460 x11:0x17bc7000
       27015000	      2700	00000000	00000013	addi	x0,x0,0	  x0:0x00000000
       27025000	      2701	80001ff4	00000013	addi	x0,x0,0	  x0:0x00000000
       27035000	      2702	80001ff8	01561cb3	sll	x25,x12,x21	 x12:0x00000320 x21:0x000000dc x25=0x00000000
       27045000	      2703	80001ffc	3303f493	andi	x9,x7,816	  x7:0x7fffe460  x9=0x00000020
       27055000	      2704	80002000	0133d213	srli	x4,x7,0x13	  x7:0x7fffe460  x4=0x00000fff
       27065000	      2705	80002004	030ee863	bltu	x29,x16,80002034	 x29:0xf22f49ae x16:0x00000000
       27075000	      2706	80002008	04ad9663	bne	x27,x10,80002054	 x27:0x80009e53 x10:0x045affff
       27085000	      2707	00000000	00000013	addi	x0,x0,0	  x0:0x00000000
       27095000	      2708	80002050	00000013	addi	x0,x0,0	  x0:0x00000000
       27105000	      2709	80002054	40128633	sub	x12,x5,x1	  x5:0x00000001  x1:0x0000011e x12=0xfffffee3
       27115000	      2710	80002058	00f35c93	srli	x25,x6,0xf	  x6:0x00000000 x25=0x00000000
       27125000	      2711	8000205c	013c5d93	srli	x27,x24,0x13	 x24:0xf8000300 x27=0x00001f00
       27135000	      2712	80002060	01bd34b3	sltu	x9,x26,x27	 x26:0x80009f4c x27:0x00001f00  x9=0x00000000
       27145000	      2713	80002064	018d5b13	srli	x22,x26,0x18	 x26:0x80009f4c x22=0x00000080
       27155000	      2714	80002068	272b7213	andi	x4,x22,626	 x22:0x00000080  x4=0x00000000
       27165000	      2715	8000206c	01b595b3	sll	x11,x11,x27	 x11:0x17bc7000 x27:0x00001f00 x11=0x17bc7000
       27175000	      2716	80002070	f9136693	ori	x13,x6,-111	  x6:0x00000000 x13=0xffffff91
       27185000	      2717	80002074	2a364513	xori	x10,x12,675	 x12:0xfffffee3 x10=0xfffffc40
       27195000	      2718	80002078	b6a07313	andi	x6,x0,-1174	  x0:0x00000000  x6=0x00000000
       27205000	      2719	8000207c	51b0f913	andi	x18,x1,1307	  x1:0x0000011e x18=0x0000011a
       27215000	      2720	80002080	012793b3	sll	x7,x15,x18	 x15:0x045afdef x18:0x0000011a  x7=0xbc000000
       27225000	      2721	80002084	05059263	bne	x11,x16,800020c8	 x11:0x17bc7000 x16:0x00000000
       27235000	      2722	00000000	00000013	addi	x0,x0,0	  x0:0x00000000
       27245000	      2723	800020c4	00000013	addi	x0,x0,0	  x0:0x00000000
       27255000	      2724	800020c8	301b2c93	slti	x25,x22,769	 x22:0x00000080 x25=0x00000001
       27265000	      2725	800020cc	01e4d733	srl	x14,x9,x30	  x9:0x00000000 x30:0x0000011e x14=0x00000000
       27275000	      2726	800020d0	02391863	bne	x18,x3,80002100	 x18:0x0000011a  x3:0xacb5febc
       27285000	      2727	00000000	00000013	addi	x0,x0,0	  x0:0x00000000
       27295000	      2728	800020fc	00000013	addi	x0,x0,0	  x0:0x00000000
       27305000	      2729	80002100	11afe593	ori	x11,x31,282	 x31:0x00000210 x11=0x0000031a
       27315000	      2730	80002104	eb642913	slti	x18,x8,-330	  x8:0x00000000 x18=0x00000000
       27325000	      2731	80002108	41325093	srai	x1,x4,0x13	  x4:0x00000000  x1=0x00000000
       27335000	      2732	8000210c	7f0cef13	ori	x30,x25,2032	 x25:0x00000001 x30=0x000007f1
       27345000	      2733	80002110	007745b3	xor	x11,x14,x7	 x14:0x00000000  x7:0xbc000000 x11=0xbc000000
       27355000	      2734	80002114	04686663	bltu	x16,x6,80002160	 x16:0x00000000  x6:0x00000000
       27365000	      2735	80002118	d4ca2e17	auipc	x28,0xd4ca2	 x28=0x54ca4114
       27375000	      2736	8000211c	03ecc863	blt	x25,x30,8000214c	 x25:0x00000001 x30:0x000007f1
       27385000	      2737	00000000	00000013	addi	x0,x0,0	  x0:0x00000000
       27395000	      2738	80002148	00000013	addi	x0,x0,0	  x0:0x00000000
       27405000	      2739	8000214c	09a60b13	addi	x22,x12,154	 x12:0xfffffee3 x22=0xffffff7d
       27415000	      2740	80002150	eeed4393	xori	x7,x26,-274	 x26:0x80009f4c  x7=0x7fff61a2
       27425000	      2741	80002154	44efa593	slti	x11,x31,1102	 x31:0x00000210 x11=0x00000001
       27435000	      2742	80002158	9eee3993	sltiu	x19,x28,-1554	 x28:0x54ca4114 x19=0x00000001
       27445000	      2743	8000215c	048ce263	bltu	x25,x8,800021a0	 x25:0x00000001  x8:0x00000000
       27455000	      2744	80002160	00d4a0b3	slt	x1,x9,x13	  x9:0x00000000 x13:0xffffff91  x1=0x00000000
       27465000	      2745	80002164	01271263	bne	x14,x18,80002168	 x14:0x00000000 x18:0x00000000
       27475000	      2746	80002168	00000013	addi	x0,x0,0	  x0:0x00000000
       27485000	      2747	8000216c	04916863	bltu	x2,x9,800021bc	  x2:0x80009fc4  x9:0x00000000
       27495000	      2748	80002170	03e17663	bgeu	x2,x30,8000219c	  x2:0x80009fc4 x30:0x000007f1
       27505000	      2749	00000000	00000013	addi	x0,x0,0	  x0:0x00000000
       27515000	      2750	80002198	00000013	addi	x0,x0,0	  x0:0x00000000
       27525000	      2751	8000219c	04738463	beq	x7,x7,800021e4	  x7:0x7fff61a2  x7:0x7fff61a2
       27535000	      2752	00000000	00000013	addi	x0,x0,0	  x0:0x00000000
       27545000	      2753	800021e0	00000013	addi	x0,x0,0	  x0:0x00000000
       27555000	      2754	800021e4	bed9b893	sltiu	x17,x19,-1043	 x19:0x00000001 x17=0x00000001
       27565000	      2755	800021e8	010c6863	bltu	x24,x16,800021f8	 x24:0xf8000300 x16:0x00000000
       27575000	      2756	800021ec	7af2c793	xori	x15,x5,1967	  x5:0x00000001 x15=0x000007ae
       27585000	      2757	800021f0	01c7c663	blt	x15,x28,800021fc	 x15:0x000007ae x28:0x54ca4114
       27595000	      2758	00000000	00000013	addi	x0,x0,0	  x0:0x00000000
       27605000	      2759	800021f8	00000013	addi	x0,x0,0	  x0:0x00000000
       27615000	      2760	800021fc	01de5713	srli	x14,x28,0x1d	 x28:0x54ca4114 x14=0x00000002
       27625000	      2761	80002200	6efefa97	auipc	x21,0x6efef	 x21=0xeeff11fc
       27635000	      2762	80002204	41c20233	sub	x4,x4,x28	  x4:0x00000000 x28:0x54ca4114  x4=0xab35beec
       27645000	      2763	80002208	1b7e1237	lui	x4,0x1b7e1	  x4=0x1b7e1000
       27655000	      2764	8000220c	403cd013	srai	x0,x25,0x3	 x25:0x00000001
       27665000	      2765	80002210	ddda8013	addi	x0,x21,-547	 x21:0xeeff11fc
       27675000	      2766	80002214	034db913	sltiu	x18,x27,52	 x27:0x00001f00 x18=0x00000000
       27685000	      2767	80002218	01278b33	add	x22,x15,x18	 x15:0x000007ae x18:0x00000000 x22=0x000007ae
       27695000	      2768	8000221c	00252433	slt	x8,x10,x2	 x10:0xfffffc40  x2:0x80009fc4  x8=0x00000000
       27705000	      2769	80002220	b4066a13	ori	x20,x12,-1216	 x12:0xfffffee3 x20=0xffffffe3
       27715000	      2770	80002224	00e39733	sll	x14,x7,x14	  x7:0x7fff61a2 x14:0x00000002 x14=0xfffd8688
       27725000	      2771	80002228	0030da93	srli	x21,x1,0x3	  x1:0x00000000 x21=0x00000000
       27735000	      2772	8000222c	03606063	bltu	x0,x22,8000224c	  x0:0x00000000 x22:0x000007ae
       27745000	      2773	00000000	00000013	addi	x0,x0,0	  x0:0x00000000
       27755000	      2774	80002248	00000013	addi	x0,x0,0	  x0:0x00000000
       27765000	      2775	8000224c	ca302813	slti	x16,x0,-861	  x0:0x00000000 x16=0x00000000
       27775000	      2776	80002250	bc87ab93	slti	x23,x15,-1080	 x15:0x000007ae x23=0x00000000
       27785000	      2777	80002254	8f212e37	lui	x28,0x8f212	 x28=0x8f212000
       27795000	      2778	80002258	03dbf263	bgeu	x23,x29,8000227c	 x23:0x00000000 x29:0xf22f49ae
       27805000	      2779	8000225c	414e5b33	sra	x22,x28,x20	 x28:0x8f212000 x20:0xffffffe3 x22=0xf1e42400
       27815000	      2780	80002260	0015d193	srli	x3,x11,0x1	 x11:0x00000001  x3=0x00000000
       27825000	      2781	80002264	036a4863	blt	x20,x22,80002294	 x20:0xffffffe3 x22:0xf1e42400
       27835000	      2782	80002268	7e29ab37	lui	x22,0x7e29a	 x22=0x7e29a000
       27845000	      2783	8000226c	01397c33	and	x24,x18,x19	 x18:0x00000000 x19:0x00000001 x24=0x00000000
       27855000	      2784	80002270	287c0613	addi	x12,x24,647	 x24:0x00000000 x12=0x00000287
       27865000	      2785	80002274	00db1733	sll	x14,x22,x13	 x22:0x7e29a000 x13:0xffffff91 x14=0x40000000
       27875000	      2786	80002278	01568c63	beq	x13,x21,80002290	 x13:0xffffff91 x21:0x00000000
       27885000	      2787	8000227c	45fe8b13	addi	x22,x29,1119	 x29:0xf22f49ae x22=0xf22f4e0d
       27895000	      2788	80002280	01ddecb3	or	x25,x27,x29	 x27:0x00001f00 x29:0xf22f49ae x25=0xf22f5fae
       27905000	      2789	80002284	34d73793	sltiu	x15,x14,845	 x14:0x40000000 x15=0x00000000
       27915000	      2790	80002288	40298cb3	sub	x25,x19,x2	 x19:0x00000001  x2:0x80009fc4 x25=0x7fff603d
       27925000	      2791	8000228c	01e75393	srli	x7,x14,0x1e	 x14:0x40000000  x7=0x00000001
       27935000	      2792	80002290	40e90533	sub	x10,x18,x14	 x18:0x00000000 x14:0x40000000 x10=0xc0000000
       27945000	      2793	80002294	417ddb13	srai	x22,x27,0x17	 x27:0x00001f00 x22=0x00000000
       27955000	      2794	80002298	76406c93	ori	x25,x0,1892	  x0:0x00000000 x25=0x00000764
       27965000	      2795	8000229c	05da8663	beq	x21,x29,800022e8	 x21:0x00000000 x29:0xf22f49ae
       27975000	      2796	800022a0	013a5693	srli	x13,x20,0x13	 x20:0xffffffe3 x13=0x00001fff
       27985000	      2797	800022a4	0456f463	bgeu	x13,x5,800022ec	 x13:0x00001fff  x5:0x00000001
       27995000	      2798	00000000	00000013	addi	x0,x0,0	  x0:0x00000000
       28005000	      2799	800022e8	00000013	addi	x0,x0,0	  x0:0x00000000
       28015000	      2800	800022ec	27b23317	auipc	x6,0x27b23	  x6=0xa7b252e8
       28025000	      2801	800022f0	8581b613	sltiu	x12,x3,-1960	  x3:0x00000000 x12=0x00000001
       28035000	      2802	800022f4	8d726813	ori	x16,x4,-1833	  x4:0x1b7e1000 x16=0xfffff8d7
       28045000	      2803	800022f8	009b5193	srli	x3,x22,0x9	 x22:0x00000000  x3=0x00000000
       28055000	      2804	800022fc	01485513	srli	x10,x16,0x14	 x16:0xfffff8d7 x10=0x00000fff
       28065000	      2805	80002300	0ca73613	sltiu	x12,x14,202	 x14:0x40000000 x12=0x00000000
       28075000	      2806	80002304	16af80b7	lui	x1,0x16af8	  x1=0x16af8000
       28085000	      2807	80002308	00d3da63	bge	x7,x13,8000231c	  x7:0x00000001 x13:0x00001fff
       28095000	      2808	8000230c	008b47b3	xor	x15,x22,x8	 x22:0x00000000  x8:0x00000000 x15=0x00000000
       28105000	      2809	80002310	001990b3	sll	x1,x19,x1	 x19:0x00000001  x1:0x16af8000  x1=0x00000001
       28115000	      2810	80002314	e3be0393	addi	x7,x28,-453	 x28:0x8f212000  x7=0x8f211e3b
       28125000	      2811	80002318	03394e63	blt	x18,x19,80002354	 x18:0x00000000 x19:0x00000001
       28135000	      2812	00000000	00000013	addi	x0,x0,0	  x0:0x00000000
       28145000	      2813	80002350	00000013	addi	x0,x0,0	  x0:0x00000000
       28155000	      2814	80002354	a4ce0a93	addi	x21,x28,-1460	 x28:0x8f212000 x21=0x8f211a4c
       28165000	      2815	80002358	01eec333	xor	x6,x29,x30	 x29:0xf22f49ae x30:0x000007f1  x6=0xf22f4e5f
       28175000	      2816	8000235c	00bd1263	bne	x26,x11,80002360	 x26:0x80009f4c x11:0x00000001
       28185000	      2817	00000000	00000013	addi	x0,x0,0	  x0:0x00000000
       28195000	      2818	8000235c	00000013	addi	x0,x0,0	  x0:0x00000000
       28205000	      2819	80002360	418883b3	sub	x7,x17,x24	 x17:0x00000001 x24:0x00000000  x7=0x00000001
       28215000	      2820	80002364	a568cd93	xori	x27,x17,-1450	 x17:0x00000001 x27=0xfffffa57
       28225000	      2821	80002368	f74e8b13	addi	x22,x29,-140	 x29:0xf22f49ae x22=0xf22f4922
       28235000	      2822	8000236c	01f5fab3	and	x21,x11,x31	 x11:0x00000001 x31:0x00000210 x21=0x00000000
       28245000	      2823	80002370	f5a00013	addi	x0,x0,-166	  x0:0x00000000
       28255000	      2824	80002374	f280a913	slti	x18,x1,-216	  x1:0x00000001 x18=0x00000000
       28265000	      2825	80002378	003af833	and	x16,x21,x3	 x21:0x00000000  x3:0x00000000 x16=0x00000000
       28275000	      2826	8000237c	0539c663	blt	x19,x19,800023c8	 x19:0x00000001 x19:0x00000001
       28285000	      2827	80002380	02edf063	bgeu	x27,x14,800023a0	 x27:0xfffffa57 x14:0x40000000
       28295000	      2828	00000000	00000013	addi	x0,x0,0	  x0:0x00000000
       28305000	      2829	8000239c	00000013	addi	x0,x0,0	  x0:0x00000000
       28315000	      2830	800023a0	3b256237	lui	x4,0x3b256	  x4=0x3b256000
       28325000	      2831	800023a4	02ec7663	bgeu	x24,x14,800023d0	 x24:0x00000000 x14:0x40000000
       28335000	      2832	800023a8	20423e13	sltiu	x28,x4,516	  x4:0x3b256000 x28=0x00000000
       28345000	      2833	800023ac	89b9fd93	andi	x27,x19,-1893	 x19:0x00000001 x27=0x00000001
       28355000	      2834	800023b0	02bb1663	bne	x22,x11,800023dc	 x22:0xf22f4922 x11:0x00000001
       28365000	      2835	00000000	00000013	addi	x0,x0,0	  x0:0x00000000
       28375000	      2836	800023d8	00000013	addi	x0,x0,0	  x0:0x00000000
       28385000	      2837	800023dc	00e71913	slli	x18,x14,0xe	 x14:0x40000000 x18=0x00000000
       28395000	      2838	800023e0	005d1e33	sll	x28,x26,x5	 x26:0x80009f4c  x5:0x00000001 x28=0x00013e98
       28405000	      2839	800023e4	b35eaa13	slti	x20,x29,-1227	 x29:0xf22f49ae x20=0x00000001
       28415000	      2840	800023e8	013e9b33	sll	x22,x29,x19	 x29:0xf22f49ae x19:0x00000001 x22=0xe45e935c
       28425000	      2841	800023ec	011f3ab3	sltu	x21,x30,x17	 x30:0x000007f1 x17:0x00000001 x21=0x00000000
       28435000	      2842	800023f0	0208c263	blt	x17,x0,80002414	 x17:0x00000001  x0:0x00000000
       28445000	      2843	800023f4	9ddaa2b7	lui	x5,0x9ddaa	  x5=0x9ddaa000
       28455000	      2844	800023f8	03e77663	bgeu	x14,x30,80002424	 x14:0x40000000 x30:0x000007f1
       28465000	      2845	00000000	00000013	addi	x0,x0,0	  x0:0x00000000
       28475000	      2846	80002420	00000013	addi	x0,x0,0	  x0:0x00000000
       28485000	      2847	80002424	62dda093	slti	x1,x27,1581	 x27:0x00000001  x1=0x00000001
       28495000	      2848	80002428	eac7da37	lui	x20,0xeac7d	 x20=0xeac7d000
       28505000	      2849	8000242c	00db8333	add	x6,x23,x13	 x23:0x00000000 x13:0x00001fff  x6=0x00001fff
       28515000	      2850	80002430	e4bd8d93	addi	x27,x27,-437	 x27:0x00000001 x27=0xfffffe4c
       28525000	      2851	80002434	04839463	bne	x7,x8,8000247c	  x7:0x00000001  x8:0x00000000
       28535000	      2852	00000000	00000013	addi	x0,x0,0	  x0:0x00000000
       28545000	      2853	80002478	00000013	addi	x0,x0,0	  x0:0x00000000
       28555000	      2854	8000247c	01a013b3	sll	x7,x0,x26	  x0:0x00000000 x26:0x80009f4c  x7=0x00000000
       28565000	      2855	80002480	02076863	bltu	x14,x0,800024b0	 x14:0x40000000  x0:0x00000000
       28575000	      2856	80002484	0497d263	bge	x15,x9,800024c8	 x15:0x00000000  x9:0x00000000
       28585000	      2857	00000000	00000013	addi	x0,x0,0	  x0:0x00000000
       28595000	      2858	800024c4	00000013	addi	x0,x0,0	  x0:0x00000000
       28605000	      2859	800024c8	04e09863	bne	x1,x14,80002518	  x1:0x00000001 x14:0x40000000
       28615000	      2860	00000000	00000013	addi	x0,x0,0	  x0:0x00000000
       28625000	      2861	80002514	00000013	addi	x0,x0,0	  x0:0x00000000
       28635000	      2862	80002518	014535b3	sltu	x11,x10,x20	 x10:0x00000fff x20:0xeac7d000 x11=0x00000001
       28645000	      2863	8000251c	01a41713	slli	x14,x8,0x1a	  x8:0x00000000 x14=0x00000000
       28655000	      2864	80002520	40e4da13	srai	x20,x9,0xe	  x9:0x00000000 x20=0x00000000
       28665000	      2865	80002524	fb6a8c93	addi	x25,x21,-74	 x21:0x00000000 x25=0xffffffb6
       28675000	      2866	80002528	00000013	addi	x0,x0,0	  x0:0x00000000
       28685000	      2867	8000252c	00bd8263	beq	x27,x11,80002530	 x27:0xfffffe4c x11:0x00000001
       28695000	      2868	80002530	01ded7b3	srl	x15,x29,x29	 x29:0xf22f49ae x29:0xf22f49ae x15=0x0003c8bd
       28705000	      2869	80002534	01de4a33	xor	x20,x28,x29	 x28:0x00013e98 x29:0xf22f49ae x20=0xf22e7736
       28715000	      2870	80002538	00000013	addi	x0,x0,0	  x0:0x00000000
       28725000	      2871	8000253c	ddbee093	ori	x1,x29,-549	 x29:0xf22f49ae  x1=0xfffffdff
       28735000	      2872	80002540	00c3b433	sltu	x8,x7,x12	  x7:0x00000000 x12:0x00000000  x8=0x00000000
       28745000	      2873	80002544	41798f33	sub	x30,x19,x23	 x19:0x00000001 x23:0x00000000 x30=0x00000001
       28755000	      2874	80002548	409b8a33	sub	x20,x23,x9	 x23:0x00000000  x9:0x00000000 x20=0x00000000
       28765000	      2875	8000254c	0100ac33	slt	x24,x1,x16	  x1:0xfffffdff x16:0x00000000 x24=0x00000001
       28775000	      2876	80002550	ef9f6313	ori	x6,x30,-263	 x30:0x00000001  x6=0xfffffef9
       28785000	      2877	80002554	41065333	sra	x6,x12,x16	 x12:0x00000000 x16:0x00000000  x6=0x00000000
       28795000	      2878	80002558	404604b3	sub	x9,x12,x4	 x12:0x00000000  x4:0x3b256000  x9=0xc4daa000
       28805000	      2879	8000255c	0028b433	sltu	x8,x17,x2	 x17:0x00000001  x2:0x80009fc4  x8=0x00000001
       28815000	      2880	80002560	0091cc33	xor	x24,x3,x9	  x3:0x00000000  x9:0xc4daa000 x24=0xc4daa000
       28825000	      2881	80002564	a7df3f17	auipc	x30,0xa7df3	 x30=0x27df5560
       28835000	      2882	80002568	d2d2f313	andi	x6,x5,-723	  x5:0x9ddaa000  x6=0x9ddaa000
       28845000	      2883	8000256c	00d47c63	bgeu	x8,x13,80002584	  x8:0x00000001 x13:0x00001fff
       28855000	      2884	80002570	04605863	bge	x0,x6,800025c0	  x0:0x00000000  x6:0x9ddaa000
       28865000	      2885	00000000	00000013	addi	x0,x0,0	  x0:0x00000000
       28875000	      2886	800025bc	00000013	addi	x0,x0,0	  x0:0x00000000
       28885000	      2887	800025c0	02947863	bgeu	x8,x9,800025f0	  x8:0x00000001  x9:0xc4daa000
       28895000	      2888	800025c4	01bb53b3	srl	x7,x22,x27	 x22:0xe45e935c x27:0xfffffe4c  x7=0x000e45e9
       28905000	      2889	800025c8	cf594d93	xori	x27,x18,-779	 x18:0x00000000 x27=0xfffffcf5
       28915000	      2890	800025cc	b0d50293	addi	x5,x10,-1267	 x10:0x00000fff  x5=0x00000b0c
       28925000	      2891	800025d0	6db8cc93	xori	x25,x17,1755	 x17:0x00000001 x25=0x000006da
       28935000	      2892	800025d4	00926533	or	x10,x4,x9	  x4:0x3b256000  x9:0xc4daa000 x10=0xffffe000
       28945000	      2893	800025d8	01d29813	slli	x16,x5,0x1d	  x5:0x00000b0c x16=0x80000000
       28955000	      2894	800025dc	0360e663	bltu	x1,x22,80002608	  x1:0xfffffdff x22:0xe45e935c
       28965000	      2895	800025e0	40d987b3	sub	x15,x19,x13	 x19:0x00000001 x13:0x00001fff x15=0xffffe002
       28975000	      2896	800025e4	89abb413	sltiu	x8,x23,-1894	 x23:0x00000000  x8=0x00000001
       28985000	      2897	800025e8	00ec4c63	blt	x24,x14,80002600	 x24:0xc4daa000 x14:0x00000000
       28995000	      2898	00000000	00000013	addi	x0,x0,0	  x0:0x00000000
       29005000	      2899	800025fc	00000013	addi	x0,x0,0	  x0:0x00000000
       29015000	      2900	80002600	007a5c13	srli	x24,x20,0x7	 x20:0x00000000 x24=0x00000000
       29025000	      2901	80002604	0188fcb3	and	x25,x17,x24	 x17:0x00000001 x24:0x00000000 x25=0x00000000
       29035000	      2902	80002608	00000013	addi	x0,x0,0	  x0:0x00000000
       29045000	      2903	8000260c	b7f4fab7	lui	x21,0xb7f4f	 x21=0xb7f4f000
       29055000	      2904	80002610	012ec233	xor	x4,x29,x18	 x29:0xf22f49ae x18:0x00000000  x4=0xf22f49ae
       29065000	      2905	80002614	02a55e63	bge	x10,x10,80002650	 x10:0xffffe000 x10:0xffffe000
       29075000	      2906	00000000	00000013	addi	x0,x0,0	  x0:0x00000000
       29085000	      2907	8000264c	00000013	addi	x0,x0,0	  x0:0x00000000
       29095000	      2908	80002650	03985c63	bge	x16,x25,80002688	 x16:0x80000000 x25:0x00000000
       29105000	      2909	80002654	7b74ba37	lui	x20,0x7b74b	 x20=0x7b74b000
       29115000	      2910	80002658	0038c633	xor	x12,x17,x3	 x17:0x00000001  x3:0x00000000 x12=0x00000001
       29125000	      2911	8000265c	c0d6f513	andi	x10,x13,-1011	 x13:0x00001fff x10=0x00001c0d
       29135000	      2912	80002660	764a1617	auipc	x12,0x764a1	 x12=0xf64a365c
       29145000	      2913	80002664	01075e13	srli	x28,x14,0x10	 x14:0x00000000 x28=0x00000000
       29155000	      2914	80002668	00fb0ab3	add	x21,x22,x15	 x22:0xe45e935c x15:0xffffe002 x21=0xe45e735e
       29165000	      2915	8000266c	00eb8a63	beq	x23,x14,80002680	 x23:0x00000000 x14:0x00000000
       29175000	      2916	00000000	00000013	addi	x0,x0,0	  x0:0x00000000
       29185000	      2917	8000267c	00000013	addi	x0,x0,0	  x0:0x00000000
       29195000	      2918	80002680	05104463	blt	x0,x17,800026c8	  x0:0x00000000 x17:0x00000001
       29205000	      2919	00000000	00000013	addi	x0,x0,0	  x0:0x00000000
       29215000	      2920	800026c4	00000013	addi	x0,x0,0	  x0:0x00000000
       29225000	      2921	800026c8	6cbe6813	ori	x16,x28,1739	 x28:0x00000000 x16=0x000006cb
       29235000	      2922	800026cc	01df38b3	sltu	x17,x30,x29	 x30:0x27df5560 x29:0xf22f49ae x17=0x00000001
       29245000	      2923	800026d0	02775463	bge	x14,x7,800026f8	 x14:0x00000000  x7:0x000e45e9
       29255000	      2924	800026d4	00818cb3	add	x25,x3,x8	  x3:0x00000000  x8:0x00000001 x25=0x00000001
       29265000	      2925	800026d8	89dbc693	xori	x13,x23,-1891	 x23:0x00000000 x13=0xfffff89d
       29275000	      2926	800026dc	cd378493	addi	x9,x15,-813	 x15:0xffffe002  x9=0xffffdcd5
       29285000	      2927	800026e0	00fbf5b3	and	x11,x23,x15	 x23:0x00000000 x15:0xffffe002 x11=0x00000000
       29295000	      2928	800026e4	016ac233	xor	x4,x21,x22	 x21:0xe45e735e x22:0xe45e935c  x4=0x0000e002
       29305000	      2929	800026e8	02b70063	beq	x14,x11,80002708	 x14:0x00000000 x11:0x00000000
       29315000	      2930	00000000	00000013	addi	x0,x0,0	  x0:0x00000000
       29325000	      2931	80002704	00000013	addi	x0,x0,0	  x0:0x00000000
       29335000	      2932	80002708	01839263	bne	x7,x24,8000270c	  x7:0x000e45e9 x24:0x00000000
       29345000	      2933	00000000	00000013	addi	x0,x0,0	  x0:0x00000000
       29355000	      2934	80002708	00000013	addi	x0,x0,0	  x0:0x00000000
       29365000	      2935	8000270c	0524c293	xori	x5,x9,82	  x9:0xffffdcd5  x5=0xffffdc87
       29375000	      2936	80002710	4d496997	auipc	x19,0x4d496	 x19=0xcd49870c
       29385000	      2937	80002714	00000013	addi	x0,x0,0	  x0:0x00000000
       29395000	      2938	80002718	eacf2a13	slti	x20,x30,-340	 x30:0x27df5560 x20=0x00000000
       29405000	      2939	8000271c	00bd5633	srl	x12,x26,x11	 x26:0x80009f4c x11:0x00000000 x12=0x80009f4c
       29415000	      2940	80002720	00da5413	srli	x8,x20,0xd	 x20:0x00000000  x8=0x00000000
       29425000	      2941	80002724	00eefc33	and	x24,x29,x14	 x29:0xf22f49ae x14:0x00000000 x24=0x00000000
       29435000	      2942	80002728	9295f093	andi	x1,x11,-1751	 x11:0x00000000  x1=0x00000000
       29445000	      2943	8000272c	14b40f13	addi	x30,x8,331	  x8:0x00000000 x30=0x0000014b
       29455000	      2944	80002730	c39da513	slti	x10,x27,-967	 x27:0xfffffcf5 x10=0x00000000
       29465000	      2945	80002734	01874b33	xor	x22,x14,x24	 x14:0x00000000 x24:0x00000000 x22=0x00000000
       29475000	      2946	80002738	00e69813	slli	x16,x13,0xe	 x13:0xfffff89d x16=0xfe274000
       29485000	      2947	8000273c	019124b3	slt	x9,x2,x25	  x2:0x80009fc4 x25:0x00000001  x9=0x00000001
       29495000	      2948	80002740	6c498537	lui	x10,0x6c498	 x10=0x6c498000
       29505000	      2949	80002744	9368f293	andi	x5,x17,-1738	 x17:0x00000001  x5=0x00000000
       29515000	      2950	80002748	047b7663	bgeu	x22,x7,80002794	 x22:0x00000000  x7:0x000e45e9
       29525000	      2951	8000274c	7c1c8b93	addi	x23,x25,1985	 x25:0x00000001 x23=0x000007c2
       29535000	      2952	80002750	979f7313	andi	x6,x30,-1671	 x30:0x0000014b  x6=0x00000149
       29545000	      2953	80002754	67cc7093	andi	x1,x24,1660	 x24:0x00000000  x1=0x00000000
       29555000	      2954	80002758	00d2b7b3	sltu	x15,x5,x13	  x5:0x00000000 x13:0xfffff89d x15=0x00000001
       29565000	      2955	8000275c	d7263037	lui	x0,0xd7263	
       29575000	      2956	80002760	02b26e63	bltu	x4,x11,8000279c	  x4:0x0000e002 x11:0x00000000
       29585000	      2957	80002764	f11fef97	auipc	x31,0xf11fe	 x31=0x71200760
       29595000	      2958	80002768	4087d9b3	sra	x19,x15,x8	 x15:0x00000001  x8:0x00000000 x19=0x00000001
       29605000	      2959	8000276c	5b010f13	addi	x30,x2,1456	  x2:0x80009fc4 x30=0x8000a574
       29615000	      2960	80002770	00b911b3	sll	x3,x18,x11	 x18:0x00000000 x11:0x00000000  x3=0x00000000
       29625000	      2961	80002774	02fdf593	andi	x11,x27,47	 x27:0xfffffcf5 x11=0x00000025
       29635000	      2962	80002778	02b27463	bgeu	x4,x11,800027a0	  x4:0x0000e002 x11:0x00000025
       29645000	      2963	00000000	00000013	addi	x0,x0,0	  x0:0x00000000
       29655000	      2964	8000279c	00000013	addi	x0,x0,0	  x0:0x00000000
       29665000	      2965	800027a0	00339513	slli	x10,x7,0x3	  x7:0x000e45e9 x10=0x00722f48
       29675000	      2966	800027a4	0572c263	blt	x5,x23,800027e8	  x5:0x00000000 x23:0x000007c2
       29685000	      2967	00000000	00000013	addi	x0,x0,0	  x0:0x00000000
       29695000	      2968	800027e4	00000013	addi	x0,x0,0	  x0:0x00000000
       29705000	      2969	800027e8	d400b037	lui	x0,0xd400b	
       29715000	      2970	800027ec	02349863	bne	x9,x3,8000281c	  x9:0x00000001  x3:0x00000000
       29725000	      2971	00000000	00000013	addi	x0,x0,0	  x0:0x00000000
       29735000	      2972	80002818	00000013	addi	x0,x0,0	  x0:0x00000000
       29745000	      2973	8000281c	04571463	bne	x14,x5,80002864	 x14:0x00000000  x5:0x00000000
       29755000	      2974	80002820	015a14b3	sll	x9,x20,x21	 x20:0x00000000 x21:0xe45e735e  x9=0x00000000
       29765000	      2975	80002824	2844cc93	xori	x25,x9,644	  x9:0x00000000 x25=0x00000284
       29775000	      2976	80002828	1a6006b7	lui	x13,0x1a600	 x13=0x1a600000
       29785000	      2977	8000282c	01161233	sll	x4,x12,x17	 x12:0x80009f4c x17:0x00000001  x4=0x00013e98
       29795000	      2978	80002830	408483b3	sub	x7,x9,x8	  x9:0x00000000  x8:0x00000000  x7=0x00000000
       29805000	      2979	80002834	1cb54393	xori	x7,x10,459	 x10:0x00722f48  x7=0x00722e83
       29815000	      2980	80002838	8cf068b7	lui	x17,0x8cf06	 x17=0x8cf06000
       29825000	      2981	8000283c	00537863	bgeu	x6,x5,8000284c	  x6:0x00000149  x5:0x00000000
       29835000	      2982	00000000	00000013	addi	x0,x0,0	  x0:0x00000000
       29845000	      2983	80002848	00000013	addi	x0,x0,0	  x0:0x00000000
       29855000	      2984	8000284c	00edcc63	blt	x27,x14,80002864	 x27:0xfffffcf5 x14:0x00000000
       29865000	      2985	00000000	00000013	addi	x0,x0,0	  x0:0x00000000
       29875000	      2986	80002860	00000013	addi	x0,x0,0	  x0:0x00000000
       29885000	      2987	80002864	03998863	beq	x19,x25,80002894	 x19:0x00000001 x25:0x00000284
       29895000	      2988	80002868	035d7263	bgeu	x26,x21,8000288c	 x26:0x80009f4c x21:0xe45e735e
       29905000	      2989	8000286c	005d7ab3	and	x21,x26,x5	 x26:0x80009f4c  x5:0x00000000 x21=0x00000000
       29915000	      2990	80002870	05e6c863	blt	x13,x30,800028c0	 x13:0x1a600000 x30:0x8000a574
       29925000	      2991	80002874	97367913	andi	x18,x12,-1677	 x12:0x80009f4c x18=0x80009940
       29935000	      2992	80002878	00bf9b13	slli	x22,x31,0xb	 x31:0x71200760 x22=0x003b0000
       29945000	      2993	8000287c	00677333	and	x6,x14,x6	 x14:0x00000000  x6:0x00000149  x6=0x00000000
       29955000	      2994	80002880	02648863	beq	x9,x6,800028b0	  x9:0x00000000  x6:0x00000000
       29965000	      2995	00000000	00000013	addi	x0,x0,0	  x0:0x00000000
       29975000	      2996	800028ac	00000013	addi	x0,x0,0	  x0:0x00000000
       29985000	      2997	800028b0	0f134737	lui	x14,0xf134	 x14=0x0f134000
       29995000	      2998	800028b4	01ef8663	beq	x31,x30,800028c0	 x31:0x71200760 x30:0x8000a574
       30005000	      2999	800028b8	baa66213	ori	x4,x12,-1110	 x12:0x80009f4c  x4=0xffffffee
       30015000	      3000	800028bc	008f9313	slli	x6,x31,0x8	 x31:0x71200760  x6=0x20076000
       30025000	      3001	800028c0	03e49663	bne	x9,x30,800028ec	  x9:0x00000000 x30:0x8000a574
       30035000	      3002	00000000	00000013	addi	x0,x0,0	  x0:0x00000000
       30045000	      3003	800028e8	00000013	addi	x0,x0,0	  x0:0x00000000
       30055000	      3004	800028ec	400f0f33	sub	x30,x30,x0	 x30:0x8000a574  x0:0x00000000 x30=0x8000a574
       30065000	      3005	800028f0	9bb9c813	xori	x16,x19,-1605	 x19:0x00000001 x16=0xfffff9ba
       30075000	      3006	800028f4	017e29b3	slt	x19,x28,x23	 x28:0x00000000 x23:0x000007c2 x19=0x00000001
       30085000	      3007	800028f8	0126ce33	xor	x28,x13,x18	 x13:0x1a600000 x18:0x80009940 x28=0x9a609940
       30095000	      3008	800028fc	059d4463	blt	x26,x25,80002944	 x26:0x80009f4c x25:0x00000284
       30105000	      3009	00000000	00000013	addi	x0,x0,0	  x0:0x00000000
       30115000	      3010	80002940	00000013	addi	x0,x0,0	  x0:0x00000000
       30125000	      3011	80002944	682b6593	ori	x11,x22,1666	 x22:0x003b0000 x11=0x003b0682
       30135000	      3012	80002948	01f61633	sll	x12,x12,x31	 x12:0x80009f4c x31:0x71200760 x12=0x80009f4c
       30145000	      3013	8000294c	8642b497	auipc	x9,0x8642b	  x9=0x0642d948
       30155000	      3014	80002950	413bd293	srai	x5,x23,0x13	 x23:0x000007c2  x5=0x00000000
       30165000	      3015	80002954	00000013	addi	x0,x0,0	  x0:0x00000000
       30175000	      3016	80002958	61573313	sltiu	x6,x14,1557	 x14:0x0f134000  x6=0x00000000
       30185000	      3017	8000295c	b3943313	sltiu	x6,x8,-1223	  x8:0x00000000  x6=0x00000001
       30195000	      3018	80002960	021ce463	bltu	x25,x1,80002988	 x25:0x00000284  x1:0x00000000
       30205000	      3019	80002964	0008f4b3	and	x9,x17,x0	 x17:0x8cf06000  x0:0x00000000  x9=0x00000000
       30215000	      3020	80002968	01400663	beq	x0,x20,80002974	  x0:0x00000000 x20:0x00000000
       30225000	      3021	00000000	00000013	addi	x0,x0,0	  x0:0x00000000
       30235000	      3022	80002970	00000013	addi	x0,x0,0	  x0:0x00000000
       30245000	      3023	80002974	051e7263	bgeu	x28,x17,800029b8	 x28:0x9a609940 x17:0x8cf06000
       30255000	      3024	00000000	00000013	addi	x0,x0,0	  x0:0x00000000
       30265000	      3025	800029b4	00000013	addi	x0,x0,0	  x0:0x00000000
       30275000	      3026	800029b8	50ac6c13	ori	x24,x24,1290	 x24:0x00000000 x24=0x0000050a
       30285000	      3027	800029bc	f73ac693	xori	x13,x21,-141	 x21:0x00000000 x13=0xffffff73
       30295000	      3028	800029c0	12d20793	addi	x15,x4,301	  x4:0xffffffee x15=0x0000011b
       30305000	      3029	800029c4	5f2f0617	auipc	x12,0x5f2f0	 x12=0xdf2f29c0
       30315000	      3030	800029c8	000a1f13	slli	x30,x20,0x0	 x20:0x00000000 x30=0x00000000
       30325000	      3031	800029cc	010c01b3	add	x3,x24,x16	 x24:0x0000050a x16:0xfffff9ba  x3=0xfffffec4
       30335000	      3032	800029d0	03b9e863	bltu	x19,x27,80002a00	 x19:0x00000001 x27:0xfffffcf5
       30345000	      3033	00000000	00000013	addi	x0,x0,0	  x0:0x00000000
       30355000	      3034	800029fc	00000013	addi	x0,x0,0	  x0:0x00000000
       30365000	      3035	80002a00	c7632f13	slti	x30,x6,-906	  x6:0x00000001 x30=0x00000000
       30375000	      3036	80002a04	00421a13	slli	x20,x4,0x4	  x4:0xffffffee x20=0xfffffee0
       30385000	      3037	80002a08	00000013	addi	x0,x0,0	  x0:0x00000000
       30395000	      3038	80002a0c	056f6463	bltu	x30,x22,80002a54	 x30:0x00000000 x22:0x003b0000
       30405000	      3039	00000000	00000013	addi	x0,x0,0	  x0:0x00000000
       30415000	      3040	80002a50	00000013	addi	x0,x0,0	  x0:0x00000000
       30425000	      3041	80002a54	26fb8c13	addi	x24,x23,623	 x23:0x000007c2 x24=0x00000a31
       30435000	      3042	80002a58	7cd93493	sltiu	x9,x18,1997	 x18:0x80009940  x9=0x00000000
       30445000	      3043	80002a5c	419e5613	srai	x12,x28,0x19	 x28:0x9a609940 x12=0xffffffcd
       30455000	      3044	80002a60	04c68463	beq	x13,x12,80002aa8	 x13:0xffffff73 x12:0xffffffcd
       30465000	      3045	80002a64	015853b3	srl	x7,x16,x21	 x16:0xfffff9ba x21:0x00000000  x7=0xfffff9ba
       30475000	      3046	80002a68	014a27b3	slt	x15,x20,x20	 x20:0xfffffee0 x20:0xfffffee0 x15=0x00000000
       30485000	      3047	80002a6c	031f0663	beq	x30,x17,80002a98	 x30:0x00000000 x17:0x8cf06000
       30495000	      3048	80002a70	03285063	bge	x16,x18,80002a90	 x16:0xfffff9ba x18:0x80009940
       30505000	      3049	00000000	00000013	addi	x0,x0,0	  x0:0x00000000
       30515000	      3050	80002a8c	00000013	addi	x0,x0,0	  x0:0x00000000
       30525000	      3051	80002a90	81190f13	addi	x30,x18,-2031	 x18:0x80009940 x30=0x80009151
       30535000	      3052	80002a94	00e459b3	srl	x19,x8,x14	  x8:0x00000000 x14:0x0f134000 x19=0x00000000
       30545000	      3053	80002a98	025ad863	bge	x21,x5,80002ac8	 x21:0x00000000  x5:0x00000000
       30555000	      3054	00000000	00000013	addi	x0,x0,0	  x0:0x00000000
       30565000	      3055	80002ac4	00000013	addi	x0,x0,0	  x0:0x00000000
       30575000	      3056	80002ac8	023e9c63	bne	x29,x3,80002b00	 x29:0xf22f49ae  x3:0xfffffec4
       30585000	      3057	00000000	00000013	addi	x0,x0,0	  x0:0x00000000
       30595000	      3058	80002afc	00000013	addi	x0,x0,0	  x0:0x00000000
       30605000	      3059	80002b00	00521c63	bne	x4,x5,80002b18	  x4:0xffffffee  x5:0x00000000
       30615000	      3060	00000000	00000013	addi	x0,x0,0	  x0:0x00000000
       30625000	      3061	80002b14	00000013	addi	x0,x0,0	  x0:0x00000000
       30635000	      3062	80002b18	01121a13	slli	x20,x4,0x11	  x4:0xffffffee x20=0xffdc0000
       30645000	      3063	80002b1c	40065c13	srai	x24,x12,0x0	 x12:0xffffffcd x24=0xffffffcd
       30655000	      3064	80002b20	5f12ba97	auipc	x21,0x5f12b	 x21=0xdf12db1c
       30665000	      3065	80002b24	0299d663	bge	x19,x9,80002b50	 x19:0x00000000  x9:0x00000000
       30675000	      3066	00000000	00000013	addi	x0,x0,0	  x0:0x00000000
       30685000	      3067	80002b4c	00000013	addi	x0,x0,0	  x0:0x00000000
       30695000	      3068	80002b50	01808263	beq	x1,x24,80002b54	  x1:0x00000000 x24:0xffffffcd
       30705000	      3069	80002b54	b99e6717	auipc	x14,0xb99e6	 x14=0x399e8b50
       30715000	      3070	80002b58	05ec0263	beq	x24,x30,80002b9c	 x24:0xffffffcd x30:0x80009151
       30725000	      3071	80002b5c	0009e5b3	or	x11,x19,x0	 x19:0x00000000  x0:0x00000000 x11=0x00000000
       30735000	      3072	80002b60	b5812913	slti	x18,x2,-1192	  x2:0x80009fc4 x18=0x00000001
       30745000	      3073	80002b64	e4e62413	slti	x8,x12,-434	 x12:0xffffffcd  x8=0x00000000
       30755000	      3074	80002b68	03215663	bge	x2,x18,80002b94	  x2:0x80009fc4 x18:0x00000001
       30765000	      3075	80002b6c	00db5593	srli	x11,x22,0xd	 x22:0x003b0000 x11=0x000001d8
       30775000	      3076	80002b70	002dd833	srl	x16,x27,x2	 x27:0xfffffcf5  x2:0x80009fc4 x16=0x0fffffcf
       30785000	      3077	80002b74	411f8db3	sub	x27,x31,x17	 x31:0x71200760 x17:0x8cf06000 x27=0xe42fa760
       30795000	      3078	80002b78	010565b3	or	x11,x10,x16	 x10:0x00722f48 x16:0x0fffffcf x11=0x0fffffcf
       30805000	      3079	80002b7c	02df6463	bltu	x30,x13,80002ba4	 x30:0x80009151 x13:0xffffff73
       30815000	      3080	00000000	00000013	addi	x0,x0,0	  x0:0x00000000
       30825000	      3081	80002ba0	00000013	addi	x0,x0,0	  x0:0x00000000
       30835000	      3082	80002ba4	01b3efb3	or	x31,x7,x27	  x7:0xfffff9ba x27:0xe42fa760 x31=0xfffffffa
       30845000	      3083	80002ba8	0100036f	jal	x6,80002ba8	  x6=0x80002ba8
       30855000	      3084	00000000	00000013	addi	x0,x0,0	  x0:0x00000000
       30865000	      3085	80002bb4	00000013	addi	x0,x0,0	  x0:0x00000000
       30875000	      3086	80002bb8	ff9ff0ef	jal	x1,80002bb8	  x1=0x80002bb8
       30885000	      3087	00000000	00000013	addi	x0,x0,0	  x0:0x00000000
       30895000	      3088	80002bac	00000013	addi	x0,x0,0	  x0:0x00000000
       30905000	      3089	80002bb0	018000ef	jal	x1,80002bb0	  x1=0x80002bb0
       30915000	      3090	00000000	00000013	addi	x0,x0,0	  x0:0x00000000
       30925000	      3091	80002bc4	00000013	addi	x0,x0,0	  x0:0x00000000
       30935000	      3092	80002bc8	028002ef	jal	x5,80002bc8	  x5=0x80002bc8
       30945000	      3093	00000000	00000013	addi	x0,x0,0	  x0:0x00000000
       30955000	      3094	80002bec	00000013	addi	x0,x0,0	  x0:0x00000000
       30965000	      3095	80002bf0	fd5ff0ef	jal	x1,80002bf0	  x1=0x80002bf0
       30975000	      3096	00000000	00000013	addi	x0,x0,0	  x0:0x00000000
       30985000	      3097	80002bc0	00000013	addi	x0,x0,0	  x0:0x00000000
       30995000	      3098	80002bc4	01c00cef	jal	x25,80002bc4	 x25=0x80002bc4
       31005000	      3099	00000000	00000013	addi	x0,x0,0	  x0:0x00000000
       31015000	      3100	80002bdc	00000013	addi	x0,x0,0	  x0:0x00000000
       31025000	      3101	80002be0	00c0036f	jal	x6,80002be0	  x6=0x80002be0
       31035000	      3102	00000000	00000013	addi	x0,x0,0	  x0:0x00000000
       31045000	      3103	80002be8	00000013	addi	x0,x0,0	  x0:0x00000000
       31055000	      3104	80002bec	fc1ff0ef	jal	x1,80002bec	  x1=0x80002bec
       31065000	      3105	00000000	00000013	addi	x0,x0,0	  x0:0x00000000
       31075000	      3106	80002ba8	00000013	addi	x0,x0,0	  x0:0x00000000
       31085000	      3107	80002bac	014000ef	jal	x1,80002bac	  x1=0x80002bac
       31095000	      3108	00000000	00000013	addi	x0,x0,0	  x0:0x00000000
       31105000	      3109	80002bbc	00000013	addi	x0,x0,0	  x0:0x00000000
       31115000	      3110	80002bc0	024000ef	jal	x1,80002bc0	  x1=0x80002bc0
       31125000	      3111	00000000	00000013	addi	x0,x0,0	  x0:0x00000000
       31135000	      3112	80002be0	00000013	addi	x0,x0,0	  x0:0x00000000
       31145000	      3113	80002be4	01c00b6f	jal	x22,80002be4	 x22=0x80002be4
       31155000	      3114	00000000	00000013	addi	x0,x0,0	  x0:0x00000000
       31165000	      3115	80002bfc	00000013	addi	x0,x0,0	  x0:0x00000000
       31175000	      3116	80002c00	fbdff0ef	jal	x1,80002c00	  x1=0x80002c00
       31185000	      3117	00000000	00000013	addi	x0,x0,0	  x0:0x00000000
       31195000	      3118	80002bb8	00000013	addi	x0,x0,0	  x0:0x00000000
       31205000	      3119	80002bbc	03c000ef	jal	x1,80002bbc	  x1=0x80002bbc
       31215000	      3120	00000000	00000013	addi	x0,x0,0	  x0:0x00000000
       31225000	      3121	80002bf4	00000013	addi	x0,x0,0	  x0:0x00000000
       31235000	      3122	80002bf8	00c00b6f	jal	x22,80002bf8	 x22=0x80002bf8
       31245000	      3123	00000000	00000013	addi	x0,x0,0	  x0:0x00000000
       31255000	      3124	80002c00	00000013	addi	x0,x0,0	  x0:0x00000000
       31265000	      3125	80002c04	fe5ff0ef	jal	x1,80002c04	  x1=0x80002c04
       31275000	      3126	00000000	00000013	addi	x0,x0,0	  x0:0x00000000
       31285000	      3127	80002be4	00000013	addi	x0,x0,0	  x0:0x00000000
       31295000	      3128	80002be8	ff5ff1ef	jal	x3,80002be8	  x3=0x80002be8
       31305000	      3129	00000000	00000013	addi	x0,x0,0	  x0:0x00000000
       31315000	      3130	80002bd8	00000013	addi	x0,x0,0	  x0:0x00000000
       31325000	      3131	80002bdc	ff9ffb6f	jal	x22,80002bdc	 x22=0x80002bdc
       31335000	      3132	00000000	00000013	addi	x0,x0,0	  x0:0x00000000
       31345000	      3133	80002bd0	00000013	addi	x0,x0,0	  x0:0x00000000
       31355000	      3134	80002bd4	0040056f	jal	x10,80002bd4	 x10=0x80002bd4
       31365000	      3135	00000000	00000013	addi	x0,x0,0	  x0:0x00000000
       31375000	      3136	80002bd4	00000013	addi	x0,x0,0	  x0:0x00000000
       31385000	      3137	80002bd8	ff9ff2ef	jal	x5,80002bd8	  x5=0x80002bd8
       31395000	      3138	00000000	00000013	addi	x0,x0,0	  x0:0x00000000
       31405000	      3139	80002bcc	00000013	addi	x0,x0,0	  x0:0x00000000
       31415000	      3140	80002bd0	0240036f	jal	x6,80002bd0	  x6=0x80002bd0
       31425000	      3141	00000000	00000013	addi	x0,x0,0	  x0:0x00000000
       31435000	      3142	80002bf0	00000013	addi	x0,x0,0	  x0:0x00000000
       31445000	      3143	80002bf4	fc1ffcef	jal	x25,80002bf4	 x25=0x80002bf4
       31455000	      3144	00000000	00000013	addi	x0,x0,0	  x0:0x00000000
       31465000	      3145	80002bb0	00000013	addi	x0,x0,0	  x0:0x00000000
       31475000	      3146	80002bb4	048002ef	jal	x5,80002bb4	  x5=0x80002bb4
       31485000	      3147	00000000	00000013	addi	x0,x0,0	  x0:0x00000000
       31495000	      3148	80002bf8	00000013	addi	x0,x0,0	  x0:0x00000000
       31505000	      3149	80002bfc	fd1ff0ef	jal	x1,80002bfc	  x1=0x80002bfc
       31515000	      3150	00000000	00000013	addi	x0,x0,0	  x0:0x00000000
       31525000	      3151	80002bc8	00000013	addi	x0,x0,0	  x0:0x00000000
       31535000	      3152	80002bcc	03c000ef	jal	x1,80002bcc	  x1=0x80002bcc
       31545000	      3153	00000000	00000013	addi	x0,x0,0	  x0:0x00000000
       31555000	      3154	80002c04	00000013	addi	x0,x0,0	  x0:0x00000000
       31565000	      3155	80002c08	33d33017	auipc	x0,0x33d33	
       31575000	      3156	80002c0c	05ef4063	blt	x30,x30,80002c4c	 x30:0x80009151 x30:0x80009151
       31585000	      3157	80002c10	00000013	addi	x0,x0,0	  x0:0x00000000
       31595000	      3158	80002c14	00000013	addi	x0,x0,0	  x0:0x00000000
       31605000	      3159	80002c18	467bf013	andi	x0,x23,1127	 x23:0x000007c2
       31615000	      3160	80002c1c	00913433	sltu	x8,x2,x9	  x2:0x80009fc4  x9:0x00000000  x8=0x00000000
       31625000	      3161	80002c20	5e3c7013	andi	x0,x24,1507	 x24:0xffffffcd
       31635000	      3162	80002c24	01ac4263	blt	x24,x26,80002c28	 x24:0xffffffcd x26:0x80009f4c
       31645000	      3163	80002c28	64d72c97	auipc	x25,0x64d72	 x25=0xe4d74c24
       31655000	      3164	80002c2c	0481f863	bgeu	x3,x8,80002c7c	  x3:0x80002be8  x8:0x00000000
       31665000	      3165	00000000	00000013	addi	x0,x0,0	  x0:0x00000000
       31675000	      3166	80002c78	00000013	addi	x0,x0,0	  x0:0x00000000
       31685000	      3167	80002c7c	00000013	addi	x0,x0,0	  x0:0x00000000
       31695000	      3168	80002c80	01a40833	add	x16,x8,x26	  x8:0x00000000 x26:0x80009f4c x16=0x80009f4c
       31705000	      3169	80002c84	01409f33	sll	x30,x1,x20	  x1:0x80002bcc x20:0xffdc0000 x30=0x80002bcc
       31715000	      3170	80002c88	04456663	bltu	x10,x4,80002cd4	 x10:0x80002bd4  x4:0xffffffee
       31725000	      3171	00000000	00000013	addi	x0,x0,0	  x0:0x00000000
       31735000	      3172	80002cd0	00000013	addi	x0,x0,0	  x0:0x00000000
       31745000	      3173	80002cd4	25cfe513	ori	x10,x31,604	 x31:0xfffffffa x10=0xfffffffe
       31755000	      3174	80002cd8	413b5693	srai	x13,x22,0x13	 x22:0x80002bdc x13=0xfffff000
       31765000	      3175	80002cdc	10628893	addi	x17,x5,262	  x5:0x80002bb4 x17=0x80002cba
       31775000	      3176	80002ce0	00a64263	blt	x12,x10,80002ce4	 x12:0xffffffcd x10:0xfffffffe
       31785000	      3177	00000000	00000013	addi	x0,x0,0	  x0:0x00000000
       31795000	      3178	80002ce0	00000013	addi	x0,x0,0	  x0:0x00000000
       31805000	      3179	80002ce4	7c4bfb93	andi	x23,x23,1988	 x23:0x000007c2 x23=0x000007c0
       31815000	      3180	80002ce8	c827fc13	andi	x24,x15,-894	 x15:0x00000000 x24=0x00000000
       31825000	      3181	80002cec	1c30aab7	lui	x21,0x1c30a	 x21=0x1c30a000
       31835000	      3182	80002cf0	408ad1b3	sra	x3,x21,x8	 x21:0x1c30a000  x8:0x00000000  x3=0x1c30a000
       31845000	      3183	80002cf4	01ac04b3	add	x9,x24,x26	 x24:0x00000000 x26:0x80009f4c  x9=0x80009f4c
       31855000	      3184	80002cf8	408480b3	sub	x1,x9,x8	  x9:0x80009f4c  x8:0x00000000  x1=0x80009f4c
       31865000	      3185	80002cfc	014a7f33	and	x30,x20,x20	 x20:0xffdc0000 x20:0xffdc0000 x30=0xffdc0000
       31875000	      3186	80002d00	008e0c63	beq	x28,x8,80002d18	 x28:0x9a609940  x8:0x00000000
       31885000	      3187	80002d04	0029d793	srli	x15,x19,0x2	 x19:0x00000000 x15=0x00000000
       31895000	      3188	80002d08	03fc0263	beq	x24,x31,80002d2c	 x24:0x00000000 x31:0xfffffffa
       31905000	      3189	80002d0c	41495a13	srai	x20,x18,0x14	 x18:0x00000001 x20=0x00000000
       31915000	      3190	80002d10	00ef6633	or	x12,x30,x14	 x30:0xffdc0000 x14:0x399e8b50 x12=0xffde8b50
       31925000	      3191	80002d14	0154d293	srli	x5,x9,0x15	  x9:0x80009f4c  x5=0x00000400
       31935000	      3192	80002d18	40ad8db3	sub	x27,x27,x10	 x27:0xe42fa760 x10:0xfffffffe x27=0xe42fa762
       31945000	      3193	80002d1c	720e6213	ori	x4,x28,1824	 x28:0x9a609940  x4=0x9a609f60
       31955000	      3194	80002d20	02004863	blt	x0,x0,80002d50	  x0:0x00000000  x0:0x00000000
       31965000	      3195	80002d24	4025db33	sra	x22,x11,x2	 x11:0x0fffffcf  x2:0x80009fc4 x22=0x00fffffc
       31975000	      3196	80002d28	03697663	bgeu	x18,x22,80002d54	 x18:0x00000001 x22:0x00fffffc
       31985000	      3197	80002d2c	04cb7463	bgeu	x22,x12,80002d74	 x22:0x00fffffc x12:0xffde8b50
       31995000	      3198	80002d30	01952533	slt	x10,x10,x25	 x10:0xfffffffe x25:0xe4d74c24 x10=0x00000000
       32005000	      3199	80002d34	006b5093	srli	x1,x22,0x6	 x22:0x00fffffc  x1=0x0003ffff
       32015000	      3200	80002d38	01f60a63	beq	x12,x31,80002d4c	 x12:0xffde8b50 x31:0xfffffffa
       32025000	      3201	80002d3c	01cc0933	add	x18,x24,x28	 x24:0x00000000 x28:0x9a609940 x18=0x9a609940
       32035000	      3202	80002d40	00b47233	and	x4,x8,x11	  x8:0x00000000 x11:0x0fffffcf  x4=0x00000000
       32045000	      3203	80002d44	1aabcb17	auipc	x22,0x1aabc	 x22=0x9aabed40
       32055000	      3204	80002d48	eb080913	addi	x18,x16,-336	 x16:0x80009f4c x18=0x80009dfc
       32065000	      3205	80002d4c	ac967793	andi	x15,x12,-1335	 x12:0xffde8b50 x15=0xffde8a40
       32075000	      3206	80002d50	01219013	slli	x0,x3,0x12	  x3:0x1c30a000
       32085000	      3207	80002d54	001d5033	srl	x0,x26,x1	 x26:0x80009f4c  x1:0x0003ffff
       32095000	      3208	80002d58	94268f97	auipc	x31,0x94268	 x31=0x1426ad54
       32105000	      3209	80002d5c	0028eb33	or	x22,x17,x2	 x17:0x80002cba  x2:0x80009fc4 x22=0x8000bffe
       32115000	      3210	80002d60	03e1e863	bltu	x3,x30,80002d90	  x3:0x1c30a000 x30:0xffdc0000
       32125000	      3211	00000000	00000013	addi	x0,x0,0	  x0:0x00000000
       32135000	      3212	80002d8c	00000013	addi	x0,x0,0	  x0:0x00000000
       32145000	      3213	80002d90	00000013	addi	x0,x0,0	  x0:0x00000000
       32155000	      3214	80002d94	0035d263	bge	x11,x3,80002d98	 x11:0x0fffffcf  x3:0x1c30a000
       32165000	      3215	80002d98	be4ab593	sltiu	x11,x21,-1052	 x21:0x1c30a000 x11=0x00000001
       32175000	      3216	80002d9c	454f2437	lui	x8,0x454f2	  x8=0x454f2000
       32185000	      3217	80002da0	0036b433	sltu	x8,x13,x3	 x13:0xfffff000  x3:0x1c30a000  x8=0x00000000
       32195000	      3218	80002da4	02f54863	blt	x10,x15,80002dd4	 x10:0x00000000 x15:0xffde8a40
       32205000	      3219	80002da8	00fc26b3	slt	x13,x24,x15	 x24:0x00000000 x15:0xffde8a40 x13=0x00000000
       32215000	      3220	80002dac	015c0833	add	x16,x24,x21	 x24:0x00000000 x21:0x1c30a000 x16=0x1c30a000
       32225000	      3221	80002db0	00381013	slli	x0,x16,0x3	 x16:0x1c30a000
       32235000	      3222	80002db4	00a1ec63	bltu	x3,x10,80002dcc	  x3:0x1c30a000 x10:0x00000000
       32245000	      3223	80002db8	002eb333	sltu	x6,x29,x2	 x29:0xf22f49ae  x2:0x80009fc4  x6=0x00000000
       32255000	      3224	80002dbc	0189d893	srli	x17,x19,0x18	 x19:0x00000000 x17=0x00000000
       32265000	      3225	80002dc0	04af8863	beq	x31,x10,80002e10	 x31:0x1426ad54 x10:0x00000000
       32275000	      3226	80002dc4	6a933d93	sltiu	x27,x6,1705	  x6:0x00000000 x27=0x00000001
       32285000	      3227	80002dc8	00d14663	blt	x2,x13,80002dd4	  x2:0x80009fc4 x13:0x00000000
       32295000	      3228	00000000	00000013	addi	x0,x0,0	  x0:0x00000000
       32305000	      3229	80002dd0	00000013	addi	x0,x0,0	  x0:0x00000000
       32315000	      3230	80002dd4	41c70cb3	sub	x25,x14,x28	 x14:0x399e8b50 x28:0x9a609940 x25=0x9f3df210
       32325000	      3231	80002dd8	02379263	bne	x15,x3,80002dfc	 x15:0xffde8a40  x3:0x1c30a000
       32335000	      3232	00000000	00000013	addi	x0,x0,0	  x0:0x00000000
       32345000	      3233	80002df8	00000013	addi	x0,x0,0	  x0:0x00000000
       32355000	      3234	80002dfc	9b223893	sltiu	x17,x4,-1614	  x4:0x00000000 x17=0x00000001
       32365000	      3235	80002e00	01bc7a63	bgeu	x24,x27,80002e14	 x24:0x00000000 x27:0x00000001
       32375000	      3236	80002e04	00201533	sll	x10,x0,x2	  x0:0x00000000  x2:0x80009fc4 x10=0x00000000
       32385000	      3237	80002e08	410d8e33	sub	x28,x27,x16	 x27:0x00000001 x16:0x1c30a000 x28=0xe3cf6001
       32395000	      3238	80002e0c	03c55663	bge	x10,x28,80002e38	 x10:0x00000000 x28:0xe3cf6001
       32405000	      3239	00000000	00000013	addi	x0,x0,0	  x0:0x00000000
       32415000	      3240	80002e34	00000013	addi	x0,x0,0	  x0:0x00000000
       32425000	      3241	80002e38	028b1063	bne	x22,x8,80002e58	 x22:0x8000bffe  x8:0x00000000
       32435000	      3242	00000000	00000013	addi	x0,x0,0	  x0:0x00000000
       32445000	      3243	80002e54	00000013	addi	x0,x0,0	  x0:0x00000000
       32455000	      3244	80002e58	004e9db3	sll	x27,x29,x4	 x29:0xf22f49ae  x4:0x00000000 x27=0xf22f49ae
       32465000	      3245	80002e5c	40dc5713	srai	x14,x24,0xd	 x24:0x00000000 x14=0x00000000
       32475000	      3246	80002e60	58b48613	addi	x12,x9,1419	  x9:0x80009f4c x12=0x8000a4d7
       32485000	      3247	80002e64	004d2303	lw	x6,4(x26)	 x26:0x80009f4c  x6=0x800031ac PA:0x80009f50
       32495000	      3248	80002e68	00c57733	and	x14,x10,x12	 x10:0x00000000 x12:0x8000a4d7 x14=0x00000000
       32505000	      3249	80002e6c	babc3c13	sltiu	x24,x24,-1109	 x24:0x00000000 x24=0x00000001
       32515000	      3250	80002e70	014d1b13	slli	x22,x26,0x14	 x26:0x80009f4c x22=0xf4c00000
       32525000	      3251	80002e74	408a0033	sub	x0,x20,x8	 x20:0x00000000  x8:0x00000000
       32535000	      3252	80002e78	008d0d13	addi	x26,x26,8	 x26:0x80009f4c x26=0x80009f54
       32545000	      3253	80002e7c	f956c0b7	lui	x1,0xf956c	  x1=0xf956c000
       32555000	      3254	80002e80	00030b93	addi	x23,x6,0	  x6:0x800031ac x23=0x800031ac
       32565000	      3255	80002e84	000b8be7	jalr	x23,x23,0	 x23:0x800031ac x23=0x80002e84
       32575000	      3256	00000000	00000013	addi	x0,x0,0	  x0:0x00000000
       32585000	      3257	800031ac	00000013	addi	x0,x0,0	  x0:0x00000000
       32595000	      3258	800031b0	0380036f	jal	x6,800031b0	  x6=0x800031b0
       32605000	      3259	00000000	00000013	addi	x0,x0,0	  x0:0x00000000
       32615000	      3260	800031e4	00000013	addi	x0,x0,0	  x0:0x00000000
       32625000	      3261	800031e8	fd9ff0ef	jal	x1,800031e8	  x1=0x800031e8
       32635000	      3262	00000000	00000013	addi	x0,x0,0	  x0:0x00000000
       32645000	      3263	800031bc	00000013	addi	x0,x0,0	  x0:0x00000000
       32655000	      3264	800031c0	03c000ef	jal	x1,800031c0	  x1=0x800031c0
       32665000	      3265	00000000	00000013	addi	x0,x0,0	  x0:0x00000000
       32675000	      3266	800031f8	00000013	addi	x0,x0,0	  x0:0x00000000
       32685000	      3267	800031fc	004000ef	jal	x1,800031fc	  x1=0x800031fc
       32695000	      3268	00000000	00000013	addi	x0,x0,0	  x0:0x00000000
       32705000	      3269	800031fc	00000013	addi	x0,x0,0	  x0:0x00000000
       32715000	      3270	80003200	fd5ff0ef	jal	x1,80003200	  x1=0x80003200
       32725000	      3271	00000000	00000013	addi	x0,x0,0	  x0:0x00000000
       32735000	      3272	800031d0	00000013	addi	x0,x0,0	  x0:0x00000000
       32745000	      3273	800031d4	00800f6f	jal	x30,800031d4	 x30=0x800031d4
       32755000	      3274	00000000	00000013	addi	x0,x0,0	  x0:0x00000000
       32765000	      3275	800031d8	00000013	addi	x0,x0,0	  x0:0x00000000
       32775000	      3276	800031dc	ff1ffc6f	jal	x24,800031dc	 x24=0x800031dc
       32785000	      3277	00000000	00000013	addi	x0,x0,0	  x0:0x00000000
       32795000	      3278	800031c8	00000013	addi	x0,x0,0	  x0:0x00000000
       32805000	      3279	800031cc	048004ef	jal	x9,800031cc	  x9=0x800031cc
       32815000	      3280	00000000	00000013	addi	x0,x0,0	  x0:0x00000000
       32825000	      3281	80003210	00000013	addi	x0,x0,0	  x0:0x00000000
       32835000	      3282	80003214	fddff0ef	jal	x1,80003214	  x1=0x80003214
       32845000	      3283	00000000	00000013	addi	x0,x0,0	  x0:0x00000000
       32855000	      3284	800031ec	00000013	addi	x0,x0,0	  x0:0x00000000
       32865000	      3285	800031f0	0080036f	jal	x6,800031f0	  x6=0x800031f0
       32875000	      3286	00000000	00000013	addi	x0,x0,0	  x0:0x00000000
       32885000	      3287	800031f4	00000013	addi	x0,x0,0	  x0:0x00000000
       32895000	      3288	800031f8	fcdff0ef	jal	x1,800031f8	  x1=0x800031f8
       32905000	      3289	00000000	00000013	addi	x0,x0,0	  x0:0x00000000
       32915000	      3290	800031c0	00000013	addi	x0,x0,0	  x0:0x00000000
       32925000	      3291	800031c4	00c000ef	jal	x1,800031c4	  x1=0x800031c4
       32935000	      3292	00000000	00000013	addi	x0,x0,0	  x0:0x00000000
       32945000	      3293	800031cc	00000013	addi	x0,x0,0	  x0:0x00000000
       32955000	      3294	800031d0	fe9ff0ef	jal	x1,800031d0	  x1=0x800031d0
       32965000	      3295	00000000	00000013	addi	x0,x0,0	  x0:0x00000000
       32975000	      3296	800031b4	00000013	addi	x0,x0,0	  x0:0x00000000
       32985000	      3297	800031b8	0040076f	jal	x14,800031b8	 x14=0x800031b8
       32995000	      3298	00000000	00000013	addi	x0,x0,0	  x0:0x00000000
       33005000	      3299	800031b8	00000013	addi	x0,x0,0	  x0:0x00000000
       33015000	      3300	800031bc	050000ef	jal	x1,800031bc	  x1=0x800031bc
       33025000	      3301	00000000	00000013	addi	x0,x0,0	  x0:0x00000000
       33035000	      3302	80003208	00000013	addi	x0,x0,0	  x0:0x00000000
       33045000	      3303	8000320c	ff9ff0ef	jal	x1,8000320c	  x1=0x8000320c
       33055000	      3304	00000000	00000013	addi	x0,x0,0	  x0:0x00000000
       33065000	      3305	80003200	00000013	addi	x0,x0,0	  x0:0x00000000
       33075000	      3306	80003204	ff1ff76f	jal	x14,80003204	 x14=0x80003204
       33085000	      3307	00000000	00000013	addi	x0,x0,0	  x0:0x00000000
       33095000	      3308	800031f0	00000013	addi	x0,x0,0	  x0:0x00000000
       33105000	      3309	800031f4	01c0036f	jal	x6,800031f4	  x6=0x800031f4
       33115000	      3310	00000000	00000013	addi	x0,x0,0	  x0:0x00000000
       33125000	      3311	8000320c	00000013	addi	x0,x0,0	  x0:0x00000000
       33135000	      3312	80003210	fd5ff0ef	jal	x1,80003210	  x1=0x80003210
       33145000	      3313	00000000	00000013	addi	x0,x0,0	  x0:0x00000000
       33155000	      3314	800031e0	00000013	addi	x0,x0,0	  x0:0x00000000
       33165000	      3315	800031e4	fd1ff36f	jal	x6,800031e4	  x6=0x800031e4
       33175000	      3316	00000000	00000013	addi	x0,x0,0	  x0:0x00000000
       33185000	      3317	800031b0	00000013	addi	x0,x0,0	  x0:0x00000000
       33195000	      3318	800031b4	054005ef	jal	x11,800031b4	 x11=0x800031b4
       33205000	      3319	00000000	00000013	addi	x0,x0,0	  x0:0x00000000
       33215000	      3320	80003204	00000013	addi	x0,x0,0	  x0:0x00000000
       33225000	      3321	80003208	fd1ff0ef	jal	x1,80003208	  x1=0x80003208
       33235000	      3322	00000000	00000013	addi	x0,x0,0	  x0:0x00000000
       33245000	      3323	800031d4	00000013	addi	x0,x0,0	  x0:0x00000000
       33255000	      3324	800031d8	0080036f	jal	x6,800031d8	  x6=0x800031d8
       33265000	      3325	00000000	00000013	addi	x0,x0,0	  x0:0x00000000
       33275000	      3326	800031dc	00000013	addi	x0,x0,0	  x0:0x00000000
       33285000	      3327	800031e0	00c000ef	jal	x1,800031e0	  x1=0x800031e0
       33295000	      3328	00000000	00000013	addi	x0,x0,0	  x0:0x00000000
       33305000	      3329	800031e8	00000013	addi	x0,x0,0	  x0:0x00000000
       33315000	      3330	800031ec	fddff0ef	jal	x1,800031ec	  x1=0x800031ec
       33325000	      3331	00000000	00000013	addi	x0,x0,0	  x0:0x00000000
       33335000	      3332	800031c4	00000013	addi	x0,x0,0	  x0:0x00000000
       33345000	      3333	800031c8	0500036f	jal	x6,800031c8	  x6=0x800031c8
       33355000	      3334	00000000	00000013	addi	x0,x0,0	  x0:0x00000000
       33365000	      3335	80003214	00000013	addi	x0,x0,0	  x0:0x00000000
       33375000	      3336	80003218	016076b3	and	x13,x0,x22	  x0:0x00000000 x22:0xf4c00000 x13=0x00000000
       33385000	      3337	8000321c	01c0036f	jal	x6,8000321c	  x6=0x8000321c
       33395000	      3338	00000000	00000013	addi	x0,x0,0	  x0:0x00000000
       33405000	      3339	80003234	00000013	addi	x0,x0,0	  x0:0x00000000
       33415000	      3340	80003238	008000ef	jal	x1,80003238	  x1=0x80003238
       33425000	      3341	00000000	00000013	addi	x0,x0,0	  x0:0x00000000
       33435000	      3342	8000323c	00000013	addi	x0,x0,0	  x0:0x00000000
       33445000	      3343	80003240	fe5ffe6f	jal	x28,80003240	 x28=0x80003240
       33455000	      3344	00000000	00000013	addi	x0,x0,0	  x0:0x00000000
       33465000	      3345	80003220	00000013	addi	x0,x0,0	  x0:0x00000000
       33475000	      3346	80003224	020000ef	jal	x1,80003224	  x1=0x80003224
       33485000	      3347	00000000	00000013	addi	x0,x0,0	  x0:0x00000000
       33495000	      3348	80003240	00000013	addi	x0,x0,0	  x0:0x00000000
       33505000	      3349	80003244	fedff4ef	jal	x9,80003244	  x9=0x80003244
       33515000	      3350	00000000	00000013	addi	x0,x0,0	  x0:0x00000000
       33525000	      3351	8000322c	00000013	addi	x0,x0,0	  x0:0x00000000
       33535000	      3352	80003230	ff1ff2ef	jal	x5,80003230	  x5=0x80003230
       33545000	      3353	00000000	00000013	addi	x0,x0,0	  x0:0x00000000
       33555000	      3354	8000321c	00000013	addi	x0,x0,0	  x0:0x00000000
       33565000	      3355	80003220	00c000ef	jal	x1,80003220	  x1=0x80003220
       33575000	      3356	00000000	00000013	addi	x0,x0,0	  x0:0x00000000
       33585000	      3357	80003228	00000013	addi	x0,x0,0	  x0:0x00000000
       33595000	      3358	8000322c	0080036f	jal	x6,8000322c	  x6=0x8000322c
       33605000	      3359	00000000	00000013	addi	x0,x0,0	  x0:0x00000000
       33615000	      3360	80003230	00000013	addi	x0,x0,0	  x0:0x00000000
       33625000	      3361	80003234	ff5ff46f	jal	x8,80003234	  x8=0x80003234
       33635000	      3362	00000000	00000013	addi	x0,x0,0	  x0:0x00000000
       33645000	      3363	80003224	00000013	addi	x0,x0,0	  x0:0x00000000
       33655000	      3364	80003228	014000ef	jal	x1,80003228	  x1=0x80003228
       33665000	      3365	00000000	00000013	addi	x0,x0,0	  x0:0x00000000
       33675000	      3366	80003238	00000013	addi	x0,x0,0	  x0:0x00000000
       33685000	      3367	8000323c	00c000ef	jal	x1,8000323c	  x1=0x8000323c
       33695000	      3368	00000000	00000013	addi	x0,x0,0	  x0:0x00000000
       33705000	      3369	80003244	00000013	addi	x0,x0,0	  x0:0x00000000
       33715000	      3370	80003248	18a3b293	sltiu	x5,x7,394	  x7:0xfffff9ba  x5=0x00000000
       33725000	      3371	8000324c	0200036f	jal	x6,8000324c	  x6=0x8000324c
       33735000	      3372	00000000	00000013	addi	x0,x0,0	  x0:0x00000000
       33745000	      3373	80003268	00000013	addi	x0,x0,0	  x0:0x00000000
       33755000	      3374	8000326c	004000ef	jal	x1,8000326c	  x1=0x8000326c
       33765000	      3375	00000000	00000013	addi	x0,x0,0	  x0:0x00000000
       33775000	      3376	8000326c	00000013	addi	x0,x0,0	  x0:0x00000000
       33785000	      3377	80003270	ff9ff36f	jal	x6,80003270	  x6=0x80003270
       33795000	      3378	00000000	00000013	addi	x0,x0,0	  x0:0x00000000
       33805000	      3379	80003264	00000013	addi	x0,x0,0	  x0:0x00000000
       33815000	      3380	80003268	010000ef	jal	x1,80003268	  x1=0x80003268
       33825000	      3381	00000000	00000013	addi	x0,x0,0	  x0:0x00000000
       33835000	      3382	80003274	00000013	addi	x0,x0,0	  x0:0x00000000
       33845000	      3383	80003278	fe5ffcef	jal	x25,80003278	 x25=0x80003278
       33855000	      3384	00000000	00000013	addi	x0,x0,0	  x0:0x00000000
       33865000	      3385	80003258	00000013	addi	x0,x0,0	  x0:0x00000000
       33875000	      3386	8000325c	018000ef	jal	x1,8000325c	  x1=0x8000325c
       33885000	      3387	00000000	00000013	addi	x0,x0,0	  x0:0x00000000
       33895000	      3388	80003270	00000013	addi	x0,x0,0	  x0:0x00000000
       33905000	      3389	80003274	008000ef	jal	x1,80003274	  x1=0x80003274
       33915000	      3390	00000000	00000013	addi	x0,x0,0	  x0:0x00000000
       33925000	      3391	80003278	00000013	addi	x0,x0,0	  x0:0x00000000
       33935000	      3392	8000327c	fe9ff96f	jal	x18,8000327c	 x18=0x8000327c
       33945000	      3393	00000000	00000013	addi	x0,x0,0	  x0:0x00000000
       33955000	      3394	80003260	00000013	addi	x0,x0,0	  x0:0x00000000
       33965000	      3395	80003264	ffdff1ef	jal	x3,80003264	  x3=0x80003264
       33975000	      3396	00000000	00000013	addi	x0,x0,0	  x0:0x00000000
       33985000	      3397	8000325c	00000013	addi	x0,x0,0	  x0:0x00000000
       33995000	      3398	80003260	ff9ff36f	jal	x6,80003260	  x6=0x80003260
       34005000	      3399	00000000	00000013	addi	x0,x0,0	  x0:0x00000000
       34015000	      3400	80003254	00000013	addi	x0,x0,0	  x0:0x00000000
       34025000	      3401	80003258	ff9ffa6f	jal	x20,80003258	 x20=0x80003258
       34035000	      3402	00000000	00000013	addi	x0,x0,0	  x0:0x00000000
       34045000	      3403	8000324c	00000013	addi	x0,x0,0	  x0:0x00000000
       34055000	      3404	80003250	0040066f	jal	x12,80003250	 x12=0x80003250
       34065000	      3405	00000000	00000013	addi	x0,x0,0	  x0:0x00000000
       34075000	      3406	80003250	00000013	addi	x0,x0,0	  x0:0x00000000
       34085000	      3407	80003254	02c00aef	jal	x21,80003254	 x21=0x80003254
       34095000	      3408	00000000	00000013	addi	x0,x0,0	  x0:0x00000000
       34105000	      3409	8000327c	00000013	addi	x0,x0,0	  x0:0x00000000
       34115000	      3410	80003280	01bd1293	slli	x5,x26,0x1b	 x26:0x80009f54  x5=0xa0000000
       34125000	      3411	80003284	0040036f	jal	x6,80003284	  x6=0x80003284
       34135000	      3412	00000000	00000013	addi	x0,x0,0	  x0:0x00000000
       34145000	      3413	80003284	00000013	addi	x0,x0,0	  x0:0x00000000
       34155000	      3414	80003288	02c002ef	jal	x5,80003288	  x5=0x80003288
       34165000	      3415	00000000	00000013	addi	x0,x0,0	  x0:0x00000000
       34175000	      3416	800032b0	00000013	addi	x0,x0,0	  x0:0x00000000
       34185000	      3417	800032b4	02c007ef	jal	x15,800032b4	 x15=0x800032b4
       34195000	      3418	00000000	00000013	addi	x0,x0,0	  x0:0x00000000
       34205000	      3419	800032dc	00000013	addi	x0,x0,0	  x0:0x00000000
       34215000	      3420	800032e0	fb1ff36f	jal	x6,800032e0	  x6=0x800032e0
       34225000	      3421	00000000	00000013	addi	x0,x0,0	  x0:0x00000000
       34235000	      3422	8000328c	00000013	addi	x0,x0,0	  x0:0x00000000
       34245000	      3423	80003290	03c000ef	jal	x1,80003290	  x1=0x80003290
       34255000	      3424	00000000	00000013	addi	x0,x0,0	  x0:0x00000000
       34265000	      3425	800032c8	00000013	addi	x0,x0,0	  x0:0x00000000
       34275000	      3426	800032cc	fedff66f	jal	x12,800032cc	 x12=0x800032cc
       34285000	      3427	00000000	00000013	addi	x0,x0,0	  x0:0x00000000
       34295000	      3428	800032b4	00000013	addi	x0,x0,0	  x0:0x00000000
       34305000	      3429	800032b8	00c000ef	jal	x1,800032b8	  x1=0x800032b8
       34315000	      3430	00000000	00000013	addi	x0,x0,0	  x0:0x00000000
       34325000	      3431	800032c0	00000013	addi	x0,x0,0	  x0:0x00000000
       34335000	      3432	800032c4	fd1ff96f	jal	x18,800032c4	 x18=0x800032c4
       34345000	      3433	00000000	00000013	addi	x0,x0,0	  x0:0x00000000
       34355000	      3434	80003290	00000013	addi	x0,x0,0	  x0:0x00000000
       34365000	      3435	80003294	008000ef	jal	x1,80003294	  x1=0x80003294
       34375000	      3436	00000000	00000013	addi	x0,x0,0	  x0:0x00000000
       34385000	      3437	80003298	00000013	addi	x0,x0,0	  x0:0x00000000
       34395000	      3438	8000329c	038000ef	jal	x1,8000329c	  x1=0x8000329c
       34405000	      3439	00000000	00000013	addi	x0,x0,0	  x0:0x00000000
       34415000	      3440	800032d0	00000013	addi	x0,x0,0	  x0:0x00000000
       34425000	      3441	800032d4	008000ef	jal	x1,800032d4	  x1=0x800032d4
       34435000	      3442	00000000	00000013	addi	x0,x0,0	  x0:0x00000000
       34445000	      3443	800032d8	00000013	addi	x0,x0,0	  x0:0x00000000
       34455000	      3444	800032dc	008000ef	jal	x1,800032dc	  x1=0x800032dc
       34465000	      3445	00000000	00000013	addi	x0,x0,0	  x0:0x00000000
       34475000	      3446	800032e0	00000013	addi	x0,x0,0	  x0:0x00000000
       34485000	      3447	800032e4	fe5ff96f	jal	x18,800032e4	 x18=0x800032e4
       34495000	      3448	00000000	00000013	addi	x0,x0,0	  x0:0x00000000
       34505000	      3449	800032c4	00000013	addi	x0,x0,0	  x0:0x00000000
       34515000	      3450	800032c8	010000ef	jal	x1,800032c8	  x1=0x800032c8
       34525000	      3451	00000000	00000013	addi	x0,x0,0	  x0:0x00000000
       34535000	      3452	800032d4	00000013	addi	x0,x0,0	  x0:0x00000000
       34545000	      3453	800032d8	fe5ff36f	jal	x6,800032d8	  x6=0x800032d8
       34555000	      3454	00000000	00000013	addi	x0,x0,0	  x0:0x00000000
       34565000	      3455	800032b8	00000013	addi	x0,x0,0	  x0:0x00000000
       34575000	      3456	800032bc	0140036f	jal	x6,800032bc	  x6=0x800032bc
       34585000	      3457	00000000	00000013	addi	x0,x0,0	  x0:0x00000000
       34595000	      3458	800032cc	00000013	addi	x0,x0,0	  x0:0x00000000
       34605000	      3459	800032d0	fd9ff0ef	jal	x1,800032d0	  x1=0x800032d0
       34615000	      3460	00000000	00000013	addi	x0,x0,0	  x0:0x00000000
       34625000	      3461	800032a4	00000013	addi	x0,x0,0	  x0:0x00000000
       34635000	      3462	800032a8	004000ef	jal	x1,800032a8	  x1=0x800032a8
       34645000	      3463	00000000	00000013	addi	x0,x0,0	  x0:0x00000000
       34655000	      3464	800032a8	00000013	addi	x0,x0,0	  x0:0x00000000
       34665000	      3465	800032ac	fe1ff0ef	jal	x1,800032ac	  x1=0x800032ac
       34675000	      3466	00000000	00000013	addi	x0,x0,0	  x0:0x00000000
       34685000	      3467	80003288	00000013	addi	x0,x0,0	  x0:0x00000000
       34695000	      3468	8000328c	018000ef	jal	x1,8000328c	  x1=0x8000328c
       34705000	      3469	00000000	00000013	addi	x0,x0,0	  x0:0x00000000
       34715000	      3470	800032a0	00000013	addi	x0,x0,0	  x0:0x00000000
       34725000	      3471	800032a4	ff5ff36f	jal	x6,800032a4	  x6=0x800032a4
       34735000	      3472	00000000	00000013	addi	x0,x0,0	  x0:0x00000000
       34745000	      3473	80003294	00000013	addi	x0,x0,0	  x0:0x00000000
       34755000	      3474	80003298	0080036f	jal	x6,80003298	  x6=0x80003298
       34765000	      3475	00000000	00000013	addi	x0,x0,0	  x0:0x00000000
       34775000	      3476	8000329c	00000013	addi	x0,x0,0	  x0:0x00000000
       34785000	      3477	800032a0	020000ef	jal	x1,800032a0	  x1=0x800032a0
       34795000	      3478	00000000	00000013	addi	x0,x0,0	  x0:0x00000000
       34805000	      3479	800032bc	00000013	addi	x0,x0,0	  x0:0x00000000
       34815000	      3480	800032c0	ff1ff66f	jal	x12,800032c0	 x12=0x800032c0
       34825000	      3481	00000000	00000013	addi	x0,x0,0	  x0:0x00000000
       34835000	      3482	800032ac	00000013	addi	x0,x0,0	  x0:0x00000000
       34845000	      3483	800032b0	0380056f	jal	x10,800032b0	 x10=0x800032b0
       34855000	      3484	00000000	00000013	addi	x0,x0,0	  x0:0x00000000
       34865000	      3485	800032e4	00000013	addi	x0,x0,0	  x0:0x00000000
       34875000	      3486	800032e8	01511a13	slli	x20,x2,0x15	  x2:0x80009fc4 x20=0xf8800000
       34885000	      3487	800032ec	0440036f	jal	x6,800032ec	  x6=0x800032ec
       34895000	      3488	00000000	00000013	addi	x0,x0,0	  x0:0x00000000
       34905000	      3489	8000332c	00000013	addi	x0,x0,0	  x0:0x00000000
       34915000	      3490	80003330	fd1ff0ef	jal	x1,80003330	  x1=0x80003330
       34925000	      3491	00000000	00000013	addi	x0,x0,0	  x0:0x00000000
       34935000	      3492	800032fc	00000013	addi	x0,x0,0	  x0:0x00000000
       34945000	      3493	80003300	ffdff2ef	jal	x5,80003300	  x5=0x80003300
       34955000	      3494	00000000	00000013	addi	x0,x0,0	  x0:0x00000000
       34965000	      3495	800032f8	00000013	addi	x0,x0,0	  x0:0x00000000
       34975000	      3496	800032fc	01000a6f	jal	x20,800032fc	 x20=0x800032fc
       34985000	      3497	00000000	00000013	addi	x0,x0,0	  x0:0x00000000
       34995000	      3498	80003308	00000013	addi	x0,x0,0	  x0:0x00000000
       35005000	      3499	8000330c	00c000ef	jal	x1,8000330c	  x1=0x8000330c
       35015000	      3500	00000000	00000013	addi	x0,x0,0	  x0:0x00000000
       35025000	      3501	80003314	00000013	addi	x0,x0,0	  x0:0x00000000
       35035000	      3502	80003318	004000ef	jal	x1,80003318	  x1=0x80003318
       35045000	      3503	00000000	00000013	addi	x0,x0,0	  x0:0x00000000
       35055000	      3504	80003318	00000013	addi	x0,x0,0	  x0:0x00000000
       35065000	      3505	8000331c	fd9ff0ef	jal	x1,8000331c	  x1=0x8000331c
       35075000	      3506	00000000	00000013	addi	x0,x0,0	  x0:0x00000000
       35085000	      3507	800032f0	00000013	addi	x0,x0,0	  x0:0x00000000
       35095000	      3508	800032f4	0380036f	jal	x6,800032f4	  x6=0x800032f4
       35105000	      3509	00000000	00000013	addi	x0,x0,0	  x0:0x00000000
       35115000	      3510	80003328	00000013	addi	x0,x0,0	  x0:0x00000000
       35125000	      3511	8000332c	fd9ff0ef	jal	x1,8000332c	  x1=0x8000332c
       35135000	      3512	00000000	00000013	addi	x0,x0,0	  x0:0x00000000
       35145000	      3513	80003300	00000013	addi	x0,x0,0	  x0:0x00000000
       35155000	      3514	80003304	020005ef	jal	x11,80003304	 x11=0x80003304
       35165000	      3515	00000000	00000013	addi	x0,x0,0	  x0:0x00000000
       35175000	      3516	80003320	00000013	addi	x0,x0,0	  x0:0x00000000
       35185000	      3517	80003324	004000ef	jal	x1,80003324	  x1=0x80003324
       35195000	      3518	00000000	00000013	addi	x0,x0,0	  x0:0x00000000
       35205000	      3519	80003324	00000013	addi	x0,x0,0	  x0:0x00000000
       35215000	      3520	80003328	fe1ff0ef	jal	x1,80003328	  x1=0x80003328
       35225000	      3521	00000000	00000013	addi	x0,x0,0	  x0:0x00000000
       35235000	      3522	80003304	00000013	addi	x0,x0,0	  x0:0x00000000
       35245000	      3523	80003308	00c0036f	jal	x6,80003308	  x6=0x80003308
       35255000	      3524	00000000	00000013	addi	x0,x0,0	  x0:0x00000000
       35265000	      3525	80003310	00000013	addi	x0,x0,0	  x0:0x00000000
       35275000	      3526	80003314	00c001ef	jal	x3,80003314	  x3=0x80003314
       35285000	      3527	00000000	00000013	addi	x0,x0,0	  x0:0x00000000
       35295000	      3528	8000331c	00000013	addi	x0,x0,0	  x0:0x00000000
       35305000	      3529	80003320	ff1ffc6f	jal	x24,80003320	 x24=0x80003320
       35315000	      3530	00000000	00000013	addi	x0,x0,0	  x0:0x00000000
       35325000	      3531	8000330c	00000013	addi	x0,x0,0	  x0:0x00000000
       35335000	      3532	80003310	fe9ff0ef	jal	x1,80003310	  x1=0x80003310
       35345000	      3533	00000000	00000013	addi	x0,x0,0	  x0:0x00000000
       35355000	      3534	800032f4	00000013	addi	x0,x0,0	  x0:0x00000000
       35365000	      3535	800032f8	ff9ff26f	jal	x4,800032f8	  x4=0x800032f8
       35375000	      3536	00000000	00000013	addi	x0,x0,0	  x0:0x00000000
       35385000	      3537	800032ec	00000013	addi	x0,x0,0	  x0:0x00000000
       35395000	      3538	800032f0	044000ef	jal	x1,800032f0	  x1=0x800032f0
       35405000	      3539	00000000	00000013	addi	x0,x0,0	  x0:0x00000000
       35415000	      3540	80003330	00000013	addi	x0,x0,0	  x0:0x00000000
       35425000	      3541	80003334	00719833	sll	x16,x3,x7	  x3:0x80003314  x7:0xfffff9ba x16=0x50000000
       35435000	      3542	80003338	41ac5f93	srai	x31,x24,0x1a	 x24:0x80003320 x31=0xffffffe0
       35445000	      3543	8000333c	fc130493	addi	x9,x6,-63	  x6:0x80003308  x9=0x800032c9
       35455000	      3544	80003340	81fa2193	slti	x3,x20,-2017	 x20:0x800032fc  x3=0x00000001
       35465000	      3545	80003344	01876333	or	x6,x14,x24	 x14:0x80003204 x24:0x80003320  x6=0x80003324
       35475000	      3546	80003348	005df6b3	and	x13,x27,x5	 x27:0xf22f49ae  x5:0x80003300 x13=0x80000100
       35485000	      3547	8000334c	017e0db3	add	x27,x28,x23	 x28:0x80003240 x23:0x80002e84 x27=0x000060c4
       35495000	      3548	80003350	00dfecb3	or	x25,x31,x13	 x31:0xffffffe0 x13:0x80000100 x25=0xffffffe0
       35505000	      3549	80003354	41ae83b3	sub	x7,x29,x26	 x29:0xf22f49ae x26:0x80009f54  x7=0x722eaa5a
       35515000	      3550	80003358	c4ba7793	andi	x15,x20,-949	 x20:0x800032fc x15=0x80003048
       35525000	      3551	8000335c	00821463	bne	x4,x8,80003364	  x4:0x800032f8  x8:0x80003234
       35535000	      3552	00000000	00000013	addi	x0,x0,0	  x0:0x00000000
       35545000	      3553	80003360	00000013	addi	x0,x0,0	  x0:0x00000000
       35555000	      3554	80003364	00205033	srl	x0,x0,x2	  x0:0x00000000  x2:0x80009fc4
       35565000	      3555	80003368	20f9bf37	lui	x30,0x20f9b	 x30=0x20f9b000
       35575000	      3556	8000336c	bf8cf513	andi	x10,x25,-1032	 x25:0xffffffe0 x10=0xfffffbe0
       35585000	      3557	80003370	0198c633	xor	x12,x17,x25	 x17:0x00000001 x25:0xffffffe0 x12=0xffffffe1
       35595000	      3558	80003374	007ebe33	sltu	x28,x29,x7	 x29:0xf22f49ae  x7:0x722eaa5a x28=0x00000000
       35605000	      3559	80003378	41a15f13	srai	x30,x2,0x1a	  x2:0x80009fc4 x30=0xffffffe0
       35615000	      3560	8000337c	409f0433	sub	x8,x30,x9	 x30:0xffffffe0  x9:0x800032c9  x8=0x7fffcd17
       35625000	      3561	80003380	014ddc63	bge	x27,x20,80003398	 x27:0x000060c4 x20:0x800032fc
       35635000	      3562	00000000	00000013	addi	x0,x0,0	  x0:0x00000000
       35645000	      3563	80003394	00000013	addi	x0,x0,0	  x0:0x00000000
       35655000	      3564	80003398	00f86e63	bltu	x16,x15,800033b4	 x16:0x50000000 x15:0x80003048
       35665000	      3565	00000000	00000013	addi	x0,x0,0	  x0:0x00000000
       35675000	      3566	800033b0	00000013	addi	x0,x0,0	  x0:0x00000000
       35685000	      3567	800033b4	01668863	beq	x13,x22,800033c4	 x13:0x80000100 x22:0xf4c00000
       35695000	      3568	800033b8	9f25f013	andi	x0,x11,-1550	 x11:0x80003304
       35705000	      3569	800033bc	03797c63	bgeu	x18,x23,800033f4	 x18:0x800032e4 x23:0x80002e84
       35715000	      3570	00000000	00000013	addi	x0,x0,0	  x0:0x00000000
       35725000	      3571	800033f0	00000013	addi	x0,x0,0	  x0:0x00000000
       35735000	      3572	800033f4	3834b297	auipc	x5,0x3834b	  x5=0xb834e3f0
       35745000	      3573	800033f8	0af9de37	lui	x28,0xaf9d	 x28=0x0af9d000
       35755000	      3574	800033fc	1f077813	andi	x16,x14,496	 x14:0x80003204 x16=0x00000000
       35765000	      3575	80003400	058c6663	bltu	x24,x24,8000344c	 x24:0x80003320 x24:0x80003320
       35775000	      3576	80003404	010c9a93	slli	x21,x25,0x10	 x25:0xffffffe0 x21=0xffe00000
       35785000	      3577	80003408	d6818c93	addi	x25,x3,-664	  x3:0x00000001 x25=0xfffffd69
       35795000	      3578	8000340c	02a83313	sltiu	x6,x16,42	 x16:0x00000000  x6=0x00000001
       35805000	      3579	80003410	8d8cb013	sltiu	x0,x25,-1832	 x25:0xfffffd69
       35815000	      3580	80003414	c9dd4297	auipc	x5,0xc9dd4	  x5=0x49dd7410
       35825000	      3581	80003418	0409d263	bge	x19,x0,8000345c	 x19:0x00000000  x0:0x00000000
       35835000	      3582	00000000	00000013	addi	x0,x0,0	  x0:0x00000000
       35845000	      3583	80003458	00000013	addi	x0,x0,0	  x0:0x00000000
       35855000	      3584	8000345c	03d0e063	bltu	x1,x29,8000347c	  x1:0x800032f0 x29:0xf22f49ae
       35865000	      3585	00000000	00000013	addi	x0,x0,0	  x0:0x00000000
       35875000	      3586	80003478	00000013	addi	x0,x0,0	  x0:0x00000000
       35885000	      3587	8000347c	88e32f93	slti	x31,x6,-1906	  x6:0x00000001 x31=0x00000000
       35895000	      3588	80003480	00ec8a63	beq	x25,x14,80003494	 x25:0xfffffd69 x14:0x80003204
       35905000	      3589	80003484	0010cc63	blt	x1,x1,8000349c	  x1:0x800032f0  x1:0x800032f0
       35915000	      3590	80003488	038a6063	bltu	x20,x24,800034a8	 x20:0x800032fc x24:0x80003320
       35925000	      3591	00000000	00000013	addi	x0,x0,0	  x0:0x00000000
       35935000	      3592	800034a4	00000013	addi	x0,x0,0	  x0:0x00000000
       35945000	      3593	800034a8	40ed8db3	sub	x27,x27,x14	 x27:0x000060c4 x14:0x80003204 x27=0x80002ec0
       35955000	      3594	800034ac	01256a33	or	x20,x10,x18	 x10:0xfffffbe0 x18:0x800032e4 x20=0xfffffbe4
       35965000	      3595	800034b0	d81e8193	addi	x3,x29,-639	 x29:0xf22f49ae  x3=0xf22f472f
       35975000	      3596	800034b4	7365e613	ori	x12,x11,1846	 x11:0x80003304 x12=0x80003736
       35985000	      3597	800034b8	b5ede813	ori	x16,x27,-1186	 x27:0x80002ec0 x16=0xffffffde
       35995000	      3598	800034bc	409fdc93	srai	x25,x31,0x9	 x31:0x00000000 x25=0x00000000
       36005000	      3599	800034c0	929fe513	ori	x10,x31,-1751	 x31:0x00000000 x10=0xfffff929
       36015000	      3600	800034c4	0125e0b3	or	x1,x11,x18	 x11:0x80003304 x18:0x800032e4  x1=0x800033e4
       36025000	      3601	800034c8	406a8ab3	sub	x21,x21,x6	 x21:0xffe00000  x6:0x00000001 x21=0xffdfffff
       36035000	      3602	800034cc	001ae233	or	x4,x21,x1	 x21:0xffdfffff  x1:0x800033e4  x4=0xffdfffff
       36045000	      3603	800034d0	401ed4b3	sra	x9,x29,x1	 x29:0xf22f49ae  x1:0x800033e4  x9=0xff22f49a
       36055000	      3604	800034d4	00e95193	srli	x3,x18,0xe	 x18:0x800032e4  x3=0x00020000
       36065000	      3605	800034d8	004ef8b3	and	x17,x29,x4	 x29:0xf22f49ae  x4:0xffdfffff x17=0xf20f49ae
       36075000	      3606	800034dc	00000013	addi	x0,x0,0	  x0:0x00000000
       36085000	      3607	800034e0	1b1bf693	andi	x13,x23,433	 x23:0x80002e84 x13=0x00000080
       36095000	      3608	800034e4	01d6fdb3	and	x27,x13,x29	 x13:0x00000080 x29:0xf22f49ae x27=0x00000080
       36105000	      3609	800034e8	0047ab33	slt	x22,x15,x4	 x15:0x80003048  x4:0xffdfffff x22=0x00000001
       36115000	      3610	800034ec	41c2db13	srai	x22,x5,0x1c	  x5:0x49dd7410 x22=0x00000004
       36125000	      3611	800034f0	019797b3	sll	x15,x15,x25	 x15:0x80003048 x25:0x00000000 x15=0x80003048
       36135000	      3612	800034f4	00dcd893	srli	x17,x25,0xd	 x25:0x00000000 x17=0x00000000
       36145000	      3613	800034f8	05300463	beq	x0,x19,80003540	  x0:0x00000000 x19:0x00000000
       36155000	      3614	00000000	00000013	addi	x0,x0,0	  x0:0x00000000
       36165000	      3615	8000353c	00000013	addi	x0,x0,0	  x0:0x00000000
       36175000	      3616	80003540	017a9f93	slli	x31,x21,0x17	 x21:0xffdfffff x31=0xff800000
       36185000	      3617	80003544	408a8833	sub	x16,x21,x8	 x21:0xffdfffff  x8:0x7fffcd17 x16=0x7fe032e8
       36195000	      3618	80003548	011d2333	slt	x6,x26,x17	 x26:0x80009f54 x17:0x00000000  x6=0x00000001
       36205000	      3619	8000354c	011a5db3	srl	x27,x20,x17	 x20:0xfffffbe4 x17:0x00000000 x27=0xfffffbe4
       36215000	      3620	80003550	00000013	addi	x0,x0,0	  x0:0x00000000
       36225000	      3621	80003554	018ba633	slt	x12,x23,x24	 x23:0x80002e84 x24:0x80003320 x12=0x00000001
       36235000	      3622	80003558	01f0f3b3	and	x7,x1,x31	  x1:0x800033e4 x31:0xff800000  x7=0x80000000
       36245000	      3623	8000355c	41ce8c33	sub	x24,x29,x28	 x29:0xf22f49ae x28:0x0af9d000 x24=0xe73579ae
       36255000	      3624	80003560	01b942b3	xor	x5,x18,x27	 x18:0x800032e4 x27:0xfffffbe4  x5=0x7fffc900
       36265000	      3625	80003564	013713b3	sll	x7,x14,x19	 x14:0x80003204 x19:0x00000000  x7=0x80003204
       36275000	      3626	80003568	00f3e633	or	x12,x7,x15	  x7:0x80003204 x15:0x80003048 x12=0x8000324c
       36285000	      3627	8000356c	00000013	addi	x0,x0,0	  x0:0x00000000
       36295000	      3628	80003570	aabfab17	auipc	x22,0xaabfa	 x22=0x2abfd56c
       36305000	      3629	80003574	00425db3	srl	x27,x4,x4	  x4:0xffdfffff  x4:0xffdfffff x27=0x00000001
       36315000	      3630	80003578	41d1d1b3	sra	x3,x3,x29	  x3:0x00020000 x29:0xf22f49ae  x3=0x00000008
       36325000	      3631	8000357c	048c9663	bne	x25,x8,800035c8	 x25:0x00000000  x8:0x7fffcd17
       36335000	      3632	00000000	00000013	addi	x0,x0,0	  x0:0x00000000
       36345000	      3633	800035c4	00000013	addi	x0,x0,0	  x0:0x00000000
       36355000	      3634	800035c8	f5b96693	ori	x13,x18,-165	 x18:0x800032e4 x13=0xffffffff
       36365000	      3635	800035cc	9e410193	addi	x3,x2,-1564	  x2:0x80009fc4  x3=0x800099a8
       36375000	      3636	800035d0	01079cb3	sll	x25,x15,x16	 x15:0x80003048 x16:0x7fe032e8 x25=0x00304800
       36385000	      3637	800035d4	40d2d093	srai	x1,x5,0xd	  x5:0x7fffc900  x1=0x0003fffe
       36395000	      3638	800035d8	001d51b3	srl	x3,x26,x1	 x26:0x80009f54  x1:0x0003fffe  x3=0x00000002
       36405000	      3639	800035dc	00618433	add	x8,x3,x6	  x3:0x00000002  x6:0x00000001  x8=0x00000003
       36415000	      3640	800035e0	00119863	bne	x3,x1,800035f0	  x3:0x00000002  x1:0x0003fffe
       36425000	      3641	00000000	00000013	addi	x0,x0,0	  x0:0x00000000
       36435000	      3642	800035ec	00000013	addi	x0,x0,0	  x0:0x00000000
       36445000	      3643	800035f0	32cc4813	xori	x16,x24,812	 x24:0xe73579ae x16=0xe7357a82
       36455000	      3644	800035f4	40ff08b3	sub	x17,x30,x15	 x30:0xffffffe0 x15:0x80003048 x17=0x7fffcf98
       36465000	      3645	800035f8	00d3db13	srli	x22,x7,0xd	  x7:0x80003204 x22=0x00040001
       36475000	      3646	800035fc	00a07263	bgeu	x0,x10,80003600	  x0:0x00000000 x10:0xfffff929
       36485000	      3647	80003600	41e75a93	srai	x21,x14,0x1e	 x14:0x80003204 x21=0xfffffffe
       36495000	      3648	80003604	01eb0c33	add	x24,x22,x30	 x22:0x00040001 x30:0xffffffe0 x24=0x0003ffe1
       36505000	      3649	80003608	01b5da33	srl	x20,x11,x27	 x11:0x80003304 x27:0x00000001 x20=0x40001982
       36515000	      3650	8000360c	0337f063	bgeu	x15,x19,8000362c	 x15:0x80003048 x19:0x00000000
       36525000	      3651	00000000	00000013	addi	x0,x0,0	  x0:0x00000000
       36535000	      3652	80003628	00000013	addi	x0,x0,0	  x0:0x00000000
       36545000	      3653	8000362c	04846663	bltu	x8,x8,80003678	  x8:0x00000003  x8:0x00000003
       36555000	      3654	80003630	dab37797	auipc	x15,0xdab37	 x15=0x5ab3a62c
       36565000	      3655	80003634	13943193	sltiu	x3,x8,313	  x8:0x00000003  x3=0x00000001
       36575000	      3656	80003638	05eef663	bgeu	x29,x30,80003684	 x29:0xf22f49ae x30:0xffffffe0
       36585000	      3657	8000363c	019d5893	srli	x17,x26,0x19	 x26:0x80009f54 x17=0x00000040
       36595000	      3658	80003640	03668263	beq	x13,x22,80003664	 x13:0xffffffff x22:0x00040001
       36605000	      3659	80003644	1d786c13	ori	x24,x16,471	 x16:0xe7357a82 x24=0xe7357bd7
       36615000	      3660	80003648	04c8e063	bltu	x17,x12,80003688	 x17:0x00000040 x12:0x8000324c
       36625000	      3661	00000000	00000013	addi	x0,x0,0	  x0:0x00000000
       36635000	      3662	80003684	00000013	addi	x0,x0,0	  x0:0x00000000
       36645000	      3663	80003688	0048d6b3	srl	x13,x17,x4	 x17:0x00000040  x4:0xffdfffff x13=0x00000000
       36655000	      3664	8000368c	0005a3b3	slt	x7,x11,x0	 x11:0x80003304  x0:0x00000000  x7=0x00000001
       36665000	      3665	80003690	03d07463	bgeu	x0,x29,800036b8	  x0:0x00000000 x29:0xf22f49ae
       36675000	      3666	80003694	05b17663	bgeu	x2,x27,800036e0	  x2:0x80009fc4 x27:0x00000001
       36685000	      3667	00000000	00000013	addi	x0,x0,0	  x0:0x00000000
       36695000	      3668	800036dc	00000013	addi	x0,x0,0	  x0:0x00000000
       36705000	      3669	800036e0	cfe38493	addi	x9,x7,-770	  x7:0x00000001  x9=0xfffffcff
       36715000	      3670	800036e4	1ae0c713	xori	x14,x1,430	  x1:0x0003fffe x14=0x0003fe50
       36725000	      3671	800036e8	0153e1b3	or	x3,x7,x21	  x7:0x00000001 x21:0xfffffffe  x3=0xffffffff
       36735000	      3672	800036ec	4133df33	sra	x30,x7,x19	  x7:0x00000001 x19:0x00000000 x30=0x00000001
       36745000	      3673	800036f0	02927063	bgeu	x4,x9,80003710	  x4:0xffdfffff  x9:0xfffffcff
       36755000	      3674	800036f4	c5b68713	addi	x14,x13,-933	 x13:0x00000000 x14=0xfffffc5b
       36765000	      3675	800036f8	36393a13	sltiu	x20,x18,867	 x18:0x800032e4 x20=0x00000000
       36775000	      3676	800036fc	0197b0b3	sltu	x1,x15,x25	 x15:0x5ab3a62c x25:0x00304800  x1=0x00000000
       36785000	      3677	80003700	01e15fb3	srl	x31,x2,x30	  x2:0x80009fc4 x30:0x00000001 x31=0x40004fe2
       36795000	      3678	80003704	40c00233	sub	x4,x0,x12	  x0:0x00000000 x12:0x8000324c  x4=0x7fffcdb4
       36805000	      3679	80003708	87cf6c13	ori	x24,x30,-1924	 x30:0x00000001 x24=0xfffff87d
       36815000	      3680	8000370c	b100f413	andi	x8,x1,-1264	  x1:0x00000000  x8=0x00000000
       36825000	      3681	80003710	00c88463	beq	x17,x12,80003718	 x17:0x00000040 x12:0x8000324c
       36835000	      3682	80003714	05ff9463	bne	x31,x31,8000375c	 x31:0x40004fe2 x31:0x40004fe2
       36845000	      3683	80003718	05cad463	bge	x21,x28,80003760	 x21:0xfffffffe x28:0x0af9d000
       36855000	      3684	8000371c	dfb56a93	ori	x21,x10,-517	 x10:0xfffff929 x21=0xfffffdfb
       36865000	      3685	80003720	05cc0263	beq	x24,x28,80003764	 x24:0xfffff87d x28:0x0af9d000
       36875000	      3686	80003724	0017d663	bge	x15,x1,80003730	 x15:0x5ab3a62c  x1:0x00000000
       36885000	      3687	00000000	00000013	addi	x0,x0,0	  x0:0x00000000
       36895000	      3688	8000372c	00000013	addi	x0,x0,0	  x0:0x00000000
       36905000	      3689	80003730	71938813	addi	x16,x7,1817	  x7:0x00000001 x16=0x0000071a
       36915000	      3690	80003734	00345813	srli	x16,x8,0x3	  x8:0x00000000 x16=0x00000000
       36925000	      3691	80003738	07463913	sltiu	x18,x12,116	 x12:0x8000324c x18=0x00000000
       36935000	      3692	8000373c	0180ebb3	or	x23,x1,x24	  x1:0x00000000 x24:0xfffff87d x23=0xfffff87d
       36945000	      3693	80003740	005e7fb3	and	x31,x28,x5	 x28:0x0af9d000  x5:0x7fffc900 x31=0x0af9c000
       36955000	      3694	80003744	3daf2f13	slti	x30,x30,986	 x30:0x00000001 x30=0x00000001
       36965000	      3695	80003748	0d605663	bge	x0,x22,80003814	  x0:0x00000000 x22:0x00040001
       36975000	      3696	8000374c	1ca32e37	lui	x28,0x1ca32	 x28=0x1ca32000
       36985000	      3697	80003750	7c2309b7	lui	x19,0x7c230	 x19=0x7c230000
       36995000	      3698	80003754	00000013	addi	x0,x0,0	  x0:0x00000000
       37005000	      3699	80003758	6e5e8717	auipc	x14,0x6e5e8	 x14=0xee5eb754
       37015000	      3700	8000375c	00993613	sltiu	x12,x18,9	 x18:0x00000000 x12=0x00000001
       37025000	      3701	80003760	091da4b7	lui	x9,0x91da	  x9=0x091da000
       37035000	      3702	80003764	85b40493	addi	x9,x8,-1957	  x8:0x00000000  x9=0xfffff85b
       37045000	      3703	80003768	06c0036f	jal	x6,80003768	  x6=0x80003768
       37055000	      3704	00000000	00000013	addi	x0,x0,0	  x0:0x00000000
       37065000	      3705	800037d0	00000013	addi	x0,x0,0	  x0:0x00000000
       37075000	      3706	800037d4	ffdff0ef	jal	x1,800037d4	  x1=0x800037d4
       37085000	      3707	00000000	00000013	addi	x0,x0,0	  x0:0x00000000
       37095000	      3708	800037cc	00000013	addi	x0,x0,0	  x0:0x00000000
       37105000	      3709	800037d0	ff5ff0ef	jal	x1,800037d0	  x1=0x800037d0
       37115000	      3710	00000000	00000013	addi	x0,x0,0	  x0:0x00000000
       37125000	      3711	800037c0	00000013	addi	x0,x0,0	  x0:0x00000000
       37135000	      3712	800037c4	fbdff46f	jal	x8,800037c4	  x8=0x800037c4
       37145000	      3713	00000000	00000013	addi	x0,x0,0	  x0:0x00000000
       37155000	      3714	8000377c	00000013	addi	x0,x0,0	  x0:0x00000000
       37165000	      3715	80003780	0140036f	jal	x6,80003780	  x6=0x80003780
       37175000	      3716	00000000	00000013	addi	x0,x0,0	  x0:0x00000000
       37185000	      3717	80003790	00000013	addi	x0,x0,0	  x0:0x00000000
       37195000	      3718	80003794	0180036f	jal	x6,80003794	  x6=0x80003794
       37205000	      3719	00000000	00000013	addi	x0,x0,0	  x0:0x00000000
       37215000	      3720	800037a8	00000013	addi	x0,x0,0	  x0:0x00000000
       37225000	      3721	800037ac	fc9ff0ef	jal	x1,800037ac	  x1=0x800037ac
       37235000	      3722	00000000	00000013	addi	x0,x0,0	  x0:0x00000000
       37245000	      3723	80003770	00000013	addi	x0,x0,0	  x0:0x00000000
       37255000	      3724	80003774	ffdff0ef	jal	x1,80003774	  x1=0x80003774
       37265000	      3725	00000000	00000013	addi	x0,x0,0	  x0:0x00000000
       37275000	      3726	8000376c	00000013	addi	x0,x0,0	  x0:0x00000000
       37285000	      3727	80003770	04c0036f	jal	x6,80003770	  x6=0x80003770
       37295000	      3728	00000000	00000013	addi	x0,x0,0	  x0:0x00000000
       37305000	      3729	800037b8	00000013	addi	x0,x0,0	  x0:0x00000000
       37315000	      3730	800037bc	fedff0ef	jal	x1,800037bc	  x1=0x800037bc
       37325000	      3731	00000000	00000013	addi	x0,x0,0	  x0:0x00000000
       37335000	      3732	800037a4	00000013	addi	x0,x0,0	  x0:0x00000000
       37345000	      3733	800037a8	ffdff0ef	jal	x1,800037a8	  x1=0x800037a8
       37355000	      3734	00000000	00000013	addi	x0,x0,0	  x0:0x00000000
       37365000	      3735	800037a0	00000013	addi	x0,x0,0	  x0:0x00000000
       37375000	      3736	800037a4	fd9ff56f	jal	x10,800037a4	 x10=0x800037a4
       37385000	      3737	00000000	00000013	addi	x0,x0,0	  x0:0x00000000
       37395000	      3738	80003778	00000013	addi	x0,x0,0	  x0:0x00000000
       37405000	      3739	8000377c	034000ef	jal	x1,8000377c	  x1=0x8000377c
       37415000	      3740	00000000	00000013	addi	x0,x0,0	  x0:0x00000000
       37425000	      3741	800037ac	00000013	addi	x0,x0,0	  x0:0x00000000
       37435000	      3742	800037b0	01c000ef	jal	x1,800037b0	  x1=0x800037b0
       37445000	      3743	00000000	00000013	addi	x0,x0,0	  x0:0x00000000
       37455000	      3744	800037c8	00000013	addi	x0,x0,0	  x0:0x00000000
       37465000	      3745	800037cc	fedffaef	jal	x21,800037cc	 x21=0x800037cc
       37475000	      3746	00000000	00000013	addi	x0,x0,0	  x0:0x00000000
       37485000	      3747	800037b4	00000013	addi	x0,x0,0	  x0:0x00000000
       37495000	      3748	800037b8	024003ef	jal	x7,800037b8	  x7=0x800037b8
       37505000	      3749	00000000	00000013	addi	x0,x0,0	  x0:0x00000000
       37515000	      3750	800037d8	00000013	addi	x0,x0,0	  x0:0x00000000
       37525000	      3751	800037dc	fc5ff2ef	jal	x5,800037dc	  x5=0x800037dc
       37535000	      3752	00000000	00000013	addi	x0,x0,0	  x0:0x00000000
       37545000	      3753	8000379c	00000013	addi	x0,x0,0	  x0:0x00000000
       37555000	      3754	800037a0	02800fef	jal	x31,800037a0	 x31=0x800037a0
       37565000	      3755	00000000	00000013	addi	x0,x0,0	  x0:0x00000000
       37575000	      3756	800037c4	00000013	addi	x0,x0,0	  x0:0x00000000
       37585000	      3757	800037c8	fbdff3ef	jal	x7,800037c8	  x7=0x800037c8
       37595000	      3758	00000000	00000013	addi	x0,x0,0	  x0:0x00000000
       37605000	      3759	80003780	00000013	addi	x0,x0,0	  x0:0x00000000
       37615000	      3760	80003784	030002ef	jal	x5,80003784	  x5=0x80003784
       37625000	      3761	00000000	00000013	addi	x0,x0,0	  x0:0x00000000
       37635000	      3762	800037b0	00000013	addi	x0,x0,0	  x0:0x00000000
       37645000	      3763	800037b4	fd9ff36f	jal	x6,800037b4	  x6=0x800037b4
       37655000	      3764	00000000	00000013	addi	x0,x0,0	  x0:0x00000000
       37665000	      3765	80003788	00000013	addi	x0,x0,0	  x0:0x00000000
       37675000	      3766	8000378c	fe1ff36f	jal	x6,8000378c	  x6=0x8000378c
       37685000	      3767	00000000	00000013	addi	x0,x0,0	  x0:0x00000000
       37695000	      3768	80003768	00000013	addi	x0,x0,0	  x0:0x00000000
       37705000	      3769	8000376c	02c000ef	jal	x1,8000376c	  x1=0x8000376c
       37715000	      3770	00000000	00000013	addi	x0,x0,0	  x0:0x00000000
       37725000	      3771	80003794	00000013	addi	x0,x0,0	  x0:0x00000000
       37735000	      3772	80003798	040000ef	jal	x1,80003798	  x1=0x80003798
       37745000	      3773	00000000	00000013	addi	x0,x0,0	  x0:0x00000000
       37755000	      3774	800037d4	00000013	addi	x0,x0,0	  x0:0x00000000
       37765000	      3775	800037d8	0080026f	jal	x4,800037d8	  x4=0x800037d8
       37775000	      3776	00000000	00000013	addi	x0,x0,0	  x0:0x00000000
       37785000	      3777	800037dc	00000013	addi	x0,x0,0	  x0:0x00000000
       37795000	      3778	800037e0	f99ff26f	jal	x4,800037e0	  x4=0x800037e0
       37805000	      3779	00000000	00000013	addi	x0,x0,0	  x0:0x00000000
       37815000	      3780	80003774	00000013	addi	x0,x0,0	  x0:0x00000000
       37825000	      3781	80003778	010000ef	jal	x1,80003778	  x1=0x80003778
       37835000	      3782	00000000	00000013	addi	x0,x0,0	  x0:0x00000000
       37845000	      3783	80003784	00000013	addi	x0,x0,0	  x0:0x00000000
       37855000	      3784	80003788	014000ef	jal	x1,80003788	  x1=0x80003788
       37865000	      3785	00000000	00000013	addi	x0,x0,0	  x0:0x00000000
       37875000	      3786	80003798	00000013	addi	x0,x0,0	  x0:0x00000000
       37885000	      3787	8000379c	024000ef	jal	x1,8000379c	  x1=0x8000379c
       37895000	      3788	00000000	00000013	addi	x0,x0,0	  x0:0x00000000
       37905000	      3789	800037bc	00000013	addi	x0,x0,0	  x0:0x00000000
       37915000	      3790	800037c0	fd1ff0ef	jal	x1,800037c0	  x1=0x800037c0
       37925000	      3791	00000000	00000013	addi	x0,x0,0	  x0:0x00000000
       37935000	      3792	8000378c	00000013	addi	x0,x0,0	  x0:0x00000000
       37945000	      3793	80003790	0540096f	jal	x18,80003790	 x18=0x80003790
       37955000	      3794	00000000	00000013	addi	x0,x0,0	  x0:0x00000000
       37965000	      3795	800037e0	00000013	addi	x0,x0,0	  x0:0x00000000
       37975000	      3796	800037e4	01a40933	add	x18,x8,x26	  x8:0x800037c4 x26:0x80009f54 x18=0x0000d718
       37985000	      3797	800037e8	09efcd93	xori	x27,x31,158	 x31:0x800037a0 x27=0x8000373e
       37995000	      3798	800037ec	00449e63	bne	x9,x4,80003808	  x9:0xfffff85b  x4:0x800037e0
       38005000	      3799	00000000	00000013	addi	x0,x0,0	  x0:0x00000000
       38015000	      3800	80003804	00000013	addi	x0,x0,0	  x0:0x00000000
       38025000	      3801	80003808	db567b93	andi	x23,x12,-587	 x12:0x00000001 x23=0x00000001
       38035000	      3802	8000380c	006ea8b3	slt	x17,x29,x6	 x29:0xf22f49ae  x6:0x8000378c x17=0x00000000
       38045000	      3803	80003810	89d46b93	ori	x23,x8,-1891	  x8:0x800037c4 x23=0xffffffdd
       38055000	      3804	80003814	00e434b3	sltu	x9,x8,x14	  x8:0x800037c4 x14:0xee5eb754  x9=0x00000001
       38065000	      3805	80003818	00000013	addi	x0,x0,0	  x0:0x00000000
       38075000	      3806	8000381c	3f2ae893	ori	x17,x21,1010	 x21:0x800037cc x17=0x800037fe
       38085000	      3807	80003820	013c66b3	or	x13,x24,x19	 x24:0xfffff87d x19:0x7c230000 x13=0xfffff87d
       38095000	      3808	80003824	01f12933	slt	x18,x2,x31	  x2:0x80009fc4 x31:0x800037a0 x18=0x00000000
       38105000	      3809	80003828	03b58463	beq	x11,x27,80003850	 x11:0x80003304 x27:0x8000373e
       38115000	      3810	8000382c	00f96f33	or	x30,x18,x15	 x18:0x00000000 x15:0x5ab3a62c x30=0x5ab3a62c
       38125000	      3811	80003830	00000013	addi	x0,x0,0	  x0:0x00000000
       38135000	      3812	80003834	ab747a93	andi	x21,x8,-1353	  x8:0x800037c4 x21=0x80003284
       38145000	      3813	80003838	dd10eb93	ori	x23,x1,-559	  x1:0x800037c0 x23=0xffffffd1
       38155000	      3814	8000383c	09a52693	slti	x13,x10,154	 x10:0x800037a4 x13=0x00000001
       38165000	      3815	80003840	009abab3	sltu	x21,x21,x9	 x21:0x80003284  x9:0x00000001 x21=0x00000000
       38175000	      3816	80003844	007eca63	blt	x29,x7,80003858	 x29:0xf22f49ae  x7:0x800037c8
       38185000	      3817	80003848	00e87933	and	x18,x16,x14	 x16:0x00000000 x14:0xee5eb754 x18=0x00000000
       38195000	      3818	8000384c	8cd9bf13	sltiu	x30,x19,-1843	 x19:0x7c230000 x30=0x00000001
       38205000	      3819	80003850	02595463	bge	x18,x5,80003878	 x18:0x00000000  x5:0x80003784
       38215000	      3820	00000000	00000013	addi	x0,x0,0	  x0:0x00000000
       38225000	      3821	80003874	00000013	addi	x0,x0,0	  x0:0x00000000
       38235000	      3822	80003878	00eaafb3	slt	x31,x21,x14	 x21:0x00000000 x14:0xee5eb754 x31=0x00000000
       38245000	      3823	8000387c	00415a33	srl	x20,x2,x4	  x2:0x80009fc4  x4:0x800037e0 x20=0x80009fc4
       38255000	      3824	80003880	40020b33	sub	x22,x4,x0	  x4:0x800037e0  x0:0x00000000 x22=0x800037e0
       38265000	      3825	80003884	004d2303	lw	x6,4(x26)	 x26:0x80009f54  x6=0x8000012c PA:0x80009f58
       38275000	      3826	80003888	030d0d13	addi	x26,x26,48	 x26:0x80009f54 x26=0x80009f84
       38285000	      3827	8000388c	40005c93	srai	x25,x0,0x0	  x0:0x00000000 x25=0x00000000
       38295000	      3828	80003890	01881c93	slli	x25,x16,0x18	 x16:0x00000000 x25=0x00000000
       38305000	      3829	80003894	01849db3	sll	x27,x9,x24	  x9:0x00000001 x24:0xfffff87d x27=0x20000000
       38315000	      3830	80003898	cb0bcf13	xori	x30,x23,-848	 x23:0xffffffd1 x30=0x00000361
       38325000	      3831	8000389c	012fcf33	xor	x30,x31,x18	 x31:0x00000000 x18:0x00000000 x30=0x00000000
       38335000	      3832	800038a0	00030413	addi	x8,x6,0	  x6:0x8000012c  x8=0x8000012c
       38345000	      3833	800038a4	00040467	jalr	x8,x8,0	  x8:0x8000012c  x8=0x800038a4
       38355000	      3834	00000000	00000013	addi	x0,x0,0	  x0:0x00000000
       38365000	      3835	8000012c	00000013	addi	x0,x0,0	  x0:0x00000000
       38375000	      3836	80000130	03c0036f	jal	x6,80000130	  x6=0x80000130
       38385000	      3837	00000000	00000013	addi	x0,x0,0	  x0:0x00000000
       38395000	      3838	80000168	00000013	addi	x0,x0,0	  x0:0x00000000
       38405000	      3839	8000016c	0100036f	jal	x6,8000016c	  x6=0x8000016c
       38415000	      3840	00000000	00000013	addi	x0,x0,0	  x0:0x00000000
       38425000	      3841	80000178	00000013	addi	x0,x0,0	  x0:0x00000000
       38435000	      3842	8000017c	fd9ff2ef	jal	x5,8000017c	  x5=0x8000017c
       38445000	      3843	00000000	00000013	addi	x0,x0,0	  x0:0x00000000
       38455000	      3844	80000150	00000013	addi	x0,x0,0	  x0:0x00000000
       38465000	      3845	80000154	fe9ff4ef	jal	x9,80000154	  x9=0x80000154
       38475000	      3846	00000000	00000013	addi	x0,x0,0	  x0:0x00000000
       38485000	      3847	80000138	00000013	addi	x0,x0,0	  x0:0x00000000
       38495000	      3848	8000013c	038004ef	jal	x9,8000013c	  x9=0x8000013c
       38505000	      3849	00000000	00000013	addi	x0,x0,0	  x0:0x00000000
       38515000	      3850	80000170	00000013	addi	x0,x0,0	  x0:0x00000000
       38525000	      3851	80000174	fd5ff0ef	jal	x1,80000174	  x1=0x80000174
       38535000	      3852	00000000	00000013	addi	x0,x0,0	  x0:0x00000000
       38545000	      3853	80000144	00000013	addi	x0,x0,0	  x0:0x00000000
       38555000	      3854	80000148	fedff0ef	jal	x1,80000148	  x1=0x80000148
       38565000	      3855	00000000	00000013	addi	x0,x0,0	  x0:0x00000000
       38575000	      3856	80000130	00000013	addi	x0,x0,0	  x0:0x00000000
       38585000	      3857	80000134	004000ef	jal	x1,80000134	  x1=0x80000134
       38595000	      3858	00000000	00000013	addi	x0,x0,0	  x0:0x00000000
       38605000	      3859	80000134	00000013	addi	x0,x0,0	  x0:0x00000000
       38615000	      3860	80000138	020000ef	jal	x1,80000138	  x1=0x80000138
       38625000	      3861	00000000	00000013	addi	x0,x0,0	  x0:0x00000000
       38635000	      3862	80000154	00000013	addi	x0,x0,0	  x0:0x00000000
       38645000	      3863	80000158	fedff8ef	jal	x17,80000158	 x17=0x80000158
       38655000	      3864	00000000	00000013	addi	x0,x0,0	  x0:0x00000000
       38665000	      3865	80000140	00000013	addi	x0,x0,0	  x0:0x00000000
       38675000	      3866	80000144	02c000ef	jal	x1,80000144	  x1=0x80000144
       38685000	      3867	00000000	00000013	addi	x0,x0,0	  x0:0x00000000
       38695000	      3868	8000016c	00000013	addi	x0,x0,0	  x0:0x00000000
       38705000	      3869	80000170	fe1ff0ef	jal	x1,80000170	  x1=0x80000170
       38715000	      3870	00000000	00000013	addi	x0,x0,0	  x0:0x00000000
       38725000	      3871	8000014c	00000013	addi	x0,x0,0	  x0:0x00000000
       38735000	      3872	80000150	ff1ff36f	jal	x6,80000150	  x6=0x80000150
       38745000	      3873	00000000	00000013	addi	x0,x0,0	  x0:0x00000000
       38755000	      3874	8000013c	00000013	addi	x0,x0,0	  x0:0x00000000
       38765000	      3875	80000140	040007ef	jal	x15,80000140	 x15=0x80000140
       38775000	      3876	00000000	00000013	addi	x0,x0,0	  x0:0x00000000
       38785000	      3877	8000017c	00000013	addi	x0,x0,0	  x0:0x00000000
       38795000	      3878	80000180	fcdff26f	jal	x4,80000180	  x4=0x80000180
       38805000	      3879	00000000	00000013	addi	x0,x0,0	  x0:0x00000000
       38815000	      3880	80000148	00000013	addi	x0,x0,0	  x0:0x00000000
       38825000	      3881	8000014c	010000ef	jal	x1,8000014c	  x1=0x8000014c
       38835000	      3882	00000000	00000013	addi	x0,x0,0	  x0:0x00000000
       38845000	      3883	80000158	00000013	addi	x0,x0,0	  x0:0x00000000
       38855000	      3884	8000015c	00c000ef	jal	x1,8000015c	  x1=0x8000015c
       38865000	      3885	00000000	00000013	addi	x0,x0,0	  x0:0x00000000
       38875000	      3886	80000164	00000013	addi	x0,x0,0	  x0:0x00000000
       38885000	      3887	80000168	ff9ff1ef	jal	x3,80000168	  x3=0x80000168
       38895000	      3888	00000000	00000013	addi	x0,x0,0	  x0:0x00000000
       38905000	      3889	8000015c	00000013	addi	x0,x0,0	  x0:0x00000000
       38915000	      3890	80000160	004000ef	jal	x1,80000160	  x1=0x80000160
       38925000	      3891	00000000	00000013	addi	x0,x0,0	  x0:0x00000000
       38935000	      3892	80000160	00000013	addi	x0,x0,0	  x0:0x00000000
       38945000	      3893	80000164	0140066f	jal	x12,80000164	 x12=0x80000164
       38955000	      3894	00000000	00000013	addi	x0,x0,0	  x0:0x00000000
       38965000	      3895	80000174	00000013	addi	x0,x0,0	  x0:0x00000000
       38975000	      3896	80000178	00c0036f	jal	x6,80000178	  x6=0x80000178
       38985000	      3897	00000000	00000013	addi	x0,x0,0	  x0:0x00000000
       38995000	      3898	80000180	00000013	addi	x0,x0,0	  x0:0x00000000
       39005000	      3899	80000184	c343e813	ori	x16,x7,-972	  x7:0x800037c8 x16=0xfffffffc
       39015000	      3900	80000188	0140036f	jal	x6,80000188	  x6=0x80000188
       39025000	      3901	00000000	00000013	addi	x0,x0,0	  x0:0x00000000
       39035000	      3902	80000198	00000013	addi	x0,x0,0	  x0:0x00000000
       39045000	      3903	8000019c	ffdff0ef	jal	x1,8000019c	  x1=0x8000019c
       39055000	      3904	00000000	00000013	addi	x0,x0,0	  x0:0x00000000
       39065000	      3905	80000194	00000013	addi	x0,x0,0	  x0:0x00000000
       39075000	      3906	80000198	044000ef	jal	x1,80000198	  x1=0x80000198
       39085000	      3907	00000000	00000013	addi	x0,x0,0	  x0:0x00000000
       39095000	      3908	800001d8	00000013	addi	x0,x0,0	  x0:0x00000000
       39105000	      3909	800001dc	0140036f	jal	x6,800001dc	  x6=0x800001dc
       39115000	      3910	00000000	00000013	addi	x0,x0,0	  x0:0x00000000
       39125000	      3911	800001ec	00000013	addi	x0,x0,0	  x0:0x00000000
       39135000	      3912	800001f0	fd1ff96f	jal	x18,800001f0	 x18=0x800001f0
       39145000	      3913	00000000	00000013	addi	x0,x0,0	  x0:0x00000000
       39155000	      3914	800001bc	00000013	addi	x0,x0,0	  x0:0x00000000
       39165000	      3915	800001c0	004007ef	jal	x15,800001c0	 x15=0x800001c0
       39175000	      3916	00000000	00000013	addi	x0,x0,0	  x0:0x00000000
       39185000	      3917	800001c0	00000013	addi	x0,x0,0	  x0:0x00000000
       39195000	      3918	800001c4	024000ef	jal	x1,800001c4	  x1=0x800001c4
       39205000	      3919	00000000	00000013	addi	x0,x0,0	  x0:0x00000000
       39215000	      3920	800001e4	00000013	addi	x0,x0,0	  x0:0x00000000
       39225000	      3921	800001e8	fe5ff0ef	jal	x1,800001e8	  x1=0x800001e8
       39235000	      3922	00000000	00000013	addi	x0,x0,0	  x0:0x00000000
       39245000	      3923	800001c8	00000013	addi	x0,x0,0	  x0:0x00000000
       39255000	      3924	800001cc	0140036f	jal	x6,800001cc	  x6=0x800001cc
       39265000	      3925	00000000	00000013	addi	x0,x0,0	  x0:0x00000000
       39275000	      3926	800001dc	00000013	addi	x0,x0,0	  x0:0x00000000
       39285000	      3927	800001e0	fd9ff36f	jal	x6,800001e0	  x6=0x800001e0
       39295000	      3928	00000000	00000013	addi	x0,x0,0	  x0:0x00000000
       39305000	      3929	800001b4	00000013	addi	x0,x0,0	  x0:0x00000000
       39315000	      3930	800001b8	fedff36f	jal	x6,800001b8	  x6=0x800001b8
       39325000	      3931	00000000	00000013	addi	x0,x0,0	  x0:0x00000000
       39335000	      3932	800001a0	00000013	addi	x0,x0,0	  x0:0x00000000
       39345000	      3933	800001a4	004000ef	jal	x1,800001a4	  x1=0x800001a4
       39355000	      3934	00000000	00000013	addi	x0,x0,0	  x0:0x00000000
       39365000	      3935	800001a4	00000013	addi	x0,x0,0	  x0:0x00000000
       39375000	      3936	800001a8	04c0036f	jal	x6,800001a8	  x6=0x800001a8
       39385000	      3937	00000000	00000013	addi	x0,x0,0	  x0:0x00000000
       39395000	      3938	800001f0	00000013	addi	x0,x0,0	  x0:0x00000000
       39405000	      3939	800001f4	f9dff0ef	jal	x1,800001f4	  x1=0x800001f4
       39415000	      3940	00000000	00000013	addi	x0,x0,0	  x0:0x00000000
       39425000	      3941	8000018c	00000013	addi	x0,x0,0	  x0:0x00000000
       39435000	      3942	80000190	00400bef	jal	x23,80000190	 x23=0x80000190
       39445000	      3943	00000000	00000013	addi	x0,x0,0	  x0:0x00000000
       39455000	      3944	80000190	00000013	addi	x0,x0,0	  x0:0x00000000
       39465000	      3945	80000194	058000ef	jal	x1,80000194	  x1=0x80000194
       39475000	      3946	00000000	00000013	addi	x0,x0,0	  x0:0x00000000
       39485000	      3947	800001e8	00000013	addi	x0,x0,0	  x0:0x00000000
       39495000	      3948	800001ec	fc5fffef	jal	x31,800001ec	 x31=0x800001ec
       39505000	      3949	00000000	00000013	addi	x0,x0,0	  x0:0x00000000
       39515000	      3950	800001ac	00000013	addi	x0,x0,0	  x0:0x00000000
       39525000	      3951	800001b0	020000ef	jal	x1,800001b0	  x1=0x800001b0
       39535000	      3952	00000000	00000013	addi	x0,x0,0	  x0:0x00000000
       39545000	      3953	800001cc	00000013	addi	x0,x0,0	  x0:0x00000000
       39555000	      3954	800001d0	fe5ff0ef	jal	x1,800001d0	  x1=0x800001d0
       39565000	      3955	00000000	00000013	addi	x0,x0,0	  x0:0x00000000
       39575000	      3956	800001b0	00000013	addi	x0,x0,0	  x0:0x00000000
       39585000	      3957	800001b4	024001ef	jal	x3,800001b4	  x3=0x800001b4
       39595000	      3958	00000000	00000013	addi	x0,x0,0	  x0:0x00000000
       39605000	      3959	800001d4	00000013	addi	x0,x0,0	  x0:0x00000000
       39615000	      3960	800001d8	fd5ff0ef	jal	x1,800001d8	  x1=0x800001d8
       39625000	      3961	00000000	00000013	addi	x0,x0,0	  x0:0x00000000
       39635000	      3962	800001a8	00000013	addi	x0,x0,0	  x0:0x00000000
       39645000	      3963	800001ac	fe1ff0ef	jal	x1,800001ac	  x1=0x800001ac
       39655000	      3964	00000000	00000013	addi	x0,x0,0	  x0:0x00000000
       39665000	      3965	80000188	00000013	addi	x0,x0,0	  x0:0x00000000
       39675000	      3966	8000018c	058002ef	jal	x5,8000018c	  x5=0x8000018c
       39685000	      3967	00000000	00000013	addi	x0,x0,0	  x0:0x00000000
       39695000	      3968	800001e0	00000013	addi	x0,x0,0	  x0:0x00000000
       39705000	      3969	800001e4	fd9ff26f	jal	x4,800001e4	  x4=0x800001e4
       39715000	      3970	00000000	00000013	addi	x0,x0,0	  x0:0x00000000
       39725000	      3971	800001b8	00000013	addi	x0,x0,0	  x0:0x00000000
       39735000	      3972	800001bc	018000ef	jal	x1,800001bc	  x1=0x800001bc
       39745000	      3973	00000000	00000013	addi	x0,x0,0	  x0:0x00000000
       39755000	      3974	800001d0	00000013	addi	x0,x0,0	  x0:0x00000000
       39765000	      3975	800001d4	fcdff36f	jal	x6,800001d4	  x6=0x800001d4
       39775000	      3976	00000000	00000013	addi	x0,x0,0	  x0:0x00000000
       39785000	      3977	8000019c	00000013	addi	x0,x0,0	  x0:0x00000000
       39795000	      3978	800001a0	028000ef	jal	x1,800001a0	  x1=0x800001a0
       39805000	      3979	00000000	00000013	addi	x0,x0,0	  x0:0x00000000
       39815000	      3980	800001c4	00000013	addi	x0,x0,0	  x0:0x00000000
       39825000	      3981	800001c8	030000ef	jal	x1,800001c8	  x1=0x800001c8
       39835000	      3982	00000000	00000013	addi	x0,x0,0	  x0:0x00000000
       39845000	      3983	800001f4	00000013	addi	x0,x0,0	  x0:0x00000000
       39855000	      3984	800001f8	7e417b93	andi	x23,x2,2020	  x2:0x80009fc4 x23=0x000007c4
       39865000	      3985	800001fc	0240036f	jal	x6,800001fc	  x6=0x800001fc
       39875000	      3986	00000000	00000013	addi	x0,x0,0	  x0:0x00000000
       39885000	      3987	8000021c	00000013	addi	x0,x0,0	  x0:0x00000000
       39895000	      3988	80000220	0240056f	jal	x10,80000220	 x10=0x80000220
       39905000	      3989	00000000	00000013	addi	x0,x0,0	  x0:0x00000000
       39915000	      3990	80000240	00000013	addi	x0,x0,0	  x0:0x00000000
       39925000	      3991	80000244	004000ef	jal	x1,80000244	  x1=0x80000244
       39935000	      3992	00000000	00000013	addi	x0,x0,0	  x0:0x00000000
       39945000	      3993	80000244	00000013	addi	x0,x0,0	  x0:0x00000000
       39955000	      3994	80000248	00400b6f	jal	x22,80000248	 x22=0x80000248
       39965000	      3995	00000000	00000013	addi	x0,x0,0	  x0:0x00000000
       39975000	      3996	80000248	00000013	addi	x0,x0,0	  x0:0x00000000
       39985000	      3997	8000024c	fd9ff0ef	jal	x1,8000024c	  x1=0x8000024c
       39995000	      3998	00000000	00000013	addi	x0,x0,0	  x0:0x00000000
       40005000	      3999	80000220	00000013	addi	x0,x0,0	  x0:0x00000000
       40015000	      4000	80000224	01800b6f	jal	x22,80000224	 x22=0x80000224
       40025000	      4001	00000000	00000013	addi	x0,x0,0	  x0:0x00000000
       40035000	      4002	80000238	00000013	addi	x0,x0,0	  x0:0x00000000
       40045000	      4003	8000023c	ffdff0ef	jal	x1,8000023c	  x1=0x8000023c
       40055000	      4004	00000000	00000013	addi	x0,x0,0	  x0:0x00000000
       40065000	      4005	80000234	00000013	addi	x0,x0,0	  x0:0x00000000
       40075000	      4006	80000238	ffdff36f	jal	x6,80000238	  x6=0x80000238
       40085000	      4007	00000000	00000013	addi	x0,x0,0	  x0:0x00000000
       40095000	      4008	80000230	00000013	addi	x0,x0,0	  x0:0x00000000
       40105000	      4009	80000234	fe9ff0ef	jal	x1,80000234	  x1=0x80000234
       40115000	      4010	00000000	00000013	addi	x0,x0,0	  x0:0x00000000
       40125000	      4011	80000218	00000013	addi	x0,x0,0	  x0:0x00000000
       40135000	      4012	8000021c	fe9ff36f	jal	x6,8000021c	  x6=0x8000021c
       40145000	      4013	00000000	00000013	addi	x0,x0,0	  x0:0x00000000
       40155000	      4014	80000200	00000013	addi	x0,x0,0	  x0:0x00000000
       40165000	      4015	80000204	04c008ef	jal	x17,80000204	 x17=0x80000204
       40175000	      4016	00000000	00000013	addi	x0,x0,0	  x0:0x00000000
       40185000	      4017	8000024c	00000013	addi	x0,x0,0	  x0:0x00000000
       40195000	      4018	80000250	fddff0ef	jal	x1,80000250	  x1=0x80000250
       40205000	      4019	00000000	00000013	addi	x0,x0,0	  x0:0x00000000
       40215000	      4020	80000228	00000013	addi	x0,x0,0	  x0:0x00000000
       40225000	      4021	8000022c	014000ef	jal	x1,8000022c	  x1=0x8000022c
       40235000	      4022	00000000	00000013	addi	x0,x0,0	  x0:0x00000000
       40245000	      4023	8000023c	00000013	addi	x0,x0,0	  x0:0x00000000
       40255000	      4024	80000240	fc1ff0ef	jal	x1,80000240	  x1=0x80000240
       40265000	      4025	00000000	00000013	addi	x0,x0,0	  x0:0x00000000
       40275000	      4026	800001fc	00000013	addi	x0,x0,0	  x0:0x00000000
       40285000	      4027	80000200	00800def	jal	x27,80000200	 x27=0x80000200
       40295000	      4028	00000000	00000013	addi	x0,x0,0	  x0:0x00000000
       40305000	      4029	80000204	00000013	addi	x0,x0,0	  x0:0x00000000
       40315000	      4030	80000208	00c000ef	jal	x1,80000208	  x1=0x80000208
       40325000	      4031	00000000	00000013	addi	x0,x0,0	  x0:0x00000000
       40335000	      4032	80000210	00000013	addi	x0,x0,0	  x0:0x00000000
       40345000	      4033	80000214	ffdff0ef	jal	x1,80000214	  x1=0x80000214
       40355000	      4034	00000000	00000013	addi	x0,x0,0	  x0:0x00000000
       40365000	      4035	8000020c	00000013	addi	x0,x0,0	  x0:0x00000000
       40375000	      4036	80000210	ffdff0ef	jal	x1,80000210	  x1=0x80000210
       40385000	      4037	00000000	00000013	addi	x0,x0,0	  x0:0x00000000
       40395000	      4038	80000208	00000013	addi	x0,x0,0	  x0:0x00000000
       40405000	      4039	8000020c	01c00a6f	jal	x20,8000020c	 x20=0x8000020c
       40415000	      4040	00000000	00000013	addi	x0,x0,0	  x0:0x00000000
       40425000	      4041	80000224	00000013	addi	x0,x0,0	  x0:0x00000000
       40435000	      4042	80000228	ff1ff36f	jal	x6,80000228	  x6=0x80000228
       40445000	      4043	00000000	00000013	addi	x0,x0,0	  x0:0x00000000
       40455000	      4044	80000214	00000013	addi	x0,x0,0	  x0:0x00000000
       40465000	      4045	80000218	018000ef	jal	x1,80000218	  x1=0x80000218
       40475000	      4046	00000000	00000013	addi	x0,x0,0	  x0:0x00000000
       40485000	      4047	8000022c	00000013	addi	x0,x0,0	  x0:0x00000000
       40495000	      4048	80000230	024000ef	jal	x1,80000230	  x1=0x80000230
       40505000	      4049	00000000	00000013	addi	x0,x0,0	  x0:0x00000000
       40515000	      4050	80000250	00000013	addi	x0,x0,0	  x0:0x00000000
       40525000	      4051	80000254	00ac1e33	sll	x28,x24,x10	 x24:0xfffff87d x10:0x80000220 x28=0xfffff87d
       40535000	      4052	80000258	0640036f	jal	x6,80000258	  x6=0x80000258
       40545000	      4053	00000000	00000013	addi	x0,x0,0	  x0:0x00000000
       40555000	      4054	800002b8	00000013	addi	x0,x0,0	  x0:0x00000000
       40565000	      4055	800002bc	ff9ff36f	jal	x6,800002bc	  x6=0x800002bc
       40575000	      4056	00000000	00000013	addi	x0,x0,0	  x0:0x00000000
       40585000	      4057	800002b0	00000013	addi	x0,x0,0	  x0:0x00000000
       40595000	      4058	800002b4	00c000ef	jal	x1,800002b4	  x1=0x800002b4
       40605000	      4059	00000000	00000013	addi	x0,x0,0	  x0:0x00000000
       40615000	      4060	800002bc	00000013	addi	x0,x0,0	  x0:0x00000000
       40625000	      4061	800002c0	010000ef	jal	x1,800002c0	  x1=0x800002c0
       40635000	      4062	00000000	00000013	addi	x0,x0,0	  x0:0x00000000
       40645000	      4063	800002cc	00000013	addi	x0,x0,0	  x0:0x00000000
       40655000	      4064	800002d0	fa5ff36f	jal	x6,800002d0	  x6=0x800002d0
       40665000	      4065	00000000	00000013	addi	x0,x0,0	  x0:0x00000000
       40675000	      4066	80000270	00000013	addi	x0,x0,0	  x0:0x00000000
       40685000	      4067	80000274	02c000ef	jal	x1,80000274	  x1=0x80000274
       40695000	      4068	00000000	00000013	addi	x0,x0,0	  x0:0x00000000
       40705000	      4069	8000029c	00000013	addi	x0,x0,0	  x0:0x00000000
       40715000	      4070	800002a0	010002ef	jal	x5,800002a0	  x5=0x800002a0
       40725000	      4071	00000000	00000013	addi	x0,x0,0	  x0:0x00000000
       40735000	      4072	800002ac	00000013	addi	x0,x0,0	  x0:0x00000000
       40745000	      4073	800002b0	fb9ff36f	jal	x6,800002b0	  x6=0x800002b0
       40755000	      4074	00000000	00000013	addi	x0,x0,0	  x0:0x00000000
       40765000	      4075	80000264	00000013	addi	x0,x0,0	  x0:0x00000000
       40775000	      4076	80000268	010008ef	jal	x17,80000268	 x17=0x80000268
       40785000	      4077	00000000	00000013	addi	x0,x0,0	  x0:0x00000000
       40795000	      4078	80000274	00000013	addi	x0,x0,0	  x0:0x00000000
       40805000	      4079	80000278	fe9ff86f	jal	x16,80000278	 x16=0x80000278
       40815000	      4080	00000000	00000013	addi	x0,x0,0	  x0:0x00000000
       40825000	      4081	8000025c	00000013	addi	x0,x0,0	  x0:0x00000000
       40835000	      4082	80000260	030000ef	jal	x1,80000260	  x1=0x80000260
       40845000	      4083	00000000	00000013	addi	x0,x0,0	  x0:0x00000000
       40855000	      4084	8000028c	00000013	addi	x0,x0,0	  x0:0x00000000
       40865000	      4085	80000290	ffdff36f	jal	x6,80000290	  x6=0x80000290
       40875000	      4086	00000000	00000013	addi	x0,x0,0	  x0:0x00000000
       40885000	      4087	80000288	00000013	addi	x0,x0,0	  x0:0x00000000
       40895000	      4088	8000028c	ff5ff36f	jal	x6,8000028c	  x6=0x8000028c
       40905000	      4089	00000000	00000013	addi	x0,x0,0	  x0:0x00000000
       40915000	      4090	8000027c	00000013	addi	x0,x0,0	  x0:0x00000000
       40925000	      4091	80000280	028009ef	jal	x19,80000280	 x19=0x80000280
       40935000	      4092	00000000	00000013	addi	x0,x0,0	  x0:0x00000000
       40945000	      4093	800002a4	00000013	addi	x0,x0,0	  x0:0x00000000
       40955000	      4094	800002a8	fc5ff36f	jal	x6,800002a8	  x6=0x800002a8
       40965000	      4095	00000000	00000013	addi	x0,x0,0	  x0:0x00000000
       40975000	      4096	80000268	00000013	addi	x0,x0,0	  x0:0x00000000
       40985000	      4097	8000026c	0580076f	jal	x14,8000026c	 x14=0x8000026c
       40995000	      4098	00000000	00000013	addi	x0,x0,0	  x0:0x00000000
       41005000	      4099	800002c0	00000013	addi	x0,x0,0	  x0:0x00000000
       41015000	      4100	800002c4	fd9ff36f	jal	x6,800002c4	  x6=0x800002c4
       41025000	      4101	00000000	00000013	addi	x0,x0,0	  x0:0x00000000
       41035000	      4102	80000298	00000013	addi	x0,x0,0	  x0:0x00000000
       41045000	      4103	8000029c	fedff2ef	jal	x5,8000029c	  x5=0x8000029c
       41055000	      4104	00000000	00000013	addi	x0,x0,0	  x0:0x00000000
       41065000	      4105	80000284	00000013	addi	x0,x0,0	  x0:0x00000000
       41075000	      4106	80000288	00c0026f	jal	x4,80000288	  x4=0x80000288
       41085000	      4107	00000000	00000013	addi	x0,x0,0	  x0:0x00000000
       41095000	      4108	80000290	00000013	addi	x0,x0,0	  x0:0x00000000
       41105000	      4109	80000294	004000ef	jal	x1,80000294	  x1=0x80000294
       41115000	      4110	00000000	00000013	addi	x0,x0,0	  x0:0x00000000
       41125000	      4111	80000294	00000013	addi	x0,x0,0	  x0:0x00000000
       41135000	      4112	80000298	0340036f	jal	x6,80000298	  x6=0x80000298
       41145000	      4113	00000000	00000013	addi	x0,x0,0	  x0:0x00000000
       41155000	      4114	800002c8	00000013	addi	x0,x0,0	  x0:0x00000000
       41165000	      4115	800002cc	fb1ff3ef	jal	x7,800002cc	  x7=0x800002cc
       41175000	      4116	00000000	00000013	addi	x0,x0,0	  x0:0x00000000
       41185000	      4117	80000278	00000013	addi	x0,x0,0	  x0:0x00000000
       41195000	      4118	8000027c	0080036f	jal	x6,8000027c	  x6=0x8000027c
       41205000	      4119	00000000	00000013	addi	x0,x0,0	  x0:0x00000000
       41215000	      4120	80000280	00000013	addi	x0,x0,0	  x0:0x00000000
       41225000	      4121	80000284	0200036f	jal	x6,80000284	  x6=0x80000284
       41235000	      4122	00000000	00000013	addi	x0,x0,0	  x0:0x00000000
       41245000	      4123	800002a0	00000013	addi	x0,x0,0	  x0:0x00000000
       41255000	      4124	800002a4	024000ef	jal	x1,800002a4	  x1=0x800002a4
       41265000	      4125	00000000	00000013	addi	x0,x0,0	  x0:0x00000000
       41275000	      4126	800002c4	00000013	addi	x0,x0,0	  x0:0x00000000
       41285000	      4127	800002c8	ff1ff0ef	jal	x1,800002c8	  x1=0x800002c8
       41295000	      4128	00000000	00000013	addi	x0,x0,0	  x0:0x00000000
       41305000	      4129	800002b4	00000013	addi	x0,x0,0	  x0:0x00000000
       41315000	      4130	800002b8	fb9ff0ef	jal	x1,800002b8	  x1=0x800002b8
       41325000	      4131	00000000	00000013	addi	x0,x0,0	  x0:0x00000000
       41335000	      4132	8000026c	00000013	addi	x0,x0,0	  x0:0x00000000
       41345000	      4133	80000270	03c000ef	jal	x1,80000270	  x1=0x80000270
       41355000	      4134	00000000	00000013	addi	x0,x0,0	  x0:0x00000000
       41365000	      4135	800002a8	00000013	addi	x0,x0,0	  x0:0x00000000
       41375000	      4136	800002ac	fb9ff1ef	jal	x3,800002ac	  x3=0x800002ac
       41385000	      4137	00000000	00000013	addi	x0,x0,0	  x0:0x00000000
       41395000	      4138	80000260	00000013	addi	x0,x0,0	  x0:0x00000000
       41405000	      4139	80000264	ff9ff0ef	jal	x1,80000264	  x1=0x80000264
       41415000	      4140	00000000	00000013	addi	x0,x0,0	  x0:0x00000000
       41425000	      4141	80000258	00000013	addi	x0,x0,0	  x0:0x00000000
       41435000	      4142	8000025c	0780036f	jal	x6,8000025c	  x6=0x8000025c
       41445000	      4143	00000000	00000013	addi	x0,x0,0	  x0:0x00000000
       41455000	      4144	800002d0	00000013	addi	x0,x0,0	  x0:0x00000000
       41465000	      4145	800002d4	40ce5793	srai	x15,x28,0xc	 x28:0xfffff87d x15=0xffffffff
       41475000	      4146	800002d8	01c0036f	jal	x6,800002d8	  x6=0x800002d8
       41485000	      4147	00000000	00000013	addi	x0,x0,0	  x0:0x00000000
       41495000	      4148	800002f0	00000013	addi	x0,x0,0	  x0:0x00000000
       41505000	      4149	800002f4	ff9ff36f	jal	x6,800002f4	  x6=0x800002f4
       41515000	      4150	00000000	00000013	addi	x0,x0,0	  x0:0x00000000
       41525000	      4151	800002e8	00000013	addi	x0,x0,0	  x0:0x00000000
       41535000	      4152	800002ec	00c000ef	jal	x1,800002ec	  x1=0x800002ec
       41545000	      4153	00000000	00000013	addi	x0,x0,0	  x0:0x00000000
       41555000	      4154	800002f4	00000013	addi	x0,x0,0	  x0:0x00000000
       41565000	      4155	800002f8	00c000ef	jal	x1,800002f8	  x1=0x800002f8
       41575000	      4156	00000000	00000013	addi	x0,x0,0	  x0:0x00000000
       41585000	      4157	80000300	00000013	addi	x0,x0,0	  x0:0x00000000
       41595000	      4158	80000304	fedff0ef	jal	x1,80000304	  x1=0x80000304
       41605000	      4159	00000000	00000013	addi	x0,x0,0	  x0:0x00000000
       41615000	      4160	800002ec	00000013	addi	x0,x0,0	  x0:0x00000000
       41625000	      4161	800002f0	0100036f	jal	x6,800002f0	  x6=0x800002f0
       41635000	      4162	00000000	00000013	addi	x0,x0,0	  x0:0x00000000
       41645000	      4163	800002fc	00000013	addi	x0,x0,0	  x0:0x00000000
       41655000	      4164	80000300	fe9ff36f	jal	x6,80000300	  x6=0x80000300
       41665000	      4165	00000000	00000013	addi	x0,x0,0	  x0:0x00000000
       41675000	      4166	800002e4	00000013	addi	x0,x0,0	  x0:0x00000000
       41685000	      4167	800002e8	0200036f	jal	x6,800002e8	  x6=0x800002e8
       41695000	      4168	00000000	00000013	addi	x0,x0,0	  x0:0x00000000
       41705000	      4169	80000304	00000013	addi	x0,x0,0	  x0:0x00000000
       41715000	      4170	80000308	008000ef	jal	x1,80000308	  x1=0x80000308
       41725000	      4171	00000000	00000013	addi	x0,x0,0	  x0:0x00000000
       41735000	      4172	8000030c	00000013	addi	x0,x0,0	  x0:0x00000000
       41745000	      4173	80000310	ffdff36f	jal	x6,80000310	  x6=0x80000310
       41755000	      4174	00000000	00000013	addi	x0,x0,0	  x0:0x00000000
       41765000	      4175	80000308	00000013	addi	x0,x0,0	  x0:0x00000000
       41775000	      4176	8000030c	fd9fffef	jal	x31,8000030c	 x31=0x8000030c
       41785000	      4177	00000000	00000013	addi	x0,x0,0	  x0:0x00000000
       41795000	      4178	800002e0	00000013	addi	x0,x0,0	  x0:0x00000000
       41805000	      4179	800002e4	ff9ff0ef	jal	x1,800002e4	  x1=0x800002e4
       41815000	      4180	00000000	00000013	addi	x0,x0,0	  x0:0x00000000
       41825000	      4181	800002d8	00000013	addi	x0,x0,0	  x0:0x00000000
       41835000	      4182	800002dc	020000ef	jal	x1,800002dc	  x1=0x800002dc
       41845000	      4183	00000000	00000013	addi	x0,x0,0	  x0:0x00000000
       41855000	      4184	800002f8	00000013	addi	x0,x0,0	  x0:0x00000000
       41865000	      4185	800002fc	fe5ff0ef	jal	x1,800002fc	  x1=0x800002fc
       41875000	      4186	00000000	00000013	addi	x0,x0,0	  x0:0x00000000
       41885000	      4187	800002dc	00000013	addi	x0,x0,0	  x0:0x00000000
       41895000	      4188	800002e0	034000ef	jal	x1,800002e0	  x1=0x800002e0
       41905000	      4189	00000000	00000013	addi	x0,x0,0	  x0:0x00000000
       41915000	      4190	80000310	00000013	addi	x0,x0,0	  x0:0x00000000
       41925000	      4191	80000314	016645b3	xor	x11,x12,x22	 x12:0x80000164 x22:0x80000224 x11=0x00000340
       41935000	      4192	80000318	0200036f	jal	x6,80000318	  x6=0x80000318
       41945000	      4193	00000000	00000013	addi	x0,x0,0	  x0:0x00000000
       41955000	      4194	80000334	00000013	addi	x0,x0,0	  x0:0x00000000
       41965000	      4195	80000338	004005ef	jal	x11,80000338	 x11=0x80000338
       41975000	      4196	00000000	00000013	addi	x0,x0,0	  x0:0x00000000
       41985000	      4197	80000338	00000013	addi	x0,x0,0	  x0:0x00000000
       41995000	      4198	8000033c	00c000ef	jal	x1,8000033c	  x1=0x8000033c
       42005000	      4199	00000000	00000013	addi	x0,x0,0	  x0:0x00000000
       42015000	      4200	80000344	00000013	addi	x0,x0,0	  x0:0x00000000
       42025000	      4201	80000348	008000ef	jal	x1,80000348	  x1=0x80000348
       42035000	      4202	00000000	00000013	addi	x0,x0,0	  x0:0x00000000
       42045000	      4203	8000034c	00000013	addi	x0,x0,0	  x0:0x00000000
       42055000	      4204	80000350	ff5ff36f	jal	x6,80000350	  x6=0x80000350
       42065000	      4205	00000000	00000013	addi	x0,x0,0	  x0:0x00000000
       42075000	      4206	80000340	00000013	addi	x0,x0,0	  x0:0x00000000
       42085000	      4207	80000344	0180046f	jal	x8,80000344	  x8=0x80000344
       42095000	      4208	00000000	00000013	addi	x0,x0,0	  x0:0x00000000
       42105000	      4209	80000358	00000013	addi	x0,x0,0	  x0:0x00000000
       42115000	      4210	8000035c	ff9ff0ef	jal	x1,8000035c	  x1=0x8000035c
       42125000	      4211	00000000	00000013	addi	x0,x0,0	  x0:0x00000000
       42135000	      4212	80000350	00000013	addi	x0,x0,0	  x0:0x00000000
       42145000	      4213	80000354	fd1ff0ef	jal	x1,80000354	  x1=0x80000354
       42155000	      4214	00000000	00000013	addi	x0,x0,0	  x0:0x00000000
       42165000	      4215	80000320	00000013	addi	x0,x0,0	  x0:0x00000000
       42175000	      4216	80000324	004000ef	jal	x1,80000324	  x1=0x80000324
       42185000	      4217	00000000	00000013	addi	x0,x0,0	  x0:0x00000000
       42195000	      4218	80000324	00000013	addi	x0,x0,0	  x0:0x00000000
       42205000	      4219	80000328	ff5ff0ef	jal	x1,80000328	  x1=0x80000328
       42215000	      4220	00000000	00000013	addi	x0,x0,0	  x0:0x00000000
       42225000	      4221	80000318	00000013	addi	x0,x0,0	  x0:0x00000000
       42235000	      4222	8000031c	03c0056f	jal	x10,8000031c	 x10=0x8000031c
       42245000	      4223	00000000	00000013	addi	x0,x0,0	  x0:0x00000000
       42255000	      4224	80000354	00000013	addi	x0,x0,0	  x0:0x00000000
       42265000	      4225	80000358	fd5ff0ef	jal	x1,80000358	  x1=0x80000358
       42275000	      4226	00000000	00000013	addi	x0,x0,0	  x0:0x00000000
       42285000	      4227	80000328	00000013	addi	x0,x0,0	  x0:0x00000000
       42295000	      4228	8000032c	020000ef	jal	x1,8000032c	  x1=0x8000032c
       42305000	      4229	00000000	00000013	addi	x0,x0,0	  x0:0x00000000
       42315000	      4230	80000348	00000013	addi	x0,x0,0	  x0:0x00000000
       42325000	      4231	8000034c	fd5ffcef	jal	x25,8000034c	 x25=0x8000034c
       42335000	      4232	00000000	00000013	addi	x0,x0,0	  x0:0x00000000
       42345000	      4233	8000031c	00000013	addi	x0,x0,0	  x0:0x00000000
       42355000	      4234	80000320	0140036f	jal	x6,80000320	  x6=0x80000320
       42365000	      4235	00000000	00000013	addi	x0,x0,0	  x0:0x00000000
       42375000	      4236	80000330	00000013	addi	x0,x0,0	  x0:0x00000000
       42385000	      4237	80000334	ffdff36f	jal	x6,80000334	  x6=0x80000334
       42395000	      4238	00000000	00000013	addi	x0,x0,0	  x0:0x00000000
       42405000	      4239	8000032c	00000013	addi	x0,x0,0	  x0:0x00000000
       42415000	      4240	80000330	010000ef	jal	x1,80000330	  x1=0x80000330
       42425000	      4241	00000000	00000013	addi	x0,x0,0	  x0:0x00000000
       42435000	      4242	8000033c	00000013	addi	x0,x0,0	  x0:0x00000000
       42445000	      4243	80000340	0200046f	jal	x8,80000340	  x8=0x80000340
       42455000	      4244	00000000	00000013	addi	x0,x0,0	  x0:0x00000000
       42465000	      4245	8000035c	00000013	addi	x0,x0,0	  x0:0x00000000
       42475000	      4246	80000360	4f663e13	sltiu	x28,x12,1270	 x12:0x80000164 x28=0x00000000
       42485000	      4247	80000364	01fd1413	slli	x8,x26,0x1f	 x26:0x80009f84  x8=0x00000000
       42495000	      4248	80000368	40c002b3	sub	x5,x0,x12	  x0:0x00000000 x12:0x80000164  x5=0x7ffffe9c
       42505000	      4249	8000036c	016e8c63	beq	x29,x22,80000384	 x29:0xf22f49ae x22:0x80000224
       42515000	      4250	80000370	0504d263	bge	x9,x16,800003b4	  x9:0x8000013c x16:0x80000278
       42525000	      4251	80000374	00000013	addi	x0,x0,0	  x0:0x00000000
       42535000	      4252	80000378	7cec7893	andi	x17,x24,1998	 x24:0xfffff87d x17=0x0000004c
       42545000	      4253	8000037c	01aec1b3	xor	x3,x29,x26	 x29:0xf22f49ae x26:0x80009f84  x3=0x722fd62a
       42555000	      4254	80000380	900f6ab7	lui	x21,0x900f6	 x21=0x900f6000
       42565000	      4255	80000384	014eb833	sltu	x16,x29,x20	 x29:0xf22f49ae x20:0x8000020c x16=0x00000000
       42575000	      4256	80000388	4130de13	srai	x28,x1,0x13	  x1:0x80000330 x28=0xfffff000
       42585000	      4257	8000038c	007dc263	blt	x27,x7,80000390	 x27:0x80000200  x7:0x800002cc
       42595000	      4258	00000000	00000013	addi	x0,x0,0	  x0:0x00000000
       42605000	      4259	8000038c	00000013	addi	x0,x0,0	  x0:0x00000000
       42615000	      4260	80000390	04a5f063	bgeu	x11,x10,800003d0	 x11:0x80000338 x10:0x8000031c
       42625000	      4261	00000000	00000013	addi	x0,x0,0	  x0:0x00000000
       42635000	      4262	800003cc	00000013	addi	x0,x0,0	  x0:0x00000000
       42645000	      4263	800003d0	4a83af97	auipc	x31,0x4a83a	 x31=0xca83a3cc
       42655000	      4264	800003d4	03790663	beq	x18,x23,80000400	 x18:0x800001f0 x23:0x000007c4
       42665000	      4265	800003d8	41028533	sub	x10,x5,x16	  x5:0x7ffffe9c x16:0x00000000 x10=0x7ffffe9c
       42675000	      4266	800003dc	408d08b3	sub	x17,x26,x8	 x26:0x80009f84  x8:0x00000000 x17=0x80009f84
       42685000	      4267	800003e0	00000013	addi	x0,x0,0	  x0:0x00000000
       42695000	      4268	800003e4	00a09893	slli	x17,x1,0xa	  x1:0x80000330 x17=0x000cc000
       42705000	      4269	800003e8	cd283f13	sltiu	x30,x16,-814	 x16:0x00000000 x30=0x00000001
       42715000	      4270	800003ec	01a67c63	bgeu	x12,x26,80000404	 x12:0x80000164 x26:0x80009f84
       42725000	      4271	800003f0	0fd94493	xori	x9,x18,253	 x18:0x800001f0  x9=0x8000010d
       42735000	      4272	800003f4	0238d863	bge	x17,x3,80000424	 x17:0x000cc000  x3:0x722fd62a
       42745000	      4273	800003f8	01ecc0b3	xor	x1,x25,x30	 x25:0x8000034c x30:0x00000001  x1=0x8000034d
       42755000	      4274	800003fc	55280093	addi	x1,x16,1362	 x16:0x00000000  x1=0x00000552
       42765000	      4275	80000400	01565c33	srl	x24,x12,x21	 x12:0x80000164 x21:0x900f6000 x24=0x80000164
       42775000	      4276	80000404	403a83b3	sub	x7,x21,x3	 x21:0x900f6000  x3:0x722fd62a  x7=0x1ddf89d6
       42785000	      4277	80000408	012ae233	or	x4,x21,x18	 x21:0x900f6000 x18:0x800001f0  x4=0x900f61f0
       42795000	      4278	8000040c	034cca63	blt	x25,x20,80000440	 x25:0x8000034c x20:0x8000020c
       42805000	      4279	80000410	0098b033	sltu	x0,x17,x9	 x17:0x000cc000  x9:0x8000010d
       42815000	      4280	80000414	414f8013	addi	x0,x31,1044	 x31:0xca83a3cc
       42825000	      4281	80000418	0136d663	bge	x13,x19,80000424	 x13:0x00000001 x19:0x80000280
       42835000	      4282	00000000	00000013	addi	x0,x0,0	  x0:0x00000000
       42845000	      4283	80000420	00000013	addi	x0,x0,0	  x0:0x00000000
       42855000	      4284	80000424	04bc6863	bltu	x24,x11,80000474	 x24:0x80000164 x11:0x80000338
       42865000	      4285	00000000	00000013	addi	x0,x0,0	  x0:0x00000000
       42875000	      4286	80000470	00000013	addi	x0,x0,0	  x0:0x00000000
       42885000	      4287	80000474	02e4c263	blt	x9,x14,80000498	  x9:0x8000010d x14:0x8000026c
       42895000	      4288	00000000	00000013	addi	x0,x0,0	  x0:0x00000000
       42905000	      4289	80000494	00000013	addi	x0,x0,0	  x0:0x00000000
       42915000	      4290	80000498	41475f33	sra	x30,x14,x20	 x14:0x8000026c x20:0x8000020c x30=0xfff80000
       42925000	      4291	8000049c	01ff24b3	slt	x9,x30,x31	 x30:0xfff80000 x31:0xca83a3cc  x9=0x00000000
       42935000	      4292	800004a0	015989b3	add	x19,x19,x21	 x19:0x80000280 x21:0x900f6000 x19=0x100f6280
       42945000	      4293	800004a4	018f5db3	srl	x27,x30,x24	 x30:0xfff80000 x24:0x80000164 x27=0x0fff8000
       42955000	      4294	800004a8	41518a33	sub	x20,x3,x21	  x3:0x722fd62a x21:0x900f6000 x20=0xe220762a
       42965000	      4295	800004ac	41afdcb3	sra	x25,x31,x26	 x31:0xca83a3cc x26:0x80009f84 x25=0xfca83a3c
       42975000	      4296	800004b0	be412013	slti	x0,x2,-1052	  x2:0x80009fc4
       42985000	      4297	800004b4	008981b3	add	x3,x19,x8	 x19:0x100f6280  x8:0x00000000  x3=0x100f6280
       42995000	      4298	800004b8	00e14263	blt	x2,x14,800004bc	  x2:0x80009fc4 x14:0x8000026c
       43005000	      4299	800004bc	000d51b3	srl	x3,x26,x0	 x26:0x80009f84  x0:0x00000000  x3=0x80009f84
       43015000	      4300	800004c0	411c5a33	sra	x20,x24,x17	 x24:0x80000164 x17:0x000cc000 x20=0x80000164
       43025000	      4301	800004c4	000c1833	sll	x16,x24,x0	 x24:0x80000164  x0:0x00000000 x16=0x80000164
       43035000	      4302	800004c8	0065e9b3	or	x19,x11,x6	 x11:0x80000338  x6:0x80000334 x19=0x8000033c
       43045000	      4303	800004cc	0055db13	srli	x22,x11,0x5	 x11:0x80000338 x22=0x04000019
       43055000	      4304	800004d0	e3262f97	auipc	x31,0xe3262	 x31=0x632624cc
       43065000	      4305	800004d4	019c1263	bne	x24,x25,800004d8	 x24:0x80000164 x25:0xfca83a3c
       43075000	      4306	00000000	00000013	addi	x0,x0,0	  x0:0x00000000
       43085000	      4307	800004d4	00000013	addi	x0,x0,0	  x0:0x00000000
       43095000	      4308	800004d8	418d0733	sub	x14,x26,x24	 x26:0x80009f84 x24:0x80000164 x14=0x00009e20
       43105000	      4309	800004dc	0740036f	jal	x6,800004dc	  x6=0x800004dc
       43115000	      4310	00000000	00000013	addi	x0,x0,0	  x0:0x00000000
       43125000	      4311	8000054c	00000013	addi	x0,x0,0	  x0:0x00000000
       43135000	      4312	80000550	fb9ff0ef	jal	x1,80000550	  x1=0x80000550
       43145000	      4313	00000000	00000013	addi	x0,x0,0	  x0:0x00000000
       43155000	      4314	80000504	00000013	addi	x0,x0,0	  x0:0x00000000
       43165000	      4315	80000508	fe1ff0ef	jal	x1,80000508	  x1=0x80000508
       43175000	      4316	00000000	00000013	addi	x0,x0,0	  x0:0x00000000
       43185000	      4317	800004e4	00000013	addi	x0,x0,0	  x0:0x00000000
       43195000	      4318	800004e8	0540036f	jal	x6,800004e8	  x6=0x800004e8
       43205000	      4319	00000000	00000013	addi	x0,x0,0	  x0:0x00000000
       43215000	      4320	80000538	00000013	addi	x0,x0,0	  x0:0x00000000
       43225000	      4321	8000053c	fedff0ef	jal	x1,8000053c	  x1=0x8000053c
       43235000	      4322	00000000	00000013	addi	x0,x0,0	  x0:0x00000000
       43245000	      4323	80000524	00000013	addi	x0,x0,0	  x0:0x00000000
       43255000	      4324	80000528	fe5ff0ef	jal	x1,80000528	  x1=0x80000528
       43265000	      4325	00000000	00000013	addi	x0,x0,0	  x0:0x00000000
       43275000	      4326	80000508	00000013	addi	x0,x0,0	  x0:0x00000000
       43285000	      4327	8000050c	028000ef	jal	x1,8000050c	  x1=0x8000050c
       43295000	      4328	00000000	00000013	addi	x0,x0,0	  x0:0x00000000
       43305000	      4329	80000530	00000013	addi	x0,x0,0	  x0:0x00000000
       43315000	      4330	80000534	fc9ff36f	jal	x6,80000534	  x6=0x80000534
       43325000	      4331	00000000	00000013	addi	x0,x0,0	  x0:0x00000000
       43335000	      4332	800004f8	00000013	addi	x0,x0,0	  x0:0x00000000
       43345000	      4333	800004fc	0180036f	jal	x6,800004fc	  x6=0x800004fc
       43355000	      4334	00000000	00000013	addi	x0,x0,0	  x0:0x00000000
       43365000	      4335	80000510	00000013	addi	x0,x0,0	  x0:0x00000000
       43375000	      4336	80000514	008000ef	jal	x1,80000514	  x1=0x80000514
       43385000	      4337	00000000	00000013	addi	x0,x0,0	  x0:0x00000000
       43395000	      4338	80000518	00000013	addi	x0,x0,0	  x0:0x00000000
       43405000	      4339	8000051c	030000ef	jal	x1,8000051c	  x1=0x8000051c
       43415000	      4340	00000000	00000013	addi	x0,x0,0	  x0:0x00000000
       43425000	      4341	80000548	00000013	addi	x0,x0,0	  x0:0x00000000
       43435000	      4342	8000054c	fadff36f	jal	x6,8000054c	  x6=0x8000054c
       43445000	      4343	00000000	00000013	addi	x0,x0,0	  x0:0x00000000
       43455000	      4344	800004f4	00000013	addi	x0,x0,0	  x0:0x00000000
       43465000	      4345	800004f8	008000ef	jal	x1,800004f8	  x1=0x800004f8
       43475000	      4346	00000000	00000013	addi	x0,x0,0	  x0:0x00000000
       43485000	      4347	800004fc	00000013	addi	x0,x0,0	  x0:0x00000000
       43495000	      4348	80000500	010000ef	jal	x1,80000500	  x1=0x80000500
       43505000	      4349	00000000	00000013	addi	x0,x0,0	  x0:0x00000000
       43515000	      4350	8000050c	00000013	addi	x0,x0,0	  x0:0x00000000
       43525000	      4351	80000510	0280036f	jal	x6,80000510	  x6=0x80000510
       43535000	      4352	00000000	00000013	addi	x0,x0,0	  x0:0x00000000
       43545000	      4353	80000534	00000013	addi	x0,x0,0	  x0:0x00000000
       43555000	      4354	80000538	fb9ff36f	jal	x6,80000538	  x6=0x80000538
       43565000	      4355	00000000	00000013	addi	x0,x0,0	  x0:0x00000000
       43575000	      4356	800004ec	00000013	addi	x0,x0,0	  x0:0x00000000
       43585000	      4357	800004f0	058002ef	jal	x5,800004f0	  x5=0x800004f0
       43595000	      4358	00000000	00000013	addi	x0,x0,0	  x0:0x00000000
       43605000	      4359	80000544	00000013	addi	x0,x0,0	  x0:0x00000000
       43615000	      4360	80000548	f9dff36f	jal	x6,80000548	  x6=0x80000548
       43625000	      4361	00000000	00000013	addi	x0,x0,0	  x0:0x00000000
       43635000	      4362	800004e0	00000013	addi	x0,x0,0	  x0:0x00000000
       43645000	      4363	800004e4	03c0036f	jal	x6,800004e4	  x6=0x800004e4
       43655000	      4364	00000000	00000013	addi	x0,x0,0	  x0:0x00000000
       43665000	      4365	8000051c	00000013	addi	x0,x0,0	  x0:0x00000000
       43675000	      4366	80000520	fd5ff0ef	jal	x1,80000520	  x1=0x80000520
       43685000	      4367	00000000	00000013	addi	x0,x0,0	  x0:0x00000000
       43695000	      4368	800004f0	00000013	addi	x0,x0,0	  x0:0x00000000
       43705000	      4369	800004f4	030000ef	jal	x1,800004f4	  x1=0x800004f4
       43715000	      4370	00000000	00000013	addi	x0,x0,0	  x0:0x00000000
       43725000	      4371	80000520	00000013	addi	x0,x0,0	  x0:0x00000000
       43735000	      4372	80000524	fbdff26f	jal	x4,80000524	  x4=0x80000524
       43745000	      4373	00000000	00000013	addi	x0,x0,0	  x0:0x00000000
       43755000	      4374	800004dc	00000013	addi	x0,x0,0	  x0:0x00000000
       43765000	      4375	800004e0	03800f6f	jal	x30,800004e0	 x30=0x800004e0
       43775000	      4376	00000000	00000013	addi	x0,x0,0	  x0:0x00000000
       43785000	      4377	80000514	00000013	addi	x0,x0,0	  x0:0x00000000
       43795000	      4378	80000518	028000ef	jal	x1,80000518	  x1=0x80000518
       43805000	      4379	00000000	00000013	addi	x0,x0,0	  x0:0x00000000
       43815000	      4380	8000053c	00000013	addi	x0,x0,0	  x0:0x00000000
       43825000	      4381	80000540	fedff36f	jal	x6,80000540	  x6=0x80000540
       43835000	      4382	00000000	00000013	addi	x0,x0,0	  x0:0x00000000
       43845000	      4383	80000528	00000013	addi	x0,x0,0	  x0:0x00000000
       43855000	      4384	8000052c	fc1ff5ef	jal	x11,8000052c	 x11=0x8000052c
       43865000	      4385	00000000	00000013	addi	x0,x0,0	  x0:0x00000000
       43875000	      4386	800004e8	00000013	addi	x0,x0,0	  x0:0x00000000
       43885000	      4387	800004ec	058000ef	jal	x1,800004ec	  x1=0x800004ec
       43895000	      4388	00000000	00000013	addi	x0,x0,0	  x0:0x00000000
       43905000	      4389	80000540	00000013	addi	x0,x0,0	  x0:0x00000000
       43915000	      4390	80000544	fc1ff0ef	jal	x1,80000544	  x1=0x80000544
       43925000	      4391	00000000	00000013	addi	x0,x0,0	  x0:0x00000000
       43935000	      4392	80000500	00000013	addi	x0,x0,0	  x0:0x00000000
       43945000	      4393	80000504	02c0036f	jal	x6,80000504	  x6=0x80000504
       43955000	      4394	00000000	00000013	addi	x0,x0,0	  x0:0x00000000
       43965000	      4395	8000052c	00000013	addi	x0,x0,0	  x0:0x00000000
       43975000	      4396	80000530	024000ef	jal	x1,80000530	  x1=0x80000530
       43985000	      4397	00000000	00000013	addi	x0,x0,0	  x0:0x00000000
       43995000	      4398	80000550	00000013	addi	x0,x0,0	  x0:0x00000000
       44005000	      4399	80000554	39554993	xori	x19,x10,917	 x10:0x7ffffe9c x19=0x7ffffd09
       44015000	      4400	80000558	016cd593	srli	x11,x25,0x16	 x25:0xfca83a3c x11=0x000003f2
       44025000	      4401	8000055c	ae698513	addi	x10,x19,-1306	 x19:0x7ffffd09 x10=0x7ffff7ef
       44035000	      4402	80000560	00696e63	bltu	x18,x6,8000057c	 x18:0x800001f0  x6:0x80000504
       44045000	      4403	00000000	00000013	addi	x0,x0,0	  x0:0x00000000
       44055000	      4404	80000578	00000013	addi	x0,x0,0	  x0:0x00000000
       44065000	      4405	8000057c	00341f93	slli	x31,x8,0x3	  x8:0x00000000 x31=0x00000000
       44075000	      4406	80000580	40b1d413	srai	x8,x3,0xb	  x3:0x80009f84  x8=0xfff00013
       44085000	      4407	80000584	009b26b3	slt	x13,x22,x9	 x22:0x04000019  x9:0x00000000 x13=0x00000000
       44095000	      4408	80000588	aa717a13	andi	x20,x2,-1369	  x2:0x80009fc4 x20=0x80009a84
       44105000	      4409	8000058c	05fb5663	bge	x22,x31,800005d8	 x22:0x04000019 x31:0x00000000
       44115000	      4410	00000000	00000013	addi	x0,x0,0	  x0:0x00000000
       44125000	      4411	800005d4	00000013	addi	x0,x0,0	  x0:0x00000000
       44135000	      4412	800005d8	01b650b3	srl	x1,x12,x27	 x12:0x80000164 x27:0x0fff8000  x1=0x80000164
       44145000	      4413	800005dc	31aaaa93	slti	x21,x21,794	 x21:0x900f6000 x21=0x00000001
       44155000	      4414	800005e0	4070d593	srai	x11,x1,0x7	  x1:0x80000164 x11=0xff000002
       44165000	      4415	800005e4	01318433	add	x8,x3,x19	  x3:0x80009f84 x19:0x7ffffd09  x8=0x00009c8d
       44175000	      4416	800005e8	027d4e63	blt	x26,x7,80000624	 x26:0x80009f84  x7:0x1ddf89d6
       44185000	      4417	00000000	00000013	addi	x0,x0,0	  x0:0x00000000
       44195000	      4418	80000620	00000013	addi	x0,x0,0	  x0:0x00000000
       44205000	      4419	80000624	00446263	bltu	x8,x4,80000628	  x8:0x00009c8d  x4:0x80000524
       44215000	      4420	00000000	00000013	addi	x0,x0,0	  x0:0x00000000
       44225000	      4421	80000624	00000013	addi	x0,x0,0	  x0:0x00000000
       44235000	      4422	80000628	01562bb3	slt	x23,x12,x21	 x12:0x80000164 x21:0x00000001 x23=0x00000001
       44245000	      4423	8000062c	00e232b3	sltu	x5,x4,x14	  x4:0x80000524 x14:0x00009e20  x5=0x00000000
       44255000	      4424	80000630	5fc60c13	addi	x24,x12,1532	 x12:0x80000164 x24=0x80000760
       44265000	      4425	80000634	0115fa63	bgeu	x11,x17,80000648	 x11:0xff000002 x17:0x000cc000
       44275000	      4426	00000000	00000013	addi	x0,x0,0	  x0:0x00000000
       44285000	      4427	80000644	00000013	addi	x0,x0,0	  x0:0x00000000
       44295000	      4428	80000648	00b15a63	bge	x2,x11,8000065c	  x2:0x80009fc4 x11:0xff000002
       44305000	      4429	8000064c	bc6de913	ori	x18,x27,-1082	 x27:0x0fff8000 x18=0xfffffbc6
       44315000	      4430	80000650	00000013	addi	x0,x0,0	  x0:0x00000000
       44325000	      4431	80000654	86777b17	auipc	x22,0x86777	 x22=0x06777650
       44335000	      4432	80000658	01120833	add	x16,x4,x17	  x4:0x80000524 x17:0x000cc000 x16=0x800cc524
       44345000	      4433	8000065c	007a4ab3	xor	x21,x20,x7	 x20:0x80009a84  x7:0x1ddf89d6 x21=0x9ddf1352
       44355000	      4434	80000660	00000013	addi	x0,x0,0	  x0:0x00000000
       44365000	      4435	80000664	011cde63	bge	x25,x17,80000680	 x25:0xfca83a3c x17:0x000cc000
       44375000	      4436	80000668	0019b233	sltu	x4,x19,x1	 x19:0x7ffffd09  x1:0x80000164  x4=0x00000001
       44385000	      4437	8000066c	03bec863	blt	x29,x27,8000069c	 x29:0xf22f49ae x27:0x0fff8000
       44395000	      4438	00000000	00000013	addi	x0,x0,0	  x0:0x00000000
       44405000	      4439	80000698	00000013	addi	x0,x0,0	  x0:0x00000000
       44415000	      4440	8000069c	00293a33	sltu	x20,x18,x2	 x18:0xfffffbc6  x2:0x80009fc4 x20=0x00000000
       44425000	      4441	800006a0	00e4a333	slt	x6,x9,x14	  x9:0x00000000 x14:0x00009e20  x6=0x00000001
       44435000	      4442	800006a4	6ce23b93	sltiu	x23,x4,1742	  x4:0x00000001 x23=0x00000001
       44445000	      4443	800006a8	01530cb3	add	x25,x6,x21	  x6:0x00000001 x21:0x9ddf1352 x25=0x9ddf1353
       44455000	      4444	800006ac	01764233	xor	x4,x12,x23	 x12:0x80000164 x23:0x00000001  x4=0x80000165
       44465000	      4445	800006b0	00000013	addi	x0,x0,0	  x0:0x00000000
       44475000	      4446	800006b4	00000013	addi	x0,x0,0	  x0:0x00000000
       44485000	      4447	800006b8	00eaf5b3	and	x11,x21,x14	 x21:0x9ddf1352 x14:0x00009e20 x11=0x00001200
       44495000	      4448	800006bc	c1022697	auipc	x13,0xc1022	 x13=0x410226b8
       44505000	      4449	800006c0	00739c13	slli	x24,x7,0x7	  x7:0x1ddf89d6 x24=0xefc4eb00
       44515000	      4450	800006c4	00000013	addi	x0,x0,0	  x0:0x00000000
       44525000	      4451	800006c8	93feb513	sltiu	x10,x29,-1729	 x29:0xf22f49ae x10=0x00000001
       44535000	      4452	800006cc	07be5463	bge	x28,x27,80000734	 x28:0xfffff000 x27:0x0fff8000
       44545000	      4453	800006d0	01d3a433	slt	x8,x7,x29	  x7:0x1ddf89d6 x29:0xf22f49ae  x8=0x00000000
       44555000	      4454	800006d4	00f7cc33	xor	x24,x15,x15	 x15:0xffffffff x15:0xffffffff x24=0x00000000
       44565000	      4455	800006d8	003b9493	slli	x9,x23,0x3	 x23:0x00000001  x9=0x00000008
       44575000	      4456	800006dc	c14caa13	slti	x20,x25,-1004	 x25:0x9ddf1353 x20=0x00000001
       44585000	      4457	800006e0	40ed55b3	sra	x11,x26,x14	 x26:0x80009f84 x14:0x00009e20 x11=0x80009f84
       44595000	      4458	800006e4	00003497	auipc	x9,0x3	  x9=0x800036e0
       44605000	      4459	800006e8	1c448493	addi	x9,x9,452	  x9:0x800036e0  x9=0x800038a4
       44615000	      4460	800006ec	c1448493	addi	x9,x9,-1004	  x9:0x800038a4  x9=0x800034b8
       44625000	      4461	800006f0	43148b97	auipc	x23,0x43148	 x23=0xc31486ec
       44635000	      4462	800006f4	013700b3	add	x1,x14,x19	 x14:0x00009e20 x19:0x7ffffd09  x1=0x80009b29
       44645000	      4463	800006f8	00549663	bne	x9,x5,80000704	  x9:0x800034b8  x5:0x00000000
       44655000	      4464	00000000	00000013	addi	x0,x0,0	  x0:0x00000000
       44665000	      4465	80000700	00000013	addi	x0,x0,0	  x0:0x00000000
       44675000	      4466	80000704	3ed48367	jalr	x6,x9,1005	  x9:0x800034b8  x6=0x80000704
       44685000	      4467	00000000	00000013	addi	x0,x0,0	  x0:0x00000000
       44695000	      4468	800038a4	00000013	addi	x0,x0,0	  x0:0x00000000
       44705000	      4469	800038a8	00f45693	srli	x13,x8,0xf	  x8:0x00000000 x13=0x00000000
       44715000	      4470	800038ac	555fb937	lui	x18,0x555fb	 x18=0x555fb000
       44725000	      4471	800038b0	00c2b3b3	sltu	x7,x5,x12	  x5:0x00000000 x12:0x80000164  x7=0x00000001
       44735000	      4472	800038b4	010d6933	or	x18,x26,x16	 x26:0x80009f84 x16:0x800cc524 x18=0x800cdfa4
       44745000	      4473	800038b8	fccd0d13	addi	x26,x26,-52	 x26:0x80009f84 x26=0x80009f50
       44755000	      4474	800038bc	a648ac93	slti	x25,x17,-1436	 x17:0x000cc000 x25=0x00000000
       44765000	      4475	800038c0	006d2223	sw	x6,4(x26)	 x26:0x80009f50  x6:0x80000704 PA:0x80009f54
       44775000	      4476	800038c4	00ca5c13	srli	x24,x20,0xc	 x20:0x00000001 x24=0x00000000
       44785000	      4477	800038c8	0640036f	jal	x6,800038c8	  x6=0x800038c8
       44795000	      4478	00000000	00000013	addi	x0,x0,0	  x0:0x00000000
       44805000	      4479	80003928	00000013	addi	x0,x0,0	  x0:0x00000000
       44815000	      4480	8000392c	fadff1ef	jal	x3,8000392c	  x3=0x8000392c
       44825000	      4481	00000000	00000013	addi	x0,x0,0	  x0:0x00000000
       44835000	      4482	800038d4	00000013	addi	x0,x0,0	  x0:0x00000000
       44845000	      4483	800038d8	028000ef	jal	x1,800038d8	  x1=0x800038d8
       44855000	      4484	00000000	00000013	addi	x0,x0,0	  x0:0x00000000
       44865000	      4485	800038fc	00000013	addi	x0,x0,0	  x0:0x00000000
       44875000	      4486	80003900	fddff36f	jal	x6,80003900	  x6=0x80003900
       44885000	      4487	00000000	00000013	addi	x0,x0,0	  x0:0x00000000
       44895000	      4488	800038d8	00000013	addi	x0,x0,0	  x0:0x00000000
       44905000	      4489	800038dc	010000ef	jal	x1,800038dc	  x1=0x800038dc
       44915000	      4490	00000000	00000013	addi	x0,x0,0	  x0:0x00000000
       44925000	      4491	800038e8	00000013	addi	x0,x0,0	  x0:0x00000000
       44935000	      4492	800038ec	0040036f	jal	x6,800038ec	  x6=0x800038ec
       44945000	      4493	00000000	00000013	addi	x0,x0,0	  x0:0x00000000
       44955000	      4494	800038ec	00000013	addi	x0,x0,0	  x0:0x00000000
       44965000	      4495	800038f0	028000ef	jal	x1,800038f0	  x1=0x800038f0
       44975000	      4496	00000000	00000013	addi	x0,x0,0	  x0:0x00000000
       44985000	      4497	80003914	00000013	addi	x0,x0,0	  x0:0x00000000
       44995000	      4498	80003918	ffdff1ef	jal	x3,80003918	  x3=0x80003918
       45005000	      4499	00000000	00000013	addi	x0,x0,0	  x0:0x00000000
       45015000	      4500	80003910	00000013	addi	x0,x0,0	  x0:0x00000000
       45025000	      4501	80003914	fb9ff36f	jal	x6,80003914	  x6=0x80003914
       45035000	      4502	00000000	00000013	addi	x0,x0,0	  x0:0x00000000
       45045000	      4503	800038c8	00000013	addi	x0,x0,0	  x0:0x00000000
       45055000	      4504	800038cc	038000ef	jal	x1,800038cc	  x1=0x800038cc
       45065000	      4505	00000000	00000013	addi	x0,x0,0	  x0:0x00000000
       45075000	      4506	80003900	00000013	addi	x0,x0,0	  x0:0x00000000
       45085000	      4507	80003904	004000ef	jal	x1,80003904	  x1=0x80003904
       45095000	      4508	00000000	00000013	addi	x0,x0,0	  x0:0x00000000
       45105000	      4509	80003904	00000013	addi	x0,x0,0	  x0:0x00000000
       45115000	      4510	80003908	fcdff0ef	jal	x1,80003908	  x1=0x80003908
       45125000	      4511	00000000	00000013	addi	x0,x0,0	  x0:0x00000000
       45135000	      4512	800038d0	00000013	addi	x0,x0,0	  x0:0x00000000
       45145000	      4513	800038d4	0600036f	jal	x6,800038d4	  x6=0x800038d4
       45155000	      4514	00000000	00000013	addi	x0,x0,0	  x0:0x00000000
       45165000	      4515	80003930	00000013	addi	x0,x0,0	  x0:0x00000000
       45175000	      4516	80003934	fedff0ef	jal	x1,80003934	  x1=0x80003934
       45185000	      4517	00000000	00000013	addi	x0,x0,0	  x0:0x00000000
       45195000	      4518	8000391c	00000013	addi	x0,x0,0	  x0:0x00000000
       45205000	      4519	80003920	fd9ff36f	jal	x6,80003920	  x6=0x80003920
       45215000	      4520	00000000	00000013	addi	x0,x0,0	  x0:0x00000000
       45225000	      4521	800038f4	00000013	addi	x0,x0,0	  x0:0x00000000
       45235000	      4522	800038f8	038000ef	jal	x1,800038f8	  x1=0x800038f8
       45245000	      4523	00000000	00000013	addi	x0,x0,0	  x0:0x00000000
       45255000	      4524	8000392c	00000013	addi	x0,x0,0	  x0:0x00000000
       45265000	      4525	80003930	fb1ff26f	jal	x4,80003930	  x4=0x80003930
       45275000	      4526	00000000	00000013	addi	x0,x0,0	  x0:0x00000000
       45285000	      4527	800038dc	00000013	addi	x0,x0,0	  x0:0x00000000
       45295000	      4528	800038e0	01c0036f	jal	x6,800038e0	  x6=0x800038e0
       45305000	      4529	00000000	00000013	addi	x0,x0,0	  x0:0x00000000
       45315000	      4530	800038f8	00000013	addi	x0,x0,0	  x0:0x00000000
       45325000	      4531	800038fc	03c001ef	jal	x3,800038fc	  x3=0x800038fc
       45335000	      4532	00000000	00000013	addi	x0,x0,0	  x0:0x00000000
       45345000	      4533	80003934	00000013	addi	x0,x0,0	  x0:0x00000000
       45355000	      4534	80003938	fd9ff0ef	jal	x1,80003938	  x1=0x80003938
       45365000	      4535	00000000	00000013	addi	x0,x0,0	  x0:0x00000000
       45375000	      4536	8000390c	00000013	addi	x0,x0,0	  x0:0x00000000
       45385000	      4537	80003910	fe5ff0ef	jal	x1,80003910	  x1=0x80003910
       45395000	      4538	00000000	00000013	addi	x0,x0,0	  x0:0x00000000
       45405000	      4539	800038f0	00000013	addi	x0,x0,0	  x0:0x00000000
       45415000	      4540	800038f4	034000ef	jal	x1,800038f4	  x1=0x800038f4
       45425000	      4541	00000000	00000013	addi	x0,x0,0	  x0:0x00000000
       45435000	      4542	80003924	00000013	addi	x0,x0,0	  x0:0x00000000
       45445000	      4543	80003928	fbdff0ef	jal	x1,80003928	  x1=0x80003928
       45455000	      4544	00000000	00000013	addi	x0,x0,0	  x0:0x00000000
       45465000	      4545	800038e0	00000013	addi	x0,x0,0	  x0:0x00000000
       45475000	      4546	800038e4	028000ef	jal	x1,800038e4	  x1=0x800038e4
       45485000	      4547	00000000	00000013	addi	x0,x0,0	  x0:0x00000000
       45495000	      4548	80003908	00000013	addi	x0,x0,0	  x0:0x00000000
       45505000	      4549	8000390c	fddff0ef	jal	x1,8000390c	  x1=0x8000390c
       45515000	      4550	00000000	00000013	addi	x0,x0,0	  x0:0x00000000
       45525000	      4551	800038e4	00000013	addi	x0,x0,0	  x0:0x00000000
       45535000	      4552	800038e8	fe9ff0ef	jal	x1,800038e8	  x1=0x800038e8
       45545000	      4553	00000000	00000013	addi	x0,x0,0	  x0:0x00000000
       45555000	      4554	800038cc	00000013	addi	x0,x0,0	  x0:0x00000000
       45565000	      4555	800038d0	054000ef	jal	x1,800038d0	  x1=0x800038d0
       45575000	      4556	00000000	00000013	addi	x0,x0,0	  x0:0x00000000
       45585000	      4557	80003920	00000013	addi	x0,x0,0	  x0:0x00000000
       45595000	      4558	80003924	ff9ff7ef	jal	x15,80003924	 x15=0x80003924
       45605000	      4559	00000000	00000013	addi	x0,x0,0	  x0:0x00000000
       45615000	      4560	80003918	00000013	addi	x0,x0,0	  x0:0x00000000
       45625000	      4561	8000391c	020000ef	jal	x1,8000391c	  x1=0x8000391c
       45635000	      4562	00000000	00000013	addi	x0,x0,0	  x0:0x00000000
       45645000	      4563	80003938	00000013	addi	x0,x0,0	  x0:0x00000000
       45655000	      4564	8000393c	b43b2813	slti	x16,x22,-1213	 x22:0x06777650 x16=0x00000000
       45665000	      4565	80003940	0140036f	jal	x6,80003940	  x6=0x80003940
       45675000	      4566	00000000	00000013	addi	x0,x0,0	  x0:0x00000000
       45685000	      4567	80003950	00000013	addi	x0,x0,0	  x0:0x00000000
       45695000	      4568	80003954	028000ef	jal	x1,80003954	  x1=0x80003954
       45705000	      4569	00000000	00000013	addi	x0,x0,0	  x0:0x00000000
       45715000	      4570	80003978	00000013	addi	x0,x0,0	  x0:0x00000000
       45725000	      4571	8000397c	018000ef	jal	x1,8000397c	  x1=0x8000397c
       45735000	      4572	00000000	00000013	addi	x0,x0,0	  x0:0x00000000
       45745000	      4573	80003990	00000013	addi	x0,x0,0	  x0:0x00000000
       45755000	      4574	80003994	01c000ef	jal	x1,80003994	  x1=0x80003994
       45765000	      4575	00000000	00000013	addi	x0,x0,0	  x0:0x00000000
       45775000	      4576	800039ac	00000013	addi	x0,x0,0	  x0:0x00000000
       45785000	      4577	800039b0	fddff0ef	jal	x1,800039b0	  x1=0x800039b0
       45795000	      4578	00000000	00000013	addi	x0,x0,0	  x0:0x00000000
       45805000	      4579	80003988	00000013	addi	x0,x0,0	  x0:0x00000000
       45815000	      4580	8000398c	ffdff36f	jal	x6,8000398c	  x6=0x8000398c
       45825000	      4581	00000000	00000013	addi	x0,x0,0	  x0:0x00000000
       45835000	      4582	80003984	00000013	addi	x0,x0,0	  x0:0x00000000
       45845000	      4583	80003988	fe5ff0ef	jal	x1,80003988	  x1=0x80003988
       45855000	      4584	00000000	00000013	addi	x0,x0,0	  x0:0x00000000
       45865000	      4585	80003968	00000013	addi	x0,x0,0	  x0:0x00000000
       45875000	      4586	8000396c	034000ef	jal	x1,8000396c	  x1=0x8000396c
       45885000	      4587	00000000	00000013	addi	x0,x0,0	  x0:0x00000000
       45895000	      4588	8000399c	00000013	addi	x0,x0,0	  x0:0x00000000
       45905000	      4589	800039a0	fb1ff0ef	jal	x1,800039a0	  x1=0x800039a0
       45915000	      4590	00000000	00000013	addi	x0,x0,0	  x0:0x00000000
       45925000	      4591	8000394c	00000013	addi	x0,x0,0	  x0:0x00000000
       45935000	      4592	80003950	05800bef	jal	x23,80003950	 x23=0x80003950
       45945000	      4593	00000000	00000013	addi	x0,x0,0	  x0:0x00000000
       45955000	      4594	800039a4	00000013	addi	x0,x0,0	  x0:0x00000000
       45965000	      4595	800039a8	fcdff7ef	jal	x15,800039a8	 x15=0x800039a8
       45975000	      4596	00000000	00000013	addi	x0,x0,0	  x0:0x00000000
       45985000	      4597	80003970	00000013	addi	x0,x0,0	  x0:0x00000000
       45995000	      4598	80003974	024000ef	jal	x1,80003974	  x1=0x80003974
       46005000	      4599	00000000	00000013	addi	x0,x0,0	  x0:0x00000000
       46015000	      4600	80003994	00000013	addi	x0,x0,0	  x0:0x00000000
       46025000	      4601	80003998	fc9ff0ef	jal	x1,80003998	  x1=0x80003998
       46035000	      4602	00000000	00000013	addi	x0,x0,0	  x0:0x00000000
       46045000	      4603	8000395c	00000013	addi	x0,x0,0	  x0:0x00000000
       46055000	      4604	80003960	004000ef	jal	x1,80003960	  x1=0x80003960
       46065000	      4605	00000000	00000013	addi	x0,x0,0	  x0:0x00000000
       46075000	      4606	80003960	00000013	addi	x0,x0,0	  x0:0x00000000
       46085000	      4607	80003964	0480056f	jal	x10,80003964	 x10=0x80003964
       46095000	      4608	00000000	00000013	addi	x0,x0,0	  x0:0x00000000
       46105000	      4609	800039a8	00000013	addi	x0,x0,0	  x0:0x00000000
       46115000	      4610	800039ac	fcdff0ef	jal	x1,800039ac	  x1=0x800039ac
       46125000	      4611	00000000	00000013	addi	x0,x0,0	  x0:0x00000000
       46135000	      4612	80003974	00000013	addi	x0,x0,0	  x0:0x00000000
       46145000	      4613	80003978	018000ef	jal	x1,80003978	  x1=0x80003978
       46155000	      4614	00000000	00000013	addi	x0,x0,0	  x0:0x00000000
       46165000	      4615	8000398c	00000013	addi	x0,x0,0	  x0:0x00000000
       46175000	      4616	80003990	fbdff1ef	jal	x3,80003990	  x3=0x80003990
       46185000	      4617	00000000	00000013	addi	x0,x0,0	  x0:0x00000000
       46195000	      4618	80003948	00000013	addi	x0,x0,0	  x0:0x00000000
       46205000	      4619	8000394c	00c001ef	jal	x3,8000394c	  x3=0x8000394c
       46215000	      4620	00000000	00000013	addi	x0,x0,0	  x0:0x00000000
       46225000	      4621	80003954	00000013	addi	x0,x0,0	  x0:0x00000000
       46235000	      4622	80003958	004000ef	jal	x1,80003958	  x1=0x80003958
       46245000	      4623	00000000	00000013	addi	x0,x0,0	  x0:0x00000000
       46255000	      4624	80003958	00000013	addi	x0,x0,0	  x0:0x00000000
       46265000	      4625	8000395c	fe9ff9ef	jal	x19,8000395c	 x19=0x8000395c
       46275000	      4626	00000000	00000013	addi	x0,x0,0	  x0:0x00000000
       46285000	      4627	80003940	00000013	addi	x0,x0,0	  x0:0x00000000
       46295000	      4628	80003944	024000ef	jal	x1,80003944	  x1=0x80003944
       46305000	      4629	00000000	00000013	addi	x0,x0,0	  x0:0x00000000
       46315000	      4630	80003964	00000013	addi	x0,x0,0	  x0:0x00000000
       46325000	      4631	80003968	fe1ff1ef	jal	x3,80003968	  x3=0x80003968
       46335000	      4632	00000000	00000013	addi	x0,x0,0	  x0:0x00000000
       46345000	      4633	80003944	00000013	addi	x0,x0,0	  x0:0x00000000
       46355000	      4634	80003948	028000ef	jal	x1,80003948	  x1=0x80003948
       46365000	      4635	00000000	00000013	addi	x0,x0,0	  x0:0x00000000
       46375000	      4636	8000396c	00000013	addi	x0,x0,0	  x0:0x00000000
       46385000	      4637	80003970	014000ef	jal	x1,80003970	  x1=0x80003970
       46395000	      4638	00000000	00000013	addi	x0,x0,0	  x0:0x00000000
       46405000	      4639	80003980	00000013	addi	x0,x0,0	  x0:0x00000000
       46415000	      4640	80003984	018000ef	jal	x1,80003984	  x1=0x80003984
       46425000	      4641	00000000	00000013	addi	x0,x0,0	  x0:0x00000000
       46435000	      4642	80003998	00000013	addi	x0,x0,0	  x0:0x00000000
       46445000	      4643	8000399c	fe5ff36f	jal	x6,8000399c	  x6=0x8000399c
       46455000	      4644	00000000	00000013	addi	x0,x0,0	  x0:0x00000000
       46465000	      4645	8000397c	00000013	addi	x0,x0,0	  x0:0x00000000
       46475000	      4646	80003980	024000ef	jal	x1,80003980	  x1=0x80003980
       46485000	      4647	00000000	00000013	addi	x0,x0,0	  x0:0x00000000
       46495000	      4648	800039a0	00000013	addi	x0,x0,0	  x0:0x00000000
       46505000	      4649	800039a4	010000ef	jal	x1,800039a4	  x1=0x800039a4
       46515000	      4650	00000000	00000013	addi	x0,x0,0	  x0:0x00000000
       46525000	      4651	800039b0	00000013	addi	x0,x0,0	  x0:0x00000000
       46535000	      4652	800039b4	010ffe33	and	x28,x31,x16	 x31:0x00000000 x16:0x00000000 x28=0x00000000
       46545000	      4653	800039b8	0500036f	jal	x6,800039b8	  x6=0x800039b8
       46555000	      4654	00000000	00000013	addi	x0,x0,0	  x0:0x00000000
       46565000	      4655	80003a04	00000013	addi	x0,x0,0	  x0:0x00000000
       46575000	      4656	80003a08	fb5ff36f	jal	x6,80003a08	  x6=0x80003a08
       46585000	      4657	00000000	00000013	addi	x0,x0,0	  x0:0x00000000
       46595000	      4658	800039b8	00000013	addi	x0,x0,0	  x0:0x00000000
       46605000	      4659	800039bc	02000b6f	jal	x22,800039bc	 x22=0x800039bc
       46615000	      4660	00000000	00000013	addi	x0,x0,0	  x0:0x00000000
       46625000	      4661	800039d8	00000013	addi	x0,x0,0	  x0:0x00000000
       46635000	      4662	800039dc	00c000ef	jal	x1,800039dc	  x1=0x800039dc
       46645000	      4663	00000000	00000013	addi	x0,x0,0	  x0:0x00000000
       46655000	      4664	800039e4	00000013	addi	x0,x0,0	  x0:0x00000000
       46665000	      4665	800039e8	fedff76f	jal	x14,800039e8	 x14=0x800039e8
       46675000	      4666	00000000	00000013	addi	x0,x0,0	  x0:0x00000000
       46685000	      4667	800039d0	00000013	addi	x0,x0,0	  x0:0x00000000
       46695000	      4668	800039d4	0280036f	jal	x6,800039d4	  x6=0x800039d4
       46705000	      4669	00000000	00000013	addi	x0,x0,0	  x0:0x00000000
       46715000	      4670	800039f8	00000013	addi	x0,x0,0	  x0:0x00000000
       46725000	      4671	800039fc	fc5ff0ef	jal	x1,800039fc	  x1=0x800039fc
       46735000	      4672	00000000	00000013	addi	x0,x0,0	  x0:0x00000000
       46745000	      4673	800039bc	00000013	addi	x0,x0,0	  x0:0x00000000
       46755000	      4674	800039c0	0240066f	jal	x12,800039c0	 x12=0x800039c0
       46765000	      4675	00000000	00000013	addi	x0,x0,0	  x0:0x00000000
       46775000	      4676	800039e0	00000013	addi	x0,x0,0	  x0:0x00000000
       46785000	      4677	800039e4	ffdff0ef	jal	x1,800039e4	  x1=0x800039e4
       46795000	      4678	00000000	00000013	addi	x0,x0,0	  x0:0x00000000
       46805000	      4679	800039dc	00000013	addi	x0,x0,0	  x0:0x00000000
       46815000	      4680	800039e0	018000ef	jal	x1,800039e0	  x1=0x800039e0
       46825000	      4681	00000000	00000013	addi	x0,x0,0	  x0:0x00000000
       46835000	      4682	800039f4	00000013	addi	x0,x0,0	  x0:0x00000000
       46845000	      4683	800039f8	ff5ff46f	jal	x8,800039f8	  x8=0x800039f8
       46855000	      4684	00000000	00000013	addi	x0,x0,0	  x0:0x00000000
       46865000	      4685	800039e8	00000013	addi	x0,x0,0	  x0:0x00000000
       46875000	      4686	800039ec	fe5ff0ef	jal	x1,800039ec	  x1=0x800039ec
       46885000	      4687	00000000	00000013	addi	x0,x0,0	  x0:0x00000000
       46895000	      4688	800039cc	00000013	addi	x0,x0,0	  x0:0x00000000
       46905000	      4689	800039d0	008005ef	jal	x11,800039d0	 x11=0x800039d0
       46915000	      4690	00000000	00000013	addi	x0,x0,0	  x0:0x00000000
       46925000	      4691	800039d4	00000013	addi	x0,x0,0	  x0:0x00000000
       46935000	      4692	800039d8	01c007ef	jal	x15,800039d8	 x15=0x800039d8
       46945000	      4693	00000000	00000013	addi	x0,x0,0	  x0:0x00000000
       46955000	      4694	800039f0	00000013	addi	x0,x0,0	  x0:0x00000000
       46965000	      4695	800039f4	fd5ff0ef	jal	x1,800039f4	  x1=0x800039f4
       46975000	      4696	00000000	00000013	addi	x0,x0,0	  x0:0x00000000
       46985000	      4697	800039c4	00000013	addi	x0,x0,0	  x0:0x00000000
       46995000	      4698	800039c8	004000ef	jal	x1,800039c8	  x1=0x800039c8
       47005000	      4699	00000000	00000013	addi	x0,x0,0	  x0:0x00000000
       47015000	      4700	800039c8	00000013	addi	x0,x0,0	  x0:0x00000000
       47025000	      4701	800039cc	ff9ff36f	jal	x6,800039cc	  x6=0x800039cc
       47035000	      4702	00000000	00000013	addi	x0,x0,0	  x0:0x00000000
       47045000	      4703	800039c0	00000013	addi	x0,x0,0	  x0:0x00000000
       47055000	      4704	800039c4	03c0036f	jal	x6,800039c4	  x6=0x800039c4
       47065000	      4705	00000000	00000013	addi	x0,x0,0	  x0:0x00000000
       47075000	      4706	800039fc	00000013	addi	x0,x0,0	  x0:0x00000000
       47085000	      4707	80003a00	ff1ff0ef	jal	x1,80003a00	  x1=0x80003a00
       47095000	      4708	00000000	00000013	addi	x0,x0,0	  x0:0x00000000
       47105000	      4709	800039ec	00000013	addi	x0,x0,0	  x0:0x00000000
       47115000	      4710	800039f0	014001ef	jal	x3,800039f0	  x3=0x800039f0
       47125000	      4711	00000000	00000013	addi	x0,x0,0	  x0:0x00000000
       47135000	      4712	80003a00	00000013	addi	x0,x0,0	  x0:0x00000000
       47145000	      4713	80003a04	008000ef	jal	x1,80003a04	  x1=0x80003a04
       47155000	      4714	00000000	00000013	addi	x0,x0,0	  x0:0x00000000
       47165000	      4715	80003a08	00000013	addi	x0,x0,0	  x0:0x00000000
       47175000	      4716	80003a0c	016d5fb3	srl	x31,x26,x22	 x26:0x80009f50 x22:0x800039bc x31=0x00000008
       47185000	      4717	80003a10	0480036f	jal	x6,80003a10	  x6=0x80003a10
       47195000	      4718	00000000	00000013	addi	x0,x0,0	  x0:0x00000000
       47205000	      4719	80003a54	00000013	addi	x0,x0,0	  x0:0x00000000
       47215000	      4720	80003a58	fd5ff26f	jal	x4,80003a58	  x4=0x80003a58
       47225000	      4721	00000000	00000013	addi	x0,x0,0	  x0:0x00000000
       47235000	      4722	80003a28	00000013	addi	x0,x0,0	  x0:0x00000000
       47245000	      4723	80003a2c	ff1ff0ef	jal	x1,80003a2c	  x1=0x80003a2c
       47255000	      4724	00000000	00000013	addi	x0,x0,0	  x0:0x00000000
       47265000	      4725	80003a18	00000013	addi	x0,x0,0	  x0:0x00000000
       47275000	      4726	80003a1c	030000ef	jal	x1,80003a1c	  x1=0x80003a1c
       47285000	      4727	00000000	00000013	addi	x0,x0,0	  x0:0x00000000
       47295000	      4728	80003a48	00000013	addi	x0,x0,0	  x0:0x00000000
       47305000	      4729	80003a4c	fc9ff0ef	jal	x1,80003a4c	  x1=0x80003a4c
       47315000	      4730	00000000	00000013	addi	x0,x0,0	  x0:0x00000000
       47325000	      4731	80003a10	00000013	addi	x0,x0,0	  x0:0x00000000
       47335000	      4732	80003a14	0340036f	jal	x6,80003a14	  x6=0x80003a14
       47345000	      4733	00000000	00000013	addi	x0,x0,0	  x0:0x00000000
       47355000	      4734	80003a44	00000013	addi	x0,x0,0	  x0:0x00000000
       47365000	      4735	80003a48	ff1ff0ef	jal	x1,80003a48	  x1=0x80003a48
       47375000	      4736	00000000	00000013	addi	x0,x0,0	  x0:0x00000000
       47385000	      4737	80003a34	00000013	addi	x0,x0,0	  x0:0x00000000
       47395000	      4738	80003a38	01c000ef	jal	x1,80003a38	  x1=0x80003a38
       47405000	      4739	00000000	00000013	addi	x0,x0,0	  x0:0x00000000
       47415000	      4740	80003a50	00000013	addi	x0,x0,0	  x0:0x00000000
       47425000	      4741	80003a54	fd5ff0ef	jal	x1,80003a54	  x1=0x80003a54
       47435000	      4742	00000000	00000013	addi	x0,x0,0	  x0:0x00000000
       47445000	      4743	80003a24	00000013	addi	x0,x0,0	  x0:0x00000000
       47455000	      4744	80003a28	034009ef	jal	x19,80003a28	 x19=0x80003a28
       47465000	      4745	00000000	00000013	addi	x0,x0,0	  x0:0x00000000
       47475000	      4746	80003a58	00000013	addi	x0,x0,0	  x0:0x00000000
       47485000	      4747	80003a5c	fd9ff0ef	jal	x1,80003a5c	  x1=0x80003a5c
       47495000	      4748	00000000	00000013	addi	x0,x0,0	  x0:0x00000000
       47505000	      4749	80003a30	00000013	addi	x0,x0,0	  x0:0x00000000
       47515000	      4750	80003a34	00c00cef	jal	x25,80003a34	 x25=0x80003a34
       47525000	      4751	00000000	00000013	addi	x0,x0,0	  x0:0x00000000
       47535000	      4752	80003a3c	00000013	addi	x0,x0,0	  x0:0x00000000
       47545000	      4753	80003a40	fd9ffbef	jal	x23,80003a40	 x23=0x80003a40
       47555000	      4754	00000000	00000013	addi	x0,x0,0	  x0:0x00000000
       47565000	      4755	80003a14	00000013	addi	x0,x0,0	  x0:0x00000000
       47575000	      4756	80003a18	0240036f	jal	x6,80003a18	  x6=0x80003a18
       47585000	      4757	00000000	00000013	addi	x0,x0,0	  x0:0x00000000
       47595000	      4758	80003a38	00000013	addi	x0,x0,0	  x0:0x00000000
       47605000	      4759	80003a3c	0140086f	jal	x16,80003a3c	 x16=0x80003a3c
       47615000	      4760	00000000	00000013	addi	x0,x0,0	  x0:0x00000000
       47625000	      4761	80003a4c	00000013	addi	x0,x0,0	  x0:0x00000000
       47635000	      4762	80003a50	fd5ff0ef	jal	x1,80003a50	  x1=0x80003a50
       47645000	      4763	00000000	00000013	addi	x0,x0,0	  x0:0x00000000
       47655000	      4764	80003a20	00000013	addi	x0,x0,0	  x0:0x00000000
       47665000	      4765	80003a24	03c000ef	jal	x1,80003a24	  x1=0x80003a24
       47675000	      4766	00000000	00000013	addi	x0,x0,0	  x0:0x00000000
       47685000	      4767	80003a5c	00000013	addi	x0,x0,0	  x0:0x00000000
       47695000	      4768	80003a60	fe5ff7ef	jal	x15,80003a60	 x15=0x80003a60
       47705000	      4769	00000000	00000013	addi	x0,x0,0	  x0:0x00000000
       47715000	      4770	80003a40	00000013	addi	x0,x0,0	  x0:0x00000000
       47725000	      4771	80003a44	fddff26f	jal	x4,80003a44	  x4=0x80003a44
       47735000	      4772	00000000	00000013	addi	x0,x0,0	  x0:0x00000000
       47745000	      4773	80003a1c	00000013	addi	x0,x0,0	  x0:0x00000000
       47755000	      4774	80003a20	010000ef	jal	x1,80003a20	  x1=0x80003a20
       47765000	      4775	00000000	00000013	addi	x0,x0,0	  x0:0x00000000
       47775000	      4776	80003a2c	00000013	addi	x0,x0,0	  x0:0x00000000
       47785000	      4777	80003a30	034000ef	jal	x1,80003a30	  x1=0x80003a30
       47795000	      4778	00000000	00000013	addi	x0,x0,0	  x0:0x00000000
       47805000	      4779	80003a60	00000013	addi	x0,x0,0	  x0:0x00000000
       47815000	      4780	80003a64	cbc0ed93	ori	x27,x1,-836	  x1:0x80003a30 x27=0xfffffebc
       47825000	      4781	80003a68	0080036f	jal	x6,80003a68	  x6=0x80003a68
       47835000	      4782	00000000	00000013	addi	x0,x0,0	  x0:0x00000000
       47845000	      4783	80003a6c	00000013	addi	x0,x0,0	  x0:0x00000000
       47855000	      4784	80003a70	0240046f	jal	x8,80003a70	  x8=0x80003a70
       47865000	      4785	00000000	00000013	addi	x0,x0,0	  x0:0x00000000
       47875000	      4786	80003a90	00000013	addi	x0,x0,0	  x0:0x00000000
       47885000	      4787	80003a94	fe5ff1ef	jal	x3,80003a94	  x3=0x80003a94
       47895000	      4788	00000000	00000013	addi	x0,x0,0	  x0:0x00000000
       47905000	      4789	80003a74	00000013	addi	x0,x0,0	  x0:0x00000000
       47915000	      4790	80003a78	00c000ef	jal	x1,80003a78	  x1=0x80003a78
       47925000	      4791	00000000	00000013	addi	x0,x0,0	  x0:0x00000000
       47935000	      4792	80003a80	00000013	addi	x0,x0,0	  x0:0x00000000
       47945000	      4793	80003a84	ffdffb6f	jal	x22,80003a84	 x22=0x80003a84
       47955000	      4794	00000000	00000013	addi	x0,x0,0	  x0:0x00000000
       47965000	      4795	80003a7c	00000013	addi	x0,x0,0	  x0:0x00000000
       47975000	      4796	80003a80	ff5ff36f	jal	x6,80003a80	  x6=0x80003a80
       47985000	      4797	00000000	00000013	addi	x0,x0,0	  x0:0x00000000
       47995000	      4798	80003a70	00000013	addi	x0,x0,0	  x0:0x00000000
       48005000	      4799	80003a74	02400bef	jal	x23,80003a74	 x23=0x80003a74
       48015000	      4800	00000000	00000013	addi	x0,x0,0	  x0:0x00000000
       48025000	      4801	80003a94	00000013	addi	x0,x0,0	  x0:0x00000000
       48035000	      4802	80003a98	ff9ff0ef	jal	x1,80003a98	  x1=0x80003a98
       48045000	      4803	00000000	00000013	addi	x0,x0,0	  x0:0x00000000
       48055000	      4804	80003a8c	00000013	addi	x0,x0,0	  x0:0x00000000
       48065000	      4805	80003a90	fedff36f	jal	x6,80003a90	  x6=0x80003a90
       48075000	      4806	00000000	00000013	addi	x0,x0,0	  x0:0x00000000
       48085000	      4807	80003a78	00000013	addi	x0,x0,0	  x0:0x00000000
       48095000	      4808	80003a7c	0240036f	jal	x6,80003a7c	  x6=0x80003a7c
       48105000	      4809	00000000	00000013	addi	x0,x0,0	  x0:0x00000000
       48115000	      4810	80003a9c	00000013	addi	x0,x0,0	  x0:0x00000000
       48125000	      4811	80003aa0	fcdff36f	jal	x6,80003aa0	  x6=0x80003aa0
       48135000	      4812	00000000	00000013	addi	x0,x0,0	  x0:0x00000000
       48145000	      4813	80003a68	00000013	addi	x0,x0,0	  x0:0x00000000
       48155000	      4814	80003a6c	030000ef	jal	x1,80003a6c	  x1=0x80003a6c
       48165000	      4815	00000000	00000013	addi	x0,x0,0	  x0:0x00000000
       48175000	      4816	80003a98	00000013	addi	x0,x0,0	  x0:0x00000000
       48185000	      4817	80003a9c	fedff36f	jal	x6,80003a9c	  x6=0x80003a9c
       48195000	      4818	00000000	00000013	addi	x0,x0,0	  x0:0x00000000
       48205000	      4819	80003a84	00000013	addi	x0,x0,0	  x0:0x00000000
       48215000	      4820	80003a88	00400aef	jal	x21,80003a88	 x21=0x80003a88
       48225000	      4821	00000000	00000013	addi	x0,x0,0	  x0:0x00000000
       48235000	      4822	80003a88	00000013	addi	x0,x0,0	  x0:0x00000000
       48245000	      4823	80003a8c	018000ef	jal	x1,80003a8c	  x1=0x80003a8c
       48255000	      4824	00000000	00000013	addi	x0,x0,0	  x0:0x00000000
       48265000	      4825	80003aa0	00000013	addi	x0,x0,0	  x0:0x00000000
       48275000	      4826	80003aa4	7d38a493	slti	x9,x17,2003	 x17:0x000cc000  x9=0x00000000
       48285000	      4827	80003aa8	0180036f	jal	x6,80003aa8	  x6=0x80003aa8
       48295000	      4828	00000000	00000013	addi	x0,x0,0	  x0:0x00000000
       48305000	      4829	80003abc	00000013	addi	x0,x0,0	  x0:0x00000000
       48315000	      4830	80003ac0	020000ef	jal	x1,80003ac0	  x1=0x80003ac0
       48325000	      4831	00000000	00000013	addi	x0,x0,0	  x0:0x00000000
       48335000	      4832	80003adc	00000013	addi	x0,x0,0	  x0:0x00000000
       48345000	      4833	80003ae0	fe5ff0ef	jal	x1,80003ae0	  x1=0x80003ae0
       48355000	      4834	00000000	00000013	addi	x0,x0,0	  x0:0x00000000
       48365000	      4835	80003ac0	00000013	addi	x0,x0,0	  x0:0x00000000
       48375000	      4836	80003ac4	028003ef	jal	x7,80003ac4	  x7=0x80003ac4
       48385000	      4837	00000000	00000013	addi	x0,x0,0	  x0:0x00000000
       48395000	      4838	80003ae8	00000013	addi	x0,x0,0	  x0:0x00000000
       48405000	      4839	80003aec	01c000ef	jal	x1,80003aec	  x1=0x80003aec
       48415000	      4840	00000000	00000013	addi	x0,x0,0	  x0:0x00000000
       48425000	      4841	80003b04	00000013	addi	x0,x0,0	  x0:0x00000000
       48435000	      4842	80003b08	fcdff0ef	jal	x1,80003b08	  x1=0x80003b08
       48445000	      4843	00000000	00000013	addi	x0,x0,0	  x0:0x00000000
       48455000	      4844	80003ad0	00000013	addi	x0,x0,0	  x0:0x00000000
       48465000	      4845	80003ad4	014000ef	jal	x1,80003ad4	  x1=0x80003ad4
       48475000	      4846	00000000	00000013	addi	x0,x0,0	  x0:0x00000000
       48485000	      4847	80003ae4	00000013	addi	x0,x0,0	  x0:0x00000000
       48495000	      4848	80003ae8	fd1ff0ef	jal	x1,80003ae8	  x1=0x80003ae8
       48505000	      4849	00000000	00000013	addi	x0,x0,0	  x0:0x00000000
       48515000	      4850	80003ab4	00000013	addi	x0,x0,0	  x0:0x00000000
       48525000	      4851	80003ab8	014004ef	jal	x9,80003ab8	  x9=0x80003ab8
       48535000	      4852	00000000	00000013	addi	x0,x0,0	  x0:0x00000000
       48545000	      4853	80003ac8	00000013	addi	x0,x0,0	  x0:0x00000000
       48555000	      4854	80003acc	fe9ffe6f	jal	x28,80003acc	 x28=0x80003acc
       48565000	      4855	00000000	00000013	addi	x0,x0,0	  x0:0x00000000
       48575000	      4856	80003ab0	00000013	addi	x0,x0,0	  x0:0x00000000
       48585000	      4857	80003ab4	ff9ff0ef	jal	x1,80003ab4	  x1=0x80003ab4
       48595000	      4858	00000000	00000013	addi	x0,x0,0	  x0:0x00000000
       48605000	      4859	80003aa8	00000013	addi	x0,x0,0	  x0:0x00000000
       48615000	      4860	80003aac	0580026f	jal	x4,80003aac	  x4=0x80003aac
       48625000	      4861	00000000	00000013	addi	x0,x0,0	  x0:0x00000000
       48635000	      4862	80003b00	00000013	addi	x0,x0,0	  x0:0x00000000
       48645000	      4863	80003b04	fb9ff0ef	jal	x1,80003b04	  x1=0x80003b04
       48655000	      4864	00000000	00000013	addi	x0,x0,0	  x0:0x00000000
       48665000	      4865	80003ab8	00000013	addi	x0,x0,0	  x0:0x00000000
       48675000	      4866	80003abc	03c0046f	jal	x8,80003abc	  x8=0x80003abc
       48685000	      4867	00000000	00000013	addi	x0,x0,0	  x0:0x00000000
       48695000	      4868	80003af4	00000013	addi	x0,x0,0	  x0:0x00000000
       48705000	      4869	80003af8	004000ef	jal	x1,80003af8	  x1=0x80003af8
       48715000	      4870	00000000	00000013	addi	x0,x0,0	  x0:0x00000000
       48725000	      4871	80003af8	00000013	addi	x0,x0,0	  x0:0x00000000
       48735000	      4872	80003afc	010000ef	jal	x1,80003afc	  x1=0x80003afc
       48745000	      4873	00000000	00000013	addi	x0,x0,0	  x0:0x00000000
       48755000	      4874	80003b08	00000013	addi	x0,x0,0	  x0:0x00000000
       48765000	      4875	80003b0c	ff5ff26f	jal	x4,80003b0c	  x4=0x80003b0c
       48775000	      4876	00000000	00000013	addi	x0,x0,0	  x0:0x00000000
       48785000	      4877	80003afc	00000013	addi	x0,x0,0	  x0:0x00000000
       48795000	      4878	80003b00	ff5ff4ef	jal	x9,80003b00	  x9=0x80003b00
       48805000	      4879	00000000	00000013	addi	x0,x0,0	  x0:0x00000000
       48815000	      4880	80003af0	00000013	addi	x0,x0,0	  x0:0x00000000
       48825000	      4881	80003af4	fddff36f	jal	x6,80003af4	  x6=0x80003af4
       48835000	      4882	00000000	00000013	addi	x0,x0,0	  x0:0x00000000
       48845000	      4883	80003acc	00000013	addi	x0,x0,0	  x0:0x00000000
       48855000	      4884	80003ad0	fe1ff0ef	jal	x1,80003ad0	  x1=0x80003ad0
       48865000	      4885	00000000	00000013	addi	x0,x0,0	  x0:0x00000000
       48875000	      4886	80003aac	00000013	addi	x0,x0,0	  x0:0x00000000
       48885000	      4887	80003ab0	02c0036f	jal	x6,80003ab0	  x6=0x80003ab0
       48895000	      4888	00000000	00000013	addi	x0,x0,0	  x0:0x00000000
       48905000	      4889	80003ad8	00000013	addi	x0,x0,0	  x0:0x00000000
       48915000	      4890	80003adc	014007ef	jal	x15,80003adc	 x15=0x80003adc
       48925000	      4891	00000000	00000013	addi	x0,x0,0	  x0:0x00000000
       48935000	      4892	80003aec	00000013	addi	x0,x0,0	  x0:0x00000000
       48945000	      4893	80003af0	ff5ff36f	jal	x6,80003af0	  x6=0x80003af0
       48955000	      4894	00000000	00000013	addi	x0,x0,0	  x0:0x00000000
       48965000	      4895	80003ae0	00000013	addi	x0,x0,0	  x0:0x00000000
       48975000	      4896	80003ae4	ff5ff36f	jal	x6,80003ae4	  x6=0x80003ae4
       48985000	      4897	00000000	00000013	addi	x0,x0,0	  x0:0x00000000
       48995000	      4898	80003ad4	00000013	addi	x0,x0,0	  x0:0x00000000
       49005000	      4899	80003ad8	ff1ff0ef	jal	x1,80003ad8	  x1=0x80003ad8
       49015000	      4900	00000000	00000013	addi	x0,x0,0	  x0:0x00000000
       49025000	      4901	80003ac4	00000013	addi	x0,x0,0	  x0:0x00000000
       49035000	      4902	80003ac8	048000ef	jal	x1,80003ac8	  x1=0x80003ac8
       49045000	      4903	00000000	00000013	addi	x0,x0,0	  x0:0x00000000
       49055000	      4904	80003b0c	00000013	addi	x0,x0,0	  x0:0x00000000
       49065000	      4905	80003b10	003a5193	srli	x3,x20,0x3	 x20:0x00000001  x3=0x00000000
       49075000	      4906	80003b14	0200036f	jal	x6,80003b14	  x6=0x80003b14
       49085000	      4907	00000000	00000013	addi	x0,x0,0	  x0:0x00000000
       49095000	      4908	80003b30	00000013	addi	x0,x0,0	  x0:0x00000000
       49105000	      4909	80003b34	004000ef	jal	x1,80003b34	  x1=0x80003b34
       49115000	      4910	00000000	00000013	addi	x0,x0,0	  x0:0x00000000
       49125000	      4911	80003b34	00000013	addi	x0,x0,0	  x0:0x00000000
       49135000	      4912	80003b38	fedff0ef	jal	x1,80003b38	  x1=0x80003b38
       49145000	      4913	00000000	00000013	addi	x0,x0,0	  x0:0x00000000
       49155000	      4914	80003b20	00000013	addi	x0,x0,0	  x0:0x00000000
       49165000	      4915	80003b24	0080036f	jal	x6,80003b24	  x6=0x80003b24
       49175000	      4916	00000000	00000013	addi	x0,x0,0	  x0:0x00000000
       49185000	      4917	80003b28	00000013	addi	x0,x0,0	  x0:0x00000000
       49195000	      4918	80003b2c	0180036f	jal	x6,80003b2c	  x6=0x80003b2c
       49205000	      4919	00000000	00000013	addi	x0,x0,0	  x0:0x00000000
       49215000	      4920	80003b40	00000013	addi	x0,x0,0	  x0:0x00000000
       49225000	      4921	80003b44	fd9ff36f	jal	x6,80003b44	  x6=0x80003b44
       49235000	      4922	00000000	00000013	addi	x0,x0,0	  x0:0x00000000
       49245000	      4923	80003b18	00000013	addi	x0,x0,0	  x0:0x00000000
       49255000	      4924	80003b1c	ffdff36f	jal	x6,80003b1c	  x6=0x80003b1c
       49265000	      4925	00000000	00000013	addi	x0,x0,0	  x0:0x00000000
       49275000	      4926	80003b14	00000013	addi	x0,x0,0	  x0:0x00000000
       49285000	      4927	80003b18	01000f6f	jal	x30,80003b18	 x30=0x80003b18
       49295000	      4928	00000000	00000013	addi	x0,x0,0	  x0:0x00000000
       49305000	      4929	80003b24	00000013	addi	x0,x0,0	  x0:0x00000000
       49315000	      4930	80003b28	014000ef	jal	x1,80003b28	  x1=0x80003b28
       49325000	      4931	00000000	00000013	addi	x0,x0,0	  x0:0x00000000
       49335000	      4932	80003b38	00000013	addi	x0,x0,0	  x0:0x00000000
       49345000	      4933	80003b3c	ff5ff0ef	jal	x1,80003b3c	  x1=0x80003b3c
       49355000	      4934	00000000	00000013	addi	x0,x0,0	  x0:0x00000000
       49365000	      4935	80003b2c	00000013	addi	x0,x0,0	  x0:0x00000000
       49375000	      4936	80003b30	01800a6f	jal	x20,80003b30	 x20=0x80003b30
       49385000	      4937	00000000	00000013	addi	x0,x0,0	  x0:0x00000000
       49395000	      4938	80003b44	00000013	addi	x0,x0,0	  x0:0x00000000
       49405000	      4939	80003b48	ff9ff0ef	jal	x1,80003b48	  x1=0x80003b48
       49415000	      4940	00000000	00000013	addi	x0,x0,0	  x0:0x00000000
       49425000	      4941	80003b3c	00000013	addi	x0,x0,0	  x0:0x00000000
       49435000	      4942	80003b40	fe1ffa6f	jal	x20,80003b40	 x20=0x80003b40
       49445000	      4943	00000000	00000013	addi	x0,x0,0	  x0:0x00000000
       49455000	      4944	80003b1c	00000013	addi	x0,x0,0	  x0:0x00000000
       49465000	      4945	80003b20	02c000ef	jal	x1,80003b20	  x1=0x80003b20
       49475000	      4946	00000000	00000013	addi	x0,x0,0	  x0:0x00000000
       49485000	      4947	80003b48	00000013	addi	x0,x0,0	  x0:0x00000000
       49495000	      4948	80003b4c	40e25713	srai	x14,x4,0xe	  x4:0x80003b0c x14=0xfffe0000
       49505000	      4949	80003b50	0180036f	jal	x6,80003b50	  x6=0x80003b50
       49515000	      4950	00000000	00000013	addi	x0,x0,0	  x0:0x00000000
       49525000	      4951	80003b64	00000013	addi	x0,x0,0	  x0:0x00000000
       49535000	      4952	80003b68	004000ef	jal	x1,80003b68	  x1=0x80003b68
       49545000	      4953	00000000	00000013	addi	x0,x0,0	  x0:0x00000000
       49555000	      4954	80003b68	00000013	addi	x0,x0,0	  x0:0x00000000
       49565000	      4955	80003b6c	0100036f	jal	x6,80003b6c	  x6=0x80003b6c
       49575000	      4956	00000000	00000013	addi	x0,x0,0	  x0:0x00000000
       49585000	      4957	80003b78	00000013	addi	x0,x0,0	  x0:0x00000000
       49595000	      4958	80003b7c	018000ef	jal	x1,80003b7c	  x1=0x80003b7c
       49605000	      4959	00000000	00000013	addi	x0,x0,0	  x0:0x00000000
       49615000	      4960	80003b90	00000013	addi	x0,x0,0	  x0:0x00000000
       49625000	      4961	80003b94	fe5ff0ef	jal	x1,80003b94	  x1=0x80003b94
       49635000	      4962	00000000	00000013	addi	x0,x0,0	  x0:0x00000000
       49645000	      4963	80003b74	00000013	addi	x0,x0,0	  x0:0x00000000
       49655000	      4964	80003b78	0200036f	jal	x6,80003b78	  x6=0x80003b78
       49665000	      4965	00000000	00000013	addi	x0,x0,0	  x0:0x00000000
       49675000	      4966	80003b94	00000013	addi	x0,x0,0	  x0:0x00000000
       49685000	      4967	80003b98	fc9ff56f	jal	x10,80003b98	 x10=0x80003b98
       49695000	      4968	00000000	00000013	addi	x0,x0,0	  x0:0x00000000
       49705000	      4969	80003b5c	00000013	addi	x0,x0,0	  x0:0x00000000
       49715000	      4970	80003b60	014002ef	jal	x5,80003b60	  x5=0x80003b60
       49725000	      4971	00000000	00000013	addi	x0,x0,0	  x0:0x00000000
       49735000	      4972	80003b70	00000013	addi	x0,x0,0	  x0:0x00000000
       49745000	      4973	80003b74	fe5ff36f	jal	x6,80003b74	  x6=0x80003b74
       49755000	      4974	00000000	00000013	addi	x0,x0,0	  x0:0x00000000
       49765000	      4975	80003b54	00000013	addi	x0,x0,0	  x0:0x00000000
       49775000	      4976	80003b58	02c000ef	jal	x1,80003b58	  x1=0x80003b58
       49785000	      4977	00000000	00000013	addi	x0,x0,0	  x0:0x00000000
       49795000	      4978	80003b80	00000013	addi	x0,x0,0	  x0:0x00000000
       49805000	      4979	80003b84	fe1ff36f	jal	x6,80003b84	  x6=0x80003b84
       49815000	      4980	00000000	00000013	addi	x0,x0,0	  x0:0x00000000
       49825000	      4981	80003b60	00000013	addi	x0,x0,0	  x0:0x00000000
       49835000	      4982	80003b64	02800a6f	jal	x20,80003b64	 x20=0x80003b64
       49845000	      4983	00000000	00000013	addi	x0,x0,0	  x0:0x00000000
       49855000	      4984	80003b88	00000013	addi	x0,x0,0	  x0:0x00000000
       49865000	      4985	80003b8c	fd1ff0ef	jal	x1,80003b8c	  x1=0x80003b8c
       49875000	      4986	00000000	00000013	addi	x0,x0,0	  x0:0x00000000
       49885000	      4987	80003b58	00000013	addi	x0,x0,0	  x0:0x00000000
       49895000	      4988	80003b5c	ff9ff0ef	jal	x1,80003b5c	  x1=0x80003b5c
       49905000	      4989	00000000	00000013	addi	x0,x0,0	  x0:0x00000000
       49915000	      4990	80003b50	00000013	addi	x0,x0,0	  x0:0x00000000
       49925000	      4991	80003b54	02c000ef	jal	x1,80003b54	  x1=0x80003b54
       49935000	      4992	00000000	00000013	addi	x0,x0,0	  x0:0x00000000
       49945000	      4993	80003b7c	00000013	addi	x0,x0,0	  x0:0x00000000
       49955000	      4994	80003b80	ff1ff0ef	jal	x1,80003b80	  x1=0x80003b80
       49965000	      4995	00000000	00000013	addi	x0,x0,0	  x0:0x00000000
       49975000	      4996	80003b6c	00000013	addi	x0,x0,0	  x0:0x00000000
       49985000	      4997	80003b70	0180036f	jal	x6,80003b70	  x6=0x80003b70
       49995000	      4998	00000000	00000013	addi	x0,x0,0	  x0:0x00000000
       50005000	      4999	80003b84	00000013	addi	x0,x0,0	  x0:0x00000000
       50015000	      5000	80003b88	008000ef	jal	x1,80003b88	  x1=0x80003b88
       50025000	      5001	00000000	00000013	addi	x0,x0,0	  x0:0x00000000
       50035000	      5002	80003b8c	00000013	addi	x0,x0,0	  x0:0x00000000
       50045000	      5003	80003b90	00c0036f	jal	x6,80003b90	  x6=0x80003b90
       50055000	      5004	00000000	00000013	addi	x0,x0,0	  x0:0x00000000
       50065000	      5005	80003b98	00000013	addi	x0,x0,0	  x0:0x00000000
       50075000	      5006	80003b9c	05cf3293	sltiu	x5,x30,92	 x30:0x80003b18  x5=0x00000000
       50085000	      5007	80003ba0	0280036f	jal	x6,80003ba0	  x6=0x80003ba0
       50095000	      5008	00000000	00000013	addi	x0,x0,0	  x0:0x00000000
       50105000	      5009	80003bc4	00000013	addi	x0,x0,0	  x0:0x00000000
       50115000	      5010	80003bc8	018000ef	jal	x1,80003bc8	  x1=0x80003bc8
       50125000	      5011	00000000	00000013	addi	x0,x0,0	  x0:0x00000000
       50135000	      5012	80003bdc	00000013	addi	x0,x0,0	  x0:0x00000000
       50145000	      5013	80003be0	fe1ff36f	jal	x6,80003be0	  x6=0x80003be0
       50155000	      5014	00000000	00000013	addi	x0,x0,0	  x0:0x00000000
       50165000	      5015	80003bbc	00000013	addi	x0,x0,0	  x0:0x00000000
       50175000	      5016	80003bc0	0040076f	jal	x14,80003bc0	 x14=0x80003bc0
       50185000	      5017	00000000	00000013	addi	x0,x0,0	  x0:0x00000000
       50195000	      5018	80003bc0	00000013	addi	x0,x0,0	  x0:0x00000000
       50205000	      5019	80003bc4	fedff36f	jal	x6,80003bc4	  x6=0x80003bc4
       50215000	      5020	00000000	00000013	addi	x0,x0,0	  x0:0x00000000
       50225000	      5021	80003bac	00000013	addi	x0,x0,0	  x0:0x00000000
       50235000	      5022	80003bb0	ff5ff36f	jal	x6,80003bb0	  x6=0x80003bb0
       50245000	      5023	00000000	00000013	addi	x0,x0,0	  x0:0x00000000
       50255000	      5024	80003ba0	00000013	addi	x0,x0,0	  x0:0x00000000
       50265000	      5025	80003ba4	0180056f	jal	x10,80003ba4	 x10=0x80003ba4
       50275000	      5026	00000000	00000013	addi	x0,x0,0	  x0:0x00000000
       50285000	      5027	80003bb8	00000013	addi	x0,x0,0	  x0:0x00000000
       50295000	      5028	80003bbc	ffdff0ef	jal	x1,80003bbc	  x1=0x80003bbc
       50305000	      5029	00000000	00000013	addi	x0,x0,0	  x0:0x00000000
       50315000	      5030	80003bb4	00000013	addi	x0,x0,0	  x0:0x00000000
       50325000	      5031	80003bb8	02c0036f	jal	x6,80003bb8	  x6=0x80003bb8
       50335000	      5032	00000000	00000013	addi	x0,x0,0	  x0:0x00000000
       50345000	      5033	80003be0	00000013	addi	x0,x0,0	  x0:0x00000000
       50355000	      5034	80003be4	fc5ff0ef	jal	x1,80003be4	  x1=0x80003be4
       50365000	      5035	00000000	00000013	addi	x0,x0,0	  x0:0x00000000
       50375000	      5036	80003ba4	00000013	addi	x0,x0,0	  x0:0x00000000
       50385000	      5037	80003ba8	024000ef	jal	x1,80003ba8	  x1=0x80003ba8
       50395000	      5038	00000000	00000013	addi	x0,x0,0	  x0:0x00000000
       50405000	      5039	80003bc8	00000013	addi	x0,x0,0	  x0:0x00000000
       50415000	      5040	80003bcc	fe1ff26f	jal	x4,80003bcc	  x4=0x80003bcc
       50425000	      5041	00000000	00000013	addi	x0,x0,0	  x0:0x00000000
       50435000	      5042	80003ba8	00000013	addi	x0,x0,0	  x0:0x00000000
       50445000	      5043	80003bac	02c000ef	jal	x1,80003bac	  x1=0x80003bac
       50455000	      5044	00000000	00000013	addi	x0,x0,0	  x0:0x00000000
       50465000	      5045	80003bd4	00000013	addi	x0,x0,0	  x0:0x00000000
       50475000	      5046	80003bd8	00400e6f	jal	x28,80003bd8	 x28=0x80003bd8
       50485000	      5047	00000000	00000013	addi	x0,x0,0	  x0:0x00000000
       50495000	      5048	80003bd8	00000013	addi	x0,x0,0	  x0:0x00000000
       50505000	      5049	80003bdc	fd9ff36f	jal	x6,80003bdc	  x6=0x80003bdc
       50515000	      5050	00000000	00000013	addi	x0,x0,0	  x0:0x00000000
       50525000	      5051	80003bb0	00000013	addi	x0,x0,0	  x0:0x00000000
       50535000	      5052	80003bb4	020001ef	jal	x3,80003bb4	  x3=0x80003bb4
       50545000	      5053	00000000	00000013	addi	x0,x0,0	  x0:0x00000000
       50555000	      5054	80003bd0	00000013	addi	x0,x0,0	  x0:0x00000000
       50565000	      5055	80003bd4	ffdff0ef	jal	x1,80003bd4	  x1=0x80003bd4
       50575000	      5056	00000000	00000013	addi	x0,x0,0	  x0:0x00000000
       50585000	      5057	80003bcc	00000013	addi	x0,x0,0	  x0:0x00000000
       50595000	      5058	80003bd0	0180036f	jal	x6,80003bd0	  x6=0x80003bd0
       50605000	      5059	00000000	00000013	addi	x0,x0,0	  x0:0x00000000
       50615000	      5060	80003be4	00000013	addi	x0,x0,0	  x0:0x00000000
       50625000	      5061	80003be8	004004ef	jal	x9,80003be8	  x9=0x80003be8
       50635000	      5062	00000000	00000013	addi	x0,x0,0	  x0:0x00000000
       50645000	      5063	80003be8	00000013	addi	x0,x0,0	  x0:0x00000000
       50655000	      5064	80003bec	01a59b33	sll	x22,x11,x26	 x11:0x800039d0 x26:0x80009f50 x22=0x39d00000
       50665000	      5065	80003bf0	0200036f	jal	x6,80003bf0	  x6=0x80003bf0
       50675000	      5066	00000000	00000013	addi	x0,x0,0	  x0:0x00000000
       50685000	      5067	80003c0c	00000013	addi	x0,x0,0	  x0:0x00000000
       50695000	      5068	80003c10	0240036f	jal	x6,80003c10	  x6=0x80003c10
       50705000	      5069	00000000	00000013	addi	x0,x0,0	  x0:0x00000000
       50715000	      5070	80003c30	00000013	addi	x0,x0,0	  x0:0x00000000
       50725000	      5071	80003c34	ff5ff36f	jal	x6,80003c34	  x6=0x80003c34
       50735000	      5072	00000000	00000013	addi	x0,x0,0	  x0:0x00000000
       50745000	      5073	80003c24	00000013	addi	x0,x0,0	  x0:0x00000000
       50755000	      5074	80003c28	028000ef	jal	x1,80003c28	  x1=0x80003c28
       50765000	      5075	00000000	00000013	addi	x0,x0,0	  x0:0x00000000
       50775000	      5076	80003c4c	00000013	addi	x0,x0,0	  x0:0x00000000
       50785000	      5077	80003c50	ff5ff0ef	jal	x1,80003c50	  x1=0x80003c50
       50795000	      5078	00000000	00000013	addi	x0,x0,0	  x0:0x00000000
       50805000	      5079	80003c40	00000013	addi	x0,x0,0	  x0:0x00000000
       50815000	      5080	80003c44	fe9ff2ef	jal	x5,80003c44	  x5=0x80003c44
       50825000	      5081	00000000	00000013	addi	x0,x0,0	  x0:0x00000000
       50835000	      5082	80003c28	00000013	addi	x0,x0,0	  x0:0x00000000
       50845000	      5083	80003c2c	004000ef	jal	x1,80003c2c	  x1=0x80003c2c
       50855000	      5084	00000000	00000013	addi	x0,x0,0	  x0:0x00000000
       50865000	      5085	80003c2c	00000013	addi	x0,x0,0	  x0:0x00000000
       50875000	      5086	80003c30	fddff0ef	jal	x1,80003c30	  x1=0x80003c30
       50885000	      5087	00000000	00000013	addi	x0,x0,0	  x0:0x00000000
       50895000	      5088	80003c08	00000013	addi	x0,x0,0	  x0:0x00000000
       50905000	      5089	80003c0c	04c000ef	jal	x1,80003c0c	  x1=0x80003c0c
       50915000	      5090	00000000	00000013	addi	x0,x0,0	  x0:0x00000000
       50925000	      5091	80003c54	00000013	addi	x0,x0,0	  x0:0x00000000
       50935000	      5092	80003c58	fa5ff0ef	jal	x1,80003c58	  x1=0x80003c58
       50945000	      5093	00000000	00000013	addi	x0,x0,0	  x0:0x00000000
       50955000	      5094	80003bf8	00000013	addi	x0,x0,0	  x0:0x00000000
       50965000	      5095	80003bfc	03c000ef	jal	x1,80003bfc	  x1=0x80003bfc
       50975000	      5096	00000000	00000013	addi	x0,x0,0	  x0:0x00000000
       50985000	      5097	80003c34	00000013	addi	x0,x0,0	  x0:0x00000000
       50995000	      5098	80003c38	0040036f	jal	x6,80003c38	  x6=0x80003c38
       51005000	      5099	00000000	00000013	addi	x0,x0,0	  x0:0x00000000
       51015000	      5100	80003c38	00000013	addi	x0,x0,0	  x0:0x00000000
       51025000	      5101	80003c3c	fc9ff36f	jal	x6,80003c3c	  x6=0x80003c3c
       51035000	      5102	00000000	00000013	addi	x0,x0,0	  x0:0x00000000
       51045000	      5103	80003c00	00000013	addi	x0,x0,0	  x0:0x00000000
       51055000	      5104	80003c04	0480036f	jal	x6,80003c04	  x6=0x80003c04
       51065000	      5105	00000000	00000013	addi	x0,x0,0	  x0:0x00000000
       51075000	      5106	80003c48	00000013	addi	x0,x0,0	  x0:0x00000000
       51085000	      5107	80003c4c	ffdff1ef	jal	x3,80003c4c	  x3=0x80003c4c
       51095000	      5108	00000000	00000013	addi	x0,x0,0	  x0:0x00000000
       51105000	      5109	80003c44	00000013	addi	x0,x0,0	  x0:0x00000000
       51115000	      5110	80003c48	fb1ff9ef	jal	x19,80003c48	 x19=0x80003c48
       51125000	      5111	00000000	00000013	addi	x0,x0,0	  x0:0x00000000
       51135000	      5112	80003bf4	00000013	addi	x0,x0,0	  x0:0x00000000
       51145000	      5113	80003bf8	0480026f	jal	x4,80003bf8	  x4=0x80003bf8
       51155000	      5114	00000000	00000013	addi	x0,x0,0	  x0:0x00000000
       51165000	      5115	80003c3c	00000013	addi	x0,x0,0	  x0:0x00000000
       51175000	      5116	80003c40	014000ef	jal	x1,80003c40	  x1=0x80003c40
       51185000	      5117	00000000	00000013	addi	x0,x0,0	  x0:0x00000000
       51195000	      5118	80003c50	00000013	addi	x0,x0,0	  x0:0x00000000
       51205000	      5119	80003c54	fb5ff0ef	jal	x1,80003c54	  x1=0x80003c54
       51215000	      5120	00000000	00000013	addi	x0,x0,0	  x0:0x00000000
       51225000	      5121	80003c04	00000013	addi	x0,x0,0	  x0:0x00000000
       51235000	      5122	80003c08	018000ef	jal	x1,80003c08	  x1=0x80003c08
       51245000	      5123	00000000	00000013	addi	x0,x0,0	  x0:0x00000000
       51255000	      5124	80003c1c	00000013	addi	x0,x0,0	  x0:0x00000000
       51265000	      5125	80003c20	ff5ff0ef	jal	x1,80003c20	  x1=0x80003c20
       51275000	      5126	00000000	00000013	addi	x0,x0,0	  x0:0x00000000
       51285000	      5127	80003c10	00000013	addi	x0,x0,0	  x0:0x00000000
       51295000	      5128	80003c14	0040036f	jal	x6,80003c14	  x6=0x80003c14
       51305000	      5129	00000000	00000013	addi	x0,x0,0	  x0:0x00000000
       51315000	      5130	80003c14	00000013	addi	x0,x0,0	  x0:0x00000000
       51325000	      5131	80003c18	fddff3ef	jal	x7,80003c18	  x7=0x80003c18
       51335000	      5132	00000000	00000013	addi	x0,x0,0	  x0:0x00000000
       51345000	      5133	80003bf0	00000013	addi	x0,x0,0	  x0:0x00000000
       51355000	      5134	80003bf4	030007ef	jal	x15,80003bf4	 x15=0x80003bf4
       51365000	      5135	00000000	00000013	addi	x0,x0,0	  x0:0x00000000
       51375000	      5136	80003c20	00000013	addi	x0,x0,0	  x0:0x00000000
       51385000	      5137	80003c24	fddff1ef	jal	x3,80003c24	  x3=0x80003c24
       51395000	      5138	00000000	00000013	addi	x0,x0,0	  x0:0x00000000
       51405000	      5139	80003bfc	00000013	addi	x0,x0,0	  x0:0x00000000
       51415000	      5140	80003c00	01c0036f	jal	x6,80003c00	  x6=0x80003c00
       51425000	      5141	00000000	00000013	addi	x0,x0,0	  x0:0x00000000
       51435000	      5142	80003c18	00000013	addi	x0,x0,0	  x0:0x00000000
       51445000	      5143	80003c1c	04000b6f	jal	x22,80003c1c	 x22=0x80003c1c
       51455000	      5144	00000000	00000013	addi	x0,x0,0	  x0:0x00000000
       51465000	      5145	80003c58	00000013	addi	x0,x0,0	  x0:0x00000000
       51475000	      5146	80003c5c	40275233	sra	x4,x14,x2	 x14:0x80003bc0  x2:0x80009fc4  x4=0xf80003bc
       51485000	      5147	80003c60	01b66863	bltu	x12,x27,80003c70	 x12:0x800039c0 x27:0xfffffebc
       51495000	      5148	00000000	00000013	addi	x0,x0,0	  x0:0x00000000
       51505000	      5149	80003c6c	00000013	addi	x0,x0,0	  x0:0x00000000
       51515000	      5150	80003c70	a29db913	sltiu	x18,x27,-1495	 x27:0xfffffebc x18=0x00000000
       51525000	      5151	80003c74	01eb1c33	sll	x24,x22,x30	 x22:0x80003c1c x30:0x80003b18 x24=0x1c000000
       51535000	      5152	80003c78	51706697	auipc	x13,0x51706	 x13=0xd1709c74
       51545000	      5153	80003c7c	01840c63	beq	x8,x24,80003c94	  x8:0x80003abc x24:0x1c000000
       51555000	      5154	80003c80	0412f863	bgeu	x5,x1,80003cd0	  x5:0x80003c44  x1:0x80003c20
       51565000	      5155	00000000	00000013	addi	x0,x0,0	  x0:0x00000000
       51575000	      5156	80003ccc	00000013	addi	x0,x0,0	  x0:0x00000000
       51585000	      5157	80003cd0	0040dbb3	srl	x23,x1,x4	  x1:0x80003c20  x4:0xf80003bc x23=0x00000008
       51595000	      5158	80003cd4	01a16e63	bltu	x2,x26,80003cf0	  x2:0x80009fc4 x26:0x80009f50
       51605000	      5159	80003cd8	00d60863	beq	x12,x13,80003ce8	 x12:0x800039c0 x13:0xd1709c74
       51615000	      5160	80003cdc	03b0d863	bge	x1,x27,80003d0c	  x1:0x80003c20 x27:0xfffffebc
       51625000	      5161	80003ce0	051c4263	blt	x24,x17,80003d24	 x24:0x1c000000 x17:0x000cc000
       51635000	      5162	80003ce4	0114a4b3	slt	x9,x9,x17	  x9:0x80003be8 x17:0x000cc000  x9=0x00000001
       51645000	      5163	80003ce8	40e40bb3	sub	x23,x8,x14	  x8:0x80003abc x14:0x80003bc0 x23=0xfffffefc
       51655000	      5164	80003cec	013c94b3	sll	x9,x25,x19	 x25:0x80003a34 x19:0x80003c48  x9=0x003a3400
       51665000	      5165	80003cf0	0196c333	xor	x6,x13,x25	 x13:0xd1709c74 x25:0x80003a34  x6=0x5170a640
       51675000	      5166	80003cf4	1f2ff093	andi	x1,x31,498	 x31:0x00000008  x1=0x00000000
       51685000	      5167	80003cf8	4123d833	sra	x16,x7,x18	  x7:0x80003c18 x18:0x00000000 x16=0x80003c18
       51695000	      5168	80003cfc	02b8fc63	bgeu	x17,x11,80003d34	 x17:0x000cc000 x11:0x800039d0
       51705000	      5169	80003d00	0196c533	xor	x10,x13,x25	 x13:0xd1709c74 x25:0x80003a34 x10=0x5170a640
       51715000	      5170	80003d04	012aac33	slt	x24,x21,x18	 x21:0x80003a88 x18:0x00000000 x24=0x00000001
       51725000	      5171	80003d08	00000013	addi	x0,x0,0	  x0:0x00000000
       51735000	      5172	80003d0c	1f16b413	sltiu	x8,x13,497	 x13:0xd1709c74  x8=0x00000000
       51745000	      5173	80003d10	03c30a63	beq	x6,x28,80003d44	  x6:0x5170a640 x28:0x80003bd8
       51755000	      5174	80003d14	9cf80913	addi	x18,x16,-1585	 x16:0x80003c18 x18=0x800035e7
       51765000	      5175	80003d18	d2ffc093	xori	x1,x31,-721	 x31:0x00000008  x1=0xfffffd27
       51775000	      5176	80003d1c	40ba52b3	sra	x5,x20,x11	 x20:0x80003b64 x11:0x800039d0  x5=0xffff8000
       51785000	      5177	80003d20	0074b6b3	sltu	x13,x9,x7	  x9:0x003a3400  x7:0x80003c18 x13=0x00000001
       51795000	      5178	80003d24	01e4f1b7	lui	x3,0x1e4f	  x3=0x01e4f000
       51805000	      5179	80003d28	014a4cb3	xor	x25,x20,x20	 x20:0x80003b64 x20:0x80003b64 x25=0x00000000
       51815000	      5180	80003d2c	00000013	addi	x0,x0,0	  x0:0x00000000
       51825000	      5181	80003d30	0148b0b3	sltu	x1,x17,x20	 x17:0x000cc000 x20:0x80003b64  x1=0x00000001
       51835000	      5182	80003d34	04249063	bne	x9,x2,80003d74	  x9:0x003a3400  x2:0x80009fc4
       51845000	      5183	00000000	00000013	addi	x0,x0,0	  x0:0x00000000
       51855000	      5184	80003d70	00000013	addi	x0,x0,0	  x0:0x00000000
       51865000	      5185	80003d74	0151da13	srli	x20,x3,0x15	  x3:0x01e4f000 x20=0x0000000f
       51875000	      5186	80003d78	a878c493	xori	x9,x17,-1401	 x17:0x000cc000  x9=0xfff33a87
       51885000	      5187	80003d7c	41035513	srai	x10,x6,0x10	  x6:0x5170a640 x10=0x00005170
       51895000	      5188	80003d80	01001463	bne	x0,x16,80003d88	  x0:0x00000000 x16:0x80003c18
       51905000	      5189	00000000	00000013	addi	x0,x0,0	  x0:0x00000000
       51915000	      5190	80003d84	00000013	addi	x0,x0,0	  x0:0x00000000
       51925000	      5191	80003d88	03628463	beq	x5,x22,80003db0	  x5:0xffff8000 x22:0x80003c1c
       51935000	      5192	80003d8c	0090d6b3	srl	x13,x1,x9	  x1:0x00000001  x9:0xfff33a87 x13=0x00000000
       51945000	      5193	80003d90	01ce5e13	srli	x28,x28,0x1c	 x28:0x80003bd8 x28=0x00000008
       51955000	      5194	80003d94	43c15e37	lui	x28,0x43c15	 x28=0x43c15000
       51965000	      5195	80003d98	410b5a13	srai	x20,x22,0x10	 x22:0x80003c1c x20=0xffff8000
       51975000	      5196	80003d9c	35802a13	slti	x20,x0,856	  x0:0x00000000 x20=0x00000001
       51985000	      5197	80003da0	00d0edb3	or	x27,x1,x13	  x1:0x00000001 x13:0x00000000 x27=0x00000001
       51995000	      5198	80003da4	01cd5c63	bge	x26,x28,80003dbc	 x26:0x80009f50 x28:0x43c15000
       52005000	      5199	80003da8	05509463	bne	x1,x21,80003df0	  x1:0x00000001 x21:0x80003a88
       52015000	      5200	00000000	00000013	addi	x0,x0,0	  x0:0x00000000
       52025000	      5201	80003dec	00000013	addi	x0,x0,0	  x0:0x00000000
       52035000	      5202	80003df0	00214263	blt	x2,x2,80003df4	  x2:0x80009fc4  x2:0x80009fc4
       52045000	      5203	80003df4	40075913	srai	x18,x14,0x0	 x14:0x80003bc0 x18=0x80003bc0
       52055000	      5204	80003df8	019587b3	add	x15,x11,x25	 x11:0x800039d0 x25:0x00000000 x15=0x800039d0
       52065000	      5205	80003dfc	02955c63	bge	x10,x9,80003e34	 x10:0x00005170  x9:0xfff33a87
       52075000	      5206	00000000	00000013	addi	x0,x0,0	  x0:0x00000000
       52085000	      5207	80003e30	00000013	addi	x0,x0,0	  x0:0x00000000
       52095000	      5208	80003e34	60124393	xori	x7,x4,1537	  x4:0xf80003bc  x7=0xf80005bd
       52105000	      5209	80003e38	39dc17b7	lui	x15,0x39dc1	 x15=0x39dc1000
       52115000	      5210	80003e3c	1b204e13	xori	x28,x0,434	  x0:0x00000000 x28=0x000001b2
       52125000	      5211	80003e40	0074ebb3	or	x23,x9,x7	  x9:0xfff33a87  x7:0xf80005bd x23=0xfff33fbf
       52135000	      5212	80003e44	0168e8b3	or	x17,x17,x22	 x17:0x000cc000 x22:0x80003c1c x17=0x800cfc1c
       52145000	      5213	80003e48	00d83533	sltu	x10,x16,x13	 x16:0x80003c18 x13:0x00000000 x10=0x00000000
       52155000	      5214	80003e4c	5f154993	xori	x19,x10,1521	 x10:0x00000000 x19=0x000005f1
       52165000	      5215	80003e50	01d735b3	sltu	x11,x14,x29	 x14:0x80003bc0 x29:0xf22f49ae x11=0x00000001
       52175000	      5216	80003e54	4056d693	srai	x13,x13,0x5	 x13:0x00000000 x13=0x00000000
       52185000	      5217	80003e58	005b5533	srl	x10,x22,x5	 x22:0x80003c1c  x5:0xffff8000 x10=0x80003c1c
       52195000	      5218	80003e5c	01a8ea63	bltu	x17,x26,80003e70	 x17:0x800cfc1c x26:0x80009f50
       52205000	      5219	80003e60	a4ce7037	lui	x0,0xa4ce7	
       52215000	      5220	80003e64	00000013	addi	x0,x0,0	  x0:0x00000000
       52225000	      5221	80003e68	b9934c93	xori	x25,x6,-1127	  x6:0x5170a640 x25=0xae8f5dd9
       52235000	      5222	80003e6c	0047d533	srl	x10,x15,x4	 x15:0x39dc1000  x4:0xf80003bc x10=0x00000003
       52245000	      5223	80003e70	02787663	bgeu	x16,x7,80003e9c	 x16:0x80003c18  x7:0xf80005bd
       52255000	      5224	80003e74	56fb8897	auipc	x17,0x56fb8	 x17=0xd6fbbe70
       52265000	      5225	80003e78	00ae80b3	add	x1,x29,x10	 x29:0xf22f49ae x10:0x00000003  x1=0xf22f49b1
       52275000	      5226	80003e7c	6de92f13	slti	x30,x18,1758	 x18:0x80003bc0 x30=0x00000001
       52285000	      5227	80003e80	ef532513	slti	x10,x6,-267	  x6:0x5170a640 x10=0x00000000
       52295000	      5228	80003e84	009417b3	sll	x15,x8,x9	  x8:0x00000000  x9:0xfff33a87 x15=0x00000000
       52305000	      5229	80003e88	0009cf33	xor	x30,x19,x0	 x19:0x000005f1  x0:0x00000000 x30=0x000005f1
       52315000	      5230	80003e8c	00dff3b3	and	x7,x31,x13	 x31:0x00000008 x13:0x00000000  x7=0x00000000
       52325000	      5231	80003e90	01aed633	srl	x12,x29,x26	 x29:0xf22f49ae x26:0x80009f50 x12=0x0000f22f
       52335000	      5232	80003e94	5bff2017	auipc	x0,0x5bff2	
       52345000	      5233	80003e98	05106463	bltu	x0,x17,80003ee0	  x0:0x00000000 x17:0xd6fbbe70
       52355000	      5234	00000000	00000013	addi	x0,x0,0	  x0:0x00000000
       52365000	      5235	80003edc	00000013	addi	x0,x0,0	  x0:0x00000000
       52375000	      5236	80003ee0	2939f013	andi	x0,x19,659	 x19:0x000005f1
       52385000	      5237	80003ee4	00db2b33	slt	x22,x22,x13	 x22:0x80003c1c x13:0x00000000 x22=0x00000001
       52395000	      5238	80003ee8	012ae4b3	or	x9,x21,x18	 x21:0x80003a88 x18:0x80003bc0  x9=0x80003bc8
       52405000	      5239	80003eec	0054bcb3	sltu	x25,x9,x5	  x9:0x80003bc8  x5:0xffff8000 x25=0x00000001
       52415000	      5240	80003ef0	7c598093	addi	x1,x19,1989	 x19:0x000005f1  x1=0x00000db6
       52425000	      5241	80003ef4	04f0f063	bgeu	x1,x15,80003f34	  x1:0x00000db6 x15:0x00000000
       52435000	      5242	00000000	00000013	addi	x0,x0,0	  x0:0x00000000
       52445000	      5243	80003f30	00000013	addi	x0,x0,0	  x0:0x00000000
       52455000	      5244	80003f34	006cca33	xor	x20,x25,x6	 x25:0x00000001  x6:0x5170a640 x20=0x5170a641
       52465000	      5245	80003f38	8e347993	andi	x19,x8,-1821	  x8:0x00000000 x19=0x00000000
       52475000	      5246	80003f3c	007de463	bltu	x27,x7,80003f44	 x27:0x00000001  x7:0x00000000
       52485000	      5247	80003f40	02cb5463	bge	x22,x12,80003f68	 x22:0x00000001 x12:0x0000f22f
       52495000	      5248	80003f44	1f6c4f13	xori	x30,x24,502	 x24:0x00000001 x30=0x000001f7
       52505000	      5249	80003f48	40a155b3	sra	x11,x2,x10	  x2:0x80009fc4 x10:0x00000000 x11=0x80009fc4
       52515000	      5250	80003f4c	0d3e8b93	addi	x23,x29,211	 x29:0xf22f49ae x23=0xf22f4a81
       52525000	      5251	80003f50	21c96093	ori	x1,x18,540	 x18:0x80003bc0  x1=0x80003bdc
       52535000	      5252	80003f54	40f78b33	sub	x22,x15,x15	 x15:0x00000000 x15:0x00000000 x22=0x00000000
       52545000	      5253	80003f58	00667c63	bgeu	x12,x6,80003f70	 x12:0x0000f22f  x6:0x5170a640
       52555000	      5254	80003f5c	00621633	sll	x12,x4,x6	  x4:0xf80003bc  x6:0x5170a640 x12=0xf80003bc
       52565000	      5255	80003f60	010398b3	sll	x17,x7,x16	  x7:0x00000000 x16:0x80003c18 x17=0x00000000
       52575000	      5256	80003f64	01dba3b3	slt	x7,x23,x29	 x23:0xf22f4a81 x29:0xf22f49ae  x7=0x00000000
       52585000	      5257	80003f68	020bcc63	blt	x23,x0,80003fa0	 x23:0xf22f4a81  x0:0x00000000
       52595000	      5258	00000000	00000013	addi	x0,x0,0	  x0:0x00000000
       52605000	      5259	80003f9c	00000013	addi	x0,x0,0	  x0:0x00000000
       52615000	      5260	80003fa0	1dbaba93	sltiu	x21,x21,475	 x21:0x80003a88 x21=0x00000000
       52625000	      5261	80003fa4	9e618d97	auipc	x27,0x9e618	 x27=0x1e61bfa0
       52635000	      5262	80003fa8	40c85db3	sra	x27,x16,x12	 x16:0x80003c18 x12:0xf80003bc x27=0xfffffff8
       52645000	      5263	80003fac	5be4b313	sltiu	x6,x9,1470	  x9:0x80003bc8  x6=0x00000000
       52655000	      5264	80003fb0	01288a33	add	x20,x17,x18	 x17:0x00000000 x18:0x80003bc0 x20=0x80003bc0
       52665000	      5265	80003fb4	45c57513	andi	x10,x10,1116	 x10:0x00000000 x10=0x00000000
       52675000	      5266	80003fb8	0089b5b3	sltu	x11,x19,x8	 x19:0x00000000  x8:0x00000000 x11=0x00000000
       52685000	      5267	80003fbc	7b3c9ab7	lui	x21,0x7b3c9	 x21=0x7b3c9000
       52695000	      5268	80003fc0	41690733	sub	x14,x18,x22	 x18:0x80003bc0 x22:0x00000000 x14=0x80003bc0
       52705000	      5269	80003fc4	03dd7663	bgeu	x26,x29,80003ff0	 x26:0x80009f50 x29:0xf22f49ae
       52715000	      5270	80003fc8	00df32b3	sltu	x5,x30,x13	 x30:0x000001f7 x13:0x00000000  x5=0x00000000
       52725000	      5271	80003fcc	05ed4463	blt	x26,x30,80004014	 x26:0x80009f50 x30:0x000001f7
       52735000	      5272	00000000	00000013	addi	x0,x0,0	  x0:0x00000000
       52745000	      5273	80004010	00000013	addi	x0,x0,0	  x0:0x00000000
       52755000	      5274	80004014	00696533	or	x10,x18,x6	 x18:0x80003bc0  x6:0x00000000 x10=0x80003bc0
       52765000	      5275	80004018	41c78a33	sub	x20,x15,x28	 x15:0x00000000 x28:0x000001b2 x20=0xfffffe4e
       52775000	      5276	8000401c	3845dab7	lui	x21,0x3845d	 x21=0x3845d000
       52785000	      5277	80004020	017d6cb3	or	x25,x26,x23	 x26:0x80009f50 x23:0xf22f4a81 x25=0xf22fdfd1
       52795000	      5278	80004024	025c6463	bltu	x24,x5,8000404c	 x24:0x00000001  x5:0x00000000
       52805000	      5279	80004028	c9920993	addi	x19,x4,-871	  x4:0xf80003bc x19=0xf8000055
       52815000	      5280	8000402c	af68c393	xori	x7,x17,-1290	 x17:0x00000000  x7=0xfffffaf6
       52825000	      5281	80004030	01d9e833	or	x16,x19,x29	 x19:0xf8000055 x29:0xf22f49ae x16=0xfa2f49ff
       52835000	      5282	80004034	03507463	bgeu	x0,x21,8000405c	  x0:0x00000000 x21:0x3845d000
       52845000	      5283	80004038	044e0a93	addi	x21,x28,68	 x28:0x000001b2 x21=0x000001f6
       52855000	      5284	8000403c	01106e33	or	x28,x0,x17	  x0:0x00000000 x17:0x00000000 x28=0x00000000
       52865000	      5285	80004040	00f05913	srli	x18,x0,0xf	  x0:0x00000000 x18=0x00000000
       52875000	      5286	80004044	04cc9463	bne	x25,x12,8000408c	 x25:0xf22fdfd1 x12:0xf80003bc
       52885000	      5287	00000000	00000013	addi	x0,x0,0	  x0:0x00000000
       52895000	      5288	80004088	00000013	addi	x0,x0,0	  x0:0x00000000
       52905000	      5289	8000408c	f22592b7	lui	x5,0xf2259	  x5=0xf2259000
       52915000	      5290	80004090	132afa13	andi	x20,x21,306	 x21:0x000001f6 x20=0x00000132
       52925000	      5291	80004094	8f843d93	sltiu	x27,x8,-1800	  x8:0x00000000 x27=0x00000001
       52935000	      5292	80004098	00d91013	slli	x0,x18,0xd	 x18:0x00000000
       52945000	      5293	8000409c	0390e463	bltu	x1,x25,800040c4	  x1:0x80003bdc x25:0xf22fdfd1
       52955000	      5294	00000000	00000013	addi	x0,x0,0	  x0:0x00000000
       52965000	      5295	800040c0	00000013	addi	x0,x0,0	  x0:0x00000000
       52975000	      5296	800040c4	40f68c33	sub	x24,x13,x15	 x13:0x00000000 x15:0x00000000 x24=0x00000000
       52985000	      5297	800040c8	0164afb3	slt	x31,x9,x22	  x9:0x80003bc8 x22:0x00000000 x31=0x00000001
       52995000	      5298	800040cc	01cf55b3	srl	x11,x30,x28	 x30:0x000001f7 x28:0x00000000 x11=0x000001f7
       53005000	      5299	800040d0	014e06b3	add	x13,x28,x20	 x28:0x00000000 x20:0x00000132 x13=0x00000132
       53015000	      5300	800040d4	00710e33	add	x28,x2,x7	  x2:0x80009fc4  x7:0xfffffaf6 x28=0x80009aba
       53025000	      5301	800040d8	01ce9c33	sll	x24,x29,x28	 x29:0xf22f49ae x28:0x80009aba x24=0xb8000000
       53035000	      5302	800040dc	47c43ab7	lui	x21,0x47c43	 x21=0x47c43000
       53045000	      5303	800040e0	0ca00813	addi	x16,x0,202	  x0:0x00000000 x16=0x000000ca
       53055000	      5304	800040e4	01e76fb3	or	x31,x14,x30	 x14:0x80003bc0 x30:0x000001f7 x31=0x80003bf7
       53065000	      5305	800040e8	ce066393	ori	x7,x12,-800	 x12:0xf80003bc  x7=0xfffffffc
       53075000	      5306	800040ec	00ca7db3	and	x27,x20,x12	 x20:0x00000132 x12:0xf80003bc x27=0x00000130
       53085000	      5307	800040f0	f7a39a17	auipc	x20,0xf7a39	 x20=0x77a3d0ec
       53095000	      5308	800040f4	c15c7813	andi	x16,x24,-1003	 x24:0xb8000000 x16=0xb8000000
       53105000	      5309	800040f8	049e0263	beq	x28,x9,8000413c	 x28:0x80009aba  x9:0x80003bc8
       53115000	      5310	800040fc	003a09b3	add	x19,x20,x3	 x20:0x77a3d0ec  x3:0x01e4f000 x19=0x7988c0ec
       53125000	      5311	80004100	2cc7f913	andi	x18,x15,716	 x15:0x00000000 x18=0x00000000
       53135000	      5312	80004104	0517f463	bgeu	x15,x17,8000414c	 x15:0x00000000 x17:0x00000000
       53145000	      5313	00000000	00000013	addi	x0,x0,0	  x0:0x00000000
       53155000	      5314	80004148	00000013	addi	x0,x0,0	  x0:0x00000000
       53165000	      5315	8000414c	082c1863	bne	x24,x2,800041dc	 x24:0xb8000000  x2:0x80009fc4
       53175000	      5316	00000000	00000013	addi	x0,x0,0	  x0:0x00000000
       53185000	      5317	800041d8	00000013	addi	x0,x0,0	  x0:0x00000000
       53195000	      5318	800041dc	8eeab713	sltiu	x14,x21,-1810	 x21:0x47c43000 x14=0x00000001
       53205000	      5319	800041e0	492ee593	ori	x11,x29,1170	 x29:0xf22f49ae x11=0xf22f4dbe
       53215000	      5320	800041e4	039b1463	bne	x22,x25,8000420c	 x22:0x00000000 x25:0xf22fdfd1
       53225000	      5321	00000000	00000013	addi	x0,x0,0	  x0:0x00000000
       53235000	      5322	80004208	00000013	addi	x0,x0,0	  x0:0x00000000
       53245000	      5323	8000420c	41d3d213	srai	x4,x7,0x1d	  x7:0xfffffffc  x4=0xffffffff
       53255000	      5324	80004210	40f4d293	srai	x5,x9,0xf	  x9:0x80003bc8  x5=0xffff0000
       53265000	      5325	80004214	034c9863	bne	x25,x20,80004244	 x25:0xf22fdfd1 x20:0x77a3d0ec
       53275000	      5326	00000000	00000013	addi	x0,x0,0	  x0:0x00000000
       53285000	      5327	80004240	00000013	addi	x0,x0,0	  x0:0x00000000
       53295000	      5328	80004244	02a9ee63	bltu	x19,x10,80004280	 x19:0x7988c0ec x10:0x80003bc0
       53305000	      5329	00000000	00000013	addi	x0,x0,0	  x0:0x00000000
       53315000	      5330	8000427c	00000013	addi	x0,x0,0	  x0:0x00000000
       53325000	      5331	80004280	009c59b3	srl	x19,x24,x9	 x24:0xb8000000  x9:0x80003bc8 x19=0x00b80000
       53335000	      5332	80004284	00701f93	slli	x31,x0,0x7	  x0:0x00000000 x31=0x00000000
       53345000	      5333	80004288	411edb93	srai	x23,x29,0x11	 x29:0xf22f49ae x23=0xfffff917
       53355000	      5334	8000428c	40dcdb93	srai	x23,x25,0xd	 x25:0xf22fdfd1 x23=0xffff917e
       53365000	      5335	80004290	0038ec63	bltu	x17,x3,800042a8	 x17:0x00000000  x3:0x01e4f000
       53375000	      5336	00000000	00000013	addi	x0,x0,0	  x0:0x00000000
       53385000	      5337	800042a4	00000013	addi	x0,x0,0	  x0:0x00000000
       53395000	      5338	800042a8	011ad413	srli	x8,x21,0x11	 x21:0x47c43000  x8=0x000023e2
       53405000	      5339	800042ac	009f7ab3	and	x21,x30,x9	 x30:0x000001f7  x9:0x80003bc8 x21=0x000001c0
       53415000	      5340	800042b0	009024b3	slt	x9,x0,x9	  x0:0x00000000  x9:0x80003bc8  x9=0x00000000
       53425000	      5341	800042b4	00c57a63	bgeu	x10,x12,800042c8	 x10:0x80003bc0 x12:0xf80003bc
       53435000	      5342	800042b8	0140c863	blt	x1,x20,800042c8	  x1:0x80003bdc x20:0x77a3d0ec
       53445000	      5343	00000000	00000013	addi	x0,x0,0	  x0:0x00000000
       53455000	      5344	800042c4	00000013	addi	x0,x0,0	  x0:0x00000000
       53465000	      5345	800042c8	00eb4e33	xor	x28,x22,x14	 x22:0x00000000 x14:0x00000001 x28=0x00000001
       53475000	      5346	800042cc	0124d413	srli	x8,x9,0x12	  x9:0x00000000  x8=0x00000000
       53485000	      5347	800042d0	022f4063	blt	x30,x2,800042f0	 x30:0x000001f7  x2:0x80009fc4
       53495000	      5348	800042d4	03506c63	bltu	x0,x21,8000430c	  x0:0x00000000 x21:0x000001c0
       53505000	      5349	00000000	00000013	addi	x0,x0,0	  x0:0x00000000
       53515000	      5350	80004308	00000013	addi	x0,x0,0	  x0:0x00000000
       53525000	      5351	8000430c	31710817	auipc	x16,0x31710	 x16=0xb1714308
       53535000	      5352	80004310	004b5993	srli	x19,x22,0x4	 x22:0x00000000 x19=0x00000000
       53545000	      5353	80004314	002b2733	slt	x14,x22,x2	 x22:0x00000000  x2:0x80009fc4 x14=0x00000000
       53555000	      5354	80004318	01725c63	bge	x4,x23,80004330	  x4:0xffffffff x23:0xffff917e
       53565000	      5355	00000000	00000013	addi	x0,x0,0	  x0:0x00000000
       53575000	      5356	8000432c	00000013	addi	x0,x0,0	  x0:0x00000000
       53585000	      5357	80004330	016b61b3	or	x3,x22,x22	 x22:0x00000000 x22:0x00000000  x3=0x00000000
       53595000	      5358	80004334	9bea6313	ori	x6,x20,-1602	 x20:0x77a3d0ec  x6=0xfffff9fe
       53605000	      5359	80004338	0011f433	and	x8,x3,x1	  x3:0x00000000  x1:0x80003bdc  x8=0x00000000
       53615000	      5360	8000433c	02627c63	bgeu	x4,x6,80004374	  x4:0xffffffff  x6:0xfffff9fe
       53625000	      5361	00000000	00000013	addi	x0,x0,0	  x0:0x00000000
       53635000	      5362	80004370	00000013	addi	x0,x0,0	  x0:0x00000000
       53645000	      5363	80004374	415c0ab3	sub	x21,x24,x21	 x24:0xb8000000 x21:0x000001c0 x21=0xb7fffe40
       53655000	      5364	80004378	00a7ff33	and	x30,x15,x10	 x15:0x00000000 x10:0x80003bc0 x30=0x00000000
       53665000	      5365	8000437c	bccfe393	ori	x7,x31,-1076	 x31:0x00000000  x7=0xfffffbcc
       53675000	      5366	80004380	0137d813	srli	x16,x15,0x13	 x15:0x00000000 x16=0x00000000
       53685000	      5367	80004384	e5e30f93	addi	x31,x6,-418	  x6:0xfffff9fe x31=0xfffff85c
       53695000	      5368	80004388	c41c4a13	xori	x20,x24,-959	 x24:0xb8000000 x20=0x47fffc41
       53705000	      5369	8000438c	39f6f593	andi	x11,x13,927	 x13:0x00000132 x11=0x00000112
       53715000	      5370	80004390	05387463	bgeu	x16,x19,800043d8	 x16:0x00000000 x19:0x00000000
       53725000	      5371	00000000	00000013	addi	x0,x0,0	  x0:0x00000000
       53735000	      5372	800043d4	00000013	addi	x0,x0,0	  x0:0x00000000
       53745000	      5373	800043d8	008a8233	add	x4,x21,x8	 x21:0xb7fffe40  x8:0x00000000  x4=0xb7fffe40
       53755000	      5374	800043dc	00000013	addi	x0,x0,0	  x0:0x00000000
       53765000	      5375	800043e0	01b7f633	and	x12,x15,x27	 x15:0x00000000 x27:0x00000130 x12=0x00000000
       53775000	      5376	800043e4	0141d993	srli	x19,x3,0x14	  x3:0x00000000 x19=0x00000000
       53785000	      5377	800043e8	40c55793	srai	x15,x10,0xc	 x10:0x80003bc0 x15=0xfff80003
       53795000	      5378	800043ec	00396c63	bltu	x18,x3,80004404	 x18:0x00000000  x3:0x00000000
       53805000	      5379	800043f0	8be5ed93	ori	x27,x11,-1858	 x11:0x00000112 x27=0xfffff9be
       53815000	      5380	800043f4	41e0d333	sra	x6,x1,x30	  x1:0x80003bdc x30:0x00000000  x6=0x80003bdc
       53825000	      5381	800043f8	00d128b3	slt	x17,x2,x13	  x2:0x80009fc4 x13:0x00000132 x17=0x00000001
       53835000	      5382	800043fc	00c8b2b3	sltu	x5,x17,x12	 x17:0x00000001 x12:0x00000000  x5=0x00000000
       53845000	      5383	80004400	415d5f33	sra	x30,x26,x21	 x26:0x80009f50 x21:0xb7fffe40 x30=0x80009f50
       53855000	      5384	80004404	035f5663	bge	x30,x21,80004430	 x30:0x80009f50 x21:0xb7fffe40
       53865000	      5385	80004408	020c8463	beq	x25,x0,80004430	 x25:0xf22fdfd1  x0:0x00000000
       53875000	      5386	8000440c	03db8863	beq	x23,x29,8000443c	 x23:0xffff917e x29:0xf22f49ae
       53885000	      5387	80004410	0a668a93	addi	x21,x13,166	 x13:0x00000132 x21=0x000001d8
       53895000	      5388	80004414	354ce397	auipc	x7,0x354ce	  x7=0xb54d2410
       53905000	      5389	80004418	5e6bb297	auipc	x5,0x5e6bb	  x5=0xde6bf414
       53915000	      5390	8000441c	21e96613	ori	x12,x18,542	 x18:0x00000000 x12=0x0000021e
       53925000	      5391	80004420	f0784213	xori	x4,x16,-249	 x16:0x00000000  x4=0xffffff07
       53935000	      5392	80004424	c8858297	auipc	x5,0xc8858	  x5=0x4885c420
       53945000	      5393	80004428	00ec87b3	add	x15,x25,x14	 x25:0xf22fdfd1 x14:0x00000000 x15=0xf22fdfd1
       53955000	      5394	8000442c	0086e333	or	x6,x13,x8	 x13:0x00000132  x8:0x00000000  x6=0x00000132
       53965000	      5395	80004430	05378463	beq	x15,x19,80004478	 x15:0xf22fdfd1 x19:0x00000000
       53975000	      5396	80004434	004740b3	xor	x1,x14,x4	 x14:0x00000000  x4:0xffffff07  x1=0xffffff07
       53985000	      5397	80004438	44e10f13	addi	x30,x2,1102	  x2:0x80009fc4 x30=0x8000a412
       53995000	      5398	8000443c	03778463	beq	x15,x23,80004464	 x15:0xf22fdfd1 x23:0xffff917e
       54005000	      5399	80004440	00493ab3	sltu	x21,x18,x4	 x18:0x00000000  x4:0xffffff07 x21=0x00000001
       54015000	      5400	80004444	4181d333	sra	x6,x3,x24	  x3:0x00000000 x24:0xb8000000  x6=0x00000000
       54025000	      5401	80004448	9d3fca13	xori	x20,x31,-1581	 x31:0xfffff85c x20=0x0000018f
       54035000	      5402	8000444c	00e4c233	xor	x4,x9,x14	  x9:0x00000000 x14:0x00000000  x4=0x00000000
       54045000	      5403	80004450	411e5513	srai	x10,x28,0x11	 x28:0x00000001 x10=0x00000000
       54055000	      5404	80004454	00d08c33	add	x24,x1,x13	  x1:0xffffff07 x13:0x00000132 x24=0x00000039
       54065000	      5405	80004458	014a5b33	srl	x22,x20,x20	 x20:0x0000018f x20:0x0000018f x22=0x00000000
       54075000	      5406	8000445c	516c7c93	andi	x25,x24,1302	 x24:0x00000039 x25=0x00000010
       54085000	      5407	80004460	00371433	sll	x8,x14,x3	 x14:0x00000000  x3:0x00000000  x8=0x00000000
       54095000	      5408	80004464	01159093	slli	x1,x11,0x11	 x11:0x00000112  x1=0x02240000
       54105000	      5409	80004468	b22a3613	sltiu	x12,x20,-1246	 x20:0x0000018f x12=0x00000001
       54115000	      5410	8000446c	8a174993	xori	x19,x14,-1887	 x14:0x00000000 x19=0xfffff8a1
       54125000	      5411	80004470	00bc4ab3	xor	x21,x24,x11	 x24:0x00000039 x11:0x00000112 x21=0x0000012b
       54135000	      5412	80004474	01e2c7b3	xor	x15,x5,x30	  x5:0x4885c420 x30:0x8000a412 x15=0xc8856032
       54145000	      5413	80004478	01ebe863	bltu	x23,x30,80004488	 x23:0xffff917e x30:0x8000a412
       54155000	      5414	8000447c	015e3413	sltiu	x8,x28,21	 x28:0x00000001  x8=0x00000001
       54165000	      5415	80004480	01408033	add	x0,x1,x20	  x1:0x02240000 x20:0x0000018f
       54175000	      5416	80004484	1906e193	ori	x3,x13,400	 x13:0x00000132  x3=0x000001b2
       54185000	      5417	80004488	018ed313	srli	x6,x29,0x18	 x29:0xf22f49ae  x6=0x000000f2
       54195000	      5418	8000448c	01649713	slli	x14,x9,0x16	  x9:0x00000000 x14=0x00000000
       54205000	      5419	80004490	011a9893	slli	x17,x21,0x11	 x21:0x0000012b x17=0x02560000
       54215000	      5420	80004494	601f0a97	auipc	x21,0x601f0	 x21=0xe01f4490
       54225000	      5421	80004498	bd7ca997	auipc	x19,0xbd7ca	 x19=0x3d7ce494
       54235000	      5422	8000449c	0484c463	blt	x9,x8,800044e4	  x9:0x00000000  x8:0x00000001
       54245000	      5423	00000000	00000013	addi	x0,x0,0	  x0:0x00000000
       54255000	      5424	800044e0	00000013	addi	x0,x0,0	  x0:0x00000000
       54265000	      5425	800044e4	006f5b93	srli	x23,x30,0x6	 x30:0x8000a412 x23=0x02000290
       54275000	      5426	800044e8	35538717	auipc	x14,0x35538	 x14=0xb553c4e4
       54285000	      5427	800044ec	00adea33	or	x20,x27,x10	 x27:0xfffff9be x10:0x00000000 x20=0xfffff9be
       54295000	      5428	800044f0	637c5217	auipc	x4,0x637c5	  x4=0xe37c94ec
       54305000	      5429	800044f4	7c870237	lui	x4,0x7c870	  x4=0x7c870000
       54315000	      5430	800044f8	40ded533	sra	x10,x29,x13	 x29:0xf22f49ae x13:0x00000132 x10=0xfffffc8b
       54325000	      5431	800044fc	01f15233	srl	x4,x2,x31	  x2:0x80009fc4 x31:0xfffff85c  x4=0x00000008
       54335000	      5432	80004500	1c428b93	addi	x23,x5,452	  x5:0x4885c420 x23=0x4885c5e4
       54345000	      5433	80004504	7eabb597	auipc	x11,0x7eabb	 x11=0xfeabf500
       54355000	      5434	80004508	00f17a63	bgeu	x2,x15,8000451c	  x2:0x80009fc4 x15:0xc8856032
       54365000	      5435	8000450c	01f7b9b3	sltu	x19,x15,x31	 x15:0xc8856032 x31:0xfffff85c x19=0x00000001
       54375000	      5436	80004510	00ff1613	slli	x12,x30,0xf	 x30:0x8000a412 x12=0x52090000
       54385000	      5437	80004514	0086dbb3	srl	x23,x13,x8	 x13:0x00000132  x8:0x00000001 x23=0x00000099
       54395000	      5438	80004518	04e7d463	bge	x15,x14,80004560	 x15:0xc8856032 x14:0xb553c4e4
       54405000	      5439	00000000	00000013	addi	x0,x0,0	  x0:0x00000000
       54415000	      5440	8000455c	00000013	addi	x0,x0,0	  x0:0x00000000
       54425000	      5441	80004560	0358de63	bge	x17,x21,8000459c	 x17:0x02560000 x21:0xe01f4490
       54435000	      5442	00000000	00000013	addi	x0,x0,0	  x0:0x00000000
       54445000	      5443	80004598	00000013	addi	x0,x0,0	  x0:0x00000000
       54455000	      5444	8000459c	ef2cdbb7	lui	x23,0xef2cd	 x23=0xef2cd000
       54465000	      5445	800045a0	01445f93	srli	x31,x8,0x14	  x8:0x00000001 x31=0x00000000
       54475000	      5446	800045a4	00f31693	slli	x13,x6,0xf	  x6:0x000000f2 x13=0x00790000
       54485000	      5447	800045a8	007e5033	srl	x0,x28,x7	 x28:0x00000001  x7:0xb54d2410
       54495000	      5448	800045ac	40b484b3	sub	x9,x9,x11	  x9:0x00000000 x11:0xfeabf500  x9=0x01540b00
       54505000	      5449	800045b0	0069bcb3	sltu	x25,x19,x6	 x19:0x00000001  x6:0x000000f2 x25=0x00000001
       54515000	      5450	800045b4	400e8433	sub	x8,x29,x0	 x29:0xf22f49ae  x0:0x00000000  x8=0xf22f49ae
       54525000	      5451	800045b8	dd378c93	addi	x25,x15,-557	 x15:0xc8856032 x25=0xc8855e05
       54535000	      5452	800045bc	0131d393	srli	x7,x3,0x13	  x3:0x000001b2  x7=0x00000000
       54545000	      5453	800045c0	a72c0a93	addi	x21,x24,-1422	 x24:0x00000039 x21=0xfffffaab
       54555000	      5454	800045c4	016a29b3	slt	x19,x20,x22	 x20:0xfffff9be x22:0x00000000 x19=0x00000001
       54565000	      5455	800045c8	d90c0f93	addi	x31,x24,-624	 x24:0x00000039 x31=0xfffffdc9
       54575000	      5456	800045cc	04e75463	bge	x14,x14,80004614	 x14:0xb553c4e4 x14:0xb553c4e4
       54585000	      5457	00000000	00000013	addi	x0,x0,0	  x0:0x00000000
       54595000	      5458	80004610	00000013	addi	x0,x0,0	  x0:0x00000000
       54605000	      5459	80004614	03d6cc63	blt	x13,x29,8000464c	 x13:0x00790000 x29:0xf22f49ae
       54615000	      5460	80004618	045dd263	bge	x27,x5,8000465c	 x27:0xfffff9be  x5:0x4885c420
       54625000	      5461	8000461c	9383fd93	andi	x27,x7,-1736	  x7:0x00000000 x27=0x00000000
       54635000	      5462	80004620	b2a332b7	lui	x5,0xb2a33	  x5=0xb2a33000
       54645000	      5463	80004624	009188b3	add	x17,x3,x9	  x3:0x000001b2  x9:0x01540b00 x17=0x01540cb2
       54655000	      5464	80004628	02488463	beq	x17,x4,80004650	 x17:0x01540cb2  x4:0x00000008
       54665000	      5465	8000462c	03759463	bne	x11,x23,80004654	 x11:0xfeabf500 x23:0xef2cd000
       54675000	      5466	00000000	00000013	addi	x0,x0,0	  x0:0x00000000
       54685000	      5467	80004650	00000013	addi	x0,x0,0	  x0:0x00000000
       54695000	      5468	80004654	009c9c63	bne	x25,x9,8000466c	 x25:0xc8855e05  x9:0x01540b00
       54705000	      5469	00000000	00000013	addi	x0,x0,0	  x0:0x00000000
       54715000	      5470	80004668	00000013	addi	x0,x0,0	  x0:0x00000000
       54725000	      5471	8000466c	01cae733	or	x14,x21,x28	 x21:0xfffffaab x28:0x00000001 x14=0xfffffaab
       54735000	      5472	80004670	00000013	addi	x0,x0,0	  x0:0x00000000
       54745000	      5473	80004674	0b9c7e63	bgeu	x24,x25,80004730	 x24:0x00000039 x25:0xc8855e05
       54755000	      5474	80004678	0640036f	jal	x6,80004678	  x6=0x80004678
       54765000	      5475	00000000	00000013	addi	x0,x0,0	  x0:0x00000000
       54775000	      5476	800046d8	00000013	addi	x0,x0,0	  x0:0x00000000
       54785000	      5477	800046dc	fb1ff0ef	jal	x1,800046dc	  x1=0x800046dc
       54795000	      5478	00000000	00000013	addi	x0,x0,0	  x0:0x00000000
       54805000	      5479	80004688	00000013	addi	x0,x0,0	  x0:0x00000000
       54815000	      5480	8000468c	048000ef	jal	x1,8000468c	  x1=0x8000468c
       54825000	      5481	00000000	00000013	addi	x0,x0,0	  x0:0x00000000
       54835000	      5482	800046d0	00000013	addi	x0,x0,0	  x0:0x00000000
       54845000	      5483	800046d4	fe9ff36f	jal	x6,800046d4	  x6=0x800046d4
       54855000	      5484	00000000	00000013	addi	x0,x0,0	  x0:0x00000000
       54865000	      5485	800046b8	00000013	addi	x0,x0,0	  x0:0x00000000
       54875000	      5486	800046bc	fddff0ef	jal	x1,800046bc	  x1=0x800046bc
       54885000	      5487	00000000	00000013	addi	x0,x0,0	  x0:0x00000000
       54895000	      5488	80004694	00000013	addi	x0,x0,0	  x0:0x00000000
       54905000	      5489	80004698	018000ef	jal	x1,80004698	  x1=0x80004698
       54915000	      5490	00000000	00000013	addi	x0,x0,0	  x0:0x00000000
       54925000	      5491	800046ac	00000013	addi	x0,x0,0	  x0:0x00000000
       54935000	      5492	800046b0	0380036f	jal	x6,800046b0	  x6=0x800046b0
       54945000	      5493	00000000	00000013	addi	x0,x0,0	  x0:0x00000000
       54955000	      5494	800046e4	00000013	addi	x0,x0,0	  x0:0x00000000
       54965000	      5495	800046e8	fbdff0ef	jal	x1,800046e8	  x1=0x800046e8
       54975000	      5496	00000000	00000013	addi	x0,x0,0	  x0:0x00000000
       54985000	      5497	800046a0	00000013	addi	x0,x0,0	  x0:0x00000000
       54995000	      5498	800046a4	fd9ff2ef	jal	x5,800046a4	  x5=0x800046a4
       55005000	      5499	00000000	00000013	addi	x0,x0,0	  x0:0x00000000
       55015000	      5500	80004678	00000013	addi	x0,x0,0	  x0:0x00000000
       55025000	      5501	8000467c	068000ef	jal	x1,8000467c	  x1=0x8000467c
       55035000	      5502	00000000	00000013	addi	x0,x0,0	  x0:0x00000000
       55045000	      5503	800046e0	00000013	addi	x0,x0,0	  x0:0x00000000
       55055000	      5504	800046e4	fa5ff0ef	jal	x1,800046e4	  x1=0x800046e4
       55065000	      5505	00000000	00000013	addi	x0,x0,0	  x0:0x00000000
       55075000	      5506	80004684	00000013	addi	x0,x0,0	  x0:0x00000000
       55085000	      5507	80004688	030000ef	jal	x1,80004688	  x1=0x80004688
       55095000	      5508	00000000	00000013	addi	x0,x0,0	  x0:0x00000000
       55105000	      5509	800046b4	00000013	addi	x0,x0,0	  x0:0x00000000
       55115000	      5510	800046b8	01400c6f	jal	x24,800046b8	 x24=0x800046b8
       55125000	      5511	00000000	00000013	addi	x0,x0,0	  x0:0x00000000
       55135000	      5512	800046c8	00000013	addi	x0,x0,0	  x0:0x00000000
       55145000	      5513	800046cc	00c000ef	jal	x1,800046cc	  x1=0x800046cc
       55155000	      5514	00000000	00000013	addi	x0,x0,0	  x0:0x00000000
       55165000	      5515	800046d4	00000013	addi	x0,x0,0	  x0:0x00000000
       55175000	      5516	800046d8	fc5ff26f	jal	x4,800046d8	  x4=0x800046d8
       55185000	      5517	00000000	00000013	addi	x0,x0,0	  x0:0x00000000
       55195000	      5518	80004698	00000013	addi	x0,x0,0	  x0:0x00000000
       55205000	      5519	8000469c	0280036f	jal	x6,8000469c	  x6=0x8000469c
       55215000	      5520	00000000	00000013	addi	x0,x0,0	  x0:0x00000000
       55225000	      5521	800046c0	00000013	addi	x0,x0,0	  x0:0x00000000
       55235000	      5522	800046c4	fbdff36f	jal	x6,800046c4	  x6=0x800046c4
       55245000	      5523	00000000	00000013	addi	x0,x0,0	  x0:0x00000000
       55255000	      5524	8000467c	00000013	addi	x0,x0,0	  x0:0x00000000
       55265000	      5525	80004680	0480036f	jal	x6,80004680	  x6=0x80004680
       55275000	      5526	00000000	00000013	addi	x0,x0,0	  x0:0x00000000
       55285000	      5527	800046c4	00000013	addi	x0,x0,0	  x0:0x00000000
       55295000	      5528	800046c8	ff9ff5ef	jal	x11,800046c8	 x11=0x800046c8
       55305000	      5529	00000000	00000013	addi	x0,x0,0	  x0:0x00000000
       55315000	      5530	800046bc	00000013	addi	x0,x0,0	  x0:0x00000000
       55325000	      5531	800046c0	ff5ff5ef	jal	x11,800046c0	 x11=0x800046c0
       55335000	      5532	00000000	00000013	addi	x0,x0,0	  x0:0x00000000
       55345000	      5533	800046b0	00000013	addi	x0,x0,0	  x0:0x00000000
       55355000	      5534	800046b4	038000ef	jal	x1,800046b4	  x1=0x800046b4
       55365000	      5535	00000000	00000013	addi	x0,x0,0	  x0:0x00000000
       55375000	      5536	800046e8	00000013	addi	x0,x0,0	  x0:0x00000000
       55385000	      5537	800046ec	fbdff36f	jal	x6,800046ec	  x6=0x800046ec
       55395000	      5538	00000000	00000013	addi	x0,x0,0	  x0:0x00000000
       55405000	      5539	800046a4	00000013	addi	x0,x0,0	  x0:0x00000000
       55415000	      5540	800046a8	03800cef	jal	x25,800046a8	 x25=0x800046a8
       55425000	      5541	00000000	00000013	addi	x0,x0,0	  x0:0x00000000
       55435000	      5542	800046dc	00000013	addi	x0,x0,0	  x0:0x00000000
       55445000	      5543	800046e0	fcdff0ef	jal	x1,800046e0	  x1=0x800046e0
       55455000	      5544	00000000	00000013	addi	x0,x0,0	  x0:0x00000000
       55465000	      5545	800046a8	00000013	addi	x0,x0,0	  x0:0x00000000
       55475000	      5546	800046ac	fe5ff36f	jal	x6,800046ac	  x6=0x800046ac
       55485000	      5547	00000000	00000013	addi	x0,x0,0	  x0:0x00000000
       55495000	      5548	8000468c	00000013	addi	x0,x0,0	  x0:0x00000000
       55505000	      5549	80004690	004000ef	jal	x1,80004690	  x1=0x80004690
       55515000	      5550	00000000	00000013	addi	x0,x0,0	  x0:0x00000000
       55525000	      5551	80004690	00000013	addi	x0,x0,0	  x0:0x00000000
       55535000	      5552	80004694	03c00b6f	jal	x22,80004694	 x22=0x80004694
       55545000	      5553	00000000	00000013	addi	x0,x0,0	  x0:0x00000000
       55555000	      5554	800046cc	00000013	addi	x0,x0,0	  x0:0x00000000
       55565000	      5555	800046d0	fb5ff0ef	jal	x1,800046d0	  x1=0x800046d0
       55575000	      5556	00000000	00000013	addi	x0,x0,0	  x0:0x00000000
       55585000	      5557	80004680	00000013	addi	x0,x0,0	  x0:0x00000000
       55595000	      5558	80004684	01c00fef	jal	x31,80004684	 x31=0x80004684
       55605000	      5559	00000000	00000013	addi	x0,x0,0	  x0:0x00000000
       55615000	      5560	8000469c	00000013	addi	x0,x0,0	  x0:0x00000000
       55625000	      5561	800046a0	0500036f	jal	x6,800046a0	  x6=0x800046a0
       55635000	      5562	00000000	00000013	addi	x0,x0,0	  x0:0x00000000
       55645000	      5563	800046ec	00000013	addi	x0,x0,0	  x0:0x00000000
       55655000	      5564	800046f0	4c1427b7	lui	x15,0x4c142	 x15=0x4c142000
       55665000	      5565	800046f4	a4820c13	addi	x24,x4,-1464	  x4:0x800046d8 x24=0x80004120
       55675000	      5566	800046f8	d96e04b7	lui	x9,0xd96e0	  x9=0xd96e0000
       55685000	      5567	800046fc	057ee463	bltu	x29,x23,80004744	 x29:0xf22f49ae x23:0xef2cd000
       55695000	      5568	80004700	006b8fb3	add	x31,x23,x6	 x23:0xef2cd000  x6:0x800046a0 x31=0x6f2d16a0
       55705000	      5569	80004704	c39ea213	slti	x4,x29,-967	 x29:0xf22f49ae  x4=0x00000001
       55715000	      5570	80004708	40d75b13	srai	x22,x14,0xd	 x14:0xfffffaab x22=0xffffffff
       55725000	      5571	8000470c	407e5e33	sra	x28,x28,x7	 x28:0x00000001  x7:0x00000000 x28=0x00000001
       55735000	      5572	80004710	05620463	beq	x4,x22,80004758	  x4:0x00000001 x22:0xffffffff
       55745000	      5573	80004714	010bcbb3	xor	x23,x23,x16	 x23:0xef2cd000 x16:0x00000000 x23=0xef2cd000
       55755000	      5574	80004718	0158ffb3	and	x31,x17,x21	 x17:0x01540cb2 x21:0xfffffaab x31=0x015408a2
       55765000	      5575	8000471c	4097d6b3	sra	x13,x15,x9	 x15:0x4c142000  x9:0xd96e0000 x13=0x4c142000
       55775000	      5576	80004720	05659463	bne	x11,x22,80004768	 x11:0x800046c0 x22:0xffffffff
       55785000	      5577	00000000	00000013	addi	x0,x0,0	  x0:0x00000000
       55795000	      5578	80004764	00000013	addi	x0,x0,0	  x0:0x00000000
       55805000	      5579	80004768	14e19697	auipc	x13,0x14e19	 x13=0x94e1d764
       55815000	      5580	8000476c	01e45213	srli	x4,x8,0x1e	  x8:0xf22f49ae  x4=0x00000003
       55825000	      5581	80004770	005cd093	srli	x1,x25,0x5	 x25:0x800046a8  x1=0x04000235
       55835000	      5582	80004774	003bc533	xor	x10,x23,x3	 x23:0xef2cd000  x3:0x000001b2 x10=0xef2cd1b2
       55845000	      5583	80004778	003182b3	add	x5,x3,x3	  x3:0x000001b2  x3:0x000001b2  x5=0x00000364
       55855000	      5584	8000477c	2b4f0f93	addi	x31,x30,692	 x30:0x8000a412 x31=0x8000a6c6
       55865000	      5585	80004780	408b06b3	sub	x13,x22,x8	 x22:0xffffffff  x8:0xf22f49ae x13=0x0dd0b651
       55875000	      5586	80004784	01ae5a33	srl	x20,x28,x26	 x28:0x00000001 x26:0x80009f50 x20=0x00000000
       55885000	      5587	80004788	006b5f13	srli	x30,x22,0x6	 x22:0xffffffff x30=0x03ffffff
       55895000	      5588	8000478c	00000013	addi	x0,x0,0	  x0:0x00000000
       55905000	      5589	80004790	3c477793	andi	x15,x14,964	 x14:0xfffffaab x15=0x00000280
       55915000	      5590	80004794	03651c63	bne	x10,x22,800047cc	 x10:0xef2cd1b2 x22:0xffffffff
       55925000	      5591	00000000	00000013	addi	x0,x0,0	  x0:0x00000000
       55935000	      5592	800047c8	00000013	addi	x0,x0,0	  x0:0x00000000
       55945000	      5593	800047cc	02454463	blt	x10,x4,800047f4	 x10:0xef2cd1b2  x4:0x00000003
       55955000	      5594	00000000	00000013	addi	x0,x0,0	  x0:0x00000000
       55965000	      5595	800047f0	00000013	addi	x0,x0,0	  x0:0x00000000
       55975000	      5596	800047f4	f5fcfd97	auipc	x27,0xf5fcf	 x27=0x75fd37f0
       55985000	      5597	800047f8	00539f33	sll	x30,x7,x5	  x7:0x00000000  x5:0x00000364 x30=0x00000000
       55995000	      5598	800047fc	01a55293	srli	x5,x10,0x1a	 x10:0xef2cd1b2  x5=0x0000003b
       56005000	      5599	80004800	1f315497	auipc	x9,0x1f315	  x9=0x9f3197fc
       56015000	      5600	80004804	004d2303	lw	x6,4(x26)	 x26:0x80009f50  x6=0x80000704 PA:0x80009f54
       56025000	      5601	80004808	40f389b3	sub	x19,x7,x15	  x7:0x00000000 x15:0x00000280 x19=0xfffffd80
       56035000	      5602	8000480c	e949c3b7	lui	x7,0xe949c	  x7=0xe949c000
       56045000	      5603	80004810	01646db3	or	x27,x8,x22	  x8:0xf22f49ae x22:0xffffffff x27=0xffffffff
       56055000	      5604	80004814	034d0d13	addi	x26,x26,52	 x26:0x80009f50 x26=0x80009f84
       56065000	      5605	80004818	9b0f2a13	slti	x20,x30,-1616	 x30:0x00000000 x20=0x00000000
       56075000	      5606	8000481c	00130293	addi	x5,x6,1	  x6:0x80000704  x5=0x80000705
       56085000	      5607	80004820	000282e7	jalr	x5,x5,0	  x5:0x80000705  x5=0x80004820
       56095000	      5608	00000000	00000013	addi	x0,x0,0	  x0:0x00000000
       56105000	      5609	80000704	00000013	addi	x0,x0,0	  x0:0x00000000
       56115000	      5610	80000708	03588a63	beq	x17,x21,8000073c	 x17:0x01540cb2 x21:0xfffffaab
       56125000	      5611	8000070c	00517533	and	x10,x2,x5	  x2:0x80009fc4  x5:0x80004820 x10=0x80000800
       56135000	      5612	80000710	08b9c463	blt	x19,x11,80000798	 x19:0xfffffd80 x11:0x800046c0
       56145000	      5613	80000714	c59e3813	sltiu	x16,x28,-935	 x28:0x00000001 x16=0x00000001
       56155000	      5614	80000718	56467f13	andi	x30,x12,1380	 x12:0x52090000 x30=0x00000000
       56165000	      5615	8000071c	00c972b3	and	x5,x18,x12	 x18:0x00000000 x12:0x52090000  x5=0x00000000
       56175000	      5616	80000720	002ad013	srli	x0,x21,0x2	 x21:0xfffffaab
       56185000	      5617	80000724	00bde663	bltu	x27,x11,80000730	 x27:0xffffffff x11:0x800046c0
       56195000	      5618	80000728	013bf433	and	x8,x23,x19	 x23:0xef2cd000 x19:0xfffffd80  x8=0xef2cd000
       56205000	      5619	8000072c	e246bc93	sltiu	x25,x13,-476	 x13:0x0dd0b651 x25=0x00000001
       56215000	      5620	80000730	86c2ab37	lui	x22,0x86c2a	 x22=0x86c2a000
       56225000	      5621	80000734	b60d3b93	sltiu	x23,x26,-1184	 x26:0x80009f84 x23=0x00000001
       56235000	      5622	80000738	41b8dbb3	sra	x23,x17,x27	 x17:0x01540cb2 x27:0xffffffff x23=0x00000000
       56245000	      5623	8000073c	0038dc13	srli	x24,x17,0x3	 x17:0x01540cb2 x24=0x002a8196
       56255000	      5624	80000740	407784b3	sub	x9,x15,x7	 x15:0x00000280  x7:0xe949c000  x9=0x16b64280
       56265000	      5625	80000744	41c5d1b3	sra	x3,x11,x28	 x11:0x800046c0 x28:0x00000001  x3=0xc0002360
       56275000	      5626	80000748	0188bdb3	sltu	x27,x17,x24	 x17:0x01540cb2 x24:0x002a8196 x27=0x00000000
       56285000	      5627	8000074c	013eb3b3	sltu	x7,x29,x19	 x29:0xf22f49ae x19:0xfffffd80  x7=0x00000001
       56295000	      5628	80000750	0033d8b3	srl	x17,x7,x3	  x7:0x00000001  x3:0xc0002360 x17=0x00000001
       56305000	      5629	80000754	410f57b3	sra	x15,x30,x16	 x30:0x00000000 x16:0x00000001 x15=0x00000000
       56315000	      5630	80000758	4069d313	srai	x6,x19,0x6	 x19:0xfffffd80  x6=0xfffffff6
       56325000	      5631	8000075c	dd744b93	xori	x23,x8,-553	  x8:0xef2cd000 x23=0x10d32dd7
       56335000	      5632	80000760	00003a17	auipc	x20,0x3	 x20=0x8000375c
       56345000	      5633	80000764	9f4a0a13	addi	x20,x20,-1548	 x20:0x8000375c x20=0x80003150
       56355000	      5634	80000768	e49a0a13	addi	x20,x20,-439	 x20:0x80003150 x20=0x80002f99
       56365000	      5635	8000076c	f9773b13	sltiu	x22,x14,-105	 x14:0xfffffaab x22=0x00000001
       56375000	      5636	80000770	00c2ab33	slt	x22,x5,x12	  x5:0x00000000 x12:0x52090000 x22=0x00000001
       56385000	      5637	80000774	00000013	addi	x0,x0,0	  x0:0x00000000
       56395000	      5638	80000778	01d21f13	slli	x30,x4,0x1d	  x4:0x00000003 x30=0x60000000
       56405000	      5639	8000077c	eeef0c93	addi	x25,x30,-274	 x30:0x60000000 x25=0x5ffffeee
       56415000	      5640	80000780	012e4033	xor	x0,x28,x18	 x28:0x00000001 x18:0x00000000
       56425000	      5641	80000784	010edc33	srl	x24,x29,x16	 x29:0xf22f49ae x16:0x00000001 x24=0x7917a4d7
       56435000	      5642	80000788	4010dc93	srai	x25,x1,0x1	  x1:0x04000235 x25=0x0200011a
       56445000	      5643	8000078c	001d76b3	and	x13,x26,x1	 x26:0x80009f84  x1:0x04000235 x13=0x00000204
       56455000	      5644	80000790	1b7a0367	jalr	x6,x20,439	 x20:0x80002f99  x6=0x80000790
       56465000	      5645	00000000	00000013	addi	x0,x0,0	  x0:0x00000000
       56475000	      5646	80003150	00000013	addi	x0,x0,0	  x0:0x00000000
       56485000	      5647	80003154	0198af33	slt	x30,x17,x25	 x17:0x00000001 x25:0x0200011a x30=0x00000001
       56495000	      5648	80003158	22a2ae13	slti	x28,x5,554	  x5:0x00000000 x28=0x00000001
       56505000	      5649	8000315c	d67e6013	ori	x0,x28,-665	 x28:0x00000001
       56515000	      5650	80003160	00000013	addi	x0,x0,0	  x0:0x00000000
       56525000	      5651	80003164	017f4463	blt	x30,x23,8000316c	 x30:0x00000001 x23:0x10d32dd7
       56535000	      5652	00000000	00000013	addi	x0,x0,0	  x0:0x00000000
       56545000	      5653	80003168	00000013	addi	x0,x0,0	  x0:0x00000000
       56555000	      5654	8000316c	fd0d0d13	addi	x26,x26,-48	 x26:0x80009f84 x26=0x80009f54
       56565000	      5655	80003170	006d2223	sw	x6,4(x26)	 x26:0x80009f54  x6:0x80000790 PA:0x80009f58
       56575000	      5656	80003174	00111733	sll	x14,x2,x1	  x2:0x80009fc4  x1:0x04000235 x14=0xf8800000
       56585000	      5657	80003178	40268e33	sub	x28,x13,x2	 x13:0x00000204  x2:0x80009fc4 x28=0x7fff6240
       56595000	      5658	8000317c	00b619b3	sll	x19,x12,x11	 x12:0x52090000 x11:0x800046c0 x19=0x52090000
       56605000	      5659	80003180	0076fb33	and	x22,x13,x7	 x13:0x00000204  x7:0x00000001 x22=0x00000000
       56615000	      5660	80003184	c1468b13	addi	x22,x13,-1004	 x13:0x00000204 x22=0xfffffe18
       56625000	      5661	80003188	009216b3	sll	x13,x4,x9	  x4:0x00000003  x9:0x16b64280 x13=0x00000003
       56635000	      5662	8000318c	414a5493	srai	x9,x20,0x14	 x20:0x80002f99  x9=0xfffff800
       56645000	      5663	80003190	00ab7b33	and	x22,x22,x10	 x22:0xfffffe18 x10:0x80000800 x22=0x80000800
       56655000	      5664	80003194	8951fb13	andi	x22,x3,-1899	  x3:0xc0002360 x22=0xc0002000
       56665000	      5665	80003198	418d5293	srai	x5,x26,0x18	 x26:0x80009f54  x5=0xffffff80
       56675000	      5666	8000319c	0018c233	xor	x4,x17,x1	 x17:0x00000001  x1:0x04000235  x4=0x04000234
       56685000	      5667	800031a0	0134f663	bgeu	x9,x19,800031ac	  x9:0xfffff800 x19:0x52090000
       56695000	      5668	00000000	00000013	addi	x0,x0,0	  x0:0x00000000
       56705000	      5669	800031a8	00000013	addi	x0,x0,0	  x0:0x00000000
       56715000	      5670	800031ac	bddfd36f	jal	x6,800031ac	  x6=0x800031ac
       56725000	      5671	00000000	00000013	addi	x0,x0,0	  x0:0x00000000
       56735000	      5672	80000d84	00000013	addi	x0,x0,0	  x0:0x00000000
       56745000	      5673	80000d88	01ee6263	bltu	x28,x30,80000d8c	 x28:0x7fff6240 x30:0x00000001
       56755000	      5674	80000d8c	ff8d0d13	addi	x26,x26,-8	 x26:0x80009f54 x26=0x80009f4c
       56765000	      5675	80000d90	00a87db3	and	x27,x16,x10	 x16:0x00000001 x10:0x80000800 x27=0x00000000
       56775000	      5676	80000d94	64acaf93	slti	x31,x25,1610	 x25:0x0200011a x31=0x00000000
       56785000	      5677	80000d98	006d2223	sw	x6,4(x26)	 x26:0x80009f4c  x6:0x800031ac PA:0x80009f50
       56795000	      5678	80000d9c	90b74ab7	lui	x21,0x90b74	 x21=0x90b74000
       56805000	      5679	80000da0	00601433	sll	x8,x0,x6	  x0:0x00000000  x6:0x800031ac  x8=0x00000000
       56815000	      5680	80000da4	4092da33	sra	x20,x5,x9	  x5:0xffffff80  x9:0xfffff800 x20=0xffffff80
       56825000	      5681	80000da8	0180036f	jal	x6,80000da8	  x6=0x80000da8
       56835000	      5682	00000000	00000013	addi	x0,x0,0	  x0:0x00000000
       56845000	      5683	80000dbc	00000013	addi	x0,x0,0	  x0:0x00000000
       56855000	      5684	80000dc0	ff1ff76f	jal	x14,80000dc0	 x14=0x80000dc0
       56865000	      5685	00000000	00000013	addi	x0,x0,0	  x0:0x00000000
       56875000	      5686	80000dac	00000013	addi	x0,x0,0	  x0:0x00000000
       56885000	      5687	80000db0	0040036f	jal	x6,80000db0	  x6=0x80000db0
       56895000	      5688	00000000	00000013	addi	x0,x0,0	  x0:0x00000000
       56905000	      5689	80000db0	00000013	addi	x0,x0,0	  x0:0x00000000
       56915000	      5690	80000db4	0040026f	jal	x4,80000db4	  x4=0x80000db4
       56925000	      5691	00000000	00000013	addi	x0,x0,0	  x0:0x00000000
       56935000	      5692	80000db4	00000013	addi	x0,x0,0	  x0:0x00000000
       56945000	      5693	80000db8	00c0036f	jal	x6,80000db8	  x6=0x80000db8
       56955000	      5694	00000000	00000013	addi	x0,x0,0	  x0:0x00000000
       56965000	      5695	80000dc0	00000013	addi	x0,x0,0	  x0:0x00000000
       56975000	      5696	80000dc4	01c00aef	jal	x21,80000dc4	 x21=0x80000dc4
       56985000	      5697	00000000	00000013	addi	x0,x0,0	  x0:0x00000000
       56995000	      5698	80000ddc	00000013	addi	x0,x0,0	  x0:0x00000000
       57005000	      5699	80000de0	004000ef	jal	x1,80000de0	  x1=0x80000de0
       57015000	      5700	00000000	00000013	addi	x0,x0,0	  x0:0x00000000
       57025000	      5701	80000de0	00000013	addi	x0,x0,0	  x0:0x00000000
       57035000	      5702	80000de4	004003ef	jal	x7,80000de4	  x7=0x80000de4
       57045000	      5703	00000000	00000013	addi	x0,x0,0	  x0:0x00000000
       57055000	      5704	80000de4	00000013	addi	x0,x0,0	  x0:0x00000000
       57065000	      5705	80000de8	fd5ff0ef	jal	x1,80000de8	  x1=0x80000de8
       57075000	      5706	00000000	00000013	addi	x0,x0,0	  x0:0x00000000
       57085000	      5707	80000db8	00000013	addi	x0,x0,0	  x0:0x00000000
       57095000	      5708	80000dbc	03800b6f	jal	x22,80000dbc	 x22=0x80000dbc
       57105000	      5709	00000000	00000013	addi	x0,x0,0	  x0:0x00000000
       57115000	      5710	80000df0	00000013	addi	x0,x0,0	  x0:0x00000000
       57125000	      5711	80000df4	fe5ff0ef	jal	x1,80000df4	  x1=0x80000df4
       57135000	      5712	00000000	00000013	addi	x0,x0,0	  x0:0x00000000
       57145000	      5713	80000dd4	00000013	addi	x0,x0,0	  x0:0x00000000
       57155000	      5714	80000dd8	014000ef	jal	x1,80000dd8	  x1=0x80000dd8
       57165000	      5715	00000000	00000013	addi	x0,x0,0	  x0:0x00000000
       57175000	      5716	80000de8	00000013	addi	x0,x0,0	  x0:0x00000000
       57185000	      5717	80000dec	00c000ef	jal	x1,80000dec	  x1=0x80000dec
       57195000	      5718	00000000	00000013	addi	x0,x0,0	  x0:0x00000000
       57205000	      5719	80000df4	00000013	addi	x0,x0,0	  x0:0x00000000
       57215000	      5720	80000df8	0040036f	jal	x6,80000df8	  x6=0x80000df8
       57225000	      5721	00000000	00000013	addi	x0,x0,0	  x0:0x00000000
       57235000	      5722	80000df8	00000013	addi	x0,x0,0	  x0:0x00000000
       57245000	      5723	80000dfc	fe1ff0ef	jal	x1,80000dfc	  x1=0x80000dfc
       57255000	      5724	00000000	00000013	addi	x0,x0,0	  x0:0x00000000
       57265000	      5725	80000dd8	00000013	addi	x0,x0,0	  x0:0x00000000
       57275000	      5726	80000ddc	fd1ff26f	jal	x4,80000ddc	  x4=0x80000ddc
       57285000	      5727	00000000	00000013	addi	x0,x0,0	  x0:0x00000000
       57295000	      5728	80000da8	00000013	addi	x0,x0,0	  x0:0x00000000
       57305000	      5729	80000dac	02400cef	jal	x25,80000dac	 x25=0x80000dac
       57315000	      5730	00000000	00000013	addi	x0,x0,0	  x0:0x00000000
       57325000	      5731	80000dcc	00000013	addi	x0,x0,0	  x0:0x00000000
       57335000	      5732	80000dd0	004000ef	jal	x1,80000dd0	  x1=0x80000dd0
       57345000	      5733	00000000	00000013	addi	x0,x0,0	  x0:0x00000000
       57355000	      5734	80000dd0	00000013	addi	x0,x0,0	  x0:0x00000000
       57365000	      5735	80000dd4	ff9ff0ef	jal	x1,80000dd4	  x1=0x80000dd4
       57375000	      5736	00000000	00000013	addi	x0,x0,0	  x0:0x00000000
       57385000	      5737	80000dc8	00000013	addi	x0,x0,0	  x0:0x00000000
       57395000	      5738	80000dcc	024000ef	jal	x1,80000dcc	  x1=0x80000dcc
       57405000	      5739	00000000	00000013	addi	x0,x0,0	  x0:0x00000000
       57415000	      5740	80000dec	00000013	addi	x0,x0,0	  x0:0x00000000
       57425000	      5741	80000df0	fd9ff0ef	jal	x1,80000df0	  x1=0x80000df0
       57435000	      5742	00000000	00000013	addi	x0,x0,0	  x0:0x00000000
       57445000	      5743	80000dc4	00000013	addi	x0,x0,0	  x0:0x00000000
       57455000	      5744	80000dc8	0380056f	jal	x10,80000dc8	 x10=0x80000dc8
       57465000	      5745	00000000	00000013	addi	x0,x0,0	  x0:0x00000000
       57475000	      5746	80000dfc	00000013	addi	x0,x0,0	  x0:0x00000000
       57485000	      5747	80000e00	959107b7	lui	x15,0x95910	 x15=0x95910000
       57495000	      5748	80000e04	0100036f	jal	x6,80000e04	  x6=0x80000e04
       57505000	      5749	00000000	00000013	addi	x0,x0,0	  x0:0x00000000
       57515000	      5750	80000e10	00000013	addi	x0,x0,0	  x0:0x00000000
       57525000	      5751	80000e14	05800f6f	jal	x30,80000e14	 x30=0x80000e14
       57535000	      5752	00000000	00000013	addi	x0,x0,0	  x0:0x00000000
       57545000	      5753	80000e68	00000013	addi	x0,x0,0	  x0:0x00000000
       57555000	      5754	80000e6c	fb1ff0ef	jal	x1,80000e6c	  x1=0x80000e6c
       57565000	      5755	00000000	00000013	addi	x0,x0,0	  x0:0x00000000
       57575000	      5756	80000e18	00000013	addi	x0,x0,0	  x0:0x00000000
       57585000	      5757	80000e1c	0580036f	jal	x6,80000e1c	  x6=0x80000e1c
       57595000	      5758	00000000	00000013	addi	x0,x0,0	  x0:0x00000000
       57605000	      5759	80000e70	00000013	addi	x0,x0,0	  x0:0x00000000
       57615000	      5760	80000e74	fadffc6f	jal	x24,80000e74	 x24=0x80000e74
       57625000	      5761	00000000	00000013	addi	x0,x0,0	  x0:0x00000000
       57635000	      5762	80000e1c	00000013	addi	x0,x0,0	  x0:0x00000000
       57645000	      5763	80000e20	030000ef	jal	x1,80000e20	  x1=0x80000e20
       57655000	      5764	00000000	00000013	addi	x0,x0,0	  x0:0x00000000
       57665000	      5765	80000e4c	00000013	addi	x0,x0,0	  x0:0x00000000
       57675000	      5766	80000e50	fc1ff0ef	jal	x1,80000e50	  x1=0x80000e50
       57685000	      5767	00000000	00000013	addi	x0,x0,0	  x0:0x00000000
       57695000	      5768	80000e0c	00000013	addi	x0,x0,0	  x0:0x00000000
       57705000	      5769	80000e10	014000ef	jal	x1,80000e10	  x1=0x80000e10
       57715000	      5770	00000000	00000013	addi	x0,x0,0	  x0:0x00000000
       57725000	      5771	80000e20	00000013	addi	x0,x0,0	  x0:0x00000000
       57735000	      5772	80000e24	024000ef	jal	x1,80000e24	  x1=0x80000e24
       57745000	      5773	00000000	00000013	addi	x0,x0,0	  x0:0x00000000
       57755000	      5774	80000e44	00000013	addi	x0,x0,0	  x0:0x00000000
       57765000	      5775	80000e48	fedff26f	jal	x4,80000e48	  x4=0x80000e48
       57775000	      5776	00000000	00000013	addi	x0,x0,0	  x0:0x00000000
       57785000	      5777	80000e30	00000013	addi	x0,x0,0	  x0:0x00000000
       57795000	      5778	80000e34	034002ef	jal	x5,80000e34	  x5=0x80000e34
       57805000	      5779	00000000	00000013	addi	x0,x0,0	  x0:0x00000000
       57815000	      5780	80000e64	00000013	addi	x0,x0,0	  x0:0x00000000
       57825000	      5781	80000e68	ff1ff2ef	jal	x5,80000e68	  x5=0x80000e68
       57835000	      5782	00000000	00000013	addi	x0,x0,0	  x0:0x00000000
       57845000	      5783	80000e54	00000013	addi	x0,x0,0	  x0:0x00000000
       57855000	      5784	80000e58	fb1ff0ef	jal	x1,80000e58	  x1=0x80000e58
       57865000	      5785	00000000	00000013	addi	x0,x0,0	  x0:0x00000000
       57875000	      5786	80000e04	00000013	addi	x0,x0,0	  x0:0x00000000
       57885000	      5787	80000e08	01000aef	jal	x21,80000e08	 x21=0x80000e08
       57895000	      5788	00000000	00000013	addi	x0,x0,0	  x0:0x00000000
       57905000	      5789	80000e14	00000013	addi	x0,x0,0	  x0:0x00000000
       57915000	      5790	80000e18	018000ef	jal	x1,80000e18	  x1=0x80000e18
       57925000	      5791	00000000	00000013	addi	x0,x0,0	  x0:0x00000000
       57935000	      5792	80000e2c	00000013	addi	x0,x0,0	  x0:0x00000000
       57945000	      5793	80000e30	010000ef	jal	x1,80000e30	  x1=0x80000e30
       57955000	      5794	00000000	00000013	addi	x0,x0,0	  x0:0x00000000
       57965000	      5795	80000e3c	00000013	addi	x0,x0,0	  x0:0x00000000
       57975000	      5796	80000e40	ffdff0ef	jal	x1,80000e40	  x1=0x80000e40
       57985000	      5797	00000000	00000013	addi	x0,x0,0	  x0:0x00000000
       57995000	      5798	80000e38	00000013	addi	x0,x0,0	  x0:0x00000000
       58005000	      5799	80000e3c	0180026f	jal	x4,80000e3c	  x4=0x80000e3c
       58015000	      5800	00000000	00000013	addi	x0,x0,0	  x0:0x00000000
       58025000	      5801	80000e50	00000013	addi	x0,x0,0	  x0:0x00000000
       58035000	      5802	80000e54	ff9ff0ef	jal	x1,80000e54	  x1=0x80000e54
       58045000	      5803	00000000	00000013	addi	x0,x0,0	  x0:0x00000000
       58055000	      5804	80000e48	00000013	addi	x0,x0,0	  x0:0x00000000
       58065000	      5805	80000e4c	010000ef	jal	x1,80000e4c	  x1=0x80000e4c
       58075000	      5806	00000000	00000013	addi	x0,x0,0	  x0:0x00000000
       58085000	      5807	80000e58	00000013	addi	x0,x0,0	  x0:0x00000000
       58095000	      5808	80000e5c	fddff36f	jal	x6,80000e5c	  x6=0x80000e5c
       58105000	      5809	00000000	00000013	addi	x0,x0,0	  x0:0x00000000
       58115000	      5810	80000e34	00000013	addi	x0,x0,0	  x0:0x00000000
       58125000	      5811	80000e38	ff5ff0ef	jal	x1,80000e38	  x1=0x80000e38
       58135000	      5812	00000000	00000013	addi	x0,x0,0	  x0:0x00000000
       58145000	      5813	80000e28	00000013	addi	x0,x0,0	  x0:0x00000000
       58155000	      5814	80000e2c	ffdff36f	jal	x6,80000e2c	  x6=0x80000e2c
       58165000	      5815	00000000	00000013	addi	x0,x0,0	  x0:0x00000000
       58175000	      5816	80000e24	00000013	addi	x0,x0,0	  x0:0x00000000
       58185000	      5817	80000e28	01c000ef	jal	x1,80000e28	  x1=0x80000e28
       58195000	      5818	00000000	00000013	addi	x0,x0,0	  x0:0x00000000
       58205000	      5819	80000e40	00000013	addi	x0,x0,0	  x0:0x00000000
       58215000	      5820	80000e44	02c0026f	jal	x4,80000e44	  x4=0x80000e44
       58225000	      5821	00000000	00000013	addi	x0,x0,0	  x0:0x00000000
       58235000	      5822	80000e6c	00000013	addi	x0,x0,0	  x0:0x00000000
       58245000	      5823	80000e70	ff1ff0ef	jal	x1,80000e70	  x1=0x80000e70
       58255000	      5824	00000000	00000013	addi	x0,x0,0	  x0:0x00000000
       58265000	      5825	80000e5c	00000013	addi	x0,x0,0	  x0:0x00000000
       58275000	      5826	80000e60	004000ef	jal	x1,80000e60	  x1=0x80000e60
       58285000	      5827	00000000	00000013	addi	x0,x0,0	  x0:0x00000000
       58295000	      5828	80000e60	00000013	addi	x0,x0,0	  x0:0x00000000
       58305000	      5829	80000e64	fa9ff3ef	jal	x7,80000e64	  x7=0x80000e64
       58315000	      5830	00000000	00000013	addi	x0,x0,0	  x0:0x00000000
       58325000	      5831	80000e08	00000013	addi	x0,x0,0	  x0:0x00000000
       58335000	      5832	80000e0c	06c000ef	jal	x1,80000e0c	  x1=0x80000e0c
       58345000	      5833	00000000	00000013	addi	x0,x0,0	  x0:0x00000000
       58355000	      5834	80000e74	00000013	addi	x0,x0,0	  x0:0x00000000
       58365000	      5835	80000e78	0c8ff913	andi	x18,x31,200	 x31:0x00000000 x18=0x00000000
       58375000	      5836	80000e7c	0200036f	jal	x6,80000e7c	  x6=0x80000e7c
       58385000	      5837	00000000	00000013	addi	x0,x0,0	  x0:0x00000000
       58395000	      5838	80000e98	00000013	addi	x0,x0,0	  x0:0x00000000
       58405000	      5839	80000e9c	0040036f	jal	x6,80000e9c	  x6=0x80000e9c
       58415000	      5840	00000000	00000013	addi	x0,x0,0	  x0:0x00000000
       58425000	      5841	80000e9c	00000013	addi	x0,x0,0	  x0:0x00000000
       58435000	      5842	80000ea0	01000cef	jal	x25,80000ea0	 x25=0x80000ea0
       58445000	      5843	00000000	00000013	addi	x0,x0,0	  x0:0x00000000
       58455000	      5844	80000eac	00000013	addi	x0,x0,0	  x0:0x00000000
       58465000	      5845	80000eb0	fddffc6f	jal	x24,80000eb0	 x24=0x80000eb0
       58475000	      5846	00000000	00000013	addi	x0,x0,0	  x0:0x00000000
       58485000	      5847	80000e88	00000013	addi	x0,x0,0	  x0:0x00000000
       58495000	      5848	80000e8c	004000ef	jal	x1,80000e8c	  x1=0x80000e8c
       58505000	      5849	00000000	00000013	addi	x0,x0,0	  x0:0x00000000
       58515000	      5850	80000e8c	00000013	addi	x0,x0,0	  x0:0x00000000
       58525000	      5851	80000e90	ff9fffef	jal	x31,80000e90	 x31=0x80000e90
       58535000	      5852	00000000	00000013	addi	x0,x0,0	  x0:0x00000000
       58545000	      5853	80000e84	00000013	addi	x0,x0,0	  x0:0x00000000
       58555000	      5854	80000e88	020000ef	jal	x1,80000e88	  x1=0x80000e88
       58565000	      5855	00000000	00000013	addi	x0,x0,0	  x0:0x00000000
       58575000	      5856	80000ea4	00000013	addi	x0,x0,0	  x0:0x00000000
       58585000	      5857	80000ea8	fedff0ef	jal	x1,80000ea8	  x1=0x80000ea8
       58595000	      5858	00000000	00000013	addi	x0,x0,0	  x0:0x00000000
       58605000	      5859	80000e90	00000013	addi	x0,x0,0	  x0:0x00000000
       58615000	      5860	80000e94	018000ef	jal	x1,80000e94	  x1=0x80000e94
       58625000	      5861	00000000	00000013	addi	x0,x0,0	  x0:0x00000000
       58635000	      5862	80000ea8	00000013	addi	x0,x0,0	  x0:0x00000000
       58645000	      5863	80000eac	ff9ff0ef	jal	x1,80000eac	  x1=0x80000eac
       58655000	      5864	00000000	00000013	addi	x0,x0,0	  x0:0x00000000
       58665000	      5865	80000ea0	00000013	addi	x0,x0,0	  x0:0x00000000
       58675000	      5866	80000ea4	fe1ff0ef	jal	x1,80000ea4	  x1=0x80000ea4
       58685000	      5867	00000000	00000013	addi	x0,x0,0	  x0:0x00000000
       58695000	      5868	80000e80	00000013	addi	x0,x0,0	  x0:0x00000000
       58705000	      5869	80000e84	ffdff36f	jal	x6,80000e84	  x6=0x80000e84
       58715000	      5870	00000000	00000013	addi	x0,x0,0	  x0:0x00000000
       58725000	      5871	80000e7c	00000013	addi	x0,x0,0	  x0:0x00000000
       58735000	      5872	80000e80	0180036f	jal	x6,80000e80	  x6=0x80000e80
       58745000	      5873	00000000	00000013	addi	x0,x0,0	  x0:0x00000000
       58755000	      5874	80000e94	00000013	addi	x0,x0,0	  x0:0x00000000
       58765000	      5875	80000e98	01c000ef	jal	x1,80000e98	  x1=0x80000e98
       58775000	      5876	00000000	00000013	addi	x0,x0,0	  x0:0x00000000
       58785000	      5877	80000eb0	00000013	addi	x0,x0,0	  x0:0x00000000
       58795000	      5878	80000eb4	01d70e33	add	x28,x14,x29	 x14:0x80000dc0 x29:0xf22f49ae x28=0x722f576e
       58805000	      5879	80000eb8	0580036f	jal	x6,80000eb8	  x6=0x80000eb8
       58815000	      5880	00000000	00000013	addi	x0,x0,0	  x0:0x00000000
       58825000	      5881	80000f0c	00000013	addi	x0,x0,0	  x0:0x00000000
       58835000	      5882	80000f10	fb9ff2ef	jal	x5,80000f10	  x5=0x80000f10
       58845000	      5883	00000000	00000013	addi	x0,x0,0	  x0:0x00000000
       58855000	      5884	80000ec4	00000013	addi	x0,x0,0	  x0:0x00000000
       58865000	      5885	80000ec8	050000ef	jal	x1,80000ec8	  x1=0x80000ec8
       58875000	      5886	00000000	00000013	addi	x0,x0,0	  x0:0x00000000
       58885000	      5887	80000f14	00000013	addi	x0,x0,0	  x0:0x00000000
       58895000	      5888	80000f18	fe1ffaef	jal	x21,80000f18	 x21=0x80000f18
       58905000	      5889	00000000	00000013	addi	x0,x0,0	  x0:0x00000000
       58915000	      5890	80000ef4	00000013	addi	x0,x0,0	  x0:0x00000000
       58925000	      5891	80000ef8	fd9ff0ef	jal	x1,80000ef8	  x1=0x80000ef8
       58935000	      5892	00000000	00000013	addi	x0,x0,0	  x0:0x00000000
       58945000	      5893	80000ecc	00000013	addi	x0,x0,0	  x0:0x00000000
       58955000	      5894	80000ed0	01c00e6f	jal	x28,80000ed0	 x28=0x80000ed0
       58965000	      5895	00000000	00000013	addi	x0,x0,0	  x0:0x00000000
       58975000	      5896	80000ee8	00000013	addi	x0,x0,0	  x0:0x00000000
       58985000	      5897	80000eec	ff5ff0ef	jal	x1,80000eec	  x1=0x80000eec
       58995000	      5898	00000000	00000013	addi	x0,x0,0	  x0:0x00000000
       59005000	      5899	80000edc	00000013	addi	x0,x0,0	  x0:0x00000000
       59015000	      5900	80000ee0	044000ef	jal	x1,80000ee0	  x1=0x80000ee0
       59025000	      5901	00000000	00000013	addi	x0,x0,0	  x0:0x00000000
       59035000	      5902	80000f20	00000013	addi	x0,x0,0	  x0:0x00000000
       59045000	      5903	80000f24	fd1ff0ef	jal	x1,80000f24	  x1=0x80000f24
       59055000	      5904	00000000	00000013	addi	x0,x0,0	  x0:0x00000000
       59065000	      5905	80000ef0	00000013	addi	x0,x0,0	  x0:0x00000000
       59075000	      5906	80000ef4	010000ef	jal	x1,80000ef4	  x1=0x80000ef4
       59085000	      5907	00000000	00000013	addi	x0,x0,0	  x0:0x00000000
       59095000	      5908	80000f00	00000013	addi	x0,x0,0	  x0:0x00000000
       59105000	      5909	80000f04	fd9ffaef	jal	x21,80000f04	 x21=0x80000f04
       59115000	      5910	00000000	00000013	addi	x0,x0,0	  x0:0x00000000
       59125000	      5911	80000ed8	00000013	addi	x0,x0,0	  x0:0x00000000
       59135000	      5912	80000edc	00c000ef	jal	x1,80000edc	  x1=0x80000edc
       59145000	      5913	00000000	00000013	addi	x0,x0,0	  x0:0x00000000
       59155000	      5914	80000ee4	00000013	addi	x0,x0,0	  x0:0x00000000
       59165000	      5915	80000ee8	0340036f	jal	x6,80000ee8	  x6=0x80000ee8
       59175000	      5916	00000000	00000013	addi	x0,x0,0	  x0:0x00000000
       59185000	      5917	80000f18	00000013	addi	x0,x0,0	  x0:0x00000000
       59195000	      5918	80000f1c	fa5ffe6f	jal	x28,80000f1c	 x28=0x80000f1c
       59205000	      5919	00000000	00000013	addi	x0,x0,0	  x0:0x00000000
       59215000	      5920	80000ebc	00000013	addi	x0,x0,0	  x0:0x00000000
       59225000	      5921	80000ec0	0180056f	jal	x10,80000ec0	 x10=0x80000ec0
       59235000	      5922	00000000	00000013	addi	x0,x0,0	  x0:0x00000000
       59245000	      5923	80000ed4	00000013	addi	x0,x0,0	  x0:0x00000000
       59255000	      5924	80000ed8	fe5ff1ef	jal	x3,80000ed8	  x3=0x80000ed8
       59265000	      5925	00000000	00000013	addi	x0,x0,0	  x0:0x00000000
       59275000	      5926	80000eb8	00000013	addi	x0,x0,0	  x0:0x00000000
       59285000	      5927	80000ebc	01000fef	jal	x31,80000ebc	 x31=0x80000ebc
       59295000	      5928	00000000	00000013	addi	x0,x0,0	  x0:0x00000000
       59305000	      5929	80000ec8	00000013	addi	x0,x0,0	  x0:0x00000000
       59315000	      5930	80000ecc	ff9ff36f	jal	x6,80000ecc	  x6=0x80000ecc
       59325000	      5931	00000000	00000013	addi	x0,x0,0	  x0:0x00000000
       59335000	      5932	80000ec0	00000013	addi	x0,x0,0	  x0:0x00000000
       59345000	      5933	80000ec4	02c0036f	jal	x6,80000ec4	  x6=0x80000ec4
       59355000	      5934	00000000	00000013	addi	x0,x0,0	  x0:0x00000000
       59365000	      5935	80000eec	00000013	addi	x0,x0,0	  x0:0x00000000
       59375000	      5936	80000ef0	0180036f	jal	x6,80000ef0	  x6=0x80000ef0
       59385000	      5937	00000000	00000013	addi	x0,x0,0	  x0:0x00000000
       59395000	      5938	80000f04	00000013	addi	x0,x0,0	  x0:0x00000000
       59405000	      5939	80000f08	00c000ef	jal	x1,80000f08	  x1=0x80000f08
       59415000	      5940	00000000	00000013	addi	x0,x0,0	  x0:0x00000000
       59425000	      5941	80000f10	00000013	addi	x0,x0,0	  x0:0x00000000
       59435000	      5942	80000f14	014001ef	jal	x3,80000f14	  x3=0x80000f14
       59445000	      5943	00000000	00000013	addi	x0,x0,0	  x0:0x00000000
       59455000	      5944	80000f24	00000013	addi	x0,x0,0	  x0:0x00000000
       59465000	      5945	80000f28	fe5ff36f	jal	x6,80000f28	  x6=0x80000f28
       59475000	      5946	00000000	00000013	addi	x0,x0,0	  x0:0x00000000
       59485000	      5947	80000f08	00000013	addi	x0,x0,0	  x0:0x00000000
       59495000	      5948	80000f0c	ff5ff5ef	jal	x11,80000f0c	 x11=0x80000f0c
       59505000	      5949	00000000	00000013	addi	x0,x0,0	  x0:0x00000000
       59515000	      5950	80000efc	00000013	addi	x0,x0,0	  x0:0x00000000
       59525000	      5951	80000f00	fe5ff36f	jal	x6,80000f00	  x6=0x80000f00
       59535000	      5952	00000000	00000013	addi	x0,x0,0	  x0:0x00000000
       59545000	      5953	80000ee0	00000013	addi	x0,x0,0	  x0:0x00000000
       59555000	      5954	80000ee4	03c0076f	jal	x14,80000ee4	 x14=0x80000ee4
       59565000	      5955	00000000	00000013	addi	x0,x0,0	  x0:0x00000000
       59575000	      5956	80000f1c	00000013	addi	x0,x0,0	  x0:0x00000000
       59585000	      5957	80000f20	fb5ff0ef	jal	x1,80000f20	  x1=0x80000f20
       59595000	      5958	00000000	00000013	addi	x0,x0,0	  x0:0x00000000
       59605000	      5959	80000ed0	00000013	addi	x0,x0,0	  x0:0x00000000
       59615000	      5960	80000ed4	0280036f	jal	x6,80000ed4	  x6=0x80000ed4
       59625000	      5961	00000000	00000013	addi	x0,x0,0	  x0:0x00000000
       59635000	      5962	80000ef8	00000013	addi	x0,x0,0	  x0:0x00000000
       59645000	      5963	80000efc	0300036f	jal	x6,80000efc	  x6=0x80000efc
       59655000	      5964	00000000	00000013	addi	x0,x0,0	  x0:0x00000000
       59665000	      5965	80000f28	00000013	addi	x0,x0,0	  x0:0x00000000
       59675000	      5966	80000f2c	2ea6e813	ori	x16,x13,746	 x13:0x00000003 x16=0x000002eb
       59685000	      5967	80000f30	05c0036f	jal	x6,80000f30	  x6=0x80000f30
       59695000	      5968	00000000	00000013	addi	x0,x0,0	  x0:0x00000000
       59705000	      5969	80000f88	00000013	addi	x0,x0,0	  x0:0x00000000
       59715000	      5970	80000f8c	fddff0ef	jal	x1,80000f8c	  x1=0x80000f8c
       59725000	      5971	00000000	00000013	addi	x0,x0,0	  x0:0x00000000
       59735000	      5972	80000f64	00000013	addi	x0,x0,0	  x0:0x00000000
       59745000	      5973	80000f68	020000ef	jal	x1,80000f68	  x1=0x80000f68
       59755000	      5974	00000000	00000013	addi	x0,x0,0	  x0:0x00000000
       59765000	      5975	80000f84	00000013	addi	x0,x0,0	  x0:0x00000000
       59775000	      5976	80000f88	fcdffe6f	jal	x28,80000f88	 x28=0x80000f88
       59785000	      5977	00000000	00000013	addi	x0,x0,0	  x0:0x00000000
       59795000	      5978	80000f50	00000013	addi	x0,x0,0	  x0:0x00000000
       59805000	      5979	80000f54	0280036f	jal	x6,80000f54	  x6=0x80000f54
       59815000	      5980	00000000	00000013	addi	x0,x0,0	  x0:0x00000000
       59825000	      5981	80000f78	00000013	addi	x0,x0,0	  x0:0x00000000
       59835000	      5982	80000f7c	fb9ff0ef	jal	x1,80000f7c	  x1=0x80000f7c
       59845000	      5983	00000000	00000013	addi	x0,x0,0	  x0:0x00000000
       59855000	      5984	80000f30	00000013	addi	x0,x0,0	  x0:0x00000000
       59865000	      5985	80000f34	0500036f	jal	x6,80000f34	  x6=0x80000f34
       59875000	      5986	00000000	00000013	addi	x0,x0,0	  x0:0x00000000
       59885000	      5987	80000f80	00000013	addi	x0,x0,0	  x0:0x00000000
       59895000	      5988	80000f84	ffdffbef	jal	x23,80000f84	 x23=0x80000f84
       59905000	      5989	00000000	00000013	addi	x0,x0,0	  x0:0x00000000
       59915000	      5990	80000f7c	00000013	addi	x0,x0,0	  x0:0x00000000
       59925000	      5991	80000f80	fc5ff0ef	jal	x1,80000f80	  x1=0x80000f80
       59935000	      5992	00000000	00000013	addi	x0,x0,0	  x0:0x00000000
       59945000	      5993	80000f40	00000013	addi	x0,x0,0	  x0:0x00000000
       59955000	      5994	80000f44	034005ef	jal	x11,80000f44	 x11=0x80000f44
       59965000	      5995	00000000	00000013	addi	x0,x0,0	  x0:0x00000000
       59975000	      5996	80000f74	00000013	addi	x0,x0,0	  x0:0x00000000
       59985000	      5997	80000f78	fc9ff0ef	jal	x1,80000f78	  x1=0x80000f78
       59995000	      5998	00000000	00000013	addi	x0,x0,0	  x0:0x00000000
       60005000	      5999	80000f3c	00000013	addi	x0,x0,0	  x0:0x00000000
       60015000	      6000	80000f40	024000ef	jal	x1,80000f40	  x1=0x80000f40
       60025000	      6001	00000000	00000013	addi	x0,x0,0	  x0:0x00000000
       60035000	      6002	80000f60	00000013	addi	x0,x0,0	  x0:0x00000000
       60045000	      6003	80000f64	fe9ff0ef	jal	x1,80000f64	  x1=0x80000f64
       60055000	      6004	00000000	00000013	addi	x0,x0,0	  x0:0x00000000
       60065000	      6005	80000f48	00000013	addi	x0,x0,0	  x0:0x00000000
       60075000	      6006	80000f4c	ffdff0ef	jal	x1,80000f4c	  x1=0x80000f4c
       60085000	      6007	00000000	00000013	addi	x0,x0,0	  x0:0x00000000
       60095000	      6008	80000f44	00000013	addi	x0,x0,0	  x0:0x00000000
       60105000	      6009	80000f48	ff5ff0ef	jal	x1,80000f48	  x1=0x80000f48
       60115000	      6010	00000000	00000013	addi	x0,x0,0	  x0:0x00000000
       60125000	      6011	80000f38	00000013	addi	x0,x0,0	  x0:0x00000000
       60135000	      6012	80000f3c	024000ef	jal	x1,80000f3c	  x1=0x80000f3c
       60145000	      6013	00000000	00000013	addi	x0,x0,0	  x0:0x00000000
       60155000	      6014	80000f5c	00000013	addi	x0,x0,0	  x0:0x00000000
       60165000	      6015	80000f60	ff1ff0ef	jal	x1,80000f60	  x1=0x80000f60
       60175000	      6016	00000000	00000013	addi	x0,x0,0	  x0:0x00000000
       60185000	      6017	80000f4c	00000013	addi	x0,x0,0	  x0:0x00000000
       60195000	      6018	80000f50	020002ef	jal	x5,80000f50	  x5=0x80000f50
       60205000	      6019	00000000	00000013	addi	x0,x0,0	  x0:0x00000000
       60215000	      6020	80000f6c	00000013	addi	x0,x0,0	  x0:0x00000000
       60225000	      6021	80000f70	ffdff36f	jal	x6,80000f70	  x6=0x80000f70
       60235000	      6022	00000000	00000013	addi	x0,x0,0	  x0:0x00000000
       60245000	      6023	80000f68	00000013	addi	x0,x0,0	  x0:0x00000000
       60255000	      6024	80000f6c	024001ef	jal	x3,80000f6c	  x3=0x80000f6c
       60265000	      6025	00000000	00000013	addi	x0,x0,0	  x0:0x00000000
       60275000	      6026	80000f8c	00000013	addi	x0,x0,0	  x0:0x00000000
       60285000	      6027	80000f90	fcdff36f	jal	x6,80000f90	  x6=0x80000f90
       60295000	      6028	00000000	00000013	addi	x0,x0,0	  x0:0x00000000
       60305000	      6029	80000f58	00000013	addi	x0,x0,0	  x0:0x00000000
       60315000	      6030	80000f5c	fddff36f	jal	x6,80000f5c	  x6=0x80000f5c
       60325000	      6031	00000000	00000013	addi	x0,x0,0	  x0:0x00000000
       60335000	      6032	80000f34	00000013	addi	x0,x0,0	  x0:0x00000000
       60345000	      6033	80000f38	03c000ef	jal	x1,80000f38	  x1=0x80000f38
       60355000	      6034	00000000	00000013	addi	x0,x0,0	  x0:0x00000000
       60365000	      6035	80000f70	00000013	addi	x0,x0,0	  x0:0x00000000
       60375000	      6036	80000f74	fe5ff36f	jal	x6,80000f74	  x6=0x80000f74
       60385000	      6037	00000000	00000013	addi	x0,x0,0	  x0:0x00000000
       60395000	      6038	80000f54	00000013	addi	x0,x0,0	  x0:0x00000000
       60405000	      6039	80000f58	03c000ef	jal	x1,80000f58	  x1=0x80000f58
       60415000	      6040	00000000	00000013	addi	x0,x0,0	  x0:0x00000000
       60425000	      6041	80000f90	00000013	addi	x0,x0,0	  x0:0x00000000
       60435000	      6042	80000f94	8f582313	slti	x6,x16,-1803	 x16:0x000002eb  x6=0x00000000
       60445000	      6043	80000f98	02c0036f	jal	x6,80000f98	  x6=0x80000f98
       60455000	      6044	00000000	00000013	addi	x0,x0,0	  x0:0x00000000
       60465000	      6045	80000fc0	00000013	addi	x0,x0,0	  x0:0x00000000
       60475000	      6046	80000fc4	ff1ffb6f	jal	x22,80000fc4	 x22=0x80000fc4
       60485000	      6047	00000000	00000013	addi	x0,x0,0	  x0:0x00000000
       60495000	      6048	80000fb0	00000013	addi	x0,x0,0	  x0:0x00000000
       60505000	      6049	80000fb4	fe9ff0ef	jal	x1,80000fb4	  x1=0x80000fb4
       60515000	      6050	00000000	00000013	addi	x0,x0,0	  x0:0x00000000
       60525000	      6051	80000f98	00000013	addi	x0,x0,0	  x0:0x00000000
       60535000	      6052	80000f9c	01c0036f	jal	x6,80000f9c	  x6=0x80000f9c
       60545000	      6053	00000000	00000013	addi	x0,x0,0	  x0:0x00000000
       60555000	      6054	80000fb4	00000013	addi	x0,x0,0	  x0:0x00000000
       60565000	      6055	80000fb8	0500036f	jal	x6,80000fb8	  x6=0x80000fb8
       60575000	      6056	00000000	00000013	addi	x0,x0,0	  x0:0x00000000
       60585000	      6057	80001004	00000013	addi	x0,x0,0	  x0:0x00000000
       60595000	      6058	80001008	ffdff8ef	jal	x17,80001008	 x17=0x80001008
       60605000	      6059	00000000	00000013	addi	x0,x0,0	  x0:0x00000000
       60615000	      6060	80001000	00000013	addi	x0,x0,0	  x0:0x00000000
       60625000	      6061	80001004	fa9ff0ef	jal	x1,80001004	  x1=0x80001004
       60635000	      6062	00000000	00000013	addi	x0,x0,0	  x0:0x00000000
       60645000	      6063	80000fa8	00000013	addi	x0,x0,0	  x0:0x00000000
       60655000	      6064	80000fac	0240036f	jal	x6,80000fac	  x6=0x80000fac
       60665000	      6065	00000000	00000013	addi	x0,x0,0	  x0:0x00000000
       60675000	      6066	80000fcc	00000013	addi	x0,x0,0	  x0:0x00000000
       60685000	      6067	80000fd0	03c0036f	jal	x6,80000fd0	  x6=0x80000fd0
       60695000	      6068	00000000	00000013	addi	x0,x0,0	  x0:0x00000000
       60705000	      6069	80001008	00000013	addi	x0,x0,0	  x0:0x00000000
       60715000	      6070	8000100c	ff1ff0ef	jal	x1,8000100c	  x1=0x8000100c
       60725000	      6071	00000000	00000013	addi	x0,x0,0	  x0:0x00000000
       60735000	      6072	80000ff8	00000013	addi	x0,x0,0	  x0:0x00000000
       60745000	      6073	80000ffc	ff1ffdef	jal	x27,80000ffc	 x27=0x80000ffc
       60755000	      6074	00000000	00000013	addi	x0,x0,0	  x0:0x00000000
       60765000	      6075	80000fe8	00000013	addi	x0,x0,0	  x0:0x00000000
       60775000	      6076	80000fec	fbdff46f	jal	x8,80000fec	  x8=0x80000fec
       60785000	      6077	00000000	00000013	addi	x0,x0,0	  x0:0x00000000
       60795000	      6078	80000fa4	00000013	addi	x0,x0,0	  x0:0x00000000
       60805000	      6079	80000fa8	0480046f	jal	x8,80000fa8	  x8=0x80000fa8
       60815000	      6080	00000000	00000013	addi	x0,x0,0	  x0:0x00000000
       60825000	      6081	80000fec	00000013	addi	x0,x0,0	  x0:0x00000000
       60835000	      6082	80000ff0	ff9ff26f	jal	x4,80000ff0	  x4=0x80000ff0
       60845000	      6083	00000000	00000013	addi	x0,x0,0	  x0:0x00000000
       60855000	      6084	80000fe4	00000013	addi	x0,x0,0	  x0:0x00000000
       60865000	      6085	80000fe8	fbdff0ef	jal	x1,80000fe8	  x1=0x80000fe8
       60875000	      6086	00000000	00000013	addi	x0,x0,0	  x0:0x00000000
       60885000	      6087	80000fa0	00000013	addi	x0,x0,0	  x0:0x00000000
       60895000	      6088	80000fa4	05c006ef	jal	x13,80000fa4	 x13=0x80000fa4
       60905000	      6089	00000000	00000013	addi	x0,x0,0	  x0:0x00000000
       60915000	      6090	80000ffc	00000013	addi	x0,x0,0	  x0:0x00000000
       60925000	      6091	80001000	fc1ff2ef	jal	x5,80001000	  x5=0x80001000
       60935000	      6092	00000000	00000013	addi	x0,x0,0	  x0:0x00000000
       60945000	      6093	80000fbc	00000013	addi	x0,x0,0	  x0:0x00000000
       60955000	      6094	80000fc0	0200036f	jal	x6,80000fc0	  x6=0x80000fc0
       60965000	      6095	00000000	00000013	addi	x0,x0,0	  x0:0x00000000
       60975000	      6096	80000fdc	00000013	addi	x0,x0,0	  x0:0x00000000
       60985000	      6097	80000fe0	fe9ff0ef	jal	x1,80000fe0	  x1=0x80000fe0
       60995000	      6098	00000000	00000013	addi	x0,x0,0	  x0:0x00000000
       61005000	      6099	80000fc4	00000013	addi	x0,x0,0	  x0:0x00000000
       61015000	      6100	80000fc8	fe9ff36f	jal	x6,80000fc8	  x6=0x80000fc8
       61025000	      6101	00000000	00000013	addi	x0,x0,0	  x0:0x00000000
       61035000	      6102	80000fac	00000013	addi	x0,x0,0	  x0:0x00000000
       61045000	      6103	80000fb0	044009ef	jal	x19,80000fb0	 x19=0x80000fb0
       61055000	      6104	00000000	00000013	addi	x0,x0,0	  x0:0x00000000
       61065000	      6105	80000ff0	00000013	addi	x0,x0,0	  x0:0x00000000
       61075000	      6106	80000ff4	004000ef	jal	x1,80000ff4	  x1=0x80000ff4
       61085000	      6107	00000000	00000013	addi	x0,x0,0	  x0:0x00000000
       61095000	      6108	80000ff4	00000013	addi	x0,x0,0	  x0:0x00000000
       61105000	      6109	80000ff8	fc5ff0ef	jal	x1,80000ff8	  x1=0x80000ff8
       61115000	      6110	00000000	00000013	addi	x0,x0,0	  x0:0x00000000
       61125000	      6111	80000fb8	00000013	addi	x0,x0,0	  x0:0x00000000
       61135000	      6112	80000fbc	fe5ff1ef	jal	x3,80000fbc	  x3=0x80000fbc
       61145000	      6113	00000000	00000013	addi	x0,x0,0	  x0:0x00000000
       61155000	      6114	80000f9c	00000013	addi	x0,x0,0	  x0:0x00000000
       61165000	      6115	80000fa0	03c0026f	jal	x4,80000fa0	  x4=0x80000fa0
       61175000	      6116	00000000	00000013	addi	x0,x0,0	  x0:0x00000000
       61185000	      6117	80000fd8	00000013	addi	x0,x0,0	  x0:0x00000000
       61195000	      6118	80000fdc	ff9ffaef	jal	x21,80000fdc	 x21=0x80000fdc
       61205000	      6119	00000000	00000013	addi	x0,x0,0	  x0:0x00000000
       61215000	      6120	80000fd0	00000013	addi	x0,x0,0	  x0:0x00000000
       61225000	      6121	80000fd4	03c0036f	jal	x6,80000fd4	  x6=0x80000fd4
       61235000	      6122	00000000	00000013	addi	x0,x0,0	  x0:0x00000000
       61245000	      6123	8000100c	00000013	addi	x0,x0,0	  x0:0x00000000
       61255000	      6124	80001010	fd5ff0ef	jal	x1,80001010	  x1=0x80001010
       61265000	      6125	00000000	00000013	addi	x0,x0,0	  x0:0x00000000
       61275000	      6126	80000fe0	00000013	addi	x0,x0,0	  x0:0x00000000
       61285000	      6127	80000fe4	fe9ff0ef	jal	x1,80000fe4	  x1=0x80000fe4
       61295000	      6128	00000000	00000013	addi	x0,x0,0	  x0:0x00000000
       61305000	      6129	80000fc8	00000013	addi	x0,x0,0	  x0:0x00000000
       61315000	      6130	80000fcc	00c0026f	jal	x4,80000fcc	  x4=0x80000fcc
       61325000	      6131	00000000	00000013	addi	x0,x0,0	  x0:0x00000000
       61335000	      6132	80000fd4	00000013	addi	x0,x0,0	  x0:0x00000000
       61345000	      6133	80000fd8	03c00a6f	jal	x20,80000fd8	 x20=0x80000fd8
       61355000	      6134	00000000	00000013	addi	x0,x0,0	  x0:0x00000000
       61365000	      6135	80001010	00000013	addi	x0,x0,0	  x0:0x00000000
       61375000	      6136	80001014	019a05b3	add	x11,x20,x25	 x20:0x80000fd8 x25:0x80000ea0 x11=0x00001e78
       61385000	      6137	80001018	0300036f	jal	x6,80001018	  x6=0x80001018
       61395000	      6138	00000000	00000013	addi	x0,x0,0	  x0:0x00000000
       61405000	      6139	80001044	00000013	addi	x0,x0,0	  x0:0x00000000
       61415000	      6140	80001048	018000ef	jal	x1,80001048	  x1=0x80001048
       61425000	      6141	00000000	00000013	addi	x0,x0,0	  x0:0x00000000
       61435000	      6142	8000105c	00000013	addi	x0,x0,0	  x0:0x00000000
       61445000	      6143	80001060	fddff4ef	jal	x9,80001060	  x9=0x80001060
       61455000	      6144	00000000	00000013	addi	x0,x0,0	  x0:0x00000000
       61465000	      6145	80001038	00000013	addi	x0,x0,0	  x0:0x00000000
       61475000	      6146	8000103c	fe9ff5ef	jal	x11,8000103c	 x11=0x8000103c
       61485000	      6147	00000000	00000013	addi	x0,x0,0	  x0:0x00000000
       61495000	      6148	80001020	00000013	addi	x0,x0,0	  x0:0x00000000
       61505000	      6149	80001024	0280076f	jal	x14,80001024	 x14=0x80001024
       61515000	      6150	00000000	00000013	addi	x0,x0,0	  x0:0x00000000
       61525000	      6151	80001048	00000013	addi	x0,x0,0	  x0:0x00000000
       61535000	      6152	8000104c	00400fef	jal	x31,8000104c	 x31=0x8000104c
       61545000	      6153	00000000	00000013	addi	x0,x0,0	  x0:0x00000000
       61555000	      6154	8000104c	00000013	addi	x0,x0,0	  x0:0x00000000
       61565000	      6155	80001050	ff1ff0ef	jal	x1,80001050	  x1=0x80001050
       61575000	      6156	00000000	00000013	addi	x0,x0,0	  x0:0x00000000
       61585000	      6157	8000103c	00000013	addi	x0,x0,0	  x0:0x00000000
       61595000	      6158	80001040	fe9ff5ef	jal	x11,80001040	 x11=0x80001040
       61605000	      6159	00000000	00000013	addi	x0,x0,0	  x0:0x00000000
       61615000	      6160	80001024	00000013	addi	x0,x0,0	  x0:0x00000000
       61625000	      6161	80001028	00400b6f	jal	x22,80001028	 x22=0x80001028
       61635000	      6162	00000000	00000013	addi	x0,x0,0	  x0:0x00000000
       61645000	      6163	80001028	00000013	addi	x0,x0,0	  x0:0x00000000
       61655000	      6164	8000102c	ff1ff0ef	jal	x1,8000102c	  x1=0x8000102c
       61665000	      6165	00000000	00000013	addi	x0,x0,0	  x0:0x00000000
       61675000	      6166	80001018	00000013	addi	x0,x0,0	  x0:0x00000000
       61685000	      6167	8000101c	0140036f	jal	x6,8000101c	  x6=0x8000101c
       61695000	      6168	00000000	00000013	addi	x0,x0,0	  x0:0x00000000
       61705000	      6169	8000102c	00000013	addi	x0,x0,0	  x0:0x00000000
       61715000	      6170	80001030	004001ef	jal	x3,80001030	  x3=0x80001030
       61725000	      6171	00000000	00000013	addi	x0,x0,0	  x0:0x00000000
       61735000	      6172	80001030	00000013	addi	x0,x0,0	  x0:0x00000000
       61745000	      6173	80001034	024000ef	jal	x1,80001034	  x1=0x80001034
       61755000	      6174	00000000	00000013	addi	x0,x0,0	  x0:0x00000000
       61765000	      6175	80001054	00000013	addi	x0,x0,0	  x0:0x00000000
       61775000	      6176	80001058	ffdff4ef	jal	x9,80001058	  x9=0x80001058
       61785000	      6177	00000000	00000013	addi	x0,x0,0	  x0:0x00000000
       61795000	      6178	80001050	00000013	addi	x0,x0,0	  x0:0x00000000
       61805000	      6179	80001054	008000ef	jal	x1,80001054	  x1=0x80001054
       61815000	      6180	00000000	00000013	addi	x0,x0,0	  x0:0x00000000
       61825000	      6181	80001058	00000013	addi	x0,x0,0	  x0:0x00000000
       61835000	      6182	8000105c	fddff0ef	jal	x1,8000105c	  x1=0x8000105c
       61845000	      6183	00000000	00000013	addi	x0,x0,0	  x0:0x00000000
       61855000	      6184	80001034	00000013	addi	x0,x0,0	  x0:0x00000000
       61865000	      6185	80001038	fe9ff0ef	jal	x1,80001038	  x1=0x80001038
       61875000	      6186	00000000	00000013	addi	x0,x0,0	  x0:0x00000000
       61885000	      6187	8000101c	00000013	addi	x0,x0,0	  x0:0x00000000
       61895000	      6188	80001020	048000ef	jal	x1,80001020	  x1=0x80001020
       61905000	      6189	00000000	00000013	addi	x0,x0,0	  x0:0x00000000
       61915000	      6190	80001064	00000013	addi	x0,x0,0	  x0:0x00000000
       61925000	      6191	80001068	fddffe6f	jal	x28,80001068	 x28=0x80001068
       61935000	      6192	00000000	00000013	addi	x0,x0,0	  x0:0x00000000
       61945000	      6193	80001040	00000013	addi	x0,x0,0	  x0:0x00000000
       61955000	      6194	80001044	020000ef	jal	x1,80001044	  x1=0x80001044
       61965000	      6195	00000000	00000013	addi	x0,x0,0	  x0:0x00000000
       61975000	      6196	80001060	00000013	addi	x0,x0,0	  x0:0x00000000
       61985000	      6197	80001064	00800f6f	jal	x30,80001064	 x30=0x80001064
       61995000	      6198	00000000	00000013	addi	x0,x0,0	  x0:0x00000000
       62005000	      6199	80001068	00000013	addi	x0,x0,0	  x0:0x00000000
       62015000	      6200	8000106c	0f52a913	slti	x18,x5,245	  x5:0x80001000 x18=0x00000001
       62025000	      6201	80001070	0700036f	jal	x6,80001070	  x6=0x80001070
       62035000	      6202	00000000	00000013	addi	x0,x0,0	  x0:0x00000000
       62045000	      6203	800010dc	00000013	addi	x0,x0,0	  x0:0x00000000
       62055000	      6204	800010e0	fb9ff76f	jal	x14,800010e0	 x14=0x800010e0
       62065000	      6205	00000000	00000013	addi	x0,x0,0	  x0:0x00000000
       62075000	      6206	80001094	00000013	addi	x0,x0,0	  x0:0x00000000
       62085000	      6207	80001098	0300036f	jal	x6,80001098	  x6=0x80001098
       62095000	      6208	00000000	00000013	addi	x0,x0,0	  x0:0x00000000
       62105000	      6209	800010c4	00000013	addi	x0,x0,0	  x0:0x00000000
       62115000	      6210	800010c8	008001ef	jal	x3,800010c8	  x3=0x800010c8
       62125000	      6211	00000000	00000013	addi	x0,x0,0	  x0:0x00000000
       62135000	      6212	800010cc	00000013	addi	x0,x0,0	  x0:0x00000000
       62145000	      6213	800010d0	ff5ff0ef	jal	x1,800010d0	  x1=0x800010d0
       62155000	      6214	00000000	00000013	addi	x0,x0,0	  x0:0x00000000
       62165000	      6215	800010c0	00000013	addi	x0,x0,0	  x0:0x00000000
       62175000	      6216	800010c4	fedff5ef	jal	x11,800010c4	 x11=0x800010c4
       62185000	      6217	00000000	00000013	addi	x0,x0,0	  x0:0x00000000
       62195000	      6218	800010ac	00000013	addi	x0,x0,0	  x0:0x00000000
       62205000	      6219	800010b0	ff9ff76f	jal	x14,800010b0	 x14=0x800010b0
       62215000	      6220	00000000	00000013	addi	x0,x0,0	  x0:0x00000000
       62225000	      6221	800010a4	00000013	addi	x0,x0,0	  x0:0x00000000
       62235000	      6222	800010a8	fedff0ef	jal	x1,800010a8	  x1=0x800010a8
       62245000	      6223	00000000	00000013	addi	x0,x0,0	  x0:0x00000000
       62255000	      6224	80001090	00000013	addi	x0,x0,0	  x0:0x00000000
       62265000	      6225	80001094	fedff0ef	jal	x1,80001094	  x1=0x80001094
       62275000	      6226	00000000	00000013	addi	x0,x0,0	  x0:0x00000000
       62285000	      6227	8000107c	00000013	addi	x0,x0,0	  x0:0x00000000
       62295000	      6228	80001080	01c000ef	jal	x1,80001080	  x1=0x80001080
       62305000	      6229	00000000	00000013	addi	x0,x0,0	  x0:0x00000000
       62315000	      6230	80001098	00000013	addi	x0,x0,0	  x0:0x00000000
       62325000	      6231	8000109c	fe9ff0ef	jal	x1,8000109c	  x1=0x8000109c
       62335000	      6232	00000000	00000013	addi	x0,x0,0	  x0:0x00000000
       62345000	      6233	80001080	00000013	addi	x0,x0,0	  x0:0x00000000
       62355000	      6234	80001084	0580056f	jal	x10,80001084	 x10=0x80001084
       62365000	      6235	00000000	00000013	addi	x0,x0,0	  x0:0x00000000
       62375000	      6236	800010d8	00000013	addi	x0,x0,0	  x0:0x00000000
       62385000	      6237	800010dc	fa1ff0ef	jal	x1,800010dc	  x1=0x800010dc
       62395000	      6238	00000000	00000013	addi	x0,x0,0	  x0:0x00000000
       62405000	      6239	80001078	00000013	addi	x0,x0,0	  x0:0x00000000
       62415000	      6240	8000107c	0440036f	jal	x6,8000107c	  x6=0x8000107c
       62425000	      6241	00000000	00000013	addi	x0,x0,0	  x0:0x00000000
       62435000	      6242	800010bc	00000013	addi	x0,x0,0	  x0:0x00000000
       62445000	      6243	800010c0	fd1ff0ef	jal	x1,800010c0	  x1=0x800010c0
       62455000	      6244	00000000	00000013	addi	x0,x0,0	  x0:0x00000000
       62465000	      6245	8000108c	00000013	addi	x0,x0,0	  x0:0x00000000
       62475000	      6246	80001090	fe5ff0ef	jal	x1,80001090	  x1=0x80001090
       62485000	      6247	00000000	00000013	addi	x0,x0,0	  x0:0x00000000
       62495000	      6248	80001070	00000013	addi	x0,x0,0	  x0:0x00000000
       62505000	      6249	80001074	040000ef	jal	x1,80001074	  x1=0x80001074
       62515000	      6250	00000000	00000013	addi	x0,x0,0	  x0:0x00000000
       62525000	      6251	800010b0	00000013	addi	x0,x0,0	  x0:0x00000000
       62535000	      6252	800010b4	024000ef	jal	x1,800010b4	  x1=0x800010b4
       62545000	      6253	00000000	00000013	addi	x0,x0,0	  x0:0x00000000
       62555000	      6254	800010d4	00000013	addi	x0,x0,0	  x0:0x00000000
       62565000	      6255	800010d8	fe5ff2ef	jal	x5,800010d8	  x5=0x800010d8
       62575000	      6256	00000000	00000013	addi	x0,x0,0	  x0:0x00000000
       62585000	      6257	800010b8	00000013	addi	x0,x0,0	  x0:0x00000000
       62595000	      6258	800010bc	fe5ff36f	jal	x6,800010bc	  x6=0x800010bc
       62605000	      6259	00000000	00000013	addi	x0,x0,0	  x0:0x00000000
       62615000	      6260	8000109c	00000013	addi	x0,x0,0	  x0:0x00000000
       62625000	      6261	800010a0	fd9ff0ef	jal	x1,800010a0	  x1=0x800010a0
       62635000	      6262	00000000	00000013	addi	x0,x0,0	  x0:0x00000000
       62645000	      6263	80001074	00000013	addi	x0,x0,0	  x0:0x00000000
       62655000	      6264	80001078	054000ef	jal	x1,80001078	  x1=0x80001078
       62665000	      6265	00000000	00000013	addi	x0,x0,0	  x0:0x00000000
       62675000	      6266	800010c8	00000013	addi	x0,x0,0	  x0:0x00000000
       62685000	      6267	800010cc	fe1ff36f	jal	x6,800010cc	  x6=0x800010cc
       62695000	      6268	00000000	00000013	addi	x0,x0,0	  x0:0x00000000
       62705000	      6269	800010a8	00000013	addi	x0,x0,0	  x0:0x00000000
       62715000	      6270	800010ac	00c0036f	jal	x6,800010ac	  x6=0x800010ac
       62725000	      6271	00000000	00000013	addi	x0,x0,0	  x0:0x00000000
       62735000	      6272	800010b4	00000013	addi	x0,x0,0	  x0:0x00000000
       62745000	      6273	800010b8	01c00f6f	jal	x30,800010b8	 x30=0x800010b8
       62755000	      6274	00000000	00000013	addi	x0,x0,0	  x0:0x00000000
       62765000	      6275	800010d0	00000013	addi	x0,x0,0	  x0:0x00000000
       62775000	      6276	800010d4	fd1ff1ef	jal	x3,800010d4	  x3=0x800010d4
       62785000	      6277	00000000	00000013	addi	x0,x0,0	  x0:0x00000000
       62795000	      6278	800010a0	00000013	addi	x0,x0,0	  x0:0x00000000
       62805000	      6279	800010a4	fe5ff0ef	jal	x1,800010a4	  x1=0x800010a4
       62815000	      6280	00000000	00000013	addi	x0,x0,0	  x0:0x00000000
       62825000	      6281	80001084	00000013	addi	x0,x0,0	  x0:0x00000000
       62835000	      6282	80001088	0040036f	jal	x6,80001088	  x6=0x80001088
       62845000	      6283	00000000	00000013	addi	x0,x0,0	  x0:0x00000000
       62855000	      6284	80001088	00000013	addi	x0,x0,0	  x0:0x00000000
       62865000	      6285	8000108c	0580036f	jal	x6,8000108c	  x6=0x8000108c
       62875000	      6286	00000000	00000013	addi	x0,x0,0	  x0:0x00000000
       62885000	      6287	800010e0	00000013	addi	x0,x0,0	  x0:0x00000000
       62895000	      6288	800010e4	00000013	addi	x0,x0,0	  x0:0x00000000
       62905000	      6289	800010e8	0300036f	jal	x6,800010e8	  x6=0x800010e8
       62915000	      6290	00000000	00000013	addi	x0,x0,0	  x0:0x00000000
       62925000	      6291	80001114	00000013	addi	x0,x0,0	  x0:0x00000000
       62935000	      6292	80001118	fe1ff36f	jal	x6,80001118	  x6=0x80001118
       62945000	      6293	00000000	00000013	addi	x0,x0,0	  x0:0x00000000
       62955000	      6294	800010f4	00000013	addi	x0,x0,0	  x0:0x00000000
       62965000	      6295	800010f8	ff9ff7ef	jal	x15,800010f8	 x15=0x800010f8
       62975000	      6296	00000000	00000013	addi	x0,x0,0	  x0:0x00000000
       62985000	      6297	800010ec	00000013	addi	x0,x0,0	  x0:0x00000000
       62995000	      6298	800010f0	ffdff36f	jal	x6,800010f0	  x6=0x800010f0
       63005000	      6299	00000000	00000013	addi	x0,x0,0	  x0:0x00000000
       63015000	      6300	800010e8	00000013	addi	x0,x0,0	  x0:0x00000000
       63025000	      6301	800010ec	0340036f	jal	x6,800010ec	  x6=0x800010ec
       63035000	      6302	00000000	00000013	addi	x0,x0,0	  x0:0x00000000
       63045000	      6303	8000111c	00000013	addi	x0,x0,0	  x0:0x00000000
       63055000	      6304	80001120	fe5ff26f	jal	x4,80001120	  x4=0x80001120
       63065000	      6305	00000000	00000013	addi	x0,x0,0	  x0:0x00000000
       63075000	      6306	80001100	00000013	addi	x0,x0,0	  x0:0x00000000
       63085000	      6307	80001104	0100036f	jal	x6,80001104	  x6=0x80001104
       63095000	      6308	00000000	00000013	addi	x0,x0,0	  x0:0x00000000
       63105000	      6309	80001110	00000013	addi	x0,x0,0	  x0:0x00000000
       63115000	      6310	80001114	fe9ff36f	jal	x6,80001114	  x6=0x80001114
       63125000	      6311	00000000	00000013	addi	x0,x0,0	  x0:0x00000000
       63135000	      6312	800010f8	00000013	addi	x0,x0,0	  x0:0x00000000
       63145000	      6313	800010fc	ff9ff0ef	jal	x1,800010fc	  x1=0x800010fc
       63155000	      6314	00000000	00000013	addi	x0,x0,0	  x0:0x00000000
       63165000	      6315	800010f0	00000013	addi	x0,x0,0	  x0:0x00000000
       63175000	      6316	800010f4	00c0036f	jal	x6,800010f4	  x6=0x800010f4
       63185000	      6317	00000000	00000013	addi	x0,x0,0	  x0:0x00000000
       63195000	      6318	800010fc	00000013	addi	x0,x0,0	  x0:0x00000000
       63205000	      6319	80001100	0100036f	jal	x6,80001100	  x6=0x80001100
       63215000	      6320	00000000	00000013	addi	x0,x0,0	  x0:0x00000000
       63225000	      6321	8000110c	00000013	addi	x0,x0,0	  x0:0x00000000
       63235000	      6322	80001110	00c000ef	jal	x1,80001110	  x1=0x80001110
       63245000	      6323	00000000	00000013	addi	x0,x0,0	  x0:0x00000000
       63255000	      6324	80001118	00000013	addi	x0,x0,0	  x0:0x00000000
       63265000	      6325	8000111c	fedff0ef	jal	x1,8000111c	  x1=0x8000111c
       63275000	      6326	00000000	00000013	addi	x0,x0,0	  x0:0x00000000
       63285000	      6327	80001104	00000013	addi	x0,x0,0	  x0:0x00000000
       63295000	      6328	80001108	004000ef	jal	x1,80001108	  x1=0x80001108
       63305000	      6329	00000000	00000013	addi	x0,x0,0	  x0:0x00000000
       63315000	      6330	80001108	00000013	addi	x0,x0,0	  x0:0x00000000
       63325000	      6331	8000110c	0180036f	jal	x6,8000110c	  x6=0x8000110c
       63335000	      6332	00000000	00000013	addi	x0,x0,0	  x0:0x00000000
       63345000	      6333	80001120	00000013	addi	x0,x0,0	  x0:0x00000000
       63355000	      6334	80001124	415f0333	sub	x6,x30,x21	 x30:0x800010b8 x21:0x80000fdc  x6=0x000000dc
       63365000	      6335	80001128	0180036f	jal	x6,80001128	  x6=0x80001128
       63375000	      6336	00000000	00000013	addi	x0,x0,0	  x0:0x00000000
       63385000	      6337	8000113c	00000013	addi	x0,x0,0	  x0:0x00000000
       63395000	      6338	80001140	0240036f	jal	x6,80001140	  x6=0x80001140
       63405000	      6339	00000000	00000013	addi	x0,x0,0	  x0:0x00000000
       63415000	      6340	80001160	00000013	addi	x0,x0,0	  x0:0x00000000
       63425000	      6341	80001164	fe1ffa6f	jal	x20,80001164	 x20=0x80001164
       63435000	      6342	00000000	00000013	addi	x0,x0,0	  x0:0x00000000
       63445000	      6343	80001140	00000013	addi	x0,x0,0	  x0:0x00000000
       63455000	      6344	80001144	fe9ff0ef	jal	x1,80001144	  x1=0x80001144
       63465000	      6345	00000000	00000013	addi	x0,x0,0	  x0:0x00000000
       63475000	      6346	80001128	00000013	addi	x0,x0,0	  x0:0x00000000
       63485000	      6347	8000112c	0040036f	jal	x6,8000112c	  x6=0x8000112c
       63495000	      6348	00000000	00000013	addi	x0,x0,0	  x0:0x00000000
       63505000	      6349	8000112c	00000013	addi	x0,x0,0	  x0:0x00000000
       63515000	      6350	80001130	018009ef	jal	x19,80001130	 x19=0x80001130
       63525000	      6351	00000000	00000013	addi	x0,x0,0	  x0:0x00000000
       63535000	      6352	80001144	00000013	addi	x0,x0,0	  x0:0x00000000
       63545000	      6353	80001148	004000ef	jal	x1,80001148	  x1=0x80001148
       63555000	      6354	00000000	00000013	addi	x0,x0,0	  x0:0x00000000
       63565000	      6355	80001148	00000013	addi	x0,x0,0	  x0:0x00000000
       63575000	      6356	8000114c	fedff0ef	jal	x1,8000114c	  x1=0x8000114c
       63585000	      6357	00000000	00000013	addi	x0,x0,0	  x0:0x00000000
       63595000	      6358	80001134	00000013	addi	x0,x0,0	  x0:0x00000000
       63605000	      6359	80001138	004000ef	jal	x1,80001138	  x1=0x80001138
       63615000	      6360	00000000	00000013	addi	x0,x0,0	  x0:0x00000000
       63625000	      6361	80001138	00000013	addi	x0,x0,0	  x0:0x00000000
       63635000	      6362	8000113c	014000ef	jal	x1,8000113c	  x1=0x8000113c
       63645000	      6363	00000000	00000013	addi	x0,x0,0	  x0:0x00000000
       63655000	      6364	8000114c	00000013	addi	x0,x0,0	  x0:0x00000000
       63665000	      6365	80001150	fe5ff0ef	jal	x1,80001150	  x1=0x80001150
       63675000	      6366	00000000	00000013	addi	x0,x0,0	  x0:0x00000000
       63685000	      6367	80001130	00000013	addi	x0,x0,0	  x0:0x00000000
       63695000	      6368	80001134	024000ef	jal	x1,80001134	  x1=0x80001134
       63705000	      6369	00000000	00000013	addi	x0,x0,0	  x0:0x00000000
       63715000	      6370	80001154	00000013	addi	x0,x0,0	  x0:0x00000000
       63725000	      6371	80001158	0040036f	jal	x6,80001158	  x6=0x80001158
       63735000	      6372	00000000	00000013	addi	x0,x0,0	  x0:0x00000000
       63745000	      6373	80001158	00000013	addi	x0,x0,0	  x0:0x00000000
       63755000	      6374	8000115c	ff9ffaef	jal	x21,8000115c	 x21=0x8000115c
       63765000	      6375	00000000	00000013	addi	x0,x0,0	  x0:0x00000000
       63775000	      6376	80001150	00000013	addi	x0,x0,0	  x0:0x00000000
       63785000	      6377	80001154	00c0036f	jal	x6,80001154	  x6=0x80001154
       63795000	      6378	00000000	00000013	addi	x0,x0,0	  x0:0x00000000
       63805000	      6379	8000115c	00000013	addi	x0,x0,0	  x0:0x00000000
       63815000	      6380	80001160	008000ef	jal	x1,80001160	  x1=0x80001160
       63825000	      6381	00000000	00000013	addi	x0,x0,0	  x0:0x00000000
       63835000	      6382	80001164	00000013	addi	x0,x0,0	  x0:0x00000000
       63845000	      6383	80001168	0132f633	and	x12,x5,x19	  x5:0x800010d8 x19:0x80001130 x12=0x80001010
       63855000	      6384	8000116c	0380036f	jal	x6,8000116c	  x6=0x8000116c
       63865000	      6385	00000000	00000013	addi	x0,x0,0	  x0:0x00000000
       63875000	      6386	800011a0	00000013	addi	x0,x0,0	  x0:0x00000000
       63885000	      6387	800011a4	fe5ff2ef	jal	x5,800011a4	  x5=0x800011a4
       63895000	      6388	00000000	00000013	addi	x0,x0,0	  x0:0x00000000
       63905000	      6389	80001184	00000013	addi	x0,x0,0	  x0:0x00000000
       63915000	      6390	80001188	02c004ef	jal	x9,80001188	  x9=0x80001188
       63925000	      6391	00000000	00000013	addi	x0,x0,0	  x0:0x00000000
       63935000	      6392	800011b0	00000013	addi	x0,x0,0	  x0:0x00000000
       63945000	      6393	800011b4	fc9ff0ef	jal	x1,800011b4	  x1=0x800011b4
       63955000	      6394	00000000	00000013	addi	x0,x0,0	  x0:0x00000000
       63965000	      6395	80001178	00000013	addi	x0,x0,0	  x0:0x00000000
       63975000	      6396	8000117c	048000ef	jal	x1,8000117c	  x1=0x8000117c
       63985000	      6397	00000000	00000013	addi	x0,x0,0	  x0:0x00000000
       63995000	      6398	800011c0	00000013	addi	x0,x0,0	  x0:0x00000000
       64005000	      6399	800011c4	fcdff0ef	jal	x1,800011c4	  x1=0x800011c4
       64015000	      6400	00000000	00000013	addi	x0,x0,0	  x0:0x00000000
       64025000	      6401	8000118c	00000013	addi	x0,x0,0	  x0:0x00000000
       64035000	      6402	80001190	ff5ff0ef	jal	x1,80001190	  x1=0x80001190
       64045000	      6403	00000000	00000013	addi	x0,x0,0	  x0:0x00000000
       64055000	      6404	80001180	00000013	addi	x0,x0,0	  x0:0x00000000
       64065000	      6405	80001184	024000ef	jal	x1,80001184	  x1=0x80001184
       64075000	      6406	00000000	00000013	addi	x0,x0,0	  x0:0x00000000
       64085000	      6407	800011a4	00000013	addi	x0,x0,0	  x0:0x00000000
       64095000	      6408	800011a8	0240036f	jal	x6,800011a8	  x6=0x800011a8
       64105000	      6409	00000000	00000013	addi	x0,x0,0	  x0:0x00000000
       64115000	      6410	800011c8	00000013	addi	x0,x0,0	  x0:0x00000000
       64125000	      6411	800011cc	fb5ff0ef	jal	x1,800011cc	  x1=0x800011cc
       64135000	      6412	00000000	00000013	addi	x0,x0,0	  x0:0x00000000
       64145000	      6413	8000117c	00000013	addi	x0,x0,0	  x0:0x00000000
       64155000	      6414	80001180	018000ef	jal	x1,80001180	  x1=0x80001180
       64165000	      6415	00000000	00000013	addi	x0,x0,0	  x0:0x00000000
       64175000	      6416	80001194	00000013	addi	x0,x0,0	  x0:0x00000000
       64185000	      6417	80001198	008000ef	jal	x1,80001198	  x1=0x80001198
       64195000	      6418	00000000	00000013	addi	x0,x0,0	  x0:0x00000000
       64205000	      6419	8000119c	00000013	addi	x0,x0,0	  x0:0x00000000
       64215000	      6420	800011a0	030005ef	jal	x11,800011a0	 x11=0x800011a0
       64225000	      6421	00000000	00000013	addi	x0,x0,0	  x0:0x00000000
       64235000	      6422	800011cc	00000013	addi	x0,x0,0	  x0:0x00000000
       64245000	      6423	800011d0	fbdff0ef	jal	x1,800011d0	  x1=0x800011d0
       64255000	      6424	00000000	00000013	addi	x0,x0,0	  x0:0x00000000
       64265000	      6425	80001188	00000013	addi	x0,x0,0	  x0:0x00000000
       64275000	      6426	8000118c	0200036f	jal	x6,8000118c	  x6=0x8000118c
       64285000	      6427	00000000	00000013	addi	x0,x0,0	  x0:0x00000000
       64295000	      6428	800011a8	00000013	addi	x0,x0,0	  x0:0x00000000
       64305000	      6429	800011ac	028000ef	jal	x1,800011ac	  x1=0x800011ac
       64315000	      6430	00000000	00000013	addi	x0,x0,0	  x0:0x00000000
       64325000	      6431	800011d0	00000013	addi	x0,x0,0	  x0:0x00000000
       64335000	      6432	800011d4	fa1ff0ef	jal	x1,800011d4	  x1=0x800011d4
       64345000	      6433	00000000	00000013	addi	x0,x0,0	  x0:0x00000000
       64355000	      6434	80001170	00000013	addi	x0,x0,0	  x0:0x00000000
       64365000	      6435	80001174	048000ef	jal	x1,80001174	  x1=0x80001174
       64375000	      6436	00000000	00000013	addi	x0,x0,0	  x0:0x00000000
       64385000	      6437	800011b8	00000013	addi	x0,x0,0	  x0:0x00000000
       64395000	      6438	800011bc	fd9ff0ef	jal	x1,800011bc	  x1=0x800011bc
       64405000	      6439	00000000	00000013	addi	x0,x0,0	  x0:0x00000000
       64415000	      6440	80001190	00000013	addi	x0,x0,0	  x0:0x00000000
       64425000	      6441	80001194	024002ef	jal	x5,80001194	  x5=0x80001194
       64435000	      6442	00000000	00000013	addi	x0,x0,0	  x0:0x00000000
       64445000	      6443	800011b4	00000013	addi	x0,x0,0	  x0:0x00000000
       64455000	      6444	800011b8	fb9ff0ef	jal	x1,800011b8	  x1=0x800011b8
       64465000	      6445	00000000	00000013	addi	x0,x0,0	  x0:0x00000000
       64475000	      6446	8000116c	00000013	addi	x0,x0,0	  x0:0x00000000
       64485000	      6447	80001170	008000ef	jal	x1,80001170	  x1=0x80001170
       64495000	      6448	00000000	00000013	addi	x0,x0,0	  x0:0x00000000
       64505000	      6449	80001174	00000013	addi	x0,x0,0	  x0:0x00000000
       64515000	      6450	80001178	050000ef	jal	x1,80001178	  x1=0x80001178
       64525000	      6451	00000000	00000013	addi	x0,x0,0	  x0:0x00000000
       64535000	      6452	800011c4	00000013	addi	x0,x0,0	  x0:0x00000000
       64545000	      6453	800011c8	ff9ff46f	jal	x8,800011c8	  x8=0x800011c8
       64555000	      6454	00000000	00000013	addi	x0,x0,0	  x0:0x00000000
       64565000	      6455	800011bc	00000013	addi	x0,x0,0	  x0:0x00000000
       64575000	      6456	800011c0	fddff36f	jal	x6,800011c0	  x6=0x800011c0
       64585000	      6457	00000000	00000013	addi	x0,x0,0	  x0:0x00000000
       64595000	      6458	80001198	00000013	addi	x0,x0,0	  x0:0x00000000
       64605000	      6459	8000119c	0140036f	jal	x6,8000119c	  x6=0x8000119c
       64615000	      6460	00000000	00000013	addi	x0,x0,0	  x0:0x00000000
       64625000	      6461	800011ac	00000013	addi	x0,x0,0	  x0:0x00000000
       64635000	      6462	800011b0	0280036f	jal	x6,800011b0	  x6=0x800011b0
       64645000	      6463	00000000	00000013	addi	x0,x0,0	  x0:0x00000000
       64655000	      6464	800011d4	00000013	addi	x0,x0,0	  x0:0x00000000
       64665000	      6465	800011d8	776ac593	xori	x11,x21,1910	 x21:0x8000115c x11=0x8000162a
       64675000	      6466	800011dc	0080036f	jal	x6,800011dc	  x6=0x800011dc
       64685000	      6467	00000000	00000013	addi	x0,x0,0	  x0:0x00000000
       64695000	      6468	800011e0	00000013	addi	x0,x0,0	  x0:0x00000000
       64705000	      6469	800011e4	ffdff0ef	jal	x1,800011e4	  x1=0x800011e4
       64715000	      6470	00000000	00000013	addi	x0,x0,0	  x0:0x00000000
       64725000	      6471	800011dc	00000013	addi	x0,x0,0	  x0:0x00000000
       64735000	      6472	800011e0	0200056f	jal	x10,800011e0	 x10=0x800011e0
       64745000	      6473	00000000	00000013	addi	x0,x0,0	  x0:0x00000000
       64755000	      6474	800011fc	00000013	addi	x0,x0,0	  x0:0x00000000
       64765000	      6475	80001200	ffdff1ef	jal	x3,80001200	  x3=0x80001200
       64775000	      6476	00000000	00000013	addi	x0,x0,0	  x0:0x00000000
       64785000	      6477	800011f8	00000013	addi	x0,x0,0	  x0:0x00000000
       64795000	      6478	800011fc	ff9ff2ef	jal	x5,800011fc	  x5=0x800011fc
       64805000	      6479	00000000	00000013	addi	x0,x0,0	  x0:0x00000000
       64815000	      6480	800011f0	00000013	addi	x0,x0,0	  x0:0x00000000
       64825000	      6481	800011f4	004000ef	jal	x1,800011f4	  x1=0x800011f4
       64835000	      6482	00000000	00000013	addi	x0,x0,0	  x0:0x00000000
       64845000	      6483	800011f4	00000013	addi	x0,x0,0	  x0:0x00000000
       64855000	      6484	800011f8	00c000ef	jal	x1,800011f8	  x1=0x800011f8
       64865000	      6485	00000000	00000013	addi	x0,x0,0	  x0:0x00000000
       64875000	      6486	80001200	00000013	addi	x0,x0,0	  x0:0x00000000
       64885000	      6487	80001204	0040036f	jal	x6,80001204	  x6=0x80001204
       64895000	      6488	00000000	00000013	addi	x0,x0,0	  x0:0x00000000
       64905000	      6489	80001204	00000013	addi	x0,x0,0	  x0:0x00000000
       64915000	      6490	80001208	fe5ff36f	jal	x6,80001208	  x6=0x80001208
       64925000	      6491	00000000	00000013	addi	x0,x0,0	  x0:0x00000000
       64935000	      6492	800011e8	00000013	addi	x0,x0,0	  x0:0x00000000
       64945000	      6493	800011ec	004000ef	jal	x1,800011ec	  x1=0x800011ec
       64955000	      6494	00000000	00000013	addi	x0,x0,0	  x0:0x00000000
       64965000	      6495	800011ec	00000013	addi	x0,x0,0	  x0:0x00000000
       64975000	      6496	800011f0	ff9ff0ef	jal	x1,800011f0	  x1=0x800011f0
       64985000	      6497	00000000	00000013	addi	x0,x0,0	  x0:0x00000000
       64995000	      6498	800011e4	00000013	addi	x0,x0,0	  x0:0x00000000
       65005000	      6499	800011e8	0240036f	jal	x6,800011e8	  x6=0x800011e8
       65015000	      6500	00000000	00000013	addi	x0,x0,0	  x0:0x00000000
       65025000	      6501	80001208	00000013	addi	x0,x0,0	  x0:0x00000000
       65035000	      6502	8000120c	01597933	and	x18,x18,x21	 x18:0x00000001 x21:0x8000115c x18=0x00000000
       65045000	      6503	80001210	0740036f	jal	x6,80001210	  x6=0x80001210
       65055000	      6504	00000000	00000013	addi	x0,x0,0	  x0:0x00000000
       65065000	      6505	80001280	00000013	addi	x0,x0,0	  x0:0x00000000
       65075000	      6506	80001284	ff1ff0ef	jal	x1,80001284	  x1=0x80001284
       65085000	      6507	00000000	00000013	addi	x0,x0,0	  x0:0x00000000
       65095000	      6508	80001270	00000013	addi	x0,x0,0	  x0:0x00000000
       65105000	      6509	80001274	fc9ff0ef	jal	x1,80001274	  x1=0x80001274
       65115000	      6510	00000000	00000013	addi	x0,x0,0	  x0:0x00000000
       65125000	      6511	80001238	00000013	addi	x0,x0,0	  x0:0x00000000
       65135000	      6512	8000123c	014000ef	jal	x1,8000123c	  x1=0x8000123c
       65145000	      6513	00000000	00000013	addi	x0,x0,0	  x0:0x00000000
       65155000	      6514	8000124c	00000013	addi	x0,x0,0	  x0:0x00000000
       65165000	      6515	80001250	0140036f	jal	x6,80001250	  x6=0x80001250
       65175000	      6516	00000000	00000013	addi	x0,x0,0	  x0:0x00000000
       65185000	      6517	80001260	00000013	addi	x0,x0,0	  x0:0x00000000
       65195000	      6518	80001264	018000ef	jal	x1,80001264	  x1=0x80001264
       65205000	      6519	00000000	00000013	addi	x0,x0,0	  x0:0x00000000
       65215000	      6520	80001278	00000013	addi	x0,x0,0	  x0:0x00000000
       65225000	      6521	8000127c	fcdfffef	jal	x31,8000127c	 x31=0x8000127c
       65235000	      6522	00000000	00000013	addi	x0,x0,0	  x0:0x00000000
       65245000	      6523	80001244	00000013	addi	x0,x0,0	  x0:0x00000000
       65255000	      6524	80001248	fe1ff0ef	jal	x1,80001248	  x1=0x80001248
       65265000	      6525	00000000	00000013	addi	x0,x0,0	  x0:0x00000000
       65275000	      6526	80001224	00000013	addi	x0,x0,0	  x0:0x00000000
       65285000	      6527	80001228	0300036f	jal	x6,80001228	  x6=0x80001228
       65295000	      6528	00000000	00000013	addi	x0,x0,0	  x0:0x00000000
       65305000	      6529	80001254	00000013	addi	x0,x0,0	  x0:0x00000000
       65315000	      6530	80001258	030009ef	jal	x19,80001258	 x19=0x80001258
       65325000	      6531	00000000	00000013	addi	x0,x0,0	  x0:0x00000000
       65335000	      6532	80001284	00000013	addi	x0,x0,0	  x0:0x00000000
       65345000	      6533	80001288	fa5ff0ef	jal	x1,80001288	  x1=0x80001288
       65355000	      6534	00000000	00000013	addi	x0,x0,0	  x0:0x00000000
       65365000	      6535	80001228	00000013	addi	x0,x0,0	  x0:0x00000000
       65375000	      6536	8000122c	03c0036f	jal	x6,8000122c	  x6=0x8000122c
       65385000	      6537	00000000	00000013	addi	x0,x0,0	  x0:0x00000000
       65395000	      6538	80001264	00000013	addi	x0,x0,0	  x0:0x00000000
       65405000	      6539	80001268	ff5ff0ef	jal	x1,80001268	  x1=0x80001268
       65415000	      6540	00000000	00000013	addi	x0,x0,0	  x0:0x00000000
       65425000	      6541	80001258	00000013	addi	x0,x0,0	  x0:0x00000000
       65435000	      6542	8000125c	01400f6f	jal	x30,8000125c	 x30=0x8000125c
       65445000	      6543	00000000	00000013	addi	x0,x0,0	  x0:0x00000000
       65455000	      6544	8000126c	00000013	addi	x0,x0,0	  x0:0x00000000
       65465000	      6545	80001270	fa5ff0ef	jal	x1,80001270	  x1=0x80001270
       65475000	      6546	00000000	00000013	addi	x0,x0,0	  x0:0x00000000
       65485000	      6547	80001210	00000013	addi	x0,x0,0	  x0:0x00000000
       65495000	      6548	80001214	04c0056f	jal	x10,80001214	 x10=0x80001214
       65505000	      6549	00000000	00000013	addi	x0,x0,0	  x0:0x00000000
       65515000	      6550	8000125c	00000013	addi	x0,x0,0	  x0:0x00000000
       65525000	      6551	80001260	fe5ff0ef	jal	x1,80001260	  x1=0x80001260
       65535000	      6552	00000000	00000013	addi	x0,x0,0	  x0:0x00000000
       65545000	      6553	80001240	00000013	addi	x0,x0,0	  x0:0x00000000
       65555000	      6554	80001244	fd9ff36f	jal	x6,80001244	  x6=0x80001244
       65565000	      6555	00000000	00000013	addi	x0,x0,0	  x0:0x00000000
       65575000	      6556	80001218	00000013	addi	x0,x0,0	  x0:0x00000000
       65585000	      6557	8000121c	018000ef	jal	x1,8000121c	  x1=0x8000121c
       65595000	      6558	00000000	00000013	addi	x0,x0,0	  x0:0x00000000
       65605000	      6559	80001230	00000013	addi	x0,x0,0	  x0:0x00000000
       65615000	      6560	80001234	04c0036f	jal	x6,80001234	  x6=0x80001234
       65625000	      6561	00000000	00000013	addi	x0,x0,0	  x0:0x00000000
       65635000	      6562	8000127c	00000013	addi	x0,x0,0	  x0:0x00000000
       65645000	      6563	80001280	fcdff36f	jal	x6,80001280	  x6=0x80001280
       65655000	      6564	00000000	00000013	addi	x0,x0,0	  x0:0x00000000
       65665000	      6565	80001248	00000013	addi	x0,x0,0	  x0:0x00000000
       65675000	      6566	8000124c	fe5ffe6f	jal	x28,8000124c	 x28=0x8000124c
       65685000	      6567	00000000	00000013	addi	x0,x0,0	  x0:0x00000000
       65695000	      6568	8000122c	00000013	addi	x0,x0,0	  x0:0x00000000
       65705000	      6569	80001230	048000ef	jal	x1,80001230	  x1=0x80001230
       65715000	      6570	00000000	00000013	addi	x0,x0,0	  x0:0x00000000
       65725000	      6571	80001274	00000013	addi	x0,x0,0	  x0:0x00000000
       65735000	      6572	80001278	fddffb6f	jal	x22,80001278	 x22=0x80001278
       65745000	      6573	00000000	00000013	addi	x0,x0,0	  x0:0x00000000
       65755000	      6574	80001250	00000013	addi	x0,x0,0	  x0:0x00000000
       65765000	      6575	80001254	fd1ff0ef	jal	x1,80001254	  x1=0x80001254
       65775000	      6576	00000000	00000013	addi	x0,x0,0	  x0:0x00000000
       65785000	      6577	80001220	00000013	addi	x0,x0,0	  x0:0x00000000
       65795000	      6578	80001224	01c0036f	jal	x6,80001224	  x6=0x80001224
       65805000	      6579	00000000	00000013	addi	x0,x0,0	  x0:0x00000000
       65815000	      6580	8000123c	00000013	addi	x0,x0,0	  x0:0x00000000
       65825000	      6581	80001240	fd9ff3ef	jal	x7,80001240	  x7=0x80001240
       65835000	      6582	00000000	00000013	addi	x0,x0,0	  x0:0x00000000
       65845000	      6583	80001214	00000013	addi	x0,x0,0	  x0:0x00000000
       65855000	      6584	80001218	008002ef	jal	x5,80001218	  x5=0x80001218
       65865000	      6585	00000000	00000013	addi	x0,x0,0	  x0:0x00000000
       65875000	      6586	8000121c	00000013	addi	x0,x0,0	  x0:0x00000000
       65885000	      6587	80001220	018008ef	jal	x17,80001220	 x17=0x80001220
       65895000	      6588	00000000	00000013	addi	x0,x0,0	  x0:0x00000000
       65905000	      6589	80001234	00000013	addi	x0,x0,0	  x0:0x00000000
       65915000	      6590	80001238	03400bef	jal	x23,80001238	 x23=0x80001238
       65925000	      6591	00000000	00000013	addi	x0,x0,0	  x0:0x00000000
       65935000	      6592	80001268	00000013	addi	x0,x0,0	  x0:0x00000000
       65945000	      6593	8000126c	020000ef	jal	x1,8000126c	  x1=0x8000126c
       65955000	      6594	00000000	00000013	addi	x0,x0,0	  x0:0x00000000
       65965000	      6595	80001288	00000013	addi	x0,x0,0	  x0:0x00000000
       65975000	      6596	8000128c	015def33	or	x30,x27,x21	 x27:0x80000ffc x21:0x8000115c x30=0x80001ffc
       65985000	      6597	80001290	05c0036f	jal	x6,80001290	  x6=0x80001290
       65995000	      6598	00000000	00000013	addi	x0,x0,0	  x0:0x00000000
       66005000	      6599	800012e8	00000013	addi	x0,x0,0	  x0:0x00000000
       66015000	      6600	800012ec	fb9ff0ef	jal	x1,800012ec	  x1=0x800012ec
       66025000	      6601	00000000	00000013	addi	x0,x0,0	  x0:0x00000000
       66035000	      6602	800012a0	00000013	addi	x0,x0,0	  x0:0x00000000
       66045000	      6603	800012a4	04c0036f	jal	x6,800012a4	  x6=0x800012a4
       66055000	      6604	00000000	00000013	addi	x0,x0,0	  x0:0x00000000
       66065000	      6605	800012ec	00000013	addi	x0,x0,0	  x0:0x00000000
       66075000	      6606	800012f0	fedff36f	jal	x6,800012f0	  x6=0x800012f0
       66085000	      6607	00000000	00000013	addi	x0,x0,0	  x0:0x00000000
       66095000	      6608	800012d8	00000013	addi	x0,x0,0	  x0:0x00000000
       66105000	      6609	800012dc	01c0026f	jal	x4,800012dc	  x4=0x800012dc
       66115000	      6610	00000000	00000013	addi	x0,x0,0	  x0:0x00000000
       66125000	      6611	800012f4	00000013	addi	x0,x0,0	  x0:0x00000000
       66135000	      6612	800012f8	f9dff0ef	jal	x1,800012f8	  x1=0x800012f8
       66145000	      6613	00000000	00000013	addi	x0,x0,0	  x0:0x00000000
       66155000	      6614	80001290	00000013	addi	x0,x0,0	  x0:0x00000000
       66165000	      6615	80001294	01400c6f	jal	x24,80001294	 x24=0x80001294
       66175000	      6616	00000000	00000013	addi	x0,x0,0	  x0:0x00000000
       66185000	      6617	800012a4	00000013	addi	x0,x0,0	  x0:0x00000000
       66195000	      6618	800012a8	030007ef	jal	x15,800012a8	 x15=0x800012a8
       66205000	      6619	00000000	00000013	addi	x0,x0,0	  x0:0x00000000
       66215000	      6620	800012d4	00000013	addi	x0,x0,0	  x0:0x00000000
       66225000	      6621	800012d8	fd5ff0ef	jal	x1,800012d8	  x1=0x800012d8
       66235000	      6622	00000000	00000013	addi	x0,x0,0	  x0:0x00000000
       66245000	      6623	800012a8	00000013	addi	x0,x0,0	  x0:0x00000000
       66255000	      6624	800012ac	048001ef	jal	x3,800012ac	  x3=0x800012ac
       66265000	      6625	00000000	00000013	addi	x0,x0,0	  x0:0x00000000
       66275000	      6626	800012f0	00000013	addi	x0,x0,0	  x0:0x00000000
       66285000	      6627	800012f4	fbdff36f	jal	x6,800012f4	  x6=0x800012f4
       66295000	      6628	00000000	00000013	addi	x0,x0,0	  x0:0x00000000
       66305000	      6629	800012ac	00000013	addi	x0,x0,0	  x0:0x00000000
       66315000	      6630	800012b0	0340036f	jal	x6,800012b0	  x6=0x800012b0
       66325000	      6631	00000000	00000013	addi	x0,x0,0	  x0:0x00000000
       66335000	      6632	800012e0	00000013	addi	x0,x0,0	  x0:0x00000000
       66345000	      6633	800012e4	fe5ff0ef	jal	x1,800012e4	  x1=0x800012e4
       66355000	      6634	00000000	00000013	addi	x0,x0,0	  x0:0x00000000
       66365000	      6635	800012c4	00000013	addi	x0,x0,0	  x0:0x00000000
       66375000	      6636	800012c8	0180036f	jal	x6,800012c8	  x6=0x800012c8
       66385000	      6637	00000000	00000013	addi	x0,x0,0	  x0:0x00000000
       66395000	      6638	800012dc	00000013	addi	x0,x0,0	  x0:0x00000000
       66405000	      6639	800012e0	fbdff0ef	jal	x1,800012e0	  x1=0x800012e0
       66415000	      6640	00000000	00000013	addi	x0,x0,0	  x0:0x00000000
       66425000	      6641	80001298	00000013	addi	x0,x0,0	  x0:0x00000000
       66435000	      6642	8000129c	ffdff0ef	jal	x1,8000129c	  x1=0x8000129c
       66445000	      6643	00000000	00000013	addi	x0,x0,0	  x0:0x00000000
       66455000	      6644	80001294	00000013	addi	x0,x0,0	  x0:0x00000000
       66465000	      6645	80001298	020000ef	jal	x1,80001298	  x1=0x80001298
       66475000	      6646	00000000	00000013	addi	x0,x0,0	  x0:0x00000000
       66485000	      6647	800012b4	00000013	addi	x0,x0,0	  x0:0x00000000
       66495000	      6648	800012b8	0440026f	jal	x4,800012b8	  x4=0x800012b8
       66505000	      6649	00000000	00000013	addi	x0,x0,0	  x0:0x00000000
       66515000	      6650	800012f8	00000013	addi	x0,x0,0	  x0:0x00000000
       66525000	      6651	800012fc	fa5ff0ef	jal	x1,800012fc	  x1=0x800012fc
       66535000	      6652	00000000	00000013	addi	x0,x0,0	  x0:0x00000000
       66545000	      6653	8000129c	00000013	addi	x0,x0,0	  x0:0x00000000
       66555000	      6654	800012a0	01c000ef	jal	x1,800012a0	  x1=0x800012a0
       66565000	      6655	00000000	00000013	addi	x0,x0,0	  x0:0x00000000
       66575000	      6656	800012b8	00000013	addi	x0,x0,0	  x0:0x00000000
       66585000	      6657	800012bc	0140036f	jal	x6,800012bc	  x6=0x800012bc
       66595000	      6658	00000000	00000013	addi	x0,x0,0	  x0:0x00000000
       66605000	      6659	800012cc	00000013	addi	x0,x0,0	  x0:0x00000000
       66615000	      6660	800012d0	ff5ff0ef	jal	x1,800012d0	  x1=0x800012d0
       66625000	      6661	00000000	00000013	addi	x0,x0,0	  x0:0x00000000
       66635000	      6662	800012c0	00000013	addi	x0,x0,0	  x0:0x00000000
       66645000	      6663	800012c4	010005ef	jal	x11,800012c4	 x11=0x800012c4
       66655000	      6664	00000000	00000013	addi	x0,x0,0	  x0:0x00000000
       66665000	      6665	800012d0	00000013	addi	x0,x0,0	  x0:0x00000000
       66675000	      6666	800012d4	fe1ff4ef	jal	x9,800012d4	  x9=0x800012d4
       66685000	      6667	00000000	00000013	addi	x0,x0,0	  x0:0x00000000
       66695000	      6668	800012b0	00000013	addi	x0,x0,0	  x0:0x00000000
       66705000	      6669	800012b4	00c0036f	jal	x6,800012b4	  x6=0x800012b4
       66715000	      6670	00000000	00000013	addi	x0,x0,0	  x0:0x00000000
       66725000	      6671	800012bc	00000013	addi	x0,x0,0	  x0:0x00000000
       66735000	      6672	800012c0	028000ef	jal	x1,800012c0	  x1=0x800012c0
       66745000	      6673	00000000	00000013	addi	x0,x0,0	  x0:0x00000000
       66755000	      6674	800012e4	00000013	addi	x0,x0,0	  x0:0x00000000
       66765000	      6675	800012e8	fe5ff0ef	jal	x1,800012e8	  x1=0x800012e8
       66775000	      6676	00000000	00000013	addi	x0,x0,0	  x0:0x00000000
       66785000	      6677	800012c8	00000013	addi	x0,x0,0	  x0:0x00000000
       66795000	      6678	800012cc	034000ef	jal	x1,800012cc	  x1=0x800012cc
       66805000	      6679	00000000	00000013	addi	x0,x0,0	  x0:0x00000000
       66815000	      6680	800012fc	00000013	addi	x0,x0,0	  x0:0x00000000
       66825000	      6681	80001300	f45eb913	sltiu	x18,x29,-187	 x29:0xf22f49ae x18=0x00000001
       66835000	      6682	80001304	0400036f	jal	x6,80001304	  x6=0x80001304
       66845000	      6683	00000000	00000013	addi	x0,x0,0	  x0:0x00000000
       66855000	      6684	80001340	00000013	addi	x0,x0,0	  x0:0x00000000
       66865000	      6685	80001344	fd5ffdef	jal	x27,80001344	 x27=0x80001344
       66875000	      6686	00000000	00000013	addi	x0,x0,0	  x0:0x00000000
       66885000	      6687	80001314	00000013	addi	x0,x0,0	  x0:0x00000000
       66895000	      6688	80001318	ff5ff0ef	jal	x1,80001318	  x1=0x80001318
       66905000	      6689	00000000	00000013	addi	x0,x0,0	  x0:0x00000000
       66915000	      6690	80001308	00000013	addi	x0,x0,0	  x0:0x00000000
       66925000	      6691	8000130c	028000ef	jal	x1,8000130c	  x1=0x8000130c
       66935000	      6692	00000000	00000013	addi	x0,x0,0	  x0:0x00000000
       66945000	      6693	80001330	00000013	addi	x0,x0,0	  x0:0x00000000
       66955000	      6694	80001334	ff9ff0ef	jal	x1,80001334	  x1=0x80001334
       66965000	      6695	00000000	00000013	addi	x0,x0,0	  x0:0x00000000
       66975000	      6696	80001328	00000013	addi	x0,x0,0	  x0:0x00000000
       66985000	      6697	8000132c	024000ef	jal	x1,8000132c	  x1=0x8000132c
       66995000	      6698	00000000	00000013	addi	x0,x0,0	  x0:0x00000000
       67005000	      6699	8000134c	00000013	addi	x0,x0,0	  x0:0x00000000
       67015000	      6700	80001350	fe9ffbef	jal	x23,80001350	 x23=0x80001350
       67025000	      6701	00000000	00000013	addi	x0,x0,0	  x0:0x00000000
       67035000	      6702	80001334	00000013	addi	x0,x0,0	  x0:0x00000000
       67045000	      6703	80001338	010000ef	jal	x1,80001338	  x1=0x80001338
       67055000	      6704	00000000	00000013	addi	x0,x0,0	  x0:0x00000000
       67065000	      6705	80001344	00000013	addi	x0,x0,0	  x0:0x00000000
       67075000	      6706	80001348	024000ef	jal	x1,80001348	  x1=0x80001348
       67085000	      6707	00000000	00000013	addi	x0,x0,0	  x0:0x00000000
       67095000	      6708	80001368	00000013	addi	x0,x0,0	  x0:0x00000000
       67105000	      6709	8000136c	004007ef	jal	x15,8000136c	 x15=0x8000136c
       67115000	      6710	00000000	00000013	addi	x0,x0,0	  x0:0x00000000
       67125000	      6711	8000136c	00000013	addi	x0,x0,0	  x0:0x00000000
       67135000	      6712	80001370	fe9ff0ef	jal	x1,80001370	  x1=0x80001370
       67145000	      6713	00000000	00000013	addi	x0,x0,0	  x0:0x00000000
       67155000	      6714	80001354	00000013	addi	x0,x0,0	  x0:0x00000000
       67165000	      6715	80001358	fcdff0ef	jal	x1,80001358	  x1=0x80001358
       67175000	      6716	00000000	00000013	addi	x0,x0,0	  x0:0x00000000
       67185000	      6717	80001320	00000013	addi	x0,x0,0	  x0:0x00000000
       67195000	      6718	80001324	03c000ef	jal	x1,80001324	  x1=0x80001324
       67205000	      6719	00000000	00000013	addi	x0,x0,0	  x0:0x00000000
       67215000	      6720	8000135c	00000013	addi	x0,x0,0	  x0:0x00000000
       67225000	      6721	80001360	fddff36f	jal	x6,80001360	  x6=0x80001360
       67235000	      6722	00000000	00000013	addi	x0,x0,0	  x0:0x00000000
       67245000	      6723	80001338	00000013	addi	x0,x0,0	  x0:0x00000000
       67255000	      6724	8000133c	fedff0ef	jal	x1,8000133c	  x1=0x8000133c
       67265000	      6725	00000000	00000013	addi	x0,x0,0	  x0:0x00000000
       67275000	      6726	80001324	00000013	addi	x0,x0,0	  x0:0x00000000
       67285000	      6727	80001328	02c0036f	jal	x6,80001328	  x6=0x80001328
       67295000	      6728	00000000	00000013	addi	x0,x0,0	  x0:0x00000000
       67305000	      6729	80001350	00000013	addi	x0,x0,0	  x0:0x00000000
       67315000	      6730	80001354	fddff36f	jal	x6,80001354	  x6=0x80001354
       67325000	      6731	00000000	00000013	addi	x0,x0,0	  x0:0x00000000
       67335000	      6732	8000132c	00000013	addi	x0,x0,0	  x0:0x00000000
       67345000	      6733	80001330	038000ef	jal	x1,80001330	  x1=0x80001330
       67355000	      6734	00000000	00000013	addi	x0,x0,0	  x0:0x00000000
       67365000	      6735	80001364	00000013	addi	x0,x0,0	  x0:0x00000000
       67375000	      6736	80001368	fadff36f	jal	x6,80001368	  x6=0x80001368
       67385000	      6737	00000000	00000013	addi	x0,x0,0	  x0:0x00000000
       67395000	      6738	80001310	00000013	addi	x0,x0,0	  x0:0x00000000
       67405000	      6739	80001314	048008ef	jal	x17,80001314	 x17=0x80001314
       67415000	      6740	00000000	00000013	addi	x0,x0,0	  x0:0x00000000
       67425000	      6741	80001358	00000013	addi	x0,x0,0	  x0:0x00000000
       67435000	      6742	8000135c	fc5ff36f	jal	x6,8000135c	  x6=0x8000135c
       67445000	      6743	00000000	00000013	addi	x0,x0,0	  x0:0x00000000
       67455000	      6744	8000131c	00000013	addi	x0,x0,0	  x0:0x00000000
       67465000	      6745	80001320	02c00b6f	jal	x22,80001320	 x22=0x80001320
       67475000	      6746	00000000	00000013	addi	x0,x0,0	  x0:0x00000000
       67485000	      6747	80001348	00000013	addi	x0,x0,0	  x0:0x00000000
       67495000	      6748	8000134c	ff5ff0ef	jal	x1,8000134c	  x1=0x8000134c
       67505000	      6749	00000000	00000013	addi	x0,x0,0	  x0:0x00000000
       67515000	      6750	8000133c	00000013	addi	x0,x0,0	  x0:0x00000000
       67525000	      6751	80001340	024000ef	jal	x1,80001340	  x1=0x80001340
       67535000	      6752	00000000	00000013	addi	x0,x0,0	  x0:0x00000000
       67545000	      6753	80001360	00000013	addi	x0,x0,0	  x0:0x00000000
       67555000	      6754	80001364	fa5ff36f	jal	x6,80001364	  x6=0x80001364
       67565000	      6755	00000000	00000013	addi	x0,x0,0	  x0:0x00000000
       67575000	      6756	80001304	00000013	addi	x0,x0,0	  x0:0x00000000
       67585000	      6757	80001308	0140036f	jal	x6,80001308	  x6=0x80001308
       67595000	      6758	00000000	00000013	addi	x0,x0,0	  x0:0x00000000
       67605000	      6759	80001318	00000013	addi	x0,x0,0	  x0:0x00000000
       67615000	      6760	8000131c	ff5ff0ef	jal	x1,8000131c	  x1=0x8000131c
       67625000	      6761	00000000	00000013	addi	x0,x0,0	  x0:0x00000000
       67635000	      6762	8000130c	00000013	addi	x0,x0,0	  x0:0x00000000
       67645000	      6763	80001310	064000ef	jal	x1,80001310	  x1=0x80001310
       67655000	      6764	00000000	00000013	addi	x0,x0,0	  x0:0x00000000
       67665000	      6765	80001370	00000013	addi	x0,x0,0	  x0:0x00000000
       67675000	      6766	80001374	014a5493	srli	x9,x20,0x14	 x20:0x80001164  x9=0x00000800
       67685000	      6767	80001378	0240036f	jal	x6,80001378	  x6=0x80001378
       67695000	      6768	00000000	00000013	addi	x0,x0,0	  x0:0x00000000
       67705000	      6769	80001398	00000013	addi	x0,x0,0	  x0:0x00000000
       67715000	      6770	8000139c	004002ef	jal	x5,8000139c	  x5=0x8000139c
       67725000	      6771	00000000	00000013	addi	x0,x0,0	  x0:0x00000000
       67735000	      6772	8000139c	00000013	addi	x0,x0,0	  x0:0x00000000
       67745000	      6773	800013a0	fe5ff0ef	jal	x1,800013a0	  x1=0x800013a0
       67755000	      6774	00000000	00000013	addi	x0,x0,0	  x0:0x00000000
       67765000	      6775	80001380	00000013	addi	x0,x0,0	  x0:0x00000000
       67775000	      6776	80001384	0200026f	jal	x4,80001384	  x4=0x80001384
       67785000	      6777	00000000	00000013	addi	x0,x0,0	  x0:0x00000000
       67795000	      6778	800013a0	00000013	addi	x0,x0,0	  x0:0x00000000
       67805000	      6779	800013a4	fd9ff0ef	jal	x1,800013a4	  x1=0x800013a4
       67815000	      6780	00000000	00000013	addi	x0,x0,0	  x0:0x00000000
       67825000	      6781	80001378	00000013	addi	x0,x0,0	  x0:0x00000000
       67835000	      6782	8000137c	03c00b6f	jal	x22,8000137c	 x22=0x8000137c
       67845000	      6783	00000000	00000013	addi	x0,x0,0	  x0:0x00000000
       67855000	      6784	800013b4	00000013	addi	x0,x0,0	  x0:0x00000000
       67865000	      6785	800013b8	fd9ff36f	jal	x6,800013b8	  x6=0x800013b8
       67875000	      6786	00000000	00000013	addi	x0,x0,0	  x0:0x00000000
       67885000	      6787	8000138c	00000013	addi	x0,x0,0	  x0:0x00000000
       67895000	      6788	80001390	ff9ff0ef	jal	x1,80001390	  x1=0x80001390
       67905000	      6789	00000000	00000013	addi	x0,x0,0	  x0:0x00000000
       67915000	      6790	80001384	00000013	addi	x0,x0,0	  x0:0x00000000
       67925000	      6791	80001388	ff9ff0ef	jal	x1,80001388	  x1=0x80001388
       67935000	      6792	00000000	00000013	addi	x0,x0,0	  x0:0x00000000
       67945000	      6793	8000137c	00000013	addi	x0,x0,0	  x0:0x00000000
       67955000	      6794	80001380	028000ef	jal	x1,80001380	  x1=0x80001380
       67965000	      6795	00000000	00000013	addi	x0,x0,0	  x0:0x00000000
       67975000	      6796	800013a4	00000013	addi	x0,x0,0	  x0:0x00000000
       67985000	      6797	800013a8	01c0066f	jal	x12,800013a8	 x12=0x800013a8
       67995000	      6798	00000000	00000013	addi	x0,x0,0	  x0:0x00000000
       68005000	      6799	800013c0	00000013	addi	x0,x0,0	  x0:0x00000000
       68015000	      6800	800013c4	fc9ff0ef	jal	x1,800013c4	  x1=0x800013c4
       68025000	      6801	00000000	00000013	addi	x0,x0,0	  x0:0x00000000
       68035000	      6802	80001388	00000013	addi	x0,x0,0	  x0:0x00000000
       68045000	      6803	8000138c	00c000ef	jal	x1,8000138c	  x1=0x8000138c
       68055000	      6804	00000000	00000013	addi	x0,x0,0	  x0:0x00000000
       68065000	      6805	80001394	00000013	addi	x0,x0,0	  x0:0x00000000
       68075000	      6806	80001398	0280056f	jal	x10,80001398	 x10=0x80001398
       68085000	      6807	00000000	00000013	addi	x0,x0,0	  x0:0x00000000
       68095000	      6808	800013bc	00000013	addi	x0,x0,0	  x0:0x00000000
       68105000	      6809	800013c0	fedff36f	jal	x6,800013c0	  x6=0x800013c0
       68115000	      6810	00000000	00000013	addi	x0,x0,0	  x0:0x00000000
       68125000	      6811	800013a8	00000013	addi	x0,x0,0	  x0:0x00000000
       68135000	      6812	800013ac	fe9ff36f	jal	x6,800013ac	  x6=0x800013ac
       68145000	      6813	00000000	00000013	addi	x0,x0,0	  x0:0x00000000
       68155000	      6814	80001390	00000013	addi	x0,x0,0	  x0:0x00000000
       68165000	      6815	80001394	0280026f	jal	x4,80001394	  x4=0x80001394
       68175000	      6816	00000000	00000013	addi	x0,x0,0	  x0:0x00000000
       68185000	      6817	800013b8	00000013	addi	x0,x0,0	  x0:0x00000000
       68195000	      6818	800013bc	ff5ff0ef	jal	x1,800013bc	  x1=0x800013bc
       68205000	      6819	00000000	00000013	addi	x0,x0,0	  x0:0x00000000
       68215000	      6820	800013ac	00000013	addi	x0,x0,0	  x0:0x00000000
       68225000	      6821	800013b0	004000ef	jal	x1,800013b0	  x1=0x800013b0
       68235000	      6822	00000000	00000013	addi	x0,x0,0	  x0:0x00000000
       68245000	      6823	800013b0	00000013	addi	x0,x0,0	  x0:0x00000000
       68255000	      6824	800013b4	0140036f	jal	x6,800013b4	  x6=0x800013b4
       68265000	      6825	00000000	00000013	addi	x0,x0,0	  x0:0x00000000
       68275000	      6826	800013c4	00000013	addi	x0,x0,0	  x0:0x00000000
       68285000	      6827	800013c8	019b0433	add	x8,x22,x25	 x22:0x8000137c x25:0x80000ea0  x8=0x0000221c
       68295000	      6828	800013cc	05c0036f	jal	x6,800013cc	  x6=0x800013cc
       68305000	      6829	00000000	00000013	addi	x0,x0,0	  x0:0x00000000
       68315000	      6830	80001424	00000013	addi	x0,x0,0	  x0:0x00000000
       68325000	      6831	80001428	ff9ff36f	jal	x6,80001428	  x6=0x80001428
       68335000	      6832	00000000	00000013	addi	x0,x0,0	  x0:0x00000000
       68345000	      6833	8000141c	00000013	addi	x0,x0,0	  x0:0x00000000
       68355000	      6834	80001420	fddff0ef	jal	x1,80001420	  x1=0x80001420
       68365000	      6835	00000000	00000013	addi	x0,x0,0	  x0:0x00000000
       68375000	      6836	800013f8	00000013	addi	x0,x0,0	  x0:0x00000000
       68385000	      6837	800013fc	0080036f	jal	x6,800013fc	  x6=0x800013fc
       68395000	      6838	00000000	00000013	addi	x0,x0,0	  x0:0x00000000
       68405000	      6839	80001400	00000013	addi	x0,x0,0	  x0:0x00000000
       68415000	      6840	80001404	028005ef	jal	x11,80001404	 x11=0x80001404
       68425000	      6841	00000000	00000013	addi	x0,x0,0	  x0:0x00000000
       68435000	      6842	80001428	00000013	addi	x0,x0,0	  x0:0x00000000
       68445000	      6843	8000142c	fe1ff0ef	jal	x1,8000142c	  x1=0x8000142c
       68455000	      6844	00000000	00000013	addi	x0,x0,0	  x0:0x00000000
       68465000	      6845	80001408	00000013	addi	x0,x0,0	  x0:0x00000000
       68475000	      6846	8000140c	024000ef	jal	x1,8000140c	  x1=0x8000140c
       68485000	      6847	00000000	00000013	addi	x0,x0,0	  x0:0x00000000
       68495000	      6848	8000142c	00000013	addi	x0,x0,0	  x0:0x00000000
       68505000	      6849	80001430	fd9ff0ef	jal	x1,80001430	  x1=0x80001430
       68515000	      6850	00000000	00000013	addi	x0,x0,0	  x0:0x00000000
       68525000	      6851	80001404	00000013	addi	x0,x0,0	  x0:0x00000000
       68535000	      6852	80001408	01c000ef	jal	x1,80001408	  x1=0x80001408
       68545000	      6853	00000000	00000013	addi	x0,x0,0	  x0:0x00000000
       68555000	      6854	80001420	00000013	addi	x0,x0,0	  x0:0x00000000
       68565000	      6855	80001424	ff1ff0ef	jal	x1,80001424	  x1=0x80001424
       68575000	      6856	00000000	00000013	addi	x0,x0,0	  x0:0x00000000
       68585000	      6857	80001410	00000013	addi	x0,x0,0	  x0:0x00000000
       68595000	      6858	80001414	028000ef	jal	x1,80001414	  x1=0x80001414
       68605000	      6859	00000000	00000013	addi	x0,x0,0	  x0:0x00000000
       68615000	      6860	80001438	00000013	addi	x0,x0,0	  x0:0x00000000
       68625000	      6861	8000143c	fc5ff0ef	jal	x1,8000143c	  x1=0x8000143c
       68635000	      6862	00000000	00000013	addi	x0,x0,0	  x0:0x00000000
       68645000	      6863	800013fc	00000013	addi	x0,x0,0	  x0:0x00000000
       68655000	      6864	80001400	fe1ffc6f	jal	x24,80001400	 x24=0x80001400
       68665000	      6865	00000000	00000013	addi	x0,x0,0	  x0:0x00000000
       68675000	      6866	800013dc	00000013	addi	x0,x0,0	  x0:0x00000000
       68685000	      6867	800013e0	010000ef	jal	x1,800013e0	  x1=0x800013e0
       68695000	      6868	00000000	00000013	addi	x0,x0,0	  x0:0x00000000
       68705000	      6869	800013ec	00000013	addi	x0,x0,0	  x0:0x00000000
       68715000	      6870	800013f0	028000ef	jal	x1,800013f0	  x1=0x800013f0
       68725000	      6871	00000000	00000013	addi	x0,x0,0	  x0:0x00000000
       68735000	      6872	80001414	00000013	addi	x0,x0,0	  x0:0x00000000
       68745000	      6873	80001418	fc1ff36f	jal	x6,80001418	  x6=0x80001418
       68755000	      6874	00000000	00000013	addi	x0,x0,0	  x0:0x00000000
       68765000	      6875	800013d4	00000013	addi	x0,x0,0	  x0:0x00000000
       68775000	      6876	800013d8	038000ef	jal	x1,800013d8	  x1=0x800013d8
       68785000	      6877	00000000	00000013	addi	x0,x0,0	  x0:0x00000000
       68795000	      6878	8000140c	00000013	addi	x0,x0,0	  x0:0x00000000
       68805000	      6879	80001410	034000ef	jal	x1,80001410	  x1=0x80001410
       68815000	      6880	00000000	00000013	addi	x0,x0,0	  x0:0x00000000
       68825000	      6881	80001440	00000013	addi	x0,x0,0	  x0:0x00000000
       68835000	      6882	80001444	f8dff36f	jal	x6,80001444	  x6=0x80001444
       68845000	      6883	00000000	00000013	addi	x0,x0,0	  x0:0x00000000
       68855000	      6884	800013cc	00000013	addi	x0,x0,0	  x0:0x00000000
       68865000	      6885	800013d0	0700036f	jal	x6,800013d0	  x6=0x800013d0
       68875000	      6886	00000000	00000013	addi	x0,x0,0	  x0:0x00000000
       68885000	      6887	8000143c	00000013	addi	x0,x0,0	  x0:0x00000000
       68895000	      6888	80001440	fa5ffa6f	jal	x20,80001440	 x20=0x80001440
       68905000	      6889	00000000	00000013	addi	x0,x0,0	  x0:0x00000000
       68915000	      6890	800013e0	00000013	addi	x0,x0,0	  x0:0x00000000
       68925000	      6891	800013e4	05400aef	jal	x21,800013e4	 x21=0x800013e4
       68935000	      6892	00000000	00000013	addi	x0,x0,0	  x0:0x00000000
       68945000	      6893	80001434	00000013	addi	x0,x0,0	  x0:0x00000000
       68955000	      6894	80001438	fa5ff36f	jal	x6,80001438	  x6=0x80001438
       68965000	      6895	00000000	00000013	addi	x0,x0,0	  x0:0x00000000
       68975000	      6896	800013d8	00000013	addi	x0,x0,0	  x0:0x00000000
       68985000	      6897	800013dc	00c000ef	jal	x1,800013dc	  x1=0x800013dc
       68995000	      6898	00000000	00000013	addi	x0,x0,0	  x0:0x00000000
       69005000	      6899	800013e4	00000013	addi	x0,x0,0	  x0:0x00000000
       69015000	      6900	800013e8	004000ef	jal	x1,800013e8	  x1=0x800013e8
       69025000	      6901	00000000	00000013	addi	x0,x0,0	  x0:0x00000000
       69035000	      6902	800013e8	00000013	addi	x0,x0,0	  x0:0x00000000
       69045000	      6903	800013ec	0300066f	jal	x12,800013ec	 x12=0x800013ec
       69055000	      6904	00000000	00000013	addi	x0,x0,0	  x0:0x00000000
       69065000	      6905	80001418	00000013	addi	x0,x0,0	  x0:0x00000000
       69075000	      6906	8000141c	fd9ff2ef	jal	x5,8000141c	  x5=0x8000141c
       69085000	      6907	00000000	00000013	addi	x0,x0,0	  x0:0x00000000
       69095000	      6908	800013f0	00000013	addi	x0,x0,0	  x0:0x00000000
       69105000	      6909	800013f4	0400036f	jal	x6,800013f4	  x6=0x800013f4
       69115000	      6910	00000000	00000013	addi	x0,x0,0	  x0:0x00000000
       69125000	      6911	80001430	00000013	addi	x0,x0,0	  x0:0x00000000
       69135000	      6912	80001434	fa1ff0ef	jal	x1,80001434	  x1=0x80001434
       69145000	      6913	00000000	00000013	addi	x0,x0,0	  x0:0x00000000
       69155000	      6914	800013d0	00000013	addi	x0,x0,0	  x0:0x00000000
       69165000	      6915	800013d4	024000ef	jal	x1,800013d4	  x1=0x800013d4
       69175000	      6916	00000000	00000013	addi	x0,x0,0	  x0:0x00000000
       69185000	      6917	800013f4	00000013	addi	x0,x0,0	  x0:0x00000000
       69195000	      6918	800013f8	0500036f	jal	x6,800013f8	  x6=0x800013f8
       69205000	      6919	00000000	00000013	addi	x0,x0,0	  x0:0x00000000
       69215000	      6920	80001444	00000013	addi	x0,x0,0	  x0:0x00000000
       69225000	      6921	80001448	cd15b493	sltiu	x9,x11,-815	 x11:0x80001404  x9=0x00000001
       69235000	      6922	8000144c	0300036f	jal	x6,8000144c	  x6=0x8000144c
       69245000	      6923	00000000	00000013	addi	x0,x0,0	  x0:0x00000000
       69255000	      6924	80001478	00000013	addi	x0,x0,0	  x0:0x00000000
       69265000	      6925	8000147c	ffdff0ef	jal	x1,8000147c	  x1=0x8000147c
       69275000	      6926	00000000	00000013	addi	x0,x0,0	  x0:0x00000000
       69285000	      6927	80001474	00000013	addi	x0,x0,0	  x0:0x00000000
       69295000	      6928	80001478	ffdff2ef	jal	x5,80001478	  x5=0x80001478
       69305000	      6929	00000000	00000013	addi	x0,x0,0	  x0:0x00000000
       69315000	      6930	80001470	00000013	addi	x0,x0,0	  x0:0x00000000
       69325000	      6931	80001474	fe9ff0ef	jal	x1,80001474	  x1=0x80001474
       69335000	      6932	00000000	00000013	addi	x0,x0,0	  x0:0x00000000
       69345000	      6933	80001458	00000013	addi	x0,x0,0	  x0:0x00000000
       69355000	      6934	8000145c	00800f6f	jal	x30,8000145c	 x30=0x8000145c
       69365000	      6935	00000000	00000013	addi	x0,x0,0	  x0:0x00000000
       69375000	      6936	80001460	00000013	addi	x0,x0,0	  x0:0x00000000
       69385000	      6937	80001464	ff5ff4ef	jal	x9,80001464	  x9=0x80001464
       69395000	      6938	00000000	00000013	addi	x0,x0,0	  x0:0x00000000
       69405000	      6939	80001454	00000013	addi	x0,x0,0	  x0:0x00000000
       69415000	      6940	80001458	0300036f	jal	x6,80001458	  x6=0x80001458
       69425000	      6941	00000000	00000013	addi	x0,x0,0	  x0:0x00000000
       69435000	      6942	80001484	00000013	addi	x0,x0,0	  x0:0x00000000
       69445000	      6943	80001488	fe9ff0ef	jal	x1,80001488	  x1=0x80001488
       69455000	      6944	00000000	00000013	addi	x0,x0,0	  x0:0x00000000
       69465000	      6945	8000146c	00000013	addi	x0,x0,0	  x0:0x00000000
       69475000	      6946	80001470	0100036f	jal	x6,80001470	  x6=0x80001470
       69485000	      6947	00000000	00000013	addi	x0,x0,0	  x0:0x00000000
       69495000	      6948	8000147c	00000013	addi	x0,x0,0	  x0:0x00000000
       69505000	      6949	80001480	010000ef	jal	x1,80001480	  x1=0x80001480
       69515000	      6950	00000000	00000013	addi	x0,x0,0	  x0:0x00000000
       69525000	      6951	8000148c	00000013	addi	x0,x0,0	  x0:0x00000000
       69535000	      6952	80001490	fc1ff0ef	jal	x1,80001490	  x1=0x80001490
       69545000	      6953	00000000	00000013	addi	x0,x0,0	  x0:0x00000000
       69555000	      6954	8000144c	00000013	addi	x0,x0,0	  x0:0x00000000
       69565000	      6955	80001450	01c000ef	jal	x1,80001450	  x1=0x80001450
       69575000	      6956	00000000	00000013	addi	x0,x0,0	  x0:0x00000000
       69585000	      6957	80001468	00000013	addi	x0,x0,0	  x0:0x00000000
       69595000	      6958	8000146c	ffdff36f	jal	x6,8000146c	  x6=0x8000146c
       69605000	      6959	00000000	00000013	addi	x0,x0,0	  x0:0x00000000
       69615000	      6960	80001464	00000013	addi	x0,x0,0	  x0:0x00000000
       69625000	      6961	80001468	fedff7ef	jal	x15,80001468	 x15=0x80001468
       69635000	      6962	00000000	00000013	addi	x0,x0,0	  x0:0x00000000
       69645000	      6963	80001450	00000013	addi	x0,x0,0	  x0:0x00000000
       69655000	      6964	80001454	00c000ef	jal	x1,80001454	  x1=0x80001454
       69665000	      6965	00000000	00000013	addi	x0,x0,0	  x0:0x00000000
       69675000	      6966	8000145c	00000013	addi	x0,x0,0	  x0:0x00000000
       69685000	      6967	80001460	02c000ef	jal	x1,80001460	  x1=0x80001460
       69695000	      6968	00000000	00000013	addi	x0,x0,0	  x0:0x00000000
       69705000	      6969	80001488	00000013	addi	x0,x0,0	  x0:0x00000000
       69715000	      6970	8000148c	ff9ff36f	jal	x6,8000148c	  x6=0x8000148c
       69725000	      6971	00000000	00000013	addi	x0,x0,0	  x0:0x00000000
       69735000	      6972	80001480	00000013	addi	x0,x0,0	  x0:0x00000000
       69745000	      6973	80001484	010000ef	jal	x1,80001484	  x1=0x80001484
       69755000	      6974	00000000	00000013	addi	x0,x0,0	  x0:0x00000000
       69765000	      6975	80001490	00000013	addi	x0,x0,0	  x0:0x00000000
       69775000	      6976	80001494	00a961b3	or	x3,x18,x10	 x18:0x00000001 x10:0x80001398  x3=0x80001399
       69785000	      6977	80001498	0280036f	jal	x6,80001498	  x6=0x80001498
       69795000	      6978	00000000	00000013	addi	x0,x0,0	  x0:0x00000000
       69805000	      6979	800014bc	00000013	addi	x0,x0,0	  x0:0x00000000
       69815000	      6980	800014c0	020003ef	jal	x7,800014c0	  x7=0x800014c0
       69825000	      6981	00000000	00000013	addi	x0,x0,0	  x0:0x00000000
       69835000	      6982	800014dc	00000013	addi	x0,x0,0	  x0:0x00000000
       69845000	      6983	800014e0	00c000ef	jal	x1,800014e0	  x1=0x800014e0
       69855000	      6984	00000000	00000013	addi	x0,x0,0	  x0:0x00000000
       69865000	      6985	800014e8	00000013	addi	x0,x0,0	  x0:0x00000000
       69875000	      6986	800014ec	fbdff56f	jal	x10,800014ec	 x10=0x800014ec
       69885000	      6987	00000000	00000013	addi	x0,x0,0	  x0:0x00000000
       69895000	      6988	800014a4	00000013	addi	x0,x0,0	  x0:0x00000000
       69905000	      6989	800014a8	05000fef	jal	x31,800014a8	 x31=0x800014a8
       69915000	      6990	00000000	00000013	addi	x0,x0,0	  x0:0x00000000
       69925000	      6991	800014f4	00000013	addi	x0,x0,0	  x0:0x00000000
       69935000	      6992	800014f8	fa5ff0ef	jal	x1,800014f8	  x1=0x800014f8
       69945000	      6993	00000000	00000013	addi	x0,x0,0	  x0:0x00000000
       69955000	      6994	80001498	00000013	addi	x0,x0,0	  x0:0x00000000
       69965000	      6995	8000149c	01c00aef	jal	x21,8000149c	 x21=0x8000149c
       69975000	      6996	00000000	00000013	addi	x0,x0,0	  x0:0x00000000
       69985000	      6997	800014b4	00000013	addi	x0,x0,0	  x0:0x00000000
       69995000	      6998	800014b8	054000ef	jal	x1,800014b8	  x1=0x800014b8
       70005000	      6999	00000000	00000013	addi	x0,x0,0	  x0:0x00000000
       70015000	      7000	80001508	00000013	addi	x0,x0,0	  x0:0x00000000
       70025000	      7001	8000150c	fe9ff0ef	jal	x1,8000150c	  x1=0x8000150c
       70035000	      7002	00000000	00000013	addi	x0,x0,0	  x0:0x00000000
       70045000	      7003	800014f0	00000013	addi	x0,x0,0	  x0:0x00000000
       70055000	      7004	800014f4	fddff1ef	jal	x3,800014f4	  x3=0x800014f4
       70065000	      7005	00000000	00000013	addi	x0,x0,0	  x0:0x00000000
       70075000	      7006	800014cc	00000013	addi	x0,x0,0	  x0:0x00000000
       70085000	      7007	800014d0	ffdff0ef	jal	x1,800014d0	  x1=0x800014d0
       70095000	      7008	00000000	00000013	addi	x0,x0,0	  x0:0x00000000
       70105000	      7009	800014c8	00000013	addi	x0,x0,0	  x0:0x00000000
       70115000	      7010	800014cc	03c000ef	jal	x1,800014cc	  x1=0x800014cc
       70125000	      7011	00000000	00000013	addi	x0,x0,0	  x0:0x00000000
       70135000	      7012	80001504	00000013	addi	x0,x0,0	  x0:0x00000000
       70145000	      7013	80001508	fcdff0ef	jal	x1,80001508	  x1=0x80001508
       70155000	      7014	00000000	00000013	addi	x0,x0,0	  x0:0x00000000
       70165000	      7015	800014d0	00000013	addi	x0,x0,0	  x0:0x00000000
       70175000	      7016	800014d4	030000ef	jal	x1,800014d4	  x1=0x800014d4
       70185000	      7017	00000000	00000013	addi	x0,x0,0	  x0:0x00000000
       70195000	      7018	80001500	00000013	addi	x0,x0,0	  x0:0x00000000
       70205000	      7019	80001504	00c002ef	jal	x5,80001504	  x5=0x80001504
       70215000	      7020	00000000	00000013	addi	x0,x0,0	  x0:0x00000000
       70225000	      7021	8000150c	00000013	addi	x0,x0,0	  x0:0x00000000
       70235000	      7022	80001510	fd5ffdef	jal	x27,80001510	 x27=0x80001510
       70245000	      7023	00000000	00000013	addi	x0,x0,0	  x0:0x00000000
       70255000	      7024	800014e0	00000013	addi	x0,x0,0	  x0:0x00000000
       70265000	      7025	800014e4	fbdff36f	jal	x6,800014e4	  x6=0x800014e4
       70275000	      7026	00000000	00000013	addi	x0,x0,0	  x0:0x00000000
       70285000	      7027	8000149c	00000013	addi	x0,x0,0	  x0:0x00000000
       70295000	      7028	800014a0	060000ef	jal	x1,800014a0	  x1=0x800014a0
       70305000	      7029	00000000	00000013	addi	x0,x0,0	  x0:0x00000000
       70315000	      7030	800014fc	00000013	addi	x0,x0,0	  x0:0x00000000
       70325000	      7031	80001500	ffdff0ef	jal	x1,80001500	  x1=0x80001500
       70335000	      7032	00000000	00000013	addi	x0,x0,0	  x0:0x00000000
       70345000	      7033	800014f8	00000013	addi	x0,x0,0	  x0:0x00000000
       70355000	      7034	800014fc	fb5ff0ef	jal	x1,800014fc	  x1=0x800014fc
       70365000	      7035	00000000	00000013	addi	x0,x0,0	  x0:0x00000000
       70375000	      7036	800014ac	00000013	addi	x0,x0,0	  x0:0x00000000
       70385000	      7037	800014b0	038000ef	jal	x1,800014b0	  x1=0x800014b0
       70395000	      7038	00000000	00000013	addi	x0,x0,0	  x0:0x00000000
       70405000	      7039	800014e4	00000013	addi	x0,x0,0	  x0:0x00000000
       70415000	      7040	800014e8	fe1ff0ef	jal	x1,800014e8	  x1=0x800014e8
       70425000	      7041	00000000	00000013	addi	x0,x0,0	  x0:0x00000000
       70435000	      7042	800014c4	00000013	addi	x0,x0,0	  x0:0x00000000
       70445000	      7043	800014c8	014001ef	jal	x3,800014c8	  x3=0x800014c8
       70455000	      7044	00000000	00000013	addi	x0,x0,0	  x0:0x00000000
       70465000	      7045	800014d8	00000013	addi	x0,x0,0	  x0:0x00000000
       70475000	      7046	800014dc	fe9ff2ef	jal	x5,800014dc	  x5=0x800014dc
       70485000	      7047	00000000	00000013	addi	x0,x0,0	  x0:0x00000000
       70495000	      7048	800014c0	00000013	addi	x0,x0,0	  x0:0x00000000
       70505000	      7049	800014c4	ff1ff2ef	jal	x5,800014c4	  x5=0x800014c4
       70515000	      7050	00000000	00000013	addi	x0,x0,0	  x0:0x00000000
       70525000	      7051	800014b0	00000013	addi	x0,x0,0	  x0:0x00000000
       70535000	      7052	800014b4	ff1ff36f	jal	x6,800014b4	  x6=0x800014b4
       70545000	      7053	00000000	00000013	addi	x0,x0,0	  x0:0x00000000
       70555000	      7054	800014a0	00000013	addi	x0,x0,0	  x0:0x00000000
       70565000	      7055	800014a4	04c000ef	jal	x1,800014a4	  x1=0x800014a4
       70575000	      7056	00000000	00000013	addi	x0,x0,0	  x0:0x00000000
       70585000	      7057	800014ec	00000013	addi	x0,x0,0	  x0:0x00000000
       70595000	      7058	800014f0	fe9ff0ef	jal	x1,800014f0	  x1=0x800014f0
       70605000	      7059	00000000	00000013	addi	x0,x0,0	  x0:0x00000000
       70615000	      7060	800014d4	00000013	addi	x0,x0,0	  x0:0x00000000
       70625000	      7061	800014d8	fd5ff36f	jal	x6,800014d8	  x6=0x800014d8
       70635000	      7062	00000000	00000013	addi	x0,x0,0	  x0:0x00000000
       70645000	      7063	800014a8	00000013	addi	x0,x0,0	  x0:0x00000000
       70655000	      7064	800014ac	010000ef	jal	x1,800014ac	  x1=0x800014ac
       70665000	      7065	00000000	00000013	addi	x0,x0,0	  x0:0x00000000
       70675000	      7066	800014b8	00000013	addi	x0,x0,0	  x0:0x00000000
       70685000	      7067	800014bc	058000ef	jal	x1,800014bc	  x1=0x800014bc
       70695000	      7068	00000000	00000013	addi	x0,x0,0	  x0:0x00000000
       70705000	      7069	80001510	00000013	addi	x0,x0,0	  x0:0x00000000
       70715000	      7070	80001514	b10f9a17	auipc	x20,0xb10f9	 x20=0x310fa510
       70725000	      7071	80001518	0680036f	jal	x6,80001518	  x6=0x80001518
       70735000	      7072	00000000	00000013	addi	x0,x0,0	  x0:0x00000000
       70745000	      7073	8000157c	00000013	addi	x0,x0,0	  x0:0x00000000
       70755000	      7074	80001580	fd5ff36f	jal	x6,80001580	  x6=0x80001580
       70765000	      7075	00000000	00000013	addi	x0,x0,0	  x0:0x00000000
       70775000	      7076	80001550	00000013	addi	x0,x0,0	  x0:0x00000000
       70785000	      7077	80001554	fe9ff36f	jal	x6,80001554	  x6=0x80001554
       70795000	      7078	00000000	00000013	addi	x0,x0,0	  x0:0x00000000
       70805000	      7079	80001538	00000013	addi	x0,x0,0	  x0:0x00000000
       70815000	      7080	8000153c	03c000ef	jal	x1,8000153c	  x1=0x8000153c
       70825000	      7081	00000000	00000013	addi	x0,x0,0	  x0:0x00000000
       70835000	      7082	80001574	00000013	addi	x0,x0,0	  x0:0x00000000
       70845000	      7083	80001578	ff1ff0ef	jal	x1,80001578	  x1=0x80001578
       70855000	      7084	00000000	00000013	addi	x0,x0,0	  x0:0x00000000
       70865000	      7085	80001564	00000013	addi	x0,x0,0	  x0:0x00000000
       70875000	      7086	80001568	ffdff0ef	jal	x1,80001568	  x1=0x80001568
       70885000	      7087	00000000	00000013	addi	x0,x0,0	  x0:0x00000000
       70895000	      7088	80001560	00000013	addi	x0,x0,0	  x0:0x00000000
       70905000	      7089	80001564	010000ef	jal	x1,80001564	  x1=0x80001564
       70915000	      7090	00000000	00000013	addi	x0,x0,0	  x0:0x00000000
       70925000	      7091	80001570	00000013	addi	x0,x0,0	  x0:0x00000000
       70935000	      7092	80001574	0100036f	jal	x6,80001574	  x6=0x80001574
       70945000	      7093	00000000	00000013	addi	x0,x0,0	  x0:0x00000000
       70955000	      7094	80001580	00000013	addi	x0,x0,0	  x0:0x00000000
       70965000	      7095	80001584	fd5ff0ef	jal	x1,80001584	  x1=0x80001584
       70975000	      7096	00000000	00000013	addi	x0,x0,0	  x0:0x00000000
       70985000	      7097	80001554	00000013	addi	x0,x0,0	  x0:0x00000000
       70995000	      7098	80001558	02400f6f	jal	x30,80001558	 x30=0x80001558
       71005000	      7099	00000000	00000013	addi	x0,x0,0	  x0:0x00000000
       71015000	      7100	80001578	00000013	addi	x0,x0,0	  x0:0x00000000
       71025000	      7101	8000157c	fa5ff0ef	jal	x1,8000157c	  x1=0x8000157c
       71035000	      7102	00000000	00000013	addi	x0,x0,0	  x0:0x00000000
       71045000	      7103	8000151c	00000013	addi	x0,x0,0	  x0:0x00000000
       71055000	      7104	80001520	040005ef	jal	x11,80001520	 x11=0x80001520
       71065000	      7105	00000000	00000013	addi	x0,x0,0	  x0:0x00000000
       71075000	      7106	8000155c	00000013	addi	x0,x0,0	  x0:0x00000000
       71085000	      7107	80001560	fbdff36f	jal	x6,80001560	  x6=0x80001560
       71095000	      7108	00000000	00000013	addi	x0,x0,0	  x0:0x00000000
       71105000	      7109	80001518	00000013	addi	x0,x0,0	  x0:0x00000000
       71115000	      7110	8000151c	0080036f	jal	x6,8000151c	  x6=0x8000151c
       71125000	      7111	00000000	00000013	addi	x0,x0,0	  x0:0x00000000
       71135000	      7112	80001520	00000013	addi	x0,x0,0	  x0:0x00000000
       71145000	      7113	80001524	008000ef	jal	x1,80001524	  x1=0x80001524
       71155000	      7114	00000000	00000013	addi	x0,x0,0	  x0:0x00000000
       71165000	      7115	80001528	00000013	addi	x0,x0,0	  x0:0x00000000
       71175000	      7116	8000152c	0200026f	jal	x4,8000152c	  x4=0x8000152c
       71185000	      7117	00000000	00000013	addi	x0,x0,0	  x0:0x00000000
       71195000	      7118	80001548	00000013	addi	x0,x0,0	  x0:0x00000000
       71205000	      7119	8000154c	fe5ff0ef	jal	x1,8000154c	  x1=0x8000154c
       71215000	      7120	00000000	00000013	addi	x0,x0,0	  x0:0x00000000
       71225000	      7121	8000152c	00000013	addi	x0,x0,0	  x0:0x00000000
       71235000	      7122	80001530	018000ef	jal	x1,80001530	  x1=0x80001530
       71245000	      7123	00000000	00000013	addi	x0,x0,0	  x0:0x00000000
       71255000	      7124	80001544	00000013	addi	x0,x0,0	  x0:0x00000000
       71265000	      7125	80001548	024000ef	jal	x1,80001548	  x1=0x80001548
       71275000	      7126	00000000	00000013	addi	x0,x0,0	  x0:0x00000000
       71285000	      7127	80001568	00000013	addi	x0,x0,0	  x0:0x00000000
       71295000	      7128	8000156c	fd5ff0ef	jal	x1,8000156c	  x1=0x8000156c
       71305000	      7129	00000000	00000013	addi	x0,x0,0	  x0:0x00000000
       71315000	      7130	8000153c	00000013	addi	x0,x0,0	  x0:0x00000000
       71325000	      7131	80001540	fe9ff6ef	jal	x13,80001540	 x13=0x80001540
       71335000	      7132	00000000	00000013	addi	x0,x0,0	  x0:0x00000000
       71345000	      7133	80001524	00000013	addi	x0,x0,0	  x0:0x00000000
       71355000	      7134	80001528	00c000ef	jal	x1,80001528	  x1=0x80001528
       71365000	      7135	00000000	00000013	addi	x0,x0,0	  x0:0x00000000
       71375000	      7136	80001530	00000013	addi	x0,x0,0	  x0:0x00000000
       71385000	      7137	80001534	004000ef	jal	x1,80001534	  x1=0x80001534
       71395000	      7138	00000000	00000013	addi	x0,x0,0	  x0:0x00000000
       71405000	      7139	80001534	00000013	addi	x0,x0,0	  x0:0x00000000
       71415000	      7140	80001538	03800b6f	jal	x22,80001538	 x22=0x80001538
       71425000	      7141	00000000	00000013	addi	x0,x0,0	  x0:0x00000000
       71435000	      7142	8000156c	00000013	addi	x0,x0,0	  x0:0x00000000
       71445000	      7143	80001570	fe1ff0ef	jal	x1,80001570	  x1=0x80001570
       71455000	      7144	00000000	00000013	addi	x0,x0,0	  x0:0x00000000
       71465000	      7145	8000154c	00000013	addi	x0,x0,0	  x0:0x00000000
       71475000	      7146	80001550	00c0036f	jal	x6,80001550	  x6=0x80001550
       71485000	      7147	00000000	00000013	addi	x0,x0,0	  x0:0x00000000
       71495000	      7148	80001558	00000013	addi	x0,x0,0	  x0:0x00000000
       71505000	      7149	8000155c	fe9ff0ef	jal	x1,8000155c	  x1=0x8000155c
       71515000	      7150	00000000	00000013	addi	x0,x0,0	  x0:0x00000000
       71525000	      7151	80001540	00000013	addi	x0,x0,0	  x0:0x00000000
       71535000	      7152	80001544	044000ef	jal	x1,80001544	  x1=0x80001544
       71545000	      7153	00000000	00000013	addi	x0,x0,0	  x0:0x00000000
       71555000	      7154	80001584	00000013	addi	x0,x0,0	  x0:0x00000000
       71565000	      7155	80001588	00000013	addi	x0,x0,0	  x0:0x00000000
       71575000	      7156	8000158c	0240036f	jal	x6,8000158c	  x6=0x8000158c
       71585000	      7157	00000000	00000013	addi	x0,x0,0	  x0:0x00000000
       71595000	      7158	800015ac	00000013	addi	x0,x0,0	  x0:0x00000000
       71605000	      7159	800015b0	00c000ef	jal	x1,800015b0	  x1=0x800015b0
       71615000	      7160	00000000	00000013	addi	x0,x0,0	  x0:0x00000000
       71625000	      7161	800015b8	00000013	addi	x0,x0,0	  x0:0x00000000
       71635000	      7162	800015bc	ff1ff2ef	jal	x5,800015bc	  x5=0x800015bc
       71645000	      7163	00000000	00000013	addi	x0,x0,0	  x0:0x00000000
       71655000	      7164	800015a8	00000013	addi	x0,x0,0	  x0:0x00000000
       71665000	      7165	800015ac	018000ef	jal	x1,800015ac	  x1=0x800015ac
       71675000	      7166	00000000	00000013	addi	x0,x0,0	  x0:0x00000000
       71685000	      7167	800015c0	00000013	addi	x0,x0,0	  x0:0x00000000
       71695000	      7168	800015c4	fd1ff0ef	jal	x1,800015c4	  x1=0x800015c4
       71705000	      7169	00000000	00000013	addi	x0,x0,0	  x0:0x00000000
       71715000	      7170	80001590	00000013	addi	x0,x0,0	  x0:0x00000000
       71725000	      7171	80001594	ffdffaef	jal	x21,80001594	 x21=0x80001594
       71735000	      7172	00000000	00000013	addi	x0,x0,0	  x0:0x00000000
       71745000	      7173	8000158c	00000013	addi	x0,x0,0	  x0:0x00000000
       71755000	      7174	80001590	044000ef	jal	x1,80001590	  x1=0x80001590
       71765000	      7175	00000000	00000013	addi	x0,x0,0	  x0:0x00000000
       71775000	      7176	800015d0	00000013	addi	x0,x0,0	  x0:0x00000000
       71785000	      7177	800015d4	fe1ff36f	jal	x6,800015d4	  x6=0x800015d4
       71795000	      7178	00000000	00000013	addi	x0,x0,0	  x0:0x00000000
       71805000	      7179	800015b0	00000013	addi	x0,x0,0	  x0:0x00000000
       71815000	      7180	800015b4	030000ef	jal	x1,800015b4	  x1=0x800015b4
       71825000	      7181	00000000	00000013	addi	x0,x0,0	  x0:0x00000000
       71835000	      7182	800015e0	00000013	addi	x0,x0,0	  x0:0x00000000
       71845000	      7183	800015e4	ffdff36f	jal	x6,800015e4	  x6=0x800015e4
       71855000	      7184	00000000	00000013	addi	x0,x0,0	  x0:0x00000000
       71865000	      7185	800015dc	00000013	addi	x0,x0,0	  x0:0x00000000
       71875000	      7186	800015e0	fc1ff36f	jal	x6,800015e0	  x6=0x800015e0
       71885000	      7187	00000000	00000013	addi	x0,x0,0	  x0:0x00000000
       71895000	      7188	8000159c	00000013	addi	x0,x0,0	  x0:0x00000000
       71905000	      7189	800015a0	018000ef	jal	x1,800015a0	  x1=0x800015a0
       71915000	      7190	00000000	00000013	addi	x0,x0,0	  x0:0x00000000
       71925000	      7191	800015b4	00000013	addi	x0,x0,0	  x0:0x00000000
       71935000	      7192	800015b8	0080036f	jal	x6,800015b8	  x6=0x800015b8
       71945000	      7193	00000000	00000013	addi	x0,x0,0	  x0:0x00000000
       71955000	      7194	800015bc	00000013	addi	x0,x0,0	  x0:0x00000000
       71965000	      7195	800015c0	018000ef	jal	x1,800015c0	  x1=0x800015c0
       71975000	      7196	00000000	00000013	addi	x0,x0,0	  x0:0x00000000
       71985000	      7197	800015d4	00000013	addi	x0,x0,0	  x0:0x00000000
       71995000	      7198	800015d8	004001ef	jal	x3,800015d8	  x3=0x800015d8
       72005000	      7199	00000000	00000013	addi	x0,x0,0	  x0:0x00000000
       72015000	      7200	800015d8	00000013	addi	x0,x0,0	  x0:0x00000000
       72025000	      7201	800015dc	fc1ff0ef	jal	x1,800015dc	  x1=0x800015dc
       72035000	      7202	00000000	00000013	addi	x0,x0,0	  x0:0x00000000
       72045000	      7203	80001598	00000013	addi	x0,x0,0	  x0:0x00000000
       72055000	      7204	8000159c	030003ef	jal	x7,8000159c	  x7=0x8000159c
       72065000	      7205	00000000	00000013	addi	x0,x0,0	  x0:0x00000000
       72075000	      7206	800015c8	00000013	addi	x0,x0,0	  x0:0x00000000
       72085000	      7207	800015cc	020000ef	jal	x1,800015cc	  x1=0x800015cc
       72095000	      7208	00000000	00000013	addi	x0,x0,0	  x0:0x00000000
       72105000	      7209	800015e8	00000013	addi	x0,x0,0	  x0:0x00000000
       72115000	      7210	800015ec	fb9ff0ef	jal	x1,800015ec	  x1=0x800015ec
       72125000	      7211	00000000	00000013	addi	x0,x0,0	  x0:0x00000000
       72135000	      7212	800015a0	00000013	addi	x0,x0,0	  x0:0x00000000
       72145000	      7213	800015a4	044000ef	jal	x1,800015a4	  x1=0x800015a4
       72155000	      7214	00000000	00000013	addi	x0,x0,0	  x0:0x00000000
       72165000	      7215	800015e4	00000013	addi	x0,x0,0	  x0:0x00000000
       72175000	      7216	800015e8	0080036f	jal	x6,800015e8	  x6=0x800015e8
       72185000	      7217	00000000	00000013	addi	x0,x0,0	  x0:0x00000000
       72195000	      7218	800015ec	00000013	addi	x0,x0,0	  x0:0x00000000
       72205000	      7219	800015f0	fe1ff0ef	jal	x1,800015f0	  x1=0x800015f0
       72215000	      7220	00000000	00000013	addi	x0,x0,0	  x0:0x00000000
       72225000	      7221	800015cc	00000013	addi	x0,x0,0	  x0:0x00000000
       72235000	      7222	800015d0	ff9ff0ef	jal	x1,800015d0	  x1=0x800015d0
       72245000	      7223	00000000	00000013	addi	x0,x0,0	  x0:0x00000000
       72255000	      7224	800015c4	00000013	addi	x0,x0,0	  x0:0x00000000
       72265000	      7225	800015c8	fe1ff0ef	jal	x1,800015c8	  x1=0x800015c8
       72275000	      7226	00000000	00000013	addi	x0,x0,0	  x0:0x00000000
       72285000	      7227	800015a4	00000013	addi	x0,x0,0	  x0:0x00000000
       72295000	      7228	800015a8	ff1ff2ef	jal	x5,800015a8	  x5=0x800015a8
       72305000	      7229	00000000	00000013	addi	x0,x0,0	  x0:0x00000000
       72315000	      7230	80001594	00000013	addi	x0,x0,0	  x0:0x00000000
       72325000	      7231	80001598	05c0066f	jal	x12,80001598	 x12=0x80001598
       72335000	      7232	00000000	00000013	addi	x0,x0,0	  x0:0x00000000
       72345000	      7233	800015f0	00000013	addi	x0,x0,0	  x0:0x00000000
       72355000	      7234	800015f4	01c15c93	srli	x25,x2,0x1c	  x2:0x80009fc4 x25=0x00000008
       72365000	      7235	800015f8	03c0036f	jal	x6,800015f8	  x6=0x800015f8
       72375000	      7236	00000000	00000013	addi	x0,x0,0	  x0:0x00000000
       72385000	      7237	80001630	00000013	addi	x0,x0,0	  x0:0x00000000
       72395000	      7238	80001634	fedff0ef	jal	x1,80001634	  x1=0x80001634
       72405000	      7239	00000000	00000013	addi	x0,x0,0	  x0:0x00000000
       72415000	      7240	8000161c	00000013	addi	x0,x0,0	  x0:0x00000000
       72425000	      7241	80001620	fe9ff0ef	jal	x1,80001620	  x1=0x80001620
       72435000	      7242	00000000	00000013	addi	x0,x0,0	  x0:0x00000000
       72445000	      7243	80001604	00000013	addi	x0,x0,0	  x0:0x00000000
       72455000	      7244	80001608	01c007ef	jal	x15,80001608	 x15=0x80001608
       72465000	      7245	00000000	00000013	addi	x0,x0,0	  x0:0x00000000
       72475000	      7246	80001620	00000013	addi	x0,x0,0	  x0:0x00000000
       72485000	      7247	80001624	fe1ff0ef	jal	x1,80001624	  x1=0x80001624
       72495000	      7248	00000000	00000013	addi	x0,x0,0	  x0:0x00000000
       72505000	      7249	80001600	00000013	addi	x0,x0,0	  x0:0x00000000
       72515000	      7250	80001604	044000ef	jal	x1,80001604	  x1=0x80001604
       72525000	      7251	00000000	00000013	addi	x0,x0,0	  x0:0x00000000
       72535000	      7252	80001644	00000013	addi	x0,x0,0	  x0:0x00000000
       72545000	      7253	80001648	fcdff36f	jal	x6,80001648	  x6=0x80001648
       72555000	      7254	00000000	00000013	addi	x0,x0,0	  x0:0x00000000
       72565000	      7255	80001610	00000013	addi	x0,x0,0	  x0:0x00000000
       72575000	      7256	80001614	004000ef	jal	x1,80001614	  x1=0x80001614
       72585000	      7257	00000000	00000013	addi	x0,x0,0	  x0:0x00000000
       72595000	      7258	80001614	00000013	addi	x0,x0,0	  x0:0x00000000
       72605000	      7259	80001618	ff9ff0ef	jal	x1,80001618	  x1=0x80001618
       72615000	      7260	00000000	00000013	addi	x0,x0,0	  x0:0x00000000
       72625000	      7261	8000160c	00000013	addi	x0,x0,0	  x0:0x00000000
       72635000	      7262	80001610	00c0056f	jal	x10,80001610	 x10=0x80001610
       72645000	      7263	00000000	00000013	addi	x0,x0,0	  x0:0x00000000
       72655000	      7264	80001618	00000013	addi	x0,x0,0	  x0:0x00000000
       72665000	      7265	8000161c	028000ef	jal	x1,8000161c	  x1=0x8000161c
       72675000	      7266	00000000	00000013	addi	x0,x0,0	  x0:0x00000000
       72685000	      7267	80001640	00000013	addi	x0,x0,0	  x0:0x00000000
       72695000	      7268	80001644	fbdff1ef	jal	x3,80001644	  x3=0x80001644
       72705000	      7269	00000000	00000013	addi	x0,x0,0	  x0:0x00000000
       72715000	      7270	800015fc	00000013	addi	x0,x0,0	  x0:0x00000000
       72725000	      7271	80001600	040000ef	jal	x1,80001600	  x1=0x80001600
       72735000	      7272	00000000	00000013	addi	x0,x0,0	  x0:0x00000000
       72745000	      7273	8000163c	00000013	addi	x0,x0,0	  x0:0x00000000
       72755000	      7274	80001640	ffdff3ef	jal	x7,80001640	  x7=0x80001640
       72765000	      7275	00000000	00000013	addi	x0,x0,0	  x0:0x00000000
       72775000	      7276	80001638	00000013	addi	x0,x0,0	  x0:0x00000000
       72785000	      7277	8000163c	fd1ff0ef	jal	x1,8000163c	  x1=0x8000163c
       72795000	      7278	00000000	00000013	addi	x0,x0,0	  x0:0x00000000
       72805000	      7279	80001608	00000013	addi	x0,x0,0	  x0:0x00000000
       72815000	      7280	8000160c	020001ef	jal	x3,8000160c	  x3=0x8000160c
       72825000	      7281	00000000	00000013	addi	x0,x0,0	  x0:0x00000000
       72835000	      7282	80001628	00000013	addi	x0,x0,0	  x0:0x00000000
       72845000	      7283	8000162c	fd1ff4ef	jal	x9,8000162c	  x9=0x8000162c
       72855000	      7284	00000000	00000013	addi	x0,x0,0	  x0:0x00000000
       72865000	      7285	800015f8	00000013	addi	x0,x0,0	  x0:0x00000000
       72875000	      7286	800015fc	034000ef	jal	x1,800015fc	  x1=0x800015fc
       72885000	      7287	00000000	00000013	addi	x0,x0,0	  x0:0x00000000
       72895000	      7288	8000162c	00000013	addi	x0,x0,0	  x0:0x00000000
       72905000	      7289	80001630	01c0026f	jal	x4,80001630	  x4=0x80001630
       72915000	      7290	00000000	00000013	addi	x0,x0,0	  x0:0x00000000
       72925000	      7291	80001648	00000013	addi	x0,x0,0	  x0:0x00000000
       72935000	      7292	8000164c	fddff0ef	jal	x1,8000164c	  x1=0x8000164c
       72945000	      7293	00000000	00000013	addi	x0,x0,0	  x0:0x00000000
       72955000	      7294	80001624	00000013	addi	x0,x0,0	  x0:0x00000000
       72965000	      7295	80001628	0100086f	jal	x16,80001628	 x16=0x80001628
       72975000	      7296	00000000	00000013	addi	x0,x0,0	  x0:0x00000000
       72985000	      7297	80001634	00000013	addi	x0,x0,0	  x0:0x00000000
       72995000	      7298	80001638	018000ef	jal	x1,80001638	  x1=0x80001638
       73005000	      7299	00000000	00000013	addi	x0,x0,0	  x0:0x00000000
       73015000	      7300	8000164c	00000013	addi	x0,x0,0	  x0:0x00000000
       73025000	      7301	80001650	017b1393	slli	x7,x22,0x17	 x22:0x80001538  x7=0x9c000000
       73035000	      7302	80001654	01c0036f	jal	x6,80001654	  x6=0x80001654
       73045000	      7303	00000000	00000013	addi	x0,x0,0	  x0:0x00000000
       73055000	      7304	8000166c	00000013	addi	x0,x0,0	  x0:0x00000000
       73065000	      7305	80001670	0140036f	jal	x6,80001670	  x6=0x80001670
       73075000	      7306	00000000	00000013	addi	x0,x0,0	  x0:0x00000000
       73085000	      7307	80001680	00000013	addi	x0,x0,0	  x0:0x00000000
       73095000	      7308	80001684	fddff0ef	jal	x1,80001684	  x1=0x80001684
       73105000	      7309	00000000	00000013	addi	x0,x0,0	  x0:0x00000000
       73115000	      7310	8000165c	00000013	addi	x0,x0,0	  x0:0x00000000
       73125000	      7311	80001660	01c000ef	jal	x1,80001660	  x1=0x80001660
       73135000	      7312	00000000	00000013	addi	x0,x0,0	  x0:0x00000000
       73145000	      7313	80001678	00000013	addi	x0,x0,0	  x0:0x00000000
       73155000	      7314	8000167c	fe9ff0ef	jal	x1,8000167c	  x1=0x8000167c
       73165000	      7315	00000000	00000013	addi	x0,x0,0	  x0:0x00000000
       73175000	      7316	80001660	00000013	addi	x0,x0,0	  x0:0x00000000
       73185000	      7317	80001664	ff5ff96f	jal	x18,80001664	 x18=0x80001664
       73195000	      7318	00000000	00000013	addi	x0,x0,0	  x0:0x00000000
       73205000	      7319	80001654	00000013	addi	x0,x0,0	  x0:0x00000000
       73215000	      7320	80001658	030000ef	jal	x1,80001658	  x1=0x80001658
       73225000	      7321	00000000	00000013	addi	x0,x0,0	  x0:0x00000000
       73235000	      7322	80001684	00000013	addi	x0,x0,0	  x0:0x00000000
       73245000	      7323	80001688	fedff2ef	jal	x5,80001688	  x5=0x80001688
       73255000	      7324	00000000	00000013	addi	x0,x0,0	  x0:0x00000000
       73265000	      7325	80001670	00000013	addi	x0,x0,0	  x0:0x00000000
       73275000	      7326	80001674	004000ef	jal	x1,80001674	  x1=0x80001674
       73285000	      7327	00000000	00000013	addi	x0,x0,0	  x0:0x00000000
       73295000	      7328	80001674	00000013	addi	x0,x0,0	  x0:0x00000000
       73305000	      7329	80001678	ff5ff36f	jal	x6,80001678	  x6=0x80001678
       73315000	      7330	00000000	00000013	addi	x0,x0,0	  x0:0x00000000
       73325000	      7331	80001668	00000013	addi	x0,x0,0	  x0:0x00000000
       73335000	      7332	8000166c	014002ef	jal	x5,8000166c	  x5=0x8000166c
       73345000	      7333	00000000	00000013	addi	x0,x0,0	  x0:0x00000000
       73355000	      7334	8000167c	00000013	addi	x0,x0,0	  x0:0x00000000
       73365000	      7335	80001680	fe9ff0ef	jal	x1,80001680	  x1=0x80001680
       73375000	      7336	00000000	00000013	addi	x0,x0,0	  x0:0x00000000
       73385000	      7337	80001664	00000013	addi	x0,x0,0	  x0:0x00000000
       73395000	      7338	80001668	ff5ff36f	jal	x6,80001668	  x6=0x80001668
       73405000	      7339	00000000	00000013	addi	x0,x0,0	  x0:0x00000000
       73415000	      7340	80001658	00000013	addi	x0,x0,0	  x0:0x00000000
       73425000	      7341	8000165c	030000ef	jal	x1,8000165c	  x1=0x8000165c
       73435000	      7342	00000000	00000013	addi	x0,x0,0	  x0:0x00000000
       73445000	      7343	80001688	00000013	addi	x0,x0,0	  x0:0x00000000
       73455000	      7344	8000168c	00701913	slli	x18,x0,0x7	  x0:0x00000000 x18=0x00000000
       73465000	      7345	80001690	0380036f	jal	x6,80001690	  x6=0x80001690
       73475000	      7346	00000000	00000013	addi	x0,x0,0	  x0:0x00000000
       73485000	      7347	800016c4	00000013	addi	x0,x0,0	  x0:0x00000000
       73495000	      7348	800016c8	fe1ff0ef	jal	x1,800016c8	  x1=0x800016c8
       73505000	      7349	00000000	00000013	addi	x0,x0,0	  x0:0x00000000
       73515000	      7350	800016a4	00000013	addi	x0,x0,0	  x0:0x00000000
       73525000	      7351	800016a8	008002ef	jal	x5,800016a8	  x5=0x800016a8
       73535000	      7352	00000000	00000013	addi	x0,x0,0	  x0:0x00000000
       73545000	      7353	800016ac	00000013	addi	x0,x0,0	  x0:0x00000000
       73555000	      7354	800016b0	008000ef	jal	x1,800016b0	  x1=0x800016b0
       73565000	      7355	00000000	00000013	addi	x0,x0,0	  x0:0x00000000
       73575000	      7356	800016b4	00000013	addi	x0,x0,0	  x0:0x00000000
       73585000	      7357	800016b8	fe1ff0ef	jal	x1,800016b8	  x1=0x800016b8
       73595000	      7358	00000000	00000013	addi	x0,x0,0	  x0:0x00000000
       73605000	      7359	80001694	00000013	addi	x0,x0,0	  x0:0x00000000
       73615000	      7360	80001698	01c000ef	jal	x1,80001698	  x1=0x80001698
       73625000	      7361	00000000	00000013	addi	x0,x0,0	  x0:0x00000000
       73635000	      7362	800016b0	00000013	addi	x0,x0,0	  x0:0x00000000
       73645000	      7363	800016b4	ff9ff36f	jal	x6,800016b4	  x6=0x800016b4
       73655000	      7364	00000000	00000013	addi	x0,x0,0	  x0:0x00000000
       73665000	      7365	800016a8	00000013	addi	x0,x0,0	  x0:0x00000000
       73675000	      7366	800016ac	018000ef	jal	x1,800016ac	  x1=0x800016ac
       73685000	      7367	00000000	00000013	addi	x0,x0,0	  x0:0x00000000
       73695000	      7368	800016c0	00000013	addi	x0,x0,0	  x0:0x00000000
       73705000	      7369	800016c4	fe1ff7ef	jal	x15,800016c4	 x15=0x800016c4
       73715000	      7370	00000000	00000013	addi	x0,x0,0	  x0:0x00000000
       73725000	      7371	800016a0	00000013	addi	x0,x0,0	  x0:0x00000000
       73735000	      7372	800016a4	ffdffc6f	jal	x24,800016a4	 x24=0x800016a4
       73745000	      7373	00000000	00000013	addi	x0,x0,0	  x0:0x00000000
       73755000	      7374	8000169c	00000013	addi	x0,x0,0	  x0:0x00000000
       73765000	      7375	800016a0	020000ef	jal	x1,800016a0	  x1=0x800016a0
       73775000	      7376	00000000	00000013	addi	x0,x0,0	  x0:0x00000000
       73785000	      7377	800016bc	00000013	addi	x0,x0,0	  x0:0x00000000
       73795000	      7378	800016c0	ffdff0ef	jal	x1,800016c0	  x1=0x800016c0
       73805000	      7379	00000000	00000013	addi	x0,x0,0	  x0:0x00000000
       73815000	      7380	800016b8	00000013	addi	x0,x0,0	  x0:0x00000000
       73825000	      7381	800016bc	fd9ff0ef	jal	x1,800016bc	  x1=0x800016bc
       73835000	      7382	00000000	00000013	addi	x0,x0,0	  x0:0x00000000
       73845000	      7383	80001690	00000013	addi	x0,x0,0	  x0:0x00000000
       73855000	      7384	80001694	008000ef	jal	x1,80001694	  x1=0x80001694
       73865000	      7385	00000000	00000013	addi	x0,x0,0	  x0:0x00000000
       73875000	      7386	80001698	00000013	addi	x0,x0,0	  x0:0x00000000
       73885000	      7387	8000169c	0300026f	jal	x4,8000169c	  x4=0x8000169c
       73895000	      7388	00000000	00000013	addi	x0,x0,0	  x0:0x00000000
       73905000	      7389	800016c8	00000013	addi	x0,x0,0	  x0:0x00000000
       73915000	      7390	800016cc	00599933	sll	x18,x19,x5	 x19:0x80001258  x5:0x800016a8 x18=0x00125800
       73925000	      7391	800016d0	64edf613	andi	x12,x27,1614	 x27:0x80001510 x12=0x00000400
       73935000	      7392	800016d4	00000013	addi	x0,x0,0	  x0:0x00000000
       73945000	      7393	800016d8	008aef33	or	x30,x21,x8	 x21:0x80001594  x8:0x0000221c x30=0x8000379c
       73955000	      7394	800016dc	01b5d613	srli	x12,x11,0x1b	 x11:0x80001520 x12=0x00000010
       73965000	      7395	800016e0	006ebab3	sltu	x21,x29,x6	 x29:0xf22f49ae  x6:0x800016b4 x21=0x00000000
       73975000	      7396	800016e4	01e05913	srli	x18,x0,0x1e	  x0:0x00000000 x18=0x00000000
       73985000	      7397	800016e8	03670663	beq	x14,x22,80001714	 x14:0x800010b0 x22:0x80001538
       73995000	      7398	800016ec	63e84393	xori	x7,x16,1598	 x16:0x80001628  x7=0x80001016
       74005000	      7399	800016f0	3ff36e37	lui	x28,0x3ff36	 x28=0x3ff36000
       74015000	      7400	800016f4	01f55e13	srli	x28,x10,0x1f	 x10:0x80001610 x28=0x00000001
       74025000	      7401	800016f8	0034bdb3	sltu	x27,x9,x3	  x9:0x8000162c  x3:0x8000160c x27=0x00000000
       74035000	      7402	800016fc	f7abf813	andi	x16,x23,-134	 x23:0x80001350 x16=0x80001350
       74045000	      7403	80001700	404d0833	sub	x16,x26,x4	 x26:0x80009f4c  x4:0x8000169c x16=0x000088b0
       74055000	      7404	80001704	01b89263	bne	x17,x27,80001708	 x17:0x80001314 x27:0x00000000
       74065000	      7405	00000000	00000013	addi	x0,x0,0	  x0:0x00000000
       74075000	      7406	80001704	00000013	addi	x0,x0,0	  x0:0x00000000
       74085000	      7407	80001708	a782f393	andi	x7,x5,-1416	  x5:0x800016a8  x7=0x80001228
       74095000	      7408	8000170c	28a9b497	auipc	x9,0x28a9b	  x9=0xa8a9c708
       74105000	      7409	80001710	2c5c7513	andi	x10,x24,709	 x24:0x800016a4 x10=0x00000284
       74115000	      7410	80001714	014a07b3	add	x15,x20,x20	 x20:0x310fa510 x20:0x310fa510 x15=0x621f4a20
       74125000	      7411	80001718	00000013	addi	x0,x0,0	  x0:0x00000000
       74135000	      7412	8000171c	0116ae33	slt	x28,x13,x17	 x13:0x80001540 x17:0x80001314 x28=0x00000000
       74145000	      7413	80001720	8fbbfb93	andi	x23,x23,-1797	 x23:0x80001350 x23=0x80001050
       74155000	      7414	80001724	01e3dbb3	srl	x23,x7,x30	  x7:0x80001228 x30:0x8000379c x23=0x00000008
       74165000	      7415	80001728	043dc263	blt	x27,x3,8000176c	 x27:0x00000000  x3:0x8000160c
       74175000	      7416	8000172c	00ea0533	add	x10,x20,x14	 x20:0x310fa510 x14:0x800010b0 x10=0xb10fb5c0
       74185000	      7417	80001730	037d1863	bne	x26,x23,80001760	 x26:0x80009f4c x23:0x00000008
       74195000	      7418	00000000	00000013	addi	x0,x0,0	  x0:0x00000000
       74205000	      7419	8000175c	00000013	addi	x0,x0,0	  x0:0x00000000
       74215000	      7420	80001760	ef03a893	slti	x17,x7,-272	  x7:0x80001228 x17=0x00000001
       74225000	      7421	80001764	414d8db3	sub	x27,x27,x20	 x27:0x00000000 x20:0x310fa510 x27=0xcef05af0
       74235000	      7422	80001768	001044b3	xor	x9,x0,x1	  x0:0x00000000  x1:0x80001694  x9=0x80001694
       74245000	      7423	8000176c	2ba9c513	xori	x10,x19,698	 x19:0x80001258 x10=0x800010e2
       74255000	      7424	80001770	05fc8263	beq	x25,x31,800017b4	 x25:0x00000008 x31:0x800014a8
       74265000	      7425	80001774	0c89a413	slti	x8,x19,200	 x19:0x80001258  x8=0x00000001
       74275000	      7426	80001778	024cce63	blt	x25,x4,800017b4	 x25:0x00000008  x4:0x8000169c
       74285000	      7427	8000177c	011bfcb3	and	x25,x23,x17	 x23:0x00000008 x17:0x00000001 x25=0x00000000
       74295000	      7428	80001780	4200ed93	ori	x27,x1,1056	  x1:0x80001694 x27=0x800016b4
       74305000	      7429	80001784	87eb6c13	ori	x24,x22,-1922	 x22:0x80001538 x24=0xfffffd7e
       74315000	      7430	80001788	03d4c863	blt	x9,x29,800017b8	  x9:0x80001694 x29:0xf22f49ae
       74325000	      7431	00000000	00000013	addi	x0,x0,0	  x0:0x00000000
       74335000	      7432	800017b4	00000013	addi	x0,x0,0	  x0:0x00000000
       74345000	      7433	800017b8	4093d693	srai	x13,x7,0x9	  x7:0x80001228 x13=0xffc00009
       74355000	      7434	800017bc	01ba5c93	srli	x25,x20,0x1b	 x20:0x310fa510 x25=0x00000006
       74365000	      7435	800017c0	06e2ec63	bltu	x5,x14,80001838	  x5:0x800016a8 x14:0x800010b0
       74375000	      7436	800017c4	00e71233	sll	x4,x14,x14	 x14:0x800010b0 x14:0x800010b0  x4=0x10b00000
       74385000	      7437	800017c8	0085d8b3	srl	x17,x11,x8	 x11:0x80001520  x8:0x00000001 x17=0x40000a90
       74395000	      7438	800017cc	331bf593	andi	x11,x23,817	 x23:0x00000008 x11=0x00000000
       74405000	      7439	800017d0	015fd093	srli	x1,x31,0x15	 x31:0x800014a8  x1=0x00000400
       74415000	      7440	800017d4	015293b3	sll	x7,x5,x21	  x5:0x800016a8 x21:0x00000000  x7=0x800016a8
       74425000	      7441	800017d8	a165fe13	andi	x28,x11,-1514	 x11:0x00000000 x28=0x00000000
       74435000	      7442	800017dc	47015097	auipc	x1,0x47015	  x1=0xc70167d8
       74445000	      7443	800017e0	06eeca63	blt	x29,x14,80001854	 x29:0xf22f49ae x14:0x800010b0
       74455000	      7444	800017e4	0124e933	or	x18,x9,x18	  x9:0x80001694 x18:0x00000000 x18=0x80001694
       74465000	      7445	800017e8	00949fb3	sll	x31,x9,x9	  x9:0x80001694  x9:0x80001694 x31=0x69400000
       74475000	      7446	800017ec	008cc433	xor	x8,x25,x8	 x25:0x00000006  x8:0x00000001  x8=0x00000007
       74485000	      7447	800017f0	fffff617	auipc	x12,0xfffff	 x12=0x800007ec
       74495000	      7448	800017f4	29860613	addi	x12,x12,664	 x12:0x800007ec x12=0x80000a84
       74505000	      7449	800017f8	2e060613	addi	x12,x12,736	 x12:0x80000a84 x12=0x80000d64
       74515000	      7450	800017fc	005bc433	xor	x8,x23,x5	 x23:0x00000008  x5:0x800016a8  x8=0x800016a0
       74525000	      7451	80001800	fa228493	addi	x9,x5,-94	  x5:0x800016a8  x9=0x8000164a
       74535000	      7452	80001804	0091b433	sltu	x8,x3,x9	  x3:0x8000160c  x9:0x8000164a  x8=0x00000001
       74545000	      7453	80001808	4ca129b7	lui	x19,0x4ca12	 x19=0x4ca12000
       74555000	      7454	8000180c	9df7c893	xori	x17,x15,-1569	 x15:0x621f4a20 x17=0x9de0b3ff
       74565000	      7455	80001810	d2060367	jalr	x6,x12,-736	 x12:0x80000d64  x6=0x80001810
       74575000	      7456	00000000	00000013	addi	x0,x0,0	  x0:0x00000000
       74585000	      7457	80000a84	00000013	addi	x0,x0,0	  x0:0x00000000
       74595000	      7458	80000a88	2484ad97	auipc	x27,0x2484a	 x27=0xa484aa84
       74605000	      7459	80000a8c	00d36f33	or	x30,x6,x13	  x6:0x80001810 x13:0xffc00009 x30=0xffc01819
       74615000	      7460	80000a90	017b4663	blt	x22,x23,80000a9c	 x22:0x80001538 x23:0x00000008
       74625000	      7461	00000000	00000013	addi	x0,x0,0	  x0:0x00000000
       74635000	      7462	80000a98	00000013	addi	x0,x0,0	  x0:0x00000000
       74645000	      7463	80000a9c	fccd0d13	addi	x26,x26,-52	 x26:0x80009f4c x26=0x80009f18
       74655000	      7464	80000aa0	01f79c33	sll	x24,x15,x31	 x15:0x621f4a20 x31:0x69400000 x24=0x621f4a20
       74665000	      7465	80000aa4	006d2223	sw	x6,4(x26)	 x26:0x80009f18  x6:0x80001810 PA:0x80009f1c
       74675000	      7466	80000aa8	01db32b3	sltu	x5,x22,x29	 x22:0x80001538 x29:0xf22f49ae  x5=0x00000001
       74685000	      7467	80000aac	01a150b3	srl	x1,x2,x26	  x2:0x80009fc4 x26:0x80009f18  x1=0x00000080
       74695000	      7468	80000ab0	01d8dcb3	srl	x25,x17,x29	 x17:0x9de0b3ff x29:0xf22f49ae x25=0x00027782
       74705000	      7469	80000ab4	00669ab3	sll	x21,x13,x6	 x13:0xffc00009  x6:0x80001810 x21=0x00090000
       74715000	      7470	80000ab8	00651d93	slli	x27,x10,0x6	 x10:0x800010e2 x27=0x00043880
       74725000	      7471	80000abc	00d25e33	srl	x28,x4,x13	  x4:0x10b00000 x13:0xffc00009 x28=0x00085800
       74735000	      7472	80000ac0	948b4697	auipc	x13,0x948b4	 x13=0x148b4abc
       74745000	      7473	80000ac4	00c1c863	blt	x3,x12,80000ad4	  x3:0x8000160c x12:0x80000d64
       74755000	      7474	80000ac8	00000013	addi	x0,x0,0	  x0:0x00000000
       74765000	      7475	80000acc	c9a5cf37	lui	x30,0xc9a5c	 x30=0xc9a5c000
       74775000	      7476	80000ad0	4030d693	srai	x13,x1,0x3	  x1:0x00000080 x13=0x00000010
       74785000	      7477	80000ad4	3b40236f	jal	x6,80000ad4	  x6=0x80000ad4
       74795000	      7478	00000000	00000013	addi	x0,x0,0	  x0:0x00000000
       74805000	      7479	80002e84	00000013	addi	x0,x0,0	  x0:0x00000000
       74815000	      7480	80002e88	31066513	ori	x10,x12,784	 x12:0x80000d64 x10=0x80000f74
       74825000	      7481	80002e8c	017034b3	sltu	x9,x0,x23	  x0:0x00000000 x23:0x00000008  x9=0x00000001
       74835000	      7482	80002e90	2e920513	addi	x10,x4,745	  x4:0x10b00000 x10=0x10b002e9
       74845000	      7483	80002e94	fecd0d13	addi	x26,x26,-20	 x26:0x80009f18 x26=0x80009f04
       74855000	      7484	80002e98	006d2223	sw	x6,4(x26)	 x26:0x80009f04  x6:0x80000ad4 PA:0x80009f08
       74865000	      7485	80002e9c	013d62b3	or	x5,x26,x19	 x26:0x80009f04 x19:0x4ca12000  x5=0xcca1bf04
       74875000	      7486	80002ea0	414083b3	sub	x7,x1,x20	  x1:0x00000080 x20:0x310fa510  x7=0xcef05b70
       74885000	      7487	80002ea4	0400036f	jal	x6,80002ea4	  x6=0x80002ea4
       74895000	      7488	00000000	00000013	addi	x0,x0,0	  x0:0x00000000
       74905000	      7489	80002ee0	00000013	addi	x0,x0,0	  x0:0x00000000
       74915000	      7490	80002ee4	018000ef	jal	x1,80002ee4	  x1=0x80002ee4
       74925000	      7491	00000000	00000013	addi	x0,x0,0	  x0:0x00000000
       74935000	      7492	80002ef8	00000013	addi	x0,x0,0	  x0:0x00000000
       74945000	      7493	80002efc	fddff0ef	jal	x1,80002efc	  x1=0x80002efc
       74955000	      7494	00000000	00000013	addi	x0,x0,0	  x0:0x00000000
       74965000	      7495	80002ed4	00000013	addi	x0,x0,0	  x0:0x00000000
       74975000	      7496	80002ed8	fedff36f	jal	x6,80002ed8	  x6=0x80002ed8
       74985000	      7497	00000000	00000013	addi	x0,x0,0	  x0:0x00000000
       74995000	      7498	80002ec0	00000013	addi	x0,x0,0	  x0:0x00000000
       75005000	      7499	80002ec4	ffdff0ef	jal	x1,80002ec4	  x1=0x80002ec4
       75015000	      7500	00000000	00000013	addi	x0,x0,0	  x0:0x00000000
       75025000	      7501	80002ebc	00000013	addi	x0,x0,0	  x0:0x00000000
       75035000	      7502	80002ec0	ff1ffe6f	jal	x28,80002ec0	 x28=0x80002ec0
       75045000	      7503	00000000	00000013	addi	x0,x0,0	  x0:0x00000000
       75055000	      7504	80002eac	00000013	addi	x0,x0,0	  x0:0x00000000
       75065000	      7505	80002eb0	02c000ef	jal	x1,80002eb0	  x1=0x80002eb0
       75075000	      7506	00000000	00000013	addi	x0,x0,0	  x0:0x00000000
       75085000	      7507	80002ed8	00000013	addi	x0,x0,0	  x0:0x00000000
       75095000	      7508	80002edc	fddff0ef	jal	x1,80002edc	  x1=0x80002edc
       75105000	      7509	00000000	00000013	addi	x0,x0,0	  x0:0x00000000
       75115000	      7510	80002eb4	00000013	addi	x0,x0,0	  x0:0x00000000
       75125000	      7511	80002eb8	014000ef	jal	x1,80002eb8	  x1=0x80002eb8
       75135000	      7512	00000000	00000013	addi	x0,x0,0	  x0:0x00000000
       75145000	      7513	80002ec8	00000013	addi	x0,x0,0	  x0:0x00000000
       75155000	      7514	80002ecc	034001ef	jal	x3,80002ecc	  x3=0x80002ecc
       75165000	      7515	00000000	00000013	addi	x0,x0,0	  x0:0x00000000
       75175000	      7516	80002efc	00000013	addi	x0,x0,0	  x0:0x00000000
       75185000	      7517	80002f00	004000ef	jal	x1,80002f00	  x1=0x80002f00
       75195000	      7518	00000000	00000013	addi	x0,x0,0	  x0:0x00000000
       75205000	      7519	80002f00	00000013	addi	x0,x0,0	  x0:0x00000000
       75215000	      7520	80002f04	fb9ffe6f	jal	x28,80002f04	 x28=0x80002f04
       75225000	      7521	00000000	00000013	addi	x0,x0,0	  x0:0x00000000
       75235000	      7522	80002eb8	00000013	addi	x0,x0,0	  x0:0x00000000
       75245000	      7523	80002ebc	030000ef	jal	x1,80002ebc	  x1=0x80002ebc
       75255000	      7524	00000000	00000013	addi	x0,x0,0	  x0:0x00000000
       75265000	      7525	80002ee8	00000013	addi	x0,x0,0	  x0:0x00000000
       75275000	      7526	80002eec	00c0046f	jal	x8,80002eec	  x8=0x80002eec
       75285000	      7527	00000000	00000013	addi	x0,x0,0	  x0:0x00000000
       75295000	      7528	80002ef4	00000013	addi	x0,x0,0	  x0:0x00000000
       75305000	      7529	80002ef8	fb1ff36f	jal	x6,80002ef8	  x6=0x80002ef8
       75315000	      7530	00000000	00000013	addi	x0,x0,0	  x0:0x00000000
       75325000	      7531	80002ea4	00000013	addi	x0,x0,0	  x0:0x00000000
       75335000	      7532	80002ea8	0480036f	jal	x6,80002ea8	  x6=0x80002ea8
       75345000	      7533	00000000	00000013	addi	x0,x0,0	  x0:0x00000000
       75355000	      7534	80002eec	00000013	addi	x0,x0,0	  x0:0x00000000
       75365000	      7535	80002ef0	fc5ff0ef	jal	x1,80002ef0	  x1=0x80002ef0
       75375000	      7536	00000000	00000013	addi	x0,x0,0	  x0:0x00000000
       75385000	      7537	80002eb0	00000013	addi	x0,x0,0	  x0:0x00000000
       75395000	      7538	80002eb4	0340036f	jal	x6,80002eb4	  x6=0x80002eb4
       75405000	      7539	00000000	00000013	addi	x0,x0,0	  x0:0x00000000
       75415000	      7540	80002ee4	00000013	addi	x0,x0,0	  x0:0x00000000
       75425000	      7541	80002ee8	ff9ff0ef	jal	x1,80002ee8	  x1=0x80002ee8
       75435000	      7542	00000000	00000013	addi	x0,x0,0	  x0:0x00000000
       75445000	      7543	80002edc	00000013	addi	x0,x0,0	  x0:0x00000000
       75455000	      7544	80002ee0	ff1ff0ef	jal	x1,80002ee0	  x1=0x80002ee0
       75465000	      7545	00000000	00000013	addi	x0,x0,0	  x0:0x00000000
       75475000	      7546	80002ecc	00000013	addi	x0,x0,0	  x0:0x00000000
       75485000	      7547	80002ed0	004000ef	jal	x1,80002ed0	  x1=0x80002ed0
       75495000	      7548	00000000	00000013	addi	x0,x0,0	  x0:0x00000000
       75505000	      7549	80002ed0	00000013	addi	x0,x0,0	  x0:0x00000000
       75515000	      7550	80002ed4	ff5ff0ef	jal	x1,80002ed4	  x1=0x80002ed4
       75525000	      7551	00000000	00000013	addi	x0,x0,0	  x0:0x00000000
       75535000	      7552	80002ec4	00000013	addi	x0,x0,0	  x0:0x00000000
       75545000	      7553	80002ec8	02c008ef	jal	x17,80002ec8	 x17=0x80002ec8
       75555000	      7554	00000000	00000013	addi	x0,x0,0	  x0:0x00000000
       75565000	      7555	80002ef0	00000013	addi	x0,x0,0	  x0:0x00000000
       75575000	      7556	80002ef4	fb9ff1ef	jal	x3,80002ef4	  x3=0x80002ef4
       75585000	      7557	00000000	00000013	addi	x0,x0,0	  x0:0x00000000
       75595000	      7558	80002ea8	00000013	addi	x0,x0,0	  x0:0x00000000
       75605000	      7559	80002eac	05c0036f	jal	x6,80002eac	  x6=0x80002eac
       75615000	      7560	00000000	00000013	addi	x0,x0,0	  x0:0x00000000
       75625000	      7561	80002f04	00000013	addi	x0,x0,0	  x0:0x00000000
       75635000	      7562	80002f08	003b2433	slt	x8,x22,x3	 x22:0x80001538  x3:0x80002ef4  x8=0x00000001
       75645000	      7563	80002f0c	0640036f	jal	x6,80002f0c	  x6=0x80002f0c
       75655000	      7564	00000000	00000013	addi	x0,x0,0	  x0:0x00000000
       75665000	      7565	80002f6c	00000013	addi	x0,x0,0	  x0:0x00000000
       75675000	      7566	80002f70	ffdff36f	jal	x6,80002f70	  x6=0x80002f70
       75685000	      7567	00000000	00000013	addi	x0,x0,0	  x0:0x00000000
       75695000	      7568	80002f68	00000013	addi	x0,x0,0	  x0:0x00000000
       75705000	      7569	80002f6c	fd1ff26f	jal	x4,80002f6c	  x4=0x80002f6c
       75715000	      7570	00000000	00000013	addi	x0,x0,0	  x0:0x00000000
       75725000	      7571	80002f38	00000013	addi	x0,x0,0	  x0:0x00000000
       75735000	      7572	80002f3c	004000ef	jal	x1,80002f3c	  x1=0x80002f3c
       75745000	      7573	00000000	00000013	addi	x0,x0,0	  x0:0x00000000
       75755000	      7574	80002f3c	00000013	addi	x0,x0,0	  x0:0x00000000
       75765000	      7575	80002f40	01c0036f	jal	x6,80002f40	  x6=0x80002f40
       75775000	      7576	00000000	00000013	addi	x0,x0,0	  x0:0x00000000
       75785000	      7577	80002f58	00000013	addi	x0,x0,0	  x0:0x00000000
       75795000	      7578	80002f5c	fb5ff36f	jal	x6,80002f5c	  x6=0x80002f5c
       75805000	      7579	00000000	00000013	addi	x0,x0,0	  x0:0x00000000
       75815000	      7580	80002f0c	00000013	addi	x0,x0,0	  x0:0x00000000
       75825000	      7581	80002f10	06c000ef	jal	x1,80002f10	  x1=0x80002f10
       75835000	      7582	00000000	00000013	addi	x0,x0,0	  x0:0x00000000
       75845000	      7583	80002f78	00000013	addi	x0,x0,0	  x0:0x00000000
       75855000	      7584	80002f7c	fb9ff0ef	jal	x1,80002f7c	  x1=0x80002f7c
       75865000	      7585	00000000	00000013	addi	x0,x0,0	  x0:0x00000000
       75875000	      7586	80002f30	00000013	addi	x0,x0,0	  x0:0x00000000
       75885000	      7587	80002f34	ff1ff0ef	jal	x1,80002f34	  x1=0x80002f34
       75895000	      7588	00000000	00000013	addi	x0,x0,0	  x0:0x00000000
       75905000	      7589	80002f20	00000013	addi	x0,x0,0	  x0:0x00000000
       75915000	      7590	80002f24	030000ef	jal	x1,80002f24	  x1=0x80002f24
       75925000	      7591	00000000	00000013	addi	x0,x0,0	  x0:0x00000000
       75935000	      7592	80002f50	00000013	addi	x0,x0,0	  x0:0x00000000
       75945000	      7593	80002f54	014000ef	jal	x1,80002f54	  x1=0x80002f54
       75955000	      7594	00000000	00000013	addi	x0,x0,0	  x0:0x00000000
       75965000	      7595	80002f64	00000013	addi	x0,x0,0	  x0:0x00000000
       75975000	      7596	80002f68	00c000ef	jal	x1,80002f68	  x1=0x80002f68
       75985000	      7597	00000000	00000013	addi	x0,x0,0	  x0:0x00000000
       75995000	      7598	80002f70	00000013	addi	x0,x0,0	  x0:0x00000000
       76005000	      7599	80002f74	fd5ff86f	jal	x16,80002f74	 x16=0x80002f74
       76015000	      7600	00000000	00000013	addi	x0,x0,0	  x0:0x00000000
       76025000	      7601	80002f44	00000013	addi	x0,x0,0	  x0:0x00000000
       76035000	      7602	80002f48	ffdff0ef	jal	x1,80002f48	  x1=0x80002f48
       76045000	      7603	00000000	00000013	addi	x0,x0,0	  x0:0x00000000
       76055000	      7604	80002f40	00000013	addi	x0,x0,0	  x0:0x00000000
       76065000	      7605	80002f44	034000ef	jal	x1,80002f44	  x1=0x80002f44
       76075000	      7606	00000000	00000013	addi	x0,x0,0	  x0:0x00000000
       76085000	      7607	80002f74	00000013	addi	x0,x0,0	  x0:0x00000000
       76095000	      7608	80002f78	fa5ff0ef	jal	x1,80002f78	  x1=0x80002f78
       76105000	      7609	00000000	00000013	addi	x0,x0,0	  x0:0x00000000
       76115000	      7610	80002f18	00000013	addi	x0,x0,0	  x0:0x00000000
       76125000	      7611	80002f1c	ff9ff0ef	jal	x1,80002f1c	  x1=0x80002f1c
       76135000	      7612	00000000	00000013	addi	x0,x0,0	  x0:0x00000000
       76145000	      7613	80002f10	00000013	addi	x0,x0,0	  x0:0x00000000
       76155000	      7614	80002f14	0440036f	jal	x6,80002f14	  x6=0x80002f14
       76165000	      7615	00000000	00000013	addi	x0,x0,0	  x0:0x00000000
       76175000	      7616	80002f54	00000013	addi	x0,x0,0	  x0:0x00000000
       76185000	      7617	80002f58	fe1ff0ef	jal	x1,80002f58	  x1=0x80002f58
       76195000	      7618	00000000	00000013	addi	x0,x0,0	  x0:0x00000000
       76205000	      7619	80002f34	00000013	addi	x0,x0,0	  x0:0x00000000
       76215000	      7620	80002f38	fe1fffef	jal	x31,80002f38	 x31=0x80002f38
       76225000	      7621	00000000	00000013	addi	x0,x0,0	  x0:0x00000000
       76235000	      7622	80002f14	00000013	addi	x0,x0,0	  x0:0x00000000
       76245000	      7623	80002f18	010000ef	jal	x1,80002f18	  x1=0x80002f18
       76255000	      7624	00000000	00000013	addi	x0,x0,0	  x0:0x00000000
       76265000	      7625	80002f24	00000013	addi	x0,x0,0	  x0:0x00000000
       76275000	      7626	80002f28	0240056f	jal	x10,80002f28	 x10=0x80002f28
       76285000	      7627	00000000	00000013	addi	x0,x0,0	  x0:0x00000000
       76295000	      7628	80002f48	00000013	addi	x0,x0,0	  x0:0x00000000
       76305000	      7629	80002f4c	fd5ff36f	jal	x6,80002f4c	  x6=0x80002f4c
       76315000	      7630	00000000	00000013	addi	x0,x0,0	  x0:0x00000000
       76325000	      7631	80002f1c	00000013	addi	x0,x0,0	  x0:0x00000000
       76335000	      7632	80002f20	0400036f	jal	x6,80002f20	  x6=0x80002f20
       76345000	      7633	00000000	00000013	addi	x0,x0,0	  x0:0x00000000
       76355000	      7634	80002f5c	00000013	addi	x0,x0,0	  x0:0x00000000
       76365000	      7635	80002f60	ff1ff0ef	jal	x1,80002f60	  x1=0x80002f60
       76375000	      7636	00000000	00000013	addi	x0,x0,0	  x0:0x00000000
       76385000	      7637	80002f4c	00000013	addi	x0,x0,0	  x0:0x00000000
       76395000	      7638	80002f50	fe1ff4ef	jal	x9,80002f50	  x9=0x80002f50
       76405000	      7639	00000000	00000013	addi	x0,x0,0	  x0:0x00000000
       76415000	      7640	80002f2c	00000013	addi	x0,x0,0	  x0:0x00000000
       76425000	      7641	80002f30	ffdff1ef	jal	x3,80002f30	  x3=0x80002f30
       76435000	      7642	00000000	00000013	addi	x0,x0,0	  x0:0x00000000
       76445000	      7643	80002f28	00000013	addi	x0,x0,0	  x0:0x00000000
       76455000	      7644	80002f2c	038000ef	jal	x1,80002f2c	  x1=0x80002f2c
       76465000	      7645	00000000	00000013	addi	x0,x0,0	  x0:0x00000000
       76475000	      7646	80002f60	00000013	addi	x0,x0,0	  x0:0x00000000
       76485000	      7647	80002f64	01c000ef	jal	x1,80002f64	  x1=0x80002f64
       76495000	      7648	00000000	00000013	addi	x0,x0,0	  x0:0x00000000
       76505000	      7649	80002f7c	00000013	addi	x0,x0,0	  x0:0x00000000
       76515000	      7650	80002f80	fc69f393	andi	x7,x19,-58	 x19:0x4ca12000  x7=0x4ca12000
       76525000	      7651	80002f84	59fd9437	lui	x8,0x59fd9	  x8=0x59fd9000
       76535000	      7652	80002f88	02a95c63	bge	x18,x10,80002fc0	 x18:0x80001694 x10:0x80002f28
       76545000	      7653	80002f8c	012c0db3	add	x27,x24,x18	 x24:0x621f4a20 x18:0x80001694 x27=0xe21f60b4
       76555000	      7654	80002f90	726b0713	addi	x14,x22,1830	 x22:0x80001538 x14=0x80001c5e
       76565000	      7655	80002f94	01511fb3	sll	x31,x2,x21	  x2:0x80009fc4 x21:0x00090000 x31=0x80009fc4
       76575000	      7656	80002f98	02ad8063	beq	x27,x10,80002fb8	 x27:0xe21f60b4 x10:0x80002f28
       76585000	      7657	80002f9c	018a4263	blt	x20,x24,80002fa0	 x20:0x310fa510 x24:0x621f4a20
       76595000	      7658	00000000	00000013	addi	x0,x0,0	  x0:0x00000000
       76605000	      7659	80002f9c	00000013	addi	x0,x0,0	  x0:0x00000000
       76615000	      7660	80002fa0	05f35463	bge	x6,x31,80002fe8	  x6:0x80002f20 x31:0x80009fc4
       76625000	      7661	80002fa4	00000013	addi	x0,x0,0	  x0:0x00000000
       76635000	      7662	80002fa8	04d09663	bne	x1,x13,80002ff4	  x1:0x80002f64 x13:0x00000010
       76645000	      7663	00000000	00000013	addi	x0,x0,0	  x0:0x00000000
       76655000	      7664	80002ff0	00000013	addi	x0,x0,0	  x0:0x00000000
       76665000	      7665	80002ff4	46623893	sltiu	x17,x4,1126	  x4:0x80002f6c x17=0x00000000
       76675000	      7666	80002ff8	004b4663	blt	x22,x4,80003004	 x22:0x80001538  x4:0x80002f6c
       76685000	      7667	00000000	00000013	addi	x0,x0,0	  x0:0x00000000
       76695000	      7668	80003000	00000013	addi	x0,x0,0	  x0:0x00000000
       76705000	      7669	80003004	7142ba93	sltiu	x21,x5,1812	  x5:0xcca1bf04 x21=0x00000000
       76715000	      7670	80003008	01b4b733	sltu	x14,x9,x27	  x9:0x80002f50 x27:0xe21f60b4 x14=0x00000001
       76725000	      7671	8000300c	0100d813	srli	x16,x1,0x10	  x1:0x80002f64 x16=0x00008000
       76735000	      7672	80003010	02995663	bge	x18,x9,8000303c	 x18:0x80001694  x9:0x80002f50
       76745000	      7673	80003014	f913ac93	slti	x25,x7,-111	  x7:0x4ca12000 x25=0x00000000
       76755000	      7674	80003018	01aa30b3	sltu	x1,x20,x26	 x20:0x310fa510 x26:0x80009f04  x1=0x00000001
       76765000	      7675	8000301c	000b6c33	or	x24,x22,x0	 x22:0x80001538  x0:0x00000000 x24=0x80001538
       76775000	      7676	80003020	003b09b3	add	x19,x22,x3	 x22:0x80001538  x3:0x80002f30 x19=0x00004468
       76785000	      7677	80003024	012be033	or	x0,x23,x18	 x23:0x00000008 x18:0x80001694
       76795000	      7678	80003028	0055ce33	xor	x28,x11,x5	 x11:0x00000000  x5:0xcca1bf04 x28=0xcca1bf04
       76805000	      7679	8000302c	018db6b3	sltu	x13,x27,x24	 x27:0xe21f60b4 x24:0x80001538 x13=0x00000000
       76815000	      7680	80003030	01da4033	xor	x0,x20,x29	 x20:0x310fa510 x29:0xf22f49ae
       76825000	      7681	80003034	eda22393	slti	x7,x4,-294	  x4:0x80002f6c  x7=0x00000001
       76835000	      7682	80003038	016b97b3	sll	x15,x23,x22	 x23:0x00000008 x22:0x80001538 x15=0x08000000
       76845000	      7683	8000303c	00cac633	xor	x12,x21,x12	 x21:0x00000000 x12:0x80000d64 x12=0x80000d64
       76855000	      7684	80003040	29ecb493	sltiu	x9,x25,670	 x25:0x00000000  x9=0x00000001
       76865000	      7685	80003044	037bc663	blt	x23,x23,80003070	 x23:0x00000008 x23:0x00000008
       76875000	      7686	80003048	01fc5663	bge	x24,x31,80003054	 x24:0x80001538 x31:0x80009fc4
       76885000	      7687	8000304c	0044da93	srli	x21,x9,0x4	  x9:0x00000001 x21=0x00000000
       76895000	      7688	80003050	41f08c33	sub	x24,x1,x31	  x1:0x00000001 x31:0x80009fc4 x24=0x7fff603d
       76905000	      7689	80003054	01d21093	slli	x1,x4,0x1d	  x4:0x80002f6c  x1=0x80000000
       76915000	      7690	80003058	5829ab93	slti	x23,x19,1410	 x19:0x00004468 x23=0x00000000
       76925000	      7691	8000305c	2d1a2913	slti	x18,x20,721	 x20:0x310fa510 x18=0x00000000
       76935000	      7692	80003060	04af0463	beq	x30,x10,800030a8	 x30:0xc9a5c000 x10:0x80002f28
       76945000	      7693	80003064	7b6b8813	addi	x16,x23,1974	 x23:0x00000000 x16=0x000007b6
       76955000	      7694	80003068	2d141fb7	lui	x31,0x2d141	 x31=0x2d141000
       76965000	      7695	8000306c	003c1a13	slli	x20,x24,0x3	 x24:0x7fff603d x20=0xfffb01e8
       76975000	      7696	80003070	45633513	sltiu	x10,x6,1110	  x6:0x80002f20 x10=0x00000000
       76985000	      7697	80003074	412c80b3	sub	x1,x25,x18	 x25:0x00000000 x18:0x00000000  x1=0x00000000
       76995000	      7698	80003078	03c85263	bge	x16,x28,8000309c	 x16:0x000007b6 x28:0xcca1bf04
       77005000	      7699	00000000	00000013	addi	x0,x0,0	  x0:0x00000000
       77015000	      7700	80003098	00000013	addi	x0,x0,0	  x0:0x00000000
       77025000	      7701	8000309c	03424a63	blt	x4,x20,800030d0	  x4:0x80002f6c x20:0xfffb01e8
       77035000	      7702	00000000	00000013	addi	x0,x0,0	  x0:0x00000000
       77045000	      7703	800030cc	00000013	addi	x0,x0,0	  x0:0x00000000
       77055000	      7704	800030d0	41afdb93	srai	x23,x31,0x1a	 x31:0x2d141000 x23=0x0000000b
       77065000	      7705	800030d4	0031d333	srl	x6,x3,x3	  x3:0x80002f30  x3:0x80002f30  x6=0x00008000
       77075000	      7706	800030d8	dd4ae493	ori	x9,x21,-556	 x21:0x00000000  x9=0xfffffdd4
       77085000	      7707	800030dc	028c0863	beq	x24,x8,8000310c	 x24:0x7fff603d  x8:0x59fd9000
       77095000	      7708	800030e0	4039d913	srai	x18,x19,0x3	 x19:0x00004468 x18=0x0000088d
       77105000	      7709	800030e4	7f148e13	addi	x28,x9,2033	  x9:0xfffffdd4 x28=0x000005c5
       77115000	      7710	800030e8	40205f33	sra	x30,x0,x2	  x0:0x00000000  x2:0x80009fc4 x30=0x00000000
       77125000	      7711	800030ec	4bde7c13	andi	x24,x28,1213	 x28:0x000005c5 x24=0x00000485
       77135000	      7712	800030f0	412f5033	sra	x0,x30,x18	 x30:0x00000000 x18:0x0000088d
       77145000	      7713	800030f4	02baca63	blt	x21,x11,80003128	 x21:0x00000000 x11:0x00000000
       77155000	      7714	800030f8	48f370b7	lui	x1,0x48f37	  x1=0x48f37000
       77165000	      7715	800030fc	01a71b93	slli	x23,x14,0x1a	 x14:0x00000001 x23=0x04000000
       77175000	      7716	80003100	02d75063	bge	x14,x13,80003120	 x14:0x00000001 x13:0x00000000
       77185000	      7717	00000000	00000013	addi	x0,x0,0	  x0:0x00000000
       77195000	      7718	8000311c	00000013	addi	x0,x0,0	  x0:0x00000000
       77205000	      7719	80003120	010e0333	add	x6,x28,x16	 x28:0x000005c5 x16:0x000007b6  x6=0x00000d7b
       77215000	      7720	80003124	33994413	xori	x8,x18,825	 x18:0x0000088d  x8=0x00000bb4
       77225000	      7721	80003128	002b9f33	sll	x30,x23,x2	 x23:0x04000000  x2:0x80009fc4 x30=0x40000000
       77235000	      7722	8000312c	004d2303	lw	x6,4(x26)	 x26:0x80009f04  x6=0x80000ad4 PA:0x80009f08
       77245000	      7723	00000000	00000013	addi	x0,x0,0	  x0:0x00000000
       77255000	      7724	80003130	00641033	sll	x0,x8,x6	  x8:0x00000bb4  x6:0x80000ad4
       77265000	      7725	80003134	404ed0b3	sra	x1,x29,x4	 x29:0xf22f49ae  x4:0x80002f6c  x1=0xffff22f4
       77275000	      7726	80003138	00141013	slli	x0,x8,0x1	  x8:0x00000bb4
       77285000	      7727	8000313c	b7acdf97	auipc	x31,0xb7acd	 x31=0x37ad0138
       77295000	      7728	80003140	00206ab3	or	x21,x0,x2	  x0:0x00000000  x2:0x80009fc4 x21=0x80009fc4
       77305000	      7729	80003144	014d0d13	addi	x26,x26,20	 x26:0x80009f04 x26=0x80009f18
       77315000	      7730	80003148	00121d93	slli	x27,x4,0x1	  x4:0x80002f6c x27=0x00005ed8
       77325000	      7731	8000314c	00130413	addi	x8,x6,1	  x6:0x80000ad4  x8=0x80000ad5
       77335000	      7732	80003150	00040467	jalr	x8,x8,0	  x8:0x80000ad5  x8=0x80003150
       77345000	      7733	00000000	00000013	addi	x0,x0,0	  x0:0x00000000
       77355000	      7734	80000ad4	00000013	addi	x0,x0,0	  x0:0x00000000
       77365000	      7735	80000ad8	0380036f	jal	x6,80000ad8	  x6=0x80000ad8
       77375000	      7736	00000000	00000013	addi	x0,x0,0	  x0:0x00000000
       77385000	      7737	80000b0c	00000013	addi	x0,x0,0	  x0:0x00000000
       77395000	      7738	80000b10	014000ef	jal	x1,80000b10	  x1=0x80000b10
       77405000	      7739	00000000	00000013	addi	x0,x0,0	  x0:0x00000000
       77415000	      7740	80000b20	00000013	addi	x0,x0,0	  x0:0x00000000
       77425000	      7741	80000b24	0100036f	jal	x6,80000b24	  x6=0x80000b24
       77435000	      7742	00000000	00000013	addi	x0,x0,0	  x0:0x00000000
       77445000	      7743	80000b30	00000013	addi	x0,x0,0	  x0:0x00000000
       77455000	      7744	80000b34	0040036f	jal	x6,80000b34	  x6=0x80000b34
       77465000	      7745	00000000	00000013	addi	x0,x0,0	  x0:0x00000000
       77475000	      7746	80000b34	00000013	addi	x0,x0,0	  x0:0x00000000
       77485000	      7747	80000b38	fc9ff26f	jal	x4,80000b38	  x4=0x80000b38
       77495000	      7748	00000000	00000013	addi	x0,x0,0	  x0:0x00000000
       77505000	      7749	80000afc	00000013	addi	x0,x0,0	  x0:0x00000000
       77515000	      7750	80000b00	ff9ff36f	jal	x6,80000b00	  x6=0x80000b00
       77525000	      7751	00000000	00000013	addi	x0,x0,0	  x0:0x00000000
       77535000	      7752	80000af4	00000013	addi	x0,x0,0	  x0:0x00000000
       77545000	      7753	80000af8	010000ef	jal	x1,80000af8	  x1=0x80000af8
       77555000	      7754	00000000	00000013	addi	x0,x0,0	  x0:0x00000000
       77565000	      7755	80000b04	00000013	addi	x0,x0,0	  x0:0x00000000
       77575000	      7756	80000b08	fe9ffb6f	jal	x22,80000b08	 x22=0x80000b08
       77585000	      7757	00000000	00000013	addi	x0,x0,0	  x0:0x00000000
       77595000	      7758	80000aec	00000013	addi	x0,x0,0	  x0:0x00000000
       77605000	      7759	80000af0	0240036f	jal	x6,80000af0	  x6=0x80000af0
       77615000	      7760	00000000	00000013	addi	x0,x0,0	  x0:0x00000000
       77625000	      7761	80000b10	00000013	addi	x0,x0,0	  x0:0x00000000
       77635000	      7762	80000b14	018000ef	jal	x1,80000b14	  x1=0x80000b14
       77645000	      7763	00000000	00000013	addi	x0,x0,0	  x0:0x00000000
       77655000	      7764	80000b28	00000013	addi	x0,x0,0	  x0:0x00000000
       77665000	      7765	80000b2c	ff5ff0ef	jal	x1,80000b2c	  x1=0x80000b2c
       77675000	      7766	00000000	00000013	addi	x0,x0,0	  x0:0x00000000
       77685000	      7767	80000b1c	00000013	addi	x0,x0,0	  x0:0x00000000
       77695000	      7768	80000b20	fedff8ef	jal	x17,80000b20	 x17=0x80000b20
       77705000	      7769	00000000	00000013	addi	x0,x0,0	  x0:0x00000000
       77715000	      7770	80000b08	00000013	addi	x0,x0,0	  x0:0x00000000
       77725000	      7771	80000b0c	ff9ff2ef	jal	x5,80000b0c	  x5=0x80000b0c
       77735000	      7772	00000000	00000013	addi	x0,x0,0	  x0:0x00000000
       77745000	      7773	80000b00	00000013	addi	x0,x0,0	  x0:0x00000000
       77755000	      7774	80000b04	fddff0ef	jal	x1,80000b04	  x1=0x80000b04
       77765000	      7775	00000000	00000013	addi	x0,x0,0	  x0:0x00000000
       77775000	      7776	80000adc	00000013	addi	x0,x0,0	  x0:0x00000000
       77785000	      7777	80000ae0	008000ef	jal	x1,80000ae0	  x1=0x80000ae0
       77795000	      7778	00000000	00000013	addi	x0,x0,0	  x0:0x00000000
       77805000	      7779	80000ae4	00000013	addi	x0,x0,0	  x0:0x00000000
       77815000	      7780	80000ae8	004000ef	jal	x1,80000ae8	  x1=0x80000ae8
       77825000	      7781	00000000	00000013	addi	x0,x0,0	  x0:0x00000000
       77835000	      7782	80000ae8	00000013	addi	x0,x0,0	  x0:0x00000000
       77845000	      7783	80000aec	03c0076f	jal	x14,80000aec	 x14=0x80000aec
       77855000	      7784	00000000	00000013	addi	x0,x0,0	  x0:0x00000000
       77865000	      7785	80000b24	00000013	addi	x0,x0,0	  x0:0x00000000
       77875000	      7786	80000b28	ff1ff0ef	jal	x1,80000b28	  x1=0x80000b28
       77885000	      7787	00000000	00000013	addi	x0,x0,0	  x0:0x00000000
       77895000	      7788	80000b14	00000013	addi	x0,x0,0	  x0:0x00000000
       77905000	      7789	80000b18	0180026f	jal	x4,80000b18	  x4=0x80000b18
       77915000	      7790	00000000	00000013	addi	x0,x0,0	  x0:0x00000000
       77925000	      7791	80000b2c	00000013	addi	x0,x0,0	  x0:0x00000000
       77935000	      7792	80000b30	fcdff36f	jal	x6,80000b30	  x6=0x80000b30
       77945000	      7793	00000000	00000013	addi	x0,x0,0	  x0:0x00000000
       77955000	      7794	80000af8	00000013	addi	x0,x0,0	  x0:0x00000000
       77965000	      7795	80000afc	fe1ff0ef	jal	x1,80000afc	  x1=0x80000afc
       77975000	      7796	00000000	00000013	addi	x0,x0,0	  x0:0x00000000
       77985000	      7797	80000ad8	00000013	addi	x0,x0,0	  x0:0x00000000
       77995000	      7798	80000adc	018000ef	jal	x1,80000adc	  x1=0x80000adc
       78005000	      7799	00000000	00000013	addi	x0,x0,0	  x0:0x00000000
       78015000	      7800	80000af0	00000013	addi	x0,x0,0	  x0:0x00000000
       78025000	      7801	80000af4	ff1ff0ef	jal	x1,80000af4	  x1=0x80000af4
       78035000	      7802	00000000	00000013	addi	x0,x0,0	  x0:0x00000000
       78045000	      7803	80000ae0	00000013	addi	x0,x0,0	  x0:0x00000000
       78055000	      7804	80000ae4	038000ef	jal	x1,80000ae4	  x1=0x80000ae4
       78065000	      7805	00000000	00000013	addi	x0,x0,0	  x0:0x00000000
       78075000	      7806	80000b18	00000013	addi	x0,x0,0	  x0:0x00000000
       78085000	      7807	80000b1c	020000ef	jal	x1,80000b1c	  x1=0x80000b1c
       78095000	      7808	00000000	00000013	addi	x0,x0,0	  x0:0x00000000
       78105000	      7809	80000b38	00000013	addi	x0,x0,0	  x0:0x00000000
       78115000	      7810	80000b3c	5c2e6f13	ori	x30,x28,1474	 x28:0x000005c5 x30=0x000005c7
       78125000	      7811	80000b40	0500036f	jal	x6,80000b40	  x6=0x80000b40
       78135000	      7812	00000000	00000013	addi	x0,x0,0	  x0:0x00000000
       78145000	      7813	80000b8c	00000013	addi	x0,x0,0	  x0:0x00000000
       78155000	      7814	80000b90	fedff36f	jal	x6,80000b90	  x6=0x80000b90
       78165000	      7815	00000000	00000013	addi	x0,x0,0	  x0:0x00000000
       78175000	      7816	80000b78	00000013	addi	x0,x0,0	  x0:0x00000000
       78185000	      7817	80000b7c	fcdff0ef	jal	x1,80000b7c	  x1=0x80000b7c
       78195000	      7818	00000000	00000013	addi	x0,x0,0	  x0:0x00000000
       78205000	      7819	80000b44	00000013	addi	x0,x0,0	  x0:0x00000000
       78215000	      7820	80000b48	028000ef	jal	x1,80000b48	  x1=0x80000b48
       78225000	      7821	00000000	00000013	addi	x0,x0,0	  x0:0x00000000
       78235000	      7822	80000b6c	00000013	addi	x0,x0,0	  x0:0x00000000
       78245000	      7823	80000b70	004000ef	jal	x1,80000b70	  x1=0x80000b70
       78255000	      7824	00000000	00000013	addi	x0,x0,0	  x0:0x00000000
       78265000	      7825	80000b70	00000013	addi	x0,x0,0	  x0:0x00000000
       78275000	      7826	80000b74	018000ef	jal	x1,80000b74	  x1=0x80000b74
       78285000	      7827	00000000	00000013	addi	x0,x0,0	  x0:0x00000000
       78295000	      7828	80000b88	00000013	addi	x0,x0,0	  x0:0x00000000
       78305000	      7829	80000b8c	fddff0ef	jal	x1,80000b8c	  x1=0x80000b8c
       78315000	      7830	00000000	00000013	addi	x0,x0,0	  x0:0x00000000
       78325000	      7831	80000b64	00000013	addi	x0,x0,0	  x0:0x00000000
       78335000	      7832	80000b68	034000ef	jal	x1,80000b68	  x1=0x80000b68
       78345000	      7833	00000000	00000013	addi	x0,x0,0	  x0:0x00000000
       78355000	      7834	80000b98	00000013	addi	x0,x0,0	  x0:0x00000000
       78365000	      7835	80000b9c	fc9ff36f	jal	x6,80000b9c	  x6=0x80000b9c
       78375000	      7836	00000000	00000013	addi	x0,x0,0	  x0:0x00000000
       78385000	      7837	80000b60	00000013	addi	x0,x0,0	  x0:0x00000000
       78395000	      7838	80000b64	024000ef	jal	x1,80000b64	  x1=0x80000b64
       78405000	      7839	00000000	00000013	addi	x0,x0,0	  x0:0x00000000
       78415000	      7840	80000b84	00000013	addi	x0,x0,0	  x0:0x00000000
       78425000	      7841	80000b88	028000ef	jal	x1,80000b88	  x1=0x80000b88
       78435000	      7842	00000000	00000013	addi	x0,x0,0	  x0:0x00000000
       78445000	      7843	80000bac	00000013	addi	x0,x0,0	  x0:0x00000000
       78455000	      7844	80000bb0	ff9ffb6f	jal	x22,80000bb0	 x22=0x80000bb0
       78465000	      7845	00000000	00000013	addi	x0,x0,0	  x0:0x00000000
       78475000	      7846	80000ba4	00000013	addi	x0,x0,0	  x0:0x00000000
       78485000	      7847	80000ba8	0100036f	jal	x6,80000ba8	  x6=0x80000ba8
       78495000	      7848	00000000	00000013	addi	x0,x0,0	  x0:0x00000000
       78505000	      7849	80000bb4	00000013	addi	x0,x0,0	  x0:0x00000000
       78515000	      7850	80000bb8	fcdff0ef	jal	x1,80000bb8	  x1=0x80000bb8
       78525000	      7851	00000000	00000013	addi	x0,x0,0	  x0:0x00000000
       78535000	      7852	80000b80	00000013	addi	x0,x0,0	  x0:0x00000000
       78545000	      7853	80000b84	fd1ff0ef	jal	x1,80000b84	  x1=0x80000b84
       78555000	      7854	00000000	00000013	addi	x0,x0,0	  x0:0x00000000
       78565000	      7855	80000b50	00000013	addi	x0,x0,0	  x0:0x00000000
       78575000	      7856	80000b54	00c000ef	jal	x1,80000b54	  x1=0x80000b54
       78585000	      7857	00000000	00000013	addi	x0,x0,0	  x0:0x00000000
       78595000	      7858	80000b5c	00000013	addi	x0,x0,0	  x0:0x00000000
       78605000	      7859	80000b60	ff1ff36f	jal	x6,80000b60	  x6=0x80000b60
       78615000	      7860	00000000	00000013	addi	x0,x0,0	  x0:0x00000000
       78625000	      7861	80000b4c	00000013	addi	x0,x0,0	  x0:0x00000000
       78635000	      7862	80000b50	0640056f	jal	x10,80000b50	 x10=0x80000b50
       78645000	      7863	00000000	00000013	addi	x0,x0,0	  x0:0x00000000
       78655000	      7864	80000bb0	00000013	addi	x0,x0,0	  x0:0x00000000
       78665000	      7865	80000bb4	fe5ff36f	jal	x6,80000bb4	  x6=0x80000bb4
       78675000	      7866	00000000	00000013	addi	x0,x0,0	  x0:0x00000000
       78685000	      7867	80000b94	00000013	addi	x0,x0,0	  x0:0x00000000
       78695000	      7868	80000b98	fd5ff0ef	jal	x1,80000b98	  x1=0x80000b98
       78705000	      7869	00000000	00000013	addi	x0,x0,0	  x0:0x00000000
       78715000	      7870	80000b68	00000013	addi	x0,x0,0	  x0:0x00000000
       78725000	      7871	80000b6c	fedff0ef	jal	x1,80000b6c	  x1=0x80000b6c
       78735000	      7872	00000000	00000013	addi	x0,x0,0	  x0:0x00000000
       78745000	      7873	80000b54	00000013	addi	x0,x0,0	  x0:0x00000000
       78755000	      7874	80000b58	028005ef	jal	x11,80000b58	 x11=0x80000b58
       78765000	      7875	00000000	00000013	addi	x0,x0,0	  x0:0x00000000
       78775000	      7876	80000b7c	00000013	addi	x0,x0,0	  x0:0x00000000
       78785000	      7877	80000b80	0240096f	jal	x18,80000b80	 x18=0x80000b80
       78795000	      7878	00000000	00000013	addi	x0,x0,0	  x0:0x00000000
       78805000	      7879	80000ba0	00000013	addi	x0,x0,0	  x0:0x00000000
       78815000	      7880	80000ba4	fd5ff0ef	jal	x1,80000ba4	  x1=0x80000ba4
       78825000	      7881	00000000	00000013	addi	x0,x0,0	  x0:0x00000000
       78835000	      7882	80000b74	00000013	addi	x0,x0,0	  x0:0x00000000
       78845000	      7883	80000b78	01c0036f	jal	x6,80000b78	  x6=0x80000b78
       78855000	      7884	00000000	00000013	addi	x0,x0,0	  x0:0x00000000
       78865000	      7885	80000b90	00000013	addi	x0,x0,0	  x0:0x00000000
       78875000	      7886	80000b94	00c000ef	jal	x1,80000b94	  x1=0x80000b94
       78885000	      7887	00000000	00000013	addi	x0,x0,0	  x0:0x00000000
       78895000	      7888	80000b9c	00000013	addi	x0,x0,0	  x0:0x00000000
       78905000	      7889	80000ba0	fbdff36f	jal	x6,80000ba0	  x6=0x80000ba0
       78915000	      7890	00000000	00000013	addi	x0,x0,0	  x0:0x00000000
       78925000	      7891	80000b58	00000013	addi	x0,x0,0	  x0:0x00000000
       78935000	      7892	80000b5c	fe9ff0ef	jal	x1,80000b5c	  x1=0x80000b5c
       78945000	      7893	00000000	00000013	addi	x0,x0,0	  x0:0x00000000
       78955000	      7894	80000b40	00000013	addi	x0,x0,0	  x0:0x00000000
       78965000	      7895	80000b44	008000ef	jal	x1,80000b44	  x1=0x80000b44
       78975000	      7896	00000000	00000013	addi	x0,x0,0	  x0:0x00000000
       78985000	      7897	80000b48	00000013	addi	x0,x0,0	  x0:0x00000000
       78995000	      7898	80000b4c	0600026f	jal	x4,80000b4c	  x4=0x80000b4c
       79005000	      7899	00000000	00000013	addi	x0,x0,0	  x0:0x00000000
       79015000	      7900	80000ba8	00000013	addi	x0,x0,0	  x0:0x00000000
       79025000	      7901	80000bac	010000ef	jal	x1,80000bac	  x1=0x80000bac
       79035000	      7902	00000000	00000013	addi	x0,x0,0	  x0:0x00000000
       79045000	      7903	80000bb8	00000013	addi	x0,x0,0	  x0:0x00000000
       79055000	      7904	80000bbc	01a94233	xor	x4,x18,x26	 x18:0x80000b80 x26:0x80009f18  x4=0x00009498
       79065000	      7905	80000bc0	00736263	bltu	x6,x7,80000bc4	  x6:0x80000ba0  x7:0x00000001
       79075000	      7906	80000bc4	0100da13	srli	x20,x1,0x10	  x1:0x80000bac x20=0x00008000
       79085000	      7907	80000bc8	01cbebb3	or	x23,x23,x28	 x23:0x04000000 x28:0x000005c5 x23=0x040005c5
       79095000	      7908	80000bcc	04f98063	beq	x19,x15,80000c0c	 x19:0x00004468 x15:0x08000000
       79105000	      7909	80000bd0	04fd4063	blt	x26,x15,80000c10	 x26:0x80009f18 x15:0x08000000
       79115000	      7910	00000000	00000013	addi	x0,x0,0	  x0:0x00000000
       79125000	      7911	80000c0c	00000013	addi	x0,x0,0	  x0:0x00000000
       79135000	      7912	80000c10	05070863	beq	x14,x16,80000c60	 x14:0x80000aec x16:0x000007b6
       79145000	      7913	80000c14	01cf70b3	and	x1,x30,x28	 x30:0x000005c7 x28:0x000005c5  x1=0x000005c5
       79155000	      7914	80000c18	00d18463	beq	x3,x13,80000c20	  x3:0x80002f30 x13:0x00000000
       79165000	      7915	80000c1c	03591e63	bne	x18,x21,80000c58	 x18:0x80000b80 x21:0x80009fc4
       79175000	      7916	00000000	00000013	addi	x0,x0,0	  x0:0x00000000
       79185000	      7917	80000c54	00000013	addi	x0,x0,0	  x0:0x00000000
       79195000	      7918	80000c58	04df9463	bne	x31,x13,80000ca0	 x31:0x37ad0138 x13:0x00000000
       79205000	      7919	00000000	00000013	addi	x0,x0,0	  x0:0x00000000
       79215000	      7920	80000c9c	00000013	addi	x0,x0,0	  x0:0x00000000
       79225000	      7921	80000ca0	3deaa093	slti	x1,x21,990	 x21:0x80009fc4  x1=0x00000001
       79235000	      7922	80000ca4	05a0e663	bltu	x1,x26,80000cf0	  x1:0x00000001 x26:0x80009f18
       79245000	      7923	00000000	00000013	addi	x0,x0,0	  x0:0x00000000
       79255000	      7924	80000cec	00000013	addi	x0,x0,0	  x0:0x00000000
       79265000	      7925	80000cf0	00724c33	xor	x24,x4,x7	  x4:0x00009498  x7:0x00000001 x24=0x00009499
       79275000	      7926	80000cf4	00680db3	add	x27,x16,x6	 x16:0x000007b6  x6:0x80000ba0 x27=0x80001356
       79285000	      7927	80000cf8	02a41e63	bne	x8,x10,80000d34	  x8:0x80003150 x10:0x80000b50
       79295000	      7928	00000000	00000013	addi	x0,x0,0	  x0:0x00000000
       79305000	      7929	80000d30	00000013	addi	x0,x0,0	  x0:0x00000000
       79315000	      7930	80000d34	b5fcc413	xori	x8,x25,-1185	 x25:0x00000000  x8=0xfffffb5f
       79325000	      7931	80000d38	000a22b3	slt	x5,x20,x0	 x20:0x00008000  x0:0x00000000  x5=0x00000000
       79335000	      7932	80000d3c	00d34db3	xor	x27,x6,x13	  x6:0x80000ba0 x13:0x00000000 x27=0x80000ba0
       79345000	      7933	80000d40	01884863	blt	x16,x24,80000d50	 x16:0x000007b6 x24:0x00009499
       79355000	      7934	00000000	00000013	addi	x0,x0,0	  x0:0x00000000
       79365000	      7935	80000d4c	00000013	addi	x0,x0,0	  x0:0x00000000
       79375000	      7936	80000d50	202a2313	slti	x6,x20,514	 x20:0x00008000  x6=0x00000000
       79385000	      7937	80000d54	9372c613	xori	x12,x5,-1737	  x5:0x00000000 x12=0xfffff937
       79395000	      7938	80000d58	004d2303	lw	x6,4(x26)	 x26:0x80009f18  x6=0x80001810 PA:0x80009f1c
       79405000	      7939	80000d5c	009e23b3	slt	x7,x28,x9	 x28:0x000005c5  x9:0xfffffdd4  x7=0x00000000
       79415000	      7940	80000d60	00000013	addi	x0,x0,0	  x0:0x00000000
       79425000	      7941	80000d64	000d76b3	and	x13,x26,x0	 x26:0x80009f18  x0:0x00000000 x13=0x00000000
       79435000	      7942	80000d68	00fa1993	slli	x19,x20,0xf	 x20:0x00008000 x19=0x40000000
       79445000	      7943	80000d6c	034d0d13	addi	x26,x26,52	 x26:0x80009f18 x26=0x80009f4c
       79455000	      7944	80000d70	f27bfb93	andi	x23,x23,-217	 x23:0x040005c5 x23=0x04000505
       79465000	      7945	80000d74	414c50b3	sra	x1,x24,x20	 x24:0x00009499 x20:0x00008000  x1=0x00009499
       79475000	      7946	80000d78	2aa3b693	sltiu	x13,x7,682	  x7:0x00000000 x13=0x00000001
       79485000	      7947	80000d7c	1e576713	ori	x14,x14,485	 x14:0x80000aec x14=0x80000bed
       79495000	      7948	80000d80	00030213	addi	x4,x6,0	  x6:0x80001810  x4=0x80001810
       79505000	      7949	80000d84	00020267	jalr	x4,x4,0	  x4:0x80001810  x4=0x80000d84
       79515000	      7950	00000000	00000013	addi	x0,x0,0	  x0:0x00000000
       79525000	      7951	80001810	00000013	addi	x0,x0,0	  x0:0x00000000
       79535000	      7952	80001814	4106db93	srai	x23,x13,0x10	 x13:0x00000001 x23=0x00000000
       79545000	      7953	80001818	011bb433	sltu	x8,x23,x17	 x23:0x00000000 x17:0x80000b20  x8=0x00000001
       79555000	      7954	8000181c	000f5013	srli	x0,x30,0x0	 x30:0x000005c7
       79565000	      7955	80001820	00910cb3	add	x25,x2,x9	  x2:0x80009fc4  x9:0xfffffdd4 x25=0x80009d98
       79575000	      7956	80001824	04859663	bne	x11,x8,80001870	 x11:0x80000b58  x8:0x00000001
       79585000	      7957	00000000	00000013	addi	x0,x0,0	  x0:0x00000000
       79595000	      7958	8000186c	00000013	addi	x0,x0,0	  x0:0x00000000
       79605000	      7959	80001870	41765813	srai	x16,x12,0x17	 x12:0xfffff937 x16=0xffffffff
       79615000	      7960	80001874	01c824b3	slt	x9,x16,x28	 x16:0xffffffff x28:0x000005c5  x9=0x00000001
       79625000	      7961	80001878	0040036f	jal	x6,80001878	  x6=0x80001878
       79635000	      7962	00000000	00000013	addi	x0,x0,0	  x0:0x00000000
       79645000	      7963	80001878	00000013	addi	x0,x0,0	  x0:0x00000000
       79655000	      7964	8000187c	010000ef	jal	x1,8000187c	  x1=0x8000187c
       79665000	      7965	00000000	00000013	addi	x0,x0,0	  x0:0x00000000
       79675000	      7966	80001888	00000013	addi	x0,x0,0	  x0:0x00000000
       79685000	      7967	8000188c	03c0036f	jal	x6,8000188c	  x6=0x8000188c
       79695000	      7968	00000000	00000013	addi	x0,x0,0	  x0:0x00000000
       79705000	      7969	800018c4	00000013	addi	x0,x0,0	  x0:0x00000000
       79715000	      7970	800018c8	fe1ff0ef	jal	x1,800018c8	  x1=0x800018c8
       79725000	      7971	00000000	00000013	addi	x0,x0,0	  x0:0x00000000
       79735000	      7972	800018a4	00000013	addi	x0,x0,0	  x0:0x00000000
       79745000	      7973	800018a8	0080026f	jal	x4,800018a8	  x4=0x800018a8
       79755000	      7974	00000000	00000013	addi	x0,x0,0	  x0:0x00000000
       79765000	      7975	800018ac	00000013	addi	x0,x0,0	  x0:0x00000000
       79775000	      7976	800018b0	00c000ef	jal	x1,800018b0	  x1=0x800018b0
       79785000	      7977	00000000	00000013	addi	x0,x0,0	  x0:0x00000000
       79795000	      7978	800018b8	00000013	addi	x0,x0,0	  x0:0x00000000
       79805000	      7979	800018bc	fddfffef	jal	x31,800018bc	 x31=0x800018bc
       79815000	      7980	00000000	00000013	addi	x0,x0,0	  x0:0x00000000
       79825000	      7981	80001894	00000013	addi	x0,x0,0	  x0:0x00000000
       79835000	      7982	80001898	040000ef	jal	x1,80001898	  x1=0x80001898
       79845000	      7983	00000000	00000013	addi	x0,x0,0	  x0:0x00000000
       79855000	      7984	800018d4	00000013	addi	x0,x0,0	  x0:0x00000000
       79865000	      7985	800018d8	ff5ff6ef	jal	x13,800018d8	 x13=0x800018d8
       79875000	      7986	00000000	00000013	addi	x0,x0,0	  x0:0x00000000
       79885000	      7987	800018c8	00000013	addi	x0,x0,0	  x0:0x00000000
       79895000	      7988	800018cc	00400b6f	jal	x22,800018cc	 x22=0x800018cc
       79905000	      7989	00000000	00000013	addi	x0,x0,0	  x0:0x00000000
       79915000	      7990	800018cc	00000013	addi	x0,x0,0	  x0:0x00000000
       79925000	      7991	800018d0	ff5ff0ef	jal	x1,800018d0	  x1=0x800018d0
       79935000	      7992	00000000	00000013	addi	x0,x0,0	  x0:0x00000000
       79945000	      7993	800018c0	00000013	addi	x0,x0,0	  x0:0x00000000
       79955000	      7994	800018c4	ffdff76f	jal	x14,800018c4	 x14=0x800018c4
       79965000	      7995	00000000	00000013	addi	x0,x0,0	  x0:0x00000000
       79975000	      7996	800018bc	00000013	addi	x0,x0,0	  x0:0x00000000
       79985000	      7997	800018c0	fe5ff0ef	jal	x1,800018c0	  x1=0x800018c0
       79995000	      7998	00000000	00000013	addi	x0,x0,0	  x0:0x00000000
       80005000	      7999	800018a0	00000013	addi	x0,x0,0	  x0:0x00000000
       80015000	      8000	800018a4	ff1ff36f	jal	x6,800018a4	  x6=0x800018a4
       80025000	      8001	00000000	00000013	addi	x0,x0,0	  x0:0x00000000
       80035000	      8002	80001890	00000013	addi	x0,x0,0	  x0:0x00000000
       80045000	      8003	80001894	ffdff0ef	jal	x1,80001894	  x1=0x80001894
       80055000	      8004	00000000	00000013	addi	x0,x0,0	  x0:0x00000000
       80065000	      8005	8000188c	00000013	addi	x0,x0,0	  x0:0x00000000
       80075000	      8006	80001890	028002ef	jal	x5,80001890	  x5=0x80001890
       80085000	      8007	00000000	00000013	addi	x0,x0,0	  x0:0x00000000
       80095000	      8008	800018b4	00000013	addi	x0,x0,0	  x0:0x00000000
       80105000	      8009	800018b8	fe5ff0ef	jal	x1,800018b8	  x1=0x800018b8
       80115000	      8010	00000000	00000013	addi	x0,x0,0	  x0:0x00000000
       80125000	      8011	80001898	00000013	addi	x0,x0,0	  x0:0x00000000
       80135000	      8012	8000189c	fe5ff0ef	jal	x1,8000189c	  x1=0x8000189c
       80145000	      8013	00000000	00000013	addi	x0,x0,0	  x0:0x00000000
       80155000	      8014	8000187c	00000013	addi	x0,x0,0	  x0:0x00000000
       80165000	      8015	80001880	008004ef	jal	x9,80001880	  x9=0x80001880
       80175000	      8016	00000000	00000013	addi	x0,x0,0	  x0:0x00000000
       80185000	      8017	80001884	00000013	addi	x0,x0,0	  x0:0x00000000
       80195000	      8018	80001888	018000ef	jal	x1,80001888	  x1=0x80001888
       80205000	      8019	00000000	00000013	addi	x0,x0,0	  x0:0x00000000
       80215000	      8020	8000189c	00000013	addi	x0,x0,0	  x0:0x00000000
       80225000	      8021	800018a0	0140036f	jal	x6,800018a0	  x6=0x800018a0
       80235000	      8022	00000000	00000013	addi	x0,x0,0	  x0:0x00000000
       80245000	      8023	800018b0	00000013	addi	x0,x0,0	  x0:0x00000000
       80255000	      8024	800018b4	020000ef	jal	x1,800018b4	  x1=0x800018b4
       80265000	      8025	00000000	00000013	addi	x0,x0,0	  x0:0x00000000
       80275000	      8026	800018d0	00000013	addi	x0,x0,0	  x0:0x00000000
       80285000	      8027	800018d4	fb1ff0ef	jal	x1,800018d4	  x1=0x800018d4
       80295000	      8028	00000000	00000013	addi	x0,x0,0	  x0:0x00000000
       80305000	      8029	80001880	00000013	addi	x0,x0,0	  x0:0x00000000
       80315000	      8030	80001884	028001ef	jal	x3,80001884	  x3=0x80001884
       80325000	      8031	00000000	00000013	addi	x0,x0,0	  x0:0x00000000
       80335000	      8032	800018a8	00000013	addi	x0,x0,0	  x0:0x00000000
       80345000	      8033	800018ac	030000ef	jal	x1,800018ac	  x1=0x800018ac
       80355000	      8034	00000000	00000013	addi	x0,x0,0	  x0:0x00000000
       80365000	      8035	800018d8	00000013	addi	x0,x0,0	  x0:0x00000000
       80375000	      8036	800018dc	41d2da93	srai	x21,x5,0x1d	  x5:0x80001890 x21=0xfffffffc
       80385000	      8037	800018e0	017b4033	xor	x0,x22,x23	 x22:0x800018cc x23:0x00000000
       80395000	      8038	800018e4	03318863	beq	x3,x19,80001914	  x3:0x80001884 x19:0x40000000
       80405000	      8039	800018e8	414d5e13	srai	x28,x26,0x14	 x26:0x80009f4c x28=0xfffff800
       80415000	      8040	800018ec	53e12b93	slti	x23,x2,1342	  x2:0x80009fc4 x23=0x00000001
       80425000	      8041	800018f0	01f76533	or	x10,x14,x31	 x14:0x800018c4 x31:0x800018bc x10=0x800018fc
       80435000	      8042	800018f4	00c6bab3	sltu	x21,x13,x12	 x13:0x800018d8 x12:0xfffff937 x21=0x00000001
       80445000	      8043	800018f8	04c21863	bne	x4,x12,80001948	  x4:0x800018a8 x12:0xfffff937
       80455000	      8044	00000000	00000013	addi	x0,x0,0	  x0:0x00000000
       80465000	      8045	80001944	00000013	addi	x0,x0,0	  x0:0x00000000
       80475000	      8046	80001948	3ff3ef17	auipc	x30,0x3ff3e	 x30=0xbff3f944
       80485000	      8047	8000194c	0132e8b3	or	x17,x5,x19	  x5:0x80001890 x19:0x40000000 x17=0xc0001890
       80495000	      8048	80001950	04fa1463	bne	x20,x15,80001998	 x20:0x00008000 x15:0x08000000
       80505000	      8049	00000000	00000013	addi	x0,x0,0	  x0:0x00000000
       80515000	      8050	80001994	00000013	addi	x0,x0,0	  x0:0x00000000
       80525000	      8051	80001998	00ec72b3	and	x5,x24,x14	 x24:0x00009499 x14:0x800018c4  x5=0x00001080
       80535000	      8052	8000199c	023ee863	bltu	x29,x3,800019cc	 x29:0xf22f49ae  x3:0x80001884
       80545000	      8053	800019a0	ae55fa93	andi	x21,x11,-1307	 x11:0x80000b58 x21=0x80000a40
       80555000	      8054	800019a4	414d5813	srai	x16,x26,0x14	 x26:0x80009f4c x16=0xfffff800
       80565000	      8055	800019a8	00000013	addi	x0,x0,0	  x0:0x00000000
       80575000	      8056	800019ac	0c746393	ori	x7,x8,199	  x8:0x00000001  x7=0x000000c7
       80585000	      8057	800019b0	39b8bf13	sltiu	x30,x17,923	 x17:0xc0001890 x30=0x00000000
       80595000	      8058	800019b4	0be1e593	ori	x11,x3,190	  x3:0x80001884 x11=0x800018be
       80605000	      8059	800019b8	049e5263	bge	x28,x9,800019fc	 x28:0xfffff800  x9:0x80001880
       80615000	      8060	00000000	00000013	addi	x0,x0,0	  x0:0x00000000
       80625000	      8061	800019f8	00000013	addi	x0,x0,0	  x0:0x00000000
       80635000	      8062	800019fc	03f50663	beq	x10,x31,80001a28	 x10:0x800018fc x31:0x800018bc
       80645000	      8063	80001a00	41068b33	sub	x22,x13,x16	 x13:0x800018d8 x16:0xfffff800 x22=0x800020d8
       80655000	      8064	80001a04	02224063	blt	x4,x2,80001a24	  x4:0x800018a8  x2:0x80009fc4
       80665000	      8065	00000000	00000013	addi	x0,x0,0	  x0:0x00000000
       80675000	      8066	80001a20	00000013	addi	x0,x0,0	  x0:0x00000000
       80685000	      8067	80001a24	04fe9463	bne	x29,x15,80001a6c	 x29:0xf22f49ae x15:0x08000000
       80695000	      8068	00000000	00000013	addi	x0,x0,0	  x0:0x00000000
       80705000	      8069	80001a68	00000013	addi	x0,x0,0	  x0:0x00000000
       80715000	      8070	80001a6c	26ff02b7	lui	x5,0x26ff0	  x5=0x26ff0000
       80725000	      8071	80001a70	004683b3	add	x7,x13,x4	 x13:0x800018d8  x4:0x800018a8  x7=0x00003180
       80735000	      8072	80001a74	01b79cb3	sll	x25,x15,x27	 x15:0x08000000 x27:0x80000ba0 x25=0x08000000
       80745000	      8073	80001a78	01936db3	or	x27,x6,x25	  x6:0x800018a0 x25:0x08000000 x27=0x880018a0
       80755000	      8074	80001a7c	03c9f663	bgeu	x19,x28,80001aa8	 x19:0x40000000 x28:0xfffff800
       80765000	      8075	80001a80	4139d233	sra	x4,x19,x19	 x19:0x40000000 x19:0x40000000  x4=0x40000000
       80775000	      8076	80001a84	8ee32e13	slti	x28,x6,-1810	  x6:0x800018a0 x28=0x00000001
       80785000	      8077	80001a88	013e7533	and	x10,x28,x19	 x28:0x00000001 x19:0x40000000 x10=0x00000000
       80795000	      8078	80001a8c	009c5593	srli	x11,x24,0x9	 x24:0x00009499 x11=0x0000004a
       80805000	      8079	80001a90	02f20c63	beq	x4,x15,80001ac8	  x4:0x40000000 x15:0x08000000
       80815000	      8080	80001a94	40e56313	ori	x6,x10,1038	 x10:0x00000000  x6=0x0000040e
       80825000	      8081	80001a98	92c12513	slti	x10,x2,-1748	  x2:0x80009fc4 x10=0x00000001
       80835000	      8082	80001a9c	00622933	slt	x18,x4,x6	  x4:0x40000000  x6:0x0000040e x18=0x00000000
       80845000	      8083	80001aa0	44440993	addi	x19,x8,1092	  x8:0x00000001 x19=0x00000445
       80855000	      8084	80001aa4	f5b9c737	lui	x14,0xf5b9c	 x14=0xf5b9c000
       80865000	      8085	80001aa8	445af397	auipc	x7,0x445af	  x7=0xc45b0aa4
       80875000	      8086	80001aac	002dcc63	blt	x27,x2,80001ac4	 x27:0x880018a0  x2:0x80009fc4
       80885000	      8087	80001ab0	26543c93	sltiu	x25,x8,613	  x8:0x00000001 x25=0x00000001
       80895000	      8088	80001ab4	bf16fc93	andi	x25,x13,-1039	 x13:0x800018d8 x25=0x800018d0
       80905000	      8089	80001ab8	20e86e13	ori	x28,x16,526	 x16:0xfffff800 x28=0xfffffa0e
       80915000	      8090	80001abc	04af7263	bgeu	x30,x10,80001b00	 x30:0x00000000 x10:0x00000001
       80925000	      8091	80001ac0	020ac863	blt	x21,x0,80001af0	 x21:0x80000a40  x0:0x00000000
       80935000	      8092	00000000	00000013	addi	x0,x0,0	  x0:0x00000000
       80945000	      8093	80001aec	00000013	addi	x0,x0,0	  x0:0x00000000
       80955000	      8094	80001af0	40815513	srai	x10,x2,0x8	  x2:0x80009fc4 x10=0xff80009f
       80965000	      8095	80001af4	05936663	bltu	x6,x25,80001b40	  x6:0x0000040e x25:0x800018d0
       80975000	      8096	00000000	00000013	addi	x0,x0,0	  x0:0x00000000
       80985000	      8097	80001b3c	00000013	addi	x0,x0,0	  x0:0x00000000
       80995000	      8098	80001b40	01047263	bgeu	x8,x16,80001b44	  x8:0x00000001 x16:0xfffff800
       81005000	      8099	80001b44	40309017	auipc	x0,0x40309	
       81015000	      8100	80001b48	9cde7893	andi	x17,x28,-1587	 x28:0xfffffa0e x17=0xfffff80c
       81025000	      8101	80001b4c	40e05633	sra	x12,x0,x14	  x0:0x00000000 x14:0xf5b9c000 x12=0x00000000
       81035000	      8102	80001b50	0132d713	srli	x14,x5,0x13	  x5:0x26ff0000 x14=0x000004df
       81045000	      8103	80001b54	00000013	addi	x0,x0,0	  x0:0x00000000
       81055000	      8104	80001b58	05bf4263	blt	x30,x27,80001b9c	 x30:0x00000000 x27:0x880018a0
       81065000	      8105	80001b5c	0072f2b3	and	x5,x5,x7	  x5:0x26ff0000  x7:0xc45b0aa4  x5=0x045b0000
       81075000	      8106	80001b60	857b6817	auipc	x16,0x857b6	 x16=0x057b7b5c
       81085000	      8107	80001b64	05abc863	blt	x23,x26,80001bb4	 x23:0x00000001 x26:0x80009f4c
       81095000	      8108	80001b68	9039f093	andi	x1,x19,-1789	 x19:0x00000445  x1=0x00000001
       81105000	      8109	80001b6c	00855333	srl	x6,x10,x8	 x10:0xff80009f  x8:0x00000001  x6=0x7fc0004f
       81115000	      8110	80001b70	007a3333	sltu	x6,x20,x7	 x20:0x00008000  x7:0xc45b0aa4  x6=0x00000001
       81125000	      8111	80001b74	daf28793	addi	x15,x5,-593	  x5:0x045b0000 x15=0x045afdaf
       81135000	      8112	80001b78	016e1a33	sll	x20,x28,x22	 x28:0xfffffa0e x22:0x800020d8 x20=0x0e000000
       81145000	      8113	80001b7c	01f083b3	add	x7,x1,x31	  x1:0x00000001 x31:0x800018bc  x7=0x800018bd
       81155000	      8114	80001b80	02824863	blt	x4,x8,80001bb0	  x4:0x40000000  x8:0x00000001
       81165000	      8115	80001b84	41b60a33	sub	x20,x12,x27	 x12:0x00000000 x27:0x880018a0 x20=0x77ffe760
       81175000	      8116	80001b88	01452fb3	slt	x31,x10,x20	 x10:0xff80009f x20:0x77ffe760 x31=0x00000001
       81185000	      8117	80001b8c	00beb833	sltu	x16,x29,x11	 x29:0xf22f49ae x11:0x0000004a x16=0x00000000
       81195000	      8118	80001b90	0f682613	slti	x12,x16,246	 x16:0x00000000 x12=0x00000001
       81205000	      8119	80001b94	00000013	addi	x0,x0,0	  x0:0x00000000
       81215000	      8120	80001b98	c43d2893	slti	x17,x26,-957	 x26:0x80009f4c x17=0x00000001
       81225000	      8121	80001b9c	01b988b3	add	x17,x19,x27	 x19:0x00000445 x27:0x880018a0 x17=0x88001ce5
       81235000	      8122	80001ba0	00f80ab3	add	x21,x16,x15	 x16:0x00000000 x15:0x045afdaf x21=0x045afdaf
       81245000	      8123	80001ba4	003d02b3	add	x5,x26,x3	 x26:0x80009f4c  x3:0x80001884  x5=0x0000b7d0
       81255000	      8124	80001ba8	0130d233	srl	x4,x1,x19	  x1:0x00000001 x19:0x00000445  x4=0x00000000
       81265000	      8125	80001bac	05e9d263	bge	x19,x30,80001bf0	 x19:0x00000445 x30:0x00000000
       81275000	      8126	00000000	00000013	addi	x0,x0,0	  x0:0x00000000
       81285000	      8127	80001bec	00000013	addi	x0,x0,0	  x0:0x00000000
       81295000	      8128	80001bf0	40625313	srai	x6,x4,0x6	  x4:0x00000000  x6=0x00000000
       81305000	      8129	80001bf4	011bd413	srli	x8,x23,0x11	 x23:0x00000001  x8=0x00000000
       81315000	      8130	80001bf8	02891063	bne	x18,x8,80001c18	 x18:0x00000000  x8:0x00000000
       81325000	      8131	80001bfc	00c461b3	or	x3,x8,x12	  x8:0x00000000 x12:0x00000001  x3=0x00000001
       81335000	      8132	80001c00	019ca6b3	slt	x13,x25,x25	 x25:0x800018d0 x25:0x800018d0 x13=0x00000000
       81345000	      8133	80001c04	05617513	andi	x10,x2,86	  x2:0x80009fc4 x10=0x00000044
       81355000	      8134	80001c08	01d298b3	sll	x17,x5,x29	  x5:0x0000b7d0 x29:0xf22f49ae x17=0x2df40000
       81365000	      8135	80001c0c	009068b3	or	x17,x0,x9	  x0:0x00000000  x9:0x80001880 x17=0x80001880
       81375000	      8136	80001c10	0dc80a93	addi	x21,x16,220	 x16:0x00000000 x21=0x000000dc
       81385000	      8137	80001c14	01099613	slli	x12,x19,0x10	 x19:0x00000445 x12=0x04450000
       81395000	      8138	80001c18	05868463	beq	x13,x24,80001c60	 x13:0x00000000 x24:0x00009499
       81405000	      8139	80001c1c	03650663	beq	x10,x22,80001c48	 x10:0x00000044 x22:0x800020d8
       81415000	      8140	80001c20	bf098813	addi	x16,x19,-1040	 x19:0x00000445 x16=0x00000035
       81425000	      8141	80001c24	0093d313	srli	x6,x7,0x9	  x7:0x800018bd  x6=0x0040000c
       81435000	      8142	80001c28	c8a24593	xori	x11,x4,-886	  x4:0x00000000 x11=0xfffffc8a
       81445000	      8143	80001c2c	40d2dc93	srai	x25,x5,0xd	  x5:0x0000b7d0 x25=0x00000005
       81455000	      8144	80001c30	0088edb3	or	x27,x17,x8	 x17:0x80001880  x8:0x00000000 x27=0x80001880
       81465000	      8145	80001c34	014ebe33	sltu	x28,x29,x20	 x29:0xf22f49ae x20:0x77ffe760 x28=0x00000000
       81475000	      8146	80001c38	30012993	slti	x19,x2,768	  x2:0x80009fc4 x19=0x00000001
       81485000	      8147	80001c3c	d3ae2f97	auipc	x31,0xd3ae2	 x31=0x53ae3c38
       81495000	      8148	80001c40	00a7eb33	or	x22,x15,x10	 x15:0x045afdaf x10:0x00000044 x22=0x045afdef
       81505000	      8149	80001c44	0148cc63	blt	x17,x20,80001c5c	 x17:0x80001880 x20:0x77ffe760
       81515000	      8150	00000000	00000013	addi	x0,x0,0	  x0:0x00000000
       81525000	      8151	80001c58	00000013	addi	x0,x0,0	  x0:0x00000000
       81535000	      8152	80001c5c	0097b433	sltu	x8,x15,x9	 x15:0x045afdaf  x9:0x80001880  x8=0x00000001
       81545000	      8153	80001c60	41ead213	srai	x4,x21,0x1e	 x21:0x000000dc  x4=0x00000000
       81555000	      8154	80001c64	a41c7613	andi	x12,x24,-1471	 x24:0x00009499 x12=0x00009001
       81565000	      8155	80001c68	07c66063	bltu	x12,x28,80001cc8	 x12:0x00009001 x28:0x00000000
       81575000	      8156	80001c6c	008f3bb3	sltu	x23,x30,x8	 x30:0x00000000  x8:0x00000001 x23=0x00000001
       81585000	      8157	80001c70	013744b3	xor	x9,x14,x19	 x14:0x000004df x19:0x00000001  x9=0x000004de
       81595000	      8158	80001c74	014880b3	add	x1,x17,x20	 x17:0x80001880 x20:0x77ffe760  x1=0xf7ffffe0
       81605000	      8159	80001c78	074dce63	blt	x27,x20,80001cf4	 x27:0x80001880 x20:0x77ffe760
       81615000	      8160	00000000	00000013	addi	x0,x0,0	  x0:0x00000000
       81625000	      8161	80001cf0	00000013	addi	x0,x0,0	  x0:0x00000000
       81635000	      8162	80001cf4	00243033	sltu	x0,x8,x2	  x8:0x00000001  x2:0x80009fc4
       81645000	      8163	80001cf8	00cc3fb3	sltu	x31,x24,x12	 x24:0x00009499 x12:0x00009001 x31=0x00000000
       81655000	      8164	80001cfc	0437d063	bge	x15,x3,80001d3c	 x15:0x045afdaf  x3:0x00000001
       81665000	      8165	00000000	00000013	addi	x0,x0,0	  x0:0x00000000
       81675000	      8166	80001d38	00000013	addi	x0,x0,0	  x0:0x00000000
       81685000	      8167	80001d3c	d2a92c37	lui	x24,0xd2a92	 x24=0xd2a92000
       81695000	      8168	80001d40	41c75cb3	sra	x25,x14,x28	 x14:0x000004df x28:0x00000000 x25=0x000004df
       81705000	      8169	80001d44	65263e13	sltiu	x28,x12,1618	 x12:0x00009001 x28=0x00000000
       81715000	      8170	80001d48	41e606b3	sub	x13,x12,x30	 x12:0x00009001 x30:0x00000000 x13=0x00009001
       81725000	      8171	80001d4c	4185d633	sra	x12,x11,x24	 x11:0xfffffc8a x24:0xd2a92000 x12=0xfffffc8a
       81735000	      8172	80001d50	0125a233	slt	x4,x11,x18	 x11:0xfffffc8a x18:0x00000000  x4=0x00000001
       81745000	      8173	80001d54	00000013	addi	x0,x0,0	  x0:0x00000000
       81755000	      8174	80001d58	053ac863	blt	x21,x19,80001da8	 x21:0x000000dc x19:0x00000001
       81765000	      8175	80001d5c	2eb80613	addi	x12,x16,747	 x16:0x00000035 x12=0x00000320
       81775000	      8176	80001d60	004696b3	sll	x13,x13,x4	 x13:0x00009001  x4:0x00000001 x13=0x00012002
       81785000	      8177	80001d64	015d11b3	sll	x3,x26,x21	 x26:0x80009f4c x21:0x000000dc  x3=0xc0000000
       81795000	      8178	80001d68	17bc76b7	lui	x13,0x17bc7	 x13=0x17bc7000
       81805000	      8179	80001d6c	04f89063	bne	x17,x15,80001dac	 x17:0x80001880 x15:0x045afdaf
       81815000	      8180	00000000	00000013	addi	x0,x0,0	  x0:0x00000000
       81825000	      8181	80001da8	00000013	addi	x0,x0,0	  x0:0x00000000
       81835000	      8182	80001dac	b13f7513	andi	x10,x30,-1261	 x30:0x00000000 x10=0x00000000
       81845000	      8183	80001db0	9612b813	sltiu	x16,x5,-1695	  x5:0x0000b7d0 x16=0x00000001
       81855000	      8184	80001db4	0091fc63	bgeu	x3,x9,80001dcc	  x3:0xc0000000  x9:0x000004de
       81865000	      8185	00000000	00000013	addi	x0,x0,0	  x0:0x00000000
       81875000	      8186	80001dc8	00000013	addi	x0,x0,0	  x0:0x00000000
       81885000	      8187	80001dcc	4b1d6f93	ori	x31,x26,1201	 x26:0x80009f4c x31=0x80009ffd
       81895000	      8188	80001dd0	00d448b3	xor	x17,x8,x13	  x8:0x00000001 x13:0x17bc7000 x17=0x17bc7001
       81905000	      8189	80001dd4	63505197	auipc	x3,0x63505	  x3=0xe3506dd0
       81915000	      8190	80001dd8	e11be413	ori	x8,x23,-495	 x23:0x00000001  x8=0xfffffe11
       81925000	      8191	80001ddc	00ae4863	blt	x28,x10,80001dec	 x28:0x00000000 x10:0x00000000
       81935000	      8192	80001de0	037e9c63	bne	x29,x23,80001e18	 x29:0xf22f49ae x23:0x00000001
       81945000	      8193	00000000	00000013	addi	x0,x0,0	  x0:0x00000000
       81955000	      8194	80001e14	00000013	addi	x0,x0,0	  x0:0x00000000
       81965000	      8195	80001e18	016067b3	or	x15,x0,x22	  x0:0x00000000 x22:0x045afdef x15=0x045afdef
       81975000	      8196	80001e1c	25047f93	andi	x31,x8,592	  x8:0xfffffe11 x31=0x00000210
       81985000	      8197	80001e20	415785b3	sub	x11,x15,x21	 x15:0x045afdef x21:0x000000dc x11=0x045afd13
       81995000	      8198	80001e24	00f81813	slli	x16,x16,0xf	 x16:0x00000001 x16=0x00008000
       82005000	      8199	80001e28	456bf937	lui	x18,0x456bf	 x18=0x456bf000
       82015000	      8200	80001e2c	00e86333	or	x6,x16,x14	 x16:0x00008000 x14:0x000004df  x6=0x000084df
       82025000	      8201	80001e30	0141ce33	xor	x28,x3,x20	  x3:0xe3506dd0 x20:0x77ffe760 x28=0x94af8ab0
       82035000	      8202	80001e34	03b50863	beq	x10,x27,80001e64	 x10:0x00000000 x27:0x80001880
       82045000	      8203	80001e38	014addb3	srl	x27,x21,x20	 x21:0x000000dc x20:0x77ffe760 x27=0x000000dc
       82055000	      8204	80001e3c	019162b3	or	x5,x2,x25	  x2:0x80009fc4 x25:0x000004df  x5=0x80009fdf
       82065000	      8205	80001e40	91d47413	andi	x8,x8,-1763	  x8:0xfffffe11  x8=0xfffff811
       82075000	      8206	80001e44	0120a2b3	slt	x5,x1,x18	  x1:0xf7ffffe0 x18:0x456bf000  x5=0x00000001
       82085000	      8207	80001e48	0125f663	bgeu	x11,x18,80001e54	 x11:0x045afd13 x18:0x456bf000
       82095000	      8208	80001e4c	40d50f33	sub	x30,x10,x13	 x10:0x00000000 x13:0x17bc7000 x30=0xe8439000
       82105000	      8209	80001e50	00c08c33	add	x24,x1,x12	  x1:0xf7ffffe0 x12:0x00000320 x24=0xf8000300
       82115000	      8210	80001e54	05274663	blt	x14,x18,80001ea0	 x14:0x000004df x18:0x456bf000
       82125000	      8211	00000000	00000013	addi	x0,x0,0	  x0:0x00000000
       82135000	      8212	80001e9c	00000013	addi	x0,x0,0	  x0:0x00000000
       82145000	      8213	80001ea0	41e2dc93	srai	x25,x5,0x1e	  x5:0x00000001 x25=0x00000000
       82155000	      8214	80001ea4	0006d5b3	srl	x11,x13,x0	 x13:0x17bc7000  x0:0x00000000 x11=0x17bc7000
       82165000	      8215	80001ea8	1cb06513	ori	x10,x0,459	  x0:0x00000000 x10=0x000001cb
       82175000	      8216	80001eac	01332433	slt	x8,x6,x19	  x6:0x000084df x19:0x00000001  x8=0x00000000
       82185000	      8217	80001eb0	f7967913	andi	x18,x12,-135	 x12:0x00000320 x18=0x00000320
       82195000	      8218	80001eb4	018c6233	or	x4,x24,x24	 x24:0xf8000300 x24:0xf8000300  x4=0xf8000300
       82205000	      8219	80001eb8	01c01263	bne	x0,x28,80001ebc	  x0:0x00000000 x28:0x94af8ab0
       82215000	      8220	00000000	00000013	addi	x0,x0,0	  x0:0x00000000
       82225000	      8221	80001eb8	00000013	addi	x0,x0,0	  x0:0x00000000
       82235000	      8222	80001ebc	404adf33	sra	x30,x21,x4	 x21:0x000000dc  x4:0xf8000300 x30=0x000000dc
       82245000	      8223	80001ec0	2cb5e197	auipc	x3,0x2cb5e	  x3=0xacb5febc
       82255000	      8224	80001ec4	6c07f993	andi	x19,x15,1728	 x15:0x045afdef x19=0x000004c0
       82265000	      8225	80001ec8	404a03b3	sub	x7,x20,x4	 x20:0x77ffe760  x4:0xf8000300  x7=0x7fffe460
       82275000	      8226	80001ecc	01cc8c63	beq	x25,x28,80001ee4	 x25:0x00000000 x28:0x94af8ab0
       82285000	      8227	80001ed0	017cf0b3	and	x1,x25,x23	 x25:0x00000000 x23:0x00000001  x1=0x00000000
       82295000	      8228	80001ed4	00000013	addi	x0,x0,0	  x0:0x00000000
       82305000	      8229	80001ed8	01685333	srl	x6,x16,x22	 x16:0x00008000 x22:0x045afdef  x6=0x00000001
       82315000	      8230	80001edc	00e8f733	and	x14,x17,x14	 x17:0x17bc7001 x14:0x000004df x14=0x00000001
       82325000	      8231	80001ee0	8e843993	sltiu	x19,x8,-1816	  x8:0x00000000 x19=0x00000001
       82335000	      8232	80001ee4	02e10663	beq	x2,x14,80001f10	  x2:0x80009fc4 x14:0x00000001
       82345000	      8233	80001ee8	01a9ee33	or	x28,x19,x26	 x19:0x00000001 x26:0x80009f4c x28=0x80009f4d
       82355000	      8234	80001eec	00459663	bne	x11,x4,80001ef8	 x11:0x17bc7000  x4:0xf8000300
       82365000	      8235	00000000	00000013	addi	x0,x0,0	  x0:0x00000000
       82375000	      8236	80001ef4	00000013	addi	x0,x0,0	  x0:0x00000000
       82385000	      8237	80001ef8	017cd013	srli	x0,x25,0x17	 x25:0x00000000
       82395000	      8238	80001efc	11e04093	xori	x1,x0,286	  x0:0x00000000  x1=0x0000011e
       82405000	      8239	80001f00	01f7e533	or	x10,x15,x31	 x15:0x045afdef x31:0x00000210 x10=0x045affff
       82415000	      8240	80001f04	02d7f663	bgeu	x15,x13,80001f30	 x15:0x045afdef x13:0x17bc7000
       82425000	      8241	80001f08	0198f033	and	x0,x17,x25	 x17:0x17bc7001 x25:0x00000000
       82435000	      8242	80001f0c	001c9a33	sll	x20,x25,x1	 x25:0x00000000  x1:0x0000011e x20=0x00000000
       82445000	      8243	80001f10	00c0df33	srl	x30,x1,x12	  x1:0x0000011e x12:0x00000320 x30=0x0000011e
       82455000	      8244	80001f14	01e5b833	sltu	x16,x11,x30	 x11:0x17bc7000 x30:0x0000011e x16=0x00000000
       82465000	      8245	80001f18	41c40233	sub	x4,x8,x28	  x8:0x00000000 x28:0x80009f4d  x4=0x7fff60b3
       82475000	      8246	80001f1c	00159db3	sll	x27,x11,x1	 x11:0x17bc7000  x1:0x0000011e x27=0x00000000
       82485000	      8247	80001f20	04a8d463	bge	x17,x10,80001f68	 x17:0x17bc7001 x10:0x045affff
       82495000	      8248	00000000	00000013	addi	x0,x0,0	  x0:0x00000000
       82505000	      8249	80001f64	00000013	addi	x0,x0,0	  x0:0x00000000
       82515000	      8250	80001f68	023dcd93	xori	x27,x27,35	 x27:0x00000000 x27=0x00000023
       82525000	      8251	80001f6c	0120b4b3	sltu	x9,x1,x18	  x1:0x0000011e x18:0x00000320  x9=0x00000001
       82535000	      8252	80001f70	05a1d263	bge	x3,x26,80001fb4	  x3:0xacb5febc x26:0x80009f4c
       82545000	      8253	00000000	00000013	addi	x0,x0,0	  x0:0x00000000
       82555000	      8254	80001fb0	00000013	addi	x0,x0,0	  x0:0x00000000
       82565000	      8255	80001fb4	01cf4db3	xor	x27,x30,x28	 x30:0x0000011e x28:0x80009f4d x27=0x80009e53
       82575000	      8256	80001fb8	400a8ab3	sub	x21,x21,x0	 x21:0x000000dc  x0:0x00000000 x21=0x000000dc
       82585000	      8257	80001fbc	406286b3	sub	x13,x5,x6	  x5:0x00000001  x6:0x00000001 x13=0x00000000
       82595000	      8258	80001fc0	010ca333	slt	x6,x25,x16	 x25:0x00000000 x16:0x00000000  x6=0x00000000
       82605000	      8259	80001fc4	00000013	addi	x0,x0,0	  x0:0x00000000
       82615000	      8260	80001fc8	01daecb3	or	x25,x21,x29	 x21:0x000000dc x29:0xf22f49ae x25=0xf22f49fe
       82625000	      8261	80001fcc	02b39663	bne	x7,x11,80001ff8	  x7:0x7fffe460 x11:0x17bc7000
       82635000	      8262	00000000	00000013	addi	x0,x0,0	  x0:0x00000000
       82645000	      8263	80001ff4	00000013	addi	x0,x0,0	  x0:0x00000000
       82655000	      8264	80001ff8	01561cb3	sll	x25,x12,x21	 x12:0x00000320 x21:0x000000dc x25=0x00000000
       82665000	      8265	80001ffc	3303f493	andi	x9,x7,816	  x7:0x7fffe460  x9=0x00000020
       82675000	      8266	80002000	0133d213	srli	x4,x7,0x13	  x7:0x7fffe460  x4=0x00000fff
       82685000	      8267	80002004	030ee863	bltu	x29,x16,80002034	 x29:0xf22f49ae x16:0x00000000
       82695000	      8268	80002008	04ad9663	bne	x27,x10,80002054	 x27:0x80009e53 x10:0x045affff
       82705000	      8269	00000000	00000013	addi	x0,x0,0	  x0:0x00000000
       82715000	      8270	80002050	00000013	addi	x0,x0,0	  x0:0x00000000
       82725000	      8271	80002054	40128633	sub	x12,x5,x1	  x5:0x00000001  x1:0x0000011e x12=0xfffffee3
       82735000	      8272	80002058	00f35c93	srli	x25,x6,0xf	  x6:0x00000000 x25=0x00000000
       82745000	      8273	8000205c	013c5d93	srli	x27,x24,0x13	 x24:0xf8000300 x27=0x00001f00
       82755000	      8274	80002060	01bd34b3	sltu	x9,x26,x27	 x26:0x80009f4c x27:0x00001f00  x9=0x00000000
       82765000	      8275	80002064	018d5b13	srli	x22,x26,0x18	 x26:0x80009f4c x22=0x00000080
       82775000	      8276	80002068	272b7213	andi	x4,x22,626	 x22:0x00000080  x4=0x00000000
       82785000	      8277	8000206c	01b595b3	sll	x11,x11,x27	 x11:0x17bc7000 x27:0x00001f00 x11=0x17bc7000
       82795000	      8278	80002070	f9136693	ori	x13,x6,-111	  x6:0x00000000 x13=0xffffff91
       82805000	      8279	80002074	2a364513	xori	x10,x12,675	 x12:0xfffffee3 x10=0xfffffc40
       82815000	      8280	80002078	b6a07313	andi	x6,x0,-1174	  x0:0x00000000  x6=0x00000000
       82825000	      8281	8000207c	51b0f913	andi	x18,x1,1307	  x1:0x0000011e x18=0x0000011a
       82835000	      8282	80002080	012793b3	sll	x7,x15,x18	 x15:0x045afdef x18:0x0000011a  x7=0xbc000000
       82845000	      8283	80002084	05059263	bne	x11,x16,800020c8	 x11:0x17bc7000 x16:0x00000000
       82855000	      8284	00000000	00000013	addi	x0,x0,0	  x0:0x00000000
       82865000	      8285	800020c4	00000013	addi	x0,x0,0	  x0:0x00000000
       82875000	      8286	800020c8	301b2c93	slti	x25,x22,769	 x22:0x00000080 x25=0x00000001
       82885000	      8287	800020cc	01e4d733	srl	x14,x9,x30	  x9:0x00000000 x30:0x0000011e x14=0x00000000
       82895000	      8288	800020d0	02391863	bne	x18,x3,80002100	 x18:0x0000011a  x3:0xacb5febc
       82905000	      8289	00000000	00000013	addi	x0,x0,0	  x0:0x00000000
       82915000	      8290	800020fc	00000013	addi	x0,x0,0	  x0:0x00000000
       82925000	      8291	80002100	11afe593	ori	x11,x31,282	 x31:0x00000210 x11=0x0000031a
       82935000	      8292	80002104	eb642913	slti	x18,x8,-330	  x8:0x00000000 x18=0x00000000
       82945000	      8293	80002108	41325093	srai	x1,x4,0x13	  x4:0x00000000  x1=0x00000000
       82955000	      8294	8000210c	7f0cef13	ori	x30,x25,2032	 x25:0x00000001 x30=0x000007f1
       82965000	      8295	80002110	007745b3	xor	x11,x14,x7	 x14:0x00000000  x7:0xbc000000 x11=0xbc000000
       82975000	      8296	80002114	04686663	bltu	x16,x6,80002160	 x16:0x00000000  x6:0x00000000
       82985000	      8297	80002118	d4ca2e17	auipc	x28,0xd4ca2	 x28=0x54ca4114
       82995000	      8298	8000211c	03ecc863	blt	x25,x30,8000214c	 x25:0x00000001 x30:0x000007f1
       83005000	      8299	00000000	00000013	addi	x0,x0,0	  x0:0x00000000
       83015000	      8300	80002148	00000013	addi	x0,x0,0	  x0:0x00000000
       83025000	      8301	8000214c	09a60b13	addi	x22,x12,154	 x12:0xfffffee3 x22=0xffffff7d
       83035000	      8302	80002150	eeed4393	xori	x7,x26,-274	 x26:0x80009f4c  x7=0x7fff61a2
       83045000	      8303	80002154	44efa593	slti	x11,x31,1102	 x31:0x00000210 x11=0x00000001
       83055000	      8304	80002158	9eee3993	sltiu	x19,x28,-1554	 x28:0x54ca4114 x19=0x00000001
       83065000	      8305	8000215c	048ce263	bltu	x25,x8,800021a0	 x25:0x00000001  x8:0x00000000
       83075000	      8306	80002160	00d4a0b3	slt	x1,x9,x13	  x9:0x00000000 x13:0xffffff91  x1=0x00000000
       83085000	      8307	80002164	01271263	bne	x14,x18,80002168	 x14:0x00000000 x18:0x00000000
       83095000	      8308	80002168	00000013	addi	x0,x0,0	  x0:0x00000000
       83105000	      8309	8000216c	04916863	bltu	x2,x9,800021bc	  x2:0x80009fc4  x9:0x00000000
       83115000	      8310	80002170	03e17663	bgeu	x2,x30,8000219c	  x2:0x80009fc4 x30:0x000007f1
       83125000	      8311	00000000	00000013	addi	x0,x0,0	  x0:0x00000000
       83135000	      8312	80002198	00000013	addi	x0,x0,0	  x0:0x00000000
       83145000	      8313	8000219c	04738463	beq	x7,x7,800021e4	  x7:0x7fff61a2  x7:0x7fff61a2
       83155000	      8314	00000000	00000013	addi	x0,x0,0	  x0:0x00000000
       83165000	      8315	800021e0	00000013	addi	x0,x0,0	  x0:0x00000000
       83175000	      8316	800021e4	bed9b893	sltiu	x17,x19,-1043	 x19:0x00000001 x17=0x00000001
       83185000	      8317	800021e8	010c6863	bltu	x24,x16,800021f8	 x24:0xf8000300 x16:0x00000000
       83195000	      8318	800021ec	7af2c793	xori	x15,x5,1967	  x5:0x00000001 x15=0x000007ae
       83205000	      8319	800021f0	01c7c663	blt	x15,x28,800021fc	 x15:0x000007ae x28:0x54ca4114
       83215000	      8320	00000000	00000013	addi	x0,x0,0	  x0:0x00000000
       83225000	      8321	800021f8	00000013	addi	x0,x0,0	  x0:0x00000000
       83235000	      8322	800021fc	01de5713	srli	x14,x28,0x1d	 x28:0x54ca4114 x14=0x00000002
       83245000	      8323	80002200	6efefa97	auipc	x21,0x6efef	 x21=0xeeff11fc
       83255000	      8324	80002204	41c20233	sub	x4,x4,x28	  x4:0x00000000 x28:0x54ca4114  x4=0xab35beec
       83265000	      8325	80002208	1b7e1237	lui	x4,0x1b7e1	  x4=0x1b7e1000
       83275000	      8326	8000220c	403cd013	srai	x0,x25,0x3	 x25:0x00000001
       83285000	      8327	80002210	ddda8013	addi	x0,x21,-547	 x21:0xeeff11fc
       83295000	      8328	80002214	034db913	sltiu	x18,x27,52	 x27:0x00001f00 x18=0x00000000
       83305000	      8329	80002218	01278b33	add	x22,x15,x18	 x15:0x000007ae x18:0x00000000 x22=0x000007ae
       83315000	      8330	8000221c	00252433	slt	x8,x10,x2	 x10:0xfffffc40  x2:0x80009fc4  x8=0x00000000
       83325000	      8331	80002220	b4066a13	ori	x20,x12,-1216	 x12:0xfffffee3 x20=0xffffffe3
       83335000	      8332	80002224	00e39733	sll	x14,x7,x14	  x7:0x7fff61a2 x14:0x00000002 x14=0xfffd8688
       83345000	      8333	80002228	0030da93	srli	x21,x1,0x3	  x1:0x00000000 x21=0x00000000
       83355000	      8334	8000222c	03606063	bltu	x0,x22,8000224c	  x0:0x00000000 x22:0x000007ae
       83365000	      8335	00000000	00000013	addi	x0,x0,0	  x0:0x00000000
       83375000	      8336	80002248	00000013	addi	x0,x0,0	  x0:0x00000000
       83385000	      8337	8000224c	ca302813	slti	x16,x0,-861	  x0:0x00000000 x16=0x00000000
       83395000	      8338	80002250	bc87ab93	slti	x23,x15,-1080	 x15:0x000007ae x23=0x00000000
       83405000	      8339	80002254	8f212e37	lui	x28,0x8f212	 x28=0x8f212000
       83415000	      8340	80002258	03dbf263	bgeu	x23,x29,8000227c	 x23:0x00000000 x29:0xf22f49ae
       83425000	      8341	8000225c	414e5b33	sra	x22,x28,x20	 x28:0x8f212000 x20:0xffffffe3 x22=0xf1e42400
       83435000	      8342	80002260	0015d193	srli	x3,x11,0x1	 x11:0x00000001  x3=0x00000000
       83445000	      8343	80002264	036a4863	blt	x20,x22,80002294	 x20:0xffffffe3 x22:0xf1e42400
       83455000	      8344	80002268	7e29ab37	lui	x22,0x7e29a	 x22=0x7e29a000
       83465000	      8345	8000226c	01397c33	and	x24,x18,x19	 x18:0x00000000 x19:0x00000001 x24=0x00000000
       83475000	      8346	80002270	287c0613	addi	x12,x24,647	 x24:0x00000000 x12=0x00000287
       83485000	      8347	80002274	00db1733	sll	x14,x22,x13	 x22:0x7e29a000 x13:0xffffff91 x14=0x40000000
       83495000	      8348	80002278	01568c63	beq	x13,x21,80002290	 x13:0xffffff91 x21:0x00000000
       83505000	      8349	8000227c	45fe8b13	addi	x22,x29,1119	 x29:0xf22f49ae x22=0xf22f4e0d
       83515000	      8350	80002280	01ddecb3	or	x25,x27,x29	 x27:0x00001f00 x29:0xf22f49ae x25=0xf22f5fae
       83525000	      8351	80002284	34d73793	sltiu	x15,x14,845	 x14:0x40000000 x15=0x00000000
       83535000	      8352	80002288	40298cb3	sub	x25,x19,x2	 x19:0x00000001  x2:0x80009fc4 x25=0x7fff603d
       83545000	      8353	8000228c	01e75393	srli	x7,x14,0x1e	 x14:0x40000000  x7=0x00000001
       83555000	      8354	80002290	40e90533	sub	x10,x18,x14	 x18:0x00000000 x14:0x40000000 x10=0xc0000000
       83565000	      8355	80002294	417ddb13	srai	x22,x27,0x17	 x27:0x00001f00 x22=0x00000000
       83575000	      8356	80002298	76406c93	ori	x25,x0,1892	  x0:0x00000000 x25=0x00000764
       83585000	      8357	8000229c	05da8663	beq	x21,x29,800022e8	 x21:0x00000000 x29:0xf22f49ae
       83595000	      8358	800022a0	013a5693	srli	x13,x20,0x13	 x20:0xffffffe3 x13=0x00001fff
       83605000	      8359	800022a4	0456f463	bgeu	x13,x5,800022ec	 x13:0x00001fff  x5:0x00000001
       83615000	      8360	00000000	00000013	addi	x0,x0,0	  x0:0x00000000
       83625000	      8361	800022e8	00000013	addi	x0,x0,0	  x0:0x00000000
       83635000	      8362	800022ec	27b23317	auipc	x6,0x27b23	  x6=0xa7b252e8
       83645000	      8363	800022f0	8581b613	sltiu	x12,x3,-1960	  x3:0x00000000 x12=0x00000001
       83655000	      8364	800022f4	8d726813	ori	x16,x4,-1833	  x4:0x1b7e1000 x16=0xfffff8d7
       83665000	      8365	800022f8	009b5193	srli	x3,x22,0x9	 x22:0x00000000  x3=0x00000000
       83675000	      8366	800022fc	01485513	srli	x10,x16,0x14	 x16:0xfffff8d7 x10=0x00000fff
       83685000	      8367	80002300	0ca73613	sltiu	x12,x14,202	 x14:0x40000000 x12=0x00000000
       83695000	      8368	80002304	16af80b7	lui	x1,0x16af8	  x1=0x16af8000
       83705000	      8369	80002308	00d3da63	bge	x7,x13,8000231c	  x7:0x00000001 x13:0x00001fff
       83715000	      8370	8000230c	008b47b3	xor	x15,x22,x8	 x22:0x00000000  x8:0x00000000 x15=0x00000000
       83725000	      8371	80002310	001990b3	sll	x1,x19,x1	 x19:0x00000001  x1:0x16af8000  x1=0x00000001
       83735000	      8372	80002314	e3be0393	addi	x7,x28,-453	 x28:0x8f212000  x7=0x8f211e3b
       83745000	      8373	80002318	03394e63	blt	x18,x19,80002354	 x18:0x00000000 x19:0x00000001
       83755000	      8374	00000000	00000013	addi	x0,x0,0	  x0:0x00000000
       83765000	      8375	80002350	00000013	addi	x0,x0,0	  x0:0x00000000
       83775000	      8376	80002354	a4ce0a93	addi	x21,x28,-1460	 x28:0x8f212000 x21=0x8f211a4c
       83785000	      8377	80002358	01eec333	xor	x6,x29,x30	 x29:0xf22f49ae x30:0x000007f1  x6=0xf22f4e5f
       83795000	      8378	8000235c	00bd1263	bne	x26,x11,80002360	 x26:0x80009f4c x11:0x00000001
       83805000	      8379	00000000	00000013	addi	x0,x0,0	  x0:0x00000000
       83815000	      8380	8000235c	00000013	addi	x0,x0,0	  x0:0x00000000
       83825000	      8381	80002360	418883b3	sub	x7,x17,x24	 x17:0x00000001 x24:0x00000000  x7=0x00000001
       83835000	      8382	80002364	a568cd93	xori	x27,x17,-1450	 x17:0x00000001 x27=0xfffffa57
       83845000	      8383	80002368	f74e8b13	addi	x22,x29,-140	 x29:0xf22f49ae x22=0xf22f4922
       83855000	      8384	8000236c	01f5fab3	and	x21,x11,x31	 x11:0x00000001 x31:0x00000210 x21=0x00000000
       83865000	      8385	80002370	f5a00013	addi	x0,x0,-166	  x0:0x00000000
       83875000	      8386	80002374	f280a913	slti	x18,x1,-216	  x1:0x00000001 x18=0x00000000
       83885000	      8387	80002378	003af833	and	x16,x21,x3	 x21:0x00000000  x3:0x00000000 x16=0x00000000
       83895000	      8388	8000237c	0539c663	blt	x19,x19,800023c8	 x19:0x00000001 x19:0x00000001
       83905000	      8389	80002380	02edf063	bgeu	x27,x14,800023a0	 x27:0xfffffa57 x14:0x40000000
       83915000	      8390	00000000	00000013	addi	x0,x0,0	  x0:0x00000000
       83925000	      8391	8000239c	00000013	addi	x0,x0,0	  x0:0x00000000
       83935000	      8392	800023a0	3b256237	lui	x4,0x3b256	  x4=0x3b256000
       83945000	      8393	800023a4	02ec7663	bgeu	x24,x14,800023d0	 x24:0x00000000 x14:0x40000000
       83955000	      8394	800023a8	20423e13	sltiu	x28,x4,516	  x4:0x3b256000 x28=0x00000000
       83965000	      8395	800023ac	89b9fd93	andi	x27,x19,-1893	 x19:0x00000001 x27=0x00000001
       83975000	      8396	800023b0	02bb1663	bne	x22,x11,800023dc	 x22:0xf22f4922 x11:0x00000001
       83985000	      8397	00000000	00000013	addi	x0,x0,0	  x0:0x00000000
       83995000	      8398	800023d8	00000013	addi	x0,x0,0	  x0:0x00000000
       84005000	      8399	800023dc	00e71913	slli	x18,x14,0xe	 x14:0x40000000 x18=0x00000000
       84015000	      8400	800023e0	005d1e33	sll	x28,x26,x5	 x26:0x80009f4c  x5:0x00000001 x28=0x00013e98
       84025000	      8401	800023e4	b35eaa13	slti	x20,x29,-1227	 x29:0xf22f49ae x20=0x00000001
       84035000	      8402	800023e8	013e9b33	sll	x22,x29,x19	 x29:0xf22f49ae x19:0x00000001 x22=0xe45e935c
       84045000	      8403	800023ec	011f3ab3	sltu	x21,x30,x17	 x30:0x000007f1 x17:0x00000001 x21=0x00000000
       84055000	      8404	800023f0	0208c263	blt	x17,x0,80002414	 x17:0x00000001  x0:0x00000000
       84065000	      8405	800023f4	9ddaa2b7	lui	x5,0x9ddaa	  x5=0x9ddaa000
       84075000	      8406	800023f8	03e77663	bgeu	x14,x30,80002424	 x14:0x40000000 x30:0x000007f1
       84085000	      8407	00000000	00000013	addi	x0,x0,0	  x0:0x00000000
       84095000	      8408	80002420	00000013	addi	x0,x0,0	  x0:0x00000000
       84105000	      8409	80002424	62dda093	slti	x1,x27,1581	 x27:0x00000001  x1=0x00000001
       84115000	      8410	80002428	eac7da37	lui	x20,0xeac7d	 x20=0xeac7d000
       84125000	      8411	8000242c	00db8333	add	x6,x23,x13	 x23:0x00000000 x13:0x00001fff  x6=0x00001fff
       84135000	      8412	80002430	e4bd8d93	addi	x27,x27,-437	 x27:0x00000001 x27=0xfffffe4c
       84145000	      8413	80002434	04839463	bne	x7,x8,8000247c	  x7:0x00000001  x8:0x00000000
       84155000	      8414	00000000	00000013	addi	x0,x0,0	  x0:0x00000000
       84165000	      8415	80002478	00000013	addi	x0,x0,0	  x0:0x00000000
       84175000	      8416	8000247c	01a013b3	sll	x7,x0,x26	  x0:0x00000000 x26:0x80009f4c  x7=0x00000000
       84185000	      8417	80002480	02076863	bltu	x14,x0,800024b0	 x14:0x40000000  x0:0x00000000
       84195000	      8418	80002484	0497d263	bge	x15,x9,800024c8	 x15:0x00000000  x9:0x00000000
       84205000	      8419	00000000	00000013	addi	x0,x0,0	  x0:0x00000000
       84215000	      8420	800024c4	00000013	addi	x0,x0,0	  x0:0x00000000
       84225000	      8421	800024c8	04e09863	bne	x1,x14,80002518	  x1:0x00000001 x14:0x40000000
       84235000	      8422	00000000	00000013	addi	x0,x0,0	  x0:0x00000000
       84245000	      8423	80002514	00000013	addi	x0,x0,0	  x0:0x00000000
       84255000	      8424	80002518	014535b3	sltu	x11,x10,x20	 x10:0x00000fff x20:0xeac7d000 x11=0x00000001
       84265000	      8425	8000251c	01a41713	slli	x14,x8,0x1a	  x8:0x00000000 x14=0x00000000
       84275000	      8426	80002520	40e4da13	srai	x20,x9,0xe	  x9:0x00000000 x20=0x00000000
       84285000	      8427	80002524	fb6a8c93	addi	x25,x21,-74	 x21:0x00000000 x25=0xffffffb6
       84295000	      8428	80002528	00000013	addi	x0,x0,0	  x0:0x00000000
       84305000	      8429	8000252c	00bd8263	beq	x27,x11,80002530	 x27:0xfffffe4c x11:0x00000001
       84315000	      8430	80002530	01ded7b3	srl	x15,x29,x29	 x29:0xf22f49ae x29:0xf22f49ae x15=0x0003c8bd
       84325000	      8431	80002534	01de4a33	xor	x20,x28,x29	 x28:0x00013e98 x29:0xf22f49ae x20=0xf22e7736
       84335000	      8432	80002538	00000013	addi	x0,x0,0	  x0:0x00000000
       84345000	      8433	8000253c	ddbee093	ori	x1,x29,-549	 x29:0xf22f49ae  x1=0xfffffdff
       84355000	      8434	80002540	00c3b433	sltu	x8,x7,x12	  x7:0x00000000 x12:0x00000000  x8=0x00000000
       84365000	      8435	80002544	41798f33	sub	x30,x19,x23	 x19:0x00000001 x23:0x00000000 x30=0x00000001
       84375000	      8436	80002548	409b8a33	sub	x20,x23,x9	 x23:0x00000000  x9:0x00000000 x20=0x00000000
       84385000	      8437	8000254c	0100ac33	slt	x24,x1,x16	  x1:0xfffffdff x16:0x00000000 x24=0x00000001
       84395000	      8438	80002550	ef9f6313	ori	x6,x30,-263	 x30:0x00000001  x6=0xfffffef9
       84405000	      8439	80002554	41065333	sra	x6,x12,x16	 x12:0x00000000 x16:0x00000000  x6=0x00000000
       84415000	      8440	80002558	404604b3	sub	x9,x12,x4	 x12:0x00000000  x4:0x3b256000  x9=0xc4daa000
       84425000	      8441	8000255c	0028b433	sltu	x8,x17,x2	 x17:0x00000001  x2:0x80009fc4  x8=0x00000001
       84435000	      8442	80002560	0091cc33	xor	x24,x3,x9	  x3:0x00000000  x9:0xc4daa000 x24=0xc4daa000
       84445000	      8443	80002564	a7df3f17	auipc	x30,0xa7df3	 x30=0x27df5560
       84455000	      8444	80002568	d2d2f313	andi	x6,x5,-723	  x5:0x9ddaa000  x6=0x9ddaa000
       84465000	      8445	8000256c	00d47c63	bgeu	x8,x13,80002584	  x8:0x00000001 x13:0x00001fff
       84475000	      8446	80002570	04605863	bge	x0,x6,800025c0	  x0:0x00000000  x6:0x9ddaa000
       84485000	      8447	00000000	00000013	addi	x0,x0,0	  x0:0x00000000
       84495000	      8448	800025bc	00000013	addi	x0,x0,0	  x0:0x00000000
       84505000	      8449	800025c0	02947863	bgeu	x8,x9,800025f0	  x8:0x00000001  x9:0xc4daa000
       84515000	      8450	800025c4	01bb53b3	srl	x7,x22,x27	 x22:0xe45e935c x27:0xfffffe4c  x7=0x000e45e9
       84525000	      8451	800025c8	cf594d93	xori	x27,x18,-779	 x18:0x00000000 x27=0xfffffcf5
       84535000	      8452	800025cc	b0d50293	addi	x5,x10,-1267	 x10:0x00000fff  x5=0x00000b0c
       84545000	      8453	800025d0	6db8cc93	xori	x25,x17,1755	 x17:0x00000001 x25=0x000006da
       84555000	      8454	800025d4	00926533	or	x10,x4,x9	  x4:0x3b256000  x9:0xc4daa000 x10=0xffffe000
       84565000	      8455	800025d8	01d29813	slli	x16,x5,0x1d	  x5:0x00000b0c x16=0x80000000
       84575000	      8456	800025dc	0360e663	bltu	x1,x22,80002608	  x1:0xfffffdff x22:0xe45e935c
       84585000	      8457	800025e0	40d987b3	sub	x15,x19,x13	 x19:0x00000001 x13:0x00001fff x15=0xffffe002
       84595000	      8458	800025e4	89abb413	sltiu	x8,x23,-1894	 x23:0x00000000  x8=0x00000001
       84605000	      8459	800025e8	00ec4c63	blt	x24,x14,80002600	 x24:0xc4daa000 x14:0x00000000
       84615000	      8460	00000000	00000013	addi	x0,x0,0	  x0:0x00000000
       84625000	      8461	800025fc	00000013	addi	x0,x0,0	  x0:0x00000000
       84635000	      8462	80002600	007a5c13	srli	x24,x20,0x7	 x20:0x00000000 x24=0x00000000
       84645000	      8463	80002604	0188fcb3	and	x25,x17,x24	 x17:0x00000001 x24:0x00000000 x25=0x00000000
       84655000	      8464	80002608	00000013	addi	x0,x0,0	  x0:0x00000000
       84665000	      8465	8000260c	b7f4fab7	lui	x21,0xb7f4f	 x21=0xb7f4f000
       84675000	      8466	80002610	012ec233	xor	x4,x29,x18	 x29:0xf22f49ae x18:0x00000000  x4=0xf22f49ae
       84685000	      8467	80002614	02a55e63	bge	x10,x10,80002650	 x10:0xffffe000 x10:0xffffe000
       84695000	      8468	00000000	00000013	addi	x0,x0,0	  x0:0x00000000
       84705000	      8469	8000264c	00000013	addi	x0,x0,0	  x0:0x00000000
       84715000	      8470	80002650	03985c63	bge	x16,x25,80002688	 x16:0x80000000 x25:0x00000000
       84725000	      8471	80002654	7b74ba37	lui	x20,0x7b74b	 x20=0x7b74b000
       84735000	      8472	80002658	0038c633	xor	x12,x17,x3	 x17:0x00000001  x3:0x00000000 x12=0x00000001
       84745000	      8473	8000265c	c0d6f513	andi	x10,x13,-1011	 x13:0x00001fff x10=0x00001c0d
       84755000	      8474	80002660	764a1617	auipc	x12,0x764a1	 x12=0xf64a365c
       84765000	      8475	80002664	01075e13	srli	x28,x14,0x10	 x14:0x00000000 x28=0x00000000
       84775000	      8476	80002668	00fb0ab3	add	x21,x22,x15	 x22:0xe45e935c x15:0xffffe002 x21=0xe45e735e
       84785000	      8477	8000266c	00eb8a63	beq	x23,x14,80002680	 x23:0x00000000 x14:0x00000000
       84795000	      8478	00000000	00000013	addi	x0,x0,0	  x0:0x00000000
       84805000	      8479	8000267c	00000013	addi	x0,x0,0	  x0:0x00000000
       84815000	      8480	80002680	05104463	blt	x0,x17,800026c8	  x0:0x00000000 x17:0x00000001
       84825000	      8481	00000000	00000013	addi	x0,x0,0	  x0:0x00000000
       84835000	      8482	800026c4	00000013	addi	x0,x0,0	  x0:0x00000000
       84845000	      8483	800026c8	6cbe6813	ori	x16,x28,1739	 x28:0x00000000 x16=0x000006cb
       84855000	      8484	800026cc	01df38b3	sltu	x17,x30,x29	 x30:0x27df5560 x29:0xf22f49ae x17=0x00000001
       84865000	      8485	800026d0	02775463	bge	x14,x7,800026f8	 x14:0x00000000  x7:0x000e45e9
       84875000	      8486	800026d4	00818cb3	add	x25,x3,x8	  x3:0x00000000  x8:0x00000001 x25=0x00000001
       84885000	      8487	800026d8	89dbc693	xori	x13,x23,-1891	 x23:0x00000000 x13=0xfffff89d
       84895000	      8488	800026dc	cd378493	addi	x9,x15,-813	 x15:0xffffe002  x9=0xffffdcd5
       84905000	      8489	800026e0	00fbf5b3	and	x11,x23,x15	 x23:0x00000000 x15:0xffffe002 x11=0x00000000
       84915000	      8490	800026e4	016ac233	xor	x4,x21,x22	 x21:0xe45e735e x22:0xe45e935c  x4=0x0000e002
       84925000	      8491	800026e8	02b70063	beq	x14,x11,80002708	 x14:0x00000000 x11:0x00000000
       84935000	      8492	00000000	00000013	addi	x0,x0,0	  x0:0x00000000
       84945000	      8493	80002704	00000013	addi	x0,x0,0	  x0:0x00000000
       84955000	      8494	80002708	01839263	bne	x7,x24,8000270c	  x7:0x000e45e9 x24:0x00000000
       84965000	      8495	00000000	00000013	addi	x0,x0,0	  x0:0x00000000
       84975000	      8496	80002708	00000013	addi	x0,x0,0	  x0:0x00000000
       84985000	      8497	8000270c	0524c293	xori	x5,x9,82	  x9:0xffffdcd5  x5=0xffffdc87
       84995000	      8498	80002710	4d496997	auipc	x19,0x4d496	 x19=0xcd49870c
       85005000	      8499	80002714	00000013	addi	x0,x0,0	  x0:0x00000000
       85015000	      8500	80002718	eacf2a13	slti	x20,x30,-340	 x30:0x27df5560 x20=0x00000000
       85025000	      8501	8000271c	00bd5633	srl	x12,x26,x11	 x26:0x80009f4c x11:0x00000000 x12=0x80009f4c
       85035000	      8502	80002720	00da5413	srli	x8,x20,0xd	 x20:0x00000000  x8=0x00000000
       85045000	      8503	80002724	00eefc33	and	x24,x29,x14	 x29:0xf22f49ae x14:0x00000000 x24=0x00000000
       85055000	      8504	80002728	9295f093	andi	x1,x11,-1751	 x11:0x00000000  x1=0x00000000
       85065000	      8505	8000272c	14b40f13	addi	x30,x8,331	  x8:0x00000000 x30=0x0000014b
       85075000	      8506	80002730	c39da513	slti	x10,x27,-967	 x27:0xfffffcf5 x10=0x00000000
       85085000	      8507	80002734	01874b33	xor	x22,x14,x24	 x14:0x00000000 x24:0x00000000 x22=0x00000000
       85095000	      8508	80002738	00e69813	slli	x16,x13,0xe	 x13:0xfffff89d x16=0xfe274000
       85105000	      8509	8000273c	019124b3	slt	x9,x2,x25	  x2:0x80009fc4 x25:0x00000001  x9=0x00000001
       85115000	      8510	80002740	6c498537	lui	x10,0x6c498	 x10=0x6c498000
       85125000	      8511	80002744	9368f293	andi	x5,x17,-1738	 x17:0x00000001  x5=0x00000000
       85135000	      8512	80002748	047b7663	bgeu	x22,x7,80002794	 x22:0x00000000  x7:0x000e45e9
       85145000	      8513	8000274c	7c1c8b93	addi	x23,x25,1985	 x25:0x00000001 x23=0x000007c2
       85155000	      8514	80002750	979f7313	andi	x6,x30,-1671	 x30:0x0000014b  x6=0x00000149
       85165000	      8515	80002754	67cc7093	andi	x1,x24,1660	 x24:0x00000000  x1=0x00000000
       85175000	      8516	80002758	00d2b7b3	sltu	x15,x5,x13	  x5:0x00000000 x13:0xfffff89d x15=0x00000001
       85185000	      8517	8000275c	d7263037	lui	x0,0xd7263	
       85195000	      8518	80002760	02b26e63	bltu	x4,x11,8000279c	  x4:0x0000e002 x11:0x00000000
       85205000	      8519	80002764	f11fef97	auipc	x31,0xf11fe	 x31=0x71200760
       85215000	      8520	80002768	4087d9b3	sra	x19,x15,x8	 x15:0x00000001  x8:0x00000000 x19=0x00000001
       85225000	      8521	8000276c	5b010f13	addi	x30,x2,1456	  x2:0x80009fc4 x30=0x8000a574
       85235000	      8522	80002770	00b911b3	sll	x3,x18,x11	 x18:0x00000000 x11:0x00000000  x3=0x00000000
       85245000	      8523	80002774	02fdf593	andi	x11,x27,47	 x27:0xfffffcf5 x11=0x00000025
       85255000	      8524	80002778	02b27463	bgeu	x4,x11,800027a0	  x4:0x0000e002 x11:0x00000025
       85265000	      8525	00000000	00000013	addi	x0,x0,0	  x0:0x00000000
       85275000	      8526	8000279c	00000013	addi	x0,x0,0	  x0:0x00000000
       85285000	      8527	800027a0	00339513	slli	x10,x7,0x3	  x7:0x000e45e9 x10=0x00722f48
       85295000	      8528	800027a4	0572c263	blt	x5,x23,800027e8	  x5:0x00000000 x23:0x000007c2
       85305000	      8529	00000000	00000013	addi	x0,x0,0	  x0:0x00000000
       85315000	      8530	800027e4	00000013	addi	x0,x0,0	  x0:0x00000000
       85325000	      8531	800027e8	d400b037	lui	x0,0xd400b	
       85335000	      8532	800027ec	02349863	bne	x9,x3,8000281c	  x9:0x00000001  x3:0x00000000
       85345000	      8533	00000000	00000013	addi	x0,x0,0	  x0:0x00000000
       85355000	      8534	80002818	00000013	addi	x0,x0,0	  x0:0x00000000
       85365000	      8535	8000281c	04571463	bne	x14,x5,80002864	 x14:0x00000000  x5:0x00000000
       85375000	      8536	80002820	015a14b3	sll	x9,x20,x21	 x20:0x00000000 x21:0xe45e735e  x9=0x00000000
       85385000	      8537	80002824	2844cc93	xori	x25,x9,644	  x9:0x00000000 x25=0x00000284
       85395000	      8538	80002828	1a6006b7	lui	x13,0x1a600	 x13=0x1a600000
       85405000	      8539	8000282c	01161233	sll	x4,x12,x17	 x12:0x80009f4c x17:0x00000001  x4=0x00013e98
       85415000	      8540	80002830	408483b3	sub	x7,x9,x8	  x9:0x00000000  x8:0x00000000  x7=0x00000000
       85425000	      8541	80002834	1cb54393	xori	x7,x10,459	 x10:0x00722f48  x7=0x00722e83
       85435000	      8542	80002838	8cf068b7	lui	x17,0x8cf06	 x17=0x8cf06000
       85445000	      8543	8000283c	00537863	bgeu	x6,x5,8000284c	  x6:0x00000149  x5:0x00000000
       85455000	      8544	00000000	00000013	addi	x0,x0,0	  x0:0x00000000
       85465000	      8545	80002848	00000013	addi	x0,x0,0	  x0:0x00000000
       85475000	      8546	8000284c	00edcc63	blt	x27,x14,80002864	 x27:0xfffffcf5 x14:0x00000000
       85485000	      8547	00000000	00000013	addi	x0,x0,0	  x0:0x00000000
       85495000	      8548	80002860	00000013	addi	x0,x0,0	  x0:0x00000000
       85505000	      8549	80002864	03998863	beq	x19,x25,80002894	 x19:0x00000001 x25:0x00000284
       85515000	      8550	80002868	035d7263	bgeu	x26,x21,8000288c	 x26:0x80009f4c x21:0xe45e735e
       85525000	      8551	8000286c	005d7ab3	and	x21,x26,x5	 x26:0x80009f4c  x5:0x00000000 x21=0x00000000
       85535000	      8552	80002870	05e6c863	blt	x13,x30,800028c0	 x13:0x1a600000 x30:0x8000a574
       85545000	      8553	80002874	97367913	andi	x18,x12,-1677	 x12:0x80009f4c x18=0x80009940
       85555000	      8554	80002878	00bf9b13	slli	x22,x31,0xb	 x31:0x71200760 x22=0x003b0000
       85565000	      8555	8000287c	00677333	and	x6,x14,x6	 x14:0x00000000  x6:0x00000149  x6=0x00000000
       85575000	      8556	80002880	02648863	beq	x9,x6,800028b0	  x9:0x00000000  x6:0x00000000
       85585000	      8557	00000000	00000013	addi	x0,x0,0	  x0:0x00000000
       85595000	      8558	800028ac	00000013	addi	x0,x0,0	  x0:0x00000000
       85605000	      8559	800028b0	0f134737	lui	x14,0xf134	 x14=0x0f134000
       85615000	      8560	800028b4	01ef8663	beq	x31,x30,800028c0	 x31:0x71200760 x30:0x8000a574
       85625000	      8561	800028b8	baa66213	ori	x4,x12,-1110	 x12:0x80009f4c  x4=0xffffffee
       85635000	      8562	800028bc	008f9313	slli	x6,x31,0x8	 x31:0x71200760  x6=0x20076000
       85645000	      8563	800028c0	03e49663	bne	x9,x30,800028ec	  x9:0x00000000 x30:0x8000a574
       85655000	      8564	00000000	00000013	addi	x0,x0,0	  x0:0x00000000
       85665000	      8565	800028e8	00000013	addi	x0,x0,0	  x0:0x00000000
       85675000	      8566	800028ec	400f0f33	sub	x30,x30,x0	 x30:0x8000a574  x0:0x00000000 x30=0x8000a574
       85685000	      8567	800028f0	9bb9c813	xori	x16,x19,-1605	 x19:0x00000001 x16=0xfffff9ba
       85695000	      8568	800028f4	017e29b3	slt	x19,x28,x23	 x28:0x00000000 x23:0x000007c2 x19=0x00000001
       85705000	      8569	800028f8	0126ce33	xor	x28,x13,x18	 x13:0x1a600000 x18:0x80009940 x28=0x9a609940
       85715000	      8570	800028fc	059d4463	blt	x26,x25,80002944	 x26:0x80009f4c x25:0x00000284
       85725000	      8571	00000000	00000013	addi	x0,x0,0	  x0:0x00000000
       85735000	      8572	80002940	00000013	addi	x0,x0,0	  x0:0x00000000
       85745000	      8573	80002944	682b6593	ori	x11,x22,1666	 x22:0x003b0000 x11=0x003b0682
       85755000	      8574	80002948	01f61633	sll	x12,x12,x31	 x12:0x80009f4c x31:0x71200760 x12=0x80009f4c
       85765000	      8575	8000294c	8642b497	auipc	x9,0x8642b	  x9=0x0642d948
       85775000	      8576	80002950	413bd293	srai	x5,x23,0x13	 x23:0x000007c2  x5=0x00000000
       85785000	      8577	80002954	00000013	addi	x0,x0,0	  x0:0x00000000
       85795000	      8578	80002958	61573313	sltiu	x6,x14,1557	 x14:0x0f134000  x6=0x00000000
       85805000	      8579	8000295c	b3943313	sltiu	x6,x8,-1223	  x8:0x00000000  x6=0x00000001
       85815000	      8580	80002960	021ce463	bltu	x25,x1,80002988	 x25:0x00000284  x1:0x00000000
       85825000	      8581	80002964	0008f4b3	and	x9,x17,x0	 x17:0x8cf06000  x0:0x00000000  x9=0x00000000
       85835000	      8582	80002968	01400663	beq	x0,x20,80002974	  x0:0x00000000 x20:0x00000000
       85845000	      8583	00000000	00000013	addi	x0,x0,0	  x0:0x00000000
       85855000	      8584	80002970	00000013	addi	x0,x0,0	  x0:0x00000000
       85865000	      8585	80002974	051e7263	bgeu	x28,x17,800029b8	 x28:0x9a609940 x17:0x8cf06000
       85875000	      8586	00000000	00000013	addi	x0,x0,0	  x0:0x00000000
       85885000	      8587	800029b4	00000013	addi	x0,x0,0	  x0:0x00000000
       85895000	      8588	800029b8	50ac6c13	ori	x24,x24,1290	 x24:0x00000000 x24=0x0000050a
       85905000	      8589	800029bc	f73ac693	xori	x13,x21,-141	 x21:0x00000000 x13=0xffffff73
       85915000	      8590	800029c0	12d20793	addi	x15,x4,301	  x4:0xffffffee x15=0x0000011b
       85925000	      8591	800029c4	5f2f0617	auipc	x12,0x5f2f0	 x12=0xdf2f29c0
       85935000	      8592	800029c8	000a1f13	slli	x30,x20,0x0	 x20:0x00000000 x30=0x00000000
       85945000	      8593	800029cc	010c01b3	add	x3,x24,x16	 x24:0x0000050a x16:0xfffff9ba  x3=0xfffffec4
       85955000	      8594	800029d0	03b9e863	bltu	x19,x27,80002a00	 x19:0x00000001 x27:0xfffffcf5
       85965000	      8595	00000000	00000013	addi	x0,x0,0	  x0:0x00000000
       85975000	      8596	800029fc	00000013	addi	x0,x0,0	  x0:0x00000000
       85985000	      8597	80002a00	c7632f13	slti	x30,x6,-906	  x6:0x00000001 x30=0x00000000
       85995000	      8598	80002a04	00421a13	slli	x20,x4,0x4	  x4:0xffffffee x20=0xfffffee0
       86005000	      8599	80002a08	00000013	addi	x0,x0,0	  x0:0x00000000
       86015000	      8600	80002a0c	056f6463	bltu	x30,x22,80002a54	 x30:0x00000000 x22:0x003b0000
       86025000	      8601	00000000	00000013	addi	x0,x0,0	  x0:0x00000000
       86035000	      8602	80002a50	00000013	addi	x0,x0,0	  x0:0x00000000
       86045000	      8603	80002a54	26fb8c13	addi	x24,x23,623	 x23:0x000007c2 x24=0x00000a31
       86055000	      8604	80002a58	7cd93493	sltiu	x9,x18,1997	 x18:0x80009940  x9=0x00000000
       86065000	      8605	80002a5c	419e5613	srai	x12,x28,0x19	 x28:0x9a609940 x12=0xffffffcd
       86075000	      8606	80002a60	04c68463	beq	x13,x12,80002aa8	 x13:0xffffff73 x12:0xffffffcd
       86085000	      8607	80002a64	015853b3	srl	x7,x16,x21	 x16:0xfffff9ba x21:0x00000000  x7=0xfffff9ba
       86095000	      8608	80002a68	014a27b3	slt	x15,x20,x20	 x20:0xfffffee0 x20:0xfffffee0 x15=0x00000000
       86105000	      8609	80002a6c	031f0663	beq	x30,x17,80002a98	 x30:0x00000000 x17:0x8cf06000
       86115000	      8610	80002a70	03285063	bge	x16,x18,80002a90	 x16:0xfffff9ba x18:0x80009940
       86125000	      8611	00000000	00000013	addi	x0,x0,0	  x0:0x00000000
       86135000	      8612	80002a8c	00000013	addi	x0,x0,0	  x0:0x00000000
       86145000	      8613	80002a90	81190f13	addi	x30,x18,-2031	 x18:0x80009940 x30=0x80009151
       86155000	      8614	80002a94	00e459b3	srl	x19,x8,x14	  x8:0x00000000 x14:0x0f134000 x19=0x00000000
       86165000	      8615	80002a98	025ad863	bge	x21,x5,80002ac8	 x21:0x00000000  x5:0x00000000
       86175000	      8616	00000000	00000013	addi	x0,x0,0	  x0:0x00000000
       86185000	      8617	80002ac4	00000013	addi	x0,x0,0	  x0:0x00000000
       86195000	      8618	80002ac8	023e9c63	bne	x29,x3,80002b00	 x29:0xf22f49ae  x3:0xfffffec4
       86205000	      8619	00000000	00000013	addi	x0,x0,0	  x0:0x00000000
       86215000	      8620	80002afc	00000013	addi	x0,x0,0	  x0:0x00000000
       86225000	      8621	80002b00	00521c63	bne	x4,x5,80002b18	  x4:0xffffffee  x5:0x00000000
       86235000	      8622	00000000	00000013	addi	x0,x0,0	  x0:0x00000000
       86245000	      8623	80002b14	00000013	addi	x0,x0,0	  x0:0x00000000
       86255000	      8624	80002b18	01121a13	slli	x20,x4,0x11	  x4:0xffffffee x20=0xffdc0000
       86265000	      8625	80002b1c	40065c13	srai	x24,x12,0x0	 x12:0xffffffcd x24=0xffffffcd
       86275000	      8626	80002b20	5f12ba97	auipc	x21,0x5f12b	 x21=0xdf12db1c
       86285000	      8627	80002b24	0299d663	bge	x19,x9,80002b50	 x19:0x00000000  x9:0x00000000
       86295000	      8628	00000000	00000013	addi	x0,x0,0	  x0:0x00000000
       86305000	      8629	80002b4c	00000013	addi	x0,x0,0	  x0:0x00000000
       86315000	      8630	80002b50	01808263	beq	x1,x24,80002b54	  x1:0x00000000 x24:0xffffffcd
       86325000	      8631	80002b54	b99e6717	auipc	x14,0xb99e6	 x14=0x399e8b50
       86335000	      8632	80002b58	05ec0263	beq	x24,x30,80002b9c	 x24:0xffffffcd x30:0x80009151
       86345000	      8633	80002b5c	0009e5b3	or	x11,x19,x0	 x19:0x00000000  x0:0x00000000 x11=0x00000000
       86355000	      8634	80002b60	b5812913	slti	x18,x2,-1192	  x2:0x80009fc4 x18=0x00000001
       86365000	      8635	80002b64	e4e62413	slti	x8,x12,-434	 x12:0xffffffcd  x8=0x00000000
       86375000	      8636	80002b68	03215663	bge	x2,x18,80002b94	  x2:0x80009fc4 x18:0x00000001
       86385000	      8637	80002b6c	00db5593	srli	x11,x22,0xd	 x22:0x003b0000 x11=0x000001d8
       86395000	      8638	80002b70	002dd833	srl	x16,x27,x2	 x27:0xfffffcf5  x2:0x80009fc4 x16=0x0fffffcf
       86405000	      8639	80002b74	411f8db3	sub	x27,x31,x17	 x31:0x71200760 x17:0x8cf06000 x27=0xe42fa760
       86415000	      8640	80002b78	010565b3	or	x11,x10,x16	 x10:0x00722f48 x16:0x0fffffcf x11=0x0fffffcf
       86425000	      8641	80002b7c	02df6463	bltu	x30,x13,80002ba4	 x30:0x80009151 x13:0xffffff73
       86435000	      8642	00000000	00000013	addi	x0,x0,0	  x0:0x00000000
       86445000	      8643	80002ba0	00000013	addi	x0,x0,0	  x0:0x00000000
       86455000	      8644	80002ba4	01b3efb3	or	x31,x7,x27	  x7:0xfffff9ba x27:0xe42fa760 x31=0xfffffffa
       86465000	      8645	80002ba8	0100036f	jal	x6,80002ba8	  x6=0x80002ba8
       86475000	      8646	00000000	00000013	addi	x0,x0,0	  x0:0x00000000
       86485000	      8647	80002bb4	00000013	addi	x0,x0,0	  x0:0x00000000
       86495000	      8648	80002bb8	ff9ff0ef	jal	x1,80002bb8	  x1=0x80002bb8
       86505000	      8649	00000000	00000013	addi	x0,x0,0	  x0:0x00000000
       86515000	      8650	80002bac	00000013	addi	x0,x0,0	  x0:0x00000000
       86525000	      8651	80002bb0	018000ef	jal	x1,80002bb0	  x1=0x80002bb0
       86535000	      8652	00000000	00000013	addi	x0,x0,0	  x0:0x00000000
       86545000	      8653	80002bc4	00000013	addi	x0,x0,0	  x0:0x00000000
       86555000	      8654	80002bc8	028002ef	jal	x5,80002bc8	  x5=0x80002bc8
       86565000	      8655	00000000	00000013	addi	x0,x0,0	  x0:0x00000000
       86575000	      8656	80002bec	00000013	addi	x0,x0,0	  x0:0x00000000
       86585000	      8657	80002bf0	fd5ff0ef	jal	x1,80002bf0	  x1=0x80002bf0
       86595000	      8658	00000000	00000013	addi	x0,x0,0	  x0:0x00000000
       86605000	      8659	80002bc0	00000013	addi	x0,x0,0	  x0:0x00000000
       86615000	      8660	80002bc4	01c00cef	jal	x25,80002bc4	 x25=0x80002bc4
       86625000	      8661	00000000	00000013	addi	x0,x0,0	  x0:0x00000000
       86635000	      8662	80002bdc	00000013	addi	x0,x0,0	  x0:0x00000000
       86645000	      8663	80002be0	00c0036f	jal	x6,80002be0	  x6=0x80002be0
       86655000	      8664	00000000	00000013	addi	x0,x0,0	  x0:0x00000000
       86665000	      8665	80002be8	00000013	addi	x0,x0,0	  x0:0x00000000
       86675000	      8666	80002bec	fc1ff0ef	jal	x1,80002bec	  x1=0x80002bec
       86685000	      8667	00000000	00000013	addi	x0,x0,0	  x0:0x00000000
       86695000	      8668	80002ba8	00000013	addi	x0,x0,0	  x0:0x00000000
       86705000	      8669	80002bac	014000ef	jal	x1,80002bac	  x1=0x80002bac
       86715000	      8670	00000000	00000013	addi	x0,x0,0	  x0:0x00000000
       86725000	      8671	80002bbc	00000013	addi	x0,x0,0	  x0:0x00000000
       86735000	      8672	80002bc0	024000ef	jal	x1,80002bc0	  x1=0x80002bc0
       86745000	      8673	00000000	00000013	addi	x0,x0,0	  x0:0x00000000
       86755000	      8674	80002be0	00000013	addi	x0,x0,0	  x0:0x00000000
       86765000	      8675	80002be4	01c00b6f	jal	x22,80002be4	 x22=0x80002be4
       86775000	      8676	00000000	00000013	addi	x0,x0,0	  x0:0x00000000
       86785000	      8677	80002bfc	00000013	addi	x0,x0,0	  x0:0x00000000
       86795000	      8678	80002c00	fbdff0ef	jal	x1,80002c00	  x1=0x80002c00
       86805000	      8679	00000000	00000013	addi	x0,x0,0	  x0:0x00000000
       86815000	      8680	80002bb8	00000013	addi	x0,x0,0	  x0:0x00000000
       86825000	      8681	80002bbc	03c000ef	jal	x1,80002bbc	  x1=0x80002bbc
       86835000	      8682	00000000	00000013	addi	x0,x0,0	  x0:0x00000000
       86845000	      8683	80002bf4	00000013	addi	x0,x0,0	  x0:0x00000000
       86855000	      8684	80002bf8	00c00b6f	jal	x22,80002bf8	 x22=0x80002bf8
       86865000	      8685	00000000	00000013	addi	x0,x0,0	  x0:0x00000000
       86875000	      8686	80002c00	00000013	addi	x0,x0,0	  x0:0x00000000
       86885000	      8687	80002c04	fe5ff0ef	jal	x1,80002c04	  x1=0x80002c04
       86895000	      8688	00000000	00000013	addi	x0,x0,0	  x0:0x00000000
       86905000	      8689	80002be4	00000013	addi	x0,x0,0	  x0:0x00000000
       86915000	      8690	80002be8	ff5ff1ef	jal	x3,80002be8	  x3=0x80002be8
       86925000	      8691	00000000	00000013	addi	x0,x0,0	  x0:0x00000000
       86935000	      8692	80002bd8	00000013	addi	x0,x0,0	  x0:0x00000000
       86945000	      8693	80002bdc	ff9ffb6f	jal	x22,80002bdc	 x22=0x80002bdc
       86955000	      8694	00000000	00000013	addi	x0,x0,0	  x0:0x00000000
       86965000	      8695	80002bd0	00000013	addi	x0,x0,0	  x0:0x00000000
       86975000	      8696	80002bd4	0040056f	jal	x10,80002bd4	 x10=0x80002bd4
       86985000	      8697	00000000	00000013	addi	x0,x0,0	  x0:0x00000000
       86995000	      8698	80002bd4	00000013	addi	x0,x0,0	  x0:0x00000000
       87005000	      8699	80002bd8	ff9ff2ef	jal	x5,80002bd8	  x5=0x80002bd8
       87015000	      8700	00000000	00000013	addi	x0,x0,0	  x0:0x00000000
       87025000	      8701	80002bcc	00000013	addi	x0,x0,0	  x0:0x00000000
       87035000	      8702	80002bd0	0240036f	jal	x6,80002bd0	  x6=0x80002bd0
       87045000	      8703	00000000	00000013	addi	x0,x0,0	  x0:0x00000000
       87055000	      8704	80002bf0	00000013	addi	x0,x0,0	  x0:0x00000000
       87065000	      8705	80002bf4	fc1ffcef	jal	x25,80002bf4	 x25=0x80002bf4
       87075000	      8706	00000000	00000013	addi	x0,x0,0	  x0:0x00000000
       87085000	      8707	80002bb0	00000013	addi	x0,x0,0	  x0:0x00000000
       87095000	      8708	80002bb4	048002ef	jal	x5,80002bb4	  x5=0x80002bb4
       87105000	      8709	00000000	00000013	addi	x0,x0,0	  x0:0x00000000
       87115000	      8710	80002bf8	00000013	addi	x0,x0,0	  x0:0x00000000
       87125000	      8711	80002bfc	fd1ff0ef	jal	x1,80002bfc	  x1=0x80002bfc
       87135000	      8712	00000000	00000013	addi	x0,x0,0	  x0:0x00000000
       87145000	      8713	80002bc8	00000013	addi	x0,x0,0	  x0:0x00000000
       87155000	      8714	80002bcc	03c000ef	jal	x1,80002bcc	  x1=0x80002bcc
       87165000	      8715	00000000	00000013	addi	x0,x0,0	  x0:0x00000000
       87175000	      8716	80002c04	00000013	addi	x0,x0,0	  x0:0x00000000
       87185000	      8717	80002c08	33d33017	auipc	x0,0x33d33	
       87195000	      8718	80002c0c	05ef4063	blt	x30,x30,80002c4c	 x30:0x80009151 x30:0x80009151
       87205000	      8719	80002c10	00000013	addi	x0,x0,0	  x0:0x00000000
       87215000	      8720	80002c14	00000013	addi	x0,x0,0	  x0:0x00000000
       87225000	      8721	80002c18	467bf013	andi	x0,x23,1127	 x23:0x000007c2
       87235000	      8722	80002c1c	00913433	sltu	x8,x2,x9	  x2:0x80009fc4  x9:0x00000000  x8=0x00000000
       87245000	      8723	80002c20	5e3c7013	andi	x0,x24,1507	 x24:0xffffffcd
       87255000	      8724	80002c24	01ac4263	blt	x24,x26,80002c28	 x24:0xffffffcd x26:0x80009f4c
       87265000	      8725	80002c28	64d72c97	auipc	x25,0x64d72	 x25=0xe4d74c24
       87275000	      8726	80002c2c	0481f863	bgeu	x3,x8,80002c7c	  x3:0x80002be8  x8:0x00000000
       87285000	      8727	00000000	00000013	addi	x0,x0,0	  x0:0x00000000
       87295000	      8728	80002c78	00000013	addi	x0,x0,0	  x0:0x00000000
       87305000	      8729	80002c7c	00000013	addi	x0,x0,0	  x0:0x00000000
       87315000	      8730	80002c80	01a40833	add	x16,x8,x26	  x8:0x00000000 x26:0x80009f4c x16=0x80009f4c
       87325000	      8731	80002c84	01409f33	sll	x30,x1,x20	  x1:0x80002bcc x20:0xffdc0000 x30=0x80002bcc
       87335000	      8732	80002c88	04456663	bltu	x10,x4,80002cd4	 x10:0x80002bd4  x4:0xffffffee
       87345000	      8733	00000000	00000013	addi	x0,x0,0	  x0:0x00000000
       87355000	      8734	80002cd0	00000013	addi	x0,x0,0	  x0:0x00000000
       87365000	      8735	80002cd4	25cfe513	ori	x10,x31,604	 x31:0xfffffffa x10=0xfffffffe
       87375000	      8736	80002cd8	413b5693	srai	x13,x22,0x13	 x22:0x80002bdc x13=0xfffff000
       87385000	      8737	80002cdc	10628893	addi	x17,x5,262	  x5:0x80002bb4 x17=0x80002cba
       87395000	      8738	80002ce0	00a64263	blt	x12,x10,80002ce4	 x12:0xffffffcd x10:0xfffffffe
       87405000	      8739	00000000	00000013	addi	x0,x0,0	  x0:0x00000000
       87415000	      8740	80002ce0	00000013	addi	x0,x0,0	  x0:0x00000000
       87425000	      8741	80002ce4	7c4bfb93	andi	x23,x23,1988	 x23:0x000007c2 x23=0x000007c0
       87435000	      8742	80002ce8	c827fc13	andi	x24,x15,-894	 x15:0x00000000 x24=0x00000000
       87445000	      8743	80002cec	1c30aab7	lui	x21,0x1c30a	 x21=0x1c30a000
       87455000	      8744	80002cf0	408ad1b3	sra	x3,x21,x8	 x21:0x1c30a000  x8:0x00000000  x3=0x1c30a000
       87465000	      8745	80002cf4	01ac04b3	add	x9,x24,x26	 x24:0x00000000 x26:0x80009f4c  x9=0x80009f4c
       87475000	      8746	80002cf8	408480b3	sub	x1,x9,x8	  x9:0x80009f4c  x8:0x00000000  x1=0x80009f4c
       87485000	      8747	80002cfc	014a7f33	and	x30,x20,x20	 x20:0xffdc0000 x20:0xffdc0000 x30=0xffdc0000
       87495000	      8748	80002d00	008e0c63	beq	x28,x8,80002d18	 x28:0x9a609940  x8:0x00000000
       87505000	      8749	80002d04	0029d793	srli	x15,x19,0x2	 x19:0x00000000 x15=0x00000000
       87515000	      8750	80002d08	03fc0263	beq	x24,x31,80002d2c	 x24:0x00000000 x31:0xfffffffa
       87525000	      8751	80002d0c	41495a13	srai	x20,x18,0x14	 x18:0x00000001 x20=0x00000000
       87535000	      8752	80002d10	00ef6633	or	x12,x30,x14	 x30:0xffdc0000 x14:0x399e8b50 x12=0xffde8b50
       87545000	      8753	80002d14	0154d293	srli	x5,x9,0x15	  x9:0x80009f4c  x5=0x00000400
       87555000	      8754	80002d18	40ad8db3	sub	x27,x27,x10	 x27:0xe42fa760 x10:0xfffffffe x27=0xe42fa762
       87565000	      8755	80002d1c	720e6213	ori	x4,x28,1824	 x28:0x9a609940  x4=0x9a609f60
       87575000	      8756	80002d20	02004863	blt	x0,x0,80002d50	  x0:0x00000000  x0:0x00000000
       87585000	      8757	80002d24	4025db33	sra	x22,x11,x2	 x11:0x0fffffcf  x2:0x80009fc4 x22=0x00fffffc
       87595000	      8758	80002d28	03697663	bgeu	x18,x22,80002d54	 x18:0x00000001 x22:0x00fffffc
       87605000	      8759	80002d2c	04cb7463	bgeu	x22,x12,80002d74	 x22:0x00fffffc x12:0xffde8b50
       87615000	      8760	80002d30	01952533	slt	x10,x10,x25	 x10:0xfffffffe x25:0xe4d74c24 x10=0x00000000
       87625000	      8761	80002d34	006b5093	srli	x1,x22,0x6	 x22:0x00fffffc  x1=0x0003ffff
       87635000	      8762	80002d38	01f60a63	beq	x12,x31,80002d4c	 x12:0xffde8b50 x31:0xfffffffa
       87645000	      8763	80002d3c	01cc0933	add	x18,x24,x28	 x24:0x00000000 x28:0x9a609940 x18=0x9a609940
       87655000	      8764	80002d40	00b47233	and	x4,x8,x11	  x8:0x00000000 x11:0x0fffffcf  x4=0x00000000
       87665000	      8765	80002d44	1aabcb17	auipc	x22,0x1aabc	 x22=0x9aabed40
       87675000	      8766	80002d48	eb080913	addi	x18,x16,-336	 x16:0x80009f4c x18=0x80009dfc
       87685000	      8767	80002d4c	ac967793	andi	x15,x12,-1335	 x12:0xffde8b50 x15=0xffde8a40
       87695000	      8768	80002d50	01219013	slli	x0,x3,0x12	  x3:0x1c30a000
       87705000	      8769	80002d54	001d5033	srl	x0,x26,x1	 x26:0x80009f4c  x1:0x0003ffff
       87715000	      8770	80002d58	94268f97	auipc	x31,0x94268	 x31=0x1426ad54
       87725000	      8771	80002d5c	0028eb33	or	x22,x17,x2	 x17:0x80002cba  x2:0x80009fc4 x22=0x8000bffe
       87735000	      8772	80002d60	03e1e863	bltu	x3,x30,80002d90	  x3:0x1c30a000 x30:0xffdc0000
       87745000	      8773	00000000	00000013	addi	x0,x0,0	  x0:0x00000000
       87755000	      8774	80002d8c	00000013	addi	x0,x0,0	  x0:0x00000000
       87765000	      8775	80002d90	00000013	addi	x0,x0,0	  x0:0x00000000
       87775000	      8776	80002d94	0035d263	bge	x11,x3,80002d98	 x11:0x0fffffcf  x3:0x1c30a000
       87785000	      8777	80002d98	be4ab593	sltiu	x11,x21,-1052	 x21:0x1c30a000 x11=0x00000001
       87795000	      8778	80002d9c	454f2437	lui	x8,0x454f2	  x8=0x454f2000
       87805000	      8779	80002da0	0036b433	sltu	x8,x13,x3	 x13:0xfffff000  x3:0x1c30a000  x8=0x00000000
       87815000	      8780	80002da4	02f54863	blt	x10,x15,80002dd4	 x10:0x00000000 x15:0xffde8a40
       87825000	      8781	80002da8	00fc26b3	slt	x13,x24,x15	 x24:0x00000000 x15:0xffde8a40 x13=0x00000000
       87835000	      8782	80002dac	015c0833	add	x16,x24,x21	 x24:0x00000000 x21:0x1c30a000 x16=0x1c30a000
       87845000	      8783	80002db0	00381013	slli	x0,x16,0x3	 x16:0x1c30a000
       87855000	      8784	80002db4	00a1ec63	bltu	x3,x10,80002dcc	  x3:0x1c30a000 x10:0x00000000
       87865000	      8785	80002db8	002eb333	sltu	x6,x29,x2	 x29:0xf22f49ae  x2:0x80009fc4  x6=0x00000000
       87875000	      8786	80002dbc	0189d893	srli	x17,x19,0x18	 x19:0x00000000 x17=0x00000000
       87885000	      8787	80002dc0	04af8863	beq	x31,x10,80002e10	 x31:0x1426ad54 x10:0x00000000
       87895000	      8788	80002dc4	6a933d93	sltiu	x27,x6,1705	  x6:0x00000000 x27=0x00000001
       87905000	      8789	80002dc8	00d14663	blt	x2,x13,80002dd4	  x2:0x80009fc4 x13:0x00000000
       87915000	      8790	00000000	00000013	addi	x0,x0,0	  x0:0x00000000
       87925000	      8791	80002dd0	00000013	addi	x0,x0,0	  x0:0x00000000
       87935000	      8792	80002dd4	41c70cb3	sub	x25,x14,x28	 x14:0x399e8b50 x28:0x9a609940 x25=0x9f3df210
       87945000	      8793	80002dd8	02379263	bne	x15,x3,80002dfc	 x15:0xffde8a40  x3:0x1c30a000
       87955000	      8794	00000000	00000013	addi	x0,x0,0	  x0:0x00000000
       87965000	      8795	80002df8	00000013	addi	x0,x0,0	  x0:0x00000000
       87975000	      8796	80002dfc	9b223893	sltiu	x17,x4,-1614	  x4:0x00000000 x17=0x00000001
       87985000	      8797	80002e00	01bc7a63	bgeu	x24,x27,80002e14	 x24:0x00000000 x27:0x00000001
       87995000	      8798	80002e04	00201533	sll	x10,x0,x2	  x0:0x00000000  x2:0x80009fc4 x10=0x00000000
       88005000	      8799	80002e08	410d8e33	sub	x28,x27,x16	 x27:0x00000001 x16:0x1c30a000 x28=0xe3cf6001
       88015000	      8800	80002e0c	03c55663	bge	x10,x28,80002e38	 x10:0x00000000 x28:0xe3cf6001
       88025000	      8801	00000000	00000013	addi	x0,x0,0	  x0:0x00000000
       88035000	      8802	80002e34	00000013	addi	x0,x0,0	  x0:0x00000000
       88045000	      8803	80002e38	028b1063	bne	x22,x8,80002e58	 x22:0x8000bffe  x8:0x00000000
       88055000	      8804	00000000	00000013	addi	x0,x0,0	  x0:0x00000000
       88065000	      8805	80002e54	00000013	addi	x0,x0,0	  x0:0x00000000
       88075000	      8806	80002e58	004e9db3	sll	x27,x29,x4	 x29:0xf22f49ae  x4:0x00000000 x27=0xf22f49ae
       88085000	      8807	80002e5c	40dc5713	srai	x14,x24,0xd	 x24:0x00000000 x14=0x00000000
       88095000	      8808	80002e60	58b48613	addi	x12,x9,1419	  x9:0x80009f4c x12=0x8000a4d7
       88105000	      8809	80002e64	004d2303	lw	x6,4(x26)	 x26:0x80009f4c  x6=0x800031ac PA:0x80009f50
       88115000	      8810	80002e68	00c57733	and	x14,x10,x12	 x10:0x00000000 x12:0x8000a4d7 x14=0x00000000
       88125000	      8811	80002e6c	babc3c13	sltiu	x24,x24,-1109	 x24:0x00000000 x24=0x00000001
       88135000	      8812	80002e70	014d1b13	slli	x22,x26,0x14	 x26:0x80009f4c x22=0xf4c00000
       88145000	      8813	80002e74	408a0033	sub	x0,x20,x8	 x20:0x00000000  x8:0x00000000
       88155000	      8814	80002e78	008d0d13	addi	x26,x26,8	 x26:0x80009f4c x26=0x80009f54
       88165000	      8815	80002e7c	f956c0b7	lui	x1,0xf956c	  x1=0xf956c000
       88175000	      8816	80002e80	00030b93	addi	x23,x6,0	  x6:0x800031ac x23=0x800031ac
       88185000	      8817	80002e84	000b8be7	jalr	x23,x23,0	 x23:0x800031ac x23=0x80002e84
       88195000	      8818	00000000	00000013	addi	x0,x0,0	  x0:0x00000000
       88205000	      8819	800031ac	00000013	addi	x0,x0,0	  x0:0x00000000
       88215000	      8820	800031b0	0380036f	jal	x6,800031b0	  x6=0x800031b0
       88225000	      8821	00000000	00000013	addi	x0,x0,0	  x0:0x00000000
       88235000	      8822	800031e4	00000013	addi	x0,x0,0	  x0:0x00000000
       88245000	      8823	800031e8	fd9ff0ef	jal	x1,800031e8	  x1=0x800031e8
       88255000	      8824	00000000	00000013	addi	x0,x0,0	  x0:0x00000000
       88265000	      8825	800031bc	00000013	addi	x0,x0,0	  x0:0x00000000
       88275000	      8826	800031c0	03c000ef	jal	x1,800031c0	  x1=0x800031c0
       88285000	      8827	00000000	00000013	addi	x0,x0,0	  x0:0x00000000
       88295000	      8828	800031f8	00000013	addi	x0,x0,0	  x0:0x00000000
       88305000	      8829	800031fc	004000ef	jal	x1,800031fc	  x1=0x800031fc
       88315000	      8830	00000000	00000013	addi	x0,x0,0	  x0:0x00000000
       88325000	      8831	800031fc	00000013	addi	x0,x0,0	  x0:0x00000000
       88335000	      8832	80003200	fd5ff0ef	jal	x1,80003200	  x1=0x80003200
       88345000	      8833	00000000	00000013	addi	x0,x0,0	  x0:0x00000000
       88355000	      8834	800031d0	00000013	addi	x0,x0,0	  x0:0x00000000
       88365000	      8835	800031d4	00800f6f	jal	x30,800031d4	 x30=0x800031d4
       88375000	      8836	00000000	00000013	addi	x0,x0,0	  x0:0x00000000
       88385000	      8837	800031d8	00000013	addi	x0,x0,0	  x0:0x00000000
       88395000	      8838	800031dc	ff1ffc6f	jal	x24,800031dc	 x24=0x800031dc
       88405000	      8839	00000000	00000013	addi	x0,x0,0	  x0:0x00000000
       88415000	      8840	800031c8	00000013	addi	x0,x0,0	  x0:0x00000000
       88425000	      8841	800031cc	048004ef	jal	x9,800031cc	  x9=0x800031cc
       88435000	      8842	00000000	00000013	addi	x0,x0,0	  x0:0x00000000
       88445000	      8843	80003210	00000013	addi	x0,x0,0	  x0:0x00000000
       88455000	      8844	80003214	fddff0ef	jal	x1,80003214	  x1=0x80003214
       88465000	      8845	00000000	00000013	addi	x0,x0,0	  x0:0x00000000
       88475000	      8846	800031ec	00000013	addi	x0,x0,0	  x0:0x00000000
       88485000	      8847	800031f0	0080036f	jal	x6,800031f0	  x6=0x800031f0
       88495000	      8848	00000000	00000013	addi	x0,x0,0	  x0:0x00000000
       88505000	      8849	800031f4	00000013	addi	x0,x0,0	  x0:0x00000000
       88515000	      8850	800031f8	fcdff0ef	jal	x1,800031f8	  x1=0x800031f8
       88525000	      8851	00000000	00000013	addi	x0,x0,0	  x0:0x00000000
       88535000	      8852	800031c0	00000013	addi	x0,x0,0	  x0:0x00000000
       88545000	      8853	800031c4	00c000ef	jal	x1,800031c4	  x1=0x800031c4
       88555000	      8854	00000000	00000013	addi	x0,x0,0	  x0:0x00000000
       88565000	      8855	800031cc	00000013	addi	x0,x0,0	  x0:0x00000000
       88575000	      8856	800031d0	fe9ff0ef	jal	x1,800031d0	  x1=0x800031d0
       88585000	      8857	00000000	00000013	addi	x0,x0,0	  x0:0x00000000
       88595000	      8858	800031b4	00000013	addi	x0,x0,0	  x0:0x00000000
       88605000	      8859	800031b8	0040076f	jal	x14,800031b8	 x14=0x800031b8
       88615000	      8860	00000000	00000013	addi	x0,x0,0	  x0:0x00000000
       88625000	      8861	800031b8	00000013	addi	x0,x0,0	  x0:0x00000000
       88635000	      8862	800031bc	050000ef	jal	x1,800031bc	  x1=0x800031bc
       88645000	      8863	00000000	00000013	addi	x0,x0,0	  x0:0x00000000
       88655000	      8864	80003208	00000013	addi	x0,x0,0	  x0:0x00000000
       88665000	      8865	8000320c	ff9ff0ef	jal	x1,8000320c	  x1=0x8000320c
       88675000	      8866	00000000	00000013	addi	x0,x0,0	  x0:0x00000000
       88685000	      8867	80003200	00000013	addi	x0,x0,0	  x0:0x00000000
       88695000	      8868	80003204	ff1ff76f	jal	x14,80003204	 x14=0x80003204
       88705000	      8869	00000000	00000013	addi	x0,x0,0	  x0:0x00000000
       88715000	      8870	800031f0	00000013	addi	x0,x0,0	  x0:0x00000000
       88725000	      8871	800031f4	01c0036f	jal	x6,800031f4	  x6=0x800031f4
       88735000	      8872	00000000	00000013	addi	x0,x0,0	  x0:0x00000000
       88745000	      8873	8000320c	00000013	addi	x0,x0,0	  x0:0x00000000
       88755000	      8874	80003210	fd5ff0ef	jal	x1,80003210	  x1=0x80003210
       88765000	      8875	00000000	00000013	addi	x0,x0,0	  x0:0x00000000
       88775000	      8876	800031e0	00000013	addi	x0,x0,0	  x0:0x00000000
       88785000	      8877	800031e4	fd1ff36f	jal	x6,800031e4	  x6=0x800031e4
       88795000	      8878	00000000	00000013	addi	x0,x0,0	  x0:0x00000000
       88805000	      8879	800031b0	00000013	addi	x0,x0,0	  x0:0x00000000
       88815000	      8880	800031b4	054005ef	jal	x11,800031b4	 x11=0x800031b4
       88825000	      8881	00000000	00000013	addi	x0,x0,0	  x0:0x00000000
       88835000	      8882	80003204	00000013	addi	x0,x0,0	  x0:0x00000000
       88845000	      8883	80003208	fd1ff0ef	jal	x1,80003208	  x1=0x80003208
       88855000	      8884	00000000	00000013	addi	x0,x0,0	  x0:0x00000000
       88865000	      8885	800031d4	00000013	addi	x0,x0,0	  x0:0x00000000
       88875000	      8886	800031d8	0080036f	jal	x6,800031d8	  x6=0x800031d8
       88885000	      8887	00000000	00000013	addi	x0,x0,0	  x0:0x00000000
       88895000	      8888	800031dc	00000013	addi	x0,x0,0	  x0:0x00000000
       88905000	      8889	800031e0	00c000ef	jal	x1,800031e0	  x1=0x800031e0
       88915000	      8890	00000000	00000013	addi	x0,x0,0	  x0:0x00000000
       88925000	      8891	800031e8	00000013	addi	x0,x0,0	  x0:0x00000000
       88935000	      8892	800031ec	fddff0ef	jal	x1,800031ec	  x1=0x800031ec
       88945000	      8893	00000000	00000013	addi	x0,x0,0	  x0:0x00000000
       88955000	      8894	800031c4	00000013	addi	x0,x0,0	  x0:0x00000000
       88965000	      8895	800031c8	0500036f	jal	x6,800031c8	  x6=0x800031c8
       88975000	      8896	00000000	00000013	addi	x0,x0,0	  x0:0x00000000
       88985000	      8897	80003214	00000013	addi	x0,x0,0	  x0:0x00000000
       88995000	      8898	80003218	016076b3	and	x13,x0,x22	  x0:0x00000000 x22:0xf4c00000 x13=0x00000000
       89005000	      8899	8000321c	01c0036f	jal	x6,8000321c	  x6=0x8000321c
       89015000	      8900	00000000	00000013	addi	x0,x0,0	  x0:0x00000000
       89025000	      8901	80003234	00000013	addi	x0,x0,0	  x0:0x00000000
       89035000	      8902	80003238	008000ef	jal	x1,80003238	  x1=0x80003238
       89045000	      8903	00000000	00000013	addi	x0,x0,0	  x0:0x00000000
       89055000	      8904	8000323c	00000013	addi	x0,x0,0	  x0:0x00000000
       89065000	      8905	80003240	fe5ffe6f	jal	x28,80003240	 x28=0x80003240
       89075000	      8906	00000000	00000013	addi	x0,x0,0	  x0:0x00000000
       89085000	      8907	80003220	00000013	addi	x0,x0,0	  x0:0x00000000
       89095000	      8908	80003224	020000ef	jal	x1,80003224	  x1=0x80003224
       89105000	      8909	00000000	00000013	addi	x0,x0,0	  x0:0x00000000
       89115000	      8910	80003240	00000013	addi	x0,x0,0	  x0:0x00000000
       89125000	      8911	80003244	fedff4ef	jal	x9,80003244	  x9=0x80003244
       89135000	      8912	00000000	00000013	addi	x0,x0,0	  x0:0x00000000
       89145000	      8913	8000322c	00000013	addi	x0,x0,0	  x0:0x00000000
       89155000	      8914	80003230	ff1ff2ef	jal	x5,80003230	  x5=0x80003230
       89165000	      8915	00000000	00000013	addi	x0,x0,0	  x0:0x00000000
       89175000	      8916	8000321c	00000013	addi	x0,x0,0	  x0:0x00000000
       89185000	      8917	80003220	00c000ef	jal	x1,80003220	  x1=0x80003220
       89195000	      8918	00000000	00000013	addi	x0,x0,0	  x0:0x00000000
       89205000	      8919	80003228	00000013	addi	x0,x0,0	  x0:0x00000000
       89215000	      8920	8000322c	0080036f	jal	x6,8000322c	  x6=0x8000322c
       89225000	      8921	00000000	00000013	addi	x0,x0,0	  x0:0x00000000
       89235000	      8922	80003230	00000013	addi	x0,x0,0	  x0:0x00000000
       89245000	      8923	80003234	ff5ff46f	jal	x8,80003234	  x8=0x80003234
       89255000	      8924	00000000	00000013	addi	x0,x0,0	  x0:0x00000000
       89265000	      8925	80003224	00000013	addi	x0,x0,0	  x0:0x00000000
       89275000	      8926	80003228	014000ef	jal	x1,80003228	  x1=0x80003228
       89285000	      8927	00000000	00000013	addi	x0,x0,0	  x0:0x00000000
       89295000	      8928	80003238	00000013	addi	x0,x0,0	  x0:0x00000000
       89305000	      8929	8000323c	00c000ef	jal	x1,8000323c	  x1=0x8000323c
       89315000	      8930	00000000	00000013	addi	x0,x0,0	  x0:0x00000000
       89325000	      8931	80003244	00000013	addi	x0,x0,0	  x0:0x00000000
       89335000	      8932	80003248	18a3b293	sltiu	x5,x7,394	  x7:0xfffff9ba  x5=0x00000000
       89345000	      8933	8000324c	0200036f	jal	x6,8000324c	  x6=0x8000324c
       89355000	      8934	00000000	00000013	addi	x0,x0,0	  x0:0x00000000
       89365000	      8935	80003268	00000013	addi	x0,x0,0	  x0:0x00000000
       89375000	      8936	8000326c	004000ef	jal	x1,8000326c	  x1=0x8000326c
       89385000	      8937	00000000	00000013	addi	x0,x0,0	  x0:0x00000000
       89395000	      8938	8000326c	00000013	addi	x0,x0,0	  x0:0x00000000
       89405000	      8939	80003270	ff9ff36f	jal	x6,80003270	  x6=0x80003270
       89415000	      8940	00000000	00000013	addi	x0,x0,0	  x0:0x00000000
       89425000	      8941	80003264	00000013	addi	x0,x0,0	  x0:0x00000000
       89435000	      8942	80003268	010000ef	jal	x1,80003268	  x1=0x80003268
       89445000	      8943	00000000	00000013	addi	x0,x0,0	  x0:0x00000000
       89455000	      8944	80003274	00000013	addi	x0,x0,0	  x0:0x00000000
       89465000	      8945	80003278	fe5ffcef	jal	x25,80003278	 x25=0x80003278
       89475000	      8946	00000000	00000013	addi	x0,x0,0	  x0:0x00000000
       89485000	      8947	80003258	00000013	addi	x0,x0,0	  x0:0x00000000
       89495000	      8948	8000325c	018000ef	jal	x1,8000325c	  x1=0x8000325c
       89505000	      8949	00000000	00000013	addi	x0,x0,0	  x0:0x00000000
       89515000	      8950	80003270	00000013	addi	x0,x0,0	  x0:0x00000000
       89525000	      8951	80003274	008000ef	jal	x1,80003274	  x1=0x80003274
       89535000	      8952	00000000	00000013	addi	x0,x0,0	  x0:0x00000000
       89545000	      8953	80003278	00000013	addi	x0,x0,0	  x0:0x00000000
       89555000	      8954	8000327c	fe9ff96f	jal	x18,8000327c	 x18=0x8000327c
       89565000	      8955	00000000	00000013	addi	x0,x0,0	  x0:0x00000000
       89575000	      8956	80003260	00000013	addi	x0,x0,0	  x0:0x00000000
       89585000	      8957	80003264	ffdff1ef	jal	x3,80003264	  x3=0x80003264
       89595000	      8958	00000000	00000013	addi	x0,x0,0	  x0:0x00000000
       89605000	      8959	8000325c	00000013	addi	x0,x0,0	  x0:0x00000000
       89615000	      8960	80003260	ff9ff36f	jal	x6,80003260	  x6=0x80003260
       89625000	      8961	00000000	00000013	addi	x0,x0,0	  x0:0x00000000
       89635000	      8962	80003254	00000013	addi	x0,x0,0	  x0:0x00000000
       89645000	      8963	80003258	ff9ffa6f	jal	x20,80003258	 x20=0x80003258
       89655000	      8964	00000000	00000013	addi	x0,x0,0	  x0:0x00000000
       89665000	      8965	8000324c	00000013	addi	x0,x0,0	  x0:0x00000000
       89675000	      8966	80003250	0040066f	jal	x12,80003250	 x12=0x80003250
       89685000	      8967	00000000	00000013	addi	x0,x0,0	  x0:0x00000000
       89695000	      8968	80003250	00000013	addi	x0,x0,0	  x0:0x00000000
       89705000	      8969	80003254	02c00aef	jal	x21,80003254	 x21=0x80003254
       89715000	      8970	00000000	00000013	addi	x0,x0,0	  x0:0x00000000
       89725000	      8971	8000327c	00000013	addi	x0,x0,0	  x0:0x00000000
       89735000	      8972	80003280	01bd1293	slli	x5,x26,0x1b	 x26:0x80009f54  x5=0xa0000000
       89745000	      8973	80003284	0040036f	jal	x6,80003284	  x6=0x80003284
       89755000	      8974	00000000	00000013	addi	x0,x0,0	  x0:0x00000000
       89765000	      8975	80003284	00000013	addi	x0,x0,0	  x0:0x00000000
       89775000	      8976	80003288	02c002ef	jal	x5,80003288	  x5=0x80003288
       89785000	      8977	00000000	00000013	addi	x0,x0,0	  x0:0x00000000
       89795000	      8978	800032b0	00000013	addi	x0,x0,0	  x0:0x00000000
       89805000	      8979	800032b4	02c007ef	jal	x15,800032b4	 x15=0x800032b4
       89815000	      8980	00000000	00000013	addi	x0,x0,0	  x0:0x00000000
       89825000	      8981	800032dc	00000013	addi	x0,x0,0	  x0:0x00000000
       89835000	      8982	800032e0	fb1ff36f	jal	x6,800032e0	  x6=0x800032e0
       89845000	      8983	00000000	00000013	addi	x0,x0,0	  x0:0x00000000
       89855000	      8984	8000328c	00000013	addi	x0,x0,0	  x0:0x00000000
       89865000	      8985	80003290	03c000ef	jal	x1,80003290	  x1=0x80003290
       89875000	      8986	00000000	00000013	addi	x0,x0,0	  x0:0x00000000
       89885000	      8987	800032c8	00000013	addi	x0,x0,0	  x0:0x00000000
       89895000	      8988	800032cc	fedff66f	jal	x12,800032cc	 x12=0x800032cc
       89905000	      8989	00000000	00000013	addi	x0,x0,0	  x0:0x00000000
       89915000	      8990	800032b4	00000013	addi	x0,x0,0	  x0:0x00000000
       89925000	      8991	800032b8	00c000ef	jal	x1,800032b8	  x1=0x800032b8
       89935000	      8992	00000000	00000013	addi	x0,x0,0	  x0:0x00000000
       89945000	      8993	800032c0	00000013	addi	x0,x0,0	  x0:0x00000000
       89955000	      8994	800032c4	fd1ff96f	jal	x18,800032c4	 x18=0x800032c4
       89965000	      8995	00000000	00000013	addi	x0,x0,0	  x0:0x00000000
       89975000	      8996	80003290	00000013	addi	x0,x0,0	  x0:0x00000000
       89985000	      8997	80003294	008000ef	jal	x1,80003294	  x1=0x80003294
       89995000	      8998	00000000	00000013	addi	x0,x0,0	  x0:0x00000000
       90005000	      8999	80003298	00000013	addi	x0,x0,0	  x0:0x00000000
       90015000	      9000	8000329c	038000ef	jal	x1,8000329c	  x1=0x8000329c
       90025000	      9001	00000000	00000013	addi	x0,x0,0	  x0:0x00000000
       90035000	      9002	800032d0	00000013	addi	x0,x0,0	  x0:0x00000000
       90045000	      9003	800032d4	008000ef	jal	x1,800032d4	  x1=0x800032d4
       90055000	      9004	00000000	00000013	addi	x0,x0,0	  x0:0x00000000
       90065000	      9005	800032d8	00000013	addi	x0,x0,0	  x0:0x00000000
       90075000	      9006	800032dc	008000ef	jal	x1,800032dc	  x1=0x800032dc
       90085000	      9007	00000000	00000013	addi	x0,x0,0	  x0:0x00000000
       90095000	      9008	800032e0	00000013	addi	x0,x0,0	  x0:0x00000000
       90105000	      9009	800032e4	fe5ff96f	jal	x18,800032e4	 x18=0x800032e4
       90115000	      9010	00000000	00000013	addi	x0,x0,0	  x0:0x00000000
       90125000	      9011	800032c4	00000013	addi	x0,x0,0	  x0:0x00000000
       90135000	      9012	800032c8	010000ef	jal	x1,800032c8	  x1=0x800032c8
       90145000	      9013	00000000	00000013	addi	x0,x0,0	  x0:0x00000000
       90155000	      9014	800032d4	00000013	addi	x0,x0,0	  x0:0x00000000
       90165000	      9015	800032d8	fe5ff36f	jal	x6,800032d8	  x6=0x800032d8
       90175000	      9016	00000000	00000013	addi	x0,x0,0	  x0:0x00000000
       90185000	      9017	800032b8	00000013	addi	x0,x0,0	  x0:0x00000000
       90195000	      9018	800032bc	0140036f	jal	x6,800032bc	  x6=0x800032bc
       90205000	      9019	00000000	00000013	addi	x0,x0,0	  x0:0x00000000
       90215000	      9020	800032cc	00000013	addi	x0,x0,0	  x0:0x00000000
       90225000	      9021	800032d0	fd9ff0ef	jal	x1,800032d0	  x1=0x800032d0
       90235000	      9022	00000000	00000013	addi	x0,x0,0	  x0:0x00000000
       90245000	      9023	800032a4	00000013	addi	x0,x0,0	  x0:0x00000000
       90255000	      9024	800032a8	004000ef	jal	x1,800032a8	  x1=0x800032a8
       90265000	      9025	00000000	00000013	addi	x0,x0,0	  x0:0x00000000
       90275000	      9026	800032a8	00000013	addi	x0,x0,0	  x0:0x00000000
       90285000	      9027	800032ac	fe1ff0ef	jal	x1,800032ac	  x1=0x800032ac
       90295000	      9028	00000000	00000013	addi	x0,x0,0	  x0:0x00000000
       90305000	      9029	80003288	00000013	addi	x0,x0,0	  x0:0x00000000
       90315000	      9030	8000328c	018000ef	jal	x1,8000328c	  x1=0x8000328c
       90325000	      9031	00000000	00000013	addi	x0,x0,0	  x0:0x00000000
       90335000	      9032	800032a0	00000013	addi	x0,x0,0	  x0:0x00000000
       90345000	      9033	800032a4	ff5ff36f	jal	x6,800032a4	  x6=0x800032a4
       90355000	      9034	00000000	00000013	addi	x0,x0,0	  x0:0x00000000
       90365000	      9035	80003294	00000013	addi	x0,x0,0	  x0:0x00000000
       90375000	      9036	80003298	0080036f	jal	x6,80003298	  x6=0x80003298
       90385000	      9037	00000000	00000013	addi	x0,x0,0	  x0:0x00000000
       90395000	      9038	8000329c	00000013	addi	x0,x0,0	  x0:0x00000000
       90405000	      9039	800032a0	020000ef	jal	x1,800032a0	  x1=0x800032a0
       90415000	      9040	00000000	00000013	addi	x0,x0,0	  x0:0x00000000
       90425000	      9041	800032bc	00000013	addi	x0,x0,0	  x0:0x00000000
       90435000	      9042	800032c0	ff1ff66f	jal	x12,800032c0	 x12=0x800032c0
       90445000	      9043	00000000	00000013	addi	x0,x0,0	  x0:0x00000000
       90455000	      9044	800032ac	00000013	addi	x0,x0,0	  x0:0x00000000
       90465000	      9045	800032b0	0380056f	jal	x10,800032b0	 x10=0x800032b0
       90475000	      9046	00000000	00000013	addi	x0,x0,0	  x0:0x00000000
       90485000	      9047	800032e4	00000013	addi	x0,x0,0	  x0:0x00000000
       90495000	      9048	800032e8	01511a13	slli	x20,x2,0x15	  x2:0x80009fc4 x20=0xf8800000
       90505000	      9049	800032ec	0440036f	jal	x6,800032ec	  x6=0x800032ec
       90515000	      9050	00000000	00000013	addi	x0,x0,0	  x0:0x00000000
       90525000	      9051	8000332c	00000013	addi	x0,x0,0	  x0:0x00000000
       90535000	      9052	80003330	fd1ff0ef	jal	x1,80003330	  x1=0x80003330
       90545000	      9053	00000000	00000013	addi	x0,x0,0	  x0:0x00000000
       90555000	      9054	800032fc	00000013	addi	x0,x0,0	  x0:0x00000000
       90565000	      9055	80003300	ffdff2ef	jal	x5,80003300	  x5=0x80003300
       90575000	      9056	00000000	00000013	addi	x0,x0,0	  x0:0x00000000
       90585000	      9057	800032f8	00000013	addi	x0,x0,0	  x0:0x00000000
       90595000	      9058	800032fc	01000a6f	jal	x20,800032fc	 x20=0x800032fc
       90605000	      9059	00000000	00000013	addi	x0,x0,0	  x0:0x00000000
       90615000	      9060	80003308	00000013	addi	x0,x0,0	  x0:0x00000000
       90625000	      9061	8000330c	00c000ef	jal	x1,8000330c	  x1=0x8000330c
       90635000	      9062	00000000	00000013	addi	x0,x0,0	  x0:0x00000000
       90645000	      9063	80003314	00000013	addi	x0,x0,0	  x0:0x00000000
       90655000	      9064	80003318	004000ef	jal	x1,80003318	  x1=0x80003318
       90665000	      9065	00000000	00000013	addi	x0,x0,0	  x0:0x00000000
       90675000	      9066	80003318	00000013	addi	x0,x0,0	  x0:0x00000000
       90685000	      9067	8000331c	fd9ff0ef	jal	x1,8000331c	  x1=0x8000331c
       90695000	      9068	00000000	00000013	addi	x0,x0,0	  x0:0x00000000
       90705000	      9069	800032f0	00000013	addi	x0,x0,0	  x0:0x00000000
       90715000	      9070	800032f4	0380036f	jal	x6,800032f4	  x6=0x800032f4
       90725000	      9071	00000000	00000013	addi	x0,x0,0	  x0:0x00000000
       90735000	      9072	80003328	00000013	addi	x0,x0,0	  x0:0x00000000
       90745000	      9073	8000332c	fd9ff0ef	jal	x1,8000332c	  x1=0x8000332c
       90755000	      9074	00000000	00000013	addi	x0,x0,0	  x0:0x00000000
       90765000	      9075	80003300	00000013	addi	x0,x0,0	  x0:0x00000000
       90775000	      9076	80003304	020005ef	jal	x11,80003304	 x11=0x80003304
       90785000	      9077	00000000	00000013	addi	x0,x0,0	  x0:0x00000000
       90795000	      9078	80003320	00000013	addi	x0,x0,0	  x0:0x00000000
       90805000	      9079	80003324	004000ef	jal	x1,80003324	  x1=0x80003324
       90815000	      9080	00000000	00000013	addi	x0,x0,0	  x0:0x00000000
       90825000	      9081	80003324	00000013	addi	x0,x0,0	  x0:0x00000000
       90835000	      9082	80003328	fe1ff0ef	jal	x1,80003328	  x1=0x80003328
       90845000	      9083	00000000	00000013	addi	x0,x0,0	  x0:0x00000000
       90855000	      9084	80003304	00000013	addi	x0,x0,0	  x0:0x00000000
       90865000	      9085	80003308	00c0036f	jal	x6,80003308	  x6=0x80003308
       90875000	      9086	00000000	00000013	addi	x0,x0,0	  x0:0x00000000
       90885000	      9087	80003310	00000013	addi	x0,x0,0	  x0:0x00000000
       90895000	      9088	80003314	00c001ef	jal	x3,80003314	  x3=0x80003314
       90905000	      9089	00000000	00000013	addi	x0,x0,0	  x0:0x00000000
       90915000	      9090	8000331c	00000013	addi	x0,x0,0	  x0:0x00000000
       90925000	      9091	80003320	ff1ffc6f	jal	x24,80003320	 x24=0x80003320
       90935000	      9092	00000000	00000013	addi	x0,x0,0	  x0:0x00000000
       90945000	      9093	8000330c	00000013	addi	x0,x0,0	  x0:0x00000000
       90955000	      9094	80003310	fe9ff0ef	jal	x1,80003310	  x1=0x80003310
       90965000	      9095	00000000	00000013	addi	x0,x0,0	  x0:0x00000000
       90975000	      9096	800032f4	00000013	addi	x0,x0,0	  x0:0x00000000
       90985000	      9097	800032f8	ff9ff26f	jal	x4,800032f8	  x4=0x800032f8
       90995000	      9098	00000000	00000013	addi	x0,x0,0	  x0:0x00000000
       91005000	      9099	800032ec	00000013	addi	x0,x0,0	  x0:0x00000000
       91015000	      9100	800032f0	044000ef	jal	x1,800032f0	  x1=0x800032f0
       91025000	      9101	00000000	00000013	addi	x0,x0,0	  x0:0x00000000
       91035000	      9102	80003330	00000013	addi	x0,x0,0	  x0:0x00000000
       91045000	      9103	80003334	00719833	sll	x16,x3,x7	  x3:0x80003314  x7:0xfffff9ba x16=0x50000000
       91055000	      9104	80003338	41ac5f93	srai	x31,x24,0x1a	 x24:0x80003320 x31=0xffffffe0
       91065000	      9105	8000333c	fc130493	addi	x9,x6,-63	  x6:0x80003308  x9=0x800032c9
       91075000	      9106	80003340	81fa2193	slti	x3,x20,-2017	 x20:0x800032fc  x3=0x00000001
       91085000	      9107	80003344	01876333	or	x6,x14,x24	 x14:0x80003204 x24:0x80003320  x6=0x80003324
       91095000	      9108	80003348	005df6b3	and	x13,x27,x5	 x27:0xf22f49ae  x5:0x80003300 x13=0x80000100
       91105000	      9109	8000334c	017e0db3	add	x27,x28,x23	 x28:0x80003240 x23:0x80002e84 x27=0x000060c4
       91115000	      9110	80003350	00dfecb3	or	x25,x31,x13	 x31:0xffffffe0 x13:0x80000100 x25=0xffffffe0
       91125000	      9111	80003354	41ae83b3	sub	x7,x29,x26	 x29:0xf22f49ae x26:0x80009f54  x7=0x722eaa5a
       91135000	      9112	80003358	c4ba7793	andi	x15,x20,-949	 x20:0x800032fc x15=0x80003048
       91145000	      9113	8000335c	00821463	bne	x4,x8,80003364	  x4:0x800032f8  x8:0x80003234
       91155000	      9114	00000000	00000013	addi	x0,x0,0	  x0:0x00000000
       91165000	      9115	80003360	00000013	addi	x0,x0,0	  x0:0x00000000
       91175000	      9116	80003364	00205033	srl	x0,x0,x2	  x0:0x00000000  x2:0x80009fc4
       91185000	      9117	80003368	20f9bf37	lui	x30,0x20f9b	 x30=0x20f9b000
       91195000	      9118	8000336c	bf8cf513	andi	x10,x25,-1032	 x25:0xffffffe0 x10=0xfffffbe0
       91205000	      9119	80003370	0198c633	xor	x12,x17,x25	 x17:0x00000001 x25:0xffffffe0 x12=0xffffffe1
       91215000	      9120	80003374	007ebe33	sltu	x28,x29,x7	 x29:0xf22f49ae  x7:0x722eaa5a x28=0x00000000
       91225000	      9121	80003378	41a15f13	srai	x30,x2,0x1a	  x2:0x80009fc4 x30=0xffffffe0
       91235000	      9122	8000337c	409f0433	sub	x8,x30,x9	 x30:0xffffffe0  x9:0x800032c9  x8=0x7fffcd17
       91245000	      9123	80003380	014ddc63	bge	x27,x20,80003398	 x27:0x000060c4 x20:0x800032fc
       91255000	      9124	00000000	00000013	addi	x0,x0,0	  x0:0x00000000
       91265000	      9125	80003394	00000013	addi	x0,x0,0	  x0:0x00000000
       91275000	      9126	80003398	00f86e63	bltu	x16,x15,800033b4	 x16:0x50000000 x15:0x80003048
       91285000	      9127	00000000	00000013	addi	x0,x0,0	  x0:0x00000000
       91295000	      9128	800033b0	00000013	addi	x0,x0,0	  x0:0x00000000
       91305000	      9129	800033b4	01668863	beq	x13,x22,800033c4	 x13:0x80000100 x22:0xf4c00000
       91315000	      9130	800033b8	9f25f013	andi	x0,x11,-1550	 x11:0x80003304
       91325000	      9131	800033bc	03797c63	bgeu	x18,x23,800033f4	 x18:0x800032e4 x23:0x80002e84
       91335000	      9132	00000000	00000013	addi	x0,x0,0	  x0:0x00000000
       91345000	      9133	800033f0	00000013	addi	x0,x0,0	  x0:0x00000000
       91355000	      9134	800033f4	3834b297	auipc	x5,0x3834b	  x5=0xb834e3f0
       91365000	      9135	800033f8	0af9de37	lui	x28,0xaf9d	 x28=0x0af9d000
       91375000	      9136	800033fc	1f077813	andi	x16,x14,496	 x14:0x80003204 x16=0x00000000
       91385000	      9137	80003400	058c6663	bltu	x24,x24,8000344c	 x24:0x80003320 x24:0x80003320
       91395000	      9138	80003404	010c9a93	slli	x21,x25,0x10	 x25:0xffffffe0 x21=0xffe00000
       91405000	      9139	80003408	d6818c93	addi	x25,x3,-664	  x3:0x00000001 x25=0xfffffd69
       91415000	      9140	8000340c	02a83313	sltiu	x6,x16,42	 x16:0x00000000  x6=0x00000001
       91425000	      9141	80003410	8d8cb013	sltiu	x0,x25,-1832	 x25:0xfffffd69
       91435000	      9142	80003414	c9dd4297	auipc	x5,0xc9dd4	  x5=0x49dd7410
       91445000	      9143	80003418	0409d263	bge	x19,x0,8000345c	 x19:0x00000000  x0:0x00000000
       91455000	      9144	00000000	00000013	addi	x0,x0,0	  x0:0x00000000
       91465000	      9145	80003458	00000013	addi	x0,x0,0	  x0:0x00000000
       91475000	      9146	8000345c	03d0e063	bltu	x1,x29,8000347c	  x1:0x800032f0 x29:0xf22f49ae
       91485000	      9147	00000000	00000013	addi	x0,x0,0	  x0:0x00000000
       91495000	      9148	80003478	00000013	addi	x0,x0,0	  x0:0x00000000
       91505000	      9149	8000347c	88e32f93	slti	x31,x6,-1906	  x6:0x00000001 x31=0x00000000
       91515000	      9150	80003480	00ec8a63	beq	x25,x14,80003494	 x25:0xfffffd69 x14:0x80003204
       91525000	      9151	80003484	0010cc63	blt	x1,x1,8000349c	  x1:0x800032f0  x1:0x800032f0
       91535000	      9152	80003488	038a6063	bltu	x20,x24,800034a8	 x20:0x800032fc x24:0x80003320
       91545000	      9153	00000000	00000013	addi	x0,x0,0	  x0:0x00000000
       91555000	      9154	800034a4	00000013	addi	x0,x0,0	  x0:0x00000000
       91565000	      9155	800034a8	40ed8db3	sub	x27,x27,x14	 x27:0x000060c4 x14:0x80003204 x27=0x80002ec0
       91575000	      9156	800034ac	01256a33	or	x20,x10,x18	 x10:0xfffffbe0 x18:0x800032e4 x20=0xfffffbe4
       91585000	      9157	800034b0	d81e8193	addi	x3,x29,-639	 x29:0xf22f49ae  x3=0xf22f472f
       91595000	      9158	800034b4	7365e613	ori	x12,x11,1846	 x11:0x80003304 x12=0x80003736
       91605000	      9159	800034b8	b5ede813	ori	x16,x27,-1186	 x27:0x80002ec0 x16=0xffffffde
       91615000	      9160	800034bc	409fdc93	srai	x25,x31,0x9	 x31:0x00000000 x25=0x00000000
       91625000	      9161	800034c0	929fe513	ori	x10,x31,-1751	 x31:0x00000000 x10=0xfffff929
       91635000	      9162	800034c4	0125e0b3	or	x1,x11,x18	 x11:0x80003304 x18:0x800032e4  x1=0x800033e4
       91645000	      9163	800034c8	406a8ab3	sub	x21,x21,x6	 x21:0xffe00000  x6:0x00000001 x21=0xffdfffff
       91655000	      9164	800034cc	001ae233	or	x4,x21,x1	 x21:0xffdfffff  x1:0x800033e4  x4=0xffdfffff
       91665000	      9165	800034d0	401ed4b3	sra	x9,x29,x1	 x29:0xf22f49ae  x1:0x800033e4  x9=0xff22f49a
       91675000	      9166	800034d4	00e95193	srli	x3,x18,0xe	 x18:0x800032e4  x3=0x00020000
       91685000	      9167	800034d8	004ef8b3	and	x17,x29,x4	 x29:0xf22f49ae  x4:0xffdfffff x17=0xf20f49ae
       91695000	      9168	800034dc	00000013	addi	x0,x0,0	  x0:0x00000000
       91705000	      9169	800034e0	1b1bf693	andi	x13,x23,433	 x23:0x80002e84 x13=0x00000080
       91715000	      9170	800034e4	01d6fdb3	and	x27,x13,x29	 x13:0x00000080 x29:0xf22f49ae x27=0x00000080
       91725000	      9171	800034e8	0047ab33	slt	x22,x15,x4	 x15:0x80003048  x4:0xffdfffff x22=0x00000001
       91735000	      9172	800034ec	41c2db13	srai	x22,x5,0x1c	  x5:0x49dd7410 x22=0x00000004
       91745000	      9173	800034f0	019797b3	sll	x15,x15,x25	 x15:0x80003048 x25:0x00000000 x15=0x80003048
       91755000	      9174	800034f4	00dcd893	srli	x17,x25,0xd	 x25:0x00000000 x17=0x00000000
       91765000	      9175	800034f8	05300463	beq	x0,x19,80003540	  x0:0x00000000 x19:0x00000000
       91775000	      9176	00000000	00000013	addi	x0,x0,0	  x0:0x00000000
       91785000	      9177	8000353c	00000013	addi	x0,x0,0	  x0:0x00000000
       91795000	      9178	80003540	017a9f93	slli	x31,x21,0x17	 x21:0xffdfffff x31=0xff800000
       91805000	      9179	80003544	408a8833	sub	x16,x21,x8	 x21:0xffdfffff  x8:0x7fffcd17 x16=0x7fe032e8
       91815000	      9180	80003548	011d2333	slt	x6,x26,x17	 x26:0x80009f54 x17:0x00000000  x6=0x00000001
       91825000	      9181	8000354c	011a5db3	srl	x27,x20,x17	 x20:0xfffffbe4 x17:0x00000000 x27=0xfffffbe4
       91835000	      9182	80003550	00000013	addi	x0,x0,0	  x0:0x00000000
       91845000	      9183	80003554	018ba633	slt	x12,x23,x24	 x23:0x80002e84 x24:0x80003320 x12=0x00000001
       91855000	      9184	80003558	01f0f3b3	and	x7,x1,x31	  x1:0x800033e4 x31:0xff800000  x7=0x80000000
       91865000	      9185	8000355c	41ce8c33	sub	x24,x29,x28	 x29:0xf22f49ae x28:0x0af9d000 x24=0xe73579ae
       91875000	      9186	80003560	01b942b3	xor	x5,x18,x27	 x18:0x800032e4 x27:0xfffffbe4  x5=0x7fffc900
       91885000	      9187	80003564	013713b3	sll	x7,x14,x19	 x14:0x80003204 x19:0x00000000  x7=0x80003204
       91895000	      9188	80003568	00f3e633	or	x12,x7,x15	  x7:0x80003204 x15:0x80003048 x12=0x8000324c
       91905000	      9189	8000356c	00000013	addi	x0,x0,0	  x0:0x00000000
       91915000	      9190	80003570	aabfab17	auipc	x22,0xaabfa	 x22=0x2abfd56c
       91925000	      9191	80003574	00425db3	srl	x27,x4,x4	  x4:0xffdfffff  x4:0xffdfffff x27=0x00000001
       91935000	      9192	80003578	41d1d1b3	sra	x3,x3,x29	  x3:0x00020000 x29:0xf22f49ae  x3=0x00000008
       91945000	      9193	8000357c	048c9663	bne	x25,x8,800035c8	 x25:0x00000000  x8:0x7fffcd17
       91955000	      9194	00000000	00000013	addi	x0,x0,0	  x0:0x00000000
       91965000	      9195	800035c4	00000013	addi	x0,x0,0	  x0:0x00000000
       91975000	      9196	800035c8	f5b96693	ori	x13,x18,-165	 x18:0x800032e4 x13=0xffffffff
       91985000	      9197	800035cc	9e410193	addi	x3,x2,-1564	  x2:0x80009fc4  x3=0x800099a8
       91995000	      9198	800035d0	01079cb3	sll	x25,x15,x16	 x15:0x80003048 x16:0x7fe032e8 x25=0x00304800
       92005000	      9199	800035d4	40d2d093	srai	x1,x5,0xd	  x5:0x7fffc900  x1=0x0003fffe
       92015000	      9200	800035d8	001d51b3	srl	x3,x26,x1	 x26:0x80009f54  x1:0x0003fffe  x3=0x00000002
       92025000	      9201	800035dc	00618433	add	x8,x3,x6	  x3:0x00000002  x6:0x00000001  x8=0x00000003
       92035000	      9202	800035e0	00119863	bne	x3,x1,800035f0	  x3:0x00000002  x1:0x0003fffe
       92045000	      9203	00000000	00000013	addi	x0,x0,0	  x0:0x00000000
       92055000	      9204	800035ec	00000013	addi	x0,x0,0	  x0:0x00000000
       92065000	      9205	800035f0	32cc4813	xori	x16,x24,812	 x24:0xe73579ae x16=0xe7357a82
       92075000	      9206	800035f4	40ff08b3	sub	x17,x30,x15	 x30:0xffffffe0 x15:0x80003048 x17=0x7fffcf98
       92085000	      9207	800035f8	00d3db13	srli	x22,x7,0xd	  x7:0x80003204 x22=0x00040001
       92095000	      9208	800035fc	00a07263	bgeu	x0,x10,80003600	  x0:0x00000000 x10:0xfffff929
       92105000	      9209	80003600	41e75a93	srai	x21,x14,0x1e	 x14:0x80003204 x21=0xfffffffe
       92115000	      9210	80003604	01eb0c33	add	x24,x22,x30	 x22:0x00040001 x30:0xffffffe0 x24=0x0003ffe1
       92125000	      9211	80003608	01b5da33	srl	x20,x11,x27	 x11:0x80003304 x27:0x00000001 x20=0x40001982
       92135000	      9212	8000360c	0337f063	bgeu	x15,x19,8000362c	 x15:0x80003048 x19:0x00000000
       92145000	      9213	00000000	00000013	addi	x0,x0,0	  x0:0x00000000
       92155000	      9214	80003628	00000013	addi	x0,x0,0	  x0:0x00000000
       92165000	      9215	8000362c	04846663	bltu	x8,x8,80003678	  x8:0x00000003  x8:0x00000003
       92175000	      9216	80003630	dab37797	auipc	x15,0xdab37	 x15=0x5ab3a62c
       92185000	      9217	80003634	13943193	sltiu	x3,x8,313	  x8:0x00000003  x3=0x00000001
       92195000	      9218	80003638	05eef663	bgeu	x29,x30,80003684	 x29:0xf22f49ae x30:0xffffffe0
       92205000	      9219	8000363c	019d5893	srli	x17,x26,0x19	 x26:0x80009f54 x17=0x00000040
       92215000	      9220	80003640	03668263	beq	x13,x22,80003664	 x13:0xffffffff x22:0x00040001
       92225000	      9221	80003644	1d786c13	ori	x24,x16,471	 x16:0xe7357a82 x24=0xe7357bd7
       92235000	      9222	80003648	04c8e063	bltu	x17,x12,80003688	 x17:0x00000040 x12:0x8000324c
       92245000	      9223	00000000	00000013	addi	x0,x0,0	  x0:0x00000000
       92255000	      9224	80003684	00000013	addi	x0,x0,0	  x0:0x00000000
       92265000	      9225	80003688	0048d6b3	srl	x13,x17,x4	 x17:0x00000040  x4:0xffdfffff x13=0x00000000
       92275000	      9226	8000368c	0005a3b3	slt	x7,x11,x0	 x11:0x80003304  x0:0x00000000  x7=0x00000001
       92285000	      9227	80003690	03d07463	bgeu	x0,x29,800036b8	  x0:0x00000000 x29:0xf22f49ae
       92295000	      9228	80003694	05b17663	bgeu	x2,x27,800036e0	  x2:0x80009fc4 x27:0x00000001
       92305000	      9229	00000000	00000013	addi	x0,x0,0	  x0:0x00000000
       92315000	      9230	800036dc	00000013	addi	x0,x0,0	  x0:0x00000000
       92325000	      9231	800036e0	cfe38493	addi	x9,x7,-770	  x7:0x00000001  x9=0xfffffcff
       92335000	      9232	800036e4	1ae0c713	xori	x14,x1,430	  x1:0x0003fffe x14=0x0003fe50
       92345000	      9233	800036e8	0153e1b3	or	x3,x7,x21	  x7:0x00000001 x21:0xfffffffe  x3=0xffffffff
       92355000	      9234	800036ec	4133df33	sra	x30,x7,x19	  x7:0x00000001 x19:0x00000000 x30=0x00000001
       92365000	      9235	800036f0	02927063	bgeu	x4,x9,80003710	  x4:0xffdfffff  x9:0xfffffcff
       92375000	      9236	800036f4	c5b68713	addi	x14,x13,-933	 x13:0x00000000 x14=0xfffffc5b
       92385000	      9237	800036f8	36393a13	sltiu	x20,x18,867	 x18:0x800032e4 x20=0x00000000
       92395000	      9238	800036fc	0197b0b3	sltu	x1,x15,x25	 x15:0x5ab3a62c x25:0x00304800  x1=0x00000000
       92405000	      9239	80003700	01e15fb3	srl	x31,x2,x30	  x2:0x80009fc4 x30:0x00000001 x31=0x40004fe2
       92415000	      9240	80003704	40c00233	sub	x4,x0,x12	  x0:0x00000000 x12:0x8000324c  x4=0x7fffcdb4
       92425000	      9241	80003708	87cf6c13	ori	x24,x30,-1924	 x30:0x00000001 x24=0xfffff87d
       92435000	      9242	8000370c	b100f413	andi	x8,x1,-1264	  x1:0x00000000  x8=0x00000000
       92445000	      9243	80003710	00c88463	beq	x17,x12,80003718	 x17:0x00000040 x12:0x8000324c
       92455000	      9244	80003714	05ff9463	bne	x31,x31,8000375c	 x31:0x40004fe2 x31:0x40004fe2
       92465000	      9245	80003718	05cad463	bge	x21,x28,80003760	 x21:0xfffffffe x28:0x0af9d000
       92475000	      9246	8000371c	dfb56a93	ori	x21,x10,-517	 x10:0xfffff929 x21=0xfffffdfb
       92485000	      9247	80003720	05cc0263	beq	x24,x28,80003764	 x24:0xfffff87d x28:0x0af9d000
       92495000	      9248	80003724	0017d663	bge	x15,x1,80003730	 x15:0x5ab3a62c  x1:0x00000000
       92505000	      9249	00000000	00000013	addi	x0,x0,0	  x0:0x00000000
       92515000	      9250	8000372c	00000013	addi	x0,x0,0	  x0:0x00000000
       92525000	      9251	80003730	71938813	addi	x16,x7,1817	  x7:0x00000001 x16=0x0000071a
       92535000	      9252	80003734	00345813	srli	x16,x8,0x3	  x8:0x00000000 x16=0x00000000
       92545000	      9253	80003738	07463913	sltiu	x18,x12,116	 x12:0x8000324c x18=0x00000000
       92555000	      9254	8000373c	0180ebb3	or	x23,x1,x24	  x1:0x00000000 x24:0xfffff87d x23=0xfffff87d
       92565000	      9255	80003740	005e7fb3	and	x31,x28,x5	 x28:0x0af9d000  x5:0x7fffc900 x31=0x0af9c000
       92575000	      9256	80003744	3daf2f13	slti	x30,x30,986	 x30:0x00000001 x30=0x00000001
       92585000	      9257	80003748	0d605663	bge	x0,x22,80003814	  x0:0x00000000 x22:0x00040001
       92595000	      9258	8000374c	1ca32e37	lui	x28,0x1ca32	 x28=0x1ca32000
       92605000	      9259	80003750	7c2309b7	lui	x19,0x7c230	 x19=0x7c230000
       92615000	      9260	80003754	00000013	addi	x0,x0,0	  x0:0x00000000
       92625000	      9261	80003758	6e5e8717	auipc	x14,0x6e5e8	 x14=0xee5eb754
       92635000	      9262	8000375c	00993613	sltiu	x12,x18,9	 x18:0x00000000 x12=0x00000001
       92645000	      9263	80003760	091da4b7	lui	x9,0x91da	  x9=0x091da000
       92655000	      9264	80003764	85b40493	addi	x9,x8,-1957	  x8:0x00000000  x9=0xfffff85b
       92665000	      9265	80003768	06c0036f	jal	x6,80003768	  x6=0x80003768
       92675000	      9266	00000000	00000013	addi	x0,x0,0	  x0:0x00000000
       92685000	      9267	800037d0	00000013	addi	x0,x0,0	  x0:0x00000000
       92695000	      9268	800037d4	ffdff0ef	jal	x1,800037d4	  x1=0x800037d4
       92705000	      9269	00000000	00000013	addi	x0,x0,0	  x0:0x00000000
       92715000	      9270	800037cc	00000013	addi	x0,x0,0	  x0:0x00000000
       92725000	      9271	800037d0	ff5ff0ef	jal	x1,800037d0	  x1=0x800037d0
       92735000	      9272	00000000	00000013	addi	x0,x0,0	  x0:0x00000000
       92745000	      9273	800037c0	00000013	addi	x0,x0,0	  x0:0x00000000
       92755000	      9274	800037c4	fbdff46f	jal	x8,800037c4	  x8=0x800037c4
       92765000	      9275	00000000	00000013	addi	x0,x0,0	  x0:0x00000000
       92775000	      9276	8000377c	00000013	addi	x0,x0,0	  x0:0x00000000
       92785000	      9277	80003780	0140036f	jal	x6,80003780	  x6=0x80003780
       92795000	      9278	00000000	00000013	addi	x0,x0,0	  x0:0x00000000
       92805000	      9279	80003790	00000013	addi	x0,x0,0	  x0:0x00000000
       92815000	      9280	80003794	0180036f	jal	x6,80003794	  x6=0x80003794
       92825000	      9281	00000000	00000013	addi	x0,x0,0	  x0:0x00000000
       92835000	      9282	800037a8	00000013	addi	x0,x0,0	  x0:0x00000000
       92845000	      9283	800037ac	fc9ff0ef	jal	x1,800037ac	  x1=0x800037ac
       92855000	      9284	00000000	00000013	addi	x0,x0,0	  x0:0x00000000
       92865000	      9285	80003770	00000013	addi	x0,x0,0	  x0:0x00000000
       92875000	      9286	80003774	ffdff0ef	jal	x1,80003774	  x1=0x80003774
       92885000	      9287	00000000	00000013	addi	x0,x0,0	  x0:0x00000000
       92895000	      9288	8000376c	00000013	addi	x0,x0,0	  x0:0x00000000
       92905000	      9289	80003770	04c0036f	jal	x6,80003770	  x6=0x80003770
       92915000	      9290	00000000	00000013	addi	x0,x0,0	  x0:0x00000000
       92925000	      9291	800037b8	00000013	addi	x0,x0,0	  x0:0x00000000
       92935000	      9292	800037bc	fedff0ef	jal	x1,800037bc	  x1=0x800037bc
       92945000	      9293	00000000	00000013	addi	x0,x0,0	  x0:0x00000000
       92955000	      9294	800037a4	00000013	addi	x0,x0,0	  x0:0x00000000
       92965000	      9295	800037a8	ffdff0ef	jal	x1,800037a8	  x1=0x800037a8
       92975000	      9296	00000000	00000013	addi	x0,x0,0	  x0:0x00000000
       92985000	      9297	800037a0	00000013	addi	x0,x0,0	  x0:0x00000000
       92995000	      9298	800037a4	fd9ff56f	jal	x10,800037a4	 x10=0x800037a4
       93005000	      9299	00000000	00000013	addi	x0,x0,0	  x0:0x00000000
       93015000	      9300	80003778	00000013	addi	x0,x0,0	  x0:0x00000000
       93025000	      9301	8000377c	034000ef	jal	x1,8000377c	  x1=0x8000377c
       93035000	      9302	00000000	00000013	addi	x0,x0,0	  x0:0x00000000
       93045000	      9303	800037ac	00000013	addi	x0,x0,0	  x0:0x00000000
       93055000	      9304	800037b0	01c000ef	jal	x1,800037b0	  x1=0x800037b0
       93065000	      9305	00000000	00000013	addi	x0,x0,0	  x0:0x00000000
       93075000	      9306	800037c8	00000013	addi	x0,x0,0	  x0:0x00000000
       93085000	      9307	800037cc	fedffaef	jal	x21,800037cc	 x21=0x800037cc
       93095000	      9308	00000000	00000013	addi	x0,x0,0	  x0:0x00000000
       93105000	      9309	800037b4	00000013	addi	x0,x0,0	  x0:0x00000000
       93115000	      9310	800037b8	024003ef	jal	x7,800037b8	  x7=0x800037b8
       93125000	      9311	00000000	00000013	addi	x0,x0,0	  x0:0x00000000
       93135000	      9312	800037d8	00000013	addi	x0,x0,0	  x0:0x00000000
       93145000	      9313	800037dc	fc5ff2ef	jal	x5,800037dc	  x5=0x800037dc
       93155000	      9314	00000000	00000013	addi	x0,x0,0	  x0:0x00000000
       93165000	      9315	8000379c	00000013	addi	x0,x0,0	  x0:0x00000000
       93175000	      9316	800037a0	02800fef	jal	x31,800037a0	 x31=0x800037a0
       93185000	      9317	00000000	00000013	addi	x0,x0,0	  x0:0x00000000
       93195000	      9318	800037c4	00000013	addi	x0,x0,0	  x0:0x00000000
       93205000	      9319	800037c8	fbdff3ef	jal	x7,800037c8	  x7=0x800037c8
       93215000	      9320	00000000	00000013	addi	x0,x0,0	  x0:0x00000000
       93225000	      9321	80003780	00000013	addi	x0,x0,0	  x0:0x00000000
       93235000	      9322	80003784	030002ef	jal	x5,80003784	  x5=0x80003784
       93245000	      9323	00000000	00000013	addi	x0,x0,0	  x0:0x00000000
       93255000	      9324	800037b0	00000013	addi	x0,x0,0	  x0:0x00000000
       93265000	      9325	800037b4	fd9ff36f	jal	x6,800037b4	  x6=0x800037b4
       93275000	      9326	00000000	00000013	addi	x0,x0,0	  x0:0x00000000
       93285000	      9327	80003788	00000013	addi	x0,x0,0	  x0:0x00000000
       93295000	      9328	8000378c	fe1ff36f	jal	x6,8000378c	  x6=0x8000378c
       93305000	      9329	00000000	00000013	addi	x0,x0,0	  x0:0x00000000
       93315000	      9330	80003768	00000013	addi	x0,x0,0	  x0:0x00000000
       93325000	      9331	8000376c	02c000ef	jal	x1,8000376c	  x1=0x8000376c
       93335000	      9332	00000000	00000013	addi	x0,x0,0	  x0:0x00000000
       93345000	      9333	80003794	00000013	addi	x0,x0,0	  x0:0x00000000
       93355000	      9334	80003798	040000ef	jal	x1,80003798	  x1=0x80003798
       93365000	      9335	00000000	00000013	addi	x0,x0,0	  x0:0x00000000
       93375000	      9336	800037d4	00000013	addi	x0,x0,0	  x0:0x00000000
       93385000	      9337	800037d8	0080026f	jal	x4,800037d8	  x4=0x800037d8
       93395000	      9338	00000000	00000013	addi	x0,x0,0	  x0:0x00000000
       93405000	      9339	800037dc	00000013	addi	x0,x0,0	  x0:0x00000000
       93415000	      9340	800037e0	f99ff26f	jal	x4,800037e0	  x4=0x800037e0
       93425000	      9341	00000000	00000013	addi	x0,x0,0	  x0:0x00000000
       93435000	      9342	80003774	00000013	addi	x0,x0,0	  x0:0x00000000
       93445000	      9343	80003778	010000ef	jal	x1,80003778	  x1=0x80003778
       93455000	      9344	00000000	00000013	addi	x0,x0,0	  x0:0x00000000
       93465000	      9345	80003784	00000013	addi	x0,x0,0	  x0:0x00000000
       93475000	      9346	80003788	014000ef	jal	x1,80003788	  x1=0x80003788
       93485000	      9347	00000000	00000013	addi	x0,x0,0	  x0:0x00000000
       93495000	      9348	80003798	00000013	addi	x0,x0,0	  x0:0x00000000
       93505000	      9349	8000379c	024000ef	jal	x1,8000379c	  x1=0x8000379c
       93515000	      9350	00000000	00000013	addi	x0,x0,0	  x0:0x00000000
       93525000	      9351	800037bc	00000013	addi	x0,x0,0	  x0:0x00000000
       93535000	      9352	800037c0	fd1ff0ef	jal	x1,800037c0	  x1=0x800037c0
       93545000	      9353	00000000	00000013	addi	x0,x0,0	  x0:0x00000000
       93555000	      9354	8000378c	00000013	addi	x0,x0,0	  x0:0x00000000
       93565000	      9355	80003790	0540096f	jal	x18,80003790	 x18=0x80003790
       93575000	      9356	00000000	00000013	addi	x0,x0,0	  x0:0x00000000
       93585000	      9357	800037e0	00000013	addi	x0,x0,0	  x0:0x00000000
       93595000	      9358	800037e4	01a40933	add	x18,x8,x26	  x8:0x800037c4 x26:0x80009f54 x18=0x0000d718
       93605000	      9359	800037e8	09efcd93	xori	x27,x31,158	 x31:0x800037a0 x27=0x8000373e
       93615000	      9360	800037ec	00449e63	bne	x9,x4,80003808	  x9:0xfffff85b  x4:0x800037e0
       93625000	      9361	00000000	00000013	addi	x0,x0,0	  x0:0x00000000
       93635000	      9362	80003804	00000013	addi	x0,x0,0	  x0:0x00000000
       93645000	      9363	80003808	db567b93	andi	x23,x12,-587	 x12:0x00000001 x23=0x00000001
       93655000	      9364	8000380c	006ea8b3	slt	x17,x29,x6	 x29:0xf22f49ae  x6:0x8000378c x17=0x00000000
       93665000	      9365	80003810	89d46b93	ori	x23,x8,-1891	  x8:0x800037c4 x23=0xffffffdd
       93675000	      9366	80003814	00e434b3	sltu	x9,x8,x14	  x8:0x800037c4 x14:0xee5eb754  x9=0x00000001
       93685000	      9367	80003818	00000013	addi	x0,x0,0	  x0:0x00000000
       93695000	      9368	8000381c	3f2ae893	ori	x17,x21,1010	 x21:0x800037cc x17=0x800037fe
       93705000	      9369	80003820	013c66b3	or	x13,x24,x19	 x24:0xfffff87d x19:0x7c230000 x13=0xfffff87d
       93715000	      9370	80003824	01f12933	slt	x18,x2,x31	  x2:0x80009fc4 x31:0x800037a0 x18=0x00000000
       93725000	      9371	80003828	03b58463	beq	x11,x27,80003850	 x11:0x80003304 x27:0x8000373e
       93735000	      9372	8000382c	00f96f33	or	x30,x18,x15	 x18:0x00000000 x15:0x5ab3a62c x30=0x5ab3a62c
       93745000	      9373	80003830	00000013	addi	x0,x0,0	  x0:0x00000000
       93755000	      9374	80003834	ab747a93	andi	x21,x8,-1353	  x8:0x800037c4 x21=0x80003284
       93765000	      9375	80003838	dd10eb93	ori	x23,x1,-559	  x1:0x800037c0 x23=0xffffffd1
       93775000	      9376	8000383c	09a52693	slti	x13,x10,154	 x10:0x800037a4 x13=0x00000001
       93785000	      9377	80003840	009abab3	sltu	x21,x21,x9	 x21:0x80003284  x9:0x00000001 x21=0x00000000
       93795000	      9378	80003844	007eca63	blt	x29,x7,80003858	 x29:0xf22f49ae  x7:0x800037c8
       93805000	      9379	80003848	00e87933	and	x18,x16,x14	 x16:0x00000000 x14:0xee5eb754 x18=0x00000000
       93815000	      9380	8000384c	8cd9bf13	sltiu	x30,x19,-1843	 x19:0x7c230000 x30=0x00000001
       93825000	      9381	80003850	02595463	bge	x18,x5,80003878	 x18:0x00000000  x5:0x80003784
       93835000	      9382	00000000	00000013	addi	x0,x0,0	  x0:0x00000000
       93845000	      9383	80003874	00000013	addi	x0,x0,0	  x0:0x00000000
       93855000	      9384	80003878	00eaafb3	slt	x31,x21,x14	 x21:0x00000000 x14:0xee5eb754 x31=0x00000000
       93865000	      9385	8000387c	00415a33	srl	x20,x2,x4	  x2:0x80009fc4  x4:0x800037e0 x20=0x80009fc4
       93875000	      9386	80003880	40020b33	sub	x22,x4,x0	  x4:0x800037e0  x0:0x00000000 x22=0x800037e0
       93885000	      9387	80003884	004d2303	lw	x6,4(x26)	 x26:0x80009f54  x6=0x80000790 PA:0x80009f58
       93895000	      9388	80003888	030d0d13	addi	x26,x26,48	 x26:0x80009f54 x26=0x80009f84
       93905000	      9389	8000388c	40005c93	srai	x25,x0,0x0	  x0:0x00000000 x25=0x00000000
       93915000	      9390	80003890	01881c93	slli	x25,x16,0x18	 x16:0x00000000 x25=0x00000000
       93925000	      9391	80003894	01849db3	sll	x27,x9,x24	  x9:0x00000001 x24:0xfffff87d x27=0x20000000
       93935000	      9392	80003898	cb0bcf13	xori	x30,x23,-848	 x23:0xffffffd1 x30=0x00000361
       93945000	      9393	8000389c	012fcf33	xor	x30,x31,x18	 x31:0x00000000 x18:0x00000000 x30=0x00000000
       93955000	      9394	800038a0	00030413	addi	x8,x6,0	  x6:0x80000790  x8=0x80000790
       93965000	      9395	800038a4	00040467	jalr	x8,x8,0	  x8:0x80000790  x8=0x800038a4
       93975000	      9396	00000000	00000013	addi	x0,x0,0	  x0:0x00000000
       93985000	      9397	80000790	00000013	addi	x0,x0,0	  x0:0x00000000
       93995000	      9398	80000794	0452f063	bgeu	x5,x5,800007d4	  x5:0x80003784  x5:0x80003784
       94005000	      9399	00000000	00000013	addi	x0,x0,0	  x0:0x00000000
       94015000	      9400	800007d0	00000013	addi	x0,x0,0	  x0:0x00000000
       94025000	      9401	800007d4	502e0d93	addi	x27,x28,1282	 x28:0x1ca32000 x27=0x1ca32502
       94035000	      9402	800007d8	4499e097	auipc	x1,0x4499e	  x1=0xc499e7d4
       94045000	      9403	800007dc	00ac6e33	or	x28,x24,x10	 x24:0xfffff87d x10:0x800037a4 x28=0xfffffffd
       94055000	      9404	800007e0	016bff33	and	x30,x23,x22	 x23:0xffffffd1 x22:0x800037e0 x30=0x800037c0
       94065000	      9405	800007e4	0061ca63	blt	x3,x6,800007f8	  x3:0xffffffff  x6:0x80000790
       94075000	      9406	800007e8	0831f893	andi	x17,x3,131	  x3:0xffffffff x17=0x00000083
       94085000	      9407	800007ec	00c9cdb3	xor	x27,x19,x12	 x19:0x7c230000 x12:0x00000001 x27=0x7c230001
       94095000	      9408	800007f0	412b0fb3	sub	x31,x22,x18	 x22:0x800037e0 x18:0x00000000 x31=0x800037e0
       94105000	      9409	800007f4	49f4ec93	ori	x25,x9,1183	  x9:0x00000001 x25=0x0000049f
       94115000	      9410	800007f8	4066d633	sra	x12,x13,x6	 x13:0x00000001  x6:0x80000790 x12=0x00000000
       94125000	      9411	800007fc	01f76c63	bltu	x14,x31,80000814	 x14:0xee5eb754 x31:0x800037e0
       94135000	      9412	80000800	414e07b3	sub	x15,x28,x20	 x28:0xfffffffd x20:0x80009fc4 x15=0x7fff6039
       94145000	      9413	80000804	acde3a93	sltiu	x21,x28,-1331	 x28:0xfffffffd x21=0x00000000
       94155000	      9414	80000808	429ee413	ori	x8,x29,1065	 x29:0xf22f49ae  x8=0xf22f4daf
       94165000	      9415	8000080c	01b57863	bgeu	x10,x27,8000081c	 x10:0x800037a4 x27:0x7c230001
       94175000	      9416	00000000	00000013	addi	x0,x0,0	  x0:0x00000000
       94185000	      9417	80000818	00000013	addi	x0,x0,0	  x0:0x00000000
       94195000	      9418	8000081c	00768fb3	add	x31,x13,x7	 x13:0x00000001  x7:0x800037c8 x31=0x800037c9
       94205000	      9419	80000820	0273de63	bge	x7,x7,8000085c	  x7:0x800037c8  x7:0x800037c8
       94215000	      9420	00000000	00000013	addi	x0,x0,0	  x0:0x00000000
       94225000	      9421	80000858	00000013	addi	x0,x0,0	  x0:0x00000000
       94235000	      9422	8000085c	1c76b713	sltiu	x14,x13,455	 x13:0x00000001 x14=0x00000001
       94245000	      9423	80000860	bee08017	auipc	x0,0xbee08	
       94255000	      9424	80000864	014315b3	sll	x11,x6,x20	  x6:0x80000790 x20:0x80009fc4 x11=0x00007900
       94265000	      9425	80000868	017040b3	xor	x1,x0,x23	  x0:0x00000000 x23:0xffffffd1  x1=0xffffffd1
       94275000	      9426	8000086c	004f1533	sll	x10,x30,x4	 x30:0x800037c0  x4:0x800037e0 x10=0x800037c0
       94285000	      9427	80000870	00dbfa63	bgeu	x23,x13,80000884	 x23:0xffffffd1 x13:0x00000001
       94295000	      9428	00000000	00000013	addi	x0,x0,0	  x0:0x00000000
       94305000	      9429	80000880	00000013	addi	x0,x0,0	  x0:0x00000000
       94315000	      9430	80000884	40a20c33	sub	x24,x4,x10	  x4:0x800037e0 x10:0x800037c0 x24=0x00000020
       94325000	      9431	80000888	00b628b3	slt	x17,x12,x11	 x12:0x00000000 x11:0x00007900 x17=0x00000001
       94335000	      9432	8000088c	41278cb3	sub	x25,x15,x18	 x15:0x7fff6039 x18:0x00000000 x25=0x7fff6039
       94345000	      9433	80000890	642fda97	auipc	x21,0x642fd	 x21=0xe42fd88c
       94355000	      9434	80000894	00ba0833	add	x16,x20,x11	 x20:0x80009fc4 x11:0x00007900 x16=0x800118c4
       94365000	      9435	80000898	4046da93	srai	x21,x13,0x4	 x13:0x00000001 x21=0x00000000
       94375000	      9436	8000089c	9ffb4513	xori	x10,x22,-1537	 x22:0x800037e0 x10=0x7fffce1f
       94385000	      9437	800008a0	03e40e63	beq	x8,x30,800008dc	  x8:0xf22f4daf x30:0x800037c0
       94395000	      9438	800008a4	419d5933	sra	x18,x26,x25	 x26:0x80009f84 x25:0x7fff6039 x18=0xffffffc0
       94405000	      9439	800008a8	00845e33	srl	x28,x8,x8	  x8:0xf22f4daf  x8:0xf22f4daf x28=0x0001e45e
       94415000	      9440	800008ac	00d59863	bne	x11,x13,800008bc	 x11:0x00007900 x13:0x00000001
       94425000	      9441	00000000	00000013	addi	x0,x0,0	  x0:0x00000000
       94435000	      9442	800008b8	00000013	addi	x0,x0,0	  x0:0x00000000
       94445000	      9443	800008bc	013a39b3	sltu	x19,x20,x19	 x20:0x80009fc4 x19:0x7c230000 x19=0x00000000
       94455000	      9444	800008c0	00000013	addi	x0,x0,0	  x0:0x00000000
       94465000	      9445	800008c4	007aeb33	or	x22,x21,x7	 x21:0x00000000  x7:0x800037c8 x22=0x800037c8
       94475000	      9446	800008c8	01529463	bne	x5,x21,800008d0	  x5:0x80003784 x21:0x00000000
       94485000	      9447	00000000	00000013	addi	x0,x0,0	  x0:0x00000000
       94495000	      9448	800008cc	00000013	addi	x0,x0,0	  x0:0x00000000
       94505000	      9449	800008d0	416c5413	srai	x8,x24,0x16	 x24:0x00000020  x8=0x00000000
       94515000	      9450	800008d4	01356a63	bltu	x10,x19,800008e8	 x10:0x7fffce1f x19:0x00000000
       94525000	      9451	800008d8	0025fa63	bgeu	x11,x2,800008ec	 x11:0x00007900  x2:0x80009fc4
       94535000	      9452	800008dc	9ccc6613	ori	x12,x24,-1588	 x24:0x00000020 x12=0xfffff9ec
       94545000	      9453	800008e0	009bdb33	srl	x22,x23,x9	 x23:0xffffffd1  x9:0x00000001 x22=0x7fffffe8
       94555000	      9454	800008e4	007aab33	slt	x22,x21,x7	 x21:0x00000000  x7:0x800037c8 x22=0x00000000
       94565000	      9455	800008e8	00b35b93	srli	x23,x6,0xb	  x6:0x80000790 x23=0x00100000
       94575000	      9456	800008ec	000f1733	sll	x14,x30,x0	 x30:0x800037c0  x0:0x00000000 x14=0x800037c0
       94585000	      9457	800008f0	01f4ddb3	srl	x27,x9,x31	  x9:0x00000001 x31:0x800037c9 x27=0x00000000
       94595000	      9458	800008f4	81203093	sltiu	x1,x0,-2030	  x0:0x00000000  x1=0x00000001
       94605000	      9459	800008f8	00000013	addi	x0,x0,0	  x0:0x00000000
       94615000	      9460	800008fc	0fc88793	addi	x15,x17,252	 x17:0x00000001 x15=0x000000fd
       94625000	      9461	80000900	014b7c63	bgeu	x22,x20,80000918	 x22:0x00000000 x20:0x80009fc4
       94635000	      9462	80000904	20468313	addi	x6,x13,516	 x13:0x00000001  x6=0x00000205
       94645000	      9463	80000908	016cfa33	and	x20,x25,x22	 x25:0x7fff6039 x22:0x00000000 x20=0x00000000
       94655000	      9464	8000090c	aff8c313	xori	x6,x17,-1281	 x17:0x00000001  x6=0xfffffafe
       94665000	      9465	80000910	03235263	bge	x6,x18,80000934	  x6:0xfffffafe x18:0xffffffc0
       94675000	      9466	80000914	fee36813	ori	x16,x6,-18	  x6:0xfffffafe x16=0xfffffffe
       94685000	      9467	80000918	016a8b33	add	x22,x21,x22	 x21:0x00000000 x22:0x00000000 x22=0x00000000
       94695000	      9468	8000091c	00ee9e63	bne	x29,x14,80000938	 x29:0xf22f49ae x14:0x800037c0
       94705000	      9469	00000000	00000013	addi	x0,x0,0	  x0:0x00000000
       94715000	      9470	80000934	00000013	addi	x0,x0,0	  x0:0x00000000
       94725000	      9471	80000938	6b8b8a37	lui	x20,0x6b8b8	 x20=0x6b8b8000
       94735000	      9472	8000093c	00891633	sll	x12,x18,x8	 x18:0xffffffc0  x8:0x00000000 x12=0xffffffc0
       94745000	      9473	80000940	0156dcb3	srl	x25,x13,x21	 x13:0x00000001 x21:0x00000000 x25=0x00000001
       94755000	      9474	80000944	0023d263	bge	x7,x2,80000948	  x7:0x800037c8  x2:0x80009fc4
       94765000	      9475	80000948	00e88c63	beq	x17,x14,80000960	 x17:0x00000001 x14:0x800037c0
       94775000	      9476	8000094c	9f7e1ab7	lui	x21,0x9f7e1	 x21=0x9f7e1000
       94785000	      9477	80000950	4084de13	srai	x28,x9,0x8	  x9:0x00000001 x28=0x00000000
       94795000	      9478	80000954	01ce8663	beq	x29,x28,80000960	 x29:0xf22f49ae x28:0x00000000
       94805000	      9479	80000958	0066e5b3	or	x11,x13,x6	 x13:0x00000001  x6:0xfffffafe x11=0xfffffaff
       94815000	      9480	8000095c	4148dcb3	sra	x25,x17,x20	 x17:0x00000001 x20:0x6b8b8000 x25=0x00000001
       94825000	      9481	80000960	01ff8e33	add	x28,x31,x31	 x31:0x800037c9 x31:0x800037c9 x28=0x00006f92
       94835000	      9482	80000964	8126e537	lui	x10,0x8126e	 x10=0x8126e000
       94845000	      9483	80000968	01245c33	srl	x24,x8,x18	  x8:0x00000000 x18:0xffffffc0 x24=0x00000000
       94855000	      9484	8000096c	00eb5663	bge	x22,x14,80000978	 x22:0x00000000 x14:0x800037c0
       94865000	      9485	00000000	00000013	addi	x0,x0,0	  x0:0x00000000
       94875000	      9486	80000974	00000013	addi	x0,x0,0	  x0:0x00000000
       94885000	      9487	80000978	00854e33	xor	x28,x10,x8	 x10:0x8126e000  x8:0x00000000 x28=0x8126e000
       94895000	      9488	8000097c	01b05393	srli	x7,x0,0x1b	  x0:0x00000000  x7=0x00000000
       94905000	      9489	80000980	40b60f33	sub	x30,x12,x11	 x12:0xffffffc0 x11:0xfffffaff x30=0x000004c1
       94915000	      9490	80000984	41b8d333	sra	x6,x17,x27	 x17:0x00000001 x27:0x00000000  x6=0x00000001
       94925000	      9491	80000988	378b4f93	xori	x31,x22,888	 x22:0x00000000 x31=0x00000378
       94935000	      9492	8000098c	00a045b3	xor	x11,x0,x10	  x0:0x00000000 x10:0x8126e000 x11=0x8126e000
       94945000	      9493	80000990	c2b8e193	ori	x3,x17,-981	 x17:0x00000001  x3=0xfffffc2b
       94955000	      9494	80000994	0577d063	bge	x15,x23,800009d4	 x15:0x000000fd x23:0x00100000
       94965000	      9495	80000998	41e6d333	sra	x6,x13,x30	 x13:0x00000001 x30:0x000004c1  x6=0x00000000
       94975000	      9496	8000099c	408a59b3	sra	x19,x20,x8	 x20:0x6b8b8000  x8:0x00000000 x19=0x6b8b8000
       94985000	      9497	800009a0	05037863	bgeu	x6,x16,800009f0	  x6:0x00000000 x16:0xfffffffe
       94995000	      9498	800009a4	000dc8b3	xor	x17,x27,x0	 x27:0x00000000  x0:0x00000000 x17=0x00000000
       95005000	      9499	800009a8	2a67b593	sltiu	x11,x15,678	 x15:0x000000fd x11=0x00000001
       95015000	      9500	800009ac	8c952093	slti	x1,x10,-1847	 x10:0x8126e000  x1=0x00000001
       95025000	      9501	800009b0	01949633	sll	x12,x9,x25	  x9:0x00000001 x25:0x00000001 x12=0x00000002
       95035000	      9502	800009b4	0598f263	bgeu	x17,x25,800009f8	 x17:0x00000000 x25:0x00000001
       95045000	      9503	800009b8	2decc537	lui	x10,0x2decc	 x10=0x2decc000
       95055000	      9504	800009bc	7f29b4b7	lui	x9,0x7f29b	  x9=0x7f29b000
       95065000	      9505	800009c0	00b84333	xor	x6,x16,x11	 x16:0xfffffffe x11:0x00000001  x6=0xffffffff
       95075000	      9506	800009c4	0c916713	ori	x14,x2,201	  x2:0x80009fc4 x14=0x80009fcd
       95085000	      9507	800009c8	0281ca63	blt	x3,x8,800009fc	  x3:0xfffffc2b  x8:0x00000000
       95095000	      9508	00000000	00000013	addi	x0,x0,0	  x0:0x00000000
       95105000	      9509	800009f8	00000013	addi	x0,x0,0	  x0:0x00000000
       95115000	      9510	800009fc	00adf433	and	x8,x27,x10	 x27:0x00000000 x10:0x2decc000  x8=0x00000000
       95125000	      9511	80000a00	00c85193	srli	x3,x16,0xc	 x16:0xfffffffe  x3=0x000fffff
       95135000	      9512	80000a04	417c84b3	sub	x9,x25,x23	 x25:0x00000001 x23:0x00100000  x9=0xfff00001
       95145000	      9513	80000a08	ece08313	addi	x6,x1,-306	  x1:0x00000001  x6=0xfffffecf
       95155000	      9514	80000a0c	c91b4837	lui	x16,0xc91b4	 x16=0xc91b4000
       95165000	      9515	80000a10	00bc2b33	slt	x22,x24,x11	 x24:0x00000000 x11:0x00000001 x22=0x00000001
       95175000	      9516	80000a14	00dfbfb3	sltu	x31,x31,x13	 x31:0x00000378 x13:0x00000001 x31=0x00000000
       95185000	      9517	80000a18	0239c663	blt	x19,x3,80000a44	 x19:0x6b8b8000  x3:0x000fffff
       95195000	      9518	80000a1c	1a164197	auipc	x3,0x1a164	  x3=0x9a164a18
       95205000	      9519	80000a20	ba3a2d93	slti	x27,x20,-1117	 x20:0x6b8b8000 x27=0x00000000
       95215000	      9520	80000a24	a2915617	auipc	x12,0xa2915	 x12=0x22915a20
       95225000	      9521	80000a28	61329697	auipc	x13,0x61329	 x13=0xe1329a24
       95235000	      9522	80000a2c	00b07c63	bgeu	x0,x11,80000a44	  x0:0x00000000 x11:0x00000001
       95245000	      9523	80000a30	4062dfb3	sra	x31,x5,x6	  x5:0x80003784  x6:0xfffffecf x31=0xffff0000
       95255000	      9524	80000a34	01829893	slli	x17,x5,0x18	  x5:0x80003784 x17=0x84000000
       95265000	      9525	80000a38	00f53833	sltu	x16,x10,x15	 x10:0x2decc000 x15:0x000000fd x16=0x00000000
       95275000	      9526	80000a3c	37024b97	auipc	x23,0x37024	 x23=0xb7024a38
       95285000	      9527	80000a40	026cf663	bgeu	x25,x6,80000a6c	 x25:0x00000001  x6:0xfffffecf
       95295000	      9528	80000a44	c90a4513	xori	x10,x20,-880	 x20:0x6b8b8000 x10=0x94747c90
       95305000	      9529	80000a48	0d918c13	addi	x24,x3,217	  x3:0x9a164a18 x24=0x9a164af1
       95315000	      9530	80000a4c	014c5293	srli	x5,x24,0x14	 x24:0x9a164af1  x5=0x000009a1
       95325000	      9531	80000a50	00000013	addi	x0,x0,0	  x0:0x00000000
       95335000	      9532	80000a54	01169e63	bne	x13,x17,80000a70	 x13:0xe1329a24 x17:0x84000000
       95345000	      9533	00000000	00000013	addi	x0,x0,0	  x0:0x00000000
       95355000	      9534	80000a6c	00000013	addi	x0,x0,0	  x0:0x00000000
       95365000	      9535	80000a70	012d3db3	sltu	x27,x26,x18	 x26:0x80009f84 x18:0xffffffc0 x27=0x00000001
       95375000	      9536	80000a74	00000e97	auipc	x29,0x0	 x29=0x80000a70
       95385000	      9537	80000a78	00ce8e93	addi	x29,x29,12	 x29:0x80000a70 x29=0x80000a7c
       95395000	      9538	80000a7c	000e8067	jalr	x0,x29,0	 x29:0x80000a7c
       95405000	      9539	00000000	00000013	addi	x0,x0,0	  x0:0x00000000
       95415000	      9540	80000a7c	00000013	addi	x0,x0,0	  x0:0x00000000
       95425000	      9541	80000a80	00100193	addi	x3,x0,1	  x0:0x00000000  x3=0x00000001
       95435000	      9542	80000a84	00000073	ecall	
       95445000	      9543	80000a88	2484ad97	auipc	x27,0x2484a	 x27=0xa484aa84
