		Time			Cycle	PC		Insn	Decoded instruction	Register and memory contents
          65000	         5	80000004	00000293	addi	x5,x0,0	  x0:0x00000000  x5=0x00000000
          75000	         6	80000008	00000313	addi	x6,x0,0	  x0:0x00000000  x6=0x00000000
          85000	         7	8000000c	00628263	beq	x5,x6,80000010	  x5:0x00000000  x6:0x00000000
          95000	         8	00000000	00000013	addi	x0,x0,0	  x0:0x00000000
         105000	         9	8000000c	00000013	addi	x0,x0,0	  x0:0x00000000
         115000	        10	80000010	00000897	auipc	x17,0x0	 x17=0x8000000c
         125000	        11	80000014	00c88893	addi	x17,x17,12	 x17:0x8000000c x17=0x80000018
         135000	        12	80000018	00088067	jalr	x0,x17,0	 x17:0x80000018
         145000	        13	00000000	00000013	addi	x0,x0,0	  x0:0x00000000
         155000	        14	80000018	00000013	addi	x0,x0,0	  x0:0x00000000
         165000	        15	8000001c	40000a37	lui	x20,0x40000	 x20=0x40000000
         175000	        16	80000020	100a0a13	addi	x20,x20,256	 x20:0x40000000 x20=0x40000100
         185000	        17	80000024	00000013	addi	x0,x0,0	  x0:0x00000000
         195000	        18	80000028	0000a417	auipc	x8,0xa	  x8=0x8000a024
         205000	        19	8000002c	fa040413	addi	x8,x8,-96	  x8:0x8000a024  x8=0x80009fc4
         215000	        20	80000030	00004a17	auipc	x20,0x4	 x20=0x8000402c
         225000	        21	80000034	75ca0a13	addi	x20,x20,1884	 x20:0x8000402c x20=0x80004788
         235000	        22	80000038	000a6a13	ori	x20,x20,0	 x20:0x80004788 x20=0x80004788
         245000	        23	8000003c	00000013	addi	x0,x0,0	  x0:0x00000000
         255000	        24	80000040	00000a17	auipc	x20,0x0	 x20=0x8000003c
         265000	        25	80000044	020a0a13	addi	x20,x20,32	 x20:0x8000003c x20=0x8000005c
         275000	        26	80000048	00000013	addi	x0,x0,0	  x0:0x00000000
         285000	        27	8000004c	00000013	addi	x0,x0,0	  x0:0x00000000
         295000	        28	80000050	00002a37	lui	x20,0x2	 x20=0x00002000
         305000	        29	80000054	800a0a13	addi	x20,x20,-2048	 x20:0x00002000 x20=0x00001800
         315000	        30	80000058	00000013	addi	x0,x0,0	  x0:0x00000000
         325000	        31	8000005c	00000013	addi	x0,x0,0	  x0:0x00000000
         335000	        32	80000060	00c00013	addi	x0,x0,12	  x0:0x00000000
         345000	        33	80000064	00900093	addi	x1,x0,9	  x0:0x00000000  x1=0x00000009
         355000	        34	80000068	00000113	addi	x2,x0,0	  x0:0x00000000  x2=0x00000000
         365000	        35	8000006c	800001b7	lui	x3,0x80000	  x3=0x80000000
         375000	        36	80000070	fff3c237	lui	x4,0xfff3c	  x4=0xfff3c000
         385000	        37	80000074	76020213	addi	x4,x4,1888	  x4:0xfff3c000  x4=0xfff3c760
         395000	        38	80000078	39ac52b7	lui	x5,0x39ac5	  x5=0x39ac5000
         405000	        39	8000007c	bee28293	addi	x5,x5,-1042	  x5:0x39ac5000  x5=0x39ac4bee
         415000	        40	80000080	00000313	addi	x6,x0,0	  x0:0x00000000  x6=0x00000000
         425000	        41	80000084	00900393	addi	x7,x0,9	  x0:0x00000000  x7=0x00000009
         435000	        42	80000088	00c00493	addi	x9,x0,12	  x0:0x00000000  x9=0x0000000c
         445000	        43	8000008c	6dd62537	lui	x10,0x6dd62	 x10=0x6dd62000
         455000	        44	80000090	3b150513	addi	x10,x10,945	 x10:0x6dd62000 x10=0x6dd623b1
         465000	        45	80000094	e244a5b7	lui	x11,0xe244a	 x11=0xe244a000
         475000	        46	80000098	82a58593	addi	x11,x11,-2006	 x11:0xe244a000 x11=0xe244982a
         485000	        47	8000009c	3e55d637	lui	x12,0x3e55d	 x12=0x3e55d000
         495000	        48	800000a0	fa860613	addi	x12,x12,-88	 x12:0x3e55d000 x12=0x3e55cfa8
         505000	        49	800000a4	fca3d6b7	lui	x13,0xfca3d	 x13=0xfca3d000
         515000	        50	800000a8	b7b68693	addi	x13,x13,-1157	 x13:0xfca3d000 x13=0xfca3cb7b
         525000	        51	800000ac	00500713	addi	x14,x0,5	  x0:0x00000000 x14=0x00000005
         535000	        52	800000b0	800007b7	lui	x15,0x80000	 x15=0x80000000
         545000	        53	800000b4	80000837	lui	x16,0x80000	 x16=0x80000000
         555000	        54	800000b8	00c00893	addi	x17,x0,12	  x0:0x00000000 x17=0x0000000c
         565000	        55	800000bc	00500913	addi	x18,x0,5	  x0:0x00000000 x18=0x00000005
         575000	        56	800000c0	00000993	addi	x19,x0,0	  x0:0x00000000 x19=0x00000000
         585000	        57	800000c4	00600a13	addi	x20,x0,6	  x0:0x00000000 x20=0x00000006
         595000	        58	800000c8	b8dd0ab7	lui	x21,0xb8dd0	 x21=0xb8dd0000
         605000	        59	800000cc	03ba8a93	addi	x21,x21,59	 x21:0xb8dd0000 x21=0xb8dd003b
         615000	        60	800000d0	f9c45b37	lui	x22,0xf9c45	 x22=0xf9c45000
         625000	        61	800000d4	e92b0b13	addi	x22,x22,-366	 x22:0xf9c45000 x22=0xf9c44e92
         635000	        62	800000d8	80000bb7	lui	x23,0x80000	 x23=0x80000000
         645000	        63	800000dc	80000c37	lui	x24,0x80000	 x24=0x80000000
         655000	        64	800000e0	a5544cb7	lui	x25,0xa5544	 x25=0xa5544000
         665000	        65	800000e4	3b9c8c93	addi	x25,x25,953	 x25:0xa5544000 x25=0xa55443b9
         675000	        66	800000e8	00000d13	addi	x26,x0,0	  x0:0x00000000 x26=0x00000000
         685000	        67	800000ec	f13f2e37	lui	x28,0xf13f2	 x28=0xf13f2000
         695000	        68	800000f0	d16e0e13	addi	x28,x28,-746	 x28:0xf13f2000 x28=0xf13f1d16
         705000	        69	800000f4	f0575eb7	lui	x29,0xf0575	 x29=0xf0575000
         715000	        70	800000f8	e3de8e93	addi	x29,x29,-451	 x29:0xf0575000 x29=0xf0574e3d
         725000	        71	800000fc	f543af37	lui	x30,0xf543a	 x30=0xf543a000
         735000	        72	80000100	d97f0f13	addi	x30,x30,-617	 x30:0xf543a000 x30=0xf5439d97
         745000	        73	80000104	21fe3fb7	lui	x31,0x21fe3	 x31=0x21fe3000
         755000	        74	80000108	85cf8f93	addi	x31,x31,-1956	 x31:0x21fe3000 x31=0x21fe285c
         765000	        75	8000010c	0000ad97	auipc	x27,0xa	 x27=0x8000a108
         775000	        76	80000110	e7cd8d93	addi	x27,x27,-388	 x27:0x8000a108 x27=0x80009f84
         785000	        77	80000114	7375b113	sltiu	x2,x11,1847	 x11:0xe244982a  x2=0x00000000
         795000	        78	80000118	002009b3	add	x19,x0,x2	  x0:0x00000000  x2:0x00000000 x19=0x00000000
         805000	        79	8000011c	562c4e17	auipc	x28,0x562c4	 x28=0xd62c4118
         815000	        80	80000120	fe990a13	addi	x20,x18,-23	 x18:0x00000005 x20=0xffffffee
         825000	        81	80000124	907d4a13	xori	x20,x26,-1785	 x26:0x00000000 x20=0xfffff907
         835000	        82	80000128	01a49493	slli	x9,x9,0x1a	  x9:0x0000000c  x9=0x30000000
         845000	        83	8000012c	0040d233	srl	x4,x1,x4	  x1:0x00000009  x4:0xfff3c760  x4=0x00000009
         855000	        84	80000130	00004097	auipc	x1,0x4	  x1=0x8000412c
         865000	        85	80000134	43008093	addi	x1,x1,1072	  x1:0x8000412c  x1=0x8000455c
         875000	        86	80000138	aaef2013	slti	x0,x30,-1362	 x30:0xf5439d97
         885000	        87	8000013c	fd008093	addi	x1,x1,-48	  x1:0x8000455c  x1=0x8000452c
         895000	        88	80000140	003f2833	slt	x16,x30,x3	 x30:0xf5439d97  x3:0x80000000 x16=0x00000000
         905000	        89	80000144	00000013	addi	x0,x0,0	  x0:0x00000000
         915000	        90	80000148	030080e7	jalr	x1,x1,48	  x1:0x8000452c  x1=0x80000148
         925000	        91	00000000	00000013	addi	x0,x0,0	  x0:0x00000000
         935000	        92	8000455c	00000013	addi	x0,x0,0	  x0:0x00000000
         945000	        93	80004560	fc0d8d93	addi	x27,x27,-64	 x27:0x80009f84 x27=0x80009f44
         955000	        94	80004564	915e8013	addi	x0,x29,-1771	 x29:0xf0574e3d
         965000	        95	80004568	012613b3	sll	x7,x12,x18	 x12:0x3e55cfa8 x18:0x00000005  x7=0xcab9f500
         975000	        96	8000456c	001da223	sw	x1,4(x27)	 x27:0x80009f44  x1:0x80000148 PA:0x80009f48
         985000	        97	80004570	0109d193	srli	x3,x19,0x10	 x19:0x00000000  x3=0x00000000
         995000	        98	80004574	407b5b93	srai	x23,x22,0x7	 x22:0xf9c44e92 x23=0xfff3889d
        1005000	        99	80004578	fffff997	auipc	x19,0xfffff	 x19=0x80003574
        1015000	       100	8000457c	3b098993	addi	x19,x19,944	 x19:0x80003574 x19=0x80003924
        1025000	       101	80004580	9bce4b13	xori	x22,x28,-1604	 x28:0xd62c4118 x22=0x29d3b8a4
        1035000	       102	80004584	e0698993	addi	x19,x19,-506	 x19:0x80003924 x19=0x8000372a
        1045000	       103	80004588	007fa5b3	slt	x11,x31,x7	 x31:0x21fe285c  x7:0xcab9f500 x11=0x00000000
        1055000	       104	8000458c	8f8e9297	auipc	x5,0x8f8e9	  x5=0x0f8ed588
        1065000	       105	80004590	018b1213	slli	x4,x22,0x18	 x22:0x29d3b8a4  x4=0xa4000000
        1075000	       106	80004594	1fb980e7	jalr	x1,x19,507	 x19:0x8000372a  x1=0x80004594
        1085000	       107	00000000	00000013	addi	x0,x0,0	  x0:0x00000000
        1095000	       108	80003924	00000013	addi	x0,x0,0	  x0:0x00000000
        1105000	       109	80003928	00cd5193	srli	x3,x26,0xc	 x26:0x00000000  x3=0x00000000
        1115000	       110	8000392c	017e69b3	or	x19,x28,x23	 x28:0xd62c4118 x23:0xfff3889d x19=0xffffc99d
        1125000	       111	80003930	65896693	ori	x13,x18,1624	 x18:0x00000005 x13=0x0000065d
        1135000	       112	80003934	4005d493	srai	x9,x11,0x0	 x11:0x00000000  x9=0x00000000
        1145000	       113	80003938	01657463	bgeu	x10,x22,80003940	 x10:0x6dd623b1 x22:0x29d3b8a4
        1155000	       114	00000000	00000013	addi	x0,x0,0	  x0:0x00000000
        1165000	       115	8000393c	00000013	addi	x0,x0,0	  x0:0x00000000
        1175000	       116	80003940	fd0d8d93	addi	x27,x27,-48	 x27:0x80009f44 x27=0x80009f14
        1185000	       117	80003944	01145a93	srli	x21,x8,0x11	  x8:0x80009fc4 x21=0x00004000
        1195000	       118	80003948	00000013	addi	x0,x0,0	  x0:0x00000000
        1205000	       119	8000394c	00000013	addi	x0,x0,0	  x0:0x00000000
        1215000	       120	80003950	0190e3b3	or	x7,x1,x25	  x1:0x80004594 x25:0xa55443b9  x7=0xa55447bd
        1225000	       121	80003954	001da223	sw	x1,4(x27)	 x27:0x80009f14  x1:0x80004594 PA:0x80009f18
        1235000	       122	80003958	00a64733	xor	x14,x12,x10	 x12:0x3e55cfa8 x10:0x6dd623b1 x14=0x5383ec19
        1245000	       123	8000395c	9010ef17	auipc	x30,0x9010e	 x30=0x10111958
        1255000	       124	80003960	cb4fb7b7	lui	x15,0xcb4fb	 x15=0xcb4fb000
        1265000	       125	80003964	ffffe597	auipc	x11,0xffffe	 x11=0x80001960
        1275000	       126	80003968	dd458593	addi	x11,x11,-556	 x11:0x80001960 x11=0x80001734
        1285000	       127	8000396c	dbd8c493	xori	x9,x17,-579	 x17:0x0000000c  x9=0xfffffdb1
        1295000	       128	80003970	014cf733	and	x14,x25,x20	 x25:0xa55443b9 x20:0xfffff907 x14=0xa5544101
        1305000	       129	80003974	0041c633	xor	x12,x3,x4	  x3:0x00000000  x4:0xa4000000 x12=0xa4000000
        1315000	       130	80003978	3c858593	addi	x11,x11,968	 x11:0x80001734 x11=0x80001afc
        1325000	       131	8000397c	016f9463	bne	x31,x22,80003984	 x31:0x21fe285c x22:0x29d3b8a4
        1335000	       132	00000000	00000013	addi	x0,x0,0	  x0:0x00000000
        1345000	       133	80003980	00000013	addi	x0,x0,0	  x0:0x00000000
        1355000	       134	80003984	c38580e7	jalr	x1,x11,-968	 x11:0x80001afc  x1=0x80003984
        1365000	       135	00000000	00000013	addi	x0,x0,0	  x0:0x00000000
        1375000	       136	80001734	00000013	addi	x0,x0,0	  x0:0x00000000
        1385000	       137	80001738	01ff5663	bge	x30,x31,80001744	 x30:0x10111958 x31:0x21fe285c
        1395000	       138	8000173c	019d8ab3	add	x21,x27,x25	 x27:0x80009f14 x25:0xa55443b9 x21=0x2554e2cd
        1405000	       139	80001740	98394a17	auipc	x20,0x98394	 x20=0x1839573c
        1415000	       140	80001744	ff4d8d93	addi	x27,x27,-12	 x27:0x80009f14 x27=0x80009f08
        1425000	       141	80001748	001da223	sw	x1,4(x27)	 x27:0x80009f08  x1:0x80003984 PA:0x80009f0c
        1435000	       142	8000174c	00561cb3	sll	x25,x12,x5	 x12:0xa4000000  x5:0x0f8ed588 x25=0x00000000
        1445000	       143	80001750	00c812b3	sll	x5,x16,x12	 x16:0x00000000 x12:0xa4000000  x5=0x00000000
        1455000	       144	80001754	008000ef	jal	x1,80001754	  x1=0x80001754
        1465000	       145	00000000	00000013	addi	x0,x0,0	  x0:0x00000000
        1475000	       146	80001758	00000013	addi	x0,x0,0	  x0:0x00000000
        1485000	       147	8000175c	030000ef	jal	x1,8000175c	  x1=0x8000175c
        1495000	       148	00000000	00000013	addi	x0,x0,0	  x0:0x00000000
        1505000	       149	80001788	00000013	addi	x0,x0,0	  x0:0x00000000
        1515000	       150	8000178c	0300036f	jal	x6,8000178c	  x6=0x8000178c
        1525000	       151	00000000	00000013	addi	x0,x0,0	  x0:0x00000000
        1535000	       152	800017b8	00000013	addi	x0,x0,0	  x0:0x00000000
        1545000	       153	800017bc	fd9ff0ef	jal	x1,800017bc	  x1=0x800017bc
        1555000	       154	00000000	00000013	addi	x0,x0,0	  x0:0x00000000
        1565000	       155	80001790	00000013	addi	x0,x0,0	  x0:0x00000000
        1575000	       156	80001794	ff5ff36f	jal	x6,80001794	  x6=0x80001794
        1585000	       157	00000000	00000013	addi	x0,x0,0	  x0:0x00000000
        1595000	       158	80001784	00000013	addi	x0,x0,0	  x0:0x00000000
        1605000	       159	80001788	010001ef	jal	x3,80001788	  x3=0x80001788
        1615000	       160	00000000	00000013	addi	x0,x0,0	  x0:0x00000000
        1625000	       161	80001794	00000013	addi	x0,x0,0	  x0:0x00000000
        1635000	       162	80001798	00400e6f	jal	x28,80001798	 x28=0x80001798
        1645000	       163	00000000	00000013	addi	x0,x0,0	  x0:0x00000000
        1655000	       164	80001798	00000013	addi	x0,x0,0	  x0:0x00000000
        1665000	       165	8000179c	fbdff26f	jal	x4,8000179c	  x4=0x8000179c
        1675000	       166	00000000	00000013	addi	x0,x0,0	  x0:0x00000000
        1685000	       167	80001754	00000013	addi	x0,x0,0	  x0:0x00000000
        1695000	       168	80001758	02c0036f	jal	x6,80001758	  x6=0x80001758
        1705000	       169	00000000	00000013	addi	x0,x0,0	  x0:0x00000000
        1715000	       170	80001780	00000013	addi	x0,x0,0	  x0:0x00000000
        1725000	       171	80001784	ff1ff0ef	jal	x1,80001784	  x1=0x80001784
        1735000	       172	00000000	00000013	addi	x0,x0,0	  x0:0x00000000
        1745000	       173	80001770	00000013	addi	x0,x0,0	  x0:0x00000000
        1755000	       174	80001774	04000bef	jal	x23,80001774	 x23=0x80001774
        1765000	       175	00000000	00000013	addi	x0,x0,0	  x0:0x00000000
        1775000	       176	800017b0	00000013	addi	x0,x0,0	  x0:0x00000000
        1785000	       177	800017b4	fc5fffef	jal	x31,800017b4	 x31=0x800017b4
        1795000	       178	00000000	00000013	addi	x0,x0,0	  x0:0x00000000
        1805000	       179	80001774	00000013	addi	x0,x0,0	  x0:0x00000000
        1815000	       180	80001778	fedff0ef	jal	x1,80001778	  x1=0x80001778
        1825000	       181	00000000	00000013	addi	x0,x0,0	  x0:0x00000000
        1835000	       182	80001760	00000013	addi	x0,x0,0	  x0:0x00000000
        1845000	       183	80001764	00c006ef	jal	x13,80001764	 x13=0x80001764
        1855000	       184	00000000	00000013	addi	x0,x0,0	  x0:0x00000000
        1865000	       185	8000176c	00000013	addi	x0,x0,0	  x0:0x00000000
        1875000	       186	80001770	030000ef	jal	x1,80001770	  x1=0x80001770
        1885000	       187	00000000	00000013	addi	x0,x0,0	  x0:0x00000000
        1895000	       188	8000179c	00000013	addi	x0,x0,0	  x0:0x00000000
        1905000	       189	800017a0	fc1ff0ef	jal	x1,800017a0	  x1=0x800017a0
        1915000	       190	00000000	00000013	addi	x0,x0,0	  x0:0x00000000
        1925000	       191	8000175c	00000013	addi	x0,x0,0	  x0:0x00000000
        1935000	       192	80001760	04c000ef	jal	x1,80001760	  x1=0x80001760
        1945000	       193	00000000	00000013	addi	x0,x0,0	  x0:0x00000000
        1955000	       194	800017a8	00000013	addi	x0,x0,0	  x0:0x00000000
        1965000	       195	800017ac	fbdff0ef	jal	x1,800017ac	  x1=0x800017ac
        1975000	       196	00000000	00000013	addi	x0,x0,0	  x0:0x00000000
        1985000	       197	80001764	00000013	addi	x0,x0,0	  x0:0x00000000
        1995000	       198	80001768	0140036f	jal	x6,80001768	  x6=0x80001768
        2005000	       199	00000000	00000013	addi	x0,x0,0	  x0:0x00000000
        2015000	       200	80001778	00000013	addi	x0,x0,0	  x0:0x00000000
        2025000	       201	8000177c	004000ef	jal	x1,8000177c	  x1=0x8000177c
        2035000	       202	00000000	00000013	addi	x0,x0,0	  x0:0x00000000
        2045000	       203	8000177c	00000013	addi	x0,x0,0	  x0:0x00000000
        2055000	       204	80001780	fedff36f	jal	x6,80001780	  x6=0x80001780
        2065000	       205	00000000	00000013	addi	x0,x0,0	  x0:0x00000000
        2075000	       206	80001768	00000013	addi	x0,x0,0	  x0:0x00000000
        2085000	       207	8000176c	04c000ef	jal	x1,8000176c	  x1=0x8000176c
        2095000	       208	00000000	00000013	addi	x0,x0,0	  x0:0x00000000
        2105000	       209	800017b4	00000013	addi	x0,x0,0	  x0:0x00000000
        2115000	       210	800017b8	fedffd6f	jal	x26,800017b8	 x26=0x800017b8
        2125000	       211	00000000	00000013	addi	x0,x0,0	  x0:0x00000000
        2135000	       212	800017a0	00000013	addi	x0,x0,0	  x0:0x00000000
        2145000	       213	800017a4	004000ef	jal	x1,800017a4	  x1=0x800017a4
        2155000	       214	00000000	00000013	addi	x0,x0,0	  x0:0x00000000
        2165000	       215	800017a4	00000013	addi	x0,x0,0	  x0:0x00000000
        2175000	       216	800017a8	fe9ff0ef	jal	x1,800017a8	  x1=0x800017a8
        2185000	       217	00000000	00000013	addi	x0,x0,0	  x0:0x00000000
        2195000	       218	8000178c	00000013	addi	x0,x0,0	  x0:0x00000000
        2205000	       219	80001790	020003ef	jal	x7,80001790	  x7=0x80001790
        2215000	       220	00000000	00000013	addi	x0,x0,0	  x0:0x00000000
        2225000	       221	800017ac	00000013	addi	x0,x0,0	  x0:0x00000000
        2235000	       222	800017b0	0100036f	jal	x6,800017b0	  x6=0x800017b0
        2245000	       223	00000000	00000013	addi	x0,x0,0	  x0:0x00000000
        2255000	       224	800017bc	00000013	addi	x0,x0,0	  x0:0x00000000
        2265000	       225	800017c0	00ba5f13	srli	x30,x20,0xb	 x20:0x1839573c x30=0x0003072a
        2275000	       226	800017c4	048000ef	jal	x1,800017c4	  x1=0x800017c4
        2285000	       227	00000000	00000013	addi	x0,x0,0	  x0:0x00000000
        2295000	       228	80001808	00000013	addi	x0,x0,0	  x0:0x00000000
        2305000	       229	8000180c	008000ef	jal	x1,8000180c	  x1=0x8000180c
        2315000	       230	00000000	00000013	addi	x0,x0,0	  x0:0x00000000
        2325000	       231	80001810	00000013	addi	x0,x0,0	  x0:0x00000000
        2335000	       232	80001814	fe5ff36f	jal	x6,80001814	  x6=0x80001814
        2345000	       233	00000000	00000013	addi	x0,x0,0	  x0:0x00000000
        2355000	       234	800017f4	00000013	addi	x0,x0,0	  x0:0x00000000
        2365000	       235	800017f8	00c000ef	jal	x1,800017f8	  x1=0x800017f8
        2375000	       236	00000000	00000013	addi	x0,x0,0	  x0:0x00000000
        2385000	       237	80001800	00000013	addi	x0,x0,0	  x0:0x00000000
        2395000	       238	80001804	fc9ff36f	jal	x6,80001804	  x6=0x80001804
        2405000	       239	00000000	00000013	addi	x0,x0,0	  x0:0x00000000
        2415000	       240	800017c8	00000013	addi	x0,x0,0	  x0:0x00000000
        2425000	       241	800017cc	028000ef	jal	x1,800017cc	  x1=0x800017cc
        2435000	       242	00000000	00000013	addi	x0,x0,0	  x0:0x00000000
        2445000	       243	800017f0	00000013	addi	x0,x0,0	  x0:0x00000000
        2455000	       244	800017f4	ff5ff0ef	jal	x1,800017f4	  x1=0x800017f4
        2465000	       245	00000000	00000013	addi	x0,x0,0	  x0:0x00000000
        2475000	       246	800017e4	00000013	addi	x0,x0,0	  x0:0x00000000
        2485000	       247	800017e8	020002ef	jal	x5,800017e8	  x5=0x800017e8
        2495000	       248	00000000	00000013	addi	x0,x0,0	  x0:0x00000000
        2505000	       249	80001804	00000013	addi	x0,x0,0	  x0:0x00000000
        2515000	       250	80001808	fe9fffef	jal	x31,80001808	 x31=0x80001808
        2525000	       251	00000000	00000013	addi	x0,x0,0	  x0:0x00000000
        2535000	       252	800017ec	00000013	addi	x0,x0,0	  x0:0x00000000
        2545000	       253	800017f0	fd9ff36f	jal	x6,800017f0	  x6=0x800017f0
        2555000	       254	00000000	00000013	addi	x0,x0,0	  x0:0x00000000
        2565000	       255	800017c4	00000013	addi	x0,x0,0	  x0:0x00000000
        2575000	       256	800017c8	048000ef	jal	x1,800017c8	  x1=0x800017c8
        2585000	       257	00000000	00000013	addi	x0,x0,0	  x0:0x00000000
        2595000	       258	8000180c	00000013	addi	x0,x0,0	  x0:0x00000000
        2605000	       259	80001810	fedff0ef	jal	x1,80001810	  x1=0x80001810
        2615000	       260	00000000	00000013	addi	x0,x0,0	  x0:0x00000000
        2625000	       261	800017f8	00000013	addi	x0,x0,0	  x0:0x00000000
        2635000	       262	800017fc	fe9ff96f	jal	x18,800017fc	 x18=0x800017fc
        2645000	       263	00000000	00000013	addi	x0,x0,0	  x0:0x00000000
        2655000	       264	800017e0	00000013	addi	x0,x0,0	  x0:0x00000000
        2665000	       265	800017e4	ff9ff0ef	jal	x1,800017e4	  x1=0x800017e4
        2675000	       266	00000000	00000013	addi	x0,x0,0	  x0:0x00000000
        2685000	       267	800017d8	00000013	addi	x0,x0,0	  x0:0x00000000
        2695000	       268	800017dc	004000ef	jal	x1,800017dc	  x1=0x800017dc
        2705000	       269	00000000	00000013	addi	x0,x0,0	  x0:0x00000000
        2715000	       270	800017dc	00000013	addi	x0,x0,0	  x0:0x00000000
        2725000	       271	800017e0	ff9ff36f	jal	x6,800017e0	  x6=0x800017e0
        2735000	       272	00000000	00000013	addi	x0,x0,0	  x0:0x00000000
        2745000	       273	800017d4	00000013	addi	x0,x0,0	  x0:0x00000000
        2755000	       274	800017d8	0440036f	jal	x6,800017d8	  x6=0x800017d8
        2765000	       275	00000000	00000013	addi	x0,x0,0	  x0:0x00000000
        2775000	       276	80001818	00000013	addi	x0,x0,0	  x0:0x00000000
        2785000	       277	8000181c	fb5ff86f	jal	x16,8000181c	 x16=0x8000181c
        2795000	       278	00000000	00000013	addi	x0,x0,0	  x0:0x00000000
        2805000	       279	800017cc	00000013	addi	x0,x0,0	  x0:0x00000000
        2815000	       280	800017d0	004000ef	jal	x1,800017d0	  x1=0x800017d0
        2825000	       281	00000000	00000013	addi	x0,x0,0	  x0:0x00000000
        2835000	       282	800017d0	00000013	addi	x0,x0,0	  x0:0x00000000
        2845000	       283	800017d4	044004ef	jal	x9,800017d4	  x9=0x800017d4
        2855000	       284	00000000	00000013	addi	x0,x0,0	  x0:0x00000000
        2865000	       285	80001814	00000013	addi	x0,x0,0	  x0:0x00000000
        2875000	       286	80001818	fe9ff16f	jal	x2,80001818	  x2=0x80001818
        2885000	       287	00000000	00000013	addi	x0,x0,0	  x0:0x00000000
        2895000	       288	800017fc	00000013	addi	x0,x0,0	  x0:0x00000000
        2905000	       289	80001800	fedff0ef	jal	x1,80001800	  x1=0x80001800
        2915000	       290	00000000	00000013	addi	x0,x0,0	  x0:0x00000000
        2925000	       291	800017e8	00000013	addi	x0,x0,0	  x0:0x00000000
        2935000	       292	800017ec	034000ef	jal	x1,800017ec	  x1=0x800017ec
        2945000	       293	00000000	00000013	addi	x0,x0,0	  x0:0x00000000
        2955000	       294	8000181c	00000013	addi	x0,x0,0	  x0:0x00000000
        2965000	       295	80001820	00701f93	slli	x31,x0,0x7	  x0:0x00000000 x31=0x00000000
        2975000	       296	80001824	01c000ef	jal	x1,80001824	  x1=0x80001824
        2985000	       297	00000000	00000013	addi	x0,x0,0	  x0:0x00000000
        2995000	       298	8000183c	00000013	addi	x0,x0,0	  x0:0x00000000
        3005000	       299	80001840	024001ef	jal	x3,80001840	  x3=0x80001840
        3015000	       300	00000000	00000013	addi	x0,x0,0	  x0:0x00000000
        3025000	       301	80001860	00000013	addi	x0,x0,0	  x0:0x00000000
        3035000	       302	80001864	ff5ff0ef	jal	x1,80001864	  x1=0x80001864
        3045000	       303	00000000	00000013	addi	x0,x0,0	  x0:0x00000000
        3055000	       304	80001854	00000013	addi	x0,x0,0	  x0:0x00000000
        3065000	       305	80001858	014002ef	jal	x5,80001858	  x5=0x80001858
        3075000	       306	00000000	00000013	addi	x0,x0,0	  x0:0x00000000
        3085000	       307	80001868	00000013	addi	x0,x0,0	  x0:0x00000000
        3095000	       308	8000186c	fd1ff0ef	jal	x1,8000186c	  x1=0x8000186c
        3105000	       309	00000000	00000013	addi	x0,x0,0	  x0:0x00000000
        3115000	       310	80001838	00000013	addi	x0,x0,0	  x0:0x00000000
        3125000	       311	8000183c	ff5fff6f	jal	x30,8000183c	 x30=0x8000183c
        3135000	       312	00000000	00000013	addi	x0,x0,0	  x0:0x00000000
        3145000	       313	8000182c	00000013	addi	x0,x0,0	  x0:0x00000000
        3155000	       314	80001830	040000ef	jal	x1,80001830	  x1=0x80001830
        3165000	       315	00000000	00000013	addi	x0,x0,0	  x0:0x00000000
        3175000	       316	8000186c	00000013	addi	x0,x0,0	  x0:0x00000000
        3185000	       317	80001870	fddffaef	jal	x21,80001870	 x21=0x80001870
        3195000	       318	00000000	00000013	addi	x0,x0,0	  x0:0x00000000
        3205000	       319	80001848	00000013	addi	x0,x0,0	  x0:0x00000000
        3215000	       320	8000184c	008000ef	jal	x1,8000184c	  x1=0x8000184c
        3225000	       321	00000000	00000013	addi	x0,x0,0	  x0:0x00000000
        3235000	       322	80001850	00000013	addi	x0,x0,0	  x0:0x00000000
        3245000	       323	80001854	008000ef	jal	x1,80001854	  x1=0x80001854
        3255000	       324	00000000	00000013	addi	x0,x0,0	  x0:0x00000000
        3265000	       325	80001858	00000013	addi	x0,x0,0	  x0:0x00000000
        3275000	       326	8000185c	004000ef	jal	x1,8000185c	  x1=0x8000185c
        3285000	       327	00000000	00000013	addi	x0,x0,0	  x0:0x00000000
        3295000	       328	8000185c	00000013	addi	x0,x0,0	  x0:0x00000000
        3305000	       329	80001860	0080066f	jal	x12,80001860	 x12=0x80001860
        3315000	       330	00000000	00000013	addi	x0,x0,0	  x0:0x00000000
        3325000	       331	80001864	00000013	addi	x0,x0,0	  x0:0x00000000
        3335000	       332	80001868	fcdff36f	jal	x6,80001868	  x6=0x80001868
        3345000	       333	00000000	00000013	addi	x0,x0,0	  x0:0x00000000
        3355000	       334	80001830	00000013	addi	x0,x0,0	  x0:0x00000000
        3365000	       335	80001834	ff9ff0ef	jal	x1,80001834	  x1=0x80001834
        3375000	       336	00000000	00000013	addi	x0,x0,0	  x0:0x00000000
        3385000	       337	80001828	00000013	addi	x0,x0,0	  x0:0x00000000
        3395000	       338	8000182c	ffdff0ef	jal	x1,8000182c	  x1=0x8000182c
        3405000	       339	00000000	00000013	addi	x0,x0,0	  x0:0x00000000
        3415000	       340	80001824	00000013	addi	x0,x0,0	  x0:0x00000000
        3425000	       341	80001828	028009ef	jal	x19,80001828	 x19=0x80001828
        3435000	       342	00000000	00000013	addi	x0,x0,0	  x0:0x00000000
        3445000	       343	8000184c	00000013	addi	x0,x0,0	  x0:0x00000000
        3455000	       344	80001850	ff5ff86f	jal	x16,80001850	 x16=0x80001850
        3465000	       345	00000000	00000013	addi	x0,x0,0	  x0:0x00000000
        3475000	       346	80001840	00000013	addi	x0,x0,0	  x0:0x00000000
        3485000	       347	80001844	ff5ff36f	jal	x6,80001844	  x6=0x80001844
        3495000	       348	00000000	00000013	addi	x0,x0,0	  x0:0x00000000
        3505000	       349	80001834	00000013	addi	x0,x0,0	  x0:0x00000000
        3515000	       350	80001838	010000ef	jal	x1,80001838	  x1=0x80001838
        3525000	       351	00000000	00000013	addi	x0,x0,0	  x0:0x00000000
        3535000	       352	80001844	00000013	addi	x0,x0,0	  x0:0x00000000
        3545000	       353	80001848	02c000ef	jal	x1,80001848	  x1=0x80001848
        3555000	       354	00000000	00000013	addi	x0,x0,0	  x0:0x00000000
        3565000	       355	80001870	00000013	addi	x0,x0,0	  x0:0x00000000
        3575000	       356	80001874	01386cb3	or	x25,x16,x19	 x16:0x80001850 x19:0x80001828 x25=0x80001878
        3585000	       357	80001878	004000ef	jal	x1,80001878	  x1=0x80001878
        3595000	       358	00000000	00000013	addi	x0,x0,0	  x0:0x00000000
        3605000	       359	80001878	00000013	addi	x0,x0,0	  x0:0x00000000
        3615000	       360	8000187c	038000ef	jal	x1,8000187c	  x1=0x8000187c
        3625000	       361	00000000	00000013	addi	x0,x0,0	  x0:0x00000000
        3635000	       362	800018b0	00000013	addi	x0,x0,0	  x0:0x00000000
        3645000	       363	800018b4	0040016f	jal	x2,800018b4	  x2=0x800018b4
        3655000	       364	00000000	00000013	addi	x0,x0,0	  x0:0x00000000
        3665000	       365	800018b4	00000013	addi	x0,x0,0	  x0:0x00000000
        3675000	       366	800018b8	fd1ff36f	jal	x6,800018b8	  x6=0x800018b8
        3685000	       367	00000000	00000013	addi	x0,x0,0	  x0:0x00000000
        3695000	       368	80001884	00000013	addi	x0,x0,0	  x0:0x00000000
        3705000	       369	80001888	01c000ef	jal	x1,80001888	  x1=0x80001888
        3715000	       370	00000000	00000013	addi	x0,x0,0	  x0:0x00000000
        3725000	       371	800018a0	00000013	addi	x0,x0,0	  x0:0x00000000
        3735000	       372	800018a4	0040076f	jal	x14,800018a4	 x14=0x800018a4
        3745000	       373	00000000	00000013	addi	x0,x0,0	  x0:0x00000000
        3755000	       374	800018a4	00000013	addi	x0,x0,0	  x0:0x00000000
        3765000	       375	800018a8	0280036f	jal	x6,800018a8	  x6=0x800018a8
        3775000	       376	00000000	00000013	addi	x0,x0,0	  x0:0x00000000
        3785000	       377	800018cc	00000013	addi	x0,x0,0	  x0:0x00000000
        3795000	       378	800018d0	ff9ff0ef	jal	x1,800018d0	  x1=0x800018d0
        3805000	       379	00000000	00000013	addi	x0,x0,0	  x0:0x00000000
        3815000	       380	800018c4	00000013	addi	x0,x0,0	  x0:0x00000000
        3825000	       381	800018c8	fd1ff0ef	jal	x1,800018c8	  x1=0x800018c8
        3835000	       382	00000000	00000013	addi	x0,x0,0	  x0:0x00000000
        3845000	       383	80001894	00000013	addi	x0,x0,0	  x0:0x00000000
        3855000	       384	80001898	0240036f	jal	x6,80001898	  x6=0x80001898
        3865000	       385	00000000	00000013	addi	x0,x0,0	  x0:0x00000000
        3875000	       386	800018b8	00000013	addi	x0,x0,0	  x0:0x00000000
        3885000	       387	800018bc	fd9ff0ef	jal	x1,800018bc	  x1=0x800018bc
        3895000	       388	00000000	00000013	addi	x0,x0,0	  x0:0x00000000
        3905000	       389	80001890	00000013	addi	x0,x0,0	  x0:0x00000000
        3915000	       390	80001894	ffdffeef	jal	x29,80001894	 x29=0x80001894
        3925000	       391	00000000	00000013	addi	x0,x0,0	  x0:0x00000000
        3935000	       392	8000188c	00000013	addi	x0,x0,0	  x0:0x00000000
        3945000	       393	80001890	030000ef	jal	x1,80001890	  x1=0x80001890
        3955000	       394	00000000	00000013	addi	x0,x0,0	  x0:0x00000000
        3965000	       395	800018bc	00000013	addi	x0,x0,0	  x0:0x00000000
        3975000	       396	800018c0	00c00e6f	jal	x28,800018c0	 x28=0x800018c0
        3985000	       397	00000000	00000013	addi	x0,x0,0	  x0:0x00000000
        3995000	       398	800018c8	00000013	addi	x0,x0,0	  x0:0x00000000
        4005000	       399	800018cc	fe5ff7ef	jal	x15,800018cc	 x15=0x800018cc
        4015000	       400	00000000	00000013	addi	x0,x0,0	  x0:0x00000000
        4025000	       401	800018ac	00000013	addi	x0,x0,0	  x0:0x00000000
        4035000	       402	800018b0	fedff0ef	jal	x1,800018b0	  x1=0x800018b0
        4045000	       403	00000000	00000013	addi	x0,x0,0	  x0:0x00000000
        4055000	       404	80001898	00000013	addi	x0,x0,0	  x0:0x00000000
        4065000	       405	8000189c	028001ef	jal	x3,8000189c	  x3=0x8000189c
        4075000	       406	00000000	00000013	addi	x0,x0,0	  x0:0x00000000
        4085000	       407	800018c0	00000013	addi	x0,x0,0	  x0:0x00000000
        4095000	       408	800018c4	fe9ff0ef	jal	x1,800018c4	  x1=0x800018c4
        4105000	       409	00000000	00000013	addi	x0,x0,0	  x0:0x00000000
        4115000	       410	800018a8	00000013	addi	x0,x0,0	  x0:0x00000000
        4125000	       411	800018ac	fd9ff96f	jal	x18,800018ac	 x18=0x800018ac
        4135000	       412	00000000	00000013	addi	x0,x0,0	  x0:0x00000000
        4145000	       413	80001880	00000013	addi	x0,x0,0	  x0:0x00000000
        4155000	       414	80001884	008000ef	jal	x1,80001884	  x1=0x80001884
        4165000	       415	00000000	00000013	addi	x0,x0,0	  x0:0x00000000
        4175000	       416	80001888	00000013	addi	x0,x0,0	  x0:0x00000000
        4185000	       417	8000188c	ff5ffbef	jal	x23,8000188c	 x23=0x8000188c
        4195000	       418	00000000	00000013	addi	x0,x0,0	  x0:0x00000000
        4205000	       419	8000187c	00000013	addi	x0,x0,0	  x0:0x00000000
        4215000	       420	80001880	0200036f	jal	x6,80001880	  x6=0x80001880
        4225000	       421	00000000	00000013	addi	x0,x0,0	  x0:0x00000000
        4235000	       422	8000189c	00000013	addi	x0,x0,0	  x0:0x00000000
        4245000	       423	800018a0	0340036f	jal	x6,800018a0	  x6=0x800018a0
        4255000	       424	00000000	00000013	addi	x0,x0,0	  x0:0x00000000
        4265000	       425	800018d0	00000013	addi	x0,x0,0	  x0:0x00000000
        4275000	       426	800018d4	004001ef	jal	x3,800018d4	  x3=0x800018d4
        4285000	       427	00000000	00000013	addi	x0,x0,0	  x0:0x00000000
        4295000	       428	800018d4	00000013	addi	x0,x0,0	  x0:0x00000000
        4305000	       429	800018d8	196fbc13	sltiu	x24,x31,406	 x31:0x00000000 x24=0x00000001
        4315000	       430	800018dc	00c000ef	jal	x1,800018dc	  x1=0x800018dc
        4325000	       431	00000000	00000013	addi	x0,x0,0	  x0:0x00000000
        4335000	       432	800018e4	00000013	addi	x0,x0,0	  x0:0x00000000
        4345000	       433	800018e8	03c000ef	jal	x1,800018e8	  x1=0x800018e8
        4355000	       434	00000000	00000013	addi	x0,x0,0	  x0:0x00000000
        4365000	       435	80001920	00000013	addi	x0,x0,0	  x0:0x00000000
        4375000	       436	80001924	fe9ff0ef	jal	x1,80001924	  x1=0x80001924
        4385000	       437	00000000	00000013	addi	x0,x0,0	  x0:0x00000000
        4395000	       438	80001908	00000013	addi	x0,x0,0	  x0:0x00000000
        4405000	       439	8000190c	fedff36f	jal	x6,8000190c	  x6=0x8000190c
        4415000	       440	00000000	00000013	addi	x0,x0,0	  x0:0x00000000
        4425000	       441	800018f4	00000013	addi	x0,x0,0	  x0:0x00000000
        4435000	       442	800018f8	0240036f	jal	x6,800018f8	  x6=0x800018f8
        4445000	       443	00000000	00000013	addi	x0,x0,0	  x0:0x00000000
        4455000	       444	80001918	00000013	addi	x0,x0,0	  x0:0x00000000
        4465000	       445	8000191c	014000ef	jal	x1,8000191c	  x1=0x8000191c
        4475000	       446	00000000	00000013	addi	x0,x0,0	  x0:0x00000000
        4485000	       447	8000192c	00000013	addi	x0,x0,0	  x0:0x00000000
        4495000	       448	80001930	ff9ff0ef	jal	x1,80001930	  x1=0x80001930
        4505000	       449	00000000	00000013	addi	x0,x0,0	  x0:0x00000000
        4515000	       450	80001924	00000013	addi	x0,x0,0	  x0:0x00000000
        4525000	       451	80001928	fc9ff0ef	jal	x1,80001928	  x1=0x80001928
        4535000	       452	00000000	00000013	addi	x0,x0,0	  x0:0x00000000
        4545000	       453	800018ec	00000013	addi	x0,x0,0	  x0:0x00000000
        4555000	       454	800018f0	ffdff0ef	jal	x1,800018f0	  x1=0x800018f0
        4565000	       455	00000000	00000013	addi	x0,x0,0	  x0:0x00000000
        4575000	       456	800018e8	00000013	addi	x0,x0,0	  x0:0x00000000
        4585000	       457	800018ec	034000ef	jal	x1,800018ec	  x1=0x800018ec
        4595000	       458	00000000	00000013	addi	x0,x0,0	  x0:0x00000000
        4605000	       459	8000191c	00000013	addi	x0,x0,0	  x0:0x00000000
        4615000	       460	80001920	fc5ff1ef	jal	x3,80001920	  x3=0x80001920
        4625000	       461	00000000	00000013	addi	x0,x0,0	  x0:0x00000000
        4635000	       462	800018e0	00000013	addi	x0,x0,0	  x0:0x00000000
        4645000	       463	800018e4	02c000ef	jal	x1,800018e4	  x1=0x800018e4
        4655000	       464	00000000	00000013	addi	x0,x0,0	  x0:0x00000000
        4665000	       465	8000190c	00000013	addi	x0,x0,0	  x0:0x00000000
        4675000	       466	80001910	008000ef	jal	x1,80001910	  x1=0x80001910
        4685000	       467	00000000	00000013	addi	x0,x0,0	  x0:0x00000000
        4695000	       468	80001914	00000013	addi	x0,x0,0	  x0:0x00000000
        4705000	       469	80001918	fe9ff36f	jal	x6,80001918	  x6=0x80001918
        4715000	       470	00000000	00000013	addi	x0,x0,0	  x0:0x00000000
        4725000	       471	800018fc	00000013	addi	x0,x0,0	  x0:0x00000000
        4735000	       472	80001900	008000ef	jal	x1,80001900	  x1=0x80001900
        4745000	       473	00000000	00000013	addi	x0,x0,0	  x0:0x00000000
        4755000	       474	80001904	00000013	addi	x0,x0,0	  x0:0x00000000
        4765000	       475	80001908	00c000ef	jal	x1,80001908	  x1=0x80001908
        4775000	       476	00000000	00000013	addi	x0,x0,0	  x0:0x00000000
        4785000	       477	80001910	00000013	addi	x0,x0,0	  x0:0x00000000
        4795000	       478	80001914	020005ef	jal	x11,80001914	 x11=0x80001914
        4805000	       479	00000000	00000013	addi	x0,x0,0	  x0:0x00000000
        4815000	       480	80001930	00000013	addi	x0,x0,0	  x0:0x00000000
        4825000	       481	80001934	fc9ff36f	jal	x6,80001934	  x6=0x80001934
        4835000	       482	00000000	00000013	addi	x0,x0,0	  x0:0x00000000
        4845000	       483	800018f8	00000013	addi	x0,x0,0	  x0:0x00000000
        4855000	       484	800018fc	008000ef	jal	x1,800018fc	  x1=0x800018fc
        4865000	       485	00000000	00000013	addi	x0,x0,0	  x0:0x00000000
        4875000	       486	80001900	00000013	addi	x0,x0,0	  x0:0x00000000
        4885000	       487	80001904	028000ef	jal	x1,80001904	  x1=0x80001904
        4895000	       488	00000000	00000013	addi	x0,x0,0	  x0:0x00000000
        4905000	       489	80001928	00000013	addi	x0,x0,0	  x0:0x00000000
        4915000	       490	8000192c	fb5ff2ef	jal	x5,8000192c	  x5=0x8000192c
        4925000	       491	00000000	00000013	addi	x0,x0,0	  x0:0x00000000
        4935000	       492	800018dc	00000013	addi	x0,x0,0	  x0:0x00000000
        4945000	       493	800018e0	014000ef	jal	x1,800018e0	  x1=0x800018e0
        4955000	       494	00000000	00000013	addi	x0,x0,0	  x0:0x00000000
        4965000	       495	800018f0	00000013	addi	x0,x0,0	  x0:0x00000000
        4975000	       496	800018f4	0440076f	jal	x14,800018f4	 x14=0x800018f4
        4985000	       497	00000000	00000013	addi	x0,x0,0	  x0:0x00000000
        4995000	       498	80001934	00000013	addi	x0,x0,0	  x0:0x00000000
        5005000	       499	80001938	c65ac593	xori	x11,x21,-923	 x21:0x80001870 x11=0x7fffe415
        5015000	       500	8000193c	020000ef	jal	x1,8000193c	  x1=0x8000193c
        5025000	       501	00000000	00000013	addi	x0,x0,0	  x0:0x00000000
        5035000	       502	80001958	00000013	addi	x0,x0,0	  x0:0x00000000
        5045000	       503	8000195c	03c00d6f	jal	x26,8000195c	 x26=0x8000195c
        5055000	       504	00000000	00000013	addi	x0,x0,0	  x0:0x00000000
        5065000	       505	80001994	00000013	addi	x0,x0,0	  x0:0x00000000
        5075000	       506	80001998	fd5ff5ef	jal	x11,80001998	 x11=0x80001998
        5085000	       507	00000000	00000013	addi	x0,x0,0	  x0:0x00000000
        5095000	       508	80001968	00000013	addi	x0,x0,0	  x0:0x00000000
        5105000	       509	8000196c	fedffd6f	jal	x26,8000196c	 x26=0x8000196c
        5115000	       510	00000000	00000013	addi	x0,x0,0	  x0:0x00000000
        5125000	       511	80001954	00000013	addi	x0,x0,0	  x0:0x00000000
        5135000	       512	80001958	024000ef	jal	x1,80001958	  x1=0x80001958
        5145000	       513	00000000	00000013	addi	x0,x0,0	  x0:0x00000000
        5155000	       514	80001978	00000013	addi	x0,x0,0	  x0:0x00000000
        5165000	       515	8000197c	fe5ffeef	jal	x29,8000197c	 x29=0x8000197c
        5175000	       516	00000000	00000013	addi	x0,x0,0	  x0:0x00000000
        5185000	       517	8000195c	00000013	addi	x0,x0,0	  x0:0x00000000
        5195000	       518	80001960	fedff76f	jal	x14,80001960	 x14=0x80001960
        5205000	       519	00000000	00000013	addi	x0,x0,0	  x0:0x00000000
        5215000	       520	80001948	00000013	addi	x0,x0,0	  x0:0x00000000
        5225000	       521	8000194c	0580036f	jal	x6,8000194c	  x6=0x8000194c
        5235000	       522	00000000	00000013	addi	x0,x0,0	  x0:0x00000000
        5245000	       523	800019a0	00000013	addi	x0,x0,0	  x0:0x00000000
        5255000	       524	800019a4	fa1ff0ef	jal	x1,800019a4	  x1=0x800019a4
        5265000	       525	00000000	00000013	addi	x0,x0,0	  x0:0x00000000
        5275000	       526	80001940	00000013	addi	x0,x0,0	  x0:0x00000000
        5285000	       527	80001944	05c0036f	jal	x6,80001944	  x6=0x80001944
        5295000	       528	00000000	00000013	addi	x0,x0,0	  x0:0x00000000
        5305000	       529	8000199c	00000013	addi	x0,x0,0	  x0:0x00000000
        5315000	       530	800019a0	ff5ff66f	jal	x12,800019a0	 x12=0x800019a0
        5325000	       531	00000000	00000013	addi	x0,x0,0	  x0:0x00000000
        5335000	       532	80001990	00000013	addi	x0,x0,0	  x0:0x00000000
        5345000	       533	80001994	fe5ff5ef	jal	x11,80001994	 x11=0x80001994
        5355000	       534	00000000	00000013	addi	x0,x0,0	  x0:0x00000000
        5365000	       535	80001974	00000013	addi	x0,x0,0	  x0:0x00000000
        5375000	       536	80001978	fd9ff0ef	jal	x1,80001978	  x1=0x80001978
        5385000	       537	00000000	00000013	addi	x0,x0,0	  x0:0x00000000
        5395000	       538	8000194c	00000013	addi	x0,x0,0	  x0:0x00000000
        5405000	       539	80001950	0140036f	jal	x6,80001950	  x6=0x80001950
        5415000	       540	00000000	00000013	addi	x0,x0,0	  x0:0x00000000
        5425000	       541	80001960	00000013	addi	x0,x0,0	  x0:0x00000000
        5435000	       542	80001964	010000ef	jal	x1,80001964	  x1=0x80001964
        5445000	       543	00000000	00000013	addi	x0,x0,0	  x0:0x00000000
        5455000	       544	80001970	00000013	addi	x0,x0,0	  x0:0x00000000
        5465000	       545	80001974	0100036f	jal	x6,80001974	  x6=0x80001974
        5475000	       546	00000000	00000013	addi	x0,x0,0	  x0:0x00000000
        5485000	       547	80001980	00000013	addi	x0,x0,0	  x0:0x00000000
        5495000	       548	80001984	00400a6f	jal	x20,80001984	 x20=0x80001984
        5505000	       549	00000000	00000013	addi	x0,x0,0	  x0:0x00000000
        5515000	       550	80001984	00000013	addi	x0,x0,0	  x0:0x00000000
        5525000	       551	80001988	0200036f	jal	x6,80001988	  x6=0x80001988
        5535000	       552	00000000	00000013	addi	x0,x0,0	  x0:0x00000000
        5545000	       553	800019a4	00000013	addi	x0,x0,0	  x0:0x00000000
        5555000	       554	800019a8	f99ff36f	jal	x6,800019a8	  x6=0x800019a8
        5565000	       555	00000000	00000013	addi	x0,x0,0	  x0:0x00000000
        5575000	       556	8000193c	00000013	addi	x0,x0,0	  x0:0x00000000
        5585000	       557	80001940	05c005ef	jal	x11,80001940	 x11=0x80001940
        5595000	       558	00000000	00000013	addi	x0,x0,0	  x0:0x00000000
        5605000	       559	80001998	00000013	addi	x0,x0,0	  x0:0x00000000
        5615000	       560	8000199c	ff1ffcef	jal	x25,8000199c	 x25=0x8000199c
        5625000	       561	00000000	00000013	addi	x0,x0,0	  x0:0x00000000
        5635000	       562	80001988	00000013	addi	x0,x0,0	  x0:0x00000000
        5645000	       563	8000198c	fbdffe6f	jal	x28,8000198c	 x28=0x8000198c
        5655000	       564	00000000	00000013	addi	x0,x0,0	  x0:0x00000000
        5665000	       565	80001944	00000013	addi	x0,x0,0	  x0:0x00000000
        5675000	       566	80001948	038000ef	jal	x1,80001948	  x1=0x80001948
        5685000	       567	00000000	00000013	addi	x0,x0,0	  x0:0x00000000
        5695000	       568	8000197c	00000013	addi	x0,x0,0	  x0:0x00000000
        5705000	       569	80001980	ff1ff0ef	jal	x1,80001980	  x1=0x80001980
        5715000	       570	00000000	00000013	addi	x0,x0,0	  x0:0x00000000
        5725000	       571	8000196c	00000013	addi	x0,x0,0	  x0:0x00000000
        5735000	       572	80001970	fe5ff36f	jal	x6,80001970	  x6=0x80001970
        5745000	       573	00000000	00000013	addi	x0,x0,0	  x0:0x00000000
        5755000	       574	80001950	00000013	addi	x0,x0,0	  x0:0x00000000
        5765000	       575	80001954	03c0016f	jal	x2,80001954	  x2=0x80001954
        5775000	       576	00000000	00000013	addi	x0,x0,0	  x0:0x00000000
        5785000	       577	8000198c	00000013	addi	x0,x0,0	  x0:0x00000000
        5795000	       578	80001990	fd9ff0ef	jal	x1,80001990	  x1=0x80001990
        5805000	       579	00000000	00000013	addi	x0,x0,0	  x0:0x00000000
        5815000	       580	80001964	00000013	addi	x0,x0,0	  x0:0x00000000
        5825000	       581	80001968	0440026f	jal	x4,80001968	  x4=0x80001968
        5835000	       582	00000000	00000013	addi	x0,x0,0	  x0:0x00000000
        5845000	       583	800019a8	00000013	addi	x0,x0,0	  x0:0x00000000
        5855000	       584	800019ac	14aea593	slti	x11,x29,330	 x29:0x8000197c x11=0x00000001
        5865000	       585	800019b0	004000ef	jal	x1,800019b0	  x1=0x800019b0
        5875000	       586	00000000	00000013	addi	x0,x0,0	  x0:0x00000000
        5885000	       587	800019b0	00000013	addi	x0,x0,0	  x0:0x00000000
        5895000	       588	800019b4	05c00f6f	jal	x30,800019b4	 x30=0x800019b4
        5905000	       589	00000000	00000013	addi	x0,x0,0	  x0:0x00000000
        5915000	       590	80001a0c	00000013	addi	x0,x0,0	  x0:0x00000000
        5925000	       591	80001a10	fa9ff0ef	jal	x1,80001a10	  x1=0x80001a10
        5935000	       592	00000000	00000013	addi	x0,x0,0	  x0:0x00000000
        5945000	       593	800019b4	00000013	addi	x0,x0,0	  x0:0x00000000
        5955000	       594	800019b8	004001ef	jal	x3,800019b8	  x3=0x800019b8
        5965000	       595	00000000	00000013	addi	x0,x0,0	  x0:0x00000000
        5975000	       596	800019b8	00000013	addi	x0,x0,0	  x0:0x00000000
        5985000	       597	800019bc	0080036f	jal	x6,800019bc	  x6=0x800019bc
        5995000	       598	00000000	00000013	addi	x0,x0,0	  x0:0x00000000
        6005000	       599	800019c0	00000013	addi	x0,x0,0	  x0:0x00000000
        6015000	       600	800019c4	030000ef	jal	x1,800019c4	  x1=0x800019c4
        6025000	       601	00000000	00000013	addi	x0,x0,0	  x0:0x00000000
        6035000	       602	800019f0	00000013	addi	x0,x0,0	  x0:0x00000000
        6045000	       603	800019f4	0100036f	jal	x6,800019f4	  x6=0x800019f4
        6055000	       604	00000000	00000013	addi	x0,x0,0	  x0:0x00000000
        6065000	       605	80001a00	00000013	addi	x0,x0,0	  x0:0x00000000
        6075000	       606	80001a04	fd1ff6ef	jal	x13,80001a04	 x13=0x80001a04
        6085000	       607	00000000	00000013	addi	x0,x0,0	  x0:0x00000000
        6095000	       608	800019d0	00000013	addi	x0,x0,0	  x0:0x00000000
        6105000	       609	800019d4	02c0016f	jal	x2,800019d4	  x2=0x800019d4
        6115000	       610	00000000	00000013	addi	x0,x0,0	  x0:0x00000000
        6125000	       611	800019fc	00000013	addi	x0,x0,0	  x0:0x00000000
        6135000	       612	80001a00	fedff36f	jal	x6,80001a00	  x6=0x80001a00
        6145000	       613	00000000	00000013	addi	x0,x0,0	  x0:0x00000000
        6155000	       614	800019e8	00000013	addi	x0,x0,0	  x0:0x00000000
        6165000	       615	800019ec	0280036f	jal	x6,800019ec	  x6=0x800019ec
        6175000	       616	00000000	00000013	addi	x0,x0,0	  x0:0x00000000
        6185000	       617	80001a10	00000013	addi	x0,x0,0	  x0:0x00000000
        6195000	       618	80001a14	fb5ff9ef	jal	x19,80001a14	 x19=0x80001a14
        6205000	       619	00000000	00000013	addi	x0,x0,0	  x0:0x00000000
        6215000	       620	800019c4	00000013	addi	x0,x0,0	  x0:0x00000000
        6225000	       621	800019c8	020000ef	jal	x1,800019c8	  x1=0x800019c8
        6235000	       622	00000000	00000013	addi	x0,x0,0	  x0:0x00000000
        6245000	       623	800019e4	00000013	addi	x0,x0,0	  x0:0x00000000
        6255000	       624	800019e8	fe9ff36f	jal	x6,800019e8	  x6=0x800019e8
        6265000	       625	00000000	00000013	addi	x0,x0,0	  x0:0x00000000
        6275000	       626	800019cc	00000013	addi	x0,x0,0	  x0:0x00000000
        6285000	       627	800019d0	ffdff0ef	jal	x1,800019d0	  x1=0x800019d0
        6295000	       628	00000000	00000013	addi	x0,x0,0	  x0:0x00000000
        6305000	       629	800019c8	00000013	addi	x0,x0,0	  x0:0x00000000
        6315000	       630	800019cc	ff5ff0ef	jal	x1,800019cc	  x1=0x800019cc
        6325000	       631	00000000	00000013	addi	x0,x0,0	  x0:0x00000000
        6335000	       632	800019bc	00000013	addi	x0,x0,0	  x0:0x00000000
        6345000	       633	800019c0	030000ef	jal	x1,800019c0	  x1=0x800019c0
        6355000	       634	00000000	00000013	addi	x0,x0,0	  x0:0x00000000
        6365000	       635	800019ec	00000013	addi	x0,x0,0	  x0:0x00000000
        6375000	       636	800019f0	01c000ef	jal	x1,800019f0	  x1=0x800019f0
        6385000	       637	00000000	00000013	addi	x0,x0,0	  x0:0x00000000
        6395000	       638	80001a08	00000013	addi	x0,x0,0	  x0:0x00000000
        6405000	       639	80001a0c	ffdff0ef	jal	x1,80001a0c	  x1=0x80001a0c
        6415000	       640	00000000	00000013	addi	x0,x0,0	  x0:0x00000000
        6425000	       641	80001a04	00000013	addi	x0,x0,0	  x0:0x00000000
        6435000	       642	80001a08	fd5ff0ef	jal	x1,80001a08	  x1=0x80001a08
        6445000	       643	00000000	00000013	addi	x0,x0,0	  x0:0x00000000
        6455000	       644	800019d8	00000013	addi	x0,x0,0	  x0:0x00000000
        6465000	       645	800019dc	ffdff0ef	jal	x1,800019dc	  x1=0x800019dc
        6475000	       646	00000000	00000013	addi	x0,x0,0	  x0:0x00000000
        6485000	       647	800019d4	00000013	addi	x0,x0,0	  x0:0x00000000
        6495000	       648	800019d8	008004ef	jal	x9,800019d8	  x9=0x800019d8
        6505000	       649	00000000	00000013	addi	x0,x0,0	  x0:0x00000000
        6515000	       650	800019dc	00000013	addi	x0,x0,0	  x0:0x00000000
        6525000	       651	800019e0	0180036f	jal	x6,800019e0	  x6=0x800019e0
        6535000	       652	00000000	00000013	addi	x0,x0,0	  x0:0x00000000
        6545000	       653	800019f4	00000013	addi	x0,x0,0	  x0:0x00000000
        6555000	       654	800019f8	004000ef	jal	x1,800019f8	  x1=0x800019f8
        6565000	       655	00000000	00000013	addi	x0,x0,0	  x0:0x00000000
        6575000	       656	800019f8	00000013	addi	x0,x0,0	  x0:0x00000000
        6585000	       657	800019fc	fe9ff0ef	jal	x1,800019fc	  x1=0x800019fc
        6595000	       658	00000000	00000013	addi	x0,x0,0	  x0:0x00000000
        6605000	       659	800019e0	00000013	addi	x0,x0,0	  x0:0x00000000
        6615000	       660	800019e4	034000ef	jal	x1,800019e4	  x1=0x800019e4
        6625000	       661	00000000	00000013	addi	x0,x0,0	  x0:0x00000000
        6635000	       662	80001a14	00000013	addi	x0,x0,0	  x0:0x00000000
        6645000	       663	80001a18	fb122193	slti	x3,x4,-79	  x4:0x80001968  x3=0x00000001
        6655000	       664	80001a1c	028000ef	jal	x1,80001a1c	  x1=0x80001a1c
        6665000	       665	00000000	00000013	addi	x0,x0,0	  x0:0x00000000
        6675000	       666	80001a40	00000013	addi	x0,x0,0	  x0:0x00000000
        6685000	       667	80001a44	00c0096f	jal	x18,80001a44	 x18=0x80001a44
        6695000	       668	00000000	00000013	addi	x0,x0,0	  x0:0x00000000
        6705000	       669	80001a4c	00000013	addi	x0,x0,0	  x0:0x00000000
        6715000	       670	80001a50	fe1ff0ef	jal	x1,80001a50	  x1=0x80001a50
        6725000	       671	00000000	00000013	addi	x0,x0,0	  x0:0x00000000
        6735000	       672	80001a2c	00000013	addi	x0,x0,0	  x0:0x00000000
        6745000	       673	80001a30	03c0026f	jal	x4,80001a30	  x4=0x80001a30
        6755000	       674	00000000	00000013	addi	x0,x0,0	  x0:0x00000000
        6765000	       675	80001a68	00000013	addi	x0,x0,0	  x0:0x00000000
        6775000	       676	80001a6c	004000ef	jal	x1,80001a6c	  x1=0x80001a6c
        6785000	       677	00000000	00000013	addi	x0,x0,0	  x0:0x00000000
        6795000	       678	80001a6c	00000013	addi	x0,x0,0	  x0:0x00000000
        6805000	       679	80001a70	ff1ff0ef	jal	x1,80001a70	  x1=0x80001a70
        6815000	       680	00000000	00000013	addi	x0,x0,0	  x0:0x00000000
        6825000	       681	80001a5c	00000013	addi	x0,x0,0	  x0:0x00000000
        6835000	       682	80001a60	fc9ff26f	jal	x4,80001a60	  x4=0x80001a60
        6845000	       683	00000000	00000013	addi	x0,x0,0	  x0:0x00000000
        6855000	       684	80001a24	00000013	addi	x0,x0,0	  x0:0x00000000
        6865000	       685	80001a28	04c006ef	jal	x13,80001a28	 x13=0x80001a28
        6875000	       686	00000000	00000013	addi	x0,x0,0	  x0:0x00000000
        6885000	       687	80001a70	00000013	addi	x0,x0,0	  x0:0x00000000
        6895000	       688	80001a74	fe1ff36f	jal	x6,80001a74	  x6=0x80001a74
        6905000	       689	00000000	00000013	addi	x0,x0,0	  x0:0x00000000
        6915000	       690	80001a50	00000013	addi	x0,x0,0	  x0:0x00000000
        6925000	       691	80001a54	014000ef	jal	x1,80001a54	  x1=0x80001a54
        6935000	       692	00000000	00000013	addi	x0,x0,0	  x0:0x00000000
        6945000	       693	80001a64	00000013	addi	x0,x0,0	  x0:0x00000000
        6955000	       694	80001a68	fd5ff0ef	jal	x1,80001a68	  x1=0x80001a68
        6965000	       695	00000000	00000013	addi	x0,x0,0	  x0:0x00000000
        6975000	       696	80001a38	00000013	addi	x0,x0,0	  x0:0x00000000
        6985000	       697	80001a3c	020000ef	jal	x1,80001a3c	  x1=0x80001a3c
        6995000	       698	00000000	00000013	addi	x0,x0,0	  x0:0x00000000
        7005000	       699	80001a58	00000013	addi	x0,x0,0	  x0:0x00000000
        7015000	       700	80001a5c	fc5ff36f	jal	x6,80001a5c	  x6=0x80001a5c
        7025000	       701	00000000	00000013	addi	x0,x0,0	  x0:0x00000000
        7035000	       702	80001a1c	00000013	addi	x0,x0,0	  x0:0x00000000
        7045000	       703	80001a20	044000ef	jal	x1,80001a20	  x1=0x80001a20
        7055000	       704	00000000	00000013	addi	x0,x0,0	  x0:0x00000000
        7065000	       705	80001a60	00000013	addi	x0,x0,0	  x0:0x00000000
        7075000	       706	80001a64	fc1ff6ef	jal	x13,80001a64	 x13=0x80001a64
        7085000	       707	00000000	00000013	addi	x0,x0,0	  x0:0x00000000
        7095000	       708	80001a20	00000013	addi	x0,x0,0	  x0:0x00000000
        7105000	       709	80001a24	024000ef	jal	x1,80001a24	  x1=0x80001a24
        7115000	       710	00000000	00000013	addi	x0,x0,0	  x0:0x00000000
        7125000	       711	80001a44	00000013	addi	x0,x0,0	  x0:0x00000000
        7135000	       712	80001a48	fe5ffe6f	jal	x28,80001a48	 x28=0x80001a48
        7145000	       713	00000000	00000013	addi	x0,x0,0	  x0:0x00000000
        7155000	       714	80001a28	00000013	addi	x0,x0,0	  x0:0x00000000
        7165000	       715	80001a2c	02c003ef	jal	x7,80001a2c	  x7=0x80001a2c
        7175000	       716	00000000	00000013	addi	x0,x0,0	  x0:0x00000000
        7185000	       717	80001a54	00000013	addi	x0,x0,0	  x0:0x00000000
        7195000	       718	80001a58	fe9ff0ef	jal	x1,80001a58	  x1=0x80001a58
        7205000	       719	00000000	00000013	addi	x0,x0,0	  x0:0x00000000
        7215000	       720	80001a3c	00000013	addi	x0,x0,0	  x0:0x00000000
        7225000	       721	80001a40	ff5ff0ef	jal	x1,80001a40	  x1=0x80001a40
        7235000	       722	00000000	00000013	addi	x0,x0,0	  x0:0x00000000
        7245000	       723	80001a30	00000013	addi	x0,x0,0	  x0:0x00000000
        7255000	       724	80001a34	01800f6f	jal	x30,80001a34	 x30=0x80001a34
        7265000	       725	00000000	00000013	addi	x0,x0,0	  x0:0x00000000
        7275000	       726	80001a48	00000013	addi	x0,x0,0	  x0:0x00000000
        7285000	       727	80001a4c	fedff0ef	jal	x1,80001a4c	  x1=0x80001a4c
        7295000	       728	00000000	00000013	addi	x0,x0,0	  x0:0x00000000
        7305000	       729	80001a34	00000013	addi	x0,x0,0	  x0:0x00000000
        7315000	       730	80001a38	0400036f	jal	x6,80001a38	  x6=0x80001a38
        7325000	       731	00000000	00000013	addi	x0,x0,0	  x0:0x00000000
        7335000	       732	80001a74	00000013	addi	x0,x0,0	  x0:0x00000000
        7345000	       733	80001a78	f530f913	andi	x18,x1,-173	  x1:0x80001a4c x18=0x80001a40
        7355000	       734	80001a7c	060000ef	jal	x1,80001a7c	  x1=0x80001a7c
        7365000	       735	00000000	00000013	addi	x0,x0,0	  x0:0x00000000
        7375000	       736	80001ad8	00000013	addi	x0,x0,0	  x0:0x00000000
        7385000	       737	80001adc	0040036f	jal	x6,80001adc	  x6=0x80001adc
        7395000	       738	00000000	00000013	addi	x0,x0,0	  x0:0x00000000
        7405000	       739	80001adc	00000013	addi	x0,x0,0	  x0:0x00000000
        7415000	       740	80001ae0	fc9ff86f	jal	x16,80001ae0	 x16=0x80001ae0
        7425000	       741	00000000	00000013	addi	x0,x0,0	  x0:0x00000000
        7435000	       742	80001aa4	00000013	addi	x0,x0,0	  x0:0x00000000
        7445000	       743	80001aa8	020000ef	jal	x1,80001aa8	  x1=0x80001aa8
        7455000	       744	00000000	00000013	addi	x0,x0,0	  x0:0x00000000
        7465000	       745	80001ac4	00000013	addi	x0,x0,0	  x0:0x00000000
        7475000	       746	80001ac8	004000ef	jal	x1,80001ac8	  x1=0x80001ac8
        7485000	       747	00000000	00000013	addi	x0,x0,0	  x0:0x00000000
        7495000	       748	80001ac8	00000013	addi	x0,x0,0	  x0:0x00000000
        7505000	       749	80001acc	00400c6f	jal	x24,80001acc	 x24=0x80001acc
        7515000	       750	00000000	00000013	addi	x0,x0,0	  x0:0x00000000
        7525000	       751	80001acc	00000013	addi	x0,x0,0	  x0:0x00000000
        7535000	       752	80001ad0	014001ef	jal	x3,80001ad0	  x3=0x80001ad0
        7545000	       753	00000000	00000013	addi	x0,x0,0	  x0:0x00000000
        7555000	       754	80001ae0	00000013	addi	x0,x0,0	  x0:0x00000000
        7565000	       755	80001ae4	fc9ff36f	jal	x6,80001ae4	  x6=0x80001ae4
        7575000	       756	00000000	00000013	addi	x0,x0,0	  x0:0x00000000
        7585000	       757	80001aa8	00000013	addi	x0,x0,0	  x0:0x00000000
        7595000	       758	80001aac	fe5ff0ef	jal	x1,80001aac	  x1=0x80001aac
        7605000	       759	00000000	00000013	addi	x0,x0,0	  x0:0x00000000
        7615000	       760	80001a8c	00000013	addi	x0,x0,0	  x0:0x00000000
        7625000	       761	80001a90	0340026f	jal	x4,80001a90	  x4=0x80001a90
        7635000	       762	00000000	00000013	addi	x0,x0,0	  x0:0x00000000
        7645000	       763	80001ac0	00000013	addi	x0,x0,0	  x0:0x00000000
        7655000	       764	80001ac4	ffdff0ef	jal	x1,80001ac4	  x1=0x80001ac4
        7665000	       765	00000000	00000013	addi	x0,x0,0	  x0:0x00000000
        7675000	       766	80001abc	00000013	addi	x0,x0,0	  x0:0x00000000
        7685000	       767	80001ac0	fe5ff96f	jal	x18,80001ac0	 x18=0x80001ac0
        7695000	       768	00000000	00000013	addi	x0,x0,0	  x0:0x00000000
        7705000	       769	80001aa0	00000013	addi	x0,x0,0	  x0:0x00000000
        7715000	       770	80001aa4	01800cef	jal	x25,80001aa4	 x25=0x80001aa4
        7725000	       771	00000000	00000013	addi	x0,x0,0	  x0:0x00000000
        7735000	       772	80001ab8	00000013	addi	x0,x0,0	  x0:0x00000000
        7745000	       773	80001abc	fd1ff0ef	jal	x1,80001abc	  x1=0x80001abc
        7755000	       774	00000000	00000013	addi	x0,x0,0	  x0:0x00000000
        7765000	       775	80001a88	00000013	addi	x0,x0,0	  x0:0x00000000
        7775000	       776	80001a8c	024000ef	jal	x1,80001a8c	  x1=0x80001a8c
        7785000	       777	00000000	00000013	addi	x0,x0,0	  x0:0x00000000
        7795000	       778	80001aac	00000013	addi	x0,x0,0	  x0:0x00000000
        7805000	       779	80001ab0	024000ef	jal	x1,80001ab0	  x1=0x80001ab0
        7815000	       780	00000000	00000013	addi	x0,x0,0	  x0:0x00000000
        7825000	       781	80001ad0	00000013	addi	x0,x0,0	  x0:0x00000000
        7835000	       782	80001ad4	fadff0ef	jal	x1,80001ad4	  x1=0x80001ad4
        7845000	       783	00000000	00000013	addi	x0,x0,0	  x0:0x00000000
        7855000	       784	80001a7c	00000013	addi	x0,x0,0	  x0:0x00000000
        7865000	       785	80001a80	00400e6f	jal	x28,80001a80	 x28=0x80001a80
        7875000	       786	00000000	00000013	addi	x0,x0,0	  x0:0x00000000
        7885000	       787	80001a80	00000013	addi	x0,x0,0	  x0:0x00000000
        7895000	       788	80001a84	03000e6f	jal	x28,80001a84	 x28=0x80001a84
        7905000	       789	00000000	00000013	addi	x0,x0,0	  x0:0x00000000
        7915000	       790	80001ab0	00000013	addi	x0,x0,0	  x0:0x00000000
        7925000	       791	80001ab4	fe9ffb6f	jal	x22,80001ab4	 x22=0x80001ab4
        7935000	       792	00000000	00000013	addi	x0,x0,0	  x0:0x00000000
        7945000	       793	80001a98	00000013	addi	x0,x0,0	  x0:0x00000000
        7955000	       794	80001a9c	fedff26f	jal	x4,80001a9c	  x4=0x80001a9c
        7965000	       795	00000000	00000013	addi	x0,x0,0	  x0:0x00000000
        7975000	       796	80001a84	00000013	addi	x0,x0,0	  x0:0x00000000
        7985000	       797	80001a88	050000ef	jal	x1,80001a88	  x1=0x80001a88
        7995000	       798	00000000	00000013	addi	x0,x0,0	  x0:0x00000000
        8005000	       799	80001ad4	00000013	addi	x0,x0,0	  x0:0x00000000
        8015000	       800	80001ad8	fe1ff9ef	jal	x19,80001ad8	 x19=0x80001ad8
        8025000	       801	00000000	00000013	addi	x0,x0,0	  x0:0x00000000
        8035000	       802	80001ab4	00000013	addi	x0,x0,0	  x0:0x00000000
        8045000	       803	80001ab8	fddff1ef	jal	x3,80001ab8	  x3=0x80001ab8
        8055000	       804	00000000	00000013	addi	x0,x0,0	  x0:0x00000000
        8065000	       805	80001a90	00000013	addi	x0,x0,0	  x0:0x00000000
        8075000	       806	80001a94	0040026f	jal	x4,80001a94	  x4=0x80001a94
        8085000	       807	00000000	00000013	addi	x0,x0,0	  x0:0x00000000
        8095000	       808	80001a94	00000013	addi	x0,x0,0	  x0:0x00000000
        8105000	       809	80001a98	0080036f	jal	x6,80001a98	  x6=0x80001a98
        8115000	       810	00000000	00000013	addi	x0,x0,0	  x0:0x00000000
        8125000	       811	80001a9c	00000013	addi	x0,x0,0	  x0:0x00000000
        8135000	       812	80001aa0	048000ef	jal	x1,80001aa0	  x1=0x80001aa0
        8145000	       813	00000000	00000013	addi	x0,x0,0	  x0:0x00000000
        8155000	       814	80001ae4	00000013	addi	x0,x0,0	  x0:0x00000000
        8165000	       815	80001ae8	2723c913	xori	x18,x7,626	  x7:0x80001a2c x18=0x8000185e
        8175000	       816	80001aec	064000ef	jal	x1,80001aec	  x1=0x80001aec
        8185000	       817	00000000	00000013	addi	x0,x0,0	  x0:0x00000000
        8195000	       818	80001b4c	00000013	addi	x0,x0,0	  x0:0x00000000
        8205000	       819	80001b50	fadff16f	jal	x2,80001b50	  x2=0x80001b50
        8215000	       820	00000000	00000013	addi	x0,x0,0	  x0:0x00000000
        8225000	       821	80001af8	00000013	addi	x0,x0,0	  x0:0x00000000
        8235000	       822	80001afc	008004ef	jal	x9,80001afc	  x9=0x80001afc
        8245000	       823	00000000	00000013	addi	x0,x0,0	  x0:0x00000000
        8255000	       824	80001b00	00000013	addi	x0,x0,0	  x0:0x00000000
        8265000	       825	80001b04	0080056f	jal	x10,80001b04	 x10=0x80001b04
        8275000	       826	00000000	00000013	addi	x0,x0,0	  x0:0x00000000
        8285000	       827	80001b08	00000013	addi	x0,x0,0	  x0:0x00000000
        8295000	       828	80001b0c	03c0036f	jal	x6,80001b0c	  x6=0x80001b0c
        8305000	       829	00000000	00000013	addi	x0,x0,0	  x0:0x00000000
        8315000	       830	80001b44	00000013	addi	x0,x0,0	  x0:0x00000000
        8325000	       831	80001b48	004000ef	jal	x1,80001b48	  x1=0x80001b48
        8335000	       832	00000000	00000013	addi	x0,x0,0	  x0:0x00000000
        8345000	       833	80001b48	00000013	addi	x0,x0,0	  x0:0x00000000
        8355000	       834	80001b4c	fe1ff0ef	jal	x1,80001b4c	  x1=0x80001b4c
        8365000	       835	00000000	00000013	addi	x0,x0,0	  x0:0x00000000
        8375000	       836	80001b28	00000013	addi	x0,x0,0	  x0:0x00000000
        8385000	       837	80001b2c	0280066f	jal	x12,80001b2c	 x12=0x80001b2c
        8395000	       838	00000000	00000013	addi	x0,x0,0	  x0:0x00000000
        8405000	       839	80001b50	00000013	addi	x0,x0,0	  x0:0x00000000
        8415000	       840	80001b54	fa1ff0ef	jal	x1,80001b54	  x1=0x80001b54
        8425000	       841	00000000	00000013	addi	x0,x0,0	  x0:0x00000000
        8435000	       842	80001af0	00000013	addi	x0,x0,0	  x0:0x00000000
        8445000	       843	80001af4	01c000ef	jal	x1,80001af4	  x1=0x80001af4
        8455000	       844	00000000	00000013	addi	x0,x0,0	  x0:0x00000000
        8465000	       845	80001b0c	00000013	addi	x0,x0,0	  x0:0x00000000
        8475000	       846	80001b10	014000ef	jal	x1,80001b10	  x1=0x80001b10
        8485000	       847	00000000	00000013	addi	x0,x0,0	  x0:0x00000000
        8495000	       848	80001b20	00000013	addi	x0,x0,0	  x0:0x00000000
        8505000	       849	80001b24	0200036f	jal	x6,80001b24	  x6=0x80001b24
        8515000	       850	00000000	00000013	addi	x0,x0,0	  x0:0x00000000
        8525000	       851	80001b40	00000013	addi	x0,x0,0	  x0:0x00000000
        8535000	       852	80001b44	fbdff26f	jal	x4,80001b44	  x4=0x80001b44
        8545000	       853	00000000	00000013	addi	x0,x0,0	  x0:0x00000000
        8555000	       854	80001afc	00000013	addi	x0,x0,0	  x0:0x00000000
        8565000	       855	80001b00	01800aef	jal	x21,80001b00	 x21=0x80001b00
        8575000	       856	00000000	00000013	addi	x0,x0,0	  x0:0x00000000
        8585000	       857	80001b14	00000013	addi	x0,x0,0	  x0:0x00000000
        8595000	       858	80001b18	028000ef	jal	x1,80001b18	  x1=0x80001b18
        8605000	       859	00000000	00000013	addi	x0,x0,0	  x0:0x00000000
        8615000	       860	80001b3c	00000013	addi	x0,x0,0	  x0:0x00000000
        8625000	       861	80001b40	ff9ff0ef	jal	x1,80001b40	  x1=0x80001b40
        8635000	       862	00000000	00000013	addi	x0,x0,0	  x0:0x00000000
        8645000	       863	80001b34	00000013	addi	x0,x0,0	  x0:0x00000000
        8655000	       864	80001b38	ff1ff0ef	jal	x1,80001b38	  x1=0x80001b38
        8665000	       865	00000000	00000013	addi	x0,x0,0	  x0:0x00000000
        8675000	       866	80001b24	00000013	addi	x0,x0,0	  x0:0x00000000
        8685000	       867	80001b28	00c000ef	jal	x1,80001b28	  x1=0x80001b28
        8695000	       868	00000000	00000013	addi	x0,x0,0	  x0:0x00000000
        8705000	       869	80001b30	00000013	addi	x0,x0,0	  x0:0x00000000
        8715000	       870	80001b34	fd5ff36f	jal	x6,80001b34	  x6=0x80001b34
        8725000	       871	00000000	00000013	addi	x0,x0,0	  x0:0x00000000
        8735000	       872	80001b04	00000013	addi	x0,x0,0	  x0:0x00000000
        8745000	       873	80001b08	fe9ff0ef	jal	x1,80001b08	  x1=0x80001b08
        8755000	       874	00000000	00000013	addi	x0,x0,0	  x0:0x00000000
        8765000	       875	80001aec	00000013	addi	x0,x0,0	  x0:0x00000000
        8775000	       876	80001af0	04c000ef	jal	x1,80001af0	  x1=0x80001af0
        8785000	       877	00000000	00000013	addi	x0,x0,0	  x0:0x00000000
        8795000	       878	80001b38	00000013	addi	x0,x0,0	  x0:0x00000000
        8805000	       879	80001b3c	fe5ff9ef	jal	x19,80001b3c	 x19=0x80001b3c
        8815000	       880	00000000	00000013	addi	x0,x0,0	  x0:0x00000000
        8825000	       881	80001b1c	00000013	addi	x0,x0,0	  x0:0x00000000
        8835000	       882	80001b20	010000ef	jal	x1,80001b20	  x1=0x80001b20
        8845000	       883	00000000	00000013	addi	x0,x0,0	  x0:0x00000000
        8855000	       884	80001b2c	00000013	addi	x0,x0,0	  x0:0x00000000
        8865000	       885	80001b30	fe5ff4ef	jal	x9,80001b30	  x9=0x80001b30
        8875000	       886	00000000	00000013	addi	x0,x0,0	  x0:0x00000000
        8885000	       887	80001b10	00000013	addi	x0,x0,0	  x0:0x00000000
        8895000	       888	80001b14	008000ef	jal	x1,80001b14	  x1=0x80001b14
        8905000	       889	00000000	00000013	addi	x0,x0,0	  x0:0x00000000
        8915000	       890	80001b18	00000013	addi	x0,x0,0	  x0:0x00000000
        8925000	       891	80001b1c	fddff66f	jal	x12,80001b1c	 x12=0x80001b1c
        8935000	       892	00000000	00000013	addi	x0,x0,0	  x0:0x00000000
        8945000	       893	80001af4	00000013	addi	x0,x0,0	  x0:0x00000000
        8955000	       894	80001af8	060002ef	jal	x5,80001af8	  x5=0x80001af8
        8965000	       895	00000000	00000013	addi	x0,x0,0	  x0:0x00000000
        8975000	       896	80001b54	00000013	addi	x0,x0,0	  x0:0x00000000
        8985000	       897	80001b58	01547c33	and	x24,x8,x21	  x8:0x80009fc4 x21:0x80001b00 x24=0x80001b00
        8995000	       898	80001b5c	028000ef	jal	x1,80001b5c	  x1=0x80001b5c
        9005000	       899	00000000	00000013	addi	x0,x0,0	  x0:0x00000000
        9015000	       900	80001b80	00000013	addi	x0,x0,0	  x0:0x00000000
        9025000	       901	80001b84	ff1ff0ef	jal	x1,80001b84	  x1=0x80001b84
        9035000	       902	00000000	00000013	addi	x0,x0,0	  x0:0x00000000
        9045000	       903	80001b70	00000013	addi	x0,x0,0	  x0:0x00000000
        9055000	       904	80001b74	00800f6f	jal	x30,80001b74	 x30=0x80001b74
        9065000	       905	00000000	00000013	addi	x0,x0,0	  x0:0x00000000
        9075000	       906	80001b78	00000013	addi	x0,x0,0	  x0:0x00000000
        9085000	       907	80001b7c	fe5ff36f	jal	x6,80001b7c	  x6=0x80001b7c
        9095000	       908	00000000	00000013	addi	x0,x0,0	  x0:0x00000000
        9105000	       909	80001b5c	00000013	addi	x0,x0,0	  x0:0x00000000
        9115000	       910	80001b60	0280036f	jal	x6,80001b60	  x6=0x80001b60
        9125000	       911	00000000	00000013	addi	x0,x0,0	  x0:0x00000000
        9135000	       912	80001b84	00000013	addi	x0,x0,0	  x0:0x00000000
        9145000	       913	80001b88	008000ef	jal	x1,80001b88	  x1=0x80001b88
        9155000	       914	00000000	00000013	addi	x0,x0,0	  x0:0x00000000
        9165000	       915	80001b8c	00000013	addi	x0,x0,0	  x0:0x00000000
        9175000	       916	80001b90	fe9ff4ef	jal	x9,80001b90	  x9=0x80001b90
        9185000	       917	00000000	00000013	addi	x0,x0,0	  x0:0x00000000
        9195000	       918	80001b74	00000013	addi	x0,x0,0	  x0:0x00000000
        9205000	       919	80001b78	ff1ff0ef	jal	x1,80001b78	  x1=0x80001b78
        9215000	       920	00000000	00000013	addi	x0,x0,0	  x0:0x00000000
        9225000	       921	80001b64	00000013	addi	x0,x0,0	  x0:0x00000000
        9235000	       922	80001b68	0080036f	jal	x6,80001b68	  x6=0x80001b68
        9245000	       923	00000000	00000013	addi	x0,x0,0	  x0:0x00000000
        9255000	       924	80001b6c	00000013	addi	x0,x0,0	  x0:0x00000000
        9265000	       925	80001b70	ff5ff36f	jal	x6,80001b70	  x6=0x80001b70
        9275000	       926	00000000	00000013	addi	x0,x0,0	  x0:0x00000000
        9285000	       927	80001b60	00000013	addi	x0,x0,0	  x0:0x00000000
        9295000	       928	80001b64	01c00eef	jal	x29,80001b64	 x29=0x80001b64
        9305000	       929	00000000	00000013	addi	x0,x0,0	  x0:0x00000000
        9315000	       930	80001b7c	00000013	addi	x0,x0,0	  x0:0x00000000
        9325000	       931	80001b80	00c000ef	jal	x1,80001b80	  x1=0x80001b80
        9335000	       932	00000000	00000013	addi	x0,x0,0	  x0:0x00000000
        9345000	       933	80001b88	00000013	addi	x0,x0,0	  x0:0x00000000
        9355000	       934	80001b8c	fe1ff36f	jal	x6,80001b8c	  x6=0x80001b8c
        9365000	       935	00000000	00000013	addi	x0,x0,0	  x0:0x00000000
        9375000	       936	80001b68	00000013	addi	x0,x0,0	  x0:0x00000000
        9385000	       937	80001b6c	028000ef	jal	x1,80001b6c	  x1=0x80001b6c
        9395000	       938	00000000	00000013	addi	x0,x0,0	  x0:0x00000000
        9405000	       939	80001b90	00000013	addi	x0,x0,0	  x0:0x00000000
        9415000	       940	80001b94	00930833	add	x16,x6,x9	  x6:0x80001b8c  x9:0x80001b90 x16=0x0000371c
        9425000	       941	80001b98	004000ef	jal	x1,80001b98	  x1=0x80001b98
        9435000	       942	00000000	00000013	addi	x0,x0,0	  x0:0x00000000
        9445000	       943	80001b98	00000013	addi	x0,x0,0	  x0:0x00000000
        9455000	       944	80001b9c	014000ef	jal	x1,80001b9c	  x1=0x80001b9c
        9465000	       945	00000000	00000013	addi	x0,x0,0	  x0:0x00000000
        9475000	       946	80001bac	00000013	addi	x0,x0,0	  x0:0x00000000
        9485000	       947	80001bb0	030000ef	jal	x1,80001bb0	  x1=0x80001bb0
        9495000	       948	00000000	00000013	addi	x0,x0,0	  x0:0x00000000
        9505000	       949	80001bdc	00000013	addi	x0,x0,0	  x0:0x00000000
        9515000	       950	80001be0	fd5ff36f	jal	x6,80001be0	  x6=0x80001be0
        9525000	       951	00000000	00000013	addi	x0,x0,0	  x0:0x00000000
        9535000	       952	80001bb0	00000013	addi	x0,x0,0	  x0:0x00000000
        9545000	       953	80001bb4	ff1ff0ef	jal	x1,80001bb4	  x1=0x80001bb4
        9555000	       954	00000000	00000013	addi	x0,x0,0	  x0:0x00000000
        9565000	       955	80001ba0	00000013	addi	x0,x0,0	  x0:0x00000000
        9575000	       956	80001ba4	01c000ef	jal	x1,80001ba4	  x1=0x80001ba4
        9585000	       957	00000000	00000013	addi	x0,x0,0	  x0:0x00000000
        9595000	       958	80001bbc	00000013	addi	x0,x0,0	  x0:0x00000000
        9605000	       959	80001bc0	ff9ff6ef	jal	x13,80001bc0	 x13=0x80001bc0
        9615000	       960	00000000	00000013	addi	x0,x0,0	  x0:0x00000000
        9625000	       961	80001bb4	00000013	addi	x0,x0,0	  x0:0x00000000
        9635000	       962	80001bb8	004000ef	jal	x1,80001bb8	  x1=0x80001bb8
        9645000	       963	00000000	00000013	addi	x0,x0,0	  x0:0x00000000
        9655000	       964	80001bb8	00000013	addi	x0,x0,0	  x0:0x00000000
        9665000	       965	80001bbc	008000ef	jal	x1,80001bbc	  x1=0x80001bbc
        9675000	       966	00000000	00000013	addi	x0,x0,0	  x0:0x00000000
        9685000	       967	80001bc0	00000013	addi	x0,x0,0	  x0:0x00000000
        9695000	       968	80001bc4	004000ef	jal	x1,80001bc4	  x1=0x80001bc4
        9705000	       969	00000000	00000013	addi	x0,x0,0	  x0:0x00000000
        9715000	       970	80001bc4	00000013	addi	x0,x0,0	  x0:0x00000000
        9725000	       971	80001bc8	fe1ff0ef	jal	x1,80001bc8	  x1=0x80001bc8
        9735000	       972	00000000	00000013	addi	x0,x0,0	  x0:0x00000000
        9745000	       973	80001ba4	00000013	addi	x0,x0,0	  x0:0x00000000
        9755000	       974	80001ba8	02c009ef	jal	x19,80001ba8	 x19=0x80001ba8
        9765000	       975	00000000	00000013	addi	x0,x0,0	  x0:0x00000000
        9775000	       976	80001bd0	00000013	addi	x0,x0,0	  x0:0x00000000
        9785000	       977	80001bd4	ffdff36f	jal	x6,80001bd4	  x6=0x80001bd4
        9795000	       978	00000000	00000013	addi	x0,x0,0	  x0:0x00000000
        9805000	       979	80001bcc	00000013	addi	x0,x0,0	  x0:0x00000000
        9815000	       980	80001bd0	00c002ef	jal	x5,80001bd0	  x5=0x80001bd0
        9825000	       981	00000000	00000013	addi	x0,x0,0	  x0:0x00000000
        9835000	       982	80001bd8	00000013	addi	x0,x0,0	  x0:0x00000000
        9845000	       983	80001bdc	008000ef	jal	x1,80001bdc	  x1=0x80001bdc
        9855000	       984	00000000	00000013	addi	x0,x0,0	  x0:0x00000000
        9865000	       985	80001be0	00000013	addi	x0,x0,0	  x0:0x00000000
        9875000	       986	80001be4	fbdff0ef	jal	x1,80001be4	  x1=0x80001be4
        9885000	       987	00000000	00000013	addi	x0,x0,0	  x0:0x00000000
        9895000	       988	80001b9c	00000013	addi	x0,x0,0	  x0:0x00000000
        9905000	       989	80001ba0	038000ef	jal	x1,80001ba0	  x1=0x80001ba0
        9915000	       990	00000000	00000013	addi	x0,x0,0	  x0:0x00000000
        9925000	       991	80001bd4	00000013	addi	x0,x0,0	  x0:0x00000000
        9935000	       992	80001bd8	fd5ff26f	jal	x4,80001bd8	  x4=0x80001bd8
        9945000	       993	00000000	00000013	addi	x0,x0,0	  x0:0x00000000
        9955000	       994	80001ba8	00000013	addi	x0,x0,0	  x0:0x00000000
        9965000	       995	80001bac	0200036f	jal	x6,80001bac	  x6=0x80001bac
        9975000	       996	00000000	00000013	addi	x0,x0,0	  x0:0x00000000
        9985000	       997	80001bc8	00000013	addi	x0,x0,0	  x0:0x00000000
        9995000	       998	80001bcc	01c002ef	jal	x5,80001bcc	  x5=0x80001bcc
       10005000	       999	00000000	00000013	addi	x0,x0,0	  x0:0x00000000
       10015000	      1000	80001be4	00000013	addi	x0,x0,0	  x0:0x00000000
       10025000	      1001	80001be8	004000ef	jal	x1,80001be8	  x1=0x80001be8
       10035000	      1002	00000000	00000013	addi	x0,x0,0	  x0:0x00000000
       10045000	      1003	80001be8	00000013	addi	x0,x0,0	  x0:0x00000000
       10055000	      1004	80001bec	00c2dd13	srli	x26,x5,0xc	  x5:0x80001bcc x26=0x00080001
       10065000	      1005	80001bf0	024000ef	jal	x1,80001bf0	  x1=0x80001bf0
       10075000	      1006	00000000	00000013	addi	x0,x0,0	  x0:0x00000000
       10085000	      1007	80001c10	00000013	addi	x0,x0,0	  x0:0x00000000
       10095000	      1008	80001c14	038000ef	jal	x1,80001c14	  x1=0x80001c14
       10105000	      1009	00000000	00000013	addi	x0,x0,0	  x0:0x00000000
       10115000	      1010	80001c48	00000013	addi	x0,x0,0	  x0:0x00000000
       10125000	      1011	80001c4c	ff9ffaef	jal	x21,80001c4c	 x21=0x80001c4c
       10135000	      1012	00000000	00000013	addi	x0,x0,0	  x0:0x00000000
       10145000	      1013	80001c40	00000013	addi	x0,x0,0	  x0:0x00000000
       10155000	      1014	80001c44	fedff0ef	jal	x1,80001c44	  x1=0x80001c44
       10165000	      1015	00000000	00000013	addi	x0,x0,0	  x0:0x00000000
       10175000	      1016	80001c2c	00000013	addi	x0,x0,0	  x0:0x00000000
       10185000	      1017	80001c30	010001ef	jal	x3,80001c30	  x3=0x80001c30
       10195000	      1018	00000000	00000013	addi	x0,x0,0	  x0:0x00000000
       10205000	      1019	80001c3c	00000013	addi	x0,x0,0	  x0:0x00000000
       10215000	      1020	80001c40	fd1ff2ef	jal	x5,80001c40	  x5=0x80001c40
       10225000	      1021	00000000	00000013	addi	x0,x0,0	  x0:0x00000000
       10235000	      1022	80001c0c	00000013	addi	x0,x0,0	  x0:0x00000000
       10245000	      1023	80001c10	ff9ffb6f	jal	x22,80001c10	 x22=0x80001c10
       10255000	      1024	00000000	00000013	addi	x0,x0,0	  x0:0x00000000
       10265000	      1025	80001c04	00000013	addi	x0,x0,0	  x0:0x00000000
       10275000	      1026	80001c08	0200036f	jal	x6,80001c08	  x6=0x80001c08
       10285000	      1027	00000000	00000013	addi	x0,x0,0	  x0:0x00000000
       10295000	      1028	80001c24	00000013	addi	x0,x0,0	  x0:0x00000000
       10305000	      1029	80001c28	010000ef	jal	x1,80001c28	  x1=0x80001c28
       10315000	      1030	00000000	00000013	addi	x0,x0,0	  x0:0x00000000
       10325000	      1031	80001c34	00000013	addi	x0,x0,0	  x0:0x00000000
       10335000	      1032	80001c38	ff5ff0ef	jal	x1,80001c38	  x1=0x80001c38
       10345000	      1033	00000000	00000013	addi	x0,x0,0	  x0:0x00000000
       10355000	      1034	80001c28	00000013	addi	x0,x0,0	  x0:0x00000000
       10365000	      1035	80001c2c	fedff36f	jal	x6,80001c2c	  x6=0x80001c2c
       10375000	      1036	00000000	00000013	addi	x0,x0,0	  x0:0x00000000
       10385000	      1037	80001c14	00000013	addi	x0,x0,0	  x0:0x00000000
       10395000	      1038	80001c18	fe1ff0ef	jal	x1,80001c18	  x1=0x80001c18
       10405000	      1039	00000000	00000013	addi	x0,x0,0	  x0:0x00000000
       10415000	      1040	80001bf4	00000013	addi	x0,x0,0	  x0:0x00000000
       10425000	      1041	80001bf8	004001ef	jal	x3,80001bf8	  x3=0x80001bf8
       10435000	      1042	00000000	00000013	addi	x0,x0,0	  x0:0x00000000
       10445000	      1043	80001bf8	00000013	addi	x0,x0,0	  x0:0x00000000
       10455000	      1044	80001bfc	0380026f	jal	x4,80001bfc	  x4=0x80001bfc
       10465000	      1045	00000000	00000013	addi	x0,x0,0	  x0:0x00000000
       10475000	      1046	80001c30	00000013	addi	x0,x0,0	  x0:0x00000000
       10485000	      1047	80001c34	ff1ff0ef	jal	x1,80001c34	  x1=0x80001c34
       10495000	      1048	00000000	00000013	addi	x0,x0,0	  x0:0x00000000
       10505000	      1049	80001c20	00000013	addi	x0,x0,0	  x0:0x00000000
       10515000	      1050	80001c24	fe1ff0ef	jal	x1,80001c24	  x1=0x80001c24
       10525000	      1051	00000000	00000013	addi	x0,x0,0	  x0:0x00000000
       10535000	      1052	80001c00	00000013	addi	x0,x0,0	  x0:0x00000000
       10545000	      1053	80001c04	04c000ef	jal	x1,80001c04	  x1=0x80001c04
       10555000	      1054	00000000	00000013	addi	x0,x0,0	  x0:0x00000000
       10565000	      1055	80001c4c	00000013	addi	x0,x0,0	  x0:0x00000000
       10575000	      1056	80001c50	fcdff0ef	jal	x1,80001c50	  x1=0x80001c50
       10585000	      1057	00000000	00000013	addi	x0,x0,0	  x0:0x00000000
       10595000	      1058	80001c18	00000013	addi	x0,x0,0	  x0:0x00000000
       10605000	      1059	80001c1c	02c000ef	jal	x1,80001c1c	  x1=0x80001c1c
       10615000	      1060	00000000	00000013	addi	x0,x0,0	  x0:0x00000000
       10625000	      1061	80001c44	00000013	addi	x0,x0,0	  x0:0x00000000
       10635000	      1062	80001c48	ff5ff36f	jal	x6,80001c48	  x6=0x80001c48
       10645000	      1063	00000000	00000013	addi	x0,x0,0	  x0:0x00000000
       10655000	      1064	80001c38	00000013	addi	x0,x0,0	  x0:0x00000000
       10665000	      1065	80001c3c	fb9ff0ef	jal	x1,80001c3c	  x1=0x80001c3c
       10675000	      1066	00000000	00000013	addi	x0,x0,0	  x0:0x00000000
       10685000	      1067	80001bf0	00000013	addi	x0,x0,0	  x0:0x00000000
       10695000	      1068	80001bf4	00c000ef	jal	x1,80001bf4	  x1=0x80001bf4
       10705000	      1069	00000000	00000013	addi	x0,x0,0	  x0:0x00000000
       10715000	      1070	80001bfc	00000013	addi	x0,x0,0	  x0:0x00000000
       10725000	      1071	80001c00	02000a6f	jal	x20,80001c00	 x20=0x80001c00
       10735000	      1072	00000000	00000013	addi	x0,x0,0	  x0:0x00000000
       10745000	      1073	80001c1c	00000013	addi	x0,x0,0	  x0:0x00000000
       10755000	      1074	80001c20	fedff6ef	jal	x13,80001c20	 x13=0x80001c20
       10765000	      1075	00000000	00000013	addi	x0,x0,0	  x0:0x00000000
       10775000	      1076	80001c08	00000013	addi	x0,x0,0	  x0:0x00000000
       10785000	      1077	80001c0c	0480086f	jal	x16,80001c0c	 x16=0x80001c0c
       10795000	      1078	00000000	00000013	addi	x0,x0,0	  x0:0x00000000
       10805000	      1079	80001c50	00000013	addi	x0,x0,0	  x0:0x00000000
       10815000	      1080	80001c54	b8ba9097	auipc	x1,0xb8ba9	  x1=0x38baac50
       10825000	      1081	80001c58	024000ef	jal	x1,80001c58	  x1=0x80001c58
       10835000	      1082	00000000	00000013	addi	x0,x0,0	  x0:0x00000000
       10845000	      1083	80001c78	00000013	addi	x0,x0,0	  x0:0x00000000
       10855000	      1084	80001c7c	ff5ff5ef	jal	x11,80001c7c	 x11=0x80001c7c
       10865000	      1085	00000000	00000013	addi	x0,x0,0	  x0:0x00000000
       10875000	      1086	80001c6c	00000013	addi	x0,x0,0	  x0:0x00000000
       10885000	      1087	80001c70	010000ef	jal	x1,80001c70	  x1=0x80001c70
       10895000	      1088	00000000	00000013	addi	x0,x0,0	  x0:0x00000000
       10905000	      1089	80001c7c	00000013	addi	x0,x0,0	  x0:0x00000000
       10915000	      1090	80001c80	fe9ff0ef	jal	x1,80001c80	  x1=0x80001c80
       10925000	      1091	00000000	00000013	addi	x0,x0,0	  x0:0x00000000
       10935000	      1092	80001c64	00000013	addi	x0,x0,0	  x0:0x00000000
       10945000	      1093	80001c68	ffdff0ef	jal	x1,80001c68	  x1=0x80001c68
       10955000	      1094	00000000	00000013	addi	x0,x0,0	  x0:0x00000000
       10965000	      1095	80001c60	00000013	addi	x0,x0,0	  x0:0x00000000
       10975000	      1096	80001c64	0100016f	jal	x2,80001c64	  x2=0x80001c64
       10985000	      1097	00000000	00000013	addi	x0,x0,0	  x0:0x00000000
       10995000	      1098	80001c70	00000013	addi	x0,x0,0	  x0:0x00000000
       11005000	      1099	80001c74	ff9ff0ef	jal	x1,80001c74	  x1=0x80001c74
       11015000	      1100	00000000	00000013	addi	x0,x0,0	  x0:0x00000000
       11025000	      1101	80001c68	00000013	addi	x0,x0,0	  x0:0x00000000
       11035000	      1102	80001c6c	00c00aef	jal	x21,80001c6c	 x21=0x80001c6c
       11045000	      1103	00000000	00000013	addi	x0,x0,0	  x0:0x00000000
       11055000	      1104	80001c74	00000013	addi	x0,x0,0	  x0:0x00000000
       11065000	      1105	80001c78	fe5ff0ef	jal	x1,80001c78	  x1=0x80001c78
       11075000	      1106	00000000	00000013	addi	x0,x0,0	  x0:0x00000000
       11085000	      1107	80001c58	00000013	addi	x0,x0,0	  x0:0x00000000
       11095000	      1108	80001c5c	004000ef	jal	x1,80001c5c	  x1=0x80001c5c
       11105000	      1109	00000000	00000013	addi	x0,x0,0	  x0:0x00000000
       11115000	      1110	80001c5c	00000013	addi	x0,x0,0	  x0:0x00000000
       11125000	      1111	80001c60	024000ef	jal	x1,80001c60	  x1=0x80001c60
       11135000	      1112	00000000	00000013	addi	x0,x0,0	  x0:0x00000000
       11145000	      1113	80001c80	00000013	addi	x0,x0,0	  x0:0x00000000
       11155000	      1114	80001c84	1eef5f97	auipc	x31,0x1eef5	 x31=0x9eef6c80
       11165000	      1115	80001c88	020000ef	jal	x1,80001c88	  x1=0x80001c88
       11175000	      1116	00000000	00000013	addi	x0,x0,0	  x0:0x00000000
       11185000	      1117	80001ca4	00000013	addi	x0,x0,0	  x0:0x00000000
       11195000	      1118	80001ca8	008000ef	jal	x1,80001ca8	  x1=0x80001ca8
       11205000	      1119	00000000	00000013	addi	x0,x0,0	  x0:0x00000000
       11215000	      1120	80001cac	00000013	addi	x0,x0,0	  x0:0x00000000
       11225000	      1121	80001cb0	0080016f	jal	x2,80001cb0	  x2=0x80001cb0
       11235000	      1122	00000000	00000013	addi	x0,x0,0	  x0:0x00000000
       11245000	      1123	80001cb4	00000013	addi	x0,x0,0	  x0:0x00000000
       11255000	      1124	80001cb8	fd9ff7ef	jal	x15,80001cb8	 x15=0x80001cb8
       11265000	      1125	00000000	00000013	addi	x0,x0,0	  x0:0x00000000
       11275000	      1126	80001c8c	00000013	addi	x0,x0,0	  x0:0x00000000
       11285000	      1127	80001c90	01c0036f	jal	x6,80001c90	  x6=0x80001c90
       11295000	      1128	00000000	00000013	addi	x0,x0,0	  x0:0x00000000
       11305000	      1129	80001ca8	00000013	addi	x0,x0,0	  x0:0x00000000
       11315000	      1130	80001cac	0080036f	jal	x6,80001cac	  x6=0x80001cac
       11325000	      1131	00000000	00000013	addi	x0,x0,0	  x0:0x00000000
       11335000	      1132	80001cb0	00000013	addi	x0,x0,0	  x0:0x00000000
       11345000	      1133	80001cb4	ff1ff0ef	jal	x1,80001cb4	  x1=0x80001cb4
       11355000	      1134	00000000	00000013	addi	x0,x0,0	  x0:0x00000000
       11365000	      1135	80001ca0	00000013	addi	x0,x0,0	  x0:0x00000000
       11375000	      1136	80001ca4	ff1ff36f	jal	x6,80001ca4	  x6=0x80001ca4
       11385000	      1137	00000000	00000013	addi	x0,x0,0	  x0:0x00000000
       11395000	      1138	80001c90	00000013	addi	x0,x0,0	  x0:0x00000000
       11405000	      1139	80001c94	00c0076f	jal	x14,80001c94	 x14=0x80001c94
       11415000	      1140	00000000	00000013	addi	x0,x0,0	  x0:0x00000000
       11425000	      1141	80001c9c	00000013	addi	x0,x0,0	  x0:0x00000000
       11435000	      1142	80001ca0	ff9ff26f	jal	x4,80001ca0	  x4=0x80001ca0
       11445000	      1143	00000000	00000013	addi	x0,x0,0	  x0:0x00000000
       11455000	      1144	80001c94	00000013	addi	x0,x0,0	  x0:0x00000000
       11465000	      1145	80001c98	ff5ff0ef	jal	x1,80001c98	  x1=0x80001c98
       11475000	      1146	00000000	00000013	addi	x0,x0,0	  x0:0x00000000
       11485000	      1147	80001c88	00000013	addi	x0,x0,0	  x0:0x00000000
       11495000	      1148	80001c8c	01000bef	jal	x23,80001c8c	 x23=0x80001c8c
       11505000	      1149	00000000	00000013	addi	x0,x0,0	  x0:0x00000000
       11515000	      1150	80001c98	00000013	addi	x0,x0,0	  x0:0x00000000
       11525000	      1151	80001c9c	020000ef	jal	x1,80001c9c	  x1=0x80001c9c
       11535000	      1152	00000000	00000013	addi	x0,x0,0	  x0:0x00000000
       11545000	      1153	80001cb8	00000013	addi	x0,x0,0	  x0:0x00000000
       11555000	      1154	80001cbc	004000ef	jal	x1,80001cbc	  x1=0x80001cbc
       11565000	      1155	00000000	00000013	addi	x0,x0,0	  x0:0x00000000
       11575000	      1156	80001cbc	00000013	addi	x0,x0,0	  x0:0x00000000
       11585000	      1157	80001cc0	3b31cb93	xori	x23,x3,947	  x3:0x80001bf8 x23=0x8000184b
       11595000	      1158	80001cc4	020000ef	jal	x1,80001cc4	  x1=0x80001cc4
       11605000	      1159	00000000	00000013	addi	x0,x0,0	  x0:0x00000000
       11615000	      1160	80001ce0	00000013	addi	x0,x0,0	  x0:0x00000000
       11625000	      1161	80001ce4	fe9ff7ef	jal	x15,80001ce4	 x15=0x80001ce4
       11635000	      1162	00000000	00000013	addi	x0,x0,0	  x0:0x00000000
       11645000	      1163	80001cc8	00000013	addi	x0,x0,0	  x0:0x00000000
       11655000	      1164	80001ccc	0200036f	jal	x6,80001ccc	  x6=0x80001ccc
       11665000	      1165	00000000	00000013	addi	x0,x0,0	  x0:0x00000000
       11675000	      1166	80001ce8	00000013	addi	x0,x0,0	  x0:0x00000000
       11685000	      1167	80001cec	008000ef	jal	x1,80001cec	  x1=0x80001cec
       11695000	      1168	00000000	00000013	addi	x0,x0,0	  x0:0x00000000
       11705000	      1169	80001cf0	00000013	addi	x0,x0,0	  x0:0x00000000
       11715000	      1170	80001cf4	ffdff0ef	jal	x1,80001cf4	  x1=0x80001cf4
       11725000	      1171	00000000	00000013	addi	x0,x0,0	  x0:0x00000000
       11735000	      1172	80001cec	00000013	addi	x0,x0,0	  x0:0x00000000
       11745000	      1173	80001cf0	010002ef	jal	x5,80001cf0	  x5=0x80001cf0
       11755000	      1174	00000000	00000013	addi	x0,x0,0	  x0:0x00000000
       11765000	      1175	80001cfc	00000013	addi	x0,x0,0	  x0:0x00000000
       11775000	      1176	80001d00	ffdffb6f	jal	x22,80001d00	 x22=0x80001d00
       11785000	      1177	00000000	00000013	addi	x0,x0,0	  x0:0x00000000
       11795000	      1178	80001cf8	00000013	addi	x0,x0,0	  x0:0x00000000
       11805000	      1179	80001cfc	040000ef	jal	x1,80001cfc	  x1=0x80001cfc
       11815000	      1180	00000000	00000013	addi	x0,x0,0	  x0:0x00000000
       11825000	      1181	80001d38	00000013	addi	x0,x0,0	  x0:0x00000000
       11835000	      1182	80001d3c	fbdff0ef	jal	x1,80001d3c	  x1=0x80001d3c
       11845000	      1183	00000000	00000013	addi	x0,x0,0	  x0:0x00000000
       11855000	      1184	80001cf4	00000013	addi	x0,x0,0	  x0:0x00000000
       11865000	      1185	80001cf8	030000ef	jal	x1,80001cf8	  x1=0x80001cf8
       11875000	      1186	00000000	00000013	addi	x0,x0,0	  x0:0x00000000
       11885000	      1187	80001d24	00000013	addi	x0,x0,0	  x0:0x00000000
       11895000	      1188	80001d28	fadff0ef	jal	x1,80001d28	  x1=0x80001d28
       11905000	      1189	00000000	00000013	addi	x0,x0,0	  x0:0x00000000
       11915000	      1190	80001cd0	00000013	addi	x0,x0,0	  x0:0x00000000
       11925000	      1191	80001cd4	060000ef	jal	x1,80001cd4	  x1=0x80001cd4
       11935000	      1192	00000000	00000013	addi	x0,x0,0	  x0:0x00000000
       11945000	      1193	80001d30	00000013	addi	x0,x0,0	  x0:0x00000000
       11955000	      1194	80001d34	ff1ff0ef	jal	x1,80001d34	  x1=0x80001d34
       11965000	      1195	00000000	00000013	addi	x0,x0,0	  x0:0x00000000
       11975000	      1196	80001d20	00000013	addi	x0,x0,0	  x0:0x00000000
       11985000	      1197	80001d24	fbdff0ef	jal	x1,80001d24	  x1=0x80001d24
       11995000	      1198	00000000	00000013	addi	x0,x0,0	  x0:0x00000000
       12005000	      1199	80001cdc	00000013	addi	x0,x0,0	  x0:0x00000000
       12015000	      1200	80001ce0	03c000ef	jal	x1,80001ce0	  x1=0x80001ce0
       12025000	      1201	00000000	00000013	addi	x0,x0,0	  x0:0x00000000
       12035000	      1202	80001d18	00000013	addi	x0,x0,0	  x0:0x00000000
       12045000	      1203	80001d1c	fbdff36f	jal	x6,80001d1c	  x6=0x80001d1c
       12055000	      1204	00000000	00000013	addi	x0,x0,0	  x0:0x00000000
       12065000	      1205	80001cd4	00000013	addi	x0,x0,0	  x0:0x00000000
       12075000	      1206	80001cd8	0040036f	jal	x6,80001cd8	  x6=0x80001cd8
       12085000	      1207	00000000	00000013	addi	x0,x0,0	  x0:0x00000000
       12095000	      1208	80001cd8	00000013	addi	x0,x0,0	  x0:0x00000000
       12105000	      1209	80001cdc	038000ef	jal	x1,80001cdc	  x1=0x80001cdc
       12115000	      1210	00000000	00000013	addi	x0,x0,0	  x0:0x00000000
       12125000	      1211	80001d10	00000013	addi	x0,x0,0	  x0:0x00000000
       12135000	      1212	80001d14	0240036f	jal	x6,80001d14	  x6=0x80001d14
       12145000	      1213	00000000	00000013	addi	x0,x0,0	  x0:0x00000000
       12155000	      1214	80001d34	00000013	addi	x0,x0,0	  x0:0x00000000
       12165000	      1215	80001d38	f99ff76f	jal	x14,80001d38	 x14=0x80001d38
       12175000	      1216	00000000	00000013	addi	x0,x0,0	  x0:0x00000000
       12185000	      1217	80001ccc	00000013	addi	x0,x0,0	  x0:0x00000000
       12195000	      1218	80001cd0	050000ef	jal	x1,80001cd0	  x1=0x80001cd0
       12205000	      1219	00000000	00000013	addi	x0,x0,0	  x0:0x00000000
       12215000	      1220	80001d1c	00000013	addi	x0,x0,0	  x0:0x00000000
       12225000	      1221	80001d20	fe9ff0ef	jal	x1,80001d20	  x1=0x80001d20
       12235000	      1222	00000000	00000013	addi	x0,x0,0	  x0:0x00000000
       12245000	      1223	80001d04	00000013	addi	x0,x0,0	  x0:0x00000000
       12255000	      1224	80001d08	ffdff0ef	jal	x1,80001d08	  x1=0x80001d08
       12265000	      1225	00000000	00000013	addi	x0,x0,0	  x0:0x00000000
       12275000	      1226	80001d00	00000013	addi	x0,x0,0	  x0:0x00000000
       12285000	      1227	80001d04	fc5ff0ef	jal	x1,80001d04	  x1=0x80001d04
       12295000	      1228	00000000	00000013	addi	x0,x0,0	  x0:0x00000000
       12305000	      1229	80001cc4	00000013	addi	x0,x0,0	  x0:0x00000000
       12315000	      1230	80001cc8	048000ef	jal	x1,80001cc8	  x1=0x80001cc8
       12325000	      1231	00000000	00000013	addi	x0,x0,0	  x0:0x00000000
       12335000	      1232	80001d0c	00000013	addi	x0,x0,0	  x0:0x00000000
       12345000	      1233	80001d10	ffdff56f	jal	x10,80001d10	 x10=0x80001d10
       12355000	      1234	00000000	00000013	addi	x0,x0,0	  x0:0x00000000
       12365000	      1235	80001d08	00000013	addi	x0,x0,0	  x0:0x00000000
       12375000	      1236	80001d0c	00c00bef	jal	x23,80001d0c	 x23=0x80001d0c
       12385000	      1237	00000000	00000013	addi	x0,x0,0	  x0:0x00000000
       12395000	      1238	80001d14	00000013	addi	x0,x0,0	  x0:0x00000000
       12405000	      1239	80001d18	01400fef	jal	x31,80001d18	 x31=0x80001d18
       12415000	      1240	00000000	00000013	addi	x0,x0,0	  x0:0x00000000
       12425000	      1241	80001d28	00000013	addi	x0,x0,0	  x0:0x00000000
       12435000	      1242	80001d2c	fbdff76f	jal	x14,80001d2c	 x14=0x80001d2c
       12445000	      1243	00000000	00000013	addi	x0,x0,0	  x0:0x00000000
       12455000	      1244	80001ce4	00000013	addi	x0,x0,0	  x0:0x00000000
       12465000	      1245	80001ce8	0480036f	jal	x6,80001ce8	  x6=0x80001ce8
       12475000	      1246	00000000	00000013	addi	x0,x0,0	  x0:0x00000000
       12485000	      1247	80001d2c	00000013	addi	x0,x0,0	  x0:0x00000000
       12495000	      1248	80001d30	010000ef	jal	x1,80001d30	  x1=0x80001d30
       12505000	      1249	00000000	00000013	addi	x0,x0,0	  x0:0x00000000
       12515000	      1250	80001d3c	00000013	addi	x0,x0,0	  x0:0x00000000
       12525000	      1251	80001d40	00c7c0b3	xor	x1,x15,x12	 x15:0x80001ce4 x12:0x80001b1c  x1=0x000007f8
       12535000	      1252	80001d44	030000ef	jal	x1,80001d44	  x1=0x80001d44
       12545000	      1253	00000000	00000013	addi	x0,x0,0	  x0:0x00000000
       12555000	      1254	80001d70	00000013	addi	x0,x0,0	  x0:0x00000000
       12565000	      1255	80001d74	004000ef	jal	x1,80001d74	  x1=0x80001d74
       12575000	      1256	00000000	00000013	addi	x0,x0,0	  x0:0x00000000
       12585000	      1257	80001d74	00000013	addi	x0,x0,0	  x0:0x00000000
       12595000	      1258	80001d78	01c000ef	jal	x1,80001d78	  x1=0x80001d78
       12605000	      1259	00000000	00000013	addi	x0,x0,0	  x0:0x00000000
       12615000	      1260	80001d90	00000013	addi	x0,x0,0	  x0:0x00000000
       12625000	      1261	80001d94	fc5ff36f	jal	x6,80001d94	  x6=0x80001d94
       12635000	      1262	00000000	00000013	addi	x0,x0,0	  x0:0x00000000
       12645000	      1263	80001d54	00000013	addi	x0,x0,0	  x0:0x00000000
       12655000	      1264	80001d58	034000ef	jal	x1,80001d58	  x1=0x80001d58
       12665000	      1265	00000000	00000013	addi	x0,x0,0	  x0:0x00000000
       12675000	      1266	80001d88	00000013	addi	x0,x0,0	  x0:0x00000000
       12685000	      1267	80001d8c	fddff76f	jal	x14,80001d8c	 x14=0x80001d8c
       12695000	      1268	00000000	00000013	addi	x0,x0,0	  x0:0x00000000
       12705000	      1269	80001d64	00000013	addi	x0,x0,0	  x0:0x00000000
       12715000	      1270	80001d68	ff5ff36f	jal	x6,80001d68	  x6=0x80001d68
       12725000	      1271	00000000	00000013	addi	x0,x0,0	  x0:0x00000000
       12735000	      1272	80001d58	00000013	addi	x0,x0,0	  x0:0x00000000
       12745000	      1273	80001d5c	004000ef	jal	x1,80001d5c	  x1=0x80001d5c
       12755000	      1274	00000000	00000013	addi	x0,x0,0	  x0:0x00000000
       12765000	      1275	80001d5c	00000013	addi	x0,x0,0	  x0:0x00000000
       12775000	      1276	80001d60	fedff0ef	jal	x1,80001d60	  x1=0x80001d60
       12785000	      1277	00000000	00000013	addi	x0,x0,0	  x0:0x00000000
       12795000	      1278	80001d48	00000013	addi	x0,x0,0	  x0:0x00000000
       12805000	      1279	80001d4c	ffdff36f	jal	x6,80001d4c	  x6=0x80001d4c
       12815000	      1280	00000000	00000013	addi	x0,x0,0	  x0:0x00000000
       12825000	      1281	80001d44	00000013	addi	x0,x0,0	  x0:0x00000000
       12835000	      1282	80001d48	050000ef	jal	x1,80001d48	  x1=0x80001d48
       12845000	      1283	00000000	00000013	addi	x0,x0,0	  x0:0x00000000
       12855000	      1284	80001d94	00000013	addi	x0,x0,0	  x0:0x00000000
       12865000	      1285	80001d98	fd5ff36f	jal	x6,80001d98	  x6=0x80001d98
       12875000	      1286	00000000	00000013	addi	x0,x0,0	  x0:0x00000000
       12885000	      1287	80001d68	00000013	addi	x0,x0,0	  x0:0x00000000
       12895000	      1288	80001d6c	014000ef	jal	x1,80001d6c	  x1=0x80001d6c
       12905000	      1289	00000000	00000013	addi	x0,x0,0	  x0:0x00000000
       12915000	      1290	80001d7c	00000013	addi	x0,x0,0	  x0:0x00000000
       12925000	      1291	80001d80	010005ef	jal	x11,80001d80	 x11=0x80001d80
       12935000	      1292	00000000	00000013	addi	x0,x0,0	  x0:0x00000000
       12945000	      1293	80001d8c	00000013	addi	x0,x0,0	  x0:0x00000000
       12955000	      1294	80001d90	ff5ff0ef	jal	x1,80001d90	  x1=0x80001d90
       12965000	      1295	00000000	00000013	addi	x0,x0,0	  x0:0x00000000
       12975000	      1296	80001d80	00000013	addi	x0,x0,0	  x0:0x00000000
       12985000	      1297	80001d84	004000ef	jal	x1,80001d84	  x1=0x80001d84
       12995000	      1298	00000000	00000013	addi	x0,x0,0	  x0:0x00000000
       13005000	      1299	80001d84	00000013	addi	x0,x0,0	  x0:0x00000000
       13015000	      1300	80001d88	fe9ff1ef	jal	x3,80001d88	  x3=0x80001d88
       13025000	      1301	00000000	00000013	addi	x0,x0,0	  x0:0x00000000
       13035000	      1302	80001d6c	00000013	addi	x0,x0,0	  x0:0x00000000
       13045000	      1303	80001d70	fe5ff0ef	jal	x1,80001d70	  x1=0x80001d70
       13055000	      1304	00000000	00000013	addi	x0,x0,0	  x0:0x00000000
       13065000	      1305	80001d50	00000013	addi	x0,x0,0	  x0:0x00000000
       13075000	      1306	80001d54	ffdff36f	jal	x6,80001d54	  x6=0x80001d54
       13085000	      1307	00000000	00000013	addi	x0,x0,0	  x0:0x00000000
       13095000	      1308	80001d4c	00000013	addi	x0,x0,0	  x0:0x00000000
       13105000	      1309	80001d50	0140036f	jal	x6,80001d50	  x6=0x80001d50
       13115000	      1310	00000000	00000013	addi	x0,x0,0	  x0:0x00000000
       13125000	      1311	80001d60	00000013	addi	x0,x0,0	  x0:0x00000000
       13135000	      1312	80001d64	018000ef	jal	x1,80001d64	  x1=0x80001d64
       13145000	      1313	00000000	00000013	addi	x0,x0,0	  x0:0x00000000
       13155000	      1314	80001d78	00000013	addi	x0,x0,0	  x0:0x00000000
       13165000	      1315	80001d7c	0200036f	jal	x6,80001d7c	  x6=0x80001d7c
       13175000	      1316	00000000	00000013	addi	x0,x0,0	  x0:0x00000000
       13185000	      1317	80001d98	00000013	addi	x0,x0,0	  x0:0x00000000
       13195000	      1318	80001d9c	01434233	xor	x4,x6,x20	  x6:0x80001d7c x20:0x80001c00  x4=0x0000017c
       13205000	      1319	80001da0	004000ef	jal	x1,80001da0	  x1=0x80001da0
       13215000	      1320	00000000	00000013	addi	x0,x0,0	  x0:0x00000000
       13225000	      1321	80001da0	00000013	addi	x0,x0,0	  x0:0x00000000
       13235000	      1322	80001da4	008000ef	jal	x1,80001da4	  x1=0x80001da4
       13245000	      1323	00000000	00000013	addi	x0,x0,0	  x0:0x00000000
       13255000	      1324	80001da8	00000013	addi	x0,x0,0	  x0:0x00000000
       13265000	      1325	80001dac	02000c6f	jal	x24,80001dac	 x24=0x80001dac
       13275000	      1326	00000000	00000013	addi	x0,x0,0	  x0:0x00000000
       13285000	      1327	80001dc8	00000013	addi	x0,x0,0	  x0:0x00000000
       13295000	      1328	80001dcc	004000ef	jal	x1,80001dcc	  x1=0x80001dcc
       13305000	      1329	00000000	00000013	addi	x0,x0,0	  x0:0x00000000
       13315000	      1330	80001dcc	00000013	addi	x0,x0,0	  x0:0x00000000
       13325000	      1331	80001dd0	ff5ff16f	jal	x2,80001dd0	  x2=0x80001dd0
       13335000	      1332	00000000	00000013	addi	x0,x0,0	  x0:0x00000000
       13345000	      1333	80001dc0	00000013	addi	x0,x0,0	  x0:0x00000000
       13355000	      1334	80001dc4	ff9fff6f	jal	x30,80001dc4	 x30=0x80001dc4
       13365000	      1335	00000000	00000013	addi	x0,x0,0	  x0:0x00000000
       13375000	      1336	80001db8	00000013	addi	x0,x0,0	  x0:0x00000000
       13385000	      1337	80001dbc	0040026f	jal	x4,80001dbc	  x4=0x80001dbc
       13395000	      1338	00000000	00000013	addi	x0,x0,0	  x0:0x00000000
       13405000	      1339	80001dbc	00000013	addi	x0,x0,0	  x0:0x00000000
       13415000	      1340	80001dc0	ff1ff56f	jal	x10,80001dc0	 x10=0x80001dc0
       13425000	      1341	00000000	00000013	addi	x0,x0,0	  x0:0x00000000
       13435000	      1342	80001dac	00000013	addi	x0,x0,0	  x0:0x00000000
       13445000	      1343	80001db0	004000ef	jal	x1,80001db0	  x1=0x80001db0
       13455000	      1344	00000000	00000013	addi	x0,x0,0	  x0:0x00000000
       13465000	      1345	80001db0	00000013	addi	x0,x0,0	  x0:0x00000000
       13475000	      1346	80001db4	ff5ff36f	jal	x6,80001db4	  x6=0x80001db4
       13485000	      1347	00000000	00000013	addi	x0,x0,0	  x0:0x00000000
       13495000	      1348	80001da4	00000013	addi	x0,x0,0	  x0:0x00000000
       13505000	      1349	80001da8	0200036f	jal	x6,80001da8	  x6=0x80001da8
       13515000	      1350	00000000	00000013	addi	x0,x0,0	  x0:0x00000000
       13525000	      1351	80001dc4	00000013	addi	x0,x0,0	  x0:0x00000000
       13535000	      1352	80001dc8	ff1ff36f	jal	x6,80001dc8	  x6=0x80001dc8
       13545000	      1353	00000000	00000013	addi	x0,x0,0	  x0:0x00000000
       13555000	      1354	80001db4	00000013	addi	x0,x0,0	  x0:0x00000000
       13565000	      1355	80001db8	01c0016f	jal	x2,80001db8	  x2=0x80001db8
       13575000	      1356	00000000	00000013	addi	x0,x0,0	  x0:0x00000000
       13585000	      1357	80001dd0	00000013	addi	x0,x0,0	  x0:0x00000000
       13595000	      1358	80001dd4	418053b3	sra	x7,x0,x24	  x0:0x00000000 x24:0x80001dac  x7=0x00000000
       13605000	      1359	80001dd8	00c000ef	jal	x1,80001dd8	  x1=0x80001dd8
       13615000	      1360	00000000	00000013	addi	x0,x0,0	  x0:0x00000000
       13625000	      1361	80001de0	00000013	addi	x0,x0,0	  x0:0x00000000
       13635000	      1362	80001de4	040000ef	jal	x1,80001de4	  x1=0x80001de4
       13645000	      1363	00000000	00000013	addi	x0,x0,0	  x0:0x00000000
       13655000	      1364	80001e20	00000013	addi	x0,x0,0	  x0:0x00000000
       13665000	      1365	80001e24	fc5ff0ef	jal	x1,80001e24	  x1=0x80001e24
       13675000	      1366	00000000	00000013	addi	x0,x0,0	  x0:0x00000000
       13685000	      1367	80001de4	00000013	addi	x0,x0,0	  x0:0x00000000
       13695000	      1368	80001de8	008000ef	jal	x1,80001de8	  x1=0x80001de8
       13705000	      1369	00000000	00000013	addi	x0,x0,0	  x0:0x00000000
       13715000	      1370	80001dec	00000013	addi	x0,x0,0	  x0:0x00000000
       13725000	      1371	80001df0	02c0036f	jal	x6,80001df0	  x6=0x80001df0
       13735000	      1372	00000000	00000013	addi	x0,x0,0	  x0:0x00000000
       13745000	      1373	80001e18	00000013	addi	x0,x0,0	  x0:0x00000000
       13755000	      1374	80001e1c	fc5ff0ef	jal	x1,80001e1c	  x1=0x80001e1c
       13765000	      1375	00000000	00000013	addi	x0,x0,0	  x0:0x00000000
       13775000	      1376	80001ddc	00000013	addi	x0,x0,0	  x0:0x00000000
       13785000	      1377	80001de0	040000ef	jal	x1,80001de0	  x1=0x80001de0
       13795000	      1378	00000000	00000013	addi	x0,x0,0	  x0:0x00000000
       13805000	      1379	80001e1c	00000013	addi	x0,x0,0	  x0:0x00000000
       13815000	      1380	80001e20	ff1ff0ef	jal	x1,80001e20	  x1=0x80001e20
       13825000	      1381	00000000	00000013	addi	x0,x0,0	  x0:0x00000000
       13835000	      1382	80001e0c	00000013	addi	x0,x0,0	  x0:0x00000000
       13845000	      1383	80001e10	ffdff36f	jal	x6,80001e10	  x6=0x80001e10
       13855000	      1384	00000000	00000013	addi	x0,x0,0	  x0:0x00000000
       13865000	      1385	80001e08	00000013	addi	x0,x0,0	  x0:0x00000000
       13875000	      1386	80001e0c	ff1ff36f	jal	x6,80001e0c	  x6=0x80001e0c
       13885000	      1387	00000000	00000013	addi	x0,x0,0	  x0:0x00000000
       13895000	      1388	80001df8	00000013	addi	x0,x0,0	  x0:0x00000000
       13905000	      1389	80001dfc	008000ef	jal	x1,80001dfc	  x1=0x80001dfc
       13915000	      1390	00000000	00000013	addi	x0,x0,0	  x0:0x00000000
       13925000	      1391	80001e00	00000013	addi	x0,x0,0	  x0:0x00000000
       13935000	      1392	80001e04	ffdff0ef	jal	x1,80001e04	  x1=0x80001e04
       13945000	      1393	00000000	00000013	addi	x0,x0,0	  x0:0x00000000
       13955000	      1394	80001dfc	00000013	addi	x0,x0,0	  x0:0x00000000
       13965000	      1395	80001e00	008000ef	jal	x1,80001e00	  x1=0x80001e00
       13975000	      1396	00000000	00000013	addi	x0,x0,0	  x0:0x00000000
       13985000	      1397	80001e04	00000013	addi	x0,x0,0	  x0:0x00000000
       13995000	      1398	80001e08	00c0056f	jal	x10,80001e08	 x10=0x80001e08
       14005000	      1399	00000000	00000013	addi	x0,x0,0	  x0:0x00000000
       14015000	      1400	80001e10	00000013	addi	x0,x0,0	  x0:0x00000000
       14025000	      1401	80001e14	fe1ff26f	jal	x4,80001e14	  x4=0x80001e14
       14035000	      1402	00000000	00000013	addi	x0,x0,0	  x0:0x00000000
       14045000	      1403	80001df0	00000013	addi	x0,x0,0	  x0:0x00000000
       14055000	      1404	80001df4	fe9ff36f	jal	x6,80001df4	  x6=0x80001df4
       14065000	      1405	00000000	00000013	addi	x0,x0,0	  x0:0x00000000
       14075000	      1406	80001dd8	00000013	addi	x0,x0,0	  x0:0x00000000
       14085000	      1407	80001ddc	0100036f	jal	x6,80001ddc	  x6=0x80001ddc
       14095000	      1408	00000000	00000013	addi	x0,x0,0	  x0:0x00000000
       14105000	      1409	80001de8	00000013	addi	x0,x0,0	  x0:0x00000000
       14115000	      1410	80001dec	00c001ef	jal	x3,80001dec	  x3=0x80001dec
       14125000	      1411	00000000	00000013	addi	x0,x0,0	  x0:0x00000000
       14135000	      1412	80001df4	00000013	addi	x0,x0,0	  x0:0x00000000
       14145000	      1413	80001df8	030000ef	jal	x1,80001df8	  x1=0x80001df8
       14155000	      1414	00000000	00000013	addi	x0,x0,0	  x0:0x00000000
       14165000	      1415	80001e24	00000013	addi	x0,x0,0	  x0:0x00000000
       14175000	      1416	80001e28	ff1ff0ef	jal	x1,80001e28	  x1=0x80001e28
       14185000	      1417	00000000	00000013	addi	x0,x0,0	  x0:0x00000000
       14195000	      1418	80001e14	00000013	addi	x0,x0,0	  x0:0x00000000
       14205000	      1419	80001e18	014000ef	jal	x1,80001e18	  x1=0x80001e18
       14215000	      1420	00000000	00000013	addi	x0,x0,0	  x0:0x00000000
       14225000	      1421	80001e28	00000013	addi	x0,x0,0	  x0:0x00000000
       14235000	      1422	80001e2c	0133d5b3	srl	x11,x7,x19	  x7:0x00000000 x19:0x80001ba8 x11=0x00000000
       14245000	      1423	80001e30	008000ef	jal	x1,80001e30	  x1=0x80001e30
       14255000	      1424	00000000	00000013	addi	x0,x0,0	  x0:0x00000000
       14265000	      1425	80001e34	00000013	addi	x0,x0,0	  x0:0x00000000
       14275000	      1426	80001e38	030000ef	jal	x1,80001e38	  x1=0x80001e38
       14285000	      1427	00000000	00000013	addi	x0,x0,0	  x0:0x00000000
       14295000	      1428	80001e64	00000013	addi	x0,x0,0	  x0:0x00000000
       14305000	      1429	80001e68	0080036f	jal	x6,80001e68	  x6=0x80001e68
       14315000	      1430	00000000	00000013	addi	x0,x0,0	  x0:0x00000000
       14325000	      1431	80001e6c	00000013	addi	x0,x0,0	  x0:0x00000000
       14335000	      1432	80001e70	fe9ff36f	jal	x6,80001e70	  x6=0x80001e70
       14345000	      1433	00000000	00000013	addi	x0,x0,0	  x0:0x00000000
       14355000	      1434	80001e54	00000013	addi	x0,x0,0	  x0:0x00000000
       14365000	      1435	80001e58	014000ef	jal	x1,80001e58	  x1=0x80001e58
       14375000	      1436	00000000	00000013	addi	x0,x0,0	  x0:0x00000000
       14385000	      1437	80001e68	00000013	addi	x0,x0,0	  x0:0x00000000
       14395000	      1438	80001e6c	fe5ff0ef	jal	x1,80001e6c	  x1=0x80001e6c
       14405000	      1439	00000000	00000013	addi	x0,x0,0	  x0:0x00000000
       14415000	      1440	80001e4c	00000013	addi	x0,x0,0	  x0:0x00000000
       14425000	      1441	80001e50	ffdff3ef	jal	x7,80001e50	  x7=0x80001e50
       14435000	      1442	00000000	00000013	addi	x0,x0,0	  x0:0x00000000
       14445000	      1443	80001e48	00000013	addi	x0,x0,0	  x0:0x00000000
       14455000	      1444	80001e4c	00800f6f	jal	x30,80001e4c	 x30=0x80001e4c
       14465000	      1445	00000000	00000013	addi	x0,x0,0	  x0:0x00000000
       14475000	      1446	80001e50	00000013	addi	x0,x0,0	  x0:0x00000000
       14485000	      1447	80001e54	0200036f	jal	x6,80001e54	  x6=0x80001e54
       14495000	      1448	00000000	00000013	addi	x0,x0,0	  x0:0x00000000
       14505000	      1449	80001e70	00000013	addi	x0,x0,0	  x0:0x00000000
       14515000	      1450	80001e74	ff1ff0ef	jal	x1,80001e74	  x1=0x80001e74
       14525000	      1451	00000000	00000013	addi	x0,x0,0	  x0:0x00000000
       14535000	      1452	80001e60	00000013	addi	x0,x0,0	  x0:0x00000000
       14545000	      1453	80001e64	fd1ff0ef	jal	x1,80001e64	  x1=0x80001e64
       14555000	      1454	00000000	00000013	addi	x0,x0,0	  x0:0x00000000
       14565000	      1455	80001e30	00000013	addi	x0,x0,0	  x0:0x00000000
       14575000	      1456	80001e34	00c000ef	jal	x1,80001e34	  x1=0x80001e34
       14585000	      1457	00000000	00000013	addi	x0,x0,0	  x0:0x00000000
       14595000	      1458	80001e3c	00000013	addi	x0,x0,0	  x0:0x00000000
       14605000	      1459	80001e40	0380036f	jal	x6,80001e40	  x6=0x80001e40
       14615000	      1460	00000000	00000013	addi	x0,x0,0	  x0:0x00000000
       14625000	      1461	80001e74	00000013	addi	x0,x0,0	  x0:0x00000000
       14635000	      1462	80001e78	fe9ff0ef	jal	x1,80001e78	  x1=0x80001e78
       14645000	      1463	00000000	00000013	addi	x0,x0,0	  x0:0x00000000
       14655000	      1464	80001e5c	00000013	addi	x0,x0,0	  x0:0x00000000
       14665000	      1465	80001e60	fe9ff0ef	jal	x1,80001e60	  x1=0x80001e60
       14675000	      1466	00000000	00000013	addi	x0,x0,0	  x0:0x00000000
       14685000	      1467	80001e44	00000013	addi	x0,x0,0	  x0:0x00000000
       14695000	      1468	80001e48	ff5ff86f	jal	x16,80001e48	 x16=0x80001e48
       14705000	      1469	00000000	00000013	addi	x0,x0,0	  x0:0x00000000
       14715000	      1470	80001e38	00000013	addi	x0,x0,0	  x0:0x00000000
       14725000	      1471	80001e3c	020000ef	jal	x1,80001e3c	  x1=0x80001e3c
       14735000	      1472	00000000	00000013	addi	x0,x0,0	  x0:0x00000000
       14745000	      1473	80001e58	00000013	addi	x0,x0,0	  x0:0x00000000
       14755000	      1474	80001e5c	fe9fff6f	jal	x30,80001e5c	 x30=0x80001e5c
       14765000	      1475	00000000	00000013	addi	x0,x0,0	  x0:0x00000000
       14775000	      1476	80001e40	00000013	addi	x0,x0,0	  x0:0x00000000
       14785000	      1477	80001e44	038000ef	jal	x1,80001e44	  x1=0x80001e44
       14795000	      1478	00000000	00000013	addi	x0,x0,0	  x0:0x00000000
       14805000	      1479	80001e78	00000013	addi	x0,x0,0	  x0:0x00000000
       14815000	      1480	80001e7c	dcb6beb7	lui	x29,0xdcb6b	 x29=0xdcb6b000
       14825000	      1481	80001e80	020000ef	jal	x1,80001e80	  x1=0x80001e80
       14835000	      1482	00000000	00000013	addi	x0,x0,0	  x0:0x00000000
       14845000	      1483	80001e9c	00000013	addi	x0,x0,0	  x0:0x00000000
       14855000	      1484	80001ea0	014000ef	jal	x1,80001ea0	  x1=0x80001ea0
       14865000	      1485	00000000	00000013	addi	x0,x0,0	  x0:0x00000000
       14875000	      1486	80001eb0	00000013	addi	x0,x0,0	  x0:0x00000000
       14885000	      1487	80001eb4	fe9ff0ef	jal	x1,80001eb4	  x1=0x80001eb4
       14895000	      1488	00000000	00000013	addi	x0,x0,0	  x0:0x00000000
       14905000	      1489	80001e98	00000013	addi	x0,x0,0	  x0:0x00000000
       14915000	      1490	80001e9c	034000ef	jal	x1,80001e9c	  x1=0x80001e9c
       14925000	      1491	00000000	00000013	addi	x0,x0,0	  x0:0x00000000
       14935000	      1492	80001ecc	00000013	addi	x0,x0,0	  x0:0x00000000
       14945000	      1493	80001ed0	fb9ff0ef	jal	x1,80001ed0	  x1=0x80001ed0
       14955000	      1494	00000000	00000013	addi	x0,x0,0	  x0:0x00000000
       14965000	      1495	80001e84	00000013	addi	x0,x0,0	  x0:0x00000000
       14975000	      1496	80001e88	020000ef	jal	x1,80001e88	  x1=0x80001e88
       14985000	      1497	00000000	00000013	addi	x0,x0,0	  x0:0x00000000
       14995000	      1498	80001ea4	00000013	addi	x0,x0,0	  x0:0x00000000
       15005000	      1499	80001ea8	0380036f	jal	x6,80001ea8	  x6=0x80001ea8
       15015000	      1500	00000000	00000013	addi	x0,x0,0	  x0:0x00000000
       15025000	      1501	80001edc	00000013	addi	x0,x0,0	  x0:0x00000000
       15035000	      1502	80001ee0	fe5ffaef	jal	x21,80001ee0	 x21=0x80001ee0
       15045000	      1503	00000000	00000013	addi	x0,x0,0	  x0:0x00000000
       15055000	      1504	80001ec0	00000013	addi	x0,x0,0	  x0:0x00000000
       15065000	      1505	80001ec4	004009ef	jal	x19,80001ec4	 x19=0x80001ec4
       15075000	      1506	00000000	00000013	addi	x0,x0,0	  x0:0x00000000
       15085000	      1507	80001ec4	00000013	addi	x0,x0,0	  x0:0x00000000
       15095000	      1508	80001ec8	010000ef	jal	x1,80001ec8	  x1=0x80001ec8
       15105000	      1509	00000000	00000013	addi	x0,x0,0	  x0:0x00000000
       15115000	      1510	80001ed4	00000013	addi	x0,x0,0	  x0:0x00000000
       15125000	      1511	80001ed8	fd5ff5ef	jal	x11,80001ed8	 x11=0x80001ed8
       15135000	      1512	00000000	00000013	addi	x0,x0,0	  x0:0x00000000
       15145000	      1513	80001ea8	00000013	addi	x0,x0,0	  x0:0x00000000
       15155000	      1514	80001eac	fe5ff0ef	jal	x1,80001eac	  x1=0x80001eac
       15165000	      1515	00000000	00000013	addi	x0,x0,0	  x0:0x00000000
       15175000	      1516	80001e8c	00000013	addi	x0,x0,0	  x0:0x00000000
       15185000	      1517	80001e90	004000ef	jal	x1,80001e90	  x1=0x80001e90
       15195000	      1518	00000000	00000013	addi	x0,x0,0	  x0:0x00000000
       15205000	      1519	80001e90	00000013	addi	x0,x0,0	  x0:0x00000000
       15215000	      1520	80001e94	01c000ef	jal	x1,80001e94	  x1=0x80001e94
       15225000	      1521	00000000	00000013	addi	x0,x0,0	  x0:0x00000000
       15235000	      1522	80001eac	00000013	addi	x0,x0,0	  x0:0x00000000
       15245000	      1523	80001eb0	fe9fff6f	jal	x30,80001eb0	 x30=0x80001eb0
       15255000	      1524	00000000	00000013	addi	x0,x0,0	  x0:0x00000000
       15265000	      1525	80001e94	00000013	addi	x0,x0,0	  x0:0x00000000
       15275000	      1526	80001e98	03c0076f	jal	x14,80001e98	 x14=0x80001e98
       15285000	      1527	00000000	00000013	addi	x0,x0,0	  x0:0x00000000
       15295000	      1528	80001ed0	00000013	addi	x0,x0,0	  x0:0x00000000
       15305000	      1529	80001ed4	0100036f	jal	x6,80001ed4	  x6=0x80001ed4
       15315000	      1530	00000000	00000013	addi	x0,x0,0	  x0:0x00000000
       15325000	      1531	80001ee0	00000013	addi	x0,x0,0	  x0:0x00000000
       15335000	      1532	80001ee4	fa1ff0ef	jal	x1,80001ee4	  x1=0x80001ee4
       15345000	      1533	00000000	00000013	addi	x0,x0,0	  x0:0x00000000
       15355000	      1534	80001e80	00000013	addi	x0,x0,0	  x0:0x00000000
       15365000	      1535	80001e84	03c000ef	jal	x1,80001e84	  x1=0x80001e84
       15375000	      1536	00000000	00000013	addi	x0,x0,0	  x0:0x00000000
       15385000	      1537	80001ebc	00000013	addi	x0,x0,0	  x0:0x00000000
       15395000	      1538	80001ec0	01c009ef	jal	x19,80001ec0	 x19=0x80001ec0
       15405000	      1539	00000000	00000013	addi	x0,x0,0	  x0:0x00000000
       15415000	      1540	80001ed8	00000013	addi	x0,x0,0	  x0:0x00000000
       15425000	      1541	80001edc	fc9ff36f	jal	x6,80001edc	  x6=0x80001edc
       15435000	      1542	00000000	00000013	addi	x0,x0,0	  x0:0x00000000
       15445000	      1543	80001ea0	00000013	addi	x0,x0,0	  x0:0x00000000
       15455000	      1544	80001ea4	028000ef	jal	x1,80001ea4	  x1=0x80001ea4
       15465000	      1545	00000000	00000013	addi	x0,x0,0	  x0:0x00000000
       15475000	      1546	80001ec8	00000013	addi	x0,x0,0	  x0:0x00000000
       15485000	      1547	80001ecc	fedff0ef	jal	x1,80001ecc	  x1=0x80001ecc
       15495000	      1548	00000000	00000013	addi	x0,x0,0	  x0:0x00000000
       15505000	      1549	80001eb4	00000013	addi	x0,x0,0	  x0:0x00000000
       15515000	      1550	80001eb8	fd5ff7ef	jal	x15,80001eb8	 x15=0x80001eb8
       15525000	      1551	00000000	00000013	addi	x0,x0,0	  x0:0x00000000
       15535000	      1552	80001e88	00000013	addi	x0,x0,0	  x0:0x00000000
       15545000	      1553	80001e8c	03000aef	jal	x21,80001e8c	 x21=0x80001e8c
       15555000	      1554	00000000	00000013	addi	x0,x0,0	  x0:0x00000000
       15565000	      1555	80001eb8	00000013	addi	x0,x0,0	  x0:0x00000000
       15575000	      1556	80001ebc	02c00eef	jal	x29,80001ebc	 x29=0x80001ebc
       15585000	      1557	00000000	00000013	addi	x0,x0,0	  x0:0x00000000
       15595000	      1558	80001ee4	00000013	addi	x0,x0,0	  x0:0x00000000
       15605000	      1559	80001ee8	00edf233	and	x4,x27,x14	 x27:0x80009f08 x14:0x80001e98  x4=0x80001e08
       15615000	      1560	80001eec	028000ef	jal	x1,80001eec	  x1=0x80001eec
       15625000	      1561	00000000	00000013	addi	x0,x0,0	  x0:0x00000000
       15635000	      1562	80001f10	00000013	addi	x0,x0,0	  x0:0x00000000
       15645000	      1563	80001f14	ff5ff0ef	jal	x1,80001f14	  x1=0x80001f14
       15655000	      1564	00000000	00000013	addi	x0,x0,0	  x0:0x00000000
       15665000	      1565	80001f04	00000013	addi	x0,x0,0	  x0:0x00000000
       15675000	      1566	80001f08	ff9ff16f	jal	x2,80001f08	  x2=0x80001f08
       15685000	      1567	00000000	00000013	addi	x0,x0,0	  x0:0x00000000
       15695000	      1568	80001efc	00000013	addi	x0,x0,0	  x0:0x00000000
       15705000	      1569	80001f00	00c000ef	jal	x1,80001f00	  x1=0x80001f00
       15715000	      1570	00000000	00000013	addi	x0,x0,0	  x0:0x00000000
       15725000	      1571	80001f08	00000013	addi	x0,x0,0	  x0:0x00000000
       15735000	      1572	80001f0c	0140036f	jal	x6,80001f0c	  x6=0x80001f0c
       15745000	      1573	00000000	00000013	addi	x0,x0,0	  x0:0x00000000
       15755000	      1574	80001f1c	00000013	addi	x0,x0,0	  x0:0x00000000
       15765000	      1575	80001f20	ff1ff0ef	jal	x1,80001f20	  x1=0x80001f20
       15775000	      1576	00000000	00000013	addi	x0,x0,0	  x0:0x00000000
       15785000	      1577	80001f0c	00000013	addi	x0,x0,0	  x0:0x00000000
       15795000	      1578	80001f10	fe1ff0ef	jal	x1,80001f10	  x1=0x80001f10
       15805000	      1579	00000000	00000013	addi	x0,x0,0	  x0:0x00000000
       15815000	      1580	80001eec	00000013	addi	x0,x0,0	  x0:0x00000000
       15825000	      1581	80001ef0	014000ef	jal	x1,80001ef0	  x1=0x80001ef0
       15835000	      1582	00000000	00000013	addi	x0,x0,0	  x0:0x00000000
       15845000	      1583	80001f00	00000013	addi	x0,x0,0	  x0:0x00000000
       15855000	      1584	80001f04	ff9ff7ef	jal	x15,80001f04	 x15=0x80001f04
       15865000	      1585	00000000	00000013	addi	x0,x0,0	  x0:0x00000000
       15875000	      1586	80001ef8	00000013	addi	x0,x0,0	  x0:0x00000000
       15885000	      1587	80001efc	ff9ff36f	jal	x6,80001efc	  x6=0x80001efc
       15895000	      1588	00000000	00000013	addi	x0,x0,0	  x0:0x00000000
       15905000	      1589	80001ef0	00000013	addi	x0,x0,0	  x0:0x00000000
       15915000	      1590	80001ef4	024000ef	jal	x1,80001ef4	  x1=0x80001ef4
       15925000	      1591	00000000	00000013	addi	x0,x0,0	  x0:0x00000000
       15935000	      1592	80001f14	00000013	addi	x0,x0,0	  x0:0x00000000
       15945000	      1593	80001f18	fe1ff0ef	jal	x1,80001f18	  x1=0x80001f18
       15955000	      1594	00000000	00000013	addi	x0,x0,0	  x0:0x00000000
       15965000	      1595	80001ef4	00000013	addi	x0,x0,0	  x0:0x00000000
       15975000	      1596	80001ef8	0240036f	jal	x6,80001ef8	  x6=0x80001ef8
       15985000	      1597	00000000	00000013	addi	x0,x0,0	  x0:0x00000000
       15995000	      1598	80001f18	00000013	addi	x0,x0,0	  x0:0x00000000
       16005000	      1599	80001f1c	008000ef	jal	x1,80001f1c	  x1=0x80001f1c
       16015000	      1600	00000000	00000013	addi	x0,x0,0	  x0:0x00000000
       16025000	      1601	80001f20	00000013	addi	x0,x0,0	  x0:0x00000000
       16035000	      1602	80001f24	b3bdef97	auipc	x31,0xb3bde	 x31=0x33bdff20
       16045000	      1603	80001f28	e0d2b013	sltiu	x0,x5,-499	  x5:0x80001cf0
       16055000	      1604	80001f2c	71a9cb13	xori	x22,x19,1818	 x19:0x80001ec0 x22=0x800019da
       16065000	      1605	80001f30	039ac863	blt	x21,x25,80001f60	 x21:0x80001e8c x25:0x80001aa4
       16075000	      1606	80001f34	40f25313	srai	x6,x4,0xf	  x4:0x80001e08  x6=0xffff0000
       16085000	      1607	80001f38	1752cfb7	lui	x31,0x1752c	 x31=0x1752c000
       16095000	      1608	80001f3c	01f31533	sll	x10,x6,x31	  x6:0xffff0000 x31:0x1752c000 x10=0xffff0000
       16105000	      1609	80001f40	09893c13	sltiu	x24,x18,152	 x18:0x8000185e x24=0x00000000
       16115000	      1610	80001f44	2a0c3813	sltiu	x16,x24,672	 x24:0x00000000 x16=0x00000001
       16125000	      1611	80001f48	01f95033	srl	x0,x18,x31	 x18:0x8000185e x31:0x1752c000
       16135000	      1612	80001f4c	0ce57013	andi	x0,x10,206	 x10:0xffff0000
       16145000	      1613	80001f50	41b4df33	sra	x30,x9,x27	  x9:0x80001b90 x27:0x80009f08 x30=0xff80001b
       16155000	      1614	80001f54	fc2d7e13	andi	x28,x26,-62	 x26:0x00080001 x28=0x00080000
       16165000	      1615	80001f58	24012593	slti	x11,x2,576	  x2:0x80001f08 x11=0x00000001
       16175000	      1616	80001f5c	01dbd093	srli	x1,x23,0x1d	 x23:0x80001d0c  x1=0x00000004
       16185000	      1617	80001f60	72118637	lui	x12,0x72118	 x12=0x72118000
       16195000	      1618	80001f64	045fd863	bge	x31,x5,80001fb4	 x31:0x1752c000  x5:0x80001cf0
       16205000	      1619	00000000	00000013	addi	x0,x0,0	  x0:0x00000000
       16215000	      1620	80001fb0	00000013	addi	x0,x0,0	  x0:0x00000000
       16225000	      1621	80001fb4	03079863	bne	x15,x16,80001fe4	 x15:0x80001f04 x16:0x00000001
       16235000	      1622	00000000	00000013	addi	x0,x0,0	  x0:0x00000000
       16245000	      1623	80001fe0	00000013	addi	x0,x0,0	  x0:0x00000000
       16255000	      1624	80001fe4	0130e833	or	x16,x1,x19	  x1:0x00000004 x19:0x80001ec0 x16=0x80001ec4
       16265000	      1625	80001fe8	01409033	sll	x0,x1,x20	  x1:0x00000004 x20:0x80001c00
       16275000	      1626	80001fec	018dc3b3	xor	x7,x27,x24	 x27:0x80009f08 x24:0x00000000  x7=0x80009f08
       16285000	      1627	80001ff0	025a1663	bne	x20,x5,8000201c	 x20:0x80001c00  x5:0x80001cf0
       16295000	      1628	00000000	00000013	addi	x0,x0,0	  x0:0x00000000
       16305000	      1629	80002018	00000013	addi	x0,x0,0	  x0:0x00000000
       16315000	      1630	8000201c	b116b013	sltiu	x0,x13,-1263	 x13:0x80001c20
       16325000	      1631	80002020	00b64833	xor	x16,x12,x11	 x12:0x72118000 x11:0x00000001 x16=0x72118001
       16335000	      1632	80002024	01a597b3	sll	x15,x11,x26	 x11:0x00000001 x26:0x00080001 x15=0x00000002
       16345000	      1633	80002028	058d5663	bge	x26,x24,80002074	 x26:0x00080001 x24:0x00000000
       16355000	      1634	00000000	00000013	addi	x0,x0,0	  x0:0x00000000
       16365000	      1635	80002070	00000013	addi	x0,x0,0	  x0:0x00000000
       16375000	      1636	80002074	78cfc493	xori	x9,x31,1932	 x31:0x1752c000  x9=0x1752c78c
       16385000	      1637	80002078	019cecb3	or	x25,x25,x25	 x25:0x80001aa4 x25:0x80001aa4 x25=0x80001aa4
       16395000	      1638	8000207c	b726e613	ori	x12,x13,-1166	 x13:0x80001c20 x12=0xffffff72
       16405000	      1639	80002080	98954693	xori	x13,x10,-1655	 x10:0xffff0000 x13=0x0000f989
       16415000	      1640	80002084	05f4d263	bge	x9,x31,800020c8	  x9:0x1752c78c x31:0x1752c000
       16425000	      1641	00000000	00000013	addi	x0,x0,0	  x0:0x00000000
       16435000	      1642	800020c4	00000013	addi	x0,x0,0	  x0:0x00000000
       16445000	      1643	800020c8	410055b3	sra	x11,x0,x16	  x0:0x00000000 x16:0x72118001 x11=0x00000000
       16455000	      1644	800020cc	5f2ac293	xori	x5,x21,1522	 x21:0x80001e8c  x5=0x80001b7e
       16465000	      1645	800020d0	0397de63	bge	x15,x25,8000210c	 x15:0x00000002 x25:0x80001aa4
       16475000	      1646	00000000	00000013	addi	x0,x0,0	  x0:0x00000000
       16485000	      1647	80002108	00000013	addi	x0,x0,0	  x0:0x00000000
       16495000	      1648	8000210c	3e6b0793	addi	x15,x22,998	 x22:0x800019da x15=0x80001dc0
       16505000	      1649	80002110	00e05493	srli	x9,x0,0xe	  x0:0x00000000  x9=0x00000000
       16515000	      1650	80002114	00c2b7b3	sltu	x15,x5,x12	  x5:0x80001b7e x12:0xffffff72 x15=0x00000001
       16525000	      1651	80002118	e1923b13	sltiu	x22,x4,-487	  x4:0x80001e08 x22=0x00000001
       16535000	      1652	8000211c	88fd2313	slti	x6,x26,-1905	 x26:0x00080001  x6=0x00000000
       16545000	      1653	80002120	7b5bc217	auipc	x4,0x7b5bc	  x4=0xfb5be11c
       16555000	      1654	80002124	296af593	andi	x11,x21,662	 x21:0x80001e8c x11=0x00000284
       16565000	      1655	80002128	00b11c13	slli	x24,x2,0xb	  x2:0x80001f08 x24=0x00f84000
       16575000	      1656	8000212c	6a12a113	slti	x2,x5,1697	  x5:0x80001b7e  x2=0x00000001
       16585000	      1657	80002130	d0118513	addi	x10,x3,-767	  x3:0x80001dec x10=0x80001aed
       16595000	      1658	80002134	6d8ba093	slti	x1,x23,1752	 x23:0x80001d0c  x1=0x00000001
       16605000	      1659	80002138	c401b593	sltiu	x11,x3,-960	  x3:0x80001dec x11=0x00000001
       16615000	      1660	8000213c	04894263	blt	x18,x8,80002180	 x18:0x8000185e  x8:0x80009fc4
       16625000	      1661	00000000	00000013	addi	x0,x0,0	  x0:0x00000000
       16635000	      1662	8000217c	00000013	addi	x0,x0,0	  x0:0x00000000
       16645000	      1663	80002180	01d29793	slli	x15,x5,0x1d	  x5:0x80001b7e x15=0xc0000000
       16655000	      1664	80002184	95d13f93	sltiu	x31,x2,-1699	  x2:0x00000001 x31=0x00000001
       16665000	      1665	80002188	00c4f233	and	x4,x9,x12	  x9:0x00000000 x12:0xffffff72  x4=0x00000000
       16675000	      1666	8000218c	3720a337	lui	x6,0x3720a	  x6=0x3720a000
       16685000	      1667	80002190	01d85533	srl	x10,x16,x29	 x16:0x72118001 x29:0x80001ebc x10=0x00000007
       16695000	      1668	80002194	027f6663	bltu	x30,x7,800021c0	 x30:0xff80001b  x7:0x80009f08
       16705000	      1669	80002198	40898fb3	sub	x31,x19,x8	 x19:0x80001ec0  x8:0x80009fc4 x31=0xffff7efc
       16715000	      1670	8000219c	409c5313	srai	x6,x24,0x9	 x24:0x00f84000  x6=0x00007c20
       16725000	      1671	800021a0	541e8d13	addi	x26,x29,1345	 x29:0x80001ebc x26=0x800023fd
       16735000	      1672	800021a4	28496c37	lui	x24,0x28496	 x24=0x28496000
       16745000	      1673	800021a8	4184d093	srai	x1,x9,0x18	  x9:0x00000000  x1=0x00000000
       16755000	      1674	800021ac	00f6c713	xori	x14,x13,15	 x13:0x0000f989 x14=0x0000f986
       16765000	      1675	800021b0	0072d9b3	srl	x19,x5,x7	  x5:0x80001b7e  x7:0x80009f08 x19=0x0080001b
       16775000	      1676	800021b4	005f6633	or	x12,x30,x5	 x30:0xff80001b  x5:0x80001b7e x12=0xff801b7f
       16785000	      1677	800021b8	01d39b33	sll	x22,x7,x29	  x7:0x80009f08 x29:0x80001ebc x22=0x80000000
       16795000	      1678	800021bc	01069863	bne	x13,x16,800021cc	 x13:0x0000f989 x16:0x72118001
       16805000	      1679	00000000	00000013	addi	x0,x0,0	  x0:0x00000000
       16815000	      1680	800021c8	00000013	addi	x0,x0,0	  x0:0x00000000
       16825000	      1681	800021cc	4161cf13	xori	x30,x3,1046	  x3:0x80001dec x30=0x800019fa
       16835000	      1682	800021d0	017b6e63	bltu	x22,x23,800021ec	 x22:0x80000000 x23:0x80001d0c
       16845000	      1683	00000000	00000013	addi	x0,x0,0	  x0:0x00000000
       16855000	      1684	800021e8	00000013	addi	x0,x0,0	  x0:0x00000000
       16865000	      1685	800021ec	051b5463	bge	x22,x17,80002234	 x22:0x80000000 x17:0x0000000c
       16875000	      1686	800021f0	00000013	addi	x0,x0,0	  x0:0x00000000
       16885000	      1687	800021f4	7cb98b93	addi	x23,x19,1995	 x19:0x0080001b x23=0x008007e6
       16895000	      1688	800021f8	00209e63	bne	x1,x2,80002214	  x1:0x00000000  x2:0x00000001
       16905000	      1689	00000000	00000013	addi	x0,x0,0	  x0:0x00000000
       16915000	      1690	80002210	00000013	addi	x0,x0,0	  x0:0x00000000
       16925000	      1691	80002214	dbb7bfb7	lui	x31,0xdbb7b	 x31=0xdbb7b000
       16935000	      1692	80002218	01561513	slli	x10,x12,0x15	 x12:0xff801b7f x10=0x6fe00000
       16945000	      1693	8000221c	00044eb3	xor	x29,x8,x0	  x8:0x80009fc4  x0:0x00000000 x29=0x80009fc4
       16955000	      1694	80002220	011d1fb3	sll	x31,x26,x17	 x26:0x800023fd x17:0x0000000c x31=0x023fd000
       16965000	      1695	80002224	027fd463	bge	x31,x7,8000224c	 x31:0x023fd000  x7:0x80009f08
       16975000	      1696	00000000	00000013	addi	x0,x0,0	  x0:0x00000000
       16985000	      1697	80002248	00000013	addi	x0,x0,0	  x0:0x00000000
       16995000	      1698	8000224c	4190dd33	sra	x26,x1,x25	  x1:0x00000000 x25:0x80001aa4 x26=0x00000000
       17005000	      1699	80002250	40e90733	sub	x14,x18,x14	 x18:0x8000185e x14:0x0000f986 x14=0x7fff1ed8
       17015000	      1700	80002254	010a67b3	or	x15,x20,x16	 x20:0x80001c00 x16:0x72118001 x15=0xf2119c01
       17025000	      1701	80002258	0008f663	bgeu	x17,x0,80002264	 x17:0x0000000c  x0:0x00000000
       17035000	      1702	00000000	00000013	addi	x0,x0,0	  x0:0x00000000
       17045000	      1703	80002260	00000013	addi	x0,x0,0	  x0:0x00000000
       17055000	      1704	80002264	343ec293	xori	x5,x29,835	 x29:0x80009fc4  x5=0x80009c87
       17065000	      1705	80002268	004af333	and	x6,x21,x4	 x21:0x80001e8c  x4:0x00000000  x6=0x00000000
       17075000	      1706	8000226c	016454b3	srl	x9,x8,x22	  x8:0x80009fc4 x22:0x80000000  x9=0x80009fc4
       17085000	      1707	80002270	41e10a33	sub	x20,x2,x30	  x2:0x00000001 x30:0x800019fa x20=0x7fffe607
       17095000	      1708	80002274	6c9e4793	xori	x15,x28,1737	 x28:0x00080000 x15=0x000806c9
       17105000	      1709	80002278	21287d13	andi	x26,x16,530	 x16:0x72118001 x26=0x00000000
       17115000	      1710	8000227c	41a25993	srai	x19,x4,0x1a	  x4:0x00000000 x19=0x00000000
       17125000	      1711	80002280	03347863	bgeu	x8,x19,800022b0	  x8:0x80009fc4 x19:0x00000000
       17135000	      1712	00000000	00000013	addi	x0,x0,0	  x0:0x00000000
       17145000	      1713	800022ac	00000013	addi	x0,x0,0	  x0:0x00000000
       17155000	      1714	800022b0	01a23b33	sltu	x22,x4,x26	  x4:0x00000000 x26:0x00000000 x22=0x00000000
       17165000	      1715	800022b4	01e102b3	add	x5,x2,x30	  x2:0x00000001 x30:0x800019fa  x5=0x800019fb
       17175000	      1716	800022b8	01229013	slli	x0,x5,0x12	  x5:0x800019fb
       17185000	      1717	800022bc	509ac993	xori	x19,x21,1289	 x21:0x80001e8c x19=0x80001b85
       17195000	      1718	800022c0	4339b9b7	lui	x19,0x4339b	 x19=0x4339b000
       17205000	      1719	800022c4	00b6ee33	or	x28,x13,x11	 x13:0x0000f989 x11:0x00000001 x28=0x0000f989
       17215000	      1720	800022c8	41aad913	srai	x18,x21,0x1a	 x21:0x80001e8c x18=0xffffffe0
       17225000	      1721	800022cc	00000013	addi	x0,x0,0	  x0:0x00000000
       17235000	      1722	800022d0	9df5d737	lui	x14,0x9df5d	 x14=0x9df5d000
       17245000	      1723	800022d4	00086333	or	x6,x16,x0	 x16:0x72118001  x0:0x00000000  x6=0x72118001
       17255000	      1724	800022d8	013c3a33	sltu	x20,x24,x19	 x24:0x28496000 x19:0x4339b000 x20=0x00000001
       17265000	      1725	800022dc	00d7de13	srli	x28,x15,0xd	 x15:0x000806c9 x28=0x00000040
       17275000	      1726	800022e0	01511863	bne	x2,x21,800022f0	  x2:0x00000001 x21:0x80001e8c
       17285000	      1727	00000000	00000013	addi	x0,x0,0	  x0:0x00000000
       17295000	      1728	800022ec	00000013	addi	x0,x0,0	  x0:0x00000000
       17305000	      1729	800022f0	014afbb3	and	x23,x21,x20	 x21:0x80001e8c x20:0x00000001 x23=0x00000000
       17315000	      1730	800022f4	03607663	bgeu	x0,x22,80002320	  x0:0x00000000 x22:0x00000000
       17325000	      1731	00000000	00000013	addi	x0,x0,0	  x0:0x00000000
       17335000	      1732	8000231c	00000013	addi	x0,x0,0	  x0:0x00000000
       17345000	      1733	80002320	e08ee493	ori	x9,x29,-504	 x29:0x80009fc4  x9=0xffffffcc
       17355000	      1734	80002324	a8b8e793	ori	x15,x17,-1397	 x17:0x0000000c x15=0xfffffa8f
       17365000	      1735	80002328	016ae7b3	or	x15,x21,x22	 x21:0x80001e8c x22:0x00000000 x15=0x80001e8c
       17375000	      1736	8000232c	00000013	addi	x0,x0,0	  x0:0x00000000
       17385000	      1737	80002330	0130e533	or	x10,x1,x19	  x1:0x00000000 x19:0x4339b000 x10=0x4339b000
       17395000	      1738	80002334	0298da63	bge	x17,x9,80002368	 x17:0x0000000c  x9:0xffffffcc
       17405000	      1739	00000000	00000013	addi	x0,x0,0	  x0:0x00000000
       17415000	      1740	80002364	00000013	addi	x0,x0,0	  x0:0x00000000
       17425000	      1741	80002368	6bcd1397	auipc	x7,0x6bcd1	  x7=0xebcd3364
       17435000	      1742	8000236c	03b1f663	bgeu	x3,x27,80002398	  x3:0x80001dec x27:0x80009f08
       17445000	      1743	80002370	00000013	addi	x0,x0,0	  x0:0x00000000
       17455000	      1744	80002374	e19d6f13	ori	x30,x26,-487	 x26:0x00000000 x30=0xfffffe19
       17465000	      1745	80002378	01f35663	bge	x6,x31,80002384	  x6:0x72118001 x31:0x023fd000
       17475000	      1746	00000000	00000013	addi	x0,x0,0	  x0:0x00000000
       17485000	      1747	80002380	00000013	addi	x0,x0,0	  x0:0x00000000
       17495000	      1748	80002384	c5ab7b93	andi	x23,x22,-934	 x22:0x00000000 x23=0x00000000
       17505000	      1749	80002388	01e60e63	beq	x12,x30,800023a4	 x12:0xff801b7f x30:0xfffffe19
       17515000	      1750	8000238c	d0b8bf13	sltiu	x30,x17,-757	 x17:0x0000000c x30=0x00000001
       17525000	      1751	80002390	23aafe17	auipc	x28,0x23aaf	 x28=0xa3ab138c
       17535000	      1752	80002394	b6720c17	auipc	x24,0xb6720	 x24=0x36722390
       17545000	      1753	80002398	41050d33	sub	x26,x10,x16	 x10:0x4339b000 x16:0x72118001 x26=0xd1282fff
       17555000	      1754	8000239c	d0062713	slti	x14,x12,-768	 x12:0xff801b7f x14=0x00000001
       17565000	      1755	800023a0	006206b3	add	x13,x4,x6	  x4:0x00000000  x6:0x72118001 x13=0x72118001
       17575000	      1756	800023a4	06238a63	beq	x7,x2,80002418	  x7:0xebcd3364  x2:0x00000001
       17585000	      1757	800023a8	61b92313	slti	x6,x18,1563	 x18:0xffffffe0  x6=0x00000001
       17595000	      1758	800023ac	00105eb3	srl	x29,x0,x1	  x0:0x00000000  x1:0x00000000 x29=0x00000000
       17605000	      1759	800023b0	054bfc63	bgeu	x23,x20,80002408	 x23:0x00000000 x20:0x00000001
       17615000	      1760	800023b4	012ebe33	sltu	x28,x29,x18	 x29:0x00000000 x18:0xffffffe0 x28=0x00000001
       17625000	      1761	800023b8	297b4817	auipc	x16,0x297b4	 x16=0xa97b63b4
       17635000	      1762	800023bc	00000013	addi	x0,x0,0	  x0:0x00000000
       17645000	      1763	800023c0	ffffe117	auipc	x2,0xffffe	  x2=0x800003bc
       17655000	      1764	800023c4	24c10113	addi	x2,x2,588	  x2:0x800003bc  x2=0x80000608
       17665000	      1765	800023c8	6d4c9c37	lui	x24,0x6d4c9	 x24=0x6d4c9000
       17675000	      1766	800023cc	d6b10113	addi	x2,x2,-661	  x2:0x80000608  x2=0x80000373
       17685000	      1767	800023d0	55fc8d13	addi	x26,x25,1375	 x25:0x80001aa4 x26=0x80002003
       17695000	      1768	800023d4	296100e7	jalr	x1,x2,662	  x2:0x80000373  x1=0x800023d4
       17705000	      1769	00000000	00000013	addi	x0,x0,0	  x0:0x00000000
       17715000	      1770	80000608	00000013	addi	x0,x0,0	  x0:0x00000000
       17725000	      1771	8000060c	006b57b3	srl	x15,x22,x6	 x22:0x00000000  x6:0x00000001 x15=0x00000000
       17735000	      1772	80000610	015c5d13	srli	x26,x24,0x15	 x24:0x6d4c9000 x26=0x0000036a
       17745000	      1773	80000614	00013b33	sltu	x22,x2,x0	  x2:0x80000373  x0:0x00000000 x22=0x00000000
       17755000	      1774	80000618	7861f793	andi	x15,x3,1926	  x3:0x80001dec x15=0x00000584
       17765000	      1775	8000061c	fc4d8d93	addi	x27,x27,-60	 x27:0x80009f08 x27=0x80009ecc
       17775000	      1776	80000620	00000013	addi	x0,x0,0	  x0:0x00000000
       17785000	      1777	80000624	00f51613	slli	x12,x10,0xf	 x10:0x4339b000 x12=0xd8000000
       17795000	      1778	80000628	01805233	srl	x4,x0,x24	  x0:0x00000000 x24:0x6d4c9000  x4=0x00000000
       17805000	      1779	8000062c	40335993	srai	x19,x6,0x3	  x6:0x00000001 x19=0x00000000
       17815000	      1780	80000630	0316ca93	xori	x21,x13,49	 x13:0x72118001 x21=0x72118030
       17825000	      1781	80000634	001da223	sw	x1,4(x27)	 x27:0x80009ecc  x1:0x800023d4 PA:0x80009ed0
       17835000	      1782	80000638	13348d13	addi	x26,x9,307	  x9:0xffffffcc x26=0x000000ff
       17845000	      1783	8000063c	028000ef	jal	x1,8000063c	  x1=0x8000063c
       17855000	      1784	00000000	00000013	addi	x0,x0,0	  x0:0x00000000
       17865000	      1785	80000660	00000013	addi	x0,x0,0	  x0:0x00000000
       17875000	      1786	80000664	034000ef	jal	x1,80000664	  x1=0x80000664
       17885000	      1787	00000000	00000013	addi	x0,x0,0	  x0:0x00000000
       17895000	      1788	80000694	00000013	addi	x0,x0,0	  x0:0x00000000
       17905000	      1789	80000698	fe5ff0ef	jal	x1,80000698	  x1=0x80000698
       17915000	      1790	00000000	00000013	addi	x0,x0,0	  x0:0x00000000
       17925000	      1791	80000678	00000013	addi	x0,x0,0	  x0:0x00000000
       17935000	      1792	8000067c	fcdff0ef	jal	x1,8000067c	  x1=0x8000067c
       17945000	      1793	00000000	00000013	addi	x0,x0,0	  x0:0x00000000
       17955000	      1794	80000644	00000013	addi	x0,x0,0	  x0:0x00000000
       17965000	      1795	80000648	018000ef	jal	x1,80000648	  x1=0x80000648
       17975000	      1796	00000000	00000013	addi	x0,x0,0	  x0:0x00000000
       17985000	      1797	8000065c	00000013	addi	x0,x0,0	  x0:0x00000000
       17995000	      1798	80000660	0300066f	jal	x12,80000660	 x12=0x80000660
       18005000	      1799	00000000	00000013	addi	x0,x0,0	  x0:0x00000000
       18015000	      1800	8000068c	00000013	addi	x0,x0,0	  x0:0x00000000
       18025000	      1801	80000690	fb1ff0ef	jal	x1,80000690	  x1=0x80000690
       18035000	      1802	00000000	00000013	addi	x0,x0,0	  x0:0x00000000
       18045000	      1803	8000063c	00000013	addi	x0,x0,0	  x0:0x00000000
       18055000	      1804	80000640	038000ef	jal	x1,80000640	  x1=0x80000640
       18065000	      1805	00000000	00000013	addi	x0,x0,0	  x0:0x00000000
       18075000	      1806	80000674	00000013	addi	x0,x0,0	  x0:0x00000000
       18085000	      1807	80000678	00c000ef	jal	x1,80000678	  x1=0x80000678
       18095000	      1808	00000000	00000013	addi	x0,x0,0	  x0:0x00000000
       18105000	      1809	80000680	00000013	addi	x0,x0,0	  x0:0x00000000
       18115000	      1810	80000684	008003ef	jal	x7,80000684	  x7=0x80000684
       18125000	      1811	00000000	00000013	addi	x0,x0,0	  x0:0x00000000
       18135000	      1812	80000688	00000013	addi	x0,x0,0	  x0:0x00000000
       18145000	      1813	8000068c	ff5ff0ef	jal	x1,8000068c	  x1=0x8000068c
       18155000	      1814	00000000	00000013	addi	x0,x0,0	  x0:0x00000000
       18165000	      1815	8000067c	00000013	addi	x0,x0,0	  x0:0x00000000
       18175000	      1816	80000680	fddff0ef	jal	x1,80000680	  x1=0x80000680
       18185000	      1817	00000000	00000013	addi	x0,x0,0	  x0:0x00000000
       18195000	      1818	80000658	00000013	addi	x0,x0,0	  x0:0x00000000
       18205000	      1819	8000065c	ffdffb6f	jal	x22,8000065c	 x22=0x8000065c
       18215000	      1820	00000000	00000013	addi	x0,x0,0	  x0:0x00000000
       18225000	      1821	80000654	00000013	addi	x0,x0,0	  x0:0x00000000
       18235000	      1822	80000658	01c000ef	jal	x1,80000658	  x1=0x80000658
       18245000	      1823	00000000	00000013	addi	x0,x0,0	  x0:0x00000000
       18255000	      1824	80000670	00000013	addi	x0,x0,0	  x0:0x00000000
       18265000	      1825	80000674	02000bef	jal	x23,80000674	 x23=0x80000674
       18275000	      1826	00000000	00000013	addi	x0,x0,0	  x0:0x00000000
       18285000	      1827	80000690	00000013	addi	x0,x0,0	  x0:0x00000000
       18295000	      1828	80000694	fc1ff36f	jal	x6,80000694	  x6=0x80000694
       18305000	      1829	00000000	00000013	addi	x0,x0,0	  x0:0x00000000
       18315000	      1830	80000650	00000013	addi	x0,x0,0	  x0:0x00000000
       18325000	      1831	80000654	ffdff26f	jal	x4,80000654	  x4=0x80000654
       18335000	      1832	00000000	00000013	addi	x0,x0,0	  x0:0x00000000
       18345000	      1833	8000064c	00000013	addi	x0,x0,0	  x0:0x00000000
       18355000	      1834	80000650	018001ef	jal	x3,80000650	  x3=0x80000650
       18365000	      1835	00000000	00000013	addi	x0,x0,0	  x0:0x00000000
       18375000	      1836	80000664	00000013	addi	x0,x0,0	  x0:0x00000000
       18385000	      1837	80000668	fddff36f	jal	x6,80000668	  x6=0x80000668
       18395000	      1838	00000000	00000013	addi	x0,x0,0	  x0:0x00000000
       18405000	      1839	80000640	00000013	addi	x0,x0,0	  x0:0x00000000
       18415000	      1840	80000644	008000ef	jal	x1,80000644	  x1=0x80000644
       18425000	      1841	00000000	00000013	addi	x0,x0,0	  x0:0x00000000
       18435000	      1842	80000648	00000013	addi	x0,x0,0	  x0:0x00000000
       18445000	      1843	8000064c	03c0096f	jal	x18,8000064c	 x18=0x8000064c
       18455000	      1844	00000000	00000013	addi	x0,x0,0	  x0:0x00000000
       18465000	      1845	80000684	00000013	addi	x0,x0,0	  x0:0x00000000
       18475000	      1846	80000688	fe5ffb6f	jal	x22,80000688	 x22=0x80000688
       18485000	      1847	00000000	00000013	addi	x0,x0,0	  x0:0x00000000
       18495000	      1848	80000668	00000013	addi	x0,x0,0	  x0:0x00000000
       18505000	      1849	8000066c	0040066f	jal	x12,8000066c	 x12=0x8000066c
       18515000	      1850	00000000	00000013	addi	x0,x0,0	  x0:0x00000000
       18525000	      1851	8000066c	00000013	addi	x0,x0,0	  x0:0x00000000
       18535000	      1852	80000670	02c000ef	jal	x1,80000670	  x1=0x80000670
       18545000	      1853	00000000	00000013	addi	x0,x0,0	  x0:0x00000000
       18555000	      1854	80000698	00000013	addi	x0,x0,0	  x0:0x00000000
       18565000	      1855	8000069c	00653533	sltu	x10,x10,x6	 x10:0x4339b000  x6:0x80000668 x10=0x00000001
       18575000	      1856	800006a0	024000ef	jal	x1,800006a0	  x1=0x800006a0
       18585000	      1857	00000000	00000013	addi	x0,x0,0	  x0:0x00000000
       18595000	      1858	800006c0	00000013	addi	x0,x0,0	  x0:0x00000000
       18605000	      1859	800006c4	014005ef	jal	x11,800006c4	 x11=0x800006c4
       18615000	      1860	00000000	00000013	addi	x0,x0,0	  x0:0x00000000
       18625000	      1861	800006d4	00000013	addi	x0,x0,0	  x0:0x00000000
       18635000	      1862	800006d8	ff1ff0ef	jal	x1,800006d8	  x1=0x800006d8
       18645000	      1863	00000000	00000013	addi	x0,x0,0	  x0:0x00000000
       18655000	      1864	800006c4	00000013	addi	x0,x0,0	  x0:0x00000000
       18665000	      1865	800006c8	fe5ff36f	jal	x6,800006c8	  x6=0x800006c8
       18675000	      1866	00000000	00000013	addi	x0,x0,0	  x0:0x00000000
       18685000	      1867	800006a8	00000013	addi	x0,x0,0	  x0:0x00000000
       18695000	      1868	800006ac	0240036f	jal	x6,800006ac	  x6=0x800006ac
       18705000	      1869	00000000	00000013	addi	x0,x0,0	  x0:0x00000000
       18715000	      1870	800006cc	00000013	addi	x0,x0,0	  x0:0x00000000
       18725000	      1871	800006d0	fedff2ef	jal	x5,800006d0	  x5=0x800006d0
       18735000	      1872	00000000	00000013	addi	x0,x0,0	  x0:0x00000000
       18745000	      1873	800006b8	00000013	addi	x0,x0,0	  x0:0x00000000
       18755000	      1874	800006bc	ffdff0ef	jal	x1,800006bc	  x1=0x800006bc
       18765000	      1875	00000000	00000013	addi	x0,x0,0	  x0:0x00000000
       18775000	      1876	800006b4	00000013	addi	x0,x0,0	  x0:0x00000000
       18785000	      1877	800006b8	028000ef	jal	x1,800006b8	  x1=0x800006b8
       18795000	      1878	00000000	00000013	addi	x0,x0,0	  x0:0x00000000
       18805000	      1879	800006dc	00000013	addi	x0,x0,0	  x0:0x00000000
       18815000	      1880	800006e0	fc9ff0ef	jal	x1,800006e0	  x1=0x800006e0
       18825000	      1881	00000000	00000013	addi	x0,x0,0	  x0:0x00000000
       18835000	      1882	800006a4	00000013	addi	x0,x0,0	  x0:0x00000000
       18845000	      1883	800006a8	02c004ef	jal	x9,800006a8	  x9=0x800006a8
       18855000	      1884	00000000	00000013	addi	x0,x0,0	  x0:0x00000000
       18865000	      1885	800006d0	00000013	addi	x0,x0,0	  x0:0x00000000
       18875000	      1886	800006d4	fedff36f	jal	x6,800006d4	  x6=0x800006d4
       18885000	      1887	00000000	00000013	addi	x0,x0,0	  x0:0x00000000
       18895000	      1888	800006bc	00000013	addi	x0,x0,0	  x0:0x00000000
       18905000	      1889	800006c0	024000ef	jal	x1,800006c0	  x1=0x800006c0
       18915000	      1890	00000000	00000013	addi	x0,x0,0	  x0:0x00000000
       18925000	      1891	800006e0	00000013	addi	x0,x0,0	  x0:0x00000000
       18935000	      1892	800006e4	ff9ff0ef	jal	x1,800006e4	  x1=0x800006e4
       18945000	      1893	00000000	00000013	addi	x0,x0,0	  x0:0x00000000
       18955000	      1894	800006d8	00000013	addi	x0,x0,0	  x0:0x00000000
       18965000	      1895	800006dc	ff1ff3ef	jal	x7,800006dc	  x7=0x800006dc
       18975000	      1896	00000000	00000013	addi	x0,x0,0	  x0:0x00000000
       18985000	      1897	800006c8	00000013	addi	x0,x0,0	  x0:0x00000000
       18995000	      1898	800006cc	fe9ff96f	jal	x18,800006cc	 x18=0x800006cc
       19005000	      1899	00000000	00000013	addi	x0,x0,0	  x0:0x00000000
       19015000	      1900	800006b0	00000013	addi	x0,x0,0	  x0:0x00000000
       19025000	      1901	800006b4	ffdff56f	jal	x10,800006b4	 x10=0x800006b4
       19035000	      1902	00000000	00000013	addi	x0,x0,0	  x0:0x00000000
       19045000	      1903	800006ac	00000013	addi	x0,x0,0	  x0:0x00000000
       19055000	      1904	800006b0	ff5ff0ef	jal	x1,800006b0	  x1=0x800006b0
       19065000	      1905	00000000	00000013	addi	x0,x0,0	  x0:0x00000000
       19075000	      1906	800006a0	00000013	addi	x0,x0,0	  x0:0x00000000
       19085000	      1907	800006a4	044000ef	jal	x1,800006a4	  x1=0x800006a4
       19095000	      1908	00000000	00000013	addi	x0,x0,0	  x0:0x00000000
       19105000	      1909	800006e4	00000013	addi	x0,x0,0	  x0:0x00000000
       19115000	      1910	800006e8	01bad913	srli	x18,x21,0x1b	 x21:0x72118030 x18=0x0000000e
       19125000	      1911	800006ec	054000ef	jal	x1,800006ec	  x1=0x800006ec
       19135000	      1912	00000000	00000013	addi	x0,x0,0	  x0:0x00000000
       19145000	      1913	8000073c	00000013	addi	x0,x0,0	  x0:0x00000000
       19155000	      1914	80000740	fd9ff36f	jal	x6,80000740	  x6=0x80000740
       19165000	      1915	00000000	00000013	addi	x0,x0,0	  x0:0x00000000
       19175000	      1916	80000714	00000013	addi	x0,x0,0	  x0:0x00000000
       19185000	      1917	80000718	01c0036f	jal	x6,80000718	  x6=0x80000718
       19195000	      1918	00000000	00000013	addi	x0,x0,0	  x0:0x00000000
       19205000	      1919	80000730	00000013	addi	x0,x0,0	  x0:0x00000000
       19215000	      1920	80000734	004000ef	jal	x1,80000734	  x1=0x80000734
       19225000	      1921	00000000	00000013	addi	x0,x0,0	  x0:0x00000000
       19235000	      1922	80000734	00000013	addi	x0,x0,0	  x0:0x00000000
       19245000	      1923	80000738	fe5ff0ef	jal	x1,80000738	  x1=0x80000738
       19255000	      1924	00000000	00000013	addi	x0,x0,0	  x0:0x00000000
       19265000	      1925	80000718	00000013	addi	x0,x0,0	  x0:0x00000000
       19275000	      1926	8000071c	ff9ff36f	jal	x6,8000071c	  x6=0x8000071c
       19285000	      1927	00000000	00000013	addi	x0,x0,0	  x0:0x00000000
       19295000	      1928	80000710	00000013	addi	x0,x0,0	  x0:0x00000000
       19305000	      1929	80000714	ffdff0ef	jal	x1,80000714	  x1=0x80000714
       19315000	      1930	00000000	00000013	addi	x0,x0,0	  x0:0x00000000
       19325000	      1931	8000070c	00000013	addi	x0,x0,0	  x0:0x00000000
       19335000	      1932	80000710	ff1ff0ef	jal	x1,80000710	  x1=0x80000710
       19345000	      1933	00000000	00000013	addi	x0,x0,0	  x0:0x00000000
       19355000	      1934	800006fc	00000013	addi	x0,x0,0	  x0:0x00000000
       19365000	      1935	80000700	ff9ff0ef	jal	x1,80000700	  x1=0x80000700
       19375000	      1936	00000000	00000013	addi	x0,x0,0	  x0:0x00000000
       19385000	      1937	800006f4	00000013	addi	x0,x0,0	  x0:0x00000000
       19395000	      1938	800006f8	0340036f	jal	x6,800006f8	  x6=0x800006f8
       19405000	      1939	00000000	00000013	addi	x0,x0,0	  x0:0x00000000
       19415000	      1940	80000728	00000013	addi	x0,x0,0	  x0:0x00000000
       19425000	      1941	8000072c	fddff3ef	jal	x7,8000072c	  x7=0x8000072c
       19435000	      1942	00000000	00000013	addi	x0,x0,0	  x0:0x00000000
       19445000	      1943	80000704	00000013	addi	x0,x0,0	  x0:0x00000000
       19455000	      1944	80000708	0040036f	jal	x6,80000708	  x6=0x80000708
       19465000	      1945	00000000	00000013	addi	x0,x0,0	  x0:0x00000000
       19475000	      1946	80000708	00000013	addi	x0,x0,0	  x0:0x00000000
       19485000	      1947	8000070c	ff1ff9ef	jal	x19,8000070c	 x19=0x8000070c
       19495000	      1948	00000000	00000013	addi	x0,x0,0	  x0:0x00000000
       19505000	      1949	800006f8	00000013	addi	x0,x0,0	  x0:0x00000000
       19515000	      1950	800006fc	ff5ff0ef	jal	x1,800006fc	  x1=0x800006fc
       19525000	      1951	00000000	00000013	addi	x0,x0,0	  x0:0x00000000
       19535000	      1952	800006ec	00000013	addi	x0,x0,0	  x0:0x00000000
       19545000	      1953	800006f0	04c000ef	jal	x1,800006f0	  x1=0x800006f0
       19555000	      1954	00000000	00000013	addi	x0,x0,0	  x0:0x00000000
       19565000	      1955	80000738	00000013	addi	x0,x0,0	  x0:0x00000000
       19575000	      1956	8000073c	ff5ff7ef	jal	x15,8000073c	 x15=0x8000073c
       19585000	      1957	00000000	00000013	addi	x0,x0,0	  x0:0x00000000
       19595000	      1958	8000072c	00000013	addi	x0,x0,0	  x0:0x00000000
       19605000	      1959	80000730	fc5ff0ef	jal	x1,80000730	  x1=0x80000730
       19615000	      1960	00000000	00000013	addi	x0,x0,0	  x0:0x00000000
       19625000	      1961	800006f0	00000013	addi	x0,x0,0	  x0:0x00000000
       19635000	      1962	800006f4	050002ef	jal	x5,800006f4	  x5=0x800006f4
       19645000	      1963	00000000	00000013	addi	x0,x0,0	  x0:0x00000000
       19655000	      1964	80000740	00000013	addi	x0,x0,0	  x0:0x00000000
       19665000	      1965	80000744	fe5ff0ef	jal	x1,80000744	  x1=0x80000744
       19675000	      1966	00000000	00000013	addi	x0,x0,0	  x0:0x00000000
       19685000	      1967	80000724	00000013	addi	x0,x0,0	  x0:0x00000000
       19695000	      1968	80000728	fddff5ef	jal	x11,80000728	 x11=0x80000728
       19705000	      1969	00000000	00000013	addi	x0,x0,0	  x0:0x00000000
       19715000	      1970	80000700	00000013	addi	x0,x0,0	  x0:0x00000000
       19725000	      1971	80000704	044003ef	jal	x7,80000704	  x7=0x80000704
       19735000	      1972	00000000	00000013	addi	x0,x0,0	  x0:0x00000000
       19745000	      1973	80000744	00000013	addi	x0,x0,0	  x0:0x00000000
       19755000	      1974	80000748	fd9ff0ef	jal	x1,80000748	  x1=0x80000748
       19765000	      1975	00000000	00000013	addi	x0,x0,0	  x0:0x00000000
       19775000	      1976	8000071c	00000013	addi	x0,x0,0	  x0:0x00000000
       19785000	      1977	80000720	004002ef	jal	x5,80000720	  x5=0x80000720
       19795000	      1978	00000000	00000013	addi	x0,x0,0	  x0:0x00000000
       19805000	      1979	80000720	00000013	addi	x0,x0,0	  x0:0x00000000
       19815000	      1980	80000724	028002ef	jal	x5,80000724	  x5=0x80000724
       19825000	      1981	00000000	00000013	addi	x0,x0,0	  x0:0x00000000
       19835000	      1982	80000748	00000013	addi	x0,x0,0	  x0:0x00000000
       19845000	      1983	8000074c	019ecb33	xor	x22,x29,x25	 x29:0x00000000 x25:0x80001aa4 x22=0x80001aa4
       19855000	      1984	80000750	040000ef	jal	x1,80000750	  x1=0x80000750
       19865000	      1985	00000000	00000013	addi	x0,x0,0	  x0:0x00000000
       19875000	      1986	8000078c	00000013	addi	x0,x0,0	  x0:0x00000000
       19885000	      1987	80000790	ff9fff6f	jal	x30,80000790	 x30=0x80000790
       19895000	      1988	00000000	00000013	addi	x0,x0,0	  x0:0x00000000
       19905000	      1989	80000784	00000013	addi	x0,x0,0	  x0:0x00000000
       19915000	      1990	80000788	fedff36f	jal	x6,80000788	  x6=0x80000788
       19925000	      1991	00000000	00000013	addi	x0,x0,0	  x0:0x00000000
       19935000	      1992	80000770	00000013	addi	x0,x0,0	  x0:0x00000000
       19945000	      1993	80000774	020000ef	jal	x1,80000774	  x1=0x80000774
       19955000	      1994	00000000	00000013	addi	x0,x0,0	  x0:0x00000000
       19965000	      1995	80000790	00000013	addi	x0,x0,0	  x0:0x00000000
       19975000	      1996	80000794	fe5ff36f	jal	x6,80000794	  x6=0x80000794
       19985000	      1997	00000000	00000013	addi	x0,x0,0	  x0:0x00000000
       19995000	      1998	80000774	00000013	addi	x0,x0,0	  x0:0x00000000
       20005000	      1999	80000778	fddffcef	jal	x25,80000778	 x25=0x80000778
       20015000	      2000	00000000	00000013	addi	x0,x0,0	  x0:0x00000000
       20025000	      2001	80000750	00000013	addi	x0,x0,0	  x0:0x00000000
       20035000	      2002	80000754	0480036f	jal	x6,80000754	  x6=0x80000754
       20045000	      2003	00000000	00000013	addi	x0,x0,0	  x0:0x00000000
       20055000	      2004	80000798	00000013	addi	x0,x0,0	  x0:0x00000000
       20065000	      2005	8000079c	ffdffe6f	jal	x28,8000079c	 x28=0x8000079c
       20075000	      2006	00000000	00000013	addi	x0,x0,0	  x0:0x00000000
       20085000	      2007	80000794	00000013	addi	x0,x0,0	  x0:0x00000000
       20095000	      2008	80000798	fd9ff36f	jal	x6,80000798	  x6=0x80000798
       20105000	      2009	00000000	00000013	addi	x0,x0,0	  x0:0x00000000
       20115000	      2010	8000076c	00000013	addi	x0,x0,0	  x0:0x00000000
       20125000	      2011	80000770	01c007ef	jal	x15,80000770	 x15=0x80000770
       20135000	      2012	00000000	00000013	addi	x0,x0,0	  x0:0x00000000
       20145000	      2013	80000788	00000013	addi	x0,x0,0	  x0:0x00000000
       20155000	      2014	8000078c	fddff0ef	jal	x1,8000078c	  x1=0x8000078c
       20165000	      2015	00000000	00000013	addi	x0,x0,0	  x0:0x00000000
       20175000	      2016	80000764	00000013	addi	x0,x0,0	  x0:0x00000000
       20185000	      2017	80000768	ff9ff0ef	jal	x1,80000768	  x1=0x80000768
       20195000	      2018	00000000	00000013	addi	x0,x0,0	  x0:0x00000000
       20205000	      2019	8000075c	00000013	addi	x0,x0,0	  x0:0x00000000
       20215000	      2020	80000760	040000ef	jal	x1,80000760	  x1=0x80000760
       20225000	      2021	00000000	00000013	addi	x0,x0,0	  x0:0x00000000
       20235000	      2022	8000079c	00000013	addi	x0,x0,0	  x0:0x00000000
       20245000	      2023	800007a0	fb9ffe6f	jal	x28,800007a0	 x28=0x800007a0
       20255000	      2024	00000000	00000013	addi	x0,x0,0	  x0:0x00000000
       20265000	      2025	80000754	00000013	addi	x0,x0,0	  x0:0x00000000
       20275000	      2026	80000758	00c000ef	jal	x1,80000758	  x1=0x80000758
       20285000	      2027	00000000	00000013	addi	x0,x0,0	  x0:0x00000000
       20295000	      2028	80000760	00000013	addi	x0,x0,0	  x0:0x00000000
       20305000	      2029	80000764	060000ef	jal	x1,80000764	  x1=0x80000764
       20315000	      2030	00000000	00000013	addi	x0,x0,0	  x0:0x00000000
       20325000	      2031	800007c0	00000013	addi	x0,x0,0	  x0:0x00000000
       20335000	      2032	800007c4	ff1ff36f	jal	x6,800007c4	  x6=0x800007c4
       20345000	      2033	00000000	00000013	addi	x0,x0,0	  x0:0x00000000
       20355000	      2034	800007b0	00000013	addi	x0,x0,0	  x0:0x00000000
       20365000	      2035	800007b4	fc9ff0ef	jal	x1,800007b4	  x1=0x800007b4
       20375000	      2036	00000000	00000013	addi	x0,x0,0	  x0:0x00000000
       20385000	      2037	80000778	00000013	addi	x0,x0,0	  x0:0x00000000
       20395000	      2038	8000077c	0400036f	jal	x6,8000077c	  x6=0x8000077c
       20405000	      2039	00000000	00000013	addi	x0,x0,0	  x0:0x00000000
       20415000	      2040	800007b8	00000013	addi	x0,x0,0	  x0:0x00000000
       20425000	      2041	800007bc	ff1ff0ef	jal	x1,800007bc	  x1=0x800007bc
       20435000	      2042	00000000	00000013	addi	x0,x0,0	  x0:0x00000000
       20445000	      2043	800007a8	00000013	addi	x0,x0,0	  x0:0x00000000
       20455000	      2044	800007ac	fd5ff0ef	jal	x1,800007ac	  x1=0x800007ac
       20465000	      2045	00000000	00000013	addi	x0,x0,0	  x0:0x00000000
       20475000	      2046	8000077c	00000013	addi	x0,x0,0	  x0:0x00000000
       20485000	      2047	80000780	038009ef	jal	x19,80000780	 x19=0x80000780
       20495000	      2048	00000000	00000013	addi	x0,x0,0	  x0:0x00000000
       20505000	      2049	800007b4	00000013	addi	x0,x0,0	  x0:0x00000000
       20515000	      2050	800007b8	00800aef	jal	x21,800007b8	 x21=0x800007b8
       20525000	      2051	00000000	00000013	addi	x0,x0,0	  x0:0x00000000
       20535000	      2052	800007bc	00000013	addi	x0,x0,0	  x0:0x00000000
       20545000	      2053	800007c0	fadff36f	jal	x6,800007c0	  x6=0x800007c0
       20555000	      2054	00000000	00000013	addi	x0,x0,0	  x0:0x00000000
       20565000	      2055	80000768	00000013	addi	x0,x0,0	  x0:0x00000000
       20575000	      2056	8000076c	0440016f	jal	x2,8000076c	  x2=0x8000076c
       20585000	      2057	00000000	00000013	addi	x0,x0,0	  x0:0x00000000
       20595000	      2058	800007ac	00000013	addi	x0,x0,0	  x0:0x00000000
       20605000	      2059	800007b0	fadff0ef	jal	x1,800007b0	  x1=0x800007b0
       20615000	      2060	00000000	00000013	addi	x0,x0,0	  x0:0x00000000
       20625000	      2061	80000758	00000013	addi	x0,x0,0	  x0:0x00000000
       20635000	      2062	8000075c	0480036f	jal	x6,8000075c	  x6=0x8000075c
       20645000	      2063	00000000	00000013	addi	x0,x0,0	  x0:0x00000000
       20655000	      2064	800007a0	00000013	addi	x0,x0,0	  x0:0x00000000
       20665000	      2065	800007a4	fe1ff16f	jal	x2,800007a4	  x2=0x800007a4
       20675000	      2066	00000000	00000013	addi	x0,x0,0	  x0:0x00000000
       20685000	      2067	80000780	00000013	addi	x0,x0,0	  x0:0x00000000
       20695000	      2068	80000784	0240066f	jal	x12,80000784	 x12=0x80000784
       20705000	      2069	00000000	00000013	addi	x0,x0,0	  x0:0x00000000
       20715000	      2070	800007a4	00000013	addi	x0,x0,0	  x0:0x00000000
       20725000	      2071	800007a8	0200036f	jal	x6,800007a8	  x6=0x800007a8
       20735000	      2072	00000000	00000013	addi	x0,x0,0	  x0:0x00000000
       20745000	      2073	800007c4	00000013	addi	x0,x0,0	  x0:0x00000000
       20755000	      2074	800007c8	f2ffca13	xori	x20,x31,-209	 x31:0x023fd000 x20=0xfdc02f2f
       20765000	      2075	800007cc	02c000ef	jal	x1,800007cc	  x1=0x800007cc
       20775000	      2076	00000000	00000013	addi	x0,x0,0	  x0:0x00000000
       20785000	      2077	800007f4	00000013	addi	x0,x0,0	  x0:0x00000000
       20795000	      2078	800007f8	fe9ffb6f	jal	x22,800007f8	 x22=0x800007f8
       20805000	      2079	00000000	00000013	addi	x0,x0,0	  x0:0x00000000
       20815000	      2080	800007dc	00000013	addi	x0,x0,0	  x0:0x00000000
       20825000	      2081	800007e0	034003ef	jal	x7,800007e0	  x7=0x800007e0
       20835000	      2082	00000000	00000013	addi	x0,x0,0	  x0:0x00000000
       20845000	      2083	80000810	00000013	addi	x0,x0,0	  x0:0x00000000
       20855000	      2084	80000814	fd9ff26f	jal	x4,80000814	  x4=0x80000814
       20865000	      2085	00000000	00000013	addi	x0,x0,0	  x0:0x00000000
       20875000	      2086	800007e8	00000013	addi	x0,x0,0	  x0:0x00000000
       20885000	      2087	800007ec	ffdff5ef	jal	x11,800007ec	 x11=0x800007ec
       20895000	      2088	00000000	00000013	addi	x0,x0,0	  x0:0x00000000
       20905000	      2089	800007e4	00000013	addi	x0,x0,0	  x0:0x00000000
       20915000	      2090	800007e8	030000ef	jal	x1,800007e8	  x1=0x800007e8
       20925000	      2091	00000000	00000013	addi	x0,x0,0	  x0:0x00000000
       20935000	      2092	80000814	00000013	addi	x0,x0,0	  x0:0x00000000
       20945000	      2093	80000818	fcdff0ef	jal	x1,80000818	  x1=0x80000818
       20955000	      2094	00000000	00000013	addi	x0,x0,0	  x0:0x00000000
       20965000	      2095	800007e0	00000013	addi	x0,x0,0	  x0:0x00000000
       20975000	      2096	800007e4	018000ef	jal	x1,800007e4	  x1=0x800007e4
       20985000	      2097	00000000	00000013	addi	x0,x0,0	  x0:0x00000000
       20995000	      2098	800007f8	00000013	addi	x0,x0,0	  x0:0x00000000
       21005000	      2099	800007fc	fd5ff36f	jal	x6,800007fc	  x6=0x800007fc
       21015000	      2100	00000000	00000013	addi	x0,x0,0	  x0:0x00000000
       21025000	      2101	800007cc	00000013	addi	x0,x0,0	  x0:0x00000000
       21035000	      2102	800007d0	038000ef	jal	x1,800007d0	  x1=0x800007d0
       21045000	      2103	00000000	00000013	addi	x0,x0,0	  x0:0x00000000
       21055000	      2104	80000804	00000013	addi	x0,x0,0	  x0:0x00000000
       21065000	      2105	80000808	014000ef	jal	x1,80000808	  x1=0x80000808
       21075000	      2106	00000000	00000013	addi	x0,x0,0	  x0:0x00000000
       21085000	      2107	80000818	00000013	addi	x0,x0,0	  x0:0x00000000
       21095000	      2108	8000081c	fc1ff1ef	jal	x3,8000081c	  x3=0x8000081c
       21105000	      2109	00000000	00000013	addi	x0,x0,0	  x0:0x00000000
       21115000	      2110	800007d8	00000013	addi	x0,x0,0	  x0:0x00000000
       21125000	      2111	800007dc	ff9ff0ef	jal	x1,800007dc	  x1=0x800007dc
       21135000	      2112	00000000	00000013	addi	x0,x0,0	  x0:0x00000000
       21145000	      2113	800007d0	00000013	addi	x0,x0,0	  x0:0x00000000
       21155000	      2114	800007d4	01c0036f	jal	x6,800007d4	  x6=0x800007d4
       21165000	      2115	00000000	00000013	addi	x0,x0,0	  x0:0x00000000
       21175000	      2116	800007ec	00000013	addi	x0,x0,0	  x0:0x00000000
       21185000	      2117	800007f0	010000ef	jal	x1,800007f0	  x1=0x800007f0
       21195000	      2118	00000000	00000013	addi	x0,x0,0	  x0:0x00000000
       21205000	      2119	800007fc	00000013	addi	x0,x0,0	  x0:0x00000000
       21215000	      2120	80000800	004000ef	jal	x1,80000800	  x1=0x80000800
       21225000	      2121	00000000	00000013	addi	x0,x0,0	  x0:0x00000000
       21235000	      2122	80000800	00000013	addi	x0,x0,0	  x0:0x00000000
       21245000	      2123	80000804	fd5ff0ef	jal	x1,80000804	  x1=0x80000804
       21255000	      2124	00000000	00000013	addi	x0,x0,0	  x0:0x00000000
       21265000	      2125	800007d4	00000013	addi	x0,x0,0	  x0:0x00000000
       21275000	      2126	800007d8	01c000ef	jal	x1,800007d8	  x1=0x800007d8
       21285000	      2127	00000000	00000013	addi	x0,x0,0	  x0:0x00000000
       21295000	      2128	800007f0	00000013	addi	x0,x0,0	  x0:0x00000000
       21305000	      2129	800007f4	01c000ef	jal	x1,800007f4	  x1=0x800007f4
       21315000	      2130	00000000	00000013	addi	x0,x0,0	  x0:0x00000000
       21325000	      2131	8000080c	00000013	addi	x0,x0,0	  x0:0x00000000
       21335000	      2132	80000810	ffdff16f	jal	x2,80000810	  x2=0x80000810
       21345000	      2133	00000000	00000013	addi	x0,x0,0	  x0:0x00000000
       21355000	      2134	80000808	00000013	addi	x0,x0,0	  x0:0x00000000
       21365000	      2135	8000080c	014000ef	jal	x1,8000080c	  x1=0x8000080c
       21375000	      2136	00000000	00000013	addi	x0,x0,0	  x0:0x00000000
       21385000	      2137	8000081c	00000013	addi	x0,x0,0	  x0:0x00000000
       21395000	      2138	80000820	004000ef	jal	x1,80000820	  x1=0x80000820
       21405000	      2139	00000000	00000013	addi	x0,x0,0	  x0:0x00000000
       21415000	      2140	80000820	00000013	addi	x0,x0,0	  x0:0x00000000
       21425000	      2141	80000824	00bb4733	xor	x14,x22,x11	 x22:0x800007f8 x11:0x800007ec x14=0x00000014
       21435000	      2142	80000828	048000ef	jal	x1,80000828	  x1=0x80000828
       21445000	      2143	00000000	00000013	addi	x0,x0,0	  x0:0x00000000
       21455000	      2144	8000086c	00000013	addi	x0,x0,0	  x0:0x00000000
       21465000	      2145	80000870	fe1ff0ef	jal	x1,80000870	  x1=0x80000870
       21475000	      2146	00000000	00000013	addi	x0,x0,0	  x0:0x00000000
       21485000	      2147	8000084c	00000013	addi	x0,x0,0	  x0:0x00000000
       21495000	      2148	80000850	fddff36f	jal	x6,80000850	  x6=0x80000850
       21505000	      2149	00000000	00000013	addi	x0,x0,0	  x0:0x00000000
       21515000	      2150	80000828	00000013	addi	x0,x0,0	  x0:0x00000000
       21525000	      2151	8000082c	0040036f	jal	x6,8000082c	  x6=0x8000082c
       21535000	      2152	00000000	00000013	addi	x0,x0,0	  x0:0x00000000
       21545000	      2153	8000082c	00000013	addi	x0,x0,0	  x0:0x00000000
       21555000	      2154	80000830	0240036f	jal	x6,80000830	  x6=0x80000830
       21565000	      2155	00000000	00000013	addi	x0,x0,0	  x0:0x00000000
       21575000	      2156	80000850	00000013	addi	x0,x0,0	  x0:0x00000000
       21585000	      2157	80000854	ff1ff36f	jal	x6,80000854	  x6=0x80000854
       21595000	      2158	00000000	00000013	addi	x0,x0,0	  x0:0x00000000
       21605000	      2159	80000840	00000013	addi	x0,x0,0	  x0:0x00000000
       21615000	      2160	80000844	ff1ff16f	jal	x2,80000844	  x2=0x80000844
       21625000	      2161	00000000	00000013	addi	x0,x0,0	  x0:0x00000000
       21635000	      2162	80000830	00000013	addi	x0,x0,0	  x0:0x00000000
       21645000	      2163	80000834	02c000ef	jal	x1,80000834	  x1=0x80000834
       21655000	      2164	00000000	00000013	addi	x0,x0,0	  x0:0x00000000
       21665000	      2165	8000085c	00000013	addi	x0,x0,0	  x0:0x00000000
       21675000	      2166	80000860	004003ef	jal	x7,80000860	  x7=0x80000860
       21685000	      2167	00000000	00000013	addi	x0,x0,0	  x0:0x00000000
       21695000	      2168	80000860	00000013	addi	x0,x0,0	  x0:0x00000000
       21705000	      2169	80000864	ff9ff0ef	jal	x1,80000864	  x1=0x80000864
       21715000	      2170	00000000	00000013	addi	x0,x0,0	  x0:0x00000000
       21725000	      2171	80000858	00000013	addi	x0,x0,0	  x0:0x00000000
       21735000	      2172	8000085c	fe1ffcef	jal	x25,8000085c	 x25=0x8000085c
       21745000	      2173	00000000	00000013	addi	x0,x0,0	  x0:0x00000000
       21755000	      2174	80000838	00000013	addi	x0,x0,0	  x0:0x00000000
       21765000	      2175	8000083c	02c0086f	jal	x16,8000083c	 x16=0x8000083c
       21775000	      2176	00000000	00000013	addi	x0,x0,0	  x0:0x00000000
       21785000	      2177	80000864	00000013	addi	x0,x0,0	  x0:0x00000000
       21795000	      2178	80000868	fd9ff36f	jal	x6,80000868	  x6=0x80000868
       21805000	      2179	00000000	00000013	addi	x0,x0,0	  x0:0x00000000
       21815000	      2180	8000083c	00000013	addi	x0,x0,0	  x0:0x00000000
       21825000	      2181	80000840	02c0056f	jal	x10,80000840	 x10=0x80000840
       21835000	      2182	00000000	00000013	addi	x0,x0,0	  x0:0x00000000
       21845000	      2183	80000868	00000013	addi	x0,x0,0	  x0:0x00000000
       21855000	      2184	8000086c	fddff0ef	jal	x1,8000086c	  x1=0x8000086c
       21865000	      2185	00000000	00000013	addi	x0,x0,0	  x0:0x00000000
       21875000	      2186	80000844	00000013	addi	x0,x0,0	  x0:0x00000000
       21885000	      2187	80000848	010003ef	jal	x7,80000848	  x7=0x80000848
       21895000	      2188	00000000	00000013	addi	x0,x0,0	  x0:0x00000000
       21905000	      2189	80000854	00000013	addi	x0,x0,0	  x0:0x00000000
       21915000	      2190	80000858	fe1ff0ef	jal	x1,80000858	  x1=0x80000858
       21925000	      2191	00000000	00000013	addi	x0,x0,0	  x0:0x00000000
       21935000	      2192	80000834	00000013	addi	x0,x0,0	  x0:0x00000000
       21945000	      2193	80000838	0140096f	jal	x18,80000838	 x18=0x80000838
       21955000	      2194	00000000	00000013	addi	x0,x0,0	  x0:0x00000000
       21965000	      2195	80000848	00000013	addi	x0,x0,0	  x0:0x00000000
       21975000	      2196	8000084c	028000ef	jal	x1,8000084c	  x1=0x8000084c
       21985000	      2197	00000000	00000013	addi	x0,x0,0	  x0:0x00000000
       21995000	      2198	80000870	00000013	addi	x0,x0,0	  x0:0x00000000
       22005000	      2199	80000874	ff3df6b7	lui	x13,0xff3df	 x13=0xff3df000
       22015000	      2200	80000878	018000ef	jal	x1,80000878	  x1=0x80000878
       22025000	      2201	00000000	00000013	addi	x0,x0,0	  x0:0x00000000
       22035000	      2202	8000088c	00000013	addi	x0,x0,0	  x0:0x00000000
       22045000	      2203	80000890	fedff4ef	jal	x9,80000890	  x9=0x80000890
       22055000	      2204	00000000	00000013	addi	x0,x0,0	  x0:0x00000000
       22065000	      2205	80000878	00000013	addi	x0,x0,0	  x0:0x00000000
       22075000	      2206	8000087c	00c00c6f	jal	x24,8000087c	 x24=0x8000087c
       22085000	      2207	00000000	00000013	addi	x0,x0,0	  x0:0x00000000
       22095000	      2208	80000884	00000013	addi	x0,x0,0	  x0:0x00000000
       22105000	      2209	80000888	0500036f	jal	x6,80000888	  x6=0x80000888
       22115000	      2210	00000000	00000013	addi	x0,x0,0	  x0:0x00000000
       22125000	      2211	800008d4	00000013	addi	x0,x0,0	  x0:0x00000000
       22135000	      2212	800008d8	00c000ef	jal	x1,800008d8	  x1=0x800008d8
       22145000	      2213	00000000	00000013	addi	x0,x0,0	  x0:0x00000000
       22155000	      2214	800008e0	00000013	addi	x0,x0,0	  x0:0x00000000
       22165000	      2215	800008e4	fcdff0ef	jal	x1,800008e4	  x1=0x800008e4
       22175000	      2216	00000000	00000013	addi	x0,x0,0	  x0:0x00000000
       22185000	      2217	800008ac	00000013	addi	x0,x0,0	  x0:0x00000000
       22195000	      2218	800008b0	0180036f	jal	x6,800008b0	  x6=0x800008b0
       22205000	      2219	00000000	00000013	addi	x0,x0,0	  x0:0x00000000
       22215000	      2220	800008c4	00000013	addi	x0,x0,0	  x0:0x00000000
       22225000	      2221	800008c8	fcdff5ef	jal	x11,800008c8	 x11=0x800008c8
       22235000	      2222	00000000	00000013	addi	x0,x0,0	  x0:0x00000000
       22245000	      2223	80000890	00000013	addi	x0,x0,0	  x0:0x00000000
       22255000	      2224	80000894	03800c6f	jal	x24,80000894	 x24=0x80000894
       22265000	      2225	00000000	00000013	addi	x0,x0,0	  x0:0x00000000
       22275000	      2226	800008c8	00000013	addi	x0,x0,0	  x0:0x00000000
       22285000	      2227	800008cc	fddff0ef	jal	x1,800008cc	  x1=0x800008cc
       22295000	      2228	00000000	00000013	addi	x0,x0,0	  x0:0x00000000
       22305000	      2229	800008a4	00000013	addi	x0,x0,0	  x0:0x00000000
       22315000	      2230	800008a8	ff1ff96f	jal	x18,800008a8	 x18=0x800008a8
       22325000	      2231	00000000	00000013	addi	x0,x0,0	  x0:0x00000000
       22335000	      2232	80000894	00000013	addi	x0,x0,0	  x0:0x00000000
       22345000	      2233	80000898	020000ef	jal	x1,80000898	  x1=0x80000898
       22355000	      2234	00000000	00000013	addi	x0,x0,0	  x0:0x00000000
       22365000	      2235	800008b4	00000013	addi	x0,x0,0	  x0:0x00000000
       22375000	      2236	800008b8	fc9ff2ef	jal	x5,800008b8	  x5=0x800008b8
       22385000	      2237	00000000	00000013	addi	x0,x0,0	  x0:0x00000000
       22395000	      2238	8000087c	00000013	addi	x0,x0,0	  x0:0x00000000
       22405000	      2239	80000880	068000ef	jal	x1,80000880	  x1=0x80000880
       22415000	      2240	00000000	00000013	addi	x0,x0,0	  x0:0x00000000
       22425000	      2241	800008e4	00000013	addi	x0,x0,0	  x0:0x00000000
       22435000	      2242	800008e8	fddff3ef	jal	x7,800008e8	  x7=0x800008e8
       22445000	      2243	00000000	00000013	addi	x0,x0,0	  x0:0x00000000
       22455000	      2244	800008c0	00000013	addi	x0,x0,0	  x0:0x00000000
       22465000	      2245	800008c4	0280036f	jal	x6,800008c4	  x6=0x800008c4
       22475000	      2246	00000000	00000013	addi	x0,x0,0	  x0:0x00000000
       22485000	      2247	800008e8	00000013	addi	x0,x0,0	  x0:0x00000000
       22495000	      2248	800008ec	fd5ff0ef	jal	x1,800008ec	  x1=0x800008ec
       22505000	      2249	00000000	00000013	addi	x0,x0,0	  x0:0x00000000
       22515000	      2250	800008bc	00000013	addi	x0,x0,0	  x0:0x00000000
       22525000	      2251	800008c0	0200036f	jal	x6,800008c0	  x6=0x800008c0
       22535000	      2252	00000000	00000013	addi	x0,x0,0	  x0:0x00000000
       22545000	      2253	800008dc	00000013	addi	x0,x0,0	  x0:0x00000000
       22555000	      2254	800008e0	ff1ff36f	jal	x6,800008e0	  x6=0x800008e0
       22565000	      2255	00000000	00000013	addi	x0,x0,0	  x0:0x00000000
       22575000	      2256	800008cc	00000013	addi	x0,x0,0	  x0:0x00000000
       22585000	      2257	800008d0	fcdff0ef	jal	x1,800008d0	  x1=0x800008d0
       22595000	      2258	00000000	00000013	addi	x0,x0,0	  x0:0x00000000
       22605000	      2259	80000898	00000013	addi	x0,x0,0	  x0:0x00000000
       22615000	      2260	8000089c	fe9ff36f	jal	x6,8000089c	  x6=0x8000089c
       22625000	      2261	00000000	00000013	addi	x0,x0,0	  x0:0x00000000
       22635000	      2262	80000880	00000013	addi	x0,x0,0	  x0:0x00000000
       22645000	      2263	80000884	01c0036f	jal	x6,80000884	  x6=0x80000884
       22655000	      2264	00000000	00000013	addi	x0,x0,0	  x0:0x00000000
       22665000	      2265	8000089c	00000013	addi	x0,x0,0	  x0:0x00000000
       22675000	      2266	800008a0	03c0036f	jal	x6,800008a0	  x6=0x800008a0
       22685000	      2267	00000000	00000013	addi	x0,x0,0	  x0:0x00000000
       22695000	      2268	800008d8	00000013	addi	x0,x0,0	  x0:0x00000000
       22705000	      2269	800008dc	fd1ffe6f	jal	x28,800008dc	 x28=0x800008dc
       22715000	      2270	00000000	00000013	addi	x0,x0,0	  x0:0x00000000
       22725000	      2271	800008a8	00000013	addi	x0,x0,0	  x0:0x00000000
       22735000	      2272	800008ac	fe1ff36f	jal	x6,800008ac	  x6=0x800008ac
       22745000	      2273	00000000	00000013	addi	x0,x0,0	  x0:0x00000000
       22755000	      2274	80000888	00000013	addi	x0,x0,0	  x0:0x00000000
       22765000	      2275	8000088c	0480016f	jal	x2,8000088c	  x2=0x8000088c
       22775000	      2276	00000000	00000013	addi	x0,x0,0	  x0:0x00000000
       22785000	      2277	800008d0	00000013	addi	x0,x0,0	  x0:0x00000000
       22795000	      2278	800008d4	fd1ff0ef	jal	x1,800008d4	  x1=0x800008d4
       22805000	      2279	00000000	00000013	addi	x0,x0,0	  x0:0x00000000
       22815000	      2280	800008a0	00000013	addi	x0,x0,0	  x0:0x00000000
       22825000	      2281	800008a4	0180016f	jal	x2,800008a4	  x2=0x800008a4
       22835000	      2282	00000000	00000013	addi	x0,x0,0	  x0:0x00000000
       22845000	      2283	800008b8	00000013	addi	x0,x0,0	  x0:0x00000000
       22855000	      2284	800008bc	ff9ff4ef	jal	x9,800008bc	  x9=0x800008bc
       22865000	      2285	00000000	00000013	addi	x0,x0,0	  x0:0x00000000
       22875000	      2286	800008b0	00000013	addi	x0,x0,0	  x0:0x00000000
       22885000	      2287	800008b4	03c000ef	jal	x1,800008b4	  x1=0x800008b4
       22895000	      2288	00000000	00000013	addi	x0,x0,0	  x0:0x00000000
       22905000	      2289	800008ec	00000013	addi	x0,x0,0	  x0:0x00000000
       22915000	      2290	800008f0	00a76f33	or	x30,x14,x10	 x14:0x00000014 x10:0x80000840 x30=0x80000854
       22925000	      2291	800008f4	020000ef	jal	x1,800008f4	  x1=0x800008f4
       22935000	      2292	00000000	00000013	addi	x0,x0,0	  x0:0x00000000
       22945000	      2293	80000910	00000013	addi	x0,x0,0	  x0:0x00000000
       22955000	      2294	80000914	03c000ef	jal	x1,80000914	  x1=0x80000914
       22965000	      2295	00000000	00000013	addi	x0,x0,0	  x0:0x00000000
       22975000	      2296	8000094c	00000013	addi	x0,x0,0	  x0:0x00000000
       22985000	      2297	80000950	ff5fff6f	jal	x30,80000950	 x30=0x80000950
       22995000	      2298	00000000	00000013	addi	x0,x0,0	  x0:0x00000000
       23005000	      2299	80000940	00000013	addi	x0,x0,0	  x0:0x00000000
       23015000	      2300	80000944	fe5ff36f	jal	x6,80000944	  x6=0x80000944
       23025000	      2301	00000000	00000013	addi	x0,x0,0	  x0:0x00000000
       23035000	      2302	80000924	00000013	addi	x0,x0,0	  x0:0x00000000
       23045000	      2303	80000928	fe1ff0ef	jal	x1,80000928	  x1=0x80000928
       23055000	      2304	00000000	00000013	addi	x0,x0,0	  x0:0x00000000
       23065000	      2305	80000904	00000013	addi	x0,x0,0	  x0:0x00000000
       23075000	      2306	80000908	034000ef	jal	x1,80000908	  x1=0x80000908
       23085000	      2307	00000000	00000013	addi	x0,x0,0	  x0:0x00000000
       23095000	      2308	80000938	00000013	addi	x0,x0,0	  x0:0x00000000
       23105000	      2309	8000093c	fe5ff0ef	jal	x1,8000093c	  x1=0x8000093c
       23115000	      2310	00000000	00000013	addi	x0,x0,0	  x0:0x00000000
       23125000	      2311	8000091c	00000013	addi	x0,x0,0	  x0:0x00000000
       23135000	      2312	80000920	00c000ef	jal	x1,80000920	  x1=0x80000920
       23145000	      2313	00000000	00000013	addi	x0,x0,0	  x0:0x00000000
       23155000	      2314	80000928	00000013	addi	x0,x0,0	  x0:0x00000000
       23165000	      2315	8000092c	01c00b6f	jal	x22,8000092c	 x22=0x8000092c
       23175000	      2316	00000000	00000013	addi	x0,x0,0	  x0:0x00000000
       23185000	      2317	80000944	00000013	addi	x0,x0,0	  x0:0x00000000
       23195000	      2318	80000948	fd1fff6f	jal	x30,80000948	 x30=0x80000948
       23205000	      2319	00000000	00000013	addi	x0,x0,0	  x0:0x00000000
       23215000	      2320	80000914	00000013	addi	x0,x0,0	  x0:0x00000000
       23225000	      2321	80000918	048000ef	jal	x1,80000918	  x1=0x80000918
       23235000	      2322	00000000	00000013	addi	x0,x0,0	  x0:0x00000000
       23245000	      2323	8000095c	00000013	addi	x0,x0,0	  x0:0x00000000
       23255000	      2324	80000960	fd9ff36f	jal	x6,80000960	  x6=0x80000960
       23265000	      2325	00000000	00000013	addi	x0,x0,0	  x0:0x00000000
       23275000	      2326	80000934	00000013	addi	x0,x0,0	  x0:0x00000000
       23285000	      2327	80000938	fc1ff0ef	jal	x1,80000938	  x1=0x80000938
       23295000	      2328	00000000	00000013	addi	x0,x0,0	  x0:0x00000000
       23305000	      2329	800008f4	00000013	addi	x0,x0,0	  x0:0x00000000
       23315000	      2330	800008f8	03c00f6f	jal	x30,800008f8	 x30=0x800008f8
       23325000	      2331	00000000	00000013	addi	x0,x0,0	  x0:0x00000000
       23335000	      2332	80000930	00000013	addi	x0,x0,0	  x0:0x00000000
       23345000	      2333	80000934	fcdff36f	jal	x6,80000934	  x6=0x80000934
       23355000	      2334	00000000	00000013	addi	x0,x0,0	  x0:0x00000000
       23365000	      2335	800008fc	00000013	addi	x0,x0,0	  x0:0x00000000
       23375000	      2336	80000900	05c00c6f	jal	x24,80000900	 x24=0x80000900
       23385000	      2337	00000000	00000013	addi	x0,x0,0	  x0:0x00000000
       23395000	      2338	80000958	00000013	addi	x0,x0,0	  x0:0x00000000
       23405000	      2339	8000095c	ff9ff36f	jal	x6,8000095c	  x6=0x8000095c
       23415000	      2340	00000000	00000013	addi	x0,x0,0	  x0:0x00000000
       23425000	      2341	80000950	00000013	addi	x0,x0,0	  x0:0x00000000
       23435000	      2342	80000954	fd1ff26f	jal	x4,80000954	  x4=0x80000954
       23445000	      2343	00000000	00000013	addi	x0,x0,0	  x0:0x00000000
       23455000	      2344	80000920	00000013	addi	x0,x0,0	  x0:0x00000000
       23465000	      2345	80000924	ff9ff6ef	jal	x13,80000924	 x13=0x80000924
       23475000	      2346	00000000	00000013	addi	x0,x0,0	  x0:0x00000000
       23485000	      2347	80000918	00000013	addi	x0,x0,0	  x0:0x00000000
       23495000	      2348	8000091c	014002ef	jal	x5,8000091c	  x5=0x8000091c
       23505000	      2349	00000000	00000013	addi	x0,x0,0	  x0:0x00000000
       23515000	      2350	8000092c	00000013	addi	x0,x0,0	  x0:0x00000000
       23525000	      2351	80000930	fddff26f	jal	x4,80000930	  x4=0x80000930
       23535000	      2352	00000000	00000013	addi	x0,x0,0	  x0:0x00000000
       23545000	      2353	80000908	00000013	addi	x0,x0,0	  x0:0x00000000
       23555000	      2354	8000090c	004000ef	jal	x1,8000090c	  x1=0x8000090c
       23565000	      2355	00000000	00000013	addi	x0,x0,0	  x0:0x00000000
       23575000	      2356	8000090c	00000013	addi	x0,x0,0	  x0:0x00000000
       23585000	      2357	80000910	fedff36f	jal	x6,80000910	  x6=0x80000910
       23595000	      2358	00000000	00000013	addi	x0,x0,0	  x0:0x00000000
       23605000	      2359	800008f8	00000013	addi	x0,x0,0	  x0:0x00000000
       23615000	      2360	800008fc	0440036f	jal	x6,800008fc	  x6=0x800008fc
       23625000	      2361	00000000	00000013	addi	x0,x0,0	  x0:0x00000000
       23635000	      2362	8000093c	00000013	addi	x0,x0,0	  x0:0x00000000
       23645000	      2363	80000940	fc5ff0ef	jal	x1,80000940	  x1=0x80000940
       23655000	      2364	00000000	00000013	addi	x0,x0,0	  x0:0x00000000
       23665000	      2365	80000900	00000013	addi	x0,x0,0	  x0:0x00000000
       23675000	      2366	80000904	0480036f	jal	x6,80000904	  x6=0x80000904
       23685000	      2367	00000000	00000013	addi	x0,x0,0	  x0:0x00000000
       23695000	      2368	80000948	00000013	addi	x0,x0,0	  x0:0x00000000
       23705000	      2369	8000094c	00c000ef	jal	x1,8000094c	  x1=0x8000094c
       23715000	      2370	00000000	00000013	addi	x0,x0,0	  x0:0x00000000
       23725000	      2371	80000954	00000013	addi	x0,x0,0	  x0:0x00000000
       23735000	      2372	80000958	00c000ef	jal	x1,80000958	  x1=0x80000958
       23745000	      2373	00000000	00000013	addi	x0,x0,0	  x0:0x00000000
       23755000	      2374	80000960	00000013	addi	x0,x0,0	  x0:0x00000000
       23765000	      2375	80000964	00034033	xor	x0,x6,x0	  x6:0x80000904  x0:0x00000000
       23775000	      2376	80000968	04c000ef	jal	x1,80000968	  x1=0x80000968
       23785000	      2377	00000000	00000013	addi	x0,x0,0	  x0:0x00000000
       23795000	      2378	800009b0	00000013	addi	x0,x0,0	  x0:0x00000000
       23805000	      2379	800009b4	0180076f	jal	x14,800009b4	 x14=0x800009b4
       23815000	      2380	00000000	00000013	addi	x0,x0,0	  x0:0x00000000
       23825000	      2381	800009c8	00000013	addi	x0,x0,0	  x0:0x00000000
       23835000	      2382	800009cc	fc1ff0ef	jal	x1,800009cc	  x1=0x800009cc
       23845000	      2383	00000000	00000013	addi	x0,x0,0	  x0:0x00000000
       23855000	      2384	80000988	00000013	addi	x0,x0,0	  x0:0x00000000
       23865000	      2385	8000098c	038000ef	jal	x1,8000098c	  x1=0x8000098c
       23875000	      2386	00000000	00000013	addi	x0,x0,0	  x0:0x00000000
       23885000	      2387	800009c0	00000013	addi	x0,x0,0	  x0:0x00000000
       23895000	      2388	800009c4	fedff0ef	jal	x1,800009c4	  x1=0x800009c4
       23905000	      2389	00000000	00000013	addi	x0,x0,0	  x0:0x00000000
       23915000	      2390	800009ac	00000013	addi	x0,x0,0	  x0:0x00000000
       23925000	      2391	800009b0	fd5ffe6f	jal	x28,800009b0	 x28=0x800009b0
       23935000	      2392	00000000	00000013	addi	x0,x0,0	  x0:0x00000000
       23945000	      2393	80000980	00000013	addi	x0,x0,0	  x0:0x00000000
       23955000	      2394	80000984	fe9ff36f	jal	x6,80000984	  x6=0x80000984
       23965000	      2395	00000000	00000013	addi	x0,x0,0	  x0:0x00000000
       23975000	      2396	80000968	00000013	addi	x0,x0,0	  x0:0x00000000
       23985000	      2397	8000096c	01c00eef	jal	x29,8000096c	 x29=0x8000096c
       23995000	      2398	00000000	00000013	addi	x0,x0,0	  x0:0x00000000
       24005000	      2399	80000984	00000013	addi	x0,x0,0	  x0:0x00000000
       24015000	      2400	80000988	00c0026f	jal	x4,80000988	  x4=0x80000988
       24025000	      2401	00000000	00000013	addi	x0,x0,0	  x0:0x00000000
       24035000	      2402	80000990	00000013	addi	x0,x0,0	  x0:0x00000000
       24045000	      2403	80000994	0280016f	jal	x2,80000994	  x2=0x80000994
       24055000	      2404	00000000	00000013	addi	x0,x0,0	  x0:0x00000000
       24065000	      2405	800009b8	00000013	addi	x0,x0,0	  x0:0x00000000
       24075000	      2406	800009bc	fd5ff0ef	jal	x1,800009bc	  x1=0x800009bc
       24085000	      2407	00000000	00000013	addi	x0,x0,0	  x0:0x00000000
       24095000	      2408	8000098c	00000013	addi	x0,x0,0	  x0:0x00000000
       24105000	      2409	80000990	ff1ff1ef	jal	x3,80000990	  x3=0x80000990
       24115000	      2410	00000000	00000013	addi	x0,x0,0	  x0:0x00000000
       24125000	      2411	8000097c	00000013	addi	x0,x0,0	  x0:0x00000000
       24135000	      2412	80000980	01c0036f	jal	x6,80000980	  x6=0x80000980
       24145000	      2413	00000000	00000013	addi	x0,x0,0	  x0:0x00000000
       24155000	      2414	80000998	00000013	addi	x0,x0,0	  x0:0x00000000
       24165000	      2415	8000099c	0040056f	jal	x10,8000099c	 x10=0x8000099c
       24175000	      2416	00000000	00000013	addi	x0,x0,0	  x0:0x00000000
       24185000	      2417	8000099c	00000013	addi	x0,x0,0	  x0:0x00000000
       24195000	      2418	800009a0	fd1ff0ef	jal	x1,800009a0	  x1=0x800009a0
       24205000	      2419	00000000	00000013	addi	x0,x0,0	  x0:0x00000000
       24215000	      2420	8000096c	00000013	addi	x0,x0,0	  x0:0x00000000
       24225000	      2421	80000970	0380036f	jal	x6,80000970	  x6=0x80000970
       24235000	      2422	00000000	00000013	addi	x0,x0,0	  x0:0x00000000
       24245000	      2423	800009a4	00000013	addi	x0,x0,0	  x0:0x00000000
       24255000	      2424	800009a8	004000ef	jal	x1,800009a8	  x1=0x800009a8
       24265000	      2425	00000000	00000013	addi	x0,x0,0	  x0:0x00000000
       24275000	      2426	800009a8	00000013	addi	x0,x0,0	  x0:0x00000000
       24285000	      2427	800009ac	fedff4ef	jal	x9,800009ac	  x9=0x800009ac
       24295000	      2428	00000000	00000013	addi	x0,x0,0	  x0:0x00000000
       24305000	      2429	80000994	00000013	addi	x0,x0,0	  x0:0x00000000
       24315000	      2430	80000998	00c003ef	jal	x7,80000998	  x7=0x80000998
       24325000	      2431	00000000	00000013	addi	x0,x0,0	  x0:0x00000000
       24335000	      2432	800009a0	00000013	addi	x0,x0,0	  x0:0x00000000
       24345000	      2433	800009a4	fd5ff0ef	jal	x1,800009a4	  x1=0x800009a4
       24355000	      2434	00000000	00000013	addi	x0,x0,0	  x0:0x00000000
       24365000	      2435	80000974	00000013	addi	x0,x0,0	  x0:0x00000000
       24375000	      2436	80000978	ffdffe6f	jal	x28,80000978	 x28=0x80000978
       24385000	      2437	00000000	00000013	addi	x0,x0,0	  x0:0x00000000
       24395000	      2438	80000970	00000013	addi	x0,x0,0	  x0:0x00000000
       24405000	      2439	80000974	044000ef	jal	x1,80000974	  x1=0x80000974
       24415000	      2440	00000000	00000013	addi	x0,x0,0	  x0:0x00000000
       24425000	      2441	800009b4	00000013	addi	x0,x0,0	  x0:0x00000000
       24435000	      2442	800009b8	fc5ff96f	jal	x18,800009b8	 x18=0x800009b8
       24445000	      2443	00000000	00000013	addi	x0,x0,0	  x0:0x00000000
       24455000	      2444	80000978	00000013	addi	x0,x0,0	  x0:0x00000000
       24465000	      2445	8000097c	04c007ef	jal	x15,8000097c	 x15=0x8000097c
       24475000	      2446	00000000	00000013	addi	x0,x0,0	  x0:0x00000000
       24485000	      2447	800009c4	00000013	addi	x0,x0,0	  x0:0x00000000
       24495000	      2448	800009c8	ff9ff36f	jal	x6,800009c8	  x6=0x800009c8
       24505000	      2449	00000000	00000013	addi	x0,x0,0	  x0:0x00000000
       24515000	      2450	800009bc	00000013	addi	x0,x0,0	  x0:0x00000000
       24525000	      2451	800009c0	010000ef	jal	x1,800009c0	  x1=0x800009c0
       24535000	      2452	00000000	00000013	addi	x0,x0,0	  x0:0x00000000
       24545000	      2453	800009cc	00000013	addi	x0,x0,0	  x0:0x00000000
       24555000	      2454	800009d0	fb013093	sltiu	x1,x2,-80	  x2:0x80000994  x1=0x00000001
       24565000	      2455	800009d4	03c000ef	jal	x1,800009d4	  x1=0x800009d4
       24575000	      2456	00000000	00000013	addi	x0,x0,0	  x0:0x00000000
       24585000	      2457	80000a0c	00000013	addi	x0,x0,0	  x0:0x00000000
       24595000	      2458	80000a10	00c00a6f	jal	x20,80000a10	 x20=0x80000a10
       24605000	      2459	00000000	00000013	addi	x0,x0,0	  x0:0x00000000
       24615000	      2460	80000a18	00000013	addi	x0,x0,0	  x0:0x00000000
       24625000	      2461	80000a1c	fc5ff66f	jal	x12,80000a1c	 x12=0x80000a1c
       24635000	      2462	00000000	00000013	addi	x0,x0,0	  x0:0x00000000
       24645000	      2463	800009dc	00000013	addi	x0,x0,0	  x0:0x00000000
       24655000	      2464	800009e0	04c000ef	jal	x1,800009e0	  x1=0x800009e0
       24665000	      2465	00000000	00000013	addi	x0,x0,0	  x0:0x00000000
       24675000	      2466	80000a28	00000013	addi	x0,x0,0	  x0:0x00000000
       24685000	      2467	80000a2c	fc1ff0ef	jal	x1,80000a2c	  x1=0x80000a2c
       24695000	      2468	00000000	00000013	addi	x0,x0,0	  x0:0x00000000
       24705000	      2469	800009e8	00000013	addi	x0,x0,0	  x0:0x00000000
       24715000	      2470	800009ec	00c000ef	jal	x1,800009ec	  x1=0x800009ec
       24725000	      2471	00000000	00000013	addi	x0,x0,0	  x0:0x00000000
       24735000	      2472	800009f4	00000013	addi	x0,x0,0	  x0:0x00000000
       24745000	      2473	800009f8	038000ef	jal	x1,800009f8	  x1=0x800009f8
       24755000	      2474	00000000	00000013	addi	x0,x0,0	  x0:0x00000000
       24765000	      2475	80000a2c	00000013	addi	x0,x0,0	  x0:0x00000000
       24775000	      2476	80000a30	fb9ff0ef	jal	x1,80000a30	  x1=0x80000a30
       24785000	      2477	00000000	00000013	addi	x0,x0,0	  x0:0x00000000
       24795000	      2478	800009e4	00000013	addi	x0,x0,0	  x0:0x00000000
       24805000	      2479	800009e8	ff5ff0ef	jal	x1,800009e8	  x1=0x800009e8
       24815000	      2480	00000000	00000013	addi	x0,x0,0	  x0:0x00000000
       24825000	      2481	800009d8	00000013	addi	x0,x0,0	  x0:0x00000000
       24835000	      2482	800009dc	014000ef	jal	x1,800009dc	  x1=0x800009dc
       24845000	      2483	00000000	00000013	addi	x0,x0,0	  x0:0x00000000
       24855000	      2484	800009ec	00000013	addi	x0,x0,0	  x0:0x00000000
       24865000	      2485	800009f0	024000ef	jal	x1,800009f0	  x1=0x800009f0
       24875000	      2486	00000000	00000013	addi	x0,x0,0	  x0:0x00000000
       24885000	      2487	80000a10	00000013	addi	x0,x0,0	  x0:0x00000000
       24895000	      2488	80000a14	fc5ff16f	jal	x2,80000a14	  x2=0x80000a14
       24905000	      2489	00000000	00000013	addi	x0,x0,0	  x0:0x00000000
       24915000	      2490	800009d4	00000013	addi	x0,x0,0	  x0:0x00000000
       24925000	      2491	800009d8	048000ef	jal	x1,800009d8	  x1=0x800009d8
       24935000	      2492	00000000	00000013	addi	x0,x0,0	  x0:0x00000000
       24945000	      2493	80000a1c	00000013	addi	x0,x0,0	  x0:0x00000000
       24955000	      2494	80000a20	008000ef	jal	x1,80000a20	  x1=0x80000a20
       24965000	      2495	00000000	00000013	addi	x0,x0,0	  x0:0x00000000
       24975000	      2496	80000a24	00000013	addi	x0,x0,0	  x0:0x00000000
       24985000	      2497	80000a28	014000ef	jal	x1,80000a28	  x1=0x80000a28
       24995000	      2498	00000000	00000013	addi	x0,x0,0	  x0:0x00000000
       25005000	      2499	80000a38	00000013	addi	x0,x0,0	  x0:0x00000000
       25015000	      2500	80000a3c	ff9ff16f	jal	x2,80000a3c	  x2=0x80000a3c
       25025000	      2501	00000000	00000013	addi	x0,x0,0	  x0:0x00000000
       25035000	      2502	80000a30	00000013	addi	x0,x0,0	  x0:0x00000000
       25045000	      2503	80000a34	01000f6f	jal	x30,80000a34	 x30=0x80000a34
       25055000	      2504	00000000	00000013	addi	x0,x0,0	  x0:0x00000000
       25065000	      2505	80000a40	00000013	addi	x0,x0,0	  x0:0x00000000
       25075000	      2506	80000a44	fa1ff0ef	jal	x1,80000a44	  x1=0x80000a44
       25085000	      2507	00000000	00000013	addi	x0,x0,0	  x0:0x00000000
       25095000	      2508	800009e0	00000013	addi	x0,x0,0	  x0:0x00000000
       25105000	      2509	800009e4	020000ef	jal	x1,800009e4	  x1=0x800009e4
       25115000	      2510	00000000	00000013	addi	x0,x0,0	  x0:0x00000000
       25125000	      2511	80000a00	00000013	addi	x0,x0,0	  x0:0x00000000
       25135000	      2512	80000a04	014000ef	jal	x1,80000a04	  x1=0x80000a04
       25145000	      2513	00000000	00000013	addi	x0,x0,0	  x0:0x00000000
       25155000	      2514	80000a14	00000013	addi	x0,x0,0	  x0:0x00000000
       25165000	      2515	80000a18	028000ef	jal	x1,80000a18	  x1=0x80000a18
       25175000	      2516	00000000	00000013	addi	x0,x0,0	  x0:0x00000000
       25185000	      2517	80000a3c	00000013	addi	x0,x0,0	  x0:0x00000000
       25195000	      2518	80000a40	ff9ff0ef	jal	x1,80000a40	  x1=0x80000a40
       25205000	      2519	00000000	00000013	addi	x0,x0,0	  x0:0x00000000
       25215000	      2520	80000a34	00000013	addi	x0,x0,0	  x0:0x00000000
       25225000	      2521	80000a38	010001ef	jal	x3,80000a38	  x3=0x80000a38
       25235000	      2522	00000000	00000013	addi	x0,x0,0	  x0:0x00000000
       25245000	      2523	80000a44	00000013	addi	x0,x0,0	  x0:0x00000000
       25255000	      2524	80000a48	fb9ff36f	jal	x6,80000a48	  x6=0x80000a48
       25265000	      2525	00000000	00000013	addi	x0,x0,0	  x0:0x00000000
       25275000	      2526	800009fc	00000013	addi	x0,x0,0	  x0:0x00000000
       25285000	      2527	80000a00	ff5ff0ef	jal	x1,80000a00	  x1=0x80000a00
       25295000	      2528	00000000	00000013	addi	x0,x0,0	  x0:0x00000000
       25305000	      2529	800009f0	00000013	addi	x0,x0,0	  x0:0x00000000
       25315000	      2530	800009f4	0080026f	jal	x4,800009f4	  x4=0x800009f4
       25325000	      2531	00000000	00000013	addi	x0,x0,0	  x0:0x00000000
       25335000	      2532	800009f8	00000013	addi	x0,x0,0	  x0:0x00000000
       25345000	      2533	800009fc	01000e6f	jal	x28,800009fc	 x28=0x800009fc
       25355000	      2534	00000000	00000013	addi	x0,x0,0	  x0:0x00000000
       25365000	      2535	80000a08	00000013	addi	x0,x0,0	  x0:0x00000000
       25375000	      2536	80000a0c	ffdff0ef	jal	x1,80000a0c	  x1=0x80000a0c
       25385000	      2537	00000000	00000013	addi	x0,x0,0	  x0:0x00000000
       25395000	      2538	80000a04	00000013	addi	x0,x0,0	  x0:0x00000000
       25405000	      2539	80000a08	01c0036f	jal	x6,80000a08	  x6=0x80000a08
       25415000	      2540	00000000	00000013	addi	x0,x0,0	  x0:0x00000000
       25425000	      2541	80000a20	00000013	addi	x0,x0,0	  x0:0x00000000
       25435000	      2542	80000a24	028000ef	jal	x1,80000a24	  x1=0x80000a24
       25445000	      2543	00000000	00000013	addi	x0,x0,0	  x0:0x00000000
       25455000	      2544	80000a48	00000013	addi	x0,x0,0	  x0:0x00000000
       25465000	      2545	80000a4c	00000013	addi	x0,x0,0	  x0:0x00000000
       25475000	      2546	80000a50	04c000ef	jal	x1,80000a50	  x1=0x80000a50
       25485000	      2547	00000000	00000013	addi	x0,x0,0	  x0:0x00000000
       25495000	      2548	80000a98	00000013	addi	x0,x0,0	  x0:0x00000000
       25505000	      2549	80000a9c	00400aef	jal	x21,80000a9c	 x21=0x80000a9c
       25515000	      2550	00000000	00000013	addi	x0,x0,0	  x0:0x00000000
       25525000	      2551	80000a9c	00000013	addi	x0,x0,0	  x0:0x00000000
       25535000	      2552	80000aa0	fddff0ef	jal	x1,80000aa0	  x1=0x80000aa0
       25545000	      2553	00000000	00000013	addi	x0,x0,0	  x0:0x00000000
       25555000	      2554	80000a78	00000013	addi	x0,x0,0	  x0:0x00000000
       25565000	      2555	80000a7c	ff5ff9ef	jal	x19,80000a7c	 x19=0x80000a7c
       25575000	      2556	00000000	00000013	addi	x0,x0,0	  x0:0x00000000
       25585000	      2557	80000a6c	00000013	addi	x0,x0,0	  x0:0x00000000
       25595000	      2558	80000a70	0240036f	jal	x6,80000a70	  x6=0x80000a70
       25605000	      2559	00000000	00000013	addi	x0,x0,0	  x0:0x00000000
       25615000	      2560	80000a90	00000013	addi	x0,x0,0	  x0:0x00000000
       25625000	      2561	80000a94	0100056f	jal	x10,80000a94	 x10=0x80000a94
       25635000	      2562	00000000	00000013	addi	x0,x0,0	  x0:0x00000000
       25645000	      2563	80000aa0	00000013	addi	x0,x0,0	  x0:0x00000000
       25655000	      2564	80000aa4	fc1ff36f	jal	x6,80000aa4	  x6=0x80000aa4
       25665000	      2565	00000000	00000013	addi	x0,x0,0	  x0:0x00000000
       25675000	      2566	80000a60	00000013	addi	x0,x0,0	  x0:0x00000000
       25685000	      2567	80000a64	ff1ff0ef	jal	x1,80000a64	  x1=0x80000a64
       25695000	      2568	00000000	00000013	addi	x0,x0,0	  x0:0x00000000
       25705000	      2569	80000a50	00000013	addi	x0,x0,0	  x0:0x00000000
       25715000	      2570	80000a54	0440036f	jal	x6,80000a54	  x6=0x80000a54
       25725000	      2571	00000000	00000013	addi	x0,x0,0	  x0:0x00000000
       25735000	      2572	80000a94	00000013	addi	x0,x0,0	  x0:0x00000000
       25745000	      2573	80000a98	fc9ff0ef	jal	x1,80000a98	  x1=0x80000a98
       25755000	      2574	00000000	00000013	addi	x0,x0,0	  x0:0x00000000
       25765000	      2575	80000a5c	00000013	addi	x0,x0,0	  x0:0x00000000
       25775000	      2576	80000a60	008000ef	jal	x1,80000a60	  x1=0x80000a60
       25785000	      2577	00000000	00000013	addi	x0,x0,0	  x0:0x00000000
       25795000	      2578	80000a64	00000013	addi	x0,x0,0	  x0:0x00000000
       25805000	      2579	80000a68	044000ef	jal	x1,80000a68	  x1=0x80000a68
       25815000	      2580	00000000	00000013	addi	x0,x0,0	  x0:0x00000000
       25825000	      2581	80000aa8	00000013	addi	x0,x0,0	  x0:0x00000000
       25835000	      2582	80000aac	fe1ffa6f	jal	x20,80000aac	 x20=0x80000aac
       25845000	      2583	00000000	00000013	addi	x0,x0,0	  x0:0x00000000
       25855000	      2584	80000a88	00000013	addi	x0,x0,0	  x0:0x00000000
       25865000	      2585	80000a8c	ffdff66f	jal	x12,80000a8c	 x12=0x80000a8c
       25875000	      2586	00000000	00000013	addi	x0,x0,0	  x0:0x00000000
       25885000	      2587	80000a84	00000013	addi	x0,x0,0	  x0:0x00000000
       25895000	      2588	80000a88	008000ef	jal	x1,80000a88	  x1=0x80000a88
       25905000	      2589	00000000	00000013	addi	x0,x0,0	  x0:0x00000000
       25915000	      2590	80000a8c	00000013	addi	x0,x0,0	  x0:0x00000000
       25925000	      2591	80000a90	fe9ff7ef	jal	x15,80000a90	 x15=0x80000a90
       25935000	      2592	00000000	00000013	addi	x0,x0,0	  x0:0x00000000
       25945000	      2593	80000a74	00000013	addi	x0,x0,0	  x0:0x00000000
       25955000	      2594	80000a78	00c000ef	jal	x1,80000a78	  x1=0x80000a78
       25965000	      2595	00000000	00000013	addi	x0,x0,0	  x0:0x00000000
       25975000	      2596	80000a80	00000013	addi	x0,x0,0	  x0:0x00000000
       25985000	      2597	80000a84	ffdff36f	jal	x6,80000a84	  x6=0x80000a84
       25995000	      2598	00000000	00000013	addi	x0,x0,0	  x0:0x00000000
       26005000	      2599	80000a7c	00000013	addi	x0,x0,0	  x0:0x00000000
       26015000	      2600	80000a80	ff5ff9ef	jal	x19,80000a80	 x19=0x80000a80
       26025000	      2601	00000000	00000013	addi	x0,x0,0	  x0:0x00000000
       26035000	      2602	80000a70	00000013	addi	x0,x0,0	  x0:0x00000000
       26045000	      2603	80000a74	ff9ff36f	jal	x6,80000a74	  x6=0x80000a74
       26055000	      2604	00000000	00000013	addi	x0,x0,0	  x0:0x00000000
       26065000	      2605	80000a68	00000013	addi	x0,x0,0	  x0:0x00000000
       26075000	      2606	80000a6c	ff1ff96f	jal	x18,80000a6c	 x18=0x80000a6c
       26085000	      2607	00000000	00000013	addi	x0,x0,0	  x0:0x00000000
       26095000	      2608	80000a58	00000013	addi	x0,x0,0	  x0:0x00000000
       26105000	      2609	80000a5c	04c000ef	jal	x1,80000a5c	  x1=0x80000a5c
       26115000	      2610	00000000	00000013	addi	x0,x0,0	  x0:0x00000000
       26125000	      2611	80000aa4	00000013	addi	x0,x0,0	  x0:0x00000000
       26135000	      2612	80000aa8	fb1ff0ef	jal	x1,80000aa8	  x1=0x80000aa8
       26145000	      2613	00000000	00000013	addi	x0,x0,0	  x0:0x00000000
       26155000	      2614	80000a54	00000013	addi	x0,x0,0	  x0:0x00000000
       26165000	      2615	80000a58	0580036f	jal	x6,80000a58	  x6=0x80000a58
       26175000	      2616	00000000	00000013	addi	x0,x0,0	  x0:0x00000000
       26185000	      2617	80000aac	00000013	addi	x0,x0,0	  x0:0x00000000
       26195000	      2618	80000ab0	018597b3	sll	x15,x11,x24	 x11:0x800008c8 x24:0x80000900 x15=0x800008c8
       26205000	      2619	80000ab4	024000ef	jal	x1,80000ab4	  x1=0x80000ab4
       26215000	      2620	00000000	00000013	addi	x0,x0,0	  x0:0x00000000
       26225000	      2621	80000ad4	00000013	addi	x0,x0,0	  x0:0x00000000
       26235000	      2622	80000ad8	0040026f	jal	x4,80000ad8	  x4=0x80000ad8
       26245000	      2623	00000000	00000013	addi	x0,x0,0	  x0:0x00000000
       26255000	      2624	80000ad8	00000013	addi	x0,x0,0	  x0:0x00000000
       26265000	      2625	80000adc	fddff26f	jal	x4,80000adc	  x4=0x80000adc
       26275000	      2626	00000000	00000013	addi	x0,x0,0	  x0:0x00000000
       26285000	      2627	80000ab4	00000013	addi	x0,x0,0	  x0:0x00000000
       26295000	      2628	80000ab8	018000ef	jal	x1,80000ab8	  x1=0x80000ab8
       26305000	      2629	00000000	00000013	addi	x0,x0,0	  x0:0x00000000
       26315000	      2630	80000acc	00000013	addi	x0,x0,0	  x0:0x00000000
       26325000	      2631	80000ad0	010000ef	jal	x1,80000ad0	  x1=0x80000ad0
       26335000	      2632	00000000	00000013	addi	x0,x0,0	  x0:0x00000000
       26345000	      2633	80000adc	00000013	addi	x0,x0,0	  x0:0x00000000
       26355000	      2634	80000ae0	fe5ff0ef	jal	x1,80000ae0	  x1=0x80000ae0
       26365000	      2635	00000000	00000013	addi	x0,x0,0	  x0:0x00000000
       26375000	      2636	80000ac0	00000013	addi	x0,x0,0	  x0:0x00000000
       26385000	      2637	80000ac4	010000ef	jal	x1,80000ac4	  x1=0x80000ac4
       26395000	      2638	00000000	00000013	addi	x0,x0,0	  x0:0x00000000
       26405000	      2639	80000ad0	00000013	addi	x0,x0,0	  x0:0x00000000
       26415000	      2640	80000ad4	ff9ff0ef	jal	x1,80000ad4	  x1=0x80000ad4
       26425000	      2641	00000000	00000013	addi	x0,x0,0	  x0:0x00000000
       26435000	      2642	80000ac8	00000013	addi	x0,x0,0	  x0:0x00000000
       26445000	      2643	80000acc	ff5ff0ef	jal	x1,80000acc	  x1=0x80000acc
       26455000	      2644	00000000	00000013	addi	x0,x0,0	  x0:0x00000000
       26465000	      2645	80000abc	00000013	addi	x0,x0,0	  x0:0x00000000
       26475000	      2646	80000ac0	ffdff0ef	jal	x1,80000ac0	  x1=0x80000ac0
       26485000	      2647	00000000	00000013	addi	x0,x0,0	  x0:0x00000000
       26495000	      2648	80000ab8	00000013	addi	x0,x0,0	  x0:0x00000000
       26505000	      2649	80000abc	00c009ef	jal	x19,80000abc	 x19=0x80000abc
       26515000	      2650	00000000	00000013	addi	x0,x0,0	  x0:0x00000000
       26525000	      2651	80000ac4	00000013	addi	x0,x0,0	  x0:0x00000000
       26535000	      2652	80000ac8	01c00fef	jal	x31,80000ac8	 x31=0x80000ac8
       26545000	      2653	00000000	00000013	addi	x0,x0,0	  x0:0x00000000
       26555000	      2654	80000ae0	00000013	addi	x0,x0,0	  x0:0x00000000
       26565000	      2655	80000ae4	707ca317	auipc	x6,0x707ca	  x6=0xf07caae0
       26575000	      2656	80000ae8	009537b3	sltu	x15,x10,x9	 x10:0x80000a94  x9:0x800009ac x15=0x00000000
       26585000	      2657	80000aec	b6e82193	slti	x3,x16,-1170	 x16:0x8000083c  x3=0x00000001
       26595000	      2658	80000af0	3a59c513	xori	x10,x19,933	 x19:0x80000abc x10=0x80000919
       26605000	      2659	80000af4	033f7313	andi	x6,x30,51	 x30:0x80000a34  x6=0x00000030
       26615000	      2660	80000af8	f9a0c193	xori	x3,x1,-102	  x1:0x80000ac0  x3=0x7ffff55a
       26625000	      2661	80000afc	19e1d137	lui	x2,0x19e1d	  x2=0x19e1d000
       26635000	      2662	80000b00	29623793	sltiu	x15,x4,662	  x4:0x80000adc x15=0x00000000
       26645000	      2663	80000b04	01aaa133	slt	x2,x21,x26	 x21:0x80000a9c x26:0x000000ff  x2=0x00000001
       26655000	      2664	80000b08	00aed533	srl	x10,x29,x10	 x29:0x8000096c x10:0x80000919 x10=0x00000040
       26665000	      2665	80000b0c	00000013	addi	x0,x0,0	  x0:0x00000000
       26675000	      2666	80000b10	00cc37b3	sltu	x15,x24,x12	 x24:0x80000900 x12:0x80000a8c x15=0x00000001
       26685000	      2667	80000b14	00db32b3	sltu	x5,x22,x13	 x22:0x8000092c x13:0x80000924  x5=0x00000000
       26695000	      2668	80000b18	02146863	bltu	x8,x1,80000b48	  x8:0x80009fc4  x1:0x80000ac0
       26705000	      2669	80000b1c	01e1f633	and	x12,x3,x30	  x3:0x7ffff55a x30:0x80000a34 x12=0x00000010
       26715000	      2670	80000b20	017e42b3	xor	x5,x28,x23	 x28:0x800009fc x23:0x80000674  x5=0x00000f88
       26725000	      2671	80000b24	01d9d313	srli	x6,x19,0x1d	 x19:0x80000abc  x6=0x00000004
       26735000	      2672	80000b28	3e242713	slti	x14,x8,994	  x8:0x80009fc4 x14=0x00000001
       26745000	      2673	80000b2c	01043e33	sltu	x28,x8,x16	  x8:0x80009fc4 x16:0x8000083c x28=0x00000000
       26755000	      2674	80000b30	8c6af013	andi	x0,x21,-1850	 x21:0x80000a9c
       26765000	      2675	80000b34	d2926a93	ori	x21,x4,-727	  x4:0x80000adc x21=0xfffffffd
       26775000	      2676	80000b38	01690ab3	add	x21,x18,x22	 x18:0x80000a6c x22:0x8000092c x21=0x00001398
       26785000	      2677	80000b3c	011c04b3	add	x9,x24,x17	 x24:0x80000900 x17:0x0000000c  x9=0x8000090c
       26795000	      2678	80000b40	40475193	srai	x3,x14,0x4	 x14:0x00000001  x3=0x00000000
       26805000	      2679	80000b44	00000013	addi	x0,x0,0	  x0:0x00000000
       26815000	      2680	80000b48	879d7913	andi	x18,x26,-1927	 x26:0x000000ff x18=0x00000079
       26825000	      2681	80000b4c	486e6113	ori	x2,x28,1158	 x28:0x00000000  x2=0x00000486
       26835000	      2682	80000b50	409adf13	srai	x30,x21,0x9	 x21:0x00001398 x30=0x00000009
       26845000	      2683	80000b54	0121e033	or	x0,x3,x18	  x3:0x00000000 x18:0x00000079
       26855000	      2684	80000b58	00f20e63	beq	x4,x15,80000b74	  x4:0x80000adc x15:0x00000001
       26865000	      2685	80000b5c	15272b97	auipc	x23,0x15272	 x23=0x95272b58
       26875000	      2686	80000b60	013447b3	xor	x15,x8,x19	  x8:0x80009fc4 x19:0x80000abc x15=0x00009578
       26885000	      2687	80000b64	cb3fa613	slti	x12,x31,-845	 x31:0x80000ac8 x12=0x00000001
       26895000	      2688	80000b68	02965c63	bge	x12,x9,80000ba0	 x12:0x00000001  x9:0x8000090c
       26905000	      2689	00000000	00000013	addi	x0,x0,0	  x0:0x00000000
       26915000	      2690	80000b9c	00000013	addi	x0,x0,0	  x0:0x00000000
       26925000	      2691	80000ba0	e8b02813	slti	x16,x0,-373	  x0:0x00000000 x16=0x00000000
       26935000	      2692	80000ba4	a0ed6c97	auipc	x25,0xa0ed6	 x25=0x20ed6ba0
       26945000	      2693	80000ba8	028b7797	auipc	x15,0x28b7	 x15=0x828b7ba4
       26955000	      2694	80000bac	084b3113	sltiu	x2,x22,132	 x22:0x8000092c  x2=0x00000000
       26965000	      2695	80000bb0	05d95863	bge	x18,x29,80000c00	 x18:0x00000079 x29:0x8000096c
       26975000	      2696	00000000	00000013	addi	x0,x0,0	  x0:0x00000000
       26985000	      2697	80000bfc	00000013	addi	x0,x0,0	  x0:0x00000000
       26995000	      2698	80000c00	0022f863	bgeu	x5,x2,80000c10	  x5:0x00000f88  x2:0x00000000
       27005000	      2699	00000000	00000013	addi	x0,x0,0	  x0:0x00000000
       27015000	      2700	80000c0c	00000013	addi	x0,x0,0	  x0:0x00000000
       27025000	      2701	80000c10	8fa96b93	ori	x23,x18,-1798	 x18:0x00000079 x23=0xfffff8fb
       27035000	      2702	80000c14	00919463	bne	x3,x9,80000c1c	  x3:0x00000000  x9:0x8000090c
       27045000	      2703	00000000	00000013	addi	x0,x0,0	  x0:0x00000000
       27055000	      2704	80000c18	00000013	addi	x0,x0,0	  x0:0x00000000
       27065000	      2705	80000c1c	01d80133	add	x2,x16,x29	 x16:0x00000000 x29:0x8000096c  x2=0x8000096c
       27075000	      2706	80000c20	05069eb7	lui	x29,0x5069	 x29=0x05069000
       27085000	      2707	80000c24	4ef19b17	auipc	x22,0x4ef19	 x22=0xcef19c20
       27095000	      2708	80000c28	0044c263	blt	x9,x4,80000c2c	  x9:0x8000090c  x4:0x80000adc
       27105000	      2709	00000000	00000013	addi	x0,x0,0	  x0:0x00000000
       27115000	      2710	80000c28	00000013	addi	x0,x0,0	  x0:0x00000000
       27125000	      2711	80000c2c	04834063	blt	x6,x8,80000c6c	  x6:0x00000004  x8:0x80009fc4
       27135000	      2712	80000c30	0129f5b3	and	x11,x19,x18	 x19:0x80000abc x18:0x00000079 x11=0x00000038
       27145000	      2713	80000c34	01f35cb3	srl	x25,x6,x31	  x6:0x00000004 x31:0x80000ac8 x25=0x00000000
       27155000	      2714	80000c38	3b3d7397	auipc	x7,0x3b3d7	  x7=0xbb3d7c34
       27165000	      2715	80000c3c	012d95b3	sll	x11,x27,x18	 x27:0x80009ecc x18:0x00000079 x11=0x98000000
       27175000	      2716	80000c40	003ae3b3	or	x7,x21,x3	 x21:0x00001398  x3:0x00000000  x7=0x00001398
       27185000	      2717	80000c44	005ac933	xor	x18,x21,x5	 x21:0x00001398  x5:0x00000f88 x18=0x00001c10
       27195000	      2718	80000c48	018271b3	and	x3,x4,x24	  x4:0x80000adc x24:0x80000900  x3=0x80000800
       27205000	      2719	80000c4c	04096063	bltu	x18,x0,80000c8c	 x18:0x00001c10  x0:0x00000000
       27215000	      2720	80000c50	006b1463	bne	x22,x6,80000c58	 x22:0xcef19c20  x6:0x00000004
       27225000	      2721	00000000	00000013	addi	x0,x0,0	  x0:0x00000000
       27235000	      2722	80000c54	00000013	addi	x0,x0,0	  x0:0x00000000
       27245000	      2723	80000c58	41355133	sra	x2,x10,x19	 x10:0x00000040 x19:0x80000abc  x2=0x00000000
       27255000	      2724	80000c5c	01052633	slt	x12,x10,x16	 x10:0x00000040 x16:0x00000000 x12=0x00000000
       27265000	      2725	80000c60	9ca2f517	auipc	x10,0x9ca2f	 x10=0x1ca2fc5c
       27275000	      2726	80000c64	01885313	srli	x6,x16,0x18	 x16:0x00000000  x6=0x00000000
       27285000	      2727	80000c68	7bf76113	ori	x2,x14,1983	 x14:0x00000001  x2=0x000007bf
       27295000	      2728	80000c6c	218b6793	ori	x15,x22,536	 x22:0xcef19c20 x15=0xcef19e38
       27305000	      2729	80000c70	4136df13	srai	x30,x13,0x13	 x13:0x80000924 x30=0xfffff000
       27315000	      2730	80000c74	00afea63	bltu	x31,x10,80000c88	 x31:0x80000ac8 x10:0x1ca2fc5c
       27325000	      2731	80000c78	2bc1d517	auipc	x10,0x2bc1d	 x10=0xabc1dc74
       27335000	      2732	80000c7c	00c83633	sltu	x12,x16,x12	 x16:0x00000000 x12:0x00000000 x12=0x00000000
       27345000	      2733	80000c80	01475b93	srli	x23,x14,0x14	 x14:0x00000001 x23=0x00000000
       27355000	      2734	80000c84	00a8c663	blt	x17,x10,80000c90	 x17:0x0000000c x10:0xabc1dc74
       27365000	      2735	80000c88	00639633	sll	x12,x7,x6	  x7:0x00001398  x6:0x00000000 x12=0x00001398
       27375000	      2736	80000c8c	04b78863	beq	x15,x11,80000cdc	 x15:0xcef19e38 x11:0x98000000
       27385000	      2737	80000c90	0bff7c93	andi	x25,x30,191	 x30:0xfffff000 x25=0x00000000
       27395000	      2738	80000c94	0068be33	sltu	x28,x17,x6	 x17:0x0000000c  x6:0x00000000 x28=0x00000000
       27405000	      2739	80000c98	0178ff33	and	x30,x17,x23	 x17:0x0000000c x23:0x00000000 x30=0x00000000
       27415000	      2740	80000c9c	01e4da33	srl	x20,x9,x30	  x9:0x8000090c x30:0x00000000 x20=0x8000090c
       27425000	      2741	80000ca0	054ad863	bge	x21,x20,80000cf0	 x21:0x00001398 x20:0x8000090c
       27435000	      2742	00000000	00000013	addi	x0,x0,0	  x0:0x00000000
       27445000	      2743	80000cec	00000013	addi	x0,x0,0	  x0:0x00000000
       27455000	      2744	80000cf0	04d48313	addi	x6,x9,77	  x9:0x8000090c  x6=0x80000959
       27465000	      2745	80000cf4	717a7f93	andi	x31,x20,1815	 x20:0x8000090c x31=0x00000104
       27475000	      2746	80000cf8	01a6fb13	andi	x22,x13,26	 x13:0x80000924 x22=0x00000000
       27485000	      2747	80000cfc	00780cb3	add	x25,x16,x7	 x16:0x00000000  x7:0x00001398 x25=0x00001398
       27495000	      2748	80000d00	01852f33	slt	x30,x10,x24	 x10:0xabc1dc74 x24:0x80000900 x30=0x00000000
       27505000	      2749	80000d04	009cb7b3	sltu	x15,x25,x9	 x25:0x00001398  x9:0x8000090c x15=0x00000001
       27515000	      2750	80000d08	7fda3913	sltiu	x18,x20,2045	 x20:0x8000090c x18=0x00000000
       27525000	      2751	80000d0c	01aa46b3	xor	x13,x20,x26	 x20:0x8000090c x26:0x000000ff x13=0x800009f3
       27535000	      2752	80000d10	02a59663	bne	x11,x10,80000d3c	 x11:0x98000000 x10:0xabc1dc74
       27545000	      2753	00000000	00000013	addi	x0,x0,0	  x0:0x00000000
       27555000	      2754	80000d38	00000013	addi	x0,x0,0	  x0:0x00000000
       27565000	      2755	80000d3c	ec12f093	andi	x1,x5,-319	  x5:0x00000f88  x1=0x00000e80
       27575000	      2756	80000d40	f2276a93	ori	x21,x14,-222	 x14:0x00000001 x21=0xffffff23
       27585000	      2757	80000d44	01ea8b33	add	x22,x21,x30	 x21:0xffffff23 x30:0x00000000 x22=0xffffff23
       27595000	      2758	80000d48	0030a933	slt	x18,x1,x3	  x1:0x00000e80  x3:0x80000800 x18=0x00000000
       27605000	      2759	80000d4c	eab43a93	sltiu	x21,x8,-341	  x8:0x80009fc4 x21=0x00000001
       27615000	      2760	80000d50	41d0d513	srai	x10,x1,0x1d	  x1:0x00000e80 x10=0x00000000
       27625000	      2761	80000d54	02050863	beq	x10,x0,80000d84	 x10:0x00000000  x0:0x00000000
       27635000	      2762	00000000	00000013	addi	x0,x0,0	  x0:0x00000000
       27645000	      2763	80000d80	00000013	addi	x0,x0,0	  x0:0x00000000
       27655000	      2764	80000d84	027b9c63	bne	x23,x7,80000dbc	 x23:0x00000000  x7:0x00001398
       27665000	      2765	00000000	00000013	addi	x0,x0,0	  x0:0x00000000
       27675000	      2766	80000db8	00000013	addi	x0,x0,0	  x0:0x00000000
       27685000	      2767	80000dbc	000fd2b3	srl	x5,x31,x0	 x31:0x00000104  x0:0x00000000  x5=0x00000104
       27695000	      2768	80000dc0	01311b93	slli	x23,x2,0x13	  x2:0x000007bf x23=0x3df80000
       27705000	      2769	80000dc4	ae333393	sltiu	x7,x6,-1309	  x6:0x80000959  x7=0x00000001
       27715000	      2770	80000dc8	00958033	add	x0,x11,x9	 x11:0x98000000  x9:0x8000090c
       27725000	      2771	80000dcc	62253c13	sltiu	x24,x10,1570	 x10:0x00000000 x24=0x00000001
       27735000	      2772	80000dd0	004942b3	xor	x5,x18,x4	 x18:0x00000000  x4:0x80000adc  x5=0x80000adc
       27745000	      2773	80000dd4	417e8cb3	sub	x25,x29,x23	 x29:0x05069000 x23:0x3df80000 x25=0xc70e9000
       27755000	      2774	80000dd8	00cae733	or	x14,x21,x12	 x21:0x00000001 x12:0x00001398 x14=0x00001399
       27765000	      2775	80000ddc	01ceae33	slt	x28,x29,x28	 x29:0x05069000 x28:0x00000000 x28=0x00000000
       27775000	      2776	80000de0	014271b3	and	x3,x4,x20	  x4:0x80000adc x20:0x8000090c  x3=0x8000080c
       27785000	      2777	80000de4	009f67b3	or	x15,x30,x9	 x30:0x00000000  x9:0x8000090c x15=0x8000090c
       27795000	      2778	80000de8	75218213	addi	x4,x3,1874	  x3:0x8000080c  x4=0x80000f5e
       27805000	      2779	80000dec	01819263	bne	x3,x24,80000df0	  x3:0x8000080c x24:0x00000001
       27815000	      2780	00000000	00000013	addi	x0,x0,0	  x0:0x00000000
       27825000	      2781	80000dec	00000013	addi	x0,x0,0	  x0:0x00000000
       27835000	      2782	80000df0	00645513	srli	x10,x8,0x6	  x8:0x80009fc4 x10=0x0200027f
       27845000	      2783	80000df4	0740b513	sltiu	x10,x1,116	  x1:0x00000e80 x10=0x00000000
       27855000	      2784	80000df8	16f19c37	lui	x24,0x16f19	 x24=0x16f19000
       27865000	      2785	80000dfc	021bea63	bltu	x23,x1,80000e30	 x23:0x3df80000  x1:0x00000e80
       27875000	      2786	80000e00	02fb3697	auipc	x13,0x2fb3	 x13=0x82fb3dfc
       27885000	      2787	80000e04	40ca0b33	sub	x22,x20,x12	 x20:0x8000090c x12:0x00001398 x22=0x7ffff574
       27895000	      2788	80000e08	012e43b3	xor	x7,x28,x18	 x28:0x00000000 x18:0x00000000  x7=0x00000000
       27905000	      2789	80000e0c	03636663	bltu	x6,x22,80000e38	  x6:0x80000959 x22:0x7ffff574
       27915000	      2790	80000e10	25a86013	ori	x0,x16,602	 x16:0x00000000
       27925000	      2791	80000e14	410b00b3	sub	x1,x22,x16	 x22:0x7ffff574 x16:0x00000000  x1=0x7ffff574
       27935000	      2792	80000e18	40028633	sub	x12,x5,x0	  x5:0x80000adc  x0:0x00000000 x12=0x80000adc
       27945000	      2793	80000e1c	006e6a63	bltu	x28,x6,80000e30	 x28:0x00000000  x6:0x80000959
       27955000	      2794	00000000	00000013	addi	x0,x0,0	  x0:0x00000000
       27965000	      2795	80000e2c	00000013	addi	x0,x0,0	  x0:0x00000000
       27975000	      2796	80000e30	00b131b3	sltu	x3,x2,x11	  x2:0x000007bf x11:0x98000000  x3=0x00000001
       27985000	      2797	80000e34	01941133	sll	x2,x8,x25	  x8:0x80009fc4 x25:0xc70e9000  x2=0x80009fc4
       27995000	      2798	80000e38	00b61663	bne	x12,x11,80000e44	 x12:0x80000adc x11:0x98000000
       28005000	      2799	00000000	00000013	addi	x0,x0,0	  x0:0x00000000
       28015000	      2800	80000e40	00000013	addi	x0,x0,0	  x0:0x00000000
       28025000	      2801	80000e44	0169d2b3	srl	x5,x19,x22	 x19:0x80000abc x22:0x7ffff574  x5=0x00000800
       28035000	      2802	80000e48	0263fc63	bgeu	x7,x6,80000e80	  x7:0x00000000  x6:0x80000959
       28045000	      2803	80000e4c	65057293	andi	x5,x10,1616	 x10:0x00000000  x5=0x00000000
       28055000	      2804	80000e50	012f5263	bge	x30,x18,80000e54	 x30:0x00000000 x18:0x00000000
       28065000	      2805	00000000	00000013	addi	x0,x0,0	  x0:0x00000000
       28075000	      2806	80000e50	00000013	addi	x0,x0,0	  x0:0x00000000
       28085000	      2807	80000e54	01a6d263	bge	x13,x26,80000e58	 x13:0x82fb3dfc x26:0x000000ff
       28095000	      2808	80000e58	00705b93	srli	x23,x0,0x7	  x0:0x00000000 x23=0x00000000
       28105000	      2809	80000e5c	02494193	xori	x3,x18,36	 x18:0x00000000  x3=0x00000024
       28115000	      2810	80000e60	00000013	addi	x0,x0,0	  x0:0x00000000
       28125000	      2811	80000e64	0082f7b3	and	x15,x5,x8	  x5:0x00000000  x8:0x80009fc4 x15=0x00000000
       28135000	      2812	80000e68	00cd9633	sll	x12,x27,x12	 x27:0x80009ecc x12:0x80000adc x12=0xc0000000
       28145000	      2813	80000e6c	11d22e93	slti	x29,x4,285	  x4:0x80000f5e x29=0x00000001
       28155000	      2814	80000e70	007cea33	or	x20,x25,x7	 x25:0xc70e9000  x7:0x00000000 x20=0xc70e9000
       28165000	      2815	80000e74	00681993	slli	x19,x16,0x6	 x16:0x00000000 x19=0x00000000
       28175000	      2816	80000e78	00000013	addi	x0,x0,0	  x0:0x00000000
       28185000	      2817	80000e7c	01089263	bne	x17,x16,80000e80	 x17:0x0000000c x16:0x00000000
       28195000	      2818	00000000	00000013	addi	x0,x0,0	  x0:0x00000000
       28205000	      2819	80000e7c	00000013	addi	x0,x0,0	  x0:0x00000000
       28215000	      2820	80000e80	008de463	bltu	x27,x8,80000e88	 x27:0x80009ecc  x8:0x80009fc4
       28225000	      2821	00000000	00000013	addi	x0,x0,0	  x0:0x00000000
       28235000	      2822	80000e84	00000013	addi	x0,x0,0	  x0:0x00000000
       28245000	      2823	80000e88	00bd1993	slli	x19,x26,0xb	 x26:0x000000ff x19=0x0007f800
       28255000	      2824	80000e8c	40bfd133	sra	x2,x31,x11	 x31:0x00000104 x11:0x98000000  x2=0x00000104
       28265000	      2825	80000e90	00f46e63	bltu	x8,x15,80000eac	  x8:0x80009fc4 x15:0x00000000
       28275000	      2826	80000e94	5e3db993	sltiu	x19,x27,1507	 x27:0x80009ecc x19=0x00000000
       28285000	      2827	80000e98	8b9ff313	andi	x6,x31,-1863	 x31:0x00000104  x6=0x00000000
       28295000	      2828	80000e9c	03627463	bgeu	x4,x22,80000ec4	  x4:0x80000f5e x22:0x7ffff574
       28305000	      2829	00000000	00000013	addi	x0,x0,0	  x0:0x00000000
       28315000	      2830	80000ec0	00000013	addi	x0,x0,0	  x0:0x00000000
       28325000	      2831	80000ec4	0130b0b3	sltu	x1,x1,x19	  x1:0x7ffff574 x19:0x00000000  x1=0x00000000
       28335000	      2832	80000ec8	0157f733	and	x14,x15,x21	 x15:0x00000000 x21:0x00000001 x14=0x00000000
       28345000	      2833	80000ecc	00000013	addi	x0,x0,0	  x0:0x00000000
       28355000	      2834	80000ed0	8817c013	xori	x0,x15,-1919	 x15:0x00000000
       28365000	      2835	80000ed4	eb0c2bb7	lui	x23,0xeb0c2	 x23=0xeb0c2000
       28375000	      2836	80000ed8	b4fe7f13	andi	x30,x28,-1201	 x28:0x00000000 x30=0x00000000
       28385000	      2837	80000edc	011fda63	bge	x31,x17,80000ef0	 x31:0x00000104 x17:0x0000000c
       28395000	      2838	00000000	00000013	addi	x0,x0,0	  x0:0x00000000
       28405000	      2839	80000eec	00000013	addi	x0,x0,0	  x0:0x00000000
       28415000	      2840	80000ef0	4b85bb93	sltiu	x23,x11,1208	 x11:0x98000000 x23=0x00000000
       28425000	      2841	80000ef4	c9f63a17	auipc	x20,0xc9f63	 x20=0x49f63ef0
       28435000	      2842	80000ef8	034bb513	sltiu	x10,x23,52	 x23:0x00000000 x10=0x00000001
       28445000	      2843	80000efc	01d24ab3	xor	x21,x4,x29	  x4:0x80000f5e x29:0x00000001 x21=0x80000f5f
       28455000	      2844	80000f00	072a8e63	beq	x21,x18,80000f7c	 x21:0x80000f5f x18:0x00000000
       28465000	      2845	80000f04	00851bb3	sll	x23,x10,x8	 x10:0x00000001  x8:0x80009fc4 x23=0x00000010
       28475000	      2846	80000f08	95f1f913	andi	x18,x3,-1697	  x3:0x00000024 x18=0x00000004
       28485000	      2847	80000f0c	0a6c32b7	lui	x5,0xa6c3	  x5=0x0a6c3000
       28495000	      2848	80000f10	0079c9b3	xor	x19,x19,x7	 x19:0x00000000  x7:0x00000000 x19=0x00000000
       28505000	      2849	80000f14	01161fb3	sll	x31,x12,x17	 x12:0xc0000000 x17:0x0000000c x31=0x00000000
       28515000	      2850	80000f18	0016d193	srli	x3,x13,0x1	 x13:0x82fb3dfc  x3=0x417d9efe
       28525000	      2851	80000f1c	000dee33	or	x28,x27,x0	 x27:0x80009ecc  x0:0x00000000 x28=0x80009ecc
       28535000	      2852	80000f20	00492533	slt	x10,x18,x4	 x18:0x00000004  x4:0x80000f5e x10=0x00000000
       28545000	      2853	80000f24	00f87c63	bgeu	x16,x15,80000f3c	 x16:0x00000000 x15:0x00000000
       28555000	      2854	00000000	00000013	addi	x0,x0,0	  x0:0x00000000
       28565000	      2855	80000f38	00000013	addi	x0,x0,0	  x0:0x00000000
       28575000	      2856	80000f3c	b9cff0ef	jal	x1,80000f3c	  x1=0x80000f3c
       28585000	      2857	00000000	00000013	addi	x0,x0,0	  x0:0x00000000
       28595000	      2858	800002d4	00000013	addi	x0,x0,0	  x0:0x00000000
       28605000	      2859	800002d8	01885863	bge	x16,x24,800002e8	 x16:0x00000000 x24:0x16f19000
       28615000	      2860	800002dc	006e8233	add	x4,x29,x6	 x29:0x00000001  x6:0x00000000  x4=0x00000001
       28625000	      2861	800002e0	40b65f13	srai	x30,x12,0xb	 x12:0xc0000000 x30=0xfff80000
       28635000	      2862	800002e4	017dae33	slt	x28,x27,x23	 x27:0x80009ecc x23:0x00000010 x28=0x00000001
       28645000	      2863	800002e8	fe8d8d93	addi	x27,x27,-24	 x27:0x80009ecc x27=0x80009eb4
       28655000	      2864	800002ec	4067db93	srai	x23,x15,0x6	 x15:0x00000000 x23=0x00000000
       28665000	      2865	800002f0	e4566c93	ori	x25,x12,-443	 x12:0xc0000000 x25=0xfffffe45
       28675000	      2866	800002f4	001adfb3	srl	x31,x21,x1	 x21:0x80000f5f  x1:0x80000f3c x31=0x00000008
       28685000	      2867	800002f8	001da223	sw	x1,4(x27)	 x27:0x80009eb4  x1:0x80000f3c PA:0x80009eb8
       28695000	      2868	800002fc	40490033	sub	x0,x18,x4	 x18:0x00000004  x4:0x00000001
       28705000	      2869	80000300	040000ef	jal	x1,80000300	  x1=0x80000300
       28715000	      2870	00000000	00000013	addi	x0,x0,0	  x0:0x00000000
       28725000	      2871	8000033c	00000013	addi	x0,x0,0	  x0:0x00000000
       28735000	      2872	80000340	ff9ff36f	jal	x6,80000340	  x6=0x80000340
       28745000	      2873	00000000	00000013	addi	x0,x0,0	  x0:0x00000000
       28755000	      2874	80000334	00000013	addi	x0,x0,0	  x0:0x00000000
       28765000	      2875	80000338	fd9ff0ef	jal	x1,80000338	  x1=0x80000338
       28775000	      2876	00000000	00000013	addi	x0,x0,0	  x0:0x00000000
       28785000	      2877	8000030c	00000013	addi	x0,x0,0	  x0:0x00000000
       28795000	      2878	80000310	0180026f	jal	x4,80000310	  x4=0x80000310
       28805000	      2879	00000000	00000013	addi	x0,x0,0	  x0:0x00000000
       28815000	      2880	80000324	00000013	addi	x0,x0,0	  x0:0x00000000
       28825000	      2881	80000328	fddff36f	jal	x6,80000328	  x6=0x80000328
       28835000	      2882	00000000	00000013	addi	x0,x0,0	  x0:0x00000000
       28845000	      2883	80000300	00000013	addi	x0,x0,0	  x0:0x00000000
       28855000	      2884	80000304	044000ef	jal	x1,80000304	  x1=0x80000304
       28865000	      2885	00000000	00000013	addi	x0,x0,0	  x0:0x00000000
       28875000	      2886	80000344	00000013	addi	x0,x0,0	  x0:0x00000000
       28885000	      2887	80000348	008000ef	jal	x1,80000348	  x1=0x80000348
       28895000	      2888	00000000	00000013	addi	x0,x0,0	  x0:0x00000000
       28905000	      2889	8000034c	00000013	addi	x0,x0,0	  x0:0x00000000
       28915000	      2890	80000350	ffdff36f	jal	x6,80000350	  x6=0x80000350
       28925000	      2891	00000000	00000013	addi	x0,x0,0	  x0:0x00000000
       28935000	      2892	80000348	00000013	addi	x0,x0,0	  x0:0x00000000
       28945000	      2893	8000034c	fd5ff0ef	jal	x1,8000034c	  x1=0x8000034c
       28955000	      2894	00000000	00000013	addi	x0,x0,0	  x0:0x00000000
       28965000	      2895	8000031c	00000013	addi	x0,x0,0	  x0:0x00000000
       28975000	      2896	80000320	fedff0ef	jal	x1,80000320	  x1=0x80000320
       28985000	      2897	00000000	00000013	addi	x0,x0,0	  x0:0x00000000
       28995000	      2898	80000308	00000013	addi	x0,x0,0	  x0:0x00000000
       29005000	      2899	8000030c	0100036f	jal	x6,8000030c	  x6=0x8000030c
       29015000	      2900	00000000	00000013	addi	x0,x0,0	  x0:0x00000000
       29025000	      2901	80000318	00000013	addi	x0,x0,0	  x0:0x00000000
       29035000	      2902	8000031c	018005ef	jal	x11,8000031c	 x11=0x8000031c
       29045000	      2903	00000000	00000013	addi	x0,x0,0	  x0:0x00000000
       29055000	      2904	80000330	00000013	addi	x0,x0,0	  x0:0x00000000
       29065000	      2905	80000334	ff9ff0ef	jal	x1,80000334	  x1=0x80000334
       29075000	      2906	00000000	00000013	addi	x0,x0,0	  x0:0x00000000
       29085000	      2907	80000328	00000013	addi	x0,x0,0	  x0:0x00000000
       29095000	      2908	8000032c	010000ef	jal	x1,8000032c	  x1=0x8000032c
       29105000	      2909	00000000	00000013	addi	x0,x0,0	  x0:0x00000000
       29115000	      2910	80000338	00000013	addi	x0,x0,0	  x0:0x00000000
       29125000	      2911	8000033c	fddff0ef	jal	x1,8000033c	  x1=0x8000033c
       29135000	      2912	00000000	00000013	addi	x0,x0,0	  x0:0x00000000
       29145000	      2913	80000314	00000013	addi	x0,x0,0	  x0:0x00000000
       29155000	      2914	80000318	018004ef	jal	x9,80000318	  x9=0x80000318
       29165000	      2915	00000000	00000013	addi	x0,x0,0	  x0:0x00000000
       29175000	      2916	8000032c	00000013	addi	x0,x0,0	  x0:0x00000000
       29185000	      2917	80000330	fe5ff0ef	jal	x1,80000330	  x1=0x80000330
       29195000	      2918	00000000	00000013	addi	x0,x0,0	  x0:0x00000000
       29205000	      2919	80000310	00000013	addi	x0,x0,0	  x0:0x00000000
       29215000	      2920	80000314	030000ef	jal	x1,80000314	  x1=0x80000314
       29225000	      2921	00000000	00000013	addi	x0,x0,0	  x0:0x00000000
       29235000	      2922	80000340	00000013	addi	x0,x0,0	  x0:0x00000000
       29245000	      2923	80000344	fc5ffbef	jal	x23,80000344	 x23=0x80000344
       29255000	      2924	00000000	00000013	addi	x0,x0,0	  x0:0x00000000
       29265000	      2925	80000304	00000013	addi	x0,x0,0	  x0:0x00000000
       29275000	      2926	80000308	01c0036f	jal	x6,80000308	  x6=0x80000308
       29285000	      2927	00000000	00000013	addi	x0,x0,0	  x0:0x00000000
       29295000	      2928	80000320	00000013	addi	x0,x0,0	  x0:0x00000000
       29305000	      2929	80000324	030005ef	jal	x11,80000324	 x11=0x80000324
       29315000	      2930	00000000	00000013	addi	x0,x0,0	  x0:0x00000000
       29325000	      2931	80000350	00000013	addi	x0,x0,0	  x0:0x00000000
       29335000	      2932	80000354	df194793	xori	x15,x18,-527	 x18:0x00000004 x15=0xfffffdf5
       29345000	      2933	80000358	024000ef	jal	x1,80000358	  x1=0x80000358
       29355000	      2934	00000000	00000013	addi	x0,x0,0	  x0:0x00000000
       29365000	      2935	80000378	00000013	addi	x0,x0,0	  x0:0x00000000
       29375000	      2936	8000037c	004007ef	jal	x15,8000037c	 x15=0x8000037c
       29385000	      2937	00000000	00000013	addi	x0,x0,0	  x0:0x00000000
       29395000	      2938	8000037c	00000013	addi	x0,x0,0	  x0:0x00000000
       29405000	      2939	80000380	014000ef	jal	x1,80000380	  x1=0x80000380
       29415000	      2940	00000000	00000013	addi	x0,x0,0	  x0:0x00000000
       29425000	      2941	80000390	00000013	addi	x0,x0,0	  x0:0x00000000
       29435000	      2942	80000394	ff9ffbef	jal	x23,80000394	 x23=0x80000394
       29445000	      2943	00000000	00000013	addi	x0,x0,0	  x0:0x00000000
       29455000	      2944	80000388	00000013	addi	x0,x0,0	  x0:0x00000000
       29465000	      2945	8000038c	00c000ef	jal	x1,8000038c	  x1=0x8000038c
       29475000	      2946	00000000	00000013	addi	x0,x0,0	  x0:0x00000000
       29485000	      2947	80000394	00000013	addi	x0,x0,0	  x0:0x00000000
       29495000	      2948	80000398	fd5ffd6f	jal	x26,80000398	 x26=0x80000398
       29505000	      2949	00000000	00000013	addi	x0,x0,0	  x0:0x00000000
       29515000	      2950	80000368	00000013	addi	x0,x0,0	  x0:0x00000000
       29525000	      2951	8000036c	ffdff2ef	jal	x5,8000036c	  x5=0x8000036c
       29535000	      2952	00000000	00000013	addi	x0,x0,0	  x0:0x00000000
       29545000	      2953	80000364	00000013	addi	x0,x0,0	  x0:0x00000000
       29555000	      2954	80000368	ff5ff2ef	jal	x5,80000368	  x5=0x80000368
       29565000	      2955	00000000	00000013	addi	x0,x0,0	  x0:0x00000000
       29575000	      2956	80000358	00000013	addi	x0,x0,0	  x0:0x00000000
       29585000	      2957	8000035c	0040036f	jal	x6,8000035c	  x6=0x8000035c
       29595000	      2958	00000000	00000013	addi	x0,x0,0	  x0:0x00000000
       29605000	      2959	8000035c	00000013	addi	x0,x0,0	  x0:0x00000000
       29615000	      2960	80000360	0300016f	jal	x2,80000360	  x2=0x80000360
       29625000	      2961	00000000	00000013	addi	x0,x0,0	  x0:0x00000000
       29635000	      2962	8000038c	00000013	addi	x0,x0,0	  x0:0x00000000
       29645000	      2963	80000390	fe5ff0ef	jal	x1,80000390	  x1=0x80000390
       29655000	      2964	00000000	00000013	addi	x0,x0,0	  x0:0x00000000
       29665000	      2965	80000370	00000013	addi	x0,x0,0	  x0:0x00000000
       29675000	      2966	80000374	ffdff36f	jal	x6,80000374	  x6=0x80000374
       29685000	      2967	00000000	00000013	addi	x0,x0,0	  x0:0x00000000
       29695000	      2968	8000036c	00000013	addi	x0,x0,0	  x0:0x00000000
       29705000	      2969	80000370	01400b6f	jal	x22,80000370	 x22=0x80000370
       29715000	      2970	00000000	00000013	addi	x0,x0,0	  x0:0x00000000
       29725000	      2971	80000380	00000013	addi	x0,x0,0	  x0:0x00000000
       29735000	      2972	80000384	00400aef	jal	x21,80000384	 x21=0x80000384
       29745000	      2973	00000000	00000013	addi	x0,x0,0	  x0:0x00000000
       29755000	      2974	80000384	00000013	addi	x0,x0,0	  x0:0x00000000
       29765000	      2975	80000388	fddff0ef	jal	x1,80000388	  x1=0x80000388
       29775000	      2976	00000000	00000013	addi	x0,x0,0	  x0:0x00000000
       29785000	      2977	80000360	00000013	addi	x0,x0,0	  x0:0x00000000
       29795000	      2978	80000364	01400c6f	jal	x24,80000364	 x24=0x80000364
       29805000	      2979	00000000	00000013	addi	x0,x0,0	  x0:0x00000000
       29815000	      2980	80000374	00000013	addi	x0,x0,0	  x0:0x00000000
       29825000	      2981	80000378	0240036f	jal	x6,80000378	  x6=0x80000378
       29835000	      2982	00000000	00000013	addi	x0,x0,0	  x0:0x00000000
       29845000	      2983	80000398	00000013	addi	x0,x0,0	  x0:0x00000000
       29855000	      2984	8000039c	00d76ab3	or	x21,x14,x13	 x14:0x00000000 x13:0x82fb3dfc x21=0x82fb3dfc
       29865000	      2985	800003a0	00000013	addi	x0,x0,0	  x0:0x00000000
       29875000	      2986	800003a4	040a0263	beq	x20,x0,800003e8	 x20:0x49f63ef0  x0:0x00000000
       29885000	      2987	800003a8	015567b3	or	x15,x10,x21	 x10:0x00000000 x21:0x82fb3dfc x15=0x82fb3dfc
       29895000	      2988	800003ac	019f5663	bge	x30,x25,800003b8	 x30:0xfff80000 x25:0xfffffe45
       29905000	      2989	800003b0	02304263	blt	x0,x3,800003d4	  x0:0x00000000  x3:0x417d9efe
       29915000	      2990	00000000	00000013	addi	x0,x0,0	  x0:0x00000000
       29925000	      2991	800003d0	00000013	addi	x0,x0,0	  x0:0x00000000
       29935000	      2992	800003d4	01c25f33	srl	x30,x4,x28	  x4:0x80000310 x28:0x00000001 x30=0x40000188
       29945000	      2993	800003d8	01f2e263	bltu	x5,x31,800003dc	  x5:0x80000368 x31:0x00000008
       29955000	      2994	800003dc	00cdf463	bgeu	x27,x12,800003e4	 x27:0x80009eb4 x12:0xc0000000
       29965000	      2995	800003e0	01c422b3	slt	x5,x8,x28	  x8:0x80009fc4 x28:0x00000001  x5=0x00000001
       29975000	      2996	800003e4	005ada63	bge	x21,x5,800003f8	 x21:0x82fb3dfc  x5:0x00000001
       29985000	      2997	800003e8	01945113	srli	x2,x8,0x19	  x8:0x80009fc4  x2=0x00000040
       29995000	      2998	800003ec	0169ecb3	or	x25,x19,x22	 x19:0x00000000 x22:0x80000370 x25=0x80000370
       30005000	      2999	800003f0	b255ca93	xori	x21,x11,-1243	 x11:0x80000324 x21=0x7ffff801
       30015000	      3000	800003f4	876d8a13	addi	x20,x27,-1930	 x27:0x80009eb4 x20=0x8000972a
       30025000	      3001	800003f8	057b6663	bltu	x22,x23,80000444	 x22:0x80000370 x23:0x80000394
       30035000	      3002	00000000	00000013	addi	x0,x0,0	  x0:0x00000000
       30045000	      3003	80000440	00000013	addi	x0,x0,0	  x0:0x00000000
       30055000	      3004	80000444	01ff2fb3	slt	x31,x30,x31	 x30:0x40000188 x31:0x00000008 x31=0x00000000
       30065000	      3005	80000448	0157aab3	slt	x21,x15,x21	 x15:0x82fb3dfc x21:0x7ffff801 x21=0x00000001
       30075000	      3006	8000044c	68756613	ori	x12,x10,1671	 x10:0x00000000 x12=0x00000687
       30085000	      3007	80000450	db356813	ori	x16,x10,-589	 x10:0x00000000 x16=0xfffffdb3
       30095000	      3008	80000454	01c0ea63	bltu	x1,x28,80000468	  x1:0x80000388 x28:0x00000001
       30105000	      3009	80000458	03316063	bltu	x2,x19,80000478	  x2:0x00000040 x19:0x00000000
       30115000	      3010	8000045c	7df74c93	xori	x25,x14,2015	 x14:0x00000000 x25=0x000007df
       30125000	      3011	80000460	038efc63	bgeu	x29,x24,80000498	 x29:0x00000001 x24:0x80000364
       30135000	      3012	80000464	d6223613	sltiu	x12,x4,-670	  x4:0x80000310 x12=0x00000001
       30145000	      3013	80000468	00bdfb33	and	x22,x27,x11	 x27:0x80009eb4 x11:0x80000324 x22=0x80000224
       30155000	      3014	8000046c	16543a13	sltiu	x20,x8,357	  x8:0x80009fc4 x20=0x00000000
       30165000	      3015	80000470	01128e63	beq	x5,x17,8000048c	  x5:0x00000001 x17:0x0000000c
       30175000	      3016	80000474	fd07e617	auipc	x12,0xfd07e	 x12=0x7d07e470
       30185000	      3017	80000478	04c85463	bge	x16,x12,800004c0	 x16:0xfffffdb3 x12:0x7d07e470
       30195000	      3018	8000047c	03a6c063	blt	x13,x26,8000049c	 x13:0x82fb3dfc x26:0x80000398
       30205000	      3019	80000480	8bf3e713	ori	x14,x7,-1857	  x7:0x00000000 x14=0xfffff8bf
       30215000	      3020	80000484	00518d33	add	x26,x3,x5	  x3:0x417d9efe  x5:0x00000001 x26=0x417d9eff
       30225000	      3021	80000488	02300e63	beq	x0,x3,800004c4	  x0:0x00000000  x3:0x417d9efe
       30235000	      3022	8000048c	41ffd5b3	sra	x11,x31,x31	 x31:0x00000000 x31:0x00000000 x11=0x00000000
       30245000	      3023	80000490	005f8cb3	add	x25,x31,x5	 x31:0x00000000  x5:0x00000001 x25=0x00000001
       30255000	      3024	80000494	01361913	slli	x18,x12,0x13	 x12:0x7d07e470 x18=0x23800000
       30265000	      3025	80000498	ed48e813	ori	x16,x17,-300	 x17:0x0000000c x16=0xfffffedc
       30275000	      3026	8000049c	82c47113	andi	x2,x8,-2004	  x8:0x80009fc4  x2=0x80009804
       30285000	      3027	800004a0	40b75eb3	sra	x29,x14,x11	 x14:0xfffff8bf x11:0x00000000 x29=0xfffff8bf
       30295000	      3028	800004a4	dc532c93	slti	x25,x6,-571	  x6:0x80000378 x25=0x00000001
       30305000	      3029	800004a8	541c9b97	auipc	x23,0x541c9	 x23=0xd41c94a4
       30315000	      3030	800004ac	01dccf33	xor	x30,x25,x29	 x25:0x00000001 x29:0xfffff8bf x30=0xfffff8be
       30325000	      3031	800004b0	00ade7b3	or	x15,x27,x10	 x27:0x80009eb4 x10:0x00000000 x15=0x80009eb4
       30335000	      3032	800004b4	00cc1e33	sll	x28,x24,x12	 x24:0x80000364 x12:0x7d07e470 x28=0x03640000
       30345000	      3033	800004b8	6cdd0313	addi	x6,x26,1741	 x26:0x417d9eff  x6=0x417da5cc
       30355000	      3034	800004bc	0181f0b3	and	x1,x3,x24	  x3:0x417d9efe x24:0x80000364  x1=0x00000264
       30365000	      3035	800004c0	01fc0533	add	x10,x24,x31	 x24:0x80000364 x31:0x00000000 x10=0x80000364
       30375000	      3036	800004c4	02037263	bgeu	x6,x0,800004e8	  x6:0x417da5cc  x0:0x00000000
       30385000	      3037	00000000	00000013	addi	x0,x0,0	  x0:0x00000000
       30395000	      3038	800004e4	00000013	addi	x0,x0,0	  x0:0x00000000
       30405000	      3039	800004e8	6efb6b93	ori	x23,x22,1775	 x22:0x80000224 x23=0x800006ef
       30415000	      3040	800004ec	95fc6c93	ori	x25,x24,-1697	 x24:0x80000364 x25=0xfffffb7f
       30425000	      3041	800004f0	000f92b3	sll	x5,x31,x0	 x31:0x00000000  x0:0x00000000  x5=0x00000000
       30435000	      3042	800004f4	5b61ef93	ori	x31,x3,1462	  x3:0x417d9efe x31=0x417d9ffe
       30445000	      3043	800004f8	007750b3	srl	x1,x14,x7	 x14:0xfffff8bf  x7:0x00000000  x1=0xfffff8bf
       30455000	      3044	800004fc	00546663	bltu	x8,x5,80000508	  x8:0x80009fc4  x5:0x00000000
       30465000	      3045	80000500	03e76863	bltu	x14,x30,80000530	 x14:0xfffff8bf x30:0xfffff8be
       30475000	      3046	80000504	410fdf33	sra	x30,x31,x16	 x31:0x417d9ffe x16:0xfffffedc x30=0x00000004
       30485000	      3047	80000508	a6e63137	lui	x2,0xa6e63	  x2=0xa6e63000
       30495000	      3048	8000050c	01b2d463	bge	x5,x27,80000514	  x5:0x00000000 x27:0x80009eb4
       30505000	      3049	00000000	00000013	addi	x0,x0,0	  x0:0x00000000
       30515000	      3050	80000510	00000013	addi	x0,x0,0	  x0:0x00000000
       30525000	      3051	80000514	02579663	bne	x15,x5,80000540	 x15:0x80009eb4  x5:0x00000000
       30535000	      3052	00000000	00000013	addi	x0,x0,0	  x0:0x00000000
       30545000	      3053	8000053c	00000013	addi	x0,x0,0	  x0:0x00000000
       30555000	      3054	80000540	017a2cb3	slt	x25,x20,x23	 x20:0x00000000 x23:0x800006ef x25=0x00000000
       30565000	      3055	80000544	055b0663	beq	x22,x21,80000590	 x22:0x80000224 x21:0x00000001
       30575000	      3056	80000548	00000013	addi	x0,x0,0	  x0:0x00000000
       30585000	      3057	8000054c	04d25463	bge	x4,x13,80000594	  x4:0x80000310 x13:0x82fb3dfc
       30595000	      3058	80000550	7e25ef93	ori	x31,x11,2018	 x11:0x00000000 x31=0x000007e2
       30605000	      3059	80000554	0f25b513	sltiu	x10,x11,242	 x11:0x00000000 x10=0x00000001
       30615000	      3060	80000558	010ab1b3	sltu	x3,x21,x16	 x21:0x00000001 x16:0xfffffedc  x3=0x00000001
       30625000	      3061	8000055c	416e5c33	sra	x24,x28,x22	 x28:0x03640000 x22:0x80000224 x24=0x00364000
       30635000	      3062	80000560	01fb1c93	slli	x25,x22,0x1f	 x22:0x80000224 x25=0x00000000
       30645000	      3063	80000564	f5d00713	addi	x14,x0,-163	  x0:0x00000000 x14=0xffffff5d
       30655000	      3064	80000568	40f7d2b3	sra	x5,x15,x15	 x15:0x80009eb4 x15:0x80009eb4  x5=0xfffff800
       30665000	      3065	8000056c	ee1b2313	slti	x6,x22,-287	 x22:0x80000224  x6=0x00000001
       30675000	      3066	80000570	77c88e93	addi	x29,x17,1916	 x17:0x0000000c x29=0x00000788
       30685000	      3067	80000574	02300663	beq	x0,x3,800005a0	  x0:0x00000000  x3:0x00000001
       30695000	      3068	80000578	00a2d993	srli	x19,x5,0xa	  x5:0xfffff800 x19=0x003ffffe
       30705000	      3069	8000057c	01e59233	sll	x4,x11,x30	 x11:0x00000000 x30:0x00000004  x4=0x00000000
       30715000	      3070	80000580	001441b3	xor	x3,x8,x1	  x8:0x80009fc4  x1:0xfffff8bf  x3=0x7fff677b
       30725000	      3071	80000584	034d1063	bne	x26,x20,800005a4	 x26:0x417d9eff x20:0x00000000
       30735000	      3072	00000000	00000013	addi	x0,x0,0	  x0:0x00000000
       30745000	      3073	800005a0	00000013	addi	x0,x0,0	  x0:0x00000000
       30755000	      3074	800005a4	4105d813	srai	x16,x11,0x10	 x11:0x00000000 x16=0x00000000
       30765000	      3075	800005a8	00aeb333	sltu	x6,x29,x10	 x29:0x00000788 x10:0x00000001  x6=0x00000000
       30775000	      3076	800005ac	018d5293	srli	x5,x26,0x18	 x26:0x417d9eff  x5=0x00000041
       30785000	      3077	800005b0	02a9c863	blt	x19,x10,800005e0	 x19:0x003ffffe x10:0x00000001
       30795000	      3078	800005b4	019facb3	slt	x25,x31,x25	 x31:0x000007e2 x25:0x00000000 x25=0x00000000
       30805000	      3079	800005b8	f09f9c97	auipc	x25,0xf09f9	 x25=0x709f95b4
       30815000	      3080	800005bc	41298333	sub	x6,x19,x18	 x19:0x003ffffe x18:0x23800000  x6=0xdcbffffe
       30825000	      3081	800005c0	3a538393	addi	x7,x7,933	  x7:0x00000000  x7=0x000003a5
       30835000	      3082	800005c4	406c0ab3	sub	x21,x24,x6	 x24:0x00364000  x6:0xdcbffffe x21=0x23764002
       30845000	      3083	800005c8	ebb04b97	auipc	x23,0xebb04	 x23=0x6bb045c4
       30855000	      3084	800005cc	0058dc93	srli	x25,x17,0x5	 x17:0x0000000c x25=0x00000000
       30865000	      3085	800005d0	385a3793	sltiu	x15,x20,901	 x20:0x00000000 x15=0x00000001
       30875000	      3086	800005d4	0cbe3993	sltiu	x19,x28,203	 x28:0x03640000 x19=0x00000000
       30885000	      3087	800005d8	004423b3	slt	x7,x8,x4	  x8:0x80009fc4  x4:0x00000000  x7=0x00000001
       30895000	      3088	800005dc	d75ee813	ori	x16,x29,-651	 x29:0x00000788 x16=0xfffffffd
       30905000	      3089	800005e0	40865e33	sra	x28,x12,x8	 x12:0x7d07e470  x8:0x80009fc4 x28=0x07d07e47
       30915000	      3090	800005e4	92b8f593	andi	x11,x17,-1749	 x17:0x0000000c x11=0x00000008
       30925000	      3091	800005e8	000f1293	slli	x5,x30,0x0	 x30:0x00000004  x5=0x00000004
       30935000	      3092	800005ec	db623017	auipc	x0,0xdb623	
       30945000	      3093	800005f0	004da083	lw	x1,4(x27)	 x27:0x80009eb4  x1=0x80000f3c PA:0x80009eb8
       30955000	      3094	800005f4	554be213	ori	x4,x23,1364	 x23:0x6bb045c4  x4=0x6bb045d4
       30965000	      3095	800005f8	018d8d93	addi	x27,x27,24	 x27:0x80009eb4 x27=0x80009ecc
       30975000	      3096	800005fc	3cb85a37	lui	x20,0x3cb85	 x20=0x3cb85000
       30985000	      3097	80000600	01b4b133	sltu	x2,x9,x27	  x9:0x80000318 x27:0x80009ecc  x2=0x00000001
       30995000	      3098	80000604	00008593	addi	x11,x1,0	  x1:0x80000f3c x11=0x80000f3c
       31005000	      3099	80000608	000585e7	jalr	x11,x11,0	 x11:0x80000f3c x11=0x80000608
       31015000	      3100	00000000	00000013	addi	x0,x0,0	  x0:0x00000000
       31025000	      3101	80000f3c	00000013	addi	x0,x0,0	  x0:0x00000000
       31035000	      3102	80000f40	00765a93	srli	x21,x12,0x7	 x12:0x7d07e470 x21=0x00fa0fc8
       31045000	      3103	80000f44	00221493	slli	x9,x4,0x2	  x4:0x6bb045d4  x9=0xaec11750
       31055000	      3104	80000f48	06eace13	xori	x28,x21,110	 x21:0x00fa0fc8 x28=0x00fa0fa6
       31065000	      3105	80000f4c	418e8c33	sub	x24,x29,x24	 x29:0x00000788 x24:0x00364000 x24=0xffc9c788
       31075000	      3106	80000f50	71316c93	ori	x25,x2,1811	  x2:0x00000001 x25=0x00000713
       31085000	      3107	80000f54	00000013	addi	x0,x0,0	  x0:0x00000000
       31095000	      3108	80000f58	004c80b3	add	x1,x25,x4	 x25:0x00000713  x4:0x6bb045d4  x1=0x6bb04ce7
       31105000	      3109	80000f5c	f4b92993	slti	x19,x18,-181	 x18:0x23800000 x19=0x00000000
       31115000	      3110	80000f60	01b0f463	bgeu	x1,x27,80000f68	  x1:0x6bb04ce7 x27:0x80009ecc
       31125000	      3111	80000f64	2a53c793	xori	x15,x7,677	  x7:0x00000001 x15=0x000002a4
       31135000	      3112	80000f68	be06ad13	slti	x26,x13,-1056	 x13:0x82fb3dfc x26=0x00000001
       31145000	      3113	80000f6c	02dd0263	beq	x26,x13,80000f90	 x26:0x00000001 x13:0x82fb3dfc
       31155000	      3114	80000f70	00eac663	blt	x21,x14,80000f7c	 x21:0x00fa0fc8 x14:0xffffff5d
       31165000	      3115	80000f74	80afeb13	ori	x22,x31,-2038	 x31:0x000007e2 x22=0xffffffea
       31175000	      3116	80000f78	00645033	srl	x0,x8,x6	  x8:0x80009fc4  x6:0xdcbffffe
       31185000	      3117	80000f7c	62b72293	slti	x5,x14,1579	 x14:0xffffff5d  x5=0x00000001
       31195000	      3118	80000f80	0c850263	beq	x10,x8,80001044	 x10:0x00000001  x8:0x80009fc4
       31205000	      3119	80000f84	01e06b33	or	x22,x0,x30	  x0:0x00000000 x30:0x00000004 x22=0x00000004
       31215000	      3120	80000f88	00c8a1b3	slt	x3,x17,x12	 x17:0x0000000c x12:0x7d07e470  x3=0x00000001
       31225000	      3121	80000f8c	01740333	add	x6,x8,x23	  x8:0x80009fc4 x23:0x6bb045c4  x6=0xebb0e588
       31235000	      3122	80000f90	01f00233	add	x4,x0,x31	  x0:0x00000000 x31:0x000007e2  x4=0x000007e2
       31245000	      3123	80000f94	01bb9033	sll	x0,x23,x27	 x23:0x6bb045c4 x27:0x80009ecc
       31255000	      3124	80000f98	414bd913	srai	x18,x23,0x14	 x23:0x6bb045c4 x18=0x000006bb
       31265000	      3125	80000f9c	01a9b633	sltu	x12,x19,x26	 x19:0x00000000 x26:0x00000001 x12=0x00000001
       31275000	      3126	80000fa0	5db58617	auipc	x12,0x5db58	 x12=0xddb58f9c
       31285000	      3127	80000fa4	efc26613	ori	x12,x4,-260	  x4:0x000007e2 x12=0xfffffffe
       31295000	      3128	80000fa8	10d07b13	andi	x22,x0,269	  x0:0x00000000 x22=0x00000000
       31305000	      3129	80000fac	b6a78b13	addi	x22,x15,-1174	 x15:0x000002a4 x22=0xfffffe0e
       31315000	      3130	80000fb0	0b9df063	bgeu	x27,x25,80001050	 x27:0x80009ecc x25:0x00000713
       31325000	      3131	00000000	00000013	addi	x0,x0,0	  x0:0x00000000
       31335000	      3132	8000104c	00000013	addi	x0,x0,0	  x0:0x00000000
       31345000	      3133	80001050	6b2ba493	slti	x9,x23,1714	 x23:0x6bb045c4  x9=0x00000000
       31355000	      3134	80001054	ebf7c393	xori	x7,x15,-321	 x15:0x000002a4  x7=0xfffffc1b
       31365000	      3135	80001058	04e59063	bne	x11,x14,80001098	 x11:0x80000608 x14:0xffffff5d
       31375000	      3136	00000000	00000013	addi	x0,x0,0	  x0:0x00000000
       31385000	      3137	80001094	00000013	addi	x0,x0,0	  x0:0x00000000
       31395000	      3138	80001098	04298863	beq	x19,x2,800010e8	 x19:0x00000000  x2:0x00000001
       31405000	      3139	8000109c	2195bb13	sltiu	x22,x11,537	 x11:0x80000608 x22=0x00000000
       31415000	      3140	800010a0	010687b3	add	x15,x13,x16	 x13:0x82fb3dfc x16:0xfffffffd x15=0x82fb3df9
       31425000	      3141	800010a4	40b486b3	sub	x13,x9,x11	  x9:0x00000000 x11:0x80000608 x13=0x7ffff9f8
       31435000	      3142	800010a8	0093c663	blt	x7,x9,800010b4	  x7:0xfffffc1b  x9:0x00000000
       31445000	      3143	00000000	00000013	addi	x0,x0,0	  x0:0x00000000
       31455000	      3144	800010b0	00000013	addi	x0,x0,0	  x0:0x00000000
       31465000	      3145	800010b4	024a8863	beq	x21,x4,800010e4	 x21:0x00fa0fc8  x4:0x000007e2
       31475000	      3146	800010b8	00502cb3	slt	x25,x0,x5	  x0:0x00000000  x5:0x00000001 x25=0x00000001
       31485000	      3147	800010bc	0138f633	and	x12,x17,x19	 x17:0x0000000c x19:0x00000000 x12=0x00000000
       31495000	      3148	800010c0	01552c33	slt	x24,x10,x21	 x10:0x00000001 x21:0x00fa0fc8 x24=0x00000001
       31505000	      3149	800010c4	00b8f2b3	and	x5,x17,x11	 x17:0x0000000c x11:0x80000608  x5=0x00000008
       31515000	      3150	800010c8	00ec6263	bltu	x24,x14,800010cc	 x24:0x00000001 x14:0xffffff5d
       31525000	      3151	00000000	00000013	addi	x0,x0,0	  x0:0x00000000
       31535000	      3152	800010c8	00000013	addi	x0,x0,0	  x0:0x00000000
       31545000	      3153	800010cc	00f076b3	and	x13,x0,x15	  x0:0x00000000 x15:0x82fb3df9 x13=0x00000000
       31555000	      3154	800010d0	01ee3033	sltu	x0,x28,x30	 x28:0x00fa0fa6 x30:0x00000004
       31565000	      3155	800010d4	413704b3	sub	x9,x14,x19	 x14:0xffffff5d x19:0x00000000  x9=0xffffff5d
       31575000	      3156	800010d8	41f7d593	srai	x11,x15,0x1f	 x15:0x82fb3df9 x11=0xffffffff
       31585000	      3157	800010dc	00d8de13	srli	x28,x17,0xd	 x17:0x0000000c x28=0x00000000
       31595000	      3158	800010e0	02a24463	blt	x4,x10,80001108	  x4:0x000007e2 x10:0x00000001
       31605000	      3159	800010e4	05999863	bne	x19,x25,80001134	 x19:0x00000000 x25:0x00000001
       31615000	      3160	00000000	00000013	addi	x0,x0,0	  x0:0x00000000
       31625000	      3161	80001130	00000013	addi	x0,x0,0	  x0:0x00000000
       31635000	      3162	80001134	8e0e6f17	auipc	x30,0x8e0e6	 x30=0x0e0e7130
       31645000	      3163	80001138	8c80fe93	andi	x29,x1,-1848	  x1:0x6bb04ce7 x29=0x6bb048c0
       31655000	      3164	8000113c	001e66b3	or	x13,x28,x1	 x28:0x00000000  x1:0x6bb04ce7 x13=0x6bb04ce7
       31665000	      3165	80001140	00000013	addi	x0,x0,0	  x0:0x00000000
       31675000	      3166	80001144	01ea4733	xor	x14,x20,x30	 x20:0x3cb85000 x30:0x0e0e7130 x14=0x32b62130
       31685000	      3167	80001148	cfac7713	andi	x14,x24,-774	 x24:0x00000001 x14=0x00000000
       31695000	      3168	8000114c	018702b3	add	x5,x14,x24	 x14:0x00000000 x24:0x00000001  x5=0x00000001
       31705000	      3169	80001150	00000013	addi	x0,x0,0	  x0:0x00000000
       31715000	      3170	80001154	0188d863	bge	x17,x24,80001164	 x17:0x0000000c x24:0x00000001
       31725000	      3171	00000000	00000013	addi	x0,x0,0	  x0:0x00000000
       31735000	      3172	80001160	00000013	addi	x0,x0,0	  x0:0x00000000
       31745000	      3173	80001164	3e426f13	ori	x30,x4,996	  x4:0x000007e2 x30=0x000007e6
       31755000	      3174	80001168	00000013	addi	x0,x0,0	  x0:0x00000000
       31765000	      3175	8000116c	01c4f333	and	x6,x9,x28	  x9:0xffffff5d x28:0x00000000  x6=0x00000000
       31775000	      3176	80001170	002edc33	srl	x24,x29,x2	 x29:0x6bb048c0  x2:0x00000001 x24=0x35d82460
       31785000	      3177	80001174	61aac393	xori	x7,x21,1562	 x21:0x00fa0fc8  x7=0x00fa09d2
       31795000	      3178	80001178	0029aeb3	slt	x29,x19,x2	 x19:0x00000000  x2:0x00000001 x29=0x00000001
       31805000	      3179	8000117c	01434133	xor	x2,x6,x20	  x6:0x00000000 x20:0x3cb85000  x2=0x3cb85000
       31815000	      3180	80001180	03e01663	bne	x0,x30,800011ac	  x0:0x00000000 x30:0x000007e6
       31825000	      3181	00000000	00000013	addi	x0,x0,0	  x0:0x00000000
       31835000	      3182	800011a8	00000013	addi	x0,x0,0	  x0:0x00000000
       31845000	      3183	800011ac	00df19b3	sll	x19,x30,x13	 x30:0x000007e6 x13:0x6bb04ce7 x19=0x0003f300
       31855000	      3184	800011b0	02db5c63	bge	x22,x13,800011e8	 x22:0x00000000 x13:0x6bb04ce7
       31865000	      3185	800011b4	02a41863	bne	x8,x10,800011e4	  x8:0x80009fc4 x10:0x00000001
       31875000	      3186	00000000	00000013	addi	x0,x0,0	  x0:0x00000000
       31885000	      3187	800011e0	00000013	addi	x0,x0,0	  x0:0x00000000
       31895000	      3188	800011e4	6ca84a13	xori	x20,x16,1738	 x16:0xfffffffd x20=0xfffff937
       31905000	      3189	800011e8	915eff93	andi	x31,x29,-1771	 x29:0x00000001 x31=0x00000001
       31915000	      3190	800011ec	dbbe3097	auipc	x1,0xdbbe3	  x1=0x5bbe41e8
       31925000	      3191	800011f0	004b2b33	slt	x22,x22,x4	 x22:0x00000000  x4:0x000007e2 x22=0x00000001
       31935000	      3192	800011f4	005bfeb3	and	x29,x23,x5	 x23:0x6bb045c4  x5:0x00000001 x29=0x00000000
       31945000	      3193	800011f8	5f812a93	slti	x21,x2,1528	  x2:0x3cb85000 x21=0x00000000
       31955000	      3194	800011fc	4150d513	srai	x10,x1,0x15	  x1:0x5bbe41e8 x10=0x000002dd
       31965000	      3195	80001200	401c57b3	sra	x15,x24,x1	 x24:0x35d82460  x1:0x5bbe41e8 x15=0x0035d824
       31975000	      3196	80001204	4369ff93	andi	x31,x19,1078	 x19:0x0003f300 x31=0x00000000
       31985000	      3197	80001208	33530593	addi	x11,x6,821	  x6:0x00000000 x11=0x00000335
       31995000	      3198	8000120c	1f7dee17	auipc	x28,0x1f7de	 x28=0x9f7df208
       32005000	      3199	80001210	01f7ea33	or	x20,x15,x31	 x15:0x0035d824 x31:0x00000000 x20=0x0035d824
       32015000	      3200	80001214	01751263	bne	x10,x23,80001218	 x10:0x000002dd x23:0x6bb045c4
       32025000	      3201	00000000	00000013	addi	x0,x0,0	  x0:0x00000000
       32035000	      3202	80001214	00000013	addi	x0,x0,0	  x0:0x00000000
       32045000	      3203	80001218	06beee63	bltu	x29,x11,80001294	 x29:0x00000000 x11:0x00000335
       32055000	      3204	00000000	00000013	addi	x0,x0,0	  x0:0x00000000
       32065000	      3205	80001290	00000013	addi	x0,x0,0	  x0:0x00000000
       32075000	      3206	80001294	56337f93	andi	x31,x6,1379	  x6:0x00000000 x31=0x00000000
       32085000	      3207	80001298	00000013	addi	x0,x0,0	  x0:0x00000000
       32095000	      3208	8000129c	00c29463	bne	x5,x12,800012a4	  x5:0x00000001 x12:0x00000000
       32105000	      3209	00000000	00000013	addi	x0,x0,0	  x0:0x00000000
       32115000	      3210	800012a0	00000013	addi	x0,x0,0	  x0:0x00000000
       32125000	      3211	800012a4	cecfbe93	sltiu	x29,x31,-788	 x31:0x00000000 x29=0x00000001
       32135000	      3212	800012a8	3a9fae13	slti	x28,x31,937	 x31:0x00000000 x28=0x00000001
       32145000	      3213	800012ac	01dd5fb3	srl	x31,x26,x29	 x26:0x00000001 x29:0x00000001 x31=0x00000000
       32155000	      3214	800012b0	31a17293	andi	x5,x2,794	  x2:0x3cb85000  x5=0x00000000
       32165000	      3215	800012b4	f3986293	ori	x5,x16,-199	 x16:0xfffffffd  x5=0xfffffffd
       32175000	      3216	800012b8	01447b33	and	x22,x8,x20	  x8:0x80009fc4 x20:0x0035d824 x22=0x00009804
       32185000	      3217	800012bc	01ef5a63	bge	x30,x30,800012d0	 x30:0x000007e6 x30:0x000007e6
       32195000	      3218	00000000	00000013	addi	x0,x0,0	  x0:0x00000000
       32205000	      3219	800012cc	00000013	addi	x0,x0,0	  x0:0x00000000
       32215000	      3220	800012d0	04b80063	beq	x16,x11,80001310	 x16:0xfffffffd x11:0x00000335
       32225000	      3221	800012d4	d41e7a37	lui	x20,0xd41e7	 x20=0xd41e7000
       32235000	      3222	800012d8	0148e833	or	x16,x17,x20	 x17:0x0000000c x20:0xd41e7000 x16=0xd41e700c
       32245000	      3223	800012dc	279d7f93	andi	x31,x26,633	 x26:0x00000001 x31=0x00000001
       32255000	      3224	800012e0	01866533	or	x10,x12,x24	 x12:0x00000000 x24:0x35d82460 x10=0x35d82460
       32265000	      3225	800012e4	41cfdc93	srai	x25,x31,0x1c	 x31:0x00000001 x25=0x00000000
       32275000	      3226	800012e8	413005b3	sub	x11,x0,x19	  x0:0x00000000 x19:0x0003f300 x11=0xfffc0d00
       32285000	      3227	800012ec	01d51293	slli	x5,x10,0x1d	 x10:0x35d82460  x5=0x00000000
       32295000	      3228	800012f0	01fdcbb3	xor	x23,x27,x31	 x27:0x80009ecc x31:0x00000001 x23=0x80009ecd
       32305000	      3229	800012f4	40f209b3	sub	x19,x4,x15	  x4:0x000007e2 x15:0x0035d824 x19=0xffca2fbe
       32315000	      3230	800012f8	00000013	addi	x0,x0,0	  x0:0x00000000
       32325000	      3231	800012fc	0028c463	blt	x17,x2,80001304	 x17:0x0000000c  x2:0x3cb85000
       32335000	      3232	00000000	00000013	addi	x0,x0,0	  x0:0x00000000
       32345000	      3233	80001300	00000013	addi	x0,x0,0	  x0:0x00000000
       32355000	      3234	80001304	3d5e59b7	lui	x19,0x3d5e5	 x19=0x3d5e5000
       32365000	      3235	80001308	20926013	ori	x0,x4,521	  x4:0x000007e2
       32375000	      3236	8000130c	01329033	sll	x0,x5,x19	  x5:0x00000000 x19:0x3d5e5000
       32385000	      3237	80001310	0174a4b3	slt	x9,x9,x23	  x9:0xffffff5d x23:0x80009ecd  x9=0x00000000
       32395000	      3238	80001314	05656863	bltu	x10,x22,80001364	 x10:0x35d82460 x22:0x00009804
       32405000	      3239	80001318	001ac463	blt	x21,x1,80001320	 x21:0x00000000  x1:0x5bbe41e8
       32415000	      3240	00000000	00000013	addi	x0,x0,0	  x0:0x00000000
       32425000	      3241	8000131c	00000013	addi	x0,x0,0	  x0:0x00000000
       32435000	      3242	80001320	91c88e13	addi	x28,x17,-1764	 x17:0x0000000c x28=0xfffff928
       32445000	      3243	80001324	03c07863	bgeu	x0,x28,80001354	  x0:0x00000000 x28:0xfffff928
       32455000	      3244	80001328	41f806b3	sub	x13,x16,x31	 x16:0xd41e700c x31:0x00000001 x13=0xd41e700b
       32465000	      3245	8000132c	04448863	beq	x9,x4,8000137c	  x9:0x00000000  x4:0x000007e2
       32475000	      3246	80001330	000c92b3	sll	x5,x25,x0	 x25:0x00000000  x0:0x00000000  x5=0x00000000
       32485000	      3247	80001334	41680fb3	sub	x31,x16,x22	 x16:0xd41e700c x22:0x00009804 x31=0xd41dd808
       32495000	      3248	80001338	f0e561b7	lui	x3,0xf0e56	  x3=0xf0e56000
       32505000	      3249	8000133c	41180a33	sub	x20,x16,x17	 x16:0xd41e700c x17:0x0000000c x20=0xd41e7000
       32515000	      3250	80001340	00b37e63	bgeu	x6,x11,8000135c	  x6:0x00000000 x11:0xfffc0d00
       32525000	      3251	80001344	002b4463	blt	x22,x2,8000134c	 x22:0x00009804  x2:0x3cb85000
       32535000	      3252	00000000	00000013	addi	x0,x0,0	  x0:0x00000000
       32545000	      3253	80001348	00000013	addi	x0,x0,0	  x0:0x00000000
       32555000	      3254	8000134c	00cc6263	bltu	x24,x12,80001350	 x24:0x35d82460 x12:0x00000000
       32565000	      3255	80001350	01e41f93	slli	x31,x8,0x1e	  x8:0x80009fc4 x31=0x00000000
       32575000	      3256	80001354	01745933	srl	x18,x8,x23	  x8:0x80009fc4 x23:0x80009ecd x18=0x00040004
       32585000	      3257	80001358	2604eb13	ori	x22,x9,608	  x9:0x00000000 x22=0x00000260
       32595000	      3258	8000135c	ec5c6993	ori	x19,x24,-315	 x24:0x35d82460 x19=0xfffffee5
       32605000	      3259	80001360	f9af2813	slti	x16,x30,-102	 x30:0x000007e6 x16=0x00000000
       32615000	      3260	80001364	01135c33	srl	x24,x6,x17	  x6:0x00000000 x17:0x0000000c x24=0x00000000
       32625000	      3261	80001368	00f4a4b3	slt	x9,x9,x15	  x9:0x00000000 x15:0x0035d824  x9=0x00000001
       32635000	      3262	8000136c	006ae663	bltu	x21,x6,80001378	 x21:0x00000000  x6:0x00000000
       32645000	      3263	80001370	09a48eb7	lui	x29,0x9a48	 x29=0x09a48000
       32655000	      3264	80001374	01db0ab3	add	x21,x22,x29	 x22:0x00000260 x29:0x09a48000 x21=0x09a48260
       32665000	      3265	80001378	7fdcf213	andi	x4,x25,2045	 x25:0x00000000  x4=0x00000000
       32675000	      3266	8000137c	1c3e96b7	lui	x13,0x1c3e9	 x13=0x1c3e9000
       32685000	      3267	80001380	05c91063	bne	x18,x28,800013c0	 x18:0x00040004 x28:0xfffff928
       32695000	      3268	00000000	00000013	addi	x0,x0,0	  x0:0x00000000
       32705000	      3269	800013bc	00000013	addi	x0,x0,0	  x0:0x00000000
       32715000	      3270	800013c0	407555b3	sra	x11,x10,x7	 x10:0x35d82460  x7:0x00fa09d2 x11=0x00000d76
       32725000	      3271	800013c4	001f30b3	sltu	x1,x30,x1	 x30:0x000007e6  x1:0x5bbe41e8  x1=0x00000001
       32735000	      3272	800013c8	008fd463	bge	x31,x8,800013d0	 x31:0x00000000  x8:0x80009fc4
       32745000	      3273	00000000	00000013	addi	x0,x0,0	  x0:0x00000000
       32755000	      3274	800013cc	00000013	addi	x0,x0,0	  x0:0x00000000
       32765000	      3275	800013d0	41c901b3	sub	x3,x18,x28	 x18:0x00040004 x28:0xfffff928  x3=0x000406dc
       32775000	      3276	800013d4	0019c733	xor	x14,x19,x1	 x19:0xfffffee5  x1:0x00000001 x14=0xfffffee4
       32785000	      3277	800013d8	40748733	sub	x14,x9,x7	  x9:0x00000001  x7:0x00fa09d2 x14=0xff05f62f
       32795000	      3278	800013dc	0040eab3	or	x21,x1,x4	  x1:0x00000001  x4:0x00000000 x21=0x00000001
       32805000	      3279	800013e0	01b24a63	blt	x4,x27,800013f4	  x4:0x00000000 x27:0x80009ecc
       32815000	      3280	800013e4	f22ba813	slti	x16,x23,-222	 x23:0x80009ecd x16=0x00000001
       32825000	      3281	800013e8	00000013	addi	x0,x0,0	  x0:0x00000000
       32835000	      3282	800013ec	0216ec63	bltu	x13,x1,80001424	 x13:0x1c3e9000  x1:0x00000001
       32845000	      3283	800013f0	02da9863	bne	x21,x13,80001420	 x21:0x00000001 x13:0x1c3e9000
       32855000	      3284	00000000	00000013	addi	x0,x0,0	  x0:0x00000000
       32865000	      3285	8000141c	00000013	addi	x0,x0,0	  x0:0x00000000
       32875000	      3286	80001420	01f973b3	and	x7,x18,x31	 x18:0x00040004 x31:0x00000000  x7=0x00000000
       32885000	      3287	80001424	00865133	srl	x2,x12,x8	 x12:0x00000000  x8:0x80009fc4  x2=0x00000000
       32895000	      3288	80001428	001e1033	sll	x0,x28,x1	 x28:0xfffff928  x1:0x00000001
       32905000	      3289	8000142c	034de663	bltu	x27,x20,80001458	 x27:0x80009ecc x20:0xd41e7000
       32915000	      3290	00000000	00000013	addi	x0,x0,0	  x0:0x00000000
       32925000	      3291	80001454	00000013	addi	x0,x0,0	  x0:0x00000000
       32935000	      3292	80001458	a4049a97	auipc	x21,0xa4049	 x21=0x2404a454
       32945000	      3293	8000145c	00a4d513	srli	x10,x9,0xa	  x9:0x00000001 x10=0x00000000
       32955000	      3294	80001460	83d30193	addi	x3,x6,-1987	  x6:0x00000000  x3=0xfffff83d
       32965000	      3295	80001464	fffffc97	auipc	x25,0xfffff	 x25=0x80000460
       32975000	      3296	80001468	e74c8c93	addi	x25,x25,-396	 x25:0x80000460 x25=0x800002d4
       32985000	      3297	8000146c	d894d2b7	lui	x5,0xd894d	  x5=0xd894d000
       32995000	      3298	80001470	015ee5b3	or	x11,x29,x21	 x29:0x09a48000 x21:0x2404a454 x11=0x2da4a454
       33005000	      3299	80001474	004ab733	sltu	x14,x21,x4	 x21:0x2404a454  x4:0x00000000 x14=0x00000000
       33015000	      3300	80001478	01351133	sll	x2,x10,x19	 x10:0x00000000 x19:0xfffffee5  x2=0x00000000
       33025000	      3301	8000147c	796af0b7	lui	x1,0x796af	  x1=0x796af000
       33035000	      3302	80001480	40a98533	sub	x10,x19,x10	 x19:0xfffffee5 x10:0x00000000 x10=0xfffffee5
       33045000	      3303	80001484	072c8c93	addi	x25,x25,114	 x25:0x800002d4 x25=0x80000346
       33055000	      3304	80001488	7ecd2037	lui	x0,0x7ecd2	
       33065000	      3305	8000148c	f8ec80e7	jalr	x1,x25,-114	 x25:0x80000346  x1=0x8000148c
       33075000	      3306	00000000	00000013	addi	x0,x0,0	  x0:0x00000000
       33085000	      3307	800002d4	00000013	addi	x0,x0,0	  x0:0x00000000
       33095000	      3308	800002d8	01885863	bge	x16,x24,800002e8	 x16:0x00000001 x24:0x00000000
       33105000	      3309	00000000	00000013	addi	x0,x0,0	  x0:0x00000000
       33115000	      3310	800002e4	00000013	addi	x0,x0,0	  x0:0x00000000
       33125000	      3311	800002e8	fe8d8d93	addi	x27,x27,-24	 x27:0x80009ecc x27=0x80009eb4
       33135000	      3312	800002ec	4067db93	srai	x23,x15,0x6	 x15:0x0035d824 x23=0x0000d760
       33145000	      3313	800002f0	e4566c93	ori	x25,x12,-443	 x12:0x00000000 x25=0xfffffe45
       33155000	      3314	800002f4	001adfb3	srl	x31,x21,x1	 x21:0x2404a454  x1:0x8000148c x31=0x0002404a
       33165000	      3315	800002f8	001da223	sw	x1,4(x27)	 x27:0x80009eb4  x1:0x8000148c PA:0x80009eb8
       33175000	      3316	800002fc	40490033	sub	x0,x18,x4	 x18:0x00040004  x4:0x00000000
       33185000	      3317	80000300	040000ef	jal	x1,80000300	  x1=0x80000300
       33195000	      3318	00000000	00000013	addi	x0,x0,0	  x0:0x00000000
       33205000	      3319	8000033c	00000013	addi	x0,x0,0	  x0:0x00000000
       33215000	      3320	80000340	ff9ff36f	jal	x6,80000340	  x6=0x80000340
       33225000	      3321	00000000	00000013	addi	x0,x0,0	  x0:0x00000000
       33235000	      3322	80000334	00000013	addi	x0,x0,0	  x0:0x00000000
       33245000	      3323	80000338	fd9ff0ef	jal	x1,80000338	  x1=0x80000338
       33255000	      3324	00000000	00000013	addi	x0,x0,0	  x0:0x00000000
       33265000	      3325	8000030c	00000013	addi	x0,x0,0	  x0:0x00000000
       33275000	      3326	80000310	0180026f	jal	x4,80000310	  x4=0x80000310
       33285000	      3327	00000000	00000013	addi	x0,x0,0	  x0:0x00000000
       33295000	      3328	80000324	00000013	addi	x0,x0,0	  x0:0x00000000
       33305000	      3329	80000328	fddff36f	jal	x6,80000328	  x6=0x80000328
       33315000	      3330	00000000	00000013	addi	x0,x0,0	  x0:0x00000000
       33325000	      3331	80000300	00000013	addi	x0,x0,0	  x0:0x00000000
       33335000	      3332	80000304	044000ef	jal	x1,80000304	  x1=0x80000304
       33345000	      3333	00000000	00000013	addi	x0,x0,0	  x0:0x00000000
       33355000	      3334	80000344	00000013	addi	x0,x0,0	  x0:0x00000000
       33365000	      3335	80000348	008000ef	jal	x1,80000348	  x1=0x80000348
       33375000	      3336	00000000	00000013	addi	x0,x0,0	  x0:0x00000000
       33385000	      3337	8000034c	00000013	addi	x0,x0,0	  x0:0x00000000
       33395000	      3338	80000350	ffdff36f	jal	x6,80000350	  x6=0x80000350
       33405000	      3339	00000000	00000013	addi	x0,x0,0	  x0:0x00000000
       33415000	      3340	80000348	00000013	addi	x0,x0,0	  x0:0x00000000
       33425000	      3341	8000034c	fd5ff0ef	jal	x1,8000034c	  x1=0x8000034c
       33435000	      3342	00000000	00000013	addi	x0,x0,0	  x0:0x00000000
       33445000	      3343	8000031c	00000013	addi	x0,x0,0	  x0:0x00000000
       33455000	      3344	80000320	fedff0ef	jal	x1,80000320	  x1=0x80000320
       33465000	      3345	00000000	00000013	addi	x0,x0,0	  x0:0x00000000
       33475000	      3346	80000308	00000013	addi	x0,x0,0	  x0:0x00000000
       33485000	      3347	8000030c	0100036f	jal	x6,8000030c	  x6=0x8000030c
       33495000	      3348	00000000	00000013	addi	x0,x0,0	  x0:0x00000000
       33505000	      3349	80000318	00000013	addi	x0,x0,0	  x0:0x00000000
       33515000	      3350	8000031c	018005ef	jal	x11,8000031c	 x11=0x8000031c
       33525000	      3351	00000000	00000013	addi	x0,x0,0	  x0:0x00000000
       33535000	      3352	80000330	00000013	addi	x0,x0,0	  x0:0x00000000
       33545000	      3353	80000334	ff9ff0ef	jal	x1,80000334	  x1=0x80000334
       33555000	      3354	00000000	00000013	addi	x0,x0,0	  x0:0x00000000
       33565000	      3355	80000328	00000013	addi	x0,x0,0	  x0:0x00000000
       33575000	      3356	8000032c	010000ef	jal	x1,8000032c	  x1=0x8000032c
       33585000	      3357	00000000	00000013	addi	x0,x0,0	  x0:0x00000000
       33595000	      3358	80000338	00000013	addi	x0,x0,0	  x0:0x00000000
       33605000	      3359	8000033c	fddff0ef	jal	x1,8000033c	  x1=0x8000033c
       33615000	      3360	00000000	00000013	addi	x0,x0,0	  x0:0x00000000
       33625000	      3361	80000314	00000013	addi	x0,x0,0	  x0:0x00000000
       33635000	      3362	80000318	018004ef	jal	x9,80000318	  x9=0x80000318
       33645000	      3363	00000000	00000013	addi	x0,x0,0	  x0:0x00000000
       33655000	      3364	8000032c	00000013	addi	x0,x0,0	  x0:0x00000000
       33665000	      3365	80000330	fe5ff0ef	jal	x1,80000330	  x1=0x80000330
       33675000	      3366	00000000	00000013	addi	x0,x0,0	  x0:0x00000000
       33685000	      3367	80000310	00000013	addi	x0,x0,0	  x0:0x00000000
       33695000	      3368	80000314	030000ef	jal	x1,80000314	  x1=0x80000314
       33705000	      3369	00000000	00000013	addi	x0,x0,0	  x0:0x00000000
       33715000	      3370	80000340	00000013	addi	x0,x0,0	  x0:0x00000000
       33725000	      3371	80000344	fc5ffbef	jal	x23,80000344	 x23=0x80000344
       33735000	      3372	00000000	00000013	addi	x0,x0,0	  x0:0x00000000
       33745000	      3373	80000304	00000013	addi	x0,x0,0	  x0:0x00000000
       33755000	      3374	80000308	01c0036f	jal	x6,80000308	  x6=0x80000308
       33765000	      3375	00000000	00000013	addi	x0,x0,0	  x0:0x00000000
       33775000	      3376	80000320	00000013	addi	x0,x0,0	  x0:0x00000000
       33785000	      3377	80000324	030005ef	jal	x11,80000324	 x11=0x80000324
       33795000	      3378	00000000	00000013	addi	x0,x0,0	  x0:0x00000000
       33805000	      3379	80000350	00000013	addi	x0,x0,0	  x0:0x00000000
       33815000	      3380	80000354	df194793	xori	x15,x18,-527	 x18:0x00040004 x15=0xfffbfdf5
       33825000	      3381	80000358	024000ef	jal	x1,80000358	  x1=0x80000358
       33835000	      3382	00000000	00000013	addi	x0,x0,0	  x0:0x00000000
       33845000	      3383	80000378	00000013	addi	x0,x0,0	  x0:0x00000000
       33855000	      3384	8000037c	004007ef	jal	x15,8000037c	 x15=0x8000037c
       33865000	      3385	00000000	00000013	addi	x0,x0,0	  x0:0x00000000
       33875000	      3386	8000037c	00000013	addi	x0,x0,0	  x0:0x00000000
       33885000	      3387	80000380	014000ef	jal	x1,80000380	  x1=0x80000380
       33895000	      3388	00000000	00000013	addi	x0,x0,0	  x0:0x00000000
       33905000	      3389	80000390	00000013	addi	x0,x0,0	  x0:0x00000000
       33915000	      3390	80000394	ff9ffbef	jal	x23,80000394	 x23=0x80000394
       33925000	      3391	00000000	00000013	addi	x0,x0,0	  x0:0x00000000
       33935000	      3392	80000388	00000013	addi	x0,x0,0	  x0:0x00000000
       33945000	      3393	8000038c	00c000ef	jal	x1,8000038c	  x1=0x8000038c
       33955000	      3394	00000000	00000013	addi	x0,x0,0	  x0:0x00000000
       33965000	      3395	80000394	00000013	addi	x0,x0,0	  x0:0x00000000
       33975000	      3396	80000398	fd5ffd6f	jal	x26,80000398	 x26=0x80000398
       33985000	      3397	00000000	00000013	addi	x0,x0,0	  x0:0x00000000
       33995000	      3398	80000368	00000013	addi	x0,x0,0	  x0:0x00000000
       34005000	      3399	8000036c	ffdff2ef	jal	x5,8000036c	  x5=0x8000036c
       34015000	      3400	00000000	00000013	addi	x0,x0,0	  x0:0x00000000
       34025000	      3401	80000364	00000013	addi	x0,x0,0	  x0:0x00000000
       34035000	      3402	80000368	ff5ff2ef	jal	x5,80000368	  x5=0x80000368
       34045000	      3403	00000000	00000013	addi	x0,x0,0	  x0:0x00000000
       34055000	      3404	80000358	00000013	addi	x0,x0,0	  x0:0x00000000
       34065000	      3405	8000035c	0040036f	jal	x6,8000035c	  x6=0x8000035c
       34075000	      3406	00000000	00000013	addi	x0,x0,0	  x0:0x00000000
       34085000	      3407	8000035c	00000013	addi	x0,x0,0	  x0:0x00000000
       34095000	      3408	80000360	0300016f	jal	x2,80000360	  x2=0x80000360
       34105000	      3409	00000000	00000013	addi	x0,x0,0	  x0:0x00000000
       34115000	      3410	8000038c	00000013	addi	x0,x0,0	  x0:0x00000000
       34125000	      3411	80000390	fe5ff0ef	jal	x1,80000390	  x1=0x80000390
       34135000	      3412	00000000	00000013	addi	x0,x0,0	  x0:0x00000000
       34145000	      3413	80000370	00000013	addi	x0,x0,0	  x0:0x00000000
       34155000	      3414	80000374	ffdff36f	jal	x6,80000374	  x6=0x80000374
       34165000	      3415	00000000	00000013	addi	x0,x0,0	  x0:0x00000000
       34175000	      3416	8000036c	00000013	addi	x0,x0,0	  x0:0x00000000
       34185000	      3417	80000370	01400b6f	jal	x22,80000370	 x22=0x80000370
       34195000	      3418	00000000	00000013	addi	x0,x0,0	  x0:0x00000000
       34205000	      3419	80000380	00000013	addi	x0,x0,0	  x0:0x00000000
       34215000	      3420	80000384	00400aef	jal	x21,80000384	 x21=0x80000384
       34225000	      3421	00000000	00000013	addi	x0,x0,0	  x0:0x00000000
       34235000	      3422	80000384	00000013	addi	x0,x0,0	  x0:0x00000000
       34245000	      3423	80000388	fddff0ef	jal	x1,80000388	  x1=0x80000388
       34255000	      3424	00000000	00000013	addi	x0,x0,0	  x0:0x00000000
       34265000	      3425	80000360	00000013	addi	x0,x0,0	  x0:0x00000000
       34275000	      3426	80000364	01400c6f	jal	x24,80000364	 x24=0x80000364
       34285000	      3427	00000000	00000013	addi	x0,x0,0	  x0:0x00000000
       34295000	      3428	80000374	00000013	addi	x0,x0,0	  x0:0x00000000
       34305000	      3429	80000378	0240036f	jal	x6,80000378	  x6=0x80000378
       34315000	      3430	00000000	00000013	addi	x0,x0,0	  x0:0x00000000
       34325000	      3431	80000398	00000013	addi	x0,x0,0	  x0:0x00000000
       34335000	      3432	8000039c	00d76ab3	or	x21,x14,x13	 x14:0x00000000 x13:0x1c3e9000 x21=0x1c3e9000
       34345000	      3433	800003a0	00000013	addi	x0,x0,0	  x0:0x00000000
       34355000	      3434	800003a4	040a0263	beq	x20,x0,800003e8	 x20:0xd41e7000  x0:0x00000000
       34365000	      3435	800003a8	015567b3	or	x15,x10,x21	 x10:0xfffffee5 x21:0x1c3e9000 x15=0xfffffee5
       34375000	      3436	800003ac	019f5663	bge	x30,x25,800003b8	 x30:0x000007e6 x25:0xfffffe45
       34385000	      3437	00000000	00000013	addi	x0,x0,0	  x0:0x00000000
       34395000	      3438	800003b4	00000013	addi	x0,x0,0	  x0:0x00000000
       34405000	      3439	800003b8	0463d463	bge	x7,x6,80000400	  x7:0x00000000  x6:0x80000378
       34415000	      3440	00000000	00000013	addi	x0,x0,0	  x0:0x00000000
       34425000	      3441	800003fc	00000013	addi	x0,x0,0	  x0:0x00000000
       34435000	      3442	80000400	fc0fea13	ori	x20,x31,-64	 x31:0x0002404a x20=0xffffffca
       34445000	      3443	80000404	00335a63	bge	x6,x3,80000418	  x6:0x80000378  x3:0xfffff83d
       34455000	      3444	80000408	5a79e093	ori	x1,x19,1447	 x19:0xfffffee5  x1=0xffffffe7
       34465000	      3445	8000040c	02aef663	bgeu	x29,x10,80000438	 x29:0x09a48000 x10:0xfffffee5
       34475000	      3446	80000410	c6f1b313	sltiu	x6,x3,-913	  x3:0xfffff83d  x6=0x00000001
       34485000	      3447	80000414	00216133	or	x2,x2,x2	  x2:0x80000360  x2:0x80000360  x2=0x80000360
       34495000	      3448	80000418	000e1d13	slli	x26,x28,0x0	 x28:0xfffff928 x26=0xfffff928
       34505000	      3449	8000041c	014afb33	and	x22,x21,x20	 x21:0x1c3e9000 x20:0xffffffca x22=0x1c3e9000
       34515000	      3450	80000420	d0cebf93	sltiu	x31,x29,-756	 x29:0x09a48000 x31=0x00000001
       34525000	      3451	80000424	349c6793	ori	x15,x24,841	 x24:0x80000364 x15=0x8000036d
       34535000	      3452	80000428	05f58463	beq	x11,x31,80000470	 x11:0x80000324 x31:0x00000001
       34545000	      3453	8000042c	7ce0b997	auipc	x19,0x7ce0b	 x19=0xfce0b428
       34555000	      3454	80000430	0156ce63	blt	x13,x21,8000044c	 x13:0x1c3e9000 x21:0x1c3e9000
       34565000	      3455	80000434	41fc5d13	srai	x26,x24,0x1f	 x24:0x80000364 x26=0xffffffff
       34575000	      3456	80000438	040d8063	beq	x27,x0,80000478	 x27:0x80009eb4  x0:0x00000000
       34585000	      3457	8000043c	01a0c9b3	xor	x19,x1,x26	  x1:0xffffffe7 x26:0xffffffff x19=0x00000018
       34595000	      3458	80000440	0f7cf313	andi	x6,x25,247	 x25:0xfffffe45  x6=0x00000045
       34605000	      3459	80000444	01ff2fb3	slt	x31,x30,x31	 x30:0x000007e6 x31:0x00000001 x31=0x00000000
       34615000	      3460	80000448	0157aab3	slt	x21,x15,x21	 x15:0x8000036d x21:0x1c3e9000 x21=0x00000001
       34625000	      3461	8000044c	68756613	ori	x12,x10,1671	 x10:0xfffffee5 x12=0xfffffee7
       34635000	      3462	80000450	db356813	ori	x16,x10,-589	 x10:0xfffffee5 x16=0xfffffff7
       34645000	      3463	80000454	01c0ea63	bltu	x1,x28,80000468	  x1:0xffffffe7 x28:0xfffff928
       34655000	      3464	80000458	03316063	bltu	x2,x19,80000478	  x2:0x80000360 x19:0x00000018
       34665000	      3465	8000045c	7df74c93	xori	x25,x14,2015	 x14:0x00000000 x25=0x000007df
       34675000	      3466	80000460	038efc63	bgeu	x29,x24,80000498	 x29:0x09a48000 x24:0x80000364
       34685000	      3467	80000464	d6223613	sltiu	x12,x4,-670	  x4:0x80000310 x12=0x00000001
       34695000	      3468	80000468	00bdfb33	and	x22,x27,x11	 x27:0x80009eb4 x11:0x80000324 x22=0x80000224
       34705000	      3469	8000046c	16543a13	sltiu	x20,x8,357	  x8:0x80009fc4 x20=0x00000000
       34715000	      3470	80000470	01128e63	beq	x5,x17,8000048c	  x5:0x80000368 x17:0x0000000c
       34725000	      3471	80000474	fd07e617	auipc	x12,0xfd07e	 x12=0x7d07e470
       34735000	      3472	80000478	04c85463	bge	x16,x12,800004c0	 x16:0xfffffff7 x12:0x7d07e470
       34745000	      3473	8000047c	03a6c063	blt	x13,x26,8000049c	 x13:0x1c3e9000 x26:0xffffffff
       34755000	      3474	80000480	8bf3e713	ori	x14,x7,-1857	  x7:0x00000000 x14=0xfffff8bf
       34765000	      3475	80000484	00518d33	add	x26,x3,x5	  x3:0xfffff83d  x5:0x80000368 x26=0x7ffffba5
       34775000	      3476	80000488	02300e63	beq	x0,x3,800004c4	  x0:0x00000000  x3:0xfffff83d
       34785000	      3477	8000048c	41ffd5b3	sra	x11,x31,x31	 x31:0x00000000 x31:0x00000000 x11=0x00000000
       34795000	      3478	80000490	005f8cb3	add	x25,x31,x5	 x31:0x00000000  x5:0x80000368 x25=0x80000368
       34805000	      3479	80000494	01361913	slli	x18,x12,0x13	 x12:0x7d07e470 x18=0x23800000
       34815000	      3480	80000498	ed48e813	ori	x16,x17,-300	 x17:0x0000000c x16=0xfffffedc
       34825000	      3481	8000049c	82c47113	andi	x2,x8,-2004	  x8:0x80009fc4  x2=0x80009804
       34835000	      3482	800004a0	40b75eb3	sra	x29,x14,x11	 x14:0xfffff8bf x11:0x00000000 x29=0xfffff8bf
       34845000	      3483	800004a4	dc532c93	slti	x25,x6,-571	  x6:0x00000045 x25=0x00000000
       34855000	      3484	800004a8	541c9b97	auipc	x23,0x541c9	 x23=0xd41c94a4
       34865000	      3485	800004ac	01dccf33	xor	x30,x25,x29	 x25:0x00000000 x29:0xfffff8bf x30=0xfffff8bf
       34875000	      3486	800004b0	00ade7b3	or	x15,x27,x10	 x27:0x80009eb4 x10:0xfffffee5 x15=0xfffffef5
       34885000	      3487	800004b4	00cc1e33	sll	x28,x24,x12	 x24:0x80000364 x12:0x7d07e470 x28=0x03640000
       34895000	      3488	800004b8	6cdd0313	addi	x6,x26,1741	 x26:0x7ffffba5  x6=0x80000272
       34905000	      3489	800004bc	0181f0b3	and	x1,x3,x24	  x3:0xfffff83d x24:0x80000364  x1=0x80000024
       34915000	      3490	800004c0	01fc0533	add	x10,x24,x31	 x24:0x80000364 x31:0x00000000 x10=0x80000364
       34925000	      3491	800004c4	02037263	bgeu	x6,x0,800004e8	  x6:0x80000272  x0:0x00000000
       34935000	      3492	00000000	00000013	addi	x0,x0,0	  x0:0x00000000
       34945000	      3493	800004e4	00000013	addi	x0,x0,0	  x0:0x00000000
       34955000	      3494	800004e8	6efb6b93	ori	x23,x22,1775	 x22:0x80000224 x23=0x800006ef
       34965000	      3495	800004ec	95fc6c93	ori	x25,x24,-1697	 x24:0x80000364 x25=0xfffffb7f
       34975000	      3496	800004f0	000f92b3	sll	x5,x31,x0	 x31:0x00000000  x0:0x00000000  x5=0x00000000
       34985000	      3497	800004f4	5b61ef93	ori	x31,x3,1462	  x3:0xfffff83d x31=0xfffffdbf
       34995000	      3498	800004f8	007750b3	srl	x1,x14,x7	 x14:0xfffff8bf  x7:0x00000000  x1=0xfffff8bf
       35005000	      3499	800004fc	00546663	bltu	x8,x5,80000508	  x8:0x80009fc4  x5:0x00000000
       35015000	      3500	80000500	03e76863	bltu	x14,x30,80000530	 x14:0xfffff8bf x30:0xfffff8bf
       35025000	      3501	80000504	410fdf33	sra	x30,x31,x16	 x31:0xfffffdbf x16:0xfffffedc x30=0xffffffff
       35035000	      3502	80000508	a6e63137	lui	x2,0xa6e63	  x2=0xa6e63000
       35045000	      3503	8000050c	01b2d463	bge	x5,x27,80000514	  x5:0x00000000 x27:0x80009eb4
       35055000	      3504	00000000	00000013	addi	x0,x0,0	  x0:0x00000000
       35065000	      3505	80000510	00000013	addi	x0,x0,0	  x0:0x00000000
       35075000	      3506	80000514	02579663	bne	x15,x5,80000540	 x15:0xfffffef5  x5:0x00000000
       35085000	      3507	00000000	00000013	addi	x0,x0,0	  x0:0x00000000
       35095000	      3508	8000053c	00000013	addi	x0,x0,0	  x0:0x00000000
       35105000	      3509	80000540	017a2cb3	slt	x25,x20,x23	 x20:0x00000000 x23:0x800006ef x25=0x00000000
       35115000	      3510	80000544	055b0663	beq	x22,x21,80000590	 x22:0x80000224 x21:0x00000001
       35125000	      3511	80000548	00000013	addi	x0,x0,0	  x0:0x00000000
       35135000	      3512	8000054c	04d25463	bge	x4,x13,80000594	  x4:0x80000310 x13:0x1c3e9000
       35145000	      3513	80000550	7e25ef93	ori	x31,x11,2018	 x11:0x00000000 x31=0x000007e2
       35155000	      3514	80000554	0f25b513	sltiu	x10,x11,242	 x11:0x00000000 x10=0x00000001
       35165000	      3515	80000558	010ab1b3	sltu	x3,x21,x16	 x21:0x00000001 x16:0xfffffedc  x3=0x00000001
       35175000	      3516	8000055c	416e5c33	sra	x24,x28,x22	 x28:0x03640000 x22:0x80000224 x24=0x00364000
       35185000	      3517	80000560	01fb1c93	slli	x25,x22,0x1f	 x22:0x80000224 x25=0x00000000
       35195000	      3518	80000564	f5d00713	addi	x14,x0,-163	  x0:0x00000000 x14=0xffffff5d
       35205000	      3519	80000568	40f7d2b3	sra	x5,x15,x15	 x15:0xfffffef5 x15:0xfffffef5  x5=0xffffffff
       35215000	      3520	8000056c	ee1b2313	slti	x6,x22,-287	 x22:0x80000224  x6=0x00000001
       35225000	      3521	80000570	77c88e93	addi	x29,x17,1916	 x17:0x0000000c x29=0x00000788
       35235000	      3522	80000574	02300663	beq	x0,x3,800005a0	  x0:0x00000000  x3:0x00000001
       35245000	      3523	80000578	00a2d993	srli	x19,x5,0xa	  x5:0xffffffff x19=0x003fffff
       35255000	      3524	8000057c	01e59233	sll	x4,x11,x30	 x11:0x00000000 x30:0xffffffff  x4=0x00000000
       35265000	      3525	80000580	001441b3	xor	x3,x8,x1	  x8:0x80009fc4  x1:0xfffff8bf  x3=0x7fff677b
       35275000	      3526	80000584	034d1063	bne	x26,x20,800005a4	 x26:0x7ffffba5 x20:0x00000000
       35285000	      3527	00000000	00000013	addi	x0,x0,0	  x0:0x00000000
       35295000	      3528	800005a0	00000013	addi	x0,x0,0	  x0:0x00000000
       35305000	      3529	800005a4	4105d813	srai	x16,x11,0x10	 x11:0x00000000 x16=0x00000000
       35315000	      3530	800005a8	00aeb333	sltu	x6,x29,x10	 x29:0x00000788 x10:0x00000001  x6=0x00000000
       35325000	      3531	800005ac	018d5293	srli	x5,x26,0x18	 x26:0x7ffffba5  x5=0x0000007f
       35335000	      3532	800005b0	02a9c863	blt	x19,x10,800005e0	 x19:0x003fffff x10:0x00000001
       35345000	      3533	800005b4	019facb3	slt	x25,x31,x25	 x31:0x000007e2 x25:0x00000000 x25=0x00000000
       35355000	      3534	800005b8	f09f9c97	auipc	x25,0xf09f9	 x25=0x709f95b4
       35365000	      3535	800005bc	41298333	sub	x6,x19,x18	 x19:0x003fffff x18:0x23800000  x6=0xdcbfffff
       35375000	      3536	800005c0	3a538393	addi	x7,x7,933	  x7:0x00000000  x7=0x000003a5
       35385000	      3537	800005c4	406c0ab3	sub	x21,x24,x6	 x24:0x00364000  x6:0xdcbfffff x21=0x23764001
       35395000	      3538	800005c8	ebb04b97	auipc	x23,0xebb04	 x23=0x6bb045c4
       35405000	      3539	800005cc	0058dc93	srli	x25,x17,0x5	 x17:0x0000000c x25=0x00000000
       35415000	      3540	800005d0	385a3793	sltiu	x15,x20,901	 x20:0x00000000 x15=0x00000001
       35425000	      3541	800005d4	0cbe3993	sltiu	x19,x28,203	 x28:0x03640000 x19=0x00000000
       35435000	      3542	800005d8	004423b3	slt	x7,x8,x4	  x8:0x80009fc4  x4:0x00000000  x7=0x00000001
       35445000	      3543	800005dc	d75ee813	ori	x16,x29,-651	 x29:0x00000788 x16=0xfffffffd
       35455000	      3544	800005e0	40865e33	sra	x28,x12,x8	 x12:0x7d07e470  x8:0x80009fc4 x28=0x07d07e47
       35465000	      3545	800005e4	92b8f593	andi	x11,x17,-1749	 x17:0x0000000c x11=0x00000008
       35475000	      3546	800005e8	000f1293	slli	x5,x30,0x0	 x30:0xffffffff  x5=0xffffffff
       35485000	      3547	800005ec	db623017	auipc	x0,0xdb623	
       35495000	      3548	800005f0	004da083	lw	x1,4(x27)	 x27:0x80009eb4  x1=0x8000148c PA:0x80009eb8
       35505000	      3549	800005f4	554be213	ori	x4,x23,1364	 x23:0x6bb045c4  x4=0x6bb045d4
       35515000	      3550	800005f8	018d8d93	addi	x27,x27,24	 x27:0x80009eb4 x27=0x80009ecc
       35525000	      3551	800005fc	3cb85a37	lui	x20,0x3cb85	 x20=0x3cb85000
       35535000	      3552	80000600	01b4b133	sltu	x2,x9,x27	  x9:0x80000318 x27:0x80009ecc  x2=0x00000001
       35545000	      3553	80000604	00008593	addi	x11,x1,0	  x1:0x8000148c x11=0x8000148c
       35555000	      3554	80000608	000585e7	jalr	x11,x11,0	 x11:0x8000148c x11=0x80000608
       35565000	      3555	00000000	00000013	addi	x0,x0,0	  x0:0x00000000
       35575000	      3556	8000148c	00000013	addi	x0,x0,0	  x0:0x00000000
       35585000	      3557	80001490	00b02733	slt	x14,x0,x11	  x0:0x00000000 x11:0x80000608 x14=0x00000000
       35595000	      3558	80001494	9efd47b7	lui	x15,0x9efd4	 x15=0x9efd4000
       35605000	      3559	80001498	417005b3	sub	x11,x0,x23	  x0:0x00000000 x23:0x6bb045c4 x11=0x944fba3c
       35615000	      3560	8000149c	408f86b3	sub	x13,x31,x8	 x31:0x000007e2  x8:0x80009fc4 x13=0x7fff681e
       35625000	      3561	800014a0	a9fa2517	auipc	x10,0xa9fa2	 x10=0x29fa349c
       35635000	      3562	800014a4	00000013	addi	x0,x0,0	  x0:0x00000000
       35645000	      3563	800014a8	00d429b3	slt	x19,x8,x13	  x8:0x80009fc4 x13:0x7fff681e x19=0x00000001
       35655000	      3564	800014ac	01745e93	srli	x29,x8,0x17	  x8:0x80009fc4 x29=0x00000100
       35665000	      3565	800014b0	9cb17313	andi	x6,x2,-1589	  x2:0x00000001  x6=0x00000001
       35675000	      3566	800014b4	01f49013	slli	x0,x9,0x1f	  x9:0x80000318
       35685000	      3567	800014b8	0060b333	sltu	x6,x1,x6	  x1:0x8000148c  x6:0x00000001  x6=0x00000000
       35695000	      3568	800014bc	0049c263	blt	x19,x4,800014c0	 x19:0x00000001  x4:0x6bb045d4
       35705000	      3569	00000000	00000013	addi	x0,x0,0	  x0:0x00000000
       35715000	      3570	800014bc	00000013	addi	x0,x0,0	  x0:0x00000000
       35725000	      3571	800014c0	01bea4b3	slt	x9,x29,x27	 x29:0x00000100 x27:0x80009ecc  x9=0x00000000
       35735000	      3572	800014c4	4be40297	auipc	x5,0x4be40	  x5=0xcbe414c0
       35745000	      3573	800014c8	004d9f93	slli	x31,x27,0x4	 x27:0x80009ecc x31=0x0009ecc0
       35755000	      3574	800014cc	ffad0737	lui	x14,0xffad0	 x14=0xffad0000
       35765000	      3575	800014d0	00a65d33	srl	x26,x12,x10	 x12:0x7d07e470 x10:0x29fa349c x26=0x00000007
       35775000	      3576	800014d4	cec4bb13	sltiu	x22,x9,-788	  x9:0x00000000 x22=0x00000001
       35785000	      3577	800014d8	00783f33	sltu	x30,x16,x7	 x16:0xfffffffd  x7:0x00000001 x30=0x00000000
       35795000	      3578	800014dc	6daa6f37	lui	x30,0x6daa6	 x30=0x6daa6000
       35805000	      3579	800014e0	003ef3b3	and	x7,x29,x3	 x29:0x00000100  x3:0x7fff677b  x7=0x00000100
       35815000	      3580	800014e4	00469693	slli	x13,x13,0x4	 x13:0x7fff681e x13=0xfff681e0
       35825000	      3581	800014e8	0079e133	or	x2,x19,x7	 x19:0x00000001  x7:0x00000100  x2=0x00000101
       35835000	      3582	800014ec	01be9f93	slli	x31,x29,0x1b	 x29:0x00000100 x31=0x00000000
       35845000	      3583	800014f0	0173fbb3	and	x23,x7,x23	  x7:0x00000100 x23:0x6bb045c4 x23=0x00000100
       35855000	      3584	800014f4	007a1bb3	sll	x23,x20,x7	 x20:0x3cb85000  x7:0x00000100 x23=0x3cb85000
       35865000	      3585	800014f8	05fae863	bltu	x21,x31,80001548	 x21:0x23764001 x31:0x00000000
       35875000	      3586	800014fc	4cf46093	ori	x1,x8,1231	  x8:0x80009fc4  x1=0x80009fcf
       35885000	      3587	80001500	00445a13	srli	x20,x8,0x4	  x8:0x80009fc4 x20=0x080009fc
       35895000	      3588	80001504	0032c663	blt	x5,x3,80001510	  x5:0xcbe414c0  x3:0x7fff677b
       35905000	      3589	00000000	00000013	addi	x0,x0,0	  x0:0x00000000
       35915000	      3590	8000150c	00000013	addi	x0,x0,0	  x0:0x00000000
       35925000	      3591	80001510	050bf063	bgeu	x23,x16,80001550	 x23:0x3cb85000 x16:0xfffffffd
       35935000	      3592	80001514	00000013	addi	x0,x0,0	  x0:0x00000000
       35945000	      3593	80001518	0529d863	bge	x19,x18,80001568	 x19:0x00000001 x18:0x23800000
       35955000	      3594	8000151c	01640c33	add	x24,x8,x22	  x8:0x80009fc4 x22:0x00000001 x24=0x80009fc5
       35965000	      3595	80001520	00000013	addi	x0,x0,0	  x0:0x00000000
       35975000	      3596	80001524	40000ab3	sub	x21,x0,x0	  x0:0x00000000  x0:0x00000000 x21=0x00000000
       35985000	      3597	80001528	40425933	sra	x18,x4,x4	  x4:0x6bb045d4  x4:0x6bb045d4 x18=0x000006bb
       35995000	      3598	8000152c	012af263	bgeu	x21,x18,80001530	 x21:0x00000000 x18:0x000006bb
       36005000	      3599	80001530	bea9ac93	slti	x25,x19,-1046	 x19:0x00000001 x25=0x00000000
       36015000	      3600	80001534	02748663	beq	x9,x7,80001560	  x9:0x00000000  x7:0x00000100
       36025000	      3601	80001538	019696b3	sll	x13,x13,x25	 x13:0xfff681e0 x25:0x00000000 x13=0xfff681e0
       36035000	      3602	8000153c	712dcc93	xori	x25,x27,1810	 x27:0x80009ecc x25=0x800099de
       36045000	      3603	80001540	00000013	addi	x0,x0,0	  x0:0x00000000
       36055000	      3604	80001544	02588463	beq	x17,x5,8000156c	 x17:0x0000000c  x5:0xcbe414c0
       36065000	      3605	80001548	1dc114b7	lui	x9,0x1dc11	  x9=0x1dc11000
       36075000	      3606	8000154c	013f8863	beq	x31,x19,8000155c	 x31:0x00000000 x19:0x00000001
       36085000	      3607	80001550	053a9863	bne	x21,x19,800015a0	 x21:0x00000000 x19:0x00000001
       36095000	      3608	00000000	00000013	addi	x0,x0,0	  x0:0x00000000
       36105000	      3609	8000159c	00000013	addi	x0,x0,0	  x0:0x00000000
       36115000	      3610	800015a0	008886b3	add	x13,x17,x8	 x17:0x0000000c  x8:0x80009fc4 x13=0x80009fd0
       36125000	      3611	800015a4	12cf8513	addi	x10,x31,300	 x31:0x00000000 x10=0x0000012c
       36135000	      3612	800015a8	0044d133	srl	x2,x9,x4	  x9:0x1dc11000  x4:0x6bb045d4  x2=0x000001dc
       36145000	      3613	800015ac	01f09b33	sll	x22,x1,x31	  x1:0x80009fcf x31:0x00000000 x22=0x80009fcf
       36155000	      3614	800015b0	00275993	srli	x19,x14,0x2	 x14:0xffad0000 x19=0x3feb4000
       36165000	      3615	800015b4	ecc94537	lui	x10,0xecc94	 x10=0xecc94000
       36175000	      3616	800015b8	02d19663	bne	x3,x13,800015e4	  x3:0x7fff677b x13:0x80009fd0
       36185000	      3617	00000000	00000013	addi	x0,x0,0	  x0:0x00000000
       36195000	      3618	800015e0	00000013	addi	x0,x0,0	  x0:0x00000000
       36205000	      3619	800015e4	03d8e463	bltu	x17,x29,8000160c	 x17:0x0000000c x29:0x00000100
       36215000	      3620	00000000	00000013	addi	x0,x0,0	  x0:0x00000000
       36225000	      3621	80001608	00000013	addi	x0,x0,0	  x0:0x00000000
       36235000	      3622	8000160c	00e26b33	or	x22,x4,x14	  x4:0x6bb045d4 x14:0xffad0000 x22=0xffbd45d4
       36245000	      3623	80001610	001df5b3	and	x11,x27,x1	 x27:0x80009ecc  x1:0x80009fcf x11=0x80009ecc
       36255000	      3624	80001614	41e1d813	srai	x16,x3,0x1e	  x3:0x7fff677b x16=0x00000001
       36265000	      3625	80001618	418959b3	sra	x19,x18,x24	 x18:0x000006bb x24:0x80009fc5 x19=0x00000035
       36275000	      3626	8000161c	40b1d493	srai	x9,x3,0xb	  x3:0x7fff677b  x9=0x000fffec
       36285000	      3627	80001620	02a2c663	blt	x5,x10,8000164c	  x5:0xcbe414c0 x10:0xecc94000
       36295000	      3628	00000000	00000013	addi	x0,x0,0	  x0:0x00000000
       36305000	      3629	80001648	00000013	addi	x0,x0,0	  x0:0x00000000
       36315000	      3630	8000164c	00000013	addi	x0,x0,0	  x0:0x00000000
       36325000	      3631	80001650	00a2d393	srli	x7,x5,0xa	  x5:0xcbe414c0  x7=0x0032f905
       36335000	      3632	80001654	001d4d33	xor	x26,x26,x1	 x26:0x00000007  x1:0x80009fcf x26=0x80009fc8
       36345000	      3633	80001658	df4e8397	auipc	x7,0xdf4e8	  x7=0x5f4e9654
       36355000	      3634	8000165c	0101d4b3	srl	x9,x3,x16	  x3:0x7fff677b x16:0x00000001  x9=0x3fffb3bd
       36365000	      3635	80001660	0121d863	bge	x3,x18,80001670	  x3:0x7fff677b x18:0x000006bb
       36375000	      3636	00000000	00000013	addi	x0,x0,0	  x0:0x00000000
       36385000	      3637	8000166c	00000013	addi	x0,x0,0	  x0:0x00000000
       36395000	      3638	80001670	015fd7b3	srl	x15,x31,x21	 x31:0x00000000 x21:0x00000000 x15=0x00000000
       36405000	      3639	80001674	00839c33	sll	x24,x7,x8	  x7:0x5f4e9654  x8:0x80009fc4 x24=0xf4e96540
       36415000	      3640	80001678	6f4ff237	lui	x4,0x6f4ff	  x4=0x6f4ff000
       36425000	      3641	8000167c	02898a63	beq	x19,x8,800016b0	 x19:0x00000035  x8:0x80009fc4
       36435000	      3642	80001680	00f30c33	add	x24,x6,x15	  x6:0x00000000 x15:0x00000000 x24=0x00000000
       36445000	      3643	80001684	41dc5a13	srai	x20,x24,0x1d	 x24:0x00000000 x20=0x00000000
       36455000	      3644	80001688	01e7ea63	bltu	x15,x30,8000169c	 x15:0x00000000 x30:0x6daa6000
       36465000	      3645	00000000	00000013	addi	x0,x0,0	  x0:0x00000000
       36475000	      3646	80001698	00000013	addi	x0,x0,0	  x0:0x00000000
       36485000	      3647	8000169c	dd0e3f13	sltiu	x30,x28,-560	 x28:0x07d07e47 x30=0x00000001
       36495000	      3648	800016a0	004c7a33	and	x20,x24,x4	 x24:0x00000000  x4:0x6f4ff000 x20=0x00000000
       36505000	      3649	800016a4	40ec5493	srai	x9,x24,0xe	 x24:0x00000000  x9=0x00000000
       36515000	      3650	800016a8	00cb9693	slli	x13,x23,0xc	 x23:0x3cb85000 x13=0x85000000
       36525000	      3651	800016ac	dd93d217	auipc	x4,0xdd93d	  x4=0x5d93e6a8
       36535000	      3652	800016b0	61384693	xori	x13,x16,1555	 x16:0x00000001 x13=0x00000612
       36545000	      3653	800016b4	d1a9a813	slti	x16,x19,-742	 x19:0x00000035 x16=0x00000000
       36555000	      3654	800016b8	401881b3	sub	x3,x17,x1	 x17:0x0000000c  x1:0x80009fcf  x3=0x7fff603d
       36565000	      3655	800016bc	0454d063	bge	x9,x5,800016fc	  x9:0x00000000  x5:0xcbe414c0
       36575000	      3656	00000000	00000013	addi	x0,x0,0	  x0:0x00000000
       36585000	      3657	800016f8	00000013	addi	x0,x0,0	  x0:0x00000000
       36595000	      3658	800016fc	02a24f93	xori	x31,x4,42	  x4:0x5d93e6a8 x31=0x5d93e682
       36605000	      3659	80001700	25457c13	andi	x24,x10,596	 x10:0xecc94000 x24=0x00000000
       36615000	      3660	80001704	014f5593	srli	x11,x30,0x14	 x30:0x00000001 x11=0x00000000
       36625000	      3661	80001708	004da083	lw	x1,4(x27)	 x27:0x80009ecc  x1=0x800023d4 PA:0x80009ed0
       36635000	      3662	8000170c	00e59113	slli	x2,x11,0xe	 x11:0x00000000  x2=0x00000000
       36645000	      3663	80001710	0070cab3	xor	x21,x1,x7	  x1:0x800023d4  x7:0x5f4e9654 x21=0xdf4eb580
       36655000	      3664	80001714	03cd8d93	addi	x27,x27,60	 x27:0x80009ecc x27=0x80009f08
       36665000	      3665	80001718	019a3ab3	sltu	x21,x20,x25	 x20:0x00000000 x25:0x800099de x21=0x00000001
       36675000	      3666	8000171c	00d11913	slli	x18,x2,0xd	  x2:0x00000000 x18=0x00000000
       36685000	      3667	80001720	cf684793	xori	x15,x16,-778	 x16:0x00000000 x15=0xfffffcf6
       36695000	      3668	80001724	005ca3b3	slt	x7,x25,x5	 x25:0x800099de  x5:0xcbe414c0  x7=0x00000001
       36705000	      3669	80001728	56b96193	ori	x3,x18,1387	 x18:0x00000000  x3=0x0000056b
       36715000	      3670	8000172c	007623b3	slt	x7,x12,x7	 x12:0x7d07e470  x7:0x00000001  x7=0x00000000
       36725000	      3671	80001730	00108993	addi	x19,x1,1	  x1:0x800023d4 x19=0x800023d5
       36735000	      3672	80001734	000989e7	jalr	x19,x19,0	 x19:0x800023d5 x19=0x80001734
       36745000	      3673	00000000	00000013	addi	x0,x0,0	  x0:0x00000000
       36755000	      3674	800023d4	00000013	addi	x0,x0,0	  x0:0x00000000
       36765000	      3675	800023d8	fea50f13	addi	x30,x10,-22	 x10:0xecc94000 x30=0xecc93fea
       36775000	      3676	800023dc	41948133	sub	x2,x9,x25	  x9:0x00000000 x25:0x800099de  x2=0x7fff6622
       36785000	      3677	800023e0	0e40b813	sltiu	x16,x1,228	  x1:0x800023d4 x16=0x00000000
       36795000	      3678	800023e4	41065793	srai	x15,x12,0x10	 x12:0x7d07e470 x15=0x00007d07
       36805000	      3679	800023e8	69bb4f93	xori	x31,x22,1691	 x22:0xffbd45d4 x31=0xffbd434f
       36815000	      3680	800023ec	00d8d3b3	srl	x7,x17,x13	 x17:0x0000000c x13:0x00000612  x7=0x00000000
       36825000	      3681	800023f0	6ba0c193	xori	x3,x1,1722	  x1:0x800023d4  x3=0x8000256e
       36835000	      3682	800023f4	6b2f6793	ori	x15,x30,1714	 x30:0xecc93fea x15=0xecc93ffa
       36845000	      3683	800023f8	00502033	slt	x0,x0,x5	  x0:0x00000000  x5:0xcbe414c0
       36855000	      3684	800023fc	40efdc93	srai	x25,x31,0xe	 x31:0xffbd434f x25=0xfffffef5
       36865000	      3685	80002400	01d94863	blt	x18,x29,80002410	 x18:0x00000000 x29:0x00000100
       36875000	      3686	00000000	00000013	addi	x0,x0,0	  x0:0x00000000
       36885000	      3687	8000240c	00000013	addi	x0,x0,0	  x0:0x00000000
       36895000	      3688	80002410	018b6e33	or	x28,x22,x24	 x22:0xffbd45d4 x24:0x00000000 x28=0xffbd45d4
       36905000	      3689	80002414	41f0d193	srai	x3,x1,0x1f	  x1:0x800023d4  x3=0xffffffff
       36915000	      3690	80002418	cd2b6b13	ori	x22,x22,-814	 x22:0xffbd45d4 x22=0xfffffdd6
       36925000	      3691	8000241c	014f7fb3	and	x31,x30,x20	 x30:0xecc93fea x20:0x00000000 x31=0x00000000
       36935000	      3692	80002420	033d5263	bge	x26,x19,80002444	 x26:0x80009fc8 x19:0x80001734
       36945000	      3693	00000000	00000013	addi	x0,x0,0	  x0:0x00000000
       36955000	      3694	80002440	00000013	addi	x0,x0,0	  x0:0x00000000
       36965000	      3695	80002444	e59c6313	ori	x6,x24,-423	 x24:0x00000000  x6=0xfffffe59
       36975000	      3696	80002448	011d9193	slli	x3,x27,0x11	 x27:0x80009f08  x3=0x3e100000
       36985000	      3697	8000244c	18b8c193	xori	x3,x17,395	 x17:0x0000000c  x3=0x00000187
       36995000	      3698	80002450	a3653a17	auipc	x20,0xa3653	 x20=0x2365544c
       37005000	      3699	80002454	00a692b3	sll	x5,x13,x10	 x13:0x00000612 x10:0xecc94000  x5=0x00000612
       37015000	      3700	80002458	00211c13	slli	x24,x2,0x2	  x2:0x7fff6622 x24=0xfffd9888
       37025000	      3701	8000245c	019bb733	sltu	x14,x23,x25	 x23:0x3cb85000 x25:0xfffffef5 x14=0x00000001
       37035000	      3702	80002460	0067dd33	srl	x26,x15,x6	 x15:0xecc93ffa  x6:0xfffffe59 x26=0x00000076
       37045000	      3703	80002464	00fa33b3	sltu	x7,x20,x15	 x20:0x2365544c x15:0xecc93ffa  x7=0x00000001
       37055000	      3704	80002468	0a31ce63	blt	x3,x3,80002524	  x3:0x00000187  x3:0x00000187
       37065000	      3705	8000246c	86354813	xori	x16,x10,-1949	 x10:0xecc94000 x16=0x1336b863
       37075000	      3706	80002470	0844c863	blt	x9,x4,80002500	  x9:0x00000000  x4:0x5d93e6a8
       37085000	      3707	00000000	00000013	addi	x0,x0,0	  x0:0x00000000
       37095000	      3708	800024fc	00000013	addi	x0,x0,0	  x0:0x00000000
       37105000	      3709	80002500	d30dfb17	auipc	x22,0xd30df	 x22=0x530e14fc
       37115000	      3710	80002504	4180da13	srai	x20,x1,0x18	  x1:0x800023d4 x20=0xffffff80
       37125000	      3711	80002508	7906b393	sltiu	x7,x13,1936	 x13:0x00000612  x7=0x00000001
       37135000	      3712	8000250c	002f5d13	srli	x26,x30,0x2	 x30:0xecc93fea x26=0x3b324ffa
       37145000	      3713	80002510	00000013	addi	x0,x0,0	  x0:0x00000000
       37155000	      3714	80002514	00d1ac33	slt	x24,x3,x13	  x3:0x00000187 x13:0x00000612 x24=0x00000001
       37165000	      3715	80002518	18cda093	slti	x1,x27,396	 x27:0x80009f08  x1=0x00000001
       37175000	      3716	8000251c	01e27333	and	x6,x4,x30	  x4:0x5d93e6a8 x30:0xecc93fea  x6=0x4c8126a8
       37185000	      3717	80002520	5b560a97	auipc	x21,0x5b560	 x21=0xdb56251c
       37195000	      3718	80002524	31ca2e93	slti	x29,x20,796	 x20:0xffffff80 x29=0x00000001
       37205000	      3719	80002528	a4902313	slti	x6,x0,-1463	  x0:0x00000000  x6=0x00000000
       37215000	      3720	8000252c	00c24f33	xor	x30,x4,x12	  x4:0x5d93e6a8 x12:0x7d07e470 x30=0x209402d8
       37225000	      3721	80002530	58413013	sltiu	x0,x2,1412	  x2:0x7fff6622
       37235000	      3722	80002534	05339263	bne	x7,x19,80002578	  x7:0x00000001 x19:0x80001734
       37245000	      3723	00000000	00000013	addi	x0,x0,0	  x0:0x00000000
       37255000	      3724	80002574	00000013	addi	x0,x0,0	  x0:0x00000000
       37265000	      3725	80002578	00246a33	or	x20,x8,x2	  x8:0x80009fc4  x2:0x7fff6622 x20=0xffffffe6
       37275000	      3726	8000257c	010e1793	slli	x15,x28,0x10	 x28:0xffbd45d4 x15=0x45d40000
       37285000	      3727	80002580	00f98033	add	x0,x19,x15	 x19:0x80001734 x15:0x45d40000
       37295000	      3728	80002584	00c0c5b3	xor	x11,x1,x12	  x1:0x00000001 x12:0x7d07e470 x11=0x7d07e471
       37305000	      3729	80002588	00b80633	add	x12,x16,x11	 x16:0x1336b863 x11:0x7d07e471 x12=0x903e9cd4
       37315000	      3730	8000258c	01fe4e63	blt	x28,x31,800025a8	 x28:0xffbd45d4 x31:0x00000000
       37325000	      3731	00000000	00000013	addi	x0,x0,0	  x0:0x00000000
       37335000	      3732	800025a4	00000013	addi	x0,x0,0	  x0:0x00000000
       37345000	      3733	800025a8	3264cf93	xori	x31,x9,806	  x9:0x00000000 x31=0x00000326
       37355000	      3734	800025ac	001bdb33	srl	x22,x23,x1	 x23:0x3cb85000  x1:0x00000001 x22=0x1e5c2800
       37365000	      3735	800025b0	eb18cc93	xori	x25,x17,-335	 x17:0x0000000c x25=0xfffffebd
       37375000	      3736	800025b4	b6253997	auipc	x19,0xb6253	 x19=0x362555b0
       37385000	      3737	800025b8	31656a93	ori	x21,x10,790	 x10:0xecc94000 x21=0xecc94316
       37395000	      3738	800025bc	039fd663	bge	x31,x25,800025e8	 x31:0x00000326 x25:0xfffffebd
       37405000	      3739	00000000	00000013	addi	x0,x0,0	  x0:0x00000000
       37415000	      3740	800025e4	00000013	addi	x0,x0,0	  x0:0x00000000
       37425000	      3741	800025e8	b1818193	addi	x3,x3,-1256	  x3:0x00000187  x3=0xfffffc9f
       37435000	      3742	800025ec	00c3ab33	slt	x22,x7,x12	  x7:0x00000001 x12:0x903e9cd4 x22=0x00000000
       37445000	      3743	800025f0	074cc063	blt	x25,x20,80002650	 x25:0xfffffebd x20:0xffffffe6
       37455000	      3744	00000000	00000013	addi	x0,x0,0	  x0:0x00000000
       37465000	      3745	8000264c	00000013	addi	x0,x0,0	  x0:0x00000000
       37475000	      3746	80002650	00000013	addi	x0,x0,0	  x0:0x00000000
       37485000	      3747	80002654	443fe213	ori	x4,x31,1091	 x31:0x00000326  x4=0x00000767
       37495000	      3748	80002658	6af52a13	slti	x20,x10,1711	 x10:0xecc94000 x20=0x00000001
       37505000	      3749	8000265c	09f5da63	bge	x11,x31,800026f0	 x11:0x7d07e471 x31:0x00000326
       37515000	      3750	00000000	00000013	addi	x0,x0,0	  x0:0x00000000
       37525000	      3751	800026ec	00000013	addi	x0,x0,0	  x0:0x00000000
       37535000	      3752	800026f0	00000013	addi	x0,x0,0	  x0:0x00000000
       37545000	      3753	800026f4	003731b3	sltu	x3,x14,x3	 x14:0x00000001  x3:0xfffffc9f  x3=0x00000001
       37555000	      3754	800026f8	41835313	srai	x6,x6,0x18	  x6:0x00000000  x6=0x00000000
       37565000	      3755	800026fc	0ae80c63	beq	x16,x14,800027b4	 x16:0x1336b863 x14:0x00000001
       37575000	      3756	80002700	01855663	bge	x10,x24,8000270c	 x10:0xecc94000 x24:0x00000001
       37585000	      3757	80002704	02067863	bgeu	x12,x0,80002734	 x12:0x903e9cd4  x0:0x00000000
       37595000	      3758	00000000	00000013	addi	x0,x0,0	  x0:0x00000000
       37605000	      3759	80002730	00000013	addi	x0,x0,0	  x0:0x00000000
       37615000	      3760	80002734	0a366463	bltu	x12,x3,800027dc	 x12:0x903e9cd4  x3:0x00000001
       37625000	      3761	80002738	030000ef	jal	x1,80002738	  x1=0x80002738
       37635000	      3762	00000000	00000013	addi	x0,x0,0	  x0:0x00000000
       37645000	      3763	80002764	00000013	addi	x0,x0,0	  x0:0x00000000
       37655000	      3764	80002768	fedff36f	jal	x6,80002768	  x6=0x80002768
       37665000	      3765	00000000	00000013	addi	x0,x0,0	  x0:0x00000000
       37675000	      3766	80002750	00000013	addi	x0,x0,0	  x0:0x00000000
       37685000	      3767	80002754	004004ef	jal	x9,80002754	  x9=0x80002754
       37695000	      3768	00000000	00000013	addi	x0,x0,0	  x0:0x00000000
       37705000	      3769	80002754	00000013	addi	x0,x0,0	  x0:0x00000000
       37715000	      3770	80002758	048000ef	jal	x1,80002758	  x1=0x80002758
       37725000	      3771	00000000	00000013	addi	x0,x0,0	  x0:0x00000000
       37735000	      3772	8000279c	00000013	addi	x0,x0,0	  x0:0x00000000
       37745000	      3773	800027a0	fa1ff36f	jal	x6,800027a0	  x6=0x800027a0
       37755000	      3774	00000000	00000013	addi	x0,x0,0	  x0:0x00000000
       37765000	      3775	8000273c	00000013	addi	x0,x0,0	  x0:0x00000000
       37775000	      3776	80002740	02c000ef	jal	x1,80002740	  x1=0x80002740
       37785000	      3777	00000000	00000013	addi	x0,x0,0	  x0:0x00000000
       37795000	      3778	80002768	00000013	addi	x0,x0,0	  x0:0x00000000
       37805000	      3779	8000276c	02800eef	jal	x29,8000276c	 x29=0x8000276c
       37815000	      3780	00000000	00000013	addi	x0,x0,0	  x0:0x00000000
       37825000	      3781	80002790	00000013	addi	x0,x0,0	  x0:0x00000000
       37835000	      3782	80002794	ffdff0ef	jal	x1,80002794	  x1=0x80002794
       37845000	      3783	00000000	00000013	addi	x0,x0,0	  x0:0x00000000
       37855000	      3784	8000278c	00000013	addi	x0,x0,0	  x0:0x00000000
       37865000	      3785	80002790	fe5ff0ef	jal	x1,80002790	  x1=0x80002790
       37875000	      3786	00000000	00000013	addi	x0,x0,0	  x0:0x00000000
       37885000	      3787	80002770	00000013	addi	x0,x0,0	  x0:0x00000000
       37895000	      3788	80002774	fedffd6f	jal	x26,80002774	 x26=0x80002774
       37905000	      3789	00000000	00000013	addi	x0,x0,0	  x0:0x00000000
       37915000	      3790	8000275c	00000013	addi	x0,x0,0	  x0:0x00000000
       37925000	      3791	80002760	fedff36f	jal	x6,80002760	  x6=0x80002760
       37935000	      3792	00000000	00000013	addi	x0,x0,0	  x0:0x00000000
       37945000	      3793	80002748	00000013	addi	x0,x0,0	  x0:0x00000000
       37955000	      3794	8000274c	ff1ff36f	jal	x6,8000274c	  x6=0x8000274c
       37965000	      3795	00000000	00000013	addi	x0,x0,0	  x0:0x00000000
       37975000	      3796	80002738	00000013	addi	x0,x0,0	  x0:0x00000000
       37985000	      3797	8000273c	04c000ef	jal	x1,8000273c	  x1=0x8000273c
       37995000	      3798	00000000	00000013	addi	x0,x0,0	  x0:0x00000000
       38005000	      3799	80002784	00000013	addi	x0,x0,0	  x0:0x00000000
       38015000	      3800	80002788	014000ef	jal	x1,80002788	  x1=0x80002788
       38025000	      3801	00000000	00000013	addi	x0,x0,0	  x0:0x00000000
       38035000	      3802	80002798	00000013	addi	x0,x0,0	  x0:0x00000000
       38045000	      3803	8000279c	fadff0ef	jal	x1,8000279c	  x1=0x8000279c
       38055000	      3804	00000000	00000013	addi	x0,x0,0	  x0:0x00000000
       38065000	      3805	80002744	00000013	addi	x0,x0,0	  x0:0x00000000
       38075000	      3806	80002748	038000ef	jal	x1,80002748	  x1=0x80002748
       38085000	      3807	00000000	00000013	addi	x0,x0,0	  x0:0x00000000
       38095000	      3808	8000277c	00000013	addi	x0,x0,0	  x0:0x00000000
       38105000	      3809	80002780	fd1ff0ef	jal	x1,80002780	  x1=0x80002780
       38115000	      3810	00000000	00000013	addi	x0,x0,0	  x0:0x00000000
       38125000	      3811	8000274c	00000013	addi	x0,x0,0	  x0:0x00000000
       38135000	      3812	80002750	0540026f	jal	x4,80002750	  x4=0x80002750
       38145000	      3813	00000000	00000013	addi	x0,x0,0	  x0:0x00000000
       38155000	      3814	800027a0	00000013	addi	x0,x0,0	  x0:0x00000000
       38165000	      3815	800027a4	0040036f	jal	x6,800027a4	  x6=0x800027a4
       38175000	      3816	00000000	00000013	addi	x0,x0,0	  x0:0x00000000
       38185000	      3817	800027a4	00000013	addi	x0,x0,0	  x0:0x00000000
       38195000	      3818	800027a8	fbdffd6f	jal	x26,800027a8	 x26=0x800027a8
       38205000	      3819	00000000	00000013	addi	x0,x0,0	  x0:0x00000000
       38215000	      3820	80002760	00000013	addi	x0,x0,0	  x0:0x00000000
       38225000	      3821	80002764	0340056f	jal	x10,80002764	 x10=0x80002764
       38235000	      3822	00000000	00000013	addi	x0,x0,0	  x0:0x00000000
       38245000	      3823	80002794	00000013	addi	x0,x0,0	  x0:0x00000000
       38255000	      3824	80002798	fc5ff36f	jal	x6,80002798	  x6=0x80002798
       38265000	      3825	00000000	00000013	addi	x0,x0,0	  x0:0x00000000
       38275000	      3826	80002758	00000013	addi	x0,x0,0	  x0:0x00000000
       38285000	      3827	8000275c	fe9ffeef	jal	x29,8000275c	 x29=0x8000275c
       38295000	      3828	00000000	00000013	addi	x0,x0,0	  x0:0x00000000
       38305000	      3829	80002740	00000013	addi	x0,x0,0	  x0:0x00000000
       38315000	      3830	80002744	038000ef	jal	x1,80002744	  x1=0x80002744
       38325000	      3831	00000000	00000013	addi	x0,x0,0	  x0:0x00000000
       38335000	      3832	80002778	00000013	addi	x0,x0,0	  x0:0x00000000
       38345000	      3833	8000277c	0100056f	jal	x10,8000277c	 x10=0x8000277c
       38355000	      3834	00000000	00000013	addi	x0,x0,0	  x0:0x00000000
       38365000	      3835	80002788	00000013	addi	x0,x0,0	  x0:0x00000000
       38375000	      3836	8000278c	fedff26f	jal	x4,8000278c	  x4=0x8000278c
       38385000	      3837	00000000	00000013	addi	x0,x0,0	  x0:0x00000000
       38395000	      3838	80002774	00000013	addi	x0,x0,0	  x0:0x00000000
       38405000	      3839	80002778	ff9ff0ef	jal	x1,80002778	  x1=0x80002778
       38415000	      3840	00000000	00000013	addi	x0,x0,0	  x0:0x00000000
       38425000	      3841	8000276c	00000013	addi	x0,x0,0	  x0:0x00000000
       38435000	      3842	80002770	0140036f	jal	x6,80002770	  x6=0x80002770
       38445000	      3843	00000000	00000013	addi	x0,x0,0	  x0:0x00000000
       38455000	      3844	80002780	00000013	addi	x0,x0,0	  x0:0x00000000
       38465000	      3845	80002784	028000ef	jal	x1,80002784	  x1=0x80002784
       38475000	      3846	00000000	00000013	addi	x0,x0,0	  x0:0x00000000
       38485000	      3847	800027a8	00000013	addi	x0,x0,0	  x0:0x00000000
       38495000	      3848	800027ac	cbbe0f93	addi	x31,x28,-837	 x28:0xffbd45d4 x31=0xffbd428f
       38505000	      3849	800027b0	025c9a63	bne	x25,x5,800027e4	 x25:0xfffffebd  x5:0x00000612
       38515000	      3850	00000000	00000013	addi	x0,x0,0	  x0:0x00000000
       38525000	      3851	800027e0	00000013	addi	x0,x0,0	  x0:0x00000000
       38535000	      3852	800027e4	c3ab6593	ori	x11,x22,-966	 x22:0x00000000 x11=0xfffffc3a
       38545000	      3853	800027e8	02cf5e63	bge	x30,x12,80002824	 x30:0x209402d8 x12:0x903e9cd4
       38555000	      3854	00000000	00000013	addi	x0,x0,0	  x0:0x00000000
       38565000	      3855	80002820	00000013	addi	x0,x0,0	  x0:0x00000000
       38575000	      3856	80002824	c0726913	ori	x18,x4,-1017	  x4:0x8000278c x18=0xffffff8f
       38585000	      3857	80002828	6e550c93	addi	x25,x10,1765	 x10:0x8000277c x25=0x80002e61
       38595000	      3858	8000282c	5dc06517	auipc	x10,0x5dc06	 x10=0xddc08828
       38605000	      3859	80002830	009f00b3	add	x1,x30,x9	 x30:0x209402d8  x9:0x80002754  x1=0xa0942a2c
       38615000	      3860	80002834	0588e463	bltu	x17,x24,8000287c	 x17:0x0000000c x24:0x00000001
       38625000	      3861	80002838	03941663	bne	x8,x25,80002864	  x8:0x80009fc4 x25:0x80002e61
       38635000	      3862	00000000	00000013	addi	x0,x0,0	  x0:0x00000000
       38645000	      3863	80002860	00000013	addi	x0,x0,0	  x0:0x00000000
       38655000	      3864	80002864	40d58133	sub	x2,x11,x13	 x11:0xfffffc3a x13:0x00000612  x2=0xfffff628
       38665000	      3865	80002868	012a0833	add	x16,x20,x18	 x20:0x00000001 x18:0xffffff8f x16=0xffffff90
       38675000	      3866	8000286c	00012933	slt	x18,x2,x0	  x2:0xfffff628  x0:0x00000000 x18=0x00000001
       38685000	      3867	80002870	015b5993	srli	x19,x22,0x15	 x22:0x00000000 x19=0x00000000
       38695000	      3868	80002874	36090293	addi	x5,x18,864	 x18:0x00000001  x5=0x00000361
       38705000	      3869	80002878	0046e2b3	or	x5,x13,x4	 x13:0x00000612  x4:0x8000278c  x5=0x8000279e
       38715000	      3870	8000287c	00000013	addi	x0,x0,0	  x0:0x00000000
       38725000	      3871	80002880	01da27b3	slt	x15,x20,x29	 x20:0x00000001 x29:0x8000275c x15=0x00000000
       38735000	      3872	80002884	413e0833	sub	x16,x28,x19	 x28:0xffbd45d4 x19:0x00000000 x16=0xffbd45d4
       38745000	      3873	80002888	b5df0a17	auipc	x20,0xb5df0	 x20=0x35df2884
       38755000	      3874	8000288c	7ec88393	addi	x7,x17,2028	 x17:0x0000000c  x7=0x000007f8
       38765000	      3875	80002890	01633f33	sltu	x30,x6,x22	  x6:0x80002770 x22:0x00000000 x30=0x00000000
       38775000	      3876	80002894	0058dd33	srl	x26,x17,x5	 x17:0x0000000c  x5:0x8000279e x26=0x00000000
       38785000	      3877	80002898	9a540713	addi	x14,x8,-1627	  x8:0x80009fc4 x14=0x80009969
       38795000	      3878	8000289c	c0a8e313	ori	x6,x17,-1014	 x17:0x0000000c  x6=0xfffffc0e
       38805000	      3879	800028a0	1f3d3f97	auipc	x31,0x1f3d3	 x31=0x9f3d589c
       38815000	      3880	800028a4	01272fb3	slt	x31,x14,x18	 x14:0x80009969 x18:0x00000001 x31=0x00000001
       38825000	      3881	800028a8	74b2ef93	ori	x31,x5,1867	  x5:0x8000279e x31=0x800027df
       38835000	      3882	800028ac	94578713	addi	x14,x15,-1723	 x15:0x00000000 x14=0xfffff945
       38845000	      3883	800028b0	00727e63	bgeu	x4,x7,800028cc	  x4:0x8000278c  x7:0x000007f8
       38855000	      3884	00000000	00000013	addi	x0,x0,0	  x0:0x00000000
       38865000	      3885	800028c8	00000013	addi	x0,x0,0	  x0:0x00000000
       38875000	      3886	800028cc	2d731597	auipc	x11,0x2d731	 x11=0xad7338c8
       38885000	      3887	800028d0	eca7fe93	andi	x29,x15,-310	 x15:0x00000000 x29=0x00000000
       38895000	      3888	800028d4	00000013	addi	x0,x0,0	  x0:0x00000000
       38905000	      3889	800028d8	06f26663	bltu	x4,x15,80002944	  x4:0x8000278c x15:0x00000000
       38915000	      3890	800028dc	4e70d717	auipc	x14,0x4e70d	 x14=0xce70f8d8
       38925000	      3891	800028e0	6d76e593	ori	x11,x13,1751	 x13:0x00000612 x11=0x000006d7
       38935000	      3892	800028e4	00ce9e33	sll	x28,x29,x12	 x29:0x00000000 x12:0x903e9cd4 x28=0x00000000
       38945000	      3893	800028e8	08c41263	bne	x8,x12,8000296c	  x8:0x80009fc4 x12:0x903e9cd4
       38955000	      3894	00000000	00000013	addi	x0,x0,0	  x0:0x00000000
       38965000	      3895	80002968	00000013	addi	x0,x0,0	  x0:0x00000000
       38975000	      3896	8000296c	f680f193	andi	x3,x1,-152	  x1:0xa0942a2c  x3=0xa0942a28
       38985000	      3897	80002970	019b3533	sltu	x10,x22,x25	 x22:0x00000000 x25:0x80002e61 x10=0x00000001
       38995000	      3898	80002974	013d5193	srli	x3,x26,0x13	 x26:0x00000000  x3=0x00000000
       39005000	      3899	80002978	00624cb3	xor	x25,x4,x6	  x4:0x8000278c  x6:0xfffffc0e x25=0x7fffdb82
       39015000	      3900	8000297c	14250513	addi	x10,x10,322	 x10:0x00000001 x10=0x00000143
       39025000	      3901	80002980	013d9ab3	sll	x21,x27,x19	 x27:0x80009f08 x19:0x00000000 x21=0x80009f08
       39035000	      3902	80002984	e7e42d13	slti	x26,x8,-386	  x8:0x80009fc4 x26=0x00000001
       39045000	      3903	80002988	000ac9b3	xor	x19,x21,x0	 x21:0x80009f08  x0:0x00000000 x19=0x80009f08
       39055000	      3904	8000298c	00000013	addi	x0,x0,0	  x0:0x00000000
       39065000	      3905	80002990	d8f93293	sltiu	x5,x18,-625	 x18:0x00000001  x5=0x00000001
       39075000	      3906	80002994	ffa115b7	lui	x11,0xffa11	 x11=0xffa11000
       39085000	      3907	80002998	01a19493	slli	x9,x3,0x1a	  x3:0x00000000  x9=0x00000000
       39095000	      3908	8000299c	016e6233	or	x4,x28,x22	 x28:0x00000000 x22:0x00000000  x4=0x00000000
       39105000	      3909	800029a0	96b96793	ori	x15,x18,-1685	 x18:0x00000001 x15=0xfffff96b
       39115000	      3910	800029a4	01fd1093	slli	x1,x26,0x1f	 x26:0x00000001  x1=0x80000000
       39125000	      3911	800029a8	412a4093	xori	x1,x20,1042	 x20:0x35df2884  x1=0x35df2c96
       39135000	      3912	800029ac	407e5333	sra	x6,x28,x7	 x28:0x00000000  x7:0x000007f8  x6=0x00000000
       39145000	      3913	800029b0	379e4313	xori	x6,x28,889	 x28:0x00000000  x6=0x00000379
       39155000	      3914	800029b4	0143de63	bge	x7,x20,800029d0	  x7:0x000007f8 x20:0x35df2884
       39165000	      3915	800029b8	8d283797	auipc	x15,0x8d283	 x15=0x0d2859b4
       39175000	      3916	800029bc	40d0d533	sra	x10,x1,x13	  x1:0x35df2c96 x13:0x00000612 x10=0x00000d77
       39185000	      3917	800029c0	002925b3	slt	x11,x18,x2	 x18:0x00000001  x2:0xfffff628 x11=0x00000000
       39195000	      3918	800029c4	41aada33	sra	x20,x21,x26	 x21:0x80009f08 x26:0x00000001 x20=0xc0004f84
       39205000	      3919	800029c8	02e44a63	blt	x8,x14,800029fc	  x8:0x80009fc4 x14:0xce70f8d8
       39215000	      3920	00000000	00000013	addi	x0,x0,0	  x0:0x00000000
       39225000	      3921	800029f8	00000013	addi	x0,x0,0	  x0:0x00000000
       39235000	      3922	800029fc	db6d7e13	andi	x28,x26,-586	 x26:0x00000001 x28=0x00000000
       39245000	      3923	80002a00	40f5d613	srai	x12,x11,0xf	 x11:0x00000000 x12=0x00000000
       39255000	      3924	80002a04	000d2833	slt	x16,x26,x0	 x26:0x00000001  x0:0x00000000 x16=0x00000000
       39265000	      3925	80002a08	0136dd33	srl	x26,x13,x19	 x13:0x00000612 x19:0x80009f08 x26=0x00000006
       39275000	      3926	80002a0c	014e9293	slli	x5,x29,0x14	 x29:0x00000000  x5=0x00000000
       39285000	      3927	80002a10	4008db13	srai	x22,x17,0x0	 x17:0x0000000c x22=0x0000000c
       39295000	      3928	80002a14	007f8e33	add	x28,x31,x7	 x31:0x800027df  x7:0x000007f8 x28=0x80002fd7
       39305000	      3929	80002a18	4fff94b7	lui	x9,0x4fff9	  x9=0x4fff9000
       39315000	      3930	80002a1c	b72ff393	andi	x7,x31,-1166	 x31:0x800027df  x7=0x80002352
       39325000	      3931	80002a20	bbc70f13	addi	x30,x14,-1092	 x14:0xce70f8d8 x30=0xce70f494
       39335000	      3932	80002a24	00ab15b3	sll	x11,x22,x10	 x22:0x0000000c x10:0x00000d77 x11=0x06000000
       39345000	      3933	80002a28	009bf4b3	and	x9,x23,x9	 x23:0x3cb85000  x9:0x4fff9000  x9=0x0cb81000
       39355000	      3934	80002a2c	01697633	and	x12,x18,x22	 x18:0x00000001 x22:0x0000000c x12=0x00000000
       39365000	      3935	80002a30	e1adc193	xori	x3,x27,-486	 x27:0x80009f08  x3=0x7fff6112
       39375000	      3936	80002a34	017a6eb3	or	x29,x20,x23	 x20:0xc0004f84 x23:0x3cb85000 x29=0xfcb85f84
       39385000	      3937	80002a38	01f61793	slli	x15,x12,0x1f	 x12:0x00000000 x15=0x00000000
       39395000	      3938	80002a3c	052c5663	bge	x24,x18,80002a88	 x24:0x00000001 x18:0x00000001
       39405000	      3939	00000000	00000013	addi	x0,x0,0	  x0:0x00000000
       39415000	      3940	80002a84	00000013	addi	x0,x0,0	  x0:0x00000000
       39425000	      3941	80002a88	01d5a9b3	slt	x19,x11,x29	 x11:0x06000000 x29:0xfcb85f84 x19=0x00000000
       39435000	      3942	80002a8c	00fed1b3	srl	x3,x29,x15	 x29:0xfcb85f84 x15:0x00000000  x3=0xfcb85f84
       39445000	      3943	80002a90	3701c697	auipc	x13,0x3701c	 x13=0xb701ea8c
       39455000	      3944	80002a94	01af8263	beq	x31,x26,80002a98	 x31:0x800027df x26:0x00000006
       39465000	      3945	80002a98	00caabb3	slt	x23,x21,x12	 x21:0x80009f08 x12:0x00000000 x23=0x00000001
       39475000	      3946	80002a9c	01c02e33	slt	x28,x0,x28	  x0:0x00000000 x28:0x80002fd7 x28=0x00000000
       39485000	      3947	80002aa0	01c56633	or	x12,x10,x28	 x10:0x00000d77 x28:0x00000000 x12=0x00000d77
       39495000	      3948	80002aa4	0375c463	blt	x11,x23,80002acc	 x11:0x06000000 x23:0x00000001
       39505000	      3949	80002aa8	00000013	addi	x0,x0,0	  x0:0x00000000
       39515000	      3950	80002aac	00272233	slt	x4,x14,x2	 x14:0xce70f8d8  x2:0xfffff628  x4=0x00000001
       39525000	      3951	80002ab0	00000013	addi	x0,x0,0	  x0:0x00000000
       39535000	      3952	80002ab4	5fd54497	auipc	x9,0x5fd54	  x9=0xdfd56ab0
       39545000	      3953	80002ab8	03395863	bge	x18,x19,80002ae8	 x18:0x00000001 x19:0x00000000
       39555000	      3954	00000000	00000013	addi	x0,x0,0	  x0:0x00000000
       39565000	      3955	80002ae4	00000013	addi	x0,x0,0	  x0:0x00000000
       39575000	      3956	80002ae8	0141d093	srli	x1,x3,0x14	  x3:0xfcb85f84  x1=0x00000fcb
       39585000	      3957	80002aec	00df9b13	slli	x22,x31,0xd	 x31:0x800027df x22=0x04fbe000
       39595000	      3958	80002af0	00b0f3b3	and	x7,x1,x11	  x1:0x00000fcb x11:0x06000000  x7=0x00000000
       39605000	      3959	80002af4	03b81463	bne	x16,x27,80002b1c	 x16:0x00000000 x27:0x80009f08
       39615000	      3960	00000000	00000013	addi	x0,x0,0	  x0:0x00000000
       39625000	      3961	80002b18	00000013	addi	x0,x0,0	  x0:0x00000000
       39635000	      3962	80002b1c	00000013	addi	x0,x0,0	  x0:0x00000000
       39645000	      3963	80002b20	0511e063	bltu	x3,x17,80002b60	  x3:0xfcb85f84 x17:0x0000000c
       39655000	      3964	80002b24	004b1233	sll	x4,x22,x4	 x22:0x04fbe000  x4:0x00000001  x4=0x09f7c000
       39665000	      3965	80002b28	00de9993	slli	x19,x29,0xd	 x29:0xfcb85f84 x19=0x0bf08000
       39675000	      3966	80002b2c	4e5c3f93	sltiu	x31,x24,1253	 x24:0x00000001 x31=0x00000001
       39685000	      3967	80002b30	aa3b6493	ori	x9,x22,-1373	 x22:0x04fbe000  x9=0xfffffaa3
       39695000	      3968	80002b34	0296f863	bgeu	x13,x9,80002b64	 x13:0xb701ea8c  x9:0xfffffaa3
       39705000	      3969	80002b38	01451863	bne	x10,x20,80002b48	 x10:0x00000d77 x20:0xc0004f84
       39715000	      3970	00000000	00000013	addi	x0,x0,0	  x0:0x00000000
       39725000	      3971	80002b44	00000013	addi	x0,x0,0	  x0:0x00000000
       39735000	      3972	80002b48	de21ce13	xori	x28,x3,-542	  x3:0xfcb85f84 x28=0x0347a266
       39745000	      3973	80002b4c	012fcbb3	xor	x23,x31,x18	 x31:0x00000001 x18:0x00000001 x23=0x00000000
       39755000	      3974	80002b50	01f85d13	srli	x26,x16,0x1f	 x16:0x00000000 x26=0x00000000
       39765000	      3975	80002b54	017b67b3	or	x15,x22,x23	 x22:0x04fbe000 x23:0x00000000 x15=0x04fbe000
       39775000	      3976	80002b58	00e299b3	sll	x19,x5,x14	  x5:0x00000000 x14:0xce70f8d8 x19=0x00000000
       39785000	      3977	80002b5c	b5b58593	addi	x11,x11,-1189	 x11:0x06000000 x11=0x05fffb5b
       39795000	      3978	80002b60	00737263	bgeu	x6,x7,80002b64	  x6:0x00000379  x7:0x00000000
       39805000	      3979	00000000	00000013	addi	x0,x0,0	  x0:0x00000000
       39815000	      3980	80002b60	00000013	addi	x0,x0,0	  x0:0x00000000
       39825000	      3981	80002b64	01681093	slli	x1,x16,0x16	 x16:0x00000000  x1=0x00000000
       39835000	      3982	80002b68	00c06d33	or	x26,x0,x12	  x0:0x00000000 x12:0x00000d77 x26=0x00000d77
       39845000	      3983	80002b6c	00e05f33	srl	x30,x0,x14	  x0:0x00000000 x14:0xce70f8d8 x30=0x00000000
       39855000	      3984	80002b70	00000013	addi	x0,x0,0	  x0:0x00000000
       39865000	      3985	80002b74	cbf03293	sltiu	x5,x0,-833	  x0:0x00000000  x5=0x00000001
       39875000	      3986	80002b78	008a9593	slli	x11,x21,0x8	 x21:0x80009f08 x11=0x009f0800
       39885000	      3987	80002b7c	0b5f4863	blt	x30,x21,80002c2c	 x30:0x00000000 x21:0x80009f08
       39895000	      3988	80002b80	013c9213	slli	x4,x25,0x13	 x25:0x7fffdb82  x4=0xdc100000
       39905000	      3989	80002b84	41605193	srai	x3,x0,0x16	  x0:0x00000000  x3=0x00000000
       39915000	      3990	80002b88	a546ce13	xori	x28,x13,-1452	 x13:0xb701ea8c x28=0x48fe10d8
       39925000	      3991	80002b8c	0bb65e63	bge	x12,x27,80002c48	 x12:0x00000d77 x27:0x80009f08
       39935000	      3992	00000000	00000013	addi	x0,x0,0	  x0:0x00000000
       39945000	      3993	80002c44	00000013	addi	x0,x0,0	  x0:0x00000000
       39955000	      3994	80002c48	41a203b3	sub	x7,x4,x26	  x4:0xdc100000 x26:0x00000d77  x7=0xdc0ff289
       39965000	      3995	80002c4c	00000013	addi	x0,x0,0	  x0:0x00000000
       39975000	      3996	80002c50	01226e33	or	x28,x4,x18	  x4:0xdc100000 x18:0x00000001 x28=0xdc100001
       39985000	      3997	80002c54	03926a63	bltu	x4,x25,80002c88	  x4:0xdc100000 x25:0x7fffdb82
       39995000	      3998	80002c58	00000013	addi	x0,x0,0	  x0:0x00000000
       40005000	      3999	80002c5c	433a8597	auipc	x11,0x433a8	 x11=0xc33aac58
       40015000	      4000	80002c60	0070c933	xor	x18,x1,x7	  x1:0x00000000  x7:0xdc0ff289 x18=0xdc0ff289
       40025000	      4001	80002c64	a1f4e993	ori	x19,x9,-1505	  x9:0xfffffaa3 x19=0xfffffabf
       40035000	      4002	80002c68	04eb9063	bne	x23,x14,80002ca8	 x23:0x00000000 x14:0xce70f8d8
       40045000	      4003	00000000	00000013	addi	x0,x0,0	  x0:0x00000000
       40055000	      4004	80002ca4	00000013	addi	x0,x0,0	  x0:0x00000000
       40065000	      4005	80002ca8	b2b8e837	lui	x16,0xb2b8e	 x16=0xb2b8e000
       40075000	      4006	80002cac	00a08e63	beq	x1,x10,80002cc8	  x1:0x00000000 x10:0x00000d77
       40085000	      4007	80002cb0	00adf863	bgeu	x27,x10,80002cc0	 x27:0x80009f08 x10:0x00000d77
       40095000	      4008	00000000	00000013	addi	x0,x0,0	  x0:0x00000000
       40105000	      4009	80002cbc	00000013	addi	x0,x0,0	  x0:0x00000000
       40115000	      4010	80002cc0	40c785b3	sub	x11,x15,x12	 x15:0x04fbe000 x12:0x00000d77 x11=0x04fbd289
       40125000	      4011	80002cc4	019769b3	or	x19,x14,x25	 x14:0xce70f8d8 x25:0x7fffdb82 x19=0xfffffbda
       40135000	      4012	80002cc8	ce4dbe13	sltiu	x28,x27,-796	 x27:0x80009f08 x28=0x00000001
       40145000	      4013	80002ccc	0082e663	bltu	x5,x8,80002cd8	  x5:0x00000001  x8:0x80009fc4
       40155000	      4014	00000000	00000013	addi	x0,x0,0	  x0:0x00000000
       40165000	      4015	80002cd4	00000013	addi	x0,x0,0	  x0:0x00000000
       40175000	      4016	80002cd8	4120dc13	srai	x24,x1,0x12	  x1:0x00000000 x24=0x00000000
       40185000	      4017	80002cdc	07097863	bgeu	x18,x16,80002d4c	 x18:0xdc0ff289 x16:0xb2b8e000
       40195000	      4018	00000000	00000013	addi	x0,x0,0	  x0:0x00000000
       40205000	      4019	80002d48	00000013	addi	x0,x0,0	  x0:0x00000000
       40215000	      4020	80002d4c	0410e863	bltu	x1,x1,80002d9c	  x1:0x00000000  x1:0x00000000
       40225000	      4021	80002d50	40d7deb3	sra	x29,x15,x13	 x15:0x04fbe000 x13:0xb701ea8c x29=0x00004fbe
       40235000	      4022	80002d54	00000013	addi	x0,x0,0	  x0:0x00000000
       40245000	      4023	80002d58	01c1c3b3	xor	x7,x3,x28	  x3:0x00000000 x28:0x00000001  x7=0x00000001
       40255000	      4024	80002d5c	0589d663	bge	x19,x24,80002da8	 x19:0xfffffbda x24:0x00000000
       40265000	      4025	80002d60	04be4863	blt	x28,x11,80002db0	 x28:0x00000001 x11:0x04fbd289
       40275000	      4026	00000000	00000013	addi	x0,x0,0	  x0:0x00000000
       40285000	      4027	80002dac	00000013	addi	x0,x0,0	  x0:0x00000000
       40295000	      4028	80002db0	73db4313	xori	x6,x22,1853	 x22:0x04fbe000  x6=0x04fbe73d
       40305000	      4029	80002db4	f0c6c293	xori	x5,x13,-244	 x13:0xb701ea8c  x5=0x48fe1580
       40315000	      4030	80002db8	00000013	addi	x0,x0,0	  x0:0x00000000
       40325000	      4031	80002dbc	02b8f263	bgeu	x17,x11,80002de0	 x17:0x0000000c x11:0x04fbd289
       40335000	      4032	80002dc0	0034fbb3	and	x23,x9,x3	  x9:0xfffffaa3  x3:0x00000000 x23=0x00000000
       40345000	      4033	80002dc4	401b8d33	sub	x26,x23,x1	 x23:0x00000000  x1:0x00000000 x26=0x00000000
       40355000	      4034	80002dc8	01657eb3	and	x29,x10,x22	 x10:0x00000d77 x22:0x04fbe000 x29=0x00000000
       40365000	      4035	80002dcc	9aa66f17	auipc	x30,0x9aa66	 x30=0x1aa68dc8
       40375000	      4036	80002dd0	0462e463	bltu	x5,x6,80002e18	  x5:0x48fe1580  x6:0x04fbe73d
       40385000	      4037	80002dd4	04c7e863	bltu	x15,x12,80002e24	 x15:0x04fbe000 x12:0x00000d77
       40395000	      4038	80002dd8	41755913	srai	x18,x10,0x17	 x10:0x00000d77 x18=0x00000000
       40405000	      4039	80002ddc	01f594b3	sll	x9,x11,x31	 x11:0x04fbd289 x31:0x00000001  x9=0x09f7a512
       40415000	      4040	80002de0	03ba5e63	bge	x20,x27,80002e1c	 x20:0xc0004f84 x27:0x80009f08
       40425000	      4041	00000000	00000013	addi	x0,x0,0	  x0:0x00000000
       40435000	      4042	80002e18	00000013	addi	x0,x0,0	  x0:0x00000000
       40445000	      4043	80002e1c	00164b13	xori	x22,x12,1	 x12:0x00000d77 x22=0x00000d76
       40455000	      4044	80002e20	00780133	add	x2,x16,x7	 x16:0xb2b8e000  x7:0x00000001  x2=0xb2b8e001
       40465000	      4045	80002e24	05de9463	bne	x29,x29,80002e6c	 x29:0x00000000 x29:0x00000000
       40475000	      4046	80002e28	5c37a093	slti	x1,x15,1475	 x15:0x04fbe000  x1=0x00000000
       40485000	      4047	80002e2c	0307e863	bltu	x15,x16,80002e5c	 x15:0x04fbe000 x16:0xb2b8e000
       40495000	      4048	00000000	00000013	addi	x0,x0,0	  x0:0x00000000
       40505000	      4049	80002e58	00000013	addi	x0,x0,0	  x0:0x00000000
       40515000	      4050	80002e5c	ad4c8993	addi	x19,x25,-1324	 x25:0x7fffdb82 x19=0x7fffd656
       40525000	      4051	80002e60	05cf9863	bne	x31,x28,80002eb0	 x31:0x00000001 x28:0x00000001
       40535000	      4052	80002e64	f4e96993	ori	x19,x18,-178	 x18:0x00000000 x19=0xffffff4e
       40545000	      4053	80002e68	6f592f13	slti	x30,x18,1781	 x18:0x00000000 x30=0x00000001
       40555000	      4054	80002e6c	02379663	bne	x15,x3,80002e98	 x15:0x04fbe000  x3:0x00000000
       40565000	      4055	00000000	00000013	addi	x0,x0,0	  x0:0x00000000
       40575000	      4056	80002e94	00000013	addi	x0,x0,0	  x0:0x00000000
       40585000	      4057	80002e98	d7047993	andi	x19,x8,-656	  x8:0x80009fc4 x19=0x80009d40
       40595000	      4058	80002e9c	0373e863	bltu	x7,x23,80002ecc	  x7:0x00000001 x23:0x00000000
       40605000	      4059	80002ea0	3c5ea693	slti	x13,x29,965	 x29:0x00000000 x13=0x00000001
       40615000	      4060	80002ea4	011c1d13	slli	x26,x24,0x11	 x24:0x00000000 x26=0x00000000
       40625000	      4061	80002ea8	00000013	addi	x0,x0,0	  x0:0x00000000
       40635000	      4062	80002eac	0034fe63	bgeu	x9,x3,80002ec8	  x9:0x09f7a512  x3:0x00000000
       40645000	      4063	00000000	00000013	addi	x0,x0,0	  x0:0x00000000
       40655000	      4064	80002ec4	00000013	addi	x0,x0,0	  x0:0x00000000
       40665000	      4065	80002ec8	00e15663	bge	x2,x14,80002ed4	  x2:0xb2b8e001 x14:0xce70f8d8
       40675000	      4066	80002ecc	419f5793	srai	x15,x30,0x19	 x30:0x00000001 x15=0x00000000
       40685000	      4067	80002ed0	01e076b3	and	x13,x0,x30	  x0:0x00000000 x30:0x00000001 x13=0x00000000
       40695000	      4068	80002ed4	01e85493	srli	x9,x16,0x1e	 x16:0xb2b8e000  x9=0x00000002
       40705000	      4069	80002ed8	01b8bcb3	sltu	x25,x17,x27	 x17:0x0000000c x27:0x80009f08 x25=0x00000001
       40715000	      4070	80002edc	4146d9b3	sra	x19,x13,x20	 x13:0x00000000 x20:0xc0004f84 x19=0x00000000
       40725000	      4071	80002ee0	587ec193	xori	x3,x29,1415	 x29:0x00000000  x3=0x00000587
       40735000	      4072	80002ee4	41d457b3	sra	x15,x8,x29	  x8:0x80009fc4 x29:0x00000000 x15=0x80009fc4
       40745000	      4073	80002ee8	6a5e0793	addi	x15,x28,1701	 x28:0x00000001 x15=0x000006a6
       40755000	      4074	80002eec	38feda37	lui	x20,0x38fed	 x20=0x38fed000
       40765000	      4075	80002ef0	001b2233	slt	x4,x22,x1	 x22:0x00000d76  x1:0x00000000  x4=0x00000000
       40775000	      4076	80002ef4	03ebf663	bgeu	x23,x30,80002f20	 x23:0x00000000 x30:0x00000001
       40785000	      4077	80002ef8	01d55f33	srl	x30,x10,x29	 x10:0x00000d77 x29:0x00000000 x30=0x00000d77
       40795000	      4078	80002efc	ce0a2513	slti	x10,x20,-800	 x20:0x38fed000 x10=0x00000000
       40805000	      4079	80002f00	2b442993	slti	x19,x8,692	  x8:0x80009fc4 x19=0x00000001
       40815000	      4080	80002f04	012c17b3	sll	x15,x24,x18	 x24:0x00000000 x18:0x00000000 x15=0x00000000
       40825000	      4081	80002f08	01f49263	bne	x9,x31,80002f0c	  x9:0x00000002 x31:0x00000001
       40835000	      4082	00000000	00000013	addi	x0,x0,0	  x0:0x00000000
       40845000	      4083	80002f08	00000013	addi	x0,x0,0	  x0:0x00000000
       40855000	      4084	80002f0c	939e0f93	addi	x31,x28,-1735	 x28:0x00000001 x31=0xfffff93a
       40865000	      4085	80002f10	95701517	auipc	x10,0x95701	 x10=0x15703f0c
       40875000	      4086	80002f14	4187df93	srai	x31,x15,0x18	 x15:0x00000000 x31=0x00000000
       40885000	      4087	80002f18	abe17b93	andi	x23,x2,-1346	  x2:0xb2b8e001 x23=0xb2b8e000
       40895000	      4088	80002f1c	962b8d13	addi	x26,x23,-1694	 x23:0xb2b8e000 x26=0xb2b8d962
       40905000	      4089	80002f20	008bd493	srli	x9,x23,0x8	 x23:0xb2b8e000  x9=0x00b2b8e0
       40915000	      4090	80002f24	40645713	srai	x14,x8,0x6	  x8:0x80009fc4 x14=0xfe00027f
       40925000	      4091	80002f28	04a65063	bge	x12,x10,80002f68	 x12:0x00000d77 x10:0x15703f0c
       40935000	      4092	80002f2c	554b8393	addi	x7,x23,1364	 x23:0xb2b8e000  x7=0xb2b8e554
       40945000	      4093	80002f30	01d75533	srl	x10,x14,x29	 x14:0xfe00027f x29:0x00000000 x10=0xfe00027f
       40955000	      4094	80002f34	fdddbc93	sltiu	x25,x27,-35	 x27:0x80009f08 x25=0x00000001
       40965000	      4095	80002f38	01b40733	add	x14,x8,x27	  x8:0x80009fc4 x27:0x80009f08 x14=0x00013ecc
       40975000	      4096	80002f3c	01cd5cb3	srl	x25,x26,x28	 x26:0xb2b8d962 x28:0x00000001 x25=0x595c6cb1
       40985000	      4097	80002f40	0238ea63	bltu	x17,x3,80002f74	 x17:0x0000000c  x3:0x00000587
       40995000	      4098	00000000	00000013	addi	x0,x0,0	  x0:0x00000000
       41005000	      4099	80002f70	00000013	addi	x0,x0,0	  x0:0x00000000
       41015000	      4100	80002f74	038a0463	beq	x20,x24,80002f9c	 x20:0x38fed000 x24:0x00000000
       41025000	      4101	80002f78	015536b3	sltu	x13,x10,x21	 x10:0xfe00027f x21:0x80009f08 x13=0x00000000
       41035000	      4102	80002f7c	949cbc93	sltiu	x25,x25,-1719	 x25:0x595c6cb1 x25=0x00000001
       41045000	      4103	80002f80	025cda63	bge	x25,x5,80002fb4	 x25:0x00000001  x5:0x48fe1580
       41055000	      4104	80002f84	41b900b3	sub	x1,x18,x27	 x18:0x00000000 x27:0x80009f08  x1=0x7fff60f8
       41065000	      4105	80002f88	414d5d33	sra	x26,x26,x20	 x26:0xb2b8d962 x20:0x38fed000 x26=0xb2b8d962
       41075000	      4106	80002f8c	00c2e0b3	or	x1,x5,x12	  x5:0x48fe1580 x12:0x00000d77  x1=0x48fe1df7
       41085000	      4107	80002f90	0592d663	bge	x5,x25,80002fdc	  x5:0x48fe1580 x25:0x00000001
       41095000	      4108	00000000	00000013	addi	x0,x0,0	  x0:0x00000000
       41105000	      4109	80002fd8	00000013	addi	x0,x0,0	  x0:0x00000000
       41115000	      4110	80002fdc	03cd9263	bne	x27,x28,80003000	 x27:0x80009f08 x28:0x00000001
       41125000	      4111	00000000	00000013	addi	x0,x0,0	  x0:0x00000000
       41135000	      4112	80002ffc	00000013	addi	x0,x0,0	  x0:0x00000000
       41145000	      4113	80003000	01711b13	slli	x22,x2,0x17	  x2:0xb2b8e001 x22=0x00800000
       41155000	      4114	80003004	0006f133	and	x2,x13,x0	 x13:0x00000000  x0:0x00000000  x2=0x00000000
       41165000	      4115	80003008	58683193	sltiu	x3,x16,1414	 x16:0xb2b8e000  x3=0x00000000
       41175000	      4116	8000300c	735a6293	ori	x5,x20,1845	 x20:0x38fed000  x5=0x38fed735
       41185000	      4117	80003010	002811b3	sll	x3,x16,x2	 x16:0xb2b8e000  x2:0x00000000  x3=0xb2b8e000
       41195000	      4118	80003014	408bdcb3	sra	x25,x23,x8	 x23:0xb2b8e000  x8:0x80009fc4 x25=0xfb2b8e00
       41205000	      4119	80003018	04ce4263	blt	x28,x12,8000305c	 x28:0x00000001 x12:0x00000d77
       41215000	      4120	00000000	00000013	addi	x0,x0,0	  x0:0x00000000
       41225000	      4121	80003058	00000013	addi	x0,x0,0	  x0:0x00000000
       41235000	      4122	8000305c	01cf40b3	xor	x1,x30,x28	 x30:0x00000d77 x28:0x00000001  x1=0x00000d76
       41245000	      4123	80003060	01aade63	bge	x21,x26,8000307c	 x21:0x80009f08 x26:0xb2b8d962
       41255000	      4124	80003064	47fd9c37	lui	x24,0x47fd9	 x24=0x47fd9000
       41265000	      4125	80003068	01712cb3	slt	x25,x2,x23	  x2:0x00000000 x23:0xb2b8e000 x25=0x00000000
       41275000	      4126	8000306c	41050e33	sub	x28,x10,x16	 x10:0xfe00027f x16:0xb2b8e000 x28=0x4b47227f
       41285000	      4127	80003070	51158393	addi	x7,x11,1297	 x11:0x04fbd289  x7=0x04fbd79a
       41295000	      4128	80003074	4099de33	sra	x28,x19,x9	 x19:0x00000001  x9:0x00b2b8e0 x28=0x00000001
       41305000	      4129	80003078	404f5e13	srai	x28,x30,0x4	 x30:0x00000d77 x28=0x000000d7
       41315000	      4130	8000307c	03b49463	bne	x9,x27,800030a4	  x9:0x00b2b8e0 x27:0x80009f08
       41325000	      4131	00000000	00000013	addi	x0,x0,0	  x0:0x00000000
       41335000	      4132	800030a0	00000013	addi	x0,x0,0	  x0:0x00000000
       41345000	      4133	800030a4	001ebb33	sltu	x22,x29,x1	 x29:0x00000000  x1:0x00000d76 x22=0x00000001
       41355000	      4134	800030a8	0273da63	bge	x7,x7,800030dc	  x7:0x04fbd79a  x7:0x04fbd79a
       41365000	      4135	00000000	00000013	addi	x0,x0,0	  x0:0x00000000
       41375000	      4136	800030d8	00000013	addi	x0,x0,0	  x0:0x00000000
       41385000	      4137	800030dc	0059f833	and	x16,x19,x5	 x19:0x00000001  x5:0x38fed735 x16=0x00000001
       41395000	      4138	800030e0	419907b3	sub	x15,x18,x25	 x18:0x00000000 x25:0x00000000 x15=0x00000000
       41405000	      4139	800030e4	001d6a63	bltu	x26,x1,800030f8	 x26:0xb2b8d962  x1:0x00000d76
       41415000	      4140	800030e8	dc3de613	ori	x12,x27,-573	 x27:0x80009f08 x12=0xffffffcb
       41425000	      4141	800030ec	00000013	addi	x0,x0,0	  x0:0x00000000
       41435000	      4142	800030f0	48618797	auipc	x15,0x48618	 x15=0xc861b0ec
       41445000	      4143	800030f4	408cd933	sra	x18,x25,x8	 x25:0x00000000  x8:0x80009fc4 x18=0x00000000
       41455000	      4144	800030f8	00000013	addi	x0,x0,0	  x0:0x00000000
       41465000	      4145	800030fc	e2988397	auipc	x7,0xe2988	  x7=0x6298b0f8
       41475000	      4146	80003100	08658863	beq	x11,x6,80003190	 x11:0x04fbd289  x6:0x04fbe73d
       41485000	      4147	80003104	09826463	bltu	x4,x24,8000318c	  x4:0x00000000 x24:0x47fd9000
       41495000	      4148	00000000	00000013	addi	x0,x0,0	  x0:0x00000000
       41505000	      4149	80003188	00000013	addi	x0,x0,0	  x0:0x00000000
       41515000	      4150	8000318c	00585513	srli	x10,x16,0x5	 x16:0x00000001 x10=0x00000000
       41525000	      4151	80003190	4192d333	sra	x6,x5,x25	  x5:0x38fed735 x25:0x00000000  x6=0x38fed735
       41535000	      4152	80003194	fbf16513	ori	x10,x2,-65	  x2:0x00000000 x10=0xffffffbf
       41545000	      4153	80003198	010294b3	sll	x9,x5,x16	  x5:0x38fed735 x16:0x00000001  x9=0x71fdae6a
       41555000	      4154	8000319c	017b4863	blt	x22,x23,800031ac	 x22:0x00000001 x23:0xb2b8e000
       41565000	      4155	800031a0	dbb0cd17	auipc	x26,0xdbb0c	 x26=0x5bb0f19c
       41575000	      4156	800031a4	bd047993	andi	x19,x8,-1072	  x8:0x80009fc4 x19=0x80009bc0
       41585000	      4157	800031a8	00a71133	sll	x2,x14,x10	 x14:0x00013ecc x10:0xffffffbf  x2=0x00000000
       41595000	      4158	800031ac	a6119297	auipc	x5,0xa6119	  x5=0x2611c1a8
       41605000	      4159	800031b0	00aa4cb3	xor	x25,x20,x10	 x20:0x38fed000 x10:0xffffffbf x25=0xc7012fbf
       41615000	      4160	800031b4	4c5f4f93	xori	x31,x30,1221	 x30:0x00000d77 x31=0x000009b2
       41625000	      4161	800031b8	00000013	addi	x0,x0,0	  x0:0x00000000
       41635000	      4162	800031bc	0024f233	and	x4,x9,x2	  x9:0x71fdae6a  x2:0x00000000  x4=0x00000000
       41645000	      4163	800031c0	01f9fe33	and	x28,x19,x31	 x19:0x80009bc0 x31:0x000009b2 x28=0x00000980
       41655000	      4164	800031c4	40535f93	srai	x31,x6,0x5	  x6:0x38fed735 x31=0x01c7f6b9
       41665000	      4165	800031c8	0571d263	bge	x3,x23,8000320c	  x3:0xb2b8e000 x23:0xb2b8e000
       41675000	      4166	00000000	00000013	addi	x0,x0,0	  x0:0x00000000
       41685000	      4167	80003208	00000013	addi	x0,x0,0	  x0:0x00000000
       41695000	      4168	8000320c	03bb1263	bne	x22,x27,80003230	 x22:0x00000001 x27:0x80009f08
       41705000	      4169	00000000	00000013	addi	x0,x0,0	  x0:0x00000000
       41715000	      4170	8000322c	00000013	addi	x0,x0,0	  x0:0x00000000
       41725000	      4171	80003230	00ebeab3	or	x21,x23,x14	 x23:0xb2b8e000 x14:0x00013ecc x21=0xb2b9fecc
       41735000	      4172	80003234	27be8213	addi	x4,x29,635	 x29:0x00000000  x4=0x0000027b
       41745000	      4173	80003238	2167eb93	ori	x23,x15,534	 x15:0xc861b0ec x23=0xc861b2fe
       41755000	      4174	8000323c	c4087993	andi	x19,x16,-960	 x16:0x00000001 x19=0x00000000
       41765000	      4175	80003240	01bf4733	xor	x14,x30,x27	 x30:0x00000d77 x27:0x80009f08 x14=0x8000927f
       41775000	      4176	80003244	00217c33	and	x24,x2,x2	  x2:0x00000000  x2:0x00000000 x24=0x00000000
       41785000	      4177	80003248	0d1c3193	sltiu	x3,x24,209	 x24:0x00000000  x3=0x00000001
       41795000	      4178	8000324c	2cfec7b7	lui	x15,0x2cfec	 x15=0x2cfec000
       41805000	      4179	80003250	01e5c833	xor	x16,x11,x30	 x11:0x04fbd289 x30:0x00000d77 x16=0x04fbdffe
       41815000	      4180	80003254	75e44913	xori	x18,x8,1886	  x8:0x80009fc4 x18=0x8000989a
       41825000	      4181	80003258	38f56697	auipc	x13,0x38f56	 x13=0xb8f59254
       41835000	      4182	8000325c	004a9eb3	sll	x29,x21,x4	 x21:0xb2b9fecc  x4:0x0000027b x29=0x60000000
       41845000	      4183	80003260	019f7a33	and	x20,x30,x25	 x30:0x00000d77 x25:0xc7012fbf x20=0x00000d37
       41855000	      4184	80003264	018a1bb3	sll	x23,x20,x24	 x20:0x00000d37 x24:0x00000000 x23=0x00000d37
       41865000	      4185	80003268	00945e63	bge	x8,x9,80003284	  x8:0x80009fc4  x9:0x71fdae6a
       41875000	      4186	8000326c	00000013	addi	x0,x0,0	  x0:0x00000000
       41885000	      4187	80003270	025ce663	bltu	x25,x5,8000329c	 x25:0xc7012fbf  x5:0x2611c1a8
       41895000	      4188	80003274	00234cb3	xor	x25,x6,x2	  x6:0x38fed735  x2:0x00000000 x25=0x38fed735
       41905000	      4189	80003278	4161d693	srai	x13,x3,0x16	  x3:0x00000001 x13=0x00000000
       41915000	      4190	8000327c	00ee01b3	add	x3,x28,x14	 x28:0x00000980 x14:0x8000927f  x3=0x80009bff
       41925000	      4191	80003280	01aae2b3	or	x5,x21,x26	 x21:0xb2b9fecc x26:0x5bb0f19c  x5=0xfbb9ffdc
       41935000	      4192	80003284	00ef6cb3	or	x25,x30,x14	 x30:0x00000d77 x14:0x8000927f x25=0x80009f7f
       41945000	      4193	80003288	01468833	add	x16,x13,x20	 x13:0x00000000 x20:0x00000d37 x16=0x00000d37
       41955000	      4194	8000328c	41e05013	srai	x0,x0,0x1e	  x0:0x00000000
       41965000	      4195	80003290	00e2dfb3	srl	x31,x5,x14	  x5:0xfbb9ffdc x14:0x8000927f x31=0x00000001
       41975000	      4196	80003294	05251263	bne	x10,x18,800032d8	 x10:0xffffffbf x18:0x8000989a
       41985000	      4197	00000000	00000013	addi	x0,x0,0	  x0:0x00000000
       41995000	      4198	800032d4	00000013	addi	x0,x0,0	  x0:0x00000000
       42005000	      4199	800032d8	018ac2b3	xor	x5,x21,x24	 x21:0xb2b9fecc x24:0x00000000  x5=0xb2b9fecc
       42015000	      4200	800032dc	2458fe37	lui	x28,0x2458f	 x28=0x2458f000
       42025000	      4201	800032e0	00961813	slli	x16,x12,0x9	 x12:0xffffffcb x16=0xffff9600
       42035000	      4202	800032e4	81bd8093	addi	x1,x27,-2021	 x27:0x80009f08  x1=0x80009723
       42045000	      4203	800032e8	0123f863	bgeu	x7,x18,800032f8	  x7:0x6298b0f8 x18:0x8000989a
       42055000	      4204	800032ec	0d047793	andi	x15,x8,208	  x8:0x80009fc4 x15=0x000000c0
       42065000	      4205	800032f0	01e15cb3	srl	x25,x2,x30	  x2:0x00000000 x30:0x00000d77 x25=0x00000000
       42075000	      4206	800032f4	0379d863	bge	x19,x23,80003324	 x19:0x00000000 x23:0x00000d37
       42085000	      4207	800032f8	000d5a33	srl	x20,x26,x0	 x26:0x5bb0f19c  x0:0x00000000 x20=0x5bb0f19c
       42095000	      4208	800032fc	014ec333	xor	x6,x29,x20	 x29:0x60000000 x20:0x5bb0f19c  x6=0x3bb0f19c
       42105000	      4209	80003300	5b380017	auipc	x0,0x5b380	
       42115000	      4210	80003304	086bc097	auipc	x1,0x86bc	  x1=0x886bf300
       42125000	      4211	80003308	003edab3	srl	x21,x29,x3	 x29:0x60000000  x3:0x80009bff x21=0x00000000
       42135000	      4212	8000330c	400e5313	srai	x6,x28,0x0	 x28:0x2458f000  x6=0x2458f000
       42145000	      4213	80003310	01bd1663	bne	x26,x27,8000331c	 x26:0x5bb0f19c x27:0x80009f08
       42155000	      4214	00000000	00000013	addi	x0,x0,0	  x0:0x00000000
       42165000	      4215	80003318	00000013	addi	x0,x0,0	  x0:0x00000000
       42175000	      4216	8000331c	00da0ab3	add	x21,x20,x13	 x20:0x5bb0f19c x13:0x00000000 x21=0x5bb0f19c
       42185000	      4217	80003320	00e6c5b3	xor	x11,x13,x14	 x13:0x00000000 x14:0x8000927f x11=0x8000927f
       42195000	      4218	80003324	0097c9b3	xor	x19,x15,x9	 x15:0x000000c0  x9:0x71fdae6a x19=0x71fdaeaa
       42205000	      4219	80003328	93c24513	xori	x10,x4,-1732	  x4:0x0000027b x10=0xfffffb47
       42215000	      4220	8000332c	00e82ab3	slt	x21,x16,x14	 x16:0xffff9600 x14:0x8000927f x21=0x00000000
       42225000	      4221	80003330	00cbc3b3	xor	x7,x23,x12	 x23:0x00000d37 x12:0xffffffcb  x7=0xfffff2fc
       42235000	      4222	80003334	01cdb2b3	sltu	x5,x27,x28	 x27:0x80009f08 x28:0x2458f000  x5=0x00000000
       42245000	      4223	80003338	895e3237	lui	x4,0x895e3	  x4=0x895e3000
       42255000	      4224	8000333c	01d3f9b3	and	x19,x7,x29	  x7:0xfffff2fc x29:0x60000000 x19=0x60000000
       42265000	      4225	80003340	405c0333	sub	x6,x24,x5	 x24:0x00000000  x5:0x00000000  x6=0x00000000
       42275000	      4226	80003344	002afc33	and	x24,x21,x2	 x21:0x00000000  x2:0x00000000 x24=0x00000000
       42285000	      4227	80003348	4098d113	srai	x2,x17,0x9	 x17:0x0000000c  x2=0x00000000
       42295000	      4228	8000334c	2bceb593	sltiu	x11,x29,700	 x29:0x60000000 x11=0x00000000
       42305000	      4229	80003350	0133a933	slt	x18,x7,x19	  x7:0xfffff2fc x19:0x60000000 x18=0x00000001
       42315000	      4230	80003354	40b55c13	srai	x24,x10,0xb	 x10:0xfffffb47 x24=0xffffffff
       42325000	      4231	80003358	fe9e3293	sltiu	x5,x28,-23	 x28:0x2458f000  x5=0x00000001
       42335000	      4232	8000335c	015cf733	and	x14,x25,x21	 x25:0x00000000 x21:0x00000000 x14=0x00000000
       42345000	      4233	80003360	04b9c463	blt	x19,x11,800033a8	 x19:0x60000000 x11:0x00000000
       42355000	      4234	80003364	011c6e33	or	x28,x24,x17	 x24:0xffffffff x17:0x0000000c x28=0xffffffff
       42365000	      4235	80003368	00566333	or	x6,x12,x5	 x12:0xffffffcb  x5:0x00000001  x6=0xffffffcb
       42375000	      4236	8000336c	01a14eb3	xor	x29,x2,x26	  x2:0x00000000 x26:0x5bb0f19c x29=0x5bb0f19c
       42385000	      4237	80003370	0592e063	bltu	x5,x25,800033b0	  x5:0x00000001 x25:0x00000000
       42395000	      4238	80003374	01d80833	add	x16,x16,x29	 x16:0xffff9600 x29:0x5bb0f19c x16=0x5bb0879c
       42405000	      4239	80003378	02a44263	blt	x8,x10,8000339c	  x8:0x80009fc4 x10:0xfffffb47
       42415000	      4240	00000000	00000013	addi	x0,x0,0	  x0:0x00000000
       42425000	      4241	80003398	00000013	addi	x0,x0,0	  x0:0x00000000
       42435000	      4242	8000339c	013cca33	xor	x20,x25,x19	 x25:0x00000000 x19:0x60000000 x20=0x60000000
       42445000	      4243	800033a0	41b5d133	sra	x2,x11,x27	 x11:0x00000000 x27:0x80009f08  x2=0x00000000
       42455000	      4244	800033a4	eb82a093	slti	x1,x5,-328	  x5:0x00000001  x1=0x00000000
       42465000	      4245	800033a8	05a6c063	blt	x13,x26,800033e8	 x13:0x00000000 x26:0x5bb0f19c
       42475000	      4246	00000000	00000013	addi	x0,x0,0	  x0:0x00000000
       42485000	      4247	800033e4	00000013	addi	x0,x0,0	  x0:0x00000000
       42495000	      4248	800033e8	00074933	xor	x18,x14,x0	 x14:0x00000000  x0:0x00000000 x18=0x00000000
       42505000	      4249	800033ec	0112be33	sltu	x28,x5,x17	  x5:0x00000001 x17:0x0000000c x28=0x00000001
       42515000	      4250	800033f0	f713f393	andi	x7,x7,-143	  x7:0xfffff2fc  x7=0xfffff270
       42525000	      4251	800033f4	042b8063	beq	x23,x2,80003434	 x23:0x00000d37  x2:0x00000000
       42535000	      4252	800033f8	f7733b13	sltiu	x22,x6,-137	  x6:0xffffffcb x22=0x00000000
       42545000	      4253	800033fc	01473833	sltu	x16,x14,x20	 x14:0x00000000 x20:0x60000000 x16=0x00000001
       42555000	      4254	80003400	01219863	bne	x3,x18,80003410	  x3:0x80009bff x18:0x00000000
       42565000	      4255	00000000	00000013	addi	x0,x0,0	  x0:0x00000000
       42575000	      4256	8000340c	00000013	addi	x0,x0,0	  x0:0x00000000
       42585000	      4257	80003410	40ffd933	sra	x18,x31,x15	 x31:0x00000001 x15:0x000000c0 x18=0x00000001
       42595000	      4258	80003414	011aa6b3	slt	x13,x21,x17	 x21:0x00000000 x17:0x0000000c x13=0x00000001
       42605000	      4259	80003418	00d86c33	or	x24,x16,x13	 x16:0x00000001 x13:0x00000001 x24=0x00000001
       42615000	      4260	8000341c	133f4b13	xori	x22,x30,307	 x30:0x00000d77 x22=0x00000c44
       42625000	      4261	80003420	5c274513	xori	x10,x14,1474	 x14:0x00000000 x10=0x000005c2
       42635000	      4262	80003424	03b9ca63	blt	x19,x27,80003458	 x19:0x60000000 x27:0x80009f08
       42645000	      4263	80003428	000ade33	srl	x28,x21,x0	 x21:0x00000000  x0:0x00000000 x28=0x00000000
       42655000	      4264	8000342c	c58f8613	addi	x12,x31,-936	 x31:0x00000001 x12=0xfffffc59
       42665000	      4265	80003430	40af8e33	sub	x28,x31,x10	 x31:0x00000001 x10:0x000005c2 x28=0xfffffa3f
       42675000	      4266	80003434	0056b933	sltu	x18,x13,x5	 x13:0x00000001  x5:0x00000001 x18=0x00000000
       42685000	      4267	80003438	05e1e463	bltu	x3,x30,80003480	  x3:0x80009bff x30:0x00000d77
       42695000	      4268	8000343c	00440a63	beq	x8,x4,80003450	  x8:0x80009fc4  x4:0x895e3000
       42705000	      4269	80003440	2bc2ee17	auipc	x28,0x2bc2e	 x28=0xabc3143c
       42715000	      4270	80003444	a096ee13	ori	x28,x13,-1527	 x13:0x00000001 x28=0xfffffa09
       42725000	      4271	80003448	00bed513	srli	x10,x29,0xb	 x29:0x5bb0f19c x10=0x000b761e
       42735000	      4272	8000344c	039e0a63	beq	x28,x25,80003480	 x28:0xfffffa09 x25:0x00000000
       42745000	      4273	80003450	4002de33	sra	x28,x5,x0	  x5:0x00000001  x0:0x00000000 x28=0x00000001
       42755000	      4274	80003454	05f55863	bge	x10,x31,800034a4	 x10:0x000b761e x31:0x00000001
       42765000	      4275	00000000	00000013	addi	x0,x0,0	  x0:0x00000000
       42775000	      4276	800034a0	00000013	addi	x0,x0,0	  x0:0x00000000
       42785000	      4277	800034a4	9a4b7613	andi	x12,x22,-1628	 x22:0x00000c44 x12=0x00000804
       42795000	      4278	800034a8	aeb42693	slti	x13,x8,-1301	  x8:0x80009fc4 x13=0x00000001
       42805000	      4279	800034ac	05a57263	bgeu	x10,x26,800034f0	 x10:0x000b761e x26:0x5bb0f19c
       42815000	      4280	800034b0	07e02513	slti	x10,x0,126	  x0:0x00000000 x10=0x00000001
       42825000	      4281	800034b4	01ead693	srli	x13,x21,0x1e	 x21:0x00000000 x13=0x00000000
       42835000	      4282	800034b8	040c5663	bge	x24,x0,80003504	 x24:0x00000001  x0:0x00000000
       42845000	      4283	00000000	00000013	addi	x0,x0,0	  x0:0x00000000
       42855000	      4284	80003500	00000013	addi	x0,x0,0	  x0:0x00000000
       42865000	      4285	80003504	4073dbb3	sra	x23,x7,x7	  x7:0xfffff270  x7:0xfffff270 x23=0xffffffff
       42875000	      4286	80003508	02a9d863	bge	x19,x10,80003538	 x19:0x60000000 x10:0x00000001
       42885000	      4287	00000000	00000013	addi	x0,x0,0	  x0:0x00000000
       42895000	      4288	80003534	00000013	addi	x0,x0,0	  x0:0x00000000
       42905000	      4289	80003538	004a5e33	srl	x28,x20,x4	 x20:0x60000000  x4:0x895e3000 x28=0x60000000
       42915000	      4290	8000353c	0330c663	blt	x1,x19,80003568	  x1:0x00000000 x19:0x60000000
       42925000	      4291	00000000	00000013	addi	x0,x0,0	  x0:0x00000000
       42935000	      4292	80003564	00000013	addi	x0,x0,0	  x0:0x00000000
       42945000	      4293	80003568	00aa63b3	or	x7,x20,x10	 x20:0x60000000 x10:0x00000001  x7=0x60000001
       42955000	      4294	8000356c	41e35d13	srai	x26,x6,0x1e	  x6:0xffffffcb x26=0xffffffff
       42965000	      4295	80003570	01f25e63	bge	x4,x31,8000358c	  x4:0x895e3000 x31:0x00000001
       42975000	      4296	80003574	008b20b3	slt	x1,x22,x8	 x22:0x00000c44  x8:0x80009fc4  x1=0x00000000
       42985000	      4297	80003578	00c8e333	or	x6,x17,x12	 x17:0x0000000c x12:0x00000804  x6=0x0000080c
       42995000	      4298	8000357c	1a23a917	auipc	x18,0x1a23a	 x18=0x9a23d578
       43005000	      4299	80003580	00cecbb3	xor	x23,x29,x12	 x29:0x5bb0f19c x12:0x00000804 x23=0x5bb0f998
       43015000	      4300	80003584	005f9993	slli	x19,x31,0x5	 x31:0x00000001 x19=0x00000020
       43025000	      4301	80003588	018ac6b3	xor	x13,x21,x24	 x21:0x00000000 x24:0x00000001 x13=0x00000001
       43035000	      4302	8000358c	8bbe8193	addi	x3,x29,-1861	 x29:0x5bb0f19c  x3=0x5bb0ea57
       43045000	      4303	80003590	0033deb3	srl	x29,x7,x3	  x7:0x60000001  x3:0x5bb0ea57 x29=0x000000c0
       43055000	      4304	80003594	f93e8493	addi	x9,x29,-109	 x29:0x000000c0  x9=0x00000053
       43065000	      4305	80003598	032a5263	bge	x20,x18,800035bc	 x20:0x60000000 x18:0x9a23d578
       43075000	      4306	00000000	00000013	addi	x0,x0,0	  x0:0x00000000
       43085000	      4307	800035b8	00000013	addi	x0,x0,0	  x0:0x00000000
       43095000	      4308	800035bc	487613b7	lui	x7,0x48761	  x7=0x48761000
       43105000	      4309	800035c0	01f2d1b3	srl	x3,x5,x31	  x5:0x00000001 x31:0x00000001  x3=0x00000000
       43115000	      4310	800035c4	02434863	blt	x6,x4,800035f4	  x6:0x0000080c  x4:0x895e3000
       43125000	      4311	800035c8	40508233	sub	x4,x1,x5	  x1:0x00000000  x5:0x00000001  x4=0xffffffff
       43135000	      4312	800035cc	022bc663	blt	x23,x2,800035f8	 x23:0x5bb0f998  x2:0x00000000
       43145000	      4313	800035d0	41568eb3	sub	x29,x13,x21	 x13:0x00000001 x21:0x00000000 x29=0x00000001
       43155000	      4314	800035d4	68b67493	andi	x9,x12,1675	 x12:0x00000804  x9=0x00000000
       43165000	      4315	800035d8	02cf8863	beq	x31,x12,80003608	 x31:0x00000001 x12:0x00000804
       43175000	      4316	800035dc	dfcb0993	addi	x19,x22,-516	 x22:0x00000c44 x19=0x00000a40
       43185000	      4317	800035e0	41dad493	srai	x9,x21,0x1d	 x21:0x00000000  x9=0x00000000
       43195000	      4318	800035e4	04c75263	bge	x14,x12,80003628	 x14:0x00000000 x12:0x00000804
       43205000	      4319	800035e8	0fdbaa13	slti	x20,x23,253	 x23:0x5bb0f998 x20=0x00000000
       43215000	      4320	800035ec	0348fe63	bgeu	x17,x20,80003628	 x17:0x0000000c x20:0x00000000
       43225000	      4321	00000000	00000013	addi	x0,x0,0	  x0:0x00000000
       43235000	      4322	80003624	00000013	addi	x0,x0,0	  x0:0x00000000
       43245000	      4323	80003628	82178193	addi	x3,x15,-2015	 x15:0x000000c0  x3=0xfffff8e1
       43255000	      4324	8000362c	411cde93	srai	x29,x25,0x11	 x25:0x00000000 x29=0x00000000
       43265000	      4325	80003630	00edd313	srli	x6,x27,0xe	 x27:0x80009f08  x6=0x00020002
       43275000	      4326	80003634	000c5f33	srl	x30,x24,x0	 x24:0x00000001  x0:0x00000000 x30=0x00000001
       43285000	      4327	80003638	00000013	addi	x0,x0,0	  x0:0x00000000
       43295000	      4328	8000363c	01faa533	slt	x10,x21,x31	 x21:0x00000000 x31:0x00000001 x10=0x00000001
       43305000	      4329	80003640	47baa493	slti	x9,x21,1147	 x21:0x00000000  x9=0x00000001
       43315000	      4330	80003644	75857813	andi	x16,x10,1880	 x10:0x00000001 x16=0x00000000
       43325000	      4331	80003648	387e41b7	lui	x3,0x387e4	  x3=0x387e4000
       43335000	      4332	8000364c	00c7d4b3	srl	x9,x15,x12	 x15:0x000000c0 x12:0x00000804  x9=0x0000000c
       43345000	      4333	80003650	03c5ea63	bltu	x11,x28,80003684	 x11:0x00000000 x28:0x60000000
       43355000	      4334	00000000	00000013	addi	x0,x0,0	  x0:0x00000000
       43365000	      4335	80003680	00000013	addi	x0,x0,0	  x0:0x00000000
       43375000	      4336	80003684	01bb4633	xor	x12,x22,x27	 x22:0x00000c44 x27:0x80009f08 x12=0x8000934c
       43385000	      4337	80003688	415286b3	sub	x13,x5,x21	  x5:0x00000001 x21:0x00000000 x13=0x00000001
       43395000	      4338	8000368c	41710733	sub	x14,x2,x23	  x2:0x00000000 x23:0x5bb0f998 x14=0xa44f0668
       43405000	      4339	80003690	00e27663	bgeu	x4,x14,8000369c	  x4:0xffffffff x14:0xa44f0668
       43415000	      4340	00000000	00000013	addi	x0,x0,0	  x0:0x00000000
       43425000	      4341	80003698	00000013	addi	x0,x0,0	  x0:0x00000000
       43435000	      4342	8000369c	015fb013	sltiu	x0,x31,21	 x31:0x00000001
       43445000	      4343	800036a0	77bd42b7	lui	x5,0x77bd4	  x5=0x77bd4000
       43455000	      4344	800036a4	d06e3997	auipc	x19,0xd06e3	 x19=0x506e66a0
       43465000	      4345	800036a8	01b79a13	slli	x20,x15,0x1b	 x15:0x000000c0 x20=0x00000000
       43475000	      4346	800036ac	00705813	srli	x16,x0,0x7	  x0:0x00000000 x16=0x00000000
       43485000	      4347	800036b0	415559b3	sra	x19,x10,x21	 x10:0x00000001 x21:0x00000000 x19=0x00000001
       43495000	      4348	800036b4	00481633	sll	x12,x16,x4	 x16:0x00000000  x4:0xffffffff x12=0x00000000
       43505000	      4349	800036b8	0044c2b3	xor	x5,x9,x4	  x9:0x0000000c  x4:0xffffffff  x5=0xfffffff3
       43515000	      4350	800036bc	819de6b7	lui	x13,0x819de	 x13=0x819de000
       43525000	      4351	800036c0	008c72b3	and	x5,x24,x8	 x24:0x00000001  x8:0x80009fc4  x5=0x00000000
       43535000	      4352	800036c4	01c78233	add	x4,x15,x28	 x15:0x000000c0 x28:0x60000000  x4=0x600000c0
       43545000	      4353	800036c8	41aa5bb3	sra	x23,x20,x26	 x20:0x00000000 x26:0xffffffff x23=0x00000000
       43555000	      4354	800036cc	41b080b3	sub	x1,x1,x27	  x1:0x00000000 x27:0x80009f08  x1=0x7fff60f8
       43565000	      4355	800036d0	01ed73b3	and	x7,x26,x30	 x26:0xffffffff x30:0x00000001  x7=0x00000001
       43575000	      4356	800036d4	b6b04613	xori	x12,x0,-1173	  x0:0x00000000 x12=0xfffffb6b
       43585000	      4357	800036d8	01aa15b3	sll	x11,x20,x26	 x20:0x00000000 x26:0xffffffff x11=0x00000000
       43595000	      4358	800036dc	2bfe0993	addi	x19,x28,703	 x28:0x60000000 x19=0x600002bf
       43605000	      4359	800036e0	001e3c33	sltu	x24,x28,x1	 x28:0x60000000  x1:0x7fff60f8 x24=0x00000001
       43615000	      4360	800036e4	94dda113	slti	x2,x27,-1715	 x27:0x80009f08  x2=0x00000001
       43625000	      4361	800036e8	41f75c93	srai	x25,x14,0x1f	 x14:0xa44f0668 x25=0xffffffff
       43635000	      4362	800036ec	03669a63	bne	x13,x22,80003720	 x13:0x819de000 x22:0x00000c44
       43645000	      4363	00000000	00000013	addi	x0,x0,0	  x0:0x00000000
       43655000	      4364	8000371c	00000013	addi	x0,x0,0	  x0:0x00000000
       43665000	      4365	80003720	0180e3b3	or	x7,x1,x24	  x1:0x7fff60f8 x24:0x00000001  x7=0x7fff60f9
       43675000	      4366	80003724	00dfe6b3	or	x13,x31,x13	 x31:0x00000001 x13:0x819de000 x13=0x819de001
       43685000	      4367	80003728	00b1d5b3	srl	x11,x3,x11	  x3:0x387e4000 x11:0x00000000 x11=0x387e4000
       43695000	      4368	8000372c	8d576613	ori	x12,x14,-1835	 x14:0xa44f0668 x12=0xfffffefd
       43705000	      4369	80003730	00000013	addi	x0,x0,0	  x0:0x00000000
       43715000	      4370	80003734	011df663	bgeu	x27,x17,80003740	 x27:0x80009f08 x17:0x0000000c
       43725000	      4371	00000000	00000013	addi	x0,x0,0	  x0:0x00000000
       43735000	      4372	8000373c	00000013	addi	x0,x0,0	  x0:0x00000000
       43745000	      4373	80003740	67aaa593	slti	x11,x21,1658	 x21:0x00000000 x11=0x00000001
       43755000	      4374	80003744	012bf263	bgeu	x23,x18,80003748	 x23:0x00000000 x18:0x9a23d578
       43765000	      4375	80003748	01d25d33	srl	x26,x4,x29	  x4:0x600000c0 x29:0x00000000 x26=0x600000c0
       43775000	      4376	8000374c	b6d3fc13	andi	x24,x7,-1171	  x7:0x7fff60f9 x24=0x7fff6069
       43785000	      4377	80003750	23ebecb7	lui	x25,0x23ebe	 x25=0x23ebe000
       43795000	      4378	80003754	003cdeb3	srl	x29,x25,x3	 x25:0x23ebe000  x3:0x387e4000 x29=0x23ebe000
       43805000	      4379	80003758	01756533	or	x10,x10,x23	 x10:0x00000001 x23:0x00000000 x10=0x00000001
       43815000	      4380	8000375c	9644cab7	lui	x21,0x9644c	 x21=0x9644c000
       43825000	      4381	80003760	010e6333	or	x6,x28,x16	 x28:0x60000000 x16:0x00000000  x6=0x60000000
       43835000	      4382	80003764	01723133	sltu	x2,x4,x23	  x4:0x600000c0 x23:0x00000000  x2=0x00000000
       43845000	      4383	80003768	018aa7b3	slt	x15,x21,x24	 x21:0x9644c000 x24:0x7fff6069 x15=0x00000001
       43855000	      4384	8000376c	0115df33	srl	x30,x11,x17	 x11:0x00000001 x17:0x0000000c x30=0x00000000
       43865000	      4385	80003770	5ffdb397	auipc	x7,0x5ffdb	  x7=0xdffde76c
       43875000	      4386	80003774	001d4fb3	xor	x31,x26,x1	 x26:0x600000c0  x1:0x7fff60f8 x31=0x1fff6038
       43885000	      4387	80003778	04da4863	blt	x20,x13,800037c8	 x20:0x00000000 x13:0x819de001
       43895000	      4388	8000377c	00a17a63	bgeu	x2,x10,80003790	  x2:0x00000000 x10:0x00000001
       43905000	      4389	80003780	49502813	slti	x16,x0,1173	  x0:0x00000000 x16=0x00000001
       43915000	      4390	80003784	4047d0b3	sra	x1,x15,x4	 x15:0x00000001  x4:0x600000c0  x1=0x00000001
       43925000	      4391	80003788	00f39193	slli	x3,x7,0xf	  x7:0xdffde76c  x3=0xf3b60000
       43935000	      4392	8000378c	467cfe13	andi	x28,x25,1127	 x25:0x23ebe000 x28=0x00000000
       43945000	      4393	80003790	05034463	blt	x6,x16,800037d8	  x6:0x60000000 x16:0x00000001
       43955000	      4394	80003794	00cfc093	xori	x1,x31,12	 x31:0x1fff6038  x1=0x1fff6034
       43965000	      4395	80003798	0331f663	bgeu	x3,x19,800037c4	  x3:0xf3b60000 x19:0x600002bf
       43975000	      4396	00000000	00000013	addi	x0,x0,0	  x0:0x00000000
       43985000	      4397	800037c0	00000013	addi	x0,x0,0	  x0:0x00000000
       43995000	      4398	800037c4	9fd9d317	auipc	x6,0x9fd9d	  x6=0x1fda07c0
       44005000	      4399	800037c8	00729cb3	sll	x25,x5,x7	  x5:0x00000000  x7:0xdffde76c x25=0x00000000
       44015000	      4400	800037cc	eead8613	addi	x12,x27,-278	 x27:0x80009f08 x12=0x80009df2
       44025000	      4401	800037d0	573c3a93	sltiu	x21,x24,1395	 x24:0x7fff6069 x21=0x00000000
       44035000	      4402	800037d4	41410eb3	sub	x29,x2,x20	  x2:0x00000000 x20:0x00000000 x29=0x00000000
       44045000	      4403	800037d8	10063f37	lui	x30,0x10063	 x30=0x10063000
       44055000	      4404	800037dc	00000013	addi	x0,x0,0	  x0:0x00000000
       44065000	      4405	800037e0	98fee597	auipc	x11,0x98fee	 x11=0x18ff17dc
       44075000	      4406	800037e4	55f8e493	ori	x9,x17,1375	 x17:0x0000000c  x9=0x0000055f
       44085000	      4407	800037e8	00000013	addi	x0,x0,0	  x0:0x00000000
       44095000	      4408	800037ec	015f7fb3	and	x31,x30,x21	 x30:0x10063000 x21:0x00000000 x31=0x00000000
       44105000	      4409	800037f0	875d4613	xori	x12,x26,-1931	 x26:0x600000c0 x12=0x9ffff8b5
       44115000	      4410	800037f4	01190e33	add	x28,x18,x17	 x18:0x9a23d578 x17:0x0000000c x28=0x9a23d584
       44125000	      4411	800037f8	2a9e2993	slti	x19,x28,681	 x28:0x9a23d584 x19=0x00000001
       44135000	      4412	800037fc	003df863	bgeu	x27,x3,8000380c	 x27:0x80009f08  x3:0xf3b60000
       44145000	      4413	80003800	00000013	addi	x0,x0,0	  x0:0x00000000
       44155000	      4414	80003804	00000013	addi	x0,x0,0	  x0:0x00000000
       44165000	      4415	80003808	056c7063	bgeu	x24,x22,80003848	 x24:0x7fff6069 x22:0x00000c44
       44175000	      4416	00000000	00000013	addi	x0,x0,0	  x0:0x00000000
       44185000	      4417	80003844	00000013	addi	x0,x0,0	  x0:0x00000000
       44195000	      4418	80003848	cbad4193	xori	x3,x26,-838	 x26:0x600000c0  x3=0x9ffffc7a
       44205000	      4419	8000384c	020d6863	bltu	x26,x0,8000387c	 x26:0x600000c0  x0:0x00000000
       44215000	      4420	80003850	8e85ef93	ori	x31,x11,-1816	 x11:0x18ff17dc x31=0xfffffffc
       44225000	      4421	80003854	05589263	bne	x17,x21,80003898	 x17:0x0000000c x21:0x00000000
       44235000	      4422	00000000	00000013	addi	x0,x0,0	  x0:0x00000000
       44245000	      4423	80003894	00000013	addi	x0,x0,0	  x0:0x00000000
       44255000	      4424	80003898	01a3c3b3	xor	x7,x7,x26	  x7:0xdffde76c x26:0x600000c0  x7=0xbffde7ac
       44265000	      4425	8000389c	0b50b637	lui	x12,0xb50b	 x12=0x0b50b000
       44275000	      4426	800038a0	022b7863	bgeu	x22,x2,800038d0	 x22:0x00000c44  x2:0x00000000
       44285000	      4427	00000000	00000013	addi	x0,x0,0	  x0:0x00000000
       44295000	      4428	800038cc	00000013	addi	x0,x0,0	  x0:0x00000000
       44305000	      4429	800038d0	01574e63	blt	x14,x21,800038ec	 x14:0xa44f0668 x21:0x00000000
       44315000	      4430	00000000	00000013	addi	x0,x0,0	  x0:0x00000000
       44325000	      4431	800038e8	00000013	addi	x0,x0,0	  x0:0x00000000
       44335000	      4432	800038ec	fd492a93	slti	x21,x18,-44	 x18:0x9a23d578 x21=0x00000001
       44345000	      4433	800038f0	b89ff993	andi	x19,x31,-1143	 x31:0xfffffffc x19=0xfffffb88
       44355000	      4434	800038f4	004da083	lw	x1,4(x27)	 x27:0x80009f08  x1=0x80003984 PA:0x80009f0c
       44365000	      4435	800038f8	0c69e713	ori	x14,x19,198	 x19:0xfffffb88 x14=0xfffffbce
       44375000	      4436	800038fc	011fc5b3	xor	x11,x31,x17	 x31:0xfffffffc x17:0x0000000c x11=0xfffffff0
       44385000	      4437	80003900	00000013	addi	x0,x0,0	  x0:0x00000000
       44395000	      4438	80003904	015a8e33	add	x28,x21,x21	 x21:0x00000001 x21:0x00000001 x28=0x00000002
       44405000	      4439	80003908	047659b7	lui	x19,0x4765	 x19=0x04765000
       44415000	      4440	8000390c	00cd8d93	addi	x27,x27,12	 x27:0x80009f08 x27=0x80009f14
       44425000	      4441	80003910	01385b33	srl	x22,x16,x19	 x16:0x00000001 x19:0x04765000 x22=0x00000001
       44435000	      4442	80003914	011f5993	srli	x19,x30,0x11	 x30:0x10063000 x19=0x00000803
       44445000	      4443	80003918	ec216213	ori	x4,x2,-318	  x2:0x00000000  x4=0xfffffec2
       44455000	      4444	8000391c	0020d493	srli	x9,x1,0x2	  x1:0x80003984  x9=0x20000e61
       44465000	      4445	80003920	00108613	addi	x12,x1,1	  x1:0x80003984 x12=0x80003985
       44475000	      4446	80003924	00060667	jalr	x12,x12,0	 x12:0x80003985 x12=0x80003924
       44485000	      4447	00000000	00000013	addi	x0,x0,0	  x0:0x00000000
       44495000	      4448	80003984	00000013	addi	x0,x0,0	  x0:0x00000000
       44505000	      4449	80003988	00c000ef	jal	x1,80003988	  x1=0x80003988
       44515000	      4450	00000000	00000013	addi	x0,x0,0	  x0:0x00000000
       44525000	      4451	80003990	00000013	addi	x0,x0,0	  x0:0x00000000
       44535000	      4452	80003994	030000ef	jal	x1,80003994	  x1=0x80003994
       44545000	      4453	00000000	00000013	addi	x0,x0,0	  x0:0x00000000
       44555000	      4454	800039c0	00000013	addi	x0,x0,0	  x0:0x00000000
       44565000	      4455	800039c4	ff5ff26f	jal	x4,800039c4	  x4=0x800039c4
       44575000	      4456	00000000	00000013	addi	x0,x0,0	  x0:0x00000000
       44585000	      4457	800039b4	00000013	addi	x0,x0,0	  x0:0x00000000
       44595000	      4458	800039b8	01000b6f	jal	x22,800039b8	 x22=0x800039b8
       44605000	      4459	00000000	00000013	addi	x0,x0,0	  x0:0x00000000
       44615000	      4460	800039c4	00000013	addi	x0,x0,0	  x0:0x00000000
       44625000	      4461	800039c8	fe9fff6f	jal	x30,800039c8	 x30=0x800039c8
       44635000	      4462	00000000	00000013	addi	x0,x0,0	  x0:0x00000000
       44645000	      4463	800039ac	00000013	addi	x0,x0,0	  x0:0x00000000
       44655000	      4464	800039b0	fe1ffa6f	jal	x20,800039b0	 x20=0x800039b0
       44665000	      4465	00000000	00000013	addi	x0,x0,0	  x0:0x00000000
       44675000	      4466	8000398c	00000013	addi	x0,x0,0	  x0:0x00000000
       44685000	      4467	80003990	02c0026f	jal	x4,80003990	  x4=0x80003990
       44695000	      4468	00000000	00000013	addi	x0,x0,0	  x0:0x00000000
       44705000	      4469	800039b8	00000013	addi	x0,x0,0	  x0:0x00000000
       44715000	      4470	800039bc	fe9ff0ef	jal	x1,800039bc	  x1=0x800039bc
       44725000	      4471	00000000	00000013	addi	x0,x0,0	  x0:0x00000000
       44735000	      4472	800039a0	00000013	addi	x0,x0,0	  x0:0x00000000
       44745000	      4473	800039a4	fe9ff36f	jal	x6,800039a4	  x6=0x800039a4
       44755000	      4474	00000000	00000013	addi	x0,x0,0	  x0:0x00000000
       44765000	      4475	80003988	00000013	addi	x0,x0,0	  x0:0x00000000
       44775000	      4476	8000398c	0200036f	jal	x6,8000398c	  x6=0x8000398c
       44785000	      4477	00000000	00000013	addi	x0,x0,0	  x0:0x00000000
       44795000	      4478	800039a8	00000013	addi	x0,x0,0	  x0:0x00000000
       44805000	      4479	800039ac	03c0036f	jal	x6,800039ac	  x6=0x800039ac
       44815000	      4480	00000000	00000013	addi	x0,x0,0	  x0:0x00000000
       44825000	      4481	800039e4	00000013	addi	x0,x0,0	  x0:0x00000000
       44835000	      4482	800039e8	fd9ff36f	jal	x6,800039e8	  x6=0x800039e8
       44845000	      4483	00000000	00000013	addi	x0,x0,0	  x0:0x00000000
       44855000	      4484	800039bc	00000013	addi	x0,x0,0	  x0:0x00000000
       44865000	      4485	800039c0	018000ef	jal	x1,800039c0	  x1=0x800039c0
       44875000	      4486	00000000	00000013	addi	x0,x0,0	  x0:0x00000000
       44885000	      4487	800039d4	00000013	addi	x0,x0,0	  x0:0x00000000
       44895000	      4488	800039d8	fd1ff1ef	jal	x3,800039d8	  x3=0x800039d8
       44905000	      4489	00000000	00000013	addi	x0,x0,0	  x0:0x00000000
       44915000	      4490	800039a4	00000013	addi	x0,x0,0	  x0:0x00000000
       44925000	      4491	800039a8	ff5ff36f	jal	x6,800039a8	  x6=0x800039a8
       44935000	      4492	00000000	00000013	addi	x0,x0,0	  x0:0x00000000
       44945000	      4493	80003998	00000013	addi	x0,x0,0	  x0:0x00000000
       44955000	      4494	8000399c	048000ef	jal	x1,8000399c	  x1=0x8000399c
       44965000	      4495	00000000	00000013	addi	x0,x0,0	  x0:0x00000000
       44975000	      4496	800039e0	00000013	addi	x0,x0,0	  x0:0x00000000
       44985000	      4497	800039e4	fbdff0ef	jal	x1,800039e4	  x1=0x800039e4
       44995000	      4498	00000000	00000013	addi	x0,x0,0	  x0:0x00000000
       45005000	      4499	8000399c	00000013	addi	x0,x0,0	  x0:0x00000000
       45015000	      4500	800039a0	03c0036f	jal	x6,800039a0	  x6=0x800039a0
       45025000	      4501	00000000	00000013	addi	x0,x0,0	  x0:0x00000000
       45035000	      4502	800039d8	00000013	addi	x0,x0,0	  x0:0x00000000
       45045000	      4503	800039dc	ff1ff36f	jal	x6,800039dc	  x6=0x800039dc
       45055000	      4504	00000000	00000013	addi	x0,x0,0	  x0:0x00000000
       45065000	      4505	800039c8	00000013	addi	x0,x0,0	  x0:0x00000000
       45075000	      4506	800039cc	0040036f	jal	x6,800039cc	  x6=0x800039cc
       45085000	      4507	00000000	00000013	addi	x0,x0,0	  x0:0x00000000
       45095000	      4508	800039cc	00000013	addi	x0,x0,0	  x0:0x00000000
       45105000	      4509	800039d0	fe5ff0ef	jal	x1,800039d0	  x1=0x800039d0
       45115000	      4510	00000000	00000013	addi	x0,x0,0	  x0:0x00000000
       45125000	      4511	800039b0	00000013	addi	x0,x0,0	  x0:0x00000000
       45135000	      4512	800039b4	020006ef	jal	x13,800039b4	 x13=0x800039b4
       45145000	      4513	00000000	00000013	addi	x0,x0,0	  x0:0x00000000
       45155000	      4514	800039d0	00000013	addi	x0,x0,0	  x0:0x00000000
       45165000	      4515	800039d4	00c000ef	jal	x1,800039d4	  x1=0x800039d4
       45175000	      4516	00000000	00000013	addi	x0,x0,0	  x0:0x00000000
       45185000	      4517	800039dc	00000013	addi	x0,x0,0	  x0:0x00000000
       45195000	      4518	800039e0	fb9ff0ef	jal	x1,800039e0	  x1=0x800039e0
       45205000	      4519	00000000	00000013	addi	x0,x0,0	  x0:0x00000000
       45215000	      4520	80003994	00000013	addi	x0,x0,0	  x0:0x00000000
       45225000	      4521	80003998	0540036f	jal	x6,80003998	  x6=0x80003998
       45235000	      4522	00000000	00000013	addi	x0,x0,0	  x0:0x00000000
       45245000	      4523	800039e8	00000013	addi	x0,x0,0	  x0:0x00000000
       45255000	      4524	800039ec	15eff313	andi	x6,x31,350	 x31:0xfffffffc  x6=0x0000015c
       45265000	      4525	800039f0	024000ef	jal	x1,800039f0	  x1=0x800039f0
       45275000	      4526	00000000	00000013	addi	x0,x0,0	  x0:0x00000000
       45285000	      4527	80003a10	00000013	addi	x0,x0,0	  x0:0x00000000
       45295000	      4528	80003a14	02c0036f	jal	x6,80003a14	  x6=0x80003a14
       45305000	      4529	00000000	00000013	addi	x0,x0,0	  x0:0x00000000
       45315000	      4530	80003a3c	00000013	addi	x0,x0,0	  x0:0x00000000
       45325000	      4531	80003a40	fc1ff0ef	jal	x1,80003a40	  x1=0x80003a40
       45335000	      4532	00000000	00000013	addi	x0,x0,0	  x0:0x00000000
       45345000	      4533	800039fc	00000013	addi	x0,x0,0	  x0:0x00000000
       45355000	      4534	80003a00	020000ef	jal	x1,80003a00	  x1=0x80003a00
       45365000	      4535	00000000	00000013	addi	x0,x0,0	  x0:0x00000000
       45375000	      4536	80003a1c	00000013	addi	x0,x0,0	  x0:0x00000000
       45385000	      4537	80003a20	024000ef	jal	x1,80003a20	  x1=0x80003a20
       45395000	      4538	00000000	00000013	addi	x0,x0,0	  x0:0x00000000
       45405000	      4539	80003a40	00000013	addi	x0,x0,0	  x0:0x00000000
       45415000	      4540	80003a44	fcdff0ef	jal	x1,80003a44	  x1=0x80003a44
       45425000	      4541	00000000	00000013	addi	x0,x0,0	  x0:0x00000000
       45435000	      4542	80003a0c	00000013	addi	x0,x0,0	  x0:0x00000000
       45445000	      4543	80003a10	fe5ff0ef	jal	x1,80003a10	  x1=0x80003a10
       45455000	      4544	00000000	00000013	addi	x0,x0,0	  x0:0x00000000
       45465000	      4545	800039f0	00000013	addi	x0,x0,0	  x0:0x00000000
       45475000	      4546	800039f4	058000ef	jal	x1,800039f4	  x1=0x800039f4
       45485000	      4547	00000000	00000013	addi	x0,x0,0	  x0:0x00000000
       45495000	      4548	80003a48	00000013	addi	x0,x0,0	  x0:0x00000000
       45505000	      4549	80003a4c	fddff0ef	jal	x1,80003a4c	  x1=0x80003a4c
       45515000	      4550	00000000	00000013	addi	x0,x0,0	  x0:0x00000000
       45525000	      4551	80003a24	00000013	addi	x0,x0,0	  x0:0x00000000
       45535000	      4552	80003a28	008000ef	jal	x1,80003a28	  x1=0x80003a28
       45545000	      4553	00000000	00000013	addi	x0,x0,0	  x0:0x00000000
       45555000	      4554	80003a2c	00000013	addi	x0,x0,0	  x0:0x00000000
       45565000	      4555	80003a30	fddff0ef	jal	x1,80003a30	  x1=0x80003a30
       45575000	      4556	00000000	00000013	addi	x0,x0,0	  x0:0x00000000
       45585000	      4557	80003a08	00000013	addi	x0,x0,0	  x0:0x00000000
       45595000	      4558	80003a0c	ff1ff0ef	jal	x1,80003a0c	  x1=0x80003a0c
       45605000	      4559	00000000	00000013	addi	x0,x0,0	  x0:0x00000000
       45615000	      4560	800039f8	00000013	addi	x0,x0,0	  x0:0x00000000
       45625000	      4561	800039fc	05400bef	jal	x23,800039fc	 x23=0x800039fc
       45635000	      4562	00000000	00000013	addi	x0,x0,0	  x0:0x00000000
       45645000	      4563	80003a4c	00000013	addi	x0,x0,0	  x0:0x00000000
       45655000	      4564	80003a50	ff9ff0ef	jal	x1,80003a50	  x1=0x80003a50
       45665000	      4565	00000000	00000013	addi	x0,x0,0	  x0:0x00000000
       45675000	      4566	80003a44	00000013	addi	x0,x0,0	  x0:0x00000000
       45685000	      4567	80003a48	fedff0ef	jal	x1,80003a48	  x1=0x80003a48
       45695000	      4568	00000000	00000013	addi	x0,x0,0	  x0:0x00000000
       45705000	      4569	80003a30	00000013	addi	x0,x0,0	  x0:0x00000000
       45715000	      4570	80003a34	fd1ff36f	jal	x6,80003a34	  x6=0x80003a34
       45725000	      4571	00000000	00000013	addi	x0,x0,0	  x0:0x00000000
       45735000	      4572	80003a00	00000013	addi	x0,x0,0	  x0:0x00000000
       45745000	      4573	80003a04	038002ef	jal	x5,80003a04	  x5=0x80003a04
       45755000	      4574	00000000	00000013	addi	x0,x0,0	  x0:0x00000000
       45765000	      4575	80003a38	00000013	addi	x0,x0,0	  x0:0x00000000
       45775000	      4576	80003a3c	fcdff86f	jal	x16,80003a3c	 x16=0x80003a3c
       45785000	      4577	00000000	00000013	addi	x0,x0,0	  x0:0x00000000
       45795000	      4578	80003a04	00000013	addi	x0,x0,0	  x0:0x00000000
       45805000	      4579	80003a08	014006ef	jal	x13,80003a08	 x13=0x80003a08
       45815000	      4580	00000000	00000013	addi	x0,x0,0	  x0:0x00000000
       45825000	      4581	80003a18	00000013	addi	x0,x0,0	  x0:0x00000000
       45835000	      4582	80003a1c	008000ef	jal	x1,80003a1c	  x1=0x80003a1c
       45845000	      4583	00000000	00000013	addi	x0,x0,0	  x0:0x00000000
       45855000	      4584	80003a20	00000013	addi	x0,x0,0	  x0:0x00000000
       45865000	      4585	80003a24	fd5ff0ef	jal	x1,80003a24	  x1=0x80003a24
       45875000	      4586	00000000	00000013	addi	x0,x0,0	  x0:0x00000000
       45885000	      4587	800039f4	00000013	addi	x0,x0,0	  x0:0x00000000
       45895000	      4588	800039f8	034000ef	jal	x1,800039f8	  x1=0x800039f8
       45905000	      4589	00000000	00000013	addi	x0,x0,0	  x0:0x00000000
       45915000	      4590	80003a28	00000013	addi	x0,x0,0	  x0:0x00000000
       45925000	      4591	80003a2c	00c000ef	jal	x1,80003a2c	  x1=0x80003a2c
       45935000	      4592	00000000	00000013	addi	x0,x0,0	  x0:0x00000000
       45945000	      4593	80003a34	00000013	addi	x0,x0,0	  x0:0x00000000
       45955000	      4594	80003a38	fe1ff0ef	jal	x1,80003a38	  x1=0x80003a38
       45965000	      4595	00000000	00000013	addi	x0,x0,0	  x0:0x00000000
       45975000	      4596	80003a14	00000013	addi	x0,x0,0	  x0:0x00000000
       45985000	      4597	80003a18	03c000ef	jal	x1,80003a18	  x1=0x80003a18
       45995000	      4598	00000000	00000013	addi	x0,x0,0	  x0:0x00000000
       46005000	      4599	80003a50	00000013	addi	x0,x0,0	  x0:0x00000000
       46015000	      4600	80003a54	00400b6f	jal	x22,80003a54	 x22=0x80003a54
       46025000	      4601	00000000	00000013	addi	x0,x0,0	  x0:0x00000000
       46035000	      4602	80003a54	00000013	addi	x0,x0,0	  x0:0x00000000
       46045000	      4603	80003a58	e16a7b93	andi	x23,x20,-490	 x20:0x800039b0 x23=0x80003810
       46055000	      4604	80003a5c	030000ef	jal	x1,80003a5c	  x1=0x80003a5c
       46065000	      4605	00000000	00000013	addi	x0,x0,0	  x0:0x00000000
       46075000	      4606	80003a88	00000013	addi	x0,x0,0	  x0:0x00000000
       46085000	      4607	80003a8c	02c000ef	jal	x1,80003a8c	  x1=0x80003a8c
       46095000	      4608	00000000	00000013	addi	x0,x0,0	  x0:0x00000000
       46105000	      4609	80003ab4	00000013	addi	x0,x0,0	  x0:0x00000000
       46115000	      4610	80003ab8	ff9ff36f	jal	x6,80003ab8	  x6=0x80003ab8
       46125000	      4611	00000000	00000013	addi	x0,x0,0	  x0:0x00000000
       46135000	      4612	80003aac	00000013	addi	x0,x0,0	  x0:0x00000000
       46145000	      4613	80003ab0	fd9ff36f	jal	x6,80003ab0	  x6=0x80003ab0
       46155000	      4614	00000000	00000013	addi	x0,x0,0	  x0:0x00000000
       46165000	      4615	80003a84	00000013	addi	x0,x0,0	  x0:0x00000000
       46175000	      4616	80003a88	008000ef	jal	x1,80003a88	  x1=0x80003a88
       46185000	      4617	00000000	00000013	addi	x0,x0,0	  x0:0x00000000
       46195000	      4618	80003a8c	00000013	addi	x0,x0,0	  x0:0x00000000
       46205000	      4619	80003a90	fedff0ef	jal	x1,80003a90	  x1=0x80003a90
       46215000	      4620	00000000	00000013	addi	x0,x0,0	  x0:0x00000000
       46225000	      4621	80003a78	00000013	addi	x0,x0,0	  x0:0x00000000
       46235000	      4622	80003a7c	0400066f	jal	x12,80003a7c	 x12=0x80003a7c
       46245000	      4623	00000000	00000013	addi	x0,x0,0	  x0:0x00000000
       46255000	      4624	80003ab8	00000013	addi	x0,x0,0	  x0:0x00000000
       46265000	      4625	80003abc	fd9ff0ef	jal	x1,80003abc	  x1=0x80003abc
       46275000	      4626	00000000	00000013	addi	x0,x0,0	  x0:0x00000000
       46285000	      4627	80003a90	00000013	addi	x0,x0,0	  x0:0x00000000
       46295000	      4628	80003a94	01000f6f	jal	x30,80003a94	 x30=0x80003a94
       46305000	      4629	00000000	00000013	addi	x0,x0,0	  x0:0x00000000
       46315000	      4630	80003aa0	00000013	addi	x0,x0,0	  x0:0x00000000
       46325000	      4631	80003aa4	fbdffeef	jal	x29,80003aa4	 x29=0x80003aa4
       46335000	      4632	00000000	00000013	addi	x0,x0,0	  x0:0x00000000
       46345000	      4633	80003a5c	00000013	addi	x0,x0,0	  x0:0x00000000
       46355000	      4634	80003a60	070000ef	jal	x1,80003a60	  x1=0x80003a60
       46365000	      4635	00000000	00000013	addi	x0,x0,0	  x0:0x00000000
       46375000	      4636	80003acc	00000013	addi	x0,x0,0	  x0:0x00000000
       46385000	      4637	80003ad0	fcdffaef	jal	x21,80003ad0	 x21=0x80003ad0
       46395000	      4638	00000000	00000013	addi	x0,x0,0	  x0:0x00000000
       46405000	      4639	80003a98	00000013	addi	x0,x0,0	  x0:0x00000000
       46415000	      4640	80003a9c	fd1ff36f	jal	x6,80003a9c	  x6=0x80003a9c
       46425000	      4641	00000000	00000013	addi	x0,x0,0	  x0:0x00000000
       46435000	      4642	80003a68	00000013	addi	x0,x0,0	  x0:0x00000000
       46445000	      4643	80003a6c	058000ef	jal	x1,80003a6c	  x1=0x80003a6c
       46455000	      4644	00000000	00000013	addi	x0,x0,0	  x0:0x00000000
       46465000	      4645	80003ac0	00000013	addi	x0,x0,0	  x0:0x00000000
       46475000	      4646	80003ac4	010002ef	jal	x5,80003ac4	  x5=0x80003ac4
       46485000	      4647	00000000	00000013	addi	x0,x0,0	  x0:0x00000000
       46495000	      4648	80003ad0	00000013	addi	x0,x0,0	  x0:0x00000000
       46505000	      4649	80003ad4	ff9ff0ef	jal	x1,80003ad4	  x1=0x80003ad4
       46515000	      4650	00000000	00000013	addi	x0,x0,0	  x0:0x00000000
       46525000	      4651	80003ac8	00000013	addi	x0,x0,0	  x0:0x00000000
       46535000	      4652	80003acc	ffdff16f	jal	x2,80003acc	  x2=0x80003acc
       46545000	      4653	00000000	00000013	addi	x0,x0,0	  x0:0x00000000
       46555000	      4654	80003ac4	00000013	addi	x0,x0,0	  x0:0x00000000
       46565000	      4655	80003ac8	fb9ff0ef	jal	x1,80003ac8	  x1=0x80003ac8
       46575000	      4656	00000000	00000013	addi	x0,x0,0	  x0:0x00000000
       46585000	      4657	80003a7c	00000013	addi	x0,x0,0	  x0:0x00000000
       46595000	      4658	80003a80	ff5ff0ef	jal	x1,80003a80	  x1=0x80003a80
       46605000	      4659	00000000	00000013	addi	x0,x0,0	  x0:0x00000000
       46615000	      4660	80003a70	00000013	addi	x0,x0,0	  x0:0x00000000
       46625000	      4661	80003a74	0040026f	jal	x4,80003a74	  x4=0x80003a74
       46635000	      4662	00000000	00000013	addi	x0,x0,0	  x0:0x00000000
       46645000	      4663	80003a74	00000013	addi	x0,x0,0	  x0:0x00000000
       46655000	      4664	80003a78	03c00fef	jal	x31,80003a78	 x31=0x80003a78
       46665000	      4665	00000000	00000013	addi	x0,x0,0	  x0:0x00000000
       46675000	      4666	80003ab0	00000013	addi	x0,x0,0	  x0:0x00000000
       46685000	      4667	80003ab4	fb5ff0ef	jal	x1,80003ab4	  x1=0x80003ab4
       46695000	      4668	00000000	00000013	addi	x0,x0,0	  x0:0x00000000
       46705000	      4669	80003a64	00000013	addi	x0,x0,0	  x0:0x00000000
       46715000	      4670	80003a68	0580036f	jal	x6,80003a68	  x6=0x80003a68
       46725000	      4671	00000000	00000013	addi	x0,x0,0	  x0:0x00000000
       46735000	      4672	80003abc	00000013	addi	x0,x0,0	  x0:0x00000000
       46745000	      4673	80003ac0	fb1ffeef	jal	x29,80003ac0	 x29=0x80003ac0
       46755000	      4674	00000000	00000013	addi	x0,x0,0	  x0:0x00000000
       46765000	      4675	80003a6c	00000013	addi	x0,x0,0	  x0:0x00000000
       46775000	      4676	80003a70	01400a6f	jal	x20,80003a70	 x20=0x80003a70
       46785000	      4677	00000000	00000013	addi	x0,x0,0	  x0:0x00000000
       46795000	      4678	80003a80	00000013	addi	x0,x0,0	  x0:0x00000000
       46805000	      4679	80003a84	fe1ff1ef	jal	x3,80003a84	  x3=0x80003a84
       46815000	      4680	00000000	00000013	addi	x0,x0,0	  x0:0x00000000
       46825000	      4681	80003a60	00000013	addi	x0,x0,0	  x0:0x00000000
       46835000	      4682	80003a64	044000ef	jal	x1,80003a64	  x1=0x80003a64
       46845000	      4683	00000000	00000013	addi	x0,x0,0	  x0:0x00000000
       46855000	      4684	80003aa4	00000013	addi	x0,x0,0	  x0:0x00000000
       46865000	      4685	80003aa8	ff9ff0ef	jal	x1,80003aa8	  x1=0x80003aa8
       46875000	      4686	00000000	00000013	addi	x0,x0,0	  x0:0x00000000
       46885000	      4687	80003a9c	00000013	addi	x0,x0,0	  x0:0x00000000
       46895000	      4688	80003aa0	ff9ff0ef	jal	x1,80003aa0	  x1=0x80003aa0
       46905000	      4689	00000000	00000013	addi	x0,x0,0	  x0:0x00000000
       46915000	      4690	80003a94	00000013	addi	x0,x0,0	  x0:0x00000000
       46925000	      4691	80003a98	014000ef	jal	x1,80003a98	  x1=0x80003a98
       46935000	      4692	00000000	00000013	addi	x0,x0,0	  x0:0x00000000
       46945000	      4693	80003aa8	00000013	addi	x0,x0,0	  x0:0x00000000
       46955000	      4694	80003aac	02c000ef	jal	x1,80003aac	  x1=0x80003aac
       46965000	      4695	00000000	00000013	addi	x0,x0,0	  x0:0x00000000
       46975000	      4696	80003ad4	00000013	addi	x0,x0,0	  x0:0x00000000
       46985000	      4697	80003ad8	009bfbb3	and	x23,x23,x9	 x23:0x80003810  x9:0x20000e61 x23=0x00000800
       46995000	      4698	80003adc	01c000ef	jal	x1,80003adc	  x1=0x80003adc
       47005000	      4699	00000000	00000013	addi	x0,x0,0	  x0:0x00000000
       47015000	      4700	80003af4	00000013	addi	x0,x0,0	  x0:0x00000000
       47025000	      4701	80003af8	ff5ff0ef	jal	x1,80003af8	  x1=0x80003af8
       47035000	      4702	00000000	00000013	addi	x0,x0,0	  x0:0x00000000
       47045000	      4703	80003ae8	00000013	addi	x0,x0,0	  x0:0x00000000
       47055000	      4704	80003aec	0300026f	jal	x4,80003aec	  x4=0x80003aec
       47065000	      4705	00000000	00000013	addi	x0,x0,0	  x0:0x00000000
       47075000	      4706	80003b18	00000013	addi	x0,x0,0	  x0:0x00000000
       47085000	      4707	80003b1c	fe5ff0ef	jal	x1,80003b1c	  x1=0x80003b1c
       47095000	      4708	00000000	00000013	addi	x0,x0,0	  x0:0x00000000
       47105000	      4709	80003afc	00000013	addi	x0,x0,0	  x0:0x00000000
       47115000	      4710	80003b00	0040036f	jal	x6,80003b00	  x6=0x80003b00
       47125000	      4711	00000000	00000013	addi	x0,x0,0	  x0:0x00000000
       47135000	      4712	80003b00	00000013	addi	x0,x0,0	  x0:0x00000000
       47145000	      4713	80003b04	004002ef	jal	x5,80003b04	  x5=0x80003b04
       47155000	      4714	00000000	00000013	addi	x0,x0,0	  x0:0x00000000
       47165000	      4715	80003b04	00000013	addi	x0,x0,0	  x0:0x00000000
       47175000	      4716	80003b08	01c0086f	jal	x16,80003b08	 x16=0x80003b08
       47185000	      4717	00000000	00000013	addi	x0,x0,0	  x0:0x00000000
       47195000	      4718	80003b20	00000013	addi	x0,x0,0	  x0:0x00000000
       47205000	      4719	80003b24	fcdff36f	jal	x6,80003b24	  x6=0x80003b24
       47215000	      4720	00000000	00000013	addi	x0,x0,0	  x0:0x00000000
       47225000	      4721	80003aec	00000013	addi	x0,x0,0	  x0:0x00000000
       47235000	      4722	80003af0	0380036f	jal	x6,80003af0	  x6=0x80003af0
       47245000	      4723	00000000	00000013	addi	x0,x0,0	  x0:0x00000000
       47255000	      4724	80003b24	00000013	addi	x0,x0,0	  x0:0x00000000
       47265000	      4725	80003b28	fbdff0ef	jal	x1,80003b28	  x1=0x80003b28
       47275000	      4726	00000000	00000013	addi	x0,x0,0	  x0:0x00000000
       47285000	      4727	80003ae0	00000013	addi	x0,x0,0	  x0:0x00000000
       47295000	      4728	80003ae4	ffdff2ef	jal	x5,80003ae4	  x5=0x80003ae4
       47305000	      4729	00000000	00000013	addi	x0,x0,0	  x0:0x00000000
       47315000	      4730	80003adc	00000013	addi	x0,x0,0	  x0:0x00000000
       47325000	      4731	80003ae0	0400036f	jal	x6,80003ae0	  x6=0x80003ae0
       47335000	      4732	00000000	00000013	addi	x0,x0,0	  x0:0x00000000
       47345000	      4733	80003b1c	00000013	addi	x0,x0,0	  x0:0x00000000
       47355000	      4734	80003b20	fd5ff36f	jal	x6,80003b20	  x6=0x80003b20
       47365000	      4735	00000000	00000013	addi	x0,x0,0	  x0:0x00000000
       47375000	      4736	80003af0	00000013	addi	x0,x0,0	  x0:0x00000000
       47385000	      4737	80003af4	0080036f	jal	x6,80003af4	  x6=0x80003af4
       47395000	      4738	00000000	00000013	addi	x0,x0,0	  x0:0x00000000
       47405000	      4739	80003af8	00000013	addi	x0,x0,0	  x0:0x00000000
       47415000	      4740	80003afc	018000ef	jal	x1,80003afc	  x1=0x80003afc
       47425000	      4741	00000000	00000013	addi	x0,x0,0	  x0:0x00000000
       47435000	      4742	80003b10	00000013	addi	x0,x0,0	  x0:0x00000000
       47445000	      4743	80003b14	ffdff0ef	jal	x1,80003b14	  x1=0x80003b14
       47455000	      4744	00000000	00000013	addi	x0,x0,0	  x0:0x00000000
       47465000	      4745	80003b0c	00000013	addi	x0,x0,0	  x0:0x00000000
       47475000	      4746	80003b10	008000ef	jal	x1,80003b10	  x1=0x80003b10
       47485000	      4747	00000000	00000013	addi	x0,x0,0	  x0:0x00000000
       47495000	      4748	80003b14	00000013	addi	x0,x0,0	  x0:0x00000000
       47505000	      4749	80003b18	ff5ff0ef	jal	x1,80003b18	  x1=0x80003b18
       47515000	      4750	00000000	00000013	addi	x0,x0,0	  x0:0x00000000
       47525000	      4751	80003b08	00000013	addi	x0,x0,0	  x0:0x00000000
       47535000	      4752	80003b0c	fddff0ef	jal	x1,80003b0c	  x1=0x80003b0c
       47545000	      4753	00000000	00000013	addi	x0,x0,0	  x0:0x00000000
       47555000	      4754	80003ae4	00000013	addi	x0,x0,0	  x0:0x00000000
       47565000	      4755	80003ae8	0440036f	jal	x6,80003ae8	  x6=0x80003ae8
       47575000	      4756	00000000	00000013	addi	x0,x0,0	  x0:0x00000000
       47585000	      4757	80003b28	00000013	addi	x0,x0,0	  x0:0x00000000
       47595000	      4758	80003b2c	41295fb3	sra	x31,x18,x18	 x18:0x9a23d578 x18:0x9a23d578 x31=0xffffff9a
       47605000	      4759	80003b30	010000ef	jal	x1,80003b30	  x1=0x80003b30
       47615000	      4760	00000000	00000013	addi	x0,x0,0	  x0:0x00000000
       47625000	      4761	80003b3c	00000013	addi	x0,x0,0	  x0:0x00000000
       47635000	      4762	80003b40	01c005ef	jal	x11,80003b40	 x11=0x80003b40
       47645000	      4763	00000000	00000013	addi	x0,x0,0	  x0:0x00000000
       47655000	      4764	80003b58	00000013	addi	x0,x0,0	  x0:0x00000000
       47665000	      4765	80003b5c	038000ef	jal	x1,80003b5c	  x1=0x80003b5c
       47675000	      4766	00000000	00000013	addi	x0,x0,0	  x0:0x00000000
       47685000	      4767	80003b90	00000013	addi	x0,x0,0	  x0:0x00000000
       47695000	      4768	80003b94	fe5ff0ef	jal	x1,80003b94	  x1=0x80003b94
       47705000	      4769	00000000	00000013	addi	x0,x0,0	  x0:0x00000000
       47715000	      4770	80003b74	00000013	addi	x0,x0,0	  x0:0x00000000
       47725000	      4771	80003b78	fc1ff0ef	jal	x1,80003b78	  x1=0x80003b78
       47735000	      4772	00000000	00000013	addi	x0,x0,0	  x0:0x00000000
       47745000	      4773	80003b34	00000013	addi	x0,x0,0	  x0:0x00000000
       47755000	      4774	80003b38	00c000ef	jal	x1,80003b38	  x1=0x80003b38
       47765000	      4775	00000000	00000013	addi	x0,x0,0	  x0:0x00000000
       47775000	      4776	80003b40	00000013	addi	x0,x0,0	  x0:0x00000000
       47785000	      4777	80003b44	048000ef	jal	x1,80003b44	  x1=0x80003b44
       47795000	      4778	00000000	00000013	addi	x0,x0,0	  x0:0x00000000
       47805000	      4779	80003b88	00000013	addi	x0,x0,0	  x0:0x00000000
       47815000	      4780	80003b8c	fd5ff36f	jal	x6,80003b8c	  x6=0x80003b8c
       47825000	      4781	00000000	00000013	addi	x0,x0,0	  x0:0x00000000
       47835000	      4782	80003b5c	00000013	addi	x0,x0,0	  x0:0x00000000
       47845000	      4783	80003b60	024000ef	jal	x1,80003b60	  x1=0x80003b60
       47855000	      4784	00000000	00000013	addi	x0,x0,0	  x0:0x00000000
       47865000	      4785	80003b80	00000013	addi	x0,x0,0	  x0:0x00000000
       47875000	      4786	80003b84	fd5ff0ef	jal	x1,80003b84	  x1=0x80003b84
       47885000	      4787	00000000	00000013	addi	x0,x0,0	  x0:0x00000000
       47895000	      4788	80003b54	00000013	addi	x0,x0,0	  x0:0x00000000
       47905000	      4789	80003b58	038000ef	jal	x1,80003b58	  x1=0x80003b58
       47915000	      4790	00000000	00000013	addi	x0,x0,0	  x0:0x00000000
       47925000	      4791	80003b8c	00000013	addi	x0,x0,0	  x0:0x00000000
       47935000	      4792	80003b90	fb9ff36f	jal	x6,80003b90	  x6=0x80003b90
       47945000	      4793	00000000	00000013	addi	x0,x0,0	  x0:0x00000000
       47955000	      4794	80003b44	00000013	addi	x0,x0,0	  x0:0x00000000
       47965000	      4795	80003b48	01c0036f	jal	x6,80003b48	  x6=0x80003b48
       47975000	      4796	00000000	00000013	addi	x0,x0,0	  x0:0x00000000
       47985000	      4797	80003b60	00000013	addi	x0,x0,0	  x0:0x00000000
       47995000	      4798	80003b64	fe9ff36f	jal	x6,80003b64	  x6=0x80003b64
       48005000	      4799	00000000	00000013	addi	x0,x0,0	  x0:0x00000000
       48015000	      4800	80003b48	00000013	addi	x0,x0,0	  x0:0x00000000
       48025000	      4801	80003b4c	01c0036f	jal	x6,80003b4c	  x6=0x80003b4c
       48035000	      4802	00000000	00000013	addi	x0,x0,0	  x0:0x00000000
       48045000	      4803	80003b64	00000013	addi	x0,x0,0	  x0:0x00000000
       48055000	      4804	80003b68	004000ef	jal	x1,80003b68	  x1=0x80003b68
       48065000	      4805	00000000	00000013	addi	x0,x0,0	  x0:0x00000000
       48075000	      4806	80003b68	00000013	addi	x0,x0,0	  x0:0x00000000
       48085000	      4807	80003b6c	02c0036f	jal	x6,80003b6c	  x6=0x80003b6c
       48095000	      4808	00000000	00000013	addi	x0,x0,0	  x0:0x00000000
       48105000	      4809	80003b94	00000013	addi	x0,x0,0	  x0:0x00000000
       48115000	      4810	80003b98	fe5ff0ef	jal	x1,80003b98	  x1=0x80003b98
       48125000	      4811	00000000	00000013	addi	x0,x0,0	  x0:0x00000000
       48135000	      4812	80003b78	00000013	addi	x0,x0,0	  x0:0x00000000
       48145000	      4813	80003b7c	ff9ff0ef	jal	x1,80003b7c	  x1=0x80003b7c
       48155000	      4814	00000000	00000013	addi	x0,x0,0	  x0:0x00000000
       48165000	      4815	80003b70	00000013	addi	x0,x0,0	  x0:0x00000000
       48175000	      4816	80003b74	fc9ff0ef	jal	x1,80003b74	  x1=0x80003b74
       48185000	      4817	00000000	00000013	addi	x0,x0,0	  x0:0x00000000
       48195000	      4818	80003b38	00000013	addi	x0,x0,0	  x0:0x00000000
       48205000	      4819	80003b3c	018000ef	jal	x1,80003b3c	  x1=0x80003b3c
       48215000	      4820	00000000	00000013	addi	x0,x0,0	  x0:0x00000000
       48225000	      4821	80003b50	00000013	addi	x0,x0,0	  x0:0x00000000
       48235000	      4822	80003b54	01c001ef	jal	x3,80003b54	  x3=0x80003b54
       48245000	      4823	00000000	00000013	addi	x0,x0,0	  x0:0x00000000
       48255000	      4824	80003b6c	00000013	addi	x0,x0,0	  x0:0x00000000
       48265000	      4825	80003b70	fe1ff0ef	jal	x1,80003b70	  x1=0x80003b70
       48275000	      4826	00000000	00000013	addi	x0,x0,0	  x0:0x00000000
       48285000	      4827	80003b4c	00000013	addi	x0,x0,0	  x0:0x00000000
       48295000	      4828	80003b50	fe5ff0ef	jal	x1,80003b50	  x1=0x80003b50
       48305000	      4829	00000000	00000013	addi	x0,x0,0	  x0:0x00000000
       48315000	      4830	80003b30	00000013	addi	x0,x0,0	  x0:0x00000000
       48325000	      4831	80003b34	054000ef	jal	x1,80003b34	  x1=0x80003b34
       48335000	      4832	00000000	00000013	addi	x0,x0,0	  x0:0x00000000
       48345000	      4833	80003b84	00000013	addi	x0,x0,0	  x0:0x00000000
       48355000	      4834	80003b88	ff9ff0ef	jal	x1,80003b88	  x1=0x80003b88
       48365000	      4835	00000000	00000013	addi	x0,x0,0	  x0:0x00000000
       48375000	      4836	80003b7c	00000013	addi	x0,x0,0	  x0:0x00000000
       48385000	      4837	80003b80	01c000ef	jal	x1,80003b80	  x1=0x80003b80
       48395000	      4838	00000000	00000013	addi	x0,x0,0	  x0:0x00000000
       48405000	      4839	80003b98	00000013	addi	x0,x0,0	  x0:0x00000000
       48415000	      4840	80003b9c	2c068a93	addi	x21,x13,704	 x13:0x80003a08 x21=0x80003cc8
       48425000	      4841	80003ba0	01c000ef	jal	x1,80003ba0	  x1=0x80003ba0
       48435000	      4842	00000000	00000013	addi	x0,x0,0	  x0:0x00000000
       48445000	      4843	80003bb8	00000013	addi	x0,x0,0	  x0:0x00000000
       48455000	      4844	80003bbc	fe9ff0ef	jal	x1,80003bbc	  x1=0x80003bbc
       48465000	      4845	00000000	00000013	addi	x0,x0,0	  x0:0x00000000
       48475000	      4846	80003ba0	00000013	addi	x0,x0,0	  x0:0x00000000
       48485000	      4847	80003ba4	020000ef	jal	x1,80003ba4	  x1=0x80003ba4
       48495000	      4848	00000000	00000013	addi	x0,x0,0	  x0:0x00000000
       48505000	      4849	80003bc0	00000013	addi	x0,x0,0	  x0:0x00000000
       48515000	      4850	80003bc4	ff5ff0ef	jal	x1,80003bc4	  x1=0x80003bc4
       48525000	      4851	00000000	00000013	addi	x0,x0,0	  x0:0x00000000
       48535000	      4852	80003bb4	00000013	addi	x0,x0,0	  x0:0x00000000
       48545000	      4853	80003bb8	ff1ff0ef	jal	x1,80003bb8	  x1=0x80003bb8
       48555000	      4854	00000000	00000013	addi	x0,x0,0	  x0:0x00000000
       48565000	      4855	80003ba4	00000013	addi	x0,x0,0	  x0:0x00000000
       48575000	      4856	80003ba8	020000ef	jal	x1,80003ba8	  x1=0x80003ba8
       48585000	      4857	00000000	00000013	addi	x0,x0,0	  x0:0x00000000
       48595000	      4858	80003bc4	00000013	addi	x0,x0,0	  x0:0x00000000
       48605000	      4859	80003bc8	fedff4ef	jal	x9,80003bc8	  x9=0x80003bc8
       48615000	      4860	00000000	00000013	addi	x0,x0,0	  x0:0x00000000
       48625000	      4861	80003bb0	00000013	addi	x0,x0,0	  x0:0x00000000
       48635000	      4862	80003bb4	ffdfffef	jal	x31,80003bb4	 x31=0x80003bb4
       48645000	      4863	00000000	00000013	addi	x0,x0,0	  x0:0x00000000
       48655000	      4864	80003bac	00000013	addi	x0,x0,0	  x0:0x00000000
       48665000	      4865	80003bb0	ffdff0ef	jal	x1,80003bb0	  x1=0x80003bb0
       48675000	      4866	00000000	00000013	addi	x0,x0,0	  x0:0x00000000
       48685000	      4867	80003ba8	00000013	addi	x0,x0,0	  x0:0x00000000
       48695000	      4868	80003bac	014000ef	jal	x1,80003bac	  x1=0x80003bac
       48705000	      4869	00000000	00000013	addi	x0,x0,0	  x0:0x00000000
       48715000	      4870	80003bbc	00000013	addi	x0,x0,0	  x0:0x00000000
       48725000	      4871	80003bc0	00c0086f	jal	x16,80003bc0	 x16=0x80003bc0
       48735000	      4872	00000000	00000013	addi	x0,x0,0	  x0:0x00000000
       48745000	      4873	80003bc8	00000013	addi	x0,x0,0	  x0:0x00000000
       48755000	      4874	80003bcc	004000ef	jal	x1,80003bcc	  x1=0x80003bcc
       48765000	      4875	00000000	00000013	addi	x0,x0,0	  x0:0x00000000
       48775000	      4876	80003bcc	00000013	addi	x0,x0,0	  x0:0x00000000
       48785000	      4877	80003bd0	017ef4b3	and	x9,x29,x23	 x29:0x80003ac0 x23:0x00000800  x9=0x00000800
       48795000	      4878	80003bd4	018000ef	jal	x1,80003bd4	  x1=0x80003bd4
       48805000	      4879	00000000	00000013	addi	x0,x0,0	  x0:0x00000000
       48815000	      4880	80003be8	00000013	addi	x0,x0,0	  x0:0x00000000
       48825000	      4881	80003bec	ff5ff0ef	jal	x1,80003bec	  x1=0x80003bec
       48835000	      4882	00000000	00000013	addi	x0,x0,0	  x0:0x00000000
       48845000	      4883	80003bdc	00000013	addi	x0,x0,0	  x0:0x00000000
       48855000	      4884	80003be0	02000b6f	jal	x22,80003be0	 x22=0x80003be0
       48865000	      4885	00000000	00000013	addi	x0,x0,0	  x0:0x00000000
       48875000	      4886	80003bfc	00000013	addi	x0,x0,0	  x0:0x00000000
       48885000	      4887	80003c00	ff9ff36f	jal	x6,80003c00	  x6=0x80003c00
       48895000	      4888	00000000	00000013	addi	x0,x0,0	  x0:0x00000000
       48905000	      4889	80003bf4	00000013	addi	x0,x0,0	  x0:0x00000000
       48915000	      4890	80003bf8	ff1ff0ef	jal	x1,80003bf8	  x1=0x80003bf8
       48925000	      4891	00000000	00000013	addi	x0,x0,0	  x0:0x00000000
       48935000	      4892	80003be4	00000013	addi	x0,x0,0	  x0:0x00000000
       48945000	      4893	80003be8	ffdff26f	jal	x4,80003be8	  x4=0x80003be8
       48955000	      4894	00000000	00000013	addi	x0,x0,0	  x0:0x00000000
       48965000	      4895	80003be0	00000013	addi	x0,x0,0	  x0:0x00000000
       48975000	      4896	80003be4	024000ef	jal	x1,80003be4	  x1=0x80003be4
       48985000	      4897	00000000	00000013	addi	x0,x0,0	  x0:0x00000000
       48995000	      4898	80003c04	00000013	addi	x0,x0,0	  x0:0x00000000
       49005000	      4899	80003c08	fd5ff0ef	jal	x1,80003c08	  x1=0x80003c08
       49015000	      4900	00000000	00000013	addi	x0,x0,0	  x0:0x00000000
       49025000	      4901	80003bd8	00000013	addi	x0,x0,0	  x0:0x00000000
       49035000	      4902	80003bdc	028000ef	jal	x1,80003bdc	  x1=0x80003bdc
       49045000	      4903	00000000	00000013	addi	x0,x0,0	  x0:0x00000000
       49055000	      4904	80003c00	00000013	addi	x0,x0,0	  x0:0x00000000
       49065000	      4905	80003c04	fedff0ef	jal	x1,80003c04	  x1=0x80003c04
       49075000	      4906	00000000	00000013	addi	x0,x0,0	  x0:0x00000000
       49085000	      4907	80003bec	00000013	addi	x0,x0,0	  x0:0x00000000
       49095000	      4908	80003bf0	004000ef	jal	x1,80003bf0	  x1=0x80003bf0
       49105000	      4909	00000000	00000013	addi	x0,x0,0	  x0:0x00000000
       49115000	      4910	80003bf0	00000013	addi	x0,x0,0	  x0:0x00000000
       49125000	      4911	80003bf4	0080036f	jal	x6,80003bf4	  x6=0x80003bf4
       49135000	      4912	00000000	00000013	addi	x0,x0,0	  x0:0x00000000
       49145000	      4913	80003bf8	00000013	addi	x0,x0,0	  x0:0x00000000
       49155000	      4914	80003bfc	0100036f	jal	x6,80003bfc	  x6=0x80003bfc
       49165000	      4915	00000000	00000013	addi	x0,x0,0	  x0:0x00000000
       49175000	      4916	80003c08	00000013	addi	x0,x0,0	  x0:0x00000000
       49185000	      4917	80003c0c	fcdff0ef	jal	x1,80003c0c	  x1=0x80003c0c
       49195000	      4918	00000000	00000013	addi	x0,x0,0	  x0:0x00000000
       49205000	      4919	80003bd4	00000013	addi	x0,x0,0	  x0:0x00000000
       49215000	      4920	80003bd8	038004ef	jal	x9,80003bd8	  x9=0x80003bd8
       49225000	      4921	00000000	00000013	addi	x0,x0,0	  x0:0x00000000
       49235000	      4922	80003c0c	00000013	addi	x0,x0,0	  x0:0x00000000
       49245000	      4923	80003c10	000c46b3	xor	x13,x24,x0	 x24:0x7fff6069  x0:0x00000000 x13=0x7fff6069
       49255000	      4924	80003c14	008000ef	jal	x1,80003c14	  x1=0x80003c14
       49265000	      4925	00000000	00000013	addi	x0,x0,0	  x0:0x00000000
       49275000	      4926	80003c18	00000013	addi	x0,x0,0	  x0:0x00000000
       49285000	      4927	80003c1c	008001ef	jal	x3,80003c1c	  x3=0x80003c1c
       49295000	      4928	00000000	00000013	addi	x0,x0,0	  x0:0x00000000
       49305000	      4929	80003c20	00000013	addi	x0,x0,0	  x0:0x00000000
       49315000	      4930	80003c24	02c00e6f	jal	x28,80003c24	 x28=0x80003c24
       49325000	      4931	00000000	00000013	addi	x0,x0,0	  x0:0x00000000
       49335000	      4932	80003c4c	00000013	addi	x0,x0,0	  x0:0x00000000
       49345000	      4933	80003c50	fd9ff36f	jal	x6,80003c50	  x6=0x80003c50
       49355000	      4934	00000000	00000013	addi	x0,x0,0	  x0:0x00000000
       49365000	      4935	80003c24	00000013	addi	x0,x0,0	  x0:0x00000000
       49375000	      4936	80003c28	0200036f	jal	x6,80003c28	  x6=0x80003c28
       49385000	      4937	00000000	00000013	addi	x0,x0,0	  x0:0x00000000
       49395000	      4938	80003c44	00000013	addi	x0,x0,0	  x0:0x00000000
       49405000	      4939	80003c48	fe9ff16f	jal	x2,80003c48	  x2=0x80003c48
       49415000	      4940	00000000	00000013	addi	x0,x0,0	  x0:0x00000000
       49425000	      4941	80003c2c	00000013	addi	x0,x0,0	  x0:0x00000000
       49435000	      4942	80003c30	014000ef	jal	x1,80003c30	  x1=0x80003c30
       49445000	      4943	00000000	00000013	addi	x0,x0,0	  x0:0x00000000
       49455000	      4944	80003c40	00000013	addi	x0,x0,0	  x0:0x00000000
       49465000	      4945	80003c44	fd5ff0ef	jal	x1,80003c44	  x1=0x80003c44
       49475000	      4946	00000000	00000013	addi	x0,x0,0	  x0:0x00000000
       49485000	      4947	80003c14	00000013	addi	x0,x0,0	  x0:0x00000000
       49495000	      4948	80003c18	0280036f	jal	x6,80003c18	  x6=0x80003c18
       49505000	      4949	00000000	00000013	addi	x0,x0,0	  x0:0x00000000
       49515000	      4950	80003c3c	00000013	addi	x0,x0,0	  x0:0x00000000
       49525000	      4951	80003c40	fedff0ef	jal	x1,80003c40	  x1=0x80003c40
       49535000	      4952	00000000	00000013	addi	x0,x0,0	  x0:0x00000000
       49545000	      4953	80003c28	00000013	addi	x0,x0,0	  x0:0x00000000
       49555000	      4954	80003c2c	020000ef	jal	x1,80003c2c	  x1=0x80003c2c
       49565000	      4955	00000000	00000013	addi	x0,x0,0	  x0:0x00000000
       49575000	      4956	80003c48	00000013	addi	x0,x0,0	  x0:0x00000000
       49585000	      4957	80003c4c	ff1ff0ef	jal	x1,80003c4c	  x1=0x80003c4c
       49595000	      4958	00000000	00000013	addi	x0,x0,0	  x0:0x00000000
       49605000	      4959	80003c38	00000013	addi	x0,x0,0	  x0:0x00000000
       49615000	      4960	80003c3c	ffdff36f	jal	x6,80003c3c	  x6=0x80003c3c
       49625000	      4961	00000000	00000013	addi	x0,x0,0	  x0:0x00000000
       49635000	      4962	80003c34	00000013	addi	x0,x0,0	  x0:0x00000000
       49645000	      4963	80003c38	fe9ff26f	jal	x4,80003c38	  x4=0x80003c38
       49655000	      4964	00000000	00000013	addi	x0,x0,0	  x0:0x00000000
       49665000	      4965	80003c1c	00000013	addi	x0,x0,0	  x0:0x00000000
       49675000	      4966	80003c20	014000ef	jal	x1,80003c20	  x1=0x80003c20
       49685000	      4967	00000000	00000013	addi	x0,x0,0	  x0:0x00000000
       49695000	      4968	80003c30	00000013	addi	x0,x0,0	  x0:0x00000000
       49705000	      4969	80003c34	0200036f	jal	x6,80003c34	  x6=0x80003c34
       49715000	      4970	00000000	00000013	addi	x0,x0,0	  x0:0x00000000
       49725000	      4971	80003c50	00000013	addi	x0,x0,0	  x0:0x00000000
       49735000	      4972	80003c54	40ebd733	sra	x14,x23,x14	 x23:0x00000800 x14:0xfffffbce x14=0x00000000
       49745000	      4973	80003c58	9e73a113	slti	x2,x7,-1561	  x7:0xbffde7ac  x2=0x00000001
       49755000	      4974	80003c5c	0045e6b3	or	x13,x11,x4	 x11:0x80003b40  x4:0x80003c38 x13=0x80003f78
       49765000	      4975	80003c60	01fdde63	bge	x27,x31,80003c7c	 x27:0x80009f14 x31:0x80003bb4
       49775000	      4976	00000000	00000013	addi	x0,x0,0	  x0:0x00000000
       49785000	      4977	80003c78	00000013	addi	x0,x0,0	  x0:0x00000000
       49795000	      4978	80003c7c	00000013	addi	x0,x0,0	  x0:0x00000000
       49805000	      4979	80003c80	008f5463	bge	x30,x8,80003c88	 x30:0x80003a94  x8:0x80009fc4
       49815000	      4980	80003c84	01811b93	slli	x23,x2,0x18	  x2:0x00000001 x23=0x01000000
       49825000	      4981	80003c88	aa223c97	auipc	x25,0xaa223	 x25=0x2a226c84
       49835000	      4982	80003c8c	2602be13	sltiu	x28,x5,608	  x5:0x80003ae4 x28=0x00000000
       49845000	      4983	80003c90	00785393	srli	x7,x16,0x7	 x16:0x80003bc0  x7=0x01000077
       49855000	      4984	80003c94	02ba9663	bne	x21,x11,80003cc0	 x21:0x80003cc8 x11:0x80003b40
       49865000	      4985	00000000	00000013	addi	x0,x0,0	  x0:0x00000000
       49875000	      4986	80003cbc	00000013	addi	x0,x0,0	  x0:0x00000000
       49885000	      4987	80003cc0	00fe9fb3	sll	x31,x29,x15	 x29:0x80003ac0 x15:0x00000001 x31=0x00007580
       49895000	      4988	80003cc4	012b5e93	srli	x29,x22,0x12	 x22:0x80003be0 x29=0x00002000
       49905000	      4989	80003cc8	012116b3	sll	x13,x2,x18	  x2:0x00000001 x18:0x9a23d578 x13=0x01000000
       49915000	      4990	80003ccc	4038d293	srai	x5,x17,0x3	 x17:0x0000000c  x5=0x00000001
       49925000	      4991	80003cd0	6bcbeeb7	lui	x29,0x6bcbe	 x29=0x6bcbe000
       49935000	      4992	80003cd4	002a70b3	and	x1,x20,x2	 x20:0x80003a70  x2:0x00000001  x1=0x00000000
       49945000	      4993	80003cd8	8e1a0213	addi	x4,x20,-1823	 x20:0x80003a70  x4=0x80003351
       49955000	      4994	80003cdc	404b5a93	srai	x21,x22,0x4	 x22:0x80003be0 x21=0xf80003be
       49965000	      4995	80003ce0	01ce2833	slt	x16,x28,x28	 x28:0x00000000 x28:0x00000000 x16=0x00000000
       49975000	      4996	80003ce4	00433ab3	sltu	x21,x6,x4	  x6:0x80003c34  x4:0x80003351 x21=0x00000000
       49985000	      4997	80003ce8	014b4463	blt	x22,x20,80003cf0	 x22:0x80003be0 x20:0x80003a70
       49995000	      4998	80003cec	407edb13	srai	x22,x29,0x7	 x29:0x6bcbe000 x22=0x00d797c0
       50005000	      4999	80003cf0	a7b03913	sltiu	x18,x0,-1413	  x0:0x00000000 x18=0x00000001
       50015000	      5000	80003cf4	04461463	bne	x12,x4,80003d3c	 x12:0x80003a7c  x4:0x80003351
       50025000	      5001	00000000	00000013	addi	x0,x0,0	  x0:0x00000000
       50035000	      5002	80003d38	00000013	addi	x0,x0,0	  x0:0x00000000
       50045000	      5003	80003d3c	003a11b3	sll	x3,x20,x3	 x20:0x80003a70  x3:0x80003c1c  x3=0x00000000
       50055000	      5004	80003d40	03868063	beq	x13,x24,80003d60	 x13:0x01000000 x24:0x7fff6069
       50065000	      5005	80003d44	01bd39b3	sltu	x19,x26,x27	 x26:0x600000c0 x27:0x80009f14 x19=0x00000001
       50075000	      5006	80003d48	0eeeb913	sltiu	x18,x29,238	 x29:0x6bcbe000 x18=0x00000000
       50085000	      5007	80003d4c	00cb5f93	srli	x31,x22,0xc	 x22:0x00d797c0 x31=0x00000d79
       50095000	      5008	80003d50	410ada13	srai	x20,x21,0x10	 x21:0x00000000 x20=0x00000000
       50105000	      5009	80003d54	7b51b5b7	lui	x11,0x7b51b	 x11=0x7b51b000
       50115000	      5010	80003d58	4136d913	srai	x18,x13,0x13	 x13:0x01000000 x18=0x00000020
       50125000	      5011	80003d5c	8edc7113	andi	x2,x24,-1811	 x24:0x7fff6069  x2=0x7fff6069
       50135000	      5012	80003d60	031e7863	bgeu	x28,x17,80003d90	 x28:0x00000000 x17:0x0000000c
       50145000	      5013	80003d64	40d7d313	srai	x6,x15,0xd	 x15:0x00000001  x6=0x00000000
       50155000	      5014	80003d68	00aabbb3	sltu	x23,x21,x10	 x21:0x00000000 x10:0x00000001 x23=0x00000001
       50165000	      5015	80003d6c	03069e63	bne	x13,x16,80003da8	 x13:0x01000000 x16:0x00000000
       50175000	      5016	00000000	00000013	addi	x0,x0,0	  x0:0x00000000
       50185000	      5017	80003da4	00000013	addi	x0,x0,0	  x0:0x00000000
       50195000	      5018	80003da8	1663cc37	lui	x24,0x1663c	 x24=0x1663c000
       50205000	      5019	80003dac	006ead33	slt	x26,x29,x6	 x29:0x6bcbe000  x6:0x00000000 x26=0x00000000
       50215000	      5020	80003db0	0049dbb3	srl	x23,x19,x4	 x19:0x00000001  x4:0x80003351 x23=0x00000000
       50225000	      5021	80003db4	006bea63	bltu	x23,x6,80003dc8	 x23:0x00000000  x6:0x00000000
       50235000	      5022	80003db8	03a4e663	bltu	x9,x26,80003de4	  x9:0x80003bd8 x26:0x00000000
       50245000	      5023	80003dbc	0021a633	slt	x12,x3,x2	  x3:0x00000000  x2:0x7fff6069 x12=0x00000001
       50255000	      5024	80003dc0	afe97e17	auipc	x28,0xafe97	 x28=0x2fe9adbc
       50265000	      5025	80003dc4	40e301b3	sub	x3,x6,x14	  x6:0x00000000 x14:0x00000000  x3=0x00000000
       50275000	      5026	80003dc8	00ae6a63	bltu	x28,x10,80003ddc	 x28:0x2fe9adbc x10:0x00000001
       50285000	      5027	80003dcc	01b0fa33	and	x20,x1,x27	  x1:0x00000000 x27:0x80009f14 x20=0x00000000
       50295000	      5028	80003dd0	6208ccb7	lui	x25,0x6208c	 x25=0x6208c000
       50305000	      5029	80003dd4	0226e063	bltu	x13,x2,80003df4	 x13:0x01000000  x2:0x7fff6069
       50315000	      5030	00000000	00000013	addi	x0,x0,0	  x0:0x00000000
       50325000	      5031	80003df0	00000013	addi	x0,x0,0	  x0:0x00000000
       50335000	      5032	80003df4	0143fc63	bgeu	x7,x20,80003e0c	  x7:0x01000077 x20:0x00000000
       50345000	      5033	00000000	00000013	addi	x0,x0,0	  x0:0x00000000
       50355000	      5034	80003e08	00000013	addi	x0,x0,0	  x0:0x00000000
       50365000	      5035	80003e0c	68f905b7	lui	x11,0x68f90	 x11=0x68f90000
       50375000	      5036	80003e10	00c30a63	beq	x6,x12,80003e24	  x6:0x00000000 x12:0x00000001
       50385000	      5037	80003e14	00c15f13	srli	x30,x2,0xc	  x2:0x7fff6069 x30=0x0007fff6
       50395000	      5038	80003e18	4143da33	sra	x20,x7,x20	  x7:0x01000077 x20:0x00000000 x20=0x01000077
       50405000	      5039	80003e1c	1474e393	ori	x7,x9,327	  x9:0x80003bd8  x7=0x80003bdf
       50415000	      5040	80003e20	a719b317	auipc	x6,0xa719b	  x6=0x2719ee1c
       50425000	      5041	80003e24	02e27663	bgeu	x4,x14,80003e50	  x4:0x80003351 x14:0x00000000
       50435000	      5042	00000000	00000013	addi	x0,x0,0	  x0:0x00000000
       50445000	      5043	80003e4c	00000013	addi	x0,x0,0	  x0:0x00000000
       50455000	      5044	80003e50	00000013	addi	x0,x0,0	  x0:0x00000000
       50465000	      5045	80003e54	01bd3d33	sltu	x26,x26,x27	 x26:0x00000000 x27:0x80009f14 x26=0x00000001
       50475000	      5046	80003e58	0336f263	bgeu	x13,x19,80003e7c	 x13:0x01000000 x19:0x00000001
       50485000	      5047	00000000	00000013	addi	x0,x0,0	  x0:0x00000000
       50495000	      5048	80003e78	00000013	addi	x0,x0,0	  x0:0x00000000
       50505000	      5049	80003e7c	415985b3	sub	x11,x19,x21	 x19:0x00000001 x21:0x00000000 x11=0x00000001
       50515000	      5050	80003e80	02465863	bge	x12,x4,80003eb0	 x12:0x00000001  x4:0x80003351
       50525000	      5051	00000000	00000013	addi	x0,x0,0	  x0:0x00000000
       50535000	      5052	80003eac	00000013	addi	x0,x0,0	  x0:0x00000000
       50545000	      5053	80003eb0	1c46ac93	slti	x25,x13,452	 x13:0x01000000 x25=0x00000000
       50555000	      5054	80003eb4	4037d993	srai	x19,x15,0x3	 x15:0x00000001 x19=0x00000000
       50565000	      5055	80003eb8	00c7c2b3	xor	x5,x15,x12	 x15:0x00000001 x12:0x00000001  x5=0x00000000
       50575000	      5056	80003ebc	00000013	addi	x0,x0,0	  x0:0x00000000
       50585000	      5057	80003ec0	01277263	bgeu	x14,x18,80003ec4	 x14:0x00000000 x18:0x00000020
       50595000	      5058	80003ec4	01c1fc63	bgeu	x3,x28,80003edc	  x3:0x00000000 x28:0x2fe9adbc
       50605000	      5059	80003ec8	03941063	bne	x8,x25,80003ee8	  x8:0x80009fc4 x25:0x00000000
       50615000	      5060	00000000	00000013	addi	x0,x0,0	  x0:0x00000000
       50625000	      5061	80003ee4	00000013	addi	x0,x0,0	  x0:0x00000000
       50635000	      5062	80003ee8	00f75c33	srl	x24,x14,x15	 x14:0x00000000 x15:0x00000001 x24=0x00000000
       50645000	      5063	80003eec	258f7d13	andi	x26,x30,600	 x30:0x0007fff6 x26=0x00000250
       50655000	      5064	80003ef0	0138dc13	srli	x24,x17,0x13	 x17:0x0000000c x24=0x00000000
       50665000	      5065	80003ef4	00370f33	add	x30,x14,x3	 x14:0x00000000  x3:0x00000000 x30=0x00000000
       50675000	      5066	80003ef8	00ce1093	slli	x1,x28,0xc	 x28:0x2fe9adbc  x1=0x9adbc000
       50685000	      5067	80003efc	40b90d33	sub	x26,x18,x11	 x18:0x00000020 x11:0x00000001 x26=0x0000001f
       50695000	      5068	80003f00	016b6bb3	or	x23,x22,x22	 x22:0x00d797c0 x22:0x00d797c0 x23=0x00d797c0
       50705000	      5069	80003f04	13d55eb7	lui	x29,0x13d55	 x29=0x13d55000
       50715000	      5070	80003f08	ef6d3b93	sltiu	x23,x26,-266	 x26:0x0000001f x23=0x00000001
       50725000	      5071	80003f0c	02884c63	blt	x16,x8,80003f44	 x16:0x00000000  x8:0x80009fc4
       50735000	      5072	80003f10	00056a63	bltu	x10,x0,80003f24	 x10:0x00000001  x0:0x00000000
       50745000	      5073	80003f14	01262933	slt	x18,x12,x18	 x12:0x00000001 x18:0x00000020 x18=0x00000001
       50755000	      5074	80003f18	017081b3	add	x3,x1,x23	  x1:0x9adbc000 x23:0x00000001  x3=0x9adbc001
       50765000	      5075	80003f1c	41c65233	sra	x4,x12,x28	 x12:0x00000001 x28:0x2fe9adbc  x4=0x00000000
       50775000	      5076	80003f20	40a95733	sra	x14,x18,x10	 x18:0x00000001 x10:0x00000001 x14=0x00000000
       50785000	      5077	80003f24	10d9e593	ori	x11,x19,269	 x19:0x00000000 x11=0x0000010d
       50795000	      5078	80003f28	40110ab3	sub	x21,x2,x1	  x2:0x7fff6069  x1:0x9adbc000 x21=0xe523a069
       50805000	      5079	80003f2c	0119bbb3	sltu	x23,x19,x17	 x19:0x00000000 x17:0x0000000c x23=0x00000001
       50815000	      5080	80003f30	51e38493	addi	x9,x7,1310	  x7:0x80003bdf  x9=0x800040fd
       50825000	      5081	80003f34	40cd0633	sub	x12,x26,x12	 x26:0x0000001f x12:0x00000001 x12=0x0000001e
       50835000	      5082	80003f38	015be3b3	or	x7,x23,x21	 x23:0x00000001 x21:0xe523a069  x7=0xe523a069
       50845000	      5083	80003f3c	01c48bb3	add	x23,x9,x28	  x9:0x800040fd x28:0x2fe9adbc x23=0xafe9eeb9
       50855000	      5084	80003f40	00000013	addi	x0,x0,0	  x0:0x00000000
       50865000	      5085	80003f44	41db5f93	srai	x31,x22,0x1d	 x22:0x00d797c0 x31=0x00000000
       50875000	      5086	80003f48	0711b613	sltiu	x12,x3,113	  x3:0x9adbc001 x12=0x00000000
       50885000	      5087	80003f4c	0126ea63	bltu	x13,x18,80003f60	 x13:0x01000000 x18:0x00000001
       50895000	      5088	80003f50	06800263	beq	x0,x8,80003fb4	  x0:0x00000000  x8:0x80009fc4
       50905000	      5089	80003f54	01618eb3	add	x29,x3,x22	  x3:0x9adbc001 x22:0x00d797c0 x29=0x9bb357c1
       50915000	      5090	80003f58	006f9863	bne	x31,x6,80003f68	 x31:0x00000000  x6:0x2719ee1c
       50925000	      5091	00000000	00000013	addi	x0,x0,0	  x0:0x00000000
       50935000	      5092	80003f64	00000013	addi	x0,x0,0	  x0:0x00000000
       50945000	      5093	80003f68	412b5333	sra	x6,x22,x18	 x22:0x00d797c0 x18:0x00000001  x6=0x006bcbe0
       50955000	      5094	80003f6c	018000ef	jal	x1,80003f6c	  x1=0x80003f6c
       50965000	      5095	00000000	00000013	addi	x0,x0,0	  x0:0x00000000
       50975000	      5096	80003f80	00000013	addi	x0,x0,0	  x0:0x00000000
       50985000	      5097	80003f84	ff9ffb6f	jal	x22,80003f84	 x22=0x80003f84
       50995000	      5098	00000000	00000013	addi	x0,x0,0	  x0:0x00000000
       51005000	      5099	80003f78	00000013	addi	x0,x0,0	  x0:0x00000000
       51015000	      5100	80003f7c	ff5ff0ef	jal	x1,80003f7c	  x1=0x80003f7c
       51025000	      5101	00000000	00000013	addi	x0,x0,0	  x0:0x00000000
       51035000	      5102	80003f6c	00000013	addi	x0,x0,0	  x0:0x00000000
       51045000	      5103	80003f70	004000ef	jal	x1,80003f70	  x1=0x80003f70
       51055000	      5104	00000000	00000013	addi	x0,x0,0	  x0:0x00000000
       51065000	      5105	80003f70	00000013	addi	x0,x0,0	  x0:0x00000000
       51075000	      5106	80003f74	0280036f	jal	x6,80003f74	  x6=0x80003f74
       51085000	      5107	00000000	00000013	addi	x0,x0,0	  x0:0x00000000
       51095000	      5108	80003f98	00000013	addi	x0,x0,0	  x0:0x00000000
       51105000	      5109	80003f9c	ffdff0ef	jal	x1,80003f9c	  x1=0x80003f9c
       51115000	      5110	00000000	00000013	addi	x0,x0,0	  x0:0x00000000
       51125000	      5111	80003f94	00000013	addi	x0,x0,0	  x0:0x00000000
       51135000	      5112	80003f98	ff1ff4ef	jal	x9,80003f98	  x9=0x80003f98
       51145000	      5113	00000000	00000013	addi	x0,x0,0	  x0:0x00000000
       51155000	      5114	80003f84	00000013	addi	x0,x0,0	  x0:0x00000000
       51165000	      5115	80003f88	ff9ff0ef	jal	x1,80003f88	  x1=0x80003f88
       51175000	      5116	00000000	00000013	addi	x0,x0,0	  x0:0x00000000
       51185000	      5117	80003f7c	00000013	addi	x0,x0,0	  x0:0x00000000
       51195000	      5118	80003f80	014000ef	jal	x1,80003f80	  x1=0x80003f80
       51205000	      5119	00000000	00000013	addi	x0,x0,0	  x0:0x00000000
       51215000	      5120	80003f90	00000013	addi	x0,x0,0	  x0:0x00000000
       51225000	      5121	80003f94	ff9ff0ef	jal	x1,80003f94	  x1=0x80003f94
       51235000	      5122	00000000	00000013	addi	x0,x0,0	  x0:0x00000000
       51245000	      5123	80003f88	00000013	addi	x0,x0,0	  x0:0x00000000
       51255000	      5124	80003f8c	0040036f	jal	x6,80003f8c	  x6=0x80003f8c
       51265000	      5125	00000000	00000013	addi	x0,x0,0	  x0:0x00000000
       51275000	      5126	80003f8c	00000013	addi	x0,x0,0	  x0:0x00000000
       51285000	      5127	80003f90	fe9ff0ef	jal	x1,80003f90	  x1=0x80003f90
       51295000	      5128	00000000	00000013	addi	x0,x0,0	  x0:0x00000000
       51305000	      5129	80003f74	00000013	addi	x0,x0,0	  x0:0x00000000
       51315000	      5130	80003f78	028000ef	jal	x1,80003f78	  x1=0x80003f78
       51325000	      5131	00000000	00000013	addi	x0,x0,0	  x0:0x00000000
       51335000	      5132	80003f9c	00000013	addi	x0,x0,0	  x0:0x00000000
       51345000	      5133	80003fa0	0012d533	srl	x10,x5,x1	  x5:0x00000000  x1:0x80003f78 x10=0x00000000
       51355000	      5134	80003fa4	81f52f13	slti	x30,x10,-2017	 x10:0x00000000 x30=0x00000000
       51365000	      5135	80003fa8	01faae33	slt	x28,x21,x31	 x21:0xe523a069 x31:0x00000000 x28=0x00000001
       51375000	      5136	80003fac	03f38063	beq	x7,x31,80003fcc	  x7:0xe523a069 x31:0x00000000
       51385000	      5137	80003fb0	01368933	add	x18,x13,x19	 x13:0x01000000 x19:0x00000000 x18=0x01000000
       51395000	      5138	80003fb4	00000013	addi	x0,x0,0	  x0:0x00000000
       51405000	      5139	80003fb8	00000013	addi	x0,x0,0	  x0:0x00000000
       51415000	      5140	80003fbc	022e0a63	beq	x28,x2,80003ff0	 x28:0x00000001  x2:0x7fff6069
       51425000	      5141	80003fc0	00ffbcb3	sltu	x25,x31,x15	 x31:0x00000000 x15:0x00000001 x25=0x00000001
       51435000	      5142	80003fc4	01281463	bne	x16,x18,80003fcc	 x16:0x00000000 x18:0x01000000
       51445000	      5143	00000000	00000013	addi	x0,x0,0	  x0:0x00000000
       51455000	      5144	80003fc8	00000013	addi	x0,x0,0	  x0:0x00000000
       51465000	      5145	80003fcc	01ae5a63	bge	x28,x26,80003fe0	 x28:0x00000001 x26:0x0000001f
       51475000	      5146	80003fd0	05e14463	blt	x2,x30,80004018	  x2:0x7fff6069 x30:0x00000000
       51485000	      5147	80003fd4	cb9ff113	andi	x2,x31,-839	 x31:0x00000000  x2=0x00000000
       51495000	      5148	80003fd8	01901a93	slli	x21,x0,0x19	  x0:0x00000000 x21=0x00000000
       51505000	      5149	80003fdc	02574663	blt	x14,x5,80004008	 x14:0x00000000  x5:0x00000000
       51515000	      5150	80003fe0	0168e9b3	or	x19,x17,x22	 x17:0x0000000c x22:0x80003f84 x19=0x80003f8c
       51525000	      5151	80003fe4	40645293	srai	x5,x8,0x6	  x8:0x80009fc4  x5=0xfe00027f
       51535000	      5152	80003fe8	018192b3	sll	x5,x3,x24	  x3:0x9adbc001 x24:0x00000000  x5=0x9adbc001
       51545000	      5153	80003fec	0094f3b3	and	x7,x9,x9	  x9:0x80003f98  x9:0x80003f98  x7=0x80003f98
       51555000	      5154	80003ff0	6647c017	auipc	x0,0x6647c	
       51565000	      5155	80003ff4	01088863	beq	x17,x16,80004004	 x17:0x0000000c x16:0x00000000
       51575000	      5156	80003ff8	9e13ce13	xori	x28,x7,-1567	  x7:0x80003f98 x28=0x7fffc679
       51585000	      5157	80003ffc	b4bf7713	andi	x14,x30,-1205	 x30:0x00000000 x14=0x00000000
       51595000	      5158	80004000	01360e63	beq	x12,x19,8000401c	 x12:0x00000000 x19:0x80003f8c
       51605000	      5159	80004004	ce842b13	slti	x22,x8,-792	  x8:0x80009fc4 x22=0x00000001
       51615000	      5160	80004008	05859663	bne	x11,x24,80004054	 x11:0x0000010d x24:0x00000000
       51625000	      5161	00000000	00000013	addi	x0,x0,0	  x0:0x00000000
       51635000	      5162	80004050	00000013	addi	x0,x0,0	  x0:0x00000000
       51645000	      5163	80004054	0263d463	bge	x7,x6,8000407c	  x7:0x80003f98  x6:0x80003f8c
       51655000	      5164	00000000	00000013	addi	x0,x0,0	  x0:0x00000000
       51665000	      5165	80004078	00000013	addi	x0,x0,0	  x0:0x00000000
       51675000	      5166	8000407c	011bbb33	sltu	x22,x23,x17	 x23:0xafe9eeb9 x17:0x0000000c x22=0x00000000
       51685000	      5167	80004080	a1072097	auipc	x1,0xa1072	  x1=0x2107607c
       51695000	      5168	80004084	0074b133	sltu	x2,x9,x7	  x9:0x80003f98  x7:0x80003f98  x2=0x00000000
       51705000	      5169	80004088	01e07033	and	x0,x0,x30	  x0:0x00000000 x30:0x00000000
       51715000	      5170	8000408c	41ce5cb3	sra	x25,x28,x28	 x28:0x7fffc679 x28:0x7fffc679 x25=0x0000003f
       51725000	      5171	80004090	5a652013	slti	x0,x10,1446	 x10:0x00000000
       51735000	      5172	80004094	9e4fb913	sltiu	x18,x31,-1564	 x31:0x00000000 x18=0x00000001
       51745000	      5173	80004098	00fffab3	and	x21,x31,x15	 x31:0x00000000 x15:0x00000001 x21=0x00000000
       51755000	      5174	8000409c	00017863	bgeu	x2,x0,800040ac	  x2:0x00000000  x0:0x00000000
       51765000	      5175	00000000	00000013	addi	x0,x0,0	  x0:0x00000000
       51775000	      5176	800040a8	00000013	addi	x0,x0,0	  x0:0x00000000
       51785000	      5177	800040ac	402e0733	sub	x14,x28,x2	 x28:0x7fffc679  x2:0x00000000 x14=0x7fffc679
       51795000	      5178	800040b0	1a0c7c13	andi	x24,x24,416	 x24:0x00000000 x24=0x00000000
       51805000	      5179	800040b4	01aa2fb3	slt	x31,x20,x26	 x20:0x01000077 x26:0x0000001f x31=0x00000000
       51815000	      5180	800040b8	012c6d33	or	x26,x24,x18	 x24:0x00000000 x18:0x00000001 x26=0x00000001
       51825000	      5181	800040bc	04001463	bne	x0,x0,80004104	  x0:0x00000000  x0:0x00000000
       51835000	      5182	800040c0	00305933	srl	x18,x0,x3	  x0:0x00000000  x3:0x9adbc001 x18=0x00000000
       51845000	      5183	800040c4	feb3e993	ori	x19,x7,-21	  x7:0x80003f98 x19=0xfffffffb
       51855000	      5184	800040c8	00cac2b3	xor	x5,x21,x12	 x21:0x00000000 x12:0x00000000  x5=0x00000000
       51865000	      5185	800040cc	00ebad33	slt	x26,x23,x14	 x23:0xafe9eeb9 x14:0x7fffc679 x26=0x00000001
       51875000	      5186	800040d0	409bd693	srai	x13,x23,0x9	 x23:0xafe9eeb9 x13=0xffd7f4f7
       51885000	      5187	800040d4	c0378b13	addi	x22,x15,-1021	 x15:0x00000001 x22=0xfffffc04
       51895000	      5188	800040d8	004e17b3	sll	x15,x28,x4	 x28:0x7fffc679  x4:0x00000000 x15=0x7fffc679
       51905000	      5189	800040dc	414dd593	srai	x11,x27,0x14	 x27:0x80009f14 x11=0xfffff800
       51915000	      5190	800040e0	00bc00b3	add	x1,x24,x11	 x24:0x00000000 x11:0xfffff800  x1=0xfffff800
       51925000	      5191	800040e4	01619713	slli	x14,x3,0x16	  x3:0x9adbc001 x14=0x00400000
       51935000	      5192	800040e8	41535913	srai	x18,x6,0x15	  x6:0x80003f8c x18=0xfffffc00
       51945000	      5193	800040ec	e6b67e97	auipc	x29,0xe6b67	 x29=0x66b6b0e8
       51955000	      5194	800040f0	021d8a63	beq	x27,x1,80004124	 x27:0x80009f14  x1:0xfffff800
       51965000	      5195	800040f4	03c9d863	bge	x19,x28,80004124	 x19:0xfffffffb x28:0x7fffc679
       51975000	      5196	800040f8	0333f463	bgeu	x7,x19,80004120	  x7:0x80003f98 x19:0xfffffffb
       51985000	      5197	800040fc	00d73bb3	sltu	x23,x14,x13	 x14:0x00400000 x13:0xffd7f4f7 x23=0x00000001
       51995000	      5198	80004100	018d5b13	srli	x22,x26,0x18	 x26:0x00000001 x22=0x00000000
       52005000	      5199	80004104	409a0933	sub	x18,x20,x9	 x20:0x01000077  x9:0x80003f98 x18=0x80ffc0df
       52015000	      5200	80004108	c5590393	addi	x7,x18,-939	 x18:0x80ffc0df  x7=0x80ffbd34
       52025000	      5201	8000410c	0156d7b3	srl	x15,x13,x21	 x13:0xffd7f4f7 x21:0x00000000 x15=0xffd7f4f7
       52035000	      5202	80004110	30500693	addi	x13,x0,773	  x0:0x00000000 x13=0x00000305
       52045000	      5203	80004114	00fc6ab3	or	x21,x24,x15	 x24:0x00000000 x15:0xffd7f4f7 x21=0xffd7f4f7
       52055000	      5204	80004118	018fec63	bltu	x31,x24,80004130	 x31:0x00000000 x24:0x00000000
       52065000	      5205	8000411c	2b6df613	andi	x12,x27,694	 x27:0x80009f14 x12=0x00000214
       52075000	      5206	80004120	00bc1463	bne	x24,x11,80004128	 x24:0x00000000 x11:0xfffff800
       52085000	      5207	00000000	00000013	addi	x0,x0,0	  x0:0x00000000
       52095000	      5208	80004124	00000013	addi	x0,x0,0	  x0:0x00000000
       52105000	      5209	80004128	03f55e63	bge	x10,x31,80004164	 x10:0x00000000 x31:0x00000000
       52115000	      5210	00000000	00000013	addi	x0,x0,0	  x0:0x00000000
       52125000	      5211	80004160	00000013	addi	x0,x0,0	  x0:0x00000000
       52135000	      5212	80004164	00191393	slli	x7,x18,0x1	 x18:0x80ffc0df  x7=0x01ff81be
       52145000	      5213	80004168	02dc6063	bltu	x24,x13,80004188	 x24:0x00000000 x13:0x00000305
       52155000	      5214	00000000	00000013	addi	x0,x0,0	  x0:0x00000000
       52165000	      5215	80004184	00000013	addi	x0,x0,0	  x0:0x00000000
       52175000	      5216	80004188	03d88c63	beq	x17,x29,800041c0	 x17:0x0000000c x29:0x66b6b0e8
       52185000	      5217	8000418c	413e03b3	sub	x7,x28,x19	 x28:0x7fffc679 x19:0xfffffffb  x7=0x7fffc67e
       52195000	      5218	80004190	d8682813	slti	x16,x16,-634	 x16:0x00000000 x16=0x00000000
       52205000	      5219	80004194	05b11663	bne	x2,x27,800041e0	  x2:0x00000000 x27:0x80009f14
       52215000	      5220	00000000	00000013	addi	x0,x0,0	  x0:0x00000000
       52225000	      5221	800041dc	00000013	addi	x0,x0,0	  x0:0x00000000
       52235000	      5222	800041e0	01355d33	srl	x26,x10,x19	 x10:0x00000000 x19:0xfffffffb x26=0x00000000
       52245000	      5223	800041e4	5620ca37	lui	x20,0x5620c	 x20=0x5620c000
       52255000	      5224	800041e8	005e6ab3	or	x21,x28,x5	 x28:0x7fffc679  x5:0x00000000 x21=0x7fffc679
       52265000	      5225	800041ec	03d8e063	bltu	x17,x29,8000420c	 x17:0x0000000c x29:0x66b6b0e8
       52275000	      5226	00000000	00000013	addi	x0,x0,0	  x0:0x00000000
       52285000	      5227	80004208	00000013	addi	x0,x0,0	  x0:0x00000000
       52295000	      5228	8000420c	017957b3	srl	x15,x18,x23	 x18:0x80ffc0df x23:0x00000001 x15=0x407fe06f
       52305000	      5229	80004210	01357c33	and	x24,x10,x19	 x10:0x00000000 x19:0xfffffffb x24=0x00000000
       52315000	      5230	80004214	9e30cb13	xori	x22,x1,-1565	  x1:0xfffff800 x22=0x000001e3
       52325000	      5231	80004218	01bc7bb3	and	x23,x24,x27	 x24:0x00000000 x27:0x80009f14 x23=0x00000000
       52335000	      5232	8000421c	01050f33	add	x30,x10,x16	 x10:0x00000000 x16:0x00000000 x30=0x00000000
       52345000	      5233	80004220	a0f6b237	lui	x4,0xa0f6b	  x4=0xa0f6b000
       52355000	      5234	80004224	3fcca213	slti	x4,x25,1020	 x25:0x0000003f  x4=0x00000001
       52365000	      5235	80004228	01810233	add	x4,x2,x24	  x2:0x00000000 x24:0x00000000  x4=0x00000000
       52375000	      5236	8000422c	017864b3	or	x9,x16,x23	 x16:0x00000000 x23:0x00000000  x9=0x00000000
       52385000	      5237	80004230	4005df13	srai	x30,x11,0x0	 x11:0xfffff800 x30=0xfffff800
       52395000	      5238	80004234	82d54813	xori	x16,x10,-2003	 x10:0x00000000 x16=0xfffff82d
       52405000	      5239	80004238	033c9c63	bne	x25,x19,80004270	 x25:0x0000003f x19:0xfffffffb
       52415000	      5240	00000000	00000013	addi	x0,x0,0	  x0:0x00000000
       52425000	      5241	8000426c	00000013	addi	x0,x0,0	  x0:0x00000000
       52435000	      5242	80004270	4be9f193	andi	x3,x19,1214	 x19:0xfffffffb  x3=0x000004ba
       52445000	      5243	80004274	01068263	beq	x13,x16,80004278	 x13:0x00000305 x16:0xfffff82d
       52455000	      5244	80004278	002acab3	xor	x21,x21,x2	 x21:0x7fffc679  x2:0x00000000 x21=0x7fffc679
       52465000	      5245	8000427c	40445a93	srai	x21,x8,0x4	  x8:0x80009fc4 x21=0xf80009fc
       52475000	      5246	80004280	02e68463	beq	x13,x14,800042a8	 x13:0x00000305 x14:0x00400000
       52485000	      5247	80004284	01aba733	slt	x14,x23,x26	 x23:0x00000000 x26:0x00000000 x14=0x00000000
       52495000	      5248	80004288	81fc3713	sltiu	x14,x24,-2017	 x24:0x00000000 x14=0x00000001
       52505000	      5249	8000428c	01c7fcb3	and	x25,x15,x28	 x15:0x407fe06f x28:0x7fffc679 x25=0x407fc069
       52515000	      5250	80004290	41a8de93	srai	x29,x17,0x1a	 x17:0x0000000c x29=0x00000000
       52525000	      5251	80004294	015cda63	bge	x25,x21,800042a8	 x25:0x407fc069 x21:0xf80009fc
       52535000	      5252	00000000	00000013	addi	x0,x0,0	  x0:0x00000000
       52545000	      5253	800042a4	00000013	addi	x0,x0,0	  x0:0x00000000
       52555000	      5254	800042a8	41915f13	srai	x30,x2,0x19	  x2:0x00000000 x30=0x00000000
       52565000	      5255	800042ac	cf65f917	auipc	x18,0xcf65f	 x18=0x4f6632a8
       52575000	      5256	800042b0	08434493	xori	x9,x6,132	  x6:0x80003f8c  x9=0x80003f08
       52585000	      5257	800042b4	8aa3f513	andi	x10,x7,-1878	  x7:0x7fffc67e x10=0x7fffc02a
       52595000	      5258	800042b8	d9e38993	addi	x19,x7,-610	  x7:0x7fffc67e x19=0x7fffc41c
       52605000	      5259	800042bc	008d43b3	xor	x7,x26,x8	 x26:0x00000000  x8:0x80009fc4  x7=0x80009fc4
       52615000	      5260	800042c0	f79bb513	sltiu	x10,x23,-135	 x23:0x00000000 x10=0x00000001
       52625000	      5261	800042c4	37ece317	auipc	x6,0x37ece	  x6=0xb7ed22c0
       52635000	      5262	800042c8	41e45ab3	sra	x21,x8,x30	  x8:0x80009fc4 x30:0x00000000 x21=0x80009fc4
       52645000	      5263	800042cc	01a1f463	bgeu	x3,x26,800042d4	  x3:0x000004ba x26:0x00000000
       52655000	      5264	00000000	00000013	addi	x0,x0,0	  x0:0x00000000
       52665000	      5265	800042d0	00000013	addi	x0,x0,0	  x0:0x00000000
       52675000	      5266	800042d4	02bf6663	bltu	x30,x11,80004300	 x30:0x00000000 x11:0xfffff800
       52685000	      5267	00000000	00000013	addi	x0,x0,0	  x0:0x00000000
       52695000	      5268	800042fc	00000013	addi	x0,x0,0	  x0:0x00000000
       52705000	      5269	80004300	014fea63	bltu	x31,x20,80004314	 x31:0x00000000 x20:0x5620c000
       52715000	      5270	00000000	00000013	addi	x0,x0,0	  x0:0x00000000
       52725000	      5271	80004310	00000013	addi	x0,x0,0	  x0:0x00000000
       52735000	      5272	80004314	014ce463	bltu	x25,x20,8000431c	 x25:0x407fc069 x20:0x5620c000
       52745000	      5273	00000000	00000013	addi	x0,x0,0	  x0:0x00000000
       52755000	      5274	80004318	00000013	addi	x0,x0,0	  x0:0x00000000
       52765000	      5275	8000431c	9ff6e013	ori	x0,x13,-1537	 x13:0x00000305
       52775000	      5276	80004320	f07a3e93	sltiu	x29,x20,-249	 x20:0x5620c000 x29=0x00000001
       52785000	      5277	80004324	01daf463	bgeu	x21,x29,8000432c	 x21:0x80009fc4 x29:0x00000001
       52795000	      5278	00000000	00000013	addi	x0,x0,0	  x0:0x00000000
       52805000	      5279	80004328	00000013	addi	x0,x0,0	  x0:0x00000000
       52815000	      5280	8000432c	0f5d6d13	ori	x26,x26,245	 x26:0x00000000 x26=0x000000f5
       52825000	      5281	80004330	01d02033	slt	x0,x0,x29	  x0:0x00000000 x29:0x00000001
       52835000	      5282	80004334	00cf5b13	srli	x22,x30,0xc	 x30:0x00000000 x22=0x00000000
       52845000	      5283	80004338	00bfd113	srli	x2,x31,0xb	 x31:0x00000000  x2=0x00000000
       52855000	      5284	8000433c	572cec93	ori	x25,x25,1394	 x25:0x407fc069 x25=0x407fc57b
       52865000	      5285	80004340	032af663	bgeu	x21,x18,8000436c	 x21:0x80009fc4 x18:0x4f6632a8
       52875000	      5286	00000000	00000013	addi	x0,x0,0	  x0:0x00000000
       52885000	      5287	80004368	00000013	addi	x0,x0,0	  x0:0x00000000
       52895000	      5288	8000436c	03272097	auipc	x1,0x3272	  x1=0x83276368
       52905000	      5289	80004370	009f4533	xor	x10,x30,x9	 x30:0x00000000  x9:0x80003f08 x10=0x80003f08
       52915000	      5290	80004374	00d91f13	slli	x30,x18,0xd	 x18:0x4f6632a8 x30=0xc6550000
       52925000	      5291	80004378	40c1dd13	srai	x26,x3,0xc	  x3:0x000004ba x26=0x00000000
       52935000	      5292	8000437c	005aa133	slt	x2,x21,x5	 x21:0x80009fc4  x5:0x00000000  x2=0x00000001
       52945000	      5293	80004380	2ee3e7b7	lui	x15,0x2ee3e	 x15=0x2ee3e000
       52955000	      5294	80004384	00517e63	bgeu	x2,x5,800043a0	  x2:0x00000001  x5:0x00000000
       52965000	      5295	00000000	00000013	addi	x0,x0,0	  x0:0x00000000
       52975000	      5296	8000439c	00000013	addi	x0,x0,0	  x0:0x00000000
       52985000	      5297	800043a0	8830bb97	auipc	x23,0x8830b	 x23=0x0830f39c
       52995000	      5298	800043a4	c36a3513	sltiu	x10,x20,-970	 x20:0x5620c000 x10=0x00000001
       53005000	      5299	800043a8	89140513	addi	x10,x8,-1903	  x8:0x80009fc4 x10=0x80009855
       53015000	      5300	800043ac	00000013	addi	x0,x0,0	  x0:0x00000000
       53025000	      5301	800043b0	00dd14b3	sll	x9,x26,x13	 x26:0x00000000 x13:0x00000305  x9=0x00000000
       53035000	      5302	800043b4	eb5cb817	auipc	x16,0xeb5cb	 x16=0x6b5cf3b0
       53045000	      5303	800043b8	025fc663	blt	x31,x5,800043e4	 x31:0x00000000  x5:0x00000000
       53055000	      5304	800043bc	00de2fb3	slt	x31,x28,x13	 x28:0x7fffc679 x13:0x00000305 x31=0x00000000
       53065000	      5305	800043c0	0256c663	blt	x13,x5,800043ec	 x13:0x00000305  x5:0x00000000
       53075000	      5306	800043c4	14987813	andi	x16,x16,329	 x16:0x6b5cf3b0 x16=0x00000100
       53085000	      5307	800043c8	91dbf613	andi	x12,x23,-1763	 x23:0x0830f39c x12=0x0830f11c
       53095000	      5308	800043cc	9c0dc093	xori	x1,x27,-1600	 x27:0x80009f14  x1=0x7fff66d4
       53105000	      5309	800043d0	f211d5b7	lui	x11,0xf211d	 x11=0xf211d000
       53115000	      5310	800043d4	d58c3713	sltiu	x14,x24,-680	 x24:0x00000000 x14=0x00000001
       53125000	      5311	800043d8	01686233	or	x4,x16,x22	 x16:0x00000100 x22:0x00000000  x4=0x00000100
       53135000	      5312	800043dc	018dd013	srli	x0,x27,0x18	 x27:0x80009f14
       53145000	      5313	800043e0	01720263	beq	x4,x23,800043e4	  x4:0x00000100 x23:0x0830f39c
       53155000	      5314	800043e4	011a8863	beq	x21,x17,800043f4	 x21:0x80009fc4 x17:0x0000000c
       53165000	      5315	800043e8	00094863	blt	x18,x0,800043f8	 x18:0x4f6632a8  x0:0x00000000
       53175000	      5316	800043ec	412f0833	sub	x16,x30,x18	 x30:0xc6550000 x18:0x4f6632a8 x16=0x76eecd58
       53185000	      5317	800043f0	40498fb3	sub	x31,x19,x4	 x19:0x7fffc41c  x4:0x00000100 x31=0x7fffc31c
       53195000	      5318	800043f4	02aaf063	bgeu	x21,x10,80004414	 x21:0x80009fc4 x10:0x80009855
       53205000	      5319	00000000	00000013	addi	x0,x0,0	  x0:0x00000000
       53215000	      5320	80004410	00000013	addi	x0,x0,0	  x0:0x00000000
       53225000	      5321	80004414	02a9f463	bgeu	x19,x10,8000443c	 x19:0x7fffc41c x10:0x80009855
       53235000	      5322	80004418	405fd313	srai	x6,x31,0x5	 x31:0x7fffc31c  x6=0x03fffe18
       53245000	      5323	8000441c	02099663	bne	x19,x0,80004448	 x19:0x7fffc41c  x0:0x00000000
       53255000	      5324	00000000	00000013	addi	x0,x0,0	  x0:0x00000000
       53265000	      5325	80004444	00000013	addi	x0,x0,0	  x0:0x00000000
       53275000	      5326	80004448	01639293	slli	x5,x7,0x16	  x7:0x80009fc4  x5=0xf1000000
       53285000	      5327	8000444c	417ed333	sra	x6,x29,x23	 x29:0x00000001 x23:0x0830f39c  x6=0x00000000
       53295000	      5328	80004450	0234f063	bgeu	x9,x3,80004470	  x9:0x00000000  x3:0x000004ba
       53305000	      5329	80004454	22348f93	addi	x31,x9,547	  x9:0x00000000 x31=0x00000223
       53315000	      5330	80004458	9e323e93	sltiu	x29,x4,-1565	  x4:0x00000100 x29=0x00000001
       53325000	      5331	8000445c	03fe0a63	beq	x28,x31,80004490	 x28:0x7fffc679 x31:0x00000223
       53335000	      5332	80004460	402b5a93	srai	x21,x22,0x2	 x22:0x00000000 x21=0x00000000
       53345000	      5333	80004464	0365c463	blt	x11,x22,8000448c	 x11:0xf211d000 x22:0x00000000
       53355000	      5334	00000000	00000013	addi	x0,x0,0	  x0:0x00000000
       53365000	      5335	80004488	00000013	addi	x0,x0,0	  x0:0x00000000
       53375000	      5336	8000448c	6ff08313	addi	x6,x1,1791	  x1:0x7fff66d4  x6=0x7fff6dd3
       53385000	      5337	80004490	0a80c663	blt	x1,x8,8000453c	  x1:0x7fff66d4  x8:0x80009fc4
       53395000	      5338	80004494	011e90b3	sll	x1,x29,x17	 x29:0x00000001 x17:0x0000000c  x1=0x00001000
       53405000	      5339	80004498	00823bb3	sltu	x23,x4,x8	  x4:0x00000100  x8:0x80009fc4 x23=0x00000001
       53415000	      5340	8000449c	011bb033	sltu	x0,x23,x17	 x23:0x00000001 x17:0x0000000c
       53425000	      5341	800044a0	57f17b97	auipc	x23,0x57f17	 x23=0xd7f1b49c
       53435000	      5342	800044a4	c15f2293	slti	x5,x30,-1003	 x30:0xc6550000  x5=0x00000001
       53445000	      5343	800044a8	4010d9b3	sra	x19,x1,x1	  x1:0x00001000  x1:0x00001000 x19=0x00001000
       53455000	      5344	800044ac	060000ef	jal	x1,800044ac	  x1=0x800044ac
       53465000	      5345	00000000	00000013	addi	x0,x0,0	  x0:0x00000000
       53475000	      5346	80004508	00000013	addi	x0,x0,0	  x0:0x00000000
       53485000	      5347	8000450c	fb9ff0ef	jal	x1,8000450c	  x1=0x8000450c
       53495000	      5348	00000000	00000013	addi	x0,x0,0	  x0:0x00000000
       53505000	      5349	800044c0	00000013	addi	x0,x0,0	  x0:0x00000000
       53515000	      5350	800044c4	00800e6f	jal	x28,800044c4	 x28=0x800044c4
       53525000	      5351	00000000	00000013	addi	x0,x0,0	  x0:0x00000000
       53535000	      5352	800044c8	00000013	addi	x0,x0,0	  x0:0x00000000
       53545000	      5353	800044cc	034000ef	jal	x1,800044cc	  x1=0x800044cc
       53555000	      5354	00000000	00000013	addi	x0,x0,0	  x0:0x00000000
       53565000	      5355	800044fc	00000013	addi	x0,x0,0	  x0:0x00000000
       53575000	      5356	80004500	fd5ff0ef	jal	x1,80004500	  x1=0x80004500
       53585000	      5357	00000000	00000013	addi	x0,x0,0	  x0:0x00000000
       53595000	      5358	800044d0	00000013	addi	x0,x0,0	  x0:0x00000000
       53605000	      5359	800044d4	01c0076f	jal	x14,800044d4	 x14=0x800044d4
       53615000	      5360	00000000	00000013	addi	x0,x0,0	  x0:0x00000000
       53625000	      5361	800044ec	00000013	addi	x0,x0,0	  x0:0x00000000
       53635000	      5362	800044f0	fcdff0ef	jal	x1,800044f0	  x1=0x800044f0
       53645000	      5363	00000000	00000013	addi	x0,x0,0	  x0:0x00000000
       53655000	      5364	800044b8	00000013	addi	x0,x0,0	  x0:0x00000000
       53665000	      5365	800044bc	ff5ff0ef	jal	x1,800044bc	  x1=0x800044bc
       53675000	      5366	00000000	00000013	addi	x0,x0,0	  x0:0x00000000
       53685000	      5367	800044ac	00000013	addi	x0,x0,0	  x0:0x00000000
       53695000	      5368	800044b0	048000ef	jal	x1,800044b0	  x1=0x800044b0
       53705000	      5369	00000000	00000013	addi	x0,x0,0	  x0:0x00000000
       53715000	      5370	800044f4	00000013	addi	x0,x0,0	  x0:0x00000000
       53725000	      5371	800044f8	ffdff0ef	jal	x1,800044f8	  x1=0x800044f8
       53735000	      5372	00000000	00000013	addi	x0,x0,0	  x0:0x00000000
       53745000	      5373	800044f0	00000013	addi	x0,x0,0	  x0:0x00000000
       53755000	      5374	800044f4	fd5ff36f	jal	x6,800044f4	  x6=0x800044f4
       53765000	      5375	00000000	00000013	addi	x0,x0,0	  x0:0x00000000
       53775000	      5376	800044c4	00000013	addi	x0,x0,0	  x0:0x00000000
       53785000	      5377	800044c8	008000ef	jal	x1,800044c8	  x1=0x800044c8
       53795000	      5378	00000000	00000013	addi	x0,x0,0	  x0:0x00000000
       53805000	      5379	800044cc	00000013	addi	x0,x0,0	  x0:0x00000000
       53815000	      5380	800044d0	00c001ef	jal	x3,800044d0	  x3=0x800044d0
       53825000	      5381	00000000	00000013	addi	x0,x0,0	  x0:0x00000000
       53835000	      5382	800044d8	00000013	addi	x0,x0,0	  x0:0x00000000
       53845000	      5383	800044dc	010000ef	jal	x1,800044dc	  x1=0x800044dc
       53855000	      5384	00000000	00000013	addi	x0,x0,0	  x0:0x00000000
       53865000	      5385	800044e8	00000013	addi	x0,x0,0	  x0:0x00000000
       53875000	      5386	800044ec	010006ef	jal	x13,800044ec	 x13=0x800044ec
       53885000	      5387	00000000	00000013	addi	x0,x0,0	  x0:0x00000000
       53895000	      5388	800044f8	00000013	addi	x0,x0,0	  x0:0x00000000
       53905000	      5389	800044fc	fddff36f	jal	x6,800044fc	  x6=0x800044fc
       53915000	      5390	00000000	00000013	addi	x0,x0,0	  x0:0x00000000
       53925000	      5391	800044d4	00000013	addi	x0,x0,0	  x0:0x00000000
       53935000	      5392	800044d8	fe1ff0ef	jal	x1,800044d8	  x1=0x800044d8
       53945000	      5393	00000000	00000013	addi	x0,x0,0	  x0:0x00000000
       53955000	      5394	800044b4	00000013	addi	x0,x0,0	  x0:0x00000000
       53965000	      5395	800044b8	04c000ef	jal	x1,800044b8	  x1=0x800044b8
       53975000	      5396	00000000	00000013	addi	x0,x0,0	  x0:0x00000000
       53985000	      5397	80004500	00000013	addi	x0,x0,0	  x0:0x00000000
       53995000	      5398	80004504	fe1ff36f	jal	x6,80004504	  x6=0x80004504
       54005000	      5399	00000000	00000013	addi	x0,x0,0	  x0:0x00000000
       54015000	      5400	800044e0	00000013	addi	x0,x0,0	  x0:0x00000000
       54025000	      5401	800044e4	02c0016f	jal	x2,800044e4	  x2=0x800044e4
       54035000	      5402	00000000	00000013	addi	x0,x0,0	  x0:0x00000000
       54045000	      5403	8000450c	00000013	addi	x0,x0,0	  x0:0x00000000
       54055000	      5404	80004510	fd1ff6ef	jal	x13,80004510	 x13=0x80004510
       54065000	      5405	00000000	00000013	addi	x0,x0,0	  x0:0x00000000
       54075000	      5406	800044dc	00000013	addi	x0,x0,0	  x0:0x00000000
       54085000	      5407	800044e0	028000ef	jal	x1,800044e0	  x1=0x800044e0
       54095000	      5408	00000000	00000013	addi	x0,x0,0	  x0:0x00000000
       54105000	      5409	80004504	00000013	addi	x0,x0,0	  x0:0x00000000
       54115000	      5410	80004508	fb9ff36f	jal	x6,80004508	  x6=0x80004508
       54125000	      5411	00000000	00000013	addi	x0,x0,0	  x0:0x00000000
       54135000	      5412	800044bc	00000013	addi	x0,x0,0	  x0:0x00000000
       54145000	      5413	800044c0	ff5fff6f	jal	x30,800044c0	 x30=0x800044c0
       54155000	      5414	00000000	00000013	addi	x0,x0,0	  x0:0x00000000
       54165000	      5415	800044b0	00000013	addi	x0,x0,0	  x0:0x00000000
       54175000	      5416	800044b4	034000ef	jal	x1,800044b4	  x1=0x800044b4
       54185000	      5417	00000000	00000013	addi	x0,x0,0	  x0:0x00000000
       54195000	      5418	800044e4	00000013	addi	x0,x0,0	  x0:0x00000000
       54205000	      5419	800044e8	02c0036f	jal	x6,800044e8	  x6=0x800044e8
       54215000	      5420	00000000	00000013	addi	x0,x0,0	  x0:0x00000000
       54225000	      5421	80004510	00000013	addi	x0,x0,0	  x0:0x00000000
       54235000	      5422	80004514	017d2933	slt	x18,x26,x23	 x26:0x00000000 x23:0xd7f1b49c x18=0x00000000
       54245000	      5423	80004518	00057fb3	and	x31,x10,x0	 x10:0x80009855  x0:0x00000000 x31=0x00000000
       54255000	      5424	8000451c	00338233	add	x4,x7,x3	  x7:0x80009fc4  x3:0x800044d0  x4=0x0000e494
       54265000	      5425	80004520	01dda233	slt	x4,x27,x29	 x27:0x80009f14 x29:0x00000001  x4=0x00000001
       54275000	      5426	80004524	3e666693	ori	x13,x12,998	 x12:0x0830f11c x13=0x0830f3fe
       54285000	      5427	80004528	55cd2093	slti	x1,x26,1372	 x26:0x00000000  x1=0x00000001
       54295000	      5428	8000452c	c3e72313	slti	x6,x14,-962	 x14:0x800044d4  x6=0x00000001
       54305000	      5429	80004530	0040d933	srl	x18,x1,x4	  x1:0x00000001  x4:0x00000001 x18=0x00000000
       54315000	      5430	80004534	005bfcb3	and	x25,x23,x5	 x23:0xd7f1b49c  x5:0x00000001 x25=0x00000000
       54325000	      5431	80004538	01a78933	add	x18,x15,x26	 x15:0x2ee3e000 x26:0x00000000 x18=0x2ee3e000
       54335000	      5432	8000453c	d3db7f93	andi	x31,x22,-707	 x22:0x00000000 x31=0x00000000
       54345000	      5433	80004540	00ab9b33	sll	x22,x23,x10	 x23:0xd7f1b49c x10:0x80009855 x22=0x93800000
       54355000	      5434	80004544	004da083	lw	x1,4(x27)	 x27:0x80009f14  x1=0x80004594 PA:0x80009f18
       54365000	      5435	80004548	00000013	addi	x0,x0,0	  x0:0x00000000
       54375000	      5436	8000454c	030d8d93	addi	x27,x27,48	 x27:0x80009f14 x27=0x80009f44
       54385000	      5437	80004550	0203a693	slti	x13,x7,32	  x7:0x80009fc4 x13=0x00000001
       54395000	      5438	80004554	00e9cfb3	xor	x31,x19,x14	 x19:0x00001000 x14:0x800044d4 x31=0x800054d4
       54405000	      5439	80004558	00108d13	addi	x26,x1,1	  x1:0x80004594 x26=0x80004595
       54415000	      5440	8000455c	000d0d67	jalr	x26,x26,0	 x26:0x80004595 x26=0x8000455c
       54425000	      5441	00000000	00000013	addi	x0,x0,0	  x0:0x00000000
       54435000	      5442	80004594	00000013	addi	x0,x0,0	  x0:0x00000000
       54445000	      5443	80004598	030000ef	jal	x1,80004598	  x1=0x80004598
       54455000	      5444	00000000	00000013	addi	x0,x0,0	  x0:0x00000000
       54465000	      5445	800045c4	00000013	addi	x0,x0,0	  x0:0x00000000
       54475000	      5446	800045c8	fe1ff2ef	jal	x5,800045c8	  x5=0x800045c8
       54485000	      5447	00000000	00000013	addi	x0,x0,0	  x0:0x00000000
       54495000	      5448	800045a4	00000013	addi	x0,x0,0	  x0:0x00000000
       54505000	      5449	800045a8	0080036f	jal	x6,800045a8	  x6=0x800045a8
       54515000	      5450	00000000	00000013	addi	x0,x0,0	  x0:0x00000000
       54525000	      5451	800045ac	00000013	addi	x0,x0,0	  x0:0x00000000
       54535000	      5452	800045b0	01c000ef	jal	x1,800045b0	  x1=0x800045b0
       54545000	      5453	00000000	00000013	addi	x0,x0,0	  x0:0x00000000
       54555000	      5454	800045c8	00000013	addi	x0,x0,0	  x0:0x00000000
       54565000	      5455	800045cc	ff5ff36f	jal	x6,800045cc	  x6=0x800045cc
       54575000	      5456	00000000	00000013	addi	x0,x0,0	  x0:0x00000000
       54585000	      5457	800045bc	00000013	addi	x0,x0,0	  x0:0x00000000
       54595000	      5458	800045c0	010000ef	jal	x1,800045c0	  x1=0x800045c0
       54605000	      5459	00000000	00000013	addi	x0,x0,0	  x0:0x00000000
       54615000	      5460	800045cc	00000013	addi	x0,x0,0	  x0:0x00000000
       54625000	      5461	800045d0	004000ef	jal	x1,800045d0	  x1=0x800045d0
       54635000	      5462	00000000	00000013	addi	x0,x0,0	  x0:0x00000000
       54645000	      5463	800045d0	00000013	addi	x0,x0,0	  x0:0x00000000
       54655000	      5464	800045d4	fe9ff66f	jal	x12,800045d4	 x12=0x800045d4
       54665000	      5465	00000000	00000013	addi	x0,x0,0	  x0:0x00000000
       54675000	      5466	800045b8	00000013	addi	x0,x0,0	  x0:0x00000000
       54685000	      5467	800045bc	ffdff0ef	jal	x1,800045bc	  x1=0x800045bc
       54695000	      5468	00000000	00000013	addi	x0,x0,0	  x0:0x00000000
       54705000	      5469	800045b4	00000013	addi	x0,x0,0	  x0:0x00000000
       54715000	      5470	800045b8	fedff66f	jal	x12,800045b8	 x12=0x800045b8
       54725000	      5471	00000000	00000013	addi	x0,x0,0	  x0:0x00000000
       54735000	      5472	800045a0	00000013	addi	x0,x0,0	  x0:0x00000000
       54745000	      5473	800045a4	ff9ff0ef	jal	x1,800045a4	  x1=0x800045a4
       54755000	      5474	00000000	00000013	addi	x0,x0,0	  x0:0x00000000
       54765000	      5475	80004598	00000013	addi	x0,x0,0	  x0:0x00000000
       54775000	      5476	8000459c	0180026f	jal	x4,8000459c	  x4=0x8000459c
       54785000	      5477	00000000	00000013	addi	x0,x0,0	  x0:0x00000000
       54795000	      5478	800045b0	00000013	addi	x0,x0,0	  x0:0x00000000
       54805000	      5479	800045b4	010000ef	jal	x1,800045b4	  x1=0x800045b4
       54815000	      5480	00000000	00000013	addi	x0,x0,0	  x0:0x00000000
       54825000	      5481	800045c0	00000013	addi	x0,x0,0	  x0:0x00000000
       54835000	      5482	800045c4	fe9ff36f	jal	x6,800045c4	  x6=0x800045c4
       54845000	      5483	00000000	00000013	addi	x0,x0,0	  x0:0x00000000
       54855000	      5484	800045a8	00000013	addi	x0,x0,0	  x0:0x00000000
       54865000	      5485	800045ac	ff5ff0ef	jal	x1,800045ac	  x1=0x800045ac
       54875000	      5486	00000000	00000013	addi	x0,x0,0	  x0:0x00000000
       54885000	      5487	8000459c	00000013	addi	x0,x0,0	  x0:0x00000000
       54895000	      5488	800045a0	038000ef	jal	x1,800045a0	  x1=0x800045a0
       54905000	      5489	00000000	00000013	addi	x0,x0,0	  x0:0x00000000
       54915000	      5490	800045d4	00000013	addi	x0,x0,0	  x0:0x00000000
       54925000	      5491	800045d8	01976233	or	x4,x14,x25	 x14:0x800044d4 x25:0x00000000  x4=0x800044d4
       54935000	      5492	800045dc	009b36b3	sltu	x13,x22,x9	 x22:0x93800000  x9:0x00000000 x13=0x00000000
       54945000	      5493	800045e0	0e7c7b13	andi	x22,x24,231	 x24:0x00000000 x22=0x00000000
       54955000	      5494	800045e4	40dbe913	ori	x18,x23,1037	 x23:0xd7f1b49c x18=0xd7f1b49d
       54965000	      5495	800045e8	00d06e33	or	x28,x0,x13	  x0:0x00000000 x13:0x00000000 x28=0x00000000
       54975000	      5496	800045ec	01348b33	add	x22,x9,x19	  x9:0x00000000 x19:0x00001000 x22=0x00001000
       54985000	      5497	800045f0	04101b37	lui	x22,0x4101	 x22=0x04101000
       54995000	      5498	800045f4	4167d0b3	sra	x1,x15,x22	 x15:0x2ee3e000 x22:0x04101000  x1=0x2ee3e000
       55005000	      5499	800045f8	00351633	sll	x12,x10,x3	 x10:0x80009855  x3:0x800044d0 x12=0x98550000
       55015000	      5500	800045fc	0e3e2f17	auipc	x30,0xe3e2	 x30=0x8e3e65f8
       55025000	      5501	80004600	01c94133	xor	x2,x18,x28	 x18:0xd7f1b49d x28:0x00000000  x2=0xd7f1b49d
       55035000	      5502	80004604	011c1793	slli	x15,x24,0x11	 x24:0x00000000 x15=0x00000000
       55045000	      5503	80004608	006464b3	or	x9,x8,x6	  x8:0x80009fc4  x6:0x800045c4  x9=0x8000dfc4
       55055000	      5504	8000460c	41610d33	sub	x26,x2,x22	  x2:0xd7f1b49d x22:0x04101000 x26=0xd3e1a49d
       55065000	      5505	80004610	86334213	xori	x4,x6,-1949	  x6:0x800045c4  x4=0x7fffbda7
       55075000	      5506	80004614	6a450713	addi	x14,x10,1700	 x10:0x80009855 x14=0x80009ef9
       55085000	      5507	80004618	8ae96493	ori	x9,x18,-1874	 x18:0xd7f1b49d  x9=0xfffffcbf
       55095000	      5508	8000461c	009ccc33	xor	x24,x25,x9	 x25:0x00000000  x9:0xfffffcbf x24=0xfffffcbf
       55105000	      5509	80004620	002fdf93	srli	x31,x31,0x2	 x31:0x800054d4 x31=0x20001535
       55115000	      5510	80004624	40750d33	sub	x26,x10,x7	 x10:0x80009855  x7:0x80009fc4 x26=0xfffff891
       55125000	      5511	80004628	000bdb13	srli	x22,x23,0x0	 x23:0xd7f1b49c x22=0xd7f1b49c
       55135000	      5512	8000462c	c040f193	andi	x3,x1,-1020	  x1:0x2ee3e000  x3=0x2ee3e000
       55145000	      5513	80004630	0192d093	srli	x1,x5,0x19	  x5:0x800045c8  x1=0x00000040
       55155000	      5514	80004634	0422f663	bgeu	x5,x2,80004680	  x5:0x800045c8  x2:0xd7f1b49d
       55165000	      5515	80004638	0184e663	bltu	x9,x24,80004644	  x9:0xfffffcbf x24:0xfffffcbf
       55175000	      5516	8000463c	0097da13	srli	x20,x15,0x9	 x15:0x00000000 x20=0x00000000
       55185000	      5517	80004640	00000013	addi	x0,x0,0	  x0:0x00000000
       55195000	      5518	80004644	05bbe863	bltu	x23,x27,80004694	 x23:0xd7f1b49c x27:0x80009f44
       55205000	      5519	80004648	00912e33	slt	x28,x2,x9	  x2:0xd7f1b49d  x9:0xfffffcbf x28=0x00000001
       55215000	      5520	8000464c	4171de33	sra	x28,x3,x23	  x3:0x2ee3e000 x23:0xd7f1b49c x28=0x00000002
       55225000	      5521	80004650	ebe45a17	auipc	x20,0xebe45	 x20=0x6be4964c
       55235000	      5522	80004654	e9c9e013	ori	x0,x19,-356	 x19:0x00001000
       55245000	      5523	80004658	00000013	addi	x0,x0,0	  x0:0x00000000
       55255000	      5524	8000465c	00ab5663	bge	x22,x10,80004668	 x22:0xd7f1b49c x10:0x80009855
       55265000	      5525	00000000	00000013	addi	x0,x0,0	  x0:0x00000000
       55275000	      5526	80004664	00000013	addi	x0,x0,0	  x0:0x00000000
       55285000	      5527	80004668	00000013	addi	x0,x0,0	  x0:0x00000000
       55295000	      5528	8000466c	01b91813	slli	x16,x18,0x1b	 x18:0xd7f1b49d x16=0xe8000000
       55305000	      5529	80004670	017c1e63	bne	x24,x23,8000468c	 x24:0xfffffcbf x23:0xd7f1b49c
       55315000	      5530	00000000	00000013	addi	x0,x0,0	  x0:0x00000000
       55325000	      5531	80004688	00000013	addi	x0,x0,0	  x0:0x00000000
       55335000	      5532	8000468c	ff10bd13	sltiu	x26,x1,-15	  x1:0x00000040 x26=0x00000001
       55345000	      5533	80004690	016cd813	srli	x16,x25,0x16	 x25:0x00000000 x16=0x00000000
       55355000	      5534	80004694	057ac463	blt	x21,x23,800046dc	 x21:0x00000000 x23:0xd7f1b49c
       55365000	      5535	80004698	402c8fb3	sub	x31,x25,x2	 x25:0x00000000  x2:0xd7f1b49d x31=0x280e4b63
       55375000	      5536	8000469c	01e42633	slt	x12,x8,x30	  x8:0x80009fc4 x30:0x8e3e65f8 x12=0x00000001
       55385000	      5537	800046a0	3b3ebc93	sltiu	x25,x29,947	 x29:0x00000001 x25=0x00000001
       55395000	      5538	800046a4	412ed213	srai	x4,x29,0x12	 x29:0x00000001  x4=0x00000000
       55405000	      5539	800046a8	05900463	beq	x0,x25,800046f0	  x0:0x00000000 x25:0x00000001
       55415000	      5540	800046ac	58040e13	addi	x28,x8,1408	  x8:0x80009fc4 x28=0x8000a544
       55425000	      5541	800046b0	40f85533	sra	x10,x16,x15	 x16:0x00000000 x15:0x00000000 x10=0x00000000
       55435000	      5542	800046b4	ee076e13	ori	x28,x14,-288	 x14:0x80009ef9 x28=0xfffffef9
       55445000	      5543	800046b8	00d15793	srli	x15,x2,0xd	  x2:0xd7f1b49d x15=0x0006bf8d
       55455000	      5544	800046bc	00393233	sltu	x4,x18,x3	 x18:0xd7f1b49d  x3:0x2ee3e000  x4=0x00000000
       55465000	      5545	800046c0	ca262813	slti	x16,x12,-862	 x12:0x00000001 x16=0x00000000
       55475000	      5546	800046c4	01eefe33	and	x28,x29,x30	 x29:0x00000001 x30:0x8e3e65f8 x28=0x00000000
       55485000	      5547	800046c8	04061463	bne	x12,x0,80004710	 x12:0x00000001  x0:0x00000000
       55495000	      5548	00000000	00000013	addi	x0,x0,0	  x0:0x00000000
       55505000	      5549	8000470c	00000013	addi	x0,x0,0	  x0:0x00000000
       55515000	      5550	80004710	99567b93	andi	x23,x12,-1643	 x12:0x00000001 x23=0x00000001
       55525000	      5551	80004714	019646b3	xor	x13,x12,x25	 x12:0x00000001 x25:0x00000001 x13=0x00000000
       55535000	      5552	80004718	00ab6bb3	or	x23,x22,x10	 x22:0xd7f1b49c x10:0x00000000 x23=0xd7f1b49c
       55545000	      5553	8000471c	00255c63	bge	x10,x2,80004734	 x10:0x00000000  x2:0xd7f1b49d
       55555000	      5554	00000000	00000013	addi	x0,x0,0	  x0:0x00000000
       55565000	      5555	80004730	00000013	addi	x0,x0,0	  x0:0x00000000
       55575000	      5556	80004734	2ac42093	slti	x1,x8,684	  x8:0x80009fc4  x1=0x00000001
       55585000	      5557	80004738	0583f913	andi	x18,x7,88	  x7:0x80009fc4 x18=0x00000040
       55595000	      5558	8000473c	780a7713	andi	x14,x20,1920	 x20:0x6be4964c x14=0x00000600
       55605000	      5559	80004740	01e4d293	srli	x5,x9,0x1e	  x9:0xfffffcbf  x5=0x00000003
       55615000	      5560	80004744	00728b33	add	x22,x5,x7	  x5:0x00000003  x7:0x80009fc4 x22=0x80009fc7
       55625000	      5561	80004748	00000013	addi	x0,x0,0	  x0:0x00000000
       55635000	      5562	8000474c	0111ad33	slt	x26,x3,x17	  x3:0x2ee3e000 x17:0x0000000c x26=0x00000000
       55645000	      5563	80004750	01c4d193	srli	x3,x9,0x1c	  x9:0xfffffcbf  x3=0x0000000f
       55655000	      5564	80004754	004b0633	add	x12,x22,x4	 x22:0x80009fc7  x4:0x00000000 x12=0x80009fc7
       55665000	      5565	80004758	484b2e37	lui	x28,0x484b2	 x28=0x484b2000
       55675000	      5566	8000475c	004da083	lw	x1,4(x27)	 x27:0x80009f44  x1=0x80000148 PA:0x80009f48
       55685000	      5567	80004760	00fede93	srli	x29,x29,0xf	 x29:0x00000001 x29=0x00000000
       55695000	      5568	80004764	0009f5b3	and	x11,x19,x0	 x19:0x00001000  x0:0x00000000 x11=0x00000000
       55705000	      5569	80004768	009c21b3	slt	x3,x24,x9	 x24:0xfffffcbf  x9:0xfffffcbf  x3=0x00000000
       55715000	      5570	8000476c	040d8d93	addi	x27,x27,64	 x27:0x80009f44 x27=0x80009f84
       55725000	      5571	80004770	0580eb13	ori	x22,x1,88	  x1:0x80000148 x22=0x80000158
       55735000	      5572	80004774	00008093	addi	x1,x1,0	  x1:0x80000148  x1=0x80000148
       55745000	      5573	80004778	000080e7	jalr	x1,x1,0	  x1:0x80000148  x1=0x80004778
       55755000	      5574	00000000	00000013	addi	x0,x0,0	  x0:0x00000000
       55765000	      5575	80000148	00000013	addi	x0,x0,0	  x0:0x00000000
       55775000	      5576	8000014c	32936093	ori	x1,x6,809	  x6:0x800045c4  x1=0x800047ed
       55785000	      5577	80000150	008843b3	xor	x7,x16,x8	 x16:0x00000000  x8:0x80009fc4  x7=0x80009fc4
       55795000	      5578	80000154	02a0e263	bltu	x1,x10,80000178	  x1:0x800047ed x10:0x00000000
       55805000	      5579	80000158	010e69b3	or	x19,x28,x16	 x28:0x484b2000 x16:0x00000000 x19=0x484b2000
       55815000	      5580	8000015c	0050ebb3	or	x23,x1,x5	  x1:0x800047ed  x5:0x00000003 x23=0x800047ef
       55825000	      5581	80000160	d9354e93	xori	x29,x10,-621	 x10:0x00000000 x29=0xfffffd93
       55835000	      5582	80000164	00b956b3	srl	x13,x18,x11	 x18:0x00000040 x11:0x00000000 x13=0x00000040
       55845000	      5583	80000168	0073fc33	and	x24,x7,x7	  x7:0x80009fc4  x7:0x80009fc4 x24=0x80009fc4
       55855000	      5584	8000016c	41430f33	sub	x30,x6,x20	  x6:0x800045c4 x20:0x6be4964c x30=0x141baf78
       55865000	      5585	80000170	41f17513	andi	x10,x2,1055	  x2:0xd7f1b49d x10=0x0000041d
       55875000	      5586	80000174	419b0633	sub	x12,x22,x25	 x22:0x80000158 x25:0x00000001 x12=0x80000157
       55885000	      5587	80000178	6dcc8993	addi	x19,x25,1756	 x25:0x00000001 x19=0x000006dd
       55895000	      5588	8000017c	99f9f793	andi	x15,x19,-1633	 x19:0x000006dd x15=0x0000009d
       55905000	      5589	80000180	004cc9b3	xor	x19,x25,x4	 x25:0x00000001  x4:0x00000000 x19=0x00000001
       55915000	      5590	80000184	06857c63	bgeu	x10,x8,800001fc	 x10:0x0000041d  x8:0x80009fc4
       55925000	      5591	80000188	016b1693	slli	x13,x22,0x16	 x22:0x80000158 x13=0x56000000
       55935000	      5592	8000018c	00e881b3	add	x3,x17,x14	 x17:0x0000000c x14:0x00000600  x3=0x0000060c
       55945000	      5593	80000190	019453b3	srl	x7,x8,x25	  x8:0x80009fc4 x25:0x00000001  x7=0x40004fe2
       55955000	      5594	80000194	009904b3	add	x9,x18,x9	 x18:0x00000040  x9:0xfffffcbf  x9=0xfffffcff
       55965000	      5595	80000198	05ab6263	bltu	x22,x26,800001dc	 x22:0x80000158 x26:0x00000000
       55975000	      5596	8000019c	00717833	and	x16,x2,x7	  x2:0xd7f1b49d  x7:0x40004fe2 x16=0x40000480
       55985000	      5597	800001a0	00f0e533	or	x10,x1,x15	  x1:0x800047ed x15:0x0000009d x10=0x800047fd
       55995000	      5598	800001a4	46ee0693	addi	x13,x28,1134	 x28:0x484b2000 x13=0x484b246e
       56005000	      5599	800001a8	00004997	auipc	x19,0x4	 x19=0x800041a4
       56015000	      5600	800001ac	3b898993	addi	x19,x19,952	 x19:0x800041a4 x19=0x8000455c
       56025000	      5601	800001b0	008d0633	add	x12,x26,x8	 x26:0x00000000  x8:0x80009fc4 x12=0x80009fc4
       56035000	      5602	800001b4	d5d98993	addi	x19,x19,-675	 x19:0x8000455c x19=0x800042b9
       56045000	      5603	800001b8	01c98f33	add	x30,x19,x28	 x19:0x800042b9 x28:0x484b2000 x30=0xc84b62b9
       56055000	      5604	800001bc	01c223b3	slt	x7,x4,x28	  x4:0x00000000 x28:0x484b2000  x7=0x00000001
       56065000	      5605	800001c0	01778833	add	x16,x15,x23	 x15:0x0000009d x23:0x800047ef x16=0x8000488c
       56075000	      5606	800001c4	421fdcb7	lui	x25,0x421fd	 x25=0x421fd000
       56085000	      5607	800001c8	01e70ab3	add	x21,x14,x30	 x14:0x00000600 x30:0xc84b62b9 x21=0xc84b68b9
       56095000	      5608	800001cc	0118f733	and	x14,x17,x17	 x17:0x0000000c x17:0x0000000c x14=0x0000000c
       56105000	      5609	800001d0	00b493b3	sll	x7,x9,x11	  x9:0xfffffcff x11:0x00000000  x7=0xfffffcff
       56115000	      5610	800001d4	2a4980e7	jalr	x1,x19,676	 x19:0x800042b9  x1=0x800001d4
       56125000	      5611	00000000	00000013	addi	x0,x0,0	  x0:0x00000000
       56135000	      5612	8000455c	00000013	addi	x0,x0,0	  x0:0x00000000
       56145000	      5613	80004560	fc0d8d93	addi	x27,x27,-64	 x27:0x80009f84 x27=0x80009f44
       56155000	      5614	80004564	915e8013	addi	x0,x29,-1771	 x29:0xfffffd93
       56165000	      5615	80004568	012613b3	sll	x7,x12,x18	 x12:0x80009fc4 x18:0x00000040  x7=0x80009fc4
       56175000	      5616	8000456c	001da223	sw	x1,4(x27)	 x27:0x80009f44  x1:0x800001d4 PA:0x80009f48
       56185000	      5617	80004570	0109d193	srli	x3,x19,0x10	 x19:0x800042b9  x3=0x00008000
       56195000	      5618	80004574	407b5b93	srai	x23,x22,0x7	 x22:0x80000158 x23=0xff000002
       56205000	      5619	80004578	fffff997	auipc	x19,0xfffff	 x19=0x80003574
       56215000	      5620	8000457c	3b098993	addi	x19,x19,944	 x19:0x80003574 x19=0x80003924
       56225000	      5621	80004580	9bce4b13	xori	x22,x28,-1604	 x28:0x484b2000 x22=0xb7b4d9bc
       56235000	      5622	80004584	e0698993	addi	x19,x19,-506	 x19:0x80003924 x19=0x8000372a
       56245000	      5623	80004588	007fa5b3	slt	x11,x31,x7	 x31:0x280e4b63  x7:0x80009fc4 x11=0x00000000
       56255000	      5624	8000458c	8f8e9297	auipc	x5,0x8f8e9	  x5=0x0f8ed588
       56265000	      5625	80004590	018b1213	slli	x4,x22,0x18	 x22:0xb7b4d9bc  x4=0xbc000000
       56275000	      5626	80004594	1fb980e7	jalr	x1,x19,507	 x19:0x8000372a  x1=0x80004594
       56285000	      5627	00000000	00000013	addi	x0,x0,0	  x0:0x00000000
       56295000	      5628	80003924	00000013	addi	x0,x0,0	  x0:0x00000000
       56305000	      5629	80003928	00cd5193	srli	x3,x26,0xc	 x26:0x00000000  x3=0x00000000
       56315000	      5630	8000392c	017e69b3	or	x19,x28,x23	 x28:0x484b2000 x23:0xff000002 x19=0xff4b2002
       56325000	      5631	80003930	65896693	ori	x13,x18,1624	 x18:0x00000040 x13=0x00000658
       56335000	      5632	80003934	4005d493	srai	x9,x11,0x0	 x11:0x00000000  x9=0x00000000
       56345000	      5633	80003938	01657463	bgeu	x10,x22,80003940	 x10:0x800047fd x22:0xb7b4d9bc
       56355000	      5634	8000393c	87724b93	xori	x23,x4,-1929	  x4:0xbc000000 x23=0x43fff877
       56365000	      5635	80003940	fd0d8d93	addi	x27,x27,-48	 x27:0x80009f44 x27=0x80009f14
       56375000	      5636	80003944	01145a93	srli	x21,x8,0x11	  x8:0x80009fc4 x21=0x00004000
       56385000	      5637	80003948	00000013	addi	x0,x0,0	  x0:0x00000000
       56395000	      5638	8000394c	00000013	addi	x0,x0,0	  x0:0x00000000
       56405000	      5639	80003950	0190e3b3	or	x7,x1,x25	  x1:0x80004594 x25:0x421fd000  x7=0xc21fd594
       56415000	      5640	80003954	001da223	sw	x1,4(x27)	 x27:0x80009f14  x1:0x80004594 PA:0x80009f18
       56425000	      5641	80003958	00a64733	xor	x14,x12,x10	 x12:0x80009fc4 x10:0x800047fd x14=0x0000d839
       56435000	      5642	8000395c	9010ef17	auipc	x30,0x9010e	 x30=0x10111958
       56445000	      5643	80003960	cb4fb7b7	lui	x15,0xcb4fb	 x15=0xcb4fb000
       56455000	      5644	80003964	ffffe597	auipc	x11,0xffffe	 x11=0x80001960
       56465000	      5645	80003968	dd458593	addi	x11,x11,-556	 x11:0x80001960 x11=0x80001734
       56475000	      5646	8000396c	dbd8c493	xori	x9,x17,-579	 x17:0x0000000c  x9=0xfffffdb1
       56485000	      5647	80003970	014cf733	and	x14,x25,x20	 x25:0x421fd000 x20:0x6be4964c x14=0x42049000
       56495000	      5648	80003974	0041c633	xor	x12,x3,x4	  x3:0x00000000  x4:0xbc000000 x12=0xbc000000
       56505000	      5649	80003978	3c858593	addi	x11,x11,968	 x11:0x80001734 x11=0x80001afc
       56515000	      5650	8000397c	016f9463	bne	x31,x22,80003984	 x31:0x280e4b63 x22:0xb7b4d9bc
       56525000	      5651	00000000	00000013	addi	x0,x0,0	  x0:0x00000000
       56535000	      5652	80003980	00000013	addi	x0,x0,0	  x0:0x00000000
       56545000	      5653	80003984	c38580e7	jalr	x1,x11,-968	 x11:0x80001afc  x1=0x80003984
       56555000	      5654	00000000	00000013	addi	x0,x0,0	  x0:0x00000000
       56565000	      5655	80001734	00000013	addi	x0,x0,0	  x0:0x00000000
       56575000	      5656	80001738	01ff5663	bge	x30,x31,80001744	 x30:0x10111958 x31:0x280e4b63
       56585000	      5657	8000173c	019d8ab3	add	x21,x27,x25	 x27:0x80009f14 x25:0x421fd000 x21=0xc2206f14
       56595000	      5658	80001740	98394a17	auipc	x20,0x98394	 x20=0x1839573c
       56605000	      5659	80001744	ff4d8d93	addi	x27,x27,-12	 x27:0x80009f14 x27=0x80009f08
       56615000	      5660	80001748	001da223	sw	x1,4(x27)	 x27:0x80009f08  x1:0x80003984 PA:0x80009f0c
       56625000	      5661	8000174c	00561cb3	sll	x25,x12,x5	 x12:0xbc000000  x5:0x0f8ed588 x25=0x00000000
       56635000	      5662	80001750	00c812b3	sll	x5,x16,x12	 x16:0x8000488c x12:0xbc000000  x5=0x8000488c
       56645000	      5663	80001754	008000ef	jal	x1,80001754	  x1=0x80001754
       56655000	      5664	00000000	00000013	addi	x0,x0,0	  x0:0x00000000
       56665000	      5665	80001758	00000013	addi	x0,x0,0	  x0:0x00000000
       56675000	      5666	8000175c	030000ef	jal	x1,8000175c	  x1=0x8000175c
       56685000	      5667	00000000	00000013	addi	x0,x0,0	  x0:0x00000000
       56695000	      5668	80001788	00000013	addi	x0,x0,0	  x0:0x00000000
       56705000	      5669	8000178c	0300036f	jal	x6,8000178c	  x6=0x8000178c
       56715000	      5670	00000000	00000013	addi	x0,x0,0	  x0:0x00000000
       56725000	      5671	800017b8	00000013	addi	x0,x0,0	  x0:0x00000000
       56735000	      5672	800017bc	fd9ff0ef	jal	x1,800017bc	  x1=0x800017bc
       56745000	      5673	00000000	00000013	addi	x0,x0,0	  x0:0x00000000
       56755000	      5674	80001790	00000013	addi	x0,x0,0	  x0:0x00000000
       56765000	      5675	80001794	ff5ff36f	jal	x6,80001794	  x6=0x80001794
       56775000	      5676	00000000	00000013	addi	x0,x0,0	  x0:0x00000000
       56785000	      5677	80001784	00000013	addi	x0,x0,0	  x0:0x00000000
       56795000	      5678	80001788	010001ef	jal	x3,80001788	  x3=0x80001788
       56805000	      5679	00000000	00000013	addi	x0,x0,0	  x0:0x00000000
       56815000	      5680	80001794	00000013	addi	x0,x0,0	  x0:0x00000000
       56825000	      5681	80001798	00400e6f	jal	x28,80001798	 x28=0x80001798
       56835000	      5682	00000000	00000013	addi	x0,x0,0	  x0:0x00000000
       56845000	      5683	80001798	00000013	addi	x0,x0,0	  x0:0x00000000
       56855000	      5684	8000179c	fbdff26f	jal	x4,8000179c	  x4=0x8000179c
       56865000	      5685	00000000	00000013	addi	x0,x0,0	  x0:0x00000000
       56875000	      5686	80001754	00000013	addi	x0,x0,0	  x0:0x00000000
       56885000	      5687	80001758	02c0036f	jal	x6,80001758	  x6=0x80001758
       56895000	      5688	00000000	00000013	addi	x0,x0,0	  x0:0x00000000
       56905000	      5689	80001780	00000013	addi	x0,x0,0	  x0:0x00000000
       56915000	      5690	80001784	ff1ff0ef	jal	x1,80001784	  x1=0x80001784
       56925000	      5691	00000000	00000013	addi	x0,x0,0	  x0:0x00000000
       56935000	      5692	80001770	00000013	addi	x0,x0,0	  x0:0x00000000
       56945000	      5693	80001774	04000bef	jal	x23,80001774	 x23=0x80001774
       56955000	      5694	00000000	00000013	addi	x0,x0,0	  x0:0x00000000
       56965000	      5695	800017b0	00000013	addi	x0,x0,0	  x0:0x00000000
       56975000	      5696	800017b4	fc5fffef	jal	x31,800017b4	 x31=0x800017b4
       56985000	      5697	00000000	00000013	addi	x0,x0,0	  x0:0x00000000
       56995000	      5698	80001774	00000013	addi	x0,x0,0	  x0:0x00000000
       57005000	      5699	80001778	fedff0ef	jal	x1,80001778	  x1=0x80001778
       57015000	      5700	00000000	00000013	addi	x0,x0,0	  x0:0x00000000
       57025000	      5701	80001760	00000013	addi	x0,x0,0	  x0:0x00000000
       57035000	      5702	80001764	00c006ef	jal	x13,80001764	 x13=0x80001764
       57045000	      5703	00000000	00000013	addi	x0,x0,0	  x0:0x00000000
       57055000	      5704	8000176c	00000013	addi	x0,x0,0	  x0:0x00000000
       57065000	      5705	80001770	030000ef	jal	x1,80001770	  x1=0x80001770
       57075000	      5706	00000000	00000013	addi	x0,x0,0	  x0:0x00000000
       57085000	      5707	8000179c	00000013	addi	x0,x0,0	  x0:0x00000000
       57095000	      5708	800017a0	fc1ff0ef	jal	x1,800017a0	  x1=0x800017a0
       57105000	      5709	00000000	00000013	addi	x0,x0,0	  x0:0x00000000
       57115000	      5710	8000175c	00000013	addi	x0,x0,0	  x0:0x00000000
       57125000	      5711	80001760	04c000ef	jal	x1,80001760	  x1=0x80001760
       57135000	      5712	00000000	00000013	addi	x0,x0,0	  x0:0x00000000
       57145000	      5713	800017a8	00000013	addi	x0,x0,0	  x0:0x00000000
       57155000	      5714	800017ac	fbdff0ef	jal	x1,800017ac	  x1=0x800017ac
       57165000	      5715	00000000	00000013	addi	x0,x0,0	  x0:0x00000000
       57175000	      5716	80001764	00000013	addi	x0,x0,0	  x0:0x00000000
       57185000	      5717	80001768	0140036f	jal	x6,80001768	  x6=0x80001768
       57195000	      5718	00000000	00000013	addi	x0,x0,0	  x0:0x00000000
       57205000	      5719	80001778	00000013	addi	x0,x0,0	  x0:0x00000000
       57215000	      5720	8000177c	004000ef	jal	x1,8000177c	  x1=0x8000177c
       57225000	      5721	00000000	00000013	addi	x0,x0,0	  x0:0x00000000
       57235000	      5722	8000177c	00000013	addi	x0,x0,0	  x0:0x00000000
       57245000	      5723	80001780	fedff36f	jal	x6,80001780	  x6=0x80001780
       57255000	      5724	00000000	00000013	addi	x0,x0,0	  x0:0x00000000
       57265000	      5725	80001768	00000013	addi	x0,x0,0	  x0:0x00000000
       57275000	      5726	8000176c	04c000ef	jal	x1,8000176c	  x1=0x8000176c
       57285000	      5727	00000000	00000013	addi	x0,x0,0	  x0:0x00000000
       57295000	      5728	800017b4	00000013	addi	x0,x0,0	  x0:0x00000000
       57305000	      5729	800017b8	fedffd6f	jal	x26,800017b8	 x26=0x800017b8
       57315000	      5730	00000000	00000013	addi	x0,x0,0	  x0:0x00000000
       57325000	      5731	800017a0	00000013	addi	x0,x0,0	  x0:0x00000000
       57335000	      5732	800017a4	004000ef	jal	x1,800017a4	  x1=0x800017a4
       57345000	      5733	00000000	00000013	addi	x0,x0,0	  x0:0x00000000
       57355000	      5734	800017a4	00000013	addi	x0,x0,0	  x0:0x00000000
       57365000	      5735	800017a8	fe9ff0ef	jal	x1,800017a8	  x1=0x800017a8
       57375000	      5736	00000000	00000013	addi	x0,x0,0	  x0:0x00000000
       57385000	      5737	8000178c	00000013	addi	x0,x0,0	  x0:0x00000000
       57395000	      5738	80001790	020003ef	jal	x7,80001790	  x7=0x80001790
       57405000	      5739	00000000	00000013	addi	x0,x0,0	  x0:0x00000000
       57415000	      5740	800017ac	00000013	addi	x0,x0,0	  x0:0x00000000
       57425000	      5741	800017b0	0100036f	jal	x6,800017b0	  x6=0x800017b0
       57435000	      5742	00000000	00000013	addi	x0,x0,0	  x0:0x00000000
       57445000	      5743	800017bc	00000013	addi	x0,x0,0	  x0:0x00000000
       57455000	      5744	800017c0	00ba5f13	srli	x30,x20,0xb	 x20:0x1839573c x30=0x0003072a
       57465000	      5745	800017c4	048000ef	jal	x1,800017c4	  x1=0x800017c4
       57475000	      5746	00000000	00000013	addi	x0,x0,0	  x0:0x00000000
       57485000	      5747	80001808	00000013	addi	x0,x0,0	  x0:0x00000000
       57495000	      5748	8000180c	008000ef	jal	x1,8000180c	  x1=0x8000180c
       57505000	      5749	00000000	00000013	addi	x0,x0,0	  x0:0x00000000
       57515000	      5750	80001810	00000013	addi	x0,x0,0	  x0:0x00000000
       57525000	      5751	80001814	fe5ff36f	jal	x6,80001814	  x6=0x80001814
       57535000	      5752	00000000	00000013	addi	x0,x0,0	  x0:0x00000000
       57545000	      5753	800017f4	00000013	addi	x0,x0,0	  x0:0x00000000
       57555000	      5754	800017f8	00c000ef	jal	x1,800017f8	  x1=0x800017f8
       57565000	      5755	00000000	00000013	addi	x0,x0,0	  x0:0x00000000
       57575000	      5756	80001800	00000013	addi	x0,x0,0	  x0:0x00000000
       57585000	      5757	80001804	fc9ff36f	jal	x6,80001804	  x6=0x80001804
       57595000	      5758	00000000	00000013	addi	x0,x0,0	  x0:0x00000000
       57605000	      5759	800017c8	00000013	addi	x0,x0,0	  x0:0x00000000
       57615000	      5760	800017cc	028000ef	jal	x1,800017cc	  x1=0x800017cc
       57625000	      5761	00000000	00000013	addi	x0,x0,0	  x0:0x00000000
       57635000	      5762	800017f0	00000013	addi	x0,x0,0	  x0:0x00000000
       57645000	      5763	800017f4	ff5ff0ef	jal	x1,800017f4	  x1=0x800017f4
       57655000	      5764	00000000	00000013	addi	x0,x0,0	  x0:0x00000000
       57665000	      5765	800017e4	00000013	addi	x0,x0,0	  x0:0x00000000
       57675000	      5766	800017e8	020002ef	jal	x5,800017e8	  x5=0x800017e8
       57685000	      5767	00000000	00000013	addi	x0,x0,0	  x0:0x00000000
       57695000	      5768	80001804	00000013	addi	x0,x0,0	  x0:0x00000000
       57705000	      5769	80001808	fe9fffef	jal	x31,80001808	 x31=0x80001808
       57715000	      5770	00000000	00000013	addi	x0,x0,0	  x0:0x00000000
       57725000	      5771	800017ec	00000013	addi	x0,x0,0	  x0:0x00000000
       57735000	      5772	800017f0	fd9ff36f	jal	x6,800017f0	  x6=0x800017f0
       57745000	      5773	00000000	00000013	addi	x0,x0,0	  x0:0x00000000
       57755000	      5774	800017c4	00000013	addi	x0,x0,0	  x0:0x00000000
       57765000	      5775	800017c8	048000ef	jal	x1,800017c8	  x1=0x800017c8
       57775000	      5776	00000000	00000013	addi	x0,x0,0	  x0:0x00000000
       57785000	      5777	8000180c	00000013	addi	x0,x0,0	  x0:0x00000000
       57795000	      5778	80001810	fedff0ef	jal	x1,80001810	  x1=0x80001810
       57805000	      5779	00000000	00000013	addi	x0,x0,0	  x0:0x00000000
       57815000	      5780	800017f8	00000013	addi	x0,x0,0	  x0:0x00000000
       57825000	      5781	800017fc	fe9ff96f	jal	x18,800017fc	 x18=0x800017fc
       57835000	      5782	00000000	00000013	addi	x0,x0,0	  x0:0x00000000
       57845000	      5783	800017e0	00000013	addi	x0,x0,0	  x0:0x00000000
       57855000	      5784	800017e4	ff9ff0ef	jal	x1,800017e4	  x1=0x800017e4
       57865000	      5785	00000000	00000013	addi	x0,x0,0	  x0:0x00000000
       57875000	      5786	800017d8	00000013	addi	x0,x0,0	  x0:0x00000000
       57885000	      5787	800017dc	004000ef	jal	x1,800017dc	  x1=0x800017dc
       57895000	      5788	00000000	00000013	addi	x0,x0,0	  x0:0x00000000
       57905000	      5789	800017dc	00000013	addi	x0,x0,0	  x0:0x00000000
       57915000	      5790	800017e0	ff9ff36f	jal	x6,800017e0	  x6=0x800017e0
       57925000	      5791	00000000	00000013	addi	x0,x0,0	  x0:0x00000000
       57935000	      5792	800017d4	00000013	addi	x0,x0,0	  x0:0x00000000
       57945000	      5793	800017d8	0440036f	jal	x6,800017d8	  x6=0x800017d8
       57955000	      5794	00000000	00000013	addi	x0,x0,0	  x0:0x00000000
       57965000	      5795	80001818	00000013	addi	x0,x0,0	  x0:0x00000000
       57975000	      5796	8000181c	fb5ff86f	jal	x16,8000181c	 x16=0x8000181c
       57985000	      5797	00000000	00000013	addi	x0,x0,0	  x0:0x00000000
       57995000	      5798	800017cc	00000013	addi	x0,x0,0	  x0:0x00000000
       58005000	      5799	800017d0	004000ef	jal	x1,800017d0	  x1=0x800017d0
       58015000	      5800	00000000	00000013	addi	x0,x0,0	  x0:0x00000000
       58025000	      5801	800017d0	00000013	addi	x0,x0,0	  x0:0x00000000
       58035000	      5802	800017d4	044004ef	jal	x9,800017d4	  x9=0x800017d4
       58045000	      5803	00000000	00000013	addi	x0,x0,0	  x0:0x00000000
       58055000	      5804	80001814	00000013	addi	x0,x0,0	  x0:0x00000000
       58065000	      5805	80001818	fe9ff16f	jal	x2,80001818	  x2=0x80001818
       58075000	      5806	00000000	00000013	addi	x0,x0,0	  x0:0x00000000
       58085000	      5807	800017fc	00000013	addi	x0,x0,0	  x0:0x00000000
       58095000	      5808	80001800	fedff0ef	jal	x1,80001800	  x1=0x80001800
       58105000	      5809	00000000	00000013	addi	x0,x0,0	  x0:0x00000000
       58115000	      5810	800017e8	00000013	addi	x0,x0,0	  x0:0x00000000
       58125000	      5811	800017ec	034000ef	jal	x1,800017ec	  x1=0x800017ec
       58135000	      5812	00000000	00000013	addi	x0,x0,0	  x0:0x00000000
       58145000	      5813	8000181c	00000013	addi	x0,x0,0	  x0:0x00000000
       58155000	      5814	80001820	00701f93	slli	x31,x0,0x7	  x0:0x00000000 x31=0x00000000
       58165000	      5815	80001824	01c000ef	jal	x1,80001824	  x1=0x80001824
       58175000	      5816	00000000	00000013	addi	x0,x0,0	  x0:0x00000000
       58185000	      5817	8000183c	00000013	addi	x0,x0,0	  x0:0x00000000
       58195000	      5818	80001840	024001ef	jal	x3,80001840	  x3=0x80001840
       58205000	      5819	00000000	00000013	addi	x0,x0,0	  x0:0x00000000
       58215000	      5820	80001860	00000013	addi	x0,x0,0	  x0:0x00000000
       58225000	      5821	80001864	ff5ff0ef	jal	x1,80001864	  x1=0x80001864
       58235000	      5822	00000000	00000013	addi	x0,x0,0	  x0:0x00000000
       58245000	      5823	80001854	00000013	addi	x0,x0,0	  x0:0x00000000
       58255000	      5824	80001858	014002ef	jal	x5,80001858	  x5=0x80001858
       58265000	      5825	00000000	00000013	addi	x0,x0,0	  x0:0x00000000
       58275000	      5826	80001868	00000013	addi	x0,x0,0	  x0:0x00000000
       58285000	      5827	8000186c	fd1ff0ef	jal	x1,8000186c	  x1=0x8000186c
       58295000	      5828	00000000	00000013	addi	x0,x0,0	  x0:0x00000000
       58305000	      5829	80001838	00000013	addi	x0,x0,0	  x0:0x00000000
       58315000	      5830	8000183c	ff5fff6f	jal	x30,8000183c	 x30=0x8000183c
       58325000	      5831	00000000	00000013	addi	x0,x0,0	  x0:0x00000000
       58335000	      5832	8000182c	00000013	addi	x0,x0,0	  x0:0x00000000
       58345000	      5833	80001830	040000ef	jal	x1,80001830	  x1=0x80001830
       58355000	      5834	00000000	00000013	addi	x0,x0,0	  x0:0x00000000
       58365000	      5835	8000186c	00000013	addi	x0,x0,0	  x0:0x00000000
       58375000	      5836	80001870	fddffaef	jal	x21,80001870	 x21=0x80001870
       58385000	      5837	00000000	00000013	addi	x0,x0,0	  x0:0x00000000
       58395000	      5838	80001848	00000013	addi	x0,x0,0	  x0:0x00000000
       58405000	      5839	8000184c	008000ef	jal	x1,8000184c	  x1=0x8000184c
       58415000	      5840	00000000	00000013	addi	x0,x0,0	  x0:0x00000000
       58425000	      5841	80001850	00000013	addi	x0,x0,0	  x0:0x00000000
       58435000	      5842	80001854	008000ef	jal	x1,80001854	  x1=0x80001854
       58445000	      5843	00000000	00000013	addi	x0,x0,0	  x0:0x00000000
       58455000	      5844	80001858	00000013	addi	x0,x0,0	  x0:0x00000000
       58465000	      5845	8000185c	004000ef	jal	x1,8000185c	  x1=0x8000185c
       58475000	      5846	00000000	00000013	addi	x0,x0,0	  x0:0x00000000
       58485000	      5847	8000185c	00000013	addi	x0,x0,0	  x0:0x00000000
       58495000	      5848	80001860	0080066f	jal	x12,80001860	 x12=0x80001860
       58505000	      5849	00000000	00000013	addi	x0,x0,0	  x0:0x00000000
       58515000	      5850	80001864	00000013	addi	x0,x0,0	  x0:0x00000000
       58525000	      5851	80001868	fcdff36f	jal	x6,80001868	  x6=0x80001868
       58535000	      5852	00000000	00000013	addi	x0,x0,0	  x0:0x00000000
       58545000	      5853	80001830	00000013	addi	x0,x0,0	  x0:0x00000000
       58555000	      5854	80001834	ff9ff0ef	jal	x1,80001834	  x1=0x80001834
       58565000	      5855	00000000	00000013	addi	x0,x0,0	  x0:0x00000000
       58575000	      5856	80001828	00000013	addi	x0,x0,0	  x0:0x00000000
       58585000	      5857	8000182c	ffdff0ef	jal	x1,8000182c	  x1=0x8000182c
       58595000	      5858	00000000	00000013	addi	x0,x0,0	  x0:0x00000000
       58605000	      5859	80001824	00000013	addi	x0,x0,0	  x0:0x00000000
       58615000	      5860	80001828	028009ef	jal	x19,80001828	 x19=0x80001828
       58625000	      5861	00000000	00000013	addi	x0,x0,0	  x0:0x00000000
       58635000	      5862	8000184c	00000013	addi	x0,x0,0	  x0:0x00000000
       58645000	      5863	80001850	ff5ff86f	jal	x16,80001850	 x16=0x80001850
       58655000	      5864	00000000	00000013	addi	x0,x0,0	  x0:0x00000000
       58665000	      5865	80001840	00000013	addi	x0,x0,0	  x0:0x00000000
       58675000	      5866	80001844	ff5ff36f	jal	x6,80001844	  x6=0x80001844
       58685000	      5867	00000000	00000013	addi	x0,x0,0	  x0:0x00000000
       58695000	      5868	80001834	00000013	addi	x0,x0,0	  x0:0x00000000
       58705000	      5869	80001838	010000ef	jal	x1,80001838	  x1=0x80001838
       58715000	      5870	00000000	00000013	addi	x0,x0,0	  x0:0x00000000
       58725000	      5871	80001844	00000013	addi	x0,x0,0	  x0:0x00000000
       58735000	      5872	80001848	02c000ef	jal	x1,80001848	  x1=0x80001848
       58745000	      5873	00000000	00000013	addi	x0,x0,0	  x0:0x00000000
       58755000	      5874	80001870	00000013	addi	x0,x0,0	  x0:0x00000000
       58765000	      5875	80001874	01386cb3	or	x25,x16,x19	 x16:0x80001850 x19:0x80001828 x25=0x80001878
       58775000	      5876	80001878	004000ef	jal	x1,80001878	  x1=0x80001878
       58785000	      5877	00000000	00000013	addi	x0,x0,0	  x0:0x00000000
       58795000	      5878	80001878	00000013	addi	x0,x0,0	  x0:0x00000000
       58805000	      5879	8000187c	038000ef	jal	x1,8000187c	  x1=0x8000187c
       58815000	      5880	00000000	00000013	addi	x0,x0,0	  x0:0x00000000
       58825000	      5881	800018b0	00000013	addi	x0,x0,0	  x0:0x00000000
       58835000	      5882	800018b4	0040016f	jal	x2,800018b4	  x2=0x800018b4
       58845000	      5883	00000000	00000013	addi	x0,x0,0	  x0:0x00000000
       58855000	      5884	800018b4	00000013	addi	x0,x0,0	  x0:0x00000000
       58865000	      5885	800018b8	fd1ff36f	jal	x6,800018b8	  x6=0x800018b8
       58875000	      5886	00000000	00000013	addi	x0,x0,0	  x0:0x00000000
       58885000	      5887	80001884	00000013	addi	x0,x0,0	  x0:0x00000000
       58895000	      5888	80001888	01c000ef	jal	x1,80001888	  x1=0x80001888
       58905000	      5889	00000000	00000013	addi	x0,x0,0	  x0:0x00000000
       58915000	      5890	800018a0	00000013	addi	x0,x0,0	  x0:0x00000000
       58925000	      5891	800018a4	0040076f	jal	x14,800018a4	 x14=0x800018a4
       58935000	      5892	00000000	00000013	addi	x0,x0,0	  x0:0x00000000
       58945000	      5893	800018a4	00000013	addi	x0,x0,0	  x0:0x00000000
       58955000	      5894	800018a8	0280036f	jal	x6,800018a8	  x6=0x800018a8
       58965000	      5895	00000000	00000013	addi	x0,x0,0	  x0:0x00000000
       58975000	      5896	800018cc	00000013	addi	x0,x0,0	  x0:0x00000000
       58985000	      5897	800018d0	ff9ff0ef	jal	x1,800018d0	  x1=0x800018d0
       58995000	      5898	00000000	00000013	addi	x0,x0,0	  x0:0x00000000
       59005000	      5899	800018c4	00000013	addi	x0,x0,0	  x0:0x00000000
       59015000	      5900	800018c8	fd1ff0ef	jal	x1,800018c8	  x1=0x800018c8
       59025000	      5901	00000000	00000013	addi	x0,x0,0	  x0:0x00000000
       59035000	      5902	80001894	00000013	addi	x0,x0,0	  x0:0x00000000
       59045000	      5903	80001898	0240036f	jal	x6,80001898	  x6=0x80001898
       59055000	      5904	00000000	00000013	addi	x0,x0,0	  x0:0x00000000
       59065000	      5905	800018b8	00000013	addi	x0,x0,0	  x0:0x00000000
       59075000	      5906	800018bc	fd9ff0ef	jal	x1,800018bc	  x1=0x800018bc
       59085000	      5907	00000000	00000013	addi	x0,x0,0	  x0:0x00000000
       59095000	      5908	80001890	00000013	addi	x0,x0,0	  x0:0x00000000
       59105000	      5909	80001894	ffdffeef	jal	x29,80001894	 x29=0x80001894
       59115000	      5910	00000000	00000013	addi	x0,x0,0	  x0:0x00000000
       59125000	      5911	8000188c	00000013	addi	x0,x0,0	  x0:0x00000000
       59135000	      5912	80001890	030000ef	jal	x1,80001890	  x1=0x80001890
       59145000	      5913	00000000	00000013	addi	x0,x0,0	  x0:0x00000000
       59155000	      5914	800018bc	00000013	addi	x0,x0,0	  x0:0x00000000
       59165000	      5915	800018c0	00c00e6f	jal	x28,800018c0	 x28=0x800018c0
       59175000	      5916	00000000	00000013	addi	x0,x0,0	  x0:0x00000000
       59185000	      5917	800018c8	00000013	addi	x0,x0,0	  x0:0x00000000
       59195000	      5918	800018cc	fe5ff7ef	jal	x15,800018cc	 x15=0x800018cc
       59205000	      5919	00000000	00000013	addi	x0,x0,0	  x0:0x00000000
       59215000	      5920	800018ac	00000013	addi	x0,x0,0	  x0:0x00000000
       59225000	      5921	800018b0	fedff0ef	jal	x1,800018b0	  x1=0x800018b0
       59235000	      5922	00000000	00000013	addi	x0,x0,0	  x0:0x00000000
       59245000	      5923	80001898	00000013	addi	x0,x0,0	  x0:0x00000000
       59255000	      5924	8000189c	028001ef	jal	x3,8000189c	  x3=0x8000189c
       59265000	      5925	00000000	00000013	addi	x0,x0,0	  x0:0x00000000
       59275000	      5926	800018c0	00000013	addi	x0,x0,0	  x0:0x00000000
       59285000	      5927	800018c4	fe9ff0ef	jal	x1,800018c4	  x1=0x800018c4
       59295000	      5928	00000000	00000013	addi	x0,x0,0	  x0:0x00000000
       59305000	      5929	800018a8	00000013	addi	x0,x0,0	  x0:0x00000000
       59315000	      5930	800018ac	fd9ff96f	jal	x18,800018ac	 x18=0x800018ac
       59325000	      5931	00000000	00000013	addi	x0,x0,0	  x0:0x00000000
       59335000	      5932	80001880	00000013	addi	x0,x0,0	  x0:0x00000000
       59345000	      5933	80001884	008000ef	jal	x1,80001884	  x1=0x80001884
       59355000	      5934	00000000	00000013	addi	x0,x0,0	  x0:0x00000000
       59365000	      5935	80001888	00000013	addi	x0,x0,0	  x0:0x00000000
       59375000	      5936	8000188c	ff5ffbef	jal	x23,8000188c	 x23=0x8000188c
       59385000	      5937	00000000	00000013	addi	x0,x0,0	  x0:0x00000000
       59395000	      5938	8000187c	00000013	addi	x0,x0,0	  x0:0x00000000
       59405000	      5939	80001880	0200036f	jal	x6,80001880	  x6=0x80001880
       59415000	      5940	00000000	00000013	addi	x0,x0,0	  x0:0x00000000
       59425000	      5941	8000189c	00000013	addi	x0,x0,0	  x0:0x00000000
       59435000	      5942	800018a0	0340036f	jal	x6,800018a0	  x6=0x800018a0
       59445000	      5943	00000000	00000013	addi	x0,x0,0	  x0:0x00000000
       59455000	      5944	800018d0	00000013	addi	x0,x0,0	  x0:0x00000000
       59465000	      5945	800018d4	004001ef	jal	x3,800018d4	  x3=0x800018d4
       59475000	      5946	00000000	00000013	addi	x0,x0,0	  x0:0x00000000
       59485000	      5947	800018d4	00000013	addi	x0,x0,0	  x0:0x00000000
       59495000	      5948	800018d8	196fbc13	sltiu	x24,x31,406	 x31:0x00000000 x24=0x00000001
       59505000	      5949	800018dc	00c000ef	jal	x1,800018dc	  x1=0x800018dc
       59515000	      5950	00000000	00000013	addi	x0,x0,0	  x0:0x00000000
       59525000	      5951	800018e4	00000013	addi	x0,x0,0	  x0:0x00000000
       59535000	      5952	800018e8	03c000ef	jal	x1,800018e8	  x1=0x800018e8
       59545000	      5953	00000000	00000013	addi	x0,x0,0	  x0:0x00000000
       59555000	      5954	80001920	00000013	addi	x0,x0,0	  x0:0x00000000
       59565000	      5955	80001924	fe9ff0ef	jal	x1,80001924	  x1=0x80001924
       59575000	      5956	00000000	00000013	addi	x0,x0,0	  x0:0x00000000
       59585000	      5957	80001908	00000013	addi	x0,x0,0	  x0:0x00000000
       59595000	      5958	8000190c	fedff36f	jal	x6,8000190c	  x6=0x8000190c
       59605000	      5959	00000000	00000013	addi	x0,x0,0	  x0:0x00000000
       59615000	      5960	800018f4	00000013	addi	x0,x0,0	  x0:0x00000000
       59625000	      5961	800018f8	0240036f	jal	x6,800018f8	  x6=0x800018f8
       59635000	      5962	00000000	00000013	addi	x0,x0,0	  x0:0x00000000
       59645000	      5963	80001918	00000013	addi	x0,x0,0	  x0:0x00000000
       59655000	      5964	8000191c	014000ef	jal	x1,8000191c	  x1=0x8000191c
       59665000	      5965	00000000	00000013	addi	x0,x0,0	  x0:0x00000000
       59675000	      5966	8000192c	00000013	addi	x0,x0,0	  x0:0x00000000
       59685000	      5967	80001930	ff9ff0ef	jal	x1,80001930	  x1=0x80001930
       59695000	      5968	00000000	00000013	addi	x0,x0,0	  x0:0x00000000
       59705000	      5969	80001924	00000013	addi	x0,x0,0	  x0:0x00000000
       59715000	      5970	80001928	fc9ff0ef	jal	x1,80001928	  x1=0x80001928
       59725000	      5971	00000000	00000013	addi	x0,x0,0	  x0:0x00000000
       59735000	      5972	800018ec	00000013	addi	x0,x0,0	  x0:0x00000000
       59745000	      5973	800018f0	ffdff0ef	jal	x1,800018f0	  x1=0x800018f0
       59755000	      5974	00000000	00000013	addi	x0,x0,0	  x0:0x00000000
       59765000	      5975	800018e8	00000013	addi	x0,x0,0	  x0:0x00000000
       59775000	      5976	800018ec	034000ef	jal	x1,800018ec	  x1=0x800018ec
       59785000	      5977	00000000	00000013	addi	x0,x0,0	  x0:0x00000000
       59795000	      5978	8000191c	00000013	addi	x0,x0,0	  x0:0x00000000
       59805000	      5979	80001920	fc5ff1ef	jal	x3,80001920	  x3=0x80001920
       59815000	      5980	00000000	00000013	addi	x0,x0,0	  x0:0x00000000
       59825000	      5981	800018e0	00000013	addi	x0,x0,0	  x0:0x00000000
       59835000	      5982	800018e4	02c000ef	jal	x1,800018e4	  x1=0x800018e4
       59845000	      5983	00000000	00000013	addi	x0,x0,0	  x0:0x00000000
       59855000	      5984	8000190c	00000013	addi	x0,x0,0	  x0:0x00000000
       59865000	      5985	80001910	008000ef	jal	x1,80001910	  x1=0x80001910
       59875000	      5986	00000000	00000013	addi	x0,x0,0	  x0:0x00000000
       59885000	      5987	80001914	00000013	addi	x0,x0,0	  x0:0x00000000
       59895000	      5988	80001918	fe9ff36f	jal	x6,80001918	  x6=0x80001918
       59905000	      5989	00000000	00000013	addi	x0,x0,0	  x0:0x00000000
       59915000	      5990	800018fc	00000013	addi	x0,x0,0	  x0:0x00000000
       59925000	      5991	80001900	008000ef	jal	x1,80001900	  x1=0x80001900
       59935000	      5992	00000000	00000013	addi	x0,x0,0	  x0:0x00000000
       59945000	      5993	80001904	00000013	addi	x0,x0,0	  x0:0x00000000
       59955000	      5994	80001908	00c000ef	jal	x1,80001908	  x1=0x80001908
       59965000	      5995	00000000	00000013	addi	x0,x0,0	  x0:0x00000000
       59975000	      5996	80001910	00000013	addi	x0,x0,0	  x0:0x00000000
       59985000	      5997	80001914	020005ef	jal	x11,80001914	 x11=0x80001914
       59995000	      5998	00000000	00000013	addi	x0,x0,0	  x0:0x00000000
       60005000	      5999	80001930	00000013	addi	x0,x0,0	  x0:0x00000000
       60015000	      6000	80001934	fc9ff36f	jal	x6,80001934	  x6=0x80001934
       60025000	      6001	00000000	00000013	addi	x0,x0,0	  x0:0x00000000
       60035000	      6002	800018f8	00000013	addi	x0,x0,0	  x0:0x00000000
       60045000	      6003	800018fc	008000ef	jal	x1,800018fc	  x1=0x800018fc
       60055000	      6004	00000000	00000013	addi	x0,x0,0	  x0:0x00000000
       60065000	      6005	80001900	00000013	addi	x0,x0,0	  x0:0x00000000
       60075000	      6006	80001904	028000ef	jal	x1,80001904	  x1=0x80001904
       60085000	      6007	00000000	00000013	addi	x0,x0,0	  x0:0x00000000
       60095000	      6008	80001928	00000013	addi	x0,x0,0	  x0:0x00000000
       60105000	      6009	8000192c	fb5ff2ef	jal	x5,8000192c	  x5=0x8000192c
       60115000	      6010	00000000	00000013	addi	x0,x0,0	  x0:0x00000000
       60125000	      6011	800018dc	00000013	addi	x0,x0,0	  x0:0x00000000
       60135000	      6012	800018e0	014000ef	jal	x1,800018e0	  x1=0x800018e0
       60145000	      6013	00000000	00000013	addi	x0,x0,0	  x0:0x00000000
       60155000	      6014	800018f0	00000013	addi	x0,x0,0	  x0:0x00000000
       60165000	      6015	800018f4	0440076f	jal	x14,800018f4	 x14=0x800018f4
       60175000	      6016	00000000	00000013	addi	x0,x0,0	  x0:0x00000000
       60185000	      6017	80001934	00000013	addi	x0,x0,0	  x0:0x00000000
       60195000	      6018	80001938	c65ac593	xori	x11,x21,-923	 x21:0x80001870 x11=0x7fffe415
       60205000	      6019	8000193c	020000ef	jal	x1,8000193c	  x1=0x8000193c
       60215000	      6020	00000000	00000013	addi	x0,x0,0	  x0:0x00000000
       60225000	      6021	80001958	00000013	addi	x0,x0,0	  x0:0x00000000
       60235000	      6022	8000195c	03c00d6f	jal	x26,8000195c	 x26=0x8000195c
       60245000	      6023	00000000	00000013	addi	x0,x0,0	  x0:0x00000000
       60255000	      6024	80001994	00000013	addi	x0,x0,0	  x0:0x00000000
       60265000	      6025	80001998	fd5ff5ef	jal	x11,80001998	 x11=0x80001998
       60275000	      6026	00000000	00000013	addi	x0,x0,0	  x0:0x00000000
       60285000	      6027	80001968	00000013	addi	x0,x0,0	  x0:0x00000000
       60295000	      6028	8000196c	fedffd6f	jal	x26,8000196c	 x26=0x8000196c
       60305000	      6029	00000000	00000013	addi	x0,x0,0	  x0:0x00000000
       60315000	      6030	80001954	00000013	addi	x0,x0,0	  x0:0x00000000
       60325000	      6031	80001958	024000ef	jal	x1,80001958	  x1=0x80001958
       60335000	      6032	00000000	00000013	addi	x0,x0,0	  x0:0x00000000
       60345000	      6033	80001978	00000013	addi	x0,x0,0	  x0:0x00000000
       60355000	      6034	8000197c	fe5ffeef	jal	x29,8000197c	 x29=0x8000197c
       60365000	      6035	00000000	00000013	addi	x0,x0,0	  x0:0x00000000
       60375000	      6036	8000195c	00000013	addi	x0,x0,0	  x0:0x00000000
       60385000	      6037	80001960	fedff76f	jal	x14,80001960	 x14=0x80001960
       60395000	      6038	00000000	00000013	addi	x0,x0,0	  x0:0x00000000
       60405000	      6039	80001948	00000013	addi	x0,x0,0	  x0:0x00000000
       60415000	      6040	8000194c	0580036f	jal	x6,8000194c	  x6=0x8000194c
       60425000	      6041	00000000	00000013	addi	x0,x0,0	  x0:0x00000000
       60435000	      6042	800019a0	00000013	addi	x0,x0,0	  x0:0x00000000
       60445000	      6043	800019a4	fa1ff0ef	jal	x1,800019a4	  x1=0x800019a4
       60455000	      6044	00000000	00000013	addi	x0,x0,0	  x0:0x00000000
       60465000	      6045	80001940	00000013	addi	x0,x0,0	  x0:0x00000000
       60475000	      6046	80001944	05c0036f	jal	x6,80001944	  x6=0x80001944
       60485000	      6047	00000000	00000013	addi	x0,x0,0	  x0:0x00000000
       60495000	      6048	8000199c	00000013	addi	x0,x0,0	  x0:0x00000000
       60505000	      6049	800019a0	ff5ff66f	jal	x12,800019a0	 x12=0x800019a0
       60515000	      6050	00000000	00000013	addi	x0,x0,0	  x0:0x00000000
       60525000	      6051	80001990	00000013	addi	x0,x0,0	  x0:0x00000000
       60535000	      6052	80001994	fe5ff5ef	jal	x11,80001994	 x11=0x80001994
       60545000	      6053	00000000	00000013	addi	x0,x0,0	  x0:0x00000000
       60555000	      6054	80001974	00000013	addi	x0,x0,0	  x0:0x00000000
       60565000	      6055	80001978	fd9ff0ef	jal	x1,80001978	  x1=0x80001978
       60575000	      6056	00000000	00000013	addi	x0,x0,0	  x0:0x00000000
       60585000	      6057	8000194c	00000013	addi	x0,x0,0	  x0:0x00000000
       60595000	      6058	80001950	0140036f	jal	x6,80001950	  x6=0x80001950
       60605000	      6059	00000000	00000013	addi	x0,x0,0	  x0:0x00000000
       60615000	      6060	80001960	00000013	addi	x0,x0,0	  x0:0x00000000
       60625000	      6061	80001964	010000ef	jal	x1,80001964	  x1=0x80001964
       60635000	      6062	00000000	00000013	addi	x0,x0,0	  x0:0x00000000
       60645000	      6063	80001970	00000013	addi	x0,x0,0	  x0:0x00000000
       60655000	      6064	80001974	0100036f	jal	x6,80001974	  x6=0x80001974
       60665000	      6065	00000000	00000013	addi	x0,x0,0	  x0:0x00000000
       60675000	      6066	80001980	00000013	addi	x0,x0,0	  x0:0x00000000
       60685000	      6067	80001984	00400a6f	jal	x20,80001984	 x20=0x80001984
       60695000	      6068	00000000	00000013	addi	x0,x0,0	  x0:0x00000000
       60705000	      6069	80001984	00000013	addi	x0,x0,0	  x0:0x00000000
       60715000	      6070	80001988	0200036f	jal	x6,80001988	  x6=0x80001988
       60725000	      6071	00000000	00000013	addi	x0,x0,0	  x0:0x00000000
       60735000	      6072	800019a4	00000013	addi	x0,x0,0	  x0:0x00000000
       60745000	      6073	800019a8	f99ff36f	jal	x6,800019a8	  x6=0x800019a8
       60755000	      6074	00000000	00000013	addi	x0,x0,0	  x0:0x00000000
       60765000	      6075	8000193c	00000013	addi	x0,x0,0	  x0:0x00000000
       60775000	      6076	80001940	05c005ef	jal	x11,80001940	 x11=0x80001940
       60785000	      6077	00000000	00000013	addi	x0,x0,0	  x0:0x00000000
       60795000	      6078	80001998	00000013	addi	x0,x0,0	  x0:0x00000000
       60805000	      6079	8000199c	ff1ffcef	jal	x25,8000199c	 x25=0x8000199c
       60815000	      6080	00000000	00000013	addi	x0,x0,0	  x0:0x00000000
       60825000	      6081	80001988	00000013	addi	x0,x0,0	  x0:0x00000000
       60835000	      6082	8000198c	fbdffe6f	jal	x28,8000198c	 x28=0x8000198c
       60845000	      6083	00000000	00000013	addi	x0,x0,0	  x0:0x00000000
       60855000	      6084	80001944	00000013	addi	x0,x0,0	  x0:0x00000000
       60865000	      6085	80001948	038000ef	jal	x1,80001948	  x1=0x80001948
       60875000	      6086	00000000	00000013	addi	x0,x0,0	  x0:0x00000000
       60885000	      6087	8000197c	00000013	addi	x0,x0,0	  x0:0x00000000
       60895000	      6088	80001980	ff1ff0ef	jal	x1,80001980	  x1=0x80001980
       60905000	      6089	00000000	00000013	addi	x0,x0,0	  x0:0x00000000
       60915000	      6090	8000196c	00000013	addi	x0,x0,0	  x0:0x00000000
       60925000	      6091	80001970	fe5ff36f	jal	x6,80001970	  x6=0x80001970
       60935000	      6092	00000000	00000013	addi	x0,x0,0	  x0:0x00000000
       60945000	      6093	80001950	00000013	addi	x0,x0,0	  x0:0x00000000
       60955000	      6094	80001954	03c0016f	jal	x2,80001954	  x2=0x80001954
       60965000	      6095	00000000	00000013	addi	x0,x0,0	  x0:0x00000000
       60975000	      6096	8000198c	00000013	addi	x0,x0,0	  x0:0x00000000
       60985000	      6097	80001990	fd9ff0ef	jal	x1,80001990	  x1=0x80001990
       60995000	      6098	00000000	00000013	addi	x0,x0,0	  x0:0x00000000
       61005000	      6099	80001964	00000013	addi	x0,x0,0	  x0:0x00000000
       61015000	      6100	80001968	0440026f	jal	x4,80001968	  x4=0x80001968
       61025000	      6101	00000000	00000013	addi	x0,x0,0	  x0:0x00000000
       61035000	      6102	800019a8	00000013	addi	x0,x0,0	  x0:0x00000000
       61045000	      6103	800019ac	14aea593	slti	x11,x29,330	 x29:0x8000197c x11=0x00000001
       61055000	      6104	800019b0	004000ef	jal	x1,800019b0	  x1=0x800019b0
       61065000	      6105	00000000	00000013	addi	x0,x0,0	  x0:0x00000000
       61075000	      6106	800019b0	00000013	addi	x0,x0,0	  x0:0x00000000
       61085000	      6107	800019b4	05c00f6f	jal	x30,800019b4	 x30=0x800019b4
       61095000	      6108	00000000	00000013	addi	x0,x0,0	  x0:0x00000000
       61105000	      6109	80001a0c	00000013	addi	x0,x0,0	  x0:0x00000000
       61115000	      6110	80001a10	fa9ff0ef	jal	x1,80001a10	  x1=0x80001a10
       61125000	      6111	00000000	00000013	addi	x0,x0,0	  x0:0x00000000
       61135000	      6112	800019b4	00000013	addi	x0,x0,0	  x0:0x00000000
       61145000	      6113	800019b8	004001ef	jal	x3,800019b8	  x3=0x800019b8
       61155000	      6114	00000000	00000013	addi	x0,x0,0	  x0:0x00000000
       61165000	      6115	800019b8	00000013	addi	x0,x0,0	  x0:0x00000000
       61175000	      6116	800019bc	0080036f	jal	x6,800019bc	  x6=0x800019bc
       61185000	      6117	00000000	00000013	addi	x0,x0,0	  x0:0x00000000
       61195000	      6118	800019c0	00000013	addi	x0,x0,0	  x0:0x00000000
       61205000	      6119	800019c4	030000ef	jal	x1,800019c4	  x1=0x800019c4
       61215000	      6120	00000000	00000013	addi	x0,x0,0	  x0:0x00000000
       61225000	      6121	800019f0	00000013	addi	x0,x0,0	  x0:0x00000000
       61235000	      6122	800019f4	0100036f	jal	x6,800019f4	  x6=0x800019f4
       61245000	      6123	00000000	00000013	addi	x0,x0,0	  x0:0x00000000
       61255000	      6124	80001a00	00000013	addi	x0,x0,0	  x0:0x00000000
       61265000	      6125	80001a04	fd1ff6ef	jal	x13,80001a04	 x13=0x80001a04
       61275000	      6126	00000000	00000013	addi	x0,x0,0	  x0:0x00000000
       61285000	      6127	800019d0	00000013	addi	x0,x0,0	  x0:0x00000000
       61295000	      6128	800019d4	02c0016f	jal	x2,800019d4	  x2=0x800019d4
       61305000	      6129	00000000	00000013	addi	x0,x0,0	  x0:0x00000000
       61315000	      6130	800019fc	00000013	addi	x0,x0,0	  x0:0x00000000
       61325000	      6131	80001a00	fedff36f	jal	x6,80001a00	  x6=0x80001a00
       61335000	      6132	00000000	00000013	addi	x0,x0,0	  x0:0x00000000
       61345000	      6133	800019e8	00000013	addi	x0,x0,0	  x0:0x00000000
       61355000	      6134	800019ec	0280036f	jal	x6,800019ec	  x6=0x800019ec
       61365000	      6135	00000000	00000013	addi	x0,x0,0	  x0:0x00000000
       61375000	      6136	80001a10	00000013	addi	x0,x0,0	  x0:0x00000000
       61385000	      6137	80001a14	fb5ff9ef	jal	x19,80001a14	 x19=0x80001a14
       61395000	      6138	00000000	00000013	addi	x0,x0,0	  x0:0x00000000
       61405000	      6139	800019c4	00000013	addi	x0,x0,0	  x0:0x00000000
       61415000	      6140	800019c8	020000ef	jal	x1,800019c8	  x1=0x800019c8
       61425000	      6141	00000000	00000013	addi	x0,x0,0	  x0:0x00000000
       61435000	      6142	800019e4	00000013	addi	x0,x0,0	  x0:0x00000000
       61445000	      6143	800019e8	fe9ff36f	jal	x6,800019e8	  x6=0x800019e8
       61455000	      6144	00000000	00000013	addi	x0,x0,0	  x0:0x00000000
       61465000	      6145	800019cc	00000013	addi	x0,x0,0	  x0:0x00000000
       61475000	      6146	800019d0	ffdff0ef	jal	x1,800019d0	  x1=0x800019d0
       61485000	      6147	00000000	00000013	addi	x0,x0,0	  x0:0x00000000
       61495000	      6148	800019c8	00000013	addi	x0,x0,0	  x0:0x00000000
       61505000	      6149	800019cc	ff5ff0ef	jal	x1,800019cc	  x1=0x800019cc
       61515000	      6150	00000000	00000013	addi	x0,x0,0	  x0:0x00000000
       61525000	      6151	800019bc	00000013	addi	x0,x0,0	  x0:0x00000000
       61535000	      6152	800019c0	030000ef	jal	x1,800019c0	  x1=0x800019c0
       61545000	      6153	00000000	00000013	addi	x0,x0,0	  x0:0x00000000
       61555000	      6154	800019ec	00000013	addi	x0,x0,0	  x0:0x00000000
       61565000	      6155	800019f0	01c000ef	jal	x1,800019f0	  x1=0x800019f0
       61575000	      6156	00000000	00000013	addi	x0,x0,0	  x0:0x00000000
       61585000	      6157	80001a08	00000013	addi	x0,x0,0	  x0:0x00000000
       61595000	      6158	80001a0c	ffdff0ef	jal	x1,80001a0c	  x1=0x80001a0c
       61605000	      6159	00000000	00000013	addi	x0,x0,0	  x0:0x00000000
       61615000	      6160	80001a04	00000013	addi	x0,x0,0	  x0:0x00000000
       61625000	      6161	80001a08	fd5ff0ef	jal	x1,80001a08	  x1=0x80001a08
       61635000	      6162	00000000	00000013	addi	x0,x0,0	  x0:0x00000000
       61645000	      6163	800019d8	00000013	addi	x0,x0,0	  x0:0x00000000
       61655000	      6164	800019dc	ffdff0ef	jal	x1,800019dc	  x1=0x800019dc
       61665000	      6165	00000000	00000013	addi	x0,x0,0	  x0:0x00000000
       61675000	      6166	800019d4	00000013	addi	x0,x0,0	  x0:0x00000000
       61685000	      6167	800019d8	008004ef	jal	x9,800019d8	  x9=0x800019d8
       61695000	      6168	00000000	00000013	addi	x0,x0,0	  x0:0x00000000
       61705000	      6169	800019dc	00000013	addi	x0,x0,0	  x0:0x00000000
       61715000	      6170	800019e0	0180036f	jal	x6,800019e0	  x6=0x800019e0
       61725000	      6171	00000000	00000013	addi	x0,x0,0	  x0:0x00000000
       61735000	      6172	800019f4	00000013	addi	x0,x0,0	  x0:0x00000000
       61745000	      6173	800019f8	004000ef	jal	x1,800019f8	  x1=0x800019f8
       61755000	      6174	00000000	00000013	addi	x0,x0,0	  x0:0x00000000
       61765000	      6175	800019f8	00000013	addi	x0,x0,0	  x0:0x00000000
       61775000	      6176	800019fc	fe9ff0ef	jal	x1,800019fc	  x1=0x800019fc
       61785000	      6177	00000000	00000013	addi	x0,x0,0	  x0:0x00000000
       61795000	      6178	800019e0	00000013	addi	x0,x0,0	  x0:0x00000000
       61805000	      6179	800019e4	034000ef	jal	x1,800019e4	  x1=0x800019e4
       61815000	      6180	00000000	00000013	addi	x0,x0,0	  x0:0x00000000
       61825000	      6181	80001a14	00000013	addi	x0,x0,0	  x0:0x00000000
       61835000	      6182	80001a18	fb122193	slti	x3,x4,-79	  x4:0x80001968  x3=0x00000001
       61845000	      6183	80001a1c	028000ef	jal	x1,80001a1c	  x1=0x80001a1c
       61855000	      6184	00000000	00000013	addi	x0,x0,0	  x0:0x00000000
       61865000	      6185	80001a40	00000013	addi	x0,x0,0	  x0:0x00000000
       61875000	      6186	80001a44	00c0096f	jal	x18,80001a44	 x18=0x80001a44
       61885000	      6187	00000000	00000013	addi	x0,x0,0	  x0:0x00000000
       61895000	      6188	80001a4c	00000013	addi	x0,x0,0	  x0:0x00000000
       61905000	      6189	80001a50	fe1ff0ef	jal	x1,80001a50	  x1=0x80001a50
       61915000	      6190	00000000	00000013	addi	x0,x0,0	  x0:0x00000000
       61925000	      6191	80001a2c	00000013	addi	x0,x0,0	  x0:0x00000000
       61935000	      6192	80001a30	03c0026f	jal	x4,80001a30	  x4=0x80001a30
       61945000	      6193	00000000	00000013	addi	x0,x0,0	  x0:0x00000000
       61955000	      6194	80001a68	00000013	addi	x0,x0,0	  x0:0x00000000
       61965000	      6195	80001a6c	004000ef	jal	x1,80001a6c	  x1=0x80001a6c
       61975000	      6196	00000000	00000013	addi	x0,x0,0	  x0:0x00000000
       61985000	      6197	80001a6c	00000013	addi	x0,x0,0	  x0:0x00000000
       61995000	      6198	80001a70	ff1ff0ef	jal	x1,80001a70	  x1=0x80001a70
       62005000	      6199	00000000	00000013	addi	x0,x0,0	  x0:0x00000000
       62015000	      6200	80001a5c	00000013	addi	x0,x0,0	  x0:0x00000000
       62025000	      6201	80001a60	fc9ff26f	jal	x4,80001a60	  x4=0x80001a60
       62035000	      6202	00000000	00000013	addi	x0,x0,0	  x0:0x00000000
       62045000	      6203	80001a24	00000013	addi	x0,x0,0	  x0:0x00000000
       62055000	      6204	80001a28	04c006ef	jal	x13,80001a28	 x13=0x80001a28
       62065000	      6205	00000000	00000013	addi	x0,x0,0	  x0:0x00000000
       62075000	      6206	80001a70	00000013	addi	x0,x0,0	  x0:0x00000000
       62085000	      6207	80001a74	fe1ff36f	jal	x6,80001a74	  x6=0x80001a74
       62095000	      6208	00000000	00000013	addi	x0,x0,0	  x0:0x00000000
       62105000	      6209	80001a50	00000013	addi	x0,x0,0	  x0:0x00000000
       62115000	      6210	80001a54	014000ef	jal	x1,80001a54	  x1=0x80001a54
       62125000	      6211	00000000	00000013	addi	x0,x0,0	  x0:0x00000000
       62135000	      6212	80001a64	00000013	addi	x0,x0,0	  x0:0x00000000
       62145000	      6213	80001a68	fd5ff0ef	jal	x1,80001a68	  x1=0x80001a68
       62155000	      6214	00000000	00000013	addi	x0,x0,0	  x0:0x00000000
       62165000	      6215	80001a38	00000013	addi	x0,x0,0	  x0:0x00000000
       62175000	      6216	80001a3c	020000ef	jal	x1,80001a3c	  x1=0x80001a3c
       62185000	      6217	00000000	00000013	addi	x0,x0,0	  x0:0x00000000
       62195000	      6218	80001a58	00000013	addi	x0,x0,0	  x0:0x00000000
       62205000	      6219	80001a5c	fc5ff36f	jal	x6,80001a5c	  x6=0x80001a5c
       62215000	      6220	00000000	00000013	addi	x0,x0,0	  x0:0x00000000
       62225000	      6221	80001a1c	00000013	addi	x0,x0,0	  x0:0x00000000
       62235000	      6222	80001a20	044000ef	jal	x1,80001a20	  x1=0x80001a20
       62245000	      6223	00000000	00000013	addi	x0,x0,0	  x0:0x00000000
       62255000	      6224	80001a60	00000013	addi	x0,x0,0	  x0:0x00000000
       62265000	      6225	80001a64	fc1ff6ef	jal	x13,80001a64	 x13=0x80001a64
       62275000	      6226	00000000	00000013	addi	x0,x0,0	  x0:0x00000000
       62285000	      6227	80001a20	00000013	addi	x0,x0,0	  x0:0x00000000
       62295000	      6228	80001a24	024000ef	jal	x1,80001a24	  x1=0x80001a24
       62305000	      6229	00000000	00000013	addi	x0,x0,0	  x0:0x00000000
       62315000	      6230	80001a44	00000013	addi	x0,x0,0	  x0:0x00000000
       62325000	      6231	80001a48	fe5ffe6f	jal	x28,80001a48	 x28=0x80001a48
       62335000	      6232	00000000	00000013	addi	x0,x0,0	  x0:0x00000000
       62345000	      6233	80001a28	00000013	addi	x0,x0,0	  x0:0x00000000
       62355000	      6234	80001a2c	02c003ef	jal	x7,80001a2c	  x7=0x80001a2c
       62365000	      6235	00000000	00000013	addi	x0,x0,0	  x0:0x00000000
       62375000	      6236	80001a54	00000013	addi	x0,x0,0	  x0:0x00000000
       62385000	      6237	80001a58	fe9ff0ef	jal	x1,80001a58	  x1=0x80001a58
       62395000	      6238	00000000	00000013	addi	x0,x0,0	  x0:0x00000000
       62405000	      6239	80001a3c	00000013	addi	x0,x0,0	  x0:0x00000000
       62415000	      6240	80001a40	ff5ff0ef	jal	x1,80001a40	  x1=0x80001a40
       62425000	      6241	00000000	00000013	addi	x0,x0,0	  x0:0x00000000
       62435000	      6242	80001a30	00000013	addi	x0,x0,0	  x0:0x00000000
       62445000	      6243	80001a34	01800f6f	jal	x30,80001a34	 x30=0x80001a34
       62455000	      6244	00000000	00000013	addi	x0,x0,0	  x0:0x00000000
       62465000	      6245	80001a48	00000013	addi	x0,x0,0	  x0:0x00000000
       62475000	      6246	80001a4c	fedff0ef	jal	x1,80001a4c	  x1=0x80001a4c
       62485000	      6247	00000000	00000013	addi	x0,x0,0	  x0:0x00000000
       62495000	      6248	80001a34	00000013	addi	x0,x0,0	  x0:0x00000000
       62505000	      6249	80001a38	0400036f	jal	x6,80001a38	  x6=0x80001a38
       62515000	      6250	00000000	00000013	addi	x0,x0,0	  x0:0x00000000
       62525000	      6251	80001a74	00000013	addi	x0,x0,0	  x0:0x00000000
       62535000	      6252	80001a78	f530f913	andi	x18,x1,-173	  x1:0x80001a4c x18=0x80001a40
       62545000	      6253	80001a7c	060000ef	jal	x1,80001a7c	  x1=0x80001a7c
       62555000	      6254	00000000	00000013	addi	x0,x0,0	  x0:0x00000000
       62565000	      6255	80001ad8	00000013	addi	x0,x0,0	  x0:0x00000000
       62575000	      6256	80001adc	0040036f	jal	x6,80001adc	  x6=0x80001adc
       62585000	      6257	00000000	00000013	addi	x0,x0,0	  x0:0x00000000
       62595000	      6258	80001adc	00000013	addi	x0,x0,0	  x0:0x00000000
       62605000	      6259	80001ae0	fc9ff86f	jal	x16,80001ae0	 x16=0x80001ae0
       62615000	      6260	00000000	00000013	addi	x0,x0,0	  x0:0x00000000
       62625000	      6261	80001aa4	00000013	addi	x0,x0,0	  x0:0x00000000
       62635000	      6262	80001aa8	020000ef	jal	x1,80001aa8	  x1=0x80001aa8
       62645000	      6263	00000000	00000013	addi	x0,x0,0	  x0:0x00000000
       62655000	      6264	80001ac4	00000013	addi	x0,x0,0	  x0:0x00000000
       62665000	      6265	80001ac8	004000ef	jal	x1,80001ac8	  x1=0x80001ac8
       62675000	      6266	00000000	00000013	addi	x0,x0,0	  x0:0x00000000
       62685000	      6267	80001ac8	00000013	addi	x0,x0,0	  x0:0x00000000
       62695000	      6268	80001acc	00400c6f	jal	x24,80001acc	 x24=0x80001acc
       62705000	      6269	00000000	00000013	addi	x0,x0,0	  x0:0x00000000
       62715000	      6270	80001acc	00000013	addi	x0,x0,0	  x0:0x00000000
       62725000	      6271	80001ad0	014001ef	jal	x3,80001ad0	  x3=0x80001ad0
       62735000	      6272	00000000	00000013	addi	x0,x0,0	  x0:0x00000000
       62745000	      6273	80001ae0	00000013	addi	x0,x0,0	  x0:0x00000000
       62755000	      6274	80001ae4	fc9ff36f	jal	x6,80001ae4	  x6=0x80001ae4
       62765000	      6275	00000000	00000013	addi	x0,x0,0	  x0:0x00000000
       62775000	      6276	80001aa8	00000013	addi	x0,x0,0	  x0:0x00000000
       62785000	      6277	80001aac	fe5ff0ef	jal	x1,80001aac	  x1=0x80001aac
       62795000	      6278	00000000	00000013	addi	x0,x0,0	  x0:0x00000000
       62805000	      6279	80001a8c	00000013	addi	x0,x0,0	  x0:0x00000000
       62815000	      6280	80001a90	0340026f	jal	x4,80001a90	  x4=0x80001a90
       62825000	      6281	00000000	00000013	addi	x0,x0,0	  x0:0x00000000
       62835000	      6282	80001ac0	00000013	addi	x0,x0,0	  x0:0x00000000
       62845000	      6283	80001ac4	ffdff0ef	jal	x1,80001ac4	  x1=0x80001ac4
       62855000	      6284	00000000	00000013	addi	x0,x0,0	  x0:0x00000000
       62865000	      6285	80001abc	00000013	addi	x0,x0,0	  x0:0x00000000
       62875000	      6286	80001ac0	fe5ff96f	jal	x18,80001ac0	 x18=0x80001ac0
       62885000	      6287	00000000	00000013	addi	x0,x0,0	  x0:0x00000000
       62895000	      6288	80001aa0	00000013	addi	x0,x0,0	  x0:0x00000000
       62905000	      6289	80001aa4	01800cef	jal	x25,80001aa4	 x25=0x80001aa4
       62915000	      6290	00000000	00000013	addi	x0,x0,0	  x0:0x00000000
       62925000	      6291	80001ab8	00000013	addi	x0,x0,0	  x0:0x00000000
       62935000	      6292	80001abc	fd1ff0ef	jal	x1,80001abc	  x1=0x80001abc
       62945000	      6293	00000000	00000013	addi	x0,x0,0	  x0:0x00000000
       62955000	      6294	80001a88	00000013	addi	x0,x0,0	  x0:0x00000000
       62965000	      6295	80001a8c	024000ef	jal	x1,80001a8c	  x1=0x80001a8c
       62975000	      6296	00000000	00000013	addi	x0,x0,0	  x0:0x00000000
       62985000	      6297	80001aac	00000013	addi	x0,x0,0	  x0:0x00000000
       62995000	      6298	80001ab0	024000ef	jal	x1,80001ab0	  x1=0x80001ab0
       63005000	      6299	00000000	00000013	addi	x0,x0,0	  x0:0x00000000
       63015000	      6300	80001ad0	00000013	addi	x0,x0,0	  x0:0x00000000
       63025000	      6301	80001ad4	fadff0ef	jal	x1,80001ad4	  x1=0x80001ad4
       63035000	      6302	00000000	00000013	addi	x0,x0,0	  x0:0x00000000
       63045000	      6303	80001a7c	00000013	addi	x0,x0,0	  x0:0x00000000
       63055000	      6304	80001a80	00400e6f	jal	x28,80001a80	 x28=0x80001a80
       63065000	      6305	00000000	00000013	addi	x0,x0,0	  x0:0x00000000
       63075000	      6306	80001a80	00000013	addi	x0,x0,0	  x0:0x00000000
       63085000	      6307	80001a84	03000e6f	jal	x28,80001a84	 x28=0x80001a84
       63095000	      6308	00000000	00000013	addi	x0,x0,0	  x0:0x00000000
       63105000	      6309	80001ab0	00000013	addi	x0,x0,0	  x0:0x00000000
       63115000	      6310	80001ab4	fe9ffb6f	jal	x22,80001ab4	 x22=0x80001ab4
       63125000	      6311	00000000	00000013	addi	x0,x0,0	  x0:0x00000000
       63135000	      6312	80001a98	00000013	addi	x0,x0,0	  x0:0x00000000
       63145000	      6313	80001a9c	fedff26f	jal	x4,80001a9c	  x4=0x80001a9c
       63155000	      6314	00000000	00000013	addi	x0,x0,0	  x0:0x00000000
       63165000	      6315	80001a84	00000013	addi	x0,x0,0	  x0:0x00000000
       63175000	      6316	80001a88	050000ef	jal	x1,80001a88	  x1=0x80001a88
       63185000	      6317	00000000	00000013	addi	x0,x0,0	  x0:0x00000000
       63195000	      6318	80001ad4	00000013	addi	x0,x0,0	  x0:0x00000000
       63205000	      6319	80001ad8	fe1ff9ef	jal	x19,80001ad8	 x19=0x80001ad8
       63215000	      6320	00000000	00000013	addi	x0,x0,0	  x0:0x00000000
       63225000	      6321	80001ab4	00000013	addi	x0,x0,0	  x0:0x00000000
       63235000	      6322	80001ab8	fddff1ef	jal	x3,80001ab8	  x3=0x80001ab8
       63245000	      6323	00000000	00000013	addi	x0,x0,0	  x0:0x00000000
       63255000	      6324	80001a90	00000013	addi	x0,x0,0	  x0:0x00000000
       63265000	      6325	80001a94	0040026f	jal	x4,80001a94	  x4=0x80001a94
       63275000	      6326	00000000	00000013	addi	x0,x0,0	  x0:0x00000000
       63285000	      6327	80001a94	00000013	addi	x0,x0,0	  x0:0x00000000
       63295000	      6328	80001a98	0080036f	jal	x6,80001a98	  x6=0x80001a98
       63305000	      6329	00000000	00000013	addi	x0,x0,0	  x0:0x00000000
       63315000	      6330	80001a9c	00000013	addi	x0,x0,0	  x0:0x00000000
       63325000	      6331	80001aa0	048000ef	jal	x1,80001aa0	  x1=0x80001aa0
       63335000	      6332	00000000	00000013	addi	x0,x0,0	  x0:0x00000000
       63345000	      6333	80001ae4	00000013	addi	x0,x0,0	  x0:0x00000000
       63355000	      6334	80001ae8	2723c913	xori	x18,x7,626	  x7:0x80001a2c x18=0x8000185e
       63365000	      6335	80001aec	064000ef	jal	x1,80001aec	  x1=0x80001aec
       63375000	      6336	00000000	00000013	addi	x0,x0,0	  x0:0x00000000
       63385000	      6337	80001b4c	00000013	addi	x0,x0,0	  x0:0x00000000
       63395000	      6338	80001b50	fadff16f	jal	x2,80001b50	  x2=0x80001b50
       63405000	      6339	00000000	00000013	addi	x0,x0,0	  x0:0x00000000
       63415000	      6340	80001af8	00000013	addi	x0,x0,0	  x0:0x00000000
       63425000	      6341	80001afc	008004ef	jal	x9,80001afc	  x9=0x80001afc
       63435000	      6342	00000000	00000013	addi	x0,x0,0	  x0:0x00000000
       63445000	      6343	80001b00	00000013	addi	x0,x0,0	  x0:0x00000000
       63455000	      6344	80001b04	0080056f	jal	x10,80001b04	 x10=0x80001b04
       63465000	      6345	00000000	00000013	addi	x0,x0,0	  x0:0x00000000
       63475000	      6346	80001b08	00000013	addi	x0,x0,0	  x0:0x00000000
       63485000	      6347	80001b0c	03c0036f	jal	x6,80001b0c	  x6=0x80001b0c
       63495000	      6348	00000000	00000013	addi	x0,x0,0	  x0:0x00000000
       63505000	      6349	80001b44	00000013	addi	x0,x0,0	  x0:0x00000000
       63515000	      6350	80001b48	004000ef	jal	x1,80001b48	  x1=0x80001b48
       63525000	      6351	00000000	00000013	addi	x0,x0,0	  x0:0x00000000
       63535000	      6352	80001b48	00000013	addi	x0,x0,0	  x0:0x00000000
       63545000	      6353	80001b4c	fe1ff0ef	jal	x1,80001b4c	  x1=0x80001b4c
       63555000	      6354	00000000	00000013	addi	x0,x0,0	  x0:0x00000000
       63565000	      6355	80001b28	00000013	addi	x0,x0,0	  x0:0x00000000
       63575000	      6356	80001b2c	0280066f	jal	x12,80001b2c	 x12=0x80001b2c
       63585000	      6357	00000000	00000013	addi	x0,x0,0	  x0:0x00000000
       63595000	      6358	80001b50	00000013	addi	x0,x0,0	  x0:0x00000000
       63605000	      6359	80001b54	fa1ff0ef	jal	x1,80001b54	  x1=0x80001b54
       63615000	      6360	00000000	00000013	addi	x0,x0,0	  x0:0x00000000
       63625000	      6361	80001af0	00000013	addi	x0,x0,0	  x0:0x00000000
       63635000	      6362	80001af4	01c000ef	jal	x1,80001af4	  x1=0x80001af4
       63645000	      6363	00000000	00000013	addi	x0,x0,0	  x0:0x00000000
       63655000	      6364	80001b0c	00000013	addi	x0,x0,0	  x0:0x00000000
       63665000	      6365	80001b10	014000ef	jal	x1,80001b10	  x1=0x80001b10
       63675000	      6366	00000000	00000013	addi	x0,x0,0	  x0:0x00000000
       63685000	      6367	80001b20	00000013	addi	x0,x0,0	  x0:0x00000000
       63695000	      6368	80001b24	0200036f	jal	x6,80001b24	  x6=0x80001b24
       63705000	      6369	00000000	00000013	addi	x0,x0,0	  x0:0x00000000
       63715000	      6370	80001b40	00000013	addi	x0,x0,0	  x0:0x00000000
       63725000	      6371	80001b44	fbdff26f	jal	x4,80001b44	  x4=0x80001b44
       63735000	      6372	00000000	00000013	addi	x0,x0,0	  x0:0x00000000
       63745000	      6373	80001afc	00000013	addi	x0,x0,0	  x0:0x00000000
       63755000	      6374	80001b00	01800aef	jal	x21,80001b00	 x21=0x80001b00
       63765000	      6375	00000000	00000013	addi	x0,x0,0	  x0:0x00000000
       63775000	      6376	80001b14	00000013	addi	x0,x0,0	  x0:0x00000000
       63785000	      6377	80001b18	028000ef	jal	x1,80001b18	  x1=0x80001b18
       63795000	      6378	00000000	00000013	addi	x0,x0,0	  x0:0x00000000
       63805000	      6379	80001b3c	00000013	addi	x0,x0,0	  x0:0x00000000
       63815000	      6380	80001b40	ff9ff0ef	jal	x1,80001b40	  x1=0x80001b40
       63825000	      6381	00000000	00000013	addi	x0,x0,0	  x0:0x00000000
       63835000	      6382	80001b34	00000013	addi	x0,x0,0	  x0:0x00000000
       63845000	      6383	80001b38	ff1ff0ef	jal	x1,80001b38	  x1=0x80001b38
       63855000	      6384	00000000	00000013	addi	x0,x0,0	  x0:0x00000000
       63865000	      6385	80001b24	00000013	addi	x0,x0,0	  x0:0x00000000
       63875000	      6386	80001b28	00c000ef	jal	x1,80001b28	  x1=0x80001b28
       63885000	      6387	00000000	00000013	addi	x0,x0,0	  x0:0x00000000
       63895000	      6388	80001b30	00000013	addi	x0,x0,0	  x0:0x00000000
       63905000	      6389	80001b34	fd5ff36f	jal	x6,80001b34	  x6=0x80001b34
       63915000	      6390	00000000	00000013	addi	x0,x0,0	  x0:0x00000000
       63925000	      6391	80001b04	00000013	addi	x0,x0,0	  x0:0x00000000
       63935000	      6392	80001b08	fe9ff0ef	jal	x1,80001b08	  x1=0x80001b08
       63945000	      6393	00000000	00000013	addi	x0,x0,0	  x0:0x00000000
       63955000	      6394	80001aec	00000013	addi	x0,x0,0	  x0:0x00000000
       63965000	      6395	80001af0	04c000ef	jal	x1,80001af0	  x1=0x80001af0
       63975000	      6396	00000000	00000013	addi	x0,x0,0	  x0:0x00000000
       63985000	      6397	80001b38	00000013	addi	x0,x0,0	  x0:0x00000000
       63995000	      6398	80001b3c	fe5ff9ef	jal	x19,80001b3c	 x19=0x80001b3c
       64005000	      6399	00000000	00000013	addi	x0,x0,0	  x0:0x00000000
       64015000	      6400	80001b1c	00000013	addi	x0,x0,0	  x0:0x00000000
       64025000	      6401	80001b20	010000ef	jal	x1,80001b20	  x1=0x80001b20
       64035000	      6402	00000000	00000013	addi	x0,x0,0	  x0:0x00000000
       64045000	      6403	80001b2c	00000013	addi	x0,x0,0	  x0:0x00000000
       64055000	      6404	80001b30	fe5ff4ef	jal	x9,80001b30	  x9=0x80001b30
       64065000	      6405	00000000	00000013	addi	x0,x0,0	  x0:0x00000000
       64075000	      6406	80001b10	00000013	addi	x0,x0,0	  x0:0x00000000
       64085000	      6407	80001b14	008000ef	jal	x1,80001b14	  x1=0x80001b14
       64095000	      6408	00000000	00000013	addi	x0,x0,0	  x0:0x00000000
       64105000	      6409	80001b18	00000013	addi	x0,x0,0	  x0:0x00000000
       64115000	      6410	80001b1c	fddff66f	jal	x12,80001b1c	 x12=0x80001b1c
       64125000	      6411	00000000	00000013	addi	x0,x0,0	  x0:0x00000000
       64135000	      6412	80001af4	00000013	addi	x0,x0,0	  x0:0x00000000
       64145000	      6413	80001af8	060002ef	jal	x5,80001af8	  x5=0x80001af8
       64155000	      6414	00000000	00000013	addi	x0,x0,0	  x0:0x00000000
       64165000	      6415	80001b54	00000013	addi	x0,x0,0	  x0:0x00000000
       64175000	      6416	80001b58	01547c33	and	x24,x8,x21	  x8:0x80009fc4 x21:0x80001b00 x24=0x80001b00
       64185000	      6417	80001b5c	028000ef	jal	x1,80001b5c	  x1=0x80001b5c
       64195000	      6418	00000000	00000013	addi	x0,x0,0	  x0:0x00000000
       64205000	      6419	80001b80	00000013	addi	x0,x0,0	  x0:0x00000000
       64215000	      6420	80001b84	ff1ff0ef	jal	x1,80001b84	  x1=0x80001b84
       64225000	      6421	00000000	00000013	addi	x0,x0,0	  x0:0x00000000
       64235000	      6422	80001b70	00000013	addi	x0,x0,0	  x0:0x00000000
       64245000	      6423	80001b74	00800f6f	jal	x30,80001b74	 x30=0x80001b74
       64255000	      6424	00000000	00000013	addi	x0,x0,0	  x0:0x00000000
       64265000	      6425	80001b78	00000013	addi	x0,x0,0	  x0:0x00000000
       64275000	      6426	80001b7c	fe5ff36f	jal	x6,80001b7c	  x6=0x80001b7c
       64285000	      6427	00000000	00000013	addi	x0,x0,0	  x0:0x00000000
       64295000	      6428	80001b5c	00000013	addi	x0,x0,0	  x0:0x00000000
       64305000	      6429	80001b60	0280036f	jal	x6,80001b60	  x6=0x80001b60
       64315000	      6430	00000000	00000013	addi	x0,x0,0	  x0:0x00000000
       64325000	      6431	80001b84	00000013	addi	x0,x0,0	  x0:0x00000000
       64335000	      6432	80001b88	008000ef	jal	x1,80001b88	  x1=0x80001b88
       64345000	      6433	00000000	00000013	addi	x0,x0,0	  x0:0x00000000
       64355000	      6434	80001b8c	00000013	addi	x0,x0,0	  x0:0x00000000
       64365000	      6435	80001b90	fe9ff4ef	jal	x9,80001b90	  x9=0x80001b90
       64375000	      6436	00000000	00000013	addi	x0,x0,0	  x0:0x00000000
       64385000	      6437	80001b74	00000013	addi	x0,x0,0	  x0:0x00000000
       64395000	      6438	80001b78	ff1ff0ef	jal	x1,80001b78	  x1=0x80001b78
       64405000	      6439	00000000	00000013	addi	x0,x0,0	  x0:0x00000000
       64415000	      6440	80001b64	00000013	addi	x0,x0,0	  x0:0x00000000
       64425000	      6441	80001b68	0080036f	jal	x6,80001b68	  x6=0x80001b68
       64435000	      6442	00000000	00000013	addi	x0,x0,0	  x0:0x00000000
       64445000	      6443	80001b6c	00000013	addi	x0,x0,0	  x0:0x00000000
       64455000	      6444	80001b70	ff5ff36f	jal	x6,80001b70	  x6=0x80001b70
       64465000	      6445	00000000	00000013	addi	x0,x0,0	  x0:0x00000000
       64475000	      6446	80001b60	00000013	addi	x0,x0,0	  x0:0x00000000
       64485000	      6447	80001b64	01c00eef	jal	x29,80001b64	 x29=0x80001b64
       64495000	      6448	00000000	00000013	addi	x0,x0,0	  x0:0x00000000
       64505000	      6449	80001b7c	00000013	addi	x0,x0,0	  x0:0x00000000
       64515000	      6450	80001b80	00c000ef	jal	x1,80001b80	  x1=0x80001b80
       64525000	      6451	00000000	00000013	addi	x0,x0,0	  x0:0x00000000
       64535000	      6452	80001b88	00000013	addi	x0,x0,0	  x0:0x00000000
       64545000	      6453	80001b8c	fe1ff36f	jal	x6,80001b8c	  x6=0x80001b8c
       64555000	      6454	00000000	00000013	addi	x0,x0,0	  x0:0x00000000
       64565000	      6455	80001b68	00000013	addi	x0,x0,0	  x0:0x00000000
       64575000	      6456	80001b6c	028000ef	jal	x1,80001b6c	  x1=0x80001b6c
       64585000	      6457	00000000	00000013	addi	x0,x0,0	  x0:0x00000000
       64595000	      6458	80001b90	00000013	addi	x0,x0,0	  x0:0x00000000
       64605000	      6459	80001b94	00930833	add	x16,x6,x9	  x6:0x80001b8c  x9:0x80001b90 x16=0x0000371c
       64615000	      6460	80001b98	004000ef	jal	x1,80001b98	  x1=0x80001b98
       64625000	      6461	00000000	00000013	addi	x0,x0,0	  x0:0x00000000
       64635000	      6462	80001b98	00000013	addi	x0,x0,0	  x0:0x00000000
       64645000	      6463	80001b9c	014000ef	jal	x1,80001b9c	  x1=0x80001b9c
       64655000	      6464	00000000	00000013	addi	x0,x0,0	  x0:0x00000000
       64665000	      6465	80001bac	00000013	addi	x0,x0,0	  x0:0x00000000
       64675000	      6466	80001bb0	030000ef	jal	x1,80001bb0	  x1=0x80001bb0
       64685000	      6467	00000000	00000013	addi	x0,x0,0	  x0:0x00000000
       64695000	      6468	80001bdc	00000013	addi	x0,x0,0	  x0:0x00000000
       64705000	      6469	80001be0	fd5ff36f	jal	x6,80001be0	  x6=0x80001be0
       64715000	      6470	00000000	00000013	addi	x0,x0,0	  x0:0x00000000
       64725000	      6471	80001bb0	00000013	addi	x0,x0,0	  x0:0x00000000
       64735000	      6472	80001bb4	ff1ff0ef	jal	x1,80001bb4	  x1=0x80001bb4
       64745000	      6473	00000000	00000013	addi	x0,x0,0	  x0:0x00000000
       64755000	      6474	80001ba0	00000013	addi	x0,x0,0	  x0:0x00000000
       64765000	      6475	80001ba4	01c000ef	jal	x1,80001ba4	  x1=0x80001ba4
       64775000	      6476	00000000	00000013	addi	x0,x0,0	  x0:0x00000000
       64785000	      6477	80001bbc	00000013	addi	x0,x0,0	  x0:0x00000000
       64795000	      6478	80001bc0	ff9ff6ef	jal	x13,80001bc0	 x13=0x80001bc0
       64805000	      6479	00000000	00000013	addi	x0,x0,0	  x0:0x00000000
       64815000	      6480	80001bb4	00000013	addi	x0,x0,0	  x0:0x00000000
       64825000	      6481	80001bb8	004000ef	jal	x1,80001bb8	  x1=0x80001bb8
       64835000	      6482	00000000	00000013	addi	x0,x0,0	  x0:0x00000000
       64845000	      6483	80001bb8	00000013	addi	x0,x0,0	  x0:0x00000000
       64855000	      6484	80001bbc	008000ef	jal	x1,80001bbc	  x1=0x80001bbc
       64865000	      6485	00000000	00000013	addi	x0,x0,0	  x0:0x00000000
       64875000	      6486	80001bc0	00000013	addi	x0,x0,0	  x0:0x00000000
       64885000	      6487	80001bc4	004000ef	jal	x1,80001bc4	  x1=0x80001bc4
       64895000	      6488	00000000	00000013	addi	x0,x0,0	  x0:0x00000000
       64905000	      6489	80001bc4	00000013	addi	x0,x0,0	  x0:0x00000000
       64915000	      6490	80001bc8	fe1ff0ef	jal	x1,80001bc8	  x1=0x80001bc8
       64925000	      6491	00000000	00000013	addi	x0,x0,0	  x0:0x00000000
       64935000	      6492	80001ba4	00000013	addi	x0,x0,0	  x0:0x00000000
       64945000	      6493	80001ba8	02c009ef	jal	x19,80001ba8	 x19=0x80001ba8
       64955000	      6494	00000000	00000013	addi	x0,x0,0	  x0:0x00000000
       64965000	      6495	80001bd0	00000013	addi	x0,x0,0	  x0:0x00000000
       64975000	      6496	80001bd4	ffdff36f	jal	x6,80001bd4	  x6=0x80001bd4
       64985000	      6497	00000000	00000013	addi	x0,x0,0	  x0:0x00000000
       64995000	      6498	80001bcc	00000013	addi	x0,x0,0	  x0:0x00000000
       65005000	      6499	80001bd0	00c002ef	jal	x5,80001bd0	  x5=0x80001bd0
       65015000	      6500	00000000	00000013	addi	x0,x0,0	  x0:0x00000000
       65025000	      6501	80001bd8	00000013	addi	x0,x0,0	  x0:0x00000000
       65035000	      6502	80001bdc	008000ef	jal	x1,80001bdc	  x1=0x80001bdc
       65045000	      6503	00000000	00000013	addi	x0,x0,0	  x0:0x00000000
       65055000	      6504	80001be0	00000013	addi	x0,x0,0	  x0:0x00000000
       65065000	      6505	80001be4	fbdff0ef	jal	x1,80001be4	  x1=0x80001be4
       65075000	      6506	00000000	00000013	addi	x0,x0,0	  x0:0x00000000
       65085000	      6507	80001b9c	00000013	addi	x0,x0,0	  x0:0x00000000
       65095000	      6508	80001ba0	038000ef	jal	x1,80001ba0	  x1=0x80001ba0
       65105000	      6509	00000000	00000013	addi	x0,x0,0	  x0:0x00000000
       65115000	      6510	80001bd4	00000013	addi	x0,x0,0	  x0:0x00000000
       65125000	      6511	80001bd8	fd5ff26f	jal	x4,80001bd8	  x4=0x80001bd8
       65135000	      6512	00000000	00000013	addi	x0,x0,0	  x0:0x00000000
       65145000	      6513	80001ba8	00000013	addi	x0,x0,0	  x0:0x00000000
       65155000	      6514	80001bac	0200036f	jal	x6,80001bac	  x6=0x80001bac
       65165000	      6515	00000000	00000013	addi	x0,x0,0	  x0:0x00000000
       65175000	      6516	80001bc8	00000013	addi	x0,x0,0	  x0:0x00000000
       65185000	      6517	80001bcc	01c002ef	jal	x5,80001bcc	  x5=0x80001bcc
       65195000	      6518	00000000	00000013	addi	x0,x0,0	  x0:0x00000000
       65205000	      6519	80001be4	00000013	addi	x0,x0,0	  x0:0x00000000
       65215000	      6520	80001be8	004000ef	jal	x1,80001be8	  x1=0x80001be8
       65225000	      6521	00000000	00000013	addi	x0,x0,0	  x0:0x00000000
       65235000	      6522	80001be8	00000013	addi	x0,x0,0	  x0:0x00000000
       65245000	      6523	80001bec	00c2dd13	srli	x26,x5,0xc	  x5:0x80001bcc x26=0x00080001
       65255000	      6524	80001bf0	024000ef	jal	x1,80001bf0	  x1=0x80001bf0
       65265000	      6525	00000000	00000013	addi	x0,x0,0	  x0:0x00000000
       65275000	      6526	80001c10	00000013	addi	x0,x0,0	  x0:0x00000000
       65285000	      6527	80001c14	038000ef	jal	x1,80001c14	  x1=0x80001c14
       65295000	      6528	00000000	00000013	addi	x0,x0,0	  x0:0x00000000
       65305000	      6529	80001c48	00000013	addi	x0,x0,0	  x0:0x00000000
       65315000	      6530	80001c4c	ff9ffaef	jal	x21,80001c4c	 x21=0x80001c4c
       65325000	      6531	00000000	00000013	addi	x0,x0,0	  x0:0x00000000
       65335000	      6532	80001c40	00000013	addi	x0,x0,0	  x0:0x00000000
       65345000	      6533	80001c44	fedff0ef	jal	x1,80001c44	  x1=0x80001c44
       65355000	      6534	00000000	00000013	addi	x0,x0,0	  x0:0x00000000
       65365000	      6535	80001c2c	00000013	addi	x0,x0,0	  x0:0x00000000
       65375000	      6536	80001c30	010001ef	jal	x3,80001c30	  x3=0x80001c30
       65385000	      6537	00000000	00000013	addi	x0,x0,0	  x0:0x00000000
       65395000	      6538	80001c3c	00000013	addi	x0,x0,0	  x0:0x00000000
       65405000	      6539	80001c40	fd1ff2ef	jal	x5,80001c40	  x5=0x80001c40
       65415000	      6540	00000000	00000013	addi	x0,x0,0	  x0:0x00000000
       65425000	      6541	80001c0c	00000013	addi	x0,x0,0	  x0:0x00000000
       65435000	      6542	80001c10	ff9ffb6f	jal	x22,80001c10	 x22=0x80001c10
       65445000	      6543	00000000	00000013	addi	x0,x0,0	  x0:0x00000000
       65455000	      6544	80001c04	00000013	addi	x0,x0,0	  x0:0x00000000
       65465000	      6545	80001c08	0200036f	jal	x6,80001c08	  x6=0x80001c08
       65475000	      6546	00000000	00000013	addi	x0,x0,0	  x0:0x00000000
       65485000	      6547	80001c24	00000013	addi	x0,x0,0	  x0:0x00000000
       65495000	      6548	80001c28	010000ef	jal	x1,80001c28	  x1=0x80001c28
       65505000	      6549	00000000	00000013	addi	x0,x0,0	  x0:0x00000000
       65515000	      6550	80001c34	00000013	addi	x0,x0,0	  x0:0x00000000
       65525000	      6551	80001c38	ff5ff0ef	jal	x1,80001c38	  x1=0x80001c38
       65535000	      6552	00000000	00000013	addi	x0,x0,0	  x0:0x00000000
       65545000	      6553	80001c28	00000013	addi	x0,x0,0	  x0:0x00000000
       65555000	      6554	80001c2c	fedff36f	jal	x6,80001c2c	  x6=0x80001c2c
       65565000	      6555	00000000	00000013	addi	x0,x0,0	  x0:0x00000000
       65575000	      6556	80001c14	00000013	addi	x0,x0,0	  x0:0x00000000
       65585000	      6557	80001c18	fe1ff0ef	jal	x1,80001c18	  x1=0x80001c18
       65595000	      6558	00000000	00000013	addi	x0,x0,0	  x0:0x00000000
       65605000	      6559	80001bf4	00000013	addi	x0,x0,0	  x0:0x00000000
       65615000	      6560	80001bf8	004001ef	jal	x3,80001bf8	  x3=0x80001bf8
       65625000	      6561	00000000	00000013	addi	x0,x0,0	  x0:0x00000000
       65635000	      6562	80001bf8	00000013	addi	x0,x0,0	  x0:0x00000000
       65645000	      6563	80001bfc	0380026f	jal	x4,80001bfc	  x4=0x80001bfc
       65655000	      6564	00000000	00000013	addi	x0,x0,0	  x0:0x00000000
       65665000	      6565	80001c30	00000013	addi	x0,x0,0	  x0:0x00000000
       65675000	      6566	80001c34	ff1ff0ef	jal	x1,80001c34	  x1=0x80001c34
       65685000	      6567	00000000	00000013	addi	x0,x0,0	  x0:0x00000000
       65695000	      6568	80001c20	00000013	addi	x0,x0,0	  x0:0x00000000
       65705000	      6569	80001c24	fe1ff0ef	jal	x1,80001c24	  x1=0x80001c24
       65715000	      6570	00000000	00000013	addi	x0,x0,0	  x0:0x00000000
       65725000	      6571	80001c00	00000013	addi	x0,x0,0	  x0:0x00000000
       65735000	      6572	80001c04	04c000ef	jal	x1,80001c04	  x1=0x80001c04
       65745000	      6573	00000000	00000013	addi	x0,x0,0	  x0:0x00000000
       65755000	      6574	80001c4c	00000013	addi	x0,x0,0	  x0:0x00000000
       65765000	      6575	80001c50	fcdff0ef	jal	x1,80001c50	  x1=0x80001c50
       65775000	      6576	00000000	00000013	addi	x0,x0,0	  x0:0x00000000
       65785000	      6577	80001c18	00000013	addi	x0,x0,0	  x0:0x00000000
       65795000	      6578	80001c1c	02c000ef	jal	x1,80001c1c	  x1=0x80001c1c
       65805000	      6579	00000000	00000013	addi	x0,x0,0	  x0:0x00000000
       65815000	      6580	80001c44	00000013	addi	x0,x0,0	  x0:0x00000000
       65825000	      6581	80001c48	ff5ff36f	jal	x6,80001c48	  x6=0x80001c48
       65835000	      6582	00000000	00000013	addi	x0,x0,0	  x0:0x00000000
       65845000	      6583	80001c38	00000013	addi	x0,x0,0	  x0:0x00000000
       65855000	      6584	80001c3c	fb9ff0ef	jal	x1,80001c3c	  x1=0x80001c3c
       65865000	      6585	00000000	00000013	addi	x0,x0,0	  x0:0x00000000
       65875000	      6586	80001bf0	00000013	addi	x0,x0,0	  x0:0x00000000
       65885000	      6587	80001bf4	00c000ef	jal	x1,80001bf4	  x1=0x80001bf4
       65895000	      6588	00000000	00000013	addi	x0,x0,0	  x0:0x00000000
       65905000	      6589	80001bfc	00000013	addi	x0,x0,0	  x0:0x00000000
       65915000	      6590	80001c00	02000a6f	jal	x20,80001c00	 x20=0x80001c00
       65925000	      6591	00000000	00000013	addi	x0,x0,0	  x0:0x00000000
       65935000	      6592	80001c1c	00000013	addi	x0,x0,0	  x0:0x00000000
       65945000	      6593	80001c20	fedff6ef	jal	x13,80001c20	 x13=0x80001c20
       65955000	      6594	00000000	00000013	addi	x0,x0,0	  x0:0x00000000
       65965000	      6595	80001c08	00000013	addi	x0,x0,0	  x0:0x00000000
       65975000	      6596	80001c0c	0480086f	jal	x16,80001c0c	 x16=0x80001c0c
       65985000	      6597	00000000	00000013	addi	x0,x0,0	  x0:0x00000000
       65995000	      6598	80001c50	00000013	addi	x0,x0,0	  x0:0x00000000
       66005000	      6599	80001c54	b8ba9097	auipc	x1,0xb8ba9	  x1=0x38baac50
       66015000	      6600	80001c58	024000ef	jal	x1,80001c58	  x1=0x80001c58
       66025000	      6601	00000000	00000013	addi	x0,x0,0	  x0:0x00000000
       66035000	      6602	80001c78	00000013	addi	x0,x0,0	  x0:0x00000000
       66045000	      6603	80001c7c	ff5ff5ef	jal	x11,80001c7c	 x11=0x80001c7c
       66055000	      6604	00000000	00000013	addi	x0,x0,0	  x0:0x00000000
       66065000	      6605	80001c6c	00000013	addi	x0,x0,0	  x0:0x00000000
       66075000	      6606	80001c70	010000ef	jal	x1,80001c70	  x1=0x80001c70
       66085000	      6607	00000000	00000013	addi	x0,x0,0	  x0:0x00000000
       66095000	      6608	80001c7c	00000013	addi	x0,x0,0	  x0:0x00000000
       66105000	      6609	80001c80	fe9ff0ef	jal	x1,80001c80	  x1=0x80001c80
       66115000	      6610	00000000	00000013	addi	x0,x0,0	  x0:0x00000000
       66125000	      6611	80001c64	00000013	addi	x0,x0,0	  x0:0x00000000
       66135000	      6612	80001c68	ffdff0ef	jal	x1,80001c68	  x1=0x80001c68
       66145000	      6613	00000000	00000013	addi	x0,x0,0	  x0:0x00000000
       66155000	      6614	80001c60	00000013	addi	x0,x0,0	  x0:0x00000000
       66165000	      6615	80001c64	0100016f	jal	x2,80001c64	  x2=0x80001c64
       66175000	      6616	00000000	00000013	addi	x0,x0,0	  x0:0x00000000
       66185000	      6617	80001c70	00000013	addi	x0,x0,0	  x0:0x00000000
       66195000	      6618	80001c74	ff9ff0ef	jal	x1,80001c74	  x1=0x80001c74
       66205000	      6619	00000000	00000013	addi	x0,x0,0	  x0:0x00000000
       66215000	      6620	80001c68	00000013	addi	x0,x0,0	  x0:0x00000000
       66225000	      6621	80001c6c	00c00aef	jal	x21,80001c6c	 x21=0x80001c6c
       66235000	      6622	00000000	00000013	addi	x0,x0,0	  x0:0x00000000
       66245000	      6623	80001c74	00000013	addi	x0,x0,0	  x0:0x00000000
       66255000	      6624	80001c78	fe5ff0ef	jal	x1,80001c78	  x1=0x80001c78
       66265000	      6625	00000000	00000013	addi	x0,x0,0	  x0:0x00000000
       66275000	      6626	80001c58	00000013	addi	x0,x0,0	  x0:0x00000000
       66285000	      6627	80001c5c	004000ef	jal	x1,80001c5c	  x1=0x80001c5c
       66295000	      6628	00000000	00000013	addi	x0,x0,0	  x0:0x00000000
       66305000	      6629	80001c5c	00000013	addi	x0,x0,0	  x0:0x00000000
       66315000	      6630	80001c60	024000ef	jal	x1,80001c60	  x1=0x80001c60
       66325000	      6631	00000000	00000013	addi	x0,x0,0	  x0:0x00000000
       66335000	      6632	80001c80	00000013	addi	x0,x0,0	  x0:0x00000000
       66345000	      6633	80001c84	1eef5f97	auipc	x31,0x1eef5	 x31=0x9eef6c80
       66355000	      6634	80001c88	020000ef	jal	x1,80001c88	  x1=0x80001c88
       66365000	      6635	00000000	00000013	addi	x0,x0,0	  x0:0x00000000
       66375000	      6636	80001ca4	00000013	addi	x0,x0,0	  x0:0x00000000
       66385000	      6637	80001ca8	008000ef	jal	x1,80001ca8	  x1=0x80001ca8
       66395000	      6638	00000000	00000013	addi	x0,x0,0	  x0:0x00000000
       66405000	      6639	80001cac	00000013	addi	x0,x0,0	  x0:0x00000000
       66415000	      6640	80001cb0	0080016f	jal	x2,80001cb0	  x2=0x80001cb0
       66425000	      6641	00000000	00000013	addi	x0,x0,0	  x0:0x00000000
       66435000	      6642	80001cb4	00000013	addi	x0,x0,0	  x0:0x00000000
       66445000	      6643	80001cb8	fd9ff7ef	jal	x15,80001cb8	 x15=0x80001cb8
       66455000	      6644	00000000	00000013	addi	x0,x0,0	  x0:0x00000000
       66465000	      6645	80001c8c	00000013	addi	x0,x0,0	  x0:0x00000000
       66475000	      6646	80001c90	01c0036f	jal	x6,80001c90	  x6=0x80001c90
       66485000	      6647	00000000	00000013	addi	x0,x0,0	  x0:0x00000000
       66495000	      6648	80001ca8	00000013	addi	x0,x0,0	  x0:0x00000000
       66505000	      6649	80001cac	0080036f	jal	x6,80001cac	  x6=0x80001cac
       66515000	      6650	00000000	00000013	addi	x0,x0,0	  x0:0x00000000
       66525000	      6651	80001cb0	00000013	addi	x0,x0,0	  x0:0x00000000
       66535000	      6652	80001cb4	ff1ff0ef	jal	x1,80001cb4	  x1=0x80001cb4
       66545000	      6653	00000000	00000013	addi	x0,x0,0	  x0:0x00000000
       66555000	      6654	80001ca0	00000013	addi	x0,x0,0	  x0:0x00000000
       66565000	      6655	80001ca4	ff1ff36f	jal	x6,80001ca4	  x6=0x80001ca4
       66575000	      6656	00000000	00000013	addi	x0,x0,0	  x0:0x00000000
       66585000	      6657	80001c90	00000013	addi	x0,x0,0	  x0:0x00000000
       66595000	      6658	80001c94	00c0076f	jal	x14,80001c94	 x14=0x80001c94
       66605000	      6659	00000000	00000013	addi	x0,x0,0	  x0:0x00000000
       66615000	      6660	80001c9c	00000013	addi	x0,x0,0	  x0:0x00000000
       66625000	      6661	80001ca0	ff9ff26f	jal	x4,80001ca0	  x4=0x80001ca0
       66635000	      6662	00000000	00000013	addi	x0,x0,0	  x0:0x00000000
       66645000	      6663	80001c94	00000013	addi	x0,x0,0	  x0:0x00000000
       66655000	      6664	80001c98	ff5ff0ef	jal	x1,80001c98	  x1=0x80001c98
       66665000	      6665	00000000	00000013	addi	x0,x0,0	  x0:0x00000000
       66675000	      6666	80001c88	00000013	addi	x0,x0,0	  x0:0x00000000
       66685000	      6667	80001c8c	01000bef	jal	x23,80001c8c	 x23=0x80001c8c
       66695000	      6668	00000000	00000013	addi	x0,x0,0	  x0:0x00000000
       66705000	      6669	80001c98	00000013	addi	x0,x0,0	  x0:0x00000000
       66715000	      6670	80001c9c	020000ef	jal	x1,80001c9c	  x1=0x80001c9c
       66725000	      6671	00000000	00000013	addi	x0,x0,0	  x0:0x00000000
       66735000	      6672	80001cb8	00000013	addi	x0,x0,0	  x0:0x00000000
       66745000	      6673	80001cbc	004000ef	jal	x1,80001cbc	  x1=0x80001cbc
       66755000	      6674	00000000	00000013	addi	x0,x0,0	  x0:0x00000000
       66765000	      6675	80001cbc	00000013	addi	x0,x0,0	  x0:0x00000000
       66775000	      6676	80001cc0	3b31cb93	xori	x23,x3,947	  x3:0x80001bf8 x23=0x8000184b
       66785000	      6677	80001cc4	020000ef	jal	x1,80001cc4	  x1=0x80001cc4
       66795000	      6678	00000000	00000013	addi	x0,x0,0	  x0:0x00000000
       66805000	      6679	80001ce0	00000013	addi	x0,x0,0	  x0:0x00000000
       66815000	      6680	80001ce4	fe9ff7ef	jal	x15,80001ce4	 x15=0x80001ce4
       66825000	      6681	00000000	00000013	addi	x0,x0,0	  x0:0x00000000
       66835000	      6682	80001cc8	00000013	addi	x0,x0,0	  x0:0x00000000
       66845000	      6683	80001ccc	0200036f	jal	x6,80001ccc	  x6=0x80001ccc
       66855000	      6684	00000000	00000013	addi	x0,x0,0	  x0:0x00000000
       66865000	      6685	80001ce8	00000013	addi	x0,x0,0	  x0:0x00000000
       66875000	      6686	80001cec	008000ef	jal	x1,80001cec	  x1=0x80001cec
       66885000	      6687	00000000	00000013	addi	x0,x0,0	  x0:0x00000000
       66895000	      6688	80001cf0	00000013	addi	x0,x0,0	  x0:0x00000000
       66905000	      6689	80001cf4	ffdff0ef	jal	x1,80001cf4	  x1=0x80001cf4
       66915000	      6690	00000000	00000013	addi	x0,x0,0	  x0:0x00000000
       66925000	      6691	80001cec	00000013	addi	x0,x0,0	  x0:0x00000000
       66935000	      6692	80001cf0	010002ef	jal	x5,80001cf0	  x5=0x80001cf0
       66945000	      6693	00000000	00000013	addi	x0,x0,0	  x0:0x00000000
       66955000	      6694	80001cfc	00000013	addi	x0,x0,0	  x0:0x00000000
       66965000	      6695	80001d00	ffdffb6f	jal	x22,80001d00	 x22=0x80001d00
       66975000	      6696	00000000	00000013	addi	x0,x0,0	  x0:0x00000000
       66985000	      6697	80001cf8	00000013	addi	x0,x0,0	  x0:0x00000000
       66995000	      6698	80001cfc	040000ef	jal	x1,80001cfc	  x1=0x80001cfc
       67005000	      6699	00000000	00000013	addi	x0,x0,0	  x0:0x00000000
       67015000	      6700	80001d38	00000013	addi	x0,x0,0	  x0:0x00000000
       67025000	      6701	80001d3c	fbdff0ef	jal	x1,80001d3c	  x1=0x80001d3c
       67035000	      6702	00000000	00000013	addi	x0,x0,0	  x0:0x00000000
       67045000	      6703	80001cf4	00000013	addi	x0,x0,0	  x0:0x00000000
       67055000	      6704	80001cf8	030000ef	jal	x1,80001cf8	  x1=0x80001cf8
       67065000	      6705	00000000	00000013	addi	x0,x0,0	  x0:0x00000000
       67075000	      6706	80001d24	00000013	addi	x0,x0,0	  x0:0x00000000
       67085000	      6707	80001d28	fadff0ef	jal	x1,80001d28	  x1=0x80001d28
       67095000	      6708	00000000	00000013	addi	x0,x0,0	  x0:0x00000000
       67105000	      6709	80001cd0	00000013	addi	x0,x0,0	  x0:0x00000000
       67115000	      6710	80001cd4	060000ef	jal	x1,80001cd4	  x1=0x80001cd4
       67125000	      6711	00000000	00000013	addi	x0,x0,0	  x0:0x00000000
       67135000	      6712	80001d30	00000013	addi	x0,x0,0	  x0:0x00000000
       67145000	      6713	80001d34	ff1ff0ef	jal	x1,80001d34	  x1=0x80001d34
       67155000	      6714	00000000	00000013	addi	x0,x0,0	  x0:0x00000000
       67165000	      6715	80001d20	00000013	addi	x0,x0,0	  x0:0x00000000
       67175000	      6716	80001d24	fbdff0ef	jal	x1,80001d24	  x1=0x80001d24
       67185000	      6717	00000000	00000013	addi	x0,x0,0	  x0:0x00000000
       67195000	      6718	80001cdc	00000013	addi	x0,x0,0	  x0:0x00000000
       67205000	      6719	80001ce0	03c000ef	jal	x1,80001ce0	  x1=0x80001ce0
       67215000	      6720	00000000	00000013	addi	x0,x0,0	  x0:0x00000000
       67225000	      6721	80001d18	00000013	addi	x0,x0,0	  x0:0x00000000
       67235000	      6722	80001d1c	fbdff36f	jal	x6,80001d1c	  x6=0x80001d1c
       67245000	      6723	00000000	00000013	addi	x0,x0,0	  x0:0x00000000
       67255000	      6724	80001cd4	00000013	addi	x0,x0,0	  x0:0x00000000
       67265000	      6725	80001cd8	0040036f	jal	x6,80001cd8	  x6=0x80001cd8
       67275000	      6726	00000000	00000013	addi	x0,x0,0	  x0:0x00000000
       67285000	      6727	80001cd8	00000013	addi	x0,x0,0	  x0:0x00000000
       67295000	      6728	80001cdc	038000ef	jal	x1,80001cdc	  x1=0x80001cdc
       67305000	      6729	00000000	00000013	addi	x0,x0,0	  x0:0x00000000
       67315000	      6730	80001d10	00000013	addi	x0,x0,0	  x0:0x00000000
       67325000	      6731	80001d14	0240036f	jal	x6,80001d14	  x6=0x80001d14
       67335000	      6732	00000000	00000013	addi	x0,x0,0	  x0:0x00000000
       67345000	      6733	80001d34	00000013	addi	x0,x0,0	  x0:0x00000000
       67355000	      6734	80001d38	f99ff76f	jal	x14,80001d38	 x14=0x80001d38
       67365000	      6735	00000000	00000013	addi	x0,x0,0	  x0:0x00000000
       67375000	      6736	80001ccc	00000013	addi	x0,x0,0	  x0:0x00000000
       67385000	      6737	80001cd0	050000ef	jal	x1,80001cd0	  x1=0x80001cd0
       67395000	      6738	00000000	00000013	addi	x0,x0,0	  x0:0x00000000
       67405000	      6739	80001d1c	00000013	addi	x0,x0,0	  x0:0x00000000
       67415000	      6740	80001d20	fe9ff0ef	jal	x1,80001d20	  x1=0x80001d20
       67425000	      6741	00000000	00000013	addi	x0,x0,0	  x0:0x00000000
       67435000	      6742	80001d04	00000013	addi	x0,x0,0	  x0:0x00000000
       67445000	      6743	80001d08	ffdff0ef	jal	x1,80001d08	  x1=0x80001d08
       67455000	      6744	00000000	00000013	addi	x0,x0,0	  x0:0x00000000
       67465000	      6745	80001d00	00000013	addi	x0,x0,0	  x0:0x00000000
       67475000	      6746	80001d04	fc5ff0ef	jal	x1,80001d04	  x1=0x80001d04
       67485000	      6747	00000000	00000013	addi	x0,x0,0	  x0:0x00000000
       67495000	      6748	80001cc4	00000013	addi	x0,x0,0	  x0:0x00000000
       67505000	      6749	80001cc8	048000ef	jal	x1,80001cc8	  x1=0x80001cc8
       67515000	      6750	00000000	00000013	addi	x0,x0,0	  x0:0x00000000
       67525000	      6751	80001d0c	00000013	addi	x0,x0,0	  x0:0x00000000
       67535000	      6752	80001d10	ffdff56f	jal	x10,80001d10	 x10=0x80001d10
       67545000	      6753	00000000	00000013	addi	x0,x0,0	  x0:0x00000000
       67555000	      6754	80001d08	00000013	addi	x0,x0,0	  x0:0x00000000
       67565000	      6755	80001d0c	00c00bef	jal	x23,80001d0c	 x23=0x80001d0c
       67575000	      6756	00000000	00000013	addi	x0,x0,0	  x0:0x00000000
       67585000	      6757	80001d14	00000013	addi	x0,x0,0	  x0:0x00000000
       67595000	      6758	80001d18	01400fef	jal	x31,80001d18	 x31=0x80001d18
       67605000	      6759	00000000	00000013	addi	x0,x0,0	  x0:0x00000000
       67615000	      6760	80001d28	00000013	addi	x0,x0,0	  x0:0x00000000
       67625000	      6761	80001d2c	fbdff76f	jal	x14,80001d2c	 x14=0x80001d2c
       67635000	      6762	00000000	00000013	addi	x0,x0,0	  x0:0x00000000
       67645000	      6763	80001ce4	00000013	addi	x0,x0,0	  x0:0x00000000
       67655000	      6764	80001ce8	0480036f	jal	x6,80001ce8	  x6=0x80001ce8
       67665000	      6765	00000000	00000013	addi	x0,x0,0	  x0:0x00000000
       67675000	      6766	80001d2c	00000013	addi	x0,x0,0	  x0:0x00000000
       67685000	      6767	80001d30	010000ef	jal	x1,80001d30	  x1=0x80001d30
       67695000	      6768	00000000	00000013	addi	x0,x0,0	  x0:0x00000000
       67705000	      6769	80001d3c	00000013	addi	x0,x0,0	  x0:0x00000000
       67715000	      6770	80001d40	00c7c0b3	xor	x1,x15,x12	 x15:0x80001ce4 x12:0x80001b1c  x1=0x000007f8
       67725000	      6771	80001d44	030000ef	jal	x1,80001d44	  x1=0x80001d44
       67735000	      6772	00000000	00000013	addi	x0,x0,0	  x0:0x00000000
       67745000	      6773	80001d70	00000013	addi	x0,x0,0	  x0:0x00000000
       67755000	      6774	80001d74	004000ef	jal	x1,80001d74	  x1=0x80001d74
       67765000	      6775	00000000	00000013	addi	x0,x0,0	  x0:0x00000000
       67775000	      6776	80001d74	00000013	addi	x0,x0,0	  x0:0x00000000
       67785000	      6777	80001d78	01c000ef	jal	x1,80001d78	  x1=0x80001d78
       67795000	      6778	00000000	00000013	addi	x0,x0,0	  x0:0x00000000
       67805000	      6779	80001d90	00000013	addi	x0,x0,0	  x0:0x00000000
       67815000	      6780	80001d94	fc5ff36f	jal	x6,80001d94	  x6=0x80001d94
       67825000	      6781	00000000	00000013	addi	x0,x0,0	  x0:0x00000000
       67835000	      6782	80001d54	00000013	addi	x0,x0,0	  x0:0x00000000
       67845000	      6783	80001d58	034000ef	jal	x1,80001d58	  x1=0x80001d58
       67855000	      6784	00000000	00000013	addi	x0,x0,0	  x0:0x00000000
       67865000	      6785	80001d88	00000013	addi	x0,x0,0	  x0:0x00000000
       67875000	      6786	80001d8c	fddff76f	jal	x14,80001d8c	 x14=0x80001d8c
       67885000	      6787	00000000	00000013	addi	x0,x0,0	  x0:0x00000000
       67895000	      6788	80001d64	00000013	addi	x0,x0,0	  x0:0x00000000
       67905000	      6789	80001d68	ff5ff36f	jal	x6,80001d68	  x6=0x80001d68
       67915000	      6790	00000000	00000013	addi	x0,x0,0	  x0:0x00000000
       67925000	      6791	80001d58	00000013	addi	x0,x0,0	  x0:0x00000000
       67935000	      6792	80001d5c	004000ef	jal	x1,80001d5c	  x1=0x80001d5c
       67945000	      6793	00000000	00000013	addi	x0,x0,0	  x0:0x00000000
       67955000	      6794	80001d5c	00000013	addi	x0,x0,0	  x0:0x00000000
       67965000	      6795	80001d60	fedff0ef	jal	x1,80001d60	  x1=0x80001d60
       67975000	      6796	00000000	00000013	addi	x0,x0,0	  x0:0x00000000
       67985000	      6797	80001d48	00000013	addi	x0,x0,0	  x0:0x00000000
       67995000	      6798	80001d4c	ffdff36f	jal	x6,80001d4c	  x6=0x80001d4c
       68005000	      6799	00000000	00000013	addi	x0,x0,0	  x0:0x00000000
       68015000	      6800	80001d44	00000013	addi	x0,x0,0	  x0:0x00000000
       68025000	      6801	80001d48	050000ef	jal	x1,80001d48	  x1=0x80001d48
       68035000	      6802	00000000	00000013	addi	x0,x0,0	  x0:0x00000000
       68045000	      6803	80001d94	00000013	addi	x0,x0,0	  x0:0x00000000
       68055000	      6804	80001d98	fd5ff36f	jal	x6,80001d98	  x6=0x80001d98
       68065000	      6805	00000000	00000013	addi	x0,x0,0	  x0:0x00000000
       68075000	      6806	80001d68	00000013	addi	x0,x0,0	  x0:0x00000000
       68085000	      6807	80001d6c	014000ef	jal	x1,80001d6c	  x1=0x80001d6c
       68095000	      6808	00000000	00000013	addi	x0,x0,0	  x0:0x00000000
       68105000	      6809	80001d7c	00000013	addi	x0,x0,0	  x0:0x00000000
       68115000	      6810	80001d80	010005ef	jal	x11,80001d80	 x11=0x80001d80
       68125000	      6811	00000000	00000013	addi	x0,x0,0	  x0:0x00000000
       68135000	      6812	80001d8c	00000013	addi	x0,x0,0	  x0:0x00000000
       68145000	      6813	80001d90	ff5ff0ef	jal	x1,80001d90	  x1=0x80001d90
       68155000	      6814	00000000	00000013	addi	x0,x0,0	  x0:0x00000000
       68165000	      6815	80001d80	00000013	addi	x0,x0,0	  x0:0x00000000
       68175000	      6816	80001d84	004000ef	jal	x1,80001d84	  x1=0x80001d84
       68185000	      6817	00000000	00000013	addi	x0,x0,0	  x0:0x00000000
       68195000	      6818	80001d84	00000013	addi	x0,x0,0	  x0:0x00000000
       68205000	      6819	80001d88	fe9ff1ef	jal	x3,80001d88	  x3=0x80001d88
       68215000	      6820	00000000	00000013	addi	x0,x0,0	  x0:0x00000000
       68225000	      6821	80001d6c	00000013	addi	x0,x0,0	  x0:0x00000000
       68235000	      6822	80001d70	fe5ff0ef	jal	x1,80001d70	  x1=0x80001d70
       68245000	      6823	00000000	00000013	addi	x0,x0,0	  x0:0x00000000
       68255000	      6824	80001d50	00000013	addi	x0,x0,0	  x0:0x00000000
       68265000	      6825	80001d54	ffdff36f	jal	x6,80001d54	  x6=0x80001d54
       68275000	      6826	00000000	00000013	addi	x0,x0,0	  x0:0x00000000
       68285000	      6827	80001d4c	00000013	addi	x0,x0,0	  x0:0x00000000
       68295000	      6828	80001d50	0140036f	jal	x6,80001d50	  x6=0x80001d50
       68305000	      6829	00000000	00000013	addi	x0,x0,0	  x0:0x00000000
       68315000	      6830	80001d60	00000013	addi	x0,x0,0	  x0:0x00000000
       68325000	      6831	80001d64	018000ef	jal	x1,80001d64	  x1=0x80001d64
       68335000	      6832	00000000	00000013	addi	x0,x0,0	  x0:0x00000000
       68345000	      6833	80001d78	00000013	addi	x0,x0,0	  x0:0x00000000
       68355000	      6834	80001d7c	0200036f	jal	x6,80001d7c	  x6=0x80001d7c
       68365000	      6835	00000000	00000013	addi	x0,x0,0	  x0:0x00000000
       68375000	      6836	80001d98	00000013	addi	x0,x0,0	  x0:0x00000000
       68385000	      6837	80001d9c	01434233	xor	x4,x6,x20	  x6:0x80001d7c x20:0x80001c00  x4=0x0000017c
       68395000	      6838	80001da0	004000ef	jal	x1,80001da0	  x1=0x80001da0
       68405000	      6839	00000000	00000013	addi	x0,x0,0	  x0:0x00000000
       68415000	      6840	80001da0	00000013	addi	x0,x0,0	  x0:0x00000000
       68425000	      6841	80001da4	008000ef	jal	x1,80001da4	  x1=0x80001da4
       68435000	      6842	00000000	00000013	addi	x0,x0,0	  x0:0x00000000
       68445000	      6843	80001da8	00000013	addi	x0,x0,0	  x0:0x00000000
       68455000	      6844	80001dac	02000c6f	jal	x24,80001dac	 x24=0x80001dac
       68465000	      6845	00000000	00000013	addi	x0,x0,0	  x0:0x00000000
       68475000	      6846	80001dc8	00000013	addi	x0,x0,0	  x0:0x00000000
       68485000	      6847	80001dcc	004000ef	jal	x1,80001dcc	  x1=0x80001dcc
       68495000	      6848	00000000	00000013	addi	x0,x0,0	  x0:0x00000000
       68505000	      6849	80001dcc	00000013	addi	x0,x0,0	  x0:0x00000000
       68515000	      6850	80001dd0	ff5ff16f	jal	x2,80001dd0	  x2=0x80001dd0
       68525000	      6851	00000000	00000013	addi	x0,x0,0	  x0:0x00000000
       68535000	      6852	80001dc0	00000013	addi	x0,x0,0	  x0:0x00000000
       68545000	      6853	80001dc4	ff9fff6f	jal	x30,80001dc4	 x30=0x80001dc4
       68555000	      6854	00000000	00000013	addi	x0,x0,0	  x0:0x00000000
       68565000	      6855	80001db8	00000013	addi	x0,x0,0	  x0:0x00000000
       68575000	      6856	80001dbc	0040026f	jal	x4,80001dbc	  x4=0x80001dbc
       68585000	      6857	00000000	00000013	addi	x0,x0,0	  x0:0x00000000
       68595000	      6858	80001dbc	00000013	addi	x0,x0,0	  x0:0x00000000
       68605000	      6859	80001dc0	ff1ff56f	jal	x10,80001dc0	 x10=0x80001dc0
       68615000	      6860	00000000	00000013	addi	x0,x0,0	  x0:0x00000000
       68625000	      6861	80001dac	00000013	addi	x0,x0,0	  x0:0x00000000
       68635000	      6862	80001db0	004000ef	jal	x1,80001db0	  x1=0x80001db0
       68645000	      6863	00000000	00000013	addi	x0,x0,0	  x0:0x00000000
       68655000	      6864	80001db0	00000013	addi	x0,x0,0	  x0:0x00000000
       68665000	      6865	80001db4	ff5ff36f	jal	x6,80001db4	  x6=0x80001db4
       68675000	      6866	00000000	00000013	addi	x0,x0,0	  x0:0x00000000
       68685000	      6867	80001da4	00000013	addi	x0,x0,0	  x0:0x00000000
       68695000	      6868	80001da8	0200036f	jal	x6,80001da8	  x6=0x80001da8
       68705000	      6869	00000000	00000013	addi	x0,x0,0	  x0:0x00000000
       68715000	      6870	80001dc4	00000013	addi	x0,x0,0	  x0:0x00000000
       68725000	      6871	80001dc8	ff1ff36f	jal	x6,80001dc8	  x6=0x80001dc8
       68735000	      6872	00000000	00000013	addi	x0,x0,0	  x0:0x00000000
       68745000	      6873	80001db4	00000013	addi	x0,x0,0	  x0:0x00000000
       68755000	      6874	80001db8	01c0016f	jal	x2,80001db8	  x2=0x80001db8
       68765000	      6875	00000000	00000013	addi	x0,x0,0	  x0:0x00000000
       68775000	      6876	80001dd0	00000013	addi	x0,x0,0	  x0:0x00000000
       68785000	      6877	80001dd4	418053b3	sra	x7,x0,x24	  x0:0x00000000 x24:0x80001dac  x7=0x00000000
       68795000	      6878	80001dd8	00c000ef	jal	x1,80001dd8	  x1=0x80001dd8
       68805000	      6879	00000000	00000013	addi	x0,x0,0	  x0:0x00000000
       68815000	      6880	80001de0	00000013	addi	x0,x0,0	  x0:0x00000000
       68825000	      6881	80001de4	040000ef	jal	x1,80001de4	  x1=0x80001de4
       68835000	      6882	00000000	00000013	addi	x0,x0,0	  x0:0x00000000
       68845000	      6883	80001e20	00000013	addi	x0,x0,0	  x0:0x00000000
       68855000	      6884	80001e24	fc5ff0ef	jal	x1,80001e24	  x1=0x80001e24
       68865000	      6885	00000000	00000013	addi	x0,x0,0	  x0:0x00000000
       68875000	      6886	80001de4	00000013	addi	x0,x0,0	  x0:0x00000000
       68885000	      6887	80001de8	008000ef	jal	x1,80001de8	  x1=0x80001de8
       68895000	      6888	00000000	00000013	addi	x0,x0,0	  x0:0x00000000
       68905000	      6889	80001dec	00000013	addi	x0,x0,0	  x0:0x00000000
       68915000	      6890	80001df0	02c0036f	jal	x6,80001df0	  x6=0x80001df0
       68925000	      6891	00000000	00000013	addi	x0,x0,0	  x0:0x00000000
       68935000	      6892	80001e18	00000013	addi	x0,x0,0	  x0:0x00000000
       68945000	      6893	80001e1c	fc5ff0ef	jal	x1,80001e1c	  x1=0x80001e1c
       68955000	      6894	00000000	00000013	addi	x0,x0,0	  x0:0x00000000
       68965000	      6895	80001ddc	00000013	addi	x0,x0,0	  x0:0x00000000
       68975000	      6896	80001de0	040000ef	jal	x1,80001de0	  x1=0x80001de0
       68985000	      6897	00000000	00000013	addi	x0,x0,0	  x0:0x00000000
       68995000	      6898	80001e1c	00000013	addi	x0,x0,0	  x0:0x00000000
       69005000	      6899	80001e20	ff1ff0ef	jal	x1,80001e20	  x1=0x80001e20
       69015000	      6900	00000000	00000013	addi	x0,x0,0	  x0:0x00000000
       69025000	      6901	80001e0c	00000013	addi	x0,x0,0	  x0:0x00000000
       69035000	      6902	80001e10	ffdff36f	jal	x6,80001e10	  x6=0x80001e10
       69045000	      6903	00000000	00000013	addi	x0,x0,0	  x0:0x00000000
       69055000	      6904	80001e08	00000013	addi	x0,x0,0	  x0:0x00000000
       69065000	      6905	80001e0c	ff1ff36f	jal	x6,80001e0c	  x6=0x80001e0c
       69075000	      6906	00000000	00000013	addi	x0,x0,0	  x0:0x00000000
       69085000	      6907	80001df8	00000013	addi	x0,x0,0	  x0:0x00000000
       69095000	      6908	80001dfc	008000ef	jal	x1,80001dfc	  x1=0x80001dfc
       69105000	      6909	00000000	00000013	addi	x0,x0,0	  x0:0x00000000
       69115000	      6910	80001e00	00000013	addi	x0,x0,0	  x0:0x00000000
       69125000	      6911	80001e04	ffdff0ef	jal	x1,80001e04	  x1=0x80001e04
       69135000	      6912	00000000	00000013	addi	x0,x0,0	  x0:0x00000000
       69145000	      6913	80001dfc	00000013	addi	x0,x0,0	  x0:0x00000000
       69155000	      6914	80001e00	008000ef	jal	x1,80001e00	  x1=0x80001e00
       69165000	      6915	00000000	00000013	addi	x0,x0,0	  x0:0x00000000
       69175000	      6916	80001e04	00000013	addi	x0,x0,0	  x0:0x00000000
       69185000	      6917	80001e08	00c0056f	jal	x10,80001e08	 x10=0x80001e08
       69195000	      6918	00000000	00000013	addi	x0,x0,0	  x0:0x00000000
       69205000	      6919	80001e10	00000013	addi	x0,x0,0	  x0:0x00000000
       69215000	      6920	80001e14	fe1ff26f	jal	x4,80001e14	  x4=0x80001e14
       69225000	      6921	00000000	00000013	addi	x0,x0,0	  x0:0x00000000
       69235000	      6922	80001df0	00000013	addi	x0,x0,0	  x0:0x00000000
       69245000	      6923	80001df4	fe9ff36f	jal	x6,80001df4	  x6=0x80001df4
       69255000	      6924	00000000	00000013	addi	x0,x0,0	  x0:0x00000000
       69265000	      6925	80001dd8	00000013	addi	x0,x0,0	  x0:0x00000000
       69275000	      6926	80001ddc	0100036f	jal	x6,80001ddc	  x6=0x80001ddc
       69285000	      6927	00000000	00000013	addi	x0,x0,0	  x0:0x00000000
       69295000	      6928	80001de8	00000013	addi	x0,x0,0	  x0:0x00000000
       69305000	      6929	80001dec	00c001ef	jal	x3,80001dec	  x3=0x80001dec
       69315000	      6930	00000000	00000013	addi	x0,x0,0	  x0:0x00000000
       69325000	      6931	80001df4	00000013	addi	x0,x0,0	  x0:0x00000000
       69335000	      6932	80001df8	030000ef	jal	x1,80001df8	  x1=0x80001df8
       69345000	      6933	00000000	00000013	addi	x0,x0,0	  x0:0x00000000
       69355000	      6934	80001e24	00000013	addi	x0,x0,0	  x0:0x00000000
       69365000	      6935	80001e28	ff1ff0ef	jal	x1,80001e28	  x1=0x80001e28
       69375000	      6936	00000000	00000013	addi	x0,x0,0	  x0:0x00000000
       69385000	      6937	80001e14	00000013	addi	x0,x0,0	  x0:0x00000000
       69395000	      6938	80001e18	014000ef	jal	x1,80001e18	  x1=0x80001e18
       69405000	      6939	00000000	00000013	addi	x0,x0,0	  x0:0x00000000
       69415000	      6940	80001e28	00000013	addi	x0,x0,0	  x0:0x00000000
       69425000	      6941	80001e2c	0133d5b3	srl	x11,x7,x19	  x7:0x00000000 x19:0x80001ba8 x11=0x00000000
       69435000	      6942	80001e30	008000ef	jal	x1,80001e30	  x1=0x80001e30
       69445000	      6943	00000000	00000013	addi	x0,x0,0	  x0:0x00000000
       69455000	      6944	80001e34	00000013	addi	x0,x0,0	  x0:0x00000000
       69465000	      6945	80001e38	030000ef	jal	x1,80001e38	  x1=0x80001e38
       69475000	      6946	00000000	00000013	addi	x0,x0,0	  x0:0x00000000
       69485000	      6947	80001e64	00000013	addi	x0,x0,0	  x0:0x00000000
       69495000	      6948	80001e68	0080036f	jal	x6,80001e68	  x6=0x80001e68
       69505000	      6949	00000000	00000013	addi	x0,x0,0	  x0:0x00000000
       69515000	      6950	80001e6c	00000013	addi	x0,x0,0	  x0:0x00000000
       69525000	      6951	80001e70	fe9ff36f	jal	x6,80001e70	  x6=0x80001e70
       69535000	      6952	00000000	00000013	addi	x0,x0,0	  x0:0x00000000
       69545000	      6953	80001e54	00000013	addi	x0,x0,0	  x0:0x00000000
       69555000	      6954	80001e58	014000ef	jal	x1,80001e58	  x1=0x80001e58
       69565000	      6955	00000000	00000013	addi	x0,x0,0	  x0:0x00000000
       69575000	      6956	80001e68	00000013	addi	x0,x0,0	  x0:0x00000000
       69585000	      6957	80001e6c	fe5ff0ef	jal	x1,80001e6c	  x1=0x80001e6c
       69595000	      6958	00000000	00000013	addi	x0,x0,0	  x0:0x00000000
       69605000	      6959	80001e4c	00000013	addi	x0,x0,0	  x0:0x00000000
       69615000	      6960	80001e50	ffdff3ef	jal	x7,80001e50	  x7=0x80001e50
       69625000	      6961	00000000	00000013	addi	x0,x0,0	  x0:0x00000000
       69635000	      6962	80001e48	00000013	addi	x0,x0,0	  x0:0x00000000
       69645000	      6963	80001e4c	00800f6f	jal	x30,80001e4c	 x30=0x80001e4c
       69655000	      6964	00000000	00000013	addi	x0,x0,0	  x0:0x00000000
       69665000	      6965	80001e50	00000013	addi	x0,x0,0	  x0:0x00000000
       69675000	      6966	80001e54	0200036f	jal	x6,80001e54	  x6=0x80001e54
       69685000	      6967	00000000	00000013	addi	x0,x0,0	  x0:0x00000000
       69695000	      6968	80001e70	00000013	addi	x0,x0,0	  x0:0x00000000
       69705000	      6969	80001e74	ff1ff0ef	jal	x1,80001e74	  x1=0x80001e74
       69715000	      6970	00000000	00000013	addi	x0,x0,0	  x0:0x00000000
       69725000	      6971	80001e60	00000013	addi	x0,x0,0	  x0:0x00000000
       69735000	      6972	80001e64	fd1ff0ef	jal	x1,80001e64	  x1=0x80001e64
       69745000	      6973	00000000	00000013	addi	x0,x0,0	  x0:0x00000000
       69755000	      6974	80001e30	00000013	addi	x0,x0,0	  x0:0x00000000
       69765000	      6975	80001e34	00c000ef	jal	x1,80001e34	  x1=0x80001e34
       69775000	      6976	00000000	00000013	addi	x0,x0,0	  x0:0x00000000
       69785000	      6977	80001e3c	00000013	addi	x0,x0,0	  x0:0x00000000
       69795000	      6978	80001e40	0380036f	jal	x6,80001e40	  x6=0x80001e40
       69805000	      6979	00000000	00000013	addi	x0,x0,0	  x0:0x00000000
       69815000	      6980	80001e74	00000013	addi	x0,x0,0	  x0:0x00000000
       69825000	      6981	80001e78	fe9ff0ef	jal	x1,80001e78	  x1=0x80001e78
       69835000	      6982	00000000	00000013	addi	x0,x0,0	  x0:0x00000000
       69845000	      6983	80001e5c	00000013	addi	x0,x0,0	  x0:0x00000000
       69855000	      6984	80001e60	fe9ff0ef	jal	x1,80001e60	  x1=0x80001e60
       69865000	      6985	00000000	00000013	addi	x0,x0,0	  x0:0x00000000
       69875000	      6986	80001e44	00000013	addi	x0,x0,0	  x0:0x00000000
       69885000	      6987	80001e48	ff5ff86f	jal	x16,80001e48	 x16=0x80001e48
       69895000	      6988	00000000	00000013	addi	x0,x0,0	  x0:0x00000000
       69905000	      6989	80001e38	00000013	addi	x0,x0,0	  x0:0x00000000
       69915000	      6990	80001e3c	020000ef	jal	x1,80001e3c	  x1=0x80001e3c
       69925000	      6991	00000000	00000013	addi	x0,x0,0	  x0:0x00000000
       69935000	      6992	80001e58	00000013	addi	x0,x0,0	  x0:0x00000000
       69945000	      6993	80001e5c	fe9fff6f	jal	x30,80001e5c	 x30=0x80001e5c
       69955000	      6994	00000000	00000013	addi	x0,x0,0	  x0:0x00000000
       69965000	      6995	80001e40	00000013	addi	x0,x0,0	  x0:0x00000000
       69975000	      6996	80001e44	038000ef	jal	x1,80001e44	  x1=0x80001e44
       69985000	      6997	00000000	00000013	addi	x0,x0,0	  x0:0x00000000
       69995000	      6998	80001e78	00000013	addi	x0,x0,0	  x0:0x00000000
       70005000	      6999	80001e7c	dcb6beb7	lui	x29,0xdcb6b	 x29=0xdcb6b000
       70015000	      7000	80001e80	020000ef	jal	x1,80001e80	  x1=0x80001e80
       70025000	      7001	00000000	00000013	addi	x0,x0,0	  x0:0x00000000
       70035000	      7002	80001e9c	00000013	addi	x0,x0,0	  x0:0x00000000
       70045000	      7003	80001ea0	014000ef	jal	x1,80001ea0	  x1=0x80001ea0
       70055000	      7004	00000000	00000013	addi	x0,x0,0	  x0:0x00000000
       70065000	      7005	80001eb0	00000013	addi	x0,x0,0	  x0:0x00000000
       70075000	      7006	80001eb4	fe9ff0ef	jal	x1,80001eb4	  x1=0x80001eb4
       70085000	      7007	00000000	00000013	addi	x0,x0,0	  x0:0x00000000
       70095000	      7008	80001e98	00000013	addi	x0,x0,0	  x0:0x00000000
       70105000	      7009	80001e9c	034000ef	jal	x1,80001e9c	  x1=0x80001e9c
       70115000	      7010	00000000	00000013	addi	x0,x0,0	  x0:0x00000000
       70125000	      7011	80001ecc	00000013	addi	x0,x0,0	  x0:0x00000000
       70135000	      7012	80001ed0	fb9ff0ef	jal	x1,80001ed0	  x1=0x80001ed0
       70145000	      7013	00000000	00000013	addi	x0,x0,0	  x0:0x00000000
       70155000	      7014	80001e84	00000013	addi	x0,x0,0	  x0:0x00000000
       70165000	      7015	80001e88	020000ef	jal	x1,80001e88	  x1=0x80001e88
       70175000	      7016	00000000	00000013	addi	x0,x0,0	  x0:0x00000000
       70185000	      7017	80001ea4	00000013	addi	x0,x0,0	  x0:0x00000000
       70195000	      7018	80001ea8	0380036f	jal	x6,80001ea8	  x6=0x80001ea8
       70205000	      7019	00000000	00000013	addi	x0,x0,0	  x0:0x00000000
       70215000	      7020	80001edc	00000013	addi	x0,x0,0	  x0:0x00000000
       70225000	      7021	80001ee0	fe5ffaef	jal	x21,80001ee0	 x21=0x80001ee0
       70235000	      7022	00000000	00000013	addi	x0,x0,0	  x0:0x00000000
       70245000	      7023	80001ec0	00000013	addi	x0,x0,0	  x0:0x00000000
       70255000	      7024	80001ec4	004009ef	jal	x19,80001ec4	 x19=0x80001ec4
       70265000	      7025	00000000	00000013	addi	x0,x0,0	  x0:0x00000000
       70275000	      7026	80001ec4	00000013	addi	x0,x0,0	  x0:0x00000000
       70285000	      7027	80001ec8	010000ef	jal	x1,80001ec8	  x1=0x80001ec8
       70295000	      7028	00000000	00000013	addi	x0,x0,0	  x0:0x00000000
       70305000	      7029	80001ed4	00000013	addi	x0,x0,0	  x0:0x00000000
       70315000	      7030	80001ed8	fd5ff5ef	jal	x11,80001ed8	 x11=0x80001ed8
       70325000	      7031	00000000	00000013	addi	x0,x0,0	  x0:0x00000000
       70335000	      7032	80001ea8	00000013	addi	x0,x0,0	  x0:0x00000000
       70345000	      7033	80001eac	fe5ff0ef	jal	x1,80001eac	  x1=0x80001eac
       70355000	      7034	00000000	00000013	addi	x0,x0,0	  x0:0x00000000
       70365000	      7035	80001e8c	00000013	addi	x0,x0,0	  x0:0x00000000
       70375000	      7036	80001e90	004000ef	jal	x1,80001e90	  x1=0x80001e90
       70385000	      7037	00000000	00000013	addi	x0,x0,0	  x0:0x00000000
       70395000	      7038	80001e90	00000013	addi	x0,x0,0	  x0:0x00000000
       70405000	      7039	80001e94	01c000ef	jal	x1,80001e94	  x1=0x80001e94
       70415000	      7040	00000000	00000013	addi	x0,x0,0	  x0:0x00000000
       70425000	      7041	80001eac	00000013	addi	x0,x0,0	  x0:0x00000000
       70435000	      7042	80001eb0	fe9fff6f	jal	x30,80001eb0	 x30=0x80001eb0
       70445000	      7043	00000000	00000013	addi	x0,x0,0	  x0:0x00000000
       70455000	      7044	80001e94	00000013	addi	x0,x0,0	  x0:0x00000000
       70465000	      7045	80001e98	03c0076f	jal	x14,80001e98	 x14=0x80001e98
       70475000	      7046	00000000	00000013	addi	x0,x0,0	  x0:0x00000000
       70485000	      7047	80001ed0	00000013	addi	x0,x0,0	  x0:0x00000000
       70495000	      7048	80001ed4	0100036f	jal	x6,80001ed4	  x6=0x80001ed4
       70505000	      7049	00000000	00000013	addi	x0,x0,0	  x0:0x00000000
       70515000	      7050	80001ee0	00000013	addi	x0,x0,0	  x0:0x00000000
       70525000	      7051	80001ee4	fa1ff0ef	jal	x1,80001ee4	  x1=0x80001ee4
       70535000	      7052	00000000	00000013	addi	x0,x0,0	  x0:0x00000000
       70545000	      7053	80001e80	00000013	addi	x0,x0,0	  x0:0x00000000
       70555000	      7054	80001e84	03c000ef	jal	x1,80001e84	  x1=0x80001e84
       70565000	      7055	00000000	00000013	addi	x0,x0,0	  x0:0x00000000
       70575000	      7056	80001ebc	00000013	addi	x0,x0,0	  x0:0x00000000
       70585000	      7057	80001ec0	01c009ef	jal	x19,80001ec0	 x19=0x80001ec0
       70595000	      7058	00000000	00000013	addi	x0,x0,0	  x0:0x00000000
       70605000	      7059	80001ed8	00000013	addi	x0,x0,0	  x0:0x00000000
       70615000	      7060	80001edc	fc9ff36f	jal	x6,80001edc	  x6=0x80001edc
       70625000	      7061	00000000	00000013	addi	x0,x0,0	  x0:0x00000000
       70635000	      7062	80001ea0	00000013	addi	x0,x0,0	  x0:0x00000000
       70645000	      7063	80001ea4	028000ef	jal	x1,80001ea4	  x1=0x80001ea4
       70655000	      7064	00000000	00000013	addi	x0,x0,0	  x0:0x00000000
       70665000	      7065	80001ec8	00000013	addi	x0,x0,0	  x0:0x00000000
       70675000	      7066	80001ecc	fedff0ef	jal	x1,80001ecc	  x1=0x80001ecc
       70685000	      7067	00000000	00000013	addi	x0,x0,0	  x0:0x00000000
       70695000	      7068	80001eb4	00000013	addi	x0,x0,0	  x0:0x00000000
       70705000	      7069	80001eb8	fd5ff7ef	jal	x15,80001eb8	 x15=0x80001eb8
       70715000	      7070	00000000	00000013	addi	x0,x0,0	  x0:0x00000000
       70725000	      7071	80001e88	00000013	addi	x0,x0,0	  x0:0x00000000
       70735000	      7072	80001e8c	03000aef	jal	x21,80001e8c	 x21=0x80001e8c
       70745000	      7073	00000000	00000013	addi	x0,x0,0	  x0:0x00000000
       70755000	      7074	80001eb8	00000013	addi	x0,x0,0	  x0:0x00000000
       70765000	      7075	80001ebc	02c00eef	jal	x29,80001ebc	 x29=0x80001ebc
       70775000	      7076	00000000	00000013	addi	x0,x0,0	  x0:0x00000000
       70785000	      7077	80001ee4	00000013	addi	x0,x0,0	  x0:0x00000000
       70795000	      7078	80001ee8	00edf233	and	x4,x27,x14	 x27:0x80009f08 x14:0x80001e98  x4=0x80001e08
       70805000	      7079	80001eec	028000ef	jal	x1,80001eec	  x1=0x80001eec
       70815000	      7080	00000000	00000013	addi	x0,x0,0	  x0:0x00000000
       70825000	      7081	80001f10	00000013	addi	x0,x0,0	  x0:0x00000000
       70835000	      7082	80001f14	ff5ff0ef	jal	x1,80001f14	  x1=0x80001f14
       70845000	      7083	00000000	00000013	addi	x0,x0,0	  x0:0x00000000
       70855000	      7084	80001f04	00000013	addi	x0,x0,0	  x0:0x00000000
       70865000	      7085	80001f08	ff9ff16f	jal	x2,80001f08	  x2=0x80001f08
       70875000	      7086	00000000	00000013	addi	x0,x0,0	  x0:0x00000000
       70885000	      7087	80001efc	00000013	addi	x0,x0,0	  x0:0x00000000
       70895000	      7088	80001f00	00c000ef	jal	x1,80001f00	  x1=0x80001f00
       70905000	      7089	00000000	00000013	addi	x0,x0,0	  x0:0x00000000
       70915000	      7090	80001f08	00000013	addi	x0,x0,0	  x0:0x00000000
       70925000	      7091	80001f0c	0140036f	jal	x6,80001f0c	  x6=0x80001f0c
       70935000	      7092	00000000	00000013	addi	x0,x0,0	  x0:0x00000000
       70945000	      7093	80001f1c	00000013	addi	x0,x0,0	  x0:0x00000000
       70955000	      7094	80001f20	ff1ff0ef	jal	x1,80001f20	  x1=0x80001f20
       70965000	      7095	00000000	00000013	addi	x0,x0,0	  x0:0x00000000
       70975000	      7096	80001f0c	00000013	addi	x0,x0,0	  x0:0x00000000
       70985000	      7097	80001f10	fe1ff0ef	jal	x1,80001f10	  x1=0x80001f10
       70995000	      7098	00000000	00000013	addi	x0,x0,0	  x0:0x00000000
       71005000	      7099	80001eec	00000013	addi	x0,x0,0	  x0:0x00000000
       71015000	      7100	80001ef0	014000ef	jal	x1,80001ef0	  x1=0x80001ef0
       71025000	      7101	00000000	00000013	addi	x0,x0,0	  x0:0x00000000
       71035000	      7102	80001f00	00000013	addi	x0,x0,0	  x0:0x00000000
       71045000	      7103	80001f04	ff9ff7ef	jal	x15,80001f04	 x15=0x80001f04
       71055000	      7104	00000000	00000013	addi	x0,x0,0	  x0:0x00000000
       71065000	      7105	80001ef8	00000013	addi	x0,x0,0	  x0:0x00000000
       71075000	      7106	80001efc	ff9ff36f	jal	x6,80001efc	  x6=0x80001efc
       71085000	      7107	00000000	00000013	addi	x0,x0,0	  x0:0x00000000
       71095000	      7108	80001ef0	00000013	addi	x0,x0,0	  x0:0x00000000
       71105000	      7109	80001ef4	024000ef	jal	x1,80001ef4	  x1=0x80001ef4
       71115000	      7110	00000000	00000013	addi	x0,x0,0	  x0:0x00000000
       71125000	      7111	80001f14	00000013	addi	x0,x0,0	  x0:0x00000000
       71135000	      7112	80001f18	fe1ff0ef	jal	x1,80001f18	  x1=0x80001f18
       71145000	      7113	00000000	00000013	addi	x0,x0,0	  x0:0x00000000
       71155000	      7114	80001ef4	00000013	addi	x0,x0,0	  x0:0x00000000
       71165000	      7115	80001ef8	0240036f	jal	x6,80001ef8	  x6=0x80001ef8
       71175000	      7116	00000000	00000013	addi	x0,x0,0	  x0:0x00000000
       71185000	      7117	80001f18	00000013	addi	x0,x0,0	  x0:0x00000000
       71195000	      7118	80001f1c	008000ef	jal	x1,80001f1c	  x1=0x80001f1c
       71205000	      7119	00000000	00000013	addi	x0,x0,0	  x0:0x00000000
       71215000	      7120	80001f20	00000013	addi	x0,x0,0	  x0:0x00000000
       71225000	      7121	80001f24	b3bdef97	auipc	x31,0xb3bde	 x31=0x33bdff20
       71235000	      7122	80001f28	e0d2b013	sltiu	x0,x5,-499	  x5:0x80001cf0
       71245000	      7123	80001f2c	71a9cb13	xori	x22,x19,1818	 x19:0x80001ec0 x22=0x800019da
       71255000	      7124	80001f30	039ac863	blt	x21,x25,80001f60	 x21:0x80001e8c x25:0x80001aa4
       71265000	      7125	80001f34	40f25313	srai	x6,x4,0xf	  x4:0x80001e08  x6=0xffff0000
       71275000	      7126	80001f38	1752cfb7	lui	x31,0x1752c	 x31=0x1752c000
       71285000	      7127	80001f3c	01f31533	sll	x10,x6,x31	  x6:0xffff0000 x31:0x1752c000 x10=0xffff0000
       71295000	      7128	80001f40	09893c13	sltiu	x24,x18,152	 x18:0x8000185e x24=0x00000000
       71305000	      7129	80001f44	2a0c3813	sltiu	x16,x24,672	 x24:0x00000000 x16=0x00000001
       71315000	      7130	80001f48	01f95033	srl	x0,x18,x31	 x18:0x8000185e x31:0x1752c000
       71325000	      7131	80001f4c	0ce57013	andi	x0,x10,206	 x10:0xffff0000
       71335000	      7132	80001f50	41b4df33	sra	x30,x9,x27	  x9:0x80001b90 x27:0x80009f08 x30=0xff80001b
       71345000	      7133	80001f54	fc2d7e13	andi	x28,x26,-62	 x26:0x00080001 x28=0x00080000
       71355000	      7134	80001f58	24012593	slti	x11,x2,576	  x2:0x80001f08 x11=0x00000001
       71365000	      7135	80001f5c	01dbd093	srli	x1,x23,0x1d	 x23:0x80001d0c  x1=0x00000004
       71375000	      7136	80001f60	72118637	lui	x12,0x72118	 x12=0x72118000
       71385000	      7137	80001f64	045fd863	bge	x31,x5,80001fb4	 x31:0x1752c000  x5:0x80001cf0
       71395000	      7138	00000000	00000013	addi	x0,x0,0	  x0:0x00000000
       71405000	      7139	80001fb0	00000013	addi	x0,x0,0	  x0:0x00000000
       71415000	      7140	80001fb4	03079863	bne	x15,x16,80001fe4	 x15:0x80001f04 x16:0x00000001
       71425000	      7141	00000000	00000013	addi	x0,x0,0	  x0:0x00000000
       71435000	      7142	80001fe0	00000013	addi	x0,x0,0	  x0:0x00000000
       71445000	      7143	80001fe4	0130e833	or	x16,x1,x19	  x1:0x00000004 x19:0x80001ec0 x16=0x80001ec4
       71455000	      7144	80001fe8	01409033	sll	x0,x1,x20	  x1:0x00000004 x20:0x80001c00
       71465000	      7145	80001fec	018dc3b3	xor	x7,x27,x24	 x27:0x80009f08 x24:0x00000000  x7=0x80009f08
       71475000	      7146	80001ff0	025a1663	bne	x20,x5,8000201c	 x20:0x80001c00  x5:0x80001cf0
       71485000	      7147	00000000	00000013	addi	x0,x0,0	  x0:0x00000000
       71495000	      7148	80002018	00000013	addi	x0,x0,0	  x0:0x00000000
       71505000	      7149	8000201c	b116b013	sltiu	x0,x13,-1263	 x13:0x80001c20
       71515000	      7150	80002020	00b64833	xor	x16,x12,x11	 x12:0x72118000 x11:0x00000001 x16=0x72118001
       71525000	      7151	80002024	01a597b3	sll	x15,x11,x26	 x11:0x00000001 x26:0x00080001 x15=0x00000002
       71535000	      7152	80002028	058d5663	bge	x26,x24,80002074	 x26:0x00080001 x24:0x00000000
       71545000	      7153	00000000	00000013	addi	x0,x0,0	  x0:0x00000000
       71555000	      7154	80002070	00000013	addi	x0,x0,0	  x0:0x00000000
       71565000	      7155	80002074	78cfc493	xori	x9,x31,1932	 x31:0x1752c000  x9=0x1752c78c
       71575000	      7156	80002078	019cecb3	or	x25,x25,x25	 x25:0x80001aa4 x25:0x80001aa4 x25=0x80001aa4
       71585000	      7157	8000207c	b726e613	ori	x12,x13,-1166	 x13:0x80001c20 x12=0xffffff72
       71595000	      7158	80002080	98954693	xori	x13,x10,-1655	 x10:0xffff0000 x13=0x0000f989
       71605000	      7159	80002084	05f4d263	bge	x9,x31,800020c8	  x9:0x1752c78c x31:0x1752c000
       71615000	      7160	00000000	00000013	addi	x0,x0,0	  x0:0x00000000
       71625000	      7161	800020c4	00000013	addi	x0,x0,0	  x0:0x00000000
       71635000	      7162	800020c8	410055b3	sra	x11,x0,x16	  x0:0x00000000 x16:0x72118001 x11=0x00000000
       71645000	      7163	800020cc	5f2ac293	xori	x5,x21,1522	 x21:0x80001e8c  x5=0x80001b7e
       71655000	      7164	800020d0	0397de63	bge	x15,x25,8000210c	 x15:0x00000002 x25:0x80001aa4
       71665000	      7165	00000000	00000013	addi	x0,x0,0	  x0:0x00000000
       71675000	      7166	80002108	00000013	addi	x0,x0,0	  x0:0x00000000
       71685000	      7167	8000210c	3e6b0793	addi	x15,x22,998	 x22:0x800019da x15=0x80001dc0
       71695000	      7168	80002110	00e05493	srli	x9,x0,0xe	  x0:0x00000000  x9=0x00000000
       71705000	      7169	80002114	00c2b7b3	sltu	x15,x5,x12	  x5:0x80001b7e x12:0xffffff72 x15=0x00000001
       71715000	      7170	80002118	e1923b13	sltiu	x22,x4,-487	  x4:0x80001e08 x22=0x00000001
       71725000	      7171	8000211c	88fd2313	slti	x6,x26,-1905	 x26:0x00080001  x6=0x00000000
       71735000	      7172	80002120	7b5bc217	auipc	x4,0x7b5bc	  x4=0xfb5be11c
       71745000	      7173	80002124	296af593	andi	x11,x21,662	 x21:0x80001e8c x11=0x00000284
       71755000	      7174	80002128	00b11c13	slli	x24,x2,0xb	  x2:0x80001f08 x24=0x00f84000
       71765000	      7175	8000212c	6a12a113	slti	x2,x5,1697	  x5:0x80001b7e  x2=0x00000001
       71775000	      7176	80002130	d0118513	addi	x10,x3,-767	  x3:0x80001dec x10=0x80001aed
       71785000	      7177	80002134	6d8ba093	slti	x1,x23,1752	 x23:0x80001d0c  x1=0x00000001
       71795000	      7178	80002138	c401b593	sltiu	x11,x3,-960	  x3:0x80001dec x11=0x00000001
       71805000	      7179	8000213c	04894263	blt	x18,x8,80002180	 x18:0x8000185e  x8:0x80009fc4
       71815000	      7180	00000000	00000013	addi	x0,x0,0	  x0:0x00000000
       71825000	      7181	8000217c	00000013	addi	x0,x0,0	  x0:0x00000000
       71835000	      7182	80002180	01d29793	slli	x15,x5,0x1d	  x5:0x80001b7e x15=0xc0000000
       71845000	      7183	80002184	95d13f93	sltiu	x31,x2,-1699	  x2:0x00000001 x31=0x00000001
       71855000	      7184	80002188	00c4f233	and	x4,x9,x12	  x9:0x00000000 x12:0xffffff72  x4=0x00000000
       71865000	      7185	8000218c	3720a337	lui	x6,0x3720a	  x6=0x3720a000
       71875000	      7186	80002190	01d85533	srl	x10,x16,x29	 x16:0x72118001 x29:0x80001ebc x10=0x00000007
       71885000	      7187	80002194	027f6663	bltu	x30,x7,800021c0	 x30:0xff80001b  x7:0x80009f08
       71895000	      7188	80002198	40898fb3	sub	x31,x19,x8	 x19:0x80001ec0  x8:0x80009fc4 x31=0xffff7efc
       71905000	      7189	8000219c	409c5313	srai	x6,x24,0x9	 x24:0x00f84000  x6=0x00007c20
       71915000	      7190	800021a0	541e8d13	addi	x26,x29,1345	 x29:0x80001ebc x26=0x800023fd
       71925000	      7191	800021a4	28496c37	lui	x24,0x28496	 x24=0x28496000
       71935000	      7192	800021a8	4184d093	srai	x1,x9,0x18	  x9:0x00000000  x1=0x00000000
       71945000	      7193	800021ac	00f6c713	xori	x14,x13,15	 x13:0x0000f989 x14=0x0000f986
       71955000	      7194	800021b0	0072d9b3	srl	x19,x5,x7	  x5:0x80001b7e  x7:0x80009f08 x19=0x0080001b
       71965000	      7195	800021b4	005f6633	or	x12,x30,x5	 x30:0xff80001b  x5:0x80001b7e x12=0xff801b7f
       71975000	      7196	800021b8	01d39b33	sll	x22,x7,x29	  x7:0x80009f08 x29:0x80001ebc x22=0x80000000
       71985000	      7197	800021bc	01069863	bne	x13,x16,800021cc	 x13:0x0000f989 x16:0x72118001
       71995000	      7198	00000000	00000013	addi	x0,x0,0	  x0:0x00000000
       72005000	      7199	800021c8	00000013	addi	x0,x0,0	  x0:0x00000000
       72015000	      7200	800021cc	4161cf13	xori	x30,x3,1046	  x3:0x80001dec x30=0x800019fa
       72025000	      7201	800021d0	017b6e63	bltu	x22,x23,800021ec	 x22:0x80000000 x23:0x80001d0c
       72035000	      7202	00000000	00000013	addi	x0,x0,0	  x0:0x00000000
       72045000	      7203	800021e8	00000013	addi	x0,x0,0	  x0:0x00000000
       72055000	      7204	800021ec	051b5463	bge	x22,x17,80002234	 x22:0x80000000 x17:0x0000000c
       72065000	      7205	800021f0	00000013	addi	x0,x0,0	  x0:0x00000000
       72075000	      7206	800021f4	7cb98b93	addi	x23,x19,1995	 x19:0x0080001b x23=0x008007e6
       72085000	      7207	800021f8	00209e63	bne	x1,x2,80002214	  x1:0x00000000  x2:0x00000001
       72095000	      7208	00000000	00000013	addi	x0,x0,0	  x0:0x00000000
       72105000	      7209	80002210	00000013	addi	x0,x0,0	  x0:0x00000000
       72115000	      7210	80002214	dbb7bfb7	lui	x31,0xdbb7b	 x31=0xdbb7b000
       72125000	      7211	80002218	01561513	slli	x10,x12,0x15	 x12:0xff801b7f x10=0x6fe00000
       72135000	      7212	8000221c	00044eb3	xor	x29,x8,x0	  x8:0x80009fc4  x0:0x00000000 x29=0x80009fc4
       72145000	      7213	80002220	011d1fb3	sll	x31,x26,x17	 x26:0x800023fd x17:0x0000000c x31=0x023fd000
       72155000	      7214	80002224	027fd463	bge	x31,x7,8000224c	 x31:0x023fd000  x7:0x80009f08
       72165000	      7215	00000000	00000013	addi	x0,x0,0	  x0:0x00000000
       72175000	      7216	80002248	00000013	addi	x0,x0,0	  x0:0x00000000
       72185000	      7217	8000224c	4190dd33	sra	x26,x1,x25	  x1:0x00000000 x25:0x80001aa4 x26=0x00000000
       72195000	      7218	80002250	40e90733	sub	x14,x18,x14	 x18:0x8000185e x14:0x0000f986 x14=0x7fff1ed8
       72205000	      7219	80002254	010a67b3	or	x15,x20,x16	 x20:0x80001c00 x16:0x72118001 x15=0xf2119c01
       72215000	      7220	80002258	0008f663	bgeu	x17,x0,80002264	 x17:0x0000000c  x0:0x00000000
       72225000	      7221	00000000	00000013	addi	x0,x0,0	  x0:0x00000000
       72235000	      7222	80002260	00000013	addi	x0,x0,0	  x0:0x00000000
       72245000	      7223	80002264	343ec293	xori	x5,x29,835	 x29:0x80009fc4  x5=0x80009c87
       72255000	      7224	80002268	004af333	and	x6,x21,x4	 x21:0x80001e8c  x4:0x00000000  x6=0x00000000
       72265000	      7225	8000226c	016454b3	srl	x9,x8,x22	  x8:0x80009fc4 x22:0x80000000  x9=0x80009fc4
       72275000	      7226	80002270	41e10a33	sub	x20,x2,x30	  x2:0x00000001 x30:0x800019fa x20=0x7fffe607
       72285000	      7227	80002274	6c9e4793	xori	x15,x28,1737	 x28:0x00080000 x15=0x000806c9
       72295000	      7228	80002278	21287d13	andi	x26,x16,530	 x16:0x72118001 x26=0x00000000
       72305000	      7229	8000227c	41a25993	srai	x19,x4,0x1a	  x4:0x00000000 x19=0x00000000
       72315000	      7230	80002280	03347863	bgeu	x8,x19,800022b0	  x8:0x80009fc4 x19:0x00000000
       72325000	      7231	00000000	00000013	addi	x0,x0,0	  x0:0x00000000
       72335000	      7232	800022ac	00000013	addi	x0,x0,0	  x0:0x00000000
       72345000	      7233	800022b0	01a23b33	sltu	x22,x4,x26	  x4:0x00000000 x26:0x00000000 x22=0x00000000
       72355000	      7234	800022b4	01e102b3	add	x5,x2,x30	  x2:0x00000001 x30:0x800019fa  x5=0x800019fb
       72365000	      7235	800022b8	01229013	slli	x0,x5,0x12	  x5:0x800019fb
       72375000	      7236	800022bc	509ac993	xori	x19,x21,1289	 x21:0x80001e8c x19=0x80001b85
       72385000	      7237	800022c0	4339b9b7	lui	x19,0x4339b	 x19=0x4339b000
       72395000	      7238	800022c4	00b6ee33	or	x28,x13,x11	 x13:0x0000f989 x11:0x00000001 x28=0x0000f989
       72405000	      7239	800022c8	41aad913	srai	x18,x21,0x1a	 x21:0x80001e8c x18=0xffffffe0
       72415000	      7240	800022cc	00000013	addi	x0,x0,0	  x0:0x00000000
       72425000	      7241	800022d0	9df5d737	lui	x14,0x9df5d	 x14=0x9df5d000
       72435000	      7242	800022d4	00086333	or	x6,x16,x0	 x16:0x72118001  x0:0x00000000  x6=0x72118001
       72445000	      7243	800022d8	013c3a33	sltu	x20,x24,x19	 x24:0x28496000 x19:0x4339b000 x20=0x00000001
       72455000	      7244	800022dc	00d7de13	srli	x28,x15,0xd	 x15:0x000806c9 x28=0x00000040
       72465000	      7245	800022e0	01511863	bne	x2,x21,800022f0	  x2:0x00000001 x21:0x80001e8c
       72475000	      7246	00000000	00000013	addi	x0,x0,0	  x0:0x00000000
       72485000	      7247	800022ec	00000013	addi	x0,x0,0	  x0:0x00000000
       72495000	      7248	800022f0	014afbb3	and	x23,x21,x20	 x21:0x80001e8c x20:0x00000001 x23=0x00000000
       72505000	      7249	800022f4	03607663	bgeu	x0,x22,80002320	  x0:0x00000000 x22:0x00000000
       72515000	      7250	00000000	00000013	addi	x0,x0,0	  x0:0x00000000
       72525000	      7251	8000231c	00000013	addi	x0,x0,0	  x0:0x00000000
       72535000	      7252	80002320	e08ee493	ori	x9,x29,-504	 x29:0x80009fc4  x9=0xffffffcc
       72545000	      7253	80002324	a8b8e793	ori	x15,x17,-1397	 x17:0x0000000c x15=0xfffffa8f
       72555000	      7254	80002328	016ae7b3	or	x15,x21,x22	 x21:0x80001e8c x22:0x00000000 x15=0x80001e8c
       72565000	      7255	8000232c	00000013	addi	x0,x0,0	  x0:0x00000000
       72575000	      7256	80002330	0130e533	or	x10,x1,x19	  x1:0x00000000 x19:0x4339b000 x10=0x4339b000
       72585000	      7257	80002334	0298da63	bge	x17,x9,80002368	 x17:0x0000000c  x9:0xffffffcc
       72595000	      7258	00000000	00000013	addi	x0,x0,0	  x0:0x00000000
       72605000	      7259	80002364	00000013	addi	x0,x0,0	  x0:0x00000000
       72615000	      7260	80002368	6bcd1397	auipc	x7,0x6bcd1	  x7=0xebcd3364
       72625000	      7261	8000236c	03b1f663	bgeu	x3,x27,80002398	  x3:0x80001dec x27:0x80009f08
       72635000	      7262	80002370	00000013	addi	x0,x0,0	  x0:0x00000000
       72645000	      7263	80002374	e19d6f13	ori	x30,x26,-487	 x26:0x00000000 x30=0xfffffe19
       72655000	      7264	80002378	01f35663	bge	x6,x31,80002384	  x6:0x72118001 x31:0x023fd000
       72665000	      7265	00000000	00000013	addi	x0,x0,0	  x0:0x00000000
       72675000	      7266	80002380	00000013	addi	x0,x0,0	  x0:0x00000000
       72685000	      7267	80002384	c5ab7b93	andi	x23,x22,-934	 x22:0x00000000 x23=0x00000000
       72695000	      7268	80002388	01e60e63	beq	x12,x30,800023a4	 x12:0xff801b7f x30:0xfffffe19
       72705000	      7269	8000238c	d0b8bf13	sltiu	x30,x17,-757	 x17:0x0000000c x30=0x00000001
       72715000	      7270	80002390	23aafe17	auipc	x28,0x23aaf	 x28=0xa3ab138c
       72725000	      7271	80002394	b6720c17	auipc	x24,0xb6720	 x24=0x36722390
       72735000	      7272	80002398	41050d33	sub	x26,x10,x16	 x10:0x4339b000 x16:0x72118001 x26=0xd1282fff
       72745000	      7273	8000239c	d0062713	slti	x14,x12,-768	 x12:0xff801b7f x14=0x00000001
       72755000	      7274	800023a0	006206b3	add	x13,x4,x6	  x4:0x00000000  x6:0x72118001 x13=0x72118001
       72765000	      7275	800023a4	06238a63	beq	x7,x2,80002418	  x7:0xebcd3364  x2:0x00000001
       72775000	      7276	800023a8	61b92313	slti	x6,x18,1563	 x18:0xffffffe0  x6=0x00000001
       72785000	      7277	800023ac	00105eb3	srl	x29,x0,x1	  x0:0x00000000  x1:0x00000000 x29=0x00000000
       72795000	      7278	800023b0	054bfc63	bgeu	x23,x20,80002408	 x23:0x00000000 x20:0x00000001
       72805000	      7279	800023b4	012ebe33	sltu	x28,x29,x18	 x29:0x00000000 x18:0xffffffe0 x28=0x00000001
       72815000	      7280	800023b8	297b4817	auipc	x16,0x297b4	 x16=0xa97b63b4
       72825000	      7281	800023bc	00000013	addi	x0,x0,0	  x0:0x00000000
       72835000	      7282	800023c0	ffffe117	auipc	x2,0xffffe	  x2=0x800003bc
       72845000	      7283	800023c4	24c10113	addi	x2,x2,588	  x2:0x800003bc  x2=0x80000608
       72855000	      7284	800023c8	6d4c9c37	lui	x24,0x6d4c9	 x24=0x6d4c9000
       72865000	      7285	800023cc	d6b10113	addi	x2,x2,-661	  x2:0x80000608  x2=0x80000373
       72875000	      7286	800023d0	55fc8d13	addi	x26,x25,1375	 x25:0x80001aa4 x26=0x80002003
       72885000	      7287	800023d4	296100e7	jalr	x1,x2,662	  x2:0x80000373  x1=0x800023d4
       72895000	      7288	00000000	00000013	addi	x0,x0,0	  x0:0x00000000
       72905000	      7289	80000608	00000013	addi	x0,x0,0	  x0:0x00000000
       72915000	      7290	8000060c	006b57b3	srl	x15,x22,x6	 x22:0x00000000  x6:0x00000001 x15=0x00000000
       72925000	      7291	80000610	015c5d13	srli	x26,x24,0x15	 x24:0x6d4c9000 x26=0x0000036a
       72935000	      7292	80000614	00013b33	sltu	x22,x2,x0	  x2:0x80000373  x0:0x00000000 x22=0x00000000
       72945000	      7293	80000618	7861f793	andi	x15,x3,1926	  x3:0x80001dec x15=0x00000584
       72955000	      7294	8000061c	fc4d8d93	addi	x27,x27,-60	 x27:0x80009f08 x27=0x80009ecc
       72965000	      7295	80000620	00000013	addi	x0,x0,0	  x0:0x00000000
       72975000	      7296	80000624	00f51613	slli	x12,x10,0xf	 x10:0x4339b000 x12=0xd8000000
       72985000	      7297	80000628	01805233	srl	x4,x0,x24	  x0:0x00000000 x24:0x6d4c9000  x4=0x00000000
       72995000	      7298	8000062c	40335993	srai	x19,x6,0x3	  x6:0x00000001 x19=0x00000000
       73005000	      7299	80000630	0316ca93	xori	x21,x13,49	 x13:0x72118001 x21=0x72118030
       73015000	      7300	80000634	001da223	sw	x1,4(x27)	 x27:0x80009ecc  x1:0x800023d4 PA:0x80009ed0
       73025000	      7301	80000638	13348d13	addi	x26,x9,307	  x9:0xffffffcc x26=0x000000ff
       73035000	      7302	8000063c	028000ef	jal	x1,8000063c	  x1=0x8000063c
       73045000	      7303	00000000	00000013	addi	x0,x0,0	  x0:0x00000000
       73055000	      7304	80000660	00000013	addi	x0,x0,0	  x0:0x00000000
       73065000	      7305	80000664	034000ef	jal	x1,80000664	  x1=0x80000664
       73075000	      7306	00000000	00000013	addi	x0,x0,0	  x0:0x00000000
       73085000	      7307	80000694	00000013	addi	x0,x0,0	  x0:0x00000000
       73095000	      7308	80000698	fe5ff0ef	jal	x1,80000698	  x1=0x80000698
       73105000	      7309	00000000	00000013	addi	x0,x0,0	  x0:0x00000000
       73115000	      7310	80000678	00000013	addi	x0,x0,0	  x0:0x00000000
       73125000	      7311	8000067c	fcdff0ef	jal	x1,8000067c	  x1=0x8000067c
       73135000	      7312	00000000	00000013	addi	x0,x0,0	  x0:0x00000000
       73145000	      7313	80000644	00000013	addi	x0,x0,0	  x0:0x00000000
       73155000	      7314	80000648	018000ef	jal	x1,80000648	  x1=0x80000648
       73165000	      7315	00000000	00000013	addi	x0,x0,0	  x0:0x00000000
       73175000	      7316	8000065c	00000013	addi	x0,x0,0	  x0:0x00000000
       73185000	      7317	80000660	0300066f	jal	x12,80000660	 x12=0x80000660
       73195000	      7318	00000000	00000013	addi	x0,x0,0	  x0:0x00000000
       73205000	      7319	8000068c	00000013	addi	x0,x0,0	  x0:0x00000000
       73215000	      7320	80000690	fb1ff0ef	jal	x1,80000690	  x1=0x80000690
       73225000	      7321	00000000	00000013	addi	x0,x0,0	  x0:0x00000000
       73235000	      7322	8000063c	00000013	addi	x0,x0,0	  x0:0x00000000
       73245000	      7323	80000640	038000ef	jal	x1,80000640	  x1=0x80000640
       73255000	      7324	00000000	00000013	addi	x0,x0,0	  x0:0x00000000
       73265000	      7325	80000674	00000013	addi	x0,x0,0	  x0:0x00000000
       73275000	      7326	80000678	00c000ef	jal	x1,80000678	  x1=0x80000678
       73285000	      7327	00000000	00000013	addi	x0,x0,0	  x0:0x00000000
       73295000	      7328	80000680	00000013	addi	x0,x0,0	  x0:0x00000000
       73305000	      7329	80000684	008003ef	jal	x7,80000684	  x7=0x80000684
       73315000	      7330	00000000	00000013	addi	x0,x0,0	  x0:0x00000000
       73325000	      7331	80000688	00000013	addi	x0,x0,0	  x0:0x00000000
       73335000	      7332	8000068c	ff5ff0ef	jal	x1,8000068c	  x1=0x8000068c
       73345000	      7333	00000000	00000013	addi	x0,x0,0	  x0:0x00000000
       73355000	      7334	8000067c	00000013	addi	x0,x0,0	  x0:0x00000000
       73365000	      7335	80000680	fddff0ef	jal	x1,80000680	  x1=0x80000680
       73375000	      7336	00000000	00000013	addi	x0,x0,0	  x0:0x00000000
       73385000	      7337	80000658	00000013	addi	x0,x0,0	  x0:0x00000000
       73395000	      7338	8000065c	ffdffb6f	jal	x22,8000065c	 x22=0x8000065c
       73405000	      7339	00000000	00000013	addi	x0,x0,0	  x0:0x00000000
       73415000	      7340	80000654	00000013	addi	x0,x0,0	  x0:0x00000000
       73425000	      7341	80000658	01c000ef	jal	x1,80000658	  x1=0x80000658
       73435000	      7342	00000000	00000013	addi	x0,x0,0	  x0:0x00000000
       73445000	      7343	80000670	00000013	addi	x0,x0,0	  x0:0x00000000
       73455000	      7344	80000674	02000bef	jal	x23,80000674	 x23=0x80000674
       73465000	      7345	00000000	00000013	addi	x0,x0,0	  x0:0x00000000
       73475000	      7346	80000690	00000013	addi	x0,x0,0	  x0:0x00000000
       73485000	      7347	80000694	fc1ff36f	jal	x6,80000694	  x6=0x80000694
       73495000	      7348	00000000	00000013	addi	x0,x0,0	  x0:0x00000000
       73505000	      7349	80000650	00000013	addi	x0,x0,0	  x0:0x00000000
       73515000	      7350	80000654	ffdff26f	jal	x4,80000654	  x4=0x80000654
       73525000	      7351	00000000	00000013	addi	x0,x0,0	  x0:0x00000000
       73535000	      7352	8000064c	00000013	addi	x0,x0,0	  x0:0x00000000
       73545000	      7353	80000650	018001ef	jal	x3,80000650	  x3=0x80000650
       73555000	      7354	00000000	00000013	addi	x0,x0,0	  x0:0x00000000
       73565000	      7355	80000664	00000013	addi	x0,x0,0	  x0:0x00000000
       73575000	      7356	80000668	fddff36f	jal	x6,80000668	  x6=0x80000668
       73585000	      7357	00000000	00000013	addi	x0,x0,0	  x0:0x00000000
       73595000	      7358	80000640	00000013	addi	x0,x0,0	  x0:0x00000000
       73605000	      7359	80000644	008000ef	jal	x1,80000644	  x1=0x80000644
       73615000	      7360	00000000	00000013	addi	x0,x0,0	  x0:0x00000000
       73625000	      7361	80000648	00000013	addi	x0,x0,0	  x0:0x00000000
       73635000	      7362	8000064c	03c0096f	jal	x18,8000064c	 x18=0x8000064c
       73645000	      7363	00000000	00000013	addi	x0,x0,0	  x0:0x00000000
       73655000	      7364	80000684	00000013	addi	x0,x0,0	  x0:0x00000000
       73665000	      7365	80000688	fe5ffb6f	jal	x22,80000688	 x22=0x80000688
       73675000	      7366	00000000	00000013	addi	x0,x0,0	  x0:0x00000000
       73685000	      7367	80000668	00000013	addi	x0,x0,0	  x0:0x00000000
       73695000	      7368	8000066c	0040066f	jal	x12,8000066c	 x12=0x8000066c
       73705000	      7369	00000000	00000013	addi	x0,x0,0	  x0:0x00000000
       73715000	      7370	8000066c	00000013	addi	x0,x0,0	  x0:0x00000000
       73725000	      7371	80000670	02c000ef	jal	x1,80000670	  x1=0x80000670
       73735000	      7372	00000000	00000013	addi	x0,x0,0	  x0:0x00000000
       73745000	      7373	80000698	00000013	addi	x0,x0,0	  x0:0x00000000
       73755000	      7374	8000069c	00653533	sltu	x10,x10,x6	 x10:0x4339b000  x6:0x80000668 x10=0x00000001
       73765000	      7375	800006a0	024000ef	jal	x1,800006a0	  x1=0x800006a0
       73775000	      7376	00000000	00000013	addi	x0,x0,0	  x0:0x00000000
       73785000	      7377	800006c0	00000013	addi	x0,x0,0	  x0:0x00000000
       73795000	      7378	800006c4	014005ef	jal	x11,800006c4	 x11=0x800006c4
       73805000	      7379	00000000	00000013	addi	x0,x0,0	  x0:0x00000000
       73815000	      7380	800006d4	00000013	addi	x0,x0,0	  x0:0x00000000
       73825000	      7381	800006d8	ff1ff0ef	jal	x1,800006d8	  x1=0x800006d8
       73835000	      7382	00000000	00000013	addi	x0,x0,0	  x0:0x00000000
       73845000	      7383	800006c4	00000013	addi	x0,x0,0	  x0:0x00000000
       73855000	      7384	800006c8	fe5ff36f	jal	x6,800006c8	  x6=0x800006c8
       73865000	      7385	00000000	00000013	addi	x0,x0,0	  x0:0x00000000
       73875000	      7386	800006a8	00000013	addi	x0,x0,0	  x0:0x00000000
       73885000	      7387	800006ac	0240036f	jal	x6,800006ac	  x6=0x800006ac
       73895000	      7388	00000000	00000013	addi	x0,x0,0	  x0:0x00000000
       73905000	      7389	800006cc	00000013	addi	x0,x0,0	  x0:0x00000000
       73915000	      7390	800006d0	fedff2ef	jal	x5,800006d0	  x5=0x800006d0
       73925000	      7391	00000000	00000013	addi	x0,x0,0	  x0:0x00000000
       73935000	      7392	800006b8	00000013	addi	x0,x0,0	  x0:0x00000000
       73945000	      7393	800006bc	ffdff0ef	jal	x1,800006bc	  x1=0x800006bc
       73955000	      7394	00000000	00000013	addi	x0,x0,0	  x0:0x00000000
       73965000	      7395	800006b4	00000013	addi	x0,x0,0	  x0:0x00000000
       73975000	      7396	800006b8	028000ef	jal	x1,800006b8	  x1=0x800006b8
       73985000	      7397	00000000	00000013	addi	x0,x0,0	  x0:0x00000000
       73995000	      7398	800006dc	00000013	addi	x0,x0,0	  x0:0x00000000
       74005000	      7399	800006e0	fc9ff0ef	jal	x1,800006e0	  x1=0x800006e0
       74015000	      7400	00000000	00000013	addi	x0,x0,0	  x0:0x00000000
       74025000	      7401	800006a4	00000013	addi	x0,x0,0	  x0:0x00000000
       74035000	      7402	800006a8	02c004ef	jal	x9,800006a8	  x9=0x800006a8
       74045000	      7403	00000000	00000013	addi	x0,x0,0	  x0:0x00000000
       74055000	      7404	800006d0	00000013	addi	x0,x0,0	  x0:0x00000000
       74065000	      7405	800006d4	fedff36f	jal	x6,800006d4	  x6=0x800006d4
       74075000	      7406	00000000	00000013	addi	x0,x0,0	  x0:0x00000000
       74085000	      7407	800006bc	00000013	addi	x0,x0,0	  x0:0x00000000
       74095000	      7408	800006c0	024000ef	jal	x1,800006c0	  x1=0x800006c0
       74105000	      7409	00000000	00000013	addi	x0,x0,0	  x0:0x00000000
       74115000	      7410	800006e0	00000013	addi	x0,x0,0	  x0:0x00000000
       74125000	      7411	800006e4	ff9ff0ef	jal	x1,800006e4	  x1=0x800006e4
       74135000	      7412	00000000	00000013	addi	x0,x0,0	  x0:0x00000000
       74145000	      7413	800006d8	00000013	addi	x0,x0,0	  x0:0x00000000
       74155000	      7414	800006dc	ff1ff3ef	jal	x7,800006dc	  x7=0x800006dc
       74165000	      7415	00000000	00000013	addi	x0,x0,0	  x0:0x00000000
       74175000	      7416	800006c8	00000013	addi	x0,x0,0	  x0:0x00000000
       74185000	      7417	800006cc	fe9ff96f	jal	x18,800006cc	 x18=0x800006cc
       74195000	      7418	00000000	00000013	addi	x0,x0,0	  x0:0x00000000
       74205000	      7419	800006b0	00000013	addi	x0,x0,0	  x0:0x00000000
       74215000	      7420	800006b4	ffdff56f	jal	x10,800006b4	 x10=0x800006b4
       74225000	      7421	00000000	00000013	addi	x0,x0,0	  x0:0x00000000
       74235000	      7422	800006ac	00000013	addi	x0,x0,0	  x0:0x00000000
       74245000	      7423	800006b0	ff5ff0ef	jal	x1,800006b0	  x1=0x800006b0
       74255000	      7424	00000000	00000013	addi	x0,x0,0	  x0:0x00000000
       74265000	      7425	800006a0	00000013	addi	x0,x0,0	  x0:0x00000000
       74275000	      7426	800006a4	044000ef	jal	x1,800006a4	  x1=0x800006a4
       74285000	      7427	00000000	00000013	addi	x0,x0,0	  x0:0x00000000
       74295000	      7428	800006e4	00000013	addi	x0,x0,0	  x0:0x00000000
       74305000	      7429	800006e8	01bad913	srli	x18,x21,0x1b	 x21:0x72118030 x18=0x0000000e
       74315000	      7430	800006ec	054000ef	jal	x1,800006ec	  x1=0x800006ec
       74325000	      7431	00000000	00000013	addi	x0,x0,0	  x0:0x00000000
       74335000	      7432	8000073c	00000013	addi	x0,x0,0	  x0:0x00000000
       74345000	      7433	80000740	fd9ff36f	jal	x6,80000740	  x6=0x80000740
       74355000	      7434	00000000	00000013	addi	x0,x0,0	  x0:0x00000000
       74365000	      7435	80000714	00000013	addi	x0,x0,0	  x0:0x00000000
       74375000	      7436	80000718	01c0036f	jal	x6,80000718	  x6=0x80000718
       74385000	      7437	00000000	00000013	addi	x0,x0,0	  x0:0x00000000
       74395000	      7438	80000730	00000013	addi	x0,x0,0	  x0:0x00000000
       74405000	      7439	80000734	004000ef	jal	x1,80000734	  x1=0x80000734
       74415000	      7440	00000000	00000013	addi	x0,x0,0	  x0:0x00000000
       74425000	      7441	80000734	00000013	addi	x0,x0,0	  x0:0x00000000
       74435000	      7442	80000738	fe5ff0ef	jal	x1,80000738	  x1=0x80000738
       74445000	      7443	00000000	00000013	addi	x0,x0,0	  x0:0x00000000
       74455000	      7444	80000718	00000013	addi	x0,x0,0	  x0:0x00000000
       74465000	      7445	8000071c	ff9ff36f	jal	x6,8000071c	  x6=0x8000071c
       74475000	      7446	00000000	00000013	addi	x0,x0,0	  x0:0x00000000
       74485000	      7447	80000710	00000013	addi	x0,x0,0	  x0:0x00000000
       74495000	      7448	80000714	ffdff0ef	jal	x1,80000714	  x1=0x80000714
       74505000	      7449	00000000	00000013	addi	x0,x0,0	  x0:0x00000000
       74515000	      7450	8000070c	00000013	addi	x0,x0,0	  x0:0x00000000
       74525000	      7451	80000710	ff1ff0ef	jal	x1,80000710	  x1=0x80000710
       74535000	      7452	00000000	00000013	addi	x0,x0,0	  x0:0x00000000
       74545000	      7453	800006fc	00000013	addi	x0,x0,0	  x0:0x00000000
       74555000	      7454	80000700	ff9ff0ef	jal	x1,80000700	  x1=0x80000700
       74565000	      7455	00000000	00000013	addi	x0,x0,0	  x0:0x00000000
       74575000	      7456	800006f4	00000013	addi	x0,x0,0	  x0:0x00000000
       74585000	      7457	800006f8	0340036f	jal	x6,800006f8	  x6=0x800006f8
       74595000	      7458	00000000	00000013	addi	x0,x0,0	  x0:0x00000000
       74605000	      7459	80000728	00000013	addi	x0,x0,0	  x0:0x00000000
       74615000	      7460	8000072c	fddff3ef	jal	x7,8000072c	  x7=0x8000072c
       74625000	      7461	00000000	00000013	addi	x0,x0,0	  x0:0x00000000
       74635000	      7462	80000704	00000013	addi	x0,x0,0	  x0:0x00000000
       74645000	      7463	80000708	0040036f	jal	x6,80000708	  x6=0x80000708
       74655000	      7464	00000000	00000013	addi	x0,x0,0	  x0:0x00000000
       74665000	      7465	80000708	00000013	addi	x0,x0,0	  x0:0x00000000
       74675000	      7466	8000070c	ff1ff9ef	jal	x19,8000070c	 x19=0x8000070c
       74685000	      7467	00000000	00000013	addi	x0,x0,0	  x0:0x00000000
       74695000	      7468	800006f8	00000013	addi	x0,x0,0	  x0:0x00000000
       74705000	      7469	800006fc	ff5ff0ef	jal	x1,800006fc	  x1=0x800006fc
       74715000	      7470	00000000	00000013	addi	x0,x0,0	  x0:0x00000000
       74725000	      7471	800006ec	00000013	addi	x0,x0,0	  x0:0x00000000
       74735000	      7472	800006f0	04c000ef	jal	x1,800006f0	  x1=0x800006f0
       74745000	      7473	00000000	00000013	addi	x0,x0,0	  x0:0x00000000
       74755000	      7474	80000738	00000013	addi	x0,x0,0	  x0:0x00000000
       74765000	      7475	8000073c	ff5ff7ef	jal	x15,8000073c	 x15=0x8000073c
       74775000	      7476	00000000	00000013	addi	x0,x0,0	  x0:0x00000000
       74785000	      7477	8000072c	00000013	addi	x0,x0,0	  x0:0x00000000
       74795000	      7478	80000730	fc5ff0ef	jal	x1,80000730	  x1=0x80000730
       74805000	      7479	00000000	00000013	addi	x0,x0,0	  x0:0x00000000
       74815000	      7480	800006f0	00000013	addi	x0,x0,0	  x0:0x00000000
       74825000	      7481	800006f4	050002ef	jal	x5,800006f4	  x5=0x800006f4
       74835000	      7482	00000000	00000013	addi	x0,x0,0	  x0:0x00000000
       74845000	      7483	80000740	00000013	addi	x0,x0,0	  x0:0x00000000
       74855000	      7484	80000744	fe5ff0ef	jal	x1,80000744	  x1=0x80000744
       74865000	      7485	00000000	00000013	addi	x0,x0,0	  x0:0x00000000
       74875000	      7486	80000724	00000013	addi	x0,x0,0	  x0:0x00000000
       74885000	      7487	80000728	fddff5ef	jal	x11,80000728	 x11=0x80000728
       74895000	      7488	00000000	00000013	addi	x0,x0,0	  x0:0x00000000
       74905000	      7489	80000700	00000013	addi	x0,x0,0	  x0:0x00000000
       74915000	      7490	80000704	044003ef	jal	x7,80000704	  x7=0x80000704
       74925000	      7491	00000000	00000013	addi	x0,x0,0	  x0:0x00000000
       74935000	      7492	80000744	00000013	addi	x0,x0,0	  x0:0x00000000
       74945000	      7493	80000748	fd9ff0ef	jal	x1,80000748	  x1=0x80000748
       74955000	      7494	00000000	00000013	addi	x0,x0,0	  x0:0x00000000
       74965000	      7495	8000071c	00000013	addi	x0,x0,0	  x0:0x00000000
       74975000	      7496	80000720	004002ef	jal	x5,80000720	  x5=0x80000720
       74985000	      7497	00000000	00000013	addi	x0,x0,0	  x0:0x00000000
       74995000	      7498	80000720	00000013	addi	x0,x0,0	  x0:0x00000000
       75005000	      7499	80000724	028002ef	jal	x5,80000724	  x5=0x80000724
       75015000	      7500	00000000	00000013	addi	x0,x0,0	  x0:0x00000000
       75025000	      7501	80000748	00000013	addi	x0,x0,0	  x0:0x00000000
       75035000	      7502	8000074c	019ecb33	xor	x22,x29,x25	 x29:0x00000000 x25:0x80001aa4 x22=0x80001aa4
       75045000	      7503	80000750	040000ef	jal	x1,80000750	  x1=0x80000750
       75055000	      7504	00000000	00000013	addi	x0,x0,0	  x0:0x00000000
       75065000	      7505	8000078c	00000013	addi	x0,x0,0	  x0:0x00000000
       75075000	      7506	80000790	ff9fff6f	jal	x30,80000790	 x30=0x80000790
       75085000	      7507	00000000	00000013	addi	x0,x0,0	  x0:0x00000000
       75095000	      7508	80000784	00000013	addi	x0,x0,0	  x0:0x00000000
       75105000	      7509	80000788	fedff36f	jal	x6,80000788	  x6=0x80000788
       75115000	      7510	00000000	00000013	addi	x0,x0,0	  x0:0x00000000
       75125000	      7511	80000770	00000013	addi	x0,x0,0	  x0:0x00000000
       75135000	      7512	80000774	020000ef	jal	x1,80000774	  x1=0x80000774
       75145000	      7513	00000000	00000013	addi	x0,x0,0	  x0:0x00000000
       75155000	      7514	80000790	00000013	addi	x0,x0,0	  x0:0x00000000
       75165000	      7515	80000794	fe5ff36f	jal	x6,80000794	  x6=0x80000794
       75175000	      7516	00000000	00000013	addi	x0,x0,0	  x0:0x00000000
       75185000	      7517	80000774	00000013	addi	x0,x0,0	  x0:0x00000000
       75195000	      7518	80000778	fddffcef	jal	x25,80000778	 x25=0x80000778
       75205000	      7519	00000000	00000013	addi	x0,x0,0	  x0:0x00000000
       75215000	      7520	80000750	00000013	addi	x0,x0,0	  x0:0x00000000
       75225000	      7521	80000754	0480036f	jal	x6,80000754	  x6=0x80000754
       75235000	      7522	00000000	00000013	addi	x0,x0,0	  x0:0x00000000
       75245000	      7523	80000798	00000013	addi	x0,x0,0	  x0:0x00000000
       75255000	      7524	8000079c	ffdffe6f	jal	x28,8000079c	 x28=0x8000079c
       75265000	      7525	00000000	00000013	addi	x0,x0,0	  x0:0x00000000
       75275000	      7526	80000794	00000013	addi	x0,x0,0	  x0:0x00000000
       75285000	      7527	80000798	fd9ff36f	jal	x6,80000798	  x6=0x80000798
       75295000	      7528	00000000	00000013	addi	x0,x0,0	  x0:0x00000000
       75305000	      7529	8000076c	00000013	addi	x0,x0,0	  x0:0x00000000
       75315000	      7530	80000770	01c007ef	jal	x15,80000770	 x15=0x80000770
       75325000	      7531	00000000	00000013	addi	x0,x0,0	  x0:0x00000000
       75335000	      7532	80000788	00000013	addi	x0,x0,0	  x0:0x00000000
       75345000	      7533	8000078c	fddff0ef	jal	x1,8000078c	  x1=0x8000078c
       75355000	      7534	00000000	00000013	addi	x0,x0,0	  x0:0x00000000
       75365000	      7535	80000764	00000013	addi	x0,x0,0	  x0:0x00000000
       75375000	      7536	80000768	ff9ff0ef	jal	x1,80000768	  x1=0x80000768
       75385000	      7537	00000000	00000013	addi	x0,x0,0	  x0:0x00000000
       75395000	      7538	8000075c	00000013	addi	x0,x0,0	  x0:0x00000000
       75405000	      7539	80000760	040000ef	jal	x1,80000760	  x1=0x80000760
       75415000	      7540	00000000	00000013	addi	x0,x0,0	  x0:0x00000000
       75425000	      7541	8000079c	00000013	addi	x0,x0,0	  x0:0x00000000
       75435000	      7542	800007a0	fb9ffe6f	jal	x28,800007a0	 x28=0x800007a0
       75445000	      7543	00000000	00000013	addi	x0,x0,0	  x0:0x00000000
       75455000	      7544	80000754	00000013	addi	x0,x0,0	  x0:0x00000000
       75465000	      7545	80000758	00c000ef	jal	x1,80000758	  x1=0x80000758
       75475000	      7546	00000000	00000013	addi	x0,x0,0	  x0:0x00000000
       75485000	      7547	80000760	00000013	addi	x0,x0,0	  x0:0x00000000
       75495000	      7548	80000764	060000ef	jal	x1,80000764	  x1=0x80000764
       75505000	      7549	00000000	00000013	addi	x0,x0,0	  x0:0x00000000
       75515000	      7550	800007c0	00000013	addi	x0,x0,0	  x0:0x00000000
       75525000	      7551	800007c4	ff1ff36f	jal	x6,800007c4	  x6=0x800007c4
       75535000	      7552	00000000	00000013	addi	x0,x0,0	  x0:0x00000000
       75545000	      7553	800007b0	00000013	addi	x0,x0,0	  x0:0x00000000
       75555000	      7554	800007b4	fc9ff0ef	jal	x1,800007b4	  x1=0x800007b4
       75565000	      7555	00000000	00000013	addi	x0,x0,0	  x0:0x00000000
       75575000	      7556	80000778	00000013	addi	x0,x0,0	  x0:0x00000000
       75585000	      7557	8000077c	0400036f	jal	x6,8000077c	  x6=0x8000077c
       75595000	      7558	00000000	00000013	addi	x0,x0,0	  x0:0x00000000
       75605000	      7559	800007b8	00000013	addi	x0,x0,0	  x0:0x00000000
       75615000	      7560	800007bc	ff1ff0ef	jal	x1,800007bc	  x1=0x800007bc
       75625000	      7561	00000000	00000013	addi	x0,x0,0	  x0:0x00000000
       75635000	      7562	800007a8	00000013	addi	x0,x0,0	  x0:0x00000000
       75645000	      7563	800007ac	fd5ff0ef	jal	x1,800007ac	  x1=0x800007ac
       75655000	      7564	00000000	00000013	addi	x0,x0,0	  x0:0x00000000
       75665000	      7565	8000077c	00000013	addi	x0,x0,0	  x0:0x00000000
       75675000	      7566	80000780	038009ef	jal	x19,80000780	 x19=0x80000780
       75685000	      7567	00000000	00000013	addi	x0,x0,0	  x0:0x00000000
       75695000	      7568	800007b4	00000013	addi	x0,x0,0	  x0:0x00000000
       75705000	      7569	800007b8	00800aef	jal	x21,800007b8	 x21=0x800007b8
       75715000	      7570	00000000	00000013	addi	x0,x0,0	  x0:0x00000000
       75725000	      7571	800007bc	00000013	addi	x0,x0,0	  x0:0x00000000
       75735000	      7572	800007c0	fadff36f	jal	x6,800007c0	  x6=0x800007c0
       75745000	      7573	00000000	00000013	addi	x0,x0,0	  x0:0x00000000
       75755000	      7574	80000768	00000013	addi	x0,x0,0	  x0:0x00000000
       75765000	      7575	8000076c	0440016f	jal	x2,8000076c	  x2=0x8000076c
       75775000	      7576	00000000	00000013	addi	x0,x0,0	  x0:0x00000000
       75785000	      7577	800007ac	00000013	addi	x0,x0,0	  x0:0x00000000
       75795000	      7578	800007b0	fadff0ef	jal	x1,800007b0	  x1=0x800007b0
       75805000	      7579	00000000	00000013	addi	x0,x0,0	  x0:0x00000000
       75815000	      7580	80000758	00000013	addi	x0,x0,0	  x0:0x00000000
       75825000	      7581	8000075c	0480036f	jal	x6,8000075c	  x6=0x8000075c
       75835000	      7582	00000000	00000013	addi	x0,x0,0	  x0:0x00000000
       75845000	      7583	800007a0	00000013	addi	x0,x0,0	  x0:0x00000000
       75855000	      7584	800007a4	fe1ff16f	jal	x2,800007a4	  x2=0x800007a4
       75865000	      7585	00000000	00000013	addi	x0,x0,0	  x0:0x00000000
       75875000	      7586	80000780	00000013	addi	x0,x0,0	  x0:0x00000000
       75885000	      7587	80000784	0240066f	jal	x12,80000784	 x12=0x80000784
       75895000	      7588	00000000	00000013	addi	x0,x0,0	  x0:0x00000000
       75905000	      7589	800007a4	00000013	addi	x0,x0,0	  x0:0x00000000
       75915000	      7590	800007a8	0200036f	jal	x6,800007a8	  x6=0x800007a8
       75925000	      7591	00000000	00000013	addi	x0,x0,0	  x0:0x00000000
       75935000	      7592	800007c4	00000013	addi	x0,x0,0	  x0:0x00000000
       75945000	      7593	800007c8	f2ffca13	xori	x20,x31,-209	 x31:0x023fd000 x20=0xfdc02f2f
       75955000	      7594	800007cc	02c000ef	jal	x1,800007cc	  x1=0x800007cc
       75965000	      7595	00000000	00000013	addi	x0,x0,0	  x0:0x00000000
       75975000	      7596	800007f4	00000013	addi	x0,x0,0	  x0:0x00000000
       75985000	      7597	800007f8	fe9ffb6f	jal	x22,800007f8	 x22=0x800007f8
       75995000	      7598	00000000	00000013	addi	x0,x0,0	  x0:0x00000000
       76005000	      7599	800007dc	00000013	addi	x0,x0,0	  x0:0x00000000
       76015000	      7600	800007e0	034003ef	jal	x7,800007e0	  x7=0x800007e0
       76025000	      7601	00000000	00000013	addi	x0,x0,0	  x0:0x00000000
       76035000	      7602	80000810	00000013	addi	x0,x0,0	  x0:0x00000000
       76045000	      7603	80000814	fd9ff26f	jal	x4,80000814	  x4=0x80000814
       76055000	      7604	00000000	00000013	addi	x0,x0,0	  x0:0x00000000
       76065000	      7605	800007e8	00000013	addi	x0,x0,0	  x0:0x00000000
       76075000	      7606	800007ec	ffdff5ef	jal	x11,800007ec	 x11=0x800007ec
       76085000	      7607	00000000	00000013	addi	x0,x0,0	  x0:0x00000000
       76095000	      7608	800007e4	00000013	addi	x0,x0,0	  x0:0x00000000
       76105000	      7609	800007e8	030000ef	jal	x1,800007e8	  x1=0x800007e8
       76115000	      7610	00000000	00000013	addi	x0,x0,0	  x0:0x00000000
       76125000	      7611	80000814	00000013	addi	x0,x0,0	  x0:0x00000000
       76135000	      7612	80000818	fcdff0ef	jal	x1,80000818	  x1=0x80000818
       76145000	      7613	00000000	00000013	addi	x0,x0,0	  x0:0x00000000
       76155000	      7614	800007e0	00000013	addi	x0,x0,0	  x0:0x00000000
       76165000	      7615	800007e4	018000ef	jal	x1,800007e4	  x1=0x800007e4
       76175000	      7616	00000000	00000013	addi	x0,x0,0	  x0:0x00000000
       76185000	      7617	800007f8	00000013	addi	x0,x0,0	  x0:0x00000000
       76195000	      7618	800007fc	fd5ff36f	jal	x6,800007fc	  x6=0x800007fc
       76205000	      7619	00000000	00000013	addi	x0,x0,0	  x0:0x00000000
       76215000	      7620	800007cc	00000013	addi	x0,x0,0	  x0:0x00000000
       76225000	      7621	800007d0	038000ef	jal	x1,800007d0	  x1=0x800007d0
       76235000	      7622	00000000	00000013	addi	x0,x0,0	  x0:0x00000000
       76245000	      7623	80000804	00000013	addi	x0,x0,0	  x0:0x00000000
       76255000	      7624	80000808	014000ef	jal	x1,80000808	  x1=0x80000808
       76265000	      7625	00000000	00000013	addi	x0,x0,0	  x0:0x00000000
       76275000	      7626	80000818	00000013	addi	x0,x0,0	  x0:0x00000000
       76285000	      7627	8000081c	fc1ff1ef	jal	x3,8000081c	  x3=0x8000081c
       76295000	      7628	00000000	00000013	addi	x0,x0,0	  x0:0x00000000
       76305000	      7629	800007d8	00000013	addi	x0,x0,0	  x0:0x00000000
       76315000	      7630	800007dc	ff9ff0ef	jal	x1,800007dc	  x1=0x800007dc
       76325000	      7631	00000000	00000013	addi	x0,x0,0	  x0:0x00000000
       76335000	      7632	800007d0	00000013	addi	x0,x0,0	  x0:0x00000000
       76345000	      7633	800007d4	01c0036f	jal	x6,800007d4	  x6=0x800007d4
       76355000	      7634	00000000	00000013	addi	x0,x0,0	  x0:0x00000000
       76365000	      7635	800007ec	00000013	addi	x0,x0,0	  x0:0x00000000
       76375000	      7636	800007f0	010000ef	jal	x1,800007f0	  x1=0x800007f0
       76385000	      7637	00000000	00000013	addi	x0,x0,0	  x0:0x00000000
       76395000	      7638	800007fc	00000013	addi	x0,x0,0	  x0:0x00000000
       76405000	      7639	80000800	004000ef	jal	x1,80000800	  x1=0x80000800
       76415000	      7640	00000000	00000013	addi	x0,x0,0	  x0:0x00000000
       76425000	      7641	80000800	00000013	addi	x0,x0,0	  x0:0x00000000
       76435000	      7642	80000804	fd5ff0ef	jal	x1,80000804	  x1=0x80000804
       76445000	      7643	00000000	00000013	addi	x0,x0,0	  x0:0x00000000
       76455000	      7644	800007d4	00000013	addi	x0,x0,0	  x0:0x00000000
       76465000	      7645	800007d8	01c000ef	jal	x1,800007d8	  x1=0x800007d8
       76475000	      7646	00000000	00000013	addi	x0,x0,0	  x0:0x00000000
       76485000	      7647	800007f0	00000013	addi	x0,x0,0	  x0:0x00000000
       76495000	      7648	800007f4	01c000ef	jal	x1,800007f4	  x1=0x800007f4
       76505000	      7649	00000000	00000013	addi	x0,x0,0	  x0:0x00000000
       76515000	      7650	8000080c	00000013	addi	x0,x0,0	  x0:0x00000000
       76525000	      7651	80000810	ffdff16f	jal	x2,80000810	  x2=0x80000810
       76535000	      7652	00000000	00000013	addi	x0,x0,0	  x0:0x00000000
       76545000	      7653	80000808	00000013	addi	x0,x0,0	  x0:0x00000000
       76555000	      7654	8000080c	014000ef	jal	x1,8000080c	  x1=0x8000080c
       76565000	      7655	00000000	00000013	addi	x0,x0,0	  x0:0x00000000
       76575000	      7656	8000081c	00000013	addi	x0,x0,0	  x0:0x00000000
       76585000	      7657	80000820	004000ef	jal	x1,80000820	  x1=0x80000820
       76595000	      7658	00000000	00000013	addi	x0,x0,0	  x0:0x00000000
       76605000	      7659	80000820	00000013	addi	x0,x0,0	  x0:0x00000000
       76615000	      7660	80000824	00bb4733	xor	x14,x22,x11	 x22:0x800007f8 x11:0x800007ec x14=0x00000014
       76625000	      7661	80000828	048000ef	jal	x1,80000828	  x1=0x80000828
       76635000	      7662	00000000	00000013	addi	x0,x0,0	  x0:0x00000000
       76645000	      7663	8000086c	00000013	addi	x0,x0,0	  x0:0x00000000
       76655000	      7664	80000870	fe1ff0ef	jal	x1,80000870	  x1=0x80000870
       76665000	      7665	00000000	00000013	addi	x0,x0,0	  x0:0x00000000
       76675000	      7666	8000084c	00000013	addi	x0,x0,0	  x0:0x00000000
       76685000	      7667	80000850	fddff36f	jal	x6,80000850	  x6=0x80000850
       76695000	      7668	00000000	00000013	addi	x0,x0,0	  x0:0x00000000
       76705000	      7669	80000828	00000013	addi	x0,x0,0	  x0:0x00000000
       76715000	      7670	8000082c	0040036f	jal	x6,8000082c	  x6=0x8000082c
       76725000	      7671	00000000	00000013	addi	x0,x0,0	  x0:0x00000000
       76735000	      7672	8000082c	00000013	addi	x0,x0,0	  x0:0x00000000
       76745000	      7673	80000830	0240036f	jal	x6,80000830	  x6=0x80000830
       76755000	      7674	00000000	00000013	addi	x0,x0,0	  x0:0x00000000
       76765000	      7675	80000850	00000013	addi	x0,x0,0	  x0:0x00000000
       76775000	      7676	80000854	ff1ff36f	jal	x6,80000854	  x6=0x80000854
       76785000	      7677	00000000	00000013	addi	x0,x0,0	  x0:0x00000000
       76795000	      7678	80000840	00000013	addi	x0,x0,0	  x0:0x00000000
       76805000	      7679	80000844	ff1ff16f	jal	x2,80000844	  x2=0x80000844
       76815000	      7680	00000000	00000013	addi	x0,x0,0	  x0:0x00000000
       76825000	      7681	80000830	00000013	addi	x0,x0,0	  x0:0x00000000
       76835000	      7682	80000834	02c000ef	jal	x1,80000834	  x1=0x80000834
       76845000	      7683	00000000	00000013	addi	x0,x0,0	  x0:0x00000000
       76855000	      7684	8000085c	00000013	addi	x0,x0,0	  x0:0x00000000
       76865000	      7685	80000860	004003ef	jal	x7,80000860	  x7=0x80000860
       76875000	      7686	00000000	00000013	addi	x0,x0,0	  x0:0x00000000
       76885000	      7687	80000860	00000013	addi	x0,x0,0	  x0:0x00000000
       76895000	      7688	80000864	ff9ff0ef	jal	x1,80000864	  x1=0x80000864
       76905000	      7689	00000000	00000013	addi	x0,x0,0	  x0:0x00000000
       76915000	      7690	80000858	00000013	addi	x0,x0,0	  x0:0x00000000
       76925000	      7691	8000085c	fe1ffcef	jal	x25,8000085c	 x25=0x8000085c
       76935000	      7692	00000000	00000013	addi	x0,x0,0	  x0:0x00000000
       76945000	      7693	80000838	00000013	addi	x0,x0,0	  x0:0x00000000
       76955000	      7694	8000083c	02c0086f	jal	x16,8000083c	 x16=0x8000083c
       76965000	      7695	00000000	00000013	addi	x0,x0,0	  x0:0x00000000
       76975000	      7696	80000864	00000013	addi	x0,x0,0	  x0:0x00000000
       76985000	      7697	80000868	fd9ff36f	jal	x6,80000868	  x6=0x80000868
       76995000	      7698	00000000	00000013	addi	x0,x0,0	  x0:0x00000000
       77005000	      7699	8000083c	00000013	addi	x0,x0,0	  x0:0x00000000
       77015000	      7700	80000840	02c0056f	jal	x10,80000840	 x10=0x80000840
       77025000	      7701	00000000	00000013	addi	x0,x0,0	  x0:0x00000000
       77035000	      7702	80000868	00000013	addi	x0,x0,0	  x0:0x00000000
       77045000	      7703	8000086c	fddff0ef	jal	x1,8000086c	  x1=0x8000086c
       77055000	      7704	00000000	00000013	addi	x0,x0,0	  x0:0x00000000
       77065000	      7705	80000844	00000013	addi	x0,x0,0	  x0:0x00000000
       77075000	      7706	80000848	010003ef	jal	x7,80000848	  x7=0x80000848
       77085000	      7707	00000000	00000013	addi	x0,x0,0	  x0:0x00000000
       77095000	      7708	80000854	00000013	addi	x0,x0,0	  x0:0x00000000
       77105000	      7709	80000858	fe1ff0ef	jal	x1,80000858	  x1=0x80000858
       77115000	      7710	00000000	00000013	addi	x0,x0,0	  x0:0x00000000
       77125000	      7711	80000834	00000013	addi	x0,x0,0	  x0:0x00000000
       77135000	      7712	80000838	0140096f	jal	x18,80000838	 x18=0x80000838
       77145000	      7713	00000000	00000013	addi	x0,x0,0	  x0:0x00000000
       77155000	      7714	80000848	00000013	addi	x0,x0,0	  x0:0x00000000
       77165000	      7715	8000084c	028000ef	jal	x1,8000084c	  x1=0x8000084c
       77175000	      7716	00000000	00000013	addi	x0,x0,0	  x0:0x00000000
       77185000	      7717	80000870	00000013	addi	x0,x0,0	  x0:0x00000000
       77195000	      7718	80000874	ff3df6b7	lui	x13,0xff3df	 x13=0xff3df000
       77205000	      7719	80000878	018000ef	jal	x1,80000878	  x1=0x80000878
       77215000	      7720	00000000	00000013	addi	x0,x0,0	  x0:0x00000000
       77225000	      7721	8000088c	00000013	addi	x0,x0,0	  x0:0x00000000
       77235000	      7722	80000890	fedff4ef	jal	x9,80000890	  x9=0x80000890
       77245000	      7723	00000000	00000013	addi	x0,x0,0	  x0:0x00000000
       77255000	      7724	80000878	00000013	addi	x0,x0,0	  x0:0x00000000
       77265000	      7725	8000087c	00c00c6f	jal	x24,8000087c	 x24=0x8000087c
       77275000	      7726	00000000	00000013	addi	x0,x0,0	  x0:0x00000000
       77285000	      7727	80000884	00000013	addi	x0,x0,0	  x0:0x00000000
       77295000	      7728	80000888	0500036f	jal	x6,80000888	  x6=0x80000888
       77305000	      7729	00000000	00000013	addi	x0,x0,0	  x0:0x00000000
       77315000	      7730	800008d4	00000013	addi	x0,x0,0	  x0:0x00000000
       77325000	      7731	800008d8	00c000ef	jal	x1,800008d8	  x1=0x800008d8
       77335000	      7732	00000000	00000013	addi	x0,x0,0	  x0:0x00000000
       77345000	      7733	800008e0	00000013	addi	x0,x0,0	  x0:0x00000000
       77355000	      7734	800008e4	fcdff0ef	jal	x1,800008e4	  x1=0x800008e4
       77365000	      7735	00000000	00000013	addi	x0,x0,0	  x0:0x00000000
       77375000	      7736	800008ac	00000013	addi	x0,x0,0	  x0:0x00000000
       77385000	      7737	800008b0	0180036f	jal	x6,800008b0	  x6=0x800008b0
       77395000	      7738	00000000	00000013	addi	x0,x0,0	  x0:0x00000000
       77405000	      7739	800008c4	00000013	addi	x0,x0,0	  x0:0x00000000
       77415000	      7740	800008c8	fcdff5ef	jal	x11,800008c8	 x11=0x800008c8
       77425000	      7741	00000000	00000013	addi	x0,x0,0	  x0:0x00000000
       77435000	      7742	80000890	00000013	addi	x0,x0,0	  x0:0x00000000
       77445000	      7743	80000894	03800c6f	jal	x24,80000894	 x24=0x80000894
       77455000	      7744	00000000	00000013	addi	x0,x0,0	  x0:0x00000000
       77465000	      7745	800008c8	00000013	addi	x0,x0,0	  x0:0x00000000
       77475000	      7746	800008cc	fddff0ef	jal	x1,800008cc	  x1=0x800008cc
       77485000	      7747	00000000	00000013	addi	x0,x0,0	  x0:0x00000000
       77495000	      7748	800008a4	00000013	addi	x0,x0,0	  x0:0x00000000
       77505000	      7749	800008a8	ff1ff96f	jal	x18,800008a8	 x18=0x800008a8
       77515000	      7750	00000000	00000013	addi	x0,x0,0	  x0:0x00000000
       77525000	      7751	80000894	00000013	addi	x0,x0,0	  x0:0x00000000
       77535000	      7752	80000898	020000ef	jal	x1,80000898	  x1=0x80000898
       77545000	      7753	00000000	00000013	addi	x0,x0,0	  x0:0x00000000
       77555000	      7754	800008b4	00000013	addi	x0,x0,0	  x0:0x00000000
       77565000	      7755	800008b8	fc9ff2ef	jal	x5,800008b8	  x5=0x800008b8
       77575000	      7756	00000000	00000013	addi	x0,x0,0	  x0:0x00000000
       77585000	      7757	8000087c	00000013	addi	x0,x0,0	  x0:0x00000000
       77595000	      7758	80000880	068000ef	jal	x1,80000880	  x1=0x80000880
       77605000	      7759	00000000	00000013	addi	x0,x0,0	  x0:0x00000000
       77615000	      7760	800008e4	00000013	addi	x0,x0,0	  x0:0x00000000
       77625000	      7761	800008e8	fddff3ef	jal	x7,800008e8	  x7=0x800008e8
       77635000	      7762	00000000	00000013	addi	x0,x0,0	  x0:0x00000000
       77645000	      7763	800008c0	00000013	addi	x0,x0,0	  x0:0x00000000
       77655000	      7764	800008c4	0280036f	jal	x6,800008c4	  x6=0x800008c4
       77665000	      7765	00000000	00000013	addi	x0,x0,0	  x0:0x00000000
       77675000	      7766	800008e8	00000013	addi	x0,x0,0	  x0:0x00000000
       77685000	      7767	800008ec	fd5ff0ef	jal	x1,800008ec	  x1=0x800008ec
       77695000	      7768	00000000	00000013	addi	x0,x0,0	  x0:0x00000000
       77705000	      7769	800008bc	00000013	addi	x0,x0,0	  x0:0x00000000
       77715000	      7770	800008c0	0200036f	jal	x6,800008c0	  x6=0x800008c0
       77725000	      7771	00000000	00000013	addi	x0,x0,0	  x0:0x00000000
       77735000	      7772	800008dc	00000013	addi	x0,x0,0	  x0:0x00000000
       77745000	      7773	800008e0	ff1ff36f	jal	x6,800008e0	  x6=0x800008e0
       77755000	      7774	00000000	00000013	addi	x0,x0,0	  x0:0x00000000
       77765000	      7775	800008cc	00000013	addi	x0,x0,0	  x0:0x00000000
       77775000	      7776	800008d0	fcdff0ef	jal	x1,800008d0	  x1=0x800008d0
       77785000	      7777	00000000	00000013	addi	x0,x0,0	  x0:0x00000000
       77795000	      7778	80000898	00000013	addi	x0,x0,0	  x0:0x00000000
       77805000	      7779	8000089c	fe9ff36f	jal	x6,8000089c	  x6=0x8000089c
       77815000	      7780	00000000	00000013	addi	x0,x0,0	  x0:0x00000000
       77825000	      7781	80000880	00000013	addi	x0,x0,0	  x0:0x00000000
       77835000	      7782	80000884	01c0036f	jal	x6,80000884	  x6=0x80000884
       77845000	      7783	00000000	00000013	addi	x0,x0,0	  x0:0x00000000
       77855000	      7784	8000089c	00000013	addi	x0,x0,0	  x0:0x00000000
       77865000	      7785	800008a0	03c0036f	jal	x6,800008a0	  x6=0x800008a0
       77875000	      7786	00000000	00000013	addi	x0,x0,0	  x0:0x00000000
       77885000	      7787	800008d8	00000013	addi	x0,x0,0	  x0:0x00000000
       77895000	      7788	800008dc	fd1ffe6f	jal	x28,800008dc	 x28=0x800008dc
       77905000	      7789	00000000	00000013	addi	x0,x0,0	  x0:0x00000000
       77915000	      7790	800008a8	00000013	addi	x0,x0,0	  x0:0x00000000
       77925000	      7791	800008ac	fe1ff36f	jal	x6,800008ac	  x6=0x800008ac
       77935000	      7792	00000000	00000013	addi	x0,x0,0	  x0:0x00000000
       77945000	      7793	80000888	00000013	addi	x0,x0,0	  x0:0x00000000
       77955000	      7794	8000088c	0480016f	jal	x2,8000088c	  x2=0x8000088c
       77965000	      7795	00000000	00000013	addi	x0,x0,0	  x0:0x00000000
       77975000	      7796	800008d0	00000013	addi	x0,x0,0	  x0:0x00000000
       77985000	      7797	800008d4	fd1ff0ef	jal	x1,800008d4	  x1=0x800008d4
       77995000	      7798	00000000	00000013	addi	x0,x0,0	  x0:0x00000000
       78005000	      7799	800008a0	00000013	addi	x0,x0,0	  x0:0x00000000
       78015000	      7800	800008a4	0180016f	jal	x2,800008a4	  x2=0x800008a4
       78025000	      7801	00000000	00000013	addi	x0,x0,0	  x0:0x00000000
       78035000	      7802	800008b8	00000013	addi	x0,x0,0	  x0:0x00000000
       78045000	      7803	800008bc	ff9ff4ef	jal	x9,800008bc	  x9=0x800008bc
       78055000	      7804	00000000	00000013	addi	x0,x0,0	  x0:0x00000000
       78065000	      7805	800008b0	00000013	addi	x0,x0,0	  x0:0x00000000
       78075000	      7806	800008b4	03c000ef	jal	x1,800008b4	  x1=0x800008b4
       78085000	      7807	00000000	00000013	addi	x0,x0,0	  x0:0x00000000
       78095000	      7808	800008ec	00000013	addi	x0,x0,0	  x0:0x00000000
       78105000	      7809	800008f0	00a76f33	or	x30,x14,x10	 x14:0x00000014 x10:0x80000840 x30=0x80000854
       78115000	      7810	800008f4	020000ef	jal	x1,800008f4	  x1=0x800008f4
       78125000	      7811	00000000	00000013	addi	x0,x0,0	  x0:0x00000000
       78135000	      7812	80000910	00000013	addi	x0,x0,0	  x0:0x00000000
       78145000	      7813	80000914	03c000ef	jal	x1,80000914	  x1=0x80000914
       78155000	      7814	00000000	00000013	addi	x0,x0,0	  x0:0x00000000
       78165000	      7815	8000094c	00000013	addi	x0,x0,0	  x0:0x00000000
       78175000	      7816	80000950	ff5fff6f	jal	x30,80000950	 x30=0x80000950
       78185000	      7817	00000000	00000013	addi	x0,x0,0	  x0:0x00000000
       78195000	      7818	80000940	00000013	addi	x0,x0,0	  x0:0x00000000
       78205000	      7819	80000944	fe5ff36f	jal	x6,80000944	  x6=0x80000944
       78215000	      7820	00000000	00000013	addi	x0,x0,0	  x0:0x00000000
       78225000	      7821	80000924	00000013	addi	x0,x0,0	  x0:0x00000000
       78235000	      7822	80000928	fe1ff0ef	jal	x1,80000928	  x1=0x80000928
       78245000	      7823	00000000	00000013	addi	x0,x0,0	  x0:0x00000000
       78255000	      7824	80000904	00000013	addi	x0,x0,0	  x0:0x00000000
       78265000	      7825	80000908	034000ef	jal	x1,80000908	  x1=0x80000908
       78275000	      7826	00000000	00000013	addi	x0,x0,0	  x0:0x00000000
       78285000	      7827	80000938	00000013	addi	x0,x0,0	  x0:0x00000000
       78295000	      7828	8000093c	fe5ff0ef	jal	x1,8000093c	  x1=0x8000093c
       78305000	      7829	00000000	00000013	addi	x0,x0,0	  x0:0x00000000
       78315000	      7830	8000091c	00000013	addi	x0,x0,0	  x0:0x00000000
       78325000	      7831	80000920	00c000ef	jal	x1,80000920	  x1=0x80000920
       78335000	      7832	00000000	00000013	addi	x0,x0,0	  x0:0x00000000
       78345000	      7833	80000928	00000013	addi	x0,x0,0	  x0:0x00000000
       78355000	      7834	8000092c	01c00b6f	jal	x22,8000092c	 x22=0x8000092c
       78365000	      7835	00000000	00000013	addi	x0,x0,0	  x0:0x00000000
       78375000	      7836	80000944	00000013	addi	x0,x0,0	  x0:0x00000000
       78385000	      7837	80000948	fd1fff6f	jal	x30,80000948	 x30=0x80000948
       78395000	      7838	00000000	00000013	addi	x0,x0,0	  x0:0x00000000
       78405000	      7839	80000914	00000013	addi	x0,x0,0	  x0:0x00000000
       78415000	      7840	80000918	048000ef	jal	x1,80000918	  x1=0x80000918
       78425000	      7841	00000000	00000013	addi	x0,x0,0	  x0:0x00000000
       78435000	      7842	8000095c	00000013	addi	x0,x0,0	  x0:0x00000000
       78445000	      7843	80000960	fd9ff36f	jal	x6,80000960	  x6=0x80000960
       78455000	      7844	00000000	00000013	addi	x0,x0,0	  x0:0x00000000
       78465000	      7845	80000934	00000013	addi	x0,x0,0	  x0:0x00000000
       78475000	      7846	80000938	fc1ff0ef	jal	x1,80000938	  x1=0x80000938
       78485000	      7847	00000000	00000013	addi	x0,x0,0	  x0:0x00000000
       78495000	      7848	800008f4	00000013	addi	x0,x0,0	  x0:0x00000000
       78505000	      7849	800008f8	03c00f6f	jal	x30,800008f8	 x30=0x800008f8
       78515000	      7850	00000000	00000013	addi	x0,x0,0	  x0:0x00000000
       78525000	      7851	80000930	00000013	addi	x0,x0,0	  x0:0x00000000
       78535000	      7852	80000934	fcdff36f	jal	x6,80000934	  x6=0x80000934
       78545000	      7853	00000000	00000013	addi	x0,x0,0	  x0:0x00000000
       78555000	      7854	800008fc	00000013	addi	x0,x0,0	  x0:0x00000000
       78565000	      7855	80000900	05c00c6f	jal	x24,80000900	 x24=0x80000900
       78575000	      7856	00000000	00000013	addi	x0,x0,0	  x0:0x00000000
       78585000	      7857	80000958	00000013	addi	x0,x0,0	  x0:0x00000000
       78595000	      7858	8000095c	ff9ff36f	jal	x6,8000095c	  x6=0x8000095c
       78605000	      7859	00000000	00000013	addi	x0,x0,0	  x0:0x00000000
       78615000	      7860	80000950	00000013	addi	x0,x0,0	  x0:0x00000000
       78625000	      7861	80000954	fd1ff26f	jal	x4,80000954	  x4=0x80000954
       78635000	      7862	00000000	00000013	addi	x0,x0,0	  x0:0x00000000
       78645000	      7863	80000920	00000013	addi	x0,x0,0	  x0:0x00000000
       78655000	      7864	80000924	ff9ff6ef	jal	x13,80000924	 x13=0x80000924
       78665000	      7865	00000000	00000013	addi	x0,x0,0	  x0:0x00000000
       78675000	      7866	80000918	00000013	addi	x0,x0,0	  x0:0x00000000
       78685000	      7867	8000091c	014002ef	jal	x5,8000091c	  x5=0x8000091c
       78695000	      7868	00000000	00000013	addi	x0,x0,0	  x0:0x00000000
       78705000	      7869	8000092c	00000013	addi	x0,x0,0	  x0:0x00000000
       78715000	      7870	80000930	fddff26f	jal	x4,80000930	  x4=0x80000930
       78725000	      7871	00000000	00000013	addi	x0,x0,0	  x0:0x00000000
       78735000	      7872	80000908	00000013	addi	x0,x0,0	  x0:0x00000000
       78745000	      7873	8000090c	004000ef	jal	x1,8000090c	  x1=0x8000090c
       78755000	      7874	00000000	00000013	addi	x0,x0,0	  x0:0x00000000
       78765000	      7875	8000090c	00000013	addi	x0,x0,0	  x0:0x00000000
       78775000	      7876	80000910	fedff36f	jal	x6,80000910	  x6=0x80000910
       78785000	      7877	00000000	00000013	addi	x0,x0,0	  x0:0x00000000
       78795000	      7878	800008f8	00000013	addi	x0,x0,0	  x0:0x00000000
       78805000	      7879	800008fc	0440036f	jal	x6,800008fc	  x6=0x800008fc
       78815000	      7880	00000000	00000013	addi	x0,x0,0	  x0:0x00000000
       78825000	      7881	8000093c	00000013	addi	x0,x0,0	  x0:0x00000000
       78835000	      7882	80000940	fc5ff0ef	jal	x1,80000940	  x1=0x80000940
       78845000	      7883	00000000	00000013	addi	x0,x0,0	  x0:0x00000000
       78855000	      7884	80000900	00000013	addi	x0,x0,0	  x0:0x00000000
       78865000	      7885	80000904	0480036f	jal	x6,80000904	  x6=0x80000904
       78875000	      7886	00000000	00000013	addi	x0,x0,0	  x0:0x00000000
       78885000	      7887	80000948	00000013	addi	x0,x0,0	  x0:0x00000000
       78895000	      7888	8000094c	00c000ef	jal	x1,8000094c	  x1=0x8000094c
       78905000	      7889	00000000	00000013	addi	x0,x0,0	  x0:0x00000000
       78915000	      7890	80000954	00000013	addi	x0,x0,0	  x0:0x00000000
       78925000	      7891	80000958	00c000ef	jal	x1,80000958	  x1=0x80000958
       78935000	      7892	00000000	00000013	addi	x0,x0,0	  x0:0x00000000
       78945000	      7893	80000960	00000013	addi	x0,x0,0	  x0:0x00000000
       78955000	      7894	80000964	00034033	xor	x0,x6,x0	  x6:0x80000904  x0:0x00000000
       78965000	      7895	80000968	04c000ef	jal	x1,80000968	  x1=0x80000968
       78975000	      7896	00000000	00000013	addi	x0,x0,0	  x0:0x00000000
       78985000	      7897	800009b0	00000013	addi	x0,x0,0	  x0:0x00000000
       78995000	      7898	800009b4	0180076f	jal	x14,800009b4	 x14=0x800009b4
       79005000	      7899	00000000	00000013	addi	x0,x0,0	  x0:0x00000000
       79015000	      7900	800009c8	00000013	addi	x0,x0,0	  x0:0x00000000
       79025000	      7901	800009cc	fc1ff0ef	jal	x1,800009cc	  x1=0x800009cc
       79035000	      7902	00000000	00000013	addi	x0,x0,0	  x0:0x00000000
       79045000	      7903	80000988	00000013	addi	x0,x0,0	  x0:0x00000000
       79055000	      7904	8000098c	038000ef	jal	x1,8000098c	  x1=0x8000098c
       79065000	      7905	00000000	00000013	addi	x0,x0,0	  x0:0x00000000
       79075000	      7906	800009c0	00000013	addi	x0,x0,0	  x0:0x00000000
       79085000	      7907	800009c4	fedff0ef	jal	x1,800009c4	  x1=0x800009c4
       79095000	      7908	00000000	00000013	addi	x0,x0,0	  x0:0x00000000
       79105000	      7909	800009ac	00000013	addi	x0,x0,0	  x0:0x00000000
       79115000	      7910	800009b0	fd5ffe6f	jal	x28,800009b0	 x28=0x800009b0
       79125000	      7911	00000000	00000013	addi	x0,x0,0	  x0:0x00000000
       79135000	      7912	80000980	00000013	addi	x0,x0,0	  x0:0x00000000
       79145000	      7913	80000984	fe9ff36f	jal	x6,80000984	  x6=0x80000984
       79155000	      7914	00000000	00000013	addi	x0,x0,0	  x0:0x00000000
       79165000	      7915	80000968	00000013	addi	x0,x0,0	  x0:0x00000000
       79175000	      7916	8000096c	01c00eef	jal	x29,8000096c	 x29=0x8000096c
       79185000	      7917	00000000	00000013	addi	x0,x0,0	  x0:0x00000000
       79195000	      7918	80000984	00000013	addi	x0,x0,0	  x0:0x00000000
       79205000	      7919	80000988	00c0026f	jal	x4,80000988	  x4=0x80000988
       79215000	      7920	00000000	00000013	addi	x0,x0,0	  x0:0x00000000
       79225000	      7921	80000990	00000013	addi	x0,x0,0	  x0:0x00000000
       79235000	      7922	80000994	0280016f	jal	x2,80000994	  x2=0x80000994
       79245000	      7923	00000000	00000013	addi	x0,x0,0	  x0:0x00000000
       79255000	      7924	800009b8	00000013	addi	x0,x0,0	  x0:0x00000000
       79265000	      7925	800009bc	fd5ff0ef	jal	x1,800009bc	  x1=0x800009bc
       79275000	      7926	00000000	00000013	addi	x0,x0,0	  x0:0x00000000
       79285000	      7927	8000098c	00000013	addi	x0,x0,0	  x0:0x00000000
       79295000	      7928	80000990	ff1ff1ef	jal	x3,80000990	  x3=0x80000990
       79305000	      7929	00000000	00000013	addi	x0,x0,0	  x0:0x00000000
       79315000	      7930	8000097c	00000013	addi	x0,x0,0	  x0:0x00000000
       79325000	      7931	80000980	01c0036f	jal	x6,80000980	  x6=0x80000980
       79335000	      7932	00000000	00000013	addi	x0,x0,0	  x0:0x00000000
       79345000	      7933	80000998	00000013	addi	x0,x0,0	  x0:0x00000000
       79355000	      7934	8000099c	0040056f	jal	x10,8000099c	 x10=0x8000099c
       79365000	      7935	00000000	00000013	addi	x0,x0,0	  x0:0x00000000
       79375000	      7936	8000099c	00000013	addi	x0,x0,0	  x0:0x00000000
       79385000	      7937	800009a0	fd1ff0ef	jal	x1,800009a0	  x1=0x800009a0
       79395000	      7938	00000000	00000013	addi	x0,x0,0	  x0:0x00000000
       79405000	      7939	8000096c	00000013	addi	x0,x0,0	  x0:0x00000000
       79415000	      7940	80000970	0380036f	jal	x6,80000970	  x6=0x80000970
       79425000	      7941	00000000	00000013	addi	x0,x0,0	  x0:0x00000000
       79435000	      7942	800009a4	00000013	addi	x0,x0,0	  x0:0x00000000
       79445000	      7943	800009a8	004000ef	jal	x1,800009a8	  x1=0x800009a8
       79455000	      7944	00000000	00000013	addi	x0,x0,0	  x0:0x00000000
       79465000	      7945	800009a8	00000013	addi	x0,x0,0	  x0:0x00000000
       79475000	      7946	800009ac	fedff4ef	jal	x9,800009ac	  x9=0x800009ac
       79485000	      7947	00000000	00000013	addi	x0,x0,0	  x0:0x00000000
       79495000	      7948	80000994	00000013	addi	x0,x0,0	  x0:0x00000000
       79505000	      7949	80000998	00c003ef	jal	x7,80000998	  x7=0x80000998
       79515000	      7950	00000000	00000013	addi	x0,x0,0	  x0:0x00000000
       79525000	      7951	800009a0	00000013	addi	x0,x0,0	  x0:0x00000000
       79535000	      7952	800009a4	fd5ff0ef	jal	x1,800009a4	  x1=0x800009a4
       79545000	      7953	00000000	00000013	addi	x0,x0,0	  x0:0x00000000
       79555000	      7954	80000974	00000013	addi	x0,x0,0	  x0:0x00000000
       79565000	      7955	80000978	ffdffe6f	jal	x28,80000978	 x28=0x80000978
       79575000	      7956	00000000	00000013	addi	x0,x0,0	  x0:0x00000000
       79585000	      7957	80000970	00000013	addi	x0,x0,0	  x0:0x00000000
       79595000	      7958	80000974	044000ef	jal	x1,80000974	  x1=0x80000974
       79605000	      7959	00000000	00000013	addi	x0,x0,0	  x0:0x00000000
       79615000	      7960	800009b4	00000013	addi	x0,x0,0	  x0:0x00000000
       79625000	      7961	800009b8	fc5ff96f	jal	x18,800009b8	 x18=0x800009b8
       79635000	      7962	00000000	00000013	addi	x0,x0,0	  x0:0x00000000
       79645000	      7963	80000978	00000013	addi	x0,x0,0	  x0:0x00000000
       79655000	      7964	8000097c	04c007ef	jal	x15,8000097c	 x15=0x8000097c
       79665000	      7965	00000000	00000013	addi	x0,x0,0	  x0:0x00000000
       79675000	      7966	800009c4	00000013	addi	x0,x0,0	  x0:0x00000000
       79685000	      7967	800009c8	ff9ff36f	jal	x6,800009c8	  x6=0x800009c8
       79695000	      7968	00000000	00000013	addi	x0,x0,0	  x0:0x00000000
       79705000	      7969	800009bc	00000013	addi	x0,x0,0	  x0:0x00000000
       79715000	      7970	800009c0	010000ef	jal	x1,800009c0	  x1=0x800009c0
       79725000	      7971	00000000	00000013	addi	x0,x0,0	  x0:0x00000000
       79735000	      7972	800009cc	00000013	addi	x0,x0,0	  x0:0x00000000
       79745000	      7973	800009d0	fb013093	sltiu	x1,x2,-80	  x2:0x80000994  x1=0x00000001
       79755000	      7974	800009d4	03c000ef	jal	x1,800009d4	  x1=0x800009d4
       79765000	      7975	00000000	00000013	addi	x0,x0,0	  x0:0x00000000
       79775000	      7976	80000a0c	00000013	addi	x0,x0,0	  x0:0x00000000
       79785000	      7977	80000a10	00c00a6f	jal	x20,80000a10	 x20=0x80000a10
       79795000	      7978	00000000	00000013	addi	x0,x0,0	  x0:0x00000000
       79805000	      7979	80000a18	00000013	addi	x0,x0,0	  x0:0x00000000
       79815000	      7980	80000a1c	fc5ff66f	jal	x12,80000a1c	 x12=0x80000a1c
       79825000	      7981	00000000	00000013	addi	x0,x0,0	  x0:0x00000000
       79835000	      7982	800009dc	00000013	addi	x0,x0,0	  x0:0x00000000
       79845000	      7983	800009e0	04c000ef	jal	x1,800009e0	  x1=0x800009e0
       79855000	      7984	00000000	00000013	addi	x0,x0,0	  x0:0x00000000
       79865000	      7985	80000a28	00000013	addi	x0,x0,0	  x0:0x00000000
       79875000	      7986	80000a2c	fc1ff0ef	jal	x1,80000a2c	  x1=0x80000a2c
       79885000	      7987	00000000	00000013	addi	x0,x0,0	  x0:0x00000000
       79895000	      7988	800009e8	00000013	addi	x0,x0,0	  x0:0x00000000
       79905000	      7989	800009ec	00c000ef	jal	x1,800009ec	  x1=0x800009ec
       79915000	      7990	00000000	00000013	addi	x0,x0,0	  x0:0x00000000
       79925000	      7991	800009f4	00000013	addi	x0,x0,0	  x0:0x00000000
       79935000	      7992	800009f8	038000ef	jal	x1,800009f8	  x1=0x800009f8
       79945000	      7993	00000000	00000013	addi	x0,x0,0	  x0:0x00000000
       79955000	      7994	80000a2c	00000013	addi	x0,x0,0	  x0:0x00000000
       79965000	      7995	80000a30	fb9ff0ef	jal	x1,80000a30	  x1=0x80000a30
       79975000	      7996	00000000	00000013	addi	x0,x0,0	  x0:0x00000000
       79985000	      7997	800009e4	00000013	addi	x0,x0,0	  x0:0x00000000
       79995000	      7998	800009e8	ff5ff0ef	jal	x1,800009e8	  x1=0x800009e8
       80005000	      7999	00000000	00000013	addi	x0,x0,0	  x0:0x00000000
       80015000	      8000	800009d8	00000013	addi	x0,x0,0	  x0:0x00000000
       80025000	      8001	800009dc	014000ef	jal	x1,800009dc	  x1=0x800009dc
       80035000	      8002	00000000	00000013	addi	x0,x0,0	  x0:0x00000000
       80045000	      8003	800009ec	00000013	addi	x0,x0,0	  x0:0x00000000
       80055000	      8004	800009f0	024000ef	jal	x1,800009f0	  x1=0x800009f0
       80065000	      8005	00000000	00000013	addi	x0,x0,0	  x0:0x00000000
       80075000	      8006	80000a10	00000013	addi	x0,x0,0	  x0:0x00000000
       80085000	      8007	80000a14	fc5ff16f	jal	x2,80000a14	  x2=0x80000a14
       80095000	      8008	00000000	00000013	addi	x0,x0,0	  x0:0x00000000
       80105000	      8009	800009d4	00000013	addi	x0,x0,0	  x0:0x00000000
       80115000	      8010	800009d8	048000ef	jal	x1,800009d8	  x1=0x800009d8
       80125000	      8011	00000000	00000013	addi	x0,x0,0	  x0:0x00000000
       80135000	      8012	80000a1c	00000013	addi	x0,x0,0	  x0:0x00000000
       80145000	      8013	80000a20	008000ef	jal	x1,80000a20	  x1=0x80000a20
       80155000	      8014	00000000	00000013	addi	x0,x0,0	  x0:0x00000000
       80165000	      8015	80000a24	00000013	addi	x0,x0,0	  x0:0x00000000
       80175000	      8016	80000a28	014000ef	jal	x1,80000a28	  x1=0x80000a28
       80185000	      8017	00000000	00000013	addi	x0,x0,0	  x0:0x00000000
       80195000	      8018	80000a38	00000013	addi	x0,x0,0	  x0:0x00000000
       80205000	      8019	80000a3c	ff9ff16f	jal	x2,80000a3c	  x2=0x80000a3c
       80215000	      8020	00000000	00000013	addi	x0,x0,0	  x0:0x00000000
       80225000	      8021	80000a30	00000013	addi	x0,x0,0	  x0:0x00000000
       80235000	      8022	80000a34	01000f6f	jal	x30,80000a34	 x30=0x80000a34
       80245000	      8023	00000000	00000013	addi	x0,x0,0	  x0:0x00000000
       80255000	      8024	80000a40	00000013	addi	x0,x0,0	  x0:0x00000000
       80265000	      8025	80000a44	fa1ff0ef	jal	x1,80000a44	  x1=0x80000a44
       80275000	      8026	00000000	00000013	addi	x0,x0,0	  x0:0x00000000
       80285000	      8027	800009e0	00000013	addi	x0,x0,0	  x0:0x00000000
       80295000	      8028	800009e4	020000ef	jal	x1,800009e4	  x1=0x800009e4
       80305000	      8029	00000000	00000013	addi	x0,x0,0	  x0:0x00000000
       80315000	      8030	80000a00	00000013	addi	x0,x0,0	  x0:0x00000000
       80325000	      8031	80000a04	014000ef	jal	x1,80000a04	  x1=0x80000a04
       80335000	      8032	00000000	00000013	addi	x0,x0,0	  x0:0x00000000
       80345000	      8033	80000a14	00000013	addi	x0,x0,0	  x0:0x00000000
       80355000	      8034	80000a18	028000ef	jal	x1,80000a18	  x1=0x80000a18
       80365000	      8035	00000000	00000013	addi	x0,x0,0	  x0:0x00000000
       80375000	      8036	80000a3c	00000013	addi	x0,x0,0	  x0:0x00000000
       80385000	      8037	80000a40	ff9ff0ef	jal	x1,80000a40	  x1=0x80000a40
       80395000	      8038	00000000	00000013	addi	x0,x0,0	  x0:0x00000000
       80405000	      8039	80000a34	00000013	addi	x0,x0,0	  x0:0x00000000
       80415000	      8040	80000a38	010001ef	jal	x3,80000a38	  x3=0x80000a38
       80425000	      8041	00000000	00000013	addi	x0,x0,0	  x0:0x00000000
       80435000	      8042	80000a44	00000013	addi	x0,x0,0	  x0:0x00000000
       80445000	      8043	80000a48	fb9ff36f	jal	x6,80000a48	  x6=0x80000a48
       80455000	      8044	00000000	00000013	addi	x0,x0,0	  x0:0x00000000
       80465000	      8045	800009fc	00000013	addi	x0,x0,0	  x0:0x00000000
       80475000	      8046	80000a00	ff5ff0ef	jal	x1,80000a00	  x1=0x80000a00
       80485000	      8047	00000000	00000013	addi	x0,x0,0	  x0:0x00000000
       80495000	      8048	800009f0	00000013	addi	x0,x0,0	  x0:0x00000000
       80505000	      8049	800009f4	0080026f	jal	x4,800009f4	  x4=0x800009f4
       80515000	      8050	00000000	00000013	addi	x0,x0,0	  x0:0x00000000
       80525000	      8051	800009f8	00000013	addi	x0,x0,0	  x0:0x00000000
       80535000	      8052	800009fc	01000e6f	jal	x28,800009fc	 x28=0x800009fc
       80545000	      8053	00000000	00000013	addi	x0,x0,0	  x0:0x00000000
       80555000	      8054	80000a08	00000013	addi	x0,x0,0	  x0:0x00000000
       80565000	      8055	80000a0c	ffdff0ef	jal	x1,80000a0c	  x1=0x80000a0c
       80575000	      8056	00000000	00000013	addi	x0,x0,0	  x0:0x00000000
       80585000	      8057	80000a04	00000013	addi	x0,x0,0	  x0:0x00000000
       80595000	      8058	80000a08	01c0036f	jal	x6,80000a08	  x6=0x80000a08
       80605000	      8059	00000000	00000013	addi	x0,x0,0	  x0:0x00000000
       80615000	      8060	80000a20	00000013	addi	x0,x0,0	  x0:0x00000000
       80625000	      8061	80000a24	028000ef	jal	x1,80000a24	  x1=0x80000a24
       80635000	      8062	00000000	00000013	addi	x0,x0,0	  x0:0x00000000
       80645000	      8063	80000a48	00000013	addi	x0,x0,0	  x0:0x00000000
       80655000	      8064	80000a4c	00000013	addi	x0,x0,0	  x0:0x00000000
       80665000	      8065	80000a50	04c000ef	jal	x1,80000a50	  x1=0x80000a50
       80675000	      8066	00000000	00000013	addi	x0,x0,0	  x0:0x00000000
       80685000	      8067	80000a98	00000013	addi	x0,x0,0	  x0:0x00000000
       80695000	      8068	80000a9c	00400aef	jal	x21,80000a9c	 x21=0x80000a9c
       80705000	      8069	00000000	00000013	addi	x0,x0,0	  x0:0x00000000
       80715000	      8070	80000a9c	00000013	addi	x0,x0,0	  x0:0x00000000
       80725000	      8071	80000aa0	fddff0ef	jal	x1,80000aa0	  x1=0x80000aa0
       80735000	      8072	00000000	00000013	addi	x0,x0,0	  x0:0x00000000
       80745000	      8073	80000a78	00000013	addi	x0,x0,0	  x0:0x00000000
       80755000	      8074	80000a7c	ff5ff9ef	jal	x19,80000a7c	 x19=0x80000a7c
       80765000	      8075	00000000	00000013	addi	x0,x0,0	  x0:0x00000000
       80775000	      8076	80000a6c	00000013	addi	x0,x0,0	  x0:0x00000000
       80785000	      8077	80000a70	0240036f	jal	x6,80000a70	  x6=0x80000a70
       80795000	      8078	00000000	00000013	addi	x0,x0,0	  x0:0x00000000
       80805000	      8079	80000a90	00000013	addi	x0,x0,0	  x0:0x00000000
       80815000	      8080	80000a94	0100056f	jal	x10,80000a94	 x10=0x80000a94
       80825000	      8081	00000000	00000013	addi	x0,x0,0	  x0:0x00000000
       80835000	      8082	80000aa0	00000013	addi	x0,x0,0	  x0:0x00000000
       80845000	      8083	80000aa4	fc1ff36f	jal	x6,80000aa4	  x6=0x80000aa4
       80855000	      8084	00000000	00000013	addi	x0,x0,0	  x0:0x00000000
       80865000	      8085	80000a60	00000013	addi	x0,x0,0	  x0:0x00000000
       80875000	      8086	80000a64	ff1ff0ef	jal	x1,80000a64	  x1=0x80000a64
       80885000	      8087	00000000	00000013	addi	x0,x0,0	  x0:0x00000000
       80895000	      8088	80000a50	00000013	addi	x0,x0,0	  x0:0x00000000
       80905000	      8089	80000a54	0440036f	jal	x6,80000a54	  x6=0x80000a54
       80915000	      8090	00000000	00000013	addi	x0,x0,0	  x0:0x00000000
       80925000	      8091	80000a94	00000013	addi	x0,x0,0	  x0:0x00000000
       80935000	      8092	80000a98	fc9ff0ef	jal	x1,80000a98	  x1=0x80000a98
       80945000	      8093	00000000	00000013	addi	x0,x0,0	  x0:0x00000000
       80955000	      8094	80000a5c	00000013	addi	x0,x0,0	  x0:0x00000000
       80965000	      8095	80000a60	008000ef	jal	x1,80000a60	  x1=0x80000a60
       80975000	      8096	00000000	00000013	addi	x0,x0,0	  x0:0x00000000
       80985000	      8097	80000a64	00000013	addi	x0,x0,0	  x0:0x00000000
       80995000	      8098	80000a68	044000ef	jal	x1,80000a68	  x1=0x80000a68
       81005000	      8099	00000000	00000013	addi	x0,x0,0	  x0:0x00000000
       81015000	      8100	80000aa8	00000013	addi	x0,x0,0	  x0:0x00000000
       81025000	      8101	80000aac	fe1ffa6f	jal	x20,80000aac	 x20=0x80000aac
       81035000	      8102	00000000	00000013	addi	x0,x0,0	  x0:0x00000000
       81045000	      8103	80000a88	00000013	addi	x0,x0,0	  x0:0x00000000
       81055000	      8104	80000a8c	ffdff66f	jal	x12,80000a8c	 x12=0x80000a8c
       81065000	      8105	00000000	00000013	addi	x0,x0,0	  x0:0x00000000
       81075000	      8106	80000a84	00000013	addi	x0,x0,0	  x0:0x00000000
       81085000	      8107	80000a88	008000ef	jal	x1,80000a88	  x1=0x80000a88
       81095000	      8108	00000000	00000013	addi	x0,x0,0	  x0:0x00000000
       81105000	      8109	80000a8c	00000013	addi	x0,x0,0	  x0:0x00000000
       81115000	      8110	80000a90	fe9ff7ef	jal	x15,80000a90	 x15=0x80000a90
       81125000	      8111	00000000	00000013	addi	x0,x0,0	  x0:0x00000000
       81135000	      8112	80000a74	00000013	addi	x0,x0,0	  x0:0x00000000
       81145000	      8113	80000a78	00c000ef	jal	x1,80000a78	  x1=0x80000a78
       81155000	      8114	00000000	00000013	addi	x0,x0,0	  x0:0x00000000
       81165000	      8115	80000a80	00000013	addi	x0,x0,0	  x0:0x00000000
       81175000	      8116	80000a84	ffdff36f	jal	x6,80000a84	  x6=0x80000a84
       81185000	      8117	00000000	00000013	addi	x0,x0,0	  x0:0x00000000
       81195000	      8118	80000a7c	00000013	addi	x0,x0,0	  x0:0x00000000
       81205000	      8119	80000a80	ff5ff9ef	jal	x19,80000a80	 x19=0x80000a80
       81215000	      8120	00000000	00000013	addi	x0,x0,0	  x0:0x00000000
       81225000	      8121	80000a70	00000013	addi	x0,x0,0	  x0:0x00000000
       81235000	      8122	80000a74	ff9ff36f	jal	x6,80000a74	  x6=0x80000a74
       81245000	      8123	00000000	00000013	addi	x0,x0,0	  x0:0x00000000
       81255000	      8124	80000a68	00000013	addi	x0,x0,0	  x0:0x00000000
       81265000	      8125	80000a6c	ff1ff96f	jal	x18,80000a6c	 x18=0x80000a6c
       81275000	      8126	00000000	00000013	addi	x0,x0,0	  x0:0x00000000
       81285000	      8127	80000a58	00000013	addi	x0,x0,0	  x0:0x00000000
       81295000	      8128	80000a5c	04c000ef	jal	x1,80000a5c	  x1=0x80000a5c
       81305000	      8129	00000000	00000013	addi	x0,x0,0	  x0:0x00000000
       81315000	      8130	80000aa4	00000013	addi	x0,x0,0	  x0:0x00000000
       81325000	      8131	80000aa8	fb1ff0ef	jal	x1,80000aa8	  x1=0x80000aa8
       81335000	      8132	00000000	00000013	addi	x0,x0,0	  x0:0x00000000
       81345000	      8133	80000a54	00000013	addi	x0,x0,0	  x0:0x00000000
       81355000	      8134	80000a58	0580036f	jal	x6,80000a58	  x6=0x80000a58
       81365000	      8135	00000000	00000013	addi	x0,x0,0	  x0:0x00000000
       81375000	      8136	80000aac	00000013	addi	x0,x0,0	  x0:0x00000000
       81385000	      8137	80000ab0	018597b3	sll	x15,x11,x24	 x11:0x800008c8 x24:0x80000900 x15=0x800008c8
       81395000	      8138	80000ab4	024000ef	jal	x1,80000ab4	  x1=0x80000ab4
       81405000	      8139	00000000	00000013	addi	x0,x0,0	  x0:0x00000000
       81415000	      8140	80000ad4	00000013	addi	x0,x0,0	  x0:0x00000000
       81425000	      8141	80000ad8	0040026f	jal	x4,80000ad8	  x4=0x80000ad8
       81435000	      8142	00000000	00000013	addi	x0,x0,0	  x0:0x00000000
       81445000	      8143	80000ad8	00000013	addi	x0,x0,0	  x0:0x00000000
       81455000	      8144	80000adc	fddff26f	jal	x4,80000adc	  x4=0x80000adc
       81465000	      8145	00000000	00000013	addi	x0,x0,0	  x0:0x00000000
       81475000	      8146	80000ab4	00000013	addi	x0,x0,0	  x0:0x00000000
       81485000	      8147	80000ab8	018000ef	jal	x1,80000ab8	  x1=0x80000ab8
       81495000	      8148	00000000	00000013	addi	x0,x0,0	  x0:0x00000000
       81505000	      8149	80000acc	00000013	addi	x0,x0,0	  x0:0x00000000
       81515000	      8150	80000ad0	010000ef	jal	x1,80000ad0	  x1=0x80000ad0
       81525000	      8151	00000000	00000013	addi	x0,x0,0	  x0:0x00000000
       81535000	      8152	80000adc	00000013	addi	x0,x0,0	  x0:0x00000000
       81545000	      8153	80000ae0	fe5ff0ef	jal	x1,80000ae0	  x1=0x80000ae0
       81555000	      8154	00000000	00000013	addi	x0,x0,0	  x0:0x00000000
       81565000	      8155	80000ac0	00000013	addi	x0,x0,0	  x0:0x00000000
       81575000	      8156	80000ac4	010000ef	jal	x1,80000ac4	  x1=0x80000ac4
       81585000	      8157	00000000	00000013	addi	x0,x0,0	  x0:0x00000000
       81595000	      8158	80000ad0	00000013	addi	x0,x0,0	  x0:0x00000000
       81605000	      8159	80000ad4	ff9ff0ef	jal	x1,80000ad4	  x1=0x80000ad4
       81615000	      8160	00000000	00000013	addi	x0,x0,0	  x0:0x00000000
       81625000	      8161	80000ac8	00000013	addi	x0,x0,0	  x0:0x00000000
       81635000	      8162	80000acc	ff5ff0ef	jal	x1,80000acc	  x1=0x80000acc
       81645000	      8163	00000000	00000013	addi	x0,x0,0	  x0:0x00000000
       81655000	      8164	80000abc	00000013	addi	x0,x0,0	  x0:0x00000000
       81665000	      8165	80000ac0	ffdff0ef	jal	x1,80000ac0	  x1=0x80000ac0
       81675000	      8166	00000000	00000013	addi	x0,x0,0	  x0:0x00000000
       81685000	      8167	80000ab8	00000013	addi	x0,x0,0	  x0:0x00000000
       81695000	      8168	80000abc	00c009ef	jal	x19,80000abc	 x19=0x80000abc
       81705000	      8169	00000000	00000013	addi	x0,x0,0	  x0:0x00000000
       81715000	      8170	80000ac4	00000013	addi	x0,x0,0	  x0:0x00000000
       81725000	      8171	80000ac8	01c00fef	jal	x31,80000ac8	 x31=0x80000ac8
       81735000	      8172	00000000	00000013	addi	x0,x0,0	  x0:0x00000000
       81745000	      8173	80000ae0	00000013	addi	x0,x0,0	  x0:0x00000000
       81755000	      8174	80000ae4	707ca317	auipc	x6,0x707ca	  x6=0xf07caae0
       81765000	      8175	80000ae8	009537b3	sltu	x15,x10,x9	 x10:0x80000a94  x9:0x800009ac x15=0x00000000
       81775000	      8176	80000aec	b6e82193	slti	x3,x16,-1170	 x16:0x8000083c  x3=0x00000001
       81785000	      8177	80000af0	3a59c513	xori	x10,x19,933	 x19:0x80000abc x10=0x80000919
       81795000	      8178	80000af4	033f7313	andi	x6,x30,51	 x30:0x80000a34  x6=0x00000030
       81805000	      8179	80000af8	f9a0c193	xori	x3,x1,-102	  x1:0x80000ac0  x3=0x7ffff55a
       81815000	      8180	80000afc	19e1d137	lui	x2,0x19e1d	  x2=0x19e1d000
       81825000	      8181	80000b00	29623793	sltiu	x15,x4,662	  x4:0x80000adc x15=0x00000000
       81835000	      8182	80000b04	01aaa133	slt	x2,x21,x26	 x21:0x80000a9c x26:0x000000ff  x2=0x00000001
       81845000	      8183	80000b08	00aed533	srl	x10,x29,x10	 x29:0x8000096c x10:0x80000919 x10=0x00000040
       81855000	      8184	80000b0c	00000013	addi	x0,x0,0	  x0:0x00000000
       81865000	      8185	80000b10	00cc37b3	sltu	x15,x24,x12	 x24:0x80000900 x12:0x80000a8c x15=0x00000001
       81875000	      8186	80000b14	00db32b3	sltu	x5,x22,x13	 x22:0x8000092c x13:0x80000924  x5=0x00000000
       81885000	      8187	80000b18	02146863	bltu	x8,x1,80000b48	  x8:0x80009fc4  x1:0x80000ac0
       81895000	      8188	80000b1c	01e1f633	and	x12,x3,x30	  x3:0x7ffff55a x30:0x80000a34 x12=0x00000010
       81905000	      8189	80000b20	017e42b3	xor	x5,x28,x23	 x28:0x800009fc x23:0x80000674  x5=0x00000f88
       81915000	      8190	80000b24	01d9d313	srli	x6,x19,0x1d	 x19:0x80000abc  x6=0x00000004
       81925000	      8191	80000b28	3e242713	slti	x14,x8,994	  x8:0x80009fc4 x14=0x00000001
       81935000	      8192	80000b2c	01043e33	sltu	x28,x8,x16	  x8:0x80009fc4 x16:0x8000083c x28=0x00000000
       81945000	      8193	80000b30	8c6af013	andi	x0,x21,-1850	 x21:0x80000a9c
       81955000	      8194	80000b34	d2926a93	ori	x21,x4,-727	  x4:0x80000adc x21=0xfffffffd
       81965000	      8195	80000b38	01690ab3	add	x21,x18,x22	 x18:0x80000a6c x22:0x8000092c x21=0x00001398
       81975000	      8196	80000b3c	011c04b3	add	x9,x24,x17	 x24:0x80000900 x17:0x0000000c  x9=0x8000090c
       81985000	      8197	80000b40	40475193	srai	x3,x14,0x4	 x14:0x00000001  x3=0x00000000
       81995000	      8198	80000b44	00000013	addi	x0,x0,0	  x0:0x00000000
       82005000	      8199	80000b48	879d7913	andi	x18,x26,-1927	 x26:0x000000ff x18=0x00000079
       82015000	      8200	80000b4c	486e6113	ori	x2,x28,1158	 x28:0x00000000  x2=0x00000486
       82025000	      8201	80000b50	409adf13	srai	x30,x21,0x9	 x21:0x00001398 x30=0x00000009
       82035000	      8202	80000b54	0121e033	or	x0,x3,x18	  x3:0x00000000 x18:0x00000079
       82045000	      8203	80000b58	00f20e63	beq	x4,x15,80000b74	  x4:0x80000adc x15:0x00000001
       82055000	      8204	80000b5c	15272b97	auipc	x23,0x15272	 x23=0x95272b58
       82065000	      8205	80000b60	013447b3	xor	x15,x8,x19	  x8:0x80009fc4 x19:0x80000abc x15=0x00009578
       82075000	      8206	80000b64	cb3fa613	slti	x12,x31,-845	 x31:0x80000ac8 x12=0x00000001
       82085000	      8207	80000b68	02965c63	bge	x12,x9,80000ba0	 x12:0x00000001  x9:0x8000090c
       82095000	      8208	00000000	00000013	addi	x0,x0,0	  x0:0x00000000
       82105000	      8209	80000b9c	00000013	addi	x0,x0,0	  x0:0x00000000
       82115000	      8210	80000ba0	e8b02813	slti	x16,x0,-373	  x0:0x00000000 x16=0x00000000
       82125000	      8211	80000ba4	a0ed6c97	auipc	x25,0xa0ed6	 x25=0x20ed6ba0
       82135000	      8212	80000ba8	028b7797	auipc	x15,0x28b7	 x15=0x828b7ba4
       82145000	      8213	80000bac	084b3113	sltiu	x2,x22,132	 x22:0x8000092c  x2=0x00000000
       82155000	      8214	80000bb0	05d95863	bge	x18,x29,80000c00	 x18:0x00000079 x29:0x8000096c
       82165000	      8215	00000000	00000013	addi	x0,x0,0	  x0:0x00000000
       82175000	      8216	80000bfc	00000013	addi	x0,x0,0	  x0:0x00000000
       82185000	      8217	80000c00	0022f863	bgeu	x5,x2,80000c10	  x5:0x00000f88  x2:0x00000000
       82195000	      8218	00000000	00000013	addi	x0,x0,0	  x0:0x00000000
       82205000	      8219	80000c0c	00000013	addi	x0,x0,0	  x0:0x00000000
       82215000	      8220	80000c10	8fa96b93	ori	x23,x18,-1798	 x18:0x00000079 x23=0xfffff8fb
       82225000	      8221	80000c14	00919463	bne	x3,x9,80000c1c	  x3:0x00000000  x9:0x8000090c
       82235000	      8222	00000000	00000013	addi	x0,x0,0	  x0:0x00000000
       82245000	      8223	80000c18	00000013	addi	x0,x0,0	  x0:0x00000000
       82255000	      8224	80000c1c	01d80133	add	x2,x16,x29	 x16:0x00000000 x29:0x8000096c  x2=0x8000096c
       82265000	      8225	80000c20	05069eb7	lui	x29,0x5069	 x29=0x05069000
       82275000	      8226	80000c24	4ef19b17	auipc	x22,0x4ef19	 x22=0xcef19c20
       82285000	      8227	80000c28	0044c263	blt	x9,x4,80000c2c	  x9:0x8000090c  x4:0x80000adc
       82295000	      8228	00000000	00000013	addi	x0,x0,0	  x0:0x00000000
       82305000	      8229	80000c28	00000013	addi	x0,x0,0	  x0:0x00000000
       82315000	      8230	80000c2c	04834063	blt	x6,x8,80000c6c	  x6:0x00000004  x8:0x80009fc4
       82325000	      8231	80000c30	0129f5b3	and	x11,x19,x18	 x19:0x80000abc x18:0x00000079 x11=0x00000038
       82335000	      8232	80000c34	01f35cb3	srl	x25,x6,x31	  x6:0x00000004 x31:0x80000ac8 x25=0x00000000
       82345000	      8233	80000c38	3b3d7397	auipc	x7,0x3b3d7	  x7=0xbb3d7c34
       82355000	      8234	80000c3c	012d95b3	sll	x11,x27,x18	 x27:0x80009ecc x18:0x00000079 x11=0x98000000
       82365000	      8235	80000c40	003ae3b3	or	x7,x21,x3	 x21:0x00001398  x3:0x00000000  x7=0x00001398
       82375000	      8236	80000c44	005ac933	xor	x18,x21,x5	 x21:0x00001398  x5:0x00000f88 x18=0x00001c10
       82385000	      8237	80000c48	018271b3	and	x3,x4,x24	  x4:0x80000adc x24:0x80000900  x3=0x80000800
       82395000	      8238	80000c4c	04096063	bltu	x18,x0,80000c8c	 x18:0x00001c10  x0:0x00000000
       82405000	      8239	80000c50	006b1463	bne	x22,x6,80000c58	 x22:0xcef19c20  x6:0x00000004
       82415000	      8240	00000000	00000013	addi	x0,x0,0	  x0:0x00000000
       82425000	      8241	80000c54	00000013	addi	x0,x0,0	  x0:0x00000000
       82435000	      8242	80000c58	41355133	sra	x2,x10,x19	 x10:0x00000040 x19:0x80000abc  x2=0x00000000
       82445000	      8243	80000c5c	01052633	slt	x12,x10,x16	 x10:0x00000040 x16:0x00000000 x12=0x00000000
       82455000	      8244	80000c60	9ca2f517	auipc	x10,0x9ca2f	 x10=0x1ca2fc5c
       82465000	      8245	80000c64	01885313	srli	x6,x16,0x18	 x16:0x00000000  x6=0x00000000
       82475000	      8246	80000c68	7bf76113	ori	x2,x14,1983	 x14:0x00000001  x2=0x000007bf
       82485000	      8247	80000c6c	218b6793	ori	x15,x22,536	 x22:0xcef19c20 x15=0xcef19e38
       82495000	      8248	80000c70	4136df13	srai	x30,x13,0x13	 x13:0x80000924 x30=0xfffff000
       82505000	      8249	80000c74	00afea63	bltu	x31,x10,80000c88	 x31:0x80000ac8 x10:0x1ca2fc5c
       82515000	      8250	80000c78	2bc1d517	auipc	x10,0x2bc1d	 x10=0xabc1dc74
       82525000	      8251	80000c7c	00c83633	sltu	x12,x16,x12	 x16:0x00000000 x12:0x00000000 x12=0x00000000
       82535000	      8252	80000c80	01475b93	srli	x23,x14,0x14	 x14:0x00000001 x23=0x00000000
       82545000	      8253	80000c84	00a8c663	blt	x17,x10,80000c90	 x17:0x0000000c x10:0xabc1dc74
       82555000	      8254	80000c88	00639633	sll	x12,x7,x6	  x7:0x00001398  x6:0x00000000 x12=0x00001398
       82565000	      8255	80000c8c	04b78863	beq	x15,x11,80000cdc	 x15:0xcef19e38 x11:0x98000000
       82575000	      8256	80000c90	0bff7c93	andi	x25,x30,191	 x30:0xfffff000 x25=0x00000000
       82585000	      8257	80000c94	0068be33	sltu	x28,x17,x6	 x17:0x0000000c  x6:0x00000000 x28=0x00000000
       82595000	      8258	80000c98	0178ff33	and	x30,x17,x23	 x17:0x0000000c x23:0x00000000 x30=0x00000000
       82605000	      8259	80000c9c	01e4da33	srl	x20,x9,x30	  x9:0x8000090c x30:0x00000000 x20=0x8000090c
       82615000	      8260	80000ca0	054ad863	bge	x21,x20,80000cf0	 x21:0x00001398 x20:0x8000090c
       82625000	      8261	00000000	00000013	addi	x0,x0,0	  x0:0x00000000
       82635000	      8262	80000cec	00000013	addi	x0,x0,0	  x0:0x00000000
       82645000	      8263	80000cf0	04d48313	addi	x6,x9,77	  x9:0x8000090c  x6=0x80000959
       82655000	      8264	80000cf4	717a7f93	andi	x31,x20,1815	 x20:0x8000090c x31=0x00000104
       82665000	      8265	80000cf8	01a6fb13	andi	x22,x13,26	 x13:0x80000924 x22=0x00000000
       82675000	      8266	80000cfc	00780cb3	add	x25,x16,x7	 x16:0x00000000  x7:0x00001398 x25=0x00001398
       82685000	      8267	80000d00	01852f33	slt	x30,x10,x24	 x10:0xabc1dc74 x24:0x80000900 x30=0x00000000
       82695000	      8268	80000d04	009cb7b3	sltu	x15,x25,x9	 x25:0x00001398  x9:0x8000090c x15=0x00000001
       82705000	      8269	80000d08	7fda3913	sltiu	x18,x20,2045	 x20:0x8000090c x18=0x00000000
       82715000	      8270	80000d0c	01aa46b3	xor	x13,x20,x26	 x20:0x8000090c x26:0x000000ff x13=0x800009f3
       82725000	      8271	80000d10	02a59663	bne	x11,x10,80000d3c	 x11:0x98000000 x10:0xabc1dc74
       82735000	      8272	00000000	00000013	addi	x0,x0,0	  x0:0x00000000
       82745000	      8273	80000d38	00000013	addi	x0,x0,0	  x0:0x00000000
       82755000	      8274	80000d3c	ec12f093	andi	x1,x5,-319	  x5:0x00000f88  x1=0x00000e80
       82765000	      8275	80000d40	f2276a93	ori	x21,x14,-222	 x14:0x00000001 x21=0xffffff23
       82775000	      8276	80000d44	01ea8b33	add	x22,x21,x30	 x21:0xffffff23 x30:0x00000000 x22=0xffffff23
       82785000	      8277	80000d48	0030a933	slt	x18,x1,x3	  x1:0x00000e80  x3:0x80000800 x18=0x00000000
       82795000	      8278	80000d4c	eab43a93	sltiu	x21,x8,-341	  x8:0x80009fc4 x21=0x00000001
       82805000	      8279	80000d50	41d0d513	srai	x10,x1,0x1d	  x1:0x00000e80 x10=0x00000000
       82815000	      8280	80000d54	02050863	beq	x10,x0,80000d84	 x10:0x00000000  x0:0x00000000
       82825000	      8281	00000000	00000013	addi	x0,x0,0	  x0:0x00000000
       82835000	      8282	80000d80	00000013	addi	x0,x0,0	  x0:0x00000000
       82845000	      8283	80000d84	027b9c63	bne	x23,x7,80000dbc	 x23:0x00000000  x7:0x00001398
       82855000	      8284	00000000	00000013	addi	x0,x0,0	  x0:0x00000000
       82865000	      8285	80000db8	00000013	addi	x0,x0,0	  x0:0x00000000
       82875000	      8286	80000dbc	000fd2b3	srl	x5,x31,x0	 x31:0x00000104  x0:0x00000000  x5=0x00000104
       82885000	      8287	80000dc0	01311b93	slli	x23,x2,0x13	  x2:0x000007bf x23=0x3df80000
       82895000	      8288	80000dc4	ae333393	sltiu	x7,x6,-1309	  x6:0x80000959  x7=0x00000001
       82905000	      8289	80000dc8	00958033	add	x0,x11,x9	 x11:0x98000000  x9:0x8000090c
       82915000	      8290	80000dcc	62253c13	sltiu	x24,x10,1570	 x10:0x00000000 x24=0x00000001
       82925000	      8291	80000dd0	004942b3	xor	x5,x18,x4	 x18:0x00000000  x4:0x80000adc  x5=0x80000adc
       82935000	      8292	80000dd4	417e8cb3	sub	x25,x29,x23	 x29:0x05069000 x23:0x3df80000 x25=0xc70e9000
       82945000	      8293	80000dd8	00cae733	or	x14,x21,x12	 x21:0x00000001 x12:0x00001398 x14=0x00001399
       82955000	      8294	80000ddc	01ceae33	slt	x28,x29,x28	 x29:0x05069000 x28:0x00000000 x28=0x00000000
       82965000	      8295	80000de0	014271b3	and	x3,x4,x20	  x4:0x80000adc x20:0x8000090c  x3=0x8000080c
       82975000	      8296	80000de4	009f67b3	or	x15,x30,x9	 x30:0x00000000  x9:0x8000090c x15=0x8000090c
       82985000	      8297	80000de8	75218213	addi	x4,x3,1874	  x3:0x8000080c  x4=0x80000f5e
       82995000	      8298	80000dec	01819263	bne	x3,x24,80000df0	  x3:0x8000080c x24:0x00000001
       83005000	      8299	00000000	00000013	addi	x0,x0,0	  x0:0x00000000
       83015000	      8300	80000dec	00000013	addi	x0,x0,0	  x0:0x00000000
       83025000	      8301	80000df0	00645513	srli	x10,x8,0x6	  x8:0x80009fc4 x10=0x0200027f
       83035000	      8302	80000df4	0740b513	sltiu	x10,x1,116	  x1:0x00000e80 x10=0x00000000
       83045000	      8303	80000df8	16f19c37	lui	x24,0x16f19	 x24=0x16f19000
       83055000	      8304	80000dfc	021bea63	bltu	x23,x1,80000e30	 x23:0x3df80000  x1:0x00000e80
       83065000	      8305	80000e00	02fb3697	auipc	x13,0x2fb3	 x13=0x82fb3dfc
       83075000	      8306	80000e04	40ca0b33	sub	x22,x20,x12	 x20:0x8000090c x12:0x00001398 x22=0x7ffff574
       83085000	      8307	80000e08	012e43b3	xor	x7,x28,x18	 x28:0x00000000 x18:0x00000000  x7=0x00000000
       83095000	      8308	80000e0c	03636663	bltu	x6,x22,80000e38	  x6:0x80000959 x22:0x7ffff574
       83105000	      8309	80000e10	25a86013	ori	x0,x16,602	 x16:0x00000000
       83115000	      8310	80000e14	410b00b3	sub	x1,x22,x16	 x22:0x7ffff574 x16:0x00000000  x1=0x7ffff574
       83125000	      8311	80000e18	40028633	sub	x12,x5,x0	  x5:0x80000adc  x0:0x00000000 x12=0x80000adc
       83135000	      8312	80000e1c	006e6a63	bltu	x28,x6,80000e30	 x28:0x00000000  x6:0x80000959
       83145000	      8313	00000000	00000013	addi	x0,x0,0	  x0:0x00000000
       83155000	      8314	80000e2c	00000013	addi	x0,x0,0	  x0:0x00000000
       83165000	      8315	80000e30	00b131b3	sltu	x3,x2,x11	  x2:0x000007bf x11:0x98000000  x3=0x00000001
       83175000	      8316	80000e34	01941133	sll	x2,x8,x25	  x8:0x80009fc4 x25:0xc70e9000  x2=0x80009fc4
       83185000	      8317	80000e38	00b61663	bne	x12,x11,80000e44	 x12:0x80000adc x11:0x98000000
       83195000	      8318	00000000	00000013	addi	x0,x0,0	  x0:0x00000000
       83205000	      8319	80000e40	00000013	addi	x0,x0,0	  x0:0x00000000
       83215000	      8320	80000e44	0169d2b3	srl	x5,x19,x22	 x19:0x80000abc x22:0x7ffff574  x5=0x00000800
       83225000	      8321	80000e48	0263fc63	bgeu	x7,x6,80000e80	  x7:0x00000000  x6:0x80000959
       83235000	      8322	80000e4c	65057293	andi	x5,x10,1616	 x10:0x00000000  x5=0x00000000
       83245000	      8323	80000e50	012f5263	bge	x30,x18,80000e54	 x30:0x00000000 x18:0x00000000
       83255000	      8324	00000000	00000013	addi	x0,x0,0	  x0:0x00000000
       83265000	      8325	80000e50	00000013	addi	x0,x0,0	  x0:0x00000000
       83275000	      8326	80000e54	01a6d263	bge	x13,x26,80000e58	 x13:0x82fb3dfc x26:0x000000ff
       83285000	      8327	80000e58	00705b93	srli	x23,x0,0x7	  x0:0x00000000 x23=0x00000000
       83295000	      8328	80000e5c	02494193	xori	x3,x18,36	 x18:0x00000000  x3=0x00000024
       83305000	      8329	80000e60	00000013	addi	x0,x0,0	  x0:0x00000000
       83315000	      8330	80000e64	0082f7b3	and	x15,x5,x8	  x5:0x00000000  x8:0x80009fc4 x15=0x00000000
       83325000	      8331	80000e68	00cd9633	sll	x12,x27,x12	 x27:0x80009ecc x12:0x80000adc x12=0xc0000000
       83335000	      8332	80000e6c	11d22e93	slti	x29,x4,285	  x4:0x80000f5e x29=0x00000001
       83345000	      8333	80000e70	007cea33	or	x20,x25,x7	 x25:0xc70e9000  x7:0x00000000 x20=0xc70e9000
       83355000	      8334	80000e74	00681993	slli	x19,x16,0x6	 x16:0x00000000 x19=0x00000000
       83365000	      8335	80000e78	00000013	addi	x0,x0,0	  x0:0x00000000
       83375000	      8336	80000e7c	01089263	bne	x17,x16,80000e80	 x17:0x0000000c x16:0x00000000
       83385000	      8337	00000000	00000013	addi	x0,x0,0	  x0:0x00000000
       83395000	      8338	80000e7c	00000013	addi	x0,x0,0	  x0:0x00000000
       83405000	      8339	80000e80	008de463	bltu	x27,x8,80000e88	 x27:0x80009ecc  x8:0x80009fc4
       83415000	      8340	00000000	00000013	addi	x0,x0,0	  x0:0x00000000
       83425000	      8341	80000e84	00000013	addi	x0,x0,0	  x0:0x00000000
       83435000	      8342	80000e88	00bd1993	slli	x19,x26,0xb	 x26:0x000000ff x19=0x0007f800
       83445000	      8343	80000e8c	40bfd133	sra	x2,x31,x11	 x31:0x00000104 x11:0x98000000  x2=0x00000104
       83455000	      8344	80000e90	00f46e63	bltu	x8,x15,80000eac	  x8:0x80009fc4 x15:0x00000000
       83465000	      8345	80000e94	5e3db993	sltiu	x19,x27,1507	 x27:0x80009ecc x19=0x00000000
       83475000	      8346	80000e98	8b9ff313	andi	x6,x31,-1863	 x31:0x00000104  x6=0x00000000
       83485000	      8347	80000e9c	03627463	bgeu	x4,x22,80000ec4	  x4:0x80000f5e x22:0x7ffff574
       83495000	      8348	00000000	00000013	addi	x0,x0,0	  x0:0x00000000
       83505000	      8349	80000ec0	00000013	addi	x0,x0,0	  x0:0x00000000
       83515000	      8350	80000ec4	0130b0b3	sltu	x1,x1,x19	  x1:0x7ffff574 x19:0x00000000  x1=0x00000000
       83525000	      8351	80000ec8	0157f733	and	x14,x15,x21	 x15:0x00000000 x21:0x00000001 x14=0x00000000
       83535000	      8352	80000ecc	00000013	addi	x0,x0,0	  x0:0x00000000
       83545000	      8353	80000ed0	8817c013	xori	x0,x15,-1919	 x15:0x00000000
       83555000	      8354	80000ed4	eb0c2bb7	lui	x23,0xeb0c2	 x23=0xeb0c2000
       83565000	      8355	80000ed8	b4fe7f13	andi	x30,x28,-1201	 x28:0x00000000 x30=0x00000000
       83575000	      8356	80000edc	011fda63	bge	x31,x17,80000ef0	 x31:0x00000104 x17:0x0000000c
       83585000	      8357	00000000	00000013	addi	x0,x0,0	  x0:0x00000000
       83595000	      8358	80000eec	00000013	addi	x0,x0,0	  x0:0x00000000
       83605000	      8359	80000ef0	4b85bb93	sltiu	x23,x11,1208	 x11:0x98000000 x23=0x00000000
       83615000	      8360	80000ef4	c9f63a17	auipc	x20,0xc9f63	 x20=0x49f63ef0
       83625000	      8361	80000ef8	034bb513	sltiu	x10,x23,52	 x23:0x00000000 x10=0x00000001
       83635000	      8362	80000efc	01d24ab3	xor	x21,x4,x29	  x4:0x80000f5e x29:0x00000001 x21=0x80000f5f
       83645000	      8363	80000f00	072a8e63	beq	x21,x18,80000f7c	 x21:0x80000f5f x18:0x00000000
       83655000	      8364	80000f04	00851bb3	sll	x23,x10,x8	 x10:0x00000001  x8:0x80009fc4 x23=0x00000010
       83665000	      8365	80000f08	95f1f913	andi	x18,x3,-1697	  x3:0x00000024 x18=0x00000004
       83675000	      8366	80000f0c	0a6c32b7	lui	x5,0xa6c3	  x5=0x0a6c3000
       83685000	      8367	80000f10	0079c9b3	xor	x19,x19,x7	 x19:0x00000000  x7:0x00000000 x19=0x00000000
       83695000	      8368	80000f14	01161fb3	sll	x31,x12,x17	 x12:0xc0000000 x17:0x0000000c x31=0x00000000
       83705000	      8369	80000f18	0016d193	srli	x3,x13,0x1	 x13:0x82fb3dfc  x3=0x417d9efe
       83715000	      8370	80000f1c	000dee33	or	x28,x27,x0	 x27:0x80009ecc  x0:0x00000000 x28=0x80009ecc
       83725000	      8371	80000f20	00492533	slt	x10,x18,x4	 x18:0x00000004  x4:0x80000f5e x10=0x00000000
       83735000	      8372	80000f24	00f87c63	bgeu	x16,x15,80000f3c	 x16:0x00000000 x15:0x00000000
       83745000	      8373	00000000	00000013	addi	x0,x0,0	  x0:0x00000000
       83755000	      8374	80000f38	00000013	addi	x0,x0,0	  x0:0x00000000
       83765000	      8375	80000f3c	b9cff0ef	jal	x1,80000f3c	  x1=0x80000f3c
       83775000	      8376	00000000	00000013	addi	x0,x0,0	  x0:0x00000000
       83785000	      8377	800002d4	00000013	addi	x0,x0,0	  x0:0x00000000
       83795000	      8378	800002d8	01885863	bge	x16,x24,800002e8	 x16:0x00000000 x24:0x16f19000
       83805000	      8379	800002dc	006e8233	add	x4,x29,x6	 x29:0x00000001  x6:0x00000000  x4=0x00000001
       83815000	      8380	800002e0	40b65f13	srai	x30,x12,0xb	 x12:0xc0000000 x30=0xfff80000
       83825000	      8381	800002e4	017dae33	slt	x28,x27,x23	 x27:0x80009ecc x23:0x00000010 x28=0x00000001
       83835000	      8382	800002e8	fe8d8d93	addi	x27,x27,-24	 x27:0x80009ecc x27=0x80009eb4
       83845000	      8383	800002ec	4067db93	srai	x23,x15,0x6	 x15:0x00000000 x23=0x00000000
       83855000	      8384	800002f0	e4566c93	ori	x25,x12,-443	 x12:0xc0000000 x25=0xfffffe45
       83865000	      8385	800002f4	001adfb3	srl	x31,x21,x1	 x21:0x80000f5f  x1:0x80000f3c x31=0x00000008
       83875000	      8386	800002f8	001da223	sw	x1,4(x27)	 x27:0x80009eb4  x1:0x80000f3c PA:0x80009eb8
       83885000	      8387	800002fc	40490033	sub	x0,x18,x4	 x18:0x00000004  x4:0x00000001
       83895000	      8388	80000300	040000ef	jal	x1,80000300	  x1=0x80000300
       83905000	      8389	00000000	00000013	addi	x0,x0,0	  x0:0x00000000
       83915000	      8390	8000033c	00000013	addi	x0,x0,0	  x0:0x00000000
       83925000	      8391	80000340	ff9ff36f	jal	x6,80000340	  x6=0x80000340
       83935000	      8392	00000000	00000013	addi	x0,x0,0	  x0:0x00000000
       83945000	      8393	80000334	00000013	addi	x0,x0,0	  x0:0x00000000
       83955000	      8394	80000338	fd9ff0ef	jal	x1,80000338	  x1=0x80000338
       83965000	      8395	00000000	00000013	addi	x0,x0,0	  x0:0x00000000
       83975000	      8396	8000030c	00000013	addi	x0,x0,0	  x0:0x00000000
       83985000	      8397	80000310	0180026f	jal	x4,80000310	  x4=0x80000310
       83995000	      8398	00000000	00000013	addi	x0,x0,0	  x0:0x00000000
       84005000	      8399	80000324	00000013	addi	x0,x0,0	  x0:0x00000000
       84015000	      8400	80000328	fddff36f	jal	x6,80000328	  x6=0x80000328
       84025000	      8401	00000000	00000013	addi	x0,x0,0	  x0:0x00000000
       84035000	      8402	80000300	00000013	addi	x0,x0,0	  x0:0x00000000
       84045000	      8403	80000304	044000ef	jal	x1,80000304	  x1=0x80000304
       84055000	      8404	00000000	00000013	addi	x0,x0,0	  x0:0x00000000
       84065000	      8405	80000344	00000013	addi	x0,x0,0	  x0:0x00000000
       84075000	      8406	80000348	008000ef	jal	x1,80000348	  x1=0x80000348
       84085000	      8407	00000000	00000013	addi	x0,x0,0	  x0:0x00000000
       84095000	      8408	8000034c	00000013	addi	x0,x0,0	  x0:0x00000000
       84105000	      8409	80000350	ffdff36f	jal	x6,80000350	  x6=0x80000350
       84115000	      8410	00000000	00000013	addi	x0,x0,0	  x0:0x00000000
       84125000	      8411	80000348	00000013	addi	x0,x0,0	  x0:0x00000000
       84135000	      8412	8000034c	fd5ff0ef	jal	x1,8000034c	  x1=0x8000034c
       84145000	      8413	00000000	00000013	addi	x0,x0,0	  x0:0x00000000
       84155000	      8414	8000031c	00000013	addi	x0,x0,0	  x0:0x00000000
       84165000	      8415	80000320	fedff0ef	jal	x1,80000320	  x1=0x80000320
       84175000	      8416	00000000	00000013	addi	x0,x0,0	  x0:0x00000000
       84185000	      8417	80000308	00000013	addi	x0,x0,0	  x0:0x00000000
       84195000	      8418	8000030c	0100036f	jal	x6,8000030c	  x6=0x8000030c
       84205000	      8419	00000000	00000013	addi	x0,x0,0	  x0:0x00000000
       84215000	      8420	80000318	00000013	addi	x0,x0,0	  x0:0x00000000
       84225000	      8421	8000031c	018005ef	jal	x11,8000031c	 x11=0x8000031c
       84235000	      8422	00000000	00000013	addi	x0,x0,0	  x0:0x00000000
       84245000	      8423	80000330	00000013	addi	x0,x0,0	  x0:0x00000000
       84255000	      8424	80000334	ff9ff0ef	jal	x1,80000334	  x1=0x80000334
       84265000	      8425	00000000	00000013	addi	x0,x0,0	  x0:0x00000000
       84275000	      8426	80000328	00000013	addi	x0,x0,0	  x0:0x00000000
       84285000	      8427	8000032c	010000ef	jal	x1,8000032c	  x1=0x8000032c
       84295000	      8428	00000000	00000013	addi	x0,x0,0	  x0:0x00000000
       84305000	      8429	80000338	00000013	addi	x0,x0,0	  x0:0x00000000
       84315000	      8430	8000033c	fddff0ef	jal	x1,8000033c	  x1=0x8000033c
       84325000	      8431	00000000	00000013	addi	x0,x0,0	  x0:0x00000000
       84335000	      8432	80000314	00000013	addi	x0,x0,0	  x0:0x00000000
       84345000	      8433	80000318	018004ef	jal	x9,80000318	  x9=0x80000318
       84355000	      8434	00000000	00000013	addi	x0,x0,0	  x0:0x00000000
       84365000	      8435	8000032c	00000013	addi	x0,x0,0	  x0:0x00000000
       84375000	      8436	80000330	fe5ff0ef	jal	x1,80000330	  x1=0x80000330
       84385000	      8437	00000000	00000013	addi	x0,x0,0	  x0:0x00000000
       84395000	      8438	80000310	00000013	addi	x0,x0,0	  x0:0x00000000
       84405000	      8439	80000314	030000ef	jal	x1,80000314	  x1=0x80000314
       84415000	      8440	00000000	00000013	addi	x0,x0,0	  x0:0x00000000
       84425000	      8441	80000340	00000013	addi	x0,x0,0	  x0:0x00000000
       84435000	      8442	80000344	fc5ffbef	jal	x23,80000344	 x23=0x80000344
       84445000	      8443	00000000	00000013	addi	x0,x0,0	  x0:0x00000000
       84455000	      8444	80000304	00000013	addi	x0,x0,0	  x0:0x00000000
       84465000	      8445	80000308	01c0036f	jal	x6,80000308	  x6=0x80000308
       84475000	      8446	00000000	00000013	addi	x0,x0,0	  x0:0x00000000
       84485000	      8447	80000320	00000013	addi	x0,x0,0	  x0:0x00000000
       84495000	      8448	80000324	030005ef	jal	x11,80000324	 x11=0x80000324
       84505000	      8449	00000000	00000013	addi	x0,x0,0	  x0:0x00000000
       84515000	      8450	80000350	00000013	addi	x0,x0,0	  x0:0x00000000
       84525000	      8451	80000354	df194793	xori	x15,x18,-527	 x18:0x00000004 x15=0xfffffdf5
       84535000	      8452	80000358	024000ef	jal	x1,80000358	  x1=0x80000358
       84545000	      8453	00000000	00000013	addi	x0,x0,0	  x0:0x00000000
       84555000	      8454	80000378	00000013	addi	x0,x0,0	  x0:0x00000000
       84565000	      8455	8000037c	004007ef	jal	x15,8000037c	 x15=0x8000037c
       84575000	      8456	00000000	00000013	addi	x0,x0,0	  x0:0x00000000
       84585000	      8457	8000037c	00000013	addi	x0,x0,0	  x0:0x00000000
       84595000	      8458	80000380	014000ef	jal	x1,80000380	  x1=0x80000380
       84605000	      8459	00000000	00000013	addi	x0,x0,0	  x0:0x00000000
       84615000	      8460	80000390	00000013	addi	x0,x0,0	  x0:0x00000000
       84625000	      8461	80000394	ff9ffbef	jal	x23,80000394	 x23=0x80000394
       84635000	      8462	00000000	00000013	addi	x0,x0,0	  x0:0x00000000
       84645000	      8463	80000388	00000013	addi	x0,x0,0	  x0:0x00000000
       84655000	      8464	8000038c	00c000ef	jal	x1,8000038c	  x1=0x8000038c
       84665000	      8465	00000000	00000013	addi	x0,x0,0	  x0:0x00000000
       84675000	      8466	80000394	00000013	addi	x0,x0,0	  x0:0x00000000
       84685000	      8467	80000398	fd5ffd6f	jal	x26,80000398	 x26=0x80000398
       84695000	      8468	00000000	00000013	addi	x0,x0,0	  x0:0x00000000
       84705000	      8469	80000368	00000013	addi	x0,x0,0	  x0:0x00000000
       84715000	      8470	8000036c	ffdff2ef	jal	x5,8000036c	  x5=0x8000036c
       84725000	      8471	00000000	00000013	addi	x0,x0,0	  x0:0x00000000
       84735000	      8472	80000364	00000013	addi	x0,x0,0	  x0:0x00000000
       84745000	      8473	80000368	ff5ff2ef	jal	x5,80000368	  x5=0x80000368
       84755000	      8474	00000000	00000013	addi	x0,x0,0	  x0:0x00000000
       84765000	      8475	80000358	00000013	addi	x0,x0,0	  x0:0x00000000
       84775000	      8476	8000035c	0040036f	jal	x6,8000035c	  x6=0x8000035c
       84785000	      8477	00000000	00000013	addi	x0,x0,0	  x0:0x00000000
       84795000	      8478	8000035c	00000013	addi	x0,x0,0	  x0:0x00000000
       84805000	      8479	80000360	0300016f	jal	x2,80000360	  x2=0x80000360
       84815000	      8480	00000000	00000013	addi	x0,x0,0	  x0:0x00000000
       84825000	      8481	8000038c	00000013	addi	x0,x0,0	  x0:0x00000000
       84835000	      8482	80000390	fe5ff0ef	jal	x1,80000390	  x1=0x80000390
       84845000	      8483	00000000	00000013	addi	x0,x0,0	  x0:0x00000000
       84855000	      8484	80000370	00000013	addi	x0,x0,0	  x0:0x00000000
       84865000	      8485	80000374	ffdff36f	jal	x6,80000374	  x6=0x80000374
       84875000	      8486	00000000	00000013	addi	x0,x0,0	  x0:0x00000000
       84885000	      8487	8000036c	00000013	addi	x0,x0,0	  x0:0x00000000
       84895000	      8488	80000370	01400b6f	jal	x22,80000370	 x22=0x80000370
       84905000	      8489	00000000	00000013	addi	x0,x0,0	  x0:0x00000000
       84915000	      8490	80000380	00000013	addi	x0,x0,0	  x0:0x00000000
       84925000	      8491	80000384	00400aef	jal	x21,80000384	 x21=0x80000384
       84935000	      8492	00000000	00000013	addi	x0,x0,0	  x0:0x00000000
       84945000	      8493	80000384	00000013	addi	x0,x0,0	  x0:0x00000000
       84955000	      8494	80000388	fddff0ef	jal	x1,80000388	  x1=0x80000388
       84965000	      8495	00000000	00000013	addi	x0,x0,0	  x0:0x00000000
       84975000	      8496	80000360	00000013	addi	x0,x0,0	  x0:0x00000000
       84985000	      8497	80000364	01400c6f	jal	x24,80000364	 x24=0x80000364
       84995000	      8498	00000000	00000013	addi	x0,x0,0	  x0:0x00000000
       85005000	      8499	80000374	00000013	addi	x0,x0,0	  x0:0x00000000
       85015000	      8500	80000378	0240036f	jal	x6,80000378	  x6=0x80000378
       85025000	      8501	00000000	00000013	addi	x0,x0,0	  x0:0x00000000
       85035000	      8502	80000398	00000013	addi	x0,x0,0	  x0:0x00000000
       85045000	      8503	8000039c	00d76ab3	or	x21,x14,x13	 x14:0x00000000 x13:0x82fb3dfc x21=0x82fb3dfc
       85055000	      8504	800003a0	00000013	addi	x0,x0,0	  x0:0x00000000
       85065000	      8505	800003a4	040a0263	beq	x20,x0,800003e8	 x20:0x49f63ef0  x0:0x00000000
       85075000	      8506	800003a8	015567b3	or	x15,x10,x21	 x10:0x00000000 x21:0x82fb3dfc x15=0x82fb3dfc
       85085000	      8507	800003ac	019f5663	bge	x30,x25,800003b8	 x30:0xfff80000 x25:0xfffffe45
       85095000	      8508	800003b0	02304263	blt	x0,x3,800003d4	  x0:0x00000000  x3:0x417d9efe
       85105000	      8509	00000000	00000013	addi	x0,x0,0	  x0:0x00000000
       85115000	      8510	800003d0	00000013	addi	x0,x0,0	  x0:0x00000000
       85125000	      8511	800003d4	01c25f33	srl	x30,x4,x28	  x4:0x80000310 x28:0x00000001 x30=0x40000188
       85135000	      8512	800003d8	01f2e263	bltu	x5,x31,800003dc	  x5:0x80000368 x31:0x00000008
       85145000	      8513	800003dc	00cdf463	bgeu	x27,x12,800003e4	 x27:0x80009eb4 x12:0xc0000000
       85155000	      8514	800003e0	01c422b3	slt	x5,x8,x28	  x8:0x80009fc4 x28:0x00000001  x5=0x00000001
       85165000	      8515	800003e4	005ada63	bge	x21,x5,800003f8	 x21:0x82fb3dfc  x5:0x00000001
       85175000	      8516	800003e8	01945113	srli	x2,x8,0x19	  x8:0x80009fc4  x2=0x00000040
       85185000	      8517	800003ec	0169ecb3	or	x25,x19,x22	 x19:0x00000000 x22:0x80000370 x25=0x80000370
       85195000	      8518	800003f0	b255ca93	xori	x21,x11,-1243	 x11:0x80000324 x21=0x7ffff801
       85205000	      8519	800003f4	876d8a13	addi	x20,x27,-1930	 x27:0x80009eb4 x20=0x8000972a
       85215000	      8520	800003f8	057b6663	bltu	x22,x23,80000444	 x22:0x80000370 x23:0x80000394
       85225000	      8521	00000000	00000013	addi	x0,x0,0	  x0:0x00000000
       85235000	      8522	80000440	00000013	addi	x0,x0,0	  x0:0x00000000
       85245000	      8523	80000444	01ff2fb3	slt	x31,x30,x31	 x30:0x40000188 x31:0x00000008 x31=0x00000000
       85255000	      8524	80000448	0157aab3	slt	x21,x15,x21	 x15:0x82fb3dfc x21:0x7ffff801 x21=0x00000001
       85265000	      8525	8000044c	68756613	ori	x12,x10,1671	 x10:0x00000000 x12=0x00000687
       85275000	      8526	80000450	db356813	ori	x16,x10,-589	 x10:0x00000000 x16=0xfffffdb3
       85285000	      8527	80000454	01c0ea63	bltu	x1,x28,80000468	  x1:0x80000388 x28:0x00000001
       85295000	      8528	80000458	03316063	bltu	x2,x19,80000478	  x2:0x00000040 x19:0x00000000
       85305000	      8529	8000045c	7df74c93	xori	x25,x14,2015	 x14:0x00000000 x25=0x000007df
       85315000	      8530	80000460	038efc63	bgeu	x29,x24,80000498	 x29:0x00000001 x24:0x80000364
       85325000	      8531	80000464	d6223613	sltiu	x12,x4,-670	  x4:0x80000310 x12=0x00000001
       85335000	      8532	80000468	00bdfb33	and	x22,x27,x11	 x27:0x80009eb4 x11:0x80000324 x22=0x80000224
       85345000	      8533	8000046c	16543a13	sltiu	x20,x8,357	  x8:0x80009fc4 x20=0x00000000
       85355000	      8534	80000470	01128e63	beq	x5,x17,8000048c	  x5:0x00000001 x17:0x0000000c
       85365000	      8535	80000474	fd07e617	auipc	x12,0xfd07e	 x12=0x7d07e470
       85375000	      8536	80000478	04c85463	bge	x16,x12,800004c0	 x16:0xfffffdb3 x12:0x7d07e470
       85385000	      8537	8000047c	03a6c063	blt	x13,x26,8000049c	 x13:0x82fb3dfc x26:0x80000398
       85395000	      8538	80000480	8bf3e713	ori	x14,x7,-1857	  x7:0x00000000 x14=0xfffff8bf
       85405000	      8539	80000484	00518d33	add	x26,x3,x5	  x3:0x417d9efe  x5:0x00000001 x26=0x417d9eff
       85415000	      8540	80000488	02300e63	beq	x0,x3,800004c4	  x0:0x00000000  x3:0x417d9efe
       85425000	      8541	8000048c	41ffd5b3	sra	x11,x31,x31	 x31:0x00000000 x31:0x00000000 x11=0x00000000
       85435000	      8542	80000490	005f8cb3	add	x25,x31,x5	 x31:0x00000000  x5:0x00000001 x25=0x00000001
       85445000	      8543	80000494	01361913	slli	x18,x12,0x13	 x12:0x7d07e470 x18=0x23800000
       85455000	      8544	80000498	ed48e813	ori	x16,x17,-300	 x17:0x0000000c x16=0xfffffedc
       85465000	      8545	8000049c	82c47113	andi	x2,x8,-2004	  x8:0x80009fc4  x2=0x80009804
       85475000	      8546	800004a0	40b75eb3	sra	x29,x14,x11	 x14:0xfffff8bf x11:0x00000000 x29=0xfffff8bf
       85485000	      8547	800004a4	dc532c93	slti	x25,x6,-571	  x6:0x80000378 x25=0x00000001
       85495000	      8548	800004a8	541c9b97	auipc	x23,0x541c9	 x23=0xd41c94a4
       85505000	      8549	800004ac	01dccf33	xor	x30,x25,x29	 x25:0x00000001 x29:0xfffff8bf x30=0xfffff8be
       85515000	      8550	800004b0	00ade7b3	or	x15,x27,x10	 x27:0x80009eb4 x10:0x00000000 x15=0x80009eb4
       85525000	      8551	800004b4	00cc1e33	sll	x28,x24,x12	 x24:0x80000364 x12:0x7d07e470 x28=0x03640000
       85535000	      8552	800004b8	6cdd0313	addi	x6,x26,1741	 x26:0x417d9eff  x6=0x417da5cc
       85545000	      8553	800004bc	0181f0b3	and	x1,x3,x24	  x3:0x417d9efe x24:0x80000364  x1=0x00000264
       85555000	      8554	800004c0	01fc0533	add	x10,x24,x31	 x24:0x80000364 x31:0x00000000 x10=0x80000364
       85565000	      8555	800004c4	02037263	bgeu	x6,x0,800004e8	  x6:0x417da5cc  x0:0x00000000
       85575000	      8556	00000000	00000013	addi	x0,x0,0	  x0:0x00000000
       85585000	      8557	800004e4	00000013	addi	x0,x0,0	  x0:0x00000000
       85595000	      8558	800004e8	6efb6b93	ori	x23,x22,1775	 x22:0x80000224 x23=0x800006ef
       85605000	      8559	800004ec	95fc6c93	ori	x25,x24,-1697	 x24:0x80000364 x25=0xfffffb7f
       85615000	      8560	800004f0	000f92b3	sll	x5,x31,x0	 x31:0x00000000  x0:0x00000000  x5=0x00000000
       85625000	      8561	800004f4	5b61ef93	ori	x31,x3,1462	  x3:0x417d9efe x31=0x417d9ffe
       85635000	      8562	800004f8	007750b3	srl	x1,x14,x7	 x14:0xfffff8bf  x7:0x00000000  x1=0xfffff8bf
       85645000	      8563	800004fc	00546663	bltu	x8,x5,80000508	  x8:0x80009fc4  x5:0x00000000
       85655000	      8564	80000500	03e76863	bltu	x14,x30,80000530	 x14:0xfffff8bf x30:0xfffff8be
       85665000	      8565	80000504	410fdf33	sra	x30,x31,x16	 x31:0x417d9ffe x16:0xfffffedc x30=0x00000004
       85675000	      8566	80000508	a6e63137	lui	x2,0xa6e63	  x2=0xa6e63000
       85685000	      8567	8000050c	01b2d463	bge	x5,x27,80000514	  x5:0x00000000 x27:0x80009eb4
       85695000	      8568	00000000	00000013	addi	x0,x0,0	  x0:0x00000000
       85705000	      8569	80000510	00000013	addi	x0,x0,0	  x0:0x00000000
       85715000	      8570	80000514	02579663	bne	x15,x5,80000540	 x15:0x80009eb4  x5:0x00000000
       85725000	      8571	00000000	00000013	addi	x0,x0,0	  x0:0x00000000
       85735000	      8572	8000053c	00000013	addi	x0,x0,0	  x0:0x00000000
       85745000	      8573	80000540	017a2cb3	slt	x25,x20,x23	 x20:0x00000000 x23:0x800006ef x25=0x00000000
       85755000	      8574	80000544	055b0663	beq	x22,x21,80000590	 x22:0x80000224 x21:0x00000001
       85765000	      8575	80000548	00000013	addi	x0,x0,0	  x0:0x00000000
       85775000	      8576	8000054c	04d25463	bge	x4,x13,80000594	  x4:0x80000310 x13:0x82fb3dfc
       85785000	      8577	80000550	7e25ef93	ori	x31,x11,2018	 x11:0x00000000 x31=0x000007e2
       85795000	      8578	80000554	0f25b513	sltiu	x10,x11,242	 x11:0x00000000 x10=0x00000001
       85805000	      8579	80000558	010ab1b3	sltu	x3,x21,x16	 x21:0x00000001 x16:0xfffffedc  x3=0x00000001
       85815000	      8580	8000055c	416e5c33	sra	x24,x28,x22	 x28:0x03640000 x22:0x80000224 x24=0x00364000
       85825000	      8581	80000560	01fb1c93	slli	x25,x22,0x1f	 x22:0x80000224 x25=0x00000000
       85835000	      8582	80000564	f5d00713	addi	x14,x0,-163	  x0:0x00000000 x14=0xffffff5d
       85845000	      8583	80000568	40f7d2b3	sra	x5,x15,x15	 x15:0x80009eb4 x15:0x80009eb4  x5=0xfffff800
       85855000	      8584	8000056c	ee1b2313	slti	x6,x22,-287	 x22:0x80000224  x6=0x00000001
       85865000	      8585	80000570	77c88e93	addi	x29,x17,1916	 x17:0x0000000c x29=0x00000788
       85875000	      8586	80000574	02300663	beq	x0,x3,800005a0	  x0:0x00000000  x3:0x00000001
       85885000	      8587	80000578	00a2d993	srli	x19,x5,0xa	  x5:0xfffff800 x19=0x003ffffe
       85895000	      8588	8000057c	01e59233	sll	x4,x11,x30	 x11:0x00000000 x30:0x00000004  x4=0x00000000
       85905000	      8589	80000580	001441b3	xor	x3,x8,x1	  x8:0x80009fc4  x1:0xfffff8bf  x3=0x7fff677b
       85915000	      8590	80000584	034d1063	bne	x26,x20,800005a4	 x26:0x417d9eff x20:0x00000000
       85925000	      8591	00000000	00000013	addi	x0,x0,0	  x0:0x00000000
       85935000	      8592	800005a0	00000013	addi	x0,x0,0	  x0:0x00000000
       85945000	      8593	800005a4	4105d813	srai	x16,x11,0x10	 x11:0x00000000 x16=0x00000000
       85955000	      8594	800005a8	00aeb333	sltu	x6,x29,x10	 x29:0x00000788 x10:0x00000001  x6=0x00000000
       85965000	      8595	800005ac	018d5293	srli	x5,x26,0x18	 x26:0x417d9eff  x5=0x00000041
       85975000	      8596	800005b0	02a9c863	blt	x19,x10,800005e0	 x19:0x003ffffe x10:0x00000001
       85985000	      8597	800005b4	019facb3	slt	x25,x31,x25	 x31:0x000007e2 x25:0x00000000 x25=0x00000000
       85995000	      8598	800005b8	f09f9c97	auipc	x25,0xf09f9	 x25=0x709f95b4
       86005000	      8599	800005bc	41298333	sub	x6,x19,x18	 x19:0x003ffffe x18:0x23800000  x6=0xdcbffffe
       86015000	      8600	800005c0	3a538393	addi	x7,x7,933	  x7:0x00000000  x7=0x000003a5
       86025000	      8601	800005c4	406c0ab3	sub	x21,x24,x6	 x24:0x00364000  x6:0xdcbffffe x21=0x23764002
       86035000	      8602	800005c8	ebb04b97	auipc	x23,0xebb04	 x23=0x6bb045c4
       86045000	      8603	800005cc	0058dc93	srli	x25,x17,0x5	 x17:0x0000000c x25=0x00000000
       86055000	      8604	800005d0	385a3793	sltiu	x15,x20,901	 x20:0x00000000 x15=0x00000001
       86065000	      8605	800005d4	0cbe3993	sltiu	x19,x28,203	 x28:0x03640000 x19=0x00000000
       86075000	      8606	800005d8	004423b3	slt	x7,x8,x4	  x8:0x80009fc4  x4:0x00000000  x7=0x00000001
       86085000	      8607	800005dc	d75ee813	ori	x16,x29,-651	 x29:0x00000788 x16=0xfffffffd
       86095000	      8608	800005e0	40865e33	sra	x28,x12,x8	 x12:0x7d07e470  x8:0x80009fc4 x28=0x07d07e47
       86105000	      8609	800005e4	92b8f593	andi	x11,x17,-1749	 x17:0x0000000c x11=0x00000008
       86115000	      8610	800005e8	000f1293	slli	x5,x30,0x0	 x30:0x00000004  x5=0x00000004
       86125000	      8611	800005ec	db623017	auipc	x0,0xdb623	
       86135000	      8612	800005f0	004da083	lw	x1,4(x27)	 x27:0x80009eb4  x1=0x80000f3c PA:0x80009eb8
       86145000	      8613	800005f4	554be213	ori	x4,x23,1364	 x23:0x6bb045c4  x4=0x6bb045d4
       86155000	      8614	800005f8	018d8d93	addi	x27,x27,24	 x27:0x80009eb4 x27=0x80009ecc
       86165000	      8615	800005fc	3cb85a37	lui	x20,0x3cb85	 x20=0x3cb85000
       86175000	      8616	80000600	01b4b133	sltu	x2,x9,x27	  x9:0x80000318 x27:0x80009ecc  x2=0x00000001
       86185000	      8617	80000604	00008593	addi	x11,x1,0	  x1:0x80000f3c x11=0x80000f3c
       86195000	      8618	80000608	000585e7	jalr	x11,x11,0	 x11:0x80000f3c x11=0x80000608
       86205000	      8619	00000000	00000013	addi	x0,x0,0	  x0:0x00000000
       86215000	      8620	80000f3c	00000013	addi	x0,x0,0	  x0:0x00000000
       86225000	      8621	80000f40	00765a93	srli	x21,x12,0x7	 x12:0x7d07e470 x21=0x00fa0fc8
       86235000	      8622	80000f44	00221493	slli	x9,x4,0x2	  x4:0x6bb045d4  x9=0xaec11750
       86245000	      8623	80000f48	06eace13	xori	x28,x21,110	 x21:0x00fa0fc8 x28=0x00fa0fa6
       86255000	      8624	80000f4c	418e8c33	sub	x24,x29,x24	 x29:0x00000788 x24:0x00364000 x24=0xffc9c788
       86265000	      8625	80000f50	71316c93	ori	x25,x2,1811	  x2:0x00000001 x25=0x00000713
       86275000	      8626	80000f54	00000013	addi	x0,x0,0	  x0:0x00000000
       86285000	      8627	80000f58	004c80b3	add	x1,x25,x4	 x25:0x00000713  x4:0x6bb045d4  x1=0x6bb04ce7
       86295000	      8628	80000f5c	f4b92993	slti	x19,x18,-181	 x18:0x23800000 x19=0x00000000
       86305000	      8629	80000f60	01b0f463	bgeu	x1,x27,80000f68	  x1:0x6bb04ce7 x27:0x80009ecc
       86315000	      8630	80000f64	2a53c793	xori	x15,x7,677	  x7:0x00000001 x15=0x000002a4
       86325000	      8631	80000f68	be06ad13	slti	x26,x13,-1056	 x13:0x82fb3dfc x26=0x00000001
       86335000	      8632	80000f6c	02dd0263	beq	x26,x13,80000f90	 x26:0x00000001 x13:0x82fb3dfc
       86345000	      8633	80000f70	00eac663	blt	x21,x14,80000f7c	 x21:0x00fa0fc8 x14:0xffffff5d
       86355000	      8634	80000f74	80afeb13	ori	x22,x31,-2038	 x31:0x000007e2 x22=0xffffffea
       86365000	      8635	80000f78	00645033	srl	x0,x8,x6	  x8:0x80009fc4  x6:0xdcbffffe
       86375000	      8636	80000f7c	62b72293	slti	x5,x14,1579	 x14:0xffffff5d  x5=0x00000001
       86385000	      8637	80000f80	0c850263	beq	x10,x8,80001044	 x10:0x00000001  x8:0x80009fc4
       86395000	      8638	80000f84	01e06b33	or	x22,x0,x30	  x0:0x00000000 x30:0x00000004 x22=0x00000004
       86405000	      8639	80000f88	00c8a1b3	slt	x3,x17,x12	 x17:0x0000000c x12:0x7d07e470  x3=0x00000001
       86415000	      8640	80000f8c	01740333	add	x6,x8,x23	  x8:0x80009fc4 x23:0x6bb045c4  x6=0xebb0e588
       86425000	      8641	80000f90	01f00233	add	x4,x0,x31	  x0:0x00000000 x31:0x000007e2  x4=0x000007e2
       86435000	      8642	80000f94	01bb9033	sll	x0,x23,x27	 x23:0x6bb045c4 x27:0x80009ecc
       86445000	      8643	80000f98	414bd913	srai	x18,x23,0x14	 x23:0x6bb045c4 x18=0x000006bb
       86455000	      8644	80000f9c	01a9b633	sltu	x12,x19,x26	 x19:0x00000000 x26:0x00000001 x12=0x00000001
       86465000	      8645	80000fa0	5db58617	auipc	x12,0x5db58	 x12=0xddb58f9c
       86475000	      8646	80000fa4	efc26613	ori	x12,x4,-260	  x4:0x000007e2 x12=0xfffffffe
       86485000	      8647	80000fa8	10d07b13	andi	x22,x0,269	  x0:0x00000000 x22=0x00000000
       86495000	      8648	80000fac	b6a78b13	addi	x22,x15,-1174	 x15:0x000002a4 x22=0xfffffe0e
       86505000	      8649	80000fb0	0b9df063	bgeu	x27,x25,80001050	 x27:0x80009ecc x25:0x00000713
       86515000	      8650	00000000	00000013	addi	x0,x0,0	  x0:0x00000000
       86525000	      8651	8000104c	00000013	addi	x0,x0,0	  x0:0x00000000
       86535000	      8652	80001050	6b2ba493	slti	x9,x23,1714	 x23:0x6bb045c4  x9=0x00000000
       86545000	      8653	80001054	ebf7c393	xori	x7,x15,-321	 x15:0x000002a4  x7=0xfffffc1b
       86555000	      8654	80001058	04e59063	bne	x11,x14,80001098	 x11:0x80000608 x14:0xffffff5d
       86565000	      8655	00000000	00000013	addi	x0,x0,0	  x0:0x00000000
       86575000	      8656	80001094	00000013	addi	x0,x0,0	  x0:0x00000000
       86585000	      8657	80001098	04298863	beq	x19,x2,800010e8	 x19:0x00000000  x2:0x00000001
       86595000	      8658	8000109c	2195bb13	sltiu	x22,x11,537	 x11:0x80000608 x22=0x00000000
       86605000	      8659	800010a0	010687b3	add	x15,x13,x16	 x13:0x82fb3dfc x16:0xfffffffd x15=0x82fb3df9
       86615000	      8660	800010a4	40b486b3	sub	x13,x9,x11	  x9:0x00000000 x11:0x80000608 x13=0x7ffff9f8
       86625000	      8661	800010a8	0093c663	blt	x7,x9,800010b4	  x7:0xfffffc1b  x9:0x00000000
       86635000	      8662	00000000	00000013	addi	x0,x0,0	  x0:0x00000000
       86645000	      8663	800010b0	00000013	addi	x0,x0,0	  x0:0x00000000
       86655000	      8664	800010b4	024a8863	beq	x21,x4,800010e4	 x21:0x00fa0fc8  x4:0x000007e2
       86665000	      8665	800010b8	00502cb3	slt	x25,x0,x5	  x0:0x00000000  x5:0x00000001 x25=0x00000001
       86675000	      8666	800010bc	0138f633	and	x12,x17,x19	 x17:0x0000000c x19:0x00000000 x12=0x00000000
       86685000	      8667	800010c0	01552c33	slt	x24,x10,x21	 x10:0x00000001 x21:0x00fa0fc8 x24=0x00000001
       86695000	      8668	800010c4	00b8f2b3	and	x5,x17,x11	 x17:0x0000000c x11:0x80000608  x5=0x00000008
       86705000	      8669	800010c8	00ec6263	bltu	x24,x14,800010cc	 x24:0x00000001 x14:0xffffff5d
       86715000	      8670	00000000	00000013	addi	x0,x0,0	  x0:0x00000000
       86725000	      8671	800010c8	00000013	addi	x0,x0,0	  x0:0x00000000
       86735000	      8672	800010cc	00f076b3	and	x13,x0,x15	  x0:0x00000000 x15:0x82fb3df9 x13=0x00000000
       86745000	      8673	800010d0	01ee3033	sltu	x0,x28,x30	 x28:0x00fa0fa6 x30:0x00000004
       86755000	      8674	800010d4	413704b3	sub	x9,x14,x19	 x14:0xffffff5d x19:0x00000000  x9=0xffffff5d
       86765000	      8675	800010d8	41f7d593	srai	x11,x15,0x1f	 x15:0x82fb3df9 x11=0xffffffff
       86775000	      8676	800010dc	00d8de13	srli	x28,x17,0xd	 x17:0x0000000c x28=0x00000000
       86785000	      8677	800010e0	02a24463	blt	x4,x10,80001108	  x4:0x000007e2 x10:0x00000001
       86795000	      8678	800010e4	05999863	bne	x19,x25,80001134	 x19:0x00000000 x25:0x00000001
       86805000	      8679	00000000	00000013	addi	x0,x0,0	  x0:0x00000000
       86815000	      8680	80001130	00000013	addi	x0,x0,0	  x0:0x00000000
       86825000	      8681	80001134	8e0e6f17	auipc	x30,0x8e0e6	 x30=0x0e0e7130
       86835000	      8682	80001138	8c80fe93	andi	x29,x1,-1848	  x1:0x6bb04ce7 x29=0x6bb048c0
       86845000	      8683	8000113c	001e66b3	or	x13,x28,x1	 x28:0x00000000  x1:0x6bb04ce7 x13=0x6bb04ce7
       86855000	      8684	80001140	00000013	addi	x0,x0,0	  x0:0x00000000
       86865000	      8685	80001144	01ea4733	xor	x14,x20,x30	 x20:0x3cb85000 x30:0x0e0e7130 x14=0x32b62130
       86875000	      8686	80001148	cfac7713	andi	x14,x24,-774	 x24:0x00000001 x14=0x00000000
       86885000	      8687	8000114c	018702b3	add	x5,x14,x24	 x14:0x00000000 x24:0x00000001  x5=0x00000001
       86895000	      8688	80001150	00000013	addi	x0,x0,0	  x0:0x00000000
       86905000	      8689	80001154	0188d863	bge	x17,x24,80001164	 x17:0x0000000c x24:0x00000001
       86915000	      8690	00000000	00000013	addi	x0,x0,0	  x0:0x00000000
       86925000	      8691	80001160	00000013	addi	x0,x0,0	  x0:0x00000000
       86935000	      8692	80001164	3e426f13	ori	x30,x4,996	  x4:0x000007e2 x30=0x000007e6
       86945000	      8693	80001168	00000013	addi	x0,x0,0	  x0:0x00000000
       86955000	      8694	8000116c	01c4f333	and	x6,x9,x28	  x9:0xffffff5d x28:0x00000000  x6=0x00000000
       86965000	      8695	80001170	002edc33	srl	x24,x29,x2	 x29:0x6bb048c0  x2:0x00000001 x24=0x35d82460
       86975000	      8696	80001174	61aac393	xori	x7,x21,1562	 x21:0x00fa0fc8  x7=0x00fa09d2
       86985000	      8697	80001178	0029aeb3	slt	x29,x19,x2	 x19:0x00000000  x2:0x00000001 x29=0x00000001
       86995000	      8698	8000117c	01434133	xor	x2,x6,x20	  x6:0x00000000 x20:0x3cb85000  x2=0x3cb85000
       87005000	      8699	80001180	03e01663	bne	x0,x30,800011ac	  x0:0x00000000 x30:0x000007e6
       87015000	      8700	00000000	00000013	addi	x0,x0,0	  x0:0x00000000
       87025000	      8701	800011a8	00000013	addi	x0,x0,0	  x0:0x00000000
       87035000	      8702	800011ac	00df19b3	sll	x19,x30,x13	 x30:0x000007e6 x13:0x6bb04ce7 x19=0x0003f300
       87045000	      8703	800011b0	02db5c63	bge	x22,x13,800011e8	 x22:0x00000000 x13:0x6bb04ce7
       87055000	      8704	800011b4	02a41863	bne	x8,x10,800011e4	  x8:0x80009fc4 x10:0x00000001
       87065000	      8705	00000000	00000013	addi	x0,x0,0	  x0:0x00000000
       87075000	      8706	800011e0	00000013	addi	x0,x0,0	  x0:0x00000000
       87085000	      8707	800011e4	6ca84a13	xori	x20,x16,1738	 x16:0xfffffffd x20=0xfffff937
       87095000	      8708	800011e8	915eff93	andi	x31,x29,-1771	 x29:0x00000001 x31=0x00000001
       87105000	      8709	800011ec	dbbe3097	auipc	x1,0xdbbe3	  x1=0x5bbe41e8
       87115000	      8710	800011f0	004b2b33	slt	x22,x22,x4	 x22:0x00000000  x4:0x000007e2 x22=0x00000001
       87125000	      8711	800011f4	005bfeb3	and	x29,x23,x5	 x23:0x6bb045c4  x5:0x00000001 x29=0x00000000
       87135000	      8712	800011f8	5f812a93	slti	x21,x2,1528	  x2:0x3cb85000 x21=0x00000000
       87145000	      8713	800011fc	4150d513	srai	x10,x1,0x15	  x1:0x5bbe41e8 x10=0x000002dd
       87155000	      8714	80001200	401c57b3	sra	x15,x24,x1	 x24:0x35d82460  x1:0x5bbe41e8 x15=0x0035d824
       87165000	      8715	80001204	4369ff93	andi	x31,x19,1078	 x19:0x0003f300 x31=0x00000000
       87175000	      8716	80001208	33530593	addi	x11,x6,821	  x6:0x00000000 x11=0x00000335
       87185000	      8717	8000120c	1f7dee17	auipc	x28,0x1f7de	 x28=0x9f7df208
       87195000	      8718	80001210	01f7ea33	or	x20,x15,x31	 x15:0x0035d824 x31:0x00000000 x20=0x0035d824
       87205000	      8719	80001214	01751263	bne	x10,x23,80001218	 x10:0x000002dd x23:0x6bb045c4
       87215000	      8720	00000000	00000013	addi	x0,x0,0	  x0:0x00000000
       87225000	      8721	80001214	00000013	addi	x0,x0,0	  x0:0x00000000
       87235000	      8722	80001218	06beee63	bltu	x29,x11,80001294	 x29:0x00000000 x11:0x00000335
       87245000	      8723	00000000	00000013	addi	x0,x0,0	  x0:0x00000000
       87255000	      8724	80001290	00000013	addi	x0,x0,0	  x0:0x00000000
       87265000	      8725	80001294	56337f93	andi	x31,x6,1379	  x6:0x00000000 x31=0x00000000
       87275000	      8726	80001298	00000013	addi	x0,x0,0	  x0:0x00000000
       87285000	      8727	8000129c	00c29463	bne	x5,x12,800012a4	  x5:0x00000001 x12:0x00000000
       87295000	      8728	00000000	00000013	addi	x0,x0,0	  x0:0x00000000
       87305000	      8729	800012a0	00000013	addi	x0,x0,0	  x0:0x00000000
       87315000	      8730	800012a4	cecfbe93	sltiu	x29,x31,-788	 x31:0x00000000 x29=0x00000001
       87325000	      8731	800012a8	3a9fae13	slti	x28,x31,937	 x31:0x00000000 x28=0x00000001
       87335000	      8732	800012ac	01dd5fb3	srl	x31,x26,x29	 x26:0x00000001 x29:0x00000001 x31=0x00000000
       87345000	      8733	800012b0	31a17293	andi	x5,x2,794	  x2:0x3cb85000  x5=0x00000000
       87355000	      8734	800012b4	f3986293	ori	x5,x16,-199	 x16:0xfffffffd  x5=0xfffffffd
       87365000	      8735	800012b8	01447b33	and	x22,x8,x20	  x8:0x80009fc4 x20:0x0035d824 x22=0x00009804
       87375000	      8736	800012bc	01ef5a63	bge	x30,x30,800012d0	 x30:0x000007e6 x30:0x000007e6
       87385000	      8737	00000000	00000013	addi	x0,x0,0	  x0:0x00000000
       87395000	      8738	800012cc	00000013	addi	x0,x0,0	  x0:0x00000000
       87405000	      8739	800012d0	04b80063	beq	x16,x11,80001310	 x16:0xfffffffd x11:0x00000335
       87415000	      8740	800012d4	d41e7a37	lui	x20,0xd41e7	 x20=0xd41e7000
       87425000	      8741	800012d8	0148e833	or	x16,x17,x20	 x17:0x0000000c x20:0xd41e7000 x16=0xd41e700c
       87435000	      8742	800012dc	279d7f93	andi	x31,x26,633	 x26:0x00000001 x31=0x00000001
       87445000	      8743	800012e0	01866533	or	x10,x12,x24	 x12:0x00000000 x24:0x35d82460 x10=0x35d82460
       87455000	      8744	800012e4	41cfdc93	srai	x25,x31,0x1c	 x31:0x00000001 x25=0x00000000
       87465000	      8745	800012e8	413005b3	sub	x11,x0,x19	  x0:0x00000000 x19:0x0003f300 x11=0xfffc0d00
       87475000	      8746	800012ec	01d51293	slli	x5,x10,0x1d	 x10:0x35d82460  x5=0x00000000
       87485000	      8747	800012f0	01fdcbb3	xor	x23,x27,x31	 x27:0x80009ecc x31:0x00000001 x23=0x80009ecd
       87495000	      8748	800012f4	40f209b3	sub	x19,x4,x15	  x4:0x000007e2 x15:0x0035d824 x19=0xffca2fbe
       87505000	      8749	800012f8	00000013	addi	x0,x0,0	  x0:0x00000000
       87515000	      8750	800012fc	0028c463	blt	x17,x2,80001304	 x17:0x0000000c  x2:0x3cb85000
       87525000	      8751	00000000	00000013	addi	x0,x0,0	  x0:0x00000000
       87535000	      8752	80001300	00000013	addi	x0,x0,0	  x0:0x00000000
       87545000	      8753	80001304	3d5e59b7	lui	x19,0x3d5e5	 x19=0x3d5e5000
       87555000	      8754	80001308	20926013	ori	x0,x4,521	  x4:0x000007e2
       87565000	      8755	8000130c	01329033	sll	x0,x5,x19	  x5:0x00000000 x19:0x3d5e5000
       87575000	      8756	80001310	0174a4b3	slt	x9,x9,x23	  x9:0xffffff5d x23:0x80009ecd  x9=0x00000000
       87585000	      8757	80001314	05656863	bltu	x10,x22,80001364	 x10:0x35d82460 x22:0x00009804
       87595000	      8758	80001318	001ac463	blt	x21,x1,80001320	 x21:0x00000000  x1:0x5bbe41e8
       87605000	      8759	00000000	00000013	addi	x0,x0,0	  x0:0x00000000
       87615000	      8760	8000131c	00000013	addi	x0,x0,0	  x0:0x00000000
       87625000	      8761	80001320	91c88e13	addi	x28,x17,-1764	 x17:0x0000000c x28=0xfffff928
       87635000	      8762	80001324	03c07863	bgeu	x0,x28,80001354	  x0:0x00000000 x28:0xfffff928
       87645000	      8763	80001328	41f806b3	sub	x13,x16,x31	 x16:0xd41e700c x31:0x00000001 x13=0xd41e700b
       87655000	      8764	8000132c	04448863	beq	x9,x4,8000137c	  x9:0x00000000  x4:0x000007e2
       87665000	      8765	80001330	000c92b3	sll	x5,x25,x0	 x25:0x00000000  x0:0x00000000  x5=0x00000000
       87675000	      8766	80001334	41680fb3	sub	x31,x16,x22	 x16:0xd41e700c x22:0x00009804 x31=0xd41dd808
       87685000	      8767	80001338	f0e561b7	lui	x3,0xf0e56	  x3=0xf0e56000
       87695000	      8768	8000133c	41180a33	sub	x20,x16,x17	 x16:0xd41e700c x17:0x0000000c x20=0xd41e7000
       87705000	      8769	80001340	00b37e63	bgeu	x6,x11,8000135c	  x6:0x00000000 x11:0xfffc0d00
       87715000	      8770	80001344	002b4463	blt	x22,x2,8000134c	 x22:0x00009804  x2:0x3cb85000
       87725000	      8771	00000000	00000013	addi	x0,x0,0	  x0:0x00000000
       87735000	      8772	80001348	00000013	addi	x0,x0,0	  x0:0x00000000
       87745000	      8773	8000134c	00cc6263	bltu	x24,x12,80001350	 x24:0x35d82460 x12:0x00000000
       87755000	      8774	80001350	01e41f93	slli	x31,x8,0x1e	  x8:0x80009fc4 x31=0x00000000
       87765000	      8775	80001354	01745933	srl	x18,x8,x23	  x8:0x80009fc4 x23:0x80009ecd x18=0x00040004
       87775000	      8776	80001358	2604eb13	ori	x22,x9,608	  x9:0x00000000 x22=0x00000260
       87785000	      8777	8000135c	ec5c6993	ori	x19,x24,-315	 x24:0x35d82460 x19=0xfffffee5
       87795000	      8778	80001360	f9af2813	slti	x16,x30,-102	 x30:0x000007e6 x16=0x00000000
       87805000	      8779	80001364	01135c33	srl	x24,x6,x17	  x6:0x00000000 x17:0x0000000c x24=0x00000000
       87815000	      8780	80001368	00f4a4b3	slt	x9,x9,x15	  x9:0x00000000 x15:0x0035d824  x9=0x00000001
       87825000	      8781	8000136c	006ae663	bltu	x21,x6,80001378	 x21:0x00000000  x6:0x00000000
       87835000	      8782	80001370	09a48eb7	lui	x29,0x9a48	 x29=0x09a48000
       87845000	      8783	80001374	01db0ab3	add	x21,x22,x29	 x22:0x00000260 x29:0x09a48000 x21=0x09a48260
       87855000	      8784	80001378	7fdcf213	andi	x4,x25,2045	 x25:0x00000000  x4=0x00000000
       87865000	      8785	8000137c	1c3e96b7	lui	x13,0x1c3e9	 x13=0x1c3e9000
       87875000	      8786	80001380	05c91063	bne	x18,x28,800013c0	 x18:0x00040004 x28:0xfffff928
       87885000	      8787	00000000	00000013	addi	x0,x0,0	  x0:0x00000000
       87895000	      8788	800013bc	00000013	addi	x0,x0,0	  x0:0x00000000
       87905000	      8789	800013c0	407555b3	sra	x11,x10,x7	 x10:0x35d82460  x7:0x00fa09d2 x11=0x00000d76
       87915000	      8790	800013c4	001f30b3	sltu	x1,x30,x1	 x30:0x000007e6  x1:0x5bbe41e8  x1=0x00000001
       87925000	      8791	800013c8	008fd463	bge	x31,x8,800013d0	 x31:0x00000000  x8:0x80009fc4
       87935000	      8792	00000000	00000013	addi	x0,x0,0	  x0:0x00000000
       87945000	      8793	800013cc	00000013	addi	x0,x0,0	  x0:0x00000000
       87955000	      8794	800013d0	41c901b3	sub	x3,x18,x28	 x18:0x00040004 x28:0xfffff928  x3=0x000406dc
       87965000	      8795	800013d4	0019c733	xor	x14,x19,x1	 x19:0xfffffee5  x1:0x00000001 x14=0xfffffee4
       87975000	      8796	800013d8	40748733	sub	x14,x9,x7	  x9:0x00000001  x7:0x00fa09d2 x14=0xff05f62f
       87985000	      8797	800013dc	0040eab3	or	x21,x1,x4	  x1:0x00000001  x4:0x00000000 x21=0x00000001
       87995000	      8798	800013e0	01b24a63	blt	x4,x27,800013f4	  x4:0x00000000 x27:0x80009ecc
       88005000	      8799	800013e4	f22ba813	slti	x16,x23,-222	 x23:0x80009ecd x16=0x00000001
       88015000	      8800	800013e8	00000013	addi	x0,x0,0	  x0:0x00000000
       88025000	      8801	800013ec	0216ec63	bltu	x13,x1,80001424	 x13:0x1c3e9000  x1:0x00000001
       88035000	      8802	800013f0	02da9863	bne	x21,x13,80001420	 x21:0x00000001 x13:0x1c3e9000
       88045000	      8803	00000000	00000013	addi	x0,x0,0	  x0:0x00000000
       88055000	      8804	8000141c	00000013	addi	x0,x0,0	  x0:0x00000000
       88065000	      8805	80001420	01f973b3	and	x7,x18,x31	 x18:0x00040004 x31:0x00000000  x7=0x00000000
       88075000	      8806	80001424	00865133	srl	x2,x12,x8	 x12:0x00000000  x8:0x80009fc4  x2=0x00000000
       88085000	      8807	80001428	001e1033	sll	x0,x28,x1	 x28:0xfffff928  x1:0x00000001
       88095000	      8808	8000142c	034de663	bltu	x27,x20,80001458	 x27:0x80009ecc x20:0xd41e7000
       88105000	      8809	00000000	00000013	addi	x0,x0,0	  x0:0x00000000
       88115000	      8810	80001454	00000013	addi	x0,x0,0	  x0:0x00000000
       88125000	      8811	80001458	a4049a97	auipc	x21,0xa4049	 x21=0x2404a454
       88135000	      8812	8000145c	00a4d513	srli	x10,x9,0xa	  x9:0x00000001 x10=0x00000000
       88145000	      8813	80001460	83d30193	addi	x3,x6,-1987	  x6:0x00000000  x3=0xfffff83d
       88155000	      8814	80001464	fffffc97	auipc	x25,0xfffff	 x25=0x80000460
       88165000	      8815	80001468	e74c8c93	addi	x25,x25,-396	 x25:0x80000460 x25=0x800002d4
       88175000	      8816	8000146c	d894d2b7	lui	x5,0xd894d	  x5=0xd894d000
       88185000	      8817	80001470	015ee5b3	or	x11,x29,x21	 x29:0x09a48000 x21:0x2404a454 x11=0x2da4a454
       88195000	      8818	80001474	004ab733	sltu	x14,x21,x4	 x21:0x2404a454  x4:0x00000000 x14=0x00000000
       88205000	      8819	80001478	01351133	sll	x2,x10,x19	 x10:0x00000000 x19:0xfffffee5  x2=0x00000000
       88215000	      8820	8000147c	796af0b7	lui	x1,0x796af	  x1=0x796af000
       88225000	      8821	80001480	40a98533	sub	x10,x19,x10	 x19:0xfffffee5 x10:0x00000000 x10=0xfffffee5
       88235000	      8822	80001484	072c8c93	addi	x25,x25,114	 x25:0x800002d4 x25=0x80000346
       88245000	      8823	80001488	7ecd2037	lui	x0,0x7ecd2	
       88255000	      8824	8000148c	f8ec80e7	jalr	x1,x25,-114	 x25:0x80000346  x1=0x8000148c
       88265000	      8825	00000000	00000013	addi	x0,x0,0	  x0:0x00000000
       88275000	      8826	800002d4	00000013	addi	x0,x0,0	  x0:0x00000000
       88285000	      8827	800002d8	01885863	bge	x16,x24,800002e8	 x16:0x00000001 x24:0x00000000
       88295000	      8828	00000000	00000013	addi	x0,x0,0	  x0:0x00000000
       88305000	      8829	800002e4	00000013	addi	x0,x0,0	  x0:0x00000000
       88315000	      8830	800002e8	fe8d8d93	addi	x27,x27,-24	 x27:0x80009ecc x27=0x80009eb4
       88325000	      8831	800002ec	4067db93	srai	x23,x15,0x6	 x15:0x0035d824 x23=0x0000d760
       88335000	      8832	800002f0	e4566c93	ori	x25,x12,-443	 x12:0x00000000 x25=0xfffffe45
       88345000	      8833	800002f4	001adfb3	srl	x31,x21,x1	 x21:0x2404a454  x1:0x8000148c x31=0x0002404a
       88355000	      8834	800002f8	001da223	sw	x1,4(x27)	 x27:0x80009eb4  x1:0x8000148c PA:0x80009eb8
       88365000	      8835	800002fc	40490033	sub	x0,x18,x4	 x18:0x00040004  x4:0x00000000
       88375000	      8836	80000300	040000ef	jal	x1,80000300	  x1=0x80000300
       88385000	      8837	00000000	00000013	addi	x0,x0,0	  x0:0x00000000
       88395000	      8838	8000033c	00000013	addi	x0,x0,0	  x0:0x00000000
       88405000	      8839	80000340	ff9ff36f	jal	x6,80000340	  x6=0x80000340
       88415000	      8840	00000000	00000013	addi	x0,x0,0	  x0:0x00000000
       88425000	      8841	80000334	00000013	addi	x0,x0,0	  x0:0x00000000
       88435000	      8842	80000338	fd9ff0ef	jal	x1,80000338	  x1=0x80000338
       88445000	      8843	00000000	00000013	addi	x0,x0,0	  x0:0x00000000
       88455000	      8844	8000030c	00000013	addi	x0,x0,0	  x0:0x00000000
       88465000	      8845	80000310	0180026f	jal	x4,80000310	  x4=0x80000310
       88475000	      8846	00000000	00000013	addi	x0,x0,0	  x0:0x00000000
       88485000	      8847	80000324	00000013	addi	x0,x0,0	  x0:0x00000000
       88495000	      8848	80000328	fddff36f	jal	x6,80000328	  x6=0x80000328
       88505000	      8849	00000000	00000013	addi	x0,x0,0	  x0:0x00000000
       88515000	      8850	80000300	00000013	addi	x0,x0,0	  x0:0x00000000
       88525000	      8851	80000304	044000ef	jal	x1,80000304	  x1=0x80000304
       88535000	      8852	00000000	00000013	addi	x0,x0,0	  x0:0x00000000
       88545000	      8853	80000344	00000013	addi	x0,x0,0	  x0:0x00000000
       88555000	      8854	80000348	008000ef	jal	x1,80000348	  x1=0x80000348
       88565000	      8855	00000000	00000013	addi	x0,x0,0	  x0:0x00000000
       88575000	      8856	8000034c	00000013	addi	x0,x0,0	  x0:0x00000000
       88585000	      8857	80000350	ffdff36f	jal	x6,80000350	  x6=0x80000350
       88595000	      8858	00000000	00000013	addi	x0,x0,0	  x0:0x00000000
       88605000	      8859	80000348	00000013	addi	x0,x0,0	  x0:0x00000000
       88615000	      8860	8000034c	fd5ff0ef	jal	x1,8000034c	  x1=0x8000034c
       88625000	      8861	00000000	00000013	addi	x0,x0,0	  x0:0x00000000
       88635000	      8862	8000031c	00000013	addi	x0,x0,0	  x0:0x00000000
       88645000	      8863	80000320	fedff0ef	jal	x1,80000320	  x1=0x80000320
       88655000	      8864	00000000	00000013	addi	x0,x0,0	  x0:0x00000000
       88665000	      8865	80000308	00000013	addi	x0,x0,0	  x0:0x00000000
       88675000	      8866	8000030c	0100036f	jal	x6,8000030c	  x6=0x8000030c
       88685000	      8867	00000000	00000013	addi	x0,x0,0	  x0:0x00000000
       88695000	      8868	80000318	00000013	addi	x0,x0,0	  x0:0x00000000
       88705000	      8869	8000031c	018005ef	jal	x11,8000031c	 x11=0x8000031c
       88715000	      8870	00000000	00000013	addi	x0,x0,0	  x0:0x00000000
       88725000	      8871	80000330	00000013	addi	x0,x0,0	  x0:0x00000000
       88735000	      8872	80000334	ff9ff0ef	jal	x1,80000334	  x1=0x80000334
       88745000	      8873	00000000	00000013	addi	x0,x0,0	  x0:0x00000000
       88755000	      8874	80000328	00000013	addi	x0,x0,0	  x0:0x00000000
       88765000	      8875	8000032c	010000ef	jal	x1,8000032c	  x1=0x8000032c
       88775000	      8876	00000000	00000013	addi	x0,x0,0	  x0:0x00000000
       88785000	      8877	80000338	00000013	addi	x0,x0,0	  x0:0x00000000
       88795000	      8878	8000033c	fddff0ef	jal	x1,8000033c	  x1=0x8000033c
       88805000	      8879	00000000	00000013	addi	x0,x0,0	  x0:0x00000000
       88815000	      8880	80000314	00000013	addi	x0,x0,0	  x0:0x00000000
       88825000	      8881	80000318	018004ef	jal	x9,80000318	  x9=0x80000318
       88835000	      8882	00000000	00000013	addi	x0,x0,0	  x0:0x00000000
       88845000	      8883	8000032c	00000013	addi	x0,x0,0	  x0:0x00000000
       88855000	      8884	80000330	fe5ff0ef	jal	x1,80000330	  x1=0x80000330
       88865000	      8885	00000000	00000013	addi	x0,x0,0	  x0:0x00000000
       88875000	      8886	80000310	00000013	addi	x0,x0,0	  x0:0x00000000
       88885000	      8887	80000314	030000ef	jal	x1,80000314	  x1=0x80000314
       88895000	      8888	00000000	00000013	addi	x0,x0,0	  x0:0x00000000
       88905000	      8889	80000340	00000013	addi	x0,x0,0	  x0:0x00000000
       88915000	      8890	80000344	fc5ffbef	jal	x23,80000344	 x23=0x80000344
       88925000	      8891	00000000	00000013	addi	x0,x0,0	  x0:0x00000000
       88935000	      8892	80000304	00000013	addi	x0,x0,0	  x0:0x00000000
       88945000	      8893	80000308	01c0036f	jal	x6,80000308	  x6=0x80000308
       88955000	      8894	00000000	00000013	addi	x0,x0,0	  x0:0x00000000
       88965000	      8895	80000320	00000013	addi	x0,x0,0	  x0:0x00000000
       88975000	      8896	80000324	030005ef	jal	x11,80000324	 x11=0x80000324
       88985000	      8897	00000000	00000013	addi	x0,x0,0	  x0:0x00000000
       88995000	      8898	80000350	00000013	addi	x0,x0,0	  x0:0x00000000
       89005000	      8899	80000354	df194793	xori	x15,x18,-527	 x18:0x00040004 x15=0xfffbfdf5
       89015000	      8900	80000358	024000ef	jal	x1,80000358	  x1=0x80000358
       89025000	      8901	00000000	00000013	addi	x0,x0,0	  x0:0x00000000
       89035000	      8902	80000378	00000013	addi	x0,x0,0	  x0:0x00000000
       89045000	      8903	8000037c	004007ef	jal	x15,8000037c	 x15=0x8000037c
       89055000	      8904	00000000	00000013	addi	x0,x0,0	  x0:0x00000000
       89065000	      8905	8000037c	00000013	addi	x0,x0,0	  x0:0x00000000
       89075000	      8906	80000380	014000ef	jal	x1,80000380	  x1=0x80000380
       89085000	      8907	00000000	00000013	addi	x0,x0,0	  x0:0x00000000
       89095000	      8908	80000390	00000013	addi	x0,x0,0	  x0:0x00000000
       89105000	      8909	80000394	ff9ffbef	jal	x23,80000394	 x23=0x80000394
       89115000	      8910	00000000	00000013	addi	x0,x0,0	  x0:0x00000000
       89125000	      8911	80000388	00000013	addi	x0,x0,0	  x0:0x00000000
       89135000	      8912	8000038c	00c000ef	jal	x1,8000038c	  x1=0x8000038c
       89145000	      8913	00000000	00000013	addi	x0,x0,0	  x0:0x00000000
       89155000	      8914	80000394	00000013	addi	x0,x0,0	  x0:0x00000000
       89165000	      8915	80000398	fd5ffd6f	jal	x26,80000398	 x26=0x80000398
       89175000	      8916	00000000	00000013	addi	x0,x0,0	  x0:0x00000000
       89185000	      8917	80000368	00000013	addi	x0,x0,0	  x0:0x00000000
       89195000	      8918	8000036c	ffdff2ef	jal	x5,8000036c	  x5=0x8000036c
       89205000	      8919	00000000	00000013	addi	x0,x0,0	  x0:0x00000000
       89215000	      8920	80000364	00000013	addi	x0,x0,0	  x0:0x00000000
       89225000	      8921	80000368	ff5ff2ef	jal	x5,80000368	  x5=0x80000368
       89235000	      8922	00000000	00000013	addi	x0,x0,0	  x0:0x00000000
       89245000	      8923	80000358	00000013	addi	x0,x0,0	  x0:0x00000000
       89255000	      8924	8000035c	0040036f	jal	x6,8000035c	  x6=0x8000035c
       89265000	      8925	00000000	00000013	addi	x0,x0,0	  x0:0x00000000
       89275000	      8926	8000035c	00000013	addi	x0,x0,0	  x0:0x00000000
       89285000	      8927	80000360	0300016f	jal	x2,80000360	  x2=0x80000360
       89295000	      8928	00000000	00000013	addi	x0,x0,0	  x0:0x00000000
       89305000	      8929	8000038c	00000013	addi	x0,x0,0	  x0:0x00000000
       89315000	      8930	80000390	fe5ff0ef	jal	x1,80000390	  x1=0x80000390
       89325000	      8931	00000000	00000013	addi	x0,x0,0	  x0:0x00000000
       89335000	      8932	80000370	00000013	addi	x0,x0,0	  x0:0x00000000
       89345000	      8933	80000374	ffdff36f	jal	x6,80000374	  x6=0x80000374
       89355000	      8934	00000000	00000013	addi	x0,x0,0	  x0:0x00000000
       89365000	      8935	8000036c	00000013	addi	x0,x0,0	  x0:0x00000000
       89375000	      8936	80000370	01400b6f	jal	x22,80000370	 x22=0x80000370
       89385000	      8937	00000000	00000013	addi	x0,x0,0	  x0:0x00000000
       89395000	      8938	80000380	00000013	addi	x0,x0,0	  x0:0x00000000
       89405000	      8939	80000384	00400aef	jal	x21,80000384	 x21=0x80000384
       89415000	      8940	00000000	00000013	addi	x0,x0,0	  x0:0x00000000
       89425000	      8941	80000384	00000013	addi	x0,x0,0	  x0:0x00000000
       89435000	      8942	80000388	fddff0ef	jal	x1,80000388	  x1=0x80000388
       89445000	      8943	00000000	00000013	addi	x0,x0,0	  x0:0x00000000
       89455000	      8944	80000360	00000013	addi	x0,x0,0	  x0:0x00000000
       89465000	      8945	80000364	01400c6f	jal	x24,80000364	 x24=0x80000364
       89475000	      8946	00000000	00000013	addi	x0,x0,0	  x0:0x00000000
       89485000	      8947	80000374	00000013	addi	x0,x0,0	  x0:0x00000000
       89495000	      8948	80000378	0240036f	jal	x6,80000378	  x6=0x80000378
       89505000	      8949	00000000	00000013	addi	x0,x0,0	  x0:0x00000000
       89515000	      8950	80000398	00000013	addi	x0,x0,0	  x0:0x00000000
       89525000	      8951	8000039c	00d76ab3	or	x21,x14,x13	 x14:0x00000000 x13:0x1c3e9000 x21=0x1c3e9000
       89535000	      8952	800003a0	00000013	addi	x0,x0,0	  x0:0x00000000
       89545000	      8953	800003a4	040a0263	beq	x20,x0,800003e8	 x20:0xd41e7000  x0:0x00000000
       89555000	      8954	800003a8	015567b3	or	x15,x10,x21	 x10:0xfffffee5 x21:0x1c3e9000 x15=0xfffffee5
       89565000	      8955	800003ac	019f5663	bge	x30,x25,800003b8	 x30:0x000007e6 x25:0xfffffe45
       89575000	      8956	00000000	00000013	addi	x0,x0,0	  x0:0x00000000
       89585000	      8957	800003b4	00000013	addi	x0,x0,0	  x0:0x00000000
       89595000	      8958	800003b8	0463d463	bge	x7,x6,80000400	  x7:0x00000000  x6:0x80000378
       89605000	      8959	00000000	00000013	addi	x0,x0,0	  x0:0x00000000
       89615000	      8960	800003fc	00000013	addi	x0,x0,0	  x0:0x00000000
       89625000	      8961	80000400	fc0fea13	ori	x20,x31,-64	 x31:0x0002404a x20=0xffffffca
       89635000	      8962	80000404	00335a63	bge	x6,x3,80000418	  x6:0x80000378  x3:0xfffff83d
       89645000	      8963	80000408	5a79e093	ori	x1,x19,1447	 x19:0xfffffee5  x1=0xffffffe7
       89655000	      8964	8000040c	02aef663	bgeu	x29,x10,80000438	 x29:0x09a48000 x10:0xfffffee5
       89665000	      8965	80000410	c6f1b313	sltiu	x6,x3,-913	  x3:0xfffff83d  x6=0x00000001
       89675000	      8966	80000414	00216133	or	x2,x2,x2	  x2:0x80000360  x2:0x80000360  x2=0x80000360
       89685000	      8967	80000418	000e1d13	slli	x26,x28,0x0	 x28:0xfffff928 x26=0xfffff928
       89695000	      8968	8000041c	014afb33	and	x22,x21,x20	 x21:0x1c3e9000 x20:0xffffffca x22=0x1c3e9000
       89705000	      8969	80000420	d0cebf93	sltiu	x31,x29,-756	 x29:0x09a48000 x31=0x00000001
       89715000	      8970	80000424	349c6793	ori	x15,x24,841	 x24:0x80000364 x15=0x8000036d
       89725000	      8971	80000428	05f58463	beq	x11,x31,80000470	 x11:0x80000324 x31:0x00000001
       89735000	      8972	8000042c	7ce0b997	auipc	x19,0x7ce0b	 x19=0xfce0b428
       89745000	      8973	80000430	0156ce63	blt	x13,x21,8000044c	 x13:0x1c3e9000 x21:0x1c3e9000
       89755000	      8974	80000434	41fc5d13	srai	x26,x24,0x1f	 x24:0x80000364 x26=0xffffffff
       89765000	      8975	80000438	040d8063	beq	x27,x0,80000478	 x27:0x80009eb4  x0:0x00000000
       89775000	      8976	8000043c	01a0c9b3	xor	x19,x1,x26	  x1:0xffffffe7 x26:0xffffffff x19=0x00000018
       89785000	      8977	80000440	0f7cf313	andi	x6,x25,247	 x25:0xfffffe45  x6=0x00000045
       89795000	      8978	80000444	01ff2fb3	slt	x31,x30,x31	 x30:0x000007e6 x31:0x00000001 x31=0x00000000
       89805000	      8979	80000448	0157aab3	slt	x21,x15,x21	 x15:0x8000036d x21:0x1c3e9000 x21=0x00000001
       89815000	      8980	8000044c	68756613	ori	x12,x10,1671	 x10:0xfffffee5 x12=0xfffffee7
       89825000	      8981	80000450	db356813	ori	x16,x10,-589	 x10:0xfffffee5 x16=0xfffffff7
       89835000	      8982	80000454	01c0ea63	bltu	x1,x28,80000468	  x1:0xffffffe7 x28:0xfffff928
       89845000	      8983	80000458	03316063	bltu	x2,x19,80000478	  x2:0x80000360 x19:0x00000018
       89855000	      8984	8000045c	7df74c93	xori	x25,x14,2015	 x14:0x00000000 x25=0x000007df
       89865000	      8985	80000460	038efc63	bgeu	x29,x24,80000498	 x29:0x09a48000 x24:0x80000364
       89875000	      8986	80000464	d6223613	sltiu	x12,x4,-670	  x4:0x80000310 x12=0x00000001
       89885000	      8987	80000468	00bdfb33	and	x22,x27,x11	 x27:0x80009eb4 x11:0x80000324 x22=0x80000224
       89895000	      8988	8000046c	16543a13	sltiu	x20,x8,357	  x8:0x80009fc4 x20=0x00000000
       89905000	      8989	80000470	01128e63	beq	x5,x17,8000048c	  x5:0x80000368 x17:0x0000000c
       89915000	      8990	80000474	fd07e617	auipc	x12,0xfd07e	 x12=0x7d07e470
       89925000	      8991	80000478	04c85463	bge	x16,x12,800004c0	 x16:0xfffffff7 x12:0x7d07e470
       89935000	      8992	8000047c	03a6c063	blt	x13,x26,8000049c	 x13:0x1c3e9000 x26:0xffffffff
       89945000	      8993	80000480	8bf3e713	ori	x14,x7,-1857	  x7:0x00000000 x14=0xfffff8bf
       89955000	      8994	80000484	00518d33	add	x26,x3,x5	  x3:0xfffff83d  x5:0x80000368 x26=0x7ffffba5
       89965000	      8995	80000488	02300e63	beq	x0,x3,800004c4	  x0:0x00000000  x3:0xfffff83d
       89975000	      8996	8000048c	41ffd5b3	sra	x11,x31,x31	 x31:0x00000000 x31:0x00000000 x11=0x00000000
       89985000	      8997	80000490	005f8cb3	add	x25,x31,x5	 x31:0x00000000  x5:0x80000368 x25=0x80000368
       89995000	      8998	80000494	01361913	slli	x18,x12,0x13	 x12:0x7d07e470 x18=0x23800000
       90005000	      8999	80000498	ed48e813	ori	x16,x17,-300	 x17:0x0000000c x16=0xfffffedc
       90015000	      9000	8000049c	82c47113	andi	x2,x8,-2004	  x8:0x80009fc4  x2=0x80009804
       90025000	      9001	800004a0	40b75eb3	sra	x29,x14,x11	 x14:0xfffff8bf x11:0x00000000 x29=0xfffff8bf
       90035000	      9002	800004a4	dc532c93	slti	x25,x6,-571	  x6:0x00000045 x25=0x00000000
       90045000	      9003	800004a8	541c9b97	auipc	x23,0x541c9	 x23=0xd41c94a4
       90055000	      9004	800004ac	01dccf33	xor	x30,x25,x29	 x25:0x00000000 x29:0xfffff8bf x30=0xfffff8bf
       90065000	      9005	800004b0	00ade7b3	or	x15,x27,x10	 x27:0x80009eb4 x10:0xfffffee5 x15=0xfffffef5
       90075000	      9006	800004b4	00cc1e33	sll	x28,x24,x12	 x24:0x80000364 x12:0x7d07e470 x28=0x03640000
       90085000	      9007	800004b8	6cdd0313	addi	x6,x26,1741	 x26:0x7ffffba5  x6=0x80000272
       90095000	      9008	800004bc	0181f0b3	and	x1,x3,x24	  x3:0xfffff83d x24:0x80000364  x1=0x80000024
       90105000	      9009	800004c0	01fc0533	add	x10,x24,x31	 x24:0x80000364 x31:0x00000000 x10=0x80000364
       90115000	      9010	800004c4	02037263	bgeu	x6,x0,800004e8	  x6:0x80000272  x0:0x00000000
       90125000	      9011	00000000	00000013	addi	x0,x0,0	  x0:0x00000000
       90135000	      9012	800004e4	00000013	addi	x0,x0,0	  x0:0x00000000
       90145000	      9013	800004e8	6efb6b93	ori	x23,x22,1775	 x22:0x80000224 x23=0x800006ef
       90155000	      9014	800004ec	95fc6c93	ori	x25,x24,-1697	 x24:0x80000364 x25=0xfffffb7f
       90165000	      9015	800004f0	000f92b3	sll	x5,x31,x0	 x31:0x00000000  x0:0x00000000  x5=0x00000000
       90175000	      9016	800004f4	5b61ef93	ori	x31,x3,1462	  x3:0xfffff83d x31=0xfffffdbf
       90185000	      9017	800004f8	007750b3	srl	x1,x14,x7	 x14:0xfffff8bf  x7:0x00000000  x1=0xfffff8bf
       90195000	      9018	800004fc	00546663	bltu	x8,x5,80000508	  x8:0x80009fc4  x5:0x00000000
       90205000	      9019	80000500	03e76863	bltu	x14,x30,80000530	 x14:0xfffff8bf x30:0xfffff8bf
       90215000	      9020	80000504	410fdf33	sra	x30,x31,x16	 x31:0xfffffdbf x16:0xfffffedc x30=0xffffffff
       90225000	      9021	80000508	a6e63137	lui	x2,0xa6e63	  x2=0xa6e63000
       90235000	      9022	8000050c	01b2d463	bge	x5,x27,80000514	  x5:0x00000000 x27:0x80009eb4
       90245000	      9023	00000000	00000013	addi	x0,x0,0	  x0:0x00000000
       90255000	      9024	80000510	00000013	addi	x0,x0,0	  x0:0x00000000
       90265000	      9025	80000514	02579663	bne	x15,x5,80000540	 x15:0xfffffef5  x5:0x00000000
       90275000	      9026	00000000	00000013	addi	x0,x0,0	  x0:0x00000000
       90285000	      9027	8000053c	00000013	addi	x0,x0,0	  x0:0x00000000
       90295000	      9028	80000540	017a2cb3	slt	x25,x20,x23	 x20:0x00000000 x23:0x800006ef x25=0x00000000
       90305000	      9029	80000544	055b0663	beq	x22,x21,80000590	 x22:0x80000224 x21:0x00000001
       90315000	      9030	80000548	00000013	addi	x0,x0,0	  x0:0x00000000
       90325000	      9031	8000054c	04d25463	bge	x4,x13,80000594	  x4:0x80000310 x13:0x1c3e9000
       90335000	      9032	80000550	7e25ef93	ori	x31,x11,2018	 x11:0x00000000 x31=0x000007e2
       90345000	      9033	80000554	0f25b513	sltiu	x10,x11,242	 x11:0x00000000 x10=0x00000001
       90355000	      9034	80000558	010ab1b3	sltu	x3,x21,x16	 x21:0x00000001 x16:0xfffffedc  x3=0x00000001
       90365000	      9035	8000055c	416e5c33	sra	x24,x28,x22	 x28:0x03640000 x22:0x80000224 x24=0x00364000
       90375000	      9036	80000560	01fb1c93	slli	x25,x22,0x1f	 x22:0x80000224 x25=0x00000000
       90385000	      9037	80000564	f5d00713	addi	x14,x0,-163	  x0:0x00000000 x14=0xffffff5d
       90395000	      9038	80000568	40f7d2b3	sra	x5,x15,x15	 x15:0xfffffef5 x15:0xfffffef5  x5=0xffffffff
       90405000	      9039	8000056c	ee1b2313	slti	x6,x22,-287	 x22:0x80000224  x6=0x00000001
       90415000	      9040	80000570	77c88e93	addi	x29,x17,1916	 x17:0x0000000c x29=0x00000788
       90425000	      9041	80000574	02300663	beq	x0,x3,800005a0	  x0:0x00000000  x3:0x00000001
       90435000	      9042	80000578	00a2d993	srli	x19,x5,0xa	  x5:0xffffffff x19=0x003fffff
       90445000	      9043	8000057c	01e59233	sll	x4,x11,x30	 x11:0x00000000 x30:0xffffffff  x4=0x00000000
       90455000	      9044	80000580	001441b3	xor	x3,x8,x1	  x8:0x80009fc4  x1:0xfffff8bf  x3=0x7fff677b
       90465000	      9045	80000584	034d1063	bne	x26,x20,800005a4	 x26:0x7ffffba5 x20:0x00000000
       90475000	      9046	00000000	00000013	addi	x0,x0,0	  x0:0x00000000
       90485000	      9047	800005a0	00000013	addi	x0,x0,0	  x0:0x00000000
       90495000	      9048	800005a4	4105d813	srai	x16,x11,0x10	 x11:0x00000000 x16=0x00000000
       90505000	      9049	800005a8	00aeb333	sltu	x6,x29,x10	 x29:0x00000788 x10:0x00000001  x6=0x00000000
       90515000	      9050	800005ac	018d5293	srli	x5,x26,0x18	 x26:0x7ffffba5  x5=0x0000007f
       90525000	      9051	800005b0	02a9c863	blt	x19,x10,800005e0	 x19:0x003fffff x10:0x00000001
       90535000	      9052	800005b4	019facb3	slt	x25,x31,x25	 x31:0x000007e2 x25:0x00000000 x25=0x00000000
       90545000	      9053	800005b8	f09f9c97	auipc	x25,0xf09f9	 x25=0x709f95b4
       90555000	      9054	800005bc	41298333	sub	x6,x19,x18	 x19:0x003fffff x18:0x23800000  x6=0xdcbfffff
       90565000	      9055	800005c0	3a538393	addi	x7,x7,933	  x7:0x00000000  x7=0x000003a5
       90575000	      9056	800005c4	406c0ab3	sub	x21,x24,x6	 x24:0x00364000  x6:0xdcbfffff x21=0x23764001
       90585000	      9057	800005c8	ebb04b97	auipc	x23,0xebb04	 x23=0x6bb045c4
       90595000	      9058	800005cc	0058dc93	srli	x25,x17,0x5	 x17:0x0000000c x25=0x00000000
       90605000	      9059	800005d0	385a3793	sltiu	x15,x20,901	 x20:0x00000000 x15=0x00000001
       90615000	      9060	800005d4	0cbe3993	sltiu	x19,x28,203	 x28:0x03640000 x19=0x00000000
       90625000	      9061	800005d8	004423b3	slt	x7,x8,x4	  x8:0x80009fc4  x4:0x00000000  x7=0x00000001
       90635000	      9062	800005dc	d75ee813	ori	x16,x29,-651	 x29:0x00000788 x16=0xfffffffd
       90645000	      9063	800005e0	40865e33	sra	x28,x12,x8	 x12:0x7d07e470  x8:0x80009fc4 x28=0x07d07e47
       90655000	      9064	800005e4	92b8f593	andi	x11,x17,-1749	 x17:0x0000000c x11=0x00000008
       90665000	      9065	800005e8	000f1293	slli	x5,x30,0x0	 x30:0xffffffff  x5=0xffffffff
       90675000	      9066	800005ec	db623017	auipc	x0,0xdb623	
       90685000	      9067	800005f0	004da083	lw	x1,4(x27)	 x27:0x80009eb4  x1=0x8000148c PA:0x80009eb8
       90695000	      9068	800005f4	554be213	ori	x4,x23,1364	 x23:0x6bb045c4  x4=0x6bb045d4
       90705000	      9069	800005f8	018d8d93	addi	x27,x27,24	 x27:0x80009eb4 x27=0x80009ecc
       90715000	      9070	800005fc	3cb85a37	lui	x20,0x3cb85	 x20=0x3cb85000
       90725000	      9071	80000600	01b4b133	sltu	x2,x9,x27	  x9:0x80000318 x27:0x80009ecc  x2=0x00000001
       90735000	      9072	80000604	00008593	addi	x11,x1,0	  x1:0x8000148c x11=0x8000148c
       90745000	      9073	80000608	000585e7	jalr	x11,x11,0	 x11:0x8000148c x11=0x80000608
       90755000	      9074	00000000	00000013	addi	x0,x0,0	  x0:0x00000000
       90765000	      9075	8000148c	00000013	addi	x0,x0,0	  x0:0x00000000
       90775000	      9076	80001490	00b02733	slt	x14,x0,x11	  x0:0x00000000 x11:0x80000608 x14=0x00000000
       90785000	      9077	80001494	9efd47b7	lui	x15,0x9efd4	 x15=0x9efd4000
       90795000	      9078	80001498	417005b3	sub	x11,x0,x23	  x0:0x00000000 x23:0x6bb045c4 x11=0x944fba3c
       90805000	      9079	8000149c	408f86b3	sub	x13,x31,x8	 x31:0x000007e2  x8:0x80009fc4 x13=0x7fff681e
       90815000	      9080	800014a0	a9fa2517	auipc	x10,0xa9fa2	 x10=0x29fa349c
       90825000	      9081	800014a4	00000013	addi	x0,x0,0	  x0:0x00000000
       90835000	      9082	800014a8	00d429b3	slt	x19,x8,x13	  x8:0x80009fc4 x13:0x7fff681e x19=0x00000001
       90845000	      9083	800014ac	01745e93	srli	x29,x8,0x17	  x8:0x80009fc4 x29=0x00000100
       90855000	      9084	800014b0	9cb17313	andi	x6,x2,-1589	  x2:0x00000001  x6=0x00000001
       90865000	      9085	800014b4	01f49013	slli	x0,x9,0x1f	  x9:0x80000318
       90875000	      9086	800014b8	0060b333	sltu	x6,x1,x6	  x1:0x8000148c  x6:0x00000001  x6=0x00000000
       90885000	      9087	800014bc	0049c263	blt	x19,x4,800014c0	 x19:0x00000001  x4:0x6bb045d4
       90895000	      9088	00000000	00000013	addi	x0,x0,0	  x0:0x00000000
       90905000	      9089	800014bc	00000013	addi	x0,x0,0	  x0:0x00000000
       90915000	      9090	800014c0	01bea4b3	slt	x9,x29,x27	 x29:0x00000100 x27:0x80009ecc  x9=0x00000000
       90925000	      9091	800014c4	4be40297	auipc	x5,0x4be40	  x5=0xcbe414c0
       90935000	      9092	800014c8	004d9f93	slli	x31,x27,0x4	 x27:0x80009ecc x31=0x0009ecc0
       90945000	      9093	800014cc	ffad0737	lui	x14,0xffad0	 x14=0xffad0000
       90955000	      9094	800014d0	00a65d33	srl	x26,x12,x10	 x12:0x7d07e470 x10:0x29fa349c x26=0x00000007
       90965000	      9095	800014d4	cec4bb13	sltiu	x22,x9,-788	  x9:0x00000000 x22=0x00000001
       90975000	      9096	800014d8	00783f33	sltu	x30,x16,x7	 x16:0xfffffffd  x7:0x00000001 x30=0x00000000
       90985000	      9097	800014dc	6daa6f37	lui	x30,0x6daa6	 x30=0x6daa6000
       90995000	      9098	800014e0	003ef3b3	and	x7,x29,x3	 x29:0x00000100  x3:0x7fff677b  x7=0x00000100
       91005000	      9099	800014e4	00469693	slli	x13,x13,0x4	 x13:0x7fff681e x13=0xfff681e0
       91015000	      9100	800014e8	0079e133	or	x2,x19,x7	 x19:0x00000001  x7:0x00000100  x2=0x00000101
       91025000	      9101	800014ec	01be9f93	slli	x31,x29,0x1b	 x29:0x00000100 x31=0x00000000
       91035000	      9102	800014f0	0173fbb3	and	x23,x7,x23	  x7:0x00000100 x23:0x6bb045c4 x23=0x00000100
       91045000	      9103	800014f4	007a1bb3	sll	x23,x20,x7	 x20:0x3cb85000  x7:0x00000100 x23=0x3cb85000
       91055000	      9104	800014f8	05fae863	bltu	x21,x31,80001548	 x21:0x23764001 x31:0x00000000
       91065000	      9105	800014fc	4cf46093	ori	x1,x8,1231	  x8:0x80009fc4  x1=0x80009fcf
       91075000	      9106	80001500	00445a13	srli	x20,x8,0x4	  x8:0x80009fc4 x20=0x080009fc
       91085000	      9107	80001504	0032c663	blt	x5,x3,80001510	  x5:0xcbe414c0  x3:0x7fff677b
       91095000	      9108	00000000	00000013	addi	x0,x0,0	  x0:0x00000000
       91105000	      9109	8000150c	00000013	addi	x0,x0,0	  x0:0x00000000
       91115000	      9110	80001510	050bf063	bgeu	x23,x16,80001550	 x23:0x3cb85000 x16:0xfffffffd
       91125000	      9111	80001514	00000013	addi	x0,x0,0	  x0:0x00000000
       91135000	      9112	80001518	0529d863	bge	x19,x18,80001568	 x19:0x00000001 x18:0x23800000
       91145000	      9113	8000151c	01640c33	add	x24,x8,x22	  x8:0x80009fc4 x22:0x00000001 x24=0x80009fc5
       91155000	      9114	80001520	00000013	addi	x0,x0,0	  x0:0x00000000
       91165000	      9115	80001524	40000ab3	sub	x21,x0,x0	  x0:0x00000000  x0:0x00000000 x21=0x00000000
       91175000	      9116	80001528	40425933	sra	x18,x4,x4	  x4:0x6bb045d4  x4:0x6bb045d4 x18=0x000006bb
       91185000	      9117	8000152c	012af263	bgeu	x21,x18,80001530	 x21:0x00000000 x18:0x000006bb
       91195000	      9118	80001530	bea9ac93	slti	x25,x19,-1046	 x19:0x00000001 x25=0x00000000
       91205000	      9119	80001534	02748663	beq	x9,x7,80001560	  x9:0x00000000  x7:0x00000100
       91215000	      9120	80001538	019696b3	sll	x13,x13,x25	 x13:0xfff681e0 x25:0x00000000 x13=0xfff681e0
       91225000	      9121	8000153c	712dcc93	xori	x25,x27,1810	 x27:0x80009ecc x25=0x800099de
       91235000	      9122	80001540	00000013	addi	x0,x0,0	  x0:0x00000000
       91245000	      9123	80001544	02588463	beq	x17,x5,8000156c	 x17:0x0000000c  x5:0xcbe414c0
       91255000	      9124	80001548	1dc114b7	lui	x9,0x1dc11	  x9=0x1dc11000
       91265000	      9125	8000154c	013f8863	beq	x31,x19,8000155c	 x31:0x00000000 x19:0x00000001
       91275000	      9126	80001550	053a9863	bne	x21,x19,800015a0	 x21:0x00000000 x19:0x00000001
       91285000	      9127	00000000	00000013	addi	x0,x0,0	  x0:0x00000000
       91295000	      9128	8000159c	00000013	addi	x0,x0,0	  x0:0x00000000
       91305000	      9129	800015a0	008886b3	add	x13,x17,x8	 x17:0x0000000c  x8:0x80009fc4 x13=0x80009fd0
       91315000	      9130	800015a4	12cf8513	addi	x10,x31,300	 x31:0x00000000 x10=0x0000012c
       91325000	      9131	800015a8	0044d133	srl	x2,x9,x4	  x9:0x1dc11000  x4:0x6bb045d4  x2=0x000001dc
       91335000	      9132	800015ac	01f09b33	sll	x22,x1,x31	  x1:0x80009fcf x31:0x00000000 x22=0x80009fcf
       91345000	      9133	800015b0	00275993	srli	x19,x14,0x2	 x14:0xffad0000 x19=0x3feb4000
       91355000	      9134	800015b4	ecc94537	lui	x10,0xecc94	 x10=0xecc94000
       91365000	      9135	800015b8	02d19663	bne	x3,x13,800015e4	  x3:0x7fff677b x13:0x80009fd0
       91375000	      9136	00000000	00000013	addi	x0,x0,0	  x0:0x00000000
       91385000	      9137	800015e0	00000013	addi	x0,x0,0	  x0:0x00000000
       91395000	      9138	800015e4	03d8e463	bltu	x17,x29,8000160c	 x17:0x0000000c x29:0x00000100
       91405000	      9139	00000000	00000013	addi	x0,x0,0	  x0:0x00000000
       91415000	      9140	80001608	00000013	addi	x0,x0,0	  x0:0x00000000
       91425000	      9141	8000160c	00e26b33	or	x22,x4,x14	  x4:0x6bb045d4 x14:0xffad0000 x22=0xffbd45d4
       91435000	      9142	80001610	001df5b3	and	x11,x27,x1	 x27:0x80009ecc  x1:0x80009fcf x11=0x80009ecc
       91445000	      9143	80001614	41e1d813	srai	x16,x3,0x1e	  x3:0x7fff677b x16=0x00000001
       91455000	      9144	80001618	418959b3	sra	x19,x18,x24	 x18:0x000006bb x24:0x80009fc5 x19=0x00000035
       91465000	      9145	8000161c	40b1d493	srai	x9,x3,0xb	  x3:0x7fff677b  x9=0x000fffec
       91475000	      9146	80001620	02a2c663	blt	x5,x10,8000164c	  x5:0xcbe414c0 x10:0xecc94000
       91485000	      9147	00000000	00000013	addi	x0,x0,0	  x0:0x00000000
       91495000	      9148	80001648	00000013	addi	x0,x0,0	  x0:0x00000000
       91505000	      9149	8000164c	00000013	addi	x0,x0,0	  x0:0x00000000
       91515000	      9150	80001650	00a2d393	srli	x7,x5,0xa	  x5:0xcbe414c0  x7=0x0032f905
       91525000	      9151	80001654	001d4d33	xor	x26,x26,x1	 x26:0x00000007  x1:0x80009fcf x26=0x80009fc8
       91535000	      9152	80001658	df4e8397	auipc	x7,0xdf4e8	  x7=0x5f4e9654
       91545000	      9153	8000165c	0101d4b3	srl	x9,x3,x16	  x3:0x7fff677b x16:0x00000001  x9=0x3fffb3bd
       91555000	      9154	80001660	0121d863	bge	x3,x18,80001670	  x3:0x7fff677b x18:0x000006bb
       91565000	      9155	00000000	00000013	addi	x0,x0,0	  x0:0x00000000
       91575000	      9156	8000166c	00000013	addi	x0,x0,0	  x0:0x00000000
       91585000	      9157	80001670	015fd7b3	srl	x15,x31,x21	 x31:0x00000000 x21:0x00000000 x15=0x00000000
       91595000	      9158	80001674	00839c33	sll	x24,x7,x8	  x7:0x5f4e9654  x8:0x80009fc4 x24=0xf4e96540
       91605000	      9159	80001678	6f4ff237	lui	x4,0x6f4ff	  x4=0x6f4ff000
       91615000	      9160	8000167c	02898a63	beq	x19,x8,800016b0	 x19:0x00000035  x8:0x80009fc4
       91625000	      9161	80001680	00f30c33	add	x24,x6,x15	  x6:0x00000000 x15:0x00000000 x24=0x00000000
       91635000	      9162	80001684	41dc5a13	srai	x20,x24,0x1d	 x24:0x00000000 x20=0x00000000
       91645000	      9163	80001688	01e7ea63	bltu	x15,x30,8000169c	 x15:0x00000000 x30:0x6daa6000
       91655000	      9164	00000000	00000013	addi	x0,x0,0	  x0:0x00000000
       91665000	      9165	80001698	00000013	addi	x0,x0,0	  x0:0x00000000
       91675000	      9166	8000169c	dd0e3f13	sltiu	x30,x28,-560	 x28:0x07d07e47 x30=0x00000001
       91685000	      9167	800016a0	004c7a33	and	x20,x24,x4	 x24:0x00000000  x4:0x6f4ff000 x20=0x00000000
       91695000	      9168	800016a4	40ec5493	srai	x9,x24,0xe	 x24:0x00000000  x9=0x00000000
       91705000	      9169	800016a8	00cb9693	slli	x13,x23,0xc	 x23:0x3cb85000 x13=0x85000000
       91715000	      9170	800016ac	dd93d217	auipc	x4,0xdd93d	  x4=0x5d93e6a8
       91725000	      9171	800016b0	61384693	xori	x13,x16,1555	 x16:0x00000001 x13=0x00000612
       91735000	      9172	800016b4	d1a9a813	slti	x16,x19,-742	 x19:0x00000035 x16=0x00000000
       91745000	      9173	800016b8	401881b3	sub	x3,x17,x1	 x17:0x0000000c  x1:0x80009fcf  x3=0x7fff603d
       91755000	      9174	800016bc	0454d063	bge	x9,x5,800016fc	  x9:0x00000000  x5:0xcbe414c0
       91765000	      9175	00000000	00000013	addi	x0,x0,0	  x0:0x00000000
       91775000	      9176	800016f8	00000013	addi	x0,x0,0	  x0:0x00000000
       91785000	      9177	800016fc	02a24f93	xori	x31,x4,42	  x4:0x5d93e6a8 x31=0x5d93e682
       91795000	      9178	80001700	25457c13	andi	x24,x10,596	 x10:0xecc94000 x24=0x00000000
       91805000	      9179	80001704	014f5593	srli	x11,x30,0x14	 x30:0x00000001 x11=0x00000000
       91815000	      9180	80001708	004da083	lw	x1,4(x27)	 x27:0x80009ecc  x1=0x800023d4 PA:0x80009ed0
       91825000	      9181	8000170c	00e59113	slli	x2,x11,0xe	 x11:0x00000000  x2=0x00000000
       91835000	      9182	80001710	0070cab3	xor	x21,x1,x7	  x1:0x800023d4  x7:0x5f4e9654 x21=0xdf4eb580
       91845000	      9183	80001714	03cd8d93	addi	x27,x27,60	 x27:0x80009ecc x27=0x80009f08
       91855000	      9184	80001718	019a3ab3	sltu	x21,x20,x25	 x20:0x00000000 x25:0x800099de x21=0x00000001
       91865000	      9185	8000171c	00d11913	slli	x18,x2,0xd	  x2:0x00000000 x18=0x00000000
       91875000	      9186	80001720	cf684793	xori	x15,x16,-778	 x16:0x00000000 x15=0xfffffcf6
       91885000	      9187	80001724	005ca3b3	slt	x7,x25,x5	 x25:0x800099de  x5:0xcbe414c0  x7=0x00000001
       91895000	      9188	80001728	56b96193	ori	x3,x18,1387	 x18:0x00000000  x3=0x0000056b
       91905000	      9189	8000172c	007623b3	slt	x7,x12,x7	 x12:0x7d07e470  x7:0x00000001  x7=0x00000000
       91915000	      9190	80001730	00108993	addi	x19,x1,1	  x1:0x800023d4 x19=0x800023d5
       91925000	      9191	80001734	000989e7	jalr	x19,x19,0	 x19:0x800023d5 x19=0x80001734
       91935000	      9192	00000000	00000013	addi	x0,x0,0	  x0:0x00000000
       91945000	      9193	800023d4	00000013	addi	x0,x0,0	  x0:0x00000000
       91955000	      9194	800023d8	fea50f13	addi	x30,x10,-22	 x10:0xecc94000 x30=0xecc93fea
       91965000	      9195	800023dc	41948133	sub	x2,x9,x25	  x9:0x00000000 x25:0x800099de  x2=0x7fff6622
       91975000	      9196	800023e0	0e40b813	sltiu	x16,x1,228	  x1:0x800023d4 x16=0x00000000
       91985000	      9197	800023e4	41065793	srai	x15,x12,0x10	 x12:0x7d07e470 x15=0x00007d07
       91995000	      9198	800023e8	69bb4f93	xori	x31,x22,1691	 x22:0xffbd45d4 x31=0xffbd434f
       92005000	      9199	800023ec	00d8d3b3	srl	x7,x17,x13	 x17:0x0000000c x13:0x00000612  x7=0x00000000
       92015000	      9200	800023f0	6ba0c193	xori	x3,x1,1722	  x1:0x800023d4  x3=0x8000256e
       92025000	      9201	800023f4	6b2f6793	ori	x15,x30,1714	 x30:0xecc93fea x15=0xecc93ffa
       92035000	      9202	800023f8	00502033	slt	x0,x0,x5	  x0:0x00000000  x5:0xcbe414c0
       92045000	      9203	800023fc	40efdc93	srai	x25,x31,0xe	 x31:0xffbd434f x25=0xfffffef5
       92055000	      9204	80002400	01d94863	blt	x18,x29,80002410	 x18:0x00000000 x29:0x00000100
       92065000	      9205	00000000	00000013	addi	x0,x0,0	  x0:0x00000000
       92075000	      9206	8000240c	00000013	addi	x0,x0,0	  x0:0x00000000
       92085000	      9207	80002410	018b6e33	or	x28,x22,x24	 x22:0xffbd45d4 x24:0x00000000 x28=0xffbd45d4
       92095000	      9208	80002414	41f0d193	srai	x3,x1,0x1f	  x1:0x800023d4  x3=0xffffffff
       92105000	      9209	80002418	cd2b6b13	ori	x22,x22,-814	 x22:0xffbd45d4 x22=0xfffffdd6
       92115000	      9210	8000241c	014f7fb3	and	x31,x30,x20	 x30:0xecc93fea x20:0x00000000 x31=0x00000000
       92125000	      9211	80002420	033d5263	bge	x26,x19,80002444	 x26:0x80009fc8 x19:0x80001734
       92135000	      9212	00000000	00000013	addi	x0,x0,0	  x0:0x00000000
       92145000	      9213	80002440	00000013	addi	x0,x0,0	  x0:0x00000000
       92155000	      9214	80002444	e59c6313	ori	x6,x24,-423	 x24:0x00000000  x6=0xfffffe59
       92165000	      9215	80002448	011d9193	slli	x3,x27,0x11	 x27:0x80009f08  x3=0x3e100000
       92175000	      9216	8000244c	18b8c193	xori	x3,x17,395	 x17:0x0000000c  x3=0x00000187
       92185000	      9217	80002450	a3653a17	auipc	x20,0xa3653	 x20=0x2365544c
       92195000	      9218	80002454	00a692b3	sll	x5,x13,x10	 x13:0x00000612 x10:0xecc94000  x5=0x00000612
       92205000	      9219	80002458	00211c13	slli	x24,x2,0x2	  x2:0x7fff6622 x24=0xfffd9888
       92215000	      9220	8000245c	019bb733	sltu	x14,x23,x25	 x23:0x3cb85000 x25:0xfffffef5 x14=0x00000001
       92225000	      9221	80002460	0067dd33	srl	x26,x15,x6	 x15:0xecc93ffa  x6:0xfffffe59 x26=0x00000076
       92235000	      9222	80002464	00fa33b3	sltu	x7,x20,x15	 x20:0x2365544c x15:0xecc93ffa  x7=0x00000001
       92245000	      9223	80002468	0a31ce63	blt	x3,x3,80002524	  x3:0x00000187  x3:0x00000187
       92255000	      9224	8000246c	86354813	xori	x16,x10,-1949	 x10:0xecc94000 x16=0x1336b863
       92265000	      9225	80002470	0844c863	blt	x9,x4,80002500	  x9:0x00000000  x4:0x5d93e6a8
       92275000	      9226	00000000	00000013	addi	x0,x0,0	  x0:0x00000000
       92285000	      9227	800024fc	00000013	addi	x0,x0,0	  x0:0x00000000
       92295000	      9228	80002500	d30dfb17	auipc	x22,0xd30df	 x22=0x530e14fc
       92305000	      9229	80002504	4180da13	srai	x20,x1,0x18	  x1:0x800023d4 x20=0xffffff80
       92315000	      9230	80002508	7906b393	sltiu	x7,x13,1936	 x13:0x00000612  x7=0x00000001
       92325000	      9231	8000250c	002f5d13	srli	x26,x30,0x2	 x30:0xecc93fea x26=0x3b324ffa
       92335000	      9232	80002510	00000013	addi	x0,x0,0	  x0:0x00000000
       92345000	      9233	80002514	00d1ac33	slt	x24,x3,x13	  x3:0x00000187 x13:0x00000612 x24=0x00000001
       92355000	      9234	80002518	18cda093	slti	x1,x27,396	 x27:0x80009f08  x1=0x00000001
       92365000	      9235	8000251c	01e27333	and	x6,x4,x30	  x4:0x5d93e6a8 x30:0xecc93fea  x6=0x4c8126a8
       92375000	      9236	80002520	5b560a97	auipc	x21,0x5b560	 x21=0xdb56251c
       92385000	      9237	80002524	31ca2e93	slti	x29,x20,796	 x20:0xffffff80 x29=0x00000001
       92395000	      9238	80002528	a4902313	slti	x6,x0,-1463	  x0:0x00000000  x6=0x00000000
       92405000	      9239	8000252c	00c24f33	xor	x30,x4,x12	  x4:0x5d93e6a8 x12:0x7d07e470 x30=0x209402d8
       92415000	      9240	80002530	58413013	sltiu	x0,x2,1412	  x2:0x7fff6622
       92425000	      9241	80002534	05339263	bne	x7,x19,80002578	  x7:0x00000001 x19:0x80001734
       92435000	      9242	00000000	00000013	addi	x0,x0,0	  x0:0x00000000
       92445000	      9243	80002574	00000013	addi	x0,x0,0	  x0:0x00000000
       92455000	      9244	80002578	00246a33	or	x20,x8,x2	  x8:0x80009fc4  x2:0x7fff6622 x20=0xffffffe6
       92465000	      9245	8000257c	010e1793	slli	x15,x28,0x10	 x28:0xffbd45d4 x15=0x45d40000
       92475000	      9246	80002580	00f98033	add	x0,x19,x15	 x19:0x80001734 x15:0x45d40000
       92485000	      9247	80002584	00c0c5b3	xor	x11,x1,x12	  x1:0x00000001 x12:0x7d07e470 x11=0x7d07e471
       92495000	      9248	80002588	00b80633	add	x12,x16,x11	 x16:0x1336b863 x11:0x7d07e471 x12=0x903e9cd4
       92505000	      9249	8000258c	01fe4e63	blt	x28,x31,800025a8	 x28:0xffbd45d4 x31:0x00000000
       92515000	      9250	00000000	00000013	addi	x0,x0,0	  x0:0x00000000
       92525000	      9251	800025a4	00000013	addi	x0,x0,0	  x0:0x00000000
       92535000	      9252	800025a8	3264cf93	xori	x31,x9,806	  x9:0x00000000 x31=0x00000326
       92545000	      9253	800025ac	001bdb33	srl	x22,x23,x1	 x23:0x3cb85000  x1:0x00000001 x22=0x1e5c2800
       92555000	      9254	800025b0	eb18cc93	xori	x25,x17,-335	 x17:0x0000000c x25=0xfffffebd
       92565000	      9255	800025b4	b6253997	auipc	x19,0xb6253	 x19=0x362555b0
       92575000	      9256	800025b8	31656a93	ori	x21,x10,790	 x10:0xecc94000 x21=0xecc94316
       92585000	      9257	800025bc	039fd663	bge	x31,x25,800025e8	 x31:0x00000326 x25:0xfffffebd
       92595000	      9258	00000000	00000013	addi	x0,x0,0	  x0:0x00000000
       92605000	      9259	800025e4	00000013	addi	x0,x0,0	  x0:0x00000000
       92615000	      9260	800025e8	b1818193	addi	x3,x3,-1256	  x3:0x00000187  x3=0xfffffc9f
       92625000	      9261	800025ec	00c3ab33	slt	x22,x7,x12	  x7:0x00000001 x12:0x903e9cd4 x22=0x00000000
       92635000	      9262	800025f0	074cc063	blt	x25,x20,80002650	 x25:0xfffffebd x20:0xffffffe6
       92645000	      9263	00000000	00000013	addi	x0,x0,0	  x0:0x00000000
       92655000	      9264	8000264c	00000013	addi	x0,x0,0	  x0:0x00000000
       92665000	      9265	80002650	00000013	addi	x0,x0,0	  x0:0x00000000
       92675000	      9266	80002654	443fe213	ori	x4,x31,1091	 x31:0x00000326  x4=0x00000767
       92685000	      9267	80002658	6af52a13	slti	x20,x10,1711	 x10:0xecc94000 x20=0x00000001
       92695000	      9268	8000265c	09f5da63	bge	x11,x31,800026f0	 x11:0x7d07e471 x31:0x00000326
       92705000	      9269	00000000	00000013	addi	x0,x0,0	  x0:0x00000000
       92715000	      9270	800026ec	00000013	addi	x0,x0,0	  x0:0x00000000
       92725000	      9271	800026f0	00000013	addi	x0,x0,0	  x0:0x00000000
       92735000	      9272	800026f4	003731b3	sltu	x3,x14,x3	 x14:0x00000001  x3:0xfffffc9f  x3=0x00000001
       92745000	      9273	800026f8	41835313	srai	x6,x6,0x18	  x6:0x00000000  x6=0x00000000
       92755000	      9274	800026fc	0ae80c63	beq	x16,x14,800027b4	 x16:0x1336b863 x14:0x00000001
       92765000	      9275	80002700	01855663	bge	x10,x24,8000270c	 x10:0xecc94000 x24:0x00000001
       92775000	      9276	80002704	02067863	bgeu	x12,x0,80002734	 x12:0x903e9cd4  x0:0x00000000
       92785000	      9277	00000000	00000013	addi	x0,x0,0	  x0:0x00000000
       92795000	      9278	80002730	00000013	addi	x0,x0,0	  x0:0x00000000
       92805000	      9279	80002734	0a366463	bltu	x12,x3,800027dc	 x12:0x903e9cd4  x3:0x00000001
       92815000	      9280	80002738	030000ef	jal	x1,80002738	  x1=0x80002738
       92825000	      9281	00000000	00000013	addi	x0,x0,0	  x0:0x00000000
       92835000	      9282	80002764	00000013	addi	x0,x0,0	  x0:0x00000000
       92845000	      9283	80002768	fedff36f	jal	x6,80002768	  x6=0x80002768
       92855000	      9284	00000000	00000013	addi	x0,x0,0	  x0:0x00000000
       92865000	      9285	80002750	00000013	addi	x0,x0,0	  x0:0x00000000
       92875000	      9286	80002754	004004ef	jal	x9,80002754	  x9=0x80002754
       92885000	      9287	00000000	00000013	addi	x0,x0,0	  x0:0x00000000
       92895000	      9288	80002754	00000013	addi	x0,x0,0	  x0:0x00000000
       92905000	      9289	80002758	048000ef	jal	x1,80002758	  x1=0x80002758
       92915000	      9290	00000000	00000013	addi	x0,x0,0	  x0:0x00000000
       92925000	      9291	8000279c	00000013	addi	x0,x0,0	  x0:0x00000000
       92935000	      9292	800027a0	fa1ff36f	jal	x6,800027a0	  x6=0x800027a0
       92945000	      9293	00000000	00000013	addi	x0,x0,0	  x0:0x00000000
       92955000	      9294	8000273c	00000013	addi	x0,x0,0	  x0:0x00000000
       92965000	      9295	80002740	02c000ef	jal	x1,80002740	  x1=0x80002740
       92975000	      9296	00000000	00000013	addi	x0,x0,0	  x0:0x00000000
       92985000	      9297	80002768	00000013	addi	x0,x0,0	  x0:0x00000000
       92995000	      9298	8000276c	02800eef	jal	x29,8000276c	 x29=0x8000276c
       93005000	      9299	00000000	00000013	addi	x0,x0,0	  x0:0x00000000
       93015000	      9300	80002790	00000013	addi	x0,x0,0	  x0:0x00000000
       93025000	      9301	80002794	ffdff0ef	jal	x1,80002794	  x1=0x80002794
       93035000	      9302	00000000	00000013	addi	x0,x0,0	  x0:0x00000000
       93045000	      9303	8000278c	00000013	addi	x0,x0,0	  x0:0x00000000
       93055000	      9304	80002790	fe5ff0ef	jal	x1,80002790	  x1=0x80002790
       93065000	      9305	00000000	00000013	addi	x0,x0,0	  x0:0x00000000
       93075000	      9306	80002770	00000013	addi	x0,x0,0	  x0:0x00000000
       93085000	      9307	80002774	fedffd6f	jal	x26,80002774	 x26=0x80002774
       93095000	      9308	00000000	00000013	addi	x0,x0,0	  x0:0x00000000
       93105000	      9309	8000275c	00000013	addi	x0,x0,0	  x0:0x00000000
       93115000	      9310	80002760	fedff36f	jal	x6,80002760	  x6=0x80002760
       93125000	      9311	00000000	00000013	addi	x0,x0,0	  x0:0x00000000
       93135000	      9312	80002748	00000013	addi	x0,x0,0	  x0:0x00000000
       93145000	      9313	8000274c	ff1ff36f	jal	x6,8000274c	  x6=0x8000274c
       93155000	      9314	00000000	00000013	addi	x0,x0,0	  x0:0x00000000
       93165000	      9315	80002738	00000013	addi	x0,x0,0	  x0:0x00000000
       93175000	      9316	8000273c	04c000ef	jal	x1,8000273c	  x1=0x8000273c
       93185000	      9317	00000000	00000013	addi	x0,x0,0	  x0:0x00000000
       93195000	      9318	80002784	00000013	addi	x0,x0,0	  x0:0x00000000
       93205000	      9319	80002788	014000ef	jal	x1,80002788	  x1=0x80002788
       93215000	      9320	00000000	00000013	addi	x0,x0,0	  x0:0x00000000
       93225000	      9321	80002798	00000013	addi	x0,x0,0	  x0:0x00000000
       93235000	      9322	8000279c	fadff0ef	jal	x1,8000279c	  x1=0x8000279c
       93245000	      9323	00000000	00000013	addi	x0,x0,0	  x0:0x00000000
       93255000	      9324	80002744	00000013	addi	x0,x0,0	  x0:0x00000000
       93265000	      9325	80002748	038000ef	jal	x1,80002748	  x1=0x80002748
       93275000	      9326	00000000	00000013	addi	x0,x0,0	  x0:0x00000000
       93285000	      9327	8000277c	00000013	addi	x0,x0,0	  x0:0x00000000
       93295000	      9328	80002780	fd1ff0ef	jal	x1,80002780	  x1=0x80002780
       93305000	      9329	00000000	00000013	addi	x0,x0,0	  x0:0x00000000
       93315000	      9330	8000274c	00000013	addi	x0,x0,0	  x0:0x00000000
       93325000	      9331	80002750	0540026f	jal	x4,80002750	  x4=0x80002750
       93335000	      9332	00000000	00000013	addi	x0,x0,0	  x0:0x00000000
       93345000	      9333	800027a0	00000013	addi	x0,x0,0	  x0:0x00000000
       93355000	      9334	800027a4	0040036f	jal	x6,800027a4	  x6=0x800027a4
       93365000	      9335	00000000	00000013	addi	x0,x0,0	  x0:0x00000000
       93375000	      9336	800027a4	00000013	addi	x0,x0,0	  x0:0x00000000
       93385000	      9337	800027a8	fbdffd6f	jal	x26,800027a8	 x26=0x800027a8
       93395000	      9338	00000000	00000013	addi	x0,x0,0	  x0:0x00000000
       93405000	      9339	80002760	00000013	addi	x0,x0,0	  x0:0x00000000
       93415000	      9340	80002764	0340056f	jal	x10,80002764	 x10=0x80002764
       93425000	      9341	00000000	00000013	addi	x0,x0,0	  x0:0x00000000
       93435000	      9342	80002794	00000013	addi	x0,x0,0	  x0:0x00000000
       93445000	      9343	80002798	fc5ff36f	jal	x6,80002798	  x6=0x80002798
       93455000	      9344	00000000	00000013	addi	x0,x0,0	  x0:0x00000000
       93465000	      9345	80002758	00000013	addi	x0,x0,0	  x0:0x00000000
       93475000	      9346	8000275c	fe9ffeef	jal	x29,8000275c	 x29=0x8000275c
       93485000	      9347	00000000	00000013	addi	x0,x0,0	  x0:0x00000000
       93495000	      9348	80002740	00000013	addi	x0,x0,0	  x0:0x00000000
       93505000	      9349	80002744	038000ef	jal	x1,80002744	  x1=0x80002744
       93515000	      9350	00000000	00000013	addi	x0,x0,0	  x0:0x00000000
       93525000	      9351	80002778	00000013	addi	x0,x0,0	  x0:0x00000000
       93535000	      9352	8000277c	0100056f	jal	x10,8000277c	 x10=0x8000277c
       93545000	      9353	00000000	00000013	addi	x0,x0,0	  x0:0x00000000
       93555000	      9354	80002788	00000013	addi	x0,x0,0	  x0:0x00000000
       93565000	      9355	8000278c	fedff26f	jal	x4,8000278c	  x4=0x8000278c
       93575000	      9356	00000000	00000013	addi	x0,x0,0	  x0:0x00000000
       93585000	      9357	80002774	00000013	addi	x0,x0,0	  x0:0x00000000
       93595000	      9358	80002778	ff9ff0ef	jal	x1,80002778	  x1=0x80002778
       93605000	      9359	00000000	00000013	addi	x0,x0,0	  x0:0x00000000
       93615000	      9360	8000276c	00000013	addi	x0,x0,0	  x0:0x00000000
       93625000	      9361	80002770	0140036f	jal	x6,80002770	  x6=0x80002770
       93635000	      9362	00000000	00000013	addi	x0,x0,0	  x0:0x00000000
       93645000	      9363	80002780	00000013	addi	x0,x0,0	  x0:0x00000000
       93655000	      9364	80002784	028000ef	jal	x1,80002784	  x1=0x80002784
       93665000	      9365	00000000	00000013	addi	x0,x0,0	  x0:0x00000000
       93675000	      9366	800027a8	00000013	addi	x0,x0,0	  x0:0x00000000
       93685000	      9367	800027ac	cbbe0f93	addi	x31,x28,-837	 x28:0xffbd45d4 x31=0xffbd428f
       93695000	      9368	800027b0	025c9a63	bne	x25,x5,800027e4	 x25:0xfffffebd  x5:0x00000612
       93705000	      9369	00000000	00000013	addi	x0,x0,0	  x0:0x00000000
       93715000	      9370	800027e0	00000013	addi	x0,x0,0	  x0:0x00000000
       93725000	      9371	800027e4	c3ab6593	ori	x11,x22,-966	 x22:0x00000000 x11=0xfffffc3a
       93735000	      9372	800027e8	02cf5e63	bge	x30,x12,80002824	 x30:0x209402d8 x12:0x903e9cd4
       93745000	      9373	00000000	00000013	addi	x0,x0,0	  x0:0x00000000
       93755000	      9374	80002820	00000013	addi	x0,x0,0	  x0:0x00000000
       93765000	      9375	80002824	c0726913	ori	x18,x4,-1017	  x4:0x8000278c x18=0xffffff8f
       93775000	      9376	80002828	6e550c93	addi	x25,x10,1765	 x10:0x8000277c x25=0x80002e61
       93785000	      9377	8000282c	5dc06517	auipc	x10,0x5dc06	 x10=0xddc08828
       93795000	      9378	80002830	009f00b3	add	x1,x30,x9	 x30:0x209402d8  x9:0x80002754  x1=0xa0942a2c
       93805000	      9379	80002834	0588e463	bltu	x17,x24,8000287c	 x17:0x0000000c x24:0x00000001
       93815000	      9380	80002838	03941663	bne	x8,x25,80002864	  x8:0x80009fc4 x25:0x80002e61
       93825000	      9381	00000000	00000013	addi	x0,x0,0	  x0:0x00000000
       93835000	      9382	80002860	00000013	addi	x0,x0,0	  x0:0x00000000
       93845000	      9383	80002864	40d58133	sub	x2,x11,x13	 x11:0xfffffc3a x13:0x00000612  x2=0xfffff628
       93855000	      9384	80002868	012a0833	add	x16,x20,x18	 x20:0x00000001 x18:0xffffff8f x16=0xffffff90
       93865000	      9385	8000286c	00012933	slt	x18,x2,x0	  x2:0xfffff628  x0:0x00000000 x18=0x00000001
       93875000	      9386	80002870	015b5993	srli	x19,x22,0x15	 x22:0x00000000 x19=0x00000000
       93885000	      9387	80002874	36090293	addi	x5,x18,864	 x18:0x00000001  x5=0x00000361
       93895000	      9388	80002878	0046e2b3	or	x5,x13,x4	 x13:0x00000612  x4:0x8000278c  x5=0x8000279e
       93905000	      9389	8000287c	00000013	addi	x0,x0,0	  x0:0x00000000
       93915000	      9390	80002880	01da27b3	slt	x15,x20,x29	 x20:0x00000001 x29:0x8000275c x15=0x00000000
       93925000	      9391	80002884	413e0833	sub	x16,x28,x19	 x28:0xffbd45d4 x19:0x00000000 x16=0xffbd45d4
       93935000	      9392	80002888	b5df0a17	auipc	x20,0xb5df0	 x20=0x35df2884
       93945000	      9393	8000288c	7ec88393	addi	x7,x17,2028	 x17:0x0000000c  x7=0x000007f8
       93955000	      9394	80002890	01633f33	sltu	x30,x6,x22	  x6:0x80002770 x22:0x00000000 x30=0x00000000
       93965000	      9395	80002894	0058dd33	srl	x26,x17,x5	 x17:0x0000000c  x5:0x8000279e x26=0x00000000
       93975000	      9396	80002898	9a540713	addi	x14,x8,-1627	  x8:0x80009fc4 x14=0x80009969
       93985000	      9397	8000289c	c0a8e313	ori	x6,x17,-1014	 x17:0x0000000c  x6=0xfffffc0e
       93995000	      9398	800028a0	1f3d3f97	auipc	x31,0x1f3d3	 x31=0x9f3d589c
       94005000	      9399	800028a4	01272fb3	slt	x31,x14,x18	 x14:0x80009969 x18:0x00000001 x31=0x00000001
       94015000	      9400	800028a8	74b2ef93	ori	x31,x5,1867	  x5:0x8000279e x31=0x800027df
       94025000	      9401	800028ac	94578713	addi	x14,x15,-1723	 x15:0x00000000 x14=0xfffff945
       94035000	      9402	800028b0	00727e63	bgeu	x4,x7,800028cc	  x4:0x8000278c  x7:0x000007f8
       94045000	      9403	00000000	00000013	addi	x0,x0,0	  x0:0x00000000
       94055000	      9404	800028c8	00000013	addi	x0,x0,0	  x0:0x00000000
       94065000	      9405	800028cc	2d731597	auipc	x11,0x2d731	 x11=0xad7338c8
       94075000	      9406	800028d0	eca7fe93	andi	x29,x15,-310	 x15:0x00000000 x29=0x00000000
       94085000	      9407	800028d4	00000013	addi	x0,x0,0	  x0:0x00000000
       94095000	      9408	800028d8	06f26663	bltu	x4,x15,80002944	  x4:0x8000278c x15:0x00000000
       94105000	      9409	800028dc	4e70d717	auipc	x14,0x4e70d	 x14=0xce70f8d8
       94115000	      9410	800028e0	6d76e593	ori	x11,x13,1751	 x13:0x00000612 x11=0x000006d7
       94125000	      9411	800028e4	00ce9e33	sll	x28,x29,x12	 x29:0x00000000 x12:0x903e9cd4 x28=0x00000000
       94135000	      9412	800028e8	08c41263	bne	x8,x12,8000296c	  x8:0x80009fc4 x12:0x903e9cd4
       94145000	      9413	00000000	00000013	addi	x0,x0,0	  x0:0x00000000
       94155000	      9414	80002968	00000013	addi	x0,x0,0	  x0:0x00000000
       94165000	      9415	8000296c	f680f193	andi	x3,x1,-152	  x1:0xa0942a2c  x3=0xa0942a28
       94175000	      9416	80002970	019b3533	sltu	x10,x22,x25	 x22:0x00000000 x25:0x80002e61 x10=0x00000001
       94185000	      9417	80002974	013d5193	srli	x3,x26,0x13	 x26:0x00000000  x3=0x00000000
       94195000	      9418	80002978	00624cb3	xor	x25,x4,x6	  x4:0x8000278c  x6:0xfffffc0e x25=0x7fffdb82
       94205000	      9419	8000297c	14250513	addi	x10,x10,322	 x10:0x00000001 x10=0x00000143
       94215000	      9420	80002980	013d9ab3	sll	x21,x27,x19	 x27:0x80009f08 x19:0x00000000 x21=0x80009f08
       94225000	      9421	80002984	e7e42d13	slti	x26,x8,-386	  x8:0x80009fc4 x26=0x00000001
       94235000	      9422	80002988	000ac9b3	xor	x19,x21,x0	 x21:0x80009f08  x0:0x00000000 x19=0x80009f08
       94245000	      9423	8000298c	00000013	addi	x0,x0,0	  x0:0x00000000
       94255000	      9424	80002990	d8f93293	sltiu	x5,x18,-625	 x18:0x00000001  x5=0x00000001
       94265000	      9425	80002994	ffa115b7	lui	x11,0xffa11	 x11=0xffa11000
       94275000	      9426	80002998	01a19493	slli	x9,x3,0x1a	  x3:0x00000000  x9=0x00000000
       94285000	      9427	8000299c	016e6233	or	x4,x28,x22	 x28:0x00000000 x22:0x00000000  x4=0x00000000
       94295000	      9428	800029a0	96b96793	ori	x15,x18,-1685	 x18:0x00000001 x15=0xfffff96b
       94305000	      9429	800029a4	01fd1093	slli	x1,x26,0x1f	 x26:0x00000001  x1=0x80000000
       94315000	      9430	800029a8	412a4093	xori	x1,x20,1042	 x20:0x35df2884  x1=0x35df2c96
       94325000	      9431	800029ac	407e5333	sra	x6,x28,x7	 x28:0x00000000  x7:0x000007f8  x6=0x00000000
       94335000	      9432	800029b0	379e4313	xori	x6,x28,889	 x28:0x00000000  x6=0x00000379
       94345000	      9433	800029b4	0143de63	bge	x7,x20,800029d0	  x7:0x000007f8 x20:0x35df2884
       94355000	      9434	800029b8	8d283797	auipc	x15,0x8d283	 x15=0x0d2859b4
       94365000	      9435	800029bc	40d0d533	sra	x10,x1,x13	  x1:0x35df2c96 x13:0x00000612 x10=0x00000d77
       94375000	      9436	800029c0	002925b3	slt	x11,x18,x2	 x18:0x00000001  x2:0xfffff628 x11=0x00000000
       94385000	      9437	800029c4	41aada33	sra	x20,x21,x26	 x21:0x80009f08 x26:0x00000001 x20=0xc0004f84
       94395000	      9438	800029c8	02e44a63	blt	x8,x14,800029fc	  x8:0x80009fc4 x14:0xce70f8d8
       94405000	      9439	00000000	00000013	addi	x0,x0,0	  x0:0x00000000
       94415000	      9440	800029f8	00000013	addi	x0,x0,0	  x0:0x00000000
       94425000	      9441	800029fc	db6d7e13	andi	x28,x26,-586	 x26:0x00000001 x28=0x00000000
       94435000	      9442	80002a00	40f5d613	srai	x12,x11,0xf	 x11:0x00000000 x12=0x00000000
       94445000	      9443	80002a04	000d2833	slt	x16,x26,x0	 x26:0x00000001  x0:0x00000000 x16=0x00000000
       94455000	      9444	80002a08	0136dd33	srl	x26,x13,x19	 x13:0x00000612 x19:0x80009f08 x26=0x00000006
       94465000	      9445	80002a0c	014e9293	slli	x5,x29,0x14	 x29:0x00000000  x5=0x00000000
       94475000	      9446	80002a10	4008db13	srai	x22,x17,0x0	 x17:0x0000000c x22=0x0000000c
       94485000	      9447	80002a14	007f8e33	add	x28,x31,x7	 x31:0x800027df  x7:0x000007f8 x28=0x80002fd7
       94495000	      9448	80002a18	4fff94b7	lui	x9,0x4fff9	  x9=0x4fff9000
       94505000	      9449	80002a1c	b72ff393	andi	x7,x31,-1166	 x31:0x800027df  x7=0x80002352
       94515000	      9450	80002a20	bbc70f13	addi	x30,x14,-1092	 x14:0xce70f8d8 x30=0xce70f494
       94525000	      9451	80002a24	00ab15b3	sll	x11,x22,x10	 x22:0x0000000c x10:0x00000d77 x11=0x06000000
       94535000	      9452	80002a28	009bf4b3	and	x9,x23,x9	 x23:0x3cb85000  x9:0x4fff9000  x9=0x0cb81000
       94545000	      9453	80002a2c	01697633	and	x12,x18,x22	 x18:0x00000001 x22:0x0000000c x12=0x00000000
       94555000	      9454	80002a30	e1adc193	xori	x3,x27,-486	 x27:0x80009f08  x3=0x7fff6112
       94565000	      9455	80002a34	017a6eb3	or	x29,x20,x23	 x20:0xc0004f84 x23:0x3cb85000 x29=0xfcb85f84
       94575000	      9456	80002a38	01f61793	slli	x15,x12,0x1f	 x12:0x00000000 x15=0x00000000
       94585000	      9457	80002a3c	052c5663	bge	x24,x18,80002a88	 x24:0x00000001 x18:0x00000001
       94595000	      9458	00000000	00000013	addi	x0,x0,0	  x0:0x00000000
       94605000	      9459	80002a84	00000013	addi	x0,x0,0	  x0:0x00000000
       94615000	      9460	80002a88	01d5a9b3	slt	x19,x11,x29	 x11:0x06000000 x29:0xfcb85f84 x19=0x00000000
       94625000	      9461	80002a8c	00fed1b3	srl	x3,x29,x15	 x29:0xfcb85f84 x15:0x00000000  x3=0xfcb85f84
       94635000	      9462	80002a90	3701c697	auipc	x13,0x3701c	 x13=0xb701ea8c
       94645000	      9463	80002a94	01af8263	beq	x31,x26,80002a98	 x31:0x800027df x26:0x00000006
       94655000	      9464	80002a98	00caabb3	slt	x23,x21,x12	 x21:0x80009f08 x12:0x00000000 x23=0x00000001
       94665000	      9465	80002a9c	01c02e33	slt	x28,x0,x28	  x0:0x00000000 x28:0x80002fd7 x28=0x00000000
       94675000	      9466	80002aa0	01c56633	or	x12,x10,x28	 x10:0x00000d77 x28:0x00000000 x12=0x00000d77
       94685000	      9467	80002aa4	0375c463	blt	x11,x23,80002acc	 x11:0x06000000 x23:0x00000001
       94695000	      9468	80002aa8	00000013	addi	x0,x0,0	  x0:0x00000000
       94705000	      9469	80002aac	00272233	slt	x4,x14,x2	 x14:0xce70f8d8  x2:0xfffff628  x4=0x00000001
       94715000	      9470	80002ab0	00000013	addi	x0,x0,0	  x0:0x00000000
       94725000	      9471	80002ab4	5fd54497	auipc	x9,0x5fd54	  x9=0xdfd56ab0
       94735000	      9472	80002ab8	03395863	bge	x18,x19,80002ae8	 x18:0x00000001 x19:0x00000000
       94745000	      9473	00000000	00000013	addi	x0,x0,0	  x0:0x00000000
       94755000	      9474	80002ae4	00000013	addi	x0,x0,0	  x0:0x00000000
       94765000	      9475	80002ae8	0141d093	srli	x1,x3,0x14	  x3:0xfcb85f84  x1=0x00000fcb
       94775000	      9476	80002aec	00df9b13	slli	x22,x31,0xd	 x31:0x800027df x22=0x04fbe000
       94785000	      9477	80002af0	00b0f3b3	and	x7,x1,x11	  x1:0x00000fcb x11:0x06000000  x7=0x00000000
       94795000	      9478	80002af4	03b81463	bne	x16,x27,80002b1c	 x16:0x00000000 x27:0x80009f08
       94805000	      9479	00000000	00000013	addi	x0,x0,0	  x0:0x00000000
       94815000	      9480	80002b18	00000013	addi	x0,x0,0	  x0:0x00000000
       94825000	      9481	80002b1c	00000013	addi	x0,x0,0	  x0:0x00000000
       94835000	      9482	80002b20	0511e063	bltu	x3,x17,80002b60	  x3:0xfcb85f84 x17:0x0000000c
       94845000	      9483	80002b24	004b1233	sll	x4,x22,x4	 x22:0x04fbe000  x4:0x00000001  x4=0x09f7c000
       94855000	      9484	80002b28	00de9993	slli	x19,x29,0xd	 x29:0xfcb85f84 x19=0x0bf08000
       94865000	      9485	80002b2c	4e5c3f93	sltiu	x31,x24,1253	 x24:0x00000001 x31=0x00000001
       94875000	      9486	80002b30	aa3b6493	ori	x9,x22,-1373	 x22:0x04fbe000  x9=0xfffffaa3
       94885000	      9487	80002b34	0296f863	bgeu	x13,x9,80002b64	 x13:0xb701ea8c  x9:0xfffffaa3
       94895000	      9488	80002b38	01451863	bne	x10,x20,80002b48	 x10:0x00000d77 x20:0xc0004f84
       94905000	      9489	00000000	00000013	addi	x0,x0,0	  x0:0x00000000
       94915000	      9490	80002b44	00000013	addi	x0,x0,0	  x0:0x00000000
       94925000	      9491	80002b48	de21ce13	xori	x28,x3,-542	  x3:0xfcb85f84 x28=0x0347a266
       94935000	      9492	80002b4c	012fcbb3	xor	x23,x31,x18	 x31:0x00000001 x18:0x00000001 x23=0x00000000
       94945000	      9493	80002b50	01f85d13	srli	x26,x16,0x1f	 x16:0x00000000 x26=0x00000000
       94955000	      9494	80002b54	017b67b3	or	x15,x22,x23	 x22:0x04fbe000 x23:0x00000000 x15=0x04fbe000
       94965000	      9495	80002b58	00e299b3	sll	x19,x5,x14	  x5:0x00000000 x14:0xce70f8d8 x19=0x00000000
       94975000	      9496	80002b5c	b5b58593	addi	x11,x11,-1189	 x11:0x06000000 x11=0x05fffb5b
       94985000	      9497	80002b60	00737263	bgeu	x6,x7,80002b64	  x6:0x00000379  x7:0x00000000
       94995000	      9498	00000000	00000013	addi	x0,x0,0	  x0:0x00000000
       95005000	      9499	80002b60	00000013	addi	x0,x0,0	  x0:0x00000000
       95015000	      9500	80002b64	01681093	slli	x1,x16,0x16	 x16:0x00000000  x1=0x00000000
       95025000	      9501	80002b68	00c06d33	or	x26,x0,x12	  x0:0x00000000 x12:0x00000d77 x26=0x00000d77
       95035000	      9502	80002b6c	00e05f33	srl	x30,x0,x14	  x0:0x00000000 x14:0xce70f8d8 x30=0x00000000
       95045000	      9503	80002b70	00000013	addi	x0,x0,0	  x0:0x00000000
       95055000	      9504	80002b74	cbf03293	sltiu	x5,x0,-833	  x0:0x00000000  x5=0x00000001
       95065000	      9505	80002b78	008a9593	slli	x11,x21,0x8	 x21:0x80009f08 x11=0x009f0800
       95075000	      9506	80002b7c	0b5f4863	blt	x30,x21,80002c2c	 x30:0x00000000 x21:0x80009f08
       95085000	      9507	80002b80	013c9213	slli	x4,x25,0x13	 x25:0x7fffdb82  x4=0xdc100000
       95095000	      9508	80002b84	41605193	srai	x3,x0,0x16	  x0:0x00000000  x3=0x00000000
       95105000	      9509	80002b88	a546ce13	xori	x28,x13,-1452	 x13:0xb701ea8c x28=0x48fe10d8
       95115000	      9510	80002b8c	0bb65e63	bge	x12,x27,80002c48	 x12:0x00000d77 x27:0x80009f08
       95125000	      9511	00000000	00000013	addi	x0,x0,0	  x0:0x00000000
       95135000	      9512	80002c44	00000013	addi	x0,x0,0	  x0:0x00000000
       95145000	      9513	80002c48	41a203b3	sub	x7,x4,x26	  x4:0xdc100000 x26:0x00000d77  x7=0xdc0ff289
       95155000	      9514	80002c4c	00000013	addi	x0,x0,0	  x0:0x00000000
       95165000	      9515	80002c50	01226e33	or	x28,x4,x18	  x4:0xdc100000 x18:0x00000001 x28=0xdc100001
       95175000	      9516	80002c54	03926a63	bltu	x4,x25,80002c88	  x4:0xdc100000 x25:0x7fffdb82
       95185000	      9517	80002c58	00000013	addi	x0,x0,0	  x0:0x00000000
       95195000	      9518	80002c5c	433a8597	auipc	x11,0x433a8	 x11=0xc33aac58
       95205000	      9519	80002c60	0070c933	xor	x18,x1,x7	  x1:0x00000000  x7:0xdc0ff289 x18=0xdc0ff289
       95215000	      9520	80002c64	a1f4e993	ori	x19,x9,-1505	  x9:0xfffffaa3 x19=0xfffffabf
       95225000	      9521	80002c68	04eb9063	bne	x23,x14,80002ca8	 x23:0x00000000 x14:0xce70f8d8
       95235000	      9522	00000000	00000013	addi	x0,x0,0	  x0:0x00000000
       95245000	      9523	80002ca4	00000013	addi	x0,x0,0	  x0:0x00000000
       95255000	      9524	80002ca8	b2b8e837	lui	x16,0xb2b8e	 x16=0xb2b8e000
       95265000	      9525	80002cac	00a08e63	beq	x1,x10,80002cc8	  x1:0x00000000 x10:0x00000d77
       95275000	      9526	80002cb0	00adf863	bgeu	x27,x10,80002cc0	 x27:0x80009f08 x10:0x00000d77
       95285000	      9527	00000000	00000013	addi	x0,x0,0	  x0:0x00000000
       95295000	      9528	80002cbc	00000013	addi	x0,x0,0	  x0:0x00000000
       95305000	      9529	80002cc0	40c785b3	sub	x11,x15,x12	 x15:0x04fbe000 x12:0x00000d77 x11=0x04fbd289
       95315000	      9530	80002cc4	019769b3	or	x19,x14,x25	 x14:0xce70f8d8 x25:0x7fffdb82 x19=0xfffffbda
       95325000	      9531	80002cc8	ce4dbe13	sltiu	x28,x27,-796	 x27:0x80009f08 x28=0x00000001
       95335000	      9532	80002ccc	0082e663	bltu	x5,x8,80002cd8	  x5:0x00000001  x8:0x80009fc4
       95345000	      9533	00000000	00000013	addi	x0,x0,0	  x0:0x00000000
       95355000	      9534	80002cd4	00000013	addi	x0,x0,0	  x0:0x00000000
       95365000	      9535	80002cd8	4120dc13	srai	x24,x1,0x12	  x1:0x00000000 x24=0x00000000
       95375000	      9536	80002cdc	07097863	bgeu	x18,x16,80002d4c	 x18:0xdc0ff289 x16:0xb2b8e000
       95385000	      9537	00000000	00000013	addi	x0,x0,0	  x0:0x00000000
       95395000	      9538	80002d48	00000013	addi	x0,x0,0	  x0:0x00000000
       95405000	      9539	80002d4c	0410e863	bltu	x1,x1,80002d9c	  x1:0x00000000  x1:0x00000000
       95415000	      9540	80002d50	40d7deb3	sra	x29,x15,x13	 x15:0x04fbe000 x13:0xb701ea8c x29=0x00004fbe
       95425000	      9541	80002d54	00000013	addi	x0,x0,0	  x0:0x00000000
       95435000	      9542	80002d58	01c1c3b3	xor	x7,x3,x28	  x3:0x00000000 x28:0x00000001  x7=0x00000001
       95445000	      9543	80002d5c	0589d663	bge	x19,x24,80002da8	 x19:0xfffffbda x24:0x00000000
       95455000	      9544	80002d60	04be4863	blt	x28,x11,80002db0	 x28:0x00000001 x11:0x04fbd289
       95465000	      9545	00000000	00000013	addi	x0,x0,0	  x0:0x00000000
       95475000	      9546	80002dac	00000013	addi	x0,x0,0	  x0:0x00000000
       95485000	      9547	80002db0	73db4313	xori	x6,x22,1853	 x22:0x04fbe000  x6=0x04fbe73d
       95495000	      9548	80002db4	f0c6c293	xori	x5,x13,-244	 x13:0xb701ea8c  x5=0x48fe1580
       95505000	      9549	80002db8	00000013	addi	x0,x0,0	  x0:0x00000000
       95515000	      9550	80002dbc	02b8f263	bgeu	x17,x11,80002de0	 x17:0x0000000c x11:0x04fbd289
       95525000	      9551	80002dc0	0034fbb3	and	x23,x9,x3	  x9:0xfffffaa3  x3:0x00000000 x23=0x00000000
       95535000	      9552	80002dc4	401b8d33	sub	x26,x23,x1	 x23:0x00000000  x1:0x00000000 x26=0x00000000
       95545000	      9553	80002dc8	01657eb3	and	x29,x10,x22	 x10:0x00000d77 x22:0x04fbe000 x29=0x00000000
       95555000	      9554	80002dcc	9aa66f17	auipc	x30,0x9aa66	 x30=0x1aa68dc8
       95565000	      9555	80002dd0	0462e463	bltu	x5,x6,80002e18	  x5:0x48fe1580  x6:0x04fbe73d
       95575000	      9556	80002dd4	04c7e863	bltu	x15,x12,80002e24	 x15:0x04fbe000 x12:0x00000d77
       95585000	      9557	80002dd8	41755913	srai	x18,x10,0x17	 x10:0x00000d77 x18=0x00000000
       95595000	      9558	80002ddc	01f594b3	sll	x9,x11,x31	 x11:0x04fbd289 x31:0x00000001  x9=0x09f7a512
       95605000	      9559	80002de0	03ba5e63	bge	x20,x27,80002e1c	 x20:0xc0004f84 x27:0x80009f08
       95615000	      9560	00000000	00000013	addi	x0,x0,0	  x0:0x00000000
       95625000	      9561	80002e18	00000013	addi	x0,x0,0	  x0:0x00000000
       95635000	      9562	80002e1c	00164b13	xori	x22,x12,1	 x12:0x00000d77 x22=0x00000d76
       95645000	      9563	80002e20	00780133	add	x2,x16,x7	 x16:0xb2b8e000  x7:0x00000001  x2=0xb2b8e001
       95655000	      9564	80002e24	05de9463	bne	x29,x29,80002e6c	 x29:0x00000000 x29:0x00000000
       95665000	      9565	80002e28	5c37a093	slti	x1,x15,1475	 x15:0x04fbe000  x1=0x00000000
       95675000	      9566	80002e2c	0307e863	bltu	x15,x16,80002e5c	 x15:0x04fbe000 x16:0xb2b8e000
       95685000	      9567	00000000	00000013	addi	x0,x0,0	  x0:0x00000000
       95695000	      9568	80002e58	00000013	addi	x0,x0,0	  x0:0x00000000
       95705000	      9569	80002e5c	ad4c8993	addi	x19,x25,-1324	 x25:0x7fffdb82 x19=0x7fffd656
       95715000	      9570	80002e60	05cf9863	bne	x31,x28,80002eb0	 x31:0x00000001 x28:0x00000001
       95725000	      9571	80002e64	f4e96993	ori	x19,x18,-178	 x18:0x00000000 x19=0xffffff4e
       95735000	      9572	80002e68	6f592f13	slti	x30,x18,1781	 x18:0x00000000 x30=0x00000001
       95745000	      9573	80002e6c	02379663	bne	x15,x3,80002e98	 x15:0x04fbe000  x3:0x00000000
       95755000	      9574	00000000	00000013	addi	x0,x0,0	  x0:0x00000000
       95765000	      9575	80002e94	00000013	addi	x0,x0,0	  x0:0x00000000
       95775000	      9576	80002e98	d7047993	andi	x19,x8,-656	  x8:0x80009fc4 x19=0x80009d40
       95785000	      9577	80002e9c	0373e863	bltu	x7,x23,80002ecc	  x7:0x00000001 x23:0x00000000
       95795000	      9578	80002ea0	3c5ea693	slti	x13,x29,965	 x29:0x00000000 x13=0x00000001
       95805000	      9579	80002ea4	011c1d13	slli	x26,x24,0x11	 x24:0x00000000 x26=0x00000000
       95815000	      9580	80002ea8	00000013	addi	x0,x0,0	  x0:0x00000000
       95825000	      9581	80002eac	0034fe63	bgeu	x9,x3,80002ec8	  x9:0x09f7a512  x3:0x00000000
       95835000	      9582	00000000	00000013	addi	x0,x0,0	  x0:0x00000000
       95845000	      9583	80002ec4	00000013	addi	x0,x0,0	  x0:0x00000000
       95855000	      9584	80002ec8	00e15663	bge	x2,x14,80002ed4	  x2:0xb2b8e001 x14:0xce70f8d8
       95865000	      9585	80002ecc	419f5793	srai	x15,x30,0x19	 x30:0x00000001 x15=0x00000000
       95875000	      9586	80002ed0	01e076b3	and	x13,x0,x30	  x0:0x00000000 x30:0x00000001 x13=0x00000000
       95885000	      9587	80002ed4	01e85493	srli	x9,x16,0x1e	 x16:0xb2b8e000  x9=0x00000002
       95895000	      9588	80002ed8	01b8bcb3	sltu	x25,x17,x27	 x17:0x0000000c x27:0x80009f08 x25=0x00000001
       95905000	      9589	80002edc	4146d9b3	sra	x19,x13,x20	 x13:0x00000000 x20:0xc0004f84 x19=0x00000000
       95915000	      9590	80002ee0	587ec193	xori	x3,x29,1415	 x29:0x00000000  x3=0x00000587
       95925000	      9591	80002ee4	41d457b3	sra	x15,x8,x29	  x8:0x80009fc4 x29:0x00000000 x15=0x80009fc4
       95935000	      9592	80002ee8	6a5e0793	addi	x15,x28,1701	 x28:0x00000001 x15=0x000006a6
       95945000	      9593	80002eec	38feda37	lui	x20,0x38fed	 x20=0x38fed000
       95955000	      9594	80002ef0	001b2233	slt	x4,x22,x1	 x22:0x00000d76  x1:0x00000000  x4=0x00000000
       95965000	      9595	80002ef4	03ebf663	bgeu	x23,x30,80002f20	 x23:0x00000000 x30:0x00000001
       95975000	      9596	80002ef8	01d55f33	srl	x30,x10,x29	 x10:0x00000d77 x29:0x00000000 x30=0x00000d77
       95985000	      9597	80002efc	ce0a2513	slti	x10,x20,-800	 x20:0x38fed000 x10=0x00000000
       95995000	      9598	80002f00	2b442993	slti	x19,x8,692	  x8:0x80009fc4 x19=0x00000001
       96005000	      9599	80002f04	012c17b3	sll	x15,x24,x18	 x24:0x00000000 x18:0x00000000 x15=0x00000000
       96015000	      9600	80002f08	01f49263	bne	x9,x31,80002f0c	  x9:0x00000002 x31:0x00000001
       96025000	      9601	00000000	00000013	addi	x0,x0,0	  x0:0x00000000
       96035000	      9602	80002f08	00000013	addi	x0,x0,0	  x0:0x00000000
       96045000	      9603	80002f0c	939e0f93	addi	x31,x28,-1735	 x28:0x00000001 x31=0xfffff93a
       96055000	      9604	80002f10	95701517	auipc	x10,0x95701	 x10=0x15703f0c
       96065000	      9605	80002f14	4187df93	srai	x31,x15,0x18	 x15:0x00000000 x31=0x00000000
       96075000	      9606	80002f18	abe17b93	andi	x23,x2,-1346	  x2:0xb2b8e001 x23=0xb2b8e000
       96085000	      9607	80002f1c	962b8d13	addi	x26,x23,-1694	 x23:0xb2b8e000 x26=0xb2b8d962
       96095000	      9608	80002f20	008bd493	srli	x9,x23,0x8	 x23:0xb2b8e000  x9=0x00b2b8e0
       96105000	      9609	80002f24	40645713	srai	x14,x8,0x6	  x8:0x80009fc4 x14=0xfe00027f
       96115000	      9610	80002f28	04a65063	bge	x12,x10,80002f68	 x12:0x00000d77 x10:0x15703f0c
       96125000	      9611	80002f2c	554b8393	addi	x7,x23,1364	 x23:0xb2b8e000  x7=0xb2b8e554
       96135000	      9612	80002f30	01d75533	srl	x10,x14,x29	 x14:0xfe00027f x29:0x00000000 x10=0xfe00027f
       96145000	      9613	80002f34	fdddbc93	sltiu	x25,x27,-35	 x27:0x80009f08 x25=0x00000001
       96155000	      9614	80002f38	01b40733	add	x14,x8,x27	  x8:0x80009fc4 x27:0x80009f08 x14=0x00013ecc
       96165000	      9615	80002f3c	01cd5cb3	srl	x25,x26,x28	 x26:0xb2b8d962 x28:0x00000001 x25=0x595c6cb1
       96175000	      9616	80002f40	0238ea63	bltu	x17,x3,80002f74	 x17:0x0000000c  x3:0x00000587
       96185000	      9617	00000000	00000013	addi	x0,x0,0	  x0:0x00000000
       96195000	      9618	80002f70	00000013	addi	x0,x0,0	  x0:0x00000000
       96205000	      9619	80002f74	038a0463	beq	x20,x24,80002f9c	 x20:0x38fed000 x24:0x00000000
       96215000	      9620	80002f78	015536b3	sltu	x13,x10,x21	 x10:0xfe00027f x21:0x80009f08 x13=0x00000000
       96225000	      9621	80002f7c	949cbc93	sltiu	x25,x25,-1719	 x25:0x595c6cb1 x25=0x00000001
       96235000	      9622	80002f80	025cda63	bge	x25,x5,80002fb4	 x25:0x00000001  x5:0x48fe1580
       96245000	      9623	80002f84	41b900b3	sub	x1,x18,x27	 x18:0x00000000 x27:0x80009f08  x1=0x7fff60f8
       96255000	      9624	80002f88	414d5d33	sra	x26,x26,x20	 x26:0xb2b8d962 x20:0x38fed000 x26=0xb2b8d962
       96265000	      9625	80002f8c	00c2e0b3	or	x1,x5,x12	  x5:0x48fe1580 x12:0x00000d77  x1=0x48fe1df7
       96275000	      9626	80002f90	0592d663	bge	x5,x25,80002fdc	  x5:0x48fe1580 x25:0x00000001
       96285000	      9627	00000000	00000013	addi	x0,x0,0	  x0:0x00000000
       96295000	      9628	80002fd8	00000013	addi	x0,x0,0	  x0:0x00000000
       96305000	      9629	80002fdc	03cd9263	bne	x27,x28,80003000	 x27:0x80009f08 x28:0x00000001
       96315000	      9630	00000000	00000013	addi	x0,x0,0	  x0:0x00000000
       96325000	      9631	80002ffc	00000013	addi	x0,x0,0	  x0:0x00000000
       96335000	      9632	80003000	01711b13	slli	x22,x2,0x17	  x2:0xb2b8e001 x22=0x00800000
       96345000	      9633	80003004	0006f133	and	x2,x13,x0	 x13:0x00000000  x0:0x00000000  x2=0x00000000
       96355000	      9634	80003008	58683193	sltiu	x3,x16,1414	 x16:0xb2b8e000  x3=0x00000000
       96365000	      9635	8000300c	735a6293	ori	x5,x20,1845	 x20:0x38fed000  x5=0x38fed735
       96375000	      9636	80003010	002811b3	sll	x3,x16,x2	 x16:0xb2b8e000  x2:0x00000000  x3=0xb2b8e000
       96385000	      9637	80003014	408bdcb3	sra	x25,x23,x8	 x23:0xb2b8e000  x8:0x80009fc4 x25=0xfb2b8e00
       96395000	      9638	80003018	04ce4263	blt	x28,x12,8000305c	 x28:0x00000001 x12:0x00000d77
       96405000	      9639	00000000	00000013	addi	x0,x0,0	  x0:0x00000000
       96415000	      9640	80003058	00000013	addi	x0,x0,0	  x0:0x00000000
       96425000	      9641	8000305c	01cf40b3	xor	x1,x30,x28	 x30:0x00000d77 x28:0x00000001  x1=0x00000d76
       96435000	      9642	80003060	01aade63	bge	x21,x26,8000307c	 x21:0x80009f08 x26:0xb2b8d962
       96445000	      9643	80003064	47fd9c37	lui	x24,0x47fd9	 x24=0x47fd9000
       96455000	      9644	80003068	01712cb3	slt	x25,x2,x23	  x2:0x00000000 x23:0xb2b8e000 x25=0x00000000
       96465000	      9645	8000306c	41050e33	sub	x28,x10,x16	 x10:0xfe00027f x16:0xb2b8e000 x28=0x4b47227f
       96475000	      9646	80003070	51158393	addi	x7,x11,1297	 x11:0x04fbd289  x7=0x04fbd79a
       96485000	      9647	80003074	4099de33	sra	x28,x19,x9	 x19:0x00000001  x9:0x00b2b8e0 x28=0x00000001
       96495000	      9648	80003078	404f5e13	srai	x28,x30,0x4	 x30:0x00000d77 x28=0x000000d7
       96505000	      9649	8000307c	03b49463	bne	x9,x27,800030a4	  x9:0x00b2b8e0 x27:0x80009f08
       96515000	      9650	00000000	00000013	addi	x0,x0,0	  x0:0x00000000
       96525000	      9651	800030a0	00000013	addi	x0,x0,0	  x0:0x00000000
       96535000	      9652	800030a4	001ebb33	sltu	x22,x29,x1	 x29:0x00000000  x1:0x00000d76 x22=0x00000001
       96545000	      9653	800030a8	0273da63	bge	x7,x7,800030dc	  x7:0x04fbd79a  x7:0x04fbd79a
       96555000	      9654	00000000	00000013	addi	x0,x0,0	  x0:0x00000000
       96565000	      9655	800030d8	00000013	addi	x0,x0,0	  x0:0x00000000
       96575000	      9656	800030dc	0059f833	and	x16,x19,x5	 x19:0x00000001  x5:0x38fed735 x16=0x00000001
       96585000	      9657	800030e0	419907b3	sub	x15,x18,x25	 x18:0x00000000 x25:0x00000000 x15=0x00000000
       96595000	      9658	800030e4	001d6a63	bltu	x26,x1,800030f8	 x26:0xb2b8d962  x1:0x00000d76
       96605000	      9659	800030e8	dc3de613	ori	x12,x27,-573	 x27:0x80009f08 x12=0xffffffcb
       96615000	      9660	800030ec	00000013	addi	x0,x0,0	  x0:0x00000000
       96625000	      9661	800030f0	48618797	auipc	x15,0x48618	 x15=0xc861b0ec
       96635000	      9662	800030f4	408cd933	sra	x18,x25,x8	 x25:0x00000000  x8:0x80009fc4 x18=0x00000000
       96645000	      9663	800030f8	00000013	addi	x0,x0,0	  x0:0x00000000
       96655000	      9664	800030fc	e2988397	auipc	x7,0xe2988	  x7=0x6298b0f8
       96665000	      9665	80003100	08658863	beq	x11,x6,80003190	 x11:0x04fbd289  x6:0x04fbe73d
       96675000	      9666	80003104	09826463	bltu	x4,x24,8000318c	  x4:0x00000000 x24:0x47fd9000
       96685000	      9667	00000000	00000013	addi	x0,x0,0	  x0:0x00000000
       96695000	      9668	80003188	00000013	addi	x0,x0,0	  x0:0x00000000
       96705000	      9669	8000318c	00585513	srli	x10,x16,0x5	 x16:0x00000001 x10=0x00000000
       96715000	      9670	80003190	4192d333	sra	x6,x5,x25	  x5:0x38fed735 x25:0x00000000  x6=0x38fed735
       96725000	      9671	80003194	fbf16513	ori	x10,x2,-65	  x2:0x00000000 x10=0xffffffbf
       96735000	      9672	80003198	010294b3	sll	x9,x5,x16	  x5:0x38fed735 x16:0x00000001  x9=0x71fdae6a
       96745000	      9673	8000319c	017b4863	blt	x22,x23,800031ac	 x22:0x00000001 x23:0xb2b8e000
       96755000	      9674	800031a0	dbb0cd17	auipc	x26,0xdbb0c	 x26=0x5bb0f19c
       96765000	      9675	800031a4	bd047993	andi	x19,x8,-1072	  x8:0x80009fc4 x19=0x80009bc0
       96775000	      9676	800031a8	00a71133	sll	x2,x14,x10	 x14:0x00013ecc x10:0xffffffbf  x2=0x00000000
       96785000	      9677	800031ac	a6119297	auipc	x5,0xa6119	  x5=0x2611c1a8
       96795000	      9678	800031b0	00aa4cb3	xor	x25,x20,x10	 x20:0x38fed000 x10:0xffffffbf x25=0xc7012fbf
       96805000	      9679	800031b4	4c5f4f93	xori	x31,x30,1221	 x30:0x00000d77 x31=0x000009b2
       96815000	      9680	800031b8	00000013	addi	x0,x0,0	  x0:0x00000000
       96825000	      9681	800031bc	0024f233	and	x4,x9,x2	  x9:0x71fdae6a  x2:0x00000000  x4=0x00000000
       96835000	      9682	800031c0	01f9fe33	and	x28,x19,x31	 x19:0x80009bc0 x31:0x000009b2 x28=0x00000980
       96845000	      9683	800031c4	40535f93	srai	x31,x6,0x5	  x6:0x38fed735 x31=0x01c7f6b9
       96855000	      9684	800031c8	0571d263	bge	x3,x23,8000320c	  x3:0xb2b8e000 x23:0xb2b8e000
       96865000	      9685	00000000	00000013	addi	x0,x0,0	  x0:0x00000000
       96875000	      9686	80003208	00000013	addi	x0,x0,0	  x0:0x00000000
       96885000	      9687	8000320c	03bb1263	bne	x22,x27,80003230	 x22:0x00000001 x27:0x80009f08
       96895000	      9688	00000000	00000013	addi	x0,x0,0	  x0:0x00000000
       96905000	      9689	8000322c	00000013	addi	x0,x0,0	  x0:0x00000000
       96915000	      9690	80003230	00ebeab3	or	x21,x23,x14	 x23:0xb2b8e000 x14:0x00013ecc x21=0xb2b9fecc
       96925000	      9691	80003234	27be8213	addi	x4,x29,635	 x29:0x00000000  x4=0x0000027b
       96935000	      9692	80003238	2167eb93	ori	x23,x15,534	 x15:0xc861b0ec x23=0xc861b2fe
       96945000	      9693	8000323c	c4087993	andi	x19,x16,-960	 x16:0x00000001 x19=0x00000000
       96955000	      9694	80003240	01bf4733	xor	x14,x30,x27	 x30:0x00000d77 x27:0x80009f08 x14=0x8000927f
       96965000	      9695	80003244	00217c33	and	x24,x2,x2	  x2:0x00000000  x2:0x00000000 x24=0x00000000
       96975000	      9696	80003248	0d1c3193	sltiu	x3,x24,209	 x24:0x00000000  x3=0x00000001
       96985000	      9697	8000324c	2cfec7b7	lui	x15,0x2cfec	 x15=0x2cfec000
       96995000	      9698	80003250	01e5c833	xor	x16,x11,x30	 x11:0x04fbd289 x30:0x00000d77 x16=0x04fbdffe
       97005000	      9699	80003254	75e44913	xori	x18,x8,1886	  x8:0x80009fc4 x18=0x8000989a
       97015000	      9700	80003258	38f56697	auipc	x13,0x38f56	 x13=0xb8f59254
       97025000	      9701	8000325c	004a9eb3	sll	x29,x21,x4	 x21:0xb2b9fecc  x4:0x0000027b x29=0x60000000
       97035000	      9702	80003260	019f7a33	and	x20,x30,x25	 x30:0x00000d77 x25:0xc7012fbf x20=0x00000d37
       97045000	      9703	80003264	018a1bb3	sll	x23,x20,x24	 x20:0x00000d37 x24:0x00000000 x23=0x00000d37
       97055000	      9704	80003268	00945e63	bge	x8,x9,80003284	  x8:0x80009fc4  x9:0x71fdae6a
       97065000	      9705	8000326c	00000013	addi	x0,x0,0	  x0:0x00000000
       97075000	      9706	80003270	025ce663	bltu	x25,x5,8000329c	 x25:0xc7012fbf  x5:0x2611c1a8
       97085000	      9707	80003274	00234cb3	xor	x25,x6,x2	  x6:0x38fed735  x2:0x00000000 x25=0x38fed735
       97095000	      9708	80003278	4161d693	srai	x13,x3,0x16	  x3:0x00000001 x13=0x00000000
       97105000	      9709	8000327c	00ee01b3	add	x3,x28,x14	 x28:0x00000980 x14:0x8000927f  x3=0x80009bff
       97115000	      9710	80003280	01aae2b3	or	x5,x21,x26	 x21:0xb2b9fecc x26:0x5bb0f19c  x5=0xfbb9ffdc
       97125000	      9711	80003284	00ef6cb3	or	x25,x30,x14	 x30:0x00000d77 x14:0x8000927f x25=0x80009f7f
       97135000	      9712	80003288	01468833	add	x16,x13,x20	 x13:0x00000000 x20:0x00000d37 x16=0x00000d37
       97145000	      9713	8000328c	41e05013	srai	x0,x0,0x1e	  x0:0x00000000
       97155000	      9714	80003290	00e2dfb3	srl	x31,x5,x14	  x5:0xfbb9ffdc x14:0x8000927f x31=0x00000001
       97165000	      9715	80003294	05251263	bne	x10,x18,800032d8	 x10:0xffffffbf x18:0x8000989a
       97175000	      9716	00000000	00000013	addi	x0,x0,0	  x0:0x00000000
       97185000	      9717	800032d4	00000013	addi	x0,x0,0	  x0:0x00000000
       97195000	      9718	800032d8	018ac2b3	xor	x5,x21,x24	 x21:0xb2b9fecc x24:0x00000000  x5=0xb2b9fecc
       97205000	      9719	800032dc	2458fe37	lui	x28,0x2458f	 x28=0x2458f000
       97215000	      9720	800032e0	00961813	slli	x16,x12,0x9	 x12:0xffffffcb x16=0xffff9600
       97225000	      9721	800032e4	81bd8093	addi	x1,x27,-2021	 x27:0x80009f08  x1=0x80009723
       97235000	      9722	800032e8	0123f863	bgeu	x7,x18,800032f8	  x7:0x6298b0f8 x18:0x8000989a
       97245000	      9723	800032ec	0d047793	andi	x15,x8,208	  x8:0x80009fc4 x15=0x000000c0
       97255000	      9724	800032f0	01e15cb3	srl	x25,x2,x30	  x2:0x00000000 x30:0x00000d77 x25=0x00000000
       97265000	      9725	800032f4	0379d863	bge	x19,x23,80003324	 x19:0x00000000 x23:0x00000d37
       97275000	      9726	800032f8	000d5a33	srl	x20,x26,x0	 x26:0x5bb0f19c  x0:0x00000000 x20=0x5bb0f19c
       97285000	      9727	800032fc	014ec333	xor	x6,x29,x20	 x29:0x60000000 x20:0x5bb0f19c  x6=0x3bb0f19c
       97295000	      9728	80003300	5b380017	auipc	x0,0x5b380	
       97305000	      9729	80003304	086bc097	auipc	x1,0x86bc	  x1=0x886bf300
       97315000	      9730	80003308	003edab3	srl	x21,x29,x3	 x29:0x60000000  x3:0x80009bff x21=0x00000000
       97325000	      9731	8000330c	400e5313	srai	x6,x28,0x0	 x28:0x2458f000  x6=0x2458f000
       97335000	      9732	80003310	01bd1663	bne	x26,x27,8000331c	 x26:0x5bb0f19c x27:0x80009f08
       97345000	      9733	00000000	00000013	addi	x0,x0,0	  x0:0x00000000
       97355000	      9734	80003318	00000013	addi	x0,x0,0	  x0:0x00000000
       97365000	      9735	8000331c	00da0ab3	add	x21,x20,x13	 x20:0x5bb0f19c x13:0x00000000 x21=0x5bb0f19c
       97375000	      9736	80003320	00e6c5b3	xor	x11,x13,x14	 x13:0x00000000 x14:0x8000927f x11=0x8000927f
       97385000	      9737	80003324	0097c9b3	xor	x19,x15,x9	 x15:0x000000c0  x9:0x71fdae6a x19=0x71fdaeaa
       97395000	      9738	80003328	93c24513	xori	x10,x4,-1732	  x4:0x0000027b x10=0xfffffb47
       97405000	      9739	8000332c	00e82ab3	slt	x21,x16,x14	 x16:0xffff9600 x14:0x8000927f x21=0x00000000
       97415000	      9740	80003330	00cbc3b3	xor	x7,x23,x12	 x23:0x00000d37 x12:0xffffffcb  x7=0xfffff2fc
       97425000	      9741	80003334	01cdb2b3	sltu	x5,x27,x28	 x27:0x80009f08 x28:0x2458f000  x5=0x00000000
       97435000	      9742	80003338	895e3237	lui	x4,0x895e3	  x4=0x895e3000
       97445000	      9743	8000333c	01d3f9b3	and	x19,x7,x29	  x7:0xfffff2fc x29:0x60000000 x19=0x60000000
       97455000	      9744	80003340	405c0333	sub	x6,x24,x5	 x24:0x00000000  x5:0x00000000  x6=0x00000000
       97465000	      9745	80003344	002afc33	and	x24,x21,x2	 x21:0x00000000  x2:0x00000000 x24=0x00000000
       97475000	      9746	80003348	4098d113	srai	x2,x17,0x9	 x17:0x0000000c  x2=0x00000000
       97485000	      9747	8000334c	2bceb593	sltiu	x11,x29,700	 x29:0x60000000 x11=0x00000000
       97495000	      9748	80003350	0133a933	slt	x18,x7,x19	  x7:0xfffff2fc x19:0x60000000 x18=0x00000001
       97505000	      9749	80003354	40b55c13	srai	x24,x10,0xb	 x10:0xfffffb47 x24=0xffffffff
       97515000	      9750	80003358	fe9e3293	sltiu	x5,x28,-23	 x28:0x2458f000  x5=0x00000001
       97525000	      9751	8000335c	015cf733	and	x14,x25,x21	 x25:0x00000000 x21:0x00000000 x14=0x00000000
       97535000	      9752	80003360	04b9c463	blt	x19,x11,800033a8	 x19:0x60000000 x11:0x00000000
       97545000	      9753	80003364	011c6e33	or	x28,x24,x17	 x24:0xffffffff x17:0x0000000c x28=0xffffffff
       97555000	      9754	80003368	00566333	or	x6,x12,x5	 x12:0xffffffcb  x5:0x00000001  x6=0xffffffcb
       97565000	      9755	8000336c	01a14eb3	xor	x29,x2,x26	  x2:0x00000000 x26:0x5bb0f19c x29=0x5bb0f19c
       97575000	      9756	80003370	0592e063	bltu	x5,x25,800033b0	  x5:0x00000001 x25:0x00000000
       97585000	      9757	80003374	01d80833	add	x16,x16,x29	 x16:0xffff9600 x29:0x5bb0f19c x16=0x5bb0879c
       97595000	      9758	80003378	02a44263	blt	x8,x10,8000339c	  x8:0x80009fc4 x10:0xfffffb47
       97605000	      9759	00000000	00000013	addi	x0,x0,0	  x0:0x00000000
       97615000	      9760	80003398	00000013	addi	x0,x0,0	  x0:0x00000000
       97625000	      9761	8000339c	013cca33	xor	x20,x25,x19	 x25:0x00000000 x19:0x60000000 x20=0x60000000
       97635000	      9762	800033a0	41b5d133	sra	x2,x11,x27	 x11:0x00000000 x27:0x80009f08  x2=0x00000000
       97645000	      9763	800033a4	eb82a093	slti	x1,x5,-328	  x5:0x00000001  x1=0x00000000
       97655000	      9764	800033a8	05a6c063	blt	x13,x26,800033e8	 x13:0x00000000 x26:0x5bb0f19c
       97665000	      9765	00000000	00000013	addi	x0,x0,0	  x0:0x00000000
       97675000	      9766	800033e4	00000013	addi	x0,x0,0	  x0:0x00000000
       97685000	      9767	800033e8	00074933	xor	x18,x14,x0	 x14:0x00000000  x0:0x00000000 x18=0x00000000
       97695000	      9768	800033ec	0112be33	sltu	x28,x5,x17	  x5:0x00000001 x17:0x0000000c x28=0x00000001
       97705000	      9769	800033f0	f713f393	andi	x7,x7,-143	  x7:0xfffff2fc  x7=0xfffff270
       97715000	      9770	800033f4	042b8063	beq	x23,x2,80003434	 x23:0x00000d37  x2:0x00000000
       97725000	      9771	800033f8	f7733b13	sltiu	x22,x6,-137	  x6:0xffffffcb x22=0x00000000
       97735000	      9772	800033fc	01473833	sltu	x16,x14,x20	 x14:0x00000000 x20:0x60000000 x16=0x00000001
       97745000	      9773	80003400	01219863	bne	x3,x18,80003410	  x3:0x80009bff x18:0x00000000
       97755000	      9774	00000000	00000013	addi	x0,x0,0	  x0:0x00000000
       97765000	      9775	8000340c	00000013	addi	x0,x0,0	  x0:0x00000000
       97775000	      9776	80003410	40ffd933	sra	x18,x31,x15	 x31:0x00000001 x15:0x000000c0 x18=0x00000001
       97785000	      9777	80003414	011aa6b3	slt	x13,x21,x17	 x21:0x00000000 x17:0x0000000c x13=0x00000001
       97795000	      9778	80003418	00d86c33	or	x24,x16,x13	 x16:0x00000001 x13:0x00000001 x24=0x00000001
       97805000	      9779	8000341c	133f4b13	xori	x22,x30,307	 x30:0x00000d77 x22=0x00000c44
       97815000	      9780	80003420	5c274513	xori	x10,x14,1474	 x14:0x00000000 x10=0x000005c2
       97825000	      9781	80003424	03b9ca63	blt	x19,x27,80003458	 x19:0x60000000 x27:0x80009f08
       97835000	      9782	80003428	000ade33	srl	x28,x21,x0	 x21:0x00000000  x0:0x00000000 x28=0x00000000
       97845000	      9783	8000342c	c58f8613	addi	x12,x31,-936	 x31:0x00000001 x12=0xfffffc59
       97855000	      9784	80003430	40af8e33	sub	x28,x31,x10	 x31:0x00000001 x10:0x000005c2 x28=0xfffffa3f
       97865000	      9785	80003434	0056b933	sltu	x18,x13,x5	 x13:0x00000001  x5:0x00000001 x18=0x00000000
       97875000	      9786	80003438	05e1e463	bltu	x3,x30,80003480	  x3:0x80009bff x30:0x00000d77
       97885000	      9787	8000343c	00440a63	beq	x8,x4,80003450	  x8:0x80009fc4  x4:0x895e3000
       97895000	      9788	80003440	2bc2ee17	auipc	x28,0x2bc2e	 x28=0xabc3143c
       97905000	      9789	80003444	a096ee13	ori	x28,x13,-1527	 x13:0x00000001 x28=0xfffffa09
       97915000	      9790	80003448	00bed513	srli	x10,x29,0xb	 x29:0x5bb0f19c x10=0x000b761e
       97925000	      9791	8000344c	039e0a63	beq	x28,x25,80003480	 x28:0xfffffa09 x25:0x00000000
       97935000	      9792	80003450	4002de33	sra	x28,x5,x0	  x5:0x00000001  x0:0x00000000 x28=0x00000001
       97945000	      9793	80003454	05f55863	bge	x10,x31,800034a4	 x10:0x000b761e x31:0x00000001
       97955000	      9794	00000000	00000013	addi	x0,x0,0	  x0:0x00000000
       97965000	      9795	800034a0	00000013	addi	x0,x0,0	  x0:0x00000000
       97975000	      9796	800034a4	9a4b7613	andi	x12,x22,-1628	 x22:0x00000c44 x12=0x00000804
       97985000	      9797	800034a8	aeb42693	slti	x13,x8,-1301	  x8:0x80009fc4 x13=0x00000001
       97995000	      9798	800034ac	05a57263	bgeu	x10,x26,800034f0	 x10:0x000b761e x26:0x5bb0f19c
       98005000	      9799	800034b0	07e02513	slti	x10,x0,126	  x0:0x00000000 x10=0x00000001
       98015000	      9800	800034b4	01ead693	srli	x13,x21,0x1e	 x21:0x00000000 x13=0x00000000
       98025000	      9801	800034b8	040c5663	bge	x24,x0,80003504	 x24:0x00000001  x0:0x00000000
       98035000	      9802	00000000	00000013	addi	x0,x0,0	  x0:0x00000000
       98045000	      9803	80003500	00000013	addi	x0,x0,0	  x0:0x00000000
       98055000	      9804	80003504	4073dbb3	sra	x23,x7,x7	  x7:0xfffff270  x7:0xfffff270 x23=0xffffffff
       98065000	      9805	80003508	02a9d863	bge	x19,x10,80003538	 x19:0x60000000 x10:0x00000001
       98075000	      9806	00000000	00000013	addi	x0,x0,0	  x0:0x00000000
       98085000	      9807	80003534	00000013	addi	x0,x0,0	  x0:0x00000000
       98095000	      9808	80003538	004a5e33	srl	x28,x20,x4	 x20:0x60000000  x4:0x895e3000 x28=0x60000000
       98105000	      9809	8000353c	0330c663	blt	x1,x19,80003568	  x1:0x00000000 x19:0x60000000
       98115000	      9810	00000000	00000013	addi	x0,x0,0	  x0:0x00000000
       98125000	      9811	80003564	00000013	addi	x0,x0,0	  x0:0x00000000
       98135000	      9812	80003568	00aa63b3	or	x7,x20,x10	 x20:0x60000000 x10:0x00000001  x7=0x60000001
       98145000	      9813	8000356c	41e35d13	srai	x26,x6,0x1e	  x6:0xffffffcb x26=0xffffffff
       98155000	      9814	80003570	01f25e63	bge	x4,x31,8000358c	  x4:0x895e3000 x31:0x00000001
       98165000	      9815	80003574	008b20b3	slt	x1,x22,x8	 x22:0x00000c44  x8:0x80009fc4  x1=0x00000000
       98175000	      9816	80003578	00c8e333	or	x6,x17,x12	 x17:0x0000000c x12:0x00000804  x6=0x0000080c
       98185000	      9817	8000357c	1a23a917	auipc	x18,0x1a23a	 x18=0x9a23d578
       98195000	      9818	80003580	00cecbb3	xor	x23,x29,x12	 x29:0x5bb0f19c x12:0x00000804 x23=0x5bb0f998
       98205000	      9819	80003584	005f9993	slli	x19,x31,0x5	 x31:0x00000001 x19=0x00000020
       98215000	      9820	80003588	018ac6b3	xor	x13,x21,x24	 x21:0x00000000 x24:0x00000001 x13=0x00000001
       98225000	      9821	8000358c	8bbe8193	addi	x3,x29,-1861	 x29:0x5bb0f19c  x3=0x5bb0ea57
       98235000	      9822	80003590	0033deb3	srl	x29,x7,x3	  x7:0x60000001  x3:0x5bb0ea57 x29=0x000000c0
       98245000	      9823	80003594	f93e8493	addi	x9,x29,-109	 x29:0x000000c0  x9=0x00000053
       98255000	      9824	80003598	032a5263	bge	x20,x18,800035bc	 x20:0x60000000 x18:0x9a23d578
       98265000	      9825	00000000	00000013	addi	x0,x0,0	  x0:0x00000000
       98275000	      9826	800035b8	00000013	addi	x0,x0,0	  x0:0x00000000
       98285000	      9827	800035bc	487613b7	lui	x7,0x48761	  x7=0x48761000
       98295000	      9828	800035c0	01f2d1b3	srl	x3,x5,x31	  x5:0x00000001 x31:0x00000001  x3=0x00000000
       98305000	      9829	800035c4	02434863	blt	x6,x4,800035f4	  x6:0x0000080c  x4:0x895e3000
       98315000	      9830	800035c8	40508233	sub	x4,x1,x5	  x1:0x00000000  x5:0x00000001  x4=0xffffffff
       98325000	      9831	800035cc	022bc663	blt	x23,x2,800035f8	 x23:0x5bb0f998  x2:0x00000000
       98335000	      9832	800035d0	41568eb3	sub	x29,x13,x21	 x13:0x00000001 x21:0x00000000 x29=0x00000001
       98345000	      9833	800035d4	68b67493	andi	x9,x12,1675	 x12:0x00000804  x9=0x00000000
       98355000	      9834	800035d8	02cf8863	beq	x31,x12,80003608	 x31:0x00000001 x12:0x00000804
       98365000	      9835	800035dc	dfcb0993	addi	x19,x22,-516	 x22:0x00000c44 x19=0x00000a40
       98375000	      9836	800035e0	41dad493	srai	x9,x21,0x1d	 x21:0x00000000  x9=0x00000000
       98385000	      9837	800035e4	04c75263	bge	x14,x12,80003628	 x14:0x00000000 x12:0x00000804
       98395000	      9838	800035e8	0fdbaa13	slti	x20,x23,253	 x23:0x5bb0f998 x20=0x00000000
       98405000	      9839	800035ec	0348fe63	bgeu	x17,x20,80003628	 x17:0x0000000c x20:0x00000000
       98415000	      9840	00000000	00000013	addi	x0,x0,0	  x0:0x00000000
       98425000	      9841	80003624	00000013	addi	x0,x0,0	  x0:0x00000000
       98435000	      9842	80003628	82178193	addi	x3,x15,-2015	 x15:0x000000c0  x3=0xfffff8e1
       98445000	      9843	8000362c	411cde93	srai	x29,x25,0x11	 x25:0x00000000 x29=0x00000000
       98455000	      9844	80003630	00edd313	srli	x6,x27,0xe	 x27:0x80009f08  x6=0x00020002
       98465000	      9845	80003634	000c5f33	srl	x30,x24,x0	 x24:0x00000001  x0:0x00000000 x30=0x00000001
       98475000	      9846	80003638	00000013	addi	x0,x0,0	  x0:0x00000000
       98485000	      9847	8000363c	01faa533	slt	x10,x21,x31	 x21:0x00000000 x31:0x00000001 x10=0x00000001
       98495000	      9848	80003640	47baa493	slti	x9,x21,1147	 x21:0x00000000  x9=0x00000001
       98505000	      9849	80003644	75857813	andi	x16,x10,1880	 x10:0x00000001 x16=0x00000000
       98515000	      9850	80003648	387e41b7	lui	x3,0x387e4	  x3=0x387e4000
       98525000	      9851	8000364c	00c7d4b3	srl	x9,x15,x12	 x15:0x000000c0 x12:0x00000804  x9=0x0000000c
       98535000	      9852	80003650	03c5ea63	bltu	x11,x28,80003684	 x11:0x00000000 x28:0x60000000
       98545000	      9853	00000000	00000013	addi	x0,x0,0	  x0:0x00000000
       98555000	      9854	80003680	00000013	addi	x0,x0,0	  x0:0x00000000
       98565000	      9855	80003684	01bb4633	xor	x12,x22,x27	 x22:0x00000c44 x27:0x80009f08 x12=0x8000934c
       98575000	      9856	80003688	415286b3	sub	x13,x5,x21	  x5:0x00000001 x21:0x00000000 x13=0x00000001
       98585000	      9857	8000368c	41710733	sub	x14,x2,x23	  x2:0x00000000 x23:0x5bb0f998 x14=0xa44f0668
       98595000	      9858	80003690	00e27663	bgeu	x4,x14,8000369c	  x4:0xffffffff x14:0xa44f0668
       98605000	      9859	00000000	00000013	addi	x0,x0,0	  x0:0x00000000
       98615000	      9860	80003698	00000013	addi	x0,x0,0	  x0:0x00000000
       98625000	      9861	8000369c	015fb013	sltiu	x0,x31,21	 x31:0x00000001
       98635000	      9862	800036a0	77bd42b7	lui	x5,0x77bd4	  x5=0x77bd4000
       98645000	      9863	800036a4	d06e3997	auipc	x19,0xd06e3	 x19=0x506e66a0
       98655000	      9864	800036a8	01b79a13	slli	x20,x15,0x1b	 x15:0x000000c0 x20=0x00000000
       98665000	      9865	800036ac	00705813	srli	x16,x0,0x7	  x0:0x00000000 x16=0x00000000
       98675000	      9866	800036b0	415559b3	sra	x19,x10,x21	 x10:0x00000001 x21:0x00000000 x19=0x00000001
       98685000	      9867	800036b4	00481633	sll	x12,x16,x4	 x16:0x00000000  x4:0xffffffff x12=0x00000000
       98695000	      9868	800036b8	0044c2b3	xor	x5,x9,x4	  x9:0x0000000c  x4:0xffffffff  x5=0xfffffff3
       98705000	      9869	800036bc	819de6b7	lui	x13,0x819de	 x13=0x819de000
       98715000	      9870	800036c0	008c72b3	and	x5,x24,x8	 x24:0x00000001  x8:0x80009fc4  x5=0x00000000
       98725000	      9871	800036c4	01c78233	add	x4,x15,x28	 x15:0x000000c0 x28:0x60000000  x4=0x600000c0
       98735000	      9872	800036c8	41aa5bb3	sra	x23,x20,x26	 x20:0x00000000 x26:0xffffffff x23=0x00000000
       98745000	      9873	800036cc	41b080b3	sub	x1,x1,x27	  x1:0x00000000 x27:0x80009f08  x1=0x7fff60f8
       98755000	      9874	800036d0	01ed73b3	and	x7,x26,x30	 x26:0xffffffff x30:0x00000001  x7=0x00000001
       98765000	      9875	800036d4	b6b04613	xori	x12,x0,-1173	  x0:0x00000000 x12=0xfffffb6b
       98775000	      9876	800036d8	01aa15b3	sll	x11,x20,x26	 x20:0x00000000 x26:0xffffffff x11=0x00000000
       98785000	      9877	800036dc	2bfe0993	addi	x19,x28,703	 x28:0x60000000 x19=0x600002bf
       98795000	      9878	800036e0	001e3c33	sltu	x24,x28,x1	 x28:0x60000000  x1:0x7fff60f8 x24=0x00000001
       98805000	      9879	800036e4	94dda113	slti	x2,x27,-1715	 x27:0x80009f08  x2=0x00000001
       98815000	      9880	800036e8	41f75c93	srai	x25,x14,0x1f	 x14:0xa44f0668 x25=0xffffffff
       98825000	      9881	800036ec	03669a63	bne	x13,x22,80003720	 x13:0x819de000 x22:0x00000c44
       98835000	      9882	00000000	00000013	addi	x0,x0,0	  x0:0x00000000
       98845000	      9883	8000371c	00000013	addi	x0,x0,0	  x0:0x00000000
       98855000	      9884	80003720	0180e3b3	or	x7,x1,x24	  x1:0x7fff60f8 x24:0x00000001  x7=0x7fff60f9
       98865000	      9885	80003724	00dfe6b3	or	x13,x31,x13	 x31:0x00000001 x13:0x819de000 x13=0x819de001
       98875000	      9886	80003728	00b1d5b3	srl	x11,x3,x11	  x3:0x387e4000 x11:0x00000000 x11=0x387e4000
       98885000	      9887	8000372c	8d576613	ori	x12,x14,-1835	 x14:0xa44f0668 x12=0xfffffefd
       98895000	      9888	80003730	00000013	addi	x0,x0,0	  x0:0x00000000
       98905000	      9889	80003734	011df663	bgeu	x27,x17,80003740	 x27:0x80009f08 x17:0x0000000c
       98915000	      9890	00000000	00000013	addi	x0,x0,0	  x0:0x00000000
       98925000	      9891	8000373c	00000013	addi	x0,x0,0	  x0:0x00000000
       98935000	      9892	80003740	67aaa593	slti	x11,x21,1658	 x21:0x00000000 x11=0x00000001
       98945000	      9893	80003744	012bf263	bgeu	x23,x18,80003748	 x23:0x00000000 x18:0x9a23d578
       98955000	      9894	80003748	01d25d33	srl	x26,x4,x29	  x4:0x600000c0 x29:0x00000000 x26=0x600000c0
       98965000	      9895	8000374c	b6d3fc13	andi	x24,x7,-1171	  x7:0x7fff60f9 x24=0x7fff6069
       98975000	      9896	80003750	23ebecb7	lui	x25,0x23ebe	 x25=0x23ebe000
       98985000	      9897	80003754	003cdeb3	srl	x29,x25,x3	 x25:0x23ebe000  x3:0x387e4000 x29=0x23ebe000
       98995000	      9898	80003758	01756533	or	x10,x10,x23	 x10:0x00000001 x23:0x00000000 x10=0x00000001
       99005000	      9899	8000375c	9644cab7	lui	x21,0x9644c	 x21=0x9644c000
       99015000	      9900	80003760	010e6333	or	x6,x28,x16	 x28:0x60000000 x16:0x00000000  x6=0x60000000
       99025000	      9901	80003764	01723133	sltu	x2,x4,x23	  x4:0x600000c0 x23:0x00000000  x2=0x00000000
       99035000	      9902	80003768	018aa7b3	slt	x15,x21,x24	 x21:0x9644c000 x24:0x7fff6069 x15=0x00000001
       99045000	      9903	8000376c	0115df33	srl	x30,x11,x17	 x11:0x00000001 x17:0x0000000c x30=0x00000000
       99055000	      9904	80003770	5ffdb397	auipc	x7,0x5ffdb	  x7=0xdffde76c
       99065000	      9905	80003774	001d4fb3	xor	x31,x26,x1	 x26:0x600000c0  x1:0x7fff60f8 x31=0x1fff6038
       99075000	      9906	80003778	04da4863	blt	x20,x13,800037c8	 x20:0x00000000 x13:0x819de001
       99085000	      9907	8000377c	00a17a63	bgeu	x2,x10,80003790	  x2:0x00000000 x10:0x00000001
       99095000	      9908	80003780	49502813	slti	x16,x0,1173	  x0:0x00000000 x16=0x00000001
       99105000	      9909	80003784	4047d0b3	sra	x1,x15,x4	 x15:0x00000001  x4:0x600000c0  x1=0x00000001
       99115000	      9910	80003788	00f39193	slli	x3,x7,0xf	  x7:0xdffde76c  x3=0xf3b60000
       99125000	      9911	8000378c	467cfe13	andi	x28,x25,1127	 x25:0x23ebe000 x28=0x00000000
       99135000	      9912	80003790	05034463	blt	x6,x16,800037d8	  x6:0x60000000 x16:0x00000001
       99145000	      9913	80003794	00cfc093	xori	x1,x31,12	 x31:0x1fff6038  x1=0x1fff6034
       99155000	      9914	80003798	0331f663	bgeu	x3,x19,800037c4	  x3:0xf3b60000 x19:0x600002bf
       99165000	      9915	00000000	00000013	addi	x0,x0,0	  x0:0x00000000
       99175000	      9916	800037c0	00000013	addi	x0,x0,0	  x0:0x00000000
       99185000	      9917	800037c4	9fd9d317	auipc	x6,0x9fd9d	  x6=0x1fda07c0
       99195000	      9918	800037c8	00729cb3	sll	x25,x5,x7	  x5:0x00000000  x7:0xdffde76c x25=0x00000000
       99205000	      9919	800037cc	eead8613	addi	x12,x27,-278	 x27:0x80009f08 x12=0x80009df2
       99215000	      9920	800037d0	573c3a93	sltiu	x21,x24,1395	 x24:0x7fff6069 x21=0x00000000
       99225000	      9921	800037d4	41410eb3	sub	x29,x2,x20	  x2:0x00000000 x20:0x00000000 x29=0x00000000
       99235000	      9922	800037d8	10063f37	lui	x30,0x10063	 x30=0x10063000
       99245000	      9923	800037dc	00000013	addi	x0,x0,0	  x0:0x00000000
       99255000	      9924	800037e0	98fee597	auipc	x11,0x98fee	 x11=0x18ff17dc
       99265000	      9925	800037e4	55f8e493	ori	x9,x17,1375	 x17:0x0000000c  x9=0x0000055f
       99275000	      9926	800037e8	00000013	addi	x0,x0,0	  x0:0x00000000
       99285000	      9927	800037ec	015f7fb3	and	x31,x30,x21	 x30:0x10063000 x21:0x00000000 x31=0x00000000
       99295000	      9928	800037f0	875d4613	xori	x12,x26,-1931	 x26:0x600000c0 x12=0x9ffff8b5
       99305000	      9929	800037f4	01190e33	add	x28,x18,x17	 x18:0x9a23d578 x17:0x0000000c x28=0x9a23d584
       99315000	      9930	800037f8	2a9e2993	slti	x19,x28,681	 x28:0x9a23d584 x19=0x00000001
       99325000	      9931	800037fc	003df863	bgeu	x27,x3,8000380c	 x27:0x80009f08  x3:0xf3b60000
       99335000	      9932	80003800	00000013	addi	x0,x0,0	  x0:0x00000000
       99345000	      9933	80003804	00000013	addi	x0,x0,0	  x0:0x00000000
       99355000	      9934	80003808	056c7063	bgeu	x24,x22,80003848	 x24:0x7fff6069 x22:0x00000c44
       99365000	      9935	00000000	00000013	addi	x0,x0,0	  x0:0x00000000
       99375000	      9936	80003844	00000013	addi	x0,x0,0	  x0:0x00000000
       99385000	      9937	80003848	cbad4193	xori	x3,x26,-838	 x26:0x600000c0  x3=0x9ffffc7a
       99395000	      9938	8000384c	020d6863	bltu	x26,x0,8000387c	 x26:0x600000c0  x0:0x00000000
       99405000	      9939	80003850	8e85ef93	ori	x31,x11,-1816	 x11:0x18ff17dc x31=0xfffffffc
       99415000	      9940	80003854	05589263	bne	x17,x21,80003898	 x17:0x0000000c x21:0x00000000
       99425000	      9941	00000000	00000013	addi	x0,x0,0	  x0:0x00000000
       99435000	      9942	80003894	00000013	addi	x0,x0,0	  x0:0x00000000
       99445000	      9943	80003898	01a3c3b3	xor	x7,x7,x26	  x7:0xdffde76c x26:0x600000c0  x7=0xbffde7ac
       99455000	      9944	8000389c	0b50b637	lui	x12,0xb50b	 x12=0x0b50b000
       99465000	      9945	800038a0	022b7863	bgeu	x22,x2,800038d0	 x22:0x00000c44  x2:0x00000000
       99475000	      9946	00000000	00000013	addi	x0,x0,0	  x0:0x00000000
       99485000	      9947	800038cc	00000013	addi	x0,x0,0	  x0:0x00000000
       99495000	      9948	800038d0	01574e63	blt	x14,x21,800038ec	 x14:0xa44f0668 x21:0x00000000
       99505000	      9949	00000000	00000013	addi	x0,x0,0	  x0:0x00000000
       99515000	      9950	800038e8	00000013	addi	x0,x0,0	  x0:0x00000000
       99525000	      9951	800038ec	fd492a93	slti	x21,x18,-44	 x18:0x9a23d578 x21=0x00000001
       99535000	      9952	800038f0	b89ff993	andi	x19,x31,-1143	 x31:0xfffffffc x19=0xfffffb88
       99545000	      9953	800038f4	004da083	lw	x1,4(x27)	 x27:0x80009f08  x1=0x80003984 PA:0x80009f0c
       99555000	      9954	800038f8	0c69e713	ori	x14,x19,198	 x19:0xfffffb88 x14=0xfffffbce
       99565000	      9955	800038fc	011fc5b3	xor	x11,x31,x17	 x31:0xfffffffc x17:0x0000000c x11=0xfffffff0
       99575000	      9956	80003900	00000013	addi	x0,x0,0	  x0:0x00000000
       99585000	      9957	80003904	015a8e33	add	x28,x21,x21	 x21:0x00000001 x21:0x00000001 x28=0x00000002
       99595000	      9958	80003908	047659b7	lui	x19,0x4765	 x19=0x04765000
       99605000	      9959	8000390c	00cd8d93	addi	x27,x27,12	 x27:0x80009f08 x27=0x80009f14
       99615000	      9960	80003910	01385b33	srl	x22,x16,x19	 x16:0x00000001 x19:0x04765000 x22=0x00000001
       99625000	      9961	80003914	011f5993	srli	x19,x30,0x11	 x30:0x10063000 x19=0x00000803
       99635000	      9962	80003918	ec216213	ori	x4,x2,-318	  x2:0x00000000  x4=0xfffffec2
       99645000	      9963	8000391c	0020d493	srli	x9,x1,0x2	  x1:0x80003984  x9=0x20000e61
       99655000	      9964	80003920	00108613	addi	x12,x1,1	  x1:0x80003984 x12=0x80003985
       99665000	      9965	80003924	00060667	jalr	x12,x12,0	 x12:0x80003985 x12=0x80003924
       99675000	      9966	00000000	00000013	addi	x0,x0,0	  x0:0x00000000
       99685000	      9967	80003984	00000013	addi	x0,x0,0	  x0:0x00000000
       99695000	      9968	80003988	00c000ef	jal	x1,80003988	  x1=0x80003988
       99705000	      9969	00000000	00000013	addi	x0,x0,0	  x0:0x00000000
       99715000	      9970	80003990	00000013	addi	x0,x0,0	  x0:0x00000000
       99725000	      9971	80003994	030000ef	jal	x1,80003994	  x1=0x80003994
       99735000	      9972	00000000	00000013	addi	x0,x0,0	  x0:0x00000000
       99745000	      9973	800039c0	00000013	addi	x0,x0,0	  x0:0x00000000
       99755000	      9974	800039c4	ff5ff26f	jal	x4,800039c4	  x4=0x800039c4
       99765000	      9975	00000000	00000013	addi	x0,x0,0	  x0:0x00000000
       99775000	      9976	800039b4	00000013	addi	x0,x0,0	  x0:0x00000000
       99785000	      9977	800039b8	01000b6f	jal	x22,800039b8	 x22=0x800039b8
       99795000	      9978	00000000	00000013	addi	x0,x0,0	  x0:0x00000000
       99805000	      9979	800039c4	00000013	addi	x0,x0,0	  x0:0x00000000
       99815000	      9980	800039c8	fe9fff6f	jal	x30,800039c8	 x30=0x800039c8
       99825000	      9981	00000000	00000013	addi	x0,x0,0	  x0:0x00000000
       99835000	      9982	800039ac	00000013	addi	x0,x0,0	  x0:0x00000000
       99845000	      9983	800039b0	fe1ffa6f	jal	x20,800039b0	 x20=0x800039b0
       99855000	      9984	00000000	00000013	addi	x0,x0,0	  x0:0x00000000
       99865000	      9985	8000398c	00000013	addi	x0,x0,0	  x0:0x00000000
       99875000	      9986	80003990	02c0026f	jal	x4,80003990	  x4=0x80003990
       99885000	      9987	00000000	00000013	addi	x0,x0,0	  x0:0x00000000
       99895000	      9988	800039b8	00000013	addi	x0,x0,0	  x0:0x00000000
       99905000	      9989	800039bc	fe9ff0ef	jal	x1,800039bc	  x1=0x800039bc
       99915000	      9990	00000000	00000013	addi	x0,x0,0	  x0:0x00000000
       99925000	      9991	800039a0	00000013	addi	x0,x0,0	  x0:0x00000000
       99935000	      9992	800039a4	fe9ff36f	jal	x6,800039a4	  x6=0x800039a4
       99945000	      9993	00000000	00000013	addi	x0,x0,0	  x0:0x00000000
       99955000	      9994	80003988	00000013	addi	x0,x0,0	  x0:0x00000000
       99965000	      9995	8000398c	0200036f	jal	x6,8000398c	  x6=0x8000398c
       99975000	      9996	00000000	00000013	addi	x0,x0,0	  x0:0x00000000
       99985000	      9997	800039a8	00000013	addi	x0,x0,0	  x0:0x00000000
       99995000	      9998	800039ac	03c0036f	jal	x6,800039ac	  x6=0x800039ac
      100005000	      9999	00000000	00000013	addi	x0,x0,0	  x0:0x00000000
      100015000	     10000	800039e4	00000013	addi	x0,x0,0	  x0:0x00000000
      100025000	     10001	800039e8	fd9ff36f	jal	x6,800039e8	  x6=0x800039e8
      100035000	     10002	00000000	00000013	addi	x0,x0,0	  x0:0x00000000
      100045000	     10003	800039bc	00000013	addi	x0,x0,0	  x0:0x00000000
      100055000	     10004	800039c0	018000ef	jal	x1,800039c0	  x1=0x800039c0
      100065000	     10005	00000000	00000013	addi	x0,x0,0	  x0:0x00000000
      100075000	     10006	800039d4	00000013	addi	x0,x0,0	  x0:0x00000000
      100085000	     10007	800039d8	fd1ff1ef	jal	x3,800039d8	  x3=0x800039d8
      100095000	     10008	00000000	00000013	addi	x0,x0,0	  x0:0x00000000
      100105000	     10009	800039a4	00000013	addi	x0,x0,0	  x0:0x00000000
      100115000	     10010	800039a8	ff5ff36f	jal	x6,800039a8	  x6=0x800039a8
      100125000	     10011	00000000	00000013	addi	x0,x0,0	  x0:0x00000000
      100135000	     10012	80003998	00000013	addi	x0,x0,0	  x0:0x00000000
      100145000	     10013	8000399c	048000ef	jal	x1,8000399c	  x1=0x8000399c
      100155000	     10014	00000000	00000013	addi	x0,x0,0	  x0:0x00000000
      100165000	     10015	800039e0	00000013	addi	x0,x0,0	  x0:0x00000000
      100175000	     10016	800039e4	fbdff0ef	jal	x1,800039e4	  x1=0x800039e4
      100185000	     10017	00000000	00000013	addi	x0,x0,0	  x0:0x00000000
      100195000	     10018	8000399c	00000013	addi	x0,x0,0	  x0:0x00000000
      100205000	     10019	800039a0	03c0036f	jal	x6,800039a0	  x6=0x800039a0
      100215000	     10020	00000000	00000013	addi	x0,x0,0	  x0:0x00000000
      100225000	     10021	800039d8	00000013	addi	x0,x0,0	  x0:0x00000000
      100235000	     10022	800039dc	ff1ff36f	jal	x6,800039dc	  x6=0x800039dc
      100245000	     10023	00000000	00000013	addi	x0,x0,0	  x0:0x00000000
      100255000	     10024	800039c8	00000013	addi	x0,x0,0	  x0:0x00000000
      100265000	     10025	800039cc	0040036f	jal	x6,800039cc	  x6=0x800039cc
      100275000	     10026	00000000	00000013	addi	x0,x0,0	  x0:0x00000000
      100285000	     10027	800039cc	00000013	addi	x0,x0,0	  x0:0x00000000
      100295000	     10028	800039d0	fe5ff0ef	jal	x1,800039d0	  x1=0x800039d0
      100305000	     10029	00000000	00000013	addi	x0,x0,0	  x0:0x00000000
      100315000	     10030	800039b0	00000013	addi	x0,x0,0	  x0:0x00000000
      100325000	     10031	800039b4	020006ef	jal	x13,800039b4	 x13=0x800039b4
      100335000	     10032	00000000	00000013	addi	x0,x0,0	  x0:0x00000000
      100345000	     10033	800039d0	00000013	addi	x0,x0,0	  x0:0x00000000
      100355000	     10034	800039d4	00c000ef	jal	x1,800039d4	  x1=0x800039d4
      100365000	     10035	00000000	00000013	addi	x0,x0,0	  x0:0x00000000
      100375000	     10036	800039dc	00000013	addi	x0,x0,0	  x0:0x00000000
      100385000	     10037	800039e0	fb9ff0ef	jal	x1,800039e0	  x1=0x800039e0
      100395000	     10038	00000000	00000013	addi	x0,x0,0	  x0:0x00000000
      100405000	     10039	80003994	00000013	addi	x0,x0,0	  x0:0x00000000
      100415000	     10040	80003998	0540036f	jal	x6,80003998	  x6=0x80003998
      100425000	     10041	00000000	00000013	addi	x0,x0,0	  x0:0x00000000
      100435000	     10042	800039e8	00000013	addi	x0,x0,0	  x0:0x00000000
      100445000	     10043	800039ec	15eff313	andi	x6,x31,350	 x31:0xfffffffc  x6=0x0000015c
      100455000	     10044	800039f0	024000ef	jal	x1,800039f0	  x1=0x800039f0
      100465000	     10045	00000000	00000013	addi	x0,x0,0	  x0:0x00000000
      100475000	     10046	80003a10	00000013	addi	x0,x0,0	  x0:0x00000000
      100485000	     10047	80003a14	02c0036f	jal	x6,80003a14	  x6=0x80003a14
      100495000	     10048	00000000	00000013	addi	x0,x0,0	  x0:0x00000000
      100505000	     10049	80003a3c	00000013	addi	x0,x0,0	  x0:0x00000000
      100515000	     10050	80003a40	fc1ff0ef	jal	x1,80003a40	  x1=0x80003a40
      100525000	     10051	00000000	00000013	addi	x0,x0,0	  x0:0x00000000
      100535000	     10052	800039fc	00000013	addi	x0,x0,0	  x0:0x00000000
      100545000	     10053	80003a00	020000ef	jal	x1,80003a00	  x1=0x80003a00
      100555000	     10054	00000000	00000013	addi	x0,x0,0	  x0:0x00000000
      100565000	     10055	80003a1c	00000013	addi	x0,x0,0	  x0:0x00000000
      100575000	     10056	80003a20	024000ef	jal	x1,80003a20	  x1=0x80003a20
      100585000	     10057	00000000	00000013	addi	x0,x0,0	  x0:0x00000000
      100595000	     10058	80003a40	00000013	addi	x0,x0,0	  x0:0x00000000
      100605000	     10059	80003a44	fcdff0ef	jal	x1,80003a44	  x1=0x80003a44
      100615000	     10060	00000000	00000013	addi	x0,x0,0	  x0:0x00000000
      100625000	     10061	80003a0c	00000013	addi	x0,x0,0	  x0:0x00000000
      100635000	     10062	80003a10	fe5ff0ef	jal	x1,80003a10	  x1=0x80003a10
      100645000	     10063	00000000	00000013	addi	x0,x0,0	  x0:0x00000000
      100655000	     10064	800039f0	00000013	addi	x0,x0,0	  x0:0x00000000
      100665000	     10065	800039f4	058000ef	jal	x1,800039f4	  x1=0x800039f4
      100675000	     10066	00000000	00000013	addi	x0,x0,0	  x0:0x00000000
      100685000	     10067	80003a48	00000013	addi	x0,x0,0	  x0:0x00000000
      100695000	     10068	80003a4c	fddff0ef	jal	x1,80003a4c	  x1=0x80003a4c
      100705000	     10069	00000000	00000013	addi	x0,x0,0	  x0:0x00000000
      100715000	     10070	80003a24	00000013	addi	x0,x0,0	  x0:0x00000000
      100725000	     10071	80003a28	008000ef	jal	x1,80003a28	  x1=0x80003a28
      100735000	     10072	00000000	00000013	addi	x0,x0,0	  x0:0x00000000
      100745000	     10073	80003a2c	00000013	addi	x0,x0,0	  x0:0x00000000
      100755000	     10074	80003a30	fddff0ef	jal	x1,80003a30	  x1=0x80003a30
      100765000	     10075	00000000	00000013	addi	x0,x0,0	  x0:0x00000000
      100775000	     10076	80003a08	00000013	addi	x0,x0,0	  x0:0x00000000
      100785000	     10077	80003a0c	ff1ff0ef	jal	x1,80003a0c	  x1=0x80003a0c
      100795000	     10078	00000000	00000013	addi	x0,x0,0	  x0:0x00000000
      100805000	     10079	800039f8	00000013	addi	x0,x0,0	  x0:0x00000000
      100815000	     10080	800039fc	05400bef	jal	x23,800039fc	 x23=0x800039fc
      100825000	     10081	00000000	00000013	addi	x0,x0,0	  x0:0x00000000
      100835000	     10082	80003a4c	00000013	addi	x0,x0,0	  x0:0x00000000
      100845000	     10083	80003a50	ff9ff0ef	jal	x1,80003a50	  x1=0x80003a50
      100855000	     10084	00000000	00000013	addi	x0,x0,0	  x0:0x00000000
      100865000	     10085	80003a44	00000013	addi	x0,x0,0	  x0:0x00000000
      100875000	     10086	80003a48	fedff0ef	jal	x1,80003a48	  x1=0x80003a48
      100885000	     10087	00000000	00000013	addi	x0,x0,0	  x0:0x00000000
      100895000	     10088	80003a30	00000013	addi	x0,x0,0	  x0:0x00000000
      100905000	     10089	80003a34	fd1ff36f	jal	x6,80003a34	  x6=0x80003a34
      100915000	     10090	00000000	00000013	addi	x0,x0,0	  x0:0x00000000
      100925000	     10091	80003a00	00000013	addi	x0,x0,0	  x0:0x00000000
      100935000	     10092	80003a04	038002ef	jal	x5,80003a04	  x5=0x80003a04
      100945000	     10093	00000000	00000013	addi	x0,x0,0	  x0:0x00000000
      100955000	     10094	80003a38	00000013	addi	x0,x0,0	  x0:0x00000000
      100965000	     10095	80003a3c	fcdff86f	jal	x16,80003a3c	 x16=0x80003a3c
      100975000	     10096	00000000	00000013	addi	x0,x0,0	  x0:0x00000000
      100985000	     10097	80003a04	00000013	addi	x0,x0,0	  x0:0x00000000
      100995000	     10098	80003a08	014006ef	jal	x13,80003a08	 x13=0x80003a08
      101005000	     10099	00000000	00000013	addi	x0,x0,0	  x0:0x00000000
      101015000	     10100	80003a18	00000013	addi	x0,x0,0	  x0:0x00000000
      101025000	     10101	80003a1c	008000ef	jal	x1,80003a1c	  x1=0x80003a1c
      101035000	     10102	00000000	00000013	addi	x0,x0,0	  x0:0x00000000
      101045000	     10103	80003a20	00000013	addi	x0,x0,0	  x0:0x00000000
      101055000	     10104	80003a24	fd5ff0ef	jal	x1,80003a24	  x1=0x80003a24
      101065000	     10105	00000000	00000013	addi	x0,x0,0	  x0:0x00000000
      101075000	     10106	800039f4	00000013	addi	x0,x0,0	  x0:0x00000000
      101085000	     10107	800039f8	034000ef	jal	x1,800039f8	  x1=0x800039f8
      101095000	     10108	00000000	00000013	addi	x0,x0,0	  x0:0x00000000
      101105000	     10109	80003a28	00000013	addi	x0,x0,0	  x0:0x00000000
      101115000	     10110	80003a2c	00c000ef	jal	x1,80003a2c	  x1=0x80003a2c
      101125000	     10111	00000000	00000013	addi	x0,x0,0	  x0:0x00000000
      101135000	     10112	80003a34	00000013	addi	x0,x0,0	  x0:0x00000000
      101145000	     10113	80003a38	fe1ff0ef	jal	x1,80003a38	  x1=0x80003a38
      101155000	     10114	00000000	00000013	addi	x0,x0,0	  x0:0x00000000
      101165000	     10115	80003a14	00000013	addi	x0,x0,0	  x0:0x00000000
      101175000	     10116	80003a18	03c000ef	jal	x1,80003a18	  x1=0x80003a18
      101185000	     10117	00000000	00000013	addi	x0,x0,0	  x0:0x00000000
      101195000	     10118	80003a50	00000013	addi	x0,x0,0	  x0:0x00000000
      101205000	     10119	80003a54	00400b6f	jal	x22,80003a54	 x22=0x80003a54
      101215000	     10120	00000000	00000013	addi	x0,x0,0	  x0:0x00000000
      101225000	     10121	80003a54	00000013	addi	x0,x0,0	  x0:0x00000000
      101235000	     10122	80003a58	e16a7b93	andi	x23,x20,-490	 x20:0x800039b0 x23=0x80003810
      101245000	     10123	80003a5c	030000ef	jal	x1,80003a5c	  x1=0x80003a5c
      101255000	     10124	00000000	00000013	addi	x0,x0,0	  x0:0x00000000
      101265000	     10125	80003a88	00000013	addi	x0,x0,0	  x0:0x00000000
      101275000	     10126	80003a8c	02c000ef	jal	x1,80003a8c	  x1=0x80003a8c
      101285000	     10127	00000000	00000013	addi	x0,x0,0	  x0:0x00000000
      101295000	     10128	80003ab4	00000013	addi	x0,x0,0	  x0:0x00000000
      101305000	     10129	80003ab8	ff9ff36f	jal	x6,80003ab8	  x6=0x80003ab8
      101315000	     10130	00000000	00000013	addi	x0,x0,0	  x0:0x00000000
      101325000	     10131	80003aac	00000013	addi	x0,x0,0	  x0:0x00000000
      101335000	     10132	80003ab0	fd9ff36f	jal	x6,80003ab0	  x6=0x80003ab0
      101345000	     10133	00000000	00000013	addi	x0,x0,0	  x0:0x00000000
      101355000	     10134	80003a84	00000013	addi	x0,x0,0	  x0:0x00000000
      101365000	     10135	80003a88	008000ef	jal	x1,80003a88	  x1=0x80003a88
      101375000	     10136	00000000	00000013	addi	x0,x0,0	  x0:0x00000000
      101385000	     10137	80003a8c	00000013	addi	x0,x0,0	  x0:0x00000000
      101395000	     10138	80003a90	fedff0ef	jal	x1,80003a90	  x1=0x80003a90
      101405000	     10139	00000000	00000013	addi	x0,x0,0	  x0:0x00000000
      101415000	     10140	80003a78	00000013	addi	x0,x0,0	  x0:0x00000000
      101425000	     10141	80003a7c	0400066f	jal	x12,80003a7c	 x12=0x80003a7c
      101435000	     10142	00000000	00000013	addi	x0,x0,0	  x0:0x00000000
      101445000	     10143	80003ab8	00000013	addi	x0,x0,0	  x0:0x00000000
      101455000	     10144	80003abc	fd9ff0ef	jal	x1,80003abc	  x1=0x80003abc
      101465000	     10145	00000000	00000013	addi	x0,x0,0	  x0:0x00000000
      101475000	     10146	80003a90	00000013	addi	x0,x0,0	  x0:0x00000000
      101485000	     10147	80003a94	01000f6f	jal	x30,80003a94	 x30=0x80003a94
      101495000	     10148	00000000	00000013	addi	x0,x0,0	  x0:0x00000000
      101505000	     10149	80003aa0	00000013	addi	x0,x0,0	  x0:0x00000000
      101515000	     10150	80003aa4	fbdffeef	jal	x29,80003aa4	 x29=0x80003aa4
      101525000	     10151	00000000	00000013	addi	x0,x0,0	  x0:0x00000000
      101535000	     10152	80003a5c	00000013	addi	x0,x0,0	  x0:0x00000000
      101545000	     10153	80003a60	070000ef	jal	x1,80003a60	  x1=0x80003a60
      101555000	     10154	00000000	00000013	addi	x0,x0,0	  x0:0x00000000
      101565000	     10155	80003acc	00000013	addi	x0,x0,0	  x0:0x00000000
      101575000	     10156	80003ad0	fcdffaef	jal	x21,80003ad0	 x21=0x80003ad0
      101585000	     10157	00000000	00000013	addi	x0,x0,0	  x0:0x00000000
      101595000	     10158	80003a98	00000013	addi	x0,x0,0	  x0:0x00000000
      101605000	     10159	80003a9c	fd1ff36f	jal	x6,80003a9c	  x6=0x80003a9c
      101615000	     10160	00000000	00000013	addi	x0,x0,0	  x0:0x00000000
      101625000	     10161	80003a68	00000013	addi	x0,x0,0	  x0:0x00000000
      101635000	     10162	80003a6c	058000ef	jal	x1,80003a6c	  x1=0x80003a6c
      101645000	     10163	00000000	00000013	addi	x0,x0,0	  x0:0x00000000
      101655000	     10164	80003ac0	00000013	addi	x0,x0,0	  x0:0x00000000
      101665000	     10165	80003ac4	010002ef	jal	x5,80003ac4	  x5=0x80003ac4
      101675000	     10166	00000000	00000013	addi	x0,x0,0	  x0:0x00000000
      101685000	     10167	80003ad0	00000013	addi	x0,x0,0	  x0:0x00000000
      101695000	     10168	80003ad4	ff9ff0ef	jal	x1,80003ad4	  x1=0x80003ad4
      101705000	     10169	00000000	00000013	addi	x0,x0,0	  x0:0x00000000
      101715000	     10170	80003ac8	00000013	addi	x0,x0,0	  x0:0x00000000
      101725000	     10171	80003acc	ffdff16f	jal	x2,80003acc	  x2=0x80003acc
      101735000	     10172	00000000	00000013	addi	x0,x0,0	  x0:0x00000000
      101745000	     10173	80003ac4	00000013	addi	x0,x0,0	  x0:0x00000000
      101755000	     10174	80003ac8	fb9ff0ef	jal	x1,80003ac8	  x1=0x80003ac8
      101765000	     10175	00000000	00000013	addi	x0,x0,0	  x0:0x00000000
      101775000	     10176	80003a7c	00000013	addi	x0,x0,0	  x0:0x00000000
      101785000	     10177	80003a80	ff5ff0ef	jal	x1,80003a80	  x1=0x80003a80
      101795000	     10178	00000000	00000013	addi	x0,x0,0	  x0:0x00000000
      101805000	     10179	80003a70	00000013	addi	x0,x0,0	  x0:0x00000000
      101815000	     10180	80003a74	0040026f	jal	x4,80003a74	  x4=0x80003a74
      101825000	     10181	00000000	00000013	addi	x0,x0,0	  x0:0x00000000
      101835000	     10182	80003a74	00000013	addi	x0,x0,0	  x0:0x00000000
      101845000	     10183	80003a78	03c00fef	jal	x31,80003a78	 x31=0x80003a78
      101855000	     10184	00000000	00000013	addi	x0,x0,0	  x0:0x00000000
      101865000	     10185	80003ab0	00000013	addi	x0,x0,0	  x0:0x00000000
      101875000	     10186	80003ab4	fb5ff0ef	jal	x1,80003ab4	  x1=0x80003ab4
      101885000	     10187	00000000	00000013	addi	x0,x0,0	  x0:0x00000000
      101895000	     10188	80003a64	00000013	addi	x0,x0,0	  x0:0x00000000
      101905000	     10189	80003a68	0580036f	jal	x6,80003a68	  x6=0x80003a68
      101915000	     10190	00000000	00000013	addi	x0,x0,0	  x0:0x00000000
      101925000	     10191	80003abc	00000013	addi	x0,x0,0	  x0:0x00000000
      101935000	     10192	80003ac0	fb1ffeef	jal	x29,80003ac0	 x29=0x80003ac0
      101945000	     10193	00000000	00000013	addi	x0,x0,0	  x0:0x00000000
      101955000	     10194	80003a6c	00000013	addi	x0,x0,0	  x0:0x00000000
      101965000	     10195	80003a70	01400a6f	jal	x20,80003a70	 x20=0x80003a70
      101975000	     10196	00000000	00000013	addi	x0,x0,0	  x0:0x00000000
      101985000	     10197	80003a80	00000013	addi	x0,x0,0	  x0:0x00000000
      101995000	     10198	80003a84	fe1ff1ef	jal	x3,80003a84	  x3=0x80003a84
      102005000	     10199	00000000	00000013	addi	x0,x0,0	  x0:0x00000000
      102015000	     10200	80003a60	00000013	addi	x0,x0,0	  x0:0x00000000
      102025000	     10201	80003a64	044000ef	jal	x1,80003a64	  x1=0x80003a64
      102035000	     10202	00000000	00000013	addi	x0,x0,0	  x0:0x00000000
      102045000	     10203	80003aa4	00000013	addi	x0,x0,0	  x0:0x00000000
      102055000	     10204	80003aa8	ff9ff0ef	jal	x1,80003aa8	  x1=0x80003aa8
      102065000	     10205	00000000	00000013	addi	x0,x0,0	  x0:0x00000000
      102075000	     10206	80003a9c	00000013	addi	x0,x0,0	  x0:0x00000000
      102085000	     10207	80003aa0	ff9ff0ef	jal	x1,80003aa0	  x1=0x80003aa0
      102095000	     10208	00000000	00000013	addi	x0,x0,0	  x0:0x00000000
      102105000	     10209	80003a94	00000013	addi	x0,x0,0	  x0:0x00000000
      102115000	     10210	80003a98	014000ef	jal	x1,80003a98	  x1=0x80003a98
      102125000	     10211	00000000	00000013	addi	x0,x0,0	  x0:0x00000000
      102135000	     10212	80003aa8	00000013	addi	x0,x0,0	  x0:0x00000000
      102145000	     10213	80003aac	02c000ef	jal	x1,80003aac	  x1=0x80003aac
      102155000	     10214	00000000	00000013	addi	x0,x0,0	  x0:0x00000000
      102165000	     10215	80003ad4	00000013	addi	x0,x0,0	  x0:0x00000000
      102175000	     10216	80003ad8	009bfbb3	and	x23,x23,x9	 x23:0x80003810  x9:0x20000e61 x23=0x00000800
      102185000	     10217	80003adc	01c000ef	jal	x1,80003adc	  x1=0x80003adc
      102195000	     10218	00000000	00000013	addi	x0,x0,0	  x0:0x00000000
      102205000	     10219	80003af4	00000013	addi	x0,x0,0	  x0:0x00000000
      102215000	     10220	80003af8	ff5ff0ef	jal	x1,80003af8	  x1=0x80003af8
      102225000	     10221	00000000	00000013	addi	x0,x0,0	  x0:0x00000000
      102235000	     10222	80003ae8	00000013	addi	x0,x0,0	  x0:0x00000000
      102245000	     10223	80003aec	0300026f	jal	x4,80003aec	  x4=0x80003aec
      102255000	     10224	00000000	00000013	addi	x0,x0,0	  x0:0x00000000
      102265000	     10225	80003b18	00000013	addi	x0,x0,0	  x0:0x00000000
      102275000	     10226	80003b1c	fe5ff0ef	jal	x1,80003b1c	  x1=0x80003b1c
      102285000	     10227	00000000	00000013	addi	x0,x0,0	  x0:0x00000000
      102295000	     10228	80003afc	00000013	addi	x0,x0,0	  x0:0x00000000
      102305000	     10229	80003b00	0040036f	jal	x6,80003b00	  x6=0x80003b00
      102315000	     10230	00000000	00000013	addi	x0,x0,0	  x0:0x00000000
      102325000	     10231	80003b00	00000013	addi	x0,x0,0	  x0:0x00000000
      102335000	     10232	80003b04	004002ef	jal	x5,80003b04	  x5=0x80003b04
      102345000	     10233	00000000	00000013	addi	x0,x0,0	  x0:0x00000000
      102355000	     10234	80003b04	00000013	addi	x0,x0,0	  x0:0x00000000
      102365000	     10235	80003b08	01c0086f	jal	x16,80003b08	 x16=0x80003b08
      102375000	     10236	00000000	00000013	addi	x0,x0,0	  x0:0x00000000
      102385000	     10237	80003b20	00000013	addi	x0,x0,0	  x0:0x00000000
      102395000	     10238	80003b24	fcdff36f	jal	x6,80003b24	  x6=0x80003b24
      102405000	     10239	00000000	00000013	addi	x0,x0,0	  x0:0x00000000
      102415000	     10240	80003aec	00000013	addi	x0,x0,0	  x0:0x00000000
      102425000	     10241	80003af0	0380036f	jal	x6,80003af0	  x6=0x80003af0
      102435000	     10242	00000000	00000013	addi	x0,x0,0	  x0:0x00000000
      102445000	     10243	80003b24	00000013	addi	x0,x0,0	  x0:0x00000000
      102455000	     10244	80003b28	fbdff0ef	jal	x1,80003b28	  x1=0x80003b28
      102465000	     10245	00000000	00000013	addi	x0,x0,0	  x0:0x00000000
      102475000	     10246	80003ae0	00000013	addi	x0,x0,0	  x0:0x00000000
      102485000	     10247	80003ae4	ffdff2ef	jal	x5,80003ae4	  x5=0x80003ae4
      102495000	     10248	00000000	00000013	addi	x0,x0,0	  x0:0x00000000
      102505000	     10249	80003adc	00000013	addi	x0,x0,0	  x0:0x00000000
      102515000	     10250	80003ae0	0400036f	jal	x6,80003ae0	  x6=0x80003ae0
      102525000	     10251	00000000	00000013	addi	x0,x0,0	  x0:0x00000000
      102535000	     10252	80003b1c	00000013	addi	x0,x0,0	  x0:0x00000000
      102545000	     10253	80003b20	fd5ff36f	jal	x6,80003b20	  x6=0x80003b20
      102555000	     10254	00000000	00000013	addi	x0,x0,0	  x0:0x00000000
      102565000	     10255	80003af0	00000013	addi	x0,x0,0	  x0:0x00000000
      102575000	     10256	80003af4	0080036f	jal	x6,80003af4	  x6=0x80003af4
      102585000	     10257	00000000	00000013	addi	x0,x0,0	  x0:0x00000000
      102595000	     10258	80003af8	00000013	addi	x0,x0,0	  x0:0x00000000
      102605000	     10259	80003afc	018000ef	jal	x1,80003afc	  x1=0x80003afc
      102615000	     10260	00000000	00000013	addi	x0,x0,0	  x0:0x00000000
      102625000	     10261	80003b10	00000013	addi	x0,x0,0	  x0:0x00000000
      102635000	     10262	80003b14	ffdff0ef	jal	x1,80003b14	  x1=0x80003b14
      102645000	     10263	00000000	00000013	addi	x0,x0,0	  x0:0x00000000
      102655000	     10264	80003b0c	00000013	addi	x0,x0,0	  x0:0x00000000
      102665000	     10265	80003b10	008000ef	jal	x1,80003b10	  x1=0x80003b10
      102675000	     10266	00000000	00000013	addi	x0,x0,0	  x0:0x00000000
      102685000	     10267	80003b14	00000013	addi	x0,x0,0	  x0:0x00000000
      102695000	     10268	80003b18	ff5ff0ef	jal	x1,80003b18	  x1=0x80003b18
      102705000	     10269	00000000	00000013	addi	x0,x0,0	  x0:0x00000000
      102715000	     10270	80003b08	00000013	addi	x0,x0,0	  x0:0x00000000
      102725000	     10271	80003b0c	fddff0ef	jal	x1,80003b0c	  x1=0x80003b0c
      102735000	     10272	00000000	00000013	addi	x0,x0,0	  x0:0x00000000
      102745000	     10273	80003ae4	00000013	addi	x0,x0,0	  x0:0x00000000
      102755000	     10274	80003ae8	0440036f	jal	x6,80003ae8	  x6=0x80003ae8
      102765000	     10275	00000000	00000013	addi	x0,x0,0	  x0:0x00000000
      102775000	     10276	80003b28	00000013	addi	x0,x0,0	  x0:0x00000000
      102785000	     10277	80003b2c	41295fb3	sra	x31,x18,x18	 x18:0x9a23d578 x18:0x9a23d578 x31=0xffffff9a
      102795000	     10278	80003b30	010000ef	jal	x1,80003b30	  x1=0x80003b30
      102805000	     10279	00000000	00000013	addi	x0,x0,0	  x0:0x00000000
      102815000	     10280	80003b3c	00000013	addi	x0,x0,0	  x0:0x00000000
      102825000	     10281	80003b40	01c005ef	jal	x11,80003b40	 x11=0x80003b40
      102835000	     10282	00000000	00000013	addi	x0,x0,0	  x0:0x00000000
      102845000	     10283	80003b58	00000013	addi	x0,x0,0	  x0:0x00000000
      102855000	     10284	80003b5c	038000ef	jal	x1,80003b5c	  x1=0x80003b5c
      102865000	     10285	00000000	00000013	addi	x0,x0,0	  x0:0x00000000
      102875000	     10286	80003b90	00000013	addi	x0,x0,0	  x0:0x00000000
      102885000	     10287	80003b94	fe5ff0ef	jal	x1,80003b94	  x1=0x80003b94
      102895000	     10288	00000000	00000013	addi	x0,x0,0	  x0:0x00000000
      102905000	     10289	80003b74	00000013	addi	x0,x0,0	  x0:0x00000000
      102915000	     10290	80003b78	fc1ff0ef	jal	x1,80003b78	  x1=0x80003b78
      102925000	     10291	00000000	00000013	addi	x0,x0,0	  x0:0x00000000
      102935000	     10292	80003b34	00000013	addi	x0,x0,0	  x0:0x00000000
      102945000	     10293	80003b38	00c000ef	jal	x1,80003b38	  x1=0x80003b38
      102955000	     10294	00000000	00000013	addi	x0,x0,0	  x0:0x00000000
      102965000	     10295	80003b40	00000013	addi	x0,x0,0	  x0:0x00000000
      102975000	     10296	80003b44	048000ef	jal	x1,80003b44	  x1=0x80003b44
      102985000	     10297	00000000	00000013	addi	x0,x0,0	  x0:0x00000000
      102995000	     10298	80003b88	00000013	addi	x0,x0,0	  x0:0x00000000
      103005000	     10299	80003b8c	fd5ff36f	jal	x6,80003b8c	  x6=0x80003b8c
      103015000	     10300	00000000	00000013	addi	x0,x0,0	  x0:0x00000000
      103025000	     10301	80003b5c	00000013	addi	x0,x0,0	  x0:0x00000000
      103035000	     10302	80003b60	024000ef	jal	x1,80003b60	  x1=0x80003b60
      103045000	     10303	00000000	00000013	addi	x0,x0,0	  x0:0x00000000
      103055000	     10304	80003b80	00000013	addi	x0,x0,0	  x0:0x00000000
      103065000	     10305	80003b84	fd5ff0ef	jal	x1,80003b84	  x1=0x80003b84
      103075000	     10306	00000000	00000013	addi	x0,x0,0	  x0:0x00000000
      103085000	     10307	80003b54	00000013	addi	x0,x0,0	  x0:0x00000000
      103095000	     10308	80003b58	038000ef	jal	x1,80003b58	  x1=0x80003b58
      103105000	     10309	00000000	00000013	addi	x0,x0,0	  x0:0x00000000
      103115000	     10310	80003b8c	00000013	addi	x0,x0,0	  x0:0x00000000
      103125000	     10311	80003b90	fb9ff36f	jal	x6,80003b90	  x6=0x80003b90
      103135000	     10312	00000000	00000013	addi	x0,x0,0	  x0:0x00000000
      103145000	     10313	80003b44	00000013	addi	x0,x0,0	  x0:0x00000000
      103155000	     10314	80003b48	01c0036f	jal	x6,80003b48	  x6=0x80003b48
      103165000	     10315	00000000	00000013	addi	x0,x0,0	  x0:0x00000000
      103175000	     10316	80003b60	00000013	addi	x0,x0,0	  x0:0x00000000
      103185000	     10317	80003b64	fe9ff36f	jal	x6,80003b64	  x6=0x80003b64
      103195000	     10318	00000000	00000013	addi	x0,x0,0	  x0:0x00000000
      103205000	     10319	80003b48	00000013	addi	x0,x0,0	  x0:0x00000000
      103215000	     10320	80003b4c	01c0036f	jal	x6,80003b4c	  x6=0x80003b4c
      103225000	     10321	00000000	00000013	addi	x0,x0,0	  x0:0x00000000
      103235000	     10322	80003b64	00000013	addi	x0,x0,0	  x0:0x00000000
      103245000	     10323	80003b68	004000ef	jal	x1,80003b68	  x1=0x80003b68
      103255000	     10324	00000000	00000013	addi	x0,x0,0	  x0:0x00000000
      103265000	     10325	80003b68	00000013	addi	x0,x0,0	  x0:0x00000000
      103275000	     10326	80003b6c	02c0036f	jal	x6,80003b6c	  x6=0x80003b6c
      103285000	     10327	00000000	00000013	addi	x0,x0,0	  x0:0x00000000
      103295000	     10328	80003b94	00000013	addi	x0,x0,0	  x0:0x00000000
      103305000	     10329	80003b98	fe5ff0ef	jal	x1,80003b98	  x1=0x80003b98
      103315000	     10330	00000000	00000013	addi	x0,x0,0	  x0:0x00000000
      103325000	     10331	80003b78	00000013	addi	x0,x0,0	  x0:0x00000000
      103335000	     10332	80003b7c	ff9ff0ef	jal	x1,80003b7c	  x1=0x80003b7c
      103345000	     10333	00000000	00000013	addi	x0,x0,0	  x0:0x00000000
      103355000	     10334	80003b70	00000013	addi	x0,x0,0	  x0:0x00000000
      103365000	     10335	80003b74	fc9ff0ef	jal	x1,80003b74	  x1=0x80003b74
      103375000	     10336	00000000	00000013	addi	x0,x0,0	  x0:0x00000000
      103385000	     10337	80003b38	00000013	addi	x0,x0,0	  x0:0x00000000
      103395000	     10338	80003b3c	018000ef	jal	x1,80003b3c	  x1=0x80003b3c
      103405000	     10339	00000000	00000013	addi	x0,x0,0	  x0:0x00000000
      103415000	     10340	80003b50	00000013	addi	x0,x0,0	  x0:0x00000000
      103425000	     10341	80003b54	01c001ef	jal	x3,80003b54	  x3=0x80003b54
      103435000	     10342	00000000	00000013	addi	x0,x0,0	  x0:0x00000000
      103445000	     10343	80003b6c	00000013	addi	x0,x0,0	  x0:0x00000000
      103455000	     10344	80003b70	fe1ff0ef	jal	x1,80003b70	  x1=0x80003b70
      103465000	     10345	00000000	00000013	addi	x0,x0,0	  x0:0x00000000
      103475000	     10346	80003b4c	00000013	addi	x0,x0,0	  x0:0x00000000
      103485000	     10347	80003b50	fe5ff0ef	jal	x1,80003b50	  x1=0x80003b50
      103495000	     10348	00000000	00000013	addi	x0,x0,0	  x0:0x00000000
      103505000	     10349	80003b30	00000013	addi	x0,x0,0	  x0:0x00000000
      103515000	     10350	80003b34	054000ef	jal	x1,80003b34	  x1=0x80003b34
      103525000	     10351	00000000	00000013	addi	x0,x0,0	  x0:0x00000000
      103535000	     10352	80003b84	00000013	addi	x0,x0,0	  x0:0x00000000
      103545000	     10353	80003b88	ff9ff0ef	jal	x1,80003b88	  x1=0x80003b88
      103555000	     10354	00000000	00000013	addi	x0,x0,0	  x0:0x00000000
      103565000	     10355	80003b7c	00000013	addi	x0,x0,0	  x0:0x00000000
      103575000	     10356	80003b80	01c000ef	jal	x1,80003b80	  x1=0x80003b80
      103585000	     10357	00000000	00000013	addi	x0,x0,0	  x0:0x00000000
      103595000	     10358	80003b98	00000013	addi	x0,x0,0	  x0:0x00000000
      103605000	     10359	80003b9c	2c068a93	addi	x21,x13,704	 x13:0x80003a08 x21=0x80003cc8
      103615000	     10360	80003ba0	01c000ef	jal	x1,80003ba0	  x1=0x80003ba0
      103625000	     10361	00000000	00000013	addi	x0,x0,0	  x0:0x00000000
      103635000	     10362	80003bb8	00000013	addi	x0,x0,0	  x0:0x00000000
      103645000	     10363	80003bbc	fe9ff0ef	jal	x1,80003bbc	  x1=0x80003bbc
      103655000	     10364	00000000	00000013	addi	x0,x0,0	  x0:0x00000000
      103665000	     10365	80003ba0	00000013	addi	x0,x0,0	  x0:0x00000000
      103675000	     10366	80003ba4	020000ef	jal	x1,80003ba4	  x1=0x80003ba4
      103685000	     10367	00000000	00000013	addi	x0,x0,0	  x0:0x00000000
      103695000	     10368	80003bc0	00000013	addi	x0,x0,0	  x0:0x00000000
      103705000	     10369	80003bc4	ff5ff0ef	jal	x1,80003bc4	  x1=0x80003bc4
      103715000	     10370	00000000	00000013	addi	x0,x0,0	  x0:0x00000000
      103725000	     10371	80003bb4	00000013	addi	x0,x0,0	  x0:0x00000000
      103735000	     10372	80003bb8	ff1ff0ef	jal	x1,80003bb8	  x1=0x80003bb8
      103745000	     10373	00000000	00000013	addi	x0,x0,0	  x0:0x00000000
      103755000	     10374	80003ba4	00000013	addi	x0,x0,0	  x0:0x00000000
      103765000	     10375	80003ba8	020000ef	jal	x1,80003ba8	  x1=0x80003ba8
      103775000	     10376	00000000	00000013	addi	x0,x0,0	  x0:0x00000000
      103785000	     10377	80003bc4	00000013	addi	x0,x0,0	  x0:0x00000000
      103795000	     10378	80003bc8	fedff4ef	jal	x9,80003bc8	  x9=0x80003bc8
      103805000	     10379	00000000	00000013	addi	x0,x0,0	  x0:0x00000000
      103815000	     10380	80003bb0	00000013	addi	x0,x0,0	  x0:0x00000000
      103825000	     10381	80003bb4	ffdfffef	jal	x31,80003bb4	 x31=0x80003bb4
      103835000	     10382	00000000	00000013	addi	x0,x0,0	  x0:0x00000000
      103845000	     10383	80003bac	00000013	addi	x0,x0,0	  x0:0x00000000
      103855000	     10384	80003bb0	ffdff0ef	jal	x1,80003bb0	  x1=0x80003bb0
      103865000	     10385	00000000	00000013	addi	x0,x0,0	  x0:0x00000000
      103875000	     10386	80003ba8	00000013	addi	x0,x0,0	  x0:0x00000000
      103885000	     10387	80003bac	014000ef	jal	x1,80003bac	  x1=0x80003bac
      103895000	     10388	00000000	00000013	addi	x0,x0,0	  x0:0x00000000
      103905000	     10389	80003bbc	00000013	addi	x0,x0,0	  x0:0x00000000
      103915000	     10390	80003bc0	00c0086f	jal	x16,80003bc0	 x16=0x80003bc0
      103925000	     10391	00000000	00000013	addi	x0,x0,0	  x0:0x00000000
      103935000	     10392	80003bc8	00000013	addi	x0,x0,0	  x0:0x00000000
      103945000	     10393	80003bcc	004000ef	jal	x1,80003bcc	  x1=0x80003bcc
      103955000	     10394	00000000	00000013	addi	x0,x0,0	  x0:0x00000000
      103965000	     10395	80003bcc	00000013	addi	x0,x0,0	  x0:0x00000000
      103975000	     10396	80003bd0	017ef4b3	and	x9,x29,x23	 x29:0x80003ac0 x23:0x00000800  x9=0x00000800
      103985000	     10397	80003bd4	018000ef	jal	x1,80003bd4	  x1=0x80003bd4
      103995000	     10398	00000000	00000013	addi	x0,x0,0	  x0:0x00000000
      104005000	     10399	80003be8	00000013	addi	x0,x0,0	  x0:0x00000000
      104015000	     10400	80003bec	ff5ff0ef	jal	x1,80003bec	  x1=0x80003bec
      104025000	     10401	00000000	00000013	addi	x0,x0,0	  x0:0x00000000
      104035000	     10402	80003bdc	00000013	addi	x0,x0,0	  x0:0x00000000
      104045000	     10403	80003be0	02000b6f	jal	x22,80003be0	 x22=0x80003be0
      104055000	     10404	00000000	00000013	addi	x0,x0,0	  x0:0x00000000
      104065000	     10405	80003bfc	00000013	addi	x0,x0,0	  x0:0x00000000
      104075000	     10406	80003c00	ff9ff36f	jal	x6,80003c00	  x6=0x80003c00
      104085000	     10407	00000000	00000013	addi	x0,x0,0	  x0:0x00000000
      104095000	     10408	80003bf4	00000013	addi	x0,x0,0	  x0:0x00000000
      104105000	     10409	80003bf8	ff1ff0ef	jal	x1,80003bf8	  x1=0x80003bf8
      104115000	     10410	00000000	00000013	addi	x0,x0,0	  x0:0x00000000
      104125000	     10411	80003be4	00000013	addi	x0,x0,0	  x0:0x00000000
      104135000	     10412	80003be8	ffdff26f	jal	x4,80003be8	  x4=0x80003be8
      104145000	     10413	00000000	00000013	addi	x0,x0,0	  x0:0x00000000
      104155000	     10414	80003be0	00000013	addi	x0,x0,0	  x0:0x00000000
      104165000	     10415	80003be4	024000ef	jal	x1,80003be4	  x1=0x80003be4
      104175000	     10416	00000000	00000013	addi	x0,x0,0	  x0:0x00000000
      104185000	     10417	80003c04	00000013	addi	x0,x0,0	  x0:0x00000000
      104195000	     10418	80003c08	fd5ff0ef	jal	x1,80003c08	  x1=0x80003c08
      104205000	     10419	00000000	00000013	addi	x0,x0,0	  x0:0x00000000
      104215000	     10420	80003bd8	00000013	addi	x0,x0,0	  x0:0x00000000
      104225000	     10421	80003bdc	028000ef	jal	x1,80003bdc	  x1=0x80003bdc
      104235000	     10422	00000000	00000013	addi	x0,x0,0	  x0:0x00000000
      104245000	     10423	80003c00	00000013	addi	x0,x0,0	  x0:0x00000000
      104255000	     10424	80003c04	fedff0ef	jal	x1,80003c04	  x1=0x80003c04
      104265000	     10425	00000000	00000013	addi	x0,x0,0	  x0:0x00000000
      104275000	     10426	80003bec	00000013	addi	x0,x0,0	  x0:0x00000000
      104285000	     10427	80003bf0	004000ef	jal	x1,80003bf0	  x1=0x80003bf0
      104295000	     10428	00000000	00000013	addi	x0,x0,0	  x0:0x00000000
      104305000	     10429	80003bf0	00000013	addi	x0,x0,0	  x0:0x00000000
      104315000	     10430	80003bf4	0080036f	jal	x6,80003bf4	  x6=0x80003bf4
      104325000	     10431	00000000	00000013	addi	x0,x0,0	  x0:0x00000000
      104335000	     10432	80003bf8	00000013	addi	x0,x0,0	  x0:0x00000000
      104345000	     10433	80003bfc	0100036f	jal	x6,80003bfc	  x6=0x80003bfc
      104355000	     10434	00000000	00000013	addi	x0,x0,0	  x0:0x00000000
      104365000	     10435	80003c08	00000013	addi	x0,x0,0	  x0:0x00000000
      104375000	     10436	80003c0c	fcdff0ef	jal	x1,80003c0c	  x1=0x80003c0c
      104385000	     10437	00000000	00000013	addi	x0,x0,0	  x0:0x00000000
      104395000	     10438	80003bd4	00000013	addi	x0,x0,0	  x0:0x00000000
      104405000	     10439	80003bd8	038004ef	jal	x9,80003bd8	  x9=0x80003bd8
      104415000	     10440	00000000	00000013	addi	x0,x0,0	  x0:0x00000000
      104425000	     10441	80003c0c	00000013	addi	x0,x0,0	  x0:0x00000000
      104435000	     10442	80003c10	000c46b3	xor	x13,x24,x0	 x24:0x7fff6069  x0:0x00000000 x13=0x7fff6069
      104445000	     10443	80003c14	008000ef	jal	x1,80003c14	  x1=0x80003c14
      104455000	     10444	00000000	00000013	addi	x0,x0,0	  x0:0x00000000
      104465000	     10445	80003c18	00000013	addi	x0,x0,0	  x0:0x00000000
      104475000	     10446	80003c1c	008001ef	jal	x3,80003c1c	  x3=0x80003c1c
      104485000	     10447	00000000	00000013	addi	x0,x0,0	  x0:0x00000000
      104495000	     10448	80003c20	00000013	addi	x0,x0,0	  x0:0x00000000
      104505000	     10449	80003c24	02c00e6f	jal	x28,80003c24	 x28=0x80003c24
      104515000	     10450	00000000	00000013	addi	x0,x0,0	  x0:0x00000000
      104525000	     10451	80003c4c	00000013	addi	x0,x0,0	  x0:0x00000000
      104535000	     10452	80003c50	fd9ff36f	jal	x6,80003c50	  x6=0x80003c50
      104545000	     10453	00000000	00000013	addi	x0,x0,0	  x0:0x00000000
      104555000	     10454	80003c24	00000013	addi	x0,x0,0	  x0:0x00000000
      104565000	     10455	80003c28	0200036f	jal	x6,80003c28	  x6=0x80003c28
      104575000	     10456	00000000	00000013	addi	x0,x0,0	  x0:0x00000000
      104585000	     10457	80003c44	00000013	addi	x0,x0,0	  x0:0x00000000
      104595000	     10458	80003c48	fe9ff16f	jal	x2,80003c48	  x2=0x80003c48
      104605000	     10459	00000000	00000013	addi	x0,x0,0	  x0:0x00000000
      104615000	     10460	80003c2c	00000013	addi	x0,x0,0	  x0:0x00000000
      104625000	     10461	80003c30	014000ef	jal	x1,80003c30	  x1=0x80003c30
      104635000	     10462	00000000	00000013	addi	x0,x0,0	  x0:0x00000000
      104645000	     10463	80003c40	00000013	addi	x0,x0,0	  x0:0x00000000
      104655000	     10464	80003c44	fd5ff0ef	jal	x1,80003c44	  x1=0x80003c44
      104665000	     10465	00000000	00000013	addi	x0,x0,0	  x0:0x00000000
      104675000	     10466	80003c14	00000013	addi	x0,x0,0	  x0:0x00000000
      104685000	     10467	80003c18	0280036f	jal	x6,80003c18	  x6=0x80003c18
      104695000	     10468	00000000	00000013	addi	x0,x0,0	  x0:0x00000000
      104705000	     10469	80003c3c	00000013	addi	x0,x0,0	  x0:0x00000000
      104715000	     10470	80003c40	fedff0ef	jal	x1,80003c40	  x1=0x80003c40
      104725000	     10471	00000000	00000013	addi	x0,x0,0	  x0:0x00000000
      104735000	     10472	80003c28	00000013	addi	x0,x0,0	  x0:0x00000000
      104745000	     10473	80003c2c	020000ef	jal	x1,80003c2c	  x1=0x80003c2c
      104755000	     10474	00000000	00000013	addi	x0,x0,0	  x0:0x00000000
      104765000	     10475	80003c48	00000013	addi	x0,x0,0	  x0:0x00000000
      104775000	     10476	80003c4c	ff1ff0ef	jal	x1,80003c4c	  x1=0x80003c4c
      104785000	     10477	00000000	00000013	addi	x0,x0,0	  x0:0x00000000
      104795000	     10478	80003c38	00000013	addi	x0,x0,0	  x0:0x00000000
      104805000	     10479	80003c3c	ffdff36f	jal	x6,80003c3c	  x6=0x80003c3c
      104815000	     10480	00000000	00000013	addi	x0,x0,0	  x0:0x00000000
      104825000	     10481	80003c34	00000013	addi	x0,x0,0	  x0:0x00000000
      104835000	     10482	80003c38	fe9ff26f	jal	x4,80003c38	  x4=0x80003c38
      104845000	     10483	00000000	00000013	addi	x0,x0,0	  x0:0x00000000
      104855000	     10484	80003c1c	00000013	addi	x0,x0,0	  x0:0x00000000
      104865000	     10485	80003c20	014000ef	jal	x1,80003c20	  x1=0x80003c20
      104875000	     10486	00000000	00000013	addi	x0,x0,0	  x0:0x00000000
      104885000	     10487	80003c30	00000013	addi	x0,x0,0	  x0:0x00000000
      104895000	     10488	80003c34	0200036f	jal	x6,80003c34	  x6=0x80003c34
      104905000	     10489	00000000	00000013	addi	x0,x0,0	  x0:0x00000000
      104915000	     10490	80003c50	00000013	addi	x0,x0,0	  x0:0x00000000
      104925000	     10491	80003c54	40ebd733	sra	x14,x23,x14	 x23:0x00000800 x14:0xfffffbce x14=0x00000000
      104935000	     10492	80003c58	9e73a113	slti	x2,x7,-1561	  x7:0xbffde7ac  x2=0x00000001
      104945000	     10493	80003c5c	0045e6b3	or	x13,x11,x4	 x11:0x80003b40  x4:0x80003c38 x13=0x80003f78
      104955000	     10494	80003c60	01fdde63	bge	x27,x31,80003c7c	 x27:0x80009f14 x31:0x80003bb4
      104965000	     10495	00000000	00000013	addi	x0,x0,0	  x0:0x00000000
      104975000	     10496	80003c78	00000013	addi	x0,x0,0	  x0:0x00000000
      104985000	     10497	80003c7c	00000013	addi	x0,x0,0	  x0:0x00000000
      104995000	     10498	80003c80	008f5463	bge	x30,x8,80003c88	 x30:0x80003a94  x8:0x80009fc4
      105005000	     10499	80003c84	01811b93	slli	x23,x2,0x18	  x2:0x00000001 x23=0x01000000
      105015000	     10500	80003c88	aa223c97	auipc	x25,0xaa223	 x25=0x2a226c84
      105025000	     10501	80003c8c	2602be13	sltiu	x28,x5,608	  x5:0x80003ae4 x28=0x00000000
      105035000	     10502	80003c90	00785393	srli	x7,x16,0x7	 x16:0x80003bc0  x7=0x01000077
      105045000	     10503	80003c94	02ba9663	bne	x21,x11,80003cc0	 x21:0x80003cc8 x11:0x80003b40
      105055000	     10504	00000000	00000013	addi	x0,x0,0	  x0:0x00000000
      105065000	     10505	80003cbc	00000013	addi	x0,x0,0	  x0:0x00000000
      105075000	     10506	80003cc0	00fe9fb3	sll	x31,x29,x15	 x29:0x80003ac0 x15:0x00000001 x31=0x00007580
      105085000	     10507	80003cc4	012b5e93	srli	x29,x22,0x12	 x22:0x80003be0 x29=0x00002000
      105095000	     10508	80003cc8	012116b3	sll	x13,x2,x18	  x2:0x00000001 x18:0x9a23d578 x13=0x01000000
      105105000	     10509	80003ccc	4038d293	srai	x5,x17,0x3	 x17:0x0000000c  x5=0x00000001
      105115000	     10510	80003cd0	6bcbeeb7	lui	x29,0x6bcbe	 x29=0x6bcbe000
      105125000	     10511	80003cd4	002a70b3	and	x1,x20,x2	 x20:0x80003a70  x2:0x00000001  x1=0x00000000
      105135000	     10512	80003cd8	8e1a0213	addi	x4,x20,-1823	 x20:0x80003a70  x4=0x80003351
      105145000	     10513	80003cdc	404b5a93	srai	x21,x22,0x4	 x22:0x80003be0 x21=0xf80003be
      105155000	     10514	80003ce0	01ce2833	slt	x16,x28,x28	 x28:0x00000000 x28:0x00000000 x16=0x00000000
      105165000	     10515	80003ce4	00433ab3	sltu	x21,x6,x4	  x6:0x80003c34  x4:0x80003351 x21=0x00000000
      105175000	     10516	80003ce8	014b4463	blt	x22,x20,80003cf0	 x22:0x80003be0 x20:0x80003a70
      105185000	     10517	80003cec	407edb13	srai	x22,x29,0x7	 x29:0x6bcbe000 x22=0x00d797c0
      105195000	     10518	80003cf0	a7b03913	sltiu	x18,x0,-1413	  x0:0x00000000 x18=0x00000001
      105205000	     10519	80003cf4	04461463	bne	x12,x4,80003d3c	 x12:0x80003a7c  x4:0x80003351
      105215000	     10520	00000000	00000013	addi	x0,x0,0	  x0:0x00000000
      105225000	     10521	80003d38	00000013	addi	x0,x0,0	  x0:0x00000000
      105235000	     10522	80003d3c	003a11b3	sll	x3,x20,x3	 x20:0x80003a70  x3:0x80003c1c  x3=0x00000000
      105245000	     10523	80003d40	03868063	beq	x13,x24,80003d60	 x13:0x01000000 x24:0x7fff6069
      105255000	     10524	80003d44	01bd39b3	sltu	x19,x26,x27	 x26:0x600000c0 x27:0x80009f14 x19=0x00000001
      105265000	     10525	80003d48	0eeeb913	sltiu	x18,x29,238	 x29:0x6bcbe000 x18=0x00000000
      105275000	     10526	80003d4c	00cb5f93	srli	x31,x22,0xc	 x22:0x00d797c0 x31=0x00000d79
      105285000	     10527	80003d50	410ada13	srai	x20,x21,0x10	 x21:0x00000000 x20=0x00000000
      105295000	     10528	80003d54	7b51b5b7	lui	x11,0x7b51b	 x11=0x7b51b000
      105305000	     10529	80003d58	4136d913	srai	x18,x13,0x13	 x13:0x01000000 x18=0x00000020
      105315000	     10530	80003d5c	8edc7113	andi	x2,x24,-1811	 x24:0x7fff6069  x2=0x7fff6069
      105325000	     10531	80003d60	031e7863	bgeu	x28,x17,80003d90	 x28:0x00000000 x17:0x0000000c
      105335000	     10532	80003d64	40d7d313	srai	x6,x15,0xd	 x15:0x00000001  x6=0x00000000
      105345000	     10533	80003d68	00aabbb3	sltu	x23,x21,x10	 x21:0x00000000 x10:0x00000001 x23=0x00000001
      105355000	     10534	80003d6c	03069e63	bne	x13,x16,80003da8	 x13:0x01000000 x16:0x00000000
      105365000	     10535	00000000	00000013	addi	x0,x0,0	  x0:0x00000000
      105375000	     10536	80003da4	00000013	addi	x0,x0,0	  x0:0x00000000
      105385000	     10537	80003da8	1663cc37	lui	x24,0x1663c	 x24=0x1663c000
      105395000	     10538	80003dac	006ead33	slt	x26,x29,x6	 x29:0x6bcbe000  x6:0x00000000 x26=0x00000000
      105405000	     10539	80003db0	0049dbb3	srl	x23,x19,x4	 x19:0x00000001  x4:0x80003351 x23=0x00000000
      105415000	     10540	80003db4	006bea63	bltu	x23,x6,80003dc8	 x23:0x00000000  x6:0x00000000
      105425000	     10541	80003db8	03a4e663	bltu	x9,x26,80003de4	  x9:0x80003bd8 x26:0x00000000
      105435000	     10542	80003dbc	0021a633	slt	x12,x3,x2	  x3:0x00000000  x2:0x7fff6069 x12=0x00000001
      105445000	     10543	80003dc0	afe97e17	auipc	x28,0xafe97	 x28=0x2fe9adbc
      105455000	     10544	80003dc4	40e301b3	sub	x3,x6,x14	  x6:0x00000000 x14:0x00000000  x3=0x00000000
      105465000	     10545	80003dc8	00ae6a63	bltu	x28,x10,80003ddc	 x28:0x2fe9adbc x10:0x00000001
      105475000	     10546	80003dcc	01b0fa33	and	x20,x1,x27	  x1:0x00000000 x27:0x80009f14 x20=0x00000000
      105485000	     10547	80003dd0	6208ccb7	lui	x25,0x6208c	 x25=0x6208c000
      105495000	     10548	80003dd4	0226e063	bltu	x13,x2,80003df4	 x13:0x01000000  x2:0x7fff6069
      105505000	     10549	00000000	00000013	addi	x0,x0,0	  x0:0x00000000
      105515000	     10550	80003df0	00000013	addi	x0,x0,0	  x0:0x00000000
      105525000	     10551	80003df4	0143fc63	bgeu	x7,x20,80003e0c	  x7:0x01000077 x20:0x00000000
      105535000	     10552	00000000	00000013	addi	x0,x0,0	  x0:0x00000000
      105545000	     10553	80003e08	00000013	addi	x0,x0,0	  x0:0x00000000
      105555000	     10554	80003e0c	68f905b7	lui	x11,0x68f90	 x11=0x68f90000
      105565000	     10555	80003e10	00c30a63	beq	x6,x12,80003e24	  x6:0x00000000 x12:0x00000001
      105575000	     10556	80003e14	00c15f13	srli	x30,x2,0xc	  x2:0x7fff6069 x30=0x0007fff6
      105585000	     10557	80003e18	4143da33	sra	x20,x7,x20	  x7:0x01000077 x20:0x00000000 x20=0x01000077
      105595000	     10558	80003e1c	1474e393	ori	x7,x9,327	  x9:0x80003bd8  x7=0x80003bdf
      105605000	     10559	80003e20	a719b317	auipc	x6,0xa719b	  x6=0x2719ee1c
      105615000	     10560	80003e24	02e27663	bgeu	x4,x14,80003e50	  x4:0x80003351 x14:0x00000000
      105625000	     10561	00000000	00000013	addi	x0,x0,0	  x0:0x00000000
      105635000	     10562	80003e4c	00000013	addi	x0,x0,0	  x0:0x00000000
      105645000	     10563	80003e50	00000013	addi	x0,x0,0	  x0:0x00000000
      105655000	     10564	80003e54	01bd3d33	sltu	x26,x26,x27	 x26:0x00000000 x27:0x80009f14 x26=0x00000001
      105665000	     10565	80003e58	0336f263	bgeu	x13,x19,80003e7c	 x13:0x01000000 x19:0x00000001
      105675000	     10566	00000000	00000013	addi	x0,x0,0	  x0:0x00000000
      105685000	     10567	80003e78	00000013	addi	x0,x0,0	  x0:0x00000000
      105695000	     10568	80003e7c	415985b3	sub	x11,x19,x21	 x19:0x00000001 x21:0x00000000 x11=0x00000001
      105705000	     10569	80003e80	02465863	bge	x12,x4,80003eb0	 x12:0x00000001  x4:0x80003351
      105715000	     10570	00000000	00000013	addi	x0,x0,0	  x0:0x00000000
      105725000	     10571	80003eac	00000013	addi	x0,x0,0	  x0:0x00000000
      105735000	     10572	80003eb0	1c46ac93	slti	x25,x13,452	 x13:0x01000000 x25=0x00000000
      105745000	     10573	80003eb4	4037d993	srai	x19,x15,0x3	 x15:0x00000001 x19=0x00000000
      105755000	     10574	80003eb8	00c7c2b3	xor	x5,x15,x12	 x15:0x00000001 x12:0x00000001  x5=0x00000000
      105765000	     10575	80003ebc	00000013	addi	x0,x0,0	  x0:0x00000000
      105775000	     10576	80003ec0	01277263	bgeu	x14,x18,80003ec4	 x14:0x00000000 x18:0x00000020
      105785000	     10577	80003ec4	01c1fc63	bgeu	x3,x28,80003edc	  x3:0x00000000 x28:0x2fe9adbc
      105795000	     10578	80003ec8	03941063	bne	x8,x25,80003ee8	  x8:0x80009fc4 x25:0x00000000
      105805000	     10579	00000000	00000013	addi	x0,x0,0	  x0:0x00000000
      105815000	     10580	80003ee4	00000013	addi	x0,x0,0	  x0:0x00000000
      105825000	     10581	80003ee8	00f75c33	srl	x24,x14,x15	 x14:0x00000000 x15:0x00000001 x24=0x00000000
      105835000	     10582	80003eec	258f7d13	andi	x26,x30,600	 x30:0x0007fff6 x26=0x00000250
      105845000	     10583	80003ef0	0138dc13	srli	x24,x17,0x13	 x17:0x0000000c x24=0x00000000
      105855000	     10584	80003ef4	00370f33	add	x30,x14,x3	 x14:0x00000000  x3:0x00000000 x30=0x00000000
      105865000	     10585	80003ef8	00ce1093	slli	x1,x28,0xc	 x28:0x2fe9adbc  x1=0x9adbc000
      105875000	     10586	80003efc	40b90d33	sub	x26,x18,x11	 x18:0x00000020 x11:0x00000001 x26=0x0000001f
      105885000	     10587	80003f00	016b6bb3	or	x23,x22,x22	 x22:0x00d797c0 x22:0x00d797c0 x23=0x00d797c0
      105895000	     10588	80003f04	13d55eb7	lui	x29,0x13d55	 x29=0x13d55000
      105905000	     10589	80003f08	ef6d3b93	sltiu	x23,x26,-266	 x26:0x0000001f x23=0x00000001
      105915000	     10590	80003f0c	02884c63	blt	x16,x8,80003f44	 x16:0x00000000  x8:0x80009fc4
      105925000	     10591	80003f10	00056a63	bltu	x10,x0,80003f24	 x10:0x00000001  x0:0x00000000
      105935000	     10592	80003f14	01262933	slt	x18,x12,x18	 x12:0x00000001 x18:0x00000020 x18=0x00000001
      105945000	     10593	80003f18	017081b3	add	x3,x1,x23	  x1:0x9adbc000 x23:0x00000001  x3=0x9adbc001
      105955000	     10594	80003f1c	41c65233	sra	x4,x12,x28	 x12:0x00000001 x28:0x2fe9adbc  x4=0x00000000
      105965000	     10595	80003f20	40a95733	sra	x14,x18,x10	 x18:0x00000001 x10:0x00000001 x14=0x00000000
      105975000	     10596	80003f24	10d9e593	ori	x11,x19,269	 x19:0x00000000 x11=0x0000010d
      105985000	     10597	80003f28	40110ab3	sub	x21,x2,x1	  x2:0x7fff6069  x1:0x9adbc000 x21=0xe523a069
      105995000	     10598	80003f2c	0119bbb3	sltu	x23,x19,x17	 x19:0x00000000 x17:0x0000000c x23=0x00000001
      106005000	     10599	80003f30	51e38493	addi	x9,x7,1310	  x7:0x80003bdf  x9=0x800040fd
      106015000	     10600	80003f34	40cd0633	sub	x12,x26,x12	 x26:0x0000001f x12:0x00000001 x12=0x0000001e
      106025000	     10601	80003f38	015be3b3	or	x7,x23,x21	 x23:0x00000001 x21:0xe523a069  x7=0xe523a069
      106035000	     10602	80003f3c	01c48bb3	add	x23,x9,x28	  x9:0x800040fd x28:0x2fe9adbc x23=0xafe9eeb9
      106045000	     10603	80003f40	00000013	addi	x0,x0,0	  x0:0x00000000
      106055000	     10604	80003f44	41db5f93	srai	x31,x22,0x1d	 x22:0x00d797c0 x31=0x00000000
      106065000	     10605	80003f48	0711b613	sltiu	x12,x3,113	  x3:0x9adbc001 x12=0x00000000
      106075000	     10606	80003f4c	0126ea63	bltu	x13,x18,80003f60	 x13:0x01000000 x18:0x00000001
      106085000	     10607	80003f50	06800263	beq	x0,x8,80003fb4	  x0:0x00000000  x8:0x80009fc4
      106095000	     10608	80003f54	01618eb3	add	x29,x3,x22	  x3:0x9adbc001 x22:0x00d797c0 x29=0x9bb357c1
      106105000	     10609	80003f58	006f9863	bne	x31,x6,80003f68	 x31:0x00000000  x6:0x2719ee1c
      106115000	     10610	00000000	00000013	addi	x0,x0,0	  x0:0x00000000
      106125000	     10611	80003f64	00000013	addi	x0,x0,0	  x0:0x00000000
      106135000	     10612	80003f68	412b5333	sra	x6,x22,x18	 x22:0x00d797c0 x18:0x00000001  x6=0x006bcbe0
      106145000	     10613	80003f6c	018000ef	jal	x1,80003f6c	  x1=0x80003f6c
      106155000	     10614	00000000	00000013	addi	x0,x0,0	  x0:0x00000000
      106165000	     10615	80003f80	00000013	addi	x0,x0,0	  x0:0x00000000
      106175000	     10616	80003f84	ff9ffb6f	jal	x22,80003f84	 x22=0x80003f84
      106185000	     10617	00000000	00000013	addi	x0,x0,0	  x0:0x00000000
      106195000	     10618	80003f78	00000013	addi	x0,x0,0	  x0:0x00000000
      106205000	     10619	80003f7c	ff5ff0ef	jal	x1,80003f7c	  x1=0x80003f7c
      106215000	     10620	00000000	00000013	addi	x0,x0,0	  x0:0x00000000
      106225000	     10621	80003f6c	00000013	addi	x0,x0,0	  x0:0x00000000
      106235000	     10622	80003f70	004000ef	jal	x1,80003f70	  x1=0x80003f70
      106245000	     10623	00000000	00000013	addi	x0,x0,0	  x0:0x00000000
      106255000	     10624	80003f70	00000013	addi	x0,x0,0	  x0:0x00000000
      106265000	     10625	80003f74	0280036f	jal	x6,80003f74	  x6=0x80003f74
      106275000	     10626	00000000	00000013	addi	x0,x0,0	  x0:0x00000000
      106285000	     10627	80003f98	00000013	addi	x0,x0,0	  x0:0x00000000
      106295000	     10628	80003f9c	ffdff0ef	jal	x1,80003f9c	  x1=0x80003f9c
      106305000	     10629	00000000	00000013	addi	x0,x0,0	  x0:0x00000000
      106315000	     10630	80003f94	00000013	addi	x0,x0,0	  x0:0x00000000
      106325000	     10631	80003f98	ff1ff4ef	jal	x9,80003f98	  x9=0x80003f98
      106335000	     10632	00000000	00000013	addi	x0,x0,0	  x0:0x00000000
      106345000	     10633	80003f84	00000013	addi	x0,x0,0	  x0:0x00000000
      106355000	     10634	80003f88	ff9ff0ef	jal	x1,80003f88	  x1=0x80003f88
      106365000	     10635	00000000	00000013	addi	x0,x0,0	  x0:0x00000000
      106375000	     10636	80003f7c	00000013	addi	x0,x0,0	  x0:0x00000000
      106385000	     10637	80003f80	014000ef	jal	x1,80003f80	  x1=0x80003f80
      106395000	     10638	00000000	00000013	addi	x0,x0,0	  x0:0x00000000
      106405000	     10639	80003f90	00000013	addi	x0,x0,0	  x0:0x00000000
      106415000	     10640	80003f94	ff9ff0ef	jal	x1,80003f94	  x1=0x80003f94
      106425000	     10641	00000000	00000013	addi	x0,x0,0	  x0:0x00000000
      106435000	     10642	80003f88	00000013	addi	x0,x0,0	  x0:0x00000000
      106445000	     10643	80003f8c	0040036f	jal	x6,80003f8c	  x6=0x80003f8c
      106455000	     10644	00000000	00000013	addi	x0,x0,0	  x0:0x00000000
      106465000	     10645	80003f8c	00000013	addi	x0,x0,0	  x0:0x00000000
      106475000	     10646	80003f90	fe9ff0ef	jal	x1,80003f90	  x1=0x80003f90
      106485000	     10647	00000000	00000013	addi	x0,x0,0	  x0:0x00000000
      106495000	     10648	80003f74	00000013	addi	x0,x0,0	  x0:0x00000000
      106505000	     10649	80003f78	028000ef	jal	x1,80003f78	  x1=0x80003f78
      106515000	     10650	00000000	00000013	addi	x0,x0,0	  x0:0x00000000
      106525000	     10651	80003f9c	00000013	addi	x0,x0,0	  x0:0x00000000
      106535000	     10652	80003fa0	0012d533	srl	x10,x5,x1	  x5:0x00000000  x1:0x80003f78 x10=0x00000000
      106545000	     10653	80003fa4	81f52f13	slti	x30,x10,-2017	 x10:0x00000000 x30=0x00000000
      106555000	     10654	80003fa8	01faae33	slt	x28,x21,x31	 x21:0xe523a069 x31:0x00000000 x28=0x00000001
      106565000	     10655	80003fac	03f38063	beq	x7,x31,80003fcc	  x7:0xe523a069 x31:0x00000000
      106575000	     10656	80003fb0	01368933	add	x18,x13,x19	 x13:0x01000000 x19:0x00000000 x18=0x01000000
      106585000	     10657	80003fb4	00000013	addi	x0,x0,0	  x0:0x00000000
      106595000	     10658	80003fb8	00000013	addi	x0,x0,0	  x0:0x00000000
      106605000	     10659	80003fbc	022e0a63	beq	x28,x2,80003ff0	 x28:0x00000001  x2:0x7fff6069
      106615000	     10660	80003fc0	00ffbcb3	sltu	x25,x31,x15	 x31:0x00000000 x15:0x00000001 x25=0x00000001
      106625000	     10661	80003fc4	01281463	bne	x16,x18,80003fcc	 x16:0x00000000 x18:0x01000000
      106635000	     10662	00000000	00000013	addi	x0,x0,0	  x0:0x00000000
      106645000	     10663	80003fc8	00000013	addi	x0,x0,0	  x0:0x00000000
      106655000	     10664	80003fcc	01ae5a63	bge	x28,x26,80003fe0	 x28:0x00000001 x26:0x0000001f
      106665000	     10665	80003fd0	05e14463	blt	x2,x30,80004018	  x2:0x7fff6069 x30:0x00000000
      106675000	     10666	80003fd4	cb9ff113	andi	x2,x31,-839	 x31:0x00000000  x2=0x00000000
      106685000	     10667	80003fd8	01901a93	slli	x21,x0,0x19	  x0:0x00000000 x21=0x00000000
      106695000	     10668	80003fdc	02574663	blt	x14,x5,80004008	 x14:0x00000000  x5:0x00000000
      106705000	     10669	80003fe0	0168e9b3	or	x19,x17,x22	 x17:0x0000000c x22:0x80003f84 x19=0x80003f8c
      106715000	     10670	80003fe4	40645293	srai	x5,x8,0x6	  x8:0x80009fc4  x5=0xfe00027f
      106725000	     10671	80003fe8	018192b3	sll	x5,x3,x24	  x3:0x9adbc001 x24:0x00000000  x5=0x9adbc001
      106735000	     10672	80003fec	0094f3b3	and	x7,x9,x9	  x9:0x80003f98  x9:0x80003f98  x7=0x80003f98
      106745000	     10673	80003ff0	6647c017	auipc	x0,0x6647c	
      106755000	     10674	80003ff4	01088863	beq	x17,x16,80004004	 x17:0x0000000c x16:0x00000000
      106765000	     10675	80003ff8	9e13ce13	xori	x28,x7,-1567	  x7:0x80003f98 x28=0x7fffc679
      106775000	     10676	80003ffc	b4bf7713	andi	x14,x30,-1205	 x30:0x00000000 x14=0x00000000
      106785000	     10677	80004000	01360e63	beq	x12,x19,8000401c	 x12:0x00000000 x19:0x80003f8c
      106795000	     10678	80004004	ce842b13	slti	x22,x8,-792	  x8:0x80009fc4 x22=0x00000001
      106805000	     10679	80004008	05859663	bne	x11,x24,80004054	 x11:0x0000010d x24:0x00000000
      106815000	     10680	00000000	00000013	addi	x0,x0,0	  x0:0x00000000
      106825000	     10681	80004050	00000013	addi	x0,x0,0	  x0:0x00000000
      106835000	     10682	80004054	0263d463	bge	x7,x6,8000407c	  x7:0x80003f98  x6:0x80003f8c
      106845000	     10683	00000000	00000013	addi	x0,x0,0	  x0:0x00000000
      106855000	     10684	80004078	00000013	addi	x0,x0,0	  x0:0x00000000
      106865000	     10685	8000407c	011bbb33	sltu	x22,x23,x17	 x23:0xafe9eeb9 x17:0x0000000c x22=0x00000000
      106875000	     10686	80004080	a1072097	auipc	x1,0xa1072	  x1=0x2107607c
      106885000	     10687	80004084	0074b133	sltu	x2,x9,x7	  x9:0x80003f98  x7:0x80003f98  x2=0x00000000
      106895000	     10688	80004088	01e07033	and	x0,x0,x30	  x0:0x00000000 x30:0x00000000
      106905000	     10689	8000408c	41ce5cb3	sra	x25,x28,x28	 x28:0x7fffc679 x28:0x7fffc679 x25=0x0000003f
      106915000	     10690	80004090	5a652013	slti	x0,x10,1446	 x10:0x00000000
      106925000	     10691	80004094	9e4fb913	sltiu	x18,x31,-1564	 x31:0x00000000 x18=0x00000001
      106935000	     10692	80004098	00fffab3	and	x21,x31,x15	 x31:0x00000000 x15:0x00000001 x21=0x00000000
      106945000	     10693	8000409c	00017863	bgeu	x2,x0,800040ac	  x2:0x00000000  x0:0x00000000
      106955000	     10694	00000000	00000013	addi	x0,x0,0	  x0:0x00000000
      106965000	     10695	800040a8	00000013	addi	x0,x0,0	  x0:0x00000000
      106975000	     10696	800040ac	402e0733	sub	x14,x28,x2	 x28:0x7fffc679  x2:0x00000000 x14=0x7fffc679
      106985000	     10697	800040b0	1a0c7c13	andi	x24,x24,416	 x24:0x00000000 x24=0x00000000
      106995000	     10698	800040b4	01aa2fb3	slt	x31,x20,x26	 x20:0x01000077 x26:0x0000001f x31=0x00000000
      107005000	     10699	800040b8	012c6d33	or	x26,x24,x18	 x24:0x00000000 x18:0x00000001 x26=0x00000001
      107015000	     10700	800040bc	04001463	bne	x0,x0,80004104	  x0:0x00000000  x0:0x00000000
      107025000	     10701	800040c0	00305933	srl	x18,x0,x3	  x0:0x00000000  x3:0x9adbc001 x18=0x00000000
      107035000	     10702	800040c4	feb3e993	ori	x19,x7,-21	  x7:0x80003f98 x19=0xfffffffb
      107045000	     10703	800040c8	00cac2b3	xor	x5,x21,x12	 x21:0x00000000 x12:0x00000000  x5=0x00000000
      107055000	     10704	800040cc	00ebad33	slt	x26,x23,x14	 x23:0xafe9eeb9 x14:0x7fffc679 x26=0x00000001
      107065000	     10705	800040d0	409bd693	srai	x13,x23,0x9	 x23:0xafe9eeb9 x13=0xffd7f4f7
      107075000	     10706	800040d4	c0378b13	addi	x22,x15,-1021	 x15:0x00000001 x22=0xfffffc04
      107085000	     10707	800040d8	004e17b3	sll	x15,x28,x4	 x28:0x7fffc679  x4:0x00000000 x15=0x7fffc679
      107095000	     10708	800040dc	414dd593	srai	x11,x27,0x14	 x27:0x80009f14 x11=0xfffff800
      107105000	     10709	800040e0	00bc00b3	add	x1,x24,x11	 x24:0x00000000 x11:0xfffff800  x1=0xfffff800
      107115000	     10710	800040e4	01619713	slli	x14,x3,0x16	  x3:0x9adbc001 x14=0x00400000
      107125000	     10711	800040e8	41535913	srai	x18,x6,0x15	  x6:0x80003f8c x18=0xfffffc00
      107135000	     10712	800040ec	e6b67e97	auipc	x29,0xe6b67	 x29=0x66b6b0e8
      107145000	     10713	800040f0	021d8a63	beq	x27,x1,80004124	 x27:0x80009f14  x1:0xfffff800
      107155000	     10714	800040f4	03c9d863	bge	x19,x28,80004124	 x19:0xfffffffb x28:0x7fffc679
      107165000	     10715	800040f8	0333f463	bgeu	x7,x19,80004120	  x7:0x80003f98 x19:0xfffffffb
      107175000	     10716	800040fc	00d73bb3	sltu	x23,x14,x13	 x14:0x00400000 x13:0xffd7f4f7 x23=0x00000001
      107185000	     10717	80004100	018d5b13	srli	x22,x26,0x18	 x26:0x00000001 x22=0x00000000
      107195000	     10718	80004104	409a0933	sub	x18,x20,x9	 x20:0x01000077  x9:0x80003f98 x18=0x80ffc0df
      107205000	     10719	80004108	c5590393	addi	x7,x18,-939	 x18:0x80ffc0df  x7=0x80ffbd34
      107215000	     10720	8000410c	0156d7b3	srl	x15,x13,x21	 x13:0xffd7f4f7 x21:0x00000000 x15=0xffd7f4f7
      107225000	     10721	80004110	30500693	addi	x13,x0,773	  x0:0x00000000 x13=0x00000305
      107235000	     10722	80004114	00fc6ab3	or	x21,x24,x15	 x24:0x00000000 x15:0xffd7f4f7 x21=0xffd7f4f7
      107245000	     10723	80004118	018fec63	bltu	x31,x24,80004130	 x31:0x00000000 x24:0x00000000
      107255000	     10724	8000411c	2b6df613	andi	x12,x27,694	 x27:0x80009f14 x12=0x00000214
      107265000	     10725	80004120	00bc1463	bne	x24,x11,80004128	 x24:0x00000000 x11:0xfffff800
      107275000	     10726	00000000	00000013	addi	x0,x0,0	  x0:0x00000000
      107285000	     10727	80004124	00000013	addi	x0,x0,0	  x0:0x00000000
      107295000	     10728	80004128	03f55e63	bge	x10,x31,80004164	 x10:0x00000000 x31:0x00000000
      107305000	     10729	00000000	00000013	addi	x0,x0,0	  x0:0x00000000
      107315000	     10730	80004160	00000013	addi	x0,x0,0	  x0:0x00000000
      107325000	     10731	80004164	00191393	slli	x7,x18,0x1	 x18:0x80ffc0df  x7=0x01ff81be
      107335000	     10732	80004168	02dc6063	bltu	x24,x13,80004188	 x24:0x00000000 x13:0x00000305
      107345000	     10733	00000000	00000013	addi	x0,x0,0	  x0:0x00000000
      107355000	     10734	80004184	00000013	addi	x0,x0,0	  x0:0x00000000
      107365000	     10735	80004188	03d88c63	beq	x17,x29,800041c0	 x17:0x0000000c x29:0x66b6b0e8
      107375000	     10736	8000418c	413e03b3	sub	x7,x28,x19	 x28:0x7fffc679 x19:0xfffffffb  x7=0x7fffc67e
      107385000	     10737	80004190	d8682813	slti	x16,x16,-634	 x16:0x00000000 x16=0x00000000
      107395000	     10738	80004194	05b11663	bne	x2,x27,800041e0	  x2:0x00000000 x27:0x80009f14
      107405000	     10739	00000000	00000013	addi	x0,x0,0	  x0:0x00000000
      107415000	     10740	800041dc	00000013	addi	x0,x0,0	  x0:0x00000000
      107425000	     10741	800041e0	01355d33	srl	x26,x10,x19	 x10:0x00000000 x19:0xfffffffb x26=0x00000000
      107435000	     10742	800041e4	5620ca37	lui	x20,0x5620c	 x20=0x5620c000
      107445000	     10743	800041e8	005e6ab3	or	x21,x28,x5	 x28:0x7fffc679  x5:0x00000000 x21=0x7fffc679
      107455000	     10744	800041ec	03d8e063	bltu	x17,x29,8000420c	 x17:0x0000000c x29:0x66b6b0e8
      107465000	     10745	00000000	00000013	addi	x0,x0,0	  x0:0x00000000
      107475000	     10746	80004208	00000013	addi	x0,x0,0	  x0:0x00000000
      107485000	     10747	8000420c	017957b3	srl	x15,x18,x23	 x18:0x80ffc0df x23:0x00000001 x15=0x407fe06f
      107495000	     10748	80004210	01357c33	and	x24,x10,x19	 x10:0x00000000 x19:0xfffffffb x24=0x00000000
      107505000	     10749	80004214	9e30cb13	xori	x22,x1,-1565	  x1:0xfffff800 x22=0x000001e3
      107515000	     10750	80004218	01bc7bb3	and	x23,x24,x27	 x24:0x00000000 x27:0x80009f14 x23=0x00000000
      107525000	     10751	8000421c	01050f33	add	x30,x10,x16	 x10:0x00000000 x16:0x00000000 x30=0x00000000
      107535000	     10752	80004220	a0f6b237	lui	x4,0xa0f6b	  x4=0xa0f6b000
      107545000	     10753	80004224	3fcca213	slti	x4,x25,1020	 x25:0x0000003f  x4=0x00000001
      107555000	     10754	80004228	01810233	add	x4,x2,x24	  x2:0x00000000 x24:0x00000000  x4=0x00000000
      107565000	     10755	8000422c	017864b3	or	x9,x16,x23	 x16:0x00000000 x23:0x00000000  x9=0x00000000
      107575000	     10756	80004230	4005df13	srai	x30,x11,0x0	 x11:0xfffff800 x30=0xfffff800
      107585000	     10757	80004234	82d54813	xori	x16,x10,-2003	 x10:0x00000000 x16=0xfffff82d
      107595000	     10758	80004238	033c9c63	bne	x25,x19,80004270	 x25:0x0000003f x19:0xfffffffb
      107605000	     10759	00000000	00000013	addi	x0,x0,0	  x0:0x00000000
      107615000	     10760	8000426c	00000013	addi	x0,x0,0	  x0:0x00000000
      107625000	     10761	80004270	4be9f193	andi	x3,x19,1214	 x19:0xfffffffb  x3=0x000004ba
      107635000	     10762	80004274	01068263	beq	x13,x16,80004278	 x13:0x00000305 x16:0xfffff82d
      107645000	     10763	80004278	002acab3	xor	x21,x21,x2	 x21:0x7fffc679  x2:0x00000000 x21=0x7fffc679
      107655000	     10764	8000427c	40445a93	srai	x21,x8,0x4	  x8:0x80009fc4 x21=0xf80009fc
      107665000	     10765	80004280	02e68463	beq	x13,x14,800042a8	 x13:0x00000305 x14:0x00400000
      107675000	     10766	80004284	01aba733	slt	x14,x23,x26	 x23:0x00000000 x26:0x00000000 x14=0x00000000
      107685000	     10767	80004288	81fc3713	sltiu	x14,x24,-2017	 x24:0x00000000 x14=0x00000001
      107695000	     10768	8000428c	01c7fcb3	and	x25,x15,x28	 x15:0x407fe06f x28:0x7fffc679 x25=0x407fc069
      107705000	     10769	80004290	41a8de93	srai	x29,x17,0x1a	 x17:0x0000000c x29=0x00000000
      107715000	     10770	80004294	015cda63	bge	x25,x21,800042a8	 x25:0x407fc069 x21:0xf80009fc
      107725000	     10771	00000000	00000013	addi	x0,x0,0	  x0:0x00000000
      107735000	     10772	800042a4	00000013	addi	x0,x0,0	  x0:0x00000000
      107745000	     10773	800042a8	41915f13	srai	x30,x2,0x19	  x2:0x00000000 x30=0x00000000
      107755000	     10774	800042ac	cf65f917	auipc	x18,0xcf65f	 x18=0x4f6632a8
      107765000	     10775	800042b0	08434493	xori	x9,x6,132	  x6:0x80003f8c  x9=0x80003f08
      107775000	     10776	800042b4	8aa3f513	andi	x10,x7,-1878	  x7:0x7fffc67e x10=0x7fffc02a
      107785000	     10777	800042b8	d9e38993	addi	x19,x7,-610	  x7:0x7fffc67e x19=0x7fffc41c
      107795000	     10778	800042bc	008d43b3	xor	x7,x26,x8	 x26:0x00000000  x8:0x80009fc4  x7=0x80009fc4
      107805000	     10779	800042c0	f79bb513	sltiu	x10,x23,-135	 x23:0x00000000 x10=0x00000001
      107815000	     10780	800042c4	37ece317	auipc	x6,0x37ece	  x6=0xb7ed22c0
      107825000	     10781	800042c8	41e45ab3	sra	x21,x8,x30	  x8:0x80009fc4 x30:0x00000000 x21=0x80009fc4
      107835000	     10782	800042cc	01a1f463	bgeu	x3,x26,800042d4	  x3:0x000004ba x26:0x00000000
      107845000	     10783	00000000	00000013	addi	x0,x0,0	  x0:0x00000000
      107855000	     10784	800042d0	00000013	addi	x0,x0,0	  x0:0x00000000
      107865000	     10785	800042d4	02bf6663	bltu	x30,x11,80004300	 x30:0x00000000 x11:0xfffff800
      107875000	     10786	00000000	00000013	addi	x0,x0,0	  x0:0x00000000
      107885000	     10787	800042fc	00000013	addi	x0,x0,0	  x0:0x00000000
      107895000	     10788	80004300	014fea63	bltu	x31,x20,80004314	 x31:0x00000000 x20:0x5620c000
      107905000	     10789	00000000	00000013	addi	x0,x0,0	  x0:0x00000000
      107915000	     10790	80004310	00000013	addi	x0,x0,0	  x0:0x00000000
      107925000	     10791	80004314	014ce463	bltu	x25,x20,8000431c	 x25:0x407fc069 x20:0x5620c000
      107935000	     10792	00000000	00000013	addi	x0,x0,0	  x0:0x00000000
      107945000	     10793	80004318	00000013	addi	x0,x0,0	  x0:0x00000000
      107955000	     10794	8000431c	9ff6e013	ori	x0,x13,-1537	 x13:0x00000305
      107965000	     10795	80004320	f07a3e93	sltiu	x29,x20,-249	 x20:0x5620c000 x29=0x00000001
      107975000	     10796	80004324	01daf463	bgeu	x21,x29,8000432c	 x21:0x80009fc4 x29:0x00000001
      107985000	     10797	00000000	00000013	addi	x0,x0,0	  x0:0x00000000
      107995000	     10798	80004328	00000013	addi	x0,x0,0	  x0:0x00000000
      108005000	     10799	8000432c	0f5d6d13	ori	x26,x26,245	 x26:0x00000000 x26=0x000000f5
      108015000	     10800	80004330	01d02033	slt	x0,x0,x29	  x0:0x00000000 x29:0x00000001
      108025000	     10801	80004334	00cf5b13	srli	x22,x30,0xc	 x30:0x00000000 x22=0x00000000
      108035000	     10802	80004338	00bfd113	srli	x2,x31,0xb	 x31:0x00000000  x2=0x00000000
      108045000	     10803	8000433c	572cec93	ori	x25,x25,1394	 x25:0x407fc069 x25=0x407fc57b
      108055000	     10804	80004340	032af663	bgeu	x21,x18,8000436c	 x21:0x80009fc4 x18:0x4f6632a8
      108065000	     10805	00000000	00000013	addi	x0,x0,0	  x0:0x00000000
      108075000	     10806	80004368	00000013	addi	x0,x0,0	  x0:0x00000000
      108085000	     10807	8000436c	03272097	auipc	x1,0x3272	  x1=0x83276368
      108095000	     10808	80004370	009f4533	xor	x10,x30,x9	 x30:0x00000000  x9:0x80003f08 x10=0x80003f08
      108105000	     10809	80004374	00d91f13	slli	x30,x18,0xd	 x18:0x4f6632a8 x30=0xc6550000
      108115000	     10810	80004378	40c1dd13	srai	x26,x3,0xc	  x3:0x000004ba x26=0x00000000
      108125000	     10811	8000437c	005aa133	slt	x2,x21,x5	 x21:0x80009fc4  x5:0x00000000  x2=0x00000001
      108135000	     10812	80004380	2ee3e7b7	lui	x15,0x2ee3e	 x15=0x2ee3e000
      108145000	     10813	80004384	00517e63	bgeu	x2,x5,800043a0	  x2:0x00000001  x5:0x00000000
      108155000	     10814	00000000	00000013	addi	x0,x0,0	  x0:0x00000000
      108165000	     10815	8000439c	00000013	addi	x0,x0,0	  x0:0x00000000
      108175000	     10816	800043a0	8830bb97	auipc	x23,0x8830b	 x23=0x0830f39c
      108185000	     10817	800043a4	c36a3513	sltiu	x10,x20,-970	 x20:0x5620c000 x10=0x00000001
      108195000	     10818	800043a8	89140513	addi	x10,x8,-1903	  x8:0x80009fc4 x10=0x80009855
      108205000	     10819	800043ac	00000013	addi	x0,x0,0	  x0:0x00000000
      108215000	     10820	800043b0	00dd14b3	sll	x9,x26,x13	 x26:0x00000000 x13:0x00000305  x9=0x00000000
      108225000	     10821	800043b4	eb5cb817	auipc	x16,0xeb5cb	 x16=0x6b5cf3b0
      108235000	     10822	800043b8	025fc663	blt	x31,x5,800043e4	 x31:0x00000000  x5:0x00000000
      108245000	     10823	800043bc	00de2fb3	slt	x31,x28,x13	 x28:0x7fffc679 x13:0x00000305 x31=0x00000000
      108255000	     10824	800043c0	0256c663	blt	x13,x5,800043ec	 x13:0x00000305  x5:0x00000000
      108265000	     10825	800043c4	14987813	andi	x16,x16,329	 x16:0x6b5cf3b0 x16=0x00000100
      108275000	     10826	800043c8	91dbf613	andi	x12,x23,-1763	 x23:0x0830f39c x12=0x0830f11c
      108285000	     10827	800043cc	9c0dc093	xori	x1,x27,-1600	 x27:0x80009f14  x1=0x7fff66d4
      108295000	     10828	800043d0	f211d5b7	lui	x11,0xf211d	 x11=0xf211d000
      108305000	     10829	800043d4	d58c3713	sltiu	x14,x24,-680	 x24:0x00000000 x14=0x00000001
      108315000	     10830	800043d8	01686233	or	x4,x16,x22	 x16:0x00000100 x22:0x00000000  x4=0x00000100
      108325000	     10831	800043dc	018dd013	srli	x0,x27,0x18	 x27:0x80009f14
      108335000	     10832	800043e0	01720263	beq	x4,x23,800043e4	  x4:0x00000100 x23:0x0830f39c
      108345000	     10833	800043e4	011a8863	beq	x21,x17,800043f4	 x21:0x80009fc4 x17:0x0000000c
      108355000	     10834	800043e8	00094863	blt	x18,x0,800043f8	 x18:0x4f6632a8  x0:0x00000000
      108365000	     10835	800043ec	412f0833	sub	x16,x30,x18	 x30:0xc6550000 x18:0x4f6632a8 x16=0x76eecd58
      108375000	     10836	800043f0	40498fb3	sub	x31,x19,x4	 x19:0x7fffc41c  x4:0x00000100 x31=0x7fffc31c
      108385000	     10837	800043f4	02aaf063	bgeu	x21,x10,80004414	 x21:0x80009fc4 x10:0x80009855
      108395000	     10838	00000000	00000013	addi	x0,x0,0	  x0:0x00000000
      108405000	     10839	80004410	00000013	addi	x0,x0,0	  x0:0x00000000
      108415000	     10840	80004414	02a9f463	bgeu	x19,x10,8000443c	 x19:0x7fffc41c x10:0x80009855
      108425000	     10841	80004418	405fd313	srai	x6,x31,0x5	 x31:0x7fffc31c  x6=0x03fffe18
      108435000	     10842	8000441c	02099663	bne	x19,x0,80004448	 x19:0x7fffc41c  x0:0x00000000
      108445000	     10843	00000000	00000013	addi	x0,x0,0	  x0:0x00000000
      108455000	     10844	80004444	00000013	addi	x0,x0,0	  x0:0x00000000
      108465000	     10845	80004448	01639293	slli	x5,x7,0x16	  x7:0x80009fc4  x5=0xf1000000
      108475000	     10846	8000444c	417ed333	sra	x6,x29,x23	 x29:0x00000001 x23:0x0830f39c  x6=0x00000000
      108485000	     10847	80004450	0234f063	bgeu	x9,x3,80004470	  x9:0x00000000  x3:0x000004ba
      108495000	     10848	80004454	22348f93	addi	x31,x9,547	  x9:0x00000000 x31=0x00000223
      108505000	     10849	80004458	9e323e93	sltiu	x29,x4,-1565	  x4:0x00000100 x29=0x00000001
      108515000	     10850	8000445c	03fe0a63	beq	x28,x31,80004490	 x28:0x7fffc679 x31:0x00000223
      108525000	     10851	80004460	402b5a93	srai	x21,x22,0x2	 x22:0x00000000 x21=0x00000000
      108535000	     10852	80004464	0365c463	blt	x11,x22,8000448c	 x11:0xf211d000 x22:0x00000000
      108545000	     10853	00000000	00000013	addi	x0,x0,0	  x0:0x00000000
      108555000	     10854	80004488	00000013	addi	x0,x0,0	  x0:0x00000000
      108565000	     10855	8000448c	6ff08313	addi	x6,x1,1791	  x1:0x7fff66d4  x6=0x7fff6dd3
      108575000	     10856	80004490	0a80c663	blt	x1,x8,8000453c	  x1:0x7fff66d4  x8:0x80009fc4
      108585000	     10857	80004494	011e90b3	sll	x1,x29,x17	 x29:0x00000001 x17:0x0000000c  x1=0x00001000
      108595000	     10858	80004498	00823bb3	sltu	x23,x4,x8	  x4:0x00000100  x8:0x80009fc4 x23=0x00000001
      108605000	     10859	8000449c	011bb033	sltu	x0,x23,x17	 x23:0x00000001 x17:0x0000000c
      108615000	     10860	800044a0	57f17b97	auipc	x23,0x57f17	 x23=0xd7f1b49c
      108625000	     10861	800044a4	c15f2293	slti	x5,x30,-1003	 x30:0xc6550000  x5=0x00000001
      108635000	     10862	800044a8	4010d9b3	sra	x19,x1,x1	  x1:0x00001000  x1:0x00001000 x19=0x00001000
      108645000	     10863	800044ac	060000ef	jal	x1,800044ac	  x1=0x800044ac
      108655000	     10864	00000000	00000013	addi	x0,x0,0	  x0:0x00000000
      108665000	     10865	80004508	00000013	addi	x0,x0,0	  x0:0x00000000
      108675000	     10866	8000450c	fb9ff0ef	jal	x1,8000450c	  x1=0x8000450c
      108685000	     10867	00000000	00000013	addi	x0,x0,0	  x0:0x00000000
      108695000	     10868	800044c0	00000013	addi	x0,x0,0	  x0:0x00000000
      108705000	     10869	800044c4	00800e6f	jal	x28,800044c4	 x28=0x800044c4
      108715000	     10870	00000000	00000013	addi	x0,x0,0	  x0:0x00000000
      108725000	     10871	800044c8	00000013	addi	x0,x0,0	  x0:0x00000000
      108735000	     10872	800044cc	034000ef	jal	x1,800044cc	  x1=0x800044cc
      108745000	     10873	00000000	00000013	addi	x0,x0,0	  x0:0x00000000
      108755000	     10874	800044fc	00000013	addi	x0,x0,0	  x0:0x00000000
      108765000	     10875	80004500	fd5ff0ef	jal	x1,80004500	  x1=0x80004500
      108775000	     10876	00000000	00000013	addi	x0,x0,0	  x0:0x00000000
      108785000	     10877	800044d0	00000013	addi	x0,x0,0	  x0:0x00000000
      108795000	     10878	800044d4	01c0076f	jal	x14,800044d4	 x14=0x800044d4
      108805000	     10879	00000000	00000013	addi	x0,x0,0	  x0:0x00000000
      108815000	     10880	800044ec	00000013	addi	x0,x0,0	  x0:0x00000000
      108825000	     10881	800044f0	fcdff0ef	jal	x1,800044f0	  x1=0x800044f0
      108835000	     10882	00000000	00000013	addi	x0,x0,0	  x0:0x00000000
      108845000	     10883	800044b8	00000013	addi	x0,x0,0	  x0:0x00000000
      108855000	     10884	800044bc	ff5ff0ef	jal	x1,800044bc	  x1=0x800044bc
      108865000	     10885	00000000	00000013	addi	x0,x0,0	  x0:0x00000000
      108875000	     10886	800044ac	00000013	addi	x0,x0,0	  x0:0x00000000
      108885000	     10887	800044b0	048000ef	jal	x1,800044b0	  x1=0x800044b0
      108895000	     10888	00000000	00000013	addi	x0,x0,0	  x0:0x00000000
      108905000	     10889	800044f4	00000013	addi	x0,x0,0	  x0:0x00000000
      108915000	     10890	800044f8	ffdff0ef	jal	x1,800044f8	  x1=0x800044f8
      108925000	     10891	00000000	00000013	addi	x0,x0,0	  x0:0x00000000
      108935000	     10892	800044f0	00000013	addi	x0,x0,0	  x0:0x00000000
      108945000	     10893	800044f4	fd5ff36f	jal	x6,800044f4	  x6=0x800044f4
      108955000	     10894	00000000	00000013	addi	x0,x0,0	  x0:0x00000000
      108965000	     10895	800044c4	00000013	addi	x0,x0,0	  x0:0x00000000
      108975000	     10896	800044c8	008000ef	jal	x1,800044c8	  x1=0x800044c8
      108985000	     10897	00000000	00000013	addi	x0,x0,0	  x0:0x00000000
      108995000	     10898	800044cc	00000013	addi	x0,x0,0	  x0:0x00000000
      109005000	     10899	800044d0	00c001ef	jal	x3,800044d0	  x3=0x800044d0
      109015000	     10900	00000000	00000013	addi	x0,x0,0	  x0:0x00000000
      109025000	     10901	800044d8	00000013	addi	x0,x0,0	  x0:0x00000000
      109035000	     10902	800044dc	010000ef	jal	x1,800044dc	  x1=0x800044dc
      109045000	     10903	00000000	00000013	addi	x0,x0,0	  x0:0x00000000
      109055000	     10904	800044e8	00000013	addi	x0,x0,0	  x0:0x00000000
      109065000	     10905	800044ec	010006ef	jal	x13,800044ec	 x13=0x800044ec
      109075000	     10906	00000000	00000013	addi	x0,x0,0	  x0:0x00000000
      109085000	     10907	800044f8	00000013	addi	x0,x0,0	  x0:0x00000000
      109095000	     10908	800044fc	fddff36f	jal	x6,800044fc	  x6=0x800044fc
      109105000	     10909	00000000	00000013	addi	x0,x0,0	  x0:0x00000000
      109115000	     10910	800044d4	00000013	addi	x0,x0,0	  x0:0x00000000
      109125000	     10911	800044d8	fe1ff0ef	jal	x1,800044d8	  x1=0x800044d8
      109135000	     10912	00000000	00000013	addi	x0,x0,0	  x0:0x00000000
      109145000	     10913	800044b4	00000013	addi	x0,x0,0	  x0:0x00000000
      109155000	     10914	800044b8	04c000ef	jal	x1,800044b8	  x1=0x800044b8
      109165000	     10915	00000000	00000013	addi	x0,x0,0	  x0:0x00000000
      109175000	     10916	80004500	00000013	addi	x0,x0,0	  x0:0x00000000
      109185000	     10917	80004504	fe1ff36f	jal	x6,80004504	  x6=0x80004504
      109195000	     10918	00000000	00000013	addi	x0,x0,0	  x0:0x00000000
      109205000	     10919	800044e0	00000013	addi	x0,x0,0	  x0:0x00000000
      109215000	     10920	800044e4	02c0016f	jal	x2,800044e4	  x2=0x800044e4
      109225000	     10921	00000000	00000013	addi	x0,x0,0	  x0:0x00000000
      109235000	     10922	8000450c	00000013	addi	x0,x0,0	  x0:0x00000000
      109245000	     10923	80004510	fd1ff6ef	jal	x13,80004510	 x13=0x80004510
      109255000	     10924	00000000	00000013	addi	x0,x0,0	  x0:0x00000000
      109265000	     10925	800044dc	00000013	addi	x0,x0,0	  x0:0x00000000
      109275000	     10926	800044e0	028000ef	jal	x1,800044e0	  x1=0x800044e0
      109285000	     10927	00000000	00000013	addi	x0,x0,0	  x0:0x00000000
      109295000	     10928	80004504	00000013	addi	x0,x0,0	  x0:0x00000000
      109305000	     10929	80004508	fb9ff36f	jal	x6,80004508	  x6=0x80004508
      109315000	     10930	00000000	00000013	addi	x0,x0,0	  x0:0x00000000
      109325000	     10931	800044bc	00000013	addi	x0,x0,0	  x0:0x00000000
      109335000	     10932	800044c0	ff5fff6f	jal	x30,800044c0	 x30=0x800044c0
      109345000	     10933	00000000	00000013	addi	x0,x0,0	  x0:0x00000000
      109355000	     10934	800044b0	00000013	addi	x0,x0,0	  x0:0x00000000
      109365000	     10935	800044b4	034000ef	jal	x1,800044b4	  x1=0x800044b4
      109375000	     10936	00000000	00000013	addi	x0,x0,0	  x0:0x00000000
      109385000	     10937	800044e4	00000013	addi	x0,x0,0	  x0:0x00000000
      109395000	     10938	800044e8	02c0036f	jal	x6,800044e8	  x6=0x800044e8
      109405000	     10939	00000000	00000013	addi	x0,x0,0	  x0:0x00000000
      109415000	     10940	80004510	00000013	addi	x0,x0,0	  x0:0x00000000
      109425000	     10941	80004514	017d2933	slt	x18,x26,x23	 x26:0x00000000 x23:0xd7f1b49c x18=0x00000000
      109435000	     10942	80004518	00057fb3	and	x31,x10,x0	 x10:0x80009855  x0:0x00000000 x31=0x00000000
      109445000	     10943	8000451c	00338233	add	x4,x7,x3	  x7:0x80009fc4  x3:0x800044d0  x4=0x0000e494
      109455000	     10944	80004520	01dda233	slt	x4,x27,x29	 x27:0x80009f14 x29:0x00000001  x4=0x00000001
      109465000	     10945	80004524	3e666693	ori	x13,x12,998	 x12:0x0830f11c x13=0x0830f3fe
      109475000	     10946	80004528	55cd2093	slti	x1,x26,1372	 x26:0x00000000  x1=0x00000001
      109485000	     10947	8000452c	c3e72313	slti	x6,x14,-962	 x14:0x800044d4  x6=0x00000001
      109495000	     10948	80004530	0040d933	srl	x18,x1,x4	  x1:0x00000001  x4:0x00000001 x18=0x00000000
      109505000	     10949	80004534	005bfcb3	and	x25,x23,x5	 x23:0xd7f1b49c  x5:0x00000001 x25=0x00000000
      109515000	     10950	80004538	01a78933	add	x18,x15,x26	 x15:0x2ee3e000 x26:0x00000000 x18=0x2ee3e000
      109525000	     10951	8000453c	d3db7f93	andi	x31,x22,-707	 x22:0x00000000 x31=0x00000000
      109535000	     10952	80004540	00ab9b33	sll	x22,x23,x10	 x23:0xd7f1b49c x10:0x80009855 x22=0x93800000
      109545000	     10953	80004544	004da083	lw	x1,4(x27)	 x27:0x80009f14  x1=0x80004594 PA:0x80009f18
      109555000	     10954	80004548	00000013	addi	x0,x0,0	  x0:0x00000000
      109565000	     10955	8000454c	030d8d93	addi	x27,x27,48	 x27:0x80009f14 x27=0x80009f44
      109575000	     10956	80004550	0203a693	slti	x13,x7,32	  x7:0x80009fc4 x13=0x00000001
      109585000	     10957	80004554	00e9cfb3	xor	x31,x19,x14	 x19:0x00001000 x14:0x800044d4 x31=0x800054d4
      109595000	     10958	80004558	00108d13	addi	x26,x1,1	  x1:0x80004594 x26=0x80004595
      109605000	     10959	8000455c	000d0d67	jalr	x26,x26,0	 x26:0x80004595 x26=0x8000455c
      109615000	     10960	00000000	00000013	addi	x0,x0,0	  x0:0x00000000
      109625000	     10961	80004594	00000013	addi	x0,x0,0	  x0:0x00000000
      109635000	     10962	80004598	030000ef	jal	x1,80004598	  x1=0x80004598
      109645000	     10963	00000000	00000013	addi	x0,x0,0	  x0:0x00000000
      109655000	     10964	800045c4	00000013	addi	x0,x0,0	  x0:0x00000000
      109665000	     10965	800045c8	fe1ff2ef	jal	x5,800045c8	  x5=0x800045c8
      109675000	     10966	00000000	00000013	addi	x0,x0,0	  x0:0x00000000
      109685000	     10967	800045a4	00000013	addi	x0,x0,0	  x0:0x00000000
      109695000	     10968	800045a8	0080036f	jal	x6,800045a8	  x6=0x800045a8
      109705000	     10969	00000000	00000013	addi	x0,x0,0	  x0:0x00000000
      109715000	     10970	800045ac	00000013	addi	x0,x0,0	  x0:0x00000000
      109725000	     10971	800045b0	01c000ef	jal	x1,800045b0	  x1=0x800045b0
      109735000	     10972	00000000	00000013	addi	x0,x0,0	  x0:0x00000000
      109745000	     10973	800045c8	00000013	addi	x0,x0,0	  x0:0x00000000
      109755000	     10974	800045cc	ff5ff36f	jal	x6,800045cc	  x6=0x800045cc
      109765000	     10975	00000000	00000013	addi	x0,x0,0	  x0:0x00000000
      109775000	     10976	800045bc	00000013	addi	x0,x0,0	  x0:0x00000000
      109785000	     10977	800045c0	010000ef	jal	x1,800045c0	  x1=0x800045c0
      109795000	     10978	00000000	00000013	addi	x0,x0,0	  x0:0x00000000
      109805000	     10979	800045cc	00000013	addi	x0,x0,0	  x0:0x00000000
      109815000	     10980	800045d0	004000ef	jal	x1,800045d0	  x1=0x800045d0
      109825000	     10981	00000000	00000013	addi	x0,x0,0	  x0:0x00000000
      109835000	     10982	800045d0	00000013	addi	x0,x0,0	  x0:0x00000000
      109845000	     10983	800045d4	fe9ff66f	jal	x12,800045d4	 x12=0x800045d4
      109855000	     10984	00000000	00000013	addi	x0,x0,0	  x0:0x00000000
      109865000	     10985	800045b8	00000013	addi	x0,x0,0	  x0:0x00000000
      109875000	     10986	800045bc	ffdff0ef	jal	x1,800045bc	  x1=0x800045bc
      109885000	     10987	00000000	00000013	addi	x0,x0,0	  x0:0x00000000
      109895000	     10988	800045b4	00000013	addi	x0,x0,0	  x0:0x00000000
      109905000	     10989	800045b8	fedff66f	jal	x12,800045b8	 x12=0x800045b8
      109915000	     10990	00000000	00000013	addi	x0,x0,0	  x0:0x00000000
      109925000	     10991	800045a0	00000013	addi	x0,x0,0	  x0:0x00000000
      109935000	     10992	800045a4	ff9ff0ef	jal	x1,800045a4	  x1=0x800045a4
      109945000	     10993	00000000	00000013	addi	x0,x0,0	  x0:0x00000000
      109955000	     10994	80004598	00000013	addi	x0,x0,0	  x0:0x00000000
      109965000	     10995	8000459c	0180026f	jal	x4,8000459c	  x4=0x8000459c
      109975000	     10996	00000000	00000013	addi	x0,x0,0	  x0:0x00000000
      109985000	     10997	800045b0	00000013	addi	x0,x0,0	  x0:0x00000000
      109995000	     10998	800045b4	010000ef	jal	x1,800045b4	  x1=0x800045b4
      110005000	     10999	00000000	00000013	addi	x0,x0,0	  x0:0x00000000
      110015000	     11000	800045c0	00000013	addi	x0,x0,0	  x0:0x00000000
      110025000	     11001	800045c4	fe9ff36f	jal	x6,800045c4	  x6=0x800045c4
      110035000	     11002	00000000	00000013	addi	x0,x0,0	  x0:0x00000000
      110045000	     11003	800045a8	00000013	addi	x0,x0,0	  x0:0x00000000
      110055000	     11004	800045ac	ff5ff0ef	jal	x1,800045ac	  x1=0x800045ac
      110065000	     11005	00000000	00000013	addi	x0,x0,0	  x0:0x00000000
      110075000	     11006	8000459c	00000013	addi	x0,x0,0	  x0:0x00000000
      110085000	     11007	800045a0	038000ef	jal	x1,800045a0	  x1=0x800045a0
      110095000	     11008	00000000	00000013	addi	x0,x0,0	  x0:0x00000000
      110105000	     11009	800045d4	00000013	addi	x0,x0,0	  x0:0x00000000
      110115000	     11010	800045d8	01976233	or	x4,x14,x25	 x14:0x800044d4 x25:0x00000000  x4=0x800044d4
      110125000	     11011	800045dc	009b36b3	sltu	x13,x22,x9	 x22:0x93800000  x9:0x00000000 x13=0x00000000
      110135000	     11012	800045e0	0e7c7b13	andi	x22,x24,231	 x24:0x00000000 x22=0x00000000
      110145000	     11013	800045e4	40dbe913	ori	x18,x23,1037	 x23:0xd7f1b49c x18=0xd7f1b49d
      110155000	     11014	800045e8	00d06e33	or	x28,x0,x13	  x0:0x00000000 x13:0x00000000 x28=0x00000000
      110165000	     11015	800045ec	01348b33	add	x22,x9,x19	  x9:0x00000000 x19:0x00001000 x22=0x00001000
      110175000	     11016	800045f0	04101b37	lui	x22,0x4101	 x22=0x04101000
      110185000	     11017	800045f4	4167d0b3	sra	x1,x15,x22	 x15:0x2ee3e000 x22:0x04101000  x1=0x2ee3e000
      110195000	     11018	800045f8	00351633	sll	x12,x10,x3	 x10:0x80009855  x3:0x800044d0 x12=0x98550000
      110205000	     11019	800045fc	0e3e2f17	auipc	x30,0xe3e2	 x30=0x8e3e65f8
      110215000	     11020	80004600	01c94133	xor	x2,x18,x28	 x18:0xd7f1b49d x28:0x00000000  x2=0xd7f1b49d
      110225000	     11021	80004604	011c1793	slli	x15,x24,0x11	 x24:0x00000000 x15=0x00000000
      110235000	     11022	80004608	006464b3	or	x9,x8,x6	  x8:0x80009fc4  x6:0x800045c4  x9=0x8000dfc4
      110245000	     11023	8000460c	41610d33	sub	x26,x2,x22	  x2:0xd7f1b49d x22:0x04101000 x26=0xd3e1a49d
      110255000	     11024	80004610	86334213	xori	x4,x6,-1949	  x6:0x800045c4  x4=0x7fffbda7
      110265000	     11025	80004614	6a450713	addi	x14,x10,1700	 x10:0x80009855 x14=0x80009ef9
      110275000	     11026	80004618	8ae96493	ori	x9,x18,-1874	 x18:0xd7f1b49d  x9=0xfffffcbf
      110285000	     11027	8000461c	009ccc33	xor	x24,x25,x9	 x25:0x00000000  x9:0xfffffcbf x24=0xfffffcbf
      110295000	     11028	80004620	002fdf93	srli	x31,x31,0x2	 x31:0x800054d4 x31=0x20001535
      110305000	     11029	80004624	40750d33	sub	x26,x10,x7	 x10:0x80009855  x7:0x80009fc4 x26=0xfffff891
      110315000	     11030	80004628	000bdb13	srli	x22,x23,0x0	 x23:0xd7f1b49c x22=0xd7f1b49c
      110325000	     11031	8000462c	c040f193	andi	x3,x1,-1020	  x1:0x2ee3e000  x3=0x2ee3e000
      110335000	     11032	80004630	0192d093	srli	x1,x5,0x19	  x5:0x800045c8  x1=0x00000040
      110345000	     11033	80004634	0422f663	bgeu	x5,x2,80004680	  x5:0x800045c8  x2:0xd7f1b49d
      110355000	     11034	80004638	0184e663	bltu	x9,x24,80004644	  x9:0xfffffcbf x24:0xfffffcbf
      110365000	     11035	8000463c	0097da13	srli	x20,x15,0x9	 x15:0x00000000 x20=0x00000000
      110375000	     11036	80004640	00000013	addi	x0,x0,0	  x0:0x00000000
      110385000	     11037	80004644	05bbe863	bltu	x23,x27,80004694	 x23:0xd7f1b49c x27:0x80009f44
      110395000	     11038	80004648	00912e33	slt	x28,x2,x9	  x2:0xd7f1b49d  x9:0xfffffcbf x28=0x00000001
      110405000	     11039	8000464c	4171de33	sra	x28,x3,x23	  x3:0x2ee3e000 x23:0xd7f1b49c x28=0x00000002
      110415000	     11040	80004650	ebe45a17	auipc	x20,0xebe45	 x20=0x6be4964c
      110425000	     11041	80004654	e9c9e013	ori	x0,x19,-356	 x19:0x00001000
      110435000	     11042	80004658	00000013	addi	x0,x0,0	  x0:0x00000000
      110445000	     11043	8000465c	00ab5663	bge	x22,x10,80004668	 x22:0xd7f1b49c x10:0x80009855
      110455000	     11044	00000000	00000013	addi	x0,x0,0	  x0:0x00000000
      110465000	     11045	80004664	00000013	addi	x0,x0,0	  x0:0x00000000
      110475000	     11046	80004668	00000013	addi	x0,x0,0	  x0:0x00000000
      110485000	     11047	8000466c	01b91813	slli	x16,x18,0x1b	 x18:0xd7f1b49d x16=0xe8000000
      110495000	     11048	80004670	017c1e63	bne	x24,x23,8000468c	 x24:0xfffffcbf x23:0xd7f1b49c
      110505000	     11049	00000000	00000013	addi	x0,x0,0	  x0:0x00000000
      110515000	     11050	80004688	00000013	addi	x0,x0,0	  x0:0x00000000
      110525000	     11051	8000468c	ff10bd13	sltiu	x26,x1,-15	  x1:0x00000040 x26=0x00000001
      110535000	     11052	80004690	016cd813	srli	x16,x25,0x16	 x25:0x00000000 x16=0x00000000
      110545000	     11053	80004694	057ac463	blt	x21,x23,800046dc	 x21:0x00000000 x23:0xd7f1b49c
      110555000	     11054	80004698	402c8fb3	sub	x31,x25,x2	 x25:0x00000000  x2:0xd7f1b49d x31=0x280e4b63
      110565000	     11055	8000469c	01e42633	slt	x12,x8,x30	  x8:0x80009fc4 x30:0x8e3e65f8 x12=0x00000001
      110575000	     11056	800046a0	3b3ebc93	sltiu	x25,x29,947	 x29:0x00000001 x25=0x00000001
      110585000	     11057	800046a4	412ed213	srai	x4,x29,0x12	 x29:0x00000001  x4=0x00000000
      110595000	     11058	800046a8	05900463	beq	x0,x25,800046f0	  x0:0x00000000 x25:0x00000001
      110605000	     11059	800046ac	58040e13	addi	x28,x8,1408	  x8:0x80009fc4 x28=0x8000a544
      110615000	     11060	800046b0	40f85533	sra	x10,x16,x15	 x16:0x00000000 x15:0x00000000 x10=0x00000000
      110625000	     11061	800046b4	ee076e13	ori	x28,x14,-288	 x14:0x80009ef9 x28=0xfffffef9
      110635000	     11062	800046b8	00d15793	srli	x15,x2,0xd	  x2:0xd7f1b49d x15=0x0006bf8d
      110645000	     11063	800046bc	00393233	sltu	x4,x18,x3	 x18:0xd7f1b49d  x3:0x2ee3e000  x4=0x00000000
      110655000	     11064	800046c0	ca262813	slti	x16,x12,-862	 x12:0x00000001 x16=0x00000000
      110665000	     11065	800046c4	01eefe33	and	x28,x29,x30	 x29:0x00000001 x30:0x8e3e65f8 x28=0x00000000
      110675000	     11066	800046c8	04061463	bne	x12,x0,80004710	 x12:0x00000001  x0:0x00000000
      110685000	     11067	00000000	00000013	addi	x0,x0,0	  x0:0x00000000
      110695000	     11068	8000470c	00000013	addi	x0,x0,0	  x0:0x00000000
      110705000	     11069	80004710	99567b93	andi	x23,x12,-1643	 x12:0x00000001 x23=0x00000001
      110715000	     11070	80004714	019646b3	xor	x13,x12,x25	 x12:0x00000001 x25:0x00000001 x13=0x00000000
      110725000	     11071	80004718	00ab6bb3	or	x23,x22,x10	 x22:0xd7f1b49c x10:0x00000000 x23=0xd7f1b49c
      110735000	     11072	8000471c	00255c63	bge	x10,x2,80004734	 x10:0x00000000  x2:0xd7f1b49d
      110745000	     11073	00000000	00000013	addi	x0,x0,0	  x0:0x00000000
      110755000	     11074	80004730	00000013	addi	x0,x0,0	  x0:0x00000000
      110765000	     11075	80004734	2ac42093	slti	x1,x8,684	  x8:0x80009fc4  x1=0x00000001
      110775000	     11076	80004738	0583f913	andi	x18,x7,88	  x7:0x80009fc4 x18=0x00000040
      110785000	     11077	8000473c	780a7713	andi	x14,x20,1920	 x20:0x6be4964c x14=0x00000600
      110795000	     11078	80004740	01e4d293	srli	x5,x9,0x1e	  x9:0xfffffcbf  x5=0x00000003
      110805000	     11079	80004744	00728b33	add	x22,x5,x7	  x5:0x00000003  x7:0x80009fc4 x22=0x80009fc7
      110815000	     11080	80004748	00000013	addi	x0,x0,0	  x0:0x00000000
      110825000	     11081	8000474c	0111ad33	slt	x26,x3,x17	  x3:0x2ee3e000 x17:0x0000000c x26=0x00000000
      110835000	     11082	80004750	01c4d193	srli	x3,x9,0x1c	  x9:0xfffffcbf  x3=0x0000000f
      110845000	     11083	80004754	004b0633	add	x12,x22,x4	 x22:0x80009fc7  x4:0x00000000 x12=0x80009fc7
      110855000	     11084	80004758	484b2e37	lui	x28,0x484b2	 x28=0x484b2000
      110865000	     11085	8000475c	004da083	lw	x1,4(x27)	 x27:0x80009f44  x1=0x800001d4 PA:0x80009f48
      110875000	     11086	80004760	00fede93	srli	x29,x29,0xf	 x29:0x00000001 x29=0x00000000
      110885000	     11087	80004764	0009f5b3	and	x11,x19,x0	 x19:0x00001000  x0:0x00000000 x11=0x00000000
      110895000	     11088	80004768	009c21b3	slt	x3,x24,x9	 x24:0xfffffcbf  x9:0xfffffcbf  x3=0x00000000
      110905000	     11089	8000476c	040d8d93	addi	x27,x27,64	 x27:0x80009f44 x27=0x80009f84
      110915000	     11090	80004770	0580eb13	ori	x22,x1,88	  x1:0x800001d4 x22=0x800001dc
      110925000	     11091	80004774	00008093	addi	x1,x1,0	  x1:0x800001d4  x1=0x800001d4
      110935000	     11092	80004778	000080e7	jalr	x1,x1,0	  x1:0x800001d4  x1=0x80004778
      110945000	     11093	00000000	00000013	addi	x0,x0,0	  x0:0x00000000
      110955000	     11094	800001d4	00000013	addi	x0,x0,0	  x0:0x00000000
      110965000	     11095	800001d8	53dfce93	xori	x29,x31,1341	 x31:0x280e4b63 x29=0x280e4e5e
      110975000	     11096	800001dc	00dff7b3	and	x15,x31,x13	 x31:0x280e4b63 x13:0x00000000 x15=0x00000000
      110985000	     11097	800001e0	4165d193	srai	x3,x11,0x16	 x11:0x00000000  x3=0x00000000
      110995000	     11098	800001e4	6b39b693	sltiu	x13,x19,1715	 x19:0x00001000 x13=0x00000000
      111005000	     11099	800001e8	01c94663	blt	x18,x28,800001f4	 x18:0x00000040 x28:0x484b2000
      111015000	     11100	00000000	00000013	addi	x0,x0,0	  x0:0x00000000
      111025000	     11101	800001f0	00000013	addi	x0,x0,0	  x0:0x00000000
      111035000	     11102	800001f4	01a55c33	srl	x24,x10,x26	 x10:0x00000000 x26:0x00000000 x24=0x00000000
      111045000	     11103	800001f8	012e4263	blt	x28,x18,800001fc	 x28:0x484b2000 x18:0x00000040
      111055000	     11104	800001fc	41195ab3	sra	x21,x18,x17	 x18:0x00000040 x17:0x0000000c x21=0x00000000
      111065000	     11105	80000200	01790ab3	add	x21,x18,x23	 x18:0x00000040 x23:0xd7f1b49c x21=0xd7f1b4dc
      111075000	     11106	80000204	00741263	bne	x8,x7,80000208	  x8:0x80009fc4  x7:0x80009fc4
      111085000	     11107	80000208	011ba233	slt	x4,x23,x17	 x23:0xd7f1b49c x17:0x0000000c  x4=0x00000001
      111095000	     11108	8000020c	00e53033	sltu	x0,x10,x14	 x10:0x00000000 x14:0x00000600
      111105000	     11109	80000210	40ccda33	sra	x20,x25,x12	 x25:0x00000001 x12:0x80009fc7 x20=0x00000000
      111115000	     11110	80000214	019b9463	bne	x23,x25,8000021c	 x23:0xd7f1b49c x25:0x00000001
      111125000	     11111	00000000	00000013	addi	x0,x0,0	  x0:0x00000000
      111135000	     11112	80000218	00000013	addi	x0,x0,0	  x0:0x00000000
      111145000	     11113	8000021c	0035f033	and	x0,x11,x3	 x11:0x00000000  x3:0x00000000
      111155000	     11114	80000220	009ffbb3	and	x23,x31,x9	 x31:0x280e4b63  x9:0xfffffcbf x23=0x280e4823
      111165000	     11115	80000224	09b75e63	bge	x14,x27,800002c0	 x14:0x00000600 x27:0x80009f84
      111175000	     11116	00000000	00000013	addi	x0,x0,0	  x0:0x00000000
      111185000	     11117	800002bc	00000013	addi	x0,x0,0	  x0:0x00000000
      111195000	     11118	800002c0	3131c993	xori	x19,x3,787	  x3:0x00000000 x19=0x00000313
      111205000	     11119	800002c4	00000897	auipc	x17,0x0	 x17=0x800002c0
      111215000	     11120	800002c8	00c88893	addi	x17,x17,12	 x17:0x800002c0 x17=0x800002cc
      111225000	     11121	800002cc	00088067	jalr	x0,x17,0	 x17:0x800002cc
      111235000	     11122	00000000	00000013	addi	x0,x0,0	  x0:0x00000000
      111245000	     11123	800002cc	00000013	addi	x0,x0,0	  x0:0x00000000
      111255000	     11124	800002d0	00100193	addi	x3,x0,1	  x0:0x00000000  x3=0x00000001
      111265000	     11125	800002d4	00000073	ecall	
      111275000	     11126	800002d8	01885863	bge	x16,x24,800002e8	 x16:0x00000000 x24:0x00000000
