		Time			Cycle	PC		Insn	Decoded instruction	Register and memory contents
          65000	         5	80000004	00000293	addi	x5,x0,0	  x0:0x00000000  x5=0x00000000
          75000	         6	80000008	00000313	addi	x6,x0,0	  x0:0x00000000  x6=0x00000000
          85000	         7	8000000c	00628263	beq	x5,x6,80000010	  x5:0x00000000  x6:0x00000000
          95000	         8	00000000	00000013	addi	x0,x0,0	  x0:0x00000000
         105000	         9	8000000c	00000013	addi	x0,x0,0	  x0:0x00000000
         115000	        10	80000010	00000317	auipc	x6,0x0	  x6=0x8000000c
         125000	        11	80000014	00c30313	addi	x6,x6,12	  x6:0x8000000c  x6=0x80000018
         135000	        12	80000018	00030067	jalr	x0,x6,0	  x6:0x80000018
         145000	        13	00000000	00000013	addi	x0,x0,0	  x0:0x00000000
         155000	        14	80000018	00000013	addi	x0,x0,0	  x0:0x00000000
         165000	        15	8000001c	40000a37	lui	x20,0x40000	 x20=0x40000000
         175000	        16	80000020	100a0a13	addi	x20,x20,256	 x20:0x40000000 x20=0x40000100
         185000	        17	80000024	00000013	addi	x0,x0,0	  x0:0x00000000
         195000	        18	80000028	0000ae97	auipc	x29,0xa	 x29=0x8000a024
         205000	        19	8000002c	fa0e8e93	addi	x29,x29,-96	 x29:0x8000a024 x29=0x80009fc4
         215000	        20	80000030	00005a17	auipc	x20,0x5	 x20=0x8000502c
         225000	        21	80000034	fa4a0a13	addi	x20,x20,-92	 x20:0x8000502c x20=0x80004fd0
         235000	        22	80000038	001a6a13	ori	x20,x20,1	 x20:0x80004fd0 x20=0x80004fd1
         245000	        23	8000003c	00000013	addi	x0,x0,0	  x0:0x00000000
         255000	        24	80000040	00000a17	auipc	x20,0x0	 x20=0x8000003c
         265000	        25	80000044	020a0a13	addi	x20,x20,32	 x20:0x8000003c x20=0x8000005c
         275000	        26	80000048	00000013	addi	x0,x0,0	  x0:0x00000000
         285000	        27	8000004c	00000013	addi	x0,x0,0	  x0:0x00000000
         295000	        28	80000050	00002a37	lui	x20,0x2	 x20=0x00002000
         305000	        29	80000054	800a0a13	addi	x20,x20,-2048	 x20:0x00002000 x20=0x00001800
         315000	        30	80000058	00000013	addi	x0,x0,0	  x0:0x00000000
         325000	        31	8000005c	00000013	addi	x0,x0,0	  x0:0x00000000
         335000	        32	80000060	00b00013	addi	x0,x0,11	  x0:0x00000000
         345000	        33	80000064	800000b7	lui	x1,0x80000	  x1=0x80000000
         355000	        34	80000068	00000113	addi	x2,x0,0	  x0:0x00000000  x2=0x00000000
         365000	        35	8000006c	00000193	addi	x3,x0,0	  x0:0x00000000  x3=0x00000000
         375000	        36	80000070	00000213	addi	x4,x0,0	  x0:0x00000000  x4=0x00000000
         385000	        37	80000074	fe87f2b7	lui	x5,0xfe87f	  x5=0xfe87f000
         395000	        38	80000078	6d428293	addi	x5,x5,1748	  x5:0xfe87f000  x5=0xfe87f6d4
         405000	        39	8000007c	00900313	addi	x6,x0,9	  x0:0x00000000  x6=0x00000009
         415000	        40	80000080	00300393	addi	x7,x0,3	  x0:0x00000000  x7=0x00000003
         425000	        41	80000084	fccdd437	lui	x8,0xfccdd	  x8=0xfccdd000
         435000	        42	80000088	40040413	addi	x8,x8,1024	  x8:0xfccdd000  x8=0xfccdd400
         445000	        43	8000008c	00c00493	addi	x9,x0,12	  x0:0x00000000  x9=0x0000000c
         455000	        44	80000090	dc66f537	lui	x10,0xdc66f	 x10=0xdc66f000
         465000	        45	80000094	41f50513	addi	x10,x10,1055	 x10:0xdc66f000 x10=0xdc66f41f
         475000	        46	80000098	800005b7	lui	x11,0x80000	 x11=0x80000000
         485000	        47	8000009c	00d00613	addi	x12,x0,13	  x0:0x00000000 x12=0x0000000d
         495000	        48	800000a0	800006b7	lui	x13,0x80000	 x13=0x80000000
         505000	        49	800000a4	f4176737	lui	x14,0xf4176	 x14=0xf4176000
         515000	        50	800000a8	84f70713	addi	x14,x14,-1969	 x14:0xf4176000 x14=0xf417584f
         525000	        51	800000ac	00800793	addi	x15,x0,8	  x0:0x00000000 x15=0x00000008
         535000	        52	800000b0	f179a837	lui	x16,0xf179a	 x16=0xf179a000
         545000	        53	800000b4	ddc80813	addi	x16,x16,-548	 x16:0xf179a000 x16=0xf1799ddc
         555000	        54	800000b8	800008b7	lui	x17,0x80000	 x17=0x80000000
         565000	        55	800000bc	5f5479b7	lui	x19,0x5f547	 x19=0x5f547000
         575000	        56	800000c0	b8498993	addi	x19,x19,-1148	 x19:0x5f547000 x19=0x5f546b84
         585000	        57	800000c4	00400a13	addi	x20,x0,4	  x0:0x00000000 x20=0x00000004
         595000	        58	800000c8	00000a93	addi	x21,x0,0	  x0:0x00000000 x21=0x00000000
         605000	        59	800000cc	80000b37	lui	x22,0x80000	 x22=0x80000000
         615000	        60	800000d0	f38dfbb7	lui	x23,0xf38df	 x23=0xf38df000
         625000	        61	800000d4	eafb8b93	addi	x23,x23,-337	 x23:0xf38df000 x23=0xf38deeaf
         635000	        62	800000d8	f209dc37	lui	x24,0xf209d	 x24=0xf209d000
         645000	        63	800000dc	267c0c13	addi	x24,x24,615	 x24:0xf209d000 x24=0xf209d267
         655000	        64	800000e0	00400c93	addi	x25,x0,4	  x0:0x00000000 x25=0x00000004
         665000	        65	800000e4	00300d13	addi	x26,x0,3	  x0:0x00000000 x26=0x00000003
         675000	        66	800000e8	00300d93	addi	x27,x0,3	  x0:0x00000000 x27=0x00000003
         685000	        67	800000ec	f8b2ee37	lui	x28,0xf8b2e	 x28=0xf8b2e000
         695000	        68	800000f0	287e0e13	addi	x28,x28,647	 x28:0xf8b2e000 x28=0xf8b2e287
         705000	        69	800000f4	db29af37	lui	x30,0xdb29a	 x30=0xdb29a000
         715000	        70	800000f8	f32f0f13	addi	x30,x30,-206	 x30:0xdb29a000 x30=0xdb299f32
         725000	        71	800000fc	00000f93	addi	x31,x0,0	  x0:0x00000000 x31=0x00000000
         735000	        72	80000100	0000a917	auipc	x18,0xa	 x18=0x8000a0fc
         745000	        73	80000104	e8890913	addi	x18,x18,-376	 x18:0x8000a0fc x18=0x80009f84
         755000	        74	80000108	01400c6f	jal	x24,80000108	 x24=0x80000108
         765000	        75	00000000	00000013	addi	x0,x0,0	  x0:0x00000000
         775000	        76	80000118	00000013	addi	x0,x0,0	  x0:0x00000000
         785000	        77	8000011c	04c00def	jal	x27,8000011c	 x27=0x8000011c
         795000	        78	00000000	00000013	addi	x0,x0,0	  x0:0x00000000
         805000	        79	80000164	00000013	addi	x0,x0,0	  x0:0x00000000
         815000	        80	80000168	fd9ff0ef	jal	x1,80000168	  x1=0x80000168
         825000	        81	00000000	00000013	addi	x0,x0,0	  x0:0x00000000
         835000	        82	8000013c	00000013	addi	x0,x0,0	  x0:0x00000000
         845000	        83	80000140	fd9ff0ef	jal	x1,80000140	  x1=0x80000140
         855000	        84	00000000	00000013	addi	x0,x0,0	  x0:0x00000000
         865000	        85	80000114	00000013	addi	x0,x0,0	  x0:0x00000000
         875000	        86	80000118	ffdfff6f	jal	x30,80000118	 x30=0x80000118
         885000	        87	00000000	00000013	addi	x0,x0,0	  x0:0x00000000
         895000	        88	80000110	00000013	addi	x0,x0,0	  x0:0x00000000
         905000	        89	80000114	0180026f	jal	x4,80000114	  x4=0x80000114
         915000	        90	00000000	00000013	addi	x0,x0,0	  x0:0x00000000
         925000	        91	80000128	00000013	addi	x0,x0,0	  x0:0x00000000
         935000	        92	8000012c	020006ef	jal	x13,8000012c	 x13=0x8000012c
         945000	        93	00000000	00000013	addi	x0,x0,0	  x0:0x00000000
         955000	        94	80000148	00000013	addi	x0,x0,0	  x0:0x00000000
         965000	        95	8000014c	fc1ff0ef	jal	x1,8000014c	  x1=0x8000014c
         975000	        96	00000000	00000013	addi	x0,x0,0	  x0:0x00000000
         985000	        97	80000108	00000013	addi	x0,x0,0	  x0:0x00000000
         995000	        98	8000010c	044000ef	jal	x1,8000010c	  x1=0x8000010c
        1005000	        99	00000000	00000013	addi	x0,x0,0	  x0:0x00000000
        1015000	       100	8000014c	00000013	addi	x0,x0,0	  x0:0x00000000
        1025000	       101	80000150	fedff0ef	jal	x1,80000150	  x1=0x80000150
        1035000	       102	00000000	00000013	addi	x0,x0,0	  x0:0x00000000
        1045000	       103	80000138	00000013	addi	x0,x0,0	  x0:0x00000000
        1055000	       104	8000013c	030000ef	jal	x1,8000013c	  x1=0x8000013c
        1065000	       105	00000000	00000013	addi	x0,x0,0	  x0:0x00000000
        1075000	       106	80000168	00000013	addi	x0,x0,0	  x0:0x00000000
        1085000	       107	8000016c	fcdff0ef	jal	x1,8000016c	  x1=0x8000016c
        1095000	       108	00000000	00000013	addi	x0,x0,0	  x0:0x00000000
        1105000	       109	80000134	00000013	addi	x0,x0,0	  x0:0x00000000
        1115000	       110	80000138	02c00aef	jal	x21,80000138	 x21=0x80000138
        1125000	       111	00000000	00000013	addi	x0,x0,0	  x0:0x00000000
        1135000	       112	80000160	00000013	addi	x0,x0,0	  x0:0x00000000
        1145000	       113	80000164	fadff2ef	jal	x5,80000164	  x5=0x80000164
        1155000	       114	00000000	00000013	addi	x0,x0,0	  x0:0x00000000
        1165000	       115	8000010c	00000013	addi	x0,x0,0	  x0:0x00000000
        1175000	       116	80000110	050001ef	jal	x3,80000110	  x3=0x80000110
        1185000	       117	00000000	00000013	addi	x0,x0,0	  x0:0x00000000
        1195000	       118	8000015c	00000013	addi	x0,x0,0	  x0:0x00000000
        1205000	       119	80000160	fd5ff0ef	jal	x1,80000160	  x1=0x80000160
        1215000	       120	00000000	00000013	addi	x0,x0,0	  x0:0x00000000
        1225000	       121	80000130	00000013	addi	x0,x0,0	  x0:0x00000000
        1235000	       122	80000134	ff5ff0ef	jal	x1,80000134	  x1=0x80000134
        1245000	       123	00000000	00000013	addi	x0,x0,0	  x0:0x00000000
        1255000	       124	80000124	00000013	addi	x0,x0,0	  x0:0x00000000
        1265000	       125	80000128	02000def	jal	x27,80000128	 x27=0x80000128
        1275000	       126	00000000	00000013	addi	x0,x0,0	  x0:0x00000000
        1285000	       127	80000144	00000013	addi	x0,x0,0	  x0:0x00000000
        1295000	       128	80000148	00c000ef	jal	x1,80000148	  x1=0x80000148
        1305000	       129	00000000	00000013	addi	x0,x0,0	  x0:0x00000000
        1315000	       130	80000150	00000013	addi	x0,x0,0	  x0:0x00000000
        1325000	       131	80000154	ff1ff0ef	jal	x1,80000154	  x1=0x80000154
        1335000	       132	00000000	00000013	addi	x0,x0,0	  x0:0x00000000
        1345000	       133	80000140	00000013	addi	x0,x0,0	  x0:0x00000000
        1355000	       134	80000144	014000ef	jal	x1,80000144	  x1=0x80000144
        1365000	       135	00000000	00000013	addi	x0,x0,0	  x0:0x00000000
        1375000	       136	80000154	00000013	addi	x0,x0,0	  x0:0x00000000
        1385000	       137	80000158	00400e6f	jal	x28,80000158	 x28=0x80000158
        1395000	       138	00000000	00000013	addi	x0,x0,0	  x0:0x00000000
        1405000	       139	80000158	00000013	addi	x0,x0,0	  x0:0x00000000
        1415000	       140	8000015c	fc9ff26f	jal	x4,8000015c	  x4=0x8000015c
        1425000	       141	00000000	00000013	addi	x0,x0,0	  x0:0x00000000
        1435000	       142	80000120	00000013	addi	x0,x0,0	  x0:0x00000000
        1445000	       143	80000124	00c000ef	jal	x1,80000124	  x1=0x80000124
        1455000	       144	00000000	00000013	addi	x0,x0,0	  x0:0x00000000
        1465000	       145	8000012c	00000013	addi	x0,x0,0	  x0:0x00000000
        1475000	       146	80000130	ff1ff0ef	jal	x1,80000130	  x1=0x80000130
        1485000	       147	00000000	00000013	addi	x0,x0,0	  x0:0x00000000
        1495000	       148	8000011c	00000013	addi	x0,x0,0	  x0:0x00000000
        1505000	       149	80000120	050000ef	jal	x1,80000120	  x1=0x80000120
        1515000	       150	00000000	00000013	addi	x0,x0,0	  x0:0x00000000
        1525000	       151	8000016c	00000013	addi	x0,x0,0	  x0:0x00000000
        1535000	       152	80000170	c8a7c893	xori	x17,x15,-886	 x15:0x00000008 x17=0xfffffc82
        1545000	       153	80000174	00c00c6f	jal	x24,80000174	 x24=0x80000174
        1555000	       154	00000000	00000013	addi	x0,x0,0	  x0:0x00000000
        1565000	       155	8000017c	00000013	addi	x0,x0,0	  x0:0x00000000
        1575000	       156	80000180	010000ef	jal	x1,80000180	  x1=0x80000180
        1585000	       157	00000000	00000013	addi	x0,x0,0	  x0:0x00000000
        1595000	       158	8000018c	00000013	addi	x0,x0,0	  x0:0x00000000
        1605000	       159	80000190	fe9ff0ef	jal	x1,80000190	  x1=0x80000190
        1615000	       160	00000000	00000013	addi	x0,x0,0	  x0:0x00000000
        1625000	       161	80000174	00000013	addi	x0,x0,0	  x0:0x00000000
        1635000	       162	80000178	01c000ef	jal	x1,80000178	  x1=0x80000178
        1645000	       163	00000000	00000013	addi	x0,x0,0	  x0:0x00000000
        1655000	       164	80000190	00000013	addi	x0,x0,0	  x0:0x00000000
        1665000	       165	80000194	fe9ff0ef	jal	x1,80000194	  x1=0x80000194
        1675000	       166	00000000	00000013	addi	x0,x0,0	  x0:0x00000000
        1685000	       167	80000178	00000013	addi	x0,x0,0	  x0:0x00000000
        1695000	       168	8000017c	02c000ef	jal	x1,8000017c	  x1=0x8000017c
        1705000	       169	00000000	00000013	addi	x0,x0,0	  x0:0x00000000
        1715000	       170	800001a4	00000013	addi	x0,x0,0	  x0:0x00000000
        1725000	       171	800001a8	ff1ff0ef	jal	x1,800001a8	  x1=0x800001a8
        1735000	       172	00000000	00000013	addi	x0,x0,0	  x0:0x00000000
        1745000	       173	80000194	00000013	addi	x0,x0,0	  x0:0x00000000
        1755000	       174	80000198	00c000ef	jal	x1,80000198	  x1=0x80000198
        1765000	       175	00000000	00000013	addi	x0,x0,0	  x0:0x00000000
        1775000	       176	800001a0	00000013	addi	x0,x0,0	  x0:0x00000000
        1785000	       177	800001a4	ffdff0ef	jal	x1,800001a4	  x1=0x800001a4
        1795000	       178	00000000	00000013	addi	x0,x0,0	  x0:0x00000000
        1805000	       179	8000019c	00000013	addi	x0,x0,0	  x0:0x00000000
        1815000	       180	800001a0	ffdff3ef	jal	x7,800001a0	  x7=0x800001a0
        1825000	       181	00000000	00000013	addi	x0,x0,0	  x0:0x00000000
        1835000	       182	80000198	00000013	addi	x0,x0,0	  x0:0x00000000
        1845000	       183	8000019c	fe9ff0ef	jal	x1,8000019c	  x1=0x8000019c
        1855000	       184	00000000	00000013	addi	x0,x0,0	  x0:0x00000000
        1865000	       185	80000180	00000013	addi	x0,x0,0	  x0:0x00000000
        1875000	       186	80000184	00400def	jal	x27,80000184	 x27=0x80000184
        1885000	       187	00000000	00000013	addi	x0,x0,0	  x0:0x00000000
        1895000	       188	80000184	00000013	addi	x0,x0,0	  x0:0x00000000
        1905000	       189	80000188	004000ef	jal	x1,80000188	  x1=0x80000188
        1915000	       190	00000000	00000013	addi	x0,x0,0	  x0:0x00000000
        1925000	       191	80000188	00000013	addi	x0,x0,0	  x0:0x00000000
        1935000	       192	8000018c	02000c6f	jal	x24,8000018c	 x24=0x8000018c
        1945000	       193	00000000	00000013	addi	x0,x0,0	  x0:0x00000000
        1955000	       194	800001a8	00000013	addi	x0,x0,0	  x0:0x00000000
        1965000	       195	800001ac	d7b2e393	ori	x7,x5,-645	  x5:0x80000164  x7=0xfffffd7f
        1975000	       196	800001b0	01000c6f	jal	x24,800001b0	 x24=0x800001b0
        1985000	       197	00000000	00000013	addi	x0,x0,0	  x0:0x00000000
        1995000	       198	800001bc	00000013	addi	x0,x0,0	  x0:0x00000000
        2005000	       199	800001c0	024002ef	jal	x5,800001c0	  x5=0x800001c0
        2015000	       200	00000000	00000013	addi	x0,x0,0	  x0:0x00000000
        2025000	       201	800001e0	00000013	addi	x0,x0,0	  x0:0x00000000
        2035000	       202	800001e4	fedff0ef	jal	x1,800001e4	  x1=0x800001e4
        2045000	       203	00000000	00000013	addi	x0,x0,0	  x0:0x00000000
        2055000	       204	800001cc	00000013	addi	x0,x0,0	  x0:0x00000000
        2065000	       205	800001d0	fe5ff0ef	jal	x1,800001d0	  x1=0x800001d0
        2075000	       206	00000000	00000013	addi	x0,x0,0	  x0:0x00000000
        2085000	       207	800001b0	00000013	addi	x0,x0,0	  x0:0x00000000
        2095000	       208	800001b4	020000ef	jal	x1,800001b4	  x1=0x800001b4
        2105000	       209	00000000	00000013	addi	x0,x0,0	  x0:0x00000000
        2115000	       210	800001d0	00000013	addi	x0,x0,0	  x0:0x00000000
        2125000	       211	800001d4	fe5ff2ef	jal	x5,800001d4	  x5=0x800001d4
        2135000	       212	00000000	00000013	addi	x0,x0,0	  x0:0x00000000
        2145000	       213	800001b4	00000013	addi	x0,x0,0	  x0:0x00000000
        2155000	       214	800001b8	030000ef	jal	x1,800001b8	  x1=0x800001b8
        2165000	       215	00000000	00000013	addi	x0,x0,0	  x0:0x00000000
        2175000	       216	800001e4	00000013	addi	x0,x0,0	  x0:0x00000000
        2185000	       217	800001e8	ff5ff1ef	jal	x3,800001e8	  x3=0x800001e8
        2195000	       218	00000000	00000013	addi	x0,x0,0	  x0:0x00000000
        2205000	       219	800001d8	00000013	addi	x0,x0,0	  x0:0x00000000
        2215000	       220	800001dc	fe9ff0ef	jal	x1,800001dc	  x1=0x800001dc
        2225000	       221	00000000	00000013	addi	x0,x0,0	  x0:0x00000000
        2235000	       222	800001c0	00000013	addi	x0,x0,0	  x0:0x00000000
        2245000	       223	800001c4	004002ef	jal	x5,800001c4	  x5=0x800001c4
        2255000	       224	00000000	00000013	addi	x0,x0,0	  x0:0x00000000
        2265000	       225	800001c4	00000013	addi	x0,x0,0	  x0:0x00000000
        2275000	       226	800001c8	010002ef	jal	x5,800001c8	  x5=0x800001c8
        2285000	       227	00000000	00000013	addi	x0,x0,0	  x0:0x00000000
        2295000	       228	800001d4	00000013	addi	x0,x0,0	  x0:0x00000000
        2305000	       229	800001d8	008000ef	jal	x1,800001d8	  x1=0x800001d8
        2315000	       230	00000000	00000013	addi	x0,x0,0	  x0:0x00000000
        2325000	       231	800001dc	00000013	addi	x0,x0,0	  x0:0x00000000
        2335000	       232	800001e0	fddff26f	jal	x4,800001e0	  x4=0x800001e0
        2345000	       233	00000000	00000013	addi	x0,x0,0	  x0:0x00000000
        2355000	       234	800001b8	00000013	addi	x0,x0,0	  x0:0x00000000
        2365000	       235	800001bc	010000ef	jal	x1,800001bc	  x1=0x800001bc
        2375000	       236	00000000	00000013	addi	x0,x0,0	  x0:0x00000000
        2385000	       237	800001c8	00000013	addi	x0,x0,0	  x0:0x00000000
        2395000	       238	800001cc	020000ef	jal	x1,800001cc	  x1=0x800001cc
        2405000	       239	00000000	00000013	addi	x0,x0,0	  x0:0x00000000
        2415000	       240	800001e8	00000013	addi	x0,x0,0	  x0:0x00000000
        2425000	       241	800001ec	001467b3	or	x15,x8,x1	  x8:0xfccdd400  x1:0x800001cc x15=0xfccdd5cc
        2435000	       242	800001f0	00c00c6f	jal	x24,800001f0	 x24=0x800001f0
        2445000	       243	00000000	00000013	addi	x0,x0,0	  x0:0x00000000
        2455000	       244	800001f8	00000013	addi	x0,x0,0	  x0:0x00000000
        2465000	       245	800001fc	040006ef	jal	x13,800001fc	 x13=0x800001fc
        2475000	       246	00000000	00000013	addi	x0,x0,0	  x0:0x00000000
        2485000	       247	80000238	00000013	addi	x0,x0,0	  x0:0x00000000
        2495000	       248	8000023c	ffdff0ef	jal	x1,8000023c	  x1=0x8000023c
        2505000	       249	00000000	00000013	addi	x0,x0,0	  x0:0x00000000
        2515000	       250	80000234	00000013	addi	x0,x0,0	  x0:0x00000000
        2525000	       251	80000238	fbdff0ef	jal	x1,80000238	  x1=0x80000238
        2535000	       252	00000000	00000013	addi	x0,x0,0	  x0:0x00000000
        2545000	       253	800001f0	00000013	addi	x0,x0,0	  x0:0x00000000
        2555000	       254	800001f4	038008ef	jal	x17,800001f4	 x17=0x800001f4
        2565000	       255	00000000	00000013	addi	x0,x0,0	  x0:0x00000000
        2575000	       256	80000228	00000013	addi	x0,x0,0	  x0:0x00000000
        2585000	       257	8000022c	ff9ffd6f	jal	x26,8000022c	 x26=0x8000022c
        2595000	       258	00000000	00000013	addi	x0,x0,0	  x0:0x00000000
        2605000	       259	80000220	00000013	addi	x0,x0,0	  x0:0x00000000
        2615000	       260	80000224	ff9ff0ef	jal	x1,80000224	  x1=0x80000224
        2625000	       261	00000000	00000013	addi	x0,x0,0	  x0:0x00000000
        2635000	       262	80000218	00000013	addi	x0,x0,0	  x0:0x00000000
        2645000	       263	8000021c	ff9ff0ef	jal	x1,8000021c	  x1=0x8000021c
        2655000	       264	00000000	00000013	addi	x0,x0,0	  x0:0x00000000
        2665000	       265	80000210	00000013	addi	x0,x0,0	  x0:0x00000000
        2675000	       266	80000214	01c001ef	jal	x3,80000214	  x3=0x80000214
        2685000	       267	00000000	00000013	addi	x0,x0,0	  x0:0x00000000
        2695000	       268	8000022c	00000013	addi	x0,x0,0	  x0:0x00000000
        2705000	       269	80000230	fe1ff0ef	jal	x1,80000230	  x1=0x80000230
        2715000	       270	00000000	00000013	addi	x0,x0,0	  x0:0x00000000
        2725000	       271	8000020c	00000013	addi	x0,x0,0	  x0:0x00000000
        2735000	       272	80000210	ff9ff0ef	jal	x1,80000210	  x1=0x80000210
        2745000	       273	00000000	00000013	addi	x0,x0,0	  x0:0x00000000
        2755000	       274	80000204	00000013	addi	x0,x0,0	  x0:0x00000000
        2765000	       275	80000208	ff1ff0ef	jal	x1,80000208	  x1=0x80000208
        2775000	       276	00000000	00000013	addi	x0,x0,0	  x0:0x00000000
        2785000	       277	800001f4	00000013	addi	x0,x0,0	  x0:0x00000000
        2795000	       278	800001f8	008000ef	jal	x1,800001f8	  x1=0x800001f8
        2805000	       279	00000000	00000013	addi	x0,x0,0	  x0:0x00000000
        2815000	       280	800001fc	00000013	addi	x0,x0,0	  x0:0x00000000
        2825000	       281	80000200	034000ef	jal	x1,80000200	  x1=0x80000200
        2835000	       282	00000000	00000013	addi	x0,x0,0	  x0:0x00000000
        2845000	       283	80000230	00000013	addi	x0,x0,0	  x0:0x00000000
        2855000	       284	80000234	fe5ff1ef	jal	x3,80000234	  x3=0x80000234
        2865000	       285	00000000	00000013	addi	x0,x0,0	  x0:0x00000000
        2875000	       286	80000214	00000013	addi	x0,x0,0	  x0:0x00000000
        2885000	       287	80000218	00800e6f	jal	x28,80000218	 x28=0x80000218
        2895000	       288	00000000	00000013	addi	x0,x0,0	  x0:0x00000000
        2905000	       289	8000021c	00000013	addi	x0,x0,0	  x0:0x00000000
        2915000	       290	80000220	fe5ff0ef	jal	x1,80000220	  x1=0x80000220
        2925000	       291	00000000	00000013	addi	x0,x0,0	  x0:0x00000000
        2935000	       292	80000200	00000013	addi	x0,x0,0	  x0:0x00000000
        2945000	       293	80000204	008000ef	jal	x1,80000204	  x1=0x80000204
        2955000	       294	00000000	00000013	addi	x0,x0,0	  x0:0x00000000
        2965000	       295	80000208	00000013	addi	x0,x0,0	  x0:0x00000000
        2975000	       296	8000020c	01c000ef	jal	x1,8000020c	  x1=0x8000020c
        2985000	       297	00000000	00000013	addi	x0,x0,0	  x0:0x00000000
        2995000	       298	80000224	00000013	addi	x0,x0,0	  x0:0x00000000
        3005000	       299	80000228	018005ef	jal	x11,80000228	 x11=0x80000228
        3015000	       300	00000000	00000013	addi	x0,x0,0	  x0:0x00000000
        3025000	       301	8000023c	00000013	addi	x0,x0,0	  x0:0x00000000
        3035000	       302	80000240	00000013	addi	x0,x0,0	  x0:0x00000000
        3045000	       303	80000244	03800c6f	jal	x24,80000244	 x24=0x80000244
        3055000	       304	00000000	00000013	addi	x0,x0,0	  x0:0x00000000
        3065000	       305	80000278	00000013	addi	x0,x0,0	  x0:0x00000000
        3075000	       306	8000027c	fcdffc6f	jal	x24,8000027c	 x24=0x8000027c
        3085000	       307	00000000	00000013	addi	x0,x0,0	  x0:0x00000000
        3095000	       308	80000244	00000013	addi	x0,x0,0	  x0:0x00000000
        3105000	       309	80000248	014000ef	jal	x1,80000248	  x1=0x80000248
        3115000	       310	00000000	00000013	addi	x0,x0,0	  x0:0x00000000
        3125000	       311	80000258	00000013	addi	x0,x0,0	  x0:0x00000000
        3135000	       312	8000025c	024009ef	jal	x19,8000025c	 x19=0x8000025c
        3145000	       313	00000000	00000013	addi	x0,x0,0	  x0:0x00000000
        3155000	       314	8000027c	00000013	addi	x0,x0,0	  x0:0x00000000
        3165000	       315	80000280	fe5ff0ef	jal	x1,80000280	  x1=0x80000280
        3175000	       316	00000000	00000013	addi	x0,x0,0	  x0:0x00000000
        3185000	       317	80000260	00000013	addi	x0,x0,0	  x0:0x00000000
        3195000	       318	80000264	ff1ff0ef	jal	x1,80000264	  x1=0x80000264
        3205000	       319	00000000	00000013	addi	x0,x0,0	  x0:0x00000000
        3215000	       320	80000250	00000013	addi	x0,x0,0	  x0:0x00000000
        3225000	       321	80000254	030001ef	jal	x3,80000254	  x3=0x80000254
        3235000	       322	00000000	00000013	addi	x0,x0,0	  x0:0x00000000
        3245000	       323	80000280	00000013	addi	x0,x0,0	  x0:0x00000000
        3255000	       324	80000284	008000ef	jal	x1,80000284	  x1=0x80000284
        3265000	       325	00000000	00000013	addi	x0,x0,0	  x0:0x00000000
        3275000	       326	80000288	00000013	addi	x0,x0,0	  x0:0x00000000
        3285000	       327	8000028c	fedff0ef	jal	x1,8000028c	  x1=0x8000028c
        3295000	       328	00000000	00000013	addi	x0,x0,0	  x0:0x00000000
        3305000	       329	80000274	00000013	addi	x0,x0,0	  x0:0x00000000
        3315000	       330	80000278	fe1ff3ef	jal	x7,80000278	  x7=0x80000278
        3325000	       331	00000000	00000013	addi	x0,x0,0	  x0:0x00000000
        3335000	       332	80000254	00000013	addi	x0,x0,0	  x0:0x00000000
        3345000	       333	80000258	010000ef	jal	x1,80000258	  x1=0x80000258
        3355000	       334	00000000	00000013	addi	x0,x0,0	  x0:0x00000000
        3365000	       335	80000264	00000013	addi	x0,x0,0	  x0:0x00000000
        3375000	       336	80000268	0040016f	jal	x2,80000268	  x2=0x80000268
        3385000	       337	00000000	00000013	addi	x0,x0,0	  x0:0x00000000
        3395000	       338	80000268	00000013	addi	x0,x0,0	  x0:0x00000000
        3405000	       339	8000026c	008000ef	jal	x1,8000026c	  x1=0x8000026c
        3415000	       340	00000000	00000013	addi	x0,x0,0	  x0:0x00000000
        3425000	       341	80000270	00000013	addi	x0,x0,0	  x0:0x00000000
        3435000	       342	80000274	fddff0ef	jal	x1,80000274	  x1=0x80000274
        3445000	       343	00000000	00000013	addi	x0,x0,0	  x0:0x00000000
        3455000	       344	8000024c	00000013	addi	x0,x0,0	  x0:0x00000000
        3465000	       345	80000250	ffdff0ef	jal	x1,80000250	  x1=0x80000250
        3475000	       346	00000000	00000013	addi	x0,x0,0	  x0:0x00000000
        3485000	       347	80000248	00000013	addi	x0,x0,0	  x0:0x00000000
        3495000	       348	8000024c	03c000ef	jal	x1,8000024c	  x1=0x8000024c
        3505000	       349	00000000	00000013	addi	x0,x0,0	  x0:0x00000000
        3515000	       350	80000284	00000013	addi	x0,x0,0	  x0:0x00000000
        3525000	       351	80000288	fd9ffb6f	jal	x22,80000288	 x22=0x80000288
        3535000	       352	00000000	00000013	addi	x0,x0,0	  x0:0x00000000
        3545000	       353	8000025c	00000013	addi	x0,x0,0	  x0:0x00000000
        3555000	       354	80000260	010000ef	jal	x1,80000260	  x1=0x80000260
        3565000	       355	00000000	00000013	addi	x0,x0,0	  x0:0x00000000
        3575000	       356	8000026c	00000013	addi	x0,x0,0	  x0:0x00000000
        3585000	       357	80000270	0200016f	jal	x2,80000270	  x2=0x80000270
        3595000	       358	00000000	00000013	addi	x0,x0,0	  x0:0x00000000
        3605000	       359	8000028c	00000013	addi	x0,x0,0	  x0:0x00000000
        3615000	       360	80000290	41535e13	srai	x28,x6,0x15	  x6:0x00000009 x28=0x00000000
        3625000	       361	80000294	05400c6f	jal	x24,80000294	 x24=0x80000294
        3635000	       362	00000000	00000013	addi	x0,x0,0	  x0:0x00000000
        3645000	       363	800002e4	00000013	addi	x0,x0,0	  x0:0x00000000
        3655000	       364	800002e8	ff1ff0ef	jal	x1,800002e8	  x1=0x800002e8
        3665000	       365	00000000	00000013	addi	x0,x0,0	  x0:0x00000000
        3675000	       366	800002d4	00000013	addi	x0,x0,0	  x0:0x00000000
        3685000	       367	800002d8	fc1ff0ef	jal	x1,800002d8	  x1=0x800002d8
        3695000	       368	00000000	00000013	addi	x0,x0,0	  x0:0x00000000
        3705000	       369	80000294	00000013	addi	x0,x0,0	  x0:0x00000000
        3715000	       370	80000298	048000ef	jal	x1,80000298	  x1=0x80000298
        3725000	       371	00000000	00000013	addi	x0,x0,0	  x0:0x00000000
        3735000	       372	800002dc	00000013	addi	x0,x0,0	  x0:0x00000000
        3745000	       373	800002e0	ff1ffdef	jal	x27,800002e0	 x27=0x800002e0
        3755000	       374	00000000	00000013	addi	x0,x0,0	  x0:0x00000000
        3765000	       375	800002cc	00000013	addi	x0,x0,0	  x0:0x00000000
        3775000	       376	800002d0	fe1ff0ef	jal	x1,800002d0	  x1=0x800002d0
        3785000	       377	00000000	00000013	addi	x0,x0,0	  x0:0x00000000
        3795000	       378	800002ac	00000013	addi	x0,x0,0	  x0:0x00000000
        3805000	       379	800002b0	ffdff0ef	jal	x1,800002b0	  x1=0x800002b0
        3815000	       380	00000000	00000013	addi	x0,x0,0	  x0:0x00000000
        3825000	       381	800002a8	00000013	addi	x0,x0,0	  x0:0x00000000
        3835000	       382	800002ac	018000ef	jal	x1,800002ac	  x1=0x800002ac
        3845000	       383	00000000	00000013	addi	x0,x0,0	  x0:0x00000000
        3855000	       384	800002c0	00000013	addi	x0,x0,0	  x0:0x00000000
        3865000	       385	800002c4	fe5ff3ef	jal	x7,800002c4	  x7=0x800002c4
        3875000	       386	00000000	00000013	addi	x0,x0,0	  x0:0x00000000
        3885000	       387	800002a4	00000013	addi	x0,x0,0	  x0:0x00000000
        3895000	       388	800002a8	018000ef	jal	x1,800002a8	  x1=0x800002a8
        3905000	       389	00000000	00000013	addi	x0,x0,0	  x0:0x00000000
        3915000	       390	800002bc	00000013	addi	x0,x0,0	  x0:0x00000000
        3925000	       391	800002c0	ff5ff1ef	jal	x3,800002c0	  x3=0x800002c0
        3935000	       392	00000000	00000013	addi	x0,x0,0	  x0:0x00000000
        3945000	       393	800002b0	00000013	addi	x0,x0,0	  x0:0x00000000
        3955000	       394	800002b4	020008ef	jal	x17,800002b4	 x17=0x800002b4
        3965000	       395	00000000	00000013	addi	x0,x0,0	  x0:0x00000000
        3975000	       396	800002d0	00000013	addi	x0,x0,0	  x0:0x00000000
        3985000	       397	800002d4	008004ef	jal	x9,800002d4	  x9=0x800002d4
        3995000	       398	00000000	00000013	addi	x0,x0,0	  x0:0x00000000
        4005000	       399	800002d8	00000013	addi	x0,x0,0	  x0:0x00000000
        4015000	       400	800002dc	fedff16f	jal	x2,800002dc	  x2=0x800002dc
        4025000	       401	00000000	00000013	addi	x0,x0,0	  x0:0x00000000
        4035000	       402	800002c4	00000013	addi	x0,x0,0	  x0:0x00000000
        4045000	       403	800002c8	004000ef	jal	x1,800002c8	  x1=0x800002c8
        4055000	       404	00000000	00000013	addi	x0,x0,0	  x0:0x00000000
        4065000	       405	800002c8	00000013	addi	x0,x0,0	  x0:0x00000000
        4075000	       406	800002cc	020002ef	jal	x5,800002cc	  x5=0x800002cc
        4085000	       407	00000000	00000013	addi	x0,x0,0	  x0:0x00000000
        4095000	       408	800002e8	00000013	addi	x0,x0,0	  x0:0x00000000
        4105000	       409	800002ec	fb1ff0ef	jal	x1,800002ec	  x1=0x800002ec
        4115000	       410	00000000	00000013	addi	x0,x0,0	  x0:0x00000000
        4125000	       411	80000298	00000013	addi	x0,x0,0	  x0:0x00000000
        4135000	       412	8000029c	00800f6f	jal	x30,8000029c	 x30=0x8000029c
        4145000	       413	00000000	00000013	addi	x0,x0,0	  x0:0x00000000
        4155000	       414	800002a0	00000013	addi	x0,x0,0	  x0:0x00000000
        4165000	       415	800002a4	ffdff0ef	jal	x1,800002a4	  x1=0x800002a4
        4175000	       416	00000000	00000013	addi	x0,x0,0	  x0:0x00000000
        4185000	       417	8000029c	00000013	addi	x0,x0,0	  x0:0x00000000
        4195000	       418	800002a0	044000ef	jal	x1,800002a0	  x1=0x800002a0
        4205000	       419	00000000	00000013	addi	x0,x0,0	  x0:0x00000000
        4215000	       420	800002e0	00000013	addi	x0,x0,0	  x0:0x00000000
        4225000	       421	800002e4	fd5ff5ef	jal	x11,800002e4	 x11=0x800002e4
        4235000	       422	00000000	00000013	addi	x0,x0,0	  x0:0x00000000
        4245000	       423	800002b4	00000013	addi	x0,x0,0	  x0:0x00000000
        4255000	       424	800002b8	038000ef	jal	x1,800002b8	  x1=0x800002b8
        4265000	       425	00000000	00000013	addi	x0,x0,0	  x0:0x00000000
        4275000	       426	800002ec	00000013	addi	x0,x0,0	  x0:0x00000000
        4285000	       427	800002f0	fcdff0ef	jal	x1,800002f0	  x1=0x800002f0
        4295000	       428	00000000	00000013	addi	x0,x0,0	  x0:0x00000000
        4305000	       429	800002b8	00000013	addi	x0,x0,0	  x0:0x00000000
        4315000	       430	800002bc	038000ef	jal	x1,800002bc	  x1=0x800002bc
        4325000	       431	00000000	00000013	addi	x0,x0,0	  x0:0x00000000
        4335000	       432	800002f0	00000013	addi	x0,x0,0	  x0:0x00000000
        4345000	       433	800002f4	cd882d13	slti	x26,x16,-808	 x16:0xf1799ddc x26=0x00000001
        4355000	       434	800002f8	04000c6f	jal	x24,800002f8	 x24=0x800002f8
        4365000	       435	00000000	00000013	addi	x0,x0,0	  x0:0x00000000
        4375000	       436	80000334	00000013	addi	x0,x0,0	  x0:0x00000000
        4385000	       437	80000338	fedff0ef	jal	x1,80000338	  x1=0x80000338
        4395000	       438	00000000	00000013	addi	x0,x0,0	  x0:0x00000000
        4405000	       439	80000320	00000013	addi	x0,x0,0	  x0:0x00000000
        4415000	       440	80000324	028000ef	jal	x1,80000324	  x1=0x80000324
        4425000	       441	00000000	00000013	addi	x0,x0,0	  x0:0x00000000
        4435000	       442	80000348	00000013	addi	x0,x0,0	  x0:0x00000000
        4445000	       443	8000034c	010000ef	jal	x1,8000034c	  x1=0x8000034c
        4455000	       444	00000000	00000013	addi	x0,x0,0	  x0:0x00000000
        4465000	       445	80000358	00000013	addi	x0,x0,0	  x0:0x00000000
        4475000	       446	8000035c	fb9ff0ef	jal	x1,8000035c	  x1=0x8000035c
        4485000	       447	00000000	00000013	addi	x0,x0,0	  x0:0x00000000
        4495000	       448	80000310	00000013	addi	x0,x0,0	  x0:0x00000000
        4505000	       449	80000314	02c000ef	jal	x1,80000314	  x1=0x80000314
        4515000	       450	00000000	00000013	addi	x0,x0,0	  x0:0x00000000
        4525000	       451	8000033c	00000013	addi	x0,x0,0	  x0:0x00000000
        4535000	       452	80000340	fe1ff0ef	jal	x1,80000340	  x1=0x80000340
        4545000	       453	00000000	00000013	addi	x0,x0,0	  x0:0x00000000
        4555000	       454	8000031c	00000013	addi	x0,x0,0	  x0:0x00000000
        4565000	       455	80000320	040000ef	jal	x1,80000320	  x1=0x80000320
        4575000	       456	00000000	00000013	addi	x0,x0,0	  x0:0x00000000
        4585000	       457	8000035c	00000013	addi	x0,x0,0	  x0:0x00000000
        4595000	       458	80000360	ff5ff0ef	jal	x1,80000360	  x1=0x80000360
        4605000	       459	00000000	00000013	addi	x0,x0,0	  x0:0x00000000
        4615000	       460	80000350	00000013	addi	x0,x0,0	  x0:0x00000000
        4625000	       461	80000354	fe9ff0ef	jal	x1,80000354	  x1=0x80000354
        4635000	       462	00000000	00000013	addi	x0,x0,0	  x0:0x00000000
        4645000	       463	80000338	00000013	addi	x0,x0,0	  x0:0x00000000
        4655000	       464	8000033c	ff1ff0ef	jal	x1,8000033c	  x1=0x8000033c
        4665000	       465	00000000	00000013	addi	x0,x0,0	  x0:0x00000000
        4675000	       466	80000328	00000013	addi	x0,x0,0	  x0:0x00000000
        4685000	       467	8000032c	fd5ff0ef	jal	x1,8000032c	  x1=0x8000032c
        4695000	       468	00000000	00000013	addi	x0,x0,0	  x0:0x00000000
        4705000	       469	800002fc	00000013	addi	x0,x0,0	  x0:0x00000000
        4715000	       470	80000300	044000ef	jal	x1,80000300	  x1=0x80000300
        4725000	       471	00000000	00000013	addi	x0,x0,0	  x0:0x00000000
        4735000	       472	80000340	00000013	addi	x0,x0,0	  x0:0x00000000
        4745000	       473	80000344	fd5ff0ef	jal	x1,80000344	  x1=0x80000344
        4755000	       474	00000000	00000013	addi	x0,x0,0	  x0:0x00000000
        4765000	       475	80000314	00000013	addi	x0,x0,0	  x0:0x00000000
        4775000	       476	80000318	ff5ff76f	jal	x14,80000318	 x14=0x80000318
        4785000	       477	00000000	00000013	addi	x0,x0,0	  x0:0x00000000
        4795000	       478	80000308	00000013	addi	x0,x0,0	  x0:0x00000000
        4805000	       479	8000030c	058000ef	jal	x1,8000030c	  x1=0x8000030c
        4815000	       480	00000000	00000013	addi	x0,x0,0	  x0:0x00000000
        4825000	       481	80000360	00000013	addi	x0,x0,0	  x0:0x00000000
        4835000	       482	80000364	ff5ff0ef	jal	x1,80000364	  x1=0x80000364
        4845000	       483	00000000	00000013	addi	x0,x0,0	  x0:0x00000000
        4855000	       484	80000354	00000013	addi	x0,x0,0	  x0:0x00000000
        4865000	       485	80000358	fb9ff16f	jal	x2,80000358	  x2=0x80000358
        4875000	       486	00000000	00000013	addi	x0,x0,0	  x0:0x00000000
        4885000	       487	8000030c	00000013	addi	x0,x0,0	  x0:0x00000000
        4895000	       488	80000310	05c000ef	jal	x1,80000310	  x1=0x80000310
        4905000	       489	00000000	00000013	addi	x0,x0,0	  x0:0x00000000
        4915000	       490	80000368	00000013	addi	x0,x0,0	  x0:0x00000000
        4925000	       491	8000036c	f9dff0ef	jal	x1,8000036c	  x1=0x8000036c
        4935000	       492	00000000	00000013	addi	x0,x0,0	  x0:0x00000000
        4945000	       493	80000304	00000013	addi	x0,x0,0	  x0:0x00000000
        4955000	       494	80000308	02c000ef	jal	x1,80000308	  x1=0x80000308
        4965000	       495	00000000	00000013	addi	x0,x0,0	  x0:0x00000000
        4975000	       496	80000330	00000013	addi	x0,x0,0	  x0:0x00000000
        4985000	       497	80000334	ffdff3ef	jal	x7,80000334	  x7=0x80000334
        4995000	       498	00000000	00000013	addi	x0,x0,0	  x0:0x00000000
        5005000	       499	8000032c	00000013	addi	x0,x0,0	  x0:0x00000000
        5015000	       500	80000330	fedff0ef	jal	x1,80000330	  x1=0x80000330
        5025000	       501	00000000	00000013	addi	x0,x0,0	  x0:0x00000000
        5035000	       502	80000318	00000013	addi	x0,x0,0	  x0:0x00000000
        5045000	       503	8000031c	02c000ef	jal	x1,8000031c	  x1=0x8000031c
        5055000	       504	00000000	00000013	addi	x0,x0,0	  x0:0x00000000
        5065000	       505	80000344	00000013	addi	x0,x0,0	  x0:0x00000000
        5075000	       506	80000348	0200056f	jal	x10,80000348	 x10=0x80000348
        5085000	       507	00000000	00000013	addi	x0,x0,0	  x0:0x00000000
        5095000	       508	80000364	00000013	addi	x0,x0,0	  x0:0x00000000
        5105000	       509	80000368	fc1ff0ef	jal	x1,80000368	  x1=0x80000368
        5115000	       510	00000000	00000013	addi	x0,x0,0	  x0:0x00000000
        5125000	       511	80000324	00000013	addi	x0,x0,0	  x0:0x00000000
        5135000	       512	80000328	0280046f	jal	x8,80000328	  x8=0x80000328
        5145000	       513	00000000	00000013	addi	x0,x0,0	  x0:0x00000000
        5155000	       514	8000034c	00000013	addi	x0,x0,0	  x0:0x00000000
        5165000	       515	80000350	fb5ff0ef	jal	x1,80000350	  x1=0x80000350
        5175000	       516	00000000	00000013	addi	x0,x0,0	  x0:0x00000000
        5185000	       517	80000300	00000013	addi	x0,x0,0	  x0:0x00000000
        5195000	       518	80000304	ff9ff0ef	jal	x1,80000304	  x1=0x80000304
        5205000	       519	00000000	00000013	addi	x0,x0,0	  x0:0x00000000
        5215000	       520	800002f8	00000013	addi	x0,x0,0	  x0:0x00000000
        5225000	       521	800002fc	074000ef	jal	x1,800002fc	  x1=0x800002fc
        5235000	       522	00000000	00000013	addi	x0,x0,0	  x0:0x00000000
        5245000	       523	8000036c	00000013	addi	x0,x0,0	  x0:0x00000000
        5255000	       524	80000370	0184d293	srli	x5,x9,0x18	  x9:0x800002d4  x5=0x00000080
        5265000	       525	80000374	05000c6f	jal	x24,80000374	 x24=0x80000374
        5275000	       526	00000000	00000013	addi	x0,x0,0	  x0:0x00000000
        5285000	       527	800003c0	00000013	addi	x0,x0,0	  x0:0x00000000
        5295000	       528	800003c4	fc1ffe6f	jal	x28,800003c4	 x28=0x800003c4
        5305000	       529	00000000	00000013	addi	x0,x0,0	  x0:0x00000000
        5315000	       530	80000380	00000013	addi	x0,x0,0	  x0:0x00000000
        5325000	       531	80000384	020000ef	jal	x1,80000384	  x1=0x80000384
        5335000	       532	00000000	00000013	addi	x0,x0,0	  x0:0x00000000
        5345000	       533	800003a0	00000013	addi	x0,x0,0	  x0:0x00000000
        5355000	       534	800003a4	01800fef	jal	x31,800003a4	 x31=0x800003a4
        5365000	       535	00000000	00000013	addi	x0,x0,0	  x0:0x00000000
        5375000	       536	800003b8	00000013	addi	x0,x0,0	  x0:0x00000000
        5385000	       537	800003bc	fe1ff0ef	jal	x1,800003bc	  x1=0x800003bc
        5395000	       538	00000000	00000013	addi	x0,x0,0	  x0:0x00000000
        5405000	       539	80000398	00000013	addi	x0,x0,0	  x0:0x00000000
        5415000	       540	8000039c	0500076f	jal	x14,8000039c	 x14=0x8000039c
        5425000	       541	00000000	00000013	addi	x0,x0,0	  x0:0x00000000
        5435000	       542	800003e8	00000013	addi	x0,x0,0	  x0:0x00000000
        5445000	       543	800003ec	f9dff0ef	jal	x1,800003ec	  x1=0x800003ec
        5455000	       544	00000000	00000013	addi	x0,x0,0	  x0:0x00000000
        5465000	       545	80000384	00000013	addi	x0,x0,0	  x0:0x00000000
        5475000	       546	80000388	038000ef	jal	x1,80000388	  x1=0x80000388
        5485000	       547	00000000	00000013	addi	x0,x0,0	  x0:0x00000000
        5495000	       548	800003bc	00000013	addi	x0,x0,0	  x0:0x00000000
        5505000	       549	800003c0	fcdff0ef	jal	x1,800003c0	  x1=0x800003c0
        5515000	       550	00000000	00000013	addi	x0,x0,0	  x0:0x00000000
        5525000	       551	80000388	00000013	addi	x0,x0,0	  x0:0x00000000
        5535000	       552	8000038c	ff1ff26f	jal	x4,8000038c	  x4=0x8000038c
        5545000	       553	00000000	00000013	addi	x0,x0,0	  x0:0x00000000
        5555000	       554	80000378	00000013	addi	x0,x0,0	  x0:0x00000000
        5565000	       555	8000037c	06c003ef	jal	x7,8000037c	  x7=0x8000037c
        5575000	       556	00000000	00000013	addi	x0,x0,0	  x0:0x00000000
        5585000	       557	800003e4	00000013	addi	x0,x0,0	  x0:0x00000000
        5595000	       558	800003e8	fadff46f	jal	x8,800003e8	  x8=0x800003e8
        5605000	       559	00000000	00000013	addi	x0,x0,0	  x0:0x00000000
        5615000	       560	80000390	00000013	addi	x0,x0,0	  x0:0x00000000
        5625000	       561	80000394	050000ef	jal	x1,80000394	  x1=0x80000394
        5635000	       562	00000000	00000013	addi	x0,x0,0	  x0:0x00000000
        5645000	       563	800003e0	00000013	addi	x0,x0,0	  x0:0x00000000
        5655000	       564	800003e4	fb5ff0ef	jal	x1,800003e4	  x1=0x800003e4
        5665000	       565	00000000	00000013	addi	x0,x0,0	  x0:0x00000000
        5675000	       566	80000394	00000013	addi	x0,x0,0	  x0:0x00000000
        5685000	       567	80000398	038000ef	jal	x1,80000398	  x1=0x80000398
        5695000	       568	00000000	00000013	addi	x0,x0,0	  x0:0x00000000
        5705000	       569	800003cc	00000013	addi	x0,x0,0	  x0:0x00000000
        5715000	       570	800003d0	fc1ff0ef	jal	x1,800003d0	  x1=0x800003d0
        5725000	       571	00000000	00000013	addi	x0,x0,0	  x0:0x00000000
        5735000	       572	8000038c	00000013	addi	x0,x0,0	  x0:0x00000000
        5745000	       573	80000390	050008ef	jal	x17,80000390	 x17=0x80000390
        5755000	       574	00000000	00000013	addi	x0,x0,0	  x0:0x00000000
        5765000	       575	800003dc	00000013	addi	x0,x0,0	  x0:0x00000000
        5775000	       576	800003e0	fd5ff0ef	jal	x1,800003e0	  x1=0x800003e0
        5785000	       577	00000000	00000013	addi	x0,x0,0	  x0:0x00000000
        5795000	       578	800003b0	00000013	addi	x0,x0,0	  x0:0x00000000
        5805000	       579	800003b4	020000ef	jal	x1,800003b4	  x1=0x800003b4
        5815000	       580	00000000	00000013	addi	x0,x0,0	  x0:0x00000000
        5825000	       581	800003d0	00000013	addi	x0,x0,0	  x0:0x00000000
        5835000	       582	800003d4	fd5ff0ef	jal	x1,800003d4	  x1=0x800003d4
        5845000	       583	00000000	00000013	addi	x0,x0,0	  x0:0x00000000
        5855000	       584	800003a4	00000013	addi	x0,x0,0	  x0:0x00000000
        5865000	       585	800003a8	0100016f	jal	x2,800003a8	  x2=0x800003a8
        5875000	       586	00000000	00000013	addi	x0,x0,0	  x0:0x00000000
        5885000	       587	800003b4	00000013	addi	x0,x0,0	  x0:0x00000000
        5895000	       588	800003b8	fe9ff66f	jal	x12,800003b8	 x12=0x800003b8
        5905000	       589	00000000	00000013	addi	x0,x0,0	  x0:0x00000000
        5915000	       590	8000039c	00000013	addi	x0,x0,0	  x0:0x00000000
        5925000	       591	800003a0	fe1ff0ef	jal	x1,800003a0	  x1=0x800003a0
        5935000	       592	00000000	00000013	addi	x0,x0,0	  x0:0x00000000
        5945000	       593	8000037c	00000013	addi	x0,x0,0	  x0:0x00000000
        5955000	       594	80000380	058000ef	jal	x1,80000380	  x1=0x80000380
        5965000	       595	00000000	00000013	addi	x0,x0,0	  x0:0x00000000
        5975000	       596	800003d4	00000013	addi	x0,x0,0	  x0:0x00000000
        5985000	       597	800003d8	004000ef	jal	x1,800003d8	  x1=0x800003d8
        5995000	       598	00000000	00000013	addi	x0,x0,0	  x0:0x00000000
        6005000	       599	800003d8	00000013	addi	x0,x0,0	  x0:0x00000000
        6015000	       600	800003dc	ff1ff2ef	jal	x5,800003dc	  x5=0x800003dc
        6025000	       601	00000000	00000013	addi	x0,x0,0	  x0:0x00000000
        6035000	       602	800003c8	00000013	addi	x0,x0,0	  x0:0x00000000
        6045000	       603	800003cc	fe1ff5ef	jal	x11,800003cc	 x11=0x800003cc
        6055000	       604	00000000	00000013	addi	x0,x0,0	  x0:0x00000000
        6065000	       605	800003a8	00000013	addi	x0,x0,0	  x0:0x00000000
        6075000	       606	800003ac	01c000ef	jal	x1,800003ac	  x1=0x800003ac
        6085000	       607	00000000	00000013	addi	x0,x0,0	  x0:0x00000000
        6095000	       608	800003c4	00000013	addi	x0,x0,0	  x0:0x00000000
        6105000	       609	800003c8	fb1ff0ef	jal	x1,800003c8	  x1=0x800003c8
        6115000	       610	00000000	00000013	addi	x0,x0,0	  x0:0x00000000
        6125000	       611	80000374	00000013	addi	x0,x0,0	  x0:0x00000000
        6135000	       612	80000378	0380026f	jal	x4,80000378	  x4=0x80000378
        6145000	       613	00000000	00000013	addi	x0,x0,0	  x0:0x00000000
        6155000	       614	800003ac	00000013	addi	x0,x0,0	  x0:0x00000000
        6165000	       615	800003b0	040006ef	jal	x13,800003b0	 x13=0x800003b0
        6175000	       616	00000000	00000013	addi	x0,x0,0	  x0:0x00000000
        6185000	       617	800003ec	00000013	addi	x0,x0,0	  x0:0x00000000
        6195000	       618	800003f0	41e18d33	sub	x26,x3,x30	  x3:0x800002c0 x30:0x8000029c x26=0x00000024
        6205000	       619	800003f4	00400c6f	jal	x24,800003f4	 x24=0x800003f4
        6215000	       620	00000000	00000013	addi	x0,x0,0	  x0:0x00000000
        6225000	       621	800003f4	00000013	addi	x0,x0,0	  x0:0x00000000
        6235000	       622	800003f8	01c000ef	jal	x1,800003f8	  x1=0x800003f8
        6245000	       623	00000000	00000013	addi	x0,x0,0	  x0:0x00000000
        6255000	       624	80000410	00000013	addi	x0,x0,0	  x0:0x00000000
        6265000	       625	80000414	fe9ff0ef	jal	x1,80000414	  x1=0x80000414
        6275000	       626	00000000	00000013	addi	x0,x0,0	  x0:0x00000000
        6285000	       627	800003f8	00000013	addi	x0,x0,0	  x0:0x00000000
        6295000	       628	800003fc	004000ef	jal	x1,800003fc	  x1=0x800003fc
        6305000	       629	00000000	00000013	addi	x0,x0,0	  x0:0x00000000
        6315000	       630	800003fc	00000013	addi	x0,x0,0	  x0:0x00000000
        6325000	       631	80000400	01c0016f	jal	x2,80000400	  x2=0x80000400
        6335000	       632	00000000	00000013	addi	x0,x0,0	  x0:0x00000000
        6345000	       633	80000418	00000013	addi	x0,x0,0	  x0:0x00000000
        6355000	       634	8000041c	fedff0ef	jal	x1,8000041c	  x1=0x8000041c
        6365000	       635	00000000	00000013	addi	x0,x0,0	  x0:0x00000000
        6375000	       636	80000404	00000013	addi	x0,x0,0	  x0:0x00000000
        6385000	       637	80000408	ffdff0ef	jal	x1,80000408	  x1=0x80000408
        6395000	       638	00000000	00000013	addi	x0,x0,0	  x0:0x00000000
        6405000	       639	80000400	00000013	addi	x0,x0,0	  x0:0x00000000
        6415000	       640	80000404	01c000ef	jal	x1,80000404	  x1=0x80000404
        6425000	       641	00000000	00000013	addi	x0,x0,0	  x0:0x00000000
        6435000	       642	8000041c	00000013	addi	x0,x0,0	  x0:0x00000000
        6445000	       643	80000420	ff1ffd6f	jal	x26,80000420	 x26=0x80000420
        6455000	       644	00000000	00000013	addi	x0,x0,0	  x0:0x00000000
        6465000	       645	8000040c	00000013	addi	x0,x0,0	  x0:0x00000000
        6475000	       646	80000410	008000ef	jal	x1,80000410	  x1=0x80000410
        6485000	       647	00000000	00000013	addi	x0,x0,0	  x0:0x00000000
        6495000	       648	80000414	00000013	addi	x0,x0,0	  x0:0x00000000
        6505000	       649	80000418	ff5ff0ef	jal	x1,80000418	  x1=0x80000418
        6515000	       650	00000000	00000013	addi	x0,x0,0	  x0:0x00000000
        6525000	       651	80000408	00000013	addi	x0,x0,0	  x0:0x00000000
        6535000	       652	8000040c	0180026f	jal	x4,8000040c	  x4=0x8000040c
        6545000	       653	00000000	00000013	addi	x0,x0,0	  x0:0x00000000
        6555000	       654	80000420	00000013	addi	x0,x0,0	  x0:0x00000000
        6565000	       655	80000424	0016acb3	slt	x25,x13,x1	 x13:0x800003b0  x1:0x80000418 x25=0x00000001
        6575000	       656	80000428	03400c6f	jal	x24,80000428	 x24=0x80000428
        6585000	       657	00000000	00000013	addi	x0,x0,0	  x0:0x00000000
        6595000	       658	80000458	00000013	addi	x0,x0,0	  x0:0x00000000
        6605000	       659	8000045c	fddff0ef	jal	x1,8000045c	  x1=0x8000045c
        6615000	       660	00000000	00000013	addi	x0,x0,0	  x0:0x00000000
        6625000	       661	80000434	00000013	addi	x0,x0,0	  x0:0x00000000
        6635000	       662	80000438	038000ef	jal	x1,80000438	  x1=0x80000438
        6645000	       663	00000000	00000013	addi	x0,x0,0	  x0:0x00000000
        6655000	       664	8000046c	00000013	addi	x0,x0,0	  x0:0x00000000
        6665000	       665	80000470	fc5ff0ef	jal	x1,80000470	  x1=0x80000470
        6675000	       666	00000000	00000013	addi	x0,x0,0	  x0:0x00000000
        6685000	       667	80000430	00000013	addi	x0,x0,0	  x0:0x00000000
        6695000	       668	80000434	020000ef	jal	x1,80000434	  x1=0x80000434
        6705000	       669	00000000	00000013	addi	x0,x0,0	  x0:0x00000000
        6715000	       670	80000450	00000013	addi	x0,x0,0	  x0:0x00000000
        6725000	       671	80000454	010000ef	jal	x1,80000454	  x1=0x80000454
        6735000	       672	00000000	00000013	addi	x0,x0,0	  x0:0x00000000
        6745000	       673	80000460	00000013	addi	x0,x0,0	  x0:0x00000000
        6755000	       674	80000464	fe1ff8ef	jal	x17,80000464	 x17=0x80000464
        6765000	       675	00000000	00000013	addi	x0,x0,0	  x0:0x00000000
        6775000	       676	80000440	00000013	addi	x0,x0,0	  x0:0x00000000
        6785000	       677	80000444	fe9ff0ef	jal	x1,80000444	  x1=0x80000444
        6795000	       678	00000000	00000013	addi	x0,x0,0	  x0:0x00000000
        6805000	       679	80000428	00000013	addi	x0,x0,0	  x0:0x00000000
        6815000	       680	8000042c	010002ef	jal	x5,8000042c	  x5=0x8000042c
        6825000	       681	00000000	00000013	addi	x0,x0,0	  x0:0x00000000
        6835000	       682	80000438	00000013	addi	x0,x0,0	  x0:0x00000000
        6845000	       683	8000043c	00c000ef	jal	x1,8000043c	  x1=0x8000043c
        6855000	       684	00000000	00000013	addi	x0,x0,0	  x0:0x00000000
        6865000	       685	80000444	00000013	addi	x0,x0,0	  x0:0x00000000
        6875000	       686	80000448	004000ef	jal	x1,80000448	  x1=0x80000448
        6885000	       687	00000000	00000013	addi	x0,x0,0	  x0:0x00000000
        6895000	       688	80000448	00000013	addi	x0,x0,0	  x0:0x00000000
        6905000	       689	8000044c	028000ef	jal	x1,8000044c	  x1=0x8000044c
        6915000	       690	00000000	00000013	addi	x0,x0,0	  x0:0x00000000
        6925000	       691	80000470	00000013	addi	x0,x0,0	  x0:0x00000000
        6935000	       692	80000474	ff9ff0ef	jal	x1,80000474	  x1=0x80000474
        6945000	       693	00000000	00000013	addi	x0,x0,0	  x0:0x00000000
        6955000	       694	80000468	00000013	addi	x0,x0,0	  x0:0x00000000
        6965000	       695	8000046c	fe5ff0ef	jal	x1,8000046c	  x1=0x8000046c
        6975000	       696	00000000	00000013	addi	x0,x0,0	  x0:0x00000000
        6985000	       697	8000044c	00000013	addi	x0,x0,0	  x0:0x00000000
        6995000	       698	80000450	ff1ff26f	jal	x4,80000450	  x4=0x80000450
        7005000	       699	00000000	00000013	addi	x0,x0,0	  x0:0x00000000
        7015000	       700	8000043c	00000013	addi	x0,x0,0	  x0:0x00000000
        7025000	       701	80000440	01800f6f	jal	x30,80000440	 x30=0x80000440
        7035000	       702	00000000	00000013	addi	x0,x0,0	  x0:0x00000000
        7045000	       703	80000454	00000013	addi	x0,x0,0	  x0:0x00000000
        7055000	       704	80000458	0080056f	jal	x10,80000458	 x10=0x80000458
        7065000	       705	00000000	00000013	addi	x0,x0,0	  x0:0x00000000
        7075000	       706	8000045c	00000013	addi	x0,x0,0	  x0:0x00000000
        7085000	       707	80000460	008000ef	jal	x1,80000460	  x1=0x80000460
        7095000	       708	00000000	00000013	addi	x0,x0,0	  x0:0x00000000
        7105000	       709	80000464	00000013	addi	x0,x0,0	  x0:0x00000000
        7115000	       710	80000468	fc9ff0ef	jal	x1,80000468	  x1=0x80000468
        7125000	       711	00000000	00000013	addi	x0,x0,0	  x0:0x00000000
        7135000	       712	8000042c	00000013	addi	x0,x0,0	  x0:0x00000000
        7145000	       713	80000430	0480026f	jal	x4,80000430	  x4=0x80000430
        7155000	       714	00000000	00000013	addi	x0,x0,0	  x0:0x00000000
        7165000	       715	80000474	00000013	addi	x0,x0,0	  x0:0x00000000
        7175000	       716	80000478	00cd5513	srli	x10,x26,0xc	 x26:0x80000420 x10=0x00080000
        7185000	       717	8000047c	01000c6f	jal	x24,8000047c	 x24=0x8000047c
        7195000	       718	00000000	00000013	addi	x0,x0,0	  x0:0x00000000
        7205000	       719	80000488	00000013	addi	x0,x0,0	  x0:0x00000000
        7215000	       720	8000048c	034000ef	jal	x1,8000048c	  x1=0x8000048c
        7225000	       721	00000000	00000013	addi	x0,x0,0	  x0:0x00000000
        7235000	       722	800004bc	00000013	addi	x0,x0,0	  x0:0x00000000
        7245000	       723	800004c0	fc9ff0ef	jal	x1,800004c0	  x1=0x800004c0
        7255000	       724	00000000	00000013	addi	x0,x0,0	  x0:0x00000000
        7265000	       725	80000484	00000013	addi	x0,x0,0	  x0:0x00000000
        7275000	       726	80000488	018000ef	jal	x1,80000488	  x1=0x80000488
        7285000	       727	00000000	00000013	addi	x0,x0,0	  x0:0x00000000
        7295000	       728	8000049c	00000013	addi	x0,x0,0	  x0:0x00000000
        7305000	       729	800004a0	fe1ff0ef	jal	x1,800004a0	  x1=0x800004a0
        7315000	       730	00000000	00000013	addi	x0,x0,0	  x0:0x00000000
        7325000	       731	8000047c	00000013	addi	x0,x0,0	  x0:0x00000000
        7335000	       732	80000480	030001ef	jal	x3,80000480	  x3=0x80000480
        7345000	       733	00000000	00000013	addi	x0,x0,0	  x0:0x00000000
        7355000	       734	800004ac	00000013	addi	x0,x0,0	  x0:0x00000000
        7365000	       735	800004b0	fe9ff0ef	jal	x1,800004b0	  x1=0x800004b0
        7375000	       736	00000000	00000013	addi	x0,x0,0	  x0:0x00000000
        7385000	       737	80000494	00000013	addi	x0,x0,0	  x0:0x00000000
        7395000	       738	80000498	fedffbef	jal	x23,80000498	 x23=0x80000498
        7405000	       739	00000000	00000013	addi	x0,x0,0	  x0:0x00000000
        7415000	       740	80000480	00000013	addi	x0,x0,0	  x0:0x00000000
        7425000	       741	80000484	03000fef	jal	x31,80000484	 x31=0x80000484
        7435000	       742	00000000	00000013	addi	x0,x0,0	  x0:0x00000000
        7445000	       743	800004b0	00000013	addi	x0,x0,0	  x0:0x00000000
        7455000	       744	800004b4	ff9ff0ef	jal	x1,800004b4	  x1=0x800004b4
        7465000	       745	00000000	00000013	addi	x0,x0,0	  x0:0x00000000
        7475000	       746	800004a8	00000013	addi	x0,x0,0	  x0:0x00000000
        7485000	       747	800004ac	00c000ef	jal	x1,800004ac	  x1=0x800004ac
        7495000	       748	00000000	00000013	addi	x0,x0,0	  x0:0x00000000
        7505000	       749	800004b4	00000013	addi	x0,x0,0	  x0:0x00000000
        7515000	       750	800004b8	fddff0ef	jal	x1,800004b8	  x1=0x800004b8
        7525000	       751	00000000	00000013	addi	x0,x0,0	  x0:0x00000000
        7535000	       752	80000490	00000013	addi	x0,x0,0	  x0:0x00000000
        7545000	       753	80000494	008000ef	jal	x1,80000494	  x1=0x80000494
        7555000	       754	00000000	00000013	addi	x0,x0,0	  x0:0x00000000
        7565000	       755	80000498	00000013	addi	x0,x0,0	  x0:0x00000000
        7575000	       756	8000049c	00c000ef	jal	x1,8000049c	  x1=0x8000049c
        7585000	       757	00000000	00000013	addi	x0,x0,0	  x0:0x00000000
        7595000	       758	800004a4	00000013	addi	x0,x0,0	  x0:0x00000000
        7605000	       759	800004a8	014000ef	jal	x1,800004a8	  x1=0x800004a8
        7615000	       760	00000000	00000013	addi	x0,x0,0	  x0:0x00000000
        7625000	       761	800004b8	00000013	addi	x0,x0,0	  x0:0x00000000
        7635000	       762	800004bc	fe9ff0ef	jal	x1,800004bc	  x1=0x800004bc
        7645000	       763	00000000	00000013	addi	x0,x0,0	  x0:0x00000000
        7655000	       764	800004a0	00000013	addi	x0,x0,0	  x0:0x00000000
        7665000	       765	800004a4	fedff4ef	jal	x9,800004a4	  x9=0x800004a4
        7675000	       766	00000000	00000013	addi	x0,x0,0	  x0:0x00000000
        7685000	       767	8000048c	00000013	addi	x0,x0,0	  x0:0x00000000
        7695000	       768	80000490	034000ef	jal	x1,80000490	  x1=0x80000490
        7705000	       769	00000000	00000013	addi	x0,x0,0	  x0:0x00000000
        7715000	       770	800004c0	00000013	addi	x0,x0,0	  x0:0x00000000
        7725000	       771	800004c4	5b7aac13	slti	x24,x21,1463	 x21:0x80000138 x24=0x00000001
        7735000	       772	800004c8	04800c6f	jal	x24,800004c8	 x24=0x800004c8
        7745000	       773	00000000	00000013	addi	x0,x0,0	  x0:0x00000000
        7755000	       774	8000050c	00000013	addi	x0,x0,0	  x0:0x00000000
        7765000	       775	80000510	ff5ff0ef	jal	x1,80000510	  x1=0x80000510
        7775000	       776	00000000	00000013	addi	x0,x0,0	  x0:0x00000000
        7785000	       777	80000500	00000013	addi	x0,x0,0	  x0:0x00000000
        7795000	       778	80000504	fd5ff0ef	jal	x1,80000504	  x1=0x80000504
        7805000	       779	00000000	00000013	addi	x0,x0,0	  x0:0x00000000
        7815000	       780	800004d4	00000013	addi	x0,x0,0	  x0:0x00000000
        7825000	       781	800004d8	020000ef	jal	x1,800004d8	  x1=0x800004d8
        7835000	       782	00000000	00000013	addi	x0,x0,0	  x0:0x00000000
        7845000	       783	800004f4	00000013	addi	x0,x0,0	  x0:0x00000000
        7855000	       784	800004f8	ffdffe6f	jal	x28,800004f8	 x28=0x800004f8
        7865000	       785	00000000	00000013	addi	x0,x0,0	  x0:0x00000000
        7875000	       786	800004f0	00000013	addi	x0,x0,0	  x0:0x00000000
        7885000	       787	800004f4	ff5ffb6f	jal	x22,800004f4	 x22=0x800004f4
        7895000	       788	00000000	00000013	addi	x0,x0,0	  x0:0x00000000
        7905000	       789	800004e4	00000013	addi	x0,x0,0	  x0:0x00000000
        7915000	       790	800004e8	024000ef	jal	x1,800004e8	  x1=0x800004e8
        7925000	       791	00000000	00000013	addi	x0,x0,0	  x0:0x00000000
        7935000	       792	80000508	00000013	addi	x0,x0,0	  x0:0x00000000
        7945000	       793	8000050c	ff5ffb6f	jal	x22,8000050c	 x22=0x8000050c
        7955000	       794	00000000	00000013	addi	x0,x0,0	  x0:0x00000000
        7965000	       795	800004fc	00000013	addi	x0,x0,0	  x0:0x00000000
        7975000	       796	80000500	fe1ffcef	jal	x25,80000500	 x25=0x80000500
        7985000	       797	00000000	00000013	addi	x0,x0,0	  x0:0x00000000
        7995000	       798	800004dc	00000013	addi	x0,x0,0	  x0:0x00000000
        8005000	       799	800004e0	004000ef	jal	x1,800004e0	  x1=0x800004e0
        8015000	       800	00000000	00000013	addi	x0,x0,0	  x0:0x00000000
        8025000	       801	800004e0	00000013	addi	x0,x0,0	  x0:0x00000000
        8035000	       802	800004e4	018000ef	jal	x1,800004e4	  x1=0x800004e4
        8045000	       803	00000000	00000013	addi	x0,x0,0	  x0:0x00000000
        8055000	       804	800004f8	00000013	addi	x0,x0,0	  x0:0x00000000
        8065000	       805	800004fc	fd1ff0ef	jal	x1,800004fc	  x1=0x800004fc
        8075000	       806	00000000	00000013	addi	x0,x0,0	  x0:0x00000000
        8085000	       807	800004c8	00000013	addi	x0,x0,0	  x0:0x00000000
        8095000	       808	800004cc	00800a6f	jal	x20,800004cc	 x20=0x800004cc
        8105000	       809	00000000	00000013	addi	x0,x0,0	  x0:0x00000000
        8115000	       810	800004d0	00000013	addi	x0,x0,0	  x0:0x00000000
        8125000	       811	800004d4	0340026f	jal	x4,800004d4	  x4=0x800004d4
        8135000	       812	00000000	00000013	addi	x0,x0,0	  x0:0x00000000
        8145000	       813	80000504	00000013	addi	x0,x0,0	  x0:0x00000000
        8155000	       814	80000508	fe9ff0ef	jal	x1,80000508	  x1=0x80000508
        8165000	       815	00000000	00000013	addi	x0,x0,0	  x0:0x00000000
        8175000	       816	800004ec	00000013	addi	x0,x0,0	  x0:0x00000000
        8185000	       817	800004f0	fedff0ef	jal	x1,800004f0	  x1=0x800004f0
        8195000	       818	00000000	00000013	addi	x0,x0,0	  x0:0x00000000
        8205000	       819	800004d8	00000013	addi	x0,x0,0	  x0:0x00000000
        8215000	       820	800004dc	010002ef	jal	x5,800004dc	  x5=0x800004dc
        8225000	       821	00000000	00000013	addi	x0,x0,0	  x0:0x00000000
        8235000	       822	800004e8	00000013	addi	x0,x0,0	  x0:0x00000000
        8245000	       823	800004ec	fe5ff76f	jal	x14,800004ec	 x14=0x800004ec
        8255000	       824	00000000	00000013	addi	x0,x0,0	  x0:0x00000000
        8265000	       825	800004cc	00000013	addi	x0,x0,0	  x0:0x00000000
        8275000	       826	800004d0	044000ef	jal	x1,800004d0	  x1=0x800004d0
        8285000	       827	00000000	00000013	addi	x0,x0,0	  x0:0x00000000
        8295000	       828	80000510	00000013	addi	x0,x0,0	  x0:0x00000000
        8305000	       829	80000514	41f6db93	srai	x23,x13,0x1f	 x13:0x800003b0 x23=0xffffffff
        8315000	       830	80000518	01400c6f	jal	x24,80000518	 x24=0x80000518
        8325000	       831	00000000	00000013	addi	x0,x0,0	  x0:0x00000000
        8335000	       832	80000528	00000013	addi	x0,x0,0	  x0:0x00000000
        8345000	       833	8000052c	010000ef	jal	x1,8000052c	  x1=0x8000052c
        8355000	       834	00000000	00000013	addi	x0,x0,0	  x0:0x00000000
        8365000	       835	80000538	00000013	addi	x0,x0,0	  x0:0x00000000
        8375000	       836	8000053c	fe1ff0ef	jal	x1,8000053c	  x1=0x8000053c
        8385000	       837	00000000	00000013	addi	x0,x0,0	  x0:0x00000000
        8395000	       838	80000518	00000013	addi	x0,x0,0	  x0:0x00000000
        8405000	       839	8000051c	04000e6f	jal	x28,8000051c	 x28=0x8000051c
        8415000	       840	00000000	00000013	addi	x0,x0,0	  x0:0x00000000
        8425000	       841	80000558	00000013	addi	x0,x0,0	  x0:0x00000000
        8435000	       842	8000055c	ffdff0ef	jal	x1,8000055c	  x1=0x8000055c
        8445000	       843	00000000	00000013	addi	x0,x0,0	  x0:0x00000000
        8455000	       844	80000554	00000013	addi	x0,x0,0	  x0:0x00000000
        8465000	       845	80000558	fe1ffaef	jal	x21,80000558	 x21=0x80000558
        8475000	       846	00000000	00000013	addi	x0,x0,0	  x0:0x00000000
        8485000	       847	80000534	00000013	addi	x0,x0,0	  x0:0x00000000
        8495000	       848	80000538	034000ef	jal	x1,80000538	  x1=0x80000538
        8505000	       849	00000000	00000013	addi	x0,x0,0	  x0:0x00000000
        8515000	       850	80000568	00000013	addi	x0,x0,0	  x0:0x00000000
        8525000	       851	8000056c	ff5ff0ef	jal	x1,8000056c	  x1=0x8000056c
        8535000	       852	00000000	00000013	addi	x0,x0,0	  x0:0x00000000
        8545000	       853	8000055c	00000013	addi	x0,x0,0	  x0:0x00000000
        8555000	       854	80000560	fd1ff0ef	jal	x1,80000560	  x1=0x80000560
        8565000	       855	00000000	00000013	addi	x0,x0,0	  x0:0x00000000
        8575000	       856	8000052c	00000013	addi	x0,x0,0	  x0:0x00000000
        8585000	       857	80000530	00400cef	jal	x25,80000530	 x25=0x80000530
        8595000	       858	00000000	00000013	addi	x0,x0,0	  x0:0x00000000
        8605000	       859	80000530	00000013	addi	x0,x0,0	  x0:0x00000000
        8615000	       860	80000534	040000ef	jal	x1,80000534	  x1=0x80000534
        8625000	       861	00000000	00000013	addi	x0,x0,0	  x0:0x00000000
        8635000	       862	80000570	00000013	addi	x0,x0,0	  x0:0x00000000
        8645000	       863	80000574	fd9ff0ef	jal	x1,80000574	  x1=0x80000574
        8655000	       864	00000000	00000013	addi	x0,x0,0	  x0:0x00000000
        8665000	       865	80000548	00000013	addi	x0,x0,0	  x0:0x00000000
        8675000	       866	8000054c	ff5ff0ef	jal	x1,8000054c	  x1=0x8000054c
        8685000	       867	00000000	00000013	addi	x0,x0,0	  x0:0x00000000
        8695000	       868	8000053c	00000013	addi	x0,x0,0	  x0:0x00000000
        8705000	       869	80000540	014000ef	jal	x1,80000540	  x1=0x80000540
        8715000	       870	00000000	00000013	addi	x0,x0,0	  x0:0x00000000
        8725000	       871	80000550	00000013	addi	x0,x0,0	  x0:0x00000000
        8735000	       872	80000554	010000ef	jal	x1,80000554	  x1=0x80000554
        8745000	       873	00000000	00000013	addi	x0,x0,0	  x0:0x00000000
        8755000	       874	80000560	00000013	addi	x0,x0,0	  x0:0x00000000
        8765000	       875	80000564	fedff2ef	jal	x5,80000564	  x5=0x80000564
        8775000	       876	00000000	00000013	addi	x0,x0,0	  x0:0x00000000
        8785000	       877	8000054c	00000013	addi	x0,x0,0	  x0:0x00000000
        8795000	       878	80000550	fd5ff5ef	jal	x11,80000550	 x11=0x80000550
        8805000	       879	00000000	00000013	addi	x0,x0,0	  x0:0x00000000
        8815000	       880	80000520	00000013	addi	x0,x0,0	  x0:0x00000000
        8825000	       881	80000524	004000ef	jal	x1,80000524	  x1=0x80000524
        8835000	       882	00000000	00000013	addi	x0,x0,0	  x0:0x00000000
        8845000	       883	80000524	00000013	addi	x0,x0,0	  x0:0x00000000
        8855000	       884	80000528	04000fef	jal	x31,80000528	 x31=0x80000528
        8865000	       885	00000000	00000013	addi	x0,x0,0	  x0:0x00000000
        8875000	       886	80000564	00000013	addi	x0,x0,0	  x0:0x00000000
        8885000	       887	80000568	fb9ff86f	jal	x16,80000568	 x16=0x80000568
        8895000	       888	00000000	00000013	addi	x0,x0,0	  x0:0x00000000
        8905000	       889	8000051c	00000013	addi	x0,x0,0	  x0:0x00000000
        8915000	       890	80000520	02400def	jal	x27,80000520	 x27=0x80000520
        8925000	       891	00000000	00000013	addi	x0,x0,0	  x0:0x00000000
        8935000	       892	80000540	00000013	addi	x0,x0,0	  x0:0x00000000
        8945000	       893	80000544	004000ef	jal	x1,80000544	  x1=0x80000544
        8955000	       894	00000000	00000013	addi	x0,x0,0	  x0:0x00000000
        8965000	       895	80000544	00000013	addi	x0,x0,0	  x0:0x00000000
        8975000	       896	80000548	028009ef	jal	x19,80000548	 x19=0x80000548
        8985000	       897	00000000	00000013	addi	x0,x0,0	  x0:0x00000000
        8995000	       898	8000056c	00000013	addi	x0,x0,0	  x0:0x00000000
        9005000	       899	80000570	008000ef	jal	x1,80000570	  x1=0x80000570
        9015000	       900	00000000	00000013	addi	x0,x0,0	  x0:0x00000000
        9025000	       901	80000574	00000013	addi	x0,x0,0	  x0:0x00000000
        9035000	       902	80000578	25c03f97	auipc	x31,0x25c03	 x31=0xa5c03574
        9045000	       903	8000057c	01800c6f	jal	x24,8000057c	 x24=0x8000057c
        9055000	       904	00000000	00000013	addi	x0,x0,0	  x0:0x00000000
        9065000	       905	80000590	00000013	addi	x0,x0,0	  x0:0x00000000
        9075000	       906	80000594	004000ef	jal	x1,80000594	  x1=0x80000594
        9085000	       907	00000000	00000013	addi	x0,x0,0	  x0:0x00000000
        9095000	       908	80000594	00000013	addi	x0,x0,0	  x0:0x00000000
        9105000	       909	80000598	004000ef	jal	x1,80000598	  x1=0x80000598
        9115000	       910	00000000	00000013	addi	x0,x0,0	  x0:0x00000000
        9125000	       911	80000598	00000013	addi	x0,x0,0	  x0:0x00000000
        9135000	       912	8000059c	004004ef	jal	x9,8000059c	  x9=0x8000059c
        9145000	       913	00000000	00000013	addi	x0,x0,0	  x0:0x00000000
        9155000	       914	8000059c	00000013	addi	x0,x0,0	  x0:0x00000000
        9165000	       915	800005a0	010002ef	jal	x5,800005a0	  x5=0x800005a0
        9175000	       916	00000000	00000013	addi	x0,x0,0	  x0:0x00000000
        9185000	       917	800005ac	00000013	addi	x0,x0,0	  x0:0x00000000
        9195000	       918	800005b0	008008ef	jal	x17,800005b0	 x17=0x800005b0
        9205000	       919	00000000	00000013	addi	x0,x0,0	  x0:0x00000000
        9215000	       920	800005b4	00000013	addi	x0,x0,0	  x0:0x00000000
        9225000	       921	800005b8	ff5ff0ef	jal	x1,800005b8	  x1=0x800005b8
        9235000	       922	00000000	00000013	addi	x0,x0,0	  x0:0x00000000
        9245000	       923	800005a8	00000013	addi	x0,x0,0	  x0:0x00000000
        9255000	       924	800005ac	fd5ff0ef	jal	x1,800005ac	  x1=0x800005ac
        9265000	       925	00000000	00000013	addi	x0,x0,0	  x0:0x00000000
        9275000	       926	8000057c	00000013	addi	x0,x0,0	  x0:0x00000000
        9285000	       927	80000580	004000ef	jal	x1,80000580	  x1=0x80000580
        9295000	       928	00000000	00000013	addi	x0,x0,0	  x0:0x00000000
        9305000	       929	80000580	00000013	addi	x0,x0,0	  x0:0x00000000
        9315000	       930	80000584	00c000ef	jal	x1,80000584	  x1=0x80000584
        9325000	       931	00000000	00000013	addi	x0,x0,0	  x0:0x00000000
        9335000	       932	8000058c	00000013	addi	x0,x0,0	  x0:0x00000000
        9345000	       933	80000590	ffdff0ef	jal	x1,80000590	  x1=0x80000590
        9355000	       934	00000000	00000013	addi	x0,x0,0	  x0:0x00000000
        9365000	       935	80000588	00000013	addi	x0,x0,0	  x0:0x00000000
        9375000	       936	8000058c	ffdff56f	jal	x10,8000058c	 x10=0x8000058c
        9385000	       937	00000000	00000013	addi	x0,x0,0	  x0:0x00000000
        9395000	       938	80000584	00000013	addi	x0,x0,0	  x0:0x00000000
        9405000	       939	80000588	020000ef	jal	x1,80000588	  x1=0x80000588
        9415000	       940	00000000	00000013	addi	x0,x0,0	  x0:0x00000000
        9425000	       941	800005a4	00000013	addi	x0,x0,0	  x0:0x00000000
        9435000	       942	800005a8	ffdff0ef	jal	x1,800005a8	  x1=0x800005a8
        9445000	       943	00000000	00000013	addi	x0,x0,0	  x0:0x00000000
        9455000	       944	800005a0	00000013	addi	x0,x0,0	  x0:0x00000000
        9465000	       945	800005a4	010000ef	jal	x1,800005a4	  x1=0x800005a4
        9475000	       946	00000000	00000013	addi	x0,x0,0	  x0:0x00000000
        9485000	       947	800005b0	00000013	addi	x0,x0,0	  x0:0x00000000
        9495000	       948	800005b4	008000ef	jal	x1,800005b4	  x1=0x800005b4
        9505000	       949	00000000	00000013	addi	x0,x0,0	  x0:0x00000000
        9515000	       950	800005b8	00000013	addi	x0,x0,0	  x0:0x00000000
        9525000	       951	800005bc	015fffb3	and	x31,x31,x21	 x31:0xa5c03574 x21:0x80000558 x31=0x80000550
        9535000	       952	800005c0	00c00c6f	jal	x24,800005c0	 x24=0x800005c0
        9545000	       953	00000000	00000013	addi	x0,x0,0	  x0:0x00000000
        9555000	       954	800005c8	00000013	addi	x0,x0,0	  x0:0x00000000
        9565000	       955	800005cc	0240046f	jal	x8,800005cc	  x8=0x800005cc
        9575000	       956	00000000	00000013	addi	x0,x0,0	  x0:0x00000000
        9585000	       957	800005ec	00000013	addi	x0,x0,0	  x0:0x00000000
        9595000	       958	800005f0	004000ef	jal	x1,800005f0	  x1=0x800005f0
        9605000	       959	00000000	00000013	addi	x0,x0,0	  x0:0x00000000
        9615000	       960	800005f0	00000013	addi	x0,x0,0	  x0:0x00000000
        9625000	       961	800005f4	00c000ef	jal	x1,800005f4	  x1=0x800005f4
        9635000	       962	00000000	00000013	addi	x0,x0,0	  x0:0x00000000
        9645000	       963	800005fc	00000013	addi	x0,x0,0	  x0:0x00000000
        9655000	       964	80000600	fedff0ef	jal	x1,80000600	  x1=0x80000600
        9665000	       965	00000000	00000013	addi	x0,x0,0	  x0:0x00000000
        9675000	       966	800005e8	00000013	addi	x0,x0,0	  x0:0x00000000
        9685000	       967	800005ec	0100056f	jal	x10,800005ec	 x10=0x800005ec
        9695000	       968	00000000	00000013	addi	x0,x0,0	  x0:0x00000000
        9705000	       969	800005f8	00000013	addi	x0,x0,0	  x0:0x00000000
        9715000	       970	800005fc	fe1ff0ef	jal	x1,800005fc	  x1=0x800005fc
        9725000	       971	00000000	00000013	addi	x0,x0,0	  x0:0x00000000
        9735000	       972	800005d8	00000013	addi	x0,x0,0	  x0:0x00000000
        9745000	       973	800005dc	ffdff0ef	jal	x1,800005dc	  x1=0x800005dc
        9755000	       974	00000000	00000013	addi	x0,x0,0	  x0:0x00000000
        9765000	       975	800005d4	00000013	addi	x0,x0,0	  x0:0x00000000
        9775000	       976	800005d8	ff9ff26f	jal	x4,800005d8	  x4=0x800005d8
        9785000	       977	00000000	00000013	addi	x0,x0,0	  x0:0x00000000
        9795000	       978	800005cc	00000013	addi	x0,x0,0	  x0:0x00000000
        9805000	       979	800005d0	028000ef	jal	x1,800005d0	  x1=0x800005d0
        9815000	       980	00000000	00000013	addi	x0,x0,0	  x0:0x00000000
        9825000	       981	800005f4	00000013	addi	x0,x0,0	  x0:0x00000000
        9835000	       982	800005f8	fcdff0ef	jal	x1,800005f8	  x1=0x800005f8
        9845000	       983	00000000	00000013	addi	x0,x0,0	  x0:0x00000000
        9855000	       984	800005c0	00000013	addi	x0,x0,0	  x0:0x00000000
        9865000	       985	800005c4	020002ef	jal	x5,800005c4	  x5=0x800005c4
        9875000	       986	00000000	00000013	addi	x0,x0,0	  x0:0x00000000
        9885000	       987	800005e0	00000013	addi	x0,x0,0	  x0:0x00000000
        9895000	       988	800005e4	004000ef	jal	x1,800005e4	  x1=0x800005e4
        9905000	       989	00000000	00000013	addi	x0,x0,0	  x0:0x00000000
        9915000	       990	800005e4	00000013	addi	x0,x0,0	  x0:0x00000000
        9925000	       991	800005e8	01c003ef	jal	x7,800005e8	  x7=0x800005e8
        9935000	       992	00000000	00000013	addi	x0,x0,0	  x0:0x00000000
        9945000	       993	80000600	00000013	addi	x0,x0,0	  x0:0x00000000
        9955000	       994	80000604	fc5ff0ef	jal	x1,80000604	  x1=0x80000604
        9965000	       995	00000000	00000013	addi	x0,x0,0	  x0:0x00000000
        9975000	       996	800005c4	00000013	addi	x0,x0,0	  x0:0x00000000
        9985000	       997	800005c8	00c005ef	jal	x11,800005c8	 x11=0x800005c8
        9995000	       998	00000000	00000013	addi	x0,x0,0	  x0:0x00000000
       10005000	       999	800005d0	00000013	addi	x0,x0,0	  x0:0x00000000
       10015000	      1000	800005d4	00c0056f	jal	x10,800005d4	 x10=0x800005d4
       10025000	      1001	00000000	00000013	addi	x0,x0,0	  x0:0x00000000
       10035000	      1002	800005dc	00000013	addi	x0,x0,0	  x0:0x00000000
       10045000	      1003	800005e0	028000ef	jal	x1,800005e0	  x1=0x800005e0
       10055000	      1004	00000000	00000013	addi	x0,x0,0	  x0:0x00000000
       10065000	      1005	80000604	00000013	addi	x0,x0,0	  x0:0x00000000
       10075000	      1006	80000608	e312e613	ori	x12,x5,-463	  x5:0x800005c4 x12=0xfffffff5
       10085000	      1007	8000060c	01000c6f	jal	x24,8000060c	 x24=0x8000060c
       10095000	      1008	00000000	00000013	addi	x0,x0,0	  x0:0x00000000
       10105000	      1009	80000618	00000013	addi	x0,x0,0	  x0:0x00000000
       10115000	      1010	8000061c	03800d6f	jal	x26,8000061c	 x26=0x8000061c
       10125000	      1011	00000000	00000013	addi	x0,x0,0	  x0:0x00000000
       10135000	      1012	80000650	00000013	addi	x0,x0,0	  x0:0x00000000
       10145000	      1013	80000654	fe5ff0ef	jal	x1,80000654	  x1=0x80000654
       10155000	      1014	00000000	00000013	addi	x0,x0,0	  x0:0x00000000
       10165000	      1015	80000634	00000013	addi	x0,x0,0	  x0:0x00000000
       10175000	      1016	80000638	018000ef	jal	x1,80000638	  x1=0x80000638
       10185000	      1017	00000000	00000013	addi	x0,x0,0	  x0:0x00000000
       10195000	      1018	8000064c	00000013	addi	x0,x0,0	  x0:0x00000000
       10205000	      1019	80000650	fd5ff16f	jal	x2,80000650	  x2=0x80000650
       10215000	      1020	00000000	00000013	addi	x0,x0,0	  x0:0x00000000
       10225000	      1021	80000620	00000013	addi	x0,x0,0	  x0:0x00000000
       10235000	      1022	80000624	018000ef	jal	x1,80000624	  x1=0x80000624
       10245000	      1023	00000000	00000013	addi	x0,x0,0	  x0:0x00000000
       10255000	      1024	80000638	00000013	addi	x0,x0,0	  x0:0x00000000
       10265000	      1025	8000063c	00c00a6f	jal	x20,8000063c	 x20=0x8000063c
       10275000	      1026	00000000	00000013	addi	x0,x0,0	  x0:0x00000000
       10285000	      1027	80000644	00000013	addi	x0,x0,0	  x0:0x00000000
       10295000	      1028	80000648	004000ef	jal	x1,80000648	  x1=0x80000648
       10305000	      1029	00000000	00000013	addi	x0,x0,0	  x0:0x00000000
       10315000	      1030	80000648	00000013	addi	x0,x0,0	  x0:0x00000000
       10325000	      1031	8000064c	fc5ff0ef	jal	x1,8000064c	  x1=0x8000064c
       10335000	      1032	00000000	00000013	addi	x0,x0,0	  x0:0x00000000
       10345000	      1033	8000060c	00000013	addi	x0,x0,0	  x0:0x00000000
       10355000	      1034	80000610	024000ef	jal	x1,80000610	  x1=0x80000610
       10365000	      1035	00000000	00000013	addi	x0,x0,0	  x0:0x00000000
       10375000	      1036	80000630	00000013	addi	x0,x0,0	  x0:0x00000000
       10385000	      1037	80000634	ff9ff0ef	jal	x1,80000634	  x1=0x80000634
       10395000	      1038	00000000	00000013	addi	x0,x0,0	  x0:0x00000000
       10405000	      1039	80000628	00000013	addi	x0,x0,0	  x0:0x00000000
       10415000	      1040	8000062c	02c001ef	jal	x3,8000062c	  x3=0x8000062c
       10425000	      1041	00000000	00000013	addi	x0,x0,0	  x0:0x00000000
       10435000	      1042	80000654	00000013	addi	x0,x0,0	  x0:0x00000000
       10445000	      1043	80000658	fd9ff0ef	jal	x1,80000658	  x1=0x80000658
       10455000	      1044	00000000	00000013	addi	x0,x0,0	  x0:0x00000000
       10465000	      1045	8000062c	00000013	addi	x0,x0,0	  x0:0x00000000
       10475000	      1046	80000630	010000ef	jal	x1,80000630	  x1=0x80000630
       10485000	      1047	00000000	00000013	addi	x0,x0,0	  x0:0x00000000
       10495000	      1048	8000063c	00000013	addi	x0,x0,0	  x0:0x00000000
       10505000	      1049	80000640	fd5ff0ef	jal	x1,80000640	  x1=0x80000640
       10515000	      1050	00000000	00000013	addi	x0,x0,0	  x0:0x00000000
       10525000	      1051	80000610	00000013	addi	x0,x0,0	  x0:0x00000000
       10535000	      1052	80000614	00c00b6f	jal	x22,80000614	 x22=0x80000614
       10545000	      1053	00000000	00000013	addi	x0,x0,0	  x0:0x00000000
       10555000	      1054	8000061c	00000013	addi	x0,x0,0	  x0:0x00000000
       10565000	      1055	80000620	ff9ffd6f	jal	x26,80000620	 x26=0x80000620
       10575000	      1056	00000000	00000013	addi	x0,x0,0	  x0:0x00000000
       10585000	      1057	80000614	00000013	addi	x0,x0,0	  x0:0x00000000
       10595000	      1058	80000618	010000ef	jal	x1,80000618	  x1=0x80000618
       10605000	      1059	00000000	00000013	addi	x0,x0,0	  x0:0x00000000
       10615000	      1060	80000624	00000013	addi	x0,x0,0	  x0:0x00000000
       10625000	      1061	80000628	01c000ef	jal	x1,80000628	  x1=0x80000628
       10635000	      1062	00000000	00000013	addi	x0,x0,0	  x0:0x00000000
       10645000	      1063	80000640	00000013	addi	x0,x0,0	  x0:0x00000000
       10655000	      1064	80000644	018000ef	jal	x1,80000644	  x1=0x80000644
       10665000	      1065	00000000	00000013	addi	x0,x0,0	  x0:0x00000000
       10675000	      1066	80000658	00000013	addi	x0,x0,0	  x0:0x00000000
       10685000	      1067	8000065c	be098993	addi	x19,x19,-1056	 x19:0x80000548 x19=0x80000128
       10695000	      1068	80000660	00800c6f	jal	x24,80000660	 x24=0x80000660
       10705000	      1069	00000000	00000013	addi	x0,x0,0	  x0:0x00000000
       10715000	      1070	80000664	00000013	addi	x0,x0,0	  x0:0x00000000
       10725000	      1071	80000668	014000ef	jal	x1,80000668	  x1=0x80000668
       10735000	      1072	00000000	00000013	addi	x0,x0,0	  x0:0x00000000
       10745000	      1073	80000678	00000013	addi	x0,x0,0	  x0:0x00000000
       10755000	      1074	8000067c	014000ef	jal	x1,8000067c	  x1=0x8000067c
       10765000	      1075	00000000	00000013	addi	x0,x0,0	  x0:0x00000000
       10775000	      1076	8000068c	00000013	addi	x0,x0,0	  x0:0x00000000
       10785000	      1077	80000690	fddff0ef	jal	x1,80000690	  x1=0x80000690
       10795000	      1078	00000000	00000013	addi	x0,x0,0	  x0:0x00000000
       10805000	      1079	80000668	00000013	addi	x0,x0,0	  x0:0x00000000
       10815000	      1080	8000066c	00c000ef	jal	x1,8000066c	  x1=0x8000066c
       10825000	      1081	00000000	00000013	addi	x0,x0,0	  x0:0x00000000
       10835000	      1082	80000674	00000013	addi	x0,x0,0	  x0:0x00000000
       10845000	      1083	80000678	ffdff26f	jal	x4,80000678	  x4=0x80000678
       10855000	      1084	00000000	00000013	addi	x0,x0,0	  x0:0x00000000
       10865000	      1085	80000670	00000013	addi	x0,x0,0	  x0:0x00000000
       10875000	      1086	80000674	ffdff0ef	jal	x1,80000674	  x1=0x80000674
       10885000	      1087	00000000	00000013	addi	x0,x0,0	  x0:0x00000000
       10895000	      1088	8000066c	00000013	addi	x0,x0,0	  x0:0x00000000
       10905000	      1089	80000670	01c000ef	jal	x1,80000670	  x1=0x80000670
       10915000	      1090	00000000	00000013	addi	x0,x0,0	  x0:0x00000000
       10925000	      1091	80000688	00000013	addi	x0,x0,0	  x0:0x00000000
       10935000	      1092	8000068c	ffdff0ef	jal	x1,8000068c	  x1=0x8000068c
       10945000	      1093	00000000	00000013	addi	x0,x0,0	  x0:0x00000000
       10955000	      1094	80000684	00000013	addi	x0,x0,0	  x0:0x00000000
       10965000	      1095	80000688	010000ef	jal	x1,80000688	  x1=0x80000688
       10975000	      1096	00000000	00000013	addi	x0,x0,0	  x0:0x00000000
       10985000	      1097	80000694	00000013	addi	x0,x0,0	  x0:0x00000000
       10995000	      1098	80000698	fedff0ef	jal	x1,80000698	  x1=0x80000698
       11005000	      1099	00000000	00000013	addi	x0,x0,0	  x0:0x00000000
       11015000	      1100	80000680	00000013	addi	x0,x0,0	  x0:0x00000000
       11025000	      1101	80000684	fe1ff0ef	jal	x1,80000684	  x1=0x80000684
       11035000	      1102	00000000	00000013	addi	x0,x0,0	  x0:0x00000000
       11045000	      1103	80000660	00000013	addi	x0,x0,0	  x0:0x00000000
       11055000	      1104	80000664	01c0086f	jal	x16,80000664	 x16=0x80000664
       11065000	      1105	00000000	00000013	addi	x0,x0,0	  x0:0x00000000
       11075000	      1106	8000067c	00000013	addi	x0,x0,0	  x0:0x00000000
       11085000	      1107	80000680	014000ef	jal	x1,80000680	  x1=0x80000680
       11095000	      1108	00000000	00000013	addi	x0,x0,0	  x0:0x00000000
       11105000	      1109	80000690	00000013	addi	x0,x0,0	  x0:0x00000000
       11115000	      1110	80000694	008000ef	jal	x1,80000694	  x1=0x80000694
       11125000	      1111	00000000	00000013	addi	x0,x0,0	  x0:0x00000000
       11135000	      1112	80000698	00000013	addi	x0,x0,0	  x0:0x00000000
       11145000	      1113	8000069c	003da733	slt	x14,x27,x3	 x27:0x80000520  x3:0x8000062c x14=0x00000001
       11155000	      1114	800006a0	03000c6f	jal	x24,800006a0	 x24=0x800006a0
       11165000	      1115	00000000	00000013	addi	x0,x0,0	  x0:0x00000000
       11175000	      1116	800006cc	00000013	addi	x0,x0,0	  x0:0x00000000
       11185000	      1117	800006d0	008000ef	jal	x1,800006d0	  x1=0x800006d0
       11195000	      1118	00000000	00000013	addi	x0,x0,0	  x0:0x00000000
       11205000	      1119	800006d4	00000013	addi	x0,x0,0	  x0:0x00000000
       11215000	      1120	800006d8	fcdff2ef	jal	x5,800006d8	  x5=0x800006d8
       11225000	      1121	00000000	00000013	addi	x0,x0,0	  x0:0x00000000
       11235000	      1122	800006a0	00000013	addi	x0,x0,0	  x0:0x00000000
       11245000	      1123	800006a4	00c000ef	jal	x1,800006a4	  x1=0x800006a4
       11255000	      1124	00000000	00000013	addi	x0,x0,0	  x0:0x00000000
       11265000	      1125	800006ac	00000013	addi	x0,x0,0	  x0:0x00000000
       11275000	      1126	800006b0	030000ef	jal	x1,800006b0	  x1=0x800006b0
       11285000	      1127	00000000	00000013	addi	x0,x0,0	  x0:0x00000000
       11295000	      1128	800006dc	00000013	addi	x0,x0,0	  x0:0x00000000
       11305000	      1129	800006e0	fe1fffef	jal	x31,800006e0	 x31=0x800006e0
       11315000	      1130	00000000	00000013	addi	x0,x0,0	  x0:0x00000000
       11325000	      1131	800006bc	00000013	addi	x0,x0,0	  x0:0x00000000
       11335000	      1132	800006c0	fe9ff0ef	jal	x1,800006c0	  x1=0x800006c0
       11345000	      1133	00000000	00000013	addi	x0,x0,0	  x0:0x00000000
       11355000	      1134	800006a4	00000013	addi	x0,x0,0	  x0:0x00000000
       11365000	      1135	800006a8	014000ef	jal	x1,800006a8	  x1=0x800006a8
       11375000	      1136	00000000	00000013	addi	x0,x0,0	  x0:0x00000000
       11385000	      1137	800006b8	00000013	addi	x0,x0,0	  x0:0x00000000
       11395000	      1138	800006bc	ff1ff0ef	jal	x1,800006bc	  x1=0x800006bc
       11405000	      1139	00000000	00000013	addi	x0,x0,0	  x0:0x00000000
       11415000	      1140	800006a8	00000013	addi	x0,x0,0	  x0:0x00000000
       11425000	      1141	800006ac	028000ef	jal	x1,800006ac	  x1=0x800006ac
       11435000	      1142	00000000	00000013	addi	x0,x0,0	  x0:0x00000000
       11445000	      1143	800006d0	00000013	addi	x0,x0,0	  x0:0x00000000
       11455000	      1144	800006d4	ff1ff0ef	jal	x1,800006d4	  x1=0x800006d4
       11465000	      1145	00000000	00000013	addi	x0,x0,0	  x0:0x00000000
       11475000	      1146	800006c0	00000013	addi	x0,x0,0	  x0:0x00000000
       11485000	      1147	800006c4	018000ef	jal	x1,800006c4	  x1=0x800006c4
       11495000	      1148	00000000	00000013	addi	x0,x0,0	  x0:0x00000000
       11505000	      1149	800006d8	00000013	addi	x0,x0,0	  x0:0x00000000
       11515000	      1150	800006dc	008000ef	jal	x1,800006dc	  x1=0x800006dc
       11525000	      1151	00000000	00000013	addi	x0,x0,0	  x0:0x00000000
       11535000	      1152	800006e0	00000013	addi	x0,x0,0	  x0:0x00000000
       11545000	      1153	800006e4	fd1ff9ef	jal	x19,800006e4	 x19=0x800006e4
       11555000	      1154	00000000	00000013	addi	x0,x0,0	  x0:0x00000000
       11565000	      1155	800006b0	00000013	addi	x0,x0,0	  x0:0x00000000
       11575000	      1156	800006b4	018000ef	jal	x1,800006b4	  x1=0x800006b4
       11585000	      1157	00000000	00000013	addi	x0,x0,0	  x0:0x00000000
       11595000	      1158	800006c8	00000013	addi	x0,x0,0	  x0:0x00000000
       11605000	      1159	800006cc	fedfff6f	jal	x30,800006cc	 x30=0x800006cc
       11615000	      1160	00000000	00000013	addi	x0,x0,0	  x0:0x00000000
       11625000	      1161	800006b4	00000013	addi	x0,x0,0	  x0:0x00000000
       11635000	      1162	800006b8	030000ef	jal	x1,800006b8	  x1=0x800006b8
       11645000	      1163	00000000	00000013	addi	x0,x0,0	  x0:0x00000000
       11655000	      1164	800006e4	00000013	addi	x0,x0,0	  x0:0x00000000
       11665000	      1165	800006e8	fe1ff0ef	jal	x1,800006e8	  x1=0x800006e8
       11675000	      1166	00000000	00000013	addi	x0,x0,0	  x0:0x00000000
       11685000	      1167	800006c4	00000013	addi	x0,x0,0	  x0:0x00000000
       11695000	      1168	800006c8	024000ef	jal	x1,800006c8	  x1=0x800006c8
       11705000	      1169	00000000	00000013	addi	x0,x0,0	  x0:0x00000000
       11715000	      1170	800006e8	00000013	addi	x0,x0,0	  x0:0x00000000
       11725000	      1171	800006ec	409b50b3	sra	x1,x22,x9	 x22:0x80000614  x9:0x8000059c  x1=0xfffffff8
       11735000	      1172	800006f0	03000c6f	jal	x24,800006f0	 x24=0x800006f0
       11745000	      1173	00000000	00000013	addi	x0,x0,0	  x0:0x00000000
       11755000	      1174	8000071c	00000013	addi	x0,x0,0	  x0:0x00000000
       11765000	      1175	80000720	fddff26f	jal	x4,80000720	  x4=0x80000720
       11775000	      1176	00000000	00000013	addi	x0,x0,0	  x0:0x00000000
       11785000	      1177	800006f8	00000013	addi	x0,x0,0	  x0:0x00000000
       11795000	      1178	800006fc	0080026f	jal	x4,800006fc	  x4=0x800006fc
       11805000	      1179	00000000	00000013	addi	x0,x0,0	  x0:0x00000000
       11815000	      1180	80000700	00000013	addi	x0,x0,0	  x0:0x00000000
       11825000	      1181	80000704	00c000ef	jal	x1,80000704	  x1=0x80000704
       11835000	      1182	00000000	00000013	addi	x0,x0,0	  x0:0x00000000
       11845000	      1183	8000070c	00000013	addi	x0,x0,0	  x0:0x00000000
       11855000	      1184	80000710	00c000ef	jal	x1,80000710	  x1=0x80000710
       11865000	      1185	00000000	00000013	addi	x0,x0,0	  x0:0x00000000
       11875000	      1186	80000718	00000013	addi	x0,x0,0	  x0:0x00000000
       11885000	      1187	8000071c	008000ef	jal	x1,8000071c	  x1=0x8000071c
       11895000	      1188	00000000	00000013	addi	x0,x0,0	  x0:0x00000000
       11905000	      1189	80000720	00000013	addi	x0,x0,0	  x0:0x00000000
       11915000	      1190	80000724	008006ef	jal	x13,80000724	 x13=0x80000724
       11925000	      1191	00000000	00000013	addi	x0,x0,0	  x0:0x00000000
       11935000	      1192	80000728	00000013	addi	x0,x0,0	  x0:0x00000000
       11945000	      1193	8000072c	fc9ff1ef	jal	x3,8000072c	  x3=0x8000072c
       11955000	      1194	00000000	00000013	addi	x0,x0,0	  x0:0x00000000
       11965000	      1195	800006f0	00000013	addi	x0,x0,0	  x0:0x00000000
       11975000	      1196	800006f4	014000ef	jal	x1,800006f4	  x1=0x800006f4
       11985000	      1197	00000000	00000013	addi	x0,x0,0	  x0:0x00000000
       11995000	      1198	80000704	00000013	addi	x0,x0,0	  x0:0x00000000
       12005000	      1199	80000708	004000ef	jal	x1,80000708	  x1=0x80000708
       12015000	      1200	00000000	00000013	addi	x0,x0,0	  x0:0x00000000
       12025000	      1201	80000708	00000013	addi	x0,x0,0	  x0:0x00000000
       12035000	      1202	8000070c	008000ef	jal	x1,8000070c	  x1=0x8000070c
       12045000	      1203	00000000	00000013	addi	x0,x0,0	  x0:0x00000000
       12055000	      1204	80000710	00000013	addi	x0,x0,0	  x0:0x00000000
       12065000	      1205	80000714	fedff0ef	jal	x1,80000714	  x1=0x80000714
       12075000	      1206	00000000	00000013	addi	x0,x0,0	  x0:0x00000000
       12085000	      1207	800006fc	00000013	addi	x0,x0,0	  x0:0x00000000
       12095000	      1208	80000700	0280026f	jal	x4,80000700	  x4=0x80000700
       12105000	      1209	00000000	00000013	addi	x0,x0,0	  x0:0x00000000
       12115000	      1210	80000724	00000013	addi	x0,x0,0	  x0:0x00000000
       12125000	      1211	80000728	fd1ffb6f	jal	x22,80000728	 x22=0x80000728
       12135000	      1212	00000000	00000013	addi	x0,x0,0	  x0:0x00000000
       12145000	      1213	800006f4	00000013	addi	x0,x0,0	  x0:0x00000000
       12155000	      1214	800006f8	020000ef	jal	x1,800006f8	  x1=0x800006f8
       12165000	      1215	00000000	00000013	addi	x0,x0,0	  x0:0x00000000
       12175000	      1216	80000714	00000013	addi	x0,x0,0	  x0:0x00000000
       12185000	      1217	80000718	018000ef	jal	x1,80000718	  x1=0x80000718
       12195000	      1218	00000000	00000013	addi	x0,x0,0	  x0:0x00000000
       12205000	      1219	8000072c	00000013	addi	x0,x0,0	  x0:0x00000000
       12215000	      1220	80000730	73140b93	addi	x23,x8,1841	  x8:0x800005cc x23=0x80000cfd
       12225000	      1221	80000734	00800c6f	jal	x24,80000734	 x24=0x80000734
       12235000	      1222	00000000	00000013	addi	x0,x0,0	  x0:0x00000000
       12245000	      1223	80000738	00000013	addi	x0,x0,0	  x0:0x00000000
       12255000	      1224	8000073c	01c000ef	jal	x1,8000073c	  x1=0x8000073c
       12265000	      1225	00000000	00000013	addi	x0,x0,0	  x0:0x00000000
       12275000	      1226	80000754	00000013	addi	x0,x0,0	  x0:0x00000000
       12285000	      1227	80000758	fe1ff0ef	jal	x1,80000758	  x1=0x80000758
       12295000	      1228	00000000	00000013	addi	x0,x0,0	  x0:0x00000000
       12305000	      1229	80000734	00000013	addi	x0,x0,0	  x0:0x00000000
       12315000	      1230	80000738	018002ef	jal	x5,80000738	  x5=0x80000738
       12325000	      1231	00000000	00000013	addi	x0,x0,0	  x0:0x00000000
       12335000	      1232	8000074c	00000013	addi	x0,x0,0	  x0:0x00000000
       12345000	      1233	80000750	020000ef	jal	x1,80000750	  x1=0x80000750
       12355000	      1234	00000000	00000013	addi	x0,x0,0	  x0:0x00000000
       12365000	      1235	8000076c	00000013	addi	x0,x0,0	  x0:0x00000000
       12375000	      1236	80000770	ff9ff0ef	jal	x1,80000770	  x1=0x80000770
       12385000	      1237	00000000	00000013	addi	x0,x0,0	  x0:0x00000000
       12395000	      1238	80000764	00000013	addi	x0,x0,0	  x0:0x00000000
       12405000	      1239	80000768	fe1ff0ef	jal	x1,80000768	  x1=0x80000768
       12415000	      1240	00000000	00000013	addi	x0,x0,0	  x0:0x00000000
       12425000	      1241	80000744	00000013	addi	x0,x0,0	  x0:0x00000000
       12435000	      1242	80000748	00c000ef	jal	x1,80000748	  x1=0x80000748
       12445000	      1243	00000000	00000013	addi	x0,x0,0	  x0:0x00000000
       12455000	      1244	80000750	00000013	addi	x0,x0,0	  x0:0x00000000
       12465000	      1245	80000754	018001ef	jal	x3,80000754	  x3=0x80000754
       12475000	      1246	00000000	00000013	addi	x0,x0,0	  x0:0x00000000
       12485000	      1247	80000768	00000013	addi	x0,x0,0	  x0:0x00000000
       12495000	      1248	8000076c	ff9ff66f	jal	x12,8000076c	 x12=0x8000076c
       12505000	      1249	00000000	00000013	addi	x0,x0,0	  x0:0x00000000
       12515000	      1250	80000760	00000013	addi	x0,x0,0	  x0:0x00000000
       12525000	      1251	80000764	ffdff0ef	jal	x1,80000764	  x1=0x80000764
       12535000	      1252	00000000	00000013	addi	x0,x0,0	  x0:0x00000000
       12545000	      1253	8000075c	00000013	addi	x0,x0,0	  x0:0x00000000
       12555000	      1254	80000760	ffdff16f	jal	x2,80000760	  x2=0x80000760
       12565000	      1255	00000000	00000013	addi	x0,x0,0	  x0:0x00000000
       12575000	      1256	80000758	00000013	addi	x0,x0,0	  x0:0x00000000
       12585000	      1257	8000075c	fe5ff0ef	jal	x1,8000075c	  x1=0x8000075c
       12595000	      1258	00000000	00000013	addi	x0,x0,0	  x0:0x00000000
       12605000	      1259	8000073c	00000013	addi	x0,x0,0	  x0:0x00000000
       12615000	      1260	80000740	004000ef	jal	x1,80000740	  x1=0x80000740
       12625000	      1261	00000000	00000013	addi	x0,x0,0	  x0:0x00000000
       12635000	      1262	80000740	00000013	addi	x0,x0,0	  x0:0x00000000
       12645000	      1263	80000744	00800f6f	jal	x30,80000744	 x30=0x80000744
       12655000	      1264	00000000	00000013	addi	x0,x0,0	  x0:0x00000000
       12665000	      1265	80000748	00000013	addi	x0,x0,0	  x0:0x00000000
       12675000	      1266	8000074c	02800def	jal	x27,8000074c	 x27=0x8000074c
       12685000	      1267	00000000	00000013	addi	x0,x0,0	  x0:0x00000000
       12695000	      1268	80000770	00000013	addi	x0,x0,0	  x0:0x00000000
       12705000	      1269	80000774	0123fb33	and	x22,x7,x18	  x7:0x800005e8 x18:0x80009f84 x22=0x80000580
       12715000	      1270	80000778	02c00c6f	jal	x24,80000778	 x24=0x80000778
       12725000	      1271	00000000	00000013	addi	x0,x0,0	  x0:0x00000000
       12735000	      1272	800007a0	00000013	addi	x0,x0,0	  x0:0x00000000
       12745000	      1273	800007a4	0140086f	jal	x16,800007a4	 x16=0x800007a4
       12755000	      1274	00000000	00000013	addi	x0,x0,0	  x0:0x00000000
       12765000	      1275	800007b4	00000013	addi	x0,x0,0	  x0:0x00000000
       12775000	      1276	800007b8	008000ef	jal	x1,800007b8	  x1=0x800007b8
       12785000	      1277	00000000	00000013	addi	x0,x0,0	  x0:0x00000000
       12795000	      1278	800007bc	00000013	addi	x0,x0,0	  x0:0x00000000
       12805000	      1279	800007c0	fd9ff0ef	jal	x1,800007c0	  x1=0x800007c0
       12815000	      1280	00000000	00000013	addi	x0,x0,0	  x0:0x00000000
       12825000	      1281	80000794	00000013	addi	x0,x0,0	  x0:0x00000000
       12835000	      1282	80000798	fedff0ef	jal	x1,80000798	  x1=0x80000798
       12845000	      1283	00000000	00000013	addi	x0,x0,0	  x0:0x00000000
       12855000	      1284	80000780	00000013	addi	x0,x0,0	  x0:0x00000000
       12865000	      1285	80000784	028000ef	jal	x1,80000784	  x1=0x80000784
       12875000	      1286	00000000	00000013	addi	x0,x0,0	  x0:0x00000000
       12885000	      1287	800007a8	00000013	addi	x0,x0,0	  x0:0x00000000
       12895000	      1288	800007ac	004000ef	jal	x1,800007ac	  x1=0x800007ac
       12905000	      1289	00000000	00000013	addi	x0,x0,0	  x0:0x00000000
       12915000	      1290	800007ac	00000013	addi	x0,x0,0	  x0:0x00000000
       12925000	      1291	800007b0	024002ef	jal	x5,800007b0	  x5=0x800007b0
       12935000	      1292	00000000	00000013	addi	x0,x0,0	  x0:0x00000000
       12945000	      1293	800007d0	00000013	addi	x0,x0,0	  x0:0x00000000
       12955000	      1294	800007d4	ff9ffa6f	jal	x20,800007d4	 x20=0x800007d4
       12965000	      1295	00000000	00000013	addi	x0,x0,0	  x0:0x00000000
       12975000	      1296	800007c8	00000013	addi	x0,x0,0	  x0:0x00000000
       12985000	      1297	800007cc	fc1ff16f	jal	x2,800007cc	  x2=0x800007cc
       12995000	      1298	00000000	00000013	addi	x0,x0,0	  x0:0x00000000
       13005000	      1299	80000788	00000013	addi	x0,x0,0	  x0:0x00000000
       13015000	      1300	8000078c	038001ef	jal	x3,8000078c	  x3=0x8000078c
       13025000	      1301	00000000	00000013	addi	x0,x0,0	  x0:0x00000000
       13035000	      1302	800007c0	00000013	addi	x0,x0,0	  x0:0x00000000
       13045000	      1303	800007c4	0140016f	jal	x2,800007c4	  x2=0x800007c4
       13055000	      1304	00000000	00000013	addi	x0,x0,0	  x0:0x00000000
       13065000	      1305	800007d4	00000013	addi	x0,x0,0	  x0:0x00000000
       13075000	      1306	800007d8	fc9ff8ef	jal	x17,800007d8	 x17=0x800007d8
       13085000	      1307	00000000	00000013	addi	x0,x0,0	  x0:0x00000000
       13095000	      1308	8000079c	00000013	addi	x0,x0,0	  x0:0x00000000
       13105000	      1309	800007a0	014000ef	jal	x1,800007a0	  x1=0x800007a0
       13115000	      1310	00000000	00000013	addi	x0,x0,0	  x0:0x00000000
       13125000	      1311	800007b0	00000013	addi	x0,x0,0	  x0:0x00000000
       13135000	      1312	800007b4	ff5ff0ef	jal	x1,800007b4	  x1=0x800007b4
       13145000	      1313	00000000	00000013	addi	x0,x0,0	  x0:0x00000000
       13155000	      1314	800007a4	00000013	addi	x0,x0,0	  x0:0x00000000
       13165000	      1315	800007a8	fd5ff0ef	jal	x1,800007a8	  x1=0x800007a8
       13175000	      1316	00000000	00000013	addi	x0,x0,0	  x0:0x00000000
       13185000	      1317	80000778	00000013	addi	x0,x0,0	  x0:0x00000000
       13195000	      1318	8000077c	04000cef	jal	x25,8000077c	 x25=0x8000077c
       13205000	      1319	00000000	00000013	addi	x0,x0,0	  x0:0x00000000
       13215000	      1320	800007b8	00000013	addi	x0,x0,0	  x0:0x00000000
       13225000	      1321	800007bc	fd5ff0ef	jal	x1,800007bc	  x1=0x800007bc
       13235000	      1322	00000000	00000013	addi	x0,x0,0	  x0:0x00000000
       13245000	      1323	8000078c	00000013	addi	x0,x0,0	  x0:0x00000000
       13255000	      1324	80000790	00c000ef	jal	x1,80000790	  x1=0x80000790
       13265000	      1325	00000000	00000013	addi	x0,x0,0	  x0:0x00000000
       13275000	      1326	80000798	00000013	addi	x0,x0,0	  x0:0x00000000
       13285000	      1327	8000079c	02c000ef	jal	x1,8000079c	  x1=0x8000079c
       13295000	      1328	00000000	00000013	addi	x0,x0,0	  x0:0x00000000
       13305000	      1329	800007c4	00000013	addi	x0,x0,0	  x0:0x00000000
       13315000	      1330	800007c8	fc1ff16f	jal	x2,800007c8	  x2=0x800007c8
       13325000	      1331	00000000	00000013	addi	x0,x0,0	  x0:0x00000000
       13335000	      1332	80000784	00000013	addi	x0,x0,0	  x0:0x00000000
       13345000	      1333	80000788	ff9ff2ef	jal	x5,80000788	  x5=0x80000788
       13355000	      1334	00000000	00000013	addi	x0,x0,0	  x0:0x00000000
       13365000	      1335	8000077c	00000013	addi	x0,x0,0	  x0:0x00000000
       13375000	      1336	80000780	050000ef	jal	x1,80000780	  x1=0x80000780
       13385000	      1337	00000000	00000013	addi	x0,x0,0	  x0:0x00000000
       13395000	      1338	800007cc	00000013	addi	x0,x0,0	  x0:0x00000000
       13405000	      1339	800007d0	fc5ff16f	jal	x2,800007d0	  x2=0x800007d0
       13415000	      1340	00000000	00000013	addi	x0,x0,0	  x0:0x00000000
       13425000	      1341	80000790	00000013	addi	x0,x0,0	  x0:0x00000000
       13435000	      1342	80000794	048001ef	jal	x3,80000794	  x3=0x80000794
       13445000	      1343	00000000	00000013	addi	x0,x0,0	  x0:0x00000000
       13455000	      1344	800007d8	00000013	addi	x0,x0,0	  x0:0x00000000
       13465000	      1345	800007dc	d381ee13	ori	x28,x3,-712	  x3:0x80000794 x28=0xffffffbc
       13475000	      1346	800007e0	00400c6f	jal	x24,800007e0	 x24=0x800007e0
       13485000	      1347	00000000	00000013	addi	x0,x0,0	  x0:0x00000000
       13495000	      1348	800007e0	00000013	addi	x0,x0,0	  x0:0x00000000
       13505000	      1349	800007e4	00c000ef	jal	x1,800007e4	  x1=0x800007e4
       13515000	      1350	00000000	00000013	addi	x0,x0,0	  x0:0x00000000
       13525000	      1351	800007ec	00000013	addi	x0,x0,0	  x0:0x00000000
       13535000	      1352	800007f0	010000ef	jal	x1,800007f0	  x1=0x800007f0
       13545000	      1353	00000000	00000013	addi	x0,x0,0	  x0:0x00000000
       13555000	      1354	800007fc	00000013	addi	x0,x0,0	  x0:0x00000000
       13565000	      1355	80000800	03c002ef	jal	x5,80000800	  x5=0x80000800
       13575000	      1356	00000000	00000013	addi	x0,x0,0	  x0:0x00000000
       13585000	      1357	80000838	00000013	addi	x0,x0,0	  x0:0x00000000
       13595000	      1358	8000083c	fe1ffb6f	jal	x22,8000083c	 x22=0x8000083c
       13605000	      1359	00000000	00000013	addi	x0,x0,0	  x0:0x00000000
       13615000	      1360	80000818	00000013	addi	x0,x0,0	  x0:0x00000000
       13625000	      1361	8000081c	01000e6f	jal	x28,8000081c	 x28=0x8000081c
       13635000	      1362	00000000	00000013	addi	x0,x0,0	  x0:0x00000000
       13645000	      1363	80000828	00000013	addi	x0,x0,0	  x0:0x00000000
       13655000	      1364	8000082c	ffdffe6f	jal	x28,8000082c	 x28=0x8000082c
       13665000	      1365	00000000	00000013	addi	x0,x0,0	  x0:0x00000000
       13675000	      1366	80000824	00000013	addi	x0,x0,0	  x0:0x00000000
       13685000	      1367	80000828	fd5ff4ef	jal	x9,80000828	  x9=0x80000828
       13695000	      1368	00000000	00000013	addi	x0,x0,0	  x0:0x00000000
       13705000	      1369	800007f8	00000013	addi	x0,x0,0	  x0:0x00000000
       13715000	      1370	800007fc	034000ef	jal	x1,800007fc	  x1=0x800007fc
       13725000	      1371	00000000	00000013	addi	x0,x0,0	  x0:0x00000000
       13735000	      1372	8000082c	00000013	addi	x0,x0,0	  x0:0x00000000
       13745000	      1373	80000830	fc5ff46f	jal	x8,80000830	  x8=0x80000830
       13755000	      1374	00000000	00000013	addi	x0,x0,0	  x0:0x00000000
       13765000	      1375	800007f0	00000013	addi	x0,x0,0	  x0:0x00000000
       13775000	      1376	800007f4	044000ef	jal	x1,800007f4	  x1=0x800007f4
       13785000	      1377	00000000	00000013	addi	x0,x0,0	  x0:0x00000000
       13795000	      1378	80000834	00000013	addi	x0,x0,0	  x0:0x00000000
       13805000	      1379	80000838	fb5ffaef	jal	x21,80000838	 x21=0x80000838
       13815000	      1380	00000000	00000013	addi	x0,x0,0	  x0:0x00000000
       13825000	      1381	800007e8	00000013	addi	x0,x0,0	  x0:0x00000000
       13835000	      1382	800007ec	02c000ef	jal	x1,800007ec	  x1=0x800007ec
       13845000	      1383	00000000	00000013	addi	x0,x0,0	  x0:0x00000000
       13855000	      1384	80000814	00000013	addi	x0,x0,0	  x0:0x00000000
       13865000	      1385	80000818	ff9ff0ef	jal	x1,80000818	  x1=0x80000818
       13875000	      1386	00000000	00000013	addi	x0,x0,0	  x0:0x00000000
       13885000	      1387	8000080c	00000013	addi	x0,x0,0	  x0:0x00000000
       13895000	      1388	80000810	fe9ffdef	jal	x27,80000810	 x27=0x80000810
       13905000	      1389	00000000	00000013	addi	x0,x0,0	  x0:0x00000000
       13915000	      1390	800007f4	00000013	addi	x0,x0,0	  x0:0x00000000
       13925000	      1391	800007f8	014004ef	jal	x9,800007f8	  x9=0x800007f8
       13935000	      1392	00000000	00000013	addi	x0,x0,0	  x0:0x00000000
       13945000	      1393	80000808	00000013	addi	x0,x0,0	  x0:0x00000000
       13955000	      1394	8000080c	fddff0ef	jal	x1,8000080c	  x1=0x8000080c
       13965000	      1395	00000000	00000013	addi	x0,x0,0	  x0:0x00000000
       13975000	      1396	800007e4	00000013	addi	x0,x0,0	  x0:0x00000000
       13985000	      1397	800007e8	04c0056f	jal	x10,800007e8	 x10=0x800007e8
       13995000	      1398	00000000	00000013	addi	x0,x0,0	  x0:0x00000000
       14005000	      1399	80000830	00000013	addi	x0,x0,0	  x0:0x00000000
       14015000	      1400	80000834	fd5ff16f	jal	x2,80000834	  x2=0x80000834
       14025000	      1401	00000000	00000013	addi	x0,x0,0	  x0:0x00000000
       14035000	      1402	80000804	00000013	addi	x0,x0,0	  x0:0x00000000
       14045000	      1403	80000808	01c00f6f	jal	x30,80000808	 x30=0x80000808
       14055000	      1404	00000000	00000013	addi	x0,x0,0	  x0:0x00000000
       14065000	      1405	80000820	00000013	addi	x0,x0,0	  x0:0x00000000
       14075000	      1406	80000824	ffdff0ef	jal	x1,80000824	  x1=0x80000824
       14085000	      1407	00000000	00000013	addi	x0,x0,0	  x0:0x00000000
       14095000	      1408	8000081c	00000013	addi	x0,x0,0	  x0:0x00000000
       14105000	      1409	80000820	ff5ff0ef	jal	x1,80000820	  x1=0x80000820
       14115000	      1410	00000000	00000013	addi	x0,x0,0	  x0:0x00000000
       14125000	      1411	80000810	00000013	addi	x0,x0,0	  x0:0x00000000
       14135000	      1412	80000814	ff1ff0ef	jal	x1,80000814	  x1=0x80000814
       14145000	      1413	00000000	00000013	addi	x0,x0,0	  x0:0x00000000
       14155000	      1414	80000800	00000013	addi	x0,x0,0	  x0:0x00000000
       14165000	      1415	80000804	03c003ef	jal	x7,80000804	  x7=0x80000804
       14175000	      1416	00000000	00000013	addi	x0,x0,0	  x0:0x00000000
       14185000	      1417	8000083c	00000013	addi	x0,x0,0	  x0:0x00000000
       14195000	      1418	80000840	0106ca33	xor	x20,x13,x16	 x13:0x80000724 x16:0x800007a4 x20=0x00000080
       14205000	      1419	80000844	00400c6f	jal	x24,80000844	 x24=0x80000844
       14215000	      1420	00000000	00000013	addi	x0,x0,0	  x0:0x00000000
       14225000	      1421	80000844	00000013	addi	x0,x0,0	  x0:0x00000000
       14235000	      1422	80000848	01c000ef	jal	x1,80000848	  x1=0x80000848
       14245000	      1423	00000000	00000013	addi	x0,x0,0	  x0:0x00000000
       14255000	      1424	80000860	00000013	addi	x0,x0,0	  x0:0x00000000
       14265000	      1425	80000864	ff9ff26f	jal	x4,80000864	  x4=0x80000864
       14275000	      1426	00000000	00000013	addi	x0,x0,0	  x0:0x00000000
       14285000	      1427	80000858	00000013	addi	x0,x0,0	  x0:0x00000000
       14295000	      1428	8000085c	0100026f	jal	x4,8000085c	  x4=0x8000085c
       14305000	      1429	00000000	00000013	addi	x0,x0,0	  x0:0x00000000
       14315000	      1430	80000868	00000013	addi	x0,x0,0	  x0:0x00000000
       14325000	      1431	8000086c	ff5ff0ef	jal	x1,8000086c	  x1=0x8000086c
       14335000	      1432	00000000	00000013	addi	x0,x0,0	  x0:0x00000000
       14345000	      1433	8000085c	00000013	addi	x0,x0,0	  x0:0x00000000
       14355000	      1434	80000860	014000ef	jal	x1,80000860	  x1=0x80000860
       14365000	      1435	00000000	00000013	addi	x0,x0,0	  x0:0x00000000
       14375000	      1436	80000870	00000013	addi	x0,x0,0	  x0:0x00000000
       14385000	      1437	80000874	fe5ff0ef	jal	x1,80000874	  x1=0x80000874
       14395000	      1438	00000000	00000013	addi	x0,x0,0	  x0:0x00000000
       14405000	      1439	80000854	00000013	addi	x0,x0,0	  x0:0x00000000
       14415000	      1440	80000858	0100066f	jal	x12,80000858	 x12=0x80000858
       14425000	      1441	00000000	00000013	addi	x0,x0,0	  x0:0x00000000
       14435000	      1442	80000864	00000013	addi	x0,x0,0	  x0:0x00000000
       14445000	      1443	80000868	fedff0ef	jal	x1,80000868	  x1=0x80000868
       14455000	      1444	00000000	00000013	addi	x0,x0,0	  x0:0x00000000
       14465000	      1445	80000850	00000013	addi	x0,x0,0	  x0:0x00000000
       14475000	      1446	80000854	01c000ef	jal	x1,80000854	  x1=0x80000854
       14485000	      1447	00000000	00000013	addi	x0,x0,0	  x0:0x00000000
       14495000	      1448	8000086c	00000013	addi	x0,x0,0	  x0:0x00000000
       14505000	      1449	80000870	008000ef	jal	x1,80000870	  x1=0x80000870
       14515000	      1450	00000000	00000013	addi	x0,x0,0	  x0:0x00000000
       14525000	      1451	80000874	00000013	addi	x0,x0,0	  x0:0x00000000
       14535000	      1452	80000878	fd9ff0ef	jal	x1,80000878	  x1=0x80000878
       14545000	      1453	00000000	00000013	addi	x0,x0,0	  x0:0x00000000
       14555000	      1454	8000084c	00000013	addi	x0,x0,0	  x0:0x00000000
       14565000	      1455	80000850	ffdff0ef	jal	x1,80000850	  x1=0x80000850
       14575000	      1456	00000000	00000013	addi	x0,x0,0	  x0:0x00000000
       14585000	      1457	80000848	00000013	addi	x0,x0,0	  x0:0x00000000
       14595000	      1458	8000084c	030000ef	jal	x1,8000084c	  x1=0x8000084c
       14605000	      1459	00000000	00000013	addi	x0,x0,0	  x0:0x00000000
       14615000	      1460	80000878	00000013	addi	x0,x0,0	  x0:0x00000000
       14625000	      1461	8000087c	862efd93	andi	x27,x29,-1950	 x29:0x80009fc4 x27=0x80009840
       14635000	      1462	80000880	03400c6f	jal	x24,80000880	 x24=0x80000880
       14645000	      1463	00000000	00000013	addi	x0,x0,0	  x0:0x00000000
       14655000	      1464	800008b0	00000013	addi	x0,x0,0	  x0:0x00000000
       14665000	      1465	800008b4	fd1ff6ef	jal	x13,800008b4	 x13=0x800008b4
       14675000	      1466	00000000	00000013	addi	x0,x0,0	  x0:0x00000000
       14685000	      1467	80000880	00000013	addi	x0,x0,0	  x0:0x00000000
       14695000	      1468	80000884	03c000ef	jal	x1,80000884	  x1=0x80000884
       14705000	      1469	00000000	00000013	addi	x0,x0,0	  x0:0x00000000
       14715000	      1470	800008bc	00000013	addi	x0,x0,0	  x0:0x00000000
       14725000	      1471	800008c0	ffdff4ef	jal	x9,800008c0	  x9=0x800008c0
       14735000	      1472	00000000	00000013	addi	x0,x0,0	  x0:0x00000000
       14745000	      1473	800008b8	00000013	addi	x0,x0,0	  x0:0x00000000
       14755000	      1474	800008bc	ff5ff0ef	jal	x1,800008bc	  x1=0x800008bc
       14765000	      1475	00000000	00000013	addi	x0,x0,0	  x0:0x00000000
       14775000	      1476	800008ac	00000013	addi	x0,x0,0	  x0:0x00000000
       14785000	      1477	800008b0	ff5ff16f	jal	x2,800008b0	  x2=0x800008b0
       14795000	      1478	00000000	00000013	addi	x0,x0,0	  x0:0x00000000
       14805000	      1479	800008a0	00000013	addi	x0,x0,0	  x0:0x00000000
       14815000	      1480	800008a4	ffdffc6f	jal	x24,800008a4	 x24=0x800008a4
       14825000	      1481	00000000	00000013	addi	x0,x0,0	  x0:0x00000000
       14835000	      1482	8000089c	00000013	addi	x0,x0,0	  x0:0x00000000
       14845000	      1483	800008a0	fe9ff46f	jal	x8,800008a0	  x8=0x800008a0
       14855000	      1484	00000000	00000013	addi	x0,x0,0	  x0:0x00000000
       14865000	      1485	80000884	00000013	addi	x0,x0,0	  x0:0x00000000
       14875000	      1486	80000888	02400c6f	jal	x24,80000888	 x24=0x80000888
       14885000	      1487	00000000	00000013	addi	x0,x0,0	  x0:0x00000000
       14895000	      1488	800008a8	00000013	addi	x0,x0,0	  x0:0x00000000
       14905000	      1489	800008ac	fe1ff26f	jal	x4,800008ac	  x4=0x800008ac
       14915000	      1490	00000000	00000013	addi	x0,x0,0	  x0:0x00000000
       14925000	      1491	80000888	00000013	addi	x0,x0,0	  x0:0x00000000
       14935000	      1492	8000088c	004000ef	jal	x1,8000088c	  x1=0x8000088c
       14945000	      1493	00000000	00000013	addi	x0,x0,0	  x0:0x00000000
       14955000	      1494	8000088c	00000013	addi	x0,x0,0	  x0:0x00000000
       14965000	      1495	80000890	0280046f	jal	x8,80000890	  x8=0x80000890
       14975000	      1496	00000000	00000013	addi	x0,x0,0	  x0:0x00000000
       14985000	      1497	800008b4	00000013	addi	x0,x0,0	  x0:0x00000000
       14995000	      1498	800008b8	fe5ff0ef	jal	x1,800008b8	  x1=0x800008b8
       15005000	      1499	00000000	00000013	addi	x0,x0,0	  x0:0x00000000
       15015000	      1500	80000898	00000013	addi	x0,x0,0	  x0:0x00000000
       15025000	      1501	8000089c	00c00e6f	jal	x28,8000089c	 x28=0x8000089c
       15035000	      1502	00000000	00000013	addi	x0,x0,0	  x0:0x00000000
       15045000	      1503	800008a4	00000013	addi	x0,x0,0	  x0:0x00000000
       15055000	      1504	800008a8	ff1ff7ef	jal	x15,800008a8	 x15=0x800008a8
       15065000	      1505	00000000	00000013	addi	x0,x0,0	  x0:0x00000000
       15075000	      1506	80000894	00000013	addi	x0,x0,0	  x0:0x00000000
       15085000	      1507	80000898	ffdff0ef	jal	x1,80000898	  x1=0x80000898
       15095000	      1508	00000000	00000013	addi	x0,x0,0	  x0:0x00000000
       15105000	      1509	80000890	00000013	addi	x0,x0,0	  x0:0x00000000
       15115000	      1510	80000894	030000ef	jal	x1,80000894	  x1=0x80000894
       15125000	      1511	00000000	00000013	addi	x0,x0,0	  x0:0x00000000
       15135000	      1512	800008c0	00000013	addi	x0,x0,0	  x0:0x00000000
       15145000	      1513	800008c4	01ddfcb3	and	x25,x27,x29	 x27:0x80009840 x29:0x80009fc4 x25=0x80009840
       15155000	      1514	800008c8	01c00c6f	jal	x24,800008c8	 x24=0x800008c8
       15165000	      1515	00000000	00000013	addi	x0,x0,0	  x0:0x00000000
       15175000	      1516	800008e0	00000013	addi	x0,x0,0	  x0:0x00000000
       15185000	      1517	800008e4	018000ef	jal	x1,800008e4	  x1=0x800008e4
       15195000	      1518	00000000	00000013	addi	x0,x0,0	  x0:0x00000000
       15205000	      1519	800008f8	00000013	addi	x0,x0,0	  x0:0x00000000
       15215000	      1520	800008fc	ffdff0ef	jal	x1,800008fc	  x1=0x800008fc
       15225000	      1521	00000000	00000013	addi	x0,x0,0	  x0:0x00000000
       15235000	      1522	800008f4	00000013	addi	x0,x0,0	  x0:0x00000000
       15245000	      1523	800008f8	fe1ff0ef	jal	x1,800008f8	  x1=0x800008f8
       15255000	      1524	00000000	00000013	addi	x0,x0,0	  x0:0x00000000
       15265000	      1525	800008d4	00000013	addi	x0,x0,0	  x0:0x00000000
       15275000	      1526	800008d8	01c00aef	jal	x21,800008d8	 x21=0x800008d8
       15285000	      1527	00000000	00000013	addi	x0,x0,0	  x0:0x00000000
       15295000	      1528	800008f0	00000013	addi	x0,x0,0	  x0:0x00000000
       15305000	      1529	800008f4	fddff4ef	jal	x9,800008f4	  x9=0x800008f4
       15315000	      1530	00000000	00000013	addi	x0,x0,0	  x0:0x00000000
       15325000	      1531	800008cc	00000013	addi	x0,x0,0	  x0:0x00000000
       15335000	      1532	800008d0	018000ef	jal	x1,800008d0	  x1=0x800008d0
       15345000	      1533	00000000	00000013	addi	x0,x0,0	  x0:0x00000000
       15355000	      1534	800008e4	00000013	addi	x0,x0,0	  x0:0x00000000
       15365000	      1535	800008e8	ff5ff0ef	jal	x1,800008e8	  x1=0x800008e8
       15375000	      1536	00000000	00000013	addi	x0,x0,0	  x0:0x00000000
       15385000	      1537	800008d8	00000013	addi	x0,x0,0	  x0:0x00000000
       15395000	      1538	800008dc	014000ef	jal	x1,800008dc	  x1=0x800008dc
       15405000	      1539	00000000	00000013	addi	x0,x0,0	  x0:0x00000000
       15415000	      1540	800008ec	00000013	addi	x0,x0,0	  x0:0x00000000
       15425000	      1541	800008f0	fe5ffa6f	jal	x20,800008f0	 x20=0x800008f0
       15435000	      1542	00000000	00000013	addi	x0,x0,0	  x0:0x00000000
       15445000	      1543	800008d0	00000013	addi	x0,x0,0	  x0:0x00000000
       15455000	      1544	800008d4	02c0026f	jal	x4,800008d4	  x4=0x800008d4
       15465000	      1545	00000000	00000013	addi	x0,x0,0	  x0:0x00000000
       15475000	      1546	800008fc	00000013	addi	x0,x0,0	  x0:0x00000000
       15485000	      1547	80000900	fedff8ef	jal	x17,80000900	 x17=0x80000900
       15495000	      1548	00000000	00000013	addi	x0,x0,0	  x0:0x00000000
       15505000	      1549	800008e8	00000013	addi	x0,x0,0	  x0:0x00000000
       15515000	      1550	800008ec	fe1ff8ef	jal	x17,800008ec	 x17=0x800008ec
       15525000	      1551	00000000	00000013	addi	x0,x0,0	  x0:0x00000000
       15535000	      1552	800008c8	00000013	addi	x0,x0,0	  x0:0x00000000
       15545000	      1553	800008cc	014000ef	jal	x1,800008cc	  x1=0x800008cc
       15555000	      1554	00000000	00000013	addi	x0,x0,0	  x0:0x00000000
       15565000	      1555	800008dc	00000013	addi	x0,x0,0	  x0:0x00000000
       15575000	      1556	800008e0	024000ef	jal	x1,800008e0	  x1=0x800008e0
       15585000	      1557	00000000	00000013	addi	x0,x0,0	  x0:0x00000000
       15595000	      1558	80000900	00000013	addi	x0,x0,0	  x0:0x00000000
       15605000	      1559	80000904	0019b7b3	sltu	x15,x19,x1	 x19:0x800006e4  x1:0x800008e0 x15=0x00000001
       15615000	      1560	80000908	05800c6f	jal	x24,80000908	 x24=0x80000908
       15625000	      1561	00000000	00000013	addi	x0,x0,0	  x0:0x00000000
       15635000	      1562	8000095c	00000013	addi	x0,x0,0	  x0:0x00000000
       15645000	      1563	80000960	020000ef	jal	x1,80000960	  x1=0x80000960
       15655000	      1564	00000000	00000013	addi	x0,x0,0	  x0:0x00000000
       15665000	      1565	8000097c	00000013	addi	x0,x0,0	  x0:0x00000000
       15675000	      1566	80000980	fd9ff0ef	jal	x1,80000980	  x1=0x80000980
       15685000	      1567	00000000	00000013	addi	x0,x0,0	  x0:0x00000000
       15695000	      1568	80000954	00000013	addi	x0,x0,0	  x0:0x00000000
       15705000	      1569	80000958	010000ef	jal	x1,80000958	  x1=0x80000958
       15715000	      1570	00000000	00000013	addi	x0,x0,0	  x0:0x00000000
       15725000	      1571	80000964	00000013	addi	x0,x0,0	  x0:0x00000000
       15735000	      1572	80000968	fe5ff0ef	jal	x1,80000968	  x1=0x80000968
       15745000	      1573	00000000	00000013	addi	x0,x0,0	  x0:0x00000000
       15755000	      1574	80000948	00000013	addi	x0,x0,0	  x0:0x00000000
       15765000	      1575	8000094c	fe5ff0ef	jal	x1,8000094c	  x1=0x8000094c
       15775000	      1576	00000000	00000013	addi	x0,x0,0	  x0:0x00000000
       15785000	      1577	8000092c	00000013	addi	x0,x0,0	  x0:0x00000000
       15795000	      1578	80000930	ff1ff0ef	jal	x1,80000930	  x1=0x80000930
       15805000	      1579	00000000	00000013	addi	x0,x0,0	  x0:0x00000000
       15815000	      1580	8000091c	00000013	addi	x0,x0,0	  x0:0x00000000
       15825000	      1581	80000920	008000ef	jal	x1,80000920	  x1=0x80000920
       15835000	      1582	00000000	00000013	addi	x0,x0,0	  x0:0x00000000
       15845000	      1583	80000924	00000013	addi	x0,x0,0	  x0:0x00000000
       15855000	      1584	80000928	01c000ef	jal	x1,80000928	  x1=0x80000928
       15865000	      1585	00000000	00000013	addi	x0,x0,0	  x0:0x00000000
       15875000	      1586	80000940	00000013	addi	x0,x0,0	  x0:0x00000000
       15885000	      1587	80000944	ffdff6ef	jal	x13,80000944	 x13=0x80000944
       15895000	      1588	00000000	00000013	addi	x0,x0,0	  x0:0x00000000
       15905000	      1589	8000093c	00000013	addi	x0,x0,0	  x0:0x00000000
       15915000	      1590	80000940	ffdff0ef	jal	x1,80000940	  x1=0x80000940
       15925000	      1591	00000000	00000013	addi	x0,x0,0	  x0:0x00000000
       15935000	      1592	80000938	00000013	addi	x0,x0,0	  x0:0x00000000
       15945000	      1593	8000093c	0340056f	jal	x10,8000093c	 x10=0x8000093c
       15955000	      1594	00000000	00000013	addi	x0,x0,0	  x0:0x00000000
       15965000	      1595	8000096c	00000013	addi	x0,x0,0	  x0:0x00000000
       15975000	      1596	80000970	ffdffcef	jal	x25,80000970	 x25=0x80000970
       15985000	      1597	00000000	00000013	addi	x0,x0,0	  x0:0x00000000
       15995000	      1598	80000968	00000013	addi	x0,x0,0	  x0:0x00000000
       16005000	      1599	8000096c	fe9ffc6f	jal	x24,8000096c	 x24=0x8000096c
       16015000	      1600	00000000	00000013	addi	x0,x0,0	  x0:0x00000000
       16025000	      1601	80000950	00000013	addi	x0,x0,0	  x0:0x00000000
       16035000	      1602	80000954	01000fef	jal	x31,80000954	 x31=0x80000954
       16045000	      1603	00000000	00000013	addi	x0,x0,0	  x0:0x00000000
       16055000	      1604	80000960	00000013	addi	x0,x0,0	  x0:0x00000000
       16065000	      1605	80000964	ff9ff0ef	jal	x1,80000964	  x1=0x80000964
       16075000	      1606	00000000	00000013	addi	x0,x0,0	  x0:0x00000000
       16085000	      1607	80000958	00000013	addi	x0,x0,0	  x0:0x00000000
       16095000	      1608	8000095c	018000ef	jal	x1,8000095c	  x1=0x8000095c
       16105000	      1609	00000000	00000013	addi	x0,x0,0	  x0:0x00000000
       16115000	      1610	80000970	00000013	addi	x0,x0,0	  x0:0x00000000
       16125000	      1611	80000974	fc5ff16f	jal	x2,80000974	  x2=0x80000974
       16135000	      1612	00000000	00000013	addi	x0,x0,0	  x0:0x00000000
       16145000	      1613	80000934	00000013	addi	x0,x0,0	  x0:0x00000000
       16155000	      1614	80000938	044000ef	jal	x1,80000938	  x1=0x80000938
       16165000	      1615	00000000	00000013	addi	x0,x0,0	  x0:0x00000000
       16175000	      1616	80000978	00000013	addi	x0,x0,0	  x0:0x00000000
       16185000	      1617	8000097c	f95ff6ef	jal	x13,8000097c	 x13=0x8000097c
       16195000	      1618	00000000	00000013	addi	x0,x0,0	  x0:0x00000000
       16205000	      1619	8000090c	00000013	addi	x0,x0,0	  x0:0x00000000
       16215000	      1620	80000910	ffdfffef	jal	x31,80000910	 x31=0x80000910
       16225000	      1621	00000000	00000013	addi	x0,x0,0	  x0:0x00000000
       16235000	      1622	80000908	00000013	addi	x0,x0,0	  x0:0x00000000
       16245000	      1623	8000090c	00c000ef	jal	x1,8000090c	  x1=0x8000090c
       16255000	      1624	00000000	00000013	addi	x0,x0,0	  x0:0x00000000
       16265000	      1625	80000914	00000013	addi	x0,x0,0	  x0:0x00000000
       16275000	      1626	80000918	ffdfffef	jal	x31,80000918	 x31=0x80000918
       16285000	      1627	00000000	00000013	addi	x0,x0,0	  x0:0x00000000
       16295000	      1628	80000910	00000013	addi	x0,x0,0	  x0:0x00000000
       16305000	      1629	80000914	010000ef	jal	x1,80000914	  x1=0x80000914
       16315000	      1630	00000000	00000013	addi	x0,x0,0	  x0:0x00000000
       16325000	      1631	80000920	00000013	addi	x0,x0,0	  x0:0x00000000
       16335000	      1632	80000924	0240056f	jal	x10,80000924	 x10=0x80000924
       16345000	      1633	00000000	00000013	addi	x0,x0,0	  x0:0x00000000
       16355000	      1634	80000944	00000013	addi	x0,x0,0	  x0:0x00000000
       16365000	      1635	80000948	fedff0ef	jal	x1,80000948	  x1=0x80000948
       16375000	      1636	00000000	00000013	addi	x0,x0,0	  x0:0x00000000
       16385000	      1637	80000930	00000013	addi	x0,x0,0	  x0:0x00000000
       16395000	      1638	80000934	ff9ff0ef	jal	x1,80000934	  x1=0x80000934
       16405000	      1639	00000000	00000013	addi	x0,x0,0	  x0:0x00000000
       16415000	      1640	80000928	00000013	addi	x0,x0,0	  x0:0x00000000
       16425000	      1641	8000092c	04c000ef	jal	x1,8000092c	  x1=0x8000092c
       16435000	      1642	00000000	00000013	addi	x0,x0,0	  x0:0x00000000
       16445000	      1643	80000974	00000013	addi	x0,x0,0	  x0:0x00000000
       16455000	      1644	80000978	fa5ffd6f	jal	x26,80000978	 x26=0x80000978
       16465000	      1645	00000000	00000013	addi	x0,x0,0	  x0:0x00000000
       16475000	      1646	80000918	00000013	addi	x0,x0,0	  x0:0x00000000
       16485000	      1647	8000091c	0340016f	jal	x2,8000091c	  x2=0x8000091c
       16495000	      1648	00000000	00000013	addi	x0,x0,0	  x0:0x00000000
       16505000	      1649	8000094c	00000013	addi	x0,x0,0	  x0:0x00000000
       16515000	      1650	80000950	034000ef	jal	x1,80000950	  x1=0x80000950
       16525000	      1651	00000000	00000013	addi	x0,x0,0	  x0:0x00000000
       16535000	      1652	80000980	00000013	addi	x0,x0,0	  x0:0x00000000
       16545000	      1653	80000984	01b2e9b3	or	x19,x5,x27	  x5:0x80000800 x27:0x80009840 x19=0x80009840
       16555000	      1654	80000988	02400c6f	jal	x24,80000988	 x24=0x80000988
       16565000	      1655	00000000	00000013	addi	x0,x0,0	  x0:0x00000000
       16575000	      1656	800009a8	00000013	addi	x0,x0,0	  x0:0x00000000
       16585000	      1657	800009ac	ffdff0ef	jal	x1,800009ac	  x1=0x800009ac
       16595000	      1658	00000000	00000013	addi	x0,x0,0	  x0:0x00000000
       16605000	      1659	800009a4	00000013	addi	x0,x0,0	  x0:0x00000000
       16615000	      1660	800009a8	010000ef	jal	x1,800009a8	  x1=0x800009a8
       16625000	      1661	00000000	00000013	addi	x0,x0,0	  x0:0x00000000
       16635000	      1662	800009b4	00000013	addi	x0,x0,0	  x0:0x00000000
       16645000	      1663	800009b8	fe1ff0ef	jal	x1,800009b8	  x1=0x800009b8
       16655000	      1664	00000000	00000013	addi	x0,x0,0	  x0:0x00000000
       16665000	      1665	80000994	00000013	addi	x0,x0,0	  x0:0x00000000
       16675000	      1666	80000998	ff5ff66f	jal	x12,80000998	 x12=0x80000998
       16685000	      1667	00000000	00000013	addi	x0,x0,0	  x0:0x00000000
       16695000	      1668	80000988	00000013	addi	x0,x0,0	  x0:0x00000000
       16705000	      1669	8000098c	0140026f	jal	x4,8000098c	  x4=0x8000098c
       16715000	      1670	00000000	00000013	addi	x0,x0,0	  x0:0x00000000
       16725000	      1671	8000099c	00000013	addi	x0,x0,0	  x0:0x00000000
       16735000	      1672	800009a0	ffdff0ef	jal	x1,800009a0	  x1=0x800009a0
       16745000	      1673	00000000	00000013	addi	x0,x0,0	  x0:0x00000000
       16755000	      1674	80000998	00000013	addi	x0,x0,0	  x0:0x00000000
       16765000	      1675	8000099c	018000ef	jal	x1,8000099c	  x1=0x8000099c
       16775000	      1676	00000000	00000013	addi	x0,x0,0	  x0:0x00000000
       16785000	      1677	800009b0	00000013	addi	x0,x0,0	  x0:0x00000000
       16795000	      1678	800009b4	ff1ffcef	jal	x25,800009b4	 x25=0x800009b4
       16805000	      1679	00000000	00000013	addi	x0,x0,0	  x0:0x00000000
       16815000	      1680	800009a0	00000013	addi	x0,x0,0	  x0:0x00000000
       16825000	      1681	800009a4	ff1ff6ef	jal	x13,800009a4	 x13=0x800009a4
       16835000	      1682	00000000	00000013	addi	x0,x0,0	  x0:0x00000000
       16845000	      1683	80000990	00000013	addi	x0,x0,0	  x0:0x00000000
       16855000	      1684	80000994	01c0026f	jal	x4,80000994	  x4=0x80000994
       16865000	      1685	00000000	00000013	addi	x0,x0,0	  x0:0x00000000
       16875000	      1686	800009ac	00000013	addi	x0,x0,0	  x0:0x00000000
       16885000	      1687	800009b0	fe1ffc6f	jal	x24,800009b0	 x24=0x800009b0
       16895000	      1688	00000000	00000013	addi	x0,x0,0	  x0:0x00000000
       16905000	      1689	8000098c	00000013	addi	x0,x0,0	  x0:0x00000000
       16915000	      1690	80000990	02c000ef	jal	x1,80000990	  x1=0x80000990
       16925000	      1691	00000000	00000013	addi	x0,x0,0	  x0:0x00000000
       16935000	      1692	800009b8	00000013	addi	x0,x0,0	  x0:0x00000000
       16945000	      1693	800009bc	0110a7b3	slt	x15,x1,x17	  x1:0x80000990 x17:0x800008ec x15=0x00000000
       16955000	      1694	800009c0	04000c6f	jal	x24,800009c0	 x24=0x800009c0
       16965000	      1695	00000000	00000013	addi	x0,x0,0	  x0:0x00000000
       16975000	      1696	800009fc	00000013	addi	x0,x0,0	  x0:0x00000000
       16985000	      1697	80000a00	ff5ffa6f	jal	x20,80000a00	 x20=0x80000a00
       16995000	      1698	00000000	00000013	addi	x0,x0,0	  x0:0x00000000
       17005000	      1699	800009f0	00000013	addi	x0,x0,0	  x0:0x00000000
       17015000	      1700	800009f4	008000ef	jal	x1,800009f4	  x1=0x800009f4
       17025000	      1701	00000000	00000013	addi	x0,x0,0	  x0:0x00000000
       17035000	      1702	800009f8	00000013	addi	x0,x0,0	  x0:0x00000000
       17045000	      1703	800009fc	fddff16f	jal	x2,800009fc	  x2=0x800009fc
       17055000	      1704	00000000	00000013	addi	x0,x0,0	  x0:0x00000000
       17065000	      1705	800009d4	00000013	addi	x0,x0,0	  x0:0x00000000
       17075000	      1706	800009d8	ff1ff26f	jal	x4,800009d8	  x4=0x800009d8
       17085000	      1707	00000000	00000013	addi	x0,x0,0	  x0:0x00000000
       17095000	      1708	800009c4	00000013	addi	x0,x0,0	  x0:0x00000000
       17105000	      1709	800009c8	018002ef	jal	x5,800009c8	  x5=0x800009c8
       17115000	      1710	00000000	00000013	addi	x0,x0,0	  x0:0x00000000
       17125000	      1711	800009dc	00000013	addi	x0,x0,0	  x0:0x00000000
       17135000	      1712	800009e0	ffdff0ef	jal	x1,800009e0	  x1=0x800009e0
       17145000	      1713	00000000	00000013	addi	x0,x0,0	  x0:0x00000000
       17155000	      1714	800009d8	00000013	addi	x0,x0,0	  x0:0x00000000
       17165000	      1715	800009dc	02c001ef	jal	x3,800009dc	  x3=0x800009dc
       17175000	      1716	00000000	00000013	addi	x0,x0,0	  x0:0x00000000
       17185000	      1717	80000a04	00000013	addi	x0,x0,0	  x0:0x00000000
       17195000	      1718	80000a08	ff1ff0ef	jal	x1,80000a08	  x1=0x80000a08
       17205000	      1719	00000000	00000013	addi	x0,x0,0	  x0:0x00000000
       17215000	      1720	800009f4	00000013	addi	x0,x0,0	  x0:0x00000000
       17225000	      1721	800009f8	ff9ff76f	jal	x14,800009f8	 x14=0x800009f8
       17235000	      1722	00000000	00000013	addi	x0,x0,0	  x0:0x00000000
       17245000	      1723	800009ec	00000013	addi	x0,x0,0	  x0:0x00000000
       17255000	      1724	800009f0	01c0076f	jal	x14,800009f0	 x14=0x800009f0
       17265000	      1725	00000000	00000013	addi	x0,x0,0	  x0:0x00000000
       17275000	      1726	80000a08	00000013	addi	x0,x0,0	  x0:0x00000000
       17285000	      1727	80000a0c	fddff0ef	jal	x1,80000a0c	  x1=0x80000a0c
       17295000	      1728	00000000	00000013	addi	x0,x0,0	  x0:0x00000000
       17305000	      1729	800009e4	00000013	addi	x0,x0,0	  x0:0x00000000
       17315000	      1730	800009e8	02c000ef	jal	x1,800009e8	  x1=0x800009e8
       17325000	      1731	00000000	00000013	addi	x0,x0,0	  x0:0x00000000
       17335000	      1732	80000a10	00000013	addi	x0,x0,0	  x0:0x00000000
       17345000	      1733	80000a14	fb1ffb6f	jal	x22,80000a14	 x22=0x80000a14
       17355000	      1734	00000000	00000013	addi	x0,x0,0	  x0:0x00000000
       17365000	      1735	800009c0	00000013	addi	x0,x0,0	  x0:0x00000000
       17375000	      1736	800009c4	040000ef	jal	x1,800009c4	  x1=0x800009c4
       17385000	      1737	00000000	00000013	addi	x0,x0,0	  x0:0x00000000
       17395000	      1738	80000a00	00000013	addi	x0,x0,0	  x0:0x00000000
       17405000	      1739	80000a04	00c000ef	jal	x1,80000a04	  x1=0x80000a04
       17415000	      1740	00000000	00000013	addi	x0,x0,0	  x0:0x00000000
       17425000	      1741	80000a0c	00000013	addi	x0,x0,0	  x0:0x00000000
       17435000	      1742	80000a10	fddff0ef	jal	x1,80000a10	  x1=0x80000a10
       17445000	      1743	00000000	00000013	addi	x0,x0,0	  x0:0x00000000
       17455000	      1744	800009e8	00000013	addi	x0,x0,0	  x0:0x00000000
       17465000	      1745	800009ec	fe5ff0ef	jal	x1,800009ec	  x1=0x800009ec
       17475000	      1746	00000000	00000013	addi	x0,x0,0	  x0:0x00000000
       17485000	      1747	800009cc	00000013	addi	x0,x0,0	  x0:0x00000000
       17495000	      1748	800009d0	ffdff0ef	jal	x1,800009d0	  x1=0x800009d0
       17505000	      1749	00000000	00000013	addi	x0,x0,0	  x0:0x00000000
       17515000	      1750	800009c8	00000013	addi	x0,x0,0	  x0:0x00000000
       17525000	      1751	800009cc	01800f6f	jal	x30,800009cc	 x30=0x800009cc
       17535000	      1752	00000000	00000013	addi	x0,x0,0	  x0:0x00000000
       17545000	      1753	800009e0	00000013	addi	x0,x0,0	  x0:0x00000000
       17555000	      1754	800009e4	ff1ff0ef	jal	x1,800009e4	  x1=0x800009e4
       17565000	      1755	00000000	00000013	addi	x0,x0,0	  x0:0x00000000
       17575000	      1756	800009d0	00000013	addi	x0,x0,0	  x0:0x00000000
       17585000	      1757	800009d4	044000ef	jal	x1,800009d4	  x1=0x800009d4
       17595000	      1758	00000000	00000013	addi	x0,x0,0	  x0:0x00000000
       17605000	      1759	80000a14	00000013	addi	x0,x0,0	  x0:0x00000000
       17615000	      1760	80000a18	740cb593	sltiu	x11,x25,1856	 x25:0x800009b4 x11=0x00000000
       17625000	      1761	80000a1c	00c00c6f	jal	x24,80000a1c	 x24=0x80000a1c
       17635000	      1762	00000000	00000013	addi	x0,x0,0	  x0:0x00000000
       17645000	      1763	80000a24	00000013	addi	x0,x0,0	  x0:0x00000000
       17655000	      1764	80000a28	ff9ffa6f	jal	x20,80000a28	 x20=0x80000a28
       17665000	      1765	00000000	00000013	addi	x0,x0,0	  x0:0x00000000
       17675000	      1766	80000a1c	00000013	addi	x0,x0,0	  x0:0x00000000
       17685000	      1767	80000a20	040003ef	jal	x7,80000a20	  x7=0x80000a20
       17695000	      1768	00000000	00000013	addi	x0,x0,0	  x0:0x00000000
       17705000	      1769	80000a5c	00000013	addi	x0,x0,0	  x0:0x00000000
       17715000	      1770	80000a60	004005ef	jal	x11,80000a60	 x11=0x80000a60
       17725000	      1771	00000000	00000013	addi	x0,x0,0	  x0:0x00000000
       17735000	      1772	80000a60	00000013	addi	x0,x0,0	  x0:0x00000000
       17745000	      1773	80000a64	fc1ff0ef	jal	x1,80000a64	  x1=0x80000a64
       17755000	      1774	00000000	00000013	addi	x0,x0,0	  x0:0x00000000
       17765000	      1775	80000a20	00000013	addi	x0,x0,0	  x0:0x00000000
       17775000	      1776	80000a24	05c000ef	jal	x1,80000a24	  x1=0x80000a24
       17785000	      1777	00000000	00000013	addi	x0,x0,0	  x0:0x00000000
       17795000	      1778	80000a7c	00000013	addi	x0,x0,0	  x0:0x00000000
       17805000	      1779	80000a80	ff9ff0ef	jal	x1,80000a80	  x1=0x80000a80
       17815000	      1780	00000000	00000013	addi	x0,x0,0	  x0:0x00000000
       17825000	      1781	80000a74	00000013	addi	x0,x0,0	  x0:0x00000000
       17835000	      1782	80000a78	fc5ff0ef	jal	x1,80000a78	  x1=0x80000a78
       17845000	      1783	00000000	00000013	addi	x0,x0,0	  x0:0x00000000
       17855000	      1784	80000a38	00000013	addi	x0,x0,0	  x0:0x00000000
       17865000	      1785	80000a3c	0080026f	jal	x4,80000a3c	  x4=0x80000a3c
       17875000	      1786	00000000	00000013	addi	x0,x0,0	  x0:0x00000000
       17885000	      1787	80000a40	00000013	addi	x0,x0,0	  x0:0x00000000
       17895000	      1788	80000a44	014007ef	jal	x15,80000a44	 x15=0x80000a44
       17905000	      1789	00000000	00000013	addi	x0,x0,0	  x0:0x00000000
       17915000	      1790	80000a54	00000013	addi	x0,x0,0	  x0:0x00000000
       17925000	      1791	80000a58	fddff56f	jal	x10,80000a58	 x10=0x80000a58
       17935000	      1792	00000000	00000013	addi	x0,x0,0	  x0:0x00000000
       17945000	      1793	80000a30	00000013	addi	x0,x0,0	  x0:0x00000000
       17955000	      1794	80000a34	00c000ef	jal	x1,80000a34	  x1=0x80000a34
       17965000	      1795	00000000	00000013	addi	x0,x0,0	  x0:0x00000000
       17975000	      1796	80000a3c	00000013	addi	x0,x0,0	  x0:0x00000000
       17985000	      1797	80000a40	00c000ef	jal	x1,80000a40	  x1=0x80000a40
       17995000	      1798	00000000	00000013	addi	x0,x0,0	  x0:0x00000000
       18005000	      1799	80000a48	00000013	addi	x0,x0,0	  x0:0x00000000
       18015000	      1800	80000a4c	030000ef	jal	x1,80000a4c	  x1=0x80000a4c
       18025000	      1801	00000000	00000013	addi	x0,x0,0	  x0:0x00000000
       18035000	      1802	80000a78	00000013	addi	x0,x0,0	  x0:0x00000000
       18045000	      1803	80000a7c	fbdff5ef	jal	x11,80000a7c	 x11=0x80000a7c
       18055000	      1804	00000000	00000013	addi	x0,x0,0	  x0:0x00000000
       18065000	      1805	80000a34	00000013	addi	x0,x0,0	  x0:0x00000000
       18075000	      1806	80000a38	038002ef	jal	x5,80000a38	  x5=0x80000a38
       18085000	      1807	00000000	00000013	addi	x0,x0,0	  x0:0x00000000
       18095000	      1808	80000a6c	00000013	addi	x0,x0,0	  x0:0x00000000
       18105000	      1809	80000a70	fe5ff0ef	jal	x1,80000a70	  x1=0x80000a70
       18115000	      1810	00000000	00000013	addi	x0,x0,0	  x0:0x00000000
       18125000	      1811	80000a50	00000013	addi	x0,x0,0	  x0:0x00000000
       18135000	      1812	80000a54	008000ef	jal	x1,80000a54	  x1=0x80000a54
       18145000	      1813	00000000	00000013	addi	x0,x0,0	  x0:0x00000000
       18155000	      1814	80000a58	00000013	addi	x0,x0,0	  x0:0x00000000
       18165000	      1815	80000a5c	fd1ff0ef	jal	x1,80000a5c	  x1=0x80000a5c
       18175000	      1816	00000000	00000013	addi	x0,x0,0	  x0:0x00000000
       18185000	      1817	80000a28	00000013	addi	x0,x0,0	  x0:0x00000000
       18195000	      1818	80000a2c	01c003ef	jal	x7,80000a2c	  x7=0x80000a2c
       18205000	      1819	00000000	00000013	addi	x0,x0,0	  x0:0x00000000
       18215000	      1820	80000a44	00000013	addi	x0,x0,0	  x0:0x00000000
       18225000	      1821	80000a48	02c0026f	jal	x4,80000a48	  x4=0x80000a48
       18235000	      1822	00000000	00000013	addi	x0,x0,0	  x0:0x00000000
       18245000	      1823	80000a70	00000013	addi	x0,x0,0	  x0:0x00000000
       18255000	      1824	80000a74	ff9ff0ef	jal	x1,80000a74	  x1=0x80000a74
       18265000	      1825	00000000	00000013	addi	x0,x0,0	  x0:0x00000000
       18275000	      1826	80000a68	00000013	addi	x0,x0,0	  x0:0x00000000
       18285000	      1827	80000a6c	ffdff0ef	jal	x1,80000a6c	  x1=0x80000a6c
       18295000	      1828	00000000	00000013	addi	x0,x0,0	  x0:0x00000000
       18305000	      1829	80000a64	00000013	addi	x0,x0,0	  x0:0x00000000
       18315000	      1830	80000a68	fe9fffef	jal	x31,80000a68	 x31=0x80000a68
       18325000	      1831	00000000	00000013	addi	x0,x0,0	  x0:0x00000000
       18335000	      1832	80000a4c	00000013	addi	x0,x0,0	  x0:0x00000000
       18345000	      1833	80000a50	fe1ff16f	jal	x2,80000a50	  x2=0x80000a50
       18355000	      1834	00000000	00000013	addi	x0,x0,0	  x0:0x00000000
       18365000	      1835	80000a2c	00000013	addi	x0,x0,0	  x0:0x00000000
       18375000	      1836	80000a30	0540066f	jal	x12,80000a30	 x12=0x80000a30
       18385000	      1837	00000000	00000013	addi	x0,x0,0	  x0:0x00000000
       18395000	      1838	80000a80	00000013	addi	x0,x0,0	  x0:0x00000000
       18405000	      1839	80000a84	40cc8c33	sub	x24,x25,x12	 x25:0x800009b4 x12:0x80000a30 x24=0xffffff84
       18415000	      1840	80000a88	05000c6f	jal	x24,80000a88	 x24=0x80000a88
       18425000	      1841	00000000	00000013	addi	x0,x0,0	  x0:0x00000000
       18435000	      1842	80000ad4	00000013	addi	x0,x0,0	  x0:0x00000000
       18445000	      1843	80000ad8	fddff0ef	jal	x1,80000ad8	  x1=0x80000ad8
       18455000	      1844	00000000	00000013	addi	x0,x0,0	  x0:0x00000000
       18465000	      1845	80000ab0	00000013	addi	x0,x0,0	  x0:0x00000000
       18475000	      1846	80000ab4	0280026f	jal	x4,80000ab4	  x4=0x80000ab4
       18485000	      1847	00000000	00000013	addi	x0,x0,0	  x0:0x00000000
       18495000	      1848	80000ad8	00000013	addi	x0,x0,0	  x0:0x00000000
       18505000	      1849	80000adc	fc5ff2ef	jal	x5,80000adc	  x5=0x80000adc
       18515000	      1850	00000000	00000013	addi	x0,x0,0	  x0:0x00000000
       18525000	      1851	80000a9c	00000013	addi	x0,x0,0	  x0:0x00000000
       18535000	      1852	80000aa0	028000ef	jal	x1,80000aa0	  x1=0x80000aa0
       18545000	      1853	00000000	00000013	addi	x0,x0,0	  x0:0x00000000
       18555000	      1854	80000ac4	00000013	addi	x0,x0,0	  x0:0x00000000
       18565000	      1855	80000ac8	fd1ff2ef	jal	x5,80000ac8	  x5=0x80000ac8
       18575000	      1856	00000000	00000013	addi	x0,x0,0	  x0:0x00000000
       18585000	      1857	80000a94	00000013	addi	x0,x0,0	  x0:0x00000000
       18595000	      1858	80000a98	038000ef	jal	x1,80000a98	  x1=0x80000a98
       18605000	      1859	00000000	00000013	addi	x0,x0,0	  x0:0x00000000
       18615000	      1860	80000acc	00000013	addi	x0,x0,0	  x0:0x00000000
       18625000	      1861	80000ad0	fbdff8ef	jal	x17,80000ad0	 x17=0x80000ad0
       18635000	      1862	00000000	00000013	addi	x0,x0,0	  x0:0x00000000
       18645000	      1863	80000a88	00000013	addi	x0,x0,0	  x0:0x00000000
       18655000	      1864	80000a8c	05400fef	jal	x31,80000a8c	 x31=0x80000a8c
       18665000	      1865	00000000	00000013	addi	x0,x0,0	  x0:0x00000000
       18675000	      1866	80000adc	00000013	addi	x0,x0,0	  x0:0x00000000
       18685000	      1867	80000ae0	fb1ff0ef	jal	x1,80000ae0	  x1=0x80000ae0
       18695000	      1868	00000000	00000013	addi	x0,x0,0	  x0:0x00000000
       18705000	      1869	80000a8c	00000013	addi	x0,x0,0	  x0:0x00000000
       18715000	      1870	80000a90	03c000ef	jal	x1,80000a90	  x1=0x80000a90
       18725000	      1871	00000000	00000013	addi	x0,x0,0	  x0:0x00000000
       18735000	      1872	80000ac8	00000013	addi	x0,x0,0	  x0:0x00000000
       18745000	      1873	80000acc	fe1ff0ef	jal	x1,80000acc	  x1=0x80000acc
       18755000	      1874	00000000	00000013	addi	x0,x0,0	  x0:0x00000000
       18765000	      1875	80000aa8	00000013	addi	x0,x0,0	  x0:0x00000000
       18775000	      1876	80000aac	018000ef	jal	x1,80000aac	  x1=0x80000aac
       18785000	      1877	00000000	00000013	addi	x0,x0,0	  x0:0x00000000
       18795000	      1878	80000ac0	00000013	addi	x0,x0,0	  x0:0x00000000
       18805000	      1879	80000ac4	ffdff0ef	jal	x1,80000ac4	  x1=0x80000ac4
       18815000	      1880	00000000	00000013	addi	x0,x0,0	  x0:0x00000000
       18825000	      1881	80000abc	00000013	addi	x0,x0,0	  x0:0x00000000
       18835000	      1882	80000ac0	ff1ff0ef	jal	x1,80000ac0	  x1=0x80000ac0
       18845000	      1883	00000000	00000013	addi	x0,x0,0	  x0:0x00000000
       18855000	      1884	80000aac	00000013	addi	x0,x0,0	  x0:0x00000000
       18865000	      1885	80000ab0	fe5ff0ef	jal	x1,80000ab0	  x1=0x80000ab0
       18875000	      1886	00000000	00000013	addi	x0,x0,0	  x0:0x00000000
       18885000	      1887	80000a90	00000013	addi	x0,x0,0	  x0:0x00000000
       18895000	      1888	80000a94	040000ef	jal	x1,80000a94	  x1=0x80000a94
       18905000	      1889	00000000	00000013	addi	x0,x0,0	  x0:0x00000000
       18915000	      1890	80000ad0	00000013	addi	x0,x0,0	  x0:0x00000000
       18925000	      1891	80000ad4	fd1ff0ef	jal	x1,80000ad4	  x1=0x80000ad4
       18935000	      1892	00000000	00000013	addi	x0,x0,0	  x0:0x00000000
       18945000	      1893	80000aa0	00000013	addi	x0,x0,0	  x0:0x00000000
       18955000	      1894	80000aa4	014002ef	jal	x5,80000aa4	  x5=0x80000aa4
       18965000	      1895	00000000	00000013	addi	x0,x0,0	  x0:0x00000000
       18975000	      1896	80000ab4	00000013	addi	x0,x0,0	  x0:0x00000000
       18985000	      1897	80000ab8	00400f6f	jal	x30,80000ab8	 x30=0x80000ab8
       18995000	      1898	00000000	00000013	addi	x0,x0,0	  x0:0x00000000
       19005000	      1899	80000ab8	00000013	addi	x0,x0,0	  x0:0x00000000
       19015000	      1900	80000abc	fe1ffdef	jal	x27,80000abc	 x27=0x80000abc
       19025000	      1901	00000000	00000013	addi	x0,x0,0	  x0:0x00000000
       19035000	      1902	80000a98	00000013	addi	x0,x0,0	  x0:0x00000000
       19045000	      1903	80000a9c	00c000ef	jal	x1,80000a9c	  x1=0x80000a9c
       19055000	      1904	00000000	00000013	addi	x0,x0,0	  x0:0x00000000
       19065000	      1905	80000aa4	00000013	addi	x0,x0,0	  x0:0x00000000
       19075000	      1906	80000aa8	03c007ef	jal	x15,80000aa8	 x15=0x80000aa8
       19085000	      1907	00000000	00000013	addi	x0,x0,0	  x0:0x00000000
       19095000	      1908	80000ae0	00000013	addi	x0,x0,0	  x0:0x00000000
       19105000	      1909	80000ae4	00319813	slli	x16,x3,0x3	  x3:0x800009dc x16=0x00004ee0
       19115000	      1910	80000ae8	03000c6f	jal	x24,80000ae8	 x24=0x80000ae8
       19125000	      1911	00000000	00000013	addi	x0,x0,0	  x0:0x00000000
       19135000	      1912	80000b14	00000013	addi	x0,x0,0	  x0:0x00000000
       19145000	      1913	80000b18	ff9ffe6f	jal	x28,80000b18	 x28=0x80000b18
       19155000	      1914	00000000	00000013	addi	x0,x0,0	  x0:0x00000000
       19165000	      1915	80000b0c	00000013	addi	x0,x0,0	  x0:0x00000000
       19175000	      1916	80000b10	ff5ff0ef	jal	x1,80000b10	  x1=0x80000b10
       19185000	      1917	00000000	00000013	addi	x0,x0,0	  x0:0x00000000
       19195000	      1918	80000b00	00000013	addi	x0,x0,0	  x0:0x00000000
       19205000	      1919	80000b04	00400bef	jal	x23,80000b04	 x23=0x80000b04
       19215000	      1920	00000000	00000013	addi	x0,x0,0	  x0:0x00000000
       19225000	      1921	80000b04	00000013	addi	x0,x0,0	  x0:0x00000000
       19235000	      1922	80000b08	01c001ef	jal	x3,80000b08	  x3=0x80000b08
       19245000	      1923	00000000	00000013	addi	x0,x0,0	  x0:0x00000000
       19255000	      1924	80000b20	00000013	addi	x0,x0,0	  x0:0x00000000
       19265000	      1925	80000b24	fd1ff0ef	jal	x1,80000b24	  x1=0x80000b24
       19275000	      1926	00000000	00000013	addi	x0,x0,0	  x0:0x00000000
       19285000	      1927	80000af0	00000013	addi	x0,x0,0	  x0:0x00000000
       19295000	      1928	80000af4	ffdff0ef	jal	x1,80000af4	  x1=0x80000af4
       19305000	      1929	00000000	00000013	addi	x0,x0,0	  x0:0x00000000
       19315000	      1930	80000aec	00000013	addi	x0,x0,0	  x0:0x00000000
       19325000	      1931	80000af0	0380026f	jal	x4,80000af0	  x4=0x80000af0
       19335000	      1932	00000000	00000013	addi	x0,x0,0	  x0:0x00000000
       19345000	      1933	80000b24	00000013	addi	x0,x0,0	  x0:0x00000000
       19355000	      1934	80000b28	ff5ff0ef	jal	x1,80000b28	  x1=0x80000b28
       19365000	      1935	00000000	00000013	addi	x0,x0,0	  x0:0x00000000
       19375000	      1936	80000b18	00000013	addi	x0,x0,0	  x0:0x00000000
       19385000	      1937	80000b1c	fe5ff0ef	jal	x1,80000b1c	  x1=0x80000b1c
       19395000	      1938	00000000	00000013	addi	x0,x0,0	  x0:0x00000000
       19405000	      1939	80000afc	00000013	addi	x0,x0,0	  x0:0x00000000
       19415000	      1940	80000b00	ffdfff6f	jal	x30,80000b00	 x30=0x80000b00
       19425000	      1941	00000000	00000013	addi	x0,x0,0	  x0:0x00000000
       19435000	      1942	80000af8	00000013	addi	x0,x0,0	  x0:0x00000000
       19445000	      1943	80000afc	024000ef	jal	x1,80000afc	  x1=0x80000afc
       19455000	      1944	00000000	00000013	addi	x0,x0,0	  x0:0x00000000
       19465000	      1945	80000b1c	00000013	addi	x0,x0,0	  x0:0x00000000
       19475000	      1946	80000b20	ff5ff0ef	jal	x1,80000b20	  x1=0x80000b20
       19485000	      1947	00000000	00000013	addi	x0,x0,0	  x0:0x00000000
       19495000	      1948	80000b10	00000013	addi	x0,x0,0	  x0:0x00000000
       19505000	      1949	80000b14	ff9ff0ef	jal	x1,80000b14	  x1=0x80000b14
       19515000	      1950	00000000	00000013	addi	x0,x0,0	  x0:0x00000000
       19525000	      1951	80000b08	00000013	addi	x0,x0,0	  x0:0x00000000
       19535000	      1952	80000b0c	fedff0ef	jal	x1,80000b0c	  x1=0x80000b0c
       19545000	      1953	00000000	00000013	addi	x0,x0,0	  x0:0x00000000
       19555000	      1954	80000af4	00000013	addi	x0,x0,0	  x0:0x00000000
       19565000	      1955	80000af8	ff5ff0ef	jal	x1,80000af8	  x1=0x80000af8
       19575000	      1956	00000000	00000013	addi	x0,x0,0	  x0:0x00000000
       19585000	      1957	80000ae8	00000013	addi	x0,x0,0	  x0:0x00000000
       19595000	      1958	80000aec	040000ef	jal	x1,80000aec	  x1=0x80000aec
       19605000	      1959	00000000	00000013	addi	x0,x0,0	  x0:0x00000000
       19615000	      1960	80000b28	00000013	addi	x0,x0,0	  x0:0x00000000
       19625000	      1961	80000b2c	4067d713	srai	x14,x15,0x6	 x15:0x80000aa8 x14=0xfe00002a
       19635000	      1962	80000b30	02800c6f	jal	x24,80000b30	 x24=0x80000b30
       19645000	      1963	00000000	00000013	addi	x0,x0,0	  x0:0x00000000
       19655000	      1964	80000b54	00000013	addi	x0,x0,0	  x0:0x00000000
       19665000	      1965	80000b58	fe5ff5ef	jal	x11,80000b58	 x11=0x80000b58
       19675000	      1966	00000000	00000013	addi	x0,x0,0	  x0:0x00000000
       19685000	      1967	80000b38	00000013	addi	x0,x0,0	  x0:0x00000000
       19695000	      1968	80000b3c	008001ef	jal	x3,80000b3c	  x3=0x80000b3c
       19705000	      1969	00000000	00000013	addi	x0,x0,0	  x0:0x00000000
       19715000	      1970	80000b40	00000013	addi	x0,x0,0	  x0:0x00000000
       19725000	      1971	80000b44	018000ef	jal	x1,80000b44	  x1=0x80000b44
       19735000	      1972	00000000	00000013	addi	x0,x0,0	  x0:0x00000000
       19745000	      1973	80000b58	00000013	addi	x0,x0,0	  x0:0x00000000
       19755000	      1974	80000b5c	004000ef	jal	x1,80000b5c	  x1=0x80000b5c
       19765000	      1975	00000000	00000013	addi	x0,x0,0	  x0:0x00000000
       19775000	      1976	80000b5c	00000013	addi	x0,x0,0	  x0:0x00000000
       19785000	      1977	80000b60	ff1ff46f	jal	x8,80000b60	  x8=0x80000b60
       19795000	      1978	00000000	00000013	addi	x0,x0,0	  x0:0x00000000
       19805000	      1979	80000b4c	00000013	addi	x0,x0,0	  x0:0x00000000
       19815000	      1980	80000b50	004002ef	jal	x5,80000b50	  x5=0x80000b50
       19825000	      1981	00000000	00000013	addi	x0,x0,0	  x0:0x00000000
       19835000	      1982	80000b50	00000013	addi	x0,x0,0	  x0:0x00000000
       19845000	      1983	80000b54	ff9ff0ef	jal	x1,80000b54	  x1=0x80000b54
       19855000	      1984	00000000	00000013	addi	x0,x0,0	  x0:0x00000000
       19865000	      1985	80000b48	00000013	addi	x0,x0,0	  x0:0x00000000
       19875000	      1986	80000b4c	ffdff6ef	jal	x13,80000b4c	 x13=0x80000b4c
       19885000	      1987	00000000	00000013	addi	x0,x0,0	  x0:0x00000000
       19895000	      1988	80000b44	00000013	addi	x0,x0,0	  x0:0x00000000
       19905000	      1989	80000b48	fedffa6f	jal	x20,80000b48	 x20=0x80000b48
       19915000	      1990	00000000	00000013	addi	x0,x0,0	  x0:0x00000000
       19925000	      1991	80000b30	00000013	addi	x0,x0,0	  x0:0x00000000
       19935000	      1992	80000b34	00c006ef	jal	x13,80000b34	 x13=0x80000b34
       19945000	      1993	00000000	00000013	addi	x0,x0,0	  x0:0x00000000
       19955000	      1994	80000b3c	00000013	addi	x0,x0,0	  x0:0x00000000
       19965000	      1995	80000b40	ff9ff0ef	jal	x1,80000b40	  x1=0x80000b40
       19975000	      1996	00000000	00000013	addi	x0,x0,0	  x0:0x00000000
       19985000	      1997	80000b34	00000013	addi	x0,x0,0	  x0:0x00000000
       19995000	      1998	80000b38	02c000ef	jal	x1,80000b38	  x1=0x80000b38
       20005000	      1999	00000000	00000013	addi	x0,x0,0	  x0:0x00000000
       20015000	      2000	80000b60	00000013	addi	x0,x0,0	  x0:0x00000000
       20025000	      2001	80000b64	01411c93	slli	x25,x2,0x14	  x2:0x80000a50 x25=0xa5000000
       20035000	      2002	80000b68	03800c6f	jal	x24,80000b68	 x24=0x80000b68
       20045000	      2003	00000000	00000013	addi	x0,x0,0	  x0:0x00000000
       20055000	      2004	80000b9c	00000013	addi	x0,x0,0	  x0:0x00000000
       20065000	      2005	80000ba0	ff5ff0ef	jal	x1,80000ba0	  x1=0x80000ba0
       20075000	      2006	00000000	00000013	addi	x0,x0,0	  x0:0x00000000
       20085000	      2007	80000b90	00000013	addi	x0,x0,0	  x0:0x00000000
       20095000	      2008	80000b94	fddff0ef	jal	x1,80000b94	  x1=0x80000b94
       20105000	      2009	00000000	00000013	addi	x0,x0,0	  x0:0x00000000
       20115000	      2010	80000b6c	00000013	addi	x0,x0,0	  x0:0x00000000
       20125000	      2011	80000b70	050000ef	jal	x1,80000b70	  x1=0x80000b70
       20135000	      2012	00000000	00000013	addi	x0,x0,0	  x0:0x00000000
       20145000	      2013	80000bbc	00000013	addi	x0,x0,0	  x0:0x00000000
       20155000	      2014	80000bc0	00c000ef	jal	x1,80000bc0	  x1=0x80000bc0
       20165000	      2015	00000000	00000013	addi	x0,x0,0	  x0:0x00000000
       20175000	      2016	80000bc8	00000013	addi	x0,x0,0	  x0:0x00000000
       20185000	      2017	80000bcc	fb1ff0ef	jal	x1,80000bcc	  x1=0x80000bcc
       20195000	      2018	00000000	00000013	addi	x0,x0,0	  x0:0x00000000
       20205000	      2019	80000b78	00000013	addi	x0,x0,0	  x0:0x00000000
       20215000	      2020	80000b7c	03c000ef	jal	x1,80000b7c	  x1=0x80000b7c
       20225000	      2021	00000000	00000013	addi	x0,x0,0	  x0:0x00000000
       20235000	      2022	80000bb4	00000013	addi	x0,x0,0	  x0:0x00000000
       20245000	      2023	80000bb8	ffdff0ef	jal	x1,80000bb8	  x1=0x80000bb8
       20255000	      2024	00000000	00000013	addi	x0,x0,0	  x0:0x00000000
       20265000	      2025	80000bb0	00000013	addi	x0,x0,0	  x0:0x00000000
       20275000	      2026	80000bb4	fb9ff7ef	jal	x15,80000bb4	 x15=0x80000bb4
       20285000	      2027	00000000	00000013	addi	x0,x0,0	  x0:0x00000000
       20295000	      2028	80000b68	00000013	addi	x0,x0,0	  x0:0x00000000
       20305000	      2029	80000b6c	03c000ef	jal	x1,80000b6c	  x1=0x80000b6c
       20315000	      2030	00000000	00000013	addi	x0,x0,0	  x0:0x00000000
       20325000	      2031	80000ba4	00000013	addi	x0,x0,0	  x0:0x00000000
       20335000	      2032	80000ba8	fd1ff0ef	jal	x1,80000ba8	  x1=0x80000ba8
       20345000	      2033	00000000	00000013	addi	x0,x0,0	  x0:0x00000000
       20355000	      2034	80000b74	00000013	addi	x0,x0,0	  x0:0x00000000
       20365000	      2035	80000b78	03800fef	jal	x31,80000b78	 x31=0x80000b78
       20375000	      2036	00000000	00000013	addi	x0,x0,0	  x0:0x00000000
       20385000	      2037	80000bac	00000013	addi	x0,x0,0	  x0:0x00000000
       20395000	      2038	80000bb0	fedff26f	jal	x4,80000bb0	  x4=0x80000bb0
       20405000	      2039	00000000	00000013	addi	x0,x0,0	  x0:0x00000000
       20415000	      2040	80000b98	00000013	addi	x0,x0,0	  x0:0x00000000
       20425000	      2041	80000b9c	010000ef	jal	x1,80000b9c	  x1=0x80000b9c
       20435000	      2042	00000000	00000013	addi	x0,x0,0	  x0:0x00000000
       20445000	      2043	80000ba8	00000013	addi	x0,x0,0	  x0:0x00000000
       20455000	      2044	80000bac	fd5ff66f	jal	x12,80000bac	 x12=0x80000bac
       20465000	      2045	00000000	00000013	addi	x0,x0,0	  x0:0x00000000
       20475000	      2046	80000b7c	00000013	addi	x0,x0,0	  x0:0x00000000
       20485000	      2047	80000b80	03c0086f	jal	x16,80000b80	 x16=0x80000b80
       20495000	      2048	00000000	00000013	addi	x0,x0,0	  x0:0x00000000
       20505000	      2049	80000bb8	00000013	addi	x0,x0,0	  x0:0x00000000
       20515000	      2050	80000bbc	fe9ff0ef	jal	x1,80000bbc	  x1=0x80000bbc
       20525000	      2051	00000000	00000013	addi	x0,x0,0	  x0:0x00000000
       20535000	      2052	80000ba0	00000013	addi	x0,x0,0	  x0:0x00000000
       20545000	      2053	80000ba4	fe9ffbef	jal	x23,80000ba4	 x23=0x80000ba4
       20555000	      2054	00000000	00000013	addi	x0,x0,0	  x0:0x00000000
       20565000	      2055	80000b88	00000013	addi	x0,x0,0	  x0:0x00000000
       20575000	      2056	80000b8c	038002ef	jal	x5,80000b8c	  x5=0x80000b8c
       20585000	      2057	00000000	00000013	addi	x0,x0,0	  x0:0x00000000
       20595000	      2058	80000bc0	00000013	addi	x0,x0,0	  x0:0x00000000
       20605000	      2059	80000bc4	fb1ff0ef	jal	x1,80000bc4	  x1=0x80000bc4
       20615000	      2060	00000000	00000013	addi	x0,x0,0	  x0:0x00000000
       20625000	      2061	80000b70	00000013	addi	x0,x0,0	  x0:0x00000000
       20635000	      2062	80000b74	014000ef	jal	x1,80000b74	  x1=0x80000b74
       20645000	      2063	00000000	00000013	addi	x0,x0,0	  x0:0x00000000
       20655000	      2064	80000b84	00000013	addi	x0,x0,0	  x0:0x00000000
       20665000	      2065	80000b88	008000ef	jal	x1,80000b88	  x1=0x80000b88
       20675000	      2066	00000000	00000013	addi	x0,x0,0	  x0:0x00000000
       20685000	      2067	80000b8c	00000013	addi	x0,x0,0	  x0:0x00000000
       20695000	      2068	80000b90	008007ef	jal	x15,80000b90	 x15=0x80000b90
       20705000	      2069	00000000	00000013	addi	x0,x0,0	  x0:0x00000000
       20715000	      2070	80000b94	00000013	addi	x0,x0,0	  x0:0x00000000
       20725000	      2071	80000b98	030000ef	jal	x1,80000b98	  x1=0x80000b98
       20735000	      2072	00000000	00000013	addi	x0,x0,0	  x0:0x00000000
       20745000	      2073	80000bc4	00000013	addi	x0,x0,0	  x0:0x00000000
       20755000	      2074	80000bc8	fbdff0ef	jal	x1,80000bc8	  x1=0x80000bc8
       20765000	      2075	00000000	00000013	addi	x0,x0,0	  x0:0x00000000
       20775000	      2076	80000b80	00000013	addi	x0,x0,0	  x0:0x00000000
       20785000	      2077	80000b84	04c002ef	jal	x5,80000b84	  x5=0x80000b84
       20795000	      2078	00000000	00000013	addi	x0,x0,0	  x0:0x00000000
       20805000	      2079	80000bcc	00000013	addi	x0,x0,0	  x0:0x00000000
       20815000	      2080	80000bd0	01a089b3	add	x19,x1,x26	  x1:0x80000bc8 x26:0x80000978 x19=0x00001540
       20825000	      2081	80000bd4	02800c6f	jal	x24,80000bd4	 x24=0x80000bd4
       20835000	      2082	00000000	00000013	addi	x0,x0,0	  x0:0x00000000
       20845000	      2083	80000bf8	00000013	addi	x0,x0,0	  x0:0x00000000
       20855000	      2084	80000bfc	010000ef	jal	x1,80000bfc	  x1=0x80000bfc
       20865000	      2085	00000000	00000013	addi	x0,x0,0	  x0:0x00000000
       20875000	      2086	80000c08	00000013	addi	x0,x0,0	  x0:0x00000000
       20885000	      2087	80000c0c	ff9ff4ef	jal	x9,80000c0c	  x9=0x80000c0c
       20895000	      2088	00000000	00000013	addi	x0,x0,0	  x0:0x00000000
       20905000	      2089	80000c00	00000013	addi	x0,x0,0	  x0:0x00000000
       20915000	      2090	80000c04	ff1ff0ef	jal	x1,80000c04	  x1=0x80000c04
       20925000	      2091	00000000	00000013	addi	x0,x0,0	  x0:0x00000000
       20935000	      2092	80000bf0	00000013	addi	x0,x0,0	  x0:0x00000000
       20945000	      2093	80000bf4	fe9ff0ef	jal	x1,80000bf4	  x1=0x80000bf4
       20955000	      2094	00000000	00000013	addi	x0,x0,0	  x0:0x00000000
       20965000	      2095	80000bd8	00000013	addi	x0,x0,0	  x0:0x00000000
       20975000	      2096	80000bdc	04c000ef	jal	x1,80000bdc	  x1=0x80000bdc
       20985000	      2097	00000000	00000013	addi	x0,x0,0	  x0:0x00000000
       20995000	      2098	80000c24	00000013	addi	x0,x0,0	  x0:0x00000000
       21005000	      2099	80000c28	fedff0ef	jal	x1,80000c28	  x1=0x80000c28
       21015000	      2100	00000000	00000013	addi	x0,x0,0	  x0:0x00000000
       21025000	      2101	80000c10	00000013	addi	x0,x0,0	  x0:0x00000000
       21035000	      2102	80000c14	ffdff0ef	jal	x1,80000c14	  x1=0x80000c14
       21045000	      2103	00000000	00000013	addi	x0,x0,0	  x0:0x00000000
       21055000	      2104	80000c0c	00000013	addi	x0,x0,0	  x0:0x00000000
       21065000	      2105	80000c10	fc9ff0ef	jal	x1,80000c10	  x1=0x80000c10
       21075000	      2106	00000000	00000013	addi	x0,x0,0	  x0:0x00000000
       21085000	      2107	80000bd4	00000013	addi	x0,x0,0	  x0:0x00000000
       21095000	      2108	80000bd8	018000ef	jal	x1,80000bd8	  x1=0x80000bd8
       21105000	      2109	00000000	00000013	addi	x0,x0,0	  x0:0x00000000
       21115000	      2110	80000bec	00000013	addi	x0,x0,0	  x0:0x00000000
       21125000	      2111	80000bf0	018000ef	jal	x1,80000bf0	  x1=0x80000bf0
       21135000	      2112	00000000	00000013	addi	x0,x0,0	  x0:0x00000000
       21145000	      2113	80000c04	00000013	addi	x0,x0,0	  x0:0x00000000
       21155000	      2114	80000c08	0180026f	jal	x4,80000c08	  x4=0x80000c08
       21165000	      2115	00000000	00000013	addi	x0,x0,0	  x0:0x00000000
       21175000	      2116	80000c1c	00000013	addi	x0,x0,0	  x0:0x00000000
       21185000	      2117	80000c20	ff9ff76f	jal	x14,80000c20	 x14=0x80000c20
       21195000	      2118	00000000	00000013	addi	x0,x0,0	  x0:0x00000000
       21205000	      2119	80000c14	00000013	addi	x0,x0,0	  x0:0x00000000
       21215000	      2120	80000c18	fd5ff0ef	jal	x1,80000c18	  x1=0x80000c18
       21225000	      2121	00000000	00000013	addi	x0,x0,0	  x0:0x00000000
       21235000	      2122	80000be8	00000013	addi	x0,x0,0	  x0:0x00000000
       21245000	      2123	80000bec	ffdff0ef	jal	x1,80000bec	  x1=0x80000bec
       21255000	      2124	00000000	00000013	addi	x0,x0,0	  x0:0x00000000
       21265000	      2125	80000be4	00000013	addi	x0,x0,0	  x0:0x00000000
       21275000	      2126	80000be8	018000ef	jal	x1,80000be8	  x1=0x80000be8
       21285000	      2127	00000000	00000013	addi	x0,x0,0	  x0:0x00000000
       21295000	      2128	80000bfc	00000013	addi	x0,x0,0	  x0:0x00000000
       21305000	      2129	80000c00	fe1ff86f	jal	x16,80000c00	 x16=0x80000c00
       21315000	      2130	00000000	00000013	addi	x0,x0,0	  x0:0x00000000
       21325000	      2131	80000bdc	00000013	addi	x0,x0,0	  x0:0x00000000
       21335000	      2132	80000be0	04c000ef	jal	x1,80000be0	  x1=0x80000be0
       21345000	      2133	00000000	00000013	addi	x0,x0,0	  x0:0x00000000
       21355000	      2134	80000c28	00000013	addi	x0,x0,0	  x0:0x00000000
       21365000	      2135	80000c2c	fb9ff0ef	jal	x1,80000c2c	  x1=0x80000c2c
       21375000	      2136	00000000	00000013	addi	x0,x0,0	  x0:0x00000000
       21385000	      2137	80000be0	00000013	addi	x0,x0,0	  x0:0x00000000
       21395000	      2138	80000be4	0140016f	jal	x2,80000be4	  x2=0x80000be4
       21405000	      2139	00000000	00000013	addi	x0,x0,0	  x0:0x00000000
       21415000	      2140	80000bf4	00000013	addi	x0,x0,0	  x0:0x00000000
       21425000	      2141	80000bf8	02c001ef	jal	x3,80000bf8	  x3=0x80000bf8
       21435000	      2142	00000000	00000013	addi	x0,x0,0	  x0:0x00000000
       21445000	      2143	80000c20	00000013	addi	x0,x0,0	  x0:0x00000000
       21455000	      2144	80000c24	00c002ef	jal	x5,80000c24	  x5=0x80000c24
       21465000	      2145	00000000	00000013	addi	x0,x0,0	  x0:0x00000000
       21475000	      2146	80000c2c	00000013	addi	x0,x0,0	  x0:0x00000000
       21485000	      2147	80000c30	fedff0ef	jal	x1,80000c30	  x1=0x80000c30
       21495000	      2148	00000000	00000013	addi	x0,x0,0	  x0:0x00000000
       21505000	      2149	80000c18	00000013	addi	x0,x0,0	  x0:0x00000000
       21515000	      2150	80000c1c	0180086f	jal	x16,80000c1c	 x16=0x80000c1c
       21525000	      2151	00000000	00000013	addi	x0,x0,0	  x0:0x00000000
       21535000	      2152	80000c30	00000013	addi	x0,x0,0	  x0:0x00000000
       21545000	      2153	80000c34	002e3f33	sltu	x30,x28,x2	 x28:0x80000b18  x2:0x80000be4 x30=0x00000001
       21555000	      2154	80000c38	01c00c6f	jal	x24,80000c38	 x24=0x80000c38
       21565000	      2155	00000000	00000013	addi	x0,x0,0	  x0:0x00000000
       21575000	      2156	80000c50	00000013	addi	x0,x0,0	  x0:0x00000000
       21585000	      2157	80000c54	04c000ef	jal	x1,80000c54	  x1=0x80000c54
       21595000	      2158	00000000	00000013	addi	x0,x0,0	  x0:0x00000000
       21605000	      2159	80000c9c	00000013	addi	x0,x0,0	  x0:0x00000000
       21615000	      2160	80000ca0	fa9ff0ef	jal	x1,80000ca0	  x1=0x80000ca0
       21625000	      2161	00000000	00000013	addi	x0,x0,0	  x0:0x00000000
       21635000	      2162	80000c44	00000013	addi	x0,x0,0	  x0:0x00000000
       21645000	      2163	80000c48	0300016f	jal	x2,80000c48	  x2=0x80000c48
       21655000	      2164	00000000	00000013	addi	x0,x0,0	  x0:0x00000000
       21665000	      2165	80000c74	00000013	addi	x0,x0,0	  x0:0x00000000
       21675000	      2166	80000c78	014000ef	jal	x1,80000c78	  x1=0x80000c78
       21685000	      2167	00000000	00000013	addi	x0,x0,0	  x0:0x00000000
       21695000	      2168	80000c88	00000013	addi	x0,x0,0	  x0:0x00000000
       21705000	      2169	80000c8c	008000ef	jal	x1,80000c8c	  x1=0x80000c8c
       21715000	      2170	00000000	00000013	addi	x0,x0,0	  x0:0x00000000
       21725000	      2171	80000c90	00000013	addi	x0,x0,0	  x0:0x00000000
       21735000	      2172	80000c94	ffdffc6f	jal	x24,80000c94	 x24=0x80000c94
       21745000	      2173	00000000	00000013	addi	x0,x0,0	  x0:0x00000000
       21755000	      2174	80000c8c	00000013	addi	x0,x0,0	  x0:0x00000000
       21765000	      2175	80000c90	018000ef	jal	x1,80000c90	  x1=0x80000c90
       21775000	      2176	00000000	00000013	addi	x0,x0,0	  x0:0x00000000
       21785000	      2177	80000ca4	00000013	addi	x0,x0,0	  x0:0x00000000
       21795000	      2178	80000ca8	fb9ff0ef	jal	x1,80000ca8	  x1=0x80000ca8
       21805000	      2179	00000000	00000013	addi	x0,x0,0	  x0:0x00000000
       21815000	      2180	80000c5c	00000013	addi	x0,x0,0	  x0:0x00000000
       21825000	      2181	80000c60	00800a6f	jal	x20,80000c60	 x20=0x80000c60
       21835000	      2182	00000000	00000013	addi	x0,x0,0	  x0:0x00000000
       21845000	      2183	80000c64	00000013	addi	x0,x0,0	  x0:0x00000000
       21855000	      2184	80000c68	ff5ff0ef	jal	x1,80000c68	  x1=0x80000c68
       21865000	      2185	00000000	00000013	addi	x0,x0,0	  x0:0x00000000
       21875000	      2186	80000c58	00000013	addi	x0,x0,0	  x0:0x00000000
       21885000	      2187	80000c5c	048000ef	jal	x1,80000c5c	  x1=0x80000c5c
       21895000	      2188	00000000	00000013	addi	x0,x0,0	  x0:0x00000000
       21905000	      2189	80000ca0	00000013	addi	x0,x0,0	  x0:0x00000000
       21915000	      2190	80000ca4	fb5ff0ef	jal	x1,80000ca4	  x1=0x80000ca4
       21925000	      2191	00000000	00000013	addi	x0,x0,0	  x0:0x00000000
       21935000	      2192	80000c54	00000013	addi	x0,x0,0	  x0:0x00000000
       21945000	      2193	80000c58	040000ef	jal	x1,80000c58	  x1=0x80000c58
       21955000	      2194	00000000	00000013	addi	x0,x0,0	  x0:0x00000000
       21965000	      2195	80000c94	00000013	addi	x0,x0,0	  x0:0x00000000
       21975000	      2196	80000c98	014002ef	jal	x5,80000c98	  x5=0x80000c98
       21985000	      2197	00000000	00000013	addi	x0,x0,0	  x0:0x00000000
       21995000	      2198	80000ca8	00000013	addi	x0,x0,0	  x0:0x00000000
       22005000	      2199	80000cac	f91ffd6f	jal	x26,80000cac	 x26=0x80000cac
       22015000	      2200	00000000	00000013	addi	x0,x0,0	  x0:0x00000000
       22025000	      2201	80000c38	00000013	addi	x0,x0,0	  x0:0x00000000
       22035000	      2202	80000c3c	004000ef	jal	x1,80000c3c	  x1=0x80000c3c
       22045000	      2203	00000000	00000013	addi	x0,x0,0	  x0:0x00000000
       22055000	      2204	80000c3c	00000013	addi	x0,x0,0	  x0:0x00000000
       22065000	      2205	80000c40	004001ef	jal	x3,80000c40	  x3=0x80000c40
       22075000	      2206	00000000	00000013	addi	x0,x0,0	  x0:0x00000000
       22085000	      2207	80000c40	00000013	addi	x0,x0,0	  x0:0x00000000
       22095000	      2208	80000c44	06c000ef	jal	x1,80000c44	  x1=0x80000c44
       22105000	      2209	00000000	00000013	addi	x0,x0,0	  x0:0x00000000
       22115000	      2210	80000cac	00000013	addi	x0,x0,0	  x0:0x00000000
       22125000	      2211	80000cb0	fa1ff0ef	jal	x1,80000cb0	  x1=0x80000cb0
       22135000	      2212	00000000	00000013	addi	x0,x0,0	  x0:0x00000000
       22145000	      2213	80000c4c	00000013	addi	x0,x0,0	  x0:0x00000000
       22155000	      2214	80000c50	020003ef	jal	x7,80000c50	  x7=0x80000c50
       22165000	      2215	00000000	00000013	addi	x0,x0,0	  x0:0x00000000
       22175000	      2216	80000c6c	00000013	addi	x0,x0,0	  x0:0x00000000
       22185000	      2217	80000c70	004001ef	jal	x3,80000c70	  x3=0x80000c70
       22195000	      2218	00000000	00000013	addi	x0,x0,0	  x0:0x00000000
       22205000	      2219	80000c70	00000013	addi	x0,x0,0	  x0:0x00000000
       22215000	      2220	80000c74	008000ef	jal	x1,80000c74	  x1=0x80000c74
       22225000	      2221	00000000	00000013	addi	x0,x0,0	  x0:0x00000000
       22235000	      2222	80000c78	00000013	addi	x0,x0,0	  x0:0x00000000
       22245000	      2223	80000c7c	fe9ff0ef	jal	x1,80000c7c	  x1=0x80000c7c
       22255000	      2224	00000000	00000013	addi	x0,x0,0	  x0:0x00000000
       22265000	      2225	80000c60	00000013	addi	x0,x0,0	  x0:0x00000000
       22275000	      2226	80000c64	038000ef	jal	x1,80000c64	  x1=0x80000c64
       22285000	      2227	00000000	00000013	addi	x0,x0,0	  x0:0x00000000
       22295000	      2228	80000c98	00000013	addi	x0,x0,0	  x0:0x00000000
       22305000	      2229	80000c9c	fe9ff0ef	jal	x1,80000c9c	  x1=0x80000c9c
       22315000	      2230	00000000	00000013	addi	x0,x0,0	  x0:0x00000000
       22325000	      2231	80000c80	00000013	addi	x0,x0,0	  x0:0x00000000
       22335000	      2232	80000c84	004002ef	jal	x5,80000c84	  x5=0x80000c84
       22345000	      2233	00000000	00000013	addi	x0,x0,0	  x0:0x00000000
       22355000	      2234	80000c84	00000013	addi	x0,x0,0	  x0:0x00000000
       22365000	      2235	80000c88	ff9ff0ef	jal	x1,80000c88	  x1=0x80000c88
       22375000	      2236	00000000	00000013	addi	x0,x0,0	  x0:0x00000000
       22385000	      2237	80000c7c	00000013	addi	x0,x0,0	  x0:0x00000000
       22395000	      2238	80000c80	fcdff26f	jal	x4,80000c80	  x4=0x80000c80
       22405000	      2239	00000000	00000013	addi	x0,x0,0	  x0:0x00000000
       22415000	      2240	80000c48	00000013	addi	x0,x0,0	  x0:0x00000000
       22425000	      2241	80000c4c	020004ef	jal	x9,80000c4c	  x9=0x80000c4c
       22435000	      2242	00000000	00000013	addi	x0,x0,0	  x0:0x00000000
       22445000	      2243	80000c68	00000013	addi	x0,x0,0	  x0:0x00000000
       22455000	      2244	80000c6c	048000ef	jal	x1,80000c6c	  x1=0x80000c6c
       22465000	      2245	00000000	00000013	addi	x0,x0,0	  x0:0x00000000
       22475000	      2246	80000cb0	00000013	addi	x0,x0,0	  x0:0x00000000
       22485000	      2247	80000cb4	017f9533	sll	x10,x31,x23	 x31:0x80000b78 x23:0x80000ba4 x10=0x0000b780
       22495000	      2248	80000cb8	00800c6f	jal	x24,80000cb8	 x24=0x80000cb8
       22505000	      2249	00000000	00000013	addi	x0,x0,0	  x0:0x00000000
       22515000	      2250	80000cbc	00000013	addi	x0,x0,0	  x0:0x00000000
       22525000	      2251	80000cc0	018000ef	jal	x1,80000cc0	  x1=0x80000cc0
       22535000	      2252	00000000	00000013	addi	x0,x0,0	  x0:0x00000000
       22545000	      2253	80000cd4	00000013	addi	x0,x0,0	  x0:0x00000000
       22555000	      2254	80000cd8	01c000ef	jal	x1,80000cd8	  x1=0x80000cd8
       22565000	      2255	00000000	00000013	addi	x0,x0,0	  x0:0x00000000
       22575000	      2256	80000cf0	00000013	addi	x0,x0,0	  x0:0x00000000
       22585000	      2257	80000cf4	fd5ff0ef	jal	x1,80000cf4	  x1=0x80000cf4
       22595000	      2258	00000000	00000013	addi	x0,x0,0	  x0:0x00000000
       22605000	      2259	80000cc4	00000013	addi	x0,x0,0	  x0:0x00000000
       22615000	      2260	80000cc8	030004ef	jal	x9,80000cc8	  x9=0x80000cc8
       22625000	      2261	00000000	00000013	addi	x0,x0,0	  x0:0x00000000
       22635000	      2262	80000cf4	00000013	addi	x0,x0,0	  x0:0x00000000
       22645000	      2263	80000cf8	fedff0ef	jal	x1,80000cf8	  x1=0x80000cf8
       22655000	      2264	00000000	00000013	addi	x0,x0,0	  x0:0x00000000
       22665000	      2265	80000ce0	00000013	addi	x0,x0,0	  x0:0x00000000
       22675000	      2266	80000ce4	00c000ef	jal	x1,80000ce4	  x1=0x80000ce4
       22685000	      2267	00000000	00000013	addi	x0,x0,0	  x0:0x00000000
       22695000	      2268	80000cec	00000013	addi	x0,x0,0	  x0:0x00000000
       22705000	      2269	80000cf0	fedffc6f	jal	x24,80000cf0	 x24=0x80000cf0
       22715000	      2270	00000000	00000013	addi	x0,x0,0	  x0:0x00000000
       22725000	      2271	80000cd8	00000013	addi	x0,x0,0	  x0:0x00000000
       22735000	      2272	80000cdc	ff5ff56f	jal	x10,80000cdc	 x10=0x80000cdc
       22745000	      2273	00000000	00000013	addi	x0,x0,0	  x0:0x00000000
       22755000	      2274	80000ccc	00000013	addi	x0,x0,0	  x0:0x00000000
       22765000	      2275	80000cd0	fedff2ef	jal	x5,80000cd0	  x5=0x80000cd0
       22775000	      2276	00000000	00000013	addi	x0,x0,0	  x0:0x00000000
       22785000	      2277	80000cb8	00000013	addi	x0,x0,0	  x0:0x00000000
       22795000	      2278	80000cbc	024000ef	jal	x1,80000cbc	  x1=0x80000cbc
       22805000	      2279	00000000	00000013	addi	x0,x0,0	  x0:0x00000000
       22815000	      2280	80000cdc	00000013	addi	x0,x0,0	  x0:0x00000000
       22825000	      2281	80000ce0	020000ef	jal	x1,80000ce0	  x1=0x80000ce0
       22835000	      2282	00000000	00000013	addi	x0,x0,0	  x0:0x00000000
       22845000	      2283	80000cfc	00000013	addi	x0,x0,0	  x0:0x00000000
       22855000	      2284	80000d00	fc5ffaef	jal	x21,80000d00	 x21=0x80000d00
       22865000	      2285	00000000	00000013	addi	x0,x0,0	  x0:0x00000000
       22875000	      2286	80000cc0	00000013	addi	x0,x0,0	  x0:0x00000000
       22885000	      2287	80000cc4	038000ef	jal	x1,80000cc4	  x1=0x80000cc4
       22895000	      2288	00000000	00000013	addi	x0,x0,0	  x0:0x00000000
       22905000	      2289	80000cf8	00000013	addi	x0,x0,0	  x0:0x00000000
       22915000	      2290	80000cfc	fd1ffbef	jal	x23,80000cfc	 x23=0x80000cfc
       22925000	      2291	00000000	00000013	addi	x0,x0,0	  x0:0x00000000
       22935000	      2292	80000cc8	00000013	addi	x0,x0,0	  x0:0x00000000
       22945000	      2293	80000ccc	01c00fef	jal	x31,80000ccc	 x31=0x80000ccc
       22955000	      2294	00000000	00000013	addi	x0,x0,0	  x0:0x00000000
       22965000	      2295	80000ce4	00000013	addi	x0,x0,0	  x0:0x00000000
       22975000	      2296	80000ce8	004000ef	jal	x1,80000ce8	  x1=0x80000ce8
       22985000	      2297	00000000	00000013	addi	x0,x0,0	  x0:0x00000000
       22995000	      2298	80000ce8	00000013	addi	x0,x0,0	  x0:0x00000000
       23005000	      2299	80000cec	fe9ffd6f	jal	x26,80000cec	 x26=0x80000cec
       23015000	      2300	00000000	00000013	addi	x0,x0,0	  x0:0x00000000
       23025000	      2301	80000cd0	00000013	addi	x0,x0,0	  x0:0x00000000
       23035000	      2302	80000cd4	030000ef	jal	x1,80000cd4	  x1=0x80000cd4
       23045000	      2303	00000000	00000013	addi	x0,x0,0	  x0:0x00000000
       23055000	      2304	80000d00	00000013	addi	x0,x0,0	  x0:0x00000000
       23065000	      2305	80000d04	731dc697	auipc	x13,0x731dc	 x13=0xf31dcd00
       23075000	      2306	80000d08	03000c6f	jal	x24,80000d08	 x24=0x80000d08
       23085000	      2307	00000000	00000013	addi	x0,x0,0	  x0:0x00000000
       23095000	      2308	80000d34	00000013	addi	x0,x0,0	  x0:0x00000000
       23105000	      2309	80000d38	fe1ff0ef	jal	x1,80000d38	  x1=0x80000d38
       23115000	      2310	00000000	00000013	addi	x0,x0,0	  x0:0x00000000
       23125000	      2311	80000d14	00000013	addi	x0,x0,0	  x0:0x00000000
       23135000	      2312	80000d18	040001ef	jal	x3,80000d18	  x3=0x80000d18
       23145000	      2313	00000000	00000013	addi	x0,x0,0	  x0:0x00000000
       23155000	      2314	80000d54	00000013	addi	x0,x0,0	  x0:0x00000000
       23165000	      2315	80000d58	ffdffdef	jal	x27,80000d58	 x27=0x80000d58
       23175000	      2316	00000000	00000013	addi	x0,x0,0	  x0:0x00000000
       23185000	      2317	80000d50	00000013	addi	x0,x0,0	  x0:0x00000000
       23195000	      2318	80000d54	fd5ff1ef	jal	x3,80000d54	  x3=0x80000d54
       23205000	      2319	00000000	00000013	addi	x0,x0,0	  x0:0x00000000
       23215000	      2320	80000d24	00000013	addi	x0,x0,0	  x0:0x00000000
       23225000	      2321	80000d28	018000ef	jal	x1,80000d28	  x1=0x80000d28
       23235000	      2322	00000000	00000013	addi	x0,x0,0	  x0:0x00000000
       23245000	      2323	80000d3c	00000013	addi	x0,x0,0	  x0:0x00000000
       23255000	      2324	80000d40	fd1ff2ef	jal	x5,80000d40	  x5=0x80000d40
       23265000	      2325	00000000	00000013	addi	x0,x0,0	  x0:0x00000000
       23275000	      2326	80000d0c	00000013	addi	x0,x0,0	  x0:0x00000000
       23285000	      2327	80000d10	020001ef	jal	x3,80000d10	  x3=0x80000d10
       23295000	      2328	00000000	00000013	addi	x0,x0,0	  x0:0x00000000
       23305000	      2329	80000d2c	00000013	addi	x0,x0,0	  x0:0x00000000
       23315000	      2330	80000d30	01c002ef	jal	x5,80000d30	  x5=0x80000d30
       23325000	      2331	00000000	00000013	addi	x0,x0,0	  x0:0x00000000
       23335000	      2332	80000d48	00000013	addi	x0,x0,0	  x0:0x00000000
       23345000	      2333	80000d4c	fc9ffd6f	jal	x26,80000d4c	 x26=0x80000d4c
       23355000	      2334	00000000	00000013	addi	x0,x0,0	  x0:0x00000000
       23365000	      2335	80000d10	00000013	addi	x0,x0,0	  x0:0x00000000
       23375000	      2336	80000d14	034000ef	jal	x1,80000d14	  x1=0x80000d14
       23385000	      2337	00000000	00000013	addi	x0,x0,0	  x0:0x00000000
       23395000	      2338	80000d44	00000013	addi	x0,x0,0	  x0:0x00000000
       23405000	      2339	80000d48	fddfffef	jal	x31,80000d48	 x31=0x80000d48
       23415000	      2340	00000000	00000013	addi	x0,x0,0	  x0:0x00000000
       23425000	      2341	80000d20	00000013	addi	x0,x0,0	  x0:0x00000000
       23435000	      2342	80000d24	038000ef	jal	x1,80000d24	  x1=0x80000d24
       23445000	      2343	00000000	00000013	addi	x0,x0,0	  x0:0x00000000
       23455000	      2344	80000d58	00000013	addi	x0,x0,0	  x0:0x00000000
       23465000	      2345	80000d5c	fd1ff2ef	jal	x5,80000d5c	  x5=0x80000d5c
       23475000	      2346	00000000	00000013	addi	x0,x0,0	  x0:0x00000000
       23485000	      2347	80000d28	00000013	addi	x0,x0,0	  x0:0x00000000
       23495000	      2348	80000d2c	034000ef	jal	x1,80000d2c	  x1=0x80000d2c
       23505000	      2349	00000000	00000013	addi	x0,x0,0	  x0:0x00000000
       23515000	      2350	80000d5c	00000013	addi	x0,x0,0	  x0:0x00000000
       23525000	      2351	80000d60	fc1ff0ef	jal	x1,80000d60	  x1=0x80000d60
       23535000	      2352	00000000	00000013	addi	x0,x0,0	  x0:0x00000000
       23545000	      2353	80000d1c	00000013	addi	x0,x0,0	  x0:0x00000000
       23555000	      2354	80000d20	024000ef	jal	x1,80000d20	  x1=0x80000d20
       23565000	      2355	00000000	00000013	addi	x0,x0,0	  x0:0x00000000
       23575000	      2356	80000d40	00000013	addi	x0,x0,0	  x0:0x00000000
       23585000	      2357	80000d44	fc9ff0ef	jal	x1,80000d44	  x1=0x80000d44
       23595000	      2358	00000000	00000013	addi	x0,x0,0	  x0:0x00000000
       23605000	      2359	80000d08	00000013	addi	x0,x0,0	  x0:0x00000000
       23615000	      2360	80000d0c	028000ef	jal	x1,80000d0c	  x1=0x80000d0c
       23625000	      2361	00000000	00000013	addi	x0,x0,0	  x0:0x00000000
       23635000	      2362	80000d30	00000013	addi	x0,x0,0	  x0:0x00000000
       23645000	      2363	80000d34	01c000ef	jal	x1,80000d34	  x1=0x80000d34
       23655000	      2364	00000000	00000013	addi	x0,x0,0	  x0:0x00000000
       23665000	      2365	80000d4c	00000013	addi	x0,x0,0	  x0:0x00000000
       23675000	      2366	80000d50	fedff0ef	jal	x1,80000d50	  x1=0x80000d50
       23685000	      2367	00000000	00000013	addi	x0,x0,0	  x0:0x00000000
       23695000	      2368	80000d38	00000013	addi	x0,x0,0	  x0:0x00000000
       23705000	      2369	80000d3c	fe1ffe6f	jal	x28,80000d3c	 x28=0x80000d3c
       23715000	      2370	00000000	00000013	addi	x0,x0,0	  x0:0x00000000
       23725000	      2371	80000d18	00000013	addi	x0,x0,0	  x0:0x00000000
       23735000	      2372	80000d1c	048000ef	jal	x1,80000d1c	  x1=0x80000d1c
       23745000	      2373	00000000	00000013	addi	x0,x0,0	  x0:0x00000000
       23755000	      2374	80000d60	00000013	addi	x0,x0,0	  x0:0x00000000
       23765000	      2375	80000d64	01105693	srli	x13,x0,0x11	  x0:0x00000000 x13=0x00000000
       23775000	      2376	80000d68	02c00c6f	jal	x24,80000d68	 x24=0x80000d68
       23785000	      2377	00000000	00000013	addi	x0,x0,0	  x0:0x00000000
       23795000	      2378	80000d90	00000013	addi	x0,x0,0	  x0:0x00000000
       23805000	      2379	80000d94	028001ef	jal	x3,80000d94	  x3=0x80000d94
       23815000	      2380	00000000	00000013	addi	x0,x0,0	  x0:0x00000000
       23825000	      2381	80000db8	00000013	addi	x0,x0,0	  x0:0x00000000
       23835000	      2382	80000dbc	fe9ff16f	jal	x2,80000dbc	  x2=0x80000dbc
       23845000	      2383	00000000	00000013	addi	x0,x0,0	  x0:0x00000000
       23855000	      2384	80000da0	00000013	addi	x0,x0,0	  x0:0x00000000
       23865000	      2385	80000da4	03400cef	jal	x25,80000da4	 x25=0x80000da4
       23875000	      2386	00000000	00000013	addi	x0,x0,0	  x0:0x00000000
       23885000	      2387	80000dd4	00000013	addi	x0,x0,0	  x0:0x00000000
       23895000	      2388	80000dd8	fc9ff0ef	jal	x1,80000dd8	  x1=0x80000dd8
       23905000	      2389	00000000	00000013	addi	x0,x0,0	  x0:0x00000000
       23915000	      2390	80000d9c	00000013	addi	x0,x0,0	  x0:0x00000000
       23925000	      2391	80000da0	ff1ffcef	jal	x25,80000da0	 x25=0x80000da0
       23935000	      2392	00000000	00000013	addi	x0,x0,0	  x0:0x00000000
       23945000	      2393	80000d8c	00000013	addi	x0,x0,0	  x0:0x00000000
       23955000	      2394	80000d90	ffdff0ef	jal	x1,80000d90	  x1=0x80000d90
       23965000	      2395	00000000	00000013	addi	x0,x0,0	  x0:0x00000000
       23975000	      2396	80000d88	00000013	addi	x0,x0,0	  x0:0x00000000
       23985000	      2397	80000d8c	ff5ff0ef	jal	x1,80000d8c	  x1=0x80000d8c
       23995000	      2398	00000000	00000013	addi	x0,x0,0	  x0:0x00000000
       24005000	      2399	80000d7c	00000013	addi	x0,x0,0	  x0:0x00000000
       24015000	      2400	80000d80	01c000ef	jal	x1,80000d80	  x1=0x80000d80
       24025000	      2401	00000000	00000013	addi	x0,x0,0	  x0:0x00000000
       24035000	      2402	80000d98	00000013	addi	x0,x0,0	  x0:0x00000000
       24045000	      2403	80000d9c	038000ef	jal	x1,80000d9c	  x1=0x80000d9c
       24055000	      2404	00000000	00000013	addi	x0,x0,0	  x0:0x00000000
       24065000	      2405	80000dd0	00000013	addi	x0,x0,0	  x0:0x00000000
       24075000	      2406	80000dd4	fb5ff16f	jal	x2,80000dd4	  x2=0x80000dd4
       24085000	      2407	00000000	00000013	addi	x0,x0,0	  x0:0x00000000
       24095000	      2408	80000d84	00000013	addi	x0,x0,0	  x0:0x00000000
       24105000	      2409	80000d88	fe9ffc6f	jal	x24,80000d88	 x24=0x80000d88
       24115000	      2410	00000000	00000013	addi	x0,x0,0	  x0:0x00000000
       24125000	      2411	80000d6c	00000013	addi	x0,x0,0	  x0:0x00000000
       24135000	      2412	80000d70	008000ef	jal	x1,80000d70	  x1=0x80000d70
       24145000	      2413	00000000	00000013	addi	x0,x0,0	  x0:0x00000000
       24155000	      2414	80000d74	00000013	addi	x0,x0,0	  x0:0x00000000
       24165000	      2415	80000d78	0580076f	jal	x14,80000d78	 x14=0x80000d78
       24175000	      2416	00000000	00000013	addi	x0,x0,0	  x0:0x00000000
       24185000	      2417	80000dcc	00000013	addi	x0,x0,0	  x0:0x00000000
       24195000	      2418	80000dd0	f9dff0ef	jal	x1,80000dd0	  x1=0x80000dd0
       24205000	      2419	00000000	00000013	addi	x0,x0,0	  x0:0x00000000
       24215000	      2420	80000d68	00000013	addi	x0,x0,0	  x0:0x00000000
       24225000	      2421	80000d6c	058000ef	jal	x1,80000d6c	  x1=0x80000d6c
       24235000	      2422	00000000	00000013	addi	x0,x0,0	  x0:0x00000000
       24245000	      2423	80000dc0	00000013	addi	x0,x0,0	  x0:0x00000000
       24255000	      2424	80000dc4	ff5ff0ef	jal	x1,80000dc4	  x1=0x80000dc4
       24265000	      2425	00000000	00000013	addi	x0,x0,0	  x0:0x00000000
       24275000	      2426	80000db4	00000013	addi	x0,x0,0	  x0:0x00000000
       24285000	      2427	80000db8	fc5ff9ef	jal	x19,80000db8	 x19=0x80000db8
       24295000	      2428	00000000	00000013	addi	x0,x0,0	  x0:0x00000000
       24305000	      2429	80000d78	00000013	addi	x0,x0,0	  x0:0x00000000
       24315000	      2430	80000d7c	06000e6f	jal	x28,80000d7c	 x28=0x80000d7c
       24325000	      2431	00000000	00000013	addi	x0,x0,0	  x0:0x00000000
       24335000	      2432	80000dd8	00000013	addi	x0,x0,0	  x0:0x00000000
       24345000	      2433	80000ddc	fd5ff9ef	jal	x19,80000ddc	 x19=0x80000ddc
       24355000	      2434	00000000	00000013	addi	x0,x0,0	  x0:0x00000000
       24365000	      2435	80000dac	00000013	addi	x0,x0,0	  x0:0x00000000
       24375000	      2436	80000db0	01c001ef	jal	x3,80000db0	  x3=0x80000db0
       24385000	      2437	00000000	00000013	addi	x0,x0,0	  x0:0x00000000
       24395000	      2438	80000dc8	00000013	addi	x0,x0,0	  x0:0x00000000
       24405000	      2439	80000dcc	fddff0ef	jal	x1,80000dcc	  x1=0x80000dcc
       24415000	      2440	00000000	00000013	addi	x0,x0,0	  x0:0x00000000
       24425000	      2441	80000da4	00000013	addi	x0,x0,0	  x0:0x00000000
       24435000	      2442	80000da8	fddff0ef	jal	x1,80000da8	  x1=0x80000da8
       24445000	      2443	00000000	00000013	addi	x0,x0,0	  x0:0x00000000
       24455000	      2444	80000d80	00000013	addi	x0,x0,0	  x0:0x00000000
       24465000	      2445	80000d84	04400a6f	jal	x20,80000d84	 x20=0x80000d84
       24475000	      2446	00000000	00000013	addi	x0,x0,0	  x0:0x00000000
       24485000	      2447	80000dc4	00000013	addi	x0,x0,0	  x0:0x00000000
       24495000	      2448	80000dc8	fd1ff0ef	jal	x1,80000dc8	  x1=0x80000dc8
       24505000	      2449	00000000	00000013	addi	x0,x0,0	  x0:0x00000000
       24515000	      2450	80000d94	00000013	addi	x0,x0,0	  x0:0x00000000
       24525000	      2451	80000d98	fddff0ef	jal	x1,80000d98	  x1=0x80000d98
       24535000	      2452	00000000	00000013	addi	x0,x0,0	  x0:0x00000000
       24545000	      2453	80000d70	00000013	addi	x0,x0,0	  x0:0x00000000
       24555000	      2454	80000d74	040001ef	jal	x3,80000d74	  x3=0x80000d74
       24565000	      2455	00000000	00000013	addi	x0,x0,0	  x0:0x00000000
       24575000	      2456	80000db0	00000013	addi	x0,x0,0	  x0:0x00000000
       24585000	      2457	80000db4	00c000ef	jal	x1,80000db4	  x1=0x80000db4
       24595000	      2458	00000000	00000013	addi	x0,x0,0	  x0:0x00000000
       24605000	      2459	80000dbc	00000013	addi	x0,x0,0	  x0:0x00000000
       24615000	      2460	80000dc0	fedff0ef	jal	x1,80000dc0	  x1=0x80000dc0
       24625000	      2461	00000000	00000013	addi	x0,x0,0	  x0:0x00000000
       24635000	      2462	80000da8	00000013	addi	x0,x0,0	  x0:0x00000000
       24645000	      2463	80000dac	034008ef	jal	x17,80000dac	 x17=0x80000dac
       24655000	      2464	00000000	00000013	addi	x0,x0,0	  x0:0x00000000
       24665000	      2465	80000ddc	00000013	addi	x0,x0,0	  x0:0x00000000
       24675000	      2466	80000de0	01a8d6b3	srl	x13,x17,x26	 x17:0x80000dac x26:0x80000d4c x13=0x00080000
       24685000	      2467	80000de4	00f78bb3	add	x23,x15,x15	 x15:0x80000b90 x15:0x80000b90 x23=0x00001720
       24695000	      2468	80000de8	1caa4713	xori	x14,x20,458	 x20:0x80000d84 x14=0x80000c4e
       24705000	      2469	80000dec	55334c93	xori	x25,x6,1363	  x6:0x00000009 x25=0x0000055a
       24715000	      2470	80000df0	00088f33	add	x30,x17,x0	 x17:0x80000dac  x0:0x00000000 x30=0x80000dac
       24725000	      2471	80000df4	015c9ab3	sll	x21,x25,x21	 x25:0x0000055a x21:0x80000d00 x21=0x0000055a
       24735000	      2472	80000df8	41150f33	sub	x30,x10,x17	 x10:0x80000cdc x17:0x80000dac x30=0xffffff30
       24745000	      2473	80000dfc	b099c093	xori	x1,x19,-1271	 x19:0x80000ddc  x1=0x7ffff6d5
       24755000	      2474	80000e00	01f01213	slli	x4,x0,0x1f	  x0:0x00000000  x4=0x00000000
       24765000	      2475	80000e04	05f66663	bltu	x12,x31,80000e50	 x12:0x80000bac x31:0x80000d48
       24775000	      2476	00000000	00000013	addi	x0,x0,0	  x0:0x00000000
       24785000	      2477	80000e4c	00000013	addi	x0,x0,0	  x0:0x00000000
       24795000	      2478	80000e50	38faff13	andi	x30,x21,911	 x21:0x0000055a x30=0x0000010a
       24805000	      2479	80000e54	419d8733	sub	x14,x27,x25	 x27:0x80000d58 x25:0x0000055a x14=0x800007fe
       24815000	      2480	80000e58	01ef12b3	sll	x5,x30,x30	 x30:0x0000010a x30:0x0000010a  x5=0x00042800
       24825000	      2481	80000e5c	0110b1b3	sltu	x3,x1,x17	  x1:0x7ffff6d5 x17:0x80000dac  x3=0x00000001
       24835000	      2482	80000e60	65e7fa93	andi	x21,x15,1630	 x15:0x80000b90 x21=0x00000210
       24845000	      2483	80000e64	01695413	srli	x8,x18,0x16	 x18:0x80009f84  x8=0x00000200
       24855000	      2484	80000e68	03265863	bge	x12,x18,80000e98	 x12:0x80000bac x18:0x80009f84
       24865000	      2485	80000e6c	43638a93	addi	x21,x7,1078	  x7:0x80000c50 x21=0x80001086
       24875000	      2486	80000e70	64233e13	sltiu	x28,x6,1602	  x6:0x00000009 x28=0x00000001
       24885000	      2487	80000e74	018fdc63	bge	x31,x24,80000e8c	 x31:0x80000d48 x24:0x80000d88
       24895000	      2488	80000e78	11cb4813	xori	x16,x22,284	 x22:0x80000a14 x16=0x80000b08
       24905000	      2489	80000e7c	4148d493	srai	x9,x17,0x14	 x17:0x80000dac  x9=0xfffff800
       24915000	      2490	80000e80	00e09863	bne	x1,x14,80000e90	  x1:0x7ffff6d5 x14:0x800007fe
       24925000	      2491	00000000	00000013	addi	x0,x0,0	  x0:0x00000000
       24935000	      2492	80000e8c	00000013	addi	x0,x0,0	  x0:0x00000000
       24945000	      2493	80000e90	40108033	sub	x0,x1,x1	  x1:0x7ffff6d5  x1:0x7ffff6d5
       24955000	      2494	80000e94	40910733	sub	x14,x2,x9	  x2:0x80000dd4  x9:0xfffff800 x14=0x800015d4
       24965000	      2495	80000e98	01cc7a33	and	x20,x24,x28	 x24:0x80000d88 x28:0x00000001 x20=0x00000000
       24975000	      2496	80000e9c	74bb6793	ori	x15,x22,1867	 x22:0x80000a14 x15=0x80000f5f
       24985000	      2497	80000ea0	01f1f633	and	x12,x3,x31	  x3:0x00000001 x31:0x80000d48 x12=0x00000000
       24995000	      2498	80000ea4	711a2013	slti	x0,x20,1809	 x20:0x00000000
       25005000	      2499	80000ea8	b00de013	ori	x0,x27,-1280	 x27:0x80000d58
       25015000	      2500	80000eac	0092fbb3	and	x23,x5,x9	  x5:0x00042800  x9:0xfffff800 x23=0x00042800
       25025000	      2501	80000eb0	405e5c13	srai	x24,x28,0x5	 x28:0x00000001 x24=0x00000000
       25035000	      2502	80000eb4	4183d993	srai	x19,x7,0x18	  x7:0x80000c50 x19=0xffffff80
       25045000	      2503	80000eb8	05628063	beq	x5,x22,80000ef8	  x5:0x00042800 x22:0x80000a14
       25055000	      2504	80000ebc	93a33193	sltiu	x3,x6,-1734	  x6:0x00000009  x3=0x00000001
       25065000	      2505	80000ec0	52998713	addi	x14,x19,1321	 x19:0xffffff80 x14=0x000004a9
       25075000	      2506	80000ec4	04fcf663	bgeu	x25,x15,80000f10	 x25:0x0000055a x15:0x80000f5f
       25085000	      2507	80000ec8	011eed33	or	x26,x29,x17	 x29:0x80009fc4 x17:0x80000dac x26=0x80009fec
       25095000	      2508	80000ecc	403ed093	srai	x1,x29,0x3	 x29:0x80009fc4  x1=0xf00013f8
       25105000	      2509	80000ed0	00df4463	blt	x30,x13,80000ed8	 x30:0x0000010a x13:0x00080000
       25115000	      2510	00000000	00000013	addi	x0,x0,0	  x0:0x00000000
       25125000	      2511	80000ed4	00000013	addi	x0,x0,0	  x0:0x00000000
       25135000	      2512	80000ed8	01286433	or	x8,x16,x18	 x16:0x80000b08 x18:0x80009f84  x8=0x80009f8c
       25145000	      2513	80000edc	000acfb3	xor	x31,x21,x0	 x21:0x80001086  x0:0x00000000 x31=0x80001086
       25155000	      2514	80000ee0	de2464b7	lui	x9,0xde246	  x9=0xde246000
       25165000	      2515	80000ee4	40800033	sub	x0,x0,x8	  x0:0x00000000  x8:0x80009f8c
       25175000	      2516	80000ee8	cc156393	ori	x7,x10,-831	 x10:0x80000cdc  x7=0xfffffcdd
       25185000	      2517	80000eec	02da6463	bltu	x20,x13,80000f14	 x20:0x00000000 x13:0x00080000
       25195000	      2518	00000000	00000013	addi	x0,x0,0	  x0:0x00000000
       25205000	      2519	80000f10	00000013	addi	x0,x0,0	  x0:0x00000000
       25215000	      2520	80000f14	003ae463	bltu	x21,x3,80000f1c	 x21:0x80001086  x3:0x00000001
       25225000	      2521	80000f18	9a367713	andi	x14,x12,-1629	 x12:0x00000000 x14=0x00000000
       25235000	      2522	80000f1c	010a1113	slli	x2,x20,0x10	 x20:0x00000000  x2=0x00000000
       25245000	      2523	80000f20	30762393	slti	x7,x12,775	 x12:0x00000000  x7=0x00000001
       25255000	      2524	80000f24	4136db93	srai	x23,x13,0x13	 x13:0x00080000 x23=0x00000001
       25265000	      2525	80000f28	01f31c33	sll	x24,x6,x31	  x6:0x00000009 x31:0x80001086 x24=0x00000240
       25275000	      2526	80000f2c	01f414b3	sll	x9,x8,x31	  x8:0x80009f8c x31:0x80001086  x9=0x0027e300
       25285000	      2527	80000f30	e6c34c13	xori	x24,x6,-404	  x6:0x00000009 x24=0xfffffe65
       25295000	      2528	80000f34	25640213	addi	x4,x8,598	  x8:0x80009f8c  x4=0x8000a1e2
       25305000	      2529	80000f38	00aafc63	bgeu	x21,x10,80000f50	 x21:0x80001086 x10:0x80000cdc
       25315000	      2530	00000000	00000013	addi	x0,x0,0	  x0:0x00000000
       25325000	      2531	80000f4c	00000013	addi	x0,x0,0	  x0:0x00000000
       25335000	      2532	80000f50	00000013	addi	x0,x0,0	  x0:0x00000000
       25345000	      2533	80000f54	9a47b8b7	lui	x17,0x9a47b	 x17=0x9a47b000
       25355000	      2534	80000f58	010c1c63	bne	x24,x16,80000f70	 x24:0xfffffe65 x16:0x80000b08
       25365000	      2535	00000000	00000013	addi	x0,x0,0	  x0:0x00000000
       25375000	      2536	80000f6c	00000013	addi	x0,x0,0	  x0:0x00000000
       25385000	      2537	80000f70	41685113	srai	x2,x16,0x16	 x16:0x80000b08  x2=0xfffffe00
       25395000	      2538	80000f74	b19aea37	lui	x20,0xb19ae	 x20=0xb19ae000
       25405000	      2539	80000f78	0057b833	sltu	x16,x15,x5	 x15:0x80000f5f  x5:0x00042800 x16=0x00000000
       25415000	      2540	80000f7c	00640cb3	add	x25,x8,x6	  x8:0x80009f8c  x6:0x00000009 x25=0x80009f95
       25425000	      2541	80000f80	00477c63	bgeu	x14,x4,80000f98	 x14:0x00000000  x4:0x8000a1e2
       25435000	      2542	80000f84	41d707b3	sub	x15,x14,x29	 x14:0x00000000 x29:0x80009fc4 x15=0x7fff603c
       25445000	      2543	80000f88	01f4dd93	srli	x27,x9,0x1f	  x9:0x0027e300 x27=0x00000000
       25455000	      2544	80000f8c	0352d063	bge	x5,x21,80000fac	  x5:0x00042800 x21:0x80001086
       25465000	      2545	00000000	00000013	addi	x0,x0,0	  x0:0x00000000
       25475000	      2546	80000fa8	00000013	addi	x0,x0,0	  x0:0x00000000
       25485000	      2547	80000fac	d57b7293	andi	x5,x22,-681	 x22:0x80000a14  x5=0x80000814
       25495000	      2548	80000fb0	03486493	ori	x9,x16,52	 x16:0x00000000  x9=0x00000034
       25505000	      2549	80000fb4	01cd5f13	srli	x30,x26,0x1c	 x26:0x80009fec x30=0x00000008
       25515000	      2550	80000fb8	69d1b593	sltiu	x11,x3,1693	  x3:0x00000001 x11=0x00000001
       25525000	      2551	80000fbc	017379b3	and	x19,x6,x23	  x6:0x00000009 x23:0x00000001 x19=0x00000001
       25535000	      2552	80000fc0	01210033	add	x0,x2,x18	  x2:0xfffffe00 x18:0x80009f84
       25545000	      2553	80000fc4	406e0433	sub	x8,x28,x6	 x28:0x00000001  x6:0x00000009  x8=0xfffffff8
       25555000	      2554	80000fc8	4068df13	srai	x30,x17,0x6	 x17:0x9a47b000 x30=0xfe691ec0
       25565000	      2555	80000fcc	402c55b3	sra	x11,x24,x2	 x24:0xfffffe65  x2:0xfffffe00 x11=0xfffffe65
       25575000	      2556	80000fd0	0401e663	bltu	x3,x0,8000101c	  x3:0x00000001  x0:0x00000000
       25585000	      2557	80000fd4	01ff9e63	bne	x31,x31,80000ff0	 x31:0x80001086 x31:0x80001086
       25595000	      2558	80000fd8	04469063	bne	x13,x4,80001018	 x13:0x00080000  x4:0x8000a1e2
       25605000	      2559	00000000	00000013	addi	x0,x0,0	  x0:0x00000000
       25615000	      2560	80001014	00000013	addi	x0,x0,0	  x0:0x00000000
       25625000	      2561	80001018	00a64c63	blt	x12,x10,80001030	 x12:0x00000000 x10:0x80000cdc
       25635000	      2562	8000101c	00df8c63	beq	x31,x13,80001034	 x31:0x80001086 x13:0x00080000
       25645000	      2563	80001020	041a0293	addi	x5,x20,65	 x20:0xb19ae000  x5=0xb19ae041
       25655000	      2564	80001024	01aa6f33	or	x30,x20,x26	 x20:0xb19ae000 x26:0x80009fec x30=0xb19affec
       25665000	      2565	80001028	007db833	sltu	x16,x27,x7	 x27:0x00000000  x7:0x00000001 x16=0x00000001
       25675000	      2566	8000102c	d8ec7013	andi	x0,x24,-626	 x24:0xfffffe65
       25685000	      2567	80001030	00938e63	beq	x7,x9,8000104c	  x7:0x00000001  x9:0x00000034
       25695000	      2568	80001034	00000013	addi	x0,x0,0	  x0:0x00000000
       25705000	      2569	80001038	e882af93	slti	x31,x5,-376	  x5:0xb19ae041 x31=0x00000001
       25715000	      2570	8000103c	b414f617	auipc	x12,0xb414f	 x12=0x34150038
       25725000	      2571	80001040	93faa393	slti	x7,x21,-1729	 x21:0x80001086  x7=0x00000001
       25735000	      2572	80001044	6cb0d117	auipc	x2,0x6cb0d	  x2=0xecb0e040
       25745000	      2573	80001048	014ba3b3	slt	x7,x23,x20	 x23:0x00000001 x20:0xb19ae000  x7=0x00000000
       25755000	      2574	8000104c	01605a13	srli	x20,x0,0x16	  x0:0x00000000 x20=0x00000000
       25765000	      2575	80001050	00000013	addi	x0,x0,0	  x0:0x00000000
       25775000	      2576	80001054	016e7633	and	x12,x28,x22	 x28:0x00000001 x22:0x80000a14 x12=0x00000000
       25785000	      2577	80001058	fde11137	lui	x2,0xfde11	  x2=0xfde11000
       25795000	      2578	8000105c	00230133	add	x2,x6,x2	  x6:0x00000009  x2:0xfde11000  x2=0xfde11009
       25805000	      2579	80001060	00126463	bltu	x4,x1,80001068	  x4:0x8000a1e2  x1:0xf00013f8
       25815000	      2580	00000000	00000013	addi	x0,x0,0	  x0:0x00000000
       25825000	      2581	80001064	00000013	addi	x0,x0,0	  x0:0x00000000
       25835000	      2582	80001068	a4130697	auipc	x13,0xa4130	 x13=0x24131064
       25845000	      2583	8000106c	56e78813	addi	x16,x15,1390	 x15:0x7fff603c x16=0x7fff65aa
       25855000	      2584	80001070	2e2b6113	ori	x2,x22,738	 x22:0x80000a14  x2=0x80000af6
       25865000	      2585	80001074	030d5063	bge	x26,x16,80001094	 x26:0x80009fec x16:0x7fff65aa
       25875000	      2586	80001078	01108013	addi	x0,x1,17	  x1:0xf00013f8
       25885000	      2587	8000107c	01c9cab3	xor	x21,x19,x28	 x19:0x00000001 x28:0x00000001 x21=0x00000000
       25895000	      2588	80001080	019a4a33	xor	x20,x20,x25	 x20:0x00000000 x25:0x80009f95 x20=0x80009f95
       25905000	      2589	80001084	007bac33	slt	x24,x23,x7	 x23:0x00000001  x7:0x00000000 x24=0x00000000
       25915000	      2590	80001088	014959b3	srl	x19,x18,x20	 x18:0x80009f84 x20:0x80009f95 x19=0x00000400
       25925000	      2591	8000108c	0075ec63	bltu	x11,x7,800010a4	 x11:0xfffffe65  x7:0x00000000
       25935000	      2592	80001090	08e0a713	slti	x14,x1,142	  x1:0xf00013f8 x14=0x00000001
       25945000	      2593	80001094	40dedf33	sra	x30,x29,x13	 x29:0x80009fc4 x13:0x24131064 x30=0xf80009fc
       25955000	      2594	80001098	40100033	sub	x0,x0,x1	  x0:0x00000000  x1:0xf00013f8
       25965000	      2595	8000109c	009fbc33	sltu	x24,x31,x9	 x31:0x00000001  x9:0x00000034 x24=0x00000001
       25975000	      2596	800010a0	00d96b33	or	x22,x18,x13	 x18:0x80009f84 x13:0x24131064 x22=0xa4139fe4
       25985000	      2597	800010a4	0e9ff213	andi	x4,x31,233	 x31:0x00000001  x4=0x00000001
       25995000	      2598	800010a8	0078ebb3	or	x23,x17,x7	 x17:0x9a47b000  x7:0x00000000 x23=0x9a47b000
       26005000	      2599	800010ac	031be463	bltu	x23,x17,800010d4	 x23:0x9a47b000 x17:0x9a47b000
       26015000	      2600	800010b0	098d8d93	addi	x27,x27,152	 x27:0x00000000 x27=0x00000098
       26025000	      2601	800010b4	03df1c63	bne	x30,x29,800010ec	 x30:0xf80009fc x29:0x80009fc4
       26035000	      2602	00000000	00000013	addi	x0,x0,0	  x0:0x00000000
       26045000	      2603	800010e8	00000013	addi	x0,x0,0	  x0:0x00000000
       26055000	      2604	800010ec	01537e33	and	x28,x6,x21	  x6:0x00000009 x21:0x00000000 x28=0x00000000
       26065000	      2605	800010f0	404d0bb3	sub	x23,x26,x4	 x26:0x80009fec  x4:0x00000001 x23=0x80009feb
       26075000	      2606	800010f4	004905b3	add	x11,x18,x4	 x18:0x80009f84  x4:0x00000001 x11=0x80009f85
       26085000	      2607	800010f8	007bd113	srli	x2,x23,0x7	 x23:0x80009feb  x2=0x0100013f
       26095000	      2608	800010fc	01c93b33	sltu	x22,x18,x28	 x18:0x80009f84 x28:0x00000000 x22=0x00000000
       26105000	      2609	80001100	00875433	srl	x8,x14,x8	 x14:0x00000001  x8:0xfffffff8  x8=0x00000000
       26115000	      2610	80001104	054d4063	blt	x26,x20,80001144	 x26:0x80009fec x20:0x80009f95
       26125000	      2611	80001108	408186b3	sub	x13,x3,x8	  x3:0x00000001  x8:0x00000000 x13=0x00000001
       26135000	      2612	8000110c	df910f93	addi	x31,x2,-519	  x2:0x0100013f x31=0x00ffff38
       26145000	      2613	80001110	a303d817	auipc	x16,0xa303d	 x16=0x2303e10c
       26155000	      2614	80001114	01ca5593	srli	x11,x20,0x1c	 x20:0x80009f95 x11=0x00000008
       26165000	      2615	80001118	03e90463	beq	x18,x30,80001140	 x18:0x80009f84 x30:0xf80009fc
       26175000	      2616	8000111c	04599463	bne	x19,x5,80001164	 x19:0x00000400  x5:0xb19ae041
       26185000	      2617	00000000	00000013	addi	x0,x0,0	  x0:0x00000000
       26195000	      2618	80001160	00000013	addi	x0,x0,0	  x0:0x00000000
       26205000	      2619	80001164	00534fb3	xor	x31,x6,x5	  x6:0x00000009  x5:0xb19ae041 x31=0xb19ae048
       26215000	      2620	80001168	25937f93	andi	x31,x6,601	  x6:0x00000009 x31=0x00000009
       26225000	      2621	8000116c	016fab33	slt	x22,x31,x22	 x31:0x00000009 x22:0x00000000 x22=0x00000000
       26235000	      2622	80001170	01a505b3	add	x11,x10,x26	 x10:0x80000cdc x26:0x80009fec x11=0x0000acc8
       26245000	      2623	80001174	022f4063	blt	x30,x2,80001194	 x30:0xf80009fc  x2:0x0100013f
       26255000	      2624	00000000	00000013	addi	x0,x0,0	  x0:0x00000000
       26265000	      2625	80001190	00000013	addi	x0,x0,0	  x0:0x00000000
       26275000	      2626	80001194	00d4d293	srli	x5,x9,0xd	  x9:0x00000034  x5=0x00000000
       26285000	      2627	80001198	e4e8c593	xori	x11,x17,-434	 x17:0x9a47b000 x11=0x65b84e4e
       26295000	      2628	8000119c	012ea6b3	slt	x13,x29,x18	 x29:0x80009fc4 x18:0x80009f84 x13=0x00000000
       26305000	      2629	800011a0	0485fc63	bgeu	x11,x8,800011f8	 x11:0x65b84e4e  x8:0x00000000
       26315000	      2630	00000000	00000013	addi	x0,x0,0	  x0:0x00000000
       26325000	      2631	800011f4	00000013	addi	x0,x0,0	  x0:0x00000000
       26335000	      2632	800011f8	00b4bf33	sltu	x30,x9,x11	  x9:0x00000034 x11:0x65b84e4e x30=0x00000001
       26345000	      2633	800011fc	017148b3	xor	x17,x2,x23	  x2:0x0100013f x23:0x80009feb x17=0x81009ed4
       26355000	      2634	80001200	41e686b3	sub	x13,x13,x30	 x13:0x00000000 x30:0x00000001 x13=0xffffffff
       26365000	      2635	80001204	00297f33	and	x30,x18,x2	 x18:0x80009f84  x2:0x0100013f x30=0x00000104
       26375000	      2636	80001208	89ea3193	sltiu	x3,x20,-1890	 x20:0x80009f95  x3=0x00000001
       26385000	      2637	8000120c	8daa3c17	auipc	x24,0x8daa3	 x24=0x0daa4208
       26395000	      2638	80001210	5ebccd13	xori	x26,x25,1515	 x25:0x80009f95 x26=0x80009a7e
       26405000	      2639	80001214	01db8db3	add	x27,x23,x29	 x23:0x80009feb x29:0x80009fc4 x27=0x00013faf
       26415000	      2640	80001218	02f38863	beq	x7,x15,80001248	  x7:0x00000000 x15:0x7fff603c
       26425000	      2641	8000121c	aa097517	auipc	x10,0xaa097	 x10=0x2a098218
       26435000	      2642	80001220	038cea63	bltu	x25,x24,80001254	 x25:0x80009f95 x24:0x0daa4208
       26445000	      2643	80001224	01976433	or	x8,x14,x25	 x14:0x00000001 x25:0x80009f95  x8=0x80009f95
       26455000	      2644	80001228	4105da93	srai	x21,x11,0x10	 x11:0x65b84e4e x21=0x000065b8
       26465000	      2645	8000122c	41d9da13	srai	x20,x19,0x1d	 x19:0x00000400 x20=0x00000000
       26475000	      2646	80001230	04dd0063	beq	x26,x13,80001270	 x26:0x80009a7e x13:0xffffffff
       26485000	      2647	80001234	00499a33	sll	x20,x19,x4	 x19:0x00000400  x4:0x00000001 x20=0x00000800
       26495000	      2648	80001238	7a96cf93	xori	x31,x13,1961	 x13:0xffffffff x31=0xfffff856
       26505000	      2649	8000123c	00000013	addi	x0,x0,0	  x0:0x00000000
       26515000	      2650	80001240	01eab3b3	sltu	x7,x21,x30	 x21:0x000065b8 x30:0x00000104  x7=0x00000000
       26525000	      2651	80001244	f19bb113	sltiu	x2,x23,-231	 x23:0x80009feb  x2=0x00000001
       26535000	      2652	80001248	01536633	or	x12,x6,x21	  x6:0x00000009 x21:0x000065b8 x12=0x000065b9
       26545000	      2653	8000124c	a4e07e13	andi	x28,x0,-1458	  x0:0x00000000 x28=0x00000000
       26555000	      2654	80001250	01ef8e33	add	x28,x31,x30	 x31:0xfffff856 x30:0x00000104 x28=0xfffff95a
       26565000	      2655	80001254	414f0533	sub	x10,x30,x20	 x30:0x00000104 x20:0x00000800 x10=0xfffff904
       26575000	      2656	80001258	01cef263	bgeu	x29,x28,8000125c	 x29:0x80009fc4 x28:0xfffff95a
       26585000	      2657	8000125c	0114d613	srli	x12,x9,0x11	  x9:0x00000034 x12=0x00000000
       26595000	      2658	80001260	009be0b3	or	x1,x23,x9	 x23:0x80009feb  x9:0x00000034  x1=0x80009fff
       26605000	      2659	80001264	0adeb893	sltiu	x17,x29,173	 x29:0x80009fc4 x17=0x00000000
       26615000	      2660	80001268	0c25c293	xori	x5,x11,194	 x11:0x65b84e4e  x5=0x65b84e8c
       26625000	      2661	8000126c	00466a33	or	x20,x12,x4	 x12:0x00000000  x4:0x00000001 x20=0x00000001
       26635000	      2662	80001270	01a3f1b3	and	x3,x7,x26	  x7:0x00000000 x26:0x80009a7e  x3=0x00000000
       26645000	      2663	80001274	02985a63	bge	x16,x9,800012a8	 x16:0x2303e10c  x9:0x00000034
       26655000	      2664	00000000	00000013	addi	x0,x0,0	  x0:0x00000000
       26665000	      2665	800012a4	00000013	addi	x0,x0,0	  x0:0x00000000
       26675000	      2666	800012a8	01592033	slt	x0,x18,x21	 x18:0x80009f84 x21:0x000065b8
       26685000	      2667	800012ac	028a0063	beq	x20,x8,800012cc	 x20:0x00000001  x8:0x80009f95
       26695000	      2668	800012b0	41165c93	srai	x25,x12,0x11	 x12:0x00000000 x25=0x00000000
       26705000	      2669	800012b4	0044d893	srli	x17,x9,0x4	  x9:0x00000034 x17=0x00000003
       26715000	      2670	800012b8	04ec9063	bne	x25,x14,800012f8	 x25:0x00000000 x14:0x00000001
       26725000	      2671	00000000	00000013	addi	x0,x0,0	  x0:0x00000000
       26735000	      2672	800012f4	00000013	addi	x0,x0,0	  x0:0x00000000
       26745000	      2673	800012f8	33491737	lui	x14,0x33491	 x14=0x33491000
       26755000	      2674	800012fc	01d07463	bgeu	x0,x29,80001304	  x0:0x00000000 x29:0x80009fc4
       26765000	      2675	80001300	00000013	addi	x0,x0,0	  x0:0x00000000
       26775000	      2676	80001304	01740633	add	x12,x8,x23	  x8:0x80009f95 x23:0x80009feb x12=0x00013f80
       26785000	      2677	80001308	0069bc33	sltu	x24,x19,x6	 x19:0x00000400  x6:0x00000009 x24=0x00000000
       26795000	      2678	8000130c	009ef433	and	x8,x29,x9	 x29:0x80009fc4  x9:0x00000034  x8=0x00000004
       26805000	      2679	80001310	00745fb3	srl	x31,x8,x7	  x8:0x00000004  x7:0x00000000 x31=0x00000004
       26815000	      2680	80001314	011872b3	and	x5,x16,x17	 x16:0x2303e10c x17:0x00000003  x5=0x00000000
       26825000	      2681	80001318	007fab33	slt	x22,x31,x7	 x31:0x00000004  x7:0x00000000 x22=0x00000000
       26835000	      2682	8000131c	05ebe663	bltu	x23,x30,80001368	 x23:0x80009feb x30:0x00000104
       26845000	      2683	80001320	a24e8093	addi	x1,x29,-1500	 x29:0x80009fc4  x1=0x800099e8
       26855000	      2684	80001324	011cd263	bge	x25,x17,80001328	 x25:0x00000000 x17:0x00000003
       26865000	      2685	80001328	d8646e13	ori	x28,x8,-634	  x8:0x00000004 x28=0xfffffd86
       26875000	      2686	8000132c	014ea133	slt	x2,x29,x20	 x29:0x80009fc4 x20:0x00000001  x2=0x00000001
       26885000	      2687	80001330	e38ba213	slti	x4,x23,-456	 x23:0x80009feb  x4=0x00000001
       26895000	      2688	80001334	00da6ab3	or	x21,x20,x13	 x20:0x00000001 x13:0xffffffff x21=0xffffffff
       26905000	      2689	80001338	003a4633	xor	x12,x20,x3	 x20:0x00000001  x3:0x00000000 x12=0x00000001
       26915000	      2690	8000133c	015e9813	slli	x16,x29,0x15	 x29:0x80009fc4 x16=0xf8800000
       26925000	      2691	80001340	0153a233	slt	x4,x7,x21	  x7:0x00000000 x21:0xffffffff  x4=0x00000000
       26935000	      2692	80001344	01ed5a93	srli	x21,x26,0x1e	 x26:0x80009a7e x21=0x00000002
       26945000	      2693	80001348	6df8af93	slti	x31,x17,1759	 x17:0x00000003 x31=0x00000001
       26955000	      2694	8000134c	5e3bc593	xori	x11,x23,1507	 x23:0x80009feb x11=0x80009a08
       26965000	      2695	80001350	d4ec4d17	auipc	x26,0xd4ec4	 x26=0x54ec534c
       26975000	      2696	80001354	017ea9b3	slt	x19,x29,x23	 x29:0x80009fc4 x23:0x80009feb x19=0x00000001
       26985000	      2697	80001358	009ac7b3	xor	x15,x21,x9	 x21:0x00000002  x9:0x00000034 x15=0x00000036
       26995000	      2698	8000135c	a2d22693	slti	x13,x4,-1491	  x4:0x00000000 x13=0x00000000
       27005000	      2699	80001360	05590063	beq	x18,x21,800013a0	 x18:0x80009f84 x21:0x00000002
       27015000	      2700	80001364	04028663	beq	x5,x0,800013b0	  x5:0x00000000  x0:0x00000000
       27025000	      2701	00000000	00000013	addi	x0,x0,0	  x0:0x00000000
       27035000	      2702	800013ac	00000013	addi	x0,x0,0	  x0:0x00000000
       27045000	      2703	800013b0	015d6db3	or	x27,x26,x21	 x26:0x54ec534c x21:0x00000002 x27=0x54ec534e
       27055000	      2704	800013b4	008511b3	sll	x3,x10,x8	 x10:0xfffff904  x8:0x00000004  x3=0xffff9040
       27065000	      2705	800013b8	4c4132b7	lui	x5,0x4c413	  x5=0x4c413000
       27075000	      2706	800013bc	01558833	add	x16,x11,x21	 x11:0x80009a08 x21:0x00000002 x16=0x80009a0a
       27085000	      2707	800013c0	03a9e863	bltu	x19,x26,800013f0	 x19:0x00000001 x26:0x54ec534c
       27095000	      2708	00000000	00000013	addi	x0,x0,0	  x0:0x00000000
       27105000	      2709	800013ec	00000013	addi	x0,x0,0	  x0:0x00000000
       27115000	      2710	800013f0	00d49c33	sll	x24,x9,x13	  x9:0x00000034 x13:0x00000000 x24=0x00000034
       27125000	      2711	800013f4	08c1d063	bge	x3,x12,80001474	  x3:0xffff9040 x12:0x00000001
       27135000	      2712	800013f8	06cfc863	blt	x31,x12,80001468	 x31:0x00000001 x12:0x00000001
       27145000	      2713	800013fc	01d2a093	slti	x1,x5,29	  x5:0x4c413000  x1=0x00000000
       27155000	      2714	80001400	014c8833	add	x16,x25,x20	 x25:0x00000000 x20:0x00000001 x16=0x00000001
       27165000	      2715	80001404	00002297	auipc	x5,0x2	  x5=0x80003400
       27175000	      2716	80001408	e4428293	addi	x5,x5,-444	  x5:0x80003400  x5=0x80003244
       27185000	      2717	8000140c	d4228293	addi	x5,x5,-702	  x5:0x80003244  x5=0x80002f86
       27195000	      2718	80001410	014db133	sltu	x2,x27,x20	 x27:0x54ec534e x20:0x00000001  x2=0x00000000
       27205000	      2719	80001414	0afcf393	andi	x7,x25,175	 x25:0x00000000  x7=0x00000000
       27215000	      2720	80001418	007b2633	slt	x12,x22,x7	 x22:0x00000000  x7:0x00000000 x12=0x00000000
       27225000	      2721	8000141c	01d4e633	or	x12,x9,x29	  x9:0x00000034 x29:0x80009fc4 x12=0x80009ff4
       27235000	      2722	80001420	b0250613	addi	x12,x10,-1278	 x10:0xfffff904 x12=0xfffff406
       27245000	      2723	80001424	b8634097	auipc	x1,0xb8634	  x1=0x38635420
       27255000	      2724	80001428	003f5f93	srli	x31,x30,0x3	 x30:0x00000104 x31=0x00000020
       27265000	      2725	8000142c	019da8b3	slt	x17,x27,x25	 x27:0x54ec534e x25:0x00000000 x17=0x00000000
       27275000	      2726	80001430	01593f33	sltu	x30,x18,x21	 x18:0x80009f84 x21:0x00000002 x30=0x00000000
       27285000	      2727	80001434	2be28c67	jalr	x24,x5,702	  x5:0x80002f86 x24=0x80001434
       27295000	      2728	00000000	00000013	addi	x0,x0,0	  x0:0x00000000
       27305000	      2729	80003244	00000013	addi	x0,x0,0	  x0:0x00000000
       27315000	      2730	80003248	00598463	beq	x19,x5,80003250	 x19:0x00000001  x5:0x80002f86
       27325000	      2731	8000324c	01ad9513	slli	x10,x27,0x1a	 x27:0x54ec534e x10=0x38000000
       27335000	      2732	80003250	fe090913	addi	x18,x18,-32	 x18:0x80009f84 x18=0x80009f64
       27345000	      2733	80003254	00e3e833	or	x16,x7,x14	  x7:0x00000000 x14:0x33491000 x16=0x33491000
       27355000	      2734	80003258	013200b3	add	x1,x4,x19	  x4:0x00000000 x19:0x00000001  x1=0x00000001
       27365000	      2735	8000325c	01892223	sw	x24,4(x18)	 x18:0x80009f64 x24:0x80001434 PA:0x80009f68
       27375000	      2736	80003260	df7d8493	addi	x9,x27,-521	 x27:0x54ec534e  x9=0x54ec5145
       27385000	      2737	80003264	01370833	add	x16,x14,x19	 x14:0x33491000 x19:0x00000001 x16=0x33491001
       27395000	      2738	80003268	000799b3	sll	x19,x15,x0	 x15:0x00000036  x0:0x00000000 x19=0x00000036
       27405000	      2739	8000326c	4052de33	sra	x28,x5,x5	  x5:0x80002f86  x5:0x80002f86 x28=0xfe0000be
       27415000	      2740	80003270	00000013	addi	x0,x0,0	  x0:0x00000000
       27425000	      2741	80003274	7e8fff13	andi	x30,x31,2024	 x31:0x00000020 x30=0x00000020
       27435000	      2742	80003278	92938c13	addi	x24,x7,-1751	  x7:0x00000000 x24=0xfffff929
       27445000	      2743	8000327c	00c89b13	slli	x22,x17,0xc	 x17:0x00000000 x22=0x00000000
       27455000	      2744	80003280	00000013	addi	x0,x0,0	  x0:0x00000000
       27465000	      2745	80003284	76900c6f	jal	x24,80003284	 x24=0x80003284
       27475000	      2746	00000000	00000013	addi	x0,x0,0	  x0:0x00000000
       27485000	      2747	800041e8	00000013	addi	x0,x0,0	  x0:0x00000000
       27495000	      2748	800041ec	4e0f0f93	addi	x31,x30,1248	 x30:0x00000020 x31=0x00000500
       27505000	      2749	800041f0	fd090913	addi	x18,x18,-48	 x18:0x80009f64 x18=0x80009f34
       27515000	      2750	800041f4	01892223	sw	x24,4(x18)	 x18:0x80009f34 x24:0x80003284 PA:0x80009f38
       27525000	      2751	800041f8	41f6d293	srai	x5,x13,0x1f	 x13:0x00000000  x5=0x00000000
       27535000	      2752	800041fc	002dd0b3	srl	x1,x27,x2	 x27:0x54ec534e  x2:0x00000000  x1=0x54ec534e
       27545000	      2753	80004200	a450f717	auipc	x14,0xa450f	 x14=0x245131fc
       27555000	      2754	80004204	00ad5013	srli	x0,x26,0xa	 x26:0x54ec534c
       27565000	      2755	80004208	00c99d33	sll	x26,x19,x12	 x19:0x00000036 x12:0xfffff406 x26=0x00000d80
       27575000	      2756	8000420c	01bf0d33	add	x26,x30,x27	 x30:0x00000020 x27:0x54ec534e x26=0x54ec536e
       27585000	      2757	80004210	00f335b3	sltu	x11,x6,x15	  x6:0x00000009 x15:0x00000036 x11=0x00000001
       27595000	      2758	80004214	01bb8cb3	add	x25,x23,x27	 x23:0x80009feb x27:0x54ec534e x25=0xd4ecf339
       27605000	      2759	80004218	78b4cb13	xori	x22,x9,1931	  x9:0x54ec5145 x22=0x54ec56ce
       27615000	      2760	8000421c	01d71a13	slli	x20,x14,0x1d	 x14:0x245131fc x20=0x80000000
       27625000	      2761	80004220	00000b97	auipc	x23,0x0	 x23=0x8000421c
       27635000	      2762	80004224	f54b8b93	addi	x23,x23,-172	 x23:0x8000421c x23=0x80004170
       27645000	      2763	80004228	010437b3	sltu	x15,x8,x16	  x8:0x00000004 x16:0x33491001 x15=0x00000001
       27655000	      2764	8000422c	d41b8b93	addi	x23,x23,-703	 x23:0x80004170 x23=0x80003eb1
       27665000	      2765	80004230	40e7d633	sra	x12,x15,x14	 x15:0x00000001 x14:0x245131fc x12=0x00000000
       27675000	      2766	80004234	2bfb8c67	jalr	x24,x23,703	 x23:0x80003eb1 x24=0x80004234
       27685000	      2767	00000000	00000013	addi	x0,x0,0	  x0:0x00000000
       27695000	      2768	80004170	00000013	addi	x0,x0,0	  x0:0x00000000
       27705000	      2769	80004174	01554033	xor	x0,x10,x21	 x10:0x38000000 x21:0x00000002
       27715000	      2770	80004178	006d8263	beq	x27,x6,8000417c	 x27:0x54ec534e  x6:0x00000009
       27725000	      2771	8000417c	fe490913	addi	x18,x18,-28	 x18:0x80009f34 x18=0x80009f18
       27735000	      2772	80004180	01d936b3	sltu	x13,x18,x29	 x18:0x80009f18 x29:0x80009fc4 x13=0x00000001
       27745000	      2773	80004184	419500b3	sub	x1,x10,x25	 x10:0x38000000 x25:0xd4ecf339  x1=0x63130cc7
       27755000	      2774	80004188	01892223	sw	x24,4(x18)	 x18:0x80009f18 x24:0x80004234 PA:0x80009f1c
       27765000	      2775	8000418c	01a85093	srli	x1,x16,0x1a	 x16:0x33491001  x1=0x0000000c
       27775000	      2776	80004190	4004da33	sra	x20,x9,x0	  x9:0x54ec5145  x0:0x00000000 x20=0x54ec5145
       27785000	      2777	80004194	03557863	bgeu	x10,x21,800041c4	 x10:0x38000000 x21:0x00000002
       27795000	      2778	00000000	00000013	addi	x0,x0,0	  x0:0x00000000
       27805000	      2779	800041c0	00000013	addi	x0,x0,0	  x0:0x00000000
       27815000	      2780	800041c4	13ef4413	xori	x8,x30,318	 x30:0x00000020  x8=0x0000011e
       27825000	      2781	800041c8	5e4d81b7	lui	x3,0x5e4d8	  x3=0x5e4d8000
       27835000	      2782	800041cc	00492c03	lw	x24,4(x18)	 x18:0x80009f18 x24=0x80004234 PA:0x80009f1c
       27845000	      2783	800041d0	00000013	addi	x0,x0,0	  x0:0x00000000
       27855000	      2784	800041d4	410b0133	sub	x2,x22,x16	 x22:0x54ec56ce x16:0x33491001  x2=0x21a346cd
       27865000	      2785	800041d8	0035d193	srli	x3,x11,0x3	 x11:0x00000001  x3=0x00000000
       27875000	      2786	800041dc	01c90913	addi	x18,x18,28	 x18:0x80009f18 x18=0x80009f34
       27885000	      2787	800041e0	af653a17	auipc	x20,0xaf653	 x20=0x2f6571dc
       27895000	      2788	800041e4	000c0993	addi	x19,x24,0	 x24:0x80004234 x19=0x80004234
       27905000	      2789	800041e8	000989e7	jalr	x19,x19,0	 x19:0x80004234 x19=0x800041e8
       27915000	      2790	00000000	00000013	addi	x0,x0,0	  x0:0x00000000
       27925000	      2791	80004234	00000013	addi	x0,x0,0	  x0:0x00000000
       27935000	      2792	80004238	01818db3	add	x27,x3,x24	  x3:0x00000000 x24:0x80004234 x27=0x80004234
       27945000	      2793	8000423c	6fbac613	xori	x12,x21,1787	 x21:0x00000002 x12=0x000006f9
       27955000	      2794	80004240	00b48233	add	x4,x9,x11	  x9:0x54ec5145 x11:0x00000001  x4=0x54ec5146
       27965000	      2795	80004244	26a94993	xori	x19,x18,618	 x18:0x80009f34 x19=0x80009d5e
       27975000	      2796	80004248	27db0c93	addi	x25,x22,637	 x22:0x54ec56ce x25=0x54ec594b
       27985000	      2797	8000424c	04a36863	bltu	x6,x10,8000429c	  x6:0x00000009 x10:0x38000000
       27995000	      2798	00000000	00000013	addi	x0,x0,0	  x0:0x00000000
       28005000	      2799	80004298	00000013	addi	x0,x0,0	  x0:0x00000000
       28015000	      2800	8000429c	00f20833	add	x16,x4,x15	  x4:0x54ec5146 x15:0x00000001 x16=0x54ec5147
       28025000	      2801	800042a0	03dbf063	bgeu	x23,x29,800042c0	 x23:0x80003eb1 x29:0x80009fc4
       28035000	      2802	800042a4	01086733	or	x14,x16,x16	 x16:0x54ec5147 x16:0x54ec5147 x14=0x54ec5147
       28045000	      2803	800042a8	018a6f33	or	x30,x20,x24	 x20:0x2f6571dc x24:0x80004234 x30=0xaf6573fc
       28055000	      2804	800042ac	00129e13	slli	x28,x5,0x1	  x5:0x00000000 x28=0x00000000
       28065000	      2805	800042b0	00b39ab3	sll	x21,x7,x11	  x7:0x00000000 x11:0x00000001 x21=0x00000000
       28075000	      2806	800042b4	01235f13	srli	x30,x6,0x12	  x6:0x00000009 x30=0x00000000
       28085000	      2807	800042b8	03d1c863	blt	x3,x29,800042e8	  x3:0x00000000 x29:0x80009fc4
       28095000	      2808	800042bc	7b5e7093	andi	x1,x28,1973	 x28:0x00000000  x1=0x00000000
       28105000	      2809	800042c0	00138c63	beq	x7,x1,800042d8	  x7:0x00000000  x1:0x00000000
       28115000	      2810	00000000	00000013	addi	x0,x0,0	  x0:0x00000000
       28125000	      2811	800042d4	00000013	addi	x0,x0,0	  x0:0x00000000
       28135000	      2812	800042d8	00cdd863	bge	x27,x12,800042e8	 x27:0x80004234 x12:0x000006f9
       28145000	      2813	800042dc	98992593	slti	x11,x18,-1655	 x18:0x80009f34 x11=0x00000001
       28155000	      2814	800042e0	414a5813	srai	x16,x20,0x14	 x20:0x2f6571dc x16=0x000002f6
       28165000	      2815	800042e4	00d965b3	or	x11,x18,x13	 x18:0x80009f34 x13:0x00000001 x11=0x80009f35
       28175000	      2816	800042e8	009e85b3	add	x11,x29,x9	 x29:0x80009fc4  x9:0x54ec5145 x11=0xd4ecf109
       28185000	      2817	800042ec	410a5f13	srai	x30,x20,0x10	 x20:0x2f6571dc x30=0x00002f65
       28195000	      2818	800042f0	00ee3cb3	sltu	x25,x28,x14	 x28:0x00000000 x14:0x54ec5147 x25=0x00000001
       28205000	      2819	800042f4	00492c03	lw	x24,4(x18)	 x18:0x80009f34 x24=0x80003284 PA:0x80009f38
       28215000	      2820	800042f8	4d902693	slti	x13,x0,1241	  x0:0x00000000 x13=0x00000001
       28225000	      2821	800042fc	64b90f93	addi	x31,x18,1611	 x18:0x80009f34 x31=0x8000a57f
       28235000	      2822	80004300	03090913	addi	x18,x18,48	 x18:0x80009f34 x18=0x80009f64
       28245000	      2823	80004304	00d70233	add	x4,x14,x13	 x14:0x54ec5147 x13:0x00000001  x4=0x54ec5148
       28255000	      2824	80004308	000c0513	addi	x10,x24,0	 x24:0x80003284 x10=0x80003284
       28265000	      2825	8000430c	00050567	jalr	x10,x10,0	 x10:0x80003284 x10=0x8000430c
       28275000	      2826	00000000	00000013	addi	x0,x0,0	  x0:0x00000000
       28285000	      2827	80003284	00000013	addi	x0,x0,0	  x0:0x00000000
       28295000	      2828	80003288	dfba7d13	andi	x26,x20,-517	 x20:0x2f6571dc x26=0x2f6571d8
       28305000	      2829	8000328c	01f0be33	sltu	x28,x1,x31	  x1:0x00000000 x31:0x8000a57f x28=0x00000001
       28315000	      2830	80003290	002e4ab3	xor	x21,x28,x2	 x28:0x00000001  x2:0x21a346cd x21=0x21a346cc
       28325000	      2831	80003294	00001f17	auipc	x30,0x1	 x30=0x80004290
       28335000	      2832	80003298	07cf0f13	addi	x30,x30,124	 x30:0x80004290 x30=0x8000430c
       28345000	      2833	8000329c	b9f475b7	lui	x11,0xb9f47	 x11=0xb9f47000
       28355000	      2834	800032a0	014dd713	srli	x14,x27,0x14	 x27:0x80004234 x14=0x00000800
       28365000	      2835	800032a4	0e6f0f13	addi	x30,x30,230	 x30:0x8000430c x30=0x800043f2
       28375000	      2836	800032a8	4394d297	auipc	x5,0x4394d	  x5=0xc39502a4
       28385000	      2837	800032ac	04ccfd37	lui	x26,0x4ccf	 x26=0x04ccf000
       28395000	      2838	800032b0	be460793	addi	x15,x12,-1052	 x12:0x000006f9 x15=0x000002dd
       28405000	      2839	800032b4	f1bf0c67	jalr	x24,x30,-229	 x30:0x800043f2 x24=0x800032b4
       28415000	      2840	00000000	00000013	addi	x0,x0,0	  x0:0x00000000
       28425000	      2841	8000430c	00000013	addi	x0,x0,0	  x0:0x00000000
       28435000	      2842	80004310	416c50b3	sra	x1,x24,x22	 x24:0x800032b4 x22:0x54ec56ce  x1=0xfffe0000
       28445000	      2843	80004314	01065513	srli	x10,x12,0x10	 x12:0x000006f9 x10=0x00000000
       28455000	      2844	80004318	b4203413	sltiu	x8,x0,-1214	  x0:0x00000000  x8=0x00000001
       28465000	      2845	8000431c	01fdff33	and	x30,x27,x31	 x27:0x80004234 x31:0x8000a57f x30=0x80000034
       28475000	      2846	80004320	fd090913	addi	x18,x18,-48	 x18:0x80009f64 x18=0x80009f34
       28485000	      2847	80004324	014d7433	and	x8,x26,x20	 x26:0x04ccf000 x20:0x2f6571dc  x8=0x04447000
       28495000	      2848	80004328	01892223	sw	x24,4(x18)	 x18:0x80009f34 x24:0x800032b4 PA:0x80009f38
       28505000	      2849	8000432c	00bcaf33	slt	x30,x25,x11	 x25:0x00000001 x11:0xb9f47000 x30=0x00000000
       28515000	      2850	80004330	6a0d8a93	addi	x21,x27,1696	 x27:0x80004234 x21=0x800048d4
       28525000	      2851	80004334	00947213	andi	x4,x8,9	  x8:0x04447000  x4=0x00000000
       28535000	      2852	80004338	00000617	auipc	x12,0x0	 x12=0x80004334
       28545000	      2853	8000433c	e3c60613	addi	x12,x12,-452	 x12:0x80004334 x12=0x80004170
       28555000	      2854	80004340	cdb60613	addi	x12,x12,-805	 x12:0x80004170 x12=0x80003e4b
       28565000	      2855	80004344	40b459b3	sra	x19,x8,x11	  x8:0x04447000 x11:0xb9f47000 x19=0x04447000
       28575000	      2856	80004348	01a6aa33	slt	x20,x13,x26	 x13:0x00000001 x26:0x04ccf000 x20=0x00000001
       28585000	      2857	8000434c	010110b3	sll	x1,x2,x16	  x2:0x21a346cd x16:0x000002f6  x1=0xb3400000
       28595000	      2858	80004350	0060e0b3	or	x1,x1,x6	  x1:0xb3400000  x6:0x00000009  x1=0xb3400009
       28605000	      2859	80004354	01569213	slli	x4,x13,0x15	 x13:0x00000001  x4=0x00200000
       28615000	      2860	80004358	00761863	bne	x12,x7,80004368	 x12:0x80003e4b  x7:0x00000000
       28625000	      2861	00000000	00000013	addi	x0,x0,0	  x0:0x00000000
       28635000	      2862	80004364	00000013	addi	x0,x0,0	  x0:0x00000000
       28645000	      2863	80004368	32560c67	jalr	x24,x12,805	 x12:0x80003e4b x24=0x80004368
       28655000	      2864	00000000	00000013	addi	x0,x0,0	  x0:0x00000000
       28665000	      2865	80004170	00000013	addi	x0,x0,0	  x0:0x00000000
       28675000	      2866	80004174	01554033	xor	x0,x10,x21	 x10:0x00000000 x21:0x800048d4
       28685000	      2867	80004178	006d8263	beq	x27,x6,8000417c	 x27:0x80004234  x6:0x00000009
       28695000	      2868	8000417c	fe490913	addi	x18,x18,-28	 x18:0x80009f34 x18=0x80009f18
       28705000	      2869	80004180	01d936b3	sltu	x13,x18,x29	 x18:0x80009f18 x29:0x80009fc4 x13=0x00000001
       28715000	      2870	80004184	419500b3	sub	x1,x10,x25	 x10:0x00000000 x25:0x00000001  x1=0xffffffff
       28725000	      2871	80004188	01892223	sw	x24,4(x18)	 x18:0x80009f18 x24:0x80004368 PA:0x80009f1c
       28735000	      2872	8000418c	01a85093	srli	x1,x16,0x1a	 x16:0x000002f6  x1=0x00000000
       28745000	      2873	80004190	4004da33	sra	x20,x9,x0	  x9:0x54ec5145  x0:0x00000000 x20=0x54ec5145
       28755000	      2874	80004194	03557863	bgeu	x10,x21,800041c4	 x10:0x00000000 x21:0x800048d4
       28765000	      2875	80004198	e6f68593	addi	x11,x13,-401	 x13:0x00000001 x11=0xfffffe70
       28775000	      2876	8000419c	006cd693	srli	x13,x25,0x6	 x25:0x00000001 x13=0x00000000
       28785000	      2877	800041a0	0265d263	bge	x11,x6,800041c4	 x11:0xfffffe70  x6:0x00000009
       28795000	      2878	800041a4	110d0a93	addi	x21,x26,272	 x26:0x04ccf000 x21=0x04ccf110
       28805000	      2879	800041a8	0056d5b3	srl	x11,x13,x5	 x13:0x00000000  x5:0xc39502a4 x11=0x00000000
       28815000	      2880	800041ac	01955713	srli	x14,x10,0x19	 x10:0x00000000 x14=0x00000000
       28825000	      2881	800041b0	00aeee33	or	x28,x29,x10	 x29:0x80009fc4 x10:0x00000000 x28=0x80009fc4
       28835000	      2882	800041b4	01aada33	srl	x20,x21,x26	 x21:0x04ccf110 x26:0x04ccf000 x20=0x04ccf110
       28845000	      2883	800041b8	01b4f663	bgeu	x9,x27,800041c4	  x9:0x54ec5145 x27:0x80004234
       28855000	      2884	800041bc	8a58c617	auipc	x12,0x8a58c	 x12=0x0a5901b8
       28865000	      2885	800041c0	89f9c493	xori	x9,x19,-1889	 x19:0x04447000  x9=0xfbbb889f
       28875000	      2886	800041c4	13ef4413	xori	x8,x30,318	 x30:0x00000000  x8=0x0000013e
       28885000	      2887	800041c8	5e4d81b7	lui	x3,0x5e4d8	  x3=0x5e4d8000
       28895000	      2888	800041cc	00492c03	lw	x24,4(x18)	 x18:0x80009f18 x24=0x80004368 PA:0x80009f1c
       28905000	      2889	800041d0	00000013	addi	x0,x0,0	  x0:0x00000000
       28915000	      2890	800041d4	410b0133	sub	x2,x22,x16	 x22:0x54ec56ce x16:0x000002f6  x2=0x54ec53d8
       28925000	      2891	800041d8	0035d193	srli	x3,x11,0x3	 x11:0x00000000  x3=0x00000000
       28935000	      2892	800041dc	01c90913	addi	x18,x18,28	 x18:0x80009f18 x18=0x80009f34
       28945000	      2893	800041e0	af653a17	auipc	x20,0xaf653	 x20=0x2f6571dc
       28955000	      2894	800041e4	000c0993	addi	x19,x24,0	 x24:0x80004368 x19=0x80004368
       28965000	      2895	800041e8	000989e7	jalr	x19,x19,0	 x19:0x80004368 x19=0x800041e8
       28975000	      2896	00000000	00000013	addi	x0,x0,0	  x0:0x00000000
       28985000	      2897	80004368	00000013	addi	x0,x0,0	  x0:0x00000000
       28995000	      2898	8000436c	01000c6f	jal	x24,8000436c	 x24=0x8000436c
       29005000	      2899	00000000	00000013	addi	x0,x0,0	  x0:0x00000000
       29015000	      2900	80004378	00000013	addi	x0,x0,0	  x0:0x00000000
       29025000	      2901	8000437c	00c000ef	jal	x1,8000437c	  x1=0x8000437c
       29035000	      2902	00000000	00000013	addi	x0,x0,0	  x0:0x00000000
       29045000	      2903	80004384	00000013	addi	x0,x0,0	  x0:0x00000000
       29055000	      2904	80004388	018000ef	jal	x1,80004388	  x1=0x80004388
       29065000	      2905	00000000	00000013	addi	x0,x0,0	  x0:0x00000000
       29075000	      2906	8000439c	00000013	addi	x0,x0,0	  x0:0x00000000
       29085000	      2907	800043a0	ff9ffcef	jal	x25,800043a0	 x25=0x800043a0
       29095000	      2908	00000000	00000013	addi	x0,x0,0	  x0:0x00000000
       29105000	      2909	80004394	00000013	addi	x0,x0,0	  x0:0x00000000
       29115000	      2910	80004398	fddff26f	jal	x4,80004398	  x4=0x80004398
       29125000	      2911	00000000	00000013	addi	x0,x0,0	  x0:0x00000000
       29135000	      2912	80004370	00000013	addi	x0,x0,0	  x0:0x00000000
       29145000	      2913	80004374	00c000ef	jal	x1,80004374	  x1=0x80004374
       29155000	      2914	00000000	00000013	addi	x0,x0,0	  x0:0x00000000
       29165000	      2915	8000437c	00000013	addi	x0,x0,0	  x0:0x00000000
       29175000	      2916	80004380	02c00f6f	jal	x30,80004380	 x30=0x80004380
       29185000	      2917	00000000	00000013	addi	x0,x0,0	  x0:0x00000000
       29195000	      2918	800043a8	00000013	addi	x0,x0,0	  x0:0x00000000
       29205000	      2919	800043ac	ff9ff86f	jal	x16,800043ac	 x16=0x800043ac
       29215000	      2920	00000000	00000013	addi	x0,x0,0	  x0:0x00000000
       29225000	      2921	800043a0	00000013	addi	x0,x0,0	  x0:0x00000000
       29235000	      2922	800043a4	fcdff1ef	jal	x3,800043a4	  x3=0x800043a4
       29245000	      2923	00000000	00000013	addi	x0,x0,0	  x0:0x00000000
       29255000	      2924	8000436c	00000013	addi	x0,x0,0	  x0:0x00000000
       29265000	      2925	80004370	0080026f	jal	x4,80004370	  x4=0x80004370
       29275000	      2926	00000000	00000013	addi	x0,x0,0	  x0:0x00000000
       29285000	      2927	80004374	00000013	addi	x0,x0,0	  x0:0x00000000
       29295000	      2928	80004378	01800a6f	jal	x20,80004378	 x20=0x80004378
       29305000	      2929	00000000	00000013	addi	x0,x0,0	  x0:0x00000000
       29315000	      2930	8000438c	00000013	addi	x0,x0,0	  x0:0x00000000
       29325000	      2931	80004390	00c000ef	jal	x1,80004390	  x1=0x80004390
       29335000	      2932	00000000	00000013	addi	x0,x0,0	  x0:0x00000000
       29345000	      2933	80004398	00000013	addi	x0,x0,0	  x0:0x00000000
       29355000	      2934	8000439c	fe9ff0ef	jal	x1,8000439c	  x1=0x8000439c
       29365000	      2935	00000000	00000013	addi	x0,x0,0	  x0:0x00000000
       29375000	      2936	80004380	00000013	addi	x0,x0,0	  x0:0x00000000
       29385000	      2937	80004384	008002ef	jal	x5,80004384	  x5=0x80004384
       29395000	      2938	00000000	00000013	addi	x0,x0,0	  x0:0x00000000
       29405000	      2939	80004388	00000013	addi	x0,x0,0	  x0:0x00000000
       29415000	      2940	8000438c	01c000ef	jal	x1,8000438c	  x1=0x8000438c
       29425000	      2941	00000000	00000013	addi	x0,x0,0	  x0:0x00000000
       29435000	      2942	800043a4	00000013	addi	x0,x0,0	  x0:0x00000000
       29445000	      2943	800043a8	fedff0ef	jal	x1,800043a8	  x1=0x800043a8
       29455000	      2944	00000000	00000013	addi	x0,x0,0	  x0:0x00000000
       29465000	      2945	80004390	00000013	addi	x0,x0,0	  x0:0x00000000
       29475000	      2946	80004394	01c00d6f	jal	x26,80004394	 x26=0x80004394
       29485000	      2947	00000000	00000013	addi	x0,x0,0	  x0:0x00000000
       29495000	      2948	800043ac	00000013	addi	x0,x0,0	  x0:0x00000000
       29505000	      2949	800043b0	4059ddb3	sra	x27,x19,x5	 x19:0x800041e8  x5:0x80004384 x27=0xf800041e
       29515000	      2950	800043b4	01000c6f	jal	x24,800043b4	 x24=0x800043b4
       29525000	      2951	00000000	00000013	addi	x0,x0,0	  x0:0x00000000
       29535000	      2952	800043c0	00000013	addi	x0,x0,0	  x0:0x00000000
       29545000	      2953	800043c4	008000ef	jal	x1,800043c4	  x1=0x800043c4
       29555000	      2954	00000000	00000013	addi	x0,x0,0	  x0:0x00000000
       29565000	      2955	800043c8	00000013	addi	x0,x0,0	  x0:0x00000000
       29575000	      2956	800043cc	fedff5ef	jal	x11,800043cc	 x11=0x800043cc
       29585000	      2957	00000000	00000013	addi	x0,x0,0	  x0:0x00000000
       29595000	      2958	800043b4	00000013	addi	x0,x0,0	  x0:0x00000000
       29605000	      2959	800043b8	018000ef	jal	x1,800043b8	  x1=0x800043b8
       29615000	      2960	00000000	00000013	addi	x0,x0,0	  x0:0x00000000
       29625000	      2961	800043cc	00000013	addi	x0,x0,0	  x0:0x00000000
       29635000	      2962	800043d0	004000ef	jal	x1,800043d0	  x1=0x800043d0
       29645000	      2963	00000000	00000013	addi	x0,x0,0	  x0:0x00000000
       29655000	      2964	800043d0	00000013	addi	x0,x0,0	  x0:0x00000000
       29665000	      2965	800043d4	004000ef	jal	x1,800043d4	  x1=0x800043d4
       29675000	      2966	00000000	00000013	addi	x0,x0,0	  x0:0x00000000
       29685000	      2967	800043d4	00000013	addi	x0,x0,0	  x0:0x00000000
       29695000	      2968	800043d8	fe9ff0ef	jal	x1,800043d8	  x1=0x800043d8
       29705000	      2969	00000000	00000013	addi	x0,x0,0	  x0:0x00000000
       29715000	      2970	800043bc	00000013	addi	x0,x0,0	  x0:0x00000000
       29725000	      2971	800043c0	02000f6f	jal	x30,800043c0	 x30=0x800043c0
       29735000	      2972	00000000	00000013	addi	x0,x0,0	  x0:0x00000000
       29745000	      2973	800043dc	00000013	addi	x0,x0,0	  x0:0x00000000
       29755000	      2974	800043e0	ffdff16f	jal	x2,800043e0	  x2=0x800043e0
       29765000	      2975	00000000	00000013	addi	x0,x0,0	  x0:0x00000000
       29775000	      2976	800043d8	00000013	addi	x0,x0,0	  x0:0x00000000
       29785000	      2977	800043dc	008000ef	jal	x1,800043dc	  x1=0x800043dc
       29795000	      2978	00000000	00000013	addi	x0,x0,0	  x0:0x00000000
       29805000	      2979	800043e0	00000013	addi	x0,x0,0	  x0:0x00000000
       29815000	      2980	800043e4	fe5ff0ef	jal	x1,800043e4	  x1=0x800043e4
       29825000	      2981	00000000	00000013	addi	x0,x0,0	  x0:0x00000000
       29835000	      2982	800043c4	00000013	addi	x0,x0,0	  x0:0x00000000
       29845000	      2983	800043c8	ff5ff0ef	jal	x1,800043c8	  x1=0x800043c8
       29855000	      2984	00000000	00000013	addi	x0,x0,0	  x0:0x00000000
       29865000	      2985	800043b8	00000013	addi	x0,x0,0	  x0:0x00000000
       29875000	      2986	800043bc	02c0016f	jal	x2,800043bc	  x2=0x800043bc
       29885000	      2987	00000000	00000013	addi	x0,x0,0	  x0:0x00000000
       29895000	      2988	800043e4	00000013	addi	x0,x0,0	  x0:0x00000000
       29905000	      2989	800043e8	00000013	addi	x0,x0,0	  x0:0x00000000
       29915000	      2990	800043ec	ee298113	addi	x2,x19,-286	 x19:0x800041e8  x2=0x800040ca
       29925000	      2991	800043f0	04cef063	bgeu	x29,x12,80004430	 x29:0x80009fc4 x12:0x0a5901b8
       29935000	      2992	00000000	00000013	addi	x0,x0,0	  x0:0x00000000
       29945000	      2993	8000442c	00000013	addi	x0,x0,0	  x0:0x00000000
       29955000	      2994	80004430	02718263	beq	x3,x7,80004454	  x3:0x800043a4  x7:0x00000000
       29965000	      2995	80004434	01dcdcb3	srl	x25,x25,x29	 x25:0x800043a0 x29:0x80009fc4 x25=0x0800043a
       29975000	      2996	80004438	41f4d393	srai	x7,x9,0x1f	  x9:0xfbbb889f  x7=0xffffffff
       29985000	      2997	8000443c	01e97833	and	x16,x18,x30	 x18:0x80009f34 x30:0x800043c0 x16=0x80000300
       29995000	      2998	80004440	001d7fb3	and	x31,x26,x1	 x26:0x80004394  x1:0x800043c8 x31=0x80004380
       30005000	      2999	80004444	b6cee393	ori	x7,x29,-1172	 x29:0x80009fc4  x7=0xffffffec
       30015000	      3000	80004448	00758533	add	x10,x11,x7	 x11:0x800043cc  x7:0xffffffec x10=0x800043b8
       30025000	      3001	8000444c	51aa8f17	auipc	x30,0x51aa8	 x30=0xd1aac448
       30035000	      3002	80004450	04641263	bne	x8,x6,80004494	  x8:0x0000013e  x6:0x00000009
       30045000	      3003	00000000	00000013	addi	x0,x0,0	  x0:0x00000000
       30055000	      3004	80004490	00000013	addi	x0,x0,0	  x0:0x00000000
       30065000	      3005	80004494	184c4813	xori	x16,x24,388	 x24:0x800043b4 x16=0x80004230
       30075000	      3006	80004498	00000013	addi	x0,x0,0	  x0:0x00000000
       30085000	      3007	8000449c	00d31433	sll	x8,x6,x13	  x6:0x00000009 x13:0x00000000  x8=0x00000009
       30095000	      3008	800044a0	4556c413	xori	x8,x13,1109	 x13:0x00000000  x8=0x00000455
       30105000	      3009	800044a4	ed682a93	slti	x21,x16,-298	 x16:0x80004230 x21=0x00000001
       30115000	      3010	800044a8	d3a12713	slti	x14,x2,-710	  x2:0x800040ca x14=0x00000001
       30125000	      3011	800044ac	005509b3	add	x19,x10,x5	 x10:0x800043b8  x5:0x80004384 x19=0x0000873c
       30135000	      3012	800044b0	bc710d13	addi	x26,x2,-1081	  x2:0x800040ca x26=0x80003c91
       30145000	      3013	800044b4	01697db3	and	x27,x18,x22	 x18:0x80009f34 x22:0x54ec56ce x27=0x00001604
       30155000	      3014	800044b8	022f1c63	bne	x30,x2,800044f0	 x30:0xd1aac448  x2:0x800040ca
       30165000	      3015	00000000	00000013	addi	x0,x0,0	  x0:0x00000000
       30175000	      3016	800044ec	00000013	addi	x0,x0,0	  x0:0x00000000
       30185000	      3017	800044f0	04968663	beq	x13,x9,8000453c	 x13:0x00000000  x9:0xfbbb889f
       30195000	      3018	800044f4	05377063	bgeu	x14,x19,80004534	 x14:0x00000001 x19:0x0000873c
       30205000	      3019	800044f8	011dbab3	sltu	x21,x27,x17	 x27:0x00001604 x17:0x00000000 x21=0x00000000
       30215000	      3020	800044fc	00a81463	bne	x16,x10,80004504	 x16:0x80004230 x10:0x800043b8
       30225000	      3021	00000000	00000013	addi	x0,x0,0	  x0:0x00000000
       30235000	      3022	80004500	00000013	addi	x0,x0,0	  x0:0x00000000
       30245000	      3023	80004504	01fa2f33	slt	x30,x20,x31	 x20:0x80004378 x31:0x80004380 x30=0x00000001
       30255000	      3024	80004508	00000013	addi	x0,x0,0	  x0:0x00000000
       30265000	      3025	8000450c	0019d393	srli	x7,x19,0x1	 x19:0x0000873c  x7=0x0000439e
       30275000	      3026	80004510	41efddb3	sra	x27,x31,x30	 x31:0x80004380 x30:0x00000001 x27=0xc00021c0
       30285000	      3027	80004514	41df5133	sra	x2,x30,x29	 x30:0x00000001 x29:0x80009fc4  x2=0x00000000
       30295000	      3028	80004518	467a6493	ori	x9,x20,1127	 x20:0x80004378  x9=0x8000477f
       30305000	      3029	8000451c	01511a93	slli	x21,x2,0x15	  x2:0x00000000 x21=0x00000000
       30315000	      3030	80004520	04a07263	bgeu	x0,x10,80004564	  x0:0x00000000 x10:0x800043b8
       30325000	      3031	80004524	02008663	beq	x1,x0,80004550	  x1:0x800043c8  x0:0x00000000
       30335000	      3032	80004528	00192ab3	slt	x21,x18,x1	 x18:0x80009f34  x1:0x800043c8 x21=0x00000000
       30345000	      3033	8000452c	00759193	slli	x3,x11,0x7	 x11:0x800043cc  x3=0x0021e600
       30355000	      3034	80004530	b96d0613	addi	x12,x26,-1130	 x26:0x80003c91 x12=0x80003827
       30365000	      3035	80004534	0037d1b3	srl	x3,x15,x3	 x15:0x000002dd  x3:0x0021e600  x3=0x000002dd
       30375000	      3036	80004538	6f3d3113	sltiu	x2,x26,1779	 x26:0x80003c91  x2=0x00000000
       30385000	      3037	8000453c	004bd693	srli	x13,x23,0x4	 x23:0x80003eb1 x13=0x080003eb
       30395000	      3038	80004540	0100dd13	srli	x26,x1,0x10	  x1:0x800043c8 x26=0x00008000
       30405000	      3039	80004544	054ae863	bltu	x21,x20,80004594	 x21:0x00000000 x20:0x80004378
       30415000	      3040	00000000	00000013	addi	x0,x0,0	  x0:0x00000000
       30425000	      3041	80004590	00000013	addi	x0,x0,0	  x0:0x00000000
       30435000	      3042	80004594	012e0433	add	x8,x28,x18	 x28:0x80009fc4 x18:0x80009f34  x8=0x00013ef8
       30445000	      3043	80004598	00a41613	slli	x12,x8,0xa	  x8:0x00013ef8 x12=0x04fbe000
       30455000	      3044	8000459c	f23b0f13	addi	x30,x22,-221	 x22:0x54ec56ce x30=0x54ec55f1
       30465000	      3045	800045a0	008d68b3	or	x17,x26,x8	 x26:0x00008000  x8:0x00013ef8 x17=0x0001bef8
       30475000	      3046	800045a4	dac06b13	ori	x22,x0,-596	  x0:0x00000000 x22=0xfffffdac
       30485000	      3047	800045a8	1425c793	xori	x15,x11,322	 x11:0x800043cc x15=0x8000428e
       30495000	      3048	800045ac	00000013	addi	x0,x0,0	  x0:0x00000000
       30505000	      3049	800045b0	b0d70893	addi	x17,x14,-1267	 x14:0x00000001 x17=0xfffffb0e
       30515000	      3050	800045b4	00000013	addi	x0,x0,0	  x0:0x00000000
       30525000	      3051	800045b8	4065d5b3	sra	x11,x11,x6	 x11:0x800043cc  x6:0x00000009 x11=0xffc00021
       30535000	      3052	800045bc	01d824b3	slt	x9,x16,x29	 x16:0x80004230 x29:0x80009fc4  x9=0x00000001
       30545000	      3053	800045c0	03dec663	blt	x29,x29,800045ec	 x29:0x80009fc4 x29:0x80009fc4
       30555000	      3054	800045c4	0371fa63	bgeu	x3,x23,800045f8	  x3:0x000002dd x23:0x80003eb1
       30565000	      3055	800045c8	019b6bb3	or	x23,x22,x25	 x22:0xfffffdac x25:0x0800043a x23=0xfffffdbe
       30575000	      3056	800045cc	413edb33	sra	x22,x29,x19	 x29:0x80009fc4 x19:0x0000873c x22=0xfffffff8
       30585000	      3057	800045d0	01408a63	beq	x1,x20,800045e4	  x1:0x800043c8 x20:0x80004378
       30595000	      3058	800045d4	00e97193	andi	x3,x18,14	 x18:0x80009f34  x3=0x00000004
       30605000	      3059	800045d8	00220463	beq	x4,x2,800045e0	  x4:0x80004370  x2:0x00000000
       30615000	      3060	800045dc	40b80d33	sub	x26,x16,x11	 x16:0x80004230 x11:0xffc00021 x26=0x8040420f
       30625000	      3061	800045e0	85224897	auipc	x17,0x85224	 x17=0x052285dc
       30635000	      3062	800045e4	001b7133	and	x2,x22,x1	 x22:0xfffffff8  x1:0x800043c8  x2=0x800043c8
       30645000	      3063	800045e8	01ae2c33	slt	x24,x28,x26	 x28:0x80009fc4 x26:0x8040420f x24=0x00000001
       30655000	      3064	800045ec	a866cc13	xori	x24,x13,-1402	 x13:0x080003eb x24=0xf7fff96d
       30665000	      3065	800045f0	035b8c13	addi	x24,x23,53	 x23:0xfffffdbe x24=0xfffffdf3
       30675000	      3066	800045f4	00f80e33	add	x28,x16,x15	 x16:0x80004230 x15:0x8000428e x28=0x000084be
       30685000	      3067	800045f8	6af4ae17	auipc	x28,0x6af4a	 x28=0xeaf4e5f4
       30695000	      3068	800045fc	01b2a8b3	slt	x17,x5,x27	  x5:0x80004384 x27:0xc00021c0 x17=0x00000001
       30705000	      3069	80004600	0308f263	bgeu	x17,x16,80004624	 x17:0x00000001 x16:0x80004230
       30715000	      3070	80004604	01a69593	slli	x11,x13,0x1a	 x13:0x080003eb x11=0xac000000
       30725000	      3071	80004608	41038433	sub	x8,x7,x16	  x7:0x0000439e x16:0x80004230  x8=0x8000016e
       30735000	      3072	8000460c	01f35733	srl	x14,x6,x31	  x6:0x00000009 x31:0x80004380 x14=0x00000009
       30745000	      3073	80004610	00e9c5b3	xor	x11,x19,x14	 x19:0x0000873c x14:0x00000009 x11=0x00008735
       30755000	      3074	80004614	01a24863	blt	x4,x26,80004624	  x4:0x80004370 x26:0x8040420f
       30765000	      3075	00000000	00000013	addi	x0,x0,0	  x0:0x00000000
       30775000	      3076	80004620	00000013	addi	x0,x0,0	  x0:0x00000000
       30785000	      3077	80004624	fd8e7393	andi	x7,x28,-40	 x28:0xeaf4e5f4  x7=0xeaf4e5d0
       30795000	      3078	80004628	00492c03	lw	x24,4(x18)	 x18:0x80009f34 x24=0x800032b4 PA:0x80009f38
       30805000	      3079	8000462c	3ee7f013	andi	x0,x15,1006	 x15:0x8000428e
       30815000	      3080	80004630	a881be17	auipc	x28,0xa881b	 x28=0x2881f62c
       30825000	      3081	80004634	009b8f33	add	x30,x23,x9	 x23:0xfffffdbe  x9:0x00000001 x30=0xfffffdbf
       30835000	      3082	80004638	03090913	addi	x18,x18,48	 x18:0x80009f34 x18=0x80009f64
       30845000	      3083	8000463c	41736593	ori	x11,x6,1047	  x6:0x00000009 x11=0x0000041f
       30855000	      3084	80004640	d83f6793	ori	x15,x30,-637	 x30:0xfffffdbf x15=0xfffffdbf
       30865000	      3085	80004644	a6773413	sltiu	x8,x14,-1433	 x14:0x00000009  x8=0x00000001
       30875000	      3086	80004648	000e99b3	sll	x19,x29,x0	 x29:0x80009fc4  x0:0x00000000 x19=0x80009fc4
       30885000	      3087	8000464c	6c36b193	sltiu	x3,x13,1731	 x13:0x080003eb  x3=0x00000000
       30895000	      3088	80004650	001c0993	addi	x19,x24,1	 x24:0x800032b4 x19=0x800032b5
       30905000	      3089	80004654	000989e7	jalr	x19,x19,0	 x19:0x800032b5 x19=0x80004654
       30915000	      3090	00000000	00000013	addi	x0,x0,0	  x0:0x00000000
       30925000	      3091	800032b4	00000013	addi	x0,x0,0	  x0:0x00000000
       30935000	      3092	800032b8	05000c6f	jal	x24,800032b8	 x24=0x800032b8
       30945000	      3093	00000000	00000013	addi	x0,x0,0	  x0:0x00000000
       30955000	      3094	80003304	00000013	addi	x0,x0,0	  x0:0x00000000
       30965000	      3095	80003308	01c000ef	jal	x1,80003308	  x1=0x80003308
       30975000	      3096	00000000	00000013	addi	x0,x0,0	  x0:0x00000000
       30985000	      3097	80003320	00000013	addi	x0,x0,0	  x0:0x00000000
       30995000	      3098	80003324	fc9ff0ef	jal	x1,80003324	  x1=0x80003324
       31005000	      3099	00000000	00000013	addi	x0,x0,0	  x0:0x00000000
       31015000	      3100	800032e8	00000013	addi	x0,x0,0	  x0:0x00000000
       31025000	      3101	800032ec	ffdff0ef	jal	x1,800032ec	  x1=0x800032ec
       31035000	      3102	00000000	00000013	addi	x0,x0,0	  x0:0x00000000
       31045000	      3103	800032e4	00000013	addi	x0,x0,0	  x0:0x00000000
       31055000	      3104	800032e8	fd5ff0ef	jal	x1,800032e8	  x1=0x800032e8
       31065000	      3105	00000000	00000013	addi	x0,x0,0	  x0:0x00000000
       31075000	      3106	800032b8	00000013	addi	x0,x0,0	  x0:0x00000000
       31085000	      3107	800032bc	020000ef	jal	x1,800032bc	  x1=0x800032bc
       31095000	      3108	00000000	00000013	addi	x0,x0,0	  x0:0x00000000
       31105000	      3109	800032d8	00000013	addi	x0,x0,0	  x0:0x00000000
       31115000	      3110	800032dc	04c000ef	jal	x1,800032dc	  x1=0x800032dc
       31125000	      3111	00000000	00000013	addi	x0,x0,0	  x0:0x00000000
       31135000	      3112	80003324	00000013	addi	x0,x0,0	  x0:0x00000000
       31145000	      3113	80003328	fe5ff26f	jal	x4,80003328	  x4=0x80003328
       31155000	      3114	00000000	00000013	addi	x0,x0,0	  x0:0x00000000
       31165000	      3115	80003308	00000013	addi	x0,x0,0	  x0:0x00000000
       31175000	      3116	8000330c	fc5ff26f	jal	x4,8000330c	  x4=0x8000330c
       31185000	      3117	00000000	00000013	addi	x0,x0,0	  x0:0x00000000
       31195000	      3118	800032cc	00000013	addi	x0,x0,0	  x0:0x00000000
       31205000	      3119	800032d0	04c00fef	jal	x31,800032d0	 x31=0x800032d0
       31215000	      3120	00000000	00000013	addi	x0,x0,0	  x0:0x00000000
       31225000	      3121	80003318	00000013	addi	x0,x0,0	  x0:0x00000000
       31235000	      3122	8000331c	010000ef	jal	x1,8000331c	  x1=0x8000331c
       31245000	      3123	00000000	00000013	addi	x0,x0,0	  x0:0x00000000
       31255000	      3124	80003328	00000013	addi	x0,x0,0	  x0:0x00000000
       31265000	      3125	8000332c	fb9ff0ef	jal	x1,8000332c	  x1=0x8000332c
       31275000	      3126	00000000	00000013	addi	x0,x0,0	  x0:0x00000000
       31285000	      3127	800032e0	00000013	addi	x0,x0,0	  x0:0x00000000
       31295000	      3128	800032e4	010000ef	jal	x1,800032e4	  x1=0x800032e4
       31305000	      3129	00000000	00000013	addi	x0,x0,0	  x0:0x00000000
       31315000	      3130	800032f0	00000013	addi	x0,x0,0	  x0:0x00000000
       31325000	      3131	800032f4	024000ef	jal	x1,800032f4	  x1=0x800032f4
       31335000	      3132	00000000	00000013	addi	x0,x0,0	  x0:0x00000000
       31345000	      3133	80003314	00000013	addi	x0,x0,0	  x0:0x00000000
       31355000	      3134	80003318	fe5ff0ef	jal	x1,80003318	  x1=0x80003318
       31365000	      3135	00000000	00000013	addi	x0,x0,0	  x0:0x00000000
       31375000	      3136	800032f8	00000013	addi	x0,x0,0	  x0:0x00000000
       31385000	      3137	800032fc	0140016f	jal	x2,800032fc	  x2=0x800032fc
       31395000	      3138	00000000	00000013	addi	x0,x0,0	  x0:0x00000000
       31405000	      3139	8000330c	00000013	addi	x0,x0,0	  x0:0x00000000
       31415000	      3140	80003310	004000ef	jal	x1,80003310	  x1=0x80003310
       31425000	      3141	00000000	00000013	addi	x0,x0,0	  x0:0x00000000
       31435000	      3142	80003310	00000013	addi	x0,x0,0	  x0:0x00000000
       31445000	      3143	80003314	fadff0ef	jal	x1,80003314	  x1=0x80003314
       31455000	      3144	00000000	00000013	addi	x0,x0,0	  x0:0x00000000
       31465000	      3145	800032bc	00000013	addi	x0,x0,0	  x0:0x00000000
       31475000	      3146	800032c0	044000ef	jal	x1,800032c0	  x1=0x800032c0
       31485000	      3147	00000000	00000013	addi	x0,x0,0	  x0:0x00000000
       31495000	      3148	80003300	00000013	addi	x0,x0,0	  x0:0x00000000
       31505000	      3149	80003304	ffdff26f	jal	x4,80003304	  x4=0x80003304
       31515000	      3150	00000000	00000013	addi	x0,x0,0	  x0:0x00000000
       31525000	      3151	800032fc	00000013	addi	x0,x0,0	  x0:0x00000000
       31535000	      3152	80003300	fd5ff0ef	jal	x1,80003300	  x1=0x80003300
       31545000	      3153	00000000	00000013	addi	x0,x0,0	  x0:0x00000000
       31555000	      3154	800032d0	00000013	addi	x0,x0,0	  x0:0x00000000
       31565000	      3155	800032d4	ff1ff16f	jal	x2,800032d4	  x2=0x800032d4
       31575000	      3156	00000000	00000013	addi	x0,x0,0	  x0:0x00000000
       31585000	      3157	800032c0	00000013	addi	x0,x0,0	  x0:0x00000000
       31595000	      3158	800032c4	014000ef	jal	x1,800032c4	  x1=0x800032c4
       31605000	      3159	00000000	00000013	addi	x0,x0,0	  x0:0x00000000
       31615000	      3160	800032d4	00000013	addi	x0,x0,0	  x0:0x00000000
       31625000	      3161	800032d8	ff5ff0ef	jal	x1,800032d8	  x1=0x800032d8
       31635000	      3162	00000000	00000013	addi	x0,x0,0	  x0:0x00000000
       31645000	      3163	800032c8	00000013	addi	x0,x0,0	  x0:0x00000000
       31655000	      3164	800032cc	024000ef	jal	x1,800032cc	  x1=0x800032cc
       31665000	      3165	00000000	00000013	addi	x0,x0,0	  x0:0x00000000
       31675000	      3166	800032ec	00000013	addi	x0,x0,0	  x0:0x00000000
       31685000	      3167	800032f0	030000ef	jal	x1,800032f0	  x1=0x800032f0
       31695000	      3168	00000000	00000013	addi	x0,x0,0	  x0:0x00000000
       31705000	      3169	8000331c	00000013	addi	x0,x0,0	  x0:0x00000000
       31715000	      3170	80003320	fa9ff0ef	jal	x1,80003320	  x1=0x80003320
       31725000	      3171	00000000	00000013	addi	x0,x0,0	  x0:0x00000000
       31735000	      3172	800032c4	00000013	addi	x0,x0,0	  x0:0x00000000
       31745000	      3173	800032c8	018006ef	jal	x13,800032c8	 x13=0x800032c8
       31755000	      3174	00000000	00000013	addi	x0,x0,0	  x0:0x00000000
       31765000	      3175	800032dc	00000013	addi	x0,x0,0	  x0:0x00000000
       31775000	      3176	800032e0	018000ef	jal	x1,800032e0	  x1=0x800032e0
       31785000	      3177	00000000	00000013	addi	x0,x0,0	  x0:0x00000000
       31795000	      3178	800032f4	00000013	addi	x0,x0,0	  x0:0x00000000
       31805000	      3179	800032f8	03800a6f	jal	x20,800032f8	 x20=0x800032f8
       31815000	      3180	00000000	00000013	addi	x0,x0,0	  x0:0x00000000
       31825000	      3181	8000332c	00000013	addi	x0,x0,0	  x0:0x00000000
       31835000	      3182	80003330	01375533	srl	x10,x14,x19	 x14:0x00000009 x19:0x80004654 x10=0x00000000
       31845000	      3183	80003334	02400c6f	jal	x24,80003334	 x24=0x80003334
       31855000	      3184	00000000	00000013	addi	x0,x0,0	  x0:0x00000000
       31865000	      3185	80003354	00000013	addi	x0,x0,0	  x0:0x00000000
       31875000	      3186	80003358	fedff0ef	jal	x1,80003358	  x1=0x80003358
       31885000	      3187	00000000	00000013	addi	x0,x0,0	  x0:0x00000000
       31895000	      3188	80003340	00000013	addi	x0,x0,0	  x0:0x00000000
       31905000	      3189	80003344	028000ef	jal	x1,80003344	  x1=0x80003344
       31915000	      3190	00000000	00000013	addi	x0,x0,0	  x0:0x00000000
       31925000	      3191	80003368	00000013	addi	x0,x0,0	  x0:0x00000000
       31935000	      3192	8000336c	ff9ff0ef	jal	x1,8000336c	  x1=0x8000336c
       31945000	      3193	00000000	00000013	addi	x0,x0,0	  x0:0x00000000
       31955000	      3194	80003360	00000013	addi	x0,x0,0	  x0:0x00000000
       31965000	      3195	80003364	00c000ef	jal	x1,80003364	  x1=0x80003364
       31975000	      3196	00000000	00000013	addi	x0,x0,0	  x0:0x00000000
       31985000	      3197	8000336c	00000013	addi	x0,x0,0	  x0:0x00000000
       31995000	      3198	80003370	fc9ffa6f	jal	x20,80003370	 x20=0x80003370
       32005000	      3199	00000000	00000013	addi	x0,x0,0	  x0:0x00000000
       32015000	      3200	80003334	00000013	addi	x0,x0,0	  x0:0x00000000
       32025000	      3201	80003338	008000ef	jal	x1,80003338	  x1=0x80003338
       32035000	      3202	00000000	00000013	addi	x0,x0,0	  x0:0x00000000
       32045000	      3203	8000333c	00000013	addi	x0,x0,0	  x0:0x00000000
       32055000	      3204	80003340	ffdff0ef	jal	x1,80003340	  x1=0x80003340
       32065000	      3205	00000000	00000013	addi	x0,x0,0	  x0:0x00000000
       32075000	      3206	80003338	00000013	addi	x0,x0,0	  x0:0x00000000
       32085000	      3207	8000333c	014000ef	jal	x1,8000333c	  x1=0x8000333c
       32095000	      3208	00000000	00000013	addi	x0,x0,0	  x0:0x00000000
       32105000	      3209	8000334c	00000013	addi	x0,x0,0	  x0:0x00000000
       32115000	      3210	80003350	00c000ef	jal	x1,80003350	  x1=0x80003350
       32125000	      3211	00000000	00000013	addi	x0,x0,0	  x0:0x00000000
       32135000	      3212	80003358	00000013	addi	x0,x0,0	  x0:0x00000000
       32145000	      3213	8000335c	ff1ff0ef	jal	x1,8000335c	  x1=0x8000335c
       32155000	      3214	00000000	00000013	addi	x0,x0,0	  x0:0x00000000
       32165000	      3215	80003348	00000013	addi	x0,x0,0	  x0:0x00000000
       32175000	      3216	8000334c	ffdff0ef	jal	x1,8000334c	  x1=0x8000334c
       32185000	      3217	00000000	00000013	addi	x0,x0,0	  x0:0x00000000
       32195000	      3218	80003344	00000013	addi	x0,x0,0	  x0:0x00000000
       32205000	      3219	80003348	00c000ef	jal	x1,80003348	  x1=0x80003348
       32215000	      3220	00000000	00000013	addi	x0,x0,0	  x0:0x00000000
       32225000	      3221	80003350	00000013	addi	x0,x0,0	  x0:0x00000000
       32235000	      3222	80003354	014000ef	jal	x1,80003354	  x1=0x80003354
       32245000	      3223	00000000	00000013	addi	x0,x0,0	  x0:0x00000000
       32255000	      3224	80003364	00000013	addi	x0,x0,0	  x0:0x00000000
       32265000	      3225	80003368	ff9ff0ef	jal	x1,80003368	  x1=0x80003368
       32275000	      3226	00000000	00000013	addi	x0,x0,0	  x0:0x00000000
       32285000	      3227	8000335c	00000013	addi	x0,x0,0	  x0:0x00000000
       32295000	      3228	80003360	014000ef	jal	x1,80003360	  x1=0x80003360
       32305000	      3229	00000000	00000013	addi	x0,x0,0	  x0:0x00000000
       32315000	      3230	80003370	00000013	addi	x0,x0,0	  x0:0x00000000
       32325000	      3231	80003374	00db1c93	slli	x25,x22,0xd	 x22:0xfffffff8 x25=0xffff0000
       32335000	      3232	80003378	41148fb3	sub	x31,x9,x17	  x9:0x00000001 x17:0x00000001 x31=0x00000000
       32345000	      3233	8000337c	01025033	srl	x0,x4,x16	  x4:0x80003304 x16:0x80004230
       32355000	      3234	80003380	01ac8c33	add	x24,x25,x26	 x25:0xffff0000 x26:0x8040420f x24=0x803f420f
       32365000	      3235	80003384	01f0adb3	slt	x27,x1,x31	  x1:0x80003360 x31:0x00000000 x27=0x00000001
       32375000	      3236	80003388	69d53113	sltiu	x2,x10,1693	 x10:0x00000000  x2=0x00000001
       32385000	      3237	8000338c	000fa433	slt	x8,x31,x0	 x31:0x00000000  x0:0x00000000  x8=0x00000000
       32395000	      3238	80003390	04481263	bne	x16,x4,800033d4	 x16:0x80004230  x4:0x80003304
       32405000	      3239	00000000	00000013	addi	x0,x0,0	  x0:0x00000000
       32415000	      3240	800033d0	00000013	addi	x0,x0,0	  x0:0x00000000
       32425000	      3241	800033d4	03d28263	beq	x5,x29,800033f8	  x5:0x80004384 x29:0x80009fc4
       32435000	      3242	800033d8	029ce663	bltu	x25,x9,80003404	 x25:0xffff0000  x9:0x00000001
       32445000	      3243	800033dc	99f1e213	ori	x4,x3,-1633	  x3:0x00000000  x4=0xfffff99f
       32455000	      3244	800033e0	00000013	addi	x0,x0,0	  x0:0x00000000
       32465000	      3245	800033e4	78578993	addi	x19,x15,1925	 x15:0xfffffdbf x19=0x00000544
       32475000	      3246	800033e8	013e5c13	srli	x24,x28,0x13	 x28:0x2881f62c x24=0x00000510
       32485000	      3247	800033ec	01934863	blt	x6,x25,800033fc	  x6:0x00000009 x25:0xffff0000
       32495000	      3248	800033f0	01d5a2b3	slt	x5,x11,x29	 x11:0x0000041f x29:0x80009fc4  x5=0x00000000
       32505000	      3249	800033f4	41fd8533	sub	x10,x27,x31	 x27:0x00000001 x31:0x00000000 x10=0x00000001
       32515000	      3250	800033f8	015531b3	sltu	x3,x10,x21	 x10:0x00000001 x21:0x00000000  x3=0x00000000
       32525000	      3251	800033fc	0474c063	blt	x9,x7,8000343c	  x9:0x00000001  x7:0xeaf4e5d0
       32535000	      3252	80003400	44cbee13	ori	x28,x23,1100	 x23:0xfffffdbe x28=0xfffffdfe
       32545000	      3253	80003404	0015c6b3	xor	x13,x11,x1	 x11:0x0000041f  x1:0x80003360 x13=0x8000377f
       32555000	      3254	80003408	0396fe63	bgeu	x13,x25,80003444	 x13:0x8000377f x25:0xffff0000
       32565000	      3255	8000340c	81bb6537	lui	x10,0x81bb6	 x10=0x81bb6000
       32575000	      3256	80003410	009e2ab3	slt	x21,x28,x9	 x28:0xfffffdfe  x9:0x00000001 x21=0x00000001
       32585000	      3257	80003414	1df3ec13	ori	x24,x7,479	  x7:0xeaf4e5d0 x24=0xeaf4e5df
       32595000	      3258	80003418	04ed6663	bltu	x26,x14,80003464	 x26:0x8040420f x14:0x00000009
       32605000	      3259	8000341c	01269593	slli	x11,x13,0x12	 x13:0x8000377f x11=0xddfc0000
       32615000	      3260	80003420	a4616193	ori	x3,x2,-1466	  x2:0x00000001  x3=0xfffffa47
       32625000	      3261	80003424	01419693	slli	x13,x3,0x14	  x3:0xfffffa47 x13=0xa4700000
       32635000	      3262	80003428	02d96e63	bltu	x18,x13,80003464	 x18:0x80009f64 x13:0xa4700000
       32645000	      3263	00000000	00000013	addi	x0,x0,0	  x0:0x00000000
       32655000	      3264	80003460	00000013	addi	x0,x0,0	  x0:0x00000000
       32665000	      3265	80003464	41955613	srai	x12,x10,0x19	 x10:0x81bb6000 x12=0xffffffc0
       32675000	      3266	80003468	01ea9133	sll	x2,x21,x30	 x21:0x00000001 x30:0xfffffdbf  x2=0x80000000
       32685000	      3267	8000346c	5fd84193	xori	x3,x16,1533	 x16:0x80004230  x3=0x800047cd
       32695000	      3268	80003470	014cd433	srl	x8,x25,x20	 x25:0xffff0000 x20:0x80003370  x8=0x0000ffff
       32705000	      3269	80003474	05140863	beq	x8,x17,800034c4	  x8:0x0000ffff x17:0x00000001
       32715000	      3270	80003478	010cec63	bltu	x25,x16,80003490	 x25:0xffff0000 x16:0x80004230
       32725000	      3271	8000347c	00ff7a33	and	x20,x30,x15	 x30:0xfffffdbf x15:0xfffffdbf x20=0xfffffdbf
       32735000	      3272	80003480	038d1c63	bne	x26,x24,800034b8	 x26:0x8040420f x24:0xeaf4e5df
       32745000	      3273	00000000	00000013	addi	x0,x0,0	  x0:0x00000000
       32755000	      3274	800034b4	00000013	addi	x0,x0,0	  x0:0x00000000
       32765000	      3275	800034b8	51922993	slti	x19,x4,1305	  x4:0xfffff99f x19=0x00000001
       32775000	      3276	800034bc	cd37f193	andi	x3,x15,-813	 x15:0xfffffdbf  x3=0xfffffc93
       32785000	      3277	800034c0	00a4cc33	xor	x24,x9,x10	  x9:0x00000001 x10:0x81bb6000 x24=0x81bb6001
       32795000	      3278	800034c4	04f9f063	bgeu	x19,x15,80003504	 x19:0x00000001 x15:0xfffffdbf
       32805000	      3279	800034c8	5f9f2013	slti	x0,x30,1529	 x30:0xfffffdbf
       32815000	      3280	800034cc	00508db3	add	x27,x1,x5	  x1:0x80003360  x5:0x00000000 x27=0x80003360
       32825000	      3281	800034d0	0153e1b3	or	x3,x7,x21	  x7:0xeaf4e5d0 x21:0x00000001  x3=0xeaf4e5d1
       32835000	      3282	800034d4	40ff0a33	sub	x20,x30,x15	 x30:0xfffffdbf x15:0xfffffdbf x20=0x00000000
       32845000	      3283	800034d8	0425c263	blt	x11,x2,8000351c	 x11:0xddfc0000  x2:0x80000000
       32855000	      3284	800034dc	023e6a63	bltu	x28,x3,80003510	 x28:0xfffffdfe  x3:0xeaf4e5d1
       32865000	      3285	800034e0	012ffcb3	and	x25,x31,x18	 x31:0x00000000 x18:0x80009f64 x25=0x00000000
       32875000	      3286	800034e4	41e88db3	sub	x27,x17,x30	 x17:0x00000001 x30:0xfffffdbf x27=0x00000242
       32885000	      3287	800034e8	00000013	addi	x0,x0,0	  x0:0x00000000
       32895000	      3288	800034ec	016f00b3	add	x1,x30,x22	 x30:0xfffffdbf x22:0xfffffff8  x1=0xfffffdb7
       32905000	      3289	800034f0	03781a63	bne	x16,x23,80003524	 x16:0x80004230 x23:0xfffffdbe
       32915000	      3290	00000000	00000013	addi	x0,x0,0	  x0:0x00000000
       32925000	      3291	80003520	00000013	addi	x0,x0,0	  x0:0x00000000
       32935000	      3292	80003524	a8deca13	xori	x20,x29,-1395	 x29:0x80009fc4 x20=0x7fff6549
       32945000	      3293	80003528	00857663	bgeu	x10,x8,80003534	 x10:0x81bb6000  x8:0x0000ffff
       32955000	      3294	00000000	00000013	addi	x0,x0,0	  x0:0x00000000
       32965000	      3295	80003530	00000013	addi	x0,x0,0	  x0:0x00000000
       32975000	      3296	80003534	40cc5c93	srai	x25,x24,0xc	 x24:0x81bb6001 x25=0xfff81bb6
       32985000	      3297	80003538	01701393	slli	x7,x0,0x17	  x0:0x00000000  x7=0x00000000
       32995000	      3298	8000353c	00492c03	lw	x24,4(x18)	 x18:0x80009f64 x24=0x80001434 PA:0x80009f68
       33005000	      3299	80003540	02090913	addi	x18,x18,32	 x18:0x80009f64 x18=0x80009f84
       33015000	      3300	80003544	00a51d93	slli	x27,x10,0xa	 x10:0x81bb6000 x27=0xed800000
       33025000	      3301	80003548	82cf7c93	andi	x25,x30,-2004	 x30:0xfffffdbf x25=0xfffff82c
       33035000	      3302	8000354c	713e2d93	slti	x27,x28,1811	 x28:0xfffffdfe x27=0x00000001
       33045000	      3303	80003550	27bf6f93	ori	x31,x30,635	 x30:0xfffffdbf x31=0xffffffff
       33055000	      3304	80003554	00fa60b3	or	x1,x20,x15	 x20:0x7fff6549 x15:0xfffffdbf  x1=0xfffffdff
       33065000	      3305	80003558	eb06dc97	auipc	x25,0xeb06d	 x25=0x6b070554
       33075000	      3306	8000355c	01430a33	add	x20,x6,x20	  x6:0x00000009 x20:0x7fff6549 x20=0x7fff6552
       33085000	      3307	80003560	000c0493	addi	x9,x24,0	 x24:0x80001434  x9=0x80001434
       33095000	      3308	80003564	000484e7	jalr	x9,x9,0	  x9:0x80001434  x9=0x80003564
       33105000	      3309	00000000	00000013	addi	x0,x0,0	  x0:0x00000000
       33115000	      3310	80001434	00000013	addi	x0,x0,0	  x0:0x00000000
       33125000	      3311	80001438	00620c63	beq	x4,x6,80001450	  x4:0xfffff99f  x6:0x00000009
       33135000	      3312	8000143c	4165d533	sra	x10,x11,x22	 x11:0xddfc0000 x22:0xfffffff8 x10=0xffffffdd
       33145000	      3313	80001440	01df9463	bne	x31,x29,80001448	 x31:0xffffffff x29:0x80009fc4
       33155000	      3314	00000000	00000013	addi	x0,x0,0	  x0:0x00000000
       33165000	      3315	80001444	00000013	addi	x0,x0,0	  x0:0x00000000
       33175000	      3316	80001448	002af833	and	x16,x21,x2	 x21:0x00000001  x2:0x80000000 x16=0x00000000
       33185000	      3317	8000144c	019d1c63	bne	x26,x25,80001464	 x26:0x8040420f x25:0x6b070554
       33195000	      3318	00000000	00000013	addi	x0,x0,0	  x0:0x00000000
       33205000	      3319	80001460	00000013	addi	x0,x0,0	  x0:0x00000000
       33215000	      3320	80001464	01442033	slt	x0,x8,x20	  x8:0x0000ffff x20:0x7fff6552
       33225000	      3321	80001468	076b0863	beq	x22,x22,800014d8	 x22:0xfffffff8 x22:0xfffffff8
       33235000	      3322	00000000	00000013	addi	x0,x0,0	  x0:0x00000000
       33245000	      3323	800014d4	00000013	addi	x0,x0,0	  x0:0x00000000
       33255000	      3324	800014d8	00769c63	bne	x13,x7,800014f0	 x13:0xa4700000  x7:0x00000000
       33265000	      3325	00000000	00000013	addi	x0,x0,0	  x0:0x00000000
       33275000	      3326	800014ec	00000013	addi	x0,x0,0	  x0:0x00000000
       33285000	      3327	800014f0	e8444b13	xori	x22,x8,-380	  x8:0x0000ffff x22=0xffff017b
       33295000	      3328	800014f4	0434c063	blt	x9,x3,80001534	  x9:0x80003564  x3:0xeaf4e5d1
       33305000	      3329	00000000	00000013	addi	x0,x0,0	  x0:0x00000000
       33315000	      3330	80001530	00000013	addi	x0,x0,0	  x0:0x00000000
       33325000	      3331	80001534	41715293	srai	x5,x2,0x17	  x2:0x80000000  x5=0xffffff00
       33335000	      3332	80001538	95aaf793	andi	x15,x21,-1702	 x21:0x00000001 x15=0x00000000
       33345000	      3333	8000153c	0150e8b3	or	x17,x1,x21	  x1:0xfffffdff x21:0x00000001 x17=0xfffffdff
       33355000	      3334	80001540	01765d13	srli	x26,x12,0x17	 x12:0xffffffc0 x26=0x000001ff
       33365000	      3335	80001544	008cdf93	srli	x31,x25,0x8	 x25:0x6b070554 x31=0x006b0705
       33375000	      3336	80001548	001e1733	sll	x14,x28,x1	 x28:0xfffffdfe  x1:0xfffffdff x14=0x00000000
       33385000	      3337	8000154c	019eb7b3	sltu	x15,x29,x25	 x29:0x80009fc4 x25:0x6b070554 x15=0x00000000
       33395000	      3338	80001550	01006633	or	x12,x0,x16	  x0:0x00000000 x16:0x00000000 x12=0x00000000
       33405000	      3339	80001554	41810833	sub	x16,x2,x24	  x2:0x80000000 x24:0x80001434 x16=0xffffebcc
       33415000	      3340	80001558	00ef9013	slli	x0,x31,0xe	 x31:0x006b0705
       33425000	      3341	8000155c	04f58663	beq	x11,x15,800015a8	 x11:0xddfc0000 x15:0x00000000
       33435000	      3342	80001560	7d018493	addi	x9,x3,2000	  x3:0xeaf4e5d1  x9=0xeaf4eda1
       33445000	      3343	80001564	405508b3	sub	x17,x10,x5	 x10:0xffffffdd  x5:0xffffff00 x17=0x000000dd
       33455000	      3344	80001568	a511ea93	ori	x21,x3,-1455	  x3:0xeaf4e5d1 x21=0xffffffd1
       33465000	      3345	8000156c	018e4463	blt	x28,x24,80001574	 x28:0xfffffdfe x24:0x80001434
       33475000	      3346	80001570	03905463	bge	x0,x25,80001598	  x0:0x00000000 x25:0x6b070554
       33485000	      3347	80001574	00cc4863	blt	x24,x12,80001584	 x24:0x80001434 x12:0x00000000
       33495000	      3348	00000000	00000013	addi	x0,x0,0	  x0:0x00000000
       33505000	      3349	80001580	00000013	addi	x0,x0,0	  x0:0x00000000
       33515000	      3350	80001584	00000013	addi	x0,x0,0	  x0:0x00000000
       33525000	      3351	80001588	01e61193	slli	x3,x12,0x1e	 x12:0x00000000  x3=0x00000000
       33535000	      3352	8000158c	006c1a13	slli	x20,x24,0x6	 x24:0x80001434 x20=0x00050d00
       33545000	      3353	80001590	40085133	sra	x2,x16,x0	 x16:0xffffebcc  x0:0x00000000  x2=0xffffebcc
       33555000	      3354	80001594	00893a33	sltu	x20,x18,x8	 x18:0x80009f84  x8:0x0000ffff x20=0x00000000
       33565000	      3355	80001598	405d5413	srai	x8,x26,0x5	 x26:0x000001ff  x8=0x0000000f
       33575000	      3356	8000159c	01b36bb3	or	x23,x6,x27	  x6:0x00000009 x27:0x00000001 x23=0x00000009
       33585000	      3357	800015a0	05adc463	blt	x27,x26,800015e8	 x27:0x00000001 x26:0x000001ff
       33595000	      3358	00000000	00000013	addi	x0,x0,0	  x0:0x00000000
       33605000	      3359	800015e4	00000013	addi	x0,x0,0	  x0:0x00000000
       33615000	      3360	800015e8	01bb3fb3	sltu	x31,x22,x27	 x22:0xffff017b x27:0x00000001 x31=0x00000000
       33625000	      3361	800015ec	00000013	addi	x0,x0,0	  x0:0x00000000
       33635000	      3362	800015f0	03240a63	beq	x8,x18,80001624	  x8:0x0000000f x18:0x80009f84
       33645000	      3363	800015f4	003c7533	and	x10,x24,x3	 x24:0x80001434  x3:0x00000000 x10=0x00000000
       33655000	      3364	800015f8	00000013	addi	x0,x0,0	  x0:0x00000000
       33665000	      3365	800015fc	015eed33	or	x26,x29,x21	 x29:0x80009fc4 x21:0xffffffd1 x26=0xffffffd5
       33675000	      3366	80001600	016ed993	srli	x19,x29,0x16	 x29:0x80009fc4 x19=0x00000200
       33685000	      3367	80001604	f8fb0393	addi	x7,x22,-113	 x22:0xffff017b  x7=0xffff010a
       33695000	      3368	80001608	dddfb993	sltiu	x19,x31,-547	 x31:0x00000000 x19=0x00000001
       33705000	      3369	8000160c	6234b893	sltiu	x17,x9,1571	  x9:0xeaf4eda1 x17=0x00000000
       33715000	      3370	80001610	47982713	slti	x14,x16,1145	 x16:0xffffebcc x14=0x00000001
       33725000	      3371	80001614	00eb9cb3	sll	x25,x23,x14	 x23:0x00000009 x14:0x00000001 x25=0x00000012
       33735000	      3372	80001618	00ae5193	srli	x3,x28,0xa	 x28:0xfffffdfe  x3=0x003fffff
       33745000	      3373	8000161c	d12dc413	xori	x8,x27,-750	 x27:0x00000001  x8=0xfffffd13
       33755000	      3374	80001620	00a9acb3	slt	x25,x19,x10	 x19:0x00000001 x10:0x00000000 x25=0x00000000
       33765000	      3375	80001624	00009c63	bne	x1,x0,8000163c	  x1:0xfffffdff  x0:0x00000000
       33775000	      3376	00000000	00000013	addi	x0,x0,0	  x0:0x00000000
       33785000	      3377	80001638	00000013	addi	x0,x0,0	  x0:0x00000000
       33795000	      3378	8000163c	013a50b3	srl	x1,x20,x19	 x20:0x00000000 x19:0x00000001  x1=0x00000000
       33805000	      3379	80001640	6c28f293	andi	x5,x17,1730	 x17:0x00000000  x5=0x00000000
       33815000	      3380	80001644	0568c663	blt	x17,x22,80001690	 x17:0x00000000 x22:0xffff017b
       33825000	      3381	80001648	00e3fd33	and	x26,x7,x14	  x7:0xffff010a x14:0x00000001 x26=0x00000000
       33835000	      3382	8000164c	01c8d433	srl	x8,x17,x28	 x17:0x00000000 x28:0xfffffdfe  x8=0x00000000
       33845000	      3383	80001650	01c4df33	srl	x30,x9,x28	  x9:0xeaf4eda1 x28:0xfffffdfe x30=0x00000003
       33855000	      3384	80001654	8a2d3b97	auipc	x23,0x8a2d3	 x23=0x0a2d4650
       33865000	      3385	80001658	04611663	bne	x2,x6,800016a4	  x2:0xffffebcc  x6:0x00000009
       33875000	      3386	00000000	00000013	addi	x0,x0,0	  x0:0x00000000
       33885000	      3387	800016a0	00000013	addi	x0,x0,0	  x0:0x00000000
       33895000	      3388	800016a4	043ff663	bgeu	x31,x3,800016f0	 x31:0x00000000  x3:0x003fffff
       33905000	      3389	800016a8	413ad7b3	sra	x15,x21,x19	 x21:0xffffffd1 x19:0x00000001 x15=0xffffffe8
       33915000	      3390	800016ac	f6632a93	slti	x21,x6,-154	  x6:0x00000009 x21=0x00000000
       33925000	      3391	800016b0	08337b37	lui	x22,0x8337	 x22=0x08337000
       33935000	      3392	800016b4	13e2e197	auipc	x3,0x13e2e	  x3=0x93e2f6b0
       33945000	      3393	800016b8	eab8e497	auipc	x9,0xeab8e	  x9=0x6ab8f6b4
       33955000	      3394	800016bc	00c921b3	slt	x3,x18,x12	 x18:0x80009f84 x12:0x00000000  x3=0x00000001
       33965000	      3395	800016c0	00115db3	srl	x27,x2,x1	  x2:0xffffebcc  x1:0x00000000 x27=0xffffebcc
       33975000	      3396	800016c4	02326a63	bltu	x4,x3,800016f8	  x4:0xfffff99f  x3:0x00000001
       33985000	      3397	800016c8	ac10e213	ori	x4,x1,-1343	  x1:0x00000000  x4=0xfffffac1
       33995000	      3398	800016cc	01b6d263	bge	x13,x27,800016d0	 x13:0xa4700000 x27:0xffffebcc
       34005000	      3399	800016d0	02671463	bne	x14,x6,800016f8	 x14:0x00000001  x6:0x00000009
       34015000	      3400	00000000	00000013	addi	x0,x0,0	  x0:0x00000000
       34025000	      3401	800016f4	00000013	addi	x0,x0,0	  x0:0x00000000
       34035000	      3402	800016f8	00c056b3	srl	x13,x0,x12	  x0:0x00000000 x12:0x00000000 x13=0x00000000
       34045000	      3403	800016fc	edb847b7	lui	x15,0xedb84	 x15=0xedb84000
       34055000	      3404	80001700	5f35e493	ori	x9,x11,1523	 x11:0xddfc0000  x9=0xddfc05f3
       34065000	      3405	80001704	08323397	auipc	x7,0x8323	  x7=0x88324700
       34075000	      3406	80001708	9361dcb7	lui	x25,0x9361d	 x25=0x9361d000
       34085000	      3407	8000170c	2d571cb7	lui	x25,0x2d571	 x25=0x2d571000
       34095000	      3408	80001710	00ed5b13	srli	x22,x26,0xe	 x26:0x00000000 x22=0x00000000
       34105000	      3409	80001714	3dec6a13	ori	x20,x24,990	 x24:0x80001434 x20=0x800017fe
       34115000	      3410	80001718	27e02713	slti	x14,x0,638	  x0:0x00000000 x14=0x00000001
       34125000	      3411	8000171c	0160e3b3	or	x7,x1,x22	  x1:0x00000000 x22:0x00000000  x7=0x00000000
       34135000	      3412	80001720	004cf5b3	and	x11,x25,x4	 x25:0x2d571000  x4:0xfffffac1 x11=0x2d571000
       34145000	      3413	80001724	01d2fc63	bgeu	x5,x29,8000173c	  x5:0x00000000 x29:0x80009fc4
       34155000	      3414	80001728	008c7433	and	x8,x24,x8	 x24:0x80001434  x8:0x00000000  x8=0x00000000
       34165000	      3415	8000172c	c0160d93	addi	x27,x12,-1023	 x12:0x00000000 x27=0xfffffc01
       34175000	      3416	80001730	6b3b9b17	auipc	x22,0x6b3b9	 x22=0xeb3ba72c
       34185000	      3417	80001734	9f2b3213	sltiu	x4,x22,-1550	 x22:0xeb3ba72c  x4=0x00000001
       34195000	      3418	80001738	417a0113	addi	x2,x20,1047	 x20:0x800017fe  x2=0x80001c15
       34205000	      3419	8000173c	00dd47b3	xor	x15,x26,x13	 x26:0x00000000 x13:0x00000000 x15=0x00000000
       34215000	      3420	80001740	01d9afb3	slt	x31,x19,x29	 x19:0x00000001 x29:0x80009fc4 x31=0x00000000
       34225000	      3421	80001744	41a6d413	srai	x8,x13,0x1a	 x13:0x00000000  x8=0x00000000
       34235000	      3422	80001748	009a25b3	slt	x11,x20,x9	 x20:0x800017fe  x9:0xddfc05f3 x11=0x00000001
       34245000	      3423	8000174c	0155cf33	xor	x30,x11,x21	 x11:0x00000001 x21:0x00000000 x30=0x00000001
       34255000	      3424	80001750	00274e63	blt	x14,x2,8000176c	 x14:0x00000001  x2:0x80001c15
       34265000	      3425	80001754	0194b6b3	sltu	x13,x9,x25	  x9:0xddfc05f3 x25:0x2d571000 x13=0x00000000
       34275000	      3426	80001758	01d6d893	srli	x17,x13,0x1d	 x13:0x00000000 x17=0x00000000
       34285000	      3427	8000175c	020cf063	bgeu	x25,x0,8000177c	 x25:0x2d571000  x0:0x00000000
       34295000	      3428	00000000	00000013	addi	x0,x0,0	  x0:0x00000000
       34305000	      3429	80001778	00000013	addi	x0,x0,0	  x0:0x00000000
       34315000	      3430	8000177c	00fa99b3	sll	x19,x21,x15	 x21:0x00000000 x15:0x00000000 x19=0x00000000
       34325000	      3431	80001780	0527e663	bltu	x15,x18,800017cc	 x15:0x00000000 x18:0x80009f84
       34335000	      3432	00000000	00000013	addi	x0,x0,0	  x0:0x00000000
       34345000	      3433	800017c8	00000013	addi	x0,x0,0	  x0:0x00000000
       34355000	      3434	800017cc	05b34063	blt	x6,x27,8000180c	  x6:0x00000009 x27:0xfffffc01
       34365000	      3435	800017d0	004ae733	or	x14,x21,x4	 x21:0x00000000  x4:0x00000001 x14=0x00000001
       34375000	      3436	800017d4	3bd13b93	sltiu	x23,x2,957	  x2:0x80001c15 x23=0x00000000
       34385000	      3437	800017d8	017c9113	slli	x2,x25,0x17	 x25:0x2d571000  x2=0x00000000
       34395000	      3438	800017dc	4622ef93	ori	x31,x5,1122	  x5:0x00000000 x31=0x00000462
       34405000	      3439	800017e0	ab314c13	xori	x24,x2,-1357	  x2:0x00000000 x24=0xfffffab3
       34415000	      3440	800017e4	00dea4b3	slt	x9,x29,x13	 x29:0x80009fc4 x13:0x00000000  x9=0x00000001
       34425000	      3441	800017e8	00cfb1b3	sltu	x3,x31,x12	 x31:0x00000462 x12:0x00000000  x3=0x00000000
       34435000	      3442	800017ec	0153f863	bgeu	x7,x21,800017fc	  x7:0x00000000 x21:0x00000000
       34445000	      3443	00000000	00000013	addi	x0,x0,0	  x0:0x00000000
       34455000	      3444	800017f8	00000013	addi	x0,x0,0	  x0:0x00000000
       34465000	      3445	800017fc	f74b8c13	addi	x24,x23,-140	 x23:0x00000000 x24=0xffffff74
       34475000	      3446	80001800	01675f13	srli	x30,x14,0x16	 x14:0x00000001 x30=0x00000000
       34485000	      3447	80001804	00adeab3	or	x21,x27,x10	 x27:0xfffffc01 x10:0x00000000 x21=0xfffffc01
       34495000	      3448	80001808	4139d633	sra	x12,x19,x19	 x19:0x00000000 x19:0x00000000 x12=0x00000000
       34505000	      3449	8000180c	01b5d8b3	srl	x17,x11,x27	 x11:0x00000001 x27:0xfffffc01 x17=0x00000000
       34515000	      3450	80001810	01bcce33	xor	x28,x25,x27	 x25:0x2d571000 x27:0xfffffc01 x28=0xd2a8ec01
       34525000	      3451	80001814	038b5863	bge	x22,x24,80001844	 x22:0xeb3ba72c x24:0xffffff74
       34535000	      3452	80001818	01ffe233	or	x4,x31,x31	 x31:0x00000462 x31:0x00000462  x4=0x00000462
       34545000	      3453	8000181c	00000013	addi	x0,x0,0	  x0:0x00000000
       34555000	      3454	80001820	01594733	xor	x14,x18,x21	 x18:0x80009f84 x21:0xfffffc01 x14=0x7fff6385
       34565000	      3455	80001824	41388d33	sub	x26,x17,x19	 x17:0x00000000 x19:0x00000000 x26=0x00000000
       34575000	      3456	80001828	e6789a17	auipc	x20,0xe6789	 x20=0x6678a824
       34585000	      3457	8000182c	40a7d893	srai	x17,x15,0xa	 x15:0x00000000 x17=0x00000000
       34595000	      3458	80001830	14444193	xori	x3,x8,324	  x8:0x00000000  x3=0x00000144
       34605000	      3459	80001834	005d8e63	beq	x27,x5,80001850	 x27:0xfffffc01  x5:0x00000000
       34615000	      3460	80001838	40768e33	sub	x28,x13,x7	 x13:0x00000000  x7:0x00000000 x28=0x00000000
       34625000	      3461	8000183c	418e0d33	sub	x26,x28,x24	 x28:0x00000000 x24:0xffffff74 x26=0x0000008c
       34635000	      3462	80001840	09db6463	bltu	x22,x29,800018c8	 x22:0xeb3ba72c x29:0x80009fc4
       34645000	      3463	80001844	019426b3	slt	x13,x8,x25	  x8:0x00000000 x25:0x2d571000 x13=0x00000001
       34655000	      3464	80001848	03e28c63	beq	x5,x30,80001880	  x5:0x00000000 x30:0x00000000
       34665000	      3465	00000000	00000013	addi	x0,x0,0	  x0:0x00000000
       34675000	      3466	8000187c	00000013	addi	x0,x0,0	  x0:0x00000000
       34685000	      3467	80001880	04869a63	bne	x13,x8,800018d4	 x13:0x00000001  x8:0x00000000
       34695000	      3468	00000000	00000013	addi	x0,x0,0	  x0:0x00000000
       34705000	      3469	800018d0	00000013	addi	x0,x0,0	  x0:0x00000000
       34715000	      3470	800018d4	03edf463	bgeu	x27,x30,800018fc	 x27:0xfffffc01 x30:0x00000000
       34725000	      3471	00000000	00000013	addi	x0,x0,0	  x0:0x00000000
       34735000	      3472	800018f8	00000013	addi	x0,x0,0	  x0:0x00000000
       34745000	      3473	800018fc	0496e063	bltu	x13,x9,8000193c	 x13:0x00000001  x9:0x00000001
       34755000	      3474	80001900	b64a0d13	addi	x26,x20,-1180	 x20:0x6678a824 x26=0x6678a388
       34765000	      3475	80001904	00994633	xor	x12,x18,x9	 x18:0x80009f84  x9:0x00000001 x12=0x80009f85
       34775000	      3476	80001908	01c86e63	bltu	x16,x28,80001924	 x16:0xffffebcc x28:0x00000000
       34785000	      3477	8000190c	017c9113	slli	x2,x25,0x17	 x25:0x2d571000  x2=0x00000000
       34795000	      3478	80001910	41b65c93	srai	x25,x12,0x1b	 x12:0x80009f85 x25=0xfffffff0
       34805000	      3479	80001914	03811863	bne	x2,x24,80001944	  x2:0x00000000 x24:0xffffff74
       34815000	      3480	00000000	00000013	addi	x0,x0,0	  x0:0x00000000
       34825000	      3481	80001940	00000013	addi	x0,x0,0	  x0:0x00000000
       34835000	      3482	80001944	0106e9b3	or	x19,x13,x16	 x13:0x00000001 x16:0xffffebcc x19=0xffffebcd
       34845000	      3483	80001948	01039613	slli	x12,x7,0x10	  x7:0x00000000 x12=0x00000000
       34855000	      3484	8000194c	03bbd063	bge	x23,x27,8000196c	 x23:0x00000000 x27:0xfffffc01
       34865000	      3485	00000000	00000013	addi	x0,x0,0	  x0:0x00000000
       34875000	      3486	80001968	00000013	addi	x0,x0,0	  x0:0x00000000
       34885000	      3487	8000196c	14d5cc93	xori	x25,x11,333	 x11:0x00000001 x25=0x0000014c
       34895000	      3488	80001970	0147ae33	slt	x28,x15,x20	 x15:0x00000000 x20:0x6678a824 x28=0x00000001
       34905000	      3489	80001974	62d30b93	addi	x23,x6,1581	  x6:0x00000009 x23=0x00000636
       34915000	      3490	80001978	db7eee13	ori	x28,x29,-585	 x29:0x80009fc4 x28=0xfffffff7
       34925000	      3491	8000197c	02c00c6f	jal	x24,8000197c	 x24=0x8000197c
       34935000	      3492	00000000	00000013	addi	x0,x0,0	  x0:0x00000000
       34945000	      3493	800019a4	00000013	addi	x0,x0,0	  x0:0x00000000
       34955000	      3494	800019a8	038000ef	jal	x1,800019a8	  x1=0x800019a8
       34965000	      3495	00000000	00000013	addi	x0,x0,0	  x0:0x00000000
       34975000	      3496	800019dc	00000013	addi	x0,x0,0	  x0:0x00000000
       34985000	      3497	800019e0	004000ef	jal	x1,800019e0	  x1=0x800019e0
       34995000	      3498	00000000	00000013	addi	x0,x0,0	  x0:0x00000000
       35005000	      3499	800019e0	00000013	addi	x0,x0,0	  x0:0x00000000
       35015000	      3500	800019e4	ff1ff0ef	jal	x1,800019e4	  x1=0x800019e4
       35025000	      3501	00000000	00000013	addi	x0,x0,0	  x0:0x00000000
       35035000	      3502	800019d0	00000013	addi	x0,x0,0	  x0:0x00000000
       35045000	      3503	800019d4	fb5ff0ef	jal	x1,800019d4	  x1=0x800019d4
       35055000	      3504	00000000	00000013	addi	x0,x0,0	  x0:0x00000000
       35065000	      3505	80001984	00000013	addi	x0,x0,0	  x0:0x00000000
       35075000	      3506	80001988	ff9ff0ef	jal	x1,80001988	  x1=0x80001988
       35085000	      3507	00000000	00000013	addi	x0,x0,0	  x0:0x00000000
       35095000	      3508	8000197c	00000013	addi	x0,x0,0	  x0:0x00000000
       35105000	      3509	80001980	050000ef	jal	x1,80001980	  x1=0x80001980
       35115000	      3510	00000000	00000013	addi	x0,x0,0	  x0:0x00000000
       35125000	      3511	800019cc	00000013	addi	x0,x0,0	  x0:0x00000000
       35135000	      3512	800019d0	fedff1ef	jal	x3,800019d0	  x3=0x800019d0
       35145000	      3513	00000000	00000013	addi	x0,x0,0	  x0:0x00000000
       35155000	      3514	800019b8	00000013	addi	x0,x0,0	  x0:0x00000000
       35165000	      3515	800019bc	fc9ff9ef	jal	x19,800019bc	 x19=0x800019bc
       35175000	      3516	00000000	00000013	addi	x0,x0,0	  x0:0x00000000
       35185000	      3517	80001980	00000013	addi	x0,x0,0	  x0:0x00000000
       35195000	      3518	80001984	020000ef	jal	x1,80001984	  x1=0x80001984
       35205000	      3519	00000000	00000013	addi	x0,x0,0	  x0:0x00000000
       35215000	      3520	800019a0	00000013	addi	x0,x0,0	  x0:0x00000000
       35225000	      3521	800019a4	028009ef	jal	x19,800019a4	 x19=0x800019a4
       35235000	      3522	00000000	00000013	addi	x0,x0,0	  x0:0x00000000
       35245000	      3523	800019c8	00000013	addi	x0,x0,0	  x0:0x00000000
       35255000	      3524	800019cc	fd5ff0ef	jal	x1,800019cc	  x1=0x800019cc
       35265000	      3525	00000000	00000013	addi	x0,x0,0	  x0:0x00000000
       35275000	      3526	8000199c	00000013	addi	x0,x0,0	  x0:0x00000000
       35285000	      3527	800019a0	ff5ff0ef	jal	x1,800019a0	  x1=0x800019a0
       35295000	      3528	00000000	00000013	addi	x0,x0,0	  x0:0x00000000
       35305000	      3529	80001990	00000013	addi	x0,x0,0	  x0:0x00000000
       35315000	      3530	80001994	044000ef	jal	x1,80001994	  x1=0x80001994
       35325000	      3531	00000000	00000013	addi	x0,x0,0	  x0:0x00000000
       35335000	      3532	800019d4	00000013	addi	x0,x0,0	  x0:0x00000000
       35345000	      3533	800019d8	fd9ff0ef	jal	x1,800019d8	  x1=0x800019d8
       35355000	      3534	00000000	00000013	addi	x0,x0,0	  x0:0x00000000
       35365000	      3535	800019ac	00000013	addi	x0,x0,0	  x0:0x00000000
       35375000	      3536	800019b0	02c000ef	jal	x1,800019b0	  x1=0x800019b0
       35385000	      3537	00000000	00000013	addi	x0,x0,0	  x0:0x00000000
       35395000	      3538	800019d8	00000013	addi	x0,x0,0	  x0:0x00000000
       35405000	      3539	800019dc	fe5ff0ef	jal	x1,800019dc	  x1=0x800019dc
       35415000	      3540	00000000	00000013	addi	x0,x0,0	  x0:0x00000000
       35425000	      3541	800019bc	00000013	addi	x0,x0,0	  x0:0x00000000
       35435000	      3542	800019c0	fddff0ef	jal	x1,800019c0	  x1=0x800019c0
       35445000	      3543	00000000	00000013	addi	x0,x0,0	  x0:0x00000000
       35455000	      3544	80001998	00000013	addi	x0,x0,0	  x0:0x00000000
       35465000	      3545	8000199c	ff5ff0ef	jal	x1,8000199c	  x1=0x8000199c
       35475000	      3546	00000000	00000013	addi	x0,x0,0	  x0:0x00000000
       35485000	      3547	8000198c	00000013	addi	x0,x0,0	  x0:0x00000000
       35495000	      3548	80001990	01c00cef	jal	x25,80001990	 x25=0x80001990
       35505000	      3549	00000000	00000013	addi	x0,x0,0	  x0:0x00000000
       35515000	      3550	800019a8	00000013	addi	x0,x0,0	  x0:0x00000000
       35525000	      3551	800019ac	018000ef	jal	x1,800019ac	  x1=0x800019ac
       35535000	      3552	00000000	00000013	addi	x0,x0,0	  x0:0x00000000
       35545000	      3553	800019c0	00000013	addi	x0,x0,0	  x0:0x00000000
       35555000	      3554	800019c4	00400bef	jal	x23,800019c4	 x23=0x800019c4
       35565000	      3555	00000000	00000013	addi	x0,x0,0	  x0:0x00000000
       35575000	      3556	800019c4	00000013	addi	x0,x0,0	  x0:0x00000000
       35585000	      3557	800019c8	02000b6f	jal	x22,800019c8	 x22=0x800019c8
       35595000	      3558	00000000	00000013	addi	x0,x0,0	  x0:0x00000000
       35605000	      3559	800019e4	00000013	addi	x0,x0,0	  x0:0x00000000
       35615000	      3560	800019e8	fd1ff0ef	jal	x1,800019e8	  x1=0x800019e8
       35625000	      3561	00000000	00000013	addi	x0,x0,0	  x0:0x00000000
       35635000	      3562	800019b4	00000013	addi	x0,x0,0	  x0:0x00000000
       35645000	      3563	800019b8	fd5ff0ef	jal	x1,800019b8	  x1=0x800019b8
       35655000	      3564	00000000	00000013	addi	x0,x0,0	  x0:0x00000000
       35665000	      3565	80001988	00000013	addi	x0,x0,0	  x0:0x00000000
       35675000	      3566	8000198c	028000ef	jal	x1,8000198c	  x1=0x8000198c
       35685000	      3567	00000000	00000013	addi	x0,x0,0	  x0:0x00000000
       35695000	      3568	800019b0	00000013	addi	x0,x0,0	  x0:0x00000000
       35705000	      3569	800019b4	fe5ff86f	jal	x16,800019b4	 x16=0x800019b4
       35715000	      3570	00000000	00000013	addi	x0,x0,0	  x0:0x00000000
       35725000	      3571	80001994	00000013	addi	x0,x0,0	  x0:0x00000000
       35735000	      3572	80001998	054002ef	jal	x5,80001998	  x5=0x80001998
       35745000	      3573	00000000	00000013	addi	x0,x0,0	  x0:0x00000000
       35755000	      3574	800019e8	00000013	addi	x0,x0,0	  x0:0x00000000
       35765000	      3575	800019ec	01f60b33	add	x22,x12,x31	 x12:0x00000000 x31:0x00000462 x22=0x00000462
       35775000	      3576	800019f0	00d7cc63	blt	x15,x13,80001a08	 x15:0x00000000 x13:0x00000001
       35785000	      3577	00000000	00000013	addi	x0,x0,0	  x0:0x00000000
       35795000	      3578	80001a04	00000013	addi	x0,x0,0	  x0:0x00000000
       35805000	      3579	80001a08	46338b93	addi	x23,x7,1123	  x7:0x00000000 x23=0x00000463
       35815000	      3580	80001a0c	41602013	slti	x0,x0,1046	  x0:0x00000000
       35825000	      3581	80001a10	3c468413	addi	x8,x13,964	 x13:0x00000001  x8=0x000003c5
       35835000	      3582	80001a14	01179793	slli	x15,x15,0x11	 x15:0x00000000 x15=0x00000000
       35845000	      3583	80001a18	00000013	addi	x0,x0,0	  x0:0x00000000
       35855000	      3584	80001a1c	00f4bab3	sltu	x21,x9,x15	  x9:0x00000001 x15:0x00000000 x21=0x00000000
       35865000	      3585	80001a20	77878893	addi	x17,x15,1912	 x15:0x00000000 x17=0x00000778
       35875000	      3586	80001a24	a6c70d97	auipc	x27,0xa6c70	 x27=0x26c71a20
       35885000	      3587	80001a28	0062f3b3	and	x7,x5,x6	  x5:0x80001998  x6:0x00000009  x7=0x00000008
       35895000	      3588	80001a2c	0033df13	srli	x30,x7,0x3	  x7:0x00000008 x30=0x00000001
       35905000	      3589	80001a30	0085d593	srli	x11,x11,0x8	 x11:0x00000001 x11=0x00000000
       35915000	      3590	80001a34	01fe9633	sll	x12,x29,x31	 x29:0x80009fc4 x31:0x00000462 x12=0x00027f10
       35925000	      3591	80001a38	0163d6b3	srl	x13,x7,x22	  x7:0x00000008 x22:0x00000462 x13=0x00000002
       35935000	      3592	80001a3c	40968c33	sub	x24,x13,x9	 x13:0x00000002  x9:0x00000001 x24=0x00000001
       35945000	      3593	80001a40	64470113	addi	x2,x14,1604	 x14:0x7fff6385  x2=0x7fff69c9
       35955000	      3594	80001a44	fd416d93	ori	x27,x2,-44	  x2:0x7fff69c9 x27=0xffffffdd
       35965000	      3595	80001a48	00000013	addi	x0,x0,0	  x0:0x00000000
       35975000	      3596	80001a4c	f31ef897	auipc	x17,0xf31ef	 x17=0x731f0a48
       35985000	      3597	80001a50	402cd213	srai	x4,x25,0x2	 x25:0x80001990  x4=0xe0000664
       35995000	      3598	80001a54	419a8db3	sub	x27,x21,x25	 x21:0x00000000 x25:0x80001990 x27=0x7fffe670
       36005000	      3599	80001a58	f812be13	sltiu	x28,x5,-127	  x5:0x80001998 x28=0x00000001
       36015000	      3600	80001a5c	00e762b3	or	x5,x14,x14	 x14:0x7fff6385 x14:0x7fff6385  x5=0x7fff6385
       36025000	      3601	80001a60	40b852b3	sra	x5,x16,x11	 x16:0x800019b4 x11:0x00000000  x5=0x800019b4
       36035000	      3602	80001a64	009b6733	or	x14,x22,x9	 x22:0x00000462  x9:0x00000001 x14=0x00000463
       36045000	      3603	80001a68	01eea4b3	slt	x9,x29,x30	 x29:0x80009fc4 x30:0x00000001  x9=0x00000001
       36055000	      3604	80001a6c	2b266113	ori	x2,x12,690	 x12:0x00027f10  x2=0x00027fb2
       36065000	      3605	80001a70	3e668e13	addi	x28,x13,998	 x13:0x00000002 x28=0x000003e8
       36075000	      3606	80001a74	01c59693	slli	x13,x11,0x1c	 x11:0x00000000 x13=0x00000000
       36085000	      3607	80001a78	01a61fb3	sll	x31,x12,x26	 x12:0x00027f10 x26:0x6678a388 x31=0x027f1000
       36095000	      3608	80001a7c	406d0cb3	sub	x25,x26,x6	 x26:0x6678a388  x6:0x00000009 x25=0x6678a37f
       36105000	      3609	80001a80	40fe84b3	sub	x9,x29,x15	 x29:0x80009fc4 x15:0x00000000  x9=0x80009fc4
       36115000	      3610	80001a84	00801893	slli	x17,x0,0x8	  x0:0x00000000 x17=0x00000000
       36125000	      3611	80001a88	41bb5b93	srai	x23,x22,0x1b	 x22:0x00000462 x23=0x00000000
       36135000	      3612	80001a8c	04c06663	bltu	x0,x12,80001ad8	  x0:0x00000000 x12:0x00027f10
       36145000	      3613	00000000	00000013	addi	x0,x0,0	  x0:0x00000000
       36155000	      3614	80001ad4	00000013	addi	x0,x0,0	  x0:0x00000000
       36165000	      3615	80001ad8	010d52b3	srl	x5,x26,x16	 x26:0x6678a388 x16:0x800019b4  x5=0x00000667
       36175000	      3616	80001adc	40805fb3	sra	x31,x0,x8	  x0:0x00000000  x8:0x000003c5 x31=0x00000000
       36185000	      3617	80001ae0	a1e22613	slti	x12,x4,-1506	  x4:0xe0000664 x12=0x00000001
       36195000	      3618	80001ae4	01311b33	sll	x22,x2,x19	  x2:0x00027fb2 x19:0x800019a4 x22=0x0027fb20
       36205000	      3619	80001ae8	002fec63	bltu	x31,x2,80001b00	 x31:0x00000000  x2:0x00027fb2
       36215000	      3620	00000000	00000013	addi	x0,x0,0	  x0:0x00000000
       36225000	      3621	80001afc	00000013	addi	x0,x0,0	  x0:0x00000000
       36235000	      3622	80001b00	b0c4c793	xori	x15,x9,-1268	  x9:0x80009fc4 x15=0x7fff64c8
       36245000	      3623	80001b04	4196de13	srai	x28,x13,0x19	 x13:0x00000000 x28=0x00000000
       36255000	      3624	80001b08	01724c63	blt	x4,x23,80001b20	  x4:0xe0000664 x23:0x00000000
       36265000	      3625	00000000	00000013	addi	x0,x0,0	  x0:0x00000000
       36275000	      3626	80001b1c	00000013	addi	x0,x0,0	  x0:0x00000000
       36285000	      3627	80001b20	00bd4733	xor	x14,x26,x11	 x26:0x6678a388 x11:0x00000000 x14=0x6678a388
       36295000	      3628	80001b24	0199dcb3	srl	x25,x19,x25	 x19:0x800019a4 x25:0x6678a37f x25=0x00000001
       36305000	      3629	80001b28	d1345597	auipc	x11,0xd1345	 x11=0x51346b24
       36315000	      3630	80001b2c	006cc233	xor	x4,x25,x6	 x25:0x00000001  x6:0x00000009  x4=0x00000008
       36325000	      3631	80001b30	032e9c63	bne	x29,x18,80001b68	 x29:0x80009fc4 x18:0x80009f84
       36335000	      3632	00000000	00000013	addi	x0,x0,0	  x0:0x00000000
       36345000	      3633	80001b64	00000013	addi	x0,x0,0	  x0:0x00000000
       36355000	      3634	80001b68	54b7af37	lui	x30,0x54b7a	 x30=0x54b7a000
       36365000	      3635	80001b6c	030e6463	bltu	x28,x16,80001b94	 x28:0x00000000 x16:0x800019b4
       36375000	      3636	00000000	00000013	addi	x0,x0,0	  x0:0x00000000
       36385000	      3637	80001b90	00000013	addi	x0,x0,0	  x0:0x00000000
       36395000	      3638	80001b94	0128de13	srli	x28,x17,0x12	 x17:0x00000000 x28=0x00000000
       36405000	      3639	80001b98	26e2f513	andi	x10,x5,622	  x5:0x00000667 x10=0x00000266
       36415000	      3640	80001b9c	004a75b3	and	x11,x20,x4	 x20:0x6678a824  x4:0x00000008 x11=0x00000000
       36425000	      3641	80001ba0	0257e463	bltu	x15,x5,80001bc8	 x15:0x7fff64c8  x5:0x00000667
       36435000	      3642	80001ba4	023bfa63	bgeu	x23,x3,80001bd8	 x23:0x00000000  x3:0x800019d0
       36445000	      3643	80001ba8	0119d2b3	srl	x5,x19,x17	 x19:0x800019a4 x17:0x00000000  x5=0x800019a4
       36455000	      3644	80001bac	01dadcb3	srl	x25,x21,x29	 x21:0x00000000 x29:0x80009fc4 x25=0x00000000
       36465000	      3645	80001bb0	e7be0713	addi	x14,x28,-389	 x28:0x00000000 x14=0xfffffe7b
       36475000	      3646	80001bb4	00000013	addi	x0,x0,0	  x0:0x00000000
       36485000	      3647	80001bb8	01391263	bne	x18,x19,80001bbc	 x18:0x80009f84 x19:0x800019a4
       36495000	      3648	00000000	00000013	addi	x0,x0,0	  x0:0x00000000
       36505000	      3649	80001bb8	00000013	addi	x0,x0,0	  x0:0x00000000
       36515000	      3650	80001bbc	00ee7c63	bgeu	x28,x14,80001bd4	 x28:0x00000000 x14:0xfffffe7b
       36525000	      3651	80001bc0	e20dac37	lui	x24,0xe20da	 x24=0xe20da000
       36535000	      3652	80001bc4	40f30733	sub	x14,x6,x15	  x6:0x00000009 x15:0x7fff64c8 x14=0x80009b41
       36545000	      3653	80001bc8	418a0133	sub	x2,x20,x24	 x20:0x6678a824 x24:0xe20da000  x2=0x846b0824
       36555000	      3654	80001bcc	01f54433	xor	x8,x10,x31	 x10:0x00000266 x31:0x00000000  x8=0x00000266
       36565000	      3655	80001bd0	ec623213	sltiu	x4,x4,-314	  x4:0x00000008  x4=0x00000001
       36575000	      3656	80001bd4	00a04533	xor	x10,x0,x10	  x0:0x00000000 x10:0x00000266 x10=0x00000266
       36585000	      3657	80001bd8	017a0f93	addi	x31,x20,23	 x20:0x6678a824 x31=0x6678a83b
       36595000	      3658	80001bdc	d5422493	slti	x9,x4,-684	  x4:0x00000001  x9=0x00000000
       36605000	      3659	80001be0	cc9ce493	ori	x9,x25,-823	 x25:0x00000000  x9=0xfffffcc9
       36615000	      3660	80001be4	c4b1ff93	andi	x31,x3,-949	  x3:0x800019d0 x31=0x80001840
       36625000	      3661	80001be8	404a0cb3	sub	x25,x20,x4	 x20:0x6678a824  x4:0x00000001 x25=0x6678a823
       36635000	      3662	80001bec	029d9463	bne	x27,x9,80001c14	 x27:0x7fffe670  x9:0xfffffcc9
       36645000	      3663	00000000	00000013	addi	x0,x0,0	  x0:0x00000000
       36655000	      3664	80001c10	00000013	addi	x0,x0,0	  x0:0x00000000
       36665000	      3665	80001c14	35e2b393	sltiu	x7,x5,862	  x5:0x800019a4  x7=0x00000000
       36675000	      3666	80001c18	4177dd33	sra	x26,x15,x23	 x15:0x7fff64c8 x23:0x00000000 x26=0x7fff64c8
       36685000	      3667	80001c1c	d1ae8013	addi	x0,x29,-742	 x29:0x80009fc4
       36695000	      3668	80001c20	026ec863	blt	x29,x6,80001c50	 x29:0x80009fc4  x6:0x00000009
       36705000	      3669	00000000	00000013	addi	x0,x0,0	  x0:0x00000000
       36715000	      3670	80001c4c	00000013	addi	x0,x0,0	  x0:0x00000000
       36725000	      3671	80001c50	05018663	beq	x3,x16,80001c9c	  x3:0x800019d0 x16:0x800019b4
       36735000	      3672	80001c54	01ca5693	srli	x13,x20,0x1c	 x20:0x6678a824 x13=0x00000006
       36745000	      3673	80001c58	03d41863	bne	x8,x29,80001c88	  x8:0x00000266 x29:0x80009fc4
       36755000	      3674	00000000	00000013	addi	x0,x0,0	  x0:0x00000000
       36765000	      3675	80001c84	00000013	addi	x0,x0,0	  x0:0x00000000
       36775000	      3676	80001c88	40000c93	addi	x25,x0,1024	  x0:0x00000000 x25=0x00000400
       36785000	      3677	80001c8c	00925833	srl	x16,x4,x9	  x4:0x00000001  x9:0xfffffcc9 x16=0x00000000
       36795000	      3678	80001c90	010cc833	xor	x16,x25,x16	 x25:0x00000400 x16:0x00000000 x16=0x00000400
       36805000	      3679	80001c94	0025b5b3	sltu	x11,x11,x2	 x11:0x00000000  x2:0x846b0824 x11=0x00000001
       36815000	      3680	80001c98	d3bbed93	ori	x27,x23,-709	 x23:0x00000000 x27=0xfffffd3b
       36825000	      3681	80001c9c	98840e13	addi	x28,x8,-1656	  x8:0x00000266 x28=0xfffffbee
       36835000	      3682	80001ca0	00000013	addi	x0,x0,0	  x0:0x00000000
       36845000	      3683	80001ca4	f3d83393	sltiu	x7,x16,-195	 x16:0x00000400  x7=0x00000001
       36855000	      3684	80001ca8	01e90833	add	x16,x18,x30	 x18:0x80009f84 x30:0x54b7a000 x16=0xd4b83f84
       36865000	      3685	80001cac	00e00733	add	x14,x0,x14	  x0:0x00000000 x14:0x80009b41 x14=0x80009b41
       36875000	      3686	80001cb0	40c35b93	srai	x23,x6,0xc	  x6:0x00000009 x23=0x00000000
       36885000	      3687	80001cb4	01e141b3	xor	x3,x2,x30	  x2:0x846b0824 x30:0x54b7a000  x3=0xd0dca824
       36895000	      3688	80001cb8	01fcd033	srl	x0,x25,x31	 x25:0x00000400 x31:0x80001840
       36905000	      3689	80001cbc	4101d0b3	sra	x1,x3,x16	  x3:0xd0dca824 x16:0xd4b83f84  x1=0xfd0dca82
       36915000	      3690	80001cc0	019e86b3	add	x13,x29,x25	 x29:0x80009fc4 x25:0x00000400 x13=0x8000a3c4
       36925000	      3691	80001cc4	00000013	addi	x0,x0,0	  x0:0x00000000
       36935000	      3692	80001cc8	0003c8b3	xor	x17,x7,x0	  x7:0x00000001  x0:0x00000000 x17=0x00000001
       36945000	      3693	80001ccc	4ddd92b7	lui	x5,0x4ddd9	  x5=0x4ddd9000
       36955000	      3694	80001cd0	00131713	slli	x14,x6,0x1	  x6:0x00000009 x14=0x00000012
       36965000	      3695	80001cd4	964a6e13	ori	x28,x20,-1692	 x20:0x6678a824 x28=0xfffff964
       36975000	      3696	80001cd8	000d9d33	sll	x26,x27,x0	 x27:0xfffffd3b  x0:0x00000000 x26=0xfffffd3b
       36985000	      3697	80001cdc	008eda93	srli	x21,x29,0x8	 x29:0x80009fc4 x21=0x0080009f
       36995000	      3698	80001ce0	d1f53113	sltiu	x2,x10,-737	 x10:0x00000266  x2=0x00000001
       37005000	      3699	80001ce4	14b22613	slti	x12,x4,331	  x4:0x00000001 x12=0x00000001
       37015000	      3700	80001ce8	01faefb3	or	x31,x21,x31	 x21:0x0080009f x31:0x80001840 x31=0x808018df
       37025000	      3701	80001cec	41eb5a93	srai	x21,x22,0x1e	 x22:0x0027fb20 x21=0x00000000
       37035000	      3702	80001cf0	3dea0b13	addi	x22,x20,990	 x20:0x6678a824 x22=0x6678ac02
       37045000	      3703	80001cf4	aca68837	lui	x16,0xaca68	 x16=0xaca68000
       37055000	      3704	80001cf8	9a936713	ori	x14,x6,-1623	  x6:0x00000009 x14=0xfffff9a9
       37065000	      3705	80001cfc	002d0463	beq	x26,x2,80001d04	 x26:0xfffffd3b  x2:0x00000001
       37075000	      3706	80001d00	6d0ae013	ori	x0,x21,1744	 x21:0x00000000
       37085000	      3707	80001d04	00aab433	sltu	x8,x21,x10	 x21:0x00000000 x10:0x00000266  x8=0x00000001
       37095000	      3708	80001d08	b5c13b93	sltiu	x23,x2,-1188	  x2:0x00000001 x23=0x00000001
       37105000	      3709	80001d0c	025df463	bgeu	x27,x5,80001d34	 x27:0xfffffd3b  x5:0x4ddd9000
       37115000	      3710	00000000	00000013	addi	x0,x0,0	  x0:0x00000000
       37125000	      3711	80001d30	00000013	addi	x0,x0,0	  x0:0x00000000
       37135000	      3712	80001d34	043b1a63	bne	x22,x3,80001d88	 x22:0x6678ac02  x3:0xd0dca824
       37145000	      3713	00000000	00000013	addi	x0,x0,0	  x0:0x00000000
       37155000	      3714	80001d84	00000013	addi	x0,x0,0	  x0:0x00000000
       37165000	      3715	80001d88	596694b7	lui	x9,0x59669	  x9=0x59669000
       37175000	      3716	80001d8c	0072dcb3	srl	x25,x5,x7	  x5:0x4ddd9000  x7:0x00000001 x25=0x26eec800
       37185000	      3717	80001d90	418f80b3	sub	x1,x31,x24	 x31:0x808018df x24:0xe20da000  x1=0x9e7278df
       37195000	      3718	80001d94	4068d613	srai	x12,x17,0x6	 x17:0x00000001 x12=0x00000000
       37205000	      3719	80001d98	00234863	blt	x6,x2,80001da8	  x6:0x00000009  x2:0x00000001
       37215000	      3720	80001d9c	02786c63	bltu	x16,x7,80001dd4	 x16:0xaca68000  x7:0x00000001
       37225000	      3721	80001da0	00905bb3	srl	x23,x0,x9	  x0:0x00000000  x9:0x59669000 x23=0x00000000
       37235000	      3722	80001da4	c1d30513	addi	x10,x6,-995	  x6:0x00000009 x10=0xfffffc26
       37245000	      3723	80001da8	8941b013	sltiu	x0,x3,-1900	  x3:0xd0dca824
       37255000	      3724	80001dac	02629063	bne	x5,x6,80001dcc	  x5:0x4ddd9000  x6:0x00000009
       37265000	      3725	00000000	00000013	addi	x0,x0,0	  x0:0x00000000
       37275000	      3726	80001dc8	00000013	addi	x0,x0,0	  x0:0x00000000
       37285000	      3727	80001dcc	0188e463	bltu	x17,x24,80001dd4	 x17:0x00000001 x24:0xe20da000
       37295000	      3728	00000000	00000013	addi	x0,x0,0	  x0:0x00000000
       37305000	      3729	80001dd0	00000013	addi	x0,x0,0	  x0:0x00000000
       37315000	      3730	80001dd4	00585b93	srli	x23,x16,0x5	 x16:0xaca68000 x23=0x05653400
       37325000	      3731	80001dd8	02d36a63	bltu	x6,x13,80001e0c	  x6:0x00000009 x13:0x8000a3c4
       37335000	      3732	00000000	00000013	addi	x0,x0,0	  x0:0x00000000
       37345000	      3733	80001e08	00000013	addi	x0,x0,0	  x0:0x00000000
       37355000	      3734	80001e0c	01ae1e63	bne	x28,x26,80001e28	 x28:0xfffff964 x26:0xfffffd3b
       37365000	      3735	00000000	00000013	addi	x0,x0,0	  x0:0x00000000
       37375000	      3736	80001e24	00000013	addi	x0,x0,0	  x0:0x00000000
       37385000	      3737	80001e28	01556c63	bltu	x10,x21,80001e40	 x10:0xfffffc26 x21:0x00000000
       37395000	      3738	80001e2c	0587c663	blt	x15,x24,80001e78	 x15:0x7fff64c8 x24:0xe20da000
       37405000	      3739	80001e30	014ffbb3	and	x23,x31,x20	 x31:0x808018df x20:0x6678a824 x23=0x00000804
       37415000	      3740	80001e34	014f4263	blt	x30,x20,80001e38	 x30:0x54b7a000 x20:0x6678a824
       37425000	      3741	00000000	00000013	addi	x0,x0,0	  x0:0x00000000
       37435000	      3742	80001e34	00000013	addi	x0,x0,0	  x0:0x00000000
       37445000	      3743	80001e38	00fe4463	blt	x28,x15,80001e40	 x28:0xfffff964 x15:0x7fff64c8
       37455000	      3744	00000000	00000013	addi	x0,x0,0	  x0:0x00000000
       37465000	      3745	80001e3c	00000013	addi	x0,x0,0	  x0:0x00000000
       37475000	      3746	80001e40	414d04b3	sub	x9,x26,x20	 x26:0xfffffd3b x20:0x6678a824  x9=0x99875517
       37485000	      3747	80001e44	017fc433	xor	x8,x31,x23	 x31:0x808018df x23:0x00000804  x8=0x808010db
       37495000	      3748	80001e48	00733a33	sltu	x20,x6,x7	  x6:0x00000009  x7:0x00000001 x20=0x00000000
       37505000	      3749	80001e4c	016f3e33	sltu	x28,x30,x22	 x30:0x54b7a000 x22:0x6678ac02 x28=0x00000001
       37515000	      3750	80001e50	416c0133	sub	x2,x24,x22	 x24:0xe20da000 x22:0x6678ac02  x2=0x7b94f3fe
       37525000	      3751	80001e54	014874b3	and	x9,x16,x20	 x16:0xaca68000 x20:0x00000000  x9=0x00000000
       37535000	      3752	80001e58	41645c33	sra	x24,x8,x22	  x8:0x808010db x22:0x6678ac02 x24=0xe0200436
       37545000	      3753	80001e5c	0161ad33	slt	x26,x3,x22	  x3:0xd0dca824 x22:0x6678ac02 x26=0x00000001
       37555000	      3754	80001e60	15b3e213	ori	x4,x7,347	  x7:0x00000001  x4=0x0000015b
       37565000	      3755	80001e64	00000013	addi	x0,x0,0	  x0:0x00000000
       37575000	      3756	80001e68	6942b293	sltiu	x5,x5,1684	  x5:0x4ddd9000  x5=0x00000000
       37585000	      3757	80001e6c	0062de33	srl	x28,x5,x6	  x5:0x00000000  x6:0x00000009 x28=0x00000000
       37595000	      3758	80001e70	0094d393	srli	x7,x9,0x9	  x9:0x00000000  x7=0x00000000
       37605000	      3759	80001e74	009efe33	and	x28,x29,x9	 x29:0x80009fc4  x9:0x00000000 x28=0x00000000
       37615000	      3760	80001e78	00af5633	srl	x12,x30,x10	 x30:0x54b7a000 x10:0xfffffc26 x12=0x0152de80
       37625000	      3761	80001e7c	04f59663	bne	x11,x15,80001ec8	 x11:0x00000001 x15:0x7fff64c8
       37635000	      3762	00000000	00000013	addi	x0,x0,0	  x0:0x00000000
       37645000	      3763	80001ec4	00000013	addi	x0,x0,0	  x0:0x00000000
       37655000	      3764	80001ec8	001e20b3	slt	x1,x28,x1	 x28:0x00000000  x1:0x9e7278df  x1=0x00000000
       37665000	      3765	80001ecc	00bd71b3	and	x3,x26,x11	 x26:0x00000001 x11:0x00000001  x3=0x00000001
       37675000	      3766	80001ed0	409c5133	sra	x2,x24,x9	 x24:0xe0200436  x9:0x00000000  x2=0xe0200436
       37685000	      3767	80001ed4	c2e1a713	slti	x14,x3,-978	  x3:0x00000001 x14=0x00000000
       37695000	      3768	80001ed8	05967063	bgeu	x12,x25,80001f18	 x12:0x0152de80 x25:0x26eec800
       37705000	      3769	80001edc	00df9ab3	sll	x21,x31,x13	 x31:0x808018df x13:0x8000a3c4 x21=0x08018df0
       37715000	      3770	80001ee0	00000013	addi	x0,x0,0	  x0:0x00000000
       37725000	      3771	80001ee4	012b7263	bgeu	x22,x18,80001ee8	 x22:0x6678ac02 x18:0x80009f84
       37735000	      3772	80001ee8	00187bb3	and	x23,x16,x1	 x16:0xaca68000  x1:0x00000000 x23=0x00000000
       37745000	      3773	80001eec	300d3e13	sltiu	x28,x26,768	 x26:0x00000001 x28=0x00000001
       37755000	      3774	80001ef0	109999b7	lui	x19,0x10999	 x19=0x10999000
       37765000	      3775	80001ef4	c75a2d13	slti	x26,x20,-907	 x20:0x00000000 x26=0x00000000
       37775000	      3776	80001ef8	b48f2493	slti	x9,x30,-1208	 x30:0x54b7a000  x9=0x00000000
       37785000	      3777	80001efc	005d8733	add	x14,x27,x5	 x27:0xfffffd3b  x5:0x00000000 x14=0xfffffd3b
       37795000	      3778	80001f00	055e6663	bltu	x28,x21,80001f4c	 x28:0x00000001 x21:0x08018df0
       37805000	      3779	00000000	00000013	addi	x0,x0,0	  x0:0x00000000
       37815000	      3780	80001f48	00000013	addi	x0,x0,0	  x0:0x00000000
       37825000	      3781	80001f4c	cf1c7d13	andi	x26,x24,-783	 x24:0xe0200436 x26=0xe0200430
       37835000	      3782	80001f50	00f5e133	or	x2,x11,x15	 x11:0x00000001 x15:0x7fff64c8  x2=0x7fff64c9
       37845000	      3783	80001f54	ca403113	sltiu	x2,x0,-860	  x0:0x00000000  x2=0x00000001
       37855000	      3784	80001f58	e805c113	xori	x2,x11,-384	 x11:0x00000001  x2=0xfffffe81
       37865000	      3785	80001f5c	cd07e713	ori	x14,x15,-816	 x15:0x7fff64c8 x14=0xfffffcd8
       37875000	      3786	80001f60	d4816893	ori	x17,x2,-696	  x2:0xfffffe81 x17=0xffffffc9
       37885000	      3787	80001f64	0103dd93	srli	x27,x7,0x10	  x7:0x00000000 x27=0x00000000
       37895000	      3788	80001f68	5fbccb13	xori	x22,x25,1531	 x25:0x26eec800 x22=0x26eecdfb
       37905000	      3789	80001f6c	933e0c93	addi	x25,x28,-1741	 x28:0x00000001 x25=0xfffff934
       37915000	      3790	80001f70	031df063	bgeu	x27,x17,80001f90	 x27:0x00000000 x17:0xffffffc9
       37925000	      3791	80001f74	6f7c7a93	andi	x21,x24,1783	 x24:0xe0200436 x21=0x00000436
       37935000	      3792	80001f78	a4078193	addi	x3,x15,-1472	 x15:0x7fff64c8  x3=0x7fff5f08
       37945000	      3793	80001f7c	c2ff9c37	lui	x24,0xc2ff9	 x24=0xc2ff9000
       37955000	      3794	80001f80	00ad41b3	xor	x3,x26,x10	 x26:0xe0200430 x10:0xfffffc26  x3=0x1fdff816
       37965000	      3795	80001f84	42b2f013	andi	x0,x5,1067	  x5:0x00000000
       37975000	      3796	80001f88	01c45b13	srli	x22,x8,0x1c	  x8:0x808010db x22=0x00000008
       37985000	      3797	80001f8c	03ece863	bltu	x25,x30,80001fbc	 x25:0xfffff934 x30:0x54b7a000
       37995000	      3798	80001f90	00000013	addi	x0,x0,0	  x0:0x00000000
       38005000	      3799	80001f94	0082dab3	srl	x21,x5,x8	  x5:0x00000000  x8:0x808010db x21=0x00000000
       38015000	      3800	80001f98	00000013	addi	x0,x0,0	  x0:0x00000000
       38025000	      3801	80001f9c	04740063	beq	x8,x7,80001fdc	  x8:0x808010db  x7:0x00000000
       38035000	      3802	80001fa0	4482bc93	sltiu	x25,x5,1096	  x5:0x00000000 x25=0x00000001
       38045000	      3803	80001fa4	00579713	slli	x14,x15,0x5	 x15:0x7fff64c8 x14=0xffec9900
       38055000	      3804	80001fa8	010a9733	sll	x14,x21,x16	 x21:0x00000000 x16:0xaca68000 x14=0x00000000
       38065000	      3805	80001fac	e8a9c093	xori	x1,x19,-374	 x19:0x10999000  x1=0xef666e8a
       38075000	      3806	80001fb0	00000013	addi	x0,x0,0	  x0:0x00000000
       38085000	      3807	80001fb4	404f8cb3	sub	x25,x31,x4	 x31:0x808018df  x4:0x0000015b x25=0x80801784
       38095000	      3808	80001fb8	00d45193	srli	x3,x8,0xd	  x8:0x808010db  x3=0x00040400
       38105000	      3809	80001fbc	0371c063	blt	x3,x23,80001fdc	  x3:0x00040400 x23:0x00000000
       38115000	      3810	80001fc0	01def463	bgeu	x29,x29,80001fc8	 x29:0x80009fc4 x29:0x80009fc4
       38125000	      3811	00000000	00000013	addi	x0,x0,0	  x0:0x00000000
       38135000	      3812	80001fc4	00000013	addi	x0,x0,0	  x0:0x00000000
       38145000	      3813	80001fc8	01409d93	slli	x27,x1,0x14	  x1:0xef666e8a x27=0xe8a00000
       38155000	      3814	80001fcc	02808463	beq	x1,x8,80001ff4	  x1:0xef666e8a  x8:0x808010db
       38165000	      3815	80001fd0	e41c7813	andi	x16,x24,-447	 x24:0xc2ff9000 x16=0xc2ff9000
       38175000	      3816	80001fd4	ae5a3813	sltiu	x16,x20,-1307	 x20:0x00000000 x16=0x00000001
       38185000	      3817	80001fd8	0330e463	bltu	x1,x19,80002000	  x1:0xef666e8a x19:0x10999000
       38195000	      3818	80001fdc	01f018b3	sll	x17,x0,x31	  x0:0x00000000 x31:0x808018df x17=0x00000000
       38205000	      3819	80001fe0	e1bcb293	sltiu	x5,x25,-485	 x25:0x80801784  x5=0x00000001
       38215000	      3820	80001fe4	499fd197	auipc	x3,0x499fd	  x3=0xc99fefe0
       38225000	      3821	80001fe8	3c7f2193	slti	x3,x30,967	 x30:0x54b7a000  x3=0x00000000
       38235000	      3822	80001fec	9f2cca93	xori	x21,x25,-1550	 x25:0x80801784 x21=0x7f7fee76
       38245000	      3823	80001ff0	00000013	addi	x0,x0,0	  x0:0x00000000
       38255000	      3824	80001ff4	01e0de63	bge	x1,x30,80002010	  x1:0xef666e8a x30:0x54b7a000
       38265000	      3825	80001ff8	40e9d793	srai	x15,x19,0xe	 x19:0x10999000 x15=0x00004266
       38275000	      3826	80001ffc	0c4b4193	xori	x3,x22,196	 x22:0x00000008  x3=0x000000cc
       38285000	      3827	80002000	419752b3	sra	x5,x14,x25	 x14:0x00000000 x25:0x80801784  x5=0x00000000
       38295000	      3828	80002004	40c4d2b3	sra	x5,x9,x12	  x9:0x00000000 x12:0x0152de80  x5=0x00000000
       38305000	      3829	80002008	d9cd4713	xori	x14,x26,-612	 x26:0xe0200430 x14=0x1fdff9ac
       38315000	      3830	8000200c	0127e5b3	or	x11,x15,x18	 x15:0x00004266 x18:0x80009f84 x11=0x8000dfe6
       38325000	      3831	80002010	a9d3c193	xori	x3,x7,-1379	  x7:0x00000000  x3=0xfffffa9d
       38335000	      3832	80002014	01471d33	sll	x26,x14,x20	 x14:0x1fdff9ac x20:0x00000000 x26=0x1fdff9ac
       38345000	      3833	80002018	00bfa0b3	slt	x1,x31,x11	 x31:0x808018df x11:0x8000dfe6  x1=0x00000000
       38355000	      3834	8000201c	000e0863	beq	x28,x0,8000202c	 x28:0x00000001  x0:0x00000000
       38365000	      3835	80002020	015bd1b3	srl	x3,x23,x21	 x23:0x00000000 x21:0x7f7fee76  x3=0x00000000
       38375000	      3836	80002024	020a1463	bne	x20,x0,8000204c	 x20:0x00000000  x0:0x00000000
       38385000	      3837	80002028	019b4cb3	xor	x25,x22,x25	 x22:0x00000008 x25:0x80801784 x25=0x8080178c
       38395000	      3838	8000202c	01cebe33	sltu	x28,x29,x28	 x29:0x80009fc4 x28:0x00000001 x28=0x00000000
       38405000	      3839	80002030	007a1633	sll	x12,x20,x7	 x20:0x00000000  x7:0x00000000 x12=0x00000000
       38415000	      3840	80002034	40f30e33	sub	x28,x6,x15	  x6:0x00000009 x15:0x00004266 x28=0xffffbda3
       38425000	      3841	80002038	01ce9f33	sll	x30,x29,x28	 x29:0x80009fc4 x28:0xffffbda3 x30=0x0004fe20
       38435000	      3842	8000203c	00384c63	blt	x16,x3,80002054	 x16:0x00000001  x3:0x00000000
       38445000	      3843	80002040	de62ce13	xori	x28,x5,-538	  x5:0x00000000 x28=0xfffffde6
       38455000	      3844	80002044	00fad833	srl	x16,x21,x15	 x21:0x7f7fee76 x15:0x00004266 x16=0x01fdffb9
       38465000	      3845	80002048	01835c63	bge	x6,x24,80002060	  x6:0x00000009 x24:0xc2ff9000
       38475000	      3846	00000000	00000013	addi	x0,x0,0	  x0:0x00000000
       38485000	      3847	8000205c	00000013	addi	x0,x0,0	  x0:0x00000000
       38495000	      3848	80002060	41c4db13	srai	x22,x9,0x1c	  x9:0x00000000 x22=0x00000000
       38505000	      3849	80002064	0128eab3	or	x21,x17,x18	 x17:0x00000000 x18:0x80009f84 x21=0x80009f84
       38515000	      3850	80002068	00d0e5b3	or	x11,x1,x13	  x1:0x00000000 x13:0x8000a3c4 x11=0x8000a3c4
       38525000	      3851	8000206c	00b1b833	sltu	x16,x3,x11	  x3:0x00000000 x11:0x8000a3c4 x16=0x00000001
       38535000	      3852	80002070	00ad2ab3	slt	x21,x26,x10	 x26:0x1fdff9ac x10:0xfffffc26 x21=0x00000000
       38545000	      3853	80002074	400ed133	sra	x2,x29,x0	 x29:0x80009fc4  x0:0x00000000  x2=0x80009fc4
       38555000	      3854	80002078	00de6733	or	x14,x28,x13	 x28:0xfffffde6 x13:0x8000a3c4 x14=0xffffffe6
       38565000	      3855	8000207c	1bc66417	auipc	x8,0x1bc66	  x8=0x9bc68078
       38575000	      3856	80002080	dcd12813	slti	x16,x2,-563	  x2:0x80009fc4 x16=0x00000001
       38585000	      3857	80002084	03d08c63	beq	x1,x29,800020bc	  x1:0x00000000 x29:0x80009fc4
       38595000	      3858	80002088	40bc08b3	sub	x17,x24,x11	 x24:0xc2ff9000 x11:0x8000a3c4 x17=0x42feec3c
       38605000	      3859	8000208c	4126d433	sra	x8,x13,x18	 x13:0x8000a3c4 x18:0x80009f84  x8=0xf8000a3c
       38615000	      3860	80002090	01cbbb33	sltu	x22,x23,x28	 x23:0x00000000 x28:0xfffffde6 x22=0x00000001
       38625000	      3861	80002094	05e76063	bltu	x14,x30,800020d4	 x14:0xffffffe6 x30:0x0004fe20
       38635000	      3862	80002098	0156bab3	sltu	x21,x13,x21	 x13:0x8000a3c4 x21:0x00000000 x21=0x00000000
       38645000	      3863	8000209c	01b35bb3	srl	x23,x6,x27	  x6:0x00000009 x27:0xe8a00000 x23=0x00000009
       38655000	      3864	800020a0	023dfa63	bgeu	x27,x3,800020d4	 x27:0xe8a00000  x3:0x00000000
       38665000	      3865	00000000	00000013	addi	x0,x0,0	  x0:0x00000000
       38675000	      3866	800020d0	00000013	addi	x0,x0,0	  x0:0x00000000
       38685000	      3867	800020d4	00831b13	slli	x22,x6,0x8	  x6:0x00000009 x22=0x00000900
       38695000	      3868	800020d8	000c5463	bge	x24,x0,800020e0	 x24:0xc2ff9000  x0:0x00000000
       38705000	      3869	800020dc	405207b3	sub	x15,x4,x5	  x4:0x0000015b  x5:0x00000000 x15=0x0000015b
       38715000	      3870	800020e0	0022a733	slt	x14,x5,x2	  x5:0x00000000  x2:0x80009fc4 x14=0x00000000
       38725000	      3871	800020e4	013714b3	sll	x9,x14,x19	 x14:0x00000000 x19:0x10999000  x9=0x00000000
       38735000	      3872	800020e8	01603f93	sltiu	x31,x0,22	  x0:0x00000000 x31=0x00000001
       38745000	      3873	800020ec	0efafb13	andi	x22,x21,239	 x21:0x00000000 x22=0x00000000
       38755000	      3874	800020f0	00024463	blt	x4,x0,800020f8	  x4:0x0000015b  x0:0x00000000
       38765000	      3875	800020f4	00af5b93	srli	x23,x30,0xa	 x30:0x0004fe20 x23=0x0000013f
       38775000	      3876	800020f8	005120b3	slt	x1,x2,x5	  x2:0x80009fc4  x5:0x00000000  x1=0x00000001
       38785000	      3877	800020fc	004498b3	sll	x17,x9,x4	  x9:0x00000000  x4:0x0000015b x17=0x00000000
       38795000	      3878	80002100	3bb25137	lui	x2,0x3bb25	  x2=0x3bb25000
       38805000	      3879	80002104	40ec5e13	srai	x28,x24,0xe	 x24:0xc2ff9000 x28=0xffff0bfe
       38815000	      3880	80002108	291e1297	auipc	x5,0x291e1	  x5=0xa91e3104
       38825000	      3881	8000210c	011bd733	srl	x14,x23,x17	 x23:0x0000013f x17:0x00000000 x14=0x0000013f
       38835000	      3882	80002110	02529063	bne	x5,x5,80002130	  x5:0xa91e3104  x5:0xa91e3104
       38845000	      3883	80002114	01ad9633	sll	x12,x27,x26	 x27:0xe8a00000 x26:0x1fdff9ac x12=0x00000000
       38855000	      3884	80002118	416907b3	sub	x15,x18,x22	 x18:0x80009f84 x22:0x00000000 x15=0x80009f84
       38865000	      3885	8000211c	03d89863	bne	x17,x29,8000214c	 x17:0x00000000 x29:0x80009fc4
       38875000	      3886	00000000	00000013	addi	x0,x0,0	  x0:0x00000000
       38885000	      3887	80002148	00000013	addi	x0,x0,0	  x0:0x00000000
       38895000	      3888	8000214c	002e3133	sltu	x2,x28,x2	 x28:0xffff0bfe  x2:0x3bb25000  x2=0x00000000
       38905000	      3889	80002150	ce93bd17	auipc	x26,0xce93b	 x26=0x4e93d14c
       38915000	      3890	80002154	04130463	beq	x6,x1,8000219c	  x6:0x00000009  x1:0x00000001
       38925000	      3891	80002158	0134ea33	or	x20,x9,x19	  x9:0x00000000 x19:0x10999000 x20=0x10999000
       38935000	      3892	8000215c	015a6e63	bltu	x20,x21,80002178	 x20:0x10999000 x21:0x00000000
       38945000	      3893	80002160	015dbc33	sltu	x24,x27,x21	 x27:0xe8a00000 x21:0x00000000 x24=0x00000000
       38955000	      3894	80002164	e6600893	addi	x17,x0,-410	  x0:0x00000000 x17=0xfffffe66
       38965000	      3895	80002168	01e0dfb3	srl	x31,x1,x30	  x1:0x00000001 x30:0x0004fe20 x31=0x00000001
       38975000	      3896	8000216c	000dcd33	xor	x26,x27,x0	 x27:0xe8a00000  x0:0x00000000 x26=0xe8a00000
       38985000	      3897	80002170	d7aa7e13	andi	x28,x20,-646	 x20:0x10999000 x28=0x10999000
       38995000	      3898	80002174	00c539b3	sltu	x19,x10,x12	 x10:0xfffffc26 x12:0x00000000 x19=0x00000000
       39005000	      3899	80002178	031fc863	blt	x31,x17,800021a8	 x31:0x00000001 x17:0xfffffe66
       39015000	      3900	8000217c	41d20b33	sub	x22,x4,x29	  x4:0x0000015b x29:0x80009fc4 x22=0x7fff6197
       39025000	      3901	80002180	00f067b3	or	x15,x0,x15	  x0:0x00000000 x15:0x80009f84 x15=0x80009f84
       39035000	      3902	80002184	0254c463	blt	x9,x5,800021ac	  x9:0x00000000  x5:0xa91e3104
       39045000	      3903	80002188	0461e663	bltu	x3,x6,800021d4	  x3:0x00000000  x6:0x00000009
       39055000	      3904	00000000	00000013	addi	x0,x0,0	  x0:0x00000000
       39065000	      3905	800021d0	00000013	addi	x0,x0,0	  x0:0x00000000
       39075000	      3906	800021d4	010034b3	sltu	x9,x0,x16	  x0:0x00000000 x16:0x00000001  x9=0x00000001
       39085000	      3907	800021d8	a4a17113	andi	x2,x2,-1462	  x2:0x00000000  x2=0x00000000
       39095000	      3908	800021dc	005617b3	sll	x15,x12,x5	 x12:0x00000000  x5:0xa91e3104 x15=0x00000000
       39105000	      3909	800021e0	863bc137	lui	x2,0x863bc	  x2=0x863bc000
       39115000	      3910	800021e4	01fcadb3	slt	x27,x25,x31	 x25:0x8080178c x31:0x00000001 x27=0x00000001
       39125000	      3911	800021e8	d90a8cb7	lui	x25,0xd90a8	 x25=0xd90a8000
       39135000	      3912	800021ec	517d6c13	ori	x24,x26,1303	 x26:0xe8a00000 x24=0xe8a00517
       39145000	      3913	800021f0	01e19e13	slli	x28,x3,0x1e	  x3:0x00000000 x28=0x00000000
       39155000	      3914	800021f4	00000013	addi	x0,x0,0	  x0:0x00000000
       39165000	      3915	800021f8	40ac5ab3	sra	x21,x24,x10	 x24:0xe8a00517 x10:0xfffffc26 x21=0xffa28014
       39175000	      3916	800021fc	03410a63	beq	x2,x20,80002230	  x2:0x863bc000 x20:0x10999000
       39185000	      3917	80002200	10846a93	ori	x21,x8,264	  x8:0xf8000a3c x21=0xf8000b3c
       39195000	      3918	80002204	c3f56d97	auipc	x27,0xc3f56	 x27=0x43f58200
       39205000	      3919	80002208	6c058293	addi	x5,x11,1728	 x11:0x8000a3c4  x5=0x8000aa84
       39215000	      3920	8000220c	a14bef93	ori	x31,x23,-1516	 x23:0x0000013f x31=0xfffffb3f
       39225000	      3921	80002210	035f4063	blt	x30,x21,80002230	 x30:0x0004fe20 x21:0xf8000b3c
       39235000	      3922	80002214	01a639b3	sltu	x19,x12,x26	 x12:0x00000000 x26:0xe8a00000 x19=0x00000001
       39245000	      3923	80002218	c798ecb7	lui	x25,0xc798e	 x25=0xc798e000
       39255000	      3924	8000221c	41408533	sub	x10,x1,x20	  x1:0x00000001 x20:0x10999000 x10=0xef667001
       39265000	      3925	80002220	1c4ff193	andi	x3,x31,452	 x31:0xfffffb3f  x3=0x00000104
       39275000	      3926	80002224	e2723013	sltiu	x0,x4,-473	  x4:0x0000015b
       39285000	      3927	80002228	40900733	sub	x14,x0,x9	  x0:0x00000000  x9:0x00000001 x14=0xffffffff
       39295000	      3928	8000222c	0565e663	bltu	x11,x22,80002278	 x11:0x8000a3c4 x22:0x7fff6197
       39305000	      3929	80002230	4178d4b3	sra	x9,x17,x23	 x17:0xfffffe66 x23:0x0000013f  x9=0xffffffff
       39315000	      3930	80002234	41a6d693	srai	x13,x13,0x1a	 x13:0x8000a3c4 x13=0xffffffe0
       39325000	      3931	80002238	012189b3	add	x19,x3,x18	  x3:0x00000104 x18:0x80009f84 x19=0x8000a088
       39335000	      3932	8000223c	81692537	lui	x10,0x81692	 x10=0x81692000
       39345000	      3933	80002240	01a677b3	and	x15,x12,x26	 x12:0x00000000 x26:0xe8a00000 x15=0x00000000
       39355000	      3934	80002244	00e52db3	slt	x27,x10,x14	 x10:0x81692000 x14:0xffffffff x27=0x00000001
       39365000	      3935	80002248	9f204193	xori	x3,x0,-1550	  x0:0x00000000  x3=0xfffff9f2
       39375000	      3936	8000224c	01190033	add	x0,x18,x17	 x18:0x80009f84 x17:0xfffffe66
       39385000	      3937	80002250	0080c463	blt	x1,x8,80002258	  x1:0x00000001  x8:0xf8000a3c
       39395000	      3938	80002254	00edd533	srl	x10,x27,x14	 x27:0x00000001 x14:0xffffffff x10=0x00000000
       39405000	      3939	80002258	0039cc63	blt	x19,x3,80002270	 x19:0x8000a088  x3:0xfffff9f2
       39415000	      3940	00000000	00000013	addi	x0,x0,0	  x0:0x00000000
       39425000	      3941	8000226c	00000013	addi	x0,x0,0	  x0:0x00000000
       39435000	      3942	80002270	4106d113	srai	x2,x13,0x10	 x13:0xffffffe0  x2=0xffffffff
       39445000	      3943	80002274	00226863	bltu	x4,x2,80002284	  x4:0x0000015b  x2:0xffffffff
       39455000	      3944	00000000	00000013	addi	x0,x0,0	  x0:0x00000000
       39465000	      3945	80002280	00000013	addi	x0,x0,0	  x0:0x00000000
       39475000	      3946	80002284	00d70e63	beq	x14,x13,800022a0	 x14:0xffffffff x13:0xffffffe0
       39485000	      3947	80002288	00000013	addi	x0,x0,0	  x0:0x00000000
       39495000	      3948	8000228c	00b537b3	sltu	x15,x10,x11	 x10:0x00000000 x11:0x8000a3c4 x15=0x00000001
       39505000	      3949	80002290	02000463	beq	x0,x0,800022b8	  x0:0x00000000  x0:0x00000000
       39515000	      3950	00000000	00000013	addi	x0,x0,0	  x0:0x00000000
       39525000	      3951	800022b4	00000013	addi	x0,x0,0	  x0:0x00000000
       39535000	      3952	800022b8	40d55413	srai	x8,x10,0xd	 x10:0x00000000  x8=0x00000000
       39545000	      3953	800022bc	f5bdb013	sltiu	x0,x27,-165	 x27:0x00000001
       39555000	      3954	800022c0	01a35013	srli	x0,x6,0x1a	  x6:0x00000009
       39565000	      3955	800022c4	046c0663	beq	x24,x6,80002310	 x24:0xe8a00517  x6:0x00000009
       39575000	      3956	800022c8	010da0b3	slt	x1,x27,x16	 x27:0x00000001 x16:0x00000001  x1=0x00000000
       39585000	      3957	800022cc	00a29d93	slli	x27,x5,0xa	  x5:0x8000aa84 x27=0x02aa1000
       39595000	      3958	800022d0	e3c9c813	xori	x16,x19,-452	 x19:0x8000a088 x16=0x7fff5eb4
       39605000	      3959	800022d4	4079d093	srai	x1,x19,0x7	 x19:0x8000a088  x1=0xff000141
       39615000	      3960	800022d8	01c19f33	sll	x30,x3,x28	  x3:0xfffff9f2 x28:0x00000000 x30=0xfffff9f2
       39625000	      3961	800022dc	68917093	andi	x1,x2,1673	  x2:0xffffffff  x1=0x00000689
       39635000	      3962	800022e0	00000013	addi	x0,x0,0	  x0:0x00000000
       39645000	      3963	800022e4	021e4a63	blt	x28,x1,80002318	 x28:0x00000000  x1:0x00000689
       39655000	      3964	00000000	00000013	addi	x0,x0,0	  x0:0x00000000
       39665000	      3965	80002314	00000013	addi	x0,x0,0	  x0:0x00000000
       39675000	      3966	80002318	2cd60993	addi	x19,x12,717	 x12:0x00000000 x19=0x000002cd
       39685000	      3967	8000231c	35116217	auipc	x4,0x35116	  x4=0xb5118318
       39695000	      3968	80002320	001e22b3	slt	x5,x28,x1	 x28:0x00000000  x1:0x00000689  x5=0x00000001
       39705000	      3969	80002324	03e75c63	bge	x14,x30,8000235c	 x14:0xffffffff x30:0xfffff9f2
       39715000	      3970	00000000	00000013	addi	x0,x0,0	  x0:0x00000000
       39725000	      3971	80002358	00000013	addi	x0,x0,0	  x0:0x00000000
       39735000	      3972	8000235c	05a87663	bgeu	x16,x26,800023a8	 x16:0x7fff5eb4 x26:0xe8a00000
       39745000	      3973	80002360	03dd1a63	bne	x26,x29,80002394	 x26:0xe8a00000 x29:0x80009fc4
       39755000	      3974	00000000	00000013	addi	x0,x0,0	  x0:0x00000000
       39765000	      3975	80002390	00000013	addi	x0,x0,0	  x0:0x00000000
       39775000	      3976	80002394	00000013	addi	x0,x0,0	  x0:0x00000000
       39785000	      3977	80002398	00e41793	slli	x15,x8,0xe	  x8:0x00000000 x15=0x00000000
       39795000	      3978	8000239c	05ee5663	bge	x28,x30,800023e8	 x28:0x00000000 x30:0xfffff9f2
       39805000	      3979	00000000	00000013	addi	x0,x0,0	  x0:0x00000000
       39815000	      3980	800023e4	00000013	addi	x0,x0,0	  x0:0x00000000
       39825000	      3981	800023e8	001fd733	srl	x14,x31,x1	 x31:0xfffffb3f  x1:0x00000689 x14=0x007ffffd
       39835000	      3982	800023ec	41e95a33	sra	x20,x18,x30	 x18:0x80009f84 x30:0xfffff9f2 x20=0xffffe000
       39845000	      3983	800023f0	02875863	bge	x14,x8,80002420	 x14:0x007ffffd  x8:0x00000000
       39855000	      3984	00000000	00000013	addi	x0,x0,0	  x0:0x00000000
       39865000	      3985	8000241c	00000013	addi	x0,x0,0	  x0:0x00000000
       39875000	      3986	80002420	0202c863	blt	x5,x0,80002450	  x5:0x00000001  x0:0x00000000
       39885000	      3987	80002424	8a1156b7	lui	x13,0x8a115	 x13=0x8a115000
       39895000	      3988	80002428	00000013	addi	x0,x0,0	  x0:0x00000000
       39905000	      3989	8000242c	01212fb3	slt	x31,x2,x18	  x2:0xffffffff x18:0x80009f84 x31=0x00000000
       39915000	      3990	80002430	019aeab3	or	x21,x21,x25	 x21:0xf8000b3c x25:0xc798e000 x21=0xff98eb3c
       39925000	      3991	80002434	5dd83013	sltiu	x0,x16,1501	 x16:0x7fff5eb4
       39935000	      3992	80002438	018c0033	add	x0,x24,x24	 x24:0xe8a00517 x24:0xe8a00517
       39945000	      3993	8000243c	2d9a4393	xori	x7,x20,729	 x20:0xffffe000  x7=0xffffe2d9
       39955000	      3994	80002440	01d88c63	beq	x17,x29,80002458	 x17:0xfffffe66 x29:0x80009fc4
       39965000	      3995	80002444	407b8cb3	sub	x25,x23,x7	 x23:0x0000013f  x7:0xffffe2d9 x25=0x00001e66
       39975000	      3996	80002448	01817263	bgeu	x2,x24,8000244c	  x2:0xffffffff x24:0xe8a00517
       39985000	      3997	00000000	00000013	addi	x0,x0,0	  x0:0x00000000
       39995000	      3998	80002448	00000013	addi	x0,x0,0	  x0:0x00000000
       40005000	      3999	8000244c	407ad633	sra	x12,x21,x7	 x21:0xff98eb3c  x7:0xffffe2d9 x12=0xffffffff
       40015000	      4000	80002450	ff72ef93	ori	x31,x5,-9	  x5:0x00000001 x31=0xfffffff7
       40025000	      4001	80002454	fc410817	auipc	x16,0xfc410	 x16=0x7c412450
       40035000	      4002	80002458	006a5433	srl	x8,x20,x6	 x20:0xffffe000  x6:0x00000009  x8=0x007ffff0
       40045000	      4003	8000245c	41165d33	sra	x26,x12,x17	 x12:0xffffffff x17:0xfffffe66 x26=0xffffffff
       40055000	      4004	80002460	00f19e13	slli	x28,x3,0xf	  x3:0xfffff9f2 x28=0xfcf90000
       40065000	      4005	80002464	0173fb33	and	x22,x7,x23	  x7:0xffffe2d9 x23:0x0000013f x22=0x00000019
       40075000	      4006	80002468	052fd063	bge	x31,x18,800024a8	 x31:0xfffffff7 x18:0x80009f84
       40085000	      4007	00000000	00000013	addi	x0,x0,0	  x0:0x00000000
       40095000	      4008	800024a4	00000013	addi	x0,x0,0	  x0:0x00000000
       40105000	      4009	800024a8	46c48d13	addi	x26,x9,1132	  x9:0xffffffff x26=0x0000046b
       40115000	      4010	800024ac	03f8f463	bgeu	x17,x31,800024d4	 x17:0xfffffe66 x31:0xfffffff7
       40125000	      4011	800024b0	5438ea13	ori	x20,x17,1347	 x17:0xfffffe66 x20=0xffffff67
       40135000	      4012	800024b4	0c154263	blt	x10,x1,80002578	 x10:0x00000000  x1:0x00000689
       40145000	      4013	00000000	00000013	addi	x0,x0,0	  x0:0x00000000
       40155000	      4014	80002574	00000013	addi	x0,x0,0	  x0:0x00000000
       40165000	      4015	80002578	011fd513	srli	x10,x31,0x11	 x31:0xfffffff7 x10=0x00007fff
       40175000	      4016	8000257c	f26be613	ori	x12,x23,-218	 x23:0x0000013f x12=0xffffff3f
       40185000	      4017	80002580	bff5dcb7	lui	x25,0xbff5d	 x25=0xbff5d000
       40195000	      4018	80002584	01451733	sll	x14,x10,x20	 x10:0x00007fff x20:0xffffff67 x14=0x003fff80
       40205000	      4019	80002588	eabf7e13	andi	x28,x30,-341	 x30:0xfffff9f2 x28=0xfffff8a2
       40215000	      4020	8000258c	ff9a4893	xori	x17,x20,-7	 x20:0xffffff67 x17=0x0000009e
       40225000	      4021	80002590	dfa6e613	ori	x12,x13,-518	 x13:0x8a115000 x12=0xfffffdfa
       40235000	      4022	80002594	3457fc13	andi	x24,x15,837	 x15:0x00000000 x24=0x00000000
       40245000	      4023	80002598	0090aa33	slt	x20,x1,x9	  x1:0x00000689  x9:0xffffffff x20=0x00000000
       40255000	      4024	8000259c	bf2c7193	andi	x3,x24,-1038	 x24:0x00000000  x3=0x00000000
       40265000	      4025	800025a0	8896cd93	xori	x27,x13,-1911	 x13:0x8a115000 x27=0x75eea889
       40275000	      4026	800025a4	00c0f5b3	and	x11,x1,x12	  x1:0x00000689 x12:0xfffffdfa x11=0x00000488
       40285000	      4027	800025a8	fabc7e13	andi	x28,x24,-85	 x24:0x00000000 x28=0x00000000
       40295000	      4028	800025ac	01b6d463	bge	x13,x27,800025b4	 x13:0x8a115000 x27:0x75eea889
       40305000	      4029	800025b0	41f65fb3	sra	x31,x12,x31	 x12:0xfffffdfa x31:0xfffffff7 x31=0xffffffff
       40315000	      4030	800025b4	93c3af37	lui	x30,0x93c3a	 x30=0x93c3a000
       40325000	      4031	800025b8	00f45213	srli	x4,x8,0xf	  x8:0x007ffff0  x4=0x000000ff
       40335000	      4032	800025bc	5b1ca893	slti	x17,x25,1457	 x25:0xbff5d000 x17=0x00000001
       40345000	      4033	800025c0	69df0993	addi	x19,x30,1693	 x30:0x93c3a000 x19=0x93c3a69d
       40355000	      4034	800025c4	018bd8b3	srl	x17,x23,x24	 x23:0x0000013f x24:0x00000000 x17=0x0000013f
       40365000	      4035	800025c8	01a11cb3	sll	x25,x2,x26	  x2:0xffffffff x26:0x0000046b x25=0xfffff800
       40375000	      4036	800025cc	40a40db3	sub	x27,x8,x10	  x8:0x007ffff0 x10:0x00007fff x27=0x007f7ff1
       40385000	      4037	800025d0	03ff6463	bltu	x30,x31,800025f8	 x30:0x93c3a000 x31:0xffffffff
       40395000	      4038	00000000	00000013	addi	x0,x0,0	  x0:0x00000000
       40405000	      4039	800025f4	00000013	addi	x0,x0,0	  x0:0x00000000
       40415000	      4040	800025f8	403c05b3	sub	x11,x24,x3	 x24:0x00000000  x3:0x00000000 x11=0x00000000
       40425000	      4041	800025fc	4004dcb3	sra	x25,x9,x0	  x9:0xffffffff  x0:0x00000000 x25=0xffffffff
       40435000	      4042	80002600	00000013	addi	x0,x0,0	  x0:0x00000000
       40445000	      4043	80002604	01ccb133	sltu	x2,x25,x28	 x25:0xffffffff x28:0x00000000  x2=0x00000000
       40455000	      4044	80002608	03fd8a63	beq	x27,x31,8000263c	 x27:0x007f7ff1 x31:0xffffffff
       40465000	      4045	8000260c	405d08b3	sub	x17,x26,x5	 x26:0x0000046b  x5:0x00000001 x17=0x0000046a
       40475000	      4046	80002610	01fa9d13	slli	x26,x21,0x1f	 x21:0xff98eb3c x26=0x00000000
       40485000	      4047	80002614	ddf32497	auipc	x9,0xddf32	  x9=0x5df34610
       40495000	      4048	80002618	01f49533	sll	x10,x9,x31	  x9:0x5df34610 x31:0xffffffff x10=0x00000000
       40505000	      4049	8000261c	6f923b93	sltiu	x23,x4,1785	  x4:0x000000ff x23=0x00000001
       40515000	      4050	80002620	01c01613	slli	x12,x0,0x1c	  x0:0x00000000 x12=0x00000000
       40525000	      4051	80002624	00455c33	srl	x24,x10,x4	 x10:0x00000000  x4:0x000000ff x24=0x00000000
       40535000	      4052	80002628	016df9b3	and	x19,x27,x22	 x27:0x007f7ff1 x22:0x00000019 x19=0x00000011
       40545000	      4053	8000262c	00025c13	srli	x24,x4,0x0	  x4:0x000000ff x24=0x000000ff
       40555000	      4054	80002630	40ec5db3	sra	x27,x24,x14	 x24:0x000000ff x14:0x003fff80 x27=0x000000ff
       40565000	      4055	80002634	2fadfc93	andi	x25,x27,762	 x27:0x000000ff x25=0x000000fa
       40575000	      4056	80002638	2cbf3fb7	lui	x31,0x2cbf3	 x31=0x2cbf3000
       40585000	      4057	8000263c	00714633	xor	x12,x2,x7	  x2:0x00000000  x7:0xffffe2d9 x12=0xffffe2d9
       40595000	      4058	80002640	e3f5b517	auipc	x10,0xe3f5b	 x10=0x63f5d63c
       40605000	      4059	80002644	ff85fd93	andi	x27,x11,-8	 x11:0x00000000 x27=0x00000000
       40615000	      4060	80002648	7325a793	slti	x15,x11,1842	 x11:0x00000000 x15=0x00000001
       40625000	      4061	8000264c	4019dd93	srai	x27,x19,0x1	 x19:0x00000011 x27=0x00000008
       40635000	      4062	80002650	01b44463	blt	x8,x27,80002658	  x8:0x007ffff0 x27:0x00000008
       40645000	      4063	80002654	00075193	srli	x3,x14,0x0	 x14:0x003fff80  x3=0x003fff80
       40655000	      4064	80002658	00bc4463	blt	x24,x11,80002660	 x24:0x000000ff x11:0x00000000
       40665000	      4065	8000265c	01f3e8b3	or	x17,x7,x31	  x7:0xffffe2d9 x31:0x2cbf3000 x17=0xfffff2d9
       40675000	      4066	80002660	00000013	addi	x0,x0,0	  x0:0x00000000
       40685000	      4067	80002664	017c89b3	add	x19,x25,x23	 x25:0x000000fa x23:0x00000001 x19=0x000000fb
       40695000	      4068	80002668	410dd033	sra	x0,x27,x16	 x27:0x00000008 x16:0x7c412450
       40705000	      4069	8000266c	00ac5b13	srli	x22,x24,0xa	 x24:0x000000ff x22=0x00000000
       40715000	      4070	80002670	68046d97	auipc	x27,0x68046	 x27=0xe804866c
       40725000	      4071	80002674	8b6e42b7	lui	x5,0x8b6e4	  x5=0x8b6e4000
       40735000	      4072	80002678	00983133	sltu	x2,x16,x9	 x16:0x7c412450  x9:0x5df34610  x2=0x00000000
       40745000	      4073	8000267c	3240ba17	auipc	x20,0x3240b	 x20=0xb240d678
       40755000	      4074	80002680	00d0d133	srl	x2,x1,x13	  x1:0x00000689 x13:0x8a115000  x2=0x00000689
       40765000	      4075	80002684	00d91c33	sll	x24,x18,x13	 x18:0x80009f84 x13:0x8a115000 x24=0x80009f84
       40775000	      4076	80002688	00f7edb3	or	x27,x15,x15	 x15:0x00000001 x15:0x00000001 x27=0x00000001
       40785000	      4077	8000268c	e6fb6a13	ori	x20,x22,-401	 x22:0x00000000 x20=0xfffffe6f
       40795000	      4078	80002690	221dea13	ori	x20,x27,545	 x27:0x00000001 x20=0x00000221
       40805000	      4079	80002694	a9f87413	andi	x8,x16,-1377	 x16:0x7c412450  x8=0x7c412010
       40815000	      4080	80002698	c5d26cb7	lui	x25,0xc5d26	 x25=0xc5d26000
       40825000	      4081	8000269c	014ee2b3	or	x5,x29,x20	 x29:0x80009fc4 x20:0x00000221  x5=0x80009fe5
       40835000	      4082	800026a0	406c5c13	srai	x24,x24,0x6	 x24:0x80009f84 x24=0xfe00027e
       40845000	      4083	800026a4	00121c63	bne	x4,x1,800026bc	  x4:0x000000ff  x1:0x00000689
       40855000	      4084	00000000	00000013	addi	x0,x0,0	  x0:0x00000000
       40865000	      4085	800026b8	00000013	addi	x0,x0,0	  x0:0x00000000
       40875000	      4086	800026bc	01466e63	bltu	x12,x20,800026d8	 x12:0xffffe2d9 x20:0x00000221
       40885000	      4087	800026c0	04270463	beq	x14,x2,80002708	 x14:0x003fff80  x2:0x00000689
       40895000	      4088	800026c4	02fdd863	bge	x27,x15,800026f4	 x27:0x00000001 x15:0x00000001
       40905000	      4089	00000000	00000013	addi	x0,x0,0	  x0:0x00000000
       40915000	      4090	800026f0	00000013	addi	x0,x0,0	  x0:0x00000000
       40925000	      4091	800026f4	00ff9533	sll	x10,x31,x15	 x31:0x2cbf3000 x15:0x00000001 x10=0x597e6000
       40935000	      4092	800026f8	00369433	sll	x8,x13,x3	 x13:0x8a115000  x3:0x003fff80  x8=0x8a115000
       40945000	      4093	800026fc	406a5ab3	sra	x21,x20,x6	 x20:0x00000221  x6:0x00000009 x21=0x00000001
       40955000	      4094	80002700	40175633	sra	x12,x14,x1	 x14:0x003fff80  x1:0x00000689 x12=0x00001fff
       40965000	      4095	80002704	74028a13	addi	x20,x5,1856	  x5:0x80009fe5 x20=0x8000a725
       40975000	      4096	80002708	404d8cb3	sub	x25,x27,x4	 x27:0x00000001  x4:0x000000ff x25=0xffffff02
       40985000	      4097	8000270c	ea2fe813	ori	x16,x31,-350	 x31:0x2cbf3000 x16=0xfffffea2
       40995000	      4098	80002710	03b4fa63	bgeu	x9,x27,80002744	  x9:0x5df34610 x27:0x00000001
       41005000	      4099	00000000	00000013	addi	x0,x0,0	  x0:0x00000000
       41015000	      4100	80002740	00000013	addi	x0,x0,0	  x0:0x00000000
       41025000	      4101	80002744	00eb7c63	bgeu	x22,x14,8000275c	 x22:0x00000000 x14:0x003fff80
       41035000	      4102	80002748	015c7ab3	and	x21,x24,x21	 x24:0xfe00027e x21:0x00000001 x21=0x00000000
       41045000	      4103	8000274c	01f65513	srli	x10,x12,0x1f	 x12:0x00001fff x10=0x00000000
       41055000	      4104	80002750	f2e6a413	slti	x8,x13,-210	 x13:0x8a115000  x8=0x00000001
       41065000	      4105	80002754	41f2dd33	sra	x26,x5,x31	  x5:0x80009fe5 x31:0x2cbf3000 x26=0x80009fe5
       41075000	      4106	80002758	59a76d13	ori	x26,x14,1434	 x14:0x003fff80 x26=0x003fff9a
       41085000	      4107	8000275c	0280c463	blt	x1,x8,80002784	  x1:0x00000689  x8:0x00000001
       41095000	      4108	80002760	41f6d8b3	sra	x17,x13,x31	 x13:0x8a115000 x31:0x2cbf3000 x17=0x8a115000
       41105000	      4109	80002764	0030fd33	and	x26,x1,x3	  x1:0x00000689  x3:0x003fff80 x26=0x00000680
       41115000	      4110	80002768	9692ca93	xori	x21,x5,-1687	  x5:0x80009fe5 x21=0x7fff668c
       41125000	      4111	8000276c	03990a63	beq	x18,x25,800027a0	 x18:0x80009f84 x25:0xffffff02
       41135000	      4112	80002770	0227e863	bltu	x15,x2,800027a0	 x15:0x00000001  x2:0x00000689
       41145000	      4113	00000000	00000013	addi	x0,x0,0	  x0:0x00000000
       41155000	      4114	8000279c	00000013	addi	x0,x0,0	  x0:0x00000000
       41165000	      4115	800027a0	0048f9b3	and	x19,x17,x4	 x17:0x8a115000  x4:0x000000ff x19=0x00000000
       41175000	      4116	800027a4	049d8663	beq	x27,x9,800027f0	 x27:0x00000001  x9:0x5df34610
       41185000	      4117	800027a8	00e0d463	bge	x1,x14,800027b0	  x1:0x00000689 x14:0x003fff80
       41195000	      4118	800027ac	00000013	addi	x0,x0,0	  x0:0x00000000
       41205000	      4119	800027b0	01ff1033	sll	x0,x30,x31	 x30:0x93c3a000 x31:0x2cbf3000
       41215000	      4120	800027b4	00841f33	sll	x30,x8,x8	  x8:0x00000001  x8:0x00000001 x30=0x00000002
       41225000	      4121	800027b8	0150efb3	or	x31,x1,x21	  x1:0x00000689 x21:0x7fff668c x31=0x7fff668d
       41235000	      4122	800027bc	03e78463	beq	x15,x30,800027e4	 x15:0x00000001 x30:0x00000002
       41245000	      4123	800027c0	00c50e33	add	x28,x10,x12	 x10:0x00000000 x12:0x00001fff x28=0x00001fff
       41255000	      4124	800027c4	0067f5b3	and	x11,x15,x6	 x15:0x00000001  x6:0x00000009 x11=0x00000001
       41265000	      4125	800027c8	00cb1cb3	sll	x25,x22,x12	 x22:0x00000000 x12:0x00001fff x25=0x00000000
       41275000	      4126	800027cc	018e4863	blt	x28,x24,800027dc	 x28:0x00001fff x24:0xfe00027e
       41285000	      4127	800027d0	02fb9863	bne	x23,x15,80002800	 x23:0x00000001 x15:0x00000001
       41295000	      4128	800027d4	00a74ab3	xor	x21,x14,x10	 x14:0x003fff80 x10:0x00000000 x21=0x003fff80
       41305000	      4129	800027d8	01714433	xor	x8,x2,x23	  x2:0x00000689 x23:0x00000001  x8=0x00000688
       41315000	      4130	800027dc	0059c833	xor	x16,x19,x5	 x19:0x00000000  x5:0x80009fe5 x16=0x80009fe5
       41325000	      4131	800027e0	013c4cb3	xor	x25,x24,x19	 x24:0xfe00027e x19:0x00000000 x25=0xfe00027e
       41335000	      4132	800027e4	0020ca33	xor	x20,x1,x2	  x1:0x00000689  x2:0x00000689 x20=0x00000000
       41345000	      4133	800027e8	a49be193	ori	x3,x23,-1463	 x23:0x00000001  x3=0xfffffa49
       41355000	      4134	800027ec	40425793	srai	x15,x4,0x4	  x4:0x000000ff x15=0x0000000f
       41365000	      4135	800027f0	012dd833	srl	x16,x27,x18	 x27:0x00000001 x18:0x80009f84 x16=0x00000000
       41375000	      4136	800027f4	01650833	add	x16,x10,x22	 x10:0x00000000 x22:0x00000000 x16=0x00000000
       41385000	      4137	800027f8	f58a7593	andi	x11,x20,-168	 x20:0x00000000 x11=0x00000000
       41395000	      4138	800027fc	5e583593	sltiu	x11,x16,1509	 x16:0x00000000 x11=0x00000001
       41405000	      4139	80002800	912f4b13	xori	x22,x30,-1774	 x30:0x00000002 x22=0xfffff910
       41415000	      4140	80002804	00000013	addi	x0,x0,0	  x0:0x00000000
       41425000	      4141	80002808	01a1b833	sltu	x16,x3,x26	  x3:0xfffffa49 x26:0x00000680 x16=0x00000000
       41435000	      4142	8000280c	00000013	addi	x0,x0,0	  x0:0x00000000
       41445000	      4143	80002810	002cec63	bltu	x25,x2,80002828	 x25:0xfe00027e  x2:0x00000689
       41455000	      4144	80002814	04d6f063	bgeu	x13,x13,80002854	 x13:0x8a115000 x13:0x8a115000
       41465000	      4145	00000000	00000013	addi	x0,x0,0	  x0:0x00000000
       41475000	      4146	80002850	00000013	addi	x0,x0,0	  x0:0x00000000
       41485000	      4147	80002854	00a34033	xor	x0,x6,x10	  x6:0x00000009 x10:0x00000000
       41495000	      4148	80002858	00000013	addi	x0,x0,0	  x0:0x00000000
       41505000	      4149	8000285c	3ce22493	slti	x9,x4,974	  x4:0x000000ff  x9=0x00000001
       41515000	      4150	80002860	00000013	addi	x0,x0,0	  x0:0x00000000
       41525000	      4151	80002864	0024b7b3	sltu	x15,x9,x2	  x9:0x00000001  x2:0x00000689 x15=0x00000001
       41535000	      4152	80002868	022b7463	bgeu	x22,x2,80002890	 x22:0xfffff910  x2:0x00000689
       41545000	      4153	00000000	00000013	addi	x0,x0,0	  x0:0x00000000
       41555000	      4154	8000288c	00000013	addi	x0,x0,0	  x0:0x00000000
       41565000	      4155	80002890	00e0ffb3	and	x31,x1,x14	  x1:0x00000689 x14:0x003fff80 x31=0x00000680
       41575000	      4156	80002894	00529db3	sll	x27,x5,x5	  x5:0x80009fe5  x5:0x80009fe5 x27=0x0013fca0
       41585000	      4157	80002898	01205f33	srl	x30,x0,x18	  x0:0x00000000 x18:0x80009f84 x30=0x00000000
       41595000	      4158	8000289c	00000013	addi	x0,x0,0	  x0:0x00000000
       41605000	      4159	800028a0	f9fb3ab7	lui	x21,0xf9fb3	 x21=0xf9fb3000
       41615000	      4160	800028a4	41ec06b3	sub	x13,x24,x30	 x24:0xfe00027e x30:0x00000000 x13=0xfe00027e
       41625000	      4161	800028a8	60f4e513	ori	x10,x9,1551	  x9:0x00000001 x10=0x0000060f
       41635000	      4162	800028ac	00a041b3	xor	x3,x0,x10	  x0:0x00000000 x10:0x0000060f  x3=0x0000060f
       41645000	      4163	800028b0	6153a693	slti	x13,x7,1557	  x7:0xffffe2d9 x13=0x00000001
       41655000	      4164	800028b4	00c6ed33	or	x26,x13,x12	 x13:0x00000001 x12:0x00001fff x26=0x00001fff
       41665000	      4165	800028b8	e00b0713	addi	x14,x22,-512	 x22:0xfffff910 x14=0xfffff710
       41675000	      4166	800028bc	4057d0b3	sra	x1,x15,x5	 x15:0x00000001  x5:0x80009fe5  x1=0x00000000
       41685000	      4167	800028c0	4185df93	srai	x31,x11,0x18	 x11:0x00000001 x31=0x00000000
       41695000	      4168	800028c4	76b8be37	lui	x28,0x76b8b	 x28=0x76b8b000
       41705000	      4169	800028c8	03106063	bltu	x0,x17,800028e8	  x0:0x00000000 x17:0x8a115000
       41715000	      4170	00000000	00000013	addi	x0,x0,0	  x0:0x00000000
       41725000	      4171	800028e4	00000013	addi	x0,x0,0	  x0:0x00000000
       41735000	      4172	800028e8	01b1c9b7	lui	x19,0x1b1c	 x19=0x01b1c000
       41745000	      4173	800028ec	039cd063	bge	x25,x25,8000290c	 x25:0xfe00027e x25:0xfe00027e
       41755000	      4174	00000000	00000013	addi	x0,x0,0	  x0:0x00000000
       41765000	      4175	80002908	00000013	addi	x0,x0,0	  x0:0x00000000
       41775000	      4176	8000290c	7bccc893	xori	x17,x25,1980	 x25:0xfe00027e x17=0xfe0005c2
       41785000	      4177	80002910	004429b3	slt	x19,x8,x4	  x8:0x00000688  x4:0x000000ff x19=0x00000000
       41795000	      4178	80002914	f3852e13	slti	x28,x10,-200	 x10:0x0000060f x28=0x00000000
       41805000	      4179	80002918	014cf263	bgeu	x25,x20,8000291c	 x25:0xfe00027e x20:0x00000000
       41815000	      4180	00000000	00000013	addi	x0,x0,0	  x0:0x00000000
       41825000	      4181	80002918	00000013	addi	x0,x0,0	  x0:0x00000000
       41835000	      4182	8000291c	00aacfb3	xor	x31,x21,x10	 x21:0xf9fb3000 x10:0x0000060f x31=0xf9fb360f
       41845000	      4183	80002920	018d7463	bgeu	x26,x24,80002928	 x26:0x00001fff x24:0xfe00027e
       41855000	      4184	80002924	01cd4463	blt	x26,x28,8000292c	 x26:0x00001fff x28:0x00000000
       41865000	      4185	80002928	00196433	or	x8,x18,x1	 x18:0x80009f84  x1:0x00000000  x8=0x80009f84
       41875000	      4186	8000292c	003cd993	srli	x19,x25,0x3	 x25:0xfe00027e x19=0x1fc0004f
       41885000	      4187	80002930	c2d5ba93	sltiu	x21,x11,-979	 x11:0x00000001 x21=0x00000001
       41895000	      4188	80002934	01e28433	add	x8,x5,x30	  x5:0x80009fe5 x30:0x00000000  x8=0x80009fe5
       41905000	      4189	80002938	db25bd13	sltiu	x26,x11,-590	 x11:0x00000001 x26=0x00000001
       41915000	      4190	8000293c	08d7ca97	auipc	x21,0x8d7c	 x21=0x88d7e938
       41925000	      4191	80002940	41cb81b3	sub	x3,x23,x28	 x23:0x00000001 x28:0x00000000  x3=0x00000001
       41935000	      4192	80002944	bbd4c413	xori	x8,x9,-1091	  x9:0x00000001  x8=0xfffffbbc
       41945000	      4193	80002948	f2fc4793	xori	x15,x24,-209	 x24:0xfe00027e x15=0x01fffd51
       41955000	      4194	8000294c	004c79b3	and	x19,x24,x4	 x24:0xfe00027e  x4:0x000000ff x19=0x0000007e
       41965000	      4195	80002950	8b49c713	xori	x14,x19,-1868	 x19:0x0000007e x14=0xfffff8ca
       41975000	      4196	80002954	01689463	bne	x17,x22,8000295c	 x17:0xfe0005c2 x22:0xfffff910
       41985000	      4197	00000000	00000013	addi	x0,x0,0	  x0:0x00000000
       41995000	      4198	80002958	00000013	addi	x0,x0,0	  x0:0x00000000
       42005000	      4199	8000295c	0566cc93	xori	x25,x13,86	 x13:0x00000001 x25=0x00000057
       42015000	      4200	80002960	016a5b33	srl	x22,x20,x22	 x20:0x00000000 x22:0xfffff910 x22=0x00000000
       42025000	      4201	80002964	377a7a13	andi	x20,x20,887	 x20:0x00000000 x20=0x00000000
       42035000	      4202	80002968	fa354d93	xori	x27,x10,-93	 x10:0x0000060f x27=0xfffff9ac
       42045000	      4203	8000296c	03f0f063	bgeu	x1,x31,8000298c	  x1:0x00000000 x31:0xf9fb360f
       42055000	      4204	80002970	ef816c17	auipc	x24,0xef816	 x24=0x6f81896c
       42065000	      4205	80002974	d59b2f13	slti	x30,x22,-679	 x22:0x00000000 x30=0x00000000
       42075000	      4206	80002978	0369d863	bge	x19,x22,800029a8	 x19:0x0000007e x22:0x00000000
       42085000	      4207	00000000	00000013	addi	x0,x0,0	  x0:0x00000000
       42095000	      4208	800029a4	00000013	addi	x0,x0,0	  x0:0x00000000
       42105000	      4209	800029a8	8d05cc13	xori	x24,x11,-1840	 x11:0x00000001 x24=0xfffff8d1
       42115000	      4210	800029ac	01b6a2b3	slt	x5,x13,x27	 x13:0x00000001 x27:0xfffff9ac  x5=0x00000000
       42125000	      4211	800029b0	26a2cf13	xori	x30,x5,618	  x5:0x00000000 x30=0x0000026a
       42135000	      4212	800029b4	028de463	bltu	x27,x8,800029dc	 x27:0xfffff9ac  x8:0xfffffbbc
       42145000	      4213	00000000	00000013	addi	x0,x0,0	  x0:0x00000000
       42155000	      4214	800029d8	00000013	addi	x0,x0,0	  x0:0x00000000
       42165000	      4215	800029dc	01a85033	srl	x0,x16,x26	 x16:0x00000000 x26:0x00000001
       42175000	      4216	800029e0	006324b3	slt	x9,x6,x6	  x6:0x00000009  x6:0x00000009  x9=0x00000000
       42185000	      4217	800029e4	109ff837	lui	x16,0x109ff	 x16=0x109ff000
       42195000	      4218	800029e8	0d7dda37	lui	x20,0xd7dd	 x20=0x0d7dd000
       42205000	      4219	800029ec	00121c63	bne	x4,x1,80002a04	  x4:0x000000ff  x1:0x00000000
       42215000	      4220	00000000	00000013	addi	x0,x0,0	  x0:0x00000000
       42225000	      4221	80002a00	00000013	addi	x0,x0,0	  x0:0x00000000
       42235000	      4222	80002a04	87082513	slti	x10,x16,-1936	 x16:0x109ff000 x10=0x00000000
       42245000	      4223	80002a08	04a51063	bne	x10,x10,80002a48	 x10:0x00000000 x10:0x00000000
       42255000	      4224	80002a0c	00f235b3	sltu	x11,x4,x15	  x4:0x000000ff x15:0x01fffd51 x11=0x00000001
       42265000	      4225	80002a10	0114dd33	srl	x26,x9,x17	  x9:0x00000000 x17:0xfe0005c2 x26=0x00000000
       42275000	      4226	80002a14	00c25613	srli	x12,x4,0xc	  x4:0x000000ff x12=0x00000000
       42285000	      4227	80002a18	06dfe293	ori	x5,x31,109	 x31:0xf9fb360f  x5=0xf9fb366f
       42295000	      4228	80002a1c	03015063	bge	x2,x16,80002a3c	  x2:0x00000689 x16:0x109ff000
       42305000	      4229	80002a20	01c13033	sltu	x0,x2,x28	  x2:0x00000689 x28:0x00000000
       42315000	      4230	80002a24	0373d463	bge	x7,x23,80002a4c	  x7:0xffffe2d9 x23:0x00000001
       42325000	      4231	80002a28	b58f3b13	sltiu	x22,x30,-1192	 x30:0x0000026a x22=0x00000001
       42335000	      4232	80002a2c	05d68663	beq	x13,x29,80002a78	 x13:0x00000001 x29:0x80009fc4
       42345000	      4233	80002a30	002598b3	sll	x17,x11,x2	 x11:0x00000001  x2:0x00000689 x17=0x00000200
       42355000	      4234	80002a34	04955663	bge	x10,x9,80002a80	 x10:0x00000000  x9:0x00000000
       42365000	      4235	00000000	00000013	addi	x0,x0,0	  x0:0x00000000
       42375000	      4236	80002a7c	00000013	addi	x0,x0,0	  x0:0x00000000
       42385000	      4237	80002a80	01ca1ab3	sll	x21,x20,x28	 x20:0x0d7dd000 x28:0x00000000 x21=0x0d7dd000
       42395000	      4238	80002a84	40e081b3	sub	x3,x1,x14	  x1:0x00000000 x14:0xfffff8ca  x3=0x00000736
       42405000	      4239	80002a88	00ed5f33	srl	x30,x26,x14	 x26:0x00000000 x14:0xfffff8ca x30=0x00000000
       42415000	      4240	80002a8c	052f7663	bgeu	x30,x18,80002ad8	 x30:0x00000000 x18:0x80009f84
       42425000	      4241	80002a90	020a8a63	beq	x21,x0,80002ac4	 x21:0x0d7dd000  x0:0x00000000
       42435000	      4242	80002a94	00948ab3	add	x21,x9,x9	  x9:0x00000000  x9:0x00000000 x21=0x00000000
       42445000	      4243	80002a98	f4668893	addi	x17,x13,-186	 x13:0x00000001 x17=0xffffff47
       42455000	      4244	80002a9c	056f6063	bltu	x30,x22,80002adc	 x30:0x00000000 x22:0x00000001
       42465000	      4245	00000000	00000013	addi	x0,x0,0	  x0:0x00000000
       42475000	      4246	80002ad8	00000013	addi	x0,x0,0	  x0:0x00000000
       42485000	      4247	80002adc	00129193	slli	x3,x5,0x1	  x5:0xf9fb366f  x3=0xf3f66cde
       42495000	      4248	80002ae0	00164533	xor	x10,x12,x1	 x12:0x00000000  x1:0x00000000 x10=0x00000000
       42505000	      4249	80002ae4	e36e3613	sltiu	x12,x28,-458	 x28:0x00000000 x12=0x00000001
       42515000	      4250	80002ae8	408a8fb3	sub	x31,x21,x8	 x21:0x00000000  x8:0xfffffbbc x31=0x00000444
       42525000	      4251	80002aec	6fe8fdb7	lui	x27,0x6fe8f	 x27=0x6fe8f000
       42535000	      4252	80002af0	d82c0d93	addi	x27,x24,-638	 x24:0xfffff8d1 x27=0xfffff653
       42545000	      4253	80002af4	02cc9463	bne	x25,x12,80002b1c	 x25:0x00000057 x12:0x00000001
       42555000	      4254	00000000	00000013	addi	x0,x0,0	  x0:0x00000000
       42565000	      4255	80002b18	00000013	addi	x0,x0,0	  x0:0x00000000
       42575000	      4256	80002b1c	013e78b3	and	x17,x28,x19	 x28:0x00000000 x19:0x0000007e x17=0x00000000
       42585000	      4257	80002b20	09948a63	beq	x9,x25,80002bb4	  x9:0x00000000 x25:0x00000057
       42595000	      4258	80002b24	55073597	auipc	x11,0x55073	 x11=0xd5075b20
       42605000	      4259	80002b28	01424e63	blt	x4,x20,80002b44	  x4:0x000000ff x20:0x0d7dd000
       42615000	      4260	00000000	00000013	addi	x0,x0,0	  x0:0x00000000
       42625000	      4261	80002b40	00000013	addi	x0,x0,0	  x0:0x00000000
       42635000	      4262	80002b44	013d50b3	srl	x1,x26,x19	 x26:0x00000000 x19:0x0000007e  x1=0x00000000
       42645000	      4263	80002b48	5a2a2897	auipc	x17,0x5a2a2	 x17=0xda2a4b44
       42655000	      4264	80002b4c	0877da63	bge	x15,x7,80002be0	 x15:0x01fffd51  x7:0xffffe2d9
       42665000	      4265	00000000	00000013	addi	x0,x0,0	  x0:0x00000000
       42675000	      4266	80002bdc	00000013	addi	x0,x0,0	  x0:0x00000000
       42685000	      4267	80002be0	008cc733	xor	x14,x25,x8	 x25:0x00000057  x8:0xfffffbbc x14=0xfffffbeb
       42695000	      4268	80002be4	00000013	addi	x0,x0,0	  x0:0x00000000
       42705000	      4269	80002be8	01daa033	slt	x0,x21,x29	 x21:0x00000000 x29:0x80009fc4
       42715000	      4270	80002bec	00000013	addi	x0,x0,0	  x0:0x00000000
       42725000	      4271	80002bf0	049a5d37	lui	x26,0x49a5	 x26=0x049a5000
       42735000	      4272	80002bf4	0246d463	bge	x13,x4,80002c1c	 x13:0x00000001  x4:0x000000ff
       42745000	      4273	80002bf8	00b17833	and	x16,x2,x11	  x2:0x00000689 x11:0xd5075b20 x16=0x00000200
       42755000	      4274	80002bfc	00150ab3	add	x21,x10,x1	 x10:0x00000000  x1:0x00000000 x21=0x00000000
       42765000	      4275	80002c00	e594ba13	sltiu	x20,x9,-423	  x9:0x00000000 x20=0x00000001
       42775000	      4276	80002c04	014a5f93	srli	x31,x20,0x14	 x20:0x00000001 x31=0x00000000
       42785000	      4277	80002c08	b5db0793	addi	x15,x22,-1187	 x22:0x00000001 x15=0xfffffb5e
       42795000	      4278	80002c0c	40d9d633	sra	x12,x19,x13	 x19:0x0000007e x13:0x00000001 x12=0x0000003f
       42805000	      4279	80002c10	aa0ec113	xori	x2,x29,-1376	 x29:0x80009fc4  x2=0x7fff6564
       42815000	      4280	80002c14	011fbfb3	sltu	x31,x31,x17	 x31:0x00000000 x17:0xda2a4b44 x31=0x00000001
       42825000	      4281	80002c18	0170f433	and	x8,x1,x23	  x1:0x00000000 x23:0x00000001  x8=0x00000000
       42835000	      4282	80002c1c	01479463	bne	x15,x20,80002c24	 x15:0xfffffb5e x20:0x00000001
       42845000	      4283	00000000	00000013	addi	x0,x0,0	  x0:0x00000000
       42855000	      4284	80002c20	00000013	addi	x0,x0,0	  x0:0x00000000
       42865000	      4285	80002c24	0421f463	bgeu	x3,x2,80002c6c	  x3:0xf3f66cde  x2:0x7fff6564
       42875000	      4286	00000000	00000013	addi	x0,x0,0	  x0:0x00000000
       42885000	      4287	80002c68	00000013	addi	x0,x0,0	  x0:0x00000000
       42895000	      4288	80002c6c	036ee463	bltu	x29,x22,80002c94	 x29:0x80009fc4 x22:0x00000001
       42905000	      4289	80002c70	00bc8c63	beq	x25,x11,80002c88	 x25:0x00000057 x11:0xd5075b20
       42915000	      4290	80002c74	8f21e013	ori	x0,x3,-1806	  x3:0xf3f66cde
       42925000	      4291	80002c78	0029d413	srli	x8,x19,0x2	 x19:0x0000007e  x8=0x0000001f
       42935000	      4292	80002c7c	414b0633	sub	x12,x22,x20	 x22:0x00000001 x20:0x00000001 x12=0x00000000
       42945000	      4293	80002c80	004b7f13	andi	x30,x22,4	 x22:0x00000001 x30=0x00000000
       42955000	      4294	80002c84	0faaf997	auipc	x19,0xfaaf	 x19=0x8fab1c80
       42965000	      4295	80002c88	14cfc993	xori	x19,x31,332	 x31:0x00000001 x19=0x0000014d
       42975000	      4296	80002c8c	10505b17	auipc	x22,0x10505	 x22=0x90507c88
       42985000	      4297	80002c90	b297be13	sltiu	x28,x15,-1239	 x15:0xfffffb5e x28=0x00000000
       42995000	      4298	80002c94	48173593	sltiu	x11,x14,1153	 x14:0xfffffbeb x11=0x00000000
       43005000	      4299	80002c98	03888063	beq	x17,x24,80002cb8	 x17:0xda2a4b44 x24:0xfffff8d1
       43015000	      4300	80002c9c	385aa113	slti	x2,x21,901	 x21:0x00000000  x2=0x00000001
       43025000	      4301	80002ca0	41d2dab3	sra	x21,x5,x29	  x5:0xf9fb366f x29:0x80009fc4 x21=0xff9fb366
       43035000	      4302	80002ca4	d7de7593	andi	x11,x28,-643	 x28:0x00000000 x11=0x00000000
       43045000	      4303	80002ca8	d469b613	sltiu	x12,x19,-698	 x19:0x0000014d x12=0x00000001
       43055000	      4304	80002cac	00bb1463	bne	x22,x11,80002cb4	 x22:0x90507c88 x11:0x00000000
       43065000	      4305	00000000	00000013	addi	x0,x0,0	  x0:0x00000000
       43075000	      4306	80002cb0	00000013	addi	x0,x0,0	  x0:0x00000000
       43085000	      4307	80002cb4	00c7f4b3	and	x9,x15,x12	 x15:0xfffffb5e x12:0x00000001  x9=0x00000000
       43095000	      4308	80002cb8	1f6c8b13	addi	x22,x25,502	 x25:0x00000057 x22=0x0000024d
       43105000	      4309	80002cbc	7f3def13	ori	x30,x27,2035	 x27:0xfffff653 x30=0xfffff7f3
       43115000	      4310	80002cc0	000b8233	add	x4,x23,x0	 x23:0x00000001  x0:0x00000000  x4=0x00000001
       43125000	      4311	80002cc4	01895133	srl	x2,x18,x24	 x18:0x80009f84 x24:0xfffff8d1  x2=0x00004000
       43135000	      4312	80002cc8	00007e33	and	x28,x0,x0	  x0:0x00000000  x0:0x00000000 x28=0x00000000
       43145000	      4313	80002ccc	c010ff13	andi	x30,x1,-1023	  x1:0x00000000 x30=0x00000000
       43155000	      4314	80002cd0	8805ed93	ori	x27,x11,-1920	 x11:0x00000000 x27=0xfffff880
       43165000	      4315	80002cd4	f90d7113	andi	x2,x26,-112	 x26:0x049a5000  x2=0x049a5000
       43175000	      4316	80002cd8	390b7db7	lui	x27,0x390b7	 x27=0x390b7000
       43185000	      4317	80002cdc	01558263	beq	x11,x21,80002ce0	 x11:0x00000000 x21:0xff9fb366
       43195000	      4318	80002ce0	02fb8a63	beq	x23,x15,80002d14	 x23:0x00000001 x15:0xfffffb5e
       43205000	      4319	80002ce4	00a93ab3	sltu	x21,x18,x10	 x18:0x80009f84 x10:0x00000000 x21=0x00000000
       43215000	      4320	80002ce8	bda6e813	ori	x16,x13,-1062	 x13:0x00000001 x16=0xfffffbdb
       43225000	      4321	80002cec	04584663	blt	x16,x5,80002d38	 x16:0xfffffbdb  x5:0xf9fb366f
       43235000	      4322	80002cf0	043f7063	bgeu	x30,x3,80002d30	 x30:0x00000000  x3:0xf3f66cde
       43245000	      4323	80002cf4	f10ce517	auipc	x10,0xf10ce	 x10=0x710d0cf0
       43255000	      4324	80002cf8	0119cf33	xor	x30,x19,x17	 x19:0x0000014d x17:0xda2a4b44 x30=0xda2a4a09
       43265000	      4325	80002cfc	01f69993	slli	x19,x13,0x1f	 x13:0x00000001 x19=0x80000000
       43275000	      4326	80002d00	5e59c793	xori	x15,x19,1509	 x19:0x80000000 x15=0x800005e5
       43285000	      4327	80002d04	00ce9213	slli	x4,x29,0xc	 x29:0x80009fc4  x4=0x09fc4000
       43295000	      4328	80002d08	02f84863	blt	x16,x15,80002d38	 x16:0xfffffbdb x15:0x800005e5
       43305000	      4329	80002d0c	002b55b3	srl	x11,x22,x2	 x22:0x0000024d  x2:0x049a5000 x11=0x0000024d
       43315000	      4330	80002d10	01aeee63	bltu	x29,x26,80002d2c	 x29:0x80009fc4 x26:0x049a5000
       43325000	      4331	80002d14	01835193	srli	x3,x6,0x18	  x6:0x00000009  x3=0x00000000
       43335000	      4332	80002d18	00336cb3	or	x25,x6,x3	  x6:0x00000009  x3:0x00000000 x25=0x00000009
       43345000	      4333	80002d1c	01ddd493	srli	x9,x27,0x1d	 x27:0x390b7000  x9=0x00000001
       43355000	      4334	80002d20	c85560b7	lui	x1,0xc8556	  x1=0xc8556000
       43365000	      4335	80002d24	4051dd93	srai	x27,x3,0x5	  x3:0x00000000 x27=0x00000000
       43375000	      4336	80002d28	03184a63	blt	x16,x17,80002d5c	 x16:0xfffffbdb x17:0xda2a4b44
       43385000	      4337	80002d2c	00fe19b3	sll	x19,x28,x15	 x28:0x00000000 x15:0x800005e5 x19=0x00000000
       43395000	      4338	80002d30	00325c63	bge	x4,x3,80002d48	  x4:0x09fc4000  x3:0x00000000
       43405000	      4339	00000000	00000013	addi	x0,x0,0	  x0:0x00000000
       43415000	      4340	80002d44	00000013	addi	x0,x0,0	  x0:0x00000000
       43425000	      4341	80002d48	6c500293	addi	x5,x0,1733	  x0:0x00000000  x5=0x000006c5
       43435000	      4342	80002d4c	000dacb3	slt	x25,x27,x0	 x27:0x00000000  x0:0x00000000 x25=0x00000000
       43445000	      4343	80002d50	014b8c63	beq	x23,x20,80002d68	 x23:0x00000001 x20:0x00000001
       43455000	      4344	00000000	00000013	addi	x0,x0,0	  x0:0x00000000
       43465000	      4345	80002d64	00000013	addi	x0,x0,0	  x0:0x00000000
       43475000	      4346	80002d68	0016bc33	sltu	x24,x13,x1	 x13:0x00000001  x1:0xc8556000 x24=0x00000001
       43485000	      4347	80002d6c	0108bab3	sltu	x21,x17,x16	 x17:0xda2a4b44 x16:0xfffffbdb x21=0x00000001
       43495000	      4348	80002d70	02776463	bltu	x14,x7,80002d98	 x14:0xfffffbeb  x7:0xffffe2d9
       43505000	      4349	80002d74	01090463	beq	x18,x16,80002d7c	 x18:0x80009f84 x16:0xfffffbdb
       43515000	      4350	80002d78	410a5e33	sra	x28,x20,x16	 x20:0x00000001 x16:0xfffffbdb x28=0x00000000
       43525000	      4351	80002d7c	01640b33	add	x22,x8,x22	  x8:0x0000001f x22:0x0000024d x22=0x0000026c
       43535000	      4352	80002d80	04357063	bgeu	x10,x3,80002dc0	 x10:0x710d0cf0  x3:0x00000000
       43545000	      4353	00000000	00000013	addi	x0,x0,0	  x0:0x00000000
       43555000	      4354	80002dbc	00000013	addi	x0,x0,0	  x0:0x00000000
       43565000	      4355	80002dc0	02399863	bne	x19,x3,80002df0	 x19:0x00000000  x3:0x00000000
       43575000	      4356	80002dc4	ebe60813	addi	x16,x12,-322	 x12:0x00000001 x16=0xfffffebf
       43585000	      4357	80002dc8	030be063	bltu	x23,x16,80002de8	 x23:0x00000001 x16:0xfffffebf
       43595000	      4358	00000000	00000013	addi	x0,x0,0	  x0:0x00000000
       43605000	      4359	80002de4	00000013	addi	x0,x0,0	  x0:0x00000000
       43615000	      4360	80002de8	03a6f463	bgeu	x13,x26,80002e10	 x13:0x00000001 x26:0x049a5000
       43625000	      4361	80002dec	0164c4b3	xor	x9,x9,x22	  x9:0x00000001 x22:0x0000026c  x9=0x0000026d
       43635000	      4362	80002df0	18988813	addi	x16,x17,393	 x17:0xda2a4b44 x16=0xda2a4ccd
       43645000	      4363	80002df4	05fa0063	beq	x20,x31,80002e34	 x20:0x00000001 x31:0x00000001
       43655000	      4364	00000000	00000013	addi	x0,x0,0	  x0:0x00000000
       43665000	      4365	80002e30	00000013	addi	x0,x0,0	  x0:0x00000000
       43675000	      4366	80002e34	01a3b8b3	sltu	x17,x7,x26	  x7:0xffffe2d9 x26:0x049a5000 x17=0x00000000
       43685000	      4367	80002e38	013ae6b3	or	x13,x21,x19	 x21:0x00000001 x19:0x00000000 x13=0x00000001
       43695000	      4368	80002e3c	01c94233	xor	x4,x18,x28	 x18:0x80009f84 x28:0x00000000  x4=0x80009f84
       43705000	      4369	80002e40	013e9b13	slli	x22,x29,0x13	 x29:0x80009fc4 x22=0xfe200000
       43715000	      4370	80002e44	0063b9b3	sltu	x19,x7,x6	  x7:0xffffe2d9  x6:0x00000009 x19=0x00000000
       43725000	      4371	80002e48	02b4ca63	blt	x9,x11,80002e7c	  x9:0x0000026d x11:0x0000024d
       43735000	      4372	80002e4c	90688f93	addi	x31,x17,-1786	 x17:0x00000000 x31=0xfffff906
       43745000	      4373	80002e50	04ccc663	blt	x25,x12,80002e9c	 x25:0x00000000 x12:0x00000001
       43755000	      4374	00000000	00000013	addi	x0,x0,0	  x0:0x00000000
       43765000	      4375	80002e98	00000013	addi	x0,x0,0	  x0:0x00000000
       43775000	      4376	80002e9c	00794733	xor	x14,x18,x7	 x18:0x80009f84  x7:0xffffe2d9 x14=0x7fff7d5d
       43785000	      4377	80002ea0	014aadb3	slt	x27,x21,x20	 x21:0x00000001 x20:0x00000001 x27=0x00000000
       43795000	      4378	80002ea4	f01bb413	sltiu	x8,x23,-255	 x23:0x00000001  x8=0x00000001
       43805000	      4379	80002ea8	0380ea63	bltu	x1,x24,80002edc	  x1:0xc8556000 x24:0x00000001
       43815000	      4380	80002eac	01361893	slli	x17,x12,0x13	 x12:0x00000001 x17=0x00080000
       43825000	      4381	80002eb0	0120be33	sltu	x28,x1,x18	  x1:0xc8556000 x18:0x80009f84 x28=0x00000000
       43835000	      4382	80002eb4	0339d063	bge	x19,x19,80002ed4	 x19:0x00000000 x19:0x00000000
       43845000	      4383	00000000	00000013	addi	x0,x0,0	  x0:0x00000000
       43855000	      4384	80002ed0	00000013	addi	x0,x0,0	  x0:0x00000000
       43865000	      4385	80002ed4	030ddc63	bge	x27,x16,80002f0c	 x27:0x00000000 x16:0xda2a4ccd
       43875000	      4386	00000000	00000013	addi	x0,x0,0	  x0:0x00000000
       43885000	      4387	80002f08	00000013	addi	x0,x0,0	  x0:0x00000000
       43895000	      4388	80002f0c	01598463	beq	x19,x21,80002f14	 x19:0x00000000 x21:0x00000001
       43905000	      4389	80002f10	00000013	addi	x0,x0,0	  x0:0x00000000
       43915000	      4390	80002f14	05b47663	bgeu	x8,x27,80002f60	  x8:0x00000001 x27:0x00000000
       43925000	      4391	00000000	00000013	addi	x0,x0,0	  x0:0x00000000
       43935000	      4392	80002f5c	00000013	addi	x0,x0,0	  x0:0x00000000
       43945000	      4393	80002f60	00136463	bltu	x6,x1,80002f68	  x6:0x00000009  x1:0xc8556000
       43955000	      4394	00000000	00000013	addi	x0,x0,0	  x0:0x00000000
       43965000	      4395	80002f64	00000013	addi	x0,x0,0	  x0:0x00000000
       43975000	      4396	80002f68	6b85e593	ori	x11,x11,1720	 x11:0x0000024d x11=0x000006fd
       43985000	      4397	80002f6c	bb2f7713	andi	x14,x30,-1102	 x30:0xda2a4a09 x14=0xda2a4a00
       43995000	      4398	80002f70	003363b3	or	x7,x6,x3	  x6:0x00000009  x3:0x00000000  x7=0x00000009
       44005000	      4399	80002f74	01de7c63	bgeu	x28,x29,80002f8c	 x28:0x00000000 x29:0x80009fc4
       44015000	      4400	80002f78	40e0ca13	xori	x20,x1,1038	  x1:0xc8556000 x20=0xc855640e
       44025000	      4401	80002f7c	40748bb3	sub	x23,x9,x7	  x9:0x0000026d  x7:0x00000009 x23=0x00000264
       44035000	      4402	80002f80	d90f6f13	ori	x30,x30,-624	 x30:0xda2a4a09 x30=0xffffff99
       44045000	      4403	80002f84	042a9663	bne	x21,x2,80002fd0	 x21:0x00000001  x2:0x049a5000
       44055000	      4404	00000000	00000013	addi	x0,x0,0	  x0:0x00000000
       44065000	      4405	80002fcc	00000013	addi	x0,x0,0	  x0:0x00000000
       44075000	      4406	80002fd0	039a7863	bgeu	x20,x25,80003000	 x20:0xc855640e x25:0x00000000
       44085000	      4407	00000000	00000013	addi	x0,x0,0	  x0:0x00000000
       44095000	      4408	80002ffc	00000013	addi	x0,x0,0	  x0:0x00000000
       44105000	      4409	80003000	dc237893	andi	x17,x6,-574	  x6:0x00000009 x17=0x00000000
       44115000	      4410	80003004	00b06c63	bltu	x0,x11,8000301c	  x0:0x00000000 x11:0x000006fd
       44125000	      4411	00000000	00000013	addi	x0,x0,0	  x0:0x00000000
       44135000	      4412	80003018	00000013	addi	x0,x0,0	  x0:0x00000000
       44145000	      4413	8000301c	0283ca63	blt	x7,x8,80003050	  x7:0x00000009  x8:0x00000001
       44155000	      4414	80003020	010d5ab3	srl	x21,x26,x16	 x26:0x049a5000 x16:0xda2a4ccd x21=0x000024d2
       44165000	      4415	80003024	00bcbe33	sltu	x28,x25,x11	 x25:0x00000000 x11:0x000006fd x28=0x00000001
       44175000	      4416	80003028	01416d33	or	x26,x2,x20	  x2:0x049a5000 x20:0xc855640e x26=0xccdf740e
       44185000	      4417	8000302c	3153b093	sltiu	x1,x7,789	  x7:0x00000009  x1=0x00000001
       44195000	      4418	80003030	00791e63	bne	x18,x7,8000304c	 x18:0x80009f84  x7:0x00000009
       44205000	      4419	00000000	00000013	addi	x0,x0,0	  x0:0x00000000
       44215000	      4420	80003048	00000013	addi	x0,x0,0	  x0:0x00000000
       44225000	      4421	8000304c	402007b3	sub	x15,x0,x2	  x0:0x00000000  x2:0x049a5000 x15=0xfb65b000
       44235000	      4422	80003050	015b9f33	sll	x30,x23,x21	 x23:0x00000264 x21:0x000024d2 x30=0x09900000
       44245000	      4423	80003054	2c4d3f17	auipc	x30,0x2c4d3	 x30=0xac4d6050
       44255000	      4424	80003058	03160863	beq	x12,x17,80003088	 x12:0x00000001 x17:0x00000000
       44265000	      4425	8000305c	00895233	srl	x4,x18,x8	 x18:0x80009f84  x8:0x00000001  x4=0x40004fc2
       44275000	      4426	80003060	01160bb3	add	x23,x12,x17	 x12:0x00000001 x17:0x00000000 x23=0x00000001
       44285000	      4427	80003064	02df4463	blt	x30,x13,8000308c	 x30:0xac4d6050 x13:0x00000001
       44295000	      4428	00000000	00000013	addi	x0,x0,0	  x0:0x00000000
       44305000	      4429	80003088	00000013	addi	x0,x0,0	  x0:0x00000000
       44315000	      4430	8000308c	875d7693	andi	x13,x26,-1931	 x26:0xccdf740e x13=0xccdf7004
       44325000	      4431	80003090	05c94663	blt	x18,x28,800030dc	 x18:0x80009f84 x28:0x00000001
       44335000	      4432	00000000	00000013	addi	x0,x0,0	  x0:0x00000000
       44345000	      4433	800030d8	00000013	addi	x0,x0,0	  x0:0x00000000
       44355000	      4434	800030dc	00c59c13	slli	x24,x11,0xc	 x11:0x000006fd x24=0x006fd000
       44365000	      4435	800030e0	005f1633	sll	x12,x30,x5	 x30:0xac4d6050  x5:0x000006c5 x12=0x89ac0a00
       44375000	      4436	800030e4	40eddb33	sra	x22,x27,x14	 x27:0x00000000 x14:0xda2a4a00 x22=0x00000000
       44385000	      4437	800030e8	00b2b733	sltu	x14,x5,x11	  x5:0x000006c5 x11:0x000006fd x14=0x00000001
       44395000	      4438	800030ec	41d8dc93	srai	x25,x17,0x1d	 x17:0x00000000 x25=0x00000000
       44405000	      4439	800030f0	0064e463	bltu	x9,x6,800030f8	  x9:0x0000026d  x6:0x00000009
       44415000	      4440	800030f4	00495863	bge	x18,x4,80003104	 x18:0x80009f84  x4:0x40004fc2
       44425000	      4441	800030f8	400f5c33	sra	x24,x30,x0	 x30:0xac4d6050  x0:0x00000000 x24=0xac4d6050
       44435000	      4442	800030fc	6868b493	sltiu	x9,x17,1670	 x17:0x00000000  x9=0x00000001
       44445000	      4443	80003100	d9dca893	slti	x17,x25,-611	 x25:0x00000000 x17=0x00000000
       44455000	      4444	80003104	a407ac13	slti	x24,x15,-1472	 x15:0xfb65b000 x24=0x00000001
       44465000	      4445	80003108	016b04b3	add	x9,x22,x22	 x22:0x00000000 x22:0x00000000  x9=0x00000000
       44475000	      4446	8000310c	012aca33	xor	x20,x21,x18	 x21:0x000024d2 x18:0x80009f84 x20=0x8000bb56
       44485000	      4447	80003110	00000013	addi	x0,x0,0	  x0:0x00000000
       44495000	      4448	80003114	0171c9b3	xor	x19,x3,x23	  x3:0x00000000 x23:0x00000001 x19=0x00000001
       44505000	      4449	80003118	760c8793	addi	x15,x25,1888	 x25:0x00000000 x15=0x00000760
       44515000	      4450	8000311c	65bd4193	xori	x3,x26,1627	 x26:0xccdf740e  x3=0xccdf7255
       44525000	      4451	80003120	01957cb3	and	x25,x10,x25	 x10:0x710d0cf0 x25:0x00000000 x25=0x00000000
       44535000	      4452	80003124	00000013	addi	x0,x0,0	  x0:0x00000000
       44545000	      4453	80003128	00855f33	srl	x30,x10,x8	 x10:0x710d0cf0  x8:0x00000001 x30=0x38868678
       44555000	      4454	8000312c	41b55ab3	sra	x21,x10,x27	 x10:0x710d0cf0 x27:0x00000000 x21=0x710d0cf0
       44565000	      4455	80003130	03567063	bgeu	x12,x21,80003150	 x12:0x89ac0a00 x21:0x710d0cf0
       44575000	      4456	00000000	00000013	addi	x0,x0,0	  x0:0x00000000
       44585000	      4457	8000314c	00000013	addi	x0,x0,0	  x0:0x00000000
       44595000	      4458	80003150	d6f72413	slti	x8,x14,-657	 x14:0x00000001  x8=0x00000000
       44605000	      4459	80003154	7dbdfb13	andi	x22,x27,2011	 x27:0x00000000 x22=0x00000000
       44615000	      4460	80003158	fdd50f93	addi	x31,x10,-35	 x10:0x710d0cf0 x31=0x710d0ccd
       44625000	      4461	8000315c	02199863	bne	x19,x1,8000318c	 x19:0x00000001  x1:0x00000001
       44635000	      4462	80003160	04b44463	blt	x8,x11,800031a8	  x8:0x00000000 x11:0x000006fd
       44645000	      4463	00000000	00000013	addi	x0,x0,0	  x0:0x00000000
       44655000	      4464	800031a4	00000013	addi	x0,x0,0	  x0:0x00000000
       44665000	      4465	800031a8	03af6463	bltu	x30,x26,800031d0	 x30:0x38868678 x26:0xccdf740e
       44675000	      4466	00000000	00000013	addi	x0,x0,0	  x0:0x00000000
       44685000	      4467	800031cc	00000013	addi	x0,x0,0	  x0:0x00000000
       44695000	      4468	800031d0	6a543613	sltiu	x12,x8,1701	  x8:0x00000000 x12=0x00000001
       44705000	      4469	800031d4	03c3f863	bgeu	x7,x28,80003204	  x7:0x00000009 x28:0x00000001
       44715000	      4470	00000000	00000013	addi	x0,x0,0	  x0:0x00000000
       44725000	      4471	80003200	00000013	addi	x0,x0,0	  x0:0x00000000
       44735000	      4472	80003204	414bd733	sra	x14,x23,x20	 x23:0x00000001 x20:0x8000bb56 x14=0x00000000
       44745000	      4473	80003208	00840133	add	x2,x8,x8	  x8:0x00000000  x8:0x00000000  x2=0x00000000
       44755000	      4474	8000320c	4113df13	srai	x30,x7,0x11	  x7:0x00000009 x30=0x00000000
       44765000	      4475	80003210	008f0b33	add	x22,x30,x8	 x30:0x00000000  x8:0x00000000 x22=0x00000000
       44775000	      4476	80003214	01f85133	srl	x2,x16,x31	 x16:0xda2a4ccd x31:0x710d0ccd  x2=0x0006d152
       44785000	      4477	80003218	00275f13	srli	x30,x14,0x2	 x14:0x00000000 x30=0x00000000
       44795000	      4478	8000321c	01641d13	slli	x26,x8,0x16	  x8:0x00000000 x26=0x00000000
       44805000	      4479	80003220	1d494813	xori	x16,x18,468	 x18:0x80009f84 x16=0x80009e50
       44815000	      4480	80003224	b85ebe13	sltiu	x28,x29,-1147	 x29:0x80009fc4 x28=0x00000001
       44825000	      4481	80003228	18cc8f97	auipc	x31,0x18cc8	 x31=0x98ccb224
       44835000	      4482	8000322c	013d33b3	sltu	x7,x26,x19	 x26:0x00000000 x19:0x00000001  x7=0x00000001
       44845000	      4483	80003230	4e780a93	addi	x21,x16,1255	 x16:0x80009e50 x21=0x8000a337
       44855000	      4484	80003234	00000317	auipc	x6,0x0	  x6=0x80003230
       44865000	      4485	80003238	00c30313	addi	x6,x6,12	  x6:0x80003230  x6=0x8000323c
       44875000	      4486	8000323c	00030067	jalr	x0,x6,0	  x6:0x8000323c
       44885000	      4487	00000000	00000013	addi	x0,x0,0	  x0:0x00000000
       44895000	      4488	8000323c	00000013	addi	x0,x0,0	  x0:0x00000000
       44905000	      4489	80003240	00100193	addi	x3,x0,1	  x0:0x00000000  x3=0x00000001
       44915000	      4490	80003244	00000073	ecall	
       44925000	      4491	80003248	00598463	beq	x19,x5,80003250	 x19:0x00000001  x5:0x000006c5
