		Time			Cycle	PC		Insn	Decoded instruction	Register and memory contents
          65000	         5	80000004	00000293	addi	x5,x0,0	  x0:0x00000000  x5=0x00000000
          75000	         6	80000008	00000313	addi	x6,x0,0	  x0:0x00000000  x6=0x00000000
          85000	         7	8000000c	00628263	beq	x5,x6,80000010	  x5:0x00000000  x6:0x00000000
          95000	         8	00000000	00000013	addi	x0,x0,0	  x0:0x00000000
         105000	         9	8000000c	00000013	addi	x0,x0,0	  x0:0x00000000
         115000	        10	80000010	00000d97	auipc	x27,0x0	 x27=0x8000000c
         125000	        11	80000014	00cd8d93	addi	x27,x27,12	 x27:0x8000000c x27=0x80000018
         135000	        12	80000018	000d8067	jalr	x0,x27,0	 x27:0x80000018
         145000	        13	00000000	00000013	addi	x0,x0,0	  x0:0x00000000
         155000	        14	80000018	00000013	addi	x0,x0,0	  x0:0x00000000
         165000	        15	8000001c	400006b7	lui	x13,0x40000	 x13=0x40000000
         175000	        16	80000020	10068693	addi	x13,x13,256	 x13:0x40000000 x13=0x40000100
         185000	        17	80000024	00000013	addi	x0,x0,0	  x0:0x00000000
         195000	        18	80000028	0000a917	auipc	x18,0xa	 x18=0x8000a024
         205000	        19	8000002c	fa090913	addi	x18,x18,-96	 x18:0x8000a024 x18=0x80009fc4
         215000	        20	80000030	00004697	auipc	x13,0x4	 x13=0x8000402c
         225000	        21	80000034	61068693	addi	x13,x13,1552	 x13:0x8000402c x13=0x8000463c
         235000	        22	80000038	0006e693	ori	x13,x13,0	 x13:0x8000463c x13=0x8000463c
         245000	        23	8000003c	00000013	addi	x0,x0,0	  x0:0x00000000
         255000	        24	80000040	00000697	auipc	x13,0x0	 x13=0x8000003c
         265000	        25	80000044	02068693	addi	x13,x13,32	 x13:0x8000003c x13=0x8000005c
         275000	        26	80000048	00000013	addi	x0,x0,0	  x0:0x00000000
         285000	        27	8000004c	00000013	addi	x0,x0,0	  x0:0x00000000
         295000	        28	80000050	000026b7	lui	x13,0x2	 x13=0x00002000
         305000	        29	80000054	80068693	addi	x13,x13,-2048	 x13:0x00002000 x13=0x00001800
         315000	        30	80000058	00000013	addi	x0,x0,0	  x0:0x00000000
         325000	        31	8000005c	00000013	addi	x0,x0,0	  x0:0x00000000
         335000	        32	80000060	00000013	addi	x0,x0,0	  x0:0x00000000
         345000	        33	80000064	800000b7	lui	x1,0x80000	  x1=0x80000000
         355000	        34	80000068	f03bc137	lui	x2,0xf03bc	  x2=0xf03bc000
         365000	        35	8000006c	99210113	addi	x2,x2,-1646	  x2:0xf03bc000  x2=0xf03bb992
         375000	        36	80000070	00000193	addi	x3,x0,0	  x0:0x00000000  x3=0x00000000
         385000	        37	80000074	00600213	addi	x4,x0,6	  x0:0x00000000  x4=0x00000006
         395000	        38	80000078	5627b2b7	lui	x5,0x5627b	  x5=0x5627b000
         405000	        39	8000007c	8e528293	addi	x5,x5,-1819	  x5:0x5627b000  x5=0x5627a8e5
         415000	        40	80000080	00000313	addi	x6,x0,0	  x0:0x00000000  x6=0x00000000
         425000	        41	80000084	503753b7	lui	x7,0x50375	  x7=0x50375000
         435000	        42	80000088	87338393	addi	x7,x7,-1933	  x7:0x50375000  x7=0x50374873
         445000	        43	8000008c	fbb0e437	lui	x8,0xfbb0e	  x8=0xfbb0e000
         455000	        44	80000090	7b240413	addi	x8,x8,1970	  x8:0xfbb0e000  x8=0xfbb0e7b2
         465000	        45	80000094	00800493	addi	x9,x0,8	  x0:0x00000000  x9=0x00000008
         475000	        46	80000098	f9faa537	lui	x10,0xf9faa	 x10=0xf9faa000
         485000	        47	8000009c	09350513	addi	x10,x10,147	 x10:0xf9faa000 x10=0xf9faa093
         495000	        48	800000a0	00000593	addi	x11,x0,0	  x0:0x00000000 x11=0x00000000
         505000	        49	800000a4	80000637	lui	x12,0x80000	 x12=0x80000000
         515000	        50	800000a8	fed286b7	lui	x13,0xfed28	 x13=0xfed28000
         525000	        51	800000ac	e5d68693	addi	x13,x13,-419	 x13:0xfed28000 x13=0xfed27e5d
         535000	        52	800000b0	00900713	addi	x14,x0,9	  x0:0x00000000 x14=0x00000009
         545000	        53	800000b4	800007b7	lui	x15,0x80000	 x15=0x80000000
         555000	        54	800000b8	73b2a837	lui	x16,0x73b2a	 x16=0x73b2a000
         565000	        55	800000bc	8bd80813	addi	x16,x16,-1859	 x16:0x73b2a000 x16=0x73b298bd
         575000	        56	800000c0	00400893	addi	x17,x0,4	  x0:0x00000000 x17=0x00000004
         585000	        57	800000c4	00000993	addi	x19,x0,0	  x0:0x00000000 x19=0x00000000
         595000	        58	800000c8	00000a13	addi	x20,x0,0	  x0:0x00000000 x20=0x00000000
         605000	        59	800000cc	00100a93	addi	x21,x0,1	  x0:0x00000000 x21=0x00000001
         615000	        60	800000d0	80000b37	lui	x22,0x80000	 x22=0x80000000
         625000	        61	800000d4	f80b2bb7	lui	x23,0xf80b2	 x23=0xf80b2000
         635000	        62	800000d8	143b8b93	addi	x23,x23,323	 x23:0xf80b2000 x23=0xf80b2143
         645000	        63	800000dc	00000c13	addi	x24,x0,0	  x0:0x00000000 x24=0x00000000
         655000	        64	800000e0	07512cb7	lui	x25,0x7512	 x25=0x07512000
         665000	        65	800000e4	754c8c93	addi	x25,x25,1876	 x25:0x07512000 x25=0x07512754
         675000	        66	800000e8	00000d13	addi	x26,x0,0	  x0:0x00000000 x26=0x00000000
         685000	        67	800000ec	00000d93	addi	x27,x0,0	  x0:0x00000000 x27=0x00000000
         695000	        68	800000f0	58e43e37	lui	x28,0x58e43	 x28=0x58e43000
         705000	        69	800000f4	ed1e0e13	addi	x28,x28,-303	 x28:0x58e43000 x28=0x58e42ed1
         715000	        70	800000f8	00500e93	addi	x29,x0,5	  x0:0x00000000 x29=0x00000005
         725000	        71	800000fc	00000f13	addi	x30,x0,0	  x0:0x00000000 x30=0x00000000
         735000	        72	80000100	0000af97	auipc	x31,0xa	 x31=0x8000a0fc
         745000	        73	80000104	e88f8f93	addi	x31,x31,-376	 x31:0x8000a0fc x31=0x80009f84
         755000	        74	80000108	014000ef	jal	x1,80000108	  x1=0x80000108
         765000	        75	00000000	00000013	addi	x0,x0,0	  x0:0x00000000
         775000	        76	80000118	00000013	addi	x0,x0,0	  x0:0x00000000
         785000	        77	8000011c	020000ef	jal	x1,8000011c	  x1=0x8000011c
         795000	        78	00000000	00000013	addi	x0,x0,0	  x0:0x00000000
         805000	        79	80000138	00000013	addi	x0,x0,0	  x0:0x00000000
         815000	        80	8000013c	fddff5ef	jal	x11,8000013c	 x11=0x8000013c
         825000	        81	00000000	00000013	addi	x0,x0,0	  x0:0x00000000
         835000	        82	80000114	00000013	addi	x0,x0,0	  x0:0x00000000
         845000	        83	80000118	ffdff36f	jal	x6,80000118	  x6=0x80000118
         855000	        84	00000000	00000013	addi	x0,x0,0	  x0:0x00000000
         865000	        85	80000110	00000013	addi	x0,x0,0	  x0:0x00000000
         875000	        86	80000114	0180036f	jal	x6,80000114	  x6=0x80000114
         885000	        87	00000000	00000013	addi	x0,x0,0	  x0:0x00000000
         895000	        88	80000128	00000013	addi	x0,x0,0	  x0:0x00000000
         905000	        89	8000012c	004000ef	jal	x1,8000012c	  x1=0x8000012c
         915000	        90	00000000	00000013	addi	x0,x0,0	  x0:0x00000000
         925000	        91	8000012c	00000013	addi	x0,x0,0	  x0:0x00000000
         935000	        92	80000130	fddff36f	jal	x6,80000130	  x6=0x80000130
         945000	        93	00000000	00000013	addi	x0,x0,0	  x0:0x00000000
         955000	        94	80000108	00000013	addi	x0,x0,0	  x0:0x00000000
         965000	        95	8000010c	0180036f	jal	x6,8000010c	  x6=0x8000010c
         975000	        96	00000000	00000013	addi	x0,x0,0	  x0:0x00000000
         985000	        97	80000120	00000013	addi	x0,x0,0	  x0:0x00000000
         995000	        98	80000124	fedff66f	jal	x12,80000124	 x12=0x80000124
        1005000	        99	00000000	00000013	addi	x0,x0,0	  x0:0x00000000
        1015000	       100	8000010c	00000013	addi	x0,x0,0	  x0:0x00000000
        1025000	       101	80000110	034000ef	jal	x1,80000110	  x1=0x80000110
        1035000	       102	00000000	00000013	addi	x0,x0,0	  x0:0x00000000
        1045000	       103	80000140	00000013	addi	x0,x0,0	  x0:0x00000000
        1055000	       104	80000144	fe5ff0ef	jal	x1,80000144	  x1=0x80000144
        1065000	       105	00000000	00000013	addi	x0,x0,0	  x0:0x00000000
        1075000	       106	80000124	00000013	addi	x0,x0,0	  x0:0x00000000
        1085000	       107	80000128	00c000ef	jal	x1,80000128	  x1=0x80000128
        1095000	       108	00000000	00000013	addi	x0,x0,0	  x0:0x00000000
        1105000	       109	80000130	00000013	addi	x0,x0,0	  x0:0x00000000
        1115000	       110	80000134	fedff0ef	jal	x1,80000134	  x1=0x80000134
        1125000	       111	00000000	00000013	addi	x0,x0,0	  x0:0x00000000
        1135000	       112	8000011c	00000013	addi	x0,x0,0	  x0:0x00000000
        1145000	       113	80000120	0200056f	jal	x10,80000120	 x10=0x80000120
        1155000	       114	00000000	00000013	addi	x0,x0,0	  x0:0x00000000
        1165000	       115	8000013c	00000013	addi	x0,x0,0	  x0:0x00000000
        1175000	       116	80000140	ff9ff0ef	jal	x1,80000140	  x1=0x80000140
        1185000	       117	00000000	00000013	addi	x0,x0,0	  x0:0x00000000
        1195000	       118	80000134	00000013	addi	x0,x0,0	  x0:0x00000000
        1205000	       119	80000138	010000ef	jal	x1,80000138	  x1=0x80000138
        1215000	       120	00000000	00000013	addi	x0,x0,0	  x0:0x00000000
        1225000	       121	80000144	00000013	addi	x0,x0,0	  x0:0x00000000
        1235000	       122	80000148	004000ef	jal	x1,80000148	  x1=0x80000148
        1245000	       123	00000000	00000013	addi	x0,x0,0	  x0:0x00000000
        1255000	       124	80000148	00000013	addi	x0,x0,0	  x0:0x00000000
        1265000	       125	8000014c	4a90f4b7	lui	x9,0x4a90f	  x9=0x4a90f000
        1275000	       126	80000150	014000ef	jal	x1,80000150	  x1=0x80000150
        1285000	       127	00000000	00000013	addi	x0,x0,0	  x0:0x00000000
        1295000	       128	80000160	00000013	addi	x0,x0,0	  x0:0x00000000
        1305000	       129	80000164	00c003ef	jal	x7,80000164	  x7=0x80000164
        1315000	       130	00000000	00000013	addi	x0,x0,0	  x0:0x00000000
        1325000	       131	8000016c	00000013	addi	x0,x0,0	  x0:0x00000000
        1335000	       132	80000170	ff1ff36f	jal	x6,80000170	  x6=0x80000170
        1345000	       133	00000000	00000013	addi	x0,x0,0	  x0:0x00000000
        1355000	       134	8000015c	00000013	addi	x0,x0,0	  x0:0x00000000
        1365000	       135	80000160	ff5ff0ef	jal	x1,80000160	  x1=0x80000160
        1375000	       136	00000000	00000013	addi	x0,x0,0	  x0:0x00000000
        1385000	       137	80000150	00000013	addi	x0,x0,0	  x0:0x00000000
        1395000	       138	80000154	02c000ef	jal	x1,80000154	  x1=0x80000154
        1405000	       139	00000000	00000013	addi	x0,x0,0	  x0:0x00000000
        1415000	       140	8000017c	00000013	addi	x0,x0,0	  x0:0x00000000
        1425000	       141	80000180	ff9ffbef	jal	x23,80000180	 x23=0x80000180
        1435000	       142	00000000	00000013	addi	x0,x0,0	  x0:0x00000000
        1445000	       143	80000174	00000013	addi	x0,x0,0	  x0:0x00000000
        1455000	       144	80000178	fe1fff6f	jal	x30,80000178	 x30=0x80000178
        1465000	       145	00000000	00000013	addi	x0,x0,0	  x0:0x00000000
        1475000	       146	80000154	00000013	addi	x0,x0,0	  x0:0x00000000
        1485000	       147	80000158	004000ef	jal	x1,80000158	  x1=0x80000158
        1495000	       148	00000000	00000013	addi	x0,x0,0	  x0:0x00000000
        1505000	       149	80000158	00000013	addi	x0,x0,0	  x0:0x00000000
        1515000	       150	8000015c	00c00f6f	jal	x30,8000015c	 x30=0x8000015c
        1525000	       151	00000000	00000013	addi	x0,x0,0	  x0:0x00000000
        1535000	       152	80000164	00000013	addi	x0,x0,0	  x0:0x00000000
        1545000	       153	80000168	014005ef	jal	x11,80000168	 x11=0x80000168
        1555000	       154	00000000	00000013	addi	x0,x0,0	  x0:0x00000000
        1565000	       155	80000178	00000013	addi	x0,x0,0	  x0:0x00000000
        1575000	       156	8000017c	ff1ff0ef	jal	x1,8000017c	  x1=0x8000017c
        1585000	       157	00000000	00000013	addi	x0,x0,0	  x0:0x00000000
        1595000	       158	80000168	00000013	addi	x0,x0,0	  x0:0x00000000
        1605000	       159	8000016c	008000ef	jal	x1,8000016c	  x1=0x8000016c
        1615000	       160	00000000	00000013	addi	x0,x0,0	  x0:0x00000000
        1625000	       161	80000170	00000013	addi	x0,x0,0	  x0:0x00000000
        1635000	       162	80000174	010000ef	jal	x1,80000174	  x1=0x80000174
        1645000	       163	00000000	00000013	addi	x0,x0,0	  x0:0x00000000
        1655000	       164	80000180	00000013	addi	x0,x0,0	  x0:0x00000000
        1665000	       165	80000184	402bd8b3	sra	x17,x23,x2	 x23:0x80000180  x2:0xf03bb992 x17=0xffffe000
        1675000	       166	80000188	030000ef	jal	x1,80000188	  x1=0x80000188
        1685000	       167	00000000	00000013	addi	x0,x0,0	  x0:0x00000000
        1695000	       168	800001b4	00000013	addi	x0,x0,0	  x0:0x00000000
        1705000	       169	800001b8	ff5ff36f	jal	x6,800001b8	  x6=0x800001b8
        1715000	       170	00000000	00000013	addi	x0,x0,0	  x0:0x00000000
        1725000	       171	800001a8	00000013	addi	x0,x0,0	  x0:0x00000000
        1735000	       172	800001ac	0240036f	jal	x6,800001ac	  x6=0x800001ac
        1745000	       173	00000000	00000013	addi	x0,x0,0	  x0:0x00000000
        1755000	       174	800001cc	00000013	addi	x0,x0,0	  x0:0x00000000
        1765000	       175	800001d0	008000ef	jal	x1,800001d0	  x1=0x800001d0
        1775000	       176	00000000	00000013	addi	x0,x0,0	  x0:0x00000000
        1785000	       177	800001d4	00000013	addi	x0,x0,0	  x0:0x00000000
        1795000	       178	800001d8	fddff0ef	jal	x1,800001d8	  x1=0x800001d8
        1805000	       179	00000000	00000013	addi	x0,x0,0	  x0:0x00000000
        1815000	       180	800001b0	00000013	addi	x0,x0,0	  x0:0x00000000
        1825000	       181	800001b4	fe9ff26f	jal	x4,800001b4	  x4=0x800001b4
        1835000	       182	00000000	00000013	addi	x0,x0,0	  x0:0x00000000
        1845000	       183	80000198	00000013	addi	x0,x0,0	  x0:0x00000000
        1855000	       184	8000019c	04c000ef	jal	x1,8000019c	  x1=0x8000019c
        1865000	       185	00000000	00000013	addi	x0,x0,0	  x0:0x00000000
        1875000	       186	800001e4	00000013	addi	x0,x0,0	  x0:0x00000000
        1885000	       187	800001e8	fa9ff0ef	jal	x1,800001e8	  x1=0x800001e8
        1895000	       188	00000000	00000013	addi	x0,x0,0	  x0:0x00000000
        1905000	       189	8000018c	00000013	addi	x0,x0,0	  x0:0x00000000
        1915000	       190	80000190	030000ef	jal	x1,80000190	  x1=0x80000190
        1925000	       191	00000000	00000013	addi	x0,x0,0	  x0:0x00000000
        1935000	       192	800001bc	00000013	addi	x0,x0,0	  x0:0x00000000
        1945000	       193	800001c0	ff1ff0ef	jal	x1,800001c0	  x1=0x800001c0
        1955000	       194	00000000	00000013	addi	x0,x0,0	  x0:0x00000000
        1965000	       195	800001ac	00000013	addi	x0,x0,0	  x0:0x00000000
        1975000	       196	800001b0	01c000ef	jal	x1,800001b0	  x1=0x800001b0
        1985000	       197	00000000	00000013	addi	x0,x0,0	  x0:0x00000000
        1995000	       198	800001c8	00000013	addi	x0,x0,0	  x0:0x00000000
        2005000	       199	800001cc	018000ef	jal	x1,800001cc	  x1=0x800001cc
        2015000	       200	00000000	00000013	addi	x0,x0,0	  x0:0x00000000
        2025000	       201	800001e0	00000013	addi	x0,x0,0	  x0:0x00000000
        2035000	       202	800001e4	fc5ff0ef	jal	x1,800001e4	  x1=0x800001e4
        2045000	       203	00000000	00000013	addi	x0,x0,0	  x0:0x00000000
        2055000	       204	800001a4	00000013	addi	x0,x0,0	  x0:0x00000000
        2065000	       205	800001a8	ffdff36f	jal	x6,800001a8	  x6=0x800001a8
        2075000	       206	00000000	00000013	addi	x0,x0,0	  x0:0x00000000
        2085000	       207	800001a0	00000013	addi	x0,x0,0	  x0:0x00000000
        2095000	       208	800001a4	fe9ff0ef	jal	x1,800001a4	  x1=0x800001a4
        2105000	       209	00000000	00000013	addi	x0,x0,0	  x0:0x00000000
        2115000	       210	80000188	00000013	addi	x0,x0,0	  x0:0x00000000
        2125000	       211	8000018c	064000ef	jal	x1,8000018c	  x1=0x8000018c
        2135000	       212	00000000	00000013	addi	x0,x0,0	  x0:0x00000000
        2145000	       213	800001ec	00000013	addi	x0,x0,0	  x0:0x00000000
        2155000	       214	800001f0	fa5ff76f	jal	x14,800001f0	 x14=0x800001f0
        2165000	       215	00000000	00000013	addi	x0,x0,0	  x0:0x00000000
        2175000	       216	80000190	00000013	addi	x0,x0,0	  x0:0x00000000
        2185000	       217	80000194	028000ef	jal	x1,80000194	  x1=0x80000194
        2195000	       218	00000000	00000013	addi	x0,x0,0	  x0:0x00000000
        2205000	       219	800001b8	00000013	addi	x0,x0,0	  x0:0x00000000
        2215000	       220	800001bc	02000e6f	jal	x28,800001bc	 x28=0x800001bc
        2225000	       221	00000000	00000013	addi	x0,x0,0	  x0:0x00000000
        2235000	       222	800001d8	00000013	addi	x0,x0,0	  x0:0x00000000
        2245000	       223	800001dc	fedff1ef	jal	x3,800001dc	  x3=0x800001dc
        2255000	       224	00000000	00000013	addi	x0,x0,0	  x0:0x00000000
        2265000	       225	800001c4	00000013	addi	x0,x0,0	  x0:0x00000000
        2275000	       226	800001c8	02c000ef	jal	x1,800001c8	  x1=0x800001c8
        2285000	       227	00000000	00000013	addi	x0,x0,0	  x0:0x00000000
        2295000	       228	800001f0	00000013	addi	x0,x0,0	  x0:0x00000000
        2305000	       229	800001f4	ff9ff0ef	jal	x1,800001f4	  x1=0x800001f4
        2315000	       230	00000000	00000013	addi	x0,x0,0	  x0:0x00000000
        2325000	       231	800001e8	00000013	addi	x0,x0,0	  x0:0x00000000
        2335000	       232	800001ec	ff5ff9ef	jal	x19,800001ec	 x19=0x800001ec
        2345000	       233	00000000	00000013	addi	x0,x0,0	  x0:0x00000000
        2355000	       234	800001dc	00000013	addi	x0,x0,0	  x0:0x00000000
        2365000	       235	800001e0	fb9ff36f	jal	x6,800001e0	  x6=0x800001e0
        2375000	       236	00000000	00000013	addi	x0,x0,0	  x0:0x00000000
        2385000	       237	80000194	00000013	addi	x0,x0,0	  x0:0x00000000
        2395000	       238	80000198	03c008ef	jal	x17,80000198	 x17=0x80000198
        2405000	       239	00000000	00000013	addi	x0,x0,0	  x0:0x00000000
        2415000	       240	800001d0	00000013	addi	x0,x0,0	  x0:0x00000000
        2425000	       241	800001d4	fcdff0ef	jal	x1,800001d4	  x1=0x800001d4
        2435000	       242	00000000	00000013	addi	x0,x0,0	  x0:0x00000000
        2445000	       243	8000019c	00000013	addi	x0,x0,0	  x0:0x00000000
        2455000	       244	800001a0	024002ef	jal	x5,800001a0	  x5=0x800001a0
        2465000	       245	00000000	00000013	addi	x0,x0,0	  x0:0x00000000
        2475000	       246	800001c0	00000013	addi	x0,x0,0	  x0:0x00000000
        2485000	       247	800001c4	034000ef	jal	x1,800001c4	  x1=0x800001c4
        2495000	       248	00000000	00000013	addi	x0,x0,0	  x0:0x00000000
        2505000	       249	800001f4	00000013	addi	x0,x0,0	  x0:0x00000000
        2515000	       250	800001f8	7335a713	slti	x14,x11,1843	 x11:0x80000168 x14=0x00000001
        2525000	       251	800001fc	018000ef	jal	x1,800001fc	  x1=0x800001fc
        2535000	       252	00000000	00000013	addi	x0,x0,0	  x0:0x00000000
        2545000	       253	80000210	00000013	addi	x0,x0,0	  x0:0x00000000
        2555000	       254	80000214	028000ef	jal	x1,80000214	  x1=0x80000214
        2565000	       255	00000000	00000013	addi	x0,x0,0	  x0:0x00000000
        2575000	       256	80000238	00000013	addi	x0,x0,0	  x0:0x00000000
        2585000	       257	8000023c	014000ef	jal	x1,8000023c	  x1=0x8000023c
        2595000	       258	00000000	00000013	addi	x0,x0,0	  x0:0x00000000
        2605000	       259	8000024c	00000013	addi	x0,x0,0	  x0:0x00000000
        2615000	       260	80000250	fd5ff2ef	jal	x5,80000250	  x5=0x80000250
        2625000	       261	00000000	00000013	addi	x0,x0,0	  x0:0x00000000
        2635000	       262	80000220	00000013	addi	x0,x0,0	  x0:0x00000000
        2645000	       263	80000224	fe5ff0ef	jal	x1,80000224	  x1=0x80000224
        2655000	       264	00000000	00000013	addi	x0,x0,0	  x0:0x00000000
        2665000	       265	80000204	00000013	addi	x0,x0,0	  x0:0x00000000
        2675000	       266	80000208	040000ef	jal	x1,80000208	  x1=0x80000208
        2685000	       267	00000000	00000013	addi	x0,x0,0	  x0:0x00000000
        2695000	       268	80000244	00000013	addi	x0,x0,0	  x0:0x00000000
        2705000	       269	80000248	0040036f	jal	x6,80000248	  x6=0x80000248
        2715000	       270	00000000	00000013	addi	x0,x0,0	  x0:0x00000000
        2725000	       271	80000248	00000013	addi	x0,x0,0	  x0:0x00000000
        2735000	       272	8000024c	fcdff0ef	jal	x1,8000024c	  x1=0x8000024c
        2745000	       273	00000000	00000013	addi	x0,x0,0	  x0:0x00000000
        2755000	       274	80000214	00000013	addi	x0,x0,0	  x0:0x00000000
        2765000	       275	80000218	028000ef	jal	x1,80000218	  x1=0x80000218
        2775000	       276	00000000	00000013	addi	x0,x0,0	  x0:0x00000000
        2785000	       277	8000023c	00000013	addi	x0,x0,0	  x0:0x00000000
        2795000	       278	80000240	fcdff0ef	jal	x1,80000240	  x1=0x80000240
        2805000	       279	00000000	00000013	addi	x0,x0,0	  x0:0x00000000
        2815000	       280	80000208	00000013	addi	x0,x0,0	  x0:0x00000000
        2825000	       281	8000020c	01c0016f	jal	x2,8000020c	  x2=0x8000020c
        2835000	       282	00000000	00000013	addi	x0,x0,0	  x0:0x00000000
        2845000	       283	80000224	00000013	addi	x0,x0,0	  x0:0x00000000
        2855000	       284	80000228	02c0016f	jal	x2,80000228	  x2=0x80000228
        2865000	       285	00000000	00000013	addi	x0,x0,0	  x0:0x00000000
        2875000	       286	80000250	00000013	addi	x0,x0,0	  x0:0x00000000
        2885000	       287	80000254	ff1ffe6f	jal	x28,80000254	 x28=0x80000254
        2895000	       288	00000000	00000013	addi	x0,x0,0	  x0:0x00000000
        2905000	       289	80000240	00000013	addi	x0,x0,0	  x0:0x00000000
        2915000	       290	80000244	fbdff0ef	jal	x1,80000244	  x1=0x80000244
        2925000	       291	00000000	00000013	addi	x0,x0,0	  x0:0x00000000
        2935000	       292	800001fc	00000013	addi	x0,x0,0	  x0:0x00000000
        2945000	       293	80000200	02c0036f	jal	x6,80000200	  x6=0x80000200
        2955000	       294	00000000	00000013	addi	x0,x0,0	  x0:0x00000000
        2965000	       295	80000228	00000013	addi	x0,x0,0	  x0:0x00000000
        2975000	       296	8000022c	0040036f	jal	x6,8000022c	  x6=0x8000022c
        2985000	       297	00000000	00000013	addi	x0,x0,0	  x0:0x00000000
        2995000	       298	8000022c	00000013	addi	x0,x0,0	  x0:0x00000000
        3005000	       299	80000230	fedff0ef	jal	x1,80000230	  x1=0x80000230
        3015000	       300	00000000	00000013	addi	x0,x0,0	  x0:0x00000000
        3025000	       301	80000218	00000013	addi	x0,x0,0	  x0:0x00000000
        3035000	       302	8000021c	018000ef	jal	x1,8000021c	  x1=0x8000021c
        3045000	       303	00000000	00000013	addi	x0,x0,0	  x0:0x00000000
        3055000	       304	80000230	00000013	addi	x0,x0,0	  x0:0x00000000
        3065000	       305	80000234	fedff5ef	jal	x11,80000234	 x11=0x80000234
        3075000	       306	00000000	00000013	addi	x0,x0,0	  x0:0x00000000
        3085000	       307	8000021c	00000013	addi	x0,x0,0	  x0:0x00000000
        3095000	       308	80000220	01800b6f	jal	x22,80000220	 x22=0x80000220
        3105000	       309	00000000	00000013	addi	x0,x0,0	  x0:0x00000000
        3115000	       310	80000234	00000013	addi	x0,x0,0	  x0:0x00000000
        3125000	       311	80000238	fd9ff0ef	jal	x1,80000238	  x1=0x80000238
        3135000	       312	00000000	00000013	addi	x0,x0,0	  x0:0x00000000
        3145000	       313	8000020c	00000013	addi	x0,x0,0	  x0:0x00000000
        3155000	       314	80000210	ff5ffeef	jal	x29,80000210	 x29=0x80000210
        3165000	       315	00000000	00000013	addi	x0,x0,0	  x0:0x00000000
        3175000	       316	80000200	00000013	addi	x0,x0,0	  x0:0x00000000
        3185000	       317	80000204	054000ef	jal	x1,80000204	  x1=0x80000204
        3195000	       318	00000000	00000013	addi	x0,x0,0	  x0:0x00000000
        3205000	       319	80000254	00000013	addi	x0,x0,0	  x0:0x00000000
        3215000	       320	80000258	419b03b3	sub	x7,x22,x25	 x22:0x80000220 x25:0x07512754  x7=0x78aedacc
        3225000	       321	8000025c	030000ef	jal	x1,8000025c	  x1=0x8000025c
        3235000	       322	00000000	00000013	addi	x0,x0,0	  x0:0x00000000
        3245000	       323	80000288	00000013	addi	x0,x0,0	  x0:0x00000000
        3255000	       324	8000028c	fddff0ef	jal	x1,8000028c	  x1=0x8000028c
        3265000	       325	00000000	00000013	addi	x0,x0,0	  x0:0x00000000
        3275000	       326	80000264	00000013	addi	x0,x0,0	  x0:0x00000000
        3285000	       327	80000268	01c000ef	jal	x1,80000268	  x1=0x80000268
        3295000	       328	00000000	00000013	addi	x0,x0,0	  x0:0x00000000
        3305000	       329	80000280	00000013	addi	x0,x0,0	  x0:0x00000000
        3315000	       330	80000284	010000ef	jal	x1,80000284	  x1=0x80000284
        3325000	       331	00000000	00000013	addi	x0,x0,0	  x0:0x00000000
        3335000	       332	80000290	00000013	addi	x0,x0,0	  x0:0x00000000
        3345000	       333	80000294	fd1ff0ef	jal	x1,80000294	  x1=0x80000294
        3355000	       334	00000000	00000013	addi	x0,x0,0	  x0:0x00000000
        3365000	       335	80000260	00000013	addi	x0,x0,0	  x0:0x00000000
        3375000	       336	80000264	00c000ef	jal	x1,80000264	  x1=0x80000264
        3385000	       337	00000000	00000013	addi	x0,x0,0	  x0:0x00000000
        3395000	       338	8000026c	00000013	addi	x0,x0,0	  x0:0x00000000
        3405000	       339	80000270	00c000ef	jal	x1,80000270	  x1=0x80000270
        3415000	       340	00000000	00000013	addi	x0,x0,0	  x0:0x00000000
        3425000	       341	80000278	00000013	addi	x0,x0,0	  x0:0x00000000
        3435000	       342	8000027c	ffdff0ef	jal	x1,8000027c	  x1=0x8000027c
        3445000	       343	00000000	00000013	addi	x0,x0,0	  x0:0x00000000
        3455000	       344	80000274	00000013	addi	x0,x0,0	  x0:0x00000000
        3465000	       345	80000278	ffdff26f	jal	x4,80000278	  x4=0x80000278
        3475000	       346	00000000	00000013	addi	x0,x0,0	  x0:0x00000000
        3485000	       347	80000270	00000013	addi	x0,x0,0	  x0:0x00000000
        3495000	       348	80000274	014000ef	jal	x1,80000274	  x1=0x80000274
        3505000	       349	00000000	00000013	addi	x0,x0,0	  x0:0x00000000
        3515000	       350	80000284	00000013	addi	x0,x0,0	  x0:0x00000000
        3525000	       351	80000288	fe5ff36f	jal	x6,80000288	  x6=0x80000288
        3535000	       352	00000000	00000013	addi	x0,x0,0	  x0:0x00000000
        3545000	       353	80000268	00000013	addi	x0,x0,0	  x0:0x00000000
        3555000	       354	8000026c	ff5ff36f	jal	x6,8000026c	  x6=0x8000026c
        3565000	       355	00000000	00000013	addi	x0,x0,0	  x0:0x00000000
        3575000	       356	8000025c	00000013	addi	x0,x0,0	  x0:0x00000000
        3585000	       357	80000260	030000ef	jal	x1,80000260	  x1=0x80000260
        3595000	       358	00000000	00000013	addi	x0,x0,0	  x0:0x00000000
        3605000	       359	8000028c	00000013	addi	x0,x0,0	  x0:0x00000000
        3615000	       360	80000290	ff1ff26f	jal	x4,80000290	  x4=0x80000290
        3625000	       361	00000000	00000013	addi	x0,x0,0	  x0:0x00000000
        3635000	       362	8000027c	00000013	addi	x0,x0,0	  x0:0x00000000
        3645000	       363	80000280	01800eef	jal	x29,80000280	 x29=0x80000280
        3655000	       364	00000000	00000013	addi	x0,x0,0	  x0:0x00000000
        3665000	       365	80000294	00000013	addi	x0,x0,0	  x0:0x00000000
        3675000	       366	80000298	01e2db33	srl	x22,x5,x30	  x5:0x80000250 x30:0x8000015c x22=0x00000008
        3685000	       367	8000029c	02c000ef	jal	x1,8000029c	  x1=0x8000029c
        3695000	       368	00000000	00000013	addi	x0,x0,0	  x0:0x00000000
        3705000	       369	800002c4	00000013	addi	x0,x0,0	  x0:0x00000000
        3715000	       370	800002c8	008000ef	jal	x1,800002c8	  x1=0x800002c8
        3725000	       371	00000000	00000013	addi	x0,x0,0	  x0:0x00000000
        3735000	       372	800002cc	00000013	addi	x0,x0,0	  x0:0x00000000
        3745000	       373	800002d0	fd1ffbef	jal	x23,800002d0	 x23=0x800002d0
        3755000	       374	00000000	00000013	addi	x0,x0,0	  x0:0x00000000
        3765000	       375	8000029c	00000013	addi	x0,x0,0	  x0:0x00000000
        3775000	       376	800002a0	010000ef	jal	x1,800002a0	  x1=0x800002a0
        3785000	       377	00000000	00000013	addi	x0,x0,0	  x0:0x00000000
        3795000	       378	800002ac	00000013	addi	x0,x0,0	  x0:0x00000000
        3805000	       379	800002b0	00400bef	jal	x23,800002b0	 x23=0x800002b0
        3815000	       380	00000000	00000013	addi	x0,x0,0	  x0:0x00000000
        3825000	       381	800002b0	00000013	addi	x0,x0,0	  x0:0x00000000
        3835000	       382	800002b4	02000c6f	jal	x24,800002b4	 x24=0x800002b4
        3845000	       383	00000000	00000013	addi	x0,x0,0	  x0:0x00000000
        3855000	       384	800002d0	00000013	addi	x0,x0,0	  x0:0x00000000
        3865000	       385	800002d4	fe5ff0ef	jal	x1,800002d4	  x1=0x800002d4
        3875000	       386	00000000	00000013	addi	x0,x0,0	  x0:0x00000000
        3885000	       387	800002b4	00000013	addi	x0,x0,0	  x0:0x00000000
        3895000	       388	800002b8	014001ef	jal	x3,800002b8	  x3=0x800002b8
        3905000	       389	00000000	00000013	addi	x0,x0,0	  x0:0x00000000
        3915000	       390	800002c8	00000013	addi	x0,x0,0	  x0:0x00000000
        3925000	       391	800002cc	ff9ff0ef	jal	x1,800002cc	  x1=0x800002cc
        3935000	       392	00000000	00000013	addi	x0,x0,0	  x0:0x00000000
        3945000	       393	800002c0	00000013	addi	x0,x0,0	  x0:0x00000000
        3955000	       394	800002c4	fe5ff0ef	jal	x1,800002c4	  x1=0x800002c4
        3965000	       395	00000000	00000013	addi	x0,x0,0	  x0:0x00000000
        3975000	       396	800002a4	00000013	addi	x0,x0,0	  x0:0x00000000
        3985000	       397	800002a8	03000b6f	jal	x22,800002a8	 x22=0x800002a8
        3995000	       398	00000000	00000013	addi	x0,x0,0	  x0:0x00000000
        4005000	       399	800002d4	00000013	addi	x0,x0,0	  x0:0x00000000
        4015000	       400	800002d8	fe5ff6ef	jal	x13,800002d8	 x13=0x800002d8
        4025000	       401	00000000	00000013	addi	x0,x0,0	  x0:0x00000000
        4035000	       402	800002b8	00000013	addi	x0,x0,0	  x0:0x00000000
        4045000	       403	800002bc	fe9ff36f	jal	x6,800002bc	  x6=0x800002bc
        4055000	       404	00000000	00000013	addi	x0,x0,0	  x0:0x00000000
        4065000	       405	800002a0	00000013	addi	x0,x0,0	  x0:0x00000000
        4075000	       406	800002a4	01c000ef	jal	x1,800002a4	  x1=0x800002a4
        4085000	       407	00000000	00000013	addi	x0,x0,0	  x0:0x00000000
        4095000	       408	800002bc	00000013	addi	x0,x0,0	  x0:0x00000000
        4105000	       409	800002c0	fedff0ef	jal	x1,800002c0	  x1=0x800002c0
        4115000	       410	00000000	00000013	addi	x0,x0,0	  x0:0x00000000
        4125000	       411	800002a8	00000013	addi	x0,x0,0	  x0:0x00000000
        4135000	       412	800002ac	030000ef	jal	x1,800002ac	  x1=0x800002ac
        4145000	       413	00000000	00000013	addi	x0,x0,0	  x0:0x00000000
        4155000	       414	800002d8	00000013	addi	x0,x0,0	  x0:0x00000000
        4165000	       415	800002dc	01fef2b3	and	x5,x29,x31	 x29:0x80000280 x31:0x80009f84  x5=0x80000280
        4175000	       416	800002e0	008000ef	jal	x1,800002e0	  x1=0x800002e0
        4185000	       417	00000000	00000013	addi	x0,x0,0	  x0:0x00000000
        4195000	       418	800002e4	00000013	addi	x0,x0,0	  x0:0x00000000
        4205000	       419	800002e8	008000ef	jal	x1,800002e8	  x1=0x800002e8
        4215000	       420	00000000	00000013	addi	x0,x0,0	  x0:0x00000000
        4225000	       421	800002ec	00000013	addi	x0,x0,0	  x0:0x00000000
        4235000	       422	800002f0	004000ef	jal	x1,800002f0	  x1=0x800002f0
        4245000	       423	00000000	00000013	addi	x0,x0,0	  x0:0x00000000
        4255000	       424	800002f0	00000013	addi	x0,x0,0	  x0:0x00000000
        4265000	       425	800002f4	0140036f	jal	x6,800002f4	  x6=0x800002f4
        4275000	       426	00000000	00000013	addi	x0,x0,0	  x0:0x00000000
        4285000	       427	80000304	00000013	addi	x0,x0,0	  x0:0x00000000
        4295000	       428	80000308	0040036f	jal	x6,80000308	  x6=0x80000308
        4305000	       429	00000000	00000013	addi	x0,x0,0	  x0:0x00000000
        4315000	       430	80000308	00000013	addi	x0,x0,0	  x0:0x00000000
        4325000	       431	8000030c	fe1ff0ef	jal	x1,8000030c	  x1=0x8000030c
        4335000	       432	00000000	00000013	addi	x0,x0,0	  x0:0x00000000
        4345000	       433	800002e8	00000013	addi	x0,x0,0	  x0:0x00000000
        4355000	       434	800002ec	02800b6f	jal	x22,800002ec	 x22=0x800002ec
        4365000	       435	00000000	00000013	addi	x0,x0,0	  x0:0x00000000
        4375000	       436	80000310	00000013	addi	x0,x0,0	  x0:0x00000000
        4385000	       437	80000314	ffdff0ef	jal	x1,80000314	  x1=0x80000314
        4395000	       438	00000000	00000013	addi	x0,x0,0	  x0:0x00000000
        4405000	       439	8000030c	00000013	addi	x0,x0,0	  x0:0x00000000
        4415000	       440	80000310	fd5ff66f	jal	x12,80000310	 x12=0x80000310
        4425000	       441	00000000	00000013	addi	x0,x0,0	  x0:0x00000000
        4435000	       442	800002e0	00000013	addi	x0,x0,0	  x0:0x00000000
        4445000	       443	800002e4	034005ef	jal	x11,800002e4	 x11=0x800002e4
        4455000	       444	00000000	00000013	addi	x0,x0,0	  x0:0x00000000
        4465000	       445	80000314	00000013	addi	x0,x0,0	  x0:0x00000000
        4475000	       446	80000318	fedffb6f	jal	x22,80000318	 x22=0x80000318
        4485000	       447	00000000	00000013	addi	x0,x0,0	  x0:0x00000000
        4495000	       448	80000300	00000013	addi	x0,x0,0	  x0:0x00000000
        4505000	       449	80000304	ffdff0ef	jal	x1,80000304	  x1=0x80000304
        4515000	       450	00000000	00000013	addi	x0,x0,0	  x0:0x00000000
        4525000	       451	800002fc	00000013	addi	x0,x0,0	  x0:0x00000000
        4535000	       452	80000300	ffdff0ef	jal	x1,80000300	  x1=0x80000300
        4545000	       453	00000000	00000013	addi	x0,x0,0	  x0:0x00000000
        4555000	       454	800002f8	00000013	addi	x0,x0,0	  x0:0x00000000
        4565000	       455	800002fc	ffdff0ef	jal	x1,800002fc	  x1=0x800002fc
        4575000	       456	00000000	00000013	addi	x0,x0,0	  x0:0x00000000
        4585000	       457	800002f4	00000013	addi	x0,x0,0	  x0:0x00000000
        4595000	       458	800002f8	0240036f	jal	x6,800002f8	  x6=0x800002f8
        4605000	       459	00000000	00000013	addi	x0,x0,0	  x0:0x00000000
        4615000	       460	80000318	00000013	addi	x0,x0,0	  x0:0x00000000
        4625000	       461	8000031c	004000ef	jal	x1,8000031c	  x1=0x8000031c
        4635000	       462	00000000	00000013	addi	x0,x0,0	  x0:0x00000000
        4645000	       463	8000031c	00000013	addi	x0,x0,0	  x0:0x00000000
        4655000	       464	80000320	00000013	addi	x0,x0,0	  x0:0x00000000
        4665000	       465	80000324	010000ef	jal	x1,80000324	  x1=0x80000324
        4675000	       466	00000000	00000013	addi	x0,x0,0	  x0:0x00000000
        4685000	       467	80000330	00000013	addi	x0,x0,0	  x0:0x00000000
        4695000	       468	80000334	010009ef	jal	x19,80000334	 x19=0x80000334
        4705000	       469	00000000	00000013	addi	x0,x0,0	  x0:0x00000000
        4715000	       470	80000340	00000013	addi	x0,x0,0	  x0:0x00000000
        4725000	       471	80000344	020000ef	jal	x1,80000344	  x1=0x80000344
        4735000	       472	00000000	00000013	addi	x0,x0,0	  x0:0x00000000
        4745000	       473	80000360	00000013	addi	x0,x0,0	  x0:0x00000000
        4755000	       474	80000364	fd5ff0ef	jal	x1,80000364	  x1=0x80000364
        4765000	       475	00000000	00000013	addi	x0,x0,0	  x0:0x00000000
        4775000	       476	80000334	00000013	addi	x0,x0,0	  x0:0x00000000
        4785000	       477	80000338	ff1ff0ef	jal	x1,80000338	  x1=0x80000338
        4795000	       478	00000000	00000013	addi	x0,x0,0	  x0:0x00000000
        4805000	       479	80000324	00000013	addi	x0,x0,0	  x0:0x00000000
        4815000	       480	80000328	020000ef	jal	x1,80000328	  x1=0x80000328
        4825000	       481	00000000	00000013	addi	x0,x0,0	  x0:0x00000000
        4835000	       482	80000344	00000013	addi	x0,x0,0	  x0:0x00000000
        4845000	       483	80000348	ff9ff36f	jal	x6,80000348	  x6=0x80000348
        4855000	       484	00000000	00000013	addi	x0,x0,0	  x0:0x00000000
        4865000	       485	8000033c	00000013	addi	x0,x0,0	  x0:0x00000000
        4875000	       486	80000340	0180036f	jal	x6,80000340	  x6=0x80000340
        4885000	       487	00000000	00000013	addi	x0,x0,0	  x0:0x00000000
        4895000	       488	80000354	00000013	addi	x0,x0,0	  x0:0x00000000
        4905000	       489	80000358	01c000ef	jal	x1,80000358	  x1=0x80000358
        4915000	       490	00000000	00000013	addi	x0,x0,0	  x0:0x00000000
        4925000	       491	80000370	00000013	addi	x0,x0,0	  x0:0x00000000
        4935000	       492	80000374	ff5ff0ef	jal	x1,80000374	  x1=0x80000374
        4945000	       493	00000000	00000013	addi	x0,x0,0	  x0:0x00000000
        4955000	       494	80000364	00000013	addi	x0,x0,0	  x0:0x00000000
        4965000	       495	80000368	fe9ff26f	jal	x4,80000368	  x4=0x80000368
        4975000	       496	00000000	00000013	addi	x0,x0,0	  x0:0x00000000
        4985000	       497	8000034c	00000013	addi	x0,x0,0	  x0:0x00000000
        4995000	       498	80000350	fedff0ef	jal	x1,80000350	  x1=0x80000350
        5005000	       499	00000000	00000013	addi	x0,x0,0	  x0:0x00000000
        5015000	       500	80000338	00000013	addi	x0,x0,0	  x0:0x00000000
        5025000	       501	8000033c	0200026f	jal	x4,8000033c	  x4=0x8000033c
        5035000	       502	00000000	00000013	addi	x0,x0,0	  x0:0x00000000
        5045000	       503	80000358	00000013	addi	x0,x0,0	  x0:0x00000000
        5055000	       504	8000035c	010000ef	jal	x1,8000035c	  x1=0x8000035c
        5065000	       505	00000000	00000013	addi	x0,x0,0	  x0:0x00000000
        5075000	       506	80000368	00000013	addi	x0,x0,0	  x0:0x00000000
        5085000	       507	8000036c	fc1ffbef	jal	x23,8000036c	 x23=0x8000036c
        5095000	       508	00000000	00000013	addi	x0,x0,0	  x0:0x00000000
        5105000	       509	80000328	00000013	addi	x0,x0,0	  x0:0x00000000
        5115000	       510	8000032c	0440036f	jal	x6,8000032c	  x6=0x8000032c
        5125000	       511	00000000	00000013	addi	x0,x0,0	  x0:0x00000000
        5135000	       512	8000036c	00000013	addi	x0,x0,0	  x0:0x00000000
        5145000	       513	80000370	fc1ff76f	jal	x14,80000370	 x14=0x80000370
        5155000	       514	00000000	00000013	addi	x0,x0,0	  x0:0x00000000
        5165000	       515	8000032c	00000013	addi	x0,x0,0	  x0:0x00000000
        5175000	       516	80000330	01c000ef	jal	x1,80000330	  x1=0x80000330
        5185000	       517	00000000	00000013	addi	x0,x0,0	  x0:0x00000000
        5195000	       518	80000348	00000013	addi	x0,x0,0	  x0:0x00000000
        5205000	       519	8000034c	014007ef	jal	x15,8000034c	 x15=0x8000034c
        5215000	       520	00000000	00000013	addi	x0,x0,0	  x0:0x00000000
        5225000	       521	8000035c	00000013	addi	x0,x0,0	  x0:0x00000000
        5235000	       522	80000360	ff5ff0ef	jal	x1,80000360	  x1=0x80000360
        5245000	       523	00000000	00000013	addi	x0,x0,0	  x0:0x00000000
        5255000	       524	80000350	00000013	addi	x0,x0,0	  x0:0x00000000
        5265000	       525	80000354	0240056f	jal	x10,80000354	 x10=0x80000354
        5275000	       526	00000000	00000013	addi	x0,x0,0	  x0:0x00000000
        5285000	       527	80000374	00000013	addi	x0,x0,0	  x0:0x00000000
        5295000	       528	80000378	402cdf33	sra	x30,x25,x2	 x25:0x07512754  x2:0x80000228 x30=0x00075127
        5305000	       529	8000037c	008000ef	jal	x1,8000037c	  x1=0x8000037c
        5315000	       530	00000000	00000013	addi	x0,x0,0	  x0:0x00000000
        5325000	       531	80000380	00000013	addi	x0,x0,0	  x0:0x00000000
        5335000	       532	80000384	01400cef	jal	x25,80000384	 x25=0x80000384
        5345000	       533	00000000	00000013	addi	x0,x0,0	  x0:0x00000000
        5355000	       534	80000394	00000013	addi	x0,x0,0	  x0:0x00000000
        5365000	       535	80000398	01400a6f	jal	x20,80000398	 x20=0x80000398
        5375000	       536	00000000	00000013	addi	x0,x0,0	  x0:0x00000000
        5385000	       537	800003a8	00000013	addi	x0,x0,0	  x0:0x00000000
        5395000	       538	800003ac	ff9ff0ef	jal	x1,800003ac	  x1=0x800003ac
        5405000	       539	00000000	00000013	addi	x0,x0,0	  x0:0x00000000
        5415000	       540	800003a0	00000013	addi	x0,x0,0	  x0:0x00000000
        5425000	       541	800003a4	0040056f	jal	x10,800003a4	 x10=0x800003a4
        5435000	       542	00000000	00000013	addi	x0,x0,0	  x0:0x00000000
        5445000	       543	800003a4	00000013	addi	x0,x0,0	  x0:0x00000000
        5455000	       544	800003a8	008000ef	jal	x1,800003a8	  x1=0x800003a8
        5465000	       545	00000000	00000013	addi	x0,x0,0	  x0:0x00000000
        5475000	       546	800003ac	00000013	addi	x0,x0,0	  x0:0x00000000
        5485000	       547	800003b0	fedff0ef	jal	x1,800003b0	  x1=0x800003b0
        5495000	       548	00000000	00000013	addi	x0,x0,0	  x0:0x00000000
        5505000	       549	80000398	00000013	addi	x0,x0,0	  x0:0x00000000
        5515000	       550	8000039c	ff5ffd6f	jal	x26,8000039c	 x26=0x8000039c
        5525000	       551	00000000	00000013	addi	x0,x0,0	  x0:0x00000000
        5535000	       552	8000038c	00000013	addi	x0,x0,0	  x0:0x00000000
        5545000	       553	80000390	ff1ffc6f	jal	x24,80000390	 x24=0x80000390
        5555000	       554	00000000	00000013	addi	x0,x0,0	  x0:0x00000000
        5565000	       555	8000037c	00000013	addi	x0,x0,0	  x0:0x00000000
        5575000	       556	80000380	034000ef	jal	x1,80000380	  x1=0x80000380
        5585000	       557	00000000	00000013	addi	x0,x0,0	  x0:0x00000000
        5595000	       558	800003b0	00000013	addi	x0,x0,0	  x0:0x00000000
        5605000	       559	800003b4	fedffd6f	jal	x26,800003b4	 x26=0x800003b4
        5615000	       560	00000000	00000013	addi	x0,x0,0	  x0:0x00000000
        5625000	       561	8000039c	00000013	addi	x0,x0,0	  x0:0x00000000
        5635000	       562	800003a0	fedff36f	jal	x6,800003a0	  x6=0x800003a0
        5645000	       563	00000000	00000013	addi	x0,x0,0	  x0:0x00000000
        5655000	       564	80000388	00000013	addi	x0,x0,0	  x0:0x00000000
        5665000	       565	8000038c	008000ef	jal	x1,8000038c	  x1=0x8000038c
        5675000	       566	00000000	00000013	addi	x0,x0,0	  x0:0x00000000
        5685000	       567	80000390	00000013	addi	x0,x0,0	  x0:0x00000000
        5695000	       568	80000394	ff5ff6ef	jal	x13,80000394	 x13=0x80000394
        5705000	       569	00000000	00000013	addi	x0,x0,0	  x0:0x00000000
        5715000	       570	80000384	00000013	addi	x0,x0,0	  x0:0x00000000
        5725000	       571	80000388	03000bef	jal	x23,80000388	 x23=0x80000388
        5735000	       572	00000000	00000013	addi	x0,x0,0	  x0:0x00000000
        5745000	       573	800003b4	00000013	addi	x0,x0,0	  x0:0x00000000
        5755000	       574	800003b8	01192533	slt	x10,x18,x17	 x18:0x80009fc4 x17:0x80000198 x10=0x00000000
        5765000	       575	800003bc	048000ef	jal	x1,800003bc	  x1=0x800003bc
        5775000	       576	00000000	00000013	addi	x0,x0,0	  x0:0x00000000
        5785000	       577	80000400	00000013	addi	x0,x0,0	  x0:0x00000000
        5795000	       578	80000404	fe1ff36f	jal	x6,80000404	  x6=0x80000404
        5805000	       579	00000000	00000013	addi	x0,x0,0	  x0:0x00000000
        5815000	       580	800003e0	00000013	addi	x0,x0,0	  x0:0x00000000
        5825000	       581	800003e4	fddff16f	jal	x2,800003e4	  x2=0x800003e4
        5835000	       582	00000000	00000013	addi	x0,x0,0	  x0:0x00000000
        5845000	       583	800003bc	00000013	addi	x0,x0,0	  x0:0x00000000
        5855000	       584	800003c0	02c000ef	jal	x1,800003c0	  x1=0x800003c0
        5865000	       585	00000000	00000013	addi	x0,x0,0	  x0:0x00000000
        5875000	       586	800003e8	00000013	addi	x0,x0,0	  x0:0x00000000
        5885000	       587	800003ec	ffdff0ef	jal	x1,800003ec	  x1=0x800003ec
        5895000	       588	00000000	00000013	addi	x0,x0,0	  x0:0x00000000
        5905000	       589	800003e4	00000013	addi	x0,x0,0	  x0:0x00000000
        5915000	       590	800003e8	fe1ffc6f	jal	x24,800003e8	 x24=0x800003e8
        5925000	       591	00000000	00000013	addi	x0,x0,0	  x0:0x00000000
        5935000	       592	800003c4	00000013	addi	x0,x0,0	  x0:0x00000000
        5945000	       593	800003c8	008004ef	jal	x9,800003c8	  x9=0x800003c8
        5955000	       594	00000000	00000013	addi	x0,x0,0	  x0:0x00000000
        5965000	       595	800003cc	00000013	addi	x0,x0,0	  x0:0x00000000
        5975000	       596	800003d0	03c0066f	jal	x12,800003d0	 x12=0x800003d0
        5985000	       597	00000000	00000013	addi	x0,x0,0	  x0:0x00000000
        5995000	       598	80000408	00000013	addi	x0,x0,0	  x0:0x00000000
        6005000	       599	8000040c	fedff76f	jal	x14,8000040c	 x14=0x8000040c
        6015000	       600	00000000	00000013	addi	x0,x0,0	  x0:0x00000000
        6025000	       601	800003f4	00000013	addi	x0,x0,0	  x0:0x00000000
        6035000	       602	800003f8	010000ef	jal	x1,800003f8	  x1=0x800003f8
        6045000	       603	00000000	00000013	addi	x0,x0,0	  x0:0x00000000
        6055000	       604	80000404	00000013	addi	x0,x0,0	  x0:0x00000000
        6065000	       605	80000408	fcdff0ef	jal	x1,80000408	  x1=0x80000408
        6075000	       606	00000000	00000013	addi	x0,x0,0	  x0:0x00000000
        6085000	       607	800003d0	00000013	addi	x0,x0,0	  x0:0x00000000
        6095000	       608	800003d4	01c0036f	jal	x6,800003d4	  x6=0x800003d4
        6105000	       609	00000000	00000013	addi	x0,x0,0	  x0:0x00000000
        6115000	       610	800003ec	00000013	addi	x0,x0,0	  x0:0x00000000
        6125000	       611	800003f0	fddff0ef	jal	x1,800003f0	  x1=0x800003f0
        6135000	       612	00000000	00000013	addi	x0,x0,0	  x0:0x00000000
        6145000	       613	800003c8	00000013	addi	x0,x0,0	  x0:0x00000000
        6155000	       614	800003cc	030000ef	jal	x1,800003cc	  x1=0x800003cc
        6165000	       615	00000000	00000013	addi	x0,x0,0	  x0:0x00000000
        6175000	       616	800003f8	00000013	addi	x0,x0,0	  x0:0x00000000
        6185000	       617	800003fc	fe5ff0ef	jal	x1,800003fc	  x1=0x800003fc
        6195000	       618	00000000	00000013	addi	x0,x0,0	  x0:0x00000000
        6205000	       619	800003dc	00000013	addi	x0,x0,0	  x0:0x00000000
        6215000	       620	800003e0	fe5ff26f	jal	x4,800003e0	  x4=0x800003e0
        6225000	       621	00000000	00000013	addi	x0,x0,0	  x0:0x00000000
        6235000	       622	800003c0	00000013	addi	x0,x0,0	  x0:0x00000000
        6245000	       623	800003c4	03c000ef	jal	x1,800003c4	  x1=0x800003c4
        6255000	       624	00000000	00000013	addi	x0,x0,0	  x0:0x00000000
        6265000	       625	800003fc	00000013	addi	x0,x0,0	  x0:0x00000000
        6275000	       626	80000400	fd9ff1ef	jal	x3,80000400	  x3=0x80000400
        6285000	       627	00000000	00000013	addi	x0,x0,0	  x0:0x00000000
        6295000	       628	800003d4	00000013	addi	x0,x0,0	  x0:0x00000000
        6305000	       629	800003d8	004003ef	jal	x7,800003d8	  x7=0x800003d8
        6315000	       630	00000000	00000013	addi	x0,x0,0	  x0:0x00000000
        6325000	       631	800003d8	00000013	addi	x0,x0,0	  x0:0x00000000
        6335000	       632	800003dc	0180036f	jal	x6,800003dc	  x6=0x800003dc
        6345000	       633	00000000	00000013	addi	x0,x0,0	  x0:0x00000000
        6355000	       634	800003f0	00000013	addi	x0,x0,0	  x0:0x00000000
        6365000	       635	800003f4	01c0036f	jal	x6,800003f4	  x6=0x800003f4
        6375000	       636	00000000	00000013	addi	x0,x0,0	  x0:0x00000000
        6385000	       637	8000040c	00000013	addi	x0,x0,0	  x0:0x00000000
        6395000	       638	80000410	40e90cb3	sub	x25,x18,x14	 x18:0x80009fc4 x14:0x8000040c x25=0x00009bb8
        6405000	       639	80000414	03c000ef	jal	x1,80000414	  x1=0x80000414
        6415000	       640	00000000	00000013	addi	x0,x0,0	  x0:0x00000000
        6425000	       641	8000044c	00000013	addi	x0,x0,0	  x0:0x00000000
        6435000	       642	80000450	01c000ef	jal	x1,80000450	  x1=0x80000450
        6445000	       643	00000000	00000013	addi	x0,x0,0	  x0:0x00000000
        6455000	       644	80000468	00000013	addi	x0,x0,0	  x0:0x00000000
        6465000	       645	8000046c	fd1ff36f	jal	x6,8000046c	  x6=0x8000046c
        6475000	       646	00000000	00000013	addi	x0,x0,0	  x0:0x00000000
        6485000	       647	80000438	00000013	addi	x0,x0,0	  x0:0x00000000
        6495000	       648	8000043c	0040026f	jal	x4,8000043c	  x4=0x8000043c
        6505000	       649	00000000	00000013	addi	x0,x0,0	  x0:0x00000000
        6515000	       650	8000043c	00000013	addi	x0,x0,0	  x0:0x00000000
        6525000	       651	80000440	fe5ff0ef	jal	x1,80000440	  x1=0x80000440
        6535000	       652	00000000	00000013	addi	x0,x0,0	  x0:0x00000000
        6545000	       653	80000420	00000013	addi	x0,x0,0	  x0:0x00000000
        6555000	       654	80000424	030000ef	jal	x1,80000424	  x1=0x80000424
        6565000	       655	00000000	00000013	addi	x0,x0,0	  x0:0x00000000
        6575000	       656	80000450	00000013	addi	x0,x0,0	  x0:0x00000000
        6585000	       657	80000454	010000ef	jal	x1,80000454	  x1=0x80000454
        6595000	       658	00000000	00000013	addi	x0,x0,0	  x0:0x00000000
        6605000	       659	80000460	00000013	addi	x0,x0,0	  x0:0x00000000
        6615000	       660	80000464	fcdff0ef	jal	x1,80000464	  x1=0x80000464
        6625000	       661	00000000	00000013	addi	x0,x0,0	  x0:0x00000000
        6635000	       662	8000042c	00000013	addi	x0,x0,0	  x0:0x00000000
        6645000	       663	80000430	0140036f	jal	x6,80000430	  x6=0x80000430
        6655000	       664	00000000	00000013	addi	x0,x0,0	  x0:0x00000000
        6665000	       665	80000440	00000013	addi	x0,x0,0	  x0:0x00000000
        6675000	       666	80000444	01c0016f	jal	x2,80000444	  x2=0x80000444
        6685000	       667	00000000	00000013	addi	x0,x0,0	  x0:0x00000000
        6695000	       668	8000045c	00000013	addi	x0,x0,0	  x0:0x00000000
        6705000	       669	80000460	fd9ffa6f	jal	x20,80000460	 x20=0x80000460
        6715000	       670	00000000	00000013	addi	x0,x0,0	  x0:0x00000000
        6725000	       671	80000434	00000013	addi	x0,x0,0	  x0:0x00000000
        6735000	       672	80000438	014000ef	jal	x1,80000438	  x1=0x80000438
        6745000	       673	00000000	00000013	addi	x0,x0,0	  x0:0x00000000
        6755000	       674	80000448	00000013	addi	x0,x0,0	  x0:0x00000000
        6765000	       675	8000044c	0100036f	jal	x6,8000044c	  x6=0x8000044c
        6775000	       676	00000000	00000013	addi	x0,x0,0	  x0:0x00000000
        6785000	       677	80000458	00000013	addi	x0,x0,0	  x0:0x00000000
        6795000	       678	8000045c	fbdff0ef	jal	x1,8000045c	  x1=0x8000045c
        6805000	       679	00000000	00000013	addi	x0,x0,0	  x0:0x00000000
        6815000	       680	80000414	00000013	addi	x0,x0,0	  x0:0x00000000
        6825000	       681	80000418	01400d6f	jal	x26,80000418	 x26=0x80000418
        6835000	       682	00000000	00000013	addi	x0,x0,0	  x0:0x00000000
        6845000	       683	80000428	00000013	addi	x0,x0,0	  x0:0x00000000
        6855000	       684	8000042c	0080016f	jal	x2,8000042c	  x2=0x8000042c
        6865000	       685	00000000	00000013	addi	x0,x0,0	  x0:0x00000000
        6875000	       686	80000430	00000013	addi	x0,x0,0	  x0:0x00000000
        6885000	       687	80000434	0140036f	jal	x6,80000434	  x6=0x80000434
        6895000	       688	00000000	00000013	addi	x0,x0,0	  x0:0x00000000
        6905000	       689	80000444	00000013	addi	x0,x0,0	  x0:0x00000000
        6915000	       690	80000448	010000ef	jal	x1,80000448	  x1=0x80000448
        6925000	       691	00000000	00000013	addi	x0,x0,0	  x0:0x00000000
        6935000	       692	80000454	00000013	addi	x0,x0,0	  x0:0x00000000
        6945000	       693	80000458	018000ef	jal	x1,80000458	  x1=0x80000458
        6955000	       694	00000000	00000013	addi	x0,x0,0	  x0:0x00000000
        6965000	       695	8000046c	00000013	addi	x0,x0,0	  x0:0x00000000
        6975000	       696	80000470	ff9ff9ef	jal	x19,80000470	 x19=0x80000470
        6985000	       697	00000000	00000013	addi	x0,x0,0	  x0:0x00000000
        6995000	       698	80000464	00000013	addi	x0,x0,0	  x0:0x00000000
        7005000	       699	80000468	fb5ff0ef	jal	x1,80000468	  x1=0x80000468
        7015000	       700	00000000	00000013	addi	x0,x0,0	  x0:0x00000000
        7025000	       701	80000418	00000013	addi	x0,x0,0	  x0:0x00000000
        7035000	       702	8000041c	00c0046f	jal	x8,8000041c	  x8=0x8000041c
        7045000	       703	00000000	00000013	addi	x0,x0,0	  x0:0x00000000
        7055000	       704	80000424	00000013	addi	x0,x0,0	  x0:0x00000000
        7065000	       705	80000428	ff9ff0ef	jal	x1,80000428	  x1=0x80000428
        7075000	       706	00000000	00000013	addi	x0,x0,0	  x0:0x00000000
        7085000	       707	8000041c	00000013	addi	x0,x0,0	  x0:0x00000000
        7095000	       708	80000420	054000ef	jal	x1,80000420	  x1=0x80000420
        7105000	       709	00000000	00000013	addi	x0,x0,0	  x0:0x00000000
        7115000	       710	80000470	00000013	addi	x0,x0,0	  x0:0x00000000
        7125000	       711	80000474	003d6033	or	x0,x26,x3	 x26:0x80000418  x3:0x80000400
        7135000	       712	80000478	004000ef	jal	x1,80000478	  x1=0x80000478
        7145000	       713	00000000	00000013	addi	x0,x0,0	  x0:0x00000000
        7155000	       714	80000478	00000013	addi	x0,x0,0	  x0:0x00000000
        7165000	       715	8000047c	030000ef	jal	x1,8000047c	  x1=0x8000047c
        7175000	       716	00000000	00000013	addi	x0,x0,0	  x0:0x00000000
        7185000	       717	800004a8	00000013	addi	x0,x0,0	  x0:0x00000000
        7195000	       718	800004ac	ffdff0ef	jal	x1,800004ac	  x1=0x800004ac
        7205000	       719	00000000	00000013	addi	x0,x0,0	  x0:0x00000000
        7215000	       720	800004a4	00000013	addi	x0,x0,0	  x0:0x00000000
        7225000	       721	800004a8	fddff0ef	jal	x1,800004a8	  x1=0x800004a8
        7235000	       722	00000000	00000013	addi	x0,x0,0	  x0:0x00000000
        7245000	       723	80000480	00000013	addi	x0,x0,0	  x0:0x00000000
        7255000	       724	80000484	020000ef	jal	x1,80000484	  x1=0x80000484
        7265000	       725	00000000	00000013	addi	x0,x0,0	  x0:0x00000000
        7275000	       726	800004a0	00000013	addi	x0,x0,0	  x0:0x00000000
        7285000	       727	800004a4	00c000ef	jal	x1,800004a4	  x1=0x800004a4
        7295000	       728	00000000	00000013	addi	x0,x0,0	  x0:0x00000000
        7305000	       729	800004ac	00000013	addi	x0,x0,0	  x0:0x00000000
        7315000	       730	800004b0	fe5ff0ef	jal	x1,800004b0	  x1=0x800004b0
        7325000	       731	00000000	00000013	addi	x0,x0,0	  x0:0x00000000
        7335000	       732	80000490	00000013	addi	x0,x0,0	  x0:0x00000000
        7345000	       733	80000494	ff5ff0ef	jal	x1,80000494	  x1=0x80000494
        7355000	       734	00000000	00000013	addi	x0,x0,0	  x0:0x00000000
        7365000	       735	80000484	00000013	addi	x0,x0,0	  x0:0x00000000
        7375000	       736	80000488	018000ef	jal	x1,80000488	  x1=0x80000488
        7385000	       737	00000000	00000013	addi	x0,x0,0	  x0:0x00000000
        7395000	       738	8000049c	00000013	addi	x0,x0,0	  x0:0x00000000
        7405000	       739	800004a0	fedff0ef	jal	x1,800004a0	  x1=0x800004a0
        7415000	       740	00000000	00000013	addi	x0,x0,0	  x0:0x00000000
        7425000	       741	80000488	00000013	addi	x0,x0,0	  x0:0x00000000
        7435000	       742	8000048c	ff5ff0ef	jal	x1,8000048c	  x1=0x8000048c
        7445000	       743	00000000	00000013	addi	x0,x0,0	  x0:0x00000000
        7455000	       744	8000047c	00000013	addi	x0,x0,0	  x0:0x00000000
        7465000	       745	80000480	034000ef	jal	x1,80000480	  x1=0x80000480
        7475000	       746	00000000	00000013	addi	x0,x0,0	  x0:0x00000000
        7485000	       747	800004b0	00000013	addi	x0,x0,0	  x0:0x00000000
        7495000	       748	800004b4	fddff0ef	jal	x1,800004b4	  x1=0x800004b4
        7505000	       749	00000000	00000013	addi	x0,x0,0	  x0:0x00000000
        7515000	       750	8000048c	00000013	addi	x0,x0,0	  x0:0x00000000
        7525000	       751	80000490	008000ef	jal	x1,80000490	  x1=0x80000490
        7535000	       752	00000000	00000013	addi	x0,x0,0	  x0:0x00000000
        7545000	       753	80000494	00000013	addi	x0,x0,0	  x0:0x00000000
        7555000	       754	80000498	0040036f	jal	x6,80000498	  x6=0x80000498
        7565000	       755	00000000	00000013	addi	x0,x0,0	  x0:0x00000000
        7575000	       756	80000498	00000013	addi	x0,x0,0	  x0:0x00000000
        7585000	       757	8000049c	01c000ef	jal	x1,8000049c	  x1=0x8000049c
        7595000	       758	00000000	00000013	addi	x0,x0,0	  x0:0x00000000
        7605000	       759	800004b4	00000013	addi	x0,x0,0	  x0:0x00000000
        7615000	       760	800004b8	01e69b93	slli	x23,x13,0x1e	 x13:0x80000394 x23=0x00000000
        7625000	       761	800004bc	04c000ef	jal	x1,800004bc	  x1=0x800004bc
        7635000	       762	00000000	00000013	addi	x0,x0,0	  x0:0x00000000
        7645000	       763	80000504	00000013	addi	x0,x0,0	  x0:0x00000000
        7655000	       764	80000508	fddff36f	jal	x6,80000508	  x6=0x80000508
        7665000	       765	00000000	00000013	addi	x0,x0,0	  x0:0x00000000
        7675000	       766	800004e0	00000013	addi	x0,x0,0	  x0:0x00000000
        7685000	       767	800004e4	01c0046f	jal	x8,800004e4	  x8=0x800004e4
        7695000	       768	00000000	00000013	addi	x0,x0,0	  x0:0x00000000
        7705000	       769	800004fc	00000013	addi	x0,x0,0	  x0:0x00000000
        7715000	       770	80000500	01c000ef	jal	x1,80000500	  x1=0x80000500
        7725000	       771	00000000	00000013	addi	x0,x0,0	  x0:0x00000000
        7735000	       772	80000518	00000013	addi	x0,x0,0	  x0:0x00000000
        7745000	       773	8000051c	fa5ff0ef	jal	x1,8000051c	  x1=0x8000051c
        7755000	       774	00000000	00000013	addi	x0,x0,0	  x0:0x00000000
        7765000	       775	800004bc	00000013	addi	x0,x0,0	  x0:0x00000000
        7775000	       776	800004c0	03c000ef	jal	x1,800004c0	  x1=0x800004c0
        7785000	       777	00000000	00000013	addi	x0,x0,0	  x0:0x00000000
        7795000	       778	800004f8	00000013	addi	x0,x0,0	  x0:0x00000000
        7805000	       779	800004fc	028000ef	jal	x1,800004fc	  x1=0x800004fc
        7815000	       780	00000000	00000013	addi	x0,x0,0	  x0:0x00000000
        7825000	       781	80000520	00000013	addi	x0,x0,0	  x0:0x00000000
        7835000	       782	80000524	fadff0ef	jal	x1,80000524	  x1=0x80000524
        7845000	       783	00000000	00000013	addi	x0,x0,0	  x0:0x00000000
        7855000	       784	800004cc	00000013	addi	x0,x0,0	  x0:0x00000000
        7865000	       785	800004d0	024000ef	jal	x1,800004d0	  x1=0x800004d0
        7875000	       786	00000000	00000013	addi	x0,x0,0	  x0:0x00000000
        7885000	       787	800004f0	00000013	addi	x0,x0,0	  x0:0x00000000
        7895000	       788	800004f4	ffdff0ef	jal	x1,800004f4	  x1=0x800004f4
        7905000	       789	00000000	00000013	addi	x0,x0,0	  x0:0x00000000
        7915000	       790	800004ec	00000013	addi	x0,x0,0	  x0:0x00000000
        7925000	       791	800004f0	0300016f	jal	x2,800004f0	  x2=0x800004f0
        7935000	       792	00000000	00000013	addi	x0,x0,0	  x0:0x00000000
        7945000	       793	8000051c	00000013	addi	x0,x0,0	  x0:0x00000000
        7955000	       794	80000520	fc9ff36f	jal	x6,80000520	  x6=0x80000520
        7965000	       795	00000000	00000013	addi	x0,x0,0	  x0:0x00000000
        7975000	       796	800004e4	00000013	addi	x0,x0,0	  x0:0x00000000
        7985000	       797	800004e8	fddff66f	jal	x12,800004e8	 x12=0x800004e8
        7995000	       798	00000000	00000013	addi	x0,x0,0	  x0:0x00000000
        8005000	       799	800004c0	00000013	addi	x0,x0,0	  x0:0x00000000
        8015000	       800	800004c4	04c000ef	jal	x1,800004c4	  x1=0x800004c4
        8025000	       801	00000000	00000013	addi	x0,x0,0	  x0:0x00000000
        8035000	       802	8000050c	00000013	addi	x0,x0,0	  x0:0x00000000
        8045000	       803	80000510	fb9ff1ef	jal	x3,80000510	  x3=0x80000510
        8055000	       804	00000000	00000013	addi	x0,x0,0	  x0:0x00000000
        8065000	       805	800004c4	00000013	addi	x0,x0,0	  x0:0x00000000
        8075000	       806	800004c8	0140036f	jal	x6,800004c8	  x6=0x800004c8
        8085000	       807	00000000	00000013	addi	x0,x0,0	  x0:0x00000000
        8095000	       808	800004d8	00000013	addi	x0,x0,0	  x0:0x00000000
        8105000	       809	800004dc	00400d6f	jal	x26,800004dc	 x26=0x800004dc
        8115000	       810	00000000	00000013	addi	x0,x0,0	  x0:0x00000000
        8125000	       811	800004dc	00000013	addi	x0,x0,0	  x0:0x00000000
        8135000	       812	800004e0	02c000ef	jal	x1,800004e0	  x1=0x800004e0
        8145000	       813	00000000	00000013	addi	x0,x0,0	  x0:0x00000000
        8155000	       814	80000508	00000013	addi	x0,x0,0	  x0:0x00000000
        8165000	       815	8000050c	fe1ff36f	jal	x6,8000050c	  x6=0x8000050c
        8175000	       816	00000000	00000013	addi	x0,x0,0	  x0:0x00000000
        8185000	       817	800004e8	00000013	addi	x0,x0,0	  x0:0x00000000
        8195000	       818	800004ec	fe9ff0ef	jal	x1,800004ec	  x1=0x800004ec
        8205000	       819	00000000	00000013	addi	x0,x0,0	  x0:0x00000000
        8215000	       820	800004d0	00000013	addi	x0,x0,0	  x0:0x00000000
        8225000	       821	800004d4	044000ef	jal	x1,800004d4	  x1=0x800004d4
        8235000	       822	00000000	00000013	addi	x0,x0,0	  x0:0x00000000
        8245000	       823	80000514	00000013	addi	x0,x0,0	  x0:0x00000000
        8255000	       824	80000518	fe1ff0ef	jal	x1,80000518	  x1=0x80000518
        8265000	       825	00000000	00000013	addi	x0,x0,0	  x0:0x00000000
        8275000	       826	800004f4	00000013	addi	x0,x0,0	  x0:0x00000000
        8285000	       827	800004f8	01c0036f	jal	x6,800004f8	  x6=0x800004f8
        8295000	       828	00000000	00000013	addi	x0,x0,0	  x0:0x00000000
        8305000	       829	80000510	00000013	addi	x0,x0,0	  x0:0x00000000
        8315000	       830	80000514	fb9ff7ef	jal	x15,80000514	 x15=0x80000514
        8325000	       831	00000000	00000013	addi	x0,x0,0	  x0:0x00000000
        8335000	       832	800004c8	00000013	addi	x0,x0,0	  x0:0x00000000
        8345000	       833	800004cc	00c000ef	jal	x1,800004cc	  x1=0x800004cc
        8355000	       834	00000000	00000013	addi	x0,x0,0	  x0:0x00000000
        8365000	       835	800004d4	00000013	addi	x0,x0,0	  x0:0x00000000
        8375000	       836	800004d8	02c009ef	jal	x19,800004d8	 x19=0x800004d8
        8385000	       837	00000000	00000013	addi	x0,x0,0	  x0:0x00000000
        8395000	       838	80000500	00000013	addi	x0,x0,0	  x0:0x00000000
        8405000	       839	80000504	024000ef	jal	x1,80000504	  x1=0x80000504
        8415000	       840	00000000	00000013	addi	x0,x0,0	  x0:0x00000000
        8425000	       841	80000524	00000013	addi	x0,x0,0	  x0:0x00000000
        8435000	       842	80000528	018608b3	add	x17,x12,x24	 x12:0x800004e8 x24:0x800003e8 x17=0x000008d0
        8445000	       843	8000052c	01c000ef	jal	x1,8000052c	  x1=0x8000052c
        8455000	       844	00000000	00000013	addi	x0,x0,0	  x0:0x00000000
        8465000	       845	80000544	00000013	addi	x0,x0,0	  x0:0x00000000
        8475000	       846	80000548	00c000ef	jal	x1,80000548	  x1=0x80000548
        8485000	       847	00000000	00000013	addi	x0,x0,0	  x0:0x00000000
        8495000	       848	80000550	00000013	addi	x0,x0,0	  x0:0x00000000
        8505000	       849	80000554	ff1ff0ef	jal	x1,80000554	  x1=0x80000554
        8515000	       850	00000000	00000013	addi	x0,x0,0	  x0:0x00000000
        8525000	       851	80000540	00000013	addi	x0,x0,0	  x0:0x00000000
        8535000	       852	80000544	ffdff36f	jal	x6,80000544	  x6=0x80000544
        8545000	       853	00000000	00000013	addi	x0,x0,0	  x0:0x00000000
        8555000	       854	8000053c	00000013	addi	x0,x0,0	  x0:0x00000000
        8565000	       855	80000540	010001ef	jal	x3,80000540	  x3=0x80000540
        8575000	       856	00000000	00000013	addi	x0,x0,0	  x0:0x00000000
        8585000	       857	8000054c	00000013	addi	x0,x0,0	  x0:0x00000000
        8595000	       858	80000550	fe5ff0ef	jal	x1,80000550	  x1=0x80000550
        8605000	       859	00000000	00000013	addi	x0,x0,0	  x0:0x00000000
        8615000	       860	80000530	00000013	addi	x0,x0,0	  x0:0x00000000
        8625000	       861	80000534	008000ef	jal	x1,80000534	  x1=0x80000534
        8635000	       862	00000000	00000013	addi	x0,x0,0	  x0:0x00000000
        8645000	       863	80000538	00000013	addi	x0,x0,0	  x0:0x00000000
        8655000	       864	8000053c	ff5ff0ef	jal	x1,8000053c	  x1=0x8000053c
        8665000	       865	00000000	00000013	addi	x0,x0,0	  x0:0x00000000
        8675000	       866	8000052c	00000013	addi	x0,x0,0	  x0:0x00000000
        8685000	       867	80000530	008000ef	jal	x1,80000530	  x1=0x80000530
        8695000	       868	00000000	00000013	addi	x0,x0,0	  x0:0x00000000
        8705000	       869	80000534	00000013	addi	x0,x0,0	  x0:0x00000000
        8715000	       870	80000538	014000ef	jal	x1,80000538	  x1=0x80000538
        8725000	       871	00000000	00000013	addi	x0,x0,0	  x0:0x00000000
        8735000	       872	80000548	00000013	addi	x0,x0,0	  x0:0x00000000
        8745000	       873	8000054c	00c000ef	jal	x1,8000054c	  x1=0x8000054c
        8755000	       874	00000000	00000013	addi	x0,x0,0	  x0:0x00000000
        8765000	       875	80000554	00000013	addi	x0,x0,0	  x0:0x00000000
        8775000	       876	80000558	01764cb3	xor	x25,x12,x23	 x12:0x800004e8 x23:0x00000000 x25=0x800004e8
        8785000	       877	8000055c	020000ef	jal	x1,8000055c	  x1=0x8000055c
        8795000	       878	00000000	00000013	addi	x0,x0,0	  x0:0x00000000
        8805000	       879	80000578	00000013	addi	x0,x0,0	  x0:0x00000000
        8815000	       880	8000057c	ff9ff0ef	jal	x1,8000057c	  x1=0x8000057c
        8825000	       881	00000000	00000013	addi	x0,x0,0	  x0:0x00000000
        8835000	       882	80000570	00000013	addi	x0,x0,0	  x0:0x00000000
        8845000	       883	80000574	0040016f	jal	x2,80000574	  x2=0x80000574
        8855000	       884	00000000	00000013	addi	x0,x0,0	  x0:0x00000000
        8865000	       885	80000574	00000013	addi	x0,x0,0	  x0:0x00000000
        8875000	       886	80000578	010000ef	jal	x1,80000578	  x1=0x80000578
        8885000	       887	00000000	00000013	addi	x0,x0,0	  x0:0x00000000
        8895000	       888	80000584	00000013	addi	x0,x0,0	  x0:0x00000000
        8905000	       889	80000588	028000ef	jal	x1,80000588	  x1=0x80000588
        8915000	       890	00000000	00000013	addi	x0,x0,0	  x0:0x00000000
        8925000	       891	800005ac	00000013	addi	x0,x0,0	  x0:0x00000000
        8935000	       892	800005b0	fddff0ef	jal	x1,800005b0	  x1=0x800005b0
        8945000	       893	00000000	00000013	addi	x0,x0,0	  x0:0x00000000
        8955000	       894	80000588	00000013	addi	x0,x0,0	  x0:0x00000000
        8965000	       895	8000058c	ff9ff4ef	jal	x9,8000058c	  x9=0x8000058c
        8975000	       896	00000000	00000013	addi	x0,x0,0	  x0:0x00000000
        8985000	       897	80000580	00000013	addi	x0,x0,0	  x0:0x00000000
        8995000	       898	80000584	03000aef	jal	x21,80000584	 x21=0x80000584
        9005000	       899	00000000	00000013	addi	x0,x0,0	  x0:0x00000000
        9015000	       900	800005b0	00000013	addi	x0,x0,0	  x0:0x00000000
        9025000	       901	800005b4	0040066f	jal	x12,800005b4	 x12=0x800005b4
        9035000	       902	00000000	00000013	addi	x0,x0,0	  x0:0x00000000
        9045000	       903	800005b4	00000013	addi	x0,x0,0	  x0:0x00000000
        9055000	       904	800005b8	fedff36f	jal	x6,800005b8	  x6=0x800005b8
        9065000	       905	00000000	00000013	addi	x0,x0,0	  x0:0x00000000
        9075000	       906	800005a0	00000013	addi	x0,x0,0	  x0:0x00000000
        9085000	       907	800005a4	fcdff36f	jal	x6,800005a4	  x6=0x800005a4
        9095000	       908	00000000	00000013	addi	x0,x0,0	  x0:0x00000000
        9105000	       909	8000056c	00000013	addi	x0,x0,0	  x0:0x00000000
        9115000	       910	80000570	ffdff66f	jal	x12,80000570	 x12=0x80000570
        9125000	       911	00000000	00000013	addi	x0,x0,0	  x0:0x00000000
        9135000	       912	80000568	00000013	addi	x0,x0,0	  x0:0x00000000
        9145000	       913	8000056c	02c000ef	jal	x1,8000056c	  x1=0x8000056c
        9155000	       914	00000000	00000013	addi	x0,x0,0	  x0:0x00000000
        9165000	       915	80000594	00000013	addi	x0,x0,0	  x0:0x00000000
        9175000	       916	80000598	ff9ff0ef	jal	x1,80000598	  x1=0x80000598
        9185000	       917	00000000	00000013	addi	x0,x0,0	  x0:0x00000000
        9195000	       918	8000058c	00000013	addi	x0,x0,0	  x0:0x00000000
        9205000	       919	80000590	fd5ff0ef	jal	x1,80000590	  x1=0x80000590
        9215000	       920	00000000	00000013	addi	x0,x0,0	  x0:0x00000000
        9225000	       921	80000560	00000013	addi	x0,x0,0	  x0:0x00000000
        9235000	       922	80000564	03c0036f	jal	x6,80000564	  x6=0x80000564
        9245000	       923	00000000	00000013	addi	x0,x0,0	  x0:0x00000000
        9255000	       924	8000059c	00000013	addi	x0,x0,0	  x0:0x00000000
        9265000	       925	800005a0	ff5ff0ef	jal	x1,800005a0	  x1=0x800005a0
        9275000	       926	00000000	00000013	addi	x0,x0,0	  x0:0x00000000
        9285000	       927	80000590	00000013	addi	x0,x0,0	  x0:0x00000000
        9295000	       928	80000594	0080076f	jal	x14,80000594	 x14=0x80000594
        9305000	       929	00000000	00000013	addi	x0,x0,0	  x0:0x00000000
        9315000	       930	80000598	00000013	addi	x0,x0,0	  x0:0x00000000
        9325000	       931	8000059c	fe5ff0ef	jal	x1,8000059c	  x1=0x8000059c
        9335000	       932	00000000	00000013	addi	x0,x0,0	  x0:0x00000000
        9345000	       933	8000057c	00000013	addi	x0,x0,0	  x0:0x00000000
        9355000	       934	80000580	028000ef	jal	x1,80000580	  x1=0x80000580
        9365000	       935	00000000	00000013	addi	x0,x0,0	  x0:0x00000000
        9375000	       936	800005a4	00000013	addi	x0,x0,0	  x0:0x00000000
        9385000	       937	800005a8	0040036f	jal	x6,800005a8	  x6=0x800005a8
        9395000	       938	00000000	00000013	addi	x0,x0,0	  x0:0x00000000
        9405000	       939	800005a8	00000013	addi	x0,x0,0	  x0:0x00000000
        9415000	       940	800005ac	fbdff36f	jal	x6,800005ac	  x6=0x800005ac
        9425000	       941	00000000	00000013	addi	x0,x0,0	  x0:0x00000000
        9435000	       942	80000564	00000013	addi	x0,x0,0	  x0:0x00000000
        9445000	       943	80000568	ff9ff0ef	jal	x1,80000568	  x1=0x80000568
        9455000	       944	00000000	00000013	addi	x0,x0,0	  x0:0x00000000
        9465000	       945	8000055c	00000013	addi	x0,x0,0	  x0:0x00000000
        9475000	       946	80000560	05c002ef	jal	x5,80000560	  x5=0x80000560
        9485000	       947	00000000	00000013	addi	x0,x0,0	  x0:0x00000000
        9495000	       948	800005b8	00000013	addi	x0,x0,0	  x0:0x00000000
        9505000	       949	800005bc	d4138a17	auipc	x20,0xd4138	 x20=0x541385b8
        9515000	       950	800005c0	01cac4b3	xor	x9,x21,x28	 x21:0x80000584 x28:0x80000254  x9=0x000007d0
        9525000	       951	800005c4	7364d0b7	lui	x1,0x7364d	  x1=0x7364d000
        9535000	       952	800005c8	0191a533	slt	x10,x3,x25	  x3:0x80000540 x25:0x800004e8 x10=0x00000000
        9545000	       953	800005cc	00695533	srl	x10,x18,x6	 x18:0x80009fc4  x6:0x800005ac x10=0x00080009
        9555000	       954	800005d0	05a1e663	bltu	x3,x26,8000061c	  x3:0x80000540 x26:0x800004dc
        9565000	       955	800005d4	00dc9b13	slli	x22,x25,0xd	 x25:0x800004e8 x22=0x009d0000
        9575000	       956	800005d8	a3674493	xori	x9,x14,-1482	 x14:0x80000594  x9=0x7fffffa2
        9585000	       957	800005dc	de6f2813	slti	x16,x30,-538	 x30:0x00075127 x16=0x00000000
        9595000	       958	800005e0	40775613	srai	x12,x14,0x7	 x14:0x80000594 x12=0xff00000b
        9605000	       959	800005e4	b8ae3c13	sltiu	x24,x28,-1142	 x28:0x80000254 x24=0x00000001
        9615000	       960	800005e8	b20e4f13	xori	x30,x28,-1248	 x28:0x80000254 x30=0x7ffff974
        9625000	       961	800005ec	01131113	slli	x2,x6,0x11	  x6:0x800005ac  x2=0x0b580000
        9635000	       962	800005f0	ea7d3b93	sltiu	x23,x26,-345	 x26:0x800004dc x23=0x00000001
        9645000	       963	800005f4	52e96193	ori	x3,x18,1326	 x18:0x80009fc4  x3=0x80009fee
        9655000	       964	800005f8	00c51c33	sll	x24,x10,x12	 x10:0x00080009 x12:0xff00000b x24=0x40004800
        9665000	       965	800005fc	d2c90817	auipc	x16,0xd2c90	 x16=0x52c905f8
        9675000	       966	80000600	0197a733	slt	x14,x15,x25	 x15:0x80000514 x25:0x800004e8 x14=0x00000000
        9685000	       967	80000604	01d2fe63	bgeu	x5,x29,80000620	  x5:0x80000560 x29:0x80000280
        9695000	       968	00000000	00000013	addi	x0,x0,0	  x0:0x00000000
        9705000	       969	8000061c	00000013	addi	x0,x0,0	  x0:0x00000000
        9715000	       970	80000620	a5d3cf13	xori	x30,x7,-1443	  x7:0x800003d8 x30=0x7ffff985
        9725000	       971	80000624	01c3d0b3	srl	x1,x7,x28	  x7:0x800003d8 x28:0x80000254  x1=0x00000800
        9735000	       972	80000628	01e10cb3	add	x25,x2,x30	  x2:0x0b580000 x30:0x7ffff985 x25=0x8b57f985
        9745000	       973	8000062c	008089b3	add	x19,x1,x8	  x1:0x00000800  x8:0x800004e4 x19=0x80000ce4
        9755000	       974	80000630	acbeb213	sltiu	x4,x29,-1333	 x29:0x80000280  x4=0x00000001
        9765000	       975	80000634	01be36b3	sltu	x13,x28,x27	 x28:0x80000254 x27:0x00000000 x13=0x00000000
        9775000	       976	80000638	018259b3	srl	x19,x4,x24	  x4:0x00000001 x24:0x40004800 x19=0x00000001
        9785000	       977	8000063c	272f2897	auipc	x17,0x272f2	 x17=0xa72f2638
        9795000	       978	80000640	01efdc33	srl	x24,x31,x30	 x31:0x80009f84 x30:0x7ffff985 x24=0x040004fc
        9805000	       979	80000644	00ac5213	srli	x4,x24,0xa	 x24:0x040004fc  x4=0x00010001
        9815000	       980	80000648	00000013	addi	x0,x0,0	  x0:0x00000000
        9825000	       981	8000064c	00b8f0b3	and	x1,x17,x11	 x17:0xa72f2638 x11:0x800002e4  x1=0x80000220
        9835000	       982	80000650	0099d793	srli	x15,x19,0x9	 x19:0x00000001 x15=0x00000000
        9845000	       983	80000654	05a56263	bltu	x10,x26,80000698	 x10:0x00080009 x26:0x800004dc
        9855000	       984	00000000	00000013	addi	x0,x0,0	  x0:0x00000000
        9865000	       985	80000694	00000013	addi	x0,x0,0	  x0:0x00000000
        9875000	       986	80000698	000be633	or	x12,x23,x0	 x23:0x00000001  x0:0x00000000 x12=0x00000001
        9885000	       987	8000069c	019bc663	blt	x23,x25,800006a8	 x23:0x00000001 x25:0x8b57f985
        9895000	       988	800006a0	ac3fa713	slti	x14,x31,-1341	 x31:0x80009f84 x14=0x00000001
        9905000	       989	800006a4	00e11b93	slli	x23,x2,0xe	  x2:0x0b580000 x23=0x00000000
        9915000	       990	800006a8	014dee63	bltu	x27,x20,800006c4	 x27:0x00000000 x20:0x541385b8
        9925000	       991	00000000	00000013	addi	x0,x0,0	  x0:0x00000000
        9935000	       992	800006c0	00000013	addi	x0,x0,0	  x0:0x00000000
        9945000	       993	800006c4	0132d313	srli	x6,x5,0x13	  x5:0x80000560  x6=0x00001000
        9955000	       994	800006c8	62c76b13	ori	x22,x14,1580	 x14:0x00000001 x22=0x0000062d
        9965000	       995	800006cc	011f1e63	bne	x30,x17,800006e8	 x30:0x7ffff985 x17:0xa72f2638
        9975000	       996	00000000	00000013	addi	x0,x0,0	  x0:0x00000000
        9985000	       997	800006e4	00000013	addi	x0,x0,0	  x0:0x00000000
        9995000	       998	800006e8	3c6a2737	lui	x14,0x3c6a2	 x14=0x3c6a2000
       10005000	       999	800006ec	01f27463	bgeu	x4,x31,800006f4	  x4:0x00010001 x31:0x80009f84
       10015000	      1000	800006f0	d1252813	slti	x16,x10,-750	 x10:0x00080009 x16=0x00000000
       10025000	      1001	800006f4	60a8b017	auipc	x0,0x60a8b	
       10035000	      1002	800006f8	40a55293	srai	x5,x10,0xa	 x10:0x00080009  x5=0x00000200
       10045000	      1003	800006fc	35fba993	slti	x19,x23,863	 x23:0x00000000 x19=0x00000001
       10055000	      1004	80000700	40d083b3	sub	x7,x1,x13	  x1:0x80000220 x13:0x00000000  x7=0x80000220
       10065000	      1005	80000704	62968613	addi	x12,x13,1577	 x13:0x00000000 x12=0x00000629
       10075000	      1006	80000708	6fc5b813	sltiu	x16,x11,1788	 x11:0x800002e4 x16=0x00000000
       10085000	      1007	8000070c	00000013	addi	x0,x0,0	  x0:0x00000000
       10095000	      1008	80000710	01f0ac33	slt	x24,x1,x31	  x1:0x80000220 x31:0x80009f84 x24=0x00000001
       10105000	      1009	80000714	1c402a93	slti	x21,x0,452	  x0:0x00000000 x21=0x00000001
       10115000	      1010	80000718	030e26b7	lui	x13,0x30e2	 x13=0x030e2000
       10125000	      1011	8000071c	00f1ee63	bltu	x3,x15,80000738	  x3:0x80009fee x15:0x00000000
       10135000	      1012	80000720	0138de13	srli	x28,x17,0x13	 x17:0xa72f2638 x28=0x000014e5
       10145000	      1013	80000724	00fe5793	srli	x15,x28,0xf	 x28:0x000014e5 x15=0x00000000
       10155000	      1014	80000728	41088a33	sub	x20,x17,x16	 x17:0xa72f2638 x16:0x00000000 x20=0xa72f2638
       10165000	      1015	8000072c	de1c7137	lui	x2,0xde1c7	  x2=0xde1c7000
       10175000	      1016	80000730	a3e26a97	auipc	x21,0xa3e26	 x21=0x23e2672c
       10185000	      1017	80000734	41458733	sub	x14,x11,x20	 x11:0x800002e4 x20:0xa72f2638 x14=0xd8d0dcac
       10195000	      1018	80000738	05d9d263	bge	x19,x29,8000077c	 x19:0x00000001 x29:0x80000280
       10205000	      1019	00000000	00000013	addi	x0,x0,0	  x0:0x00000000
       10215000	      1020	80000778	00000013	addi	x0,x0,0	  x0:0x00000000
       10225000	      1021	8000077c	04f54063	blt	x10,x15,800007bc	 x10:0x00080009 x15:0x00000000
       10235000	      1022	80000780	00d27333	and	x6,x4,x13	  x4:0x00010001 x13:0x030e2000  x6=0x00000000
       10245000	      1023	80000784	004911b3	sll	x3,x18,x4	 x18:0x80009fc4  x4:0x00010001  x3=0x00013f88
       10255000	      1024	80000788	011b5633	srl	x12,x22,x17	 x22:0x0000062d x17:0xa72f2638 x12=0x00000000
       10265000	      1025	8000078c	0111cd33	xor	x26,x3,x17	  x3:0x00013f88 x17:0xa72f2638 x26=0xa72e19b0
       10275000	      1026	80000790	0242e663	bltu	x5,x4,800007bc	  x5:0x00000200  x4:0x00010001
       10285000	      1027	00000000	00000013	addi	x0,x0,0	  x0:0x00000000
       10295000	      1028	800007b8	00000013	addi	x0,x0,0	  x0:0x00000000
       10305000	      1029	800007bc	2a2bc493	xori	x9,x23,674	 x23:0x00000000  x9=0x000002a2
       10315000	      1030	800007c0	9c6a4113	xori	x2,x20,-1594	 x20:0xa72f2638  x2=0x58d0dffe
       10325000	      1031	800007c4	035d0a63	beq	x26,x21,800007f8	 x26:0xa72e19b0 x21:0x23e2672c
       10335000	      1032	800007c8	f2724f13	xori	x30,x4,-217	  x4:0x00010001 x30=0xfffeff26
       10345000	      1033	800007cc	83e2e813	ori	x16,x5,-1986	  x5:0x00000200 x16=0xfffffa3e
       10355000	      1034	800007d0	00d01693	slli	x13,x0,0xd	  x0:0x00000000 x13=0x00000000
       10365000	      1035	800007d4	03f3e263	bltu	x7,x31,800007f8	  x7:0x80000220 x31:0x80009f84
       10375000	      1036	00000000	00000013	addi	x0,x0,0	  x0:0x00000000
       10385000	      1037	800007f4	00000013	addi	x0,x0,0	  x0:0x00000000
       10395000	      1038	800007f8	b76b7d13	andi	x26,x22,-1162	 x22:0x0000062d x26=0x00000224
       10405000	      1039	800007fc	01b0ab33	slt	x22,x1,x27	  x1:0x80000220 x27:0x00000000 x22=0x00000001
       10415000	      1040	80000800	c4ee7613	andi	x12,x28,-946	 x28:0x000014e5 x12=0x00001444
       10425000	      1041	80000804	41ca08b3	sub	x17,x20,x28	 x20:0xa72f2638 x28:0x000014e5 x17=0xa72f1153
       10435000	      1042	80000808	036a4c63	blt	x20,x22,80000840	 x20:0xa72f2638 x22:0x00000001
       10445000	      1043	00000000	00000013	addi	x0,x0,0	  x0:0x00000000
       10455000	      1044	8000083c	00000013	addi	x0,x0,0	  x0:0x00000000
       10465000	      1045	80000840	aa230793	addi	x15,x6,-1374	  x6:0x00000000 x15=0xfffffaa2
       10475000	      1046	80000844	02630663	beq	x6,x6,80000870	  x6:0x00000000  x6:0x00000000
       10485000	      1047	00000000	00000013	addi	x0,x0,0	  x0:0x00000000
       10495000	      1048	8000086c	00000013	addi	x0,x0,0	  x0:0x00000000
       10505000	      1049	80000870	72d17b93	andi	x23,x2,1837	  x2:0x58d0dffe x23=0x0000072c
       10515000	      1050	80000874	00b09863	bne	x1,x11,80000884	  x1:0x80000220 x11:0x800002e4
       10525000	      1051	00000000	00000013	addi	x0,x0,0	  x0:0x00000000
       10535000	      1052	80000880	00000013	addi	x0,x0,0	  x0:0x00000000
       10545000	      1053	80000884	41acd2b3	sra	x5,x25,x26	 x25:0x8b57f985 x26:0x00000224  x5=0xf8b57f98
       10555000	      1054	80000888	02d5f663	bgeu	x11,x13,800008b4	 x11:0x800002e4 x13:0x00000000
       10565000	      1055	00000000	00000013	addi	x0,x0,0	  x0:0x00000000
       10575000	      1056	800008b0	00000013	addi	x0,x0,0	  x0:0x00000000
       10585000	      1057	800008b4	00000013	addi	x0,x0,0	  x0:0x00000000
       10595000	      1058	800008b8	01189113	slli	x2,x17,0x11	 x17:0xa72f1153  x2=0x22a60000
       10605000	      1059	800008bc	0005ebb3	or	x23,x11,x0	 x11:0x800002e4  x0:0x00000000 x23=0x800002e4
       10615000	      1060	800008c0	407ed613	srai	x12,x29,0x7	 x29:0x80000280 x12=0xff000005
       10625000	      1061	800008c4	41390bb3	sub	x23,x18,x19	 x18:0x80009fc4 x19:0x00000001 x23=0x80009fc3
       10635000	      1062	800008c8	401c5493	srai	x9,x24,0x1	 x24:0x00000001  x9=0x00000000
       10645000	      1063	800008cc	03298663	beq	x19,x18,800008f8	 x19:0x00000001 x18:0x80009fc4
       10655000	      1064	800008d0	0045d393	srli	x7,x11,0x4	 x11:0x800002e4  x7=0x0800002e
       10665000	      1065	800008d4	01b366b3	or	x13,x6,x27	  x6:0x00000000 x27:0x00000000 x13=0x00000000
       10675000	      1066	800008d8	001f4eb3	xor	x29,x30,x1	 x30:0xfffeff26  x1:0x80000220 x29=0x7ffefd06
       10685000	      1067	800008dc	000c9b13	slli	x22,x25,0x0	 x25:0x8b57f985 x22=0x8b57f985
       10695000	      1068	800008e0	005f2333	slt	x6,x30,x5	 x30:0xfffeff26  x5:0xf8b57f98  x6=0x00000000
       10705000	      1069	800008e4	267d4d13	xori	x26,x26,615	 x26:0x00000224 x26=0x00000043
       10715000	      1070	800008e8	01d44863	blt	x8,x29,800008f8	  x8:0x800004e4 x29:0x7ffefd06
       10725000	      1071	00000000	00000013	addi	x0,x0,0	  x0:0x00000000
       10735000	      1072	800008f4	00000013	addi	x0,x0,0	  x0:0x00000000
       10745000	      1073	800008f8	019c14b3	sll	x9,x24,x25	 x24:0x00000001 x25:0x8b57f985  x9=0x00000020
       10755000	      1074	800008fc	0114aa33	slt	x20,x9,x17	  x9:0x00000020 x17:0xa72f1153 x20=0x00000000
       10765000	      1075	80000900	928fdab7	lui	x21,0x928fd	 x21=0x928fd000
       10775000	      1076	80000904	01c18e13	addi	x28,x3,28	  x3:0x00013f88 x28=0x00013fa4
       10785000	      1077	80000908	00027433	and	x8,x4,x0	  x4:0x00010001  x0:0x00000000  x8=0x00000000
       10795000	      1078	8000090c	01c4f533	and	x10,x9,x28	  x9:0x00000020 x28:0x00013fa4 x10=0x00000020
       10805000	      1079	80000910	00000013	addi	x0,x0,0	  x0:0x00000000
       10815000	      1080	80000914	01ce2633	slt	x12,x28,x28	 x28:0x00013fa4 x28:0x00013fa4 x12=0x00000000
       10825000	      1081	80000918	010e90b3	sll	x1,x29,x16	 x29:0x7ffefd06 x16:0xfffffa3e  x1=0x80000000
       10835000	      1082	8000091c	01f5a5b3	slt	x11,x11,x31	 x11:0x800002e4 x31:0x80009f84 x11=0x00000001
       10845000	      1083	80000920	409107b3	sub	x15,x2,x9	  x2:0x22a60000  x9:0x00000020 x15=0x22a5ffe0
       10855000	      1084	80000924	010ed663	bge	x29,x16,80000930	 x29:0x7ffefd06 x16:0xfffffa3e
       10865000	      1085	00000000	00000013	addi	x0,x0,0	  x0:0x00000000
       10875000	      1086	8000092c	00000013	addi	x0,x0,0	  x0:0x00000000
       10885000	      1087	80000930	00f89313	slli	x6,x17,0xf	 x17:0xa72f1153  x6=0x88a98000
       10895000	      1088	80000934	00be1013	slli	x0,x28,0xb	 x28:0x00013fa4
       10905000	      1089	80000938	009beb33	or	x22,x23,x9	 x23:0x80009fc3  x9:0x00000020 x22=0x80009fe3
       10915000	      1090	8000093c	00ab0a33	add	x20,x22,x10	 x22:0x80009fe3 x10:0x00000020 x20=0x8000a003
       10925000	      1091	80000940	00320a63	beq	x4,x3,80000954	  x4:0x00010001  x3:0x00013f88
       10935000	      1092	80000944	af9d3437	lui	x8,0xaf9d3	  x8=0xaf9d3000
       10945000	      1093	80000948	05026863	bltu	x4,x16,80000998	  x4:0x00010001 x16:0xfffffa3e
       10955000	      1094	00000000	00000013	addi	x0,x0,0	  x0:0x00000000
       10965000	      1095	80000994	00000013	addi	x0,x0,0	  x0:0x00000000
       10975000	      1096	80000998	00000013	addi	x0,x0,0	  x0:0x00000000
       10985000	      1097	8000099c	319cff17	auipc	x30,0x319cf	 x30=0xb19cf998
       10995000	      1098	800009a0	008a3d33	sltu	x26,x20,x8	 x20:0x8000a003  x8:0xaf9d3000 x26=0x00000001
       11005000	      1099	800009a4	00000013	addi	x0,x0,0	  x0:0x00000000
       11015000	      1100	800009a8	016ab633	sltu	x12,x21,x22	 x21:0x928fd000 x22:0x80009fe3 x12=0x00000000
       11025000	      1101	800009ac	00b75e63	bge	x14,x11,800009c8	 x14:0xd8d0dcac x11:0x00000001
       11035000	      1102	800009b0	00000013	addi	x0,x0,0	  x0:0x00000000
       11045000	      1103	800009b4	1c572693	slti	x13,x14,453	 x14:0xd8d0dcac x13=0x00000001
       11055000	      1104	800009b8	d7184193	xori	x3,x16,-655	 x16:0xfffffa3e  x3=0x0000074f
       11065000	      1105	800009bc	00eae1b3	or	x3,x21,x14	 x21:0x928fd000 x14:0xd8d0dcac  x3=0xdadfdcac
       11075000	      1106	800009c0	00bcd313	srli	x6,x25,0xb	 x25:0x8b57f985  x6=0x00116aff
       11085000	      1107	800009c4	bd16a293	slti	x5,x13,-1071	 x13:0x00000001  x5=0x00000000
       11095000	      1108	800009c8	d64baa93	slti	x21,x23,-668	 x23:0x80009fc3 x21=0x00000001
       11105000	      1109	800009cc	01f67333	and	x6,x12,x31	 x12:0x00000000 x31:0x80009f84  x6=0x00000000
       11115000	      1110	800009d0	015dd5b3	srl	x11,x27,x21	 x27:0x00000000 x21:0x00000001 x11=0x00000000
       11125000	      1111	800009d4	016d6233	or	x4,x26,x22	 x26:0x00000001 x22:0x80009fe3  x4=0x80009fe3
       11135000	      1112	800009d8	008a1533	sll	x10,x20,x8	 x20:0x8000a003  x8:0xaf9d3000 x10=0x8000a003
       11145000	      1113	800009dc	ddec6993	ori	x19,x24,-546	 x24:0x00000001 x19=0xfffffddf
       11155000	      1114	800009e0	e956b213	sltiu	x4,x13,-363	 x13:0x00000001  x4=0x00000001
       11165000	      1115	800009e4	00984433	xor	x8,x16,x9	 x16:0xfffffa3e  x9:0x00000020  x8=0xfffffa1e
       11175000	      1116	800009e8	bd09b213	sltiu	x4,x19,-1072	 x19:0xfffffddf  x4=0x00000000
       11185000	      1117	800009ec	00856cb3	or	x25,x10,x8	 x10:0x8000a003  x8:0xfffffa1e x25=0xfffffa1f
       11195000	      1118	800009f0	d818fab7	lui	x21,0xd818f	 x21=0xd818f000
       11205000	      1119	800009f4	6463b113	sltiu	x2,x7,1606	  x7:0x0800002e  x2=0x00000000
       11215000	      1120	800009f8	27c4c993	xori	x19,x9,636	  x9:0x00000020 x19=0x0000025c
       11225000	      1121	800009fc	00733cb3	sltu	x25,x6,x7	  x6:0x00000000  x7:0x0800002e x25=0x00000001
       11235000	      1122	80000a00	00de3ab3	sltu	x21,x28,x13	 x28:0x00013fa4 x13:0x00000001 x21=0x00000000
       11245000	      1123	80000a04	00000013	addi	x0,x0,0	  x0:0x00000000
       11255000	      1124	80000a08	01731bb3	sll	x23,x6,x23	  x6:0x00000000 x23:0x80009fc3 x23=0x00000000
       11265000	      1125	80000a0c	401c5a13	srai	x20,x24,0x1	 x24:0x00000001 x20=0x00000000
       11275000	      1126	80000a10	00a99813	slli	x16,x19,0xa	 x19:0x0000025c x16=0x00097000
       11285000	      1127	80000a14	009d6e33	or	x28,x26,x9	 x26:0x00000001  x9:0x00000020 x28=0x00000021
       11295000	      1128	80000a18	01265293	srli	x5,x12,0x12	 x12:0x00000000  x5=0x00000000
       11305000	      1129	80000a1c	03141c63	bne	x8,x17,80000a54	  x8:0xfffffa1e x17:0xa72f1153
       11315000	      1130	00000000	00000013	addi	x0,x0,0	  x0:0x00000000
       11325000	      1131	80000a50	00000013	addi	x0,x0,0	  x0:0x00000000
       11335000	      1132	80000a54	00c9ca33	xor	x20,x19,x12	 x19:0x0000025c x12:0x00000000 x20=0x0000025c
       11345000	      1133	80000a58	015e2033	slt	x0,x28,x21	 x28:0x00000021 x21:0x00000000
       11355000	      1134	80000a5c	035bfa63	bgeu	x23,x21,80000a90	 x23:0x00000000 x21:0x00000000
       11365000	      1135	00000000	00000013	addi	x0,x0,0	  x0:0x00000000
       11375000	      1136	80000a8c	00000013	addi	x0,x0,0	  x0:0x00000000
       11385000	      1137	80000a90	40a85a13	srai	x20,x16,0xa	 x16:0x00097000 x20=0x0000025c
       11395000	      1138	80000a94	00519313	slli	x6,x3,0x5	  x3:0xdadfdcac  x6=0x5bfb9580
       11405000	      1139	80000a98	98f04193	xori	x3,x0,-1649	  x0:0x00000000  x3=0xfffff98f
       11415000	      1140	80000a9c	05a1d263	bge	x3,x26,80000ae0	  x3:0xfffff98f x26:0x00000001
       11425000	      1141	80000aa0	01a71613	slli	x12,x14,0x1a	 x14:0xd8d0dcac x12=0xb0000000
       11435000	      1142	80000aa4	010b9713	slli	x14,x23,0x10	 x23:0x00000000 x14=0x00000000
       11445000	      1143	80000aa8	017bd0b3	srl	x1,x23,x23	 x23:0x00000000 x23:0x00000000  x1=0x00000000
       11455000	      1144	80000aac	012b9f33	sll	x30,x23,x18	 x23:0x00000000 x18:0x80009fc4 x30=0x00000000
       11465000	      1145	80000ab0	de41a693	slti	x13,x3,-540	  x3:0xfffff98f x13=0x00000001
       11475000	      1146	80000ab4	00cfae33	slt	x28,x31,x12	 x31:0x80009f84 x12:0xb0000000 x28=0x00000001
       11485000	      1147	80000ab8	016f7533	and	x10,x30,x22	 x30:0x00000000 x22:0x80009fe3 x10=0x00000000
       11495000	      1148	80000abc	f051ab13	slti	x22,x3,-251	  x3:0xfffff98f x22=0x00000001
       11505000	      1149	80000ac0	014c7ab3	and	x21,x24,x20	 x24:0x00000001 x20:0x0000025c x21=0x00000000
       11515000	      1150	80000ac4	0058e633	or	x12,x17,x5	 x17:0xa72f1153  x5:0x00000000 x12=0xa72f1153
       11525000	      1151	80000ac8	41fcd993	srai	x19,x25,0x1f	 x25:0x00000001 x19=0x00000000
       11535000	      1152	80000acc	8dd6c693	xori	x13,x13,-1827	 x13:0x00000001 x13=0xfffff8dc
       11545000	      1153	80000ad0	01453633	sltu	x12,x10,x20	 x10:0x00000000 x20:0x0000025c x12=0x00000001
       11555000	      1154	80000ad4	1dde8493	addi	x9,x29,477	 x29:0x7ffefd06  x9=0x7ffefee3
       11565000	      1155	80000ad8	5c4ca293	slti	x5,x25,1476	 x25:0x00000001  x5=0x00000001
       11575000	      1156	80000adc	41990cb3	sub	x25,x18,x25	 x18:0x80009fc4 x25:0x00000001 x25=0x80009fc3
       11585000	      1157	80000ae0	aaed2717	auipc	x14,0xaaed2	 x14=0x2aed2adc
       11595000	      1158	80000ae4	013454b3	srl	x9,x8,x19	  x8:0xfffffa1e x19:0x00000000  x9=0xfffffa1e
       11605000	      1159	80000ae8	04c8d263	bge	x17,x12,80000b2c	 x17:0xa72f1153 x12:0x00000001
       11615000	      1160	80000aec	40358433	sub	x8,x11,x3	 x11:0x00000000  x3:0xfffff98f  x8=0x00000671
       11625000	      1161	80000af0	0006cb33	xor	x22,x13,x0	 x13:0xfffff8dc  x0:0x00000000 x22=0xfffff8dc
       11635000	      1162	80000af4	050c4663	blt	x24,x16,80000b40	 x24:0x00000001 x16:0x00097000
       11645000	      1163	00000000	00000013	addi	x0,x0,0	  x0:0x00000000
       11655000	      1164	80000b3c	00000013	addi	x0,x0,0	  x0:0x00000000
       11665000	      1165	80000b40	0179ad33	slt	x26,x19,x23	 x19:0x00000000 x23:0x00000000 x26=0x00000000
       11675000	      1166	80000b44	01c531b3	sltu	x3,x10,x28	 x10:0x00000000 x28:0x00000001  x3=0x00000001
       11685000	      1167	80000b48	a1eeb093	sltiu	x1,x29,-1506	 x29:0x7ffefd06  x1=0x00000001
       11695000	      1168	80000b4c	01a59213	slli	x4,x11,0x1a	 x11:0x00000000  x4=0x00000000
       11705000	      1169	80000b50	0b868093	addi	x1,x13,184	 x13:0xfffff8dc  x1=0xfffff994
       11715000	      1170	80000b54	3270fb13	andi	x22,x1,807	  x1:0xfffff994 x22=0x00000104
       11725000	      1171	80000b58	0229e663	bltu	x19,x2,80000b84	 x19:0x00000000  x2:0x00000000
       11735000	      1172	80000b5c	00c5e033	or	x0,x11,x12	 x11:0x00000000 x12:0x00000001
       11745000	      1173	80000b60	73ac3297	auipc	x5,0x73ac3	  x5=0xf3ac3b5c
       11755000	      1174	80000b64	005ba2b3	slt	x5,x23,x5	 x23:0x00000000  x5:0xf3ac3b5c  x5=0x00000000
       11765000	      1175	80000b68	2f968613	addi	x12,x13,761	 x13:0xfffff8dc x12=0xfffffbd5
       11775000	      1176	80000b6c	00bc1633	sll	x12,x24,x11	 x24:0x00000001 x11:0x00000000 x12=0x00000001
       11785000	      1177	80000b70	4c611517	auipc	x10,0x4c611	 x10=0xcc611b6c
       11795000	      1178	80000b74	00000013	addi	x0,x0,0	  x0:0x00000000
       11805000	      1179	80000b78	40705213	srai	x4,x0,0x7	  x0:0x00000000  x4=0x00000000
       11815000	      1180	80000b7c	41f7d9b3	sra	x19,x15,x31	 x15:0x22a5ffe0 x31:0x80009f84 x19=0x022a5ffe
       11825000	      1181	80000b80	41318d33	sub	x26,x3,x19	  x3:0x00000001 x19:0x022a5ffe x26=0xfdd5a003
       11835000	      1182	80000b84	3c6c3817	auipc	x16,0x3c6c3	 x16=0xbc6c3b80
       11845000	      1183	80000b88	407d5293	srai	x5,x26,0x7	 x26:0xfdd5a003  x5=0xfffbab40
       11855000	      1184	80000b8c	749b7013	andi	x0,x22,1865	 x22:0x00000104
       11865000	      1185	80000b90	10a96793	ori	x15,x18,266	 x18:0x80009fc4 x15=0x80009fce
       11875000	      1186	80000b94	eb71bc13	sltiu	x24,x3,-329	  x3:0x00000001 x24=0x00000001
       11885000	      1187	80000b98	00bc4d33	xor	x26,x24,x11	 x24:0x00000001 x11:0x00000000 x26=0x00000001
       11895000	      1188	80000b9c	01326533	or	x10,x4,x19	  x4:0x00000000 x19:0x022a5ffe x10=0x022a5ffe
       11905000	      1189	80000ba0	00547533	and	x10,x8,x5	  x8:0x00000671  x5:0xfffbab40 x10=0x00000240
       11915000	      1190	80000ba4	b8c8b293	sltiu	x5,x17,-1140	 x17:0xa72f1153  x5=0x00000001
       11925000	      1191	80000ba8	01ec1033	sll	x0,x24,x30	 x24:0x00000001 x30:0x00000000
       11935000	      1192	80000bac	017c5613	srli	x12,x24,0x17	 x24:0x00000001 x12=0x00000000
       11945000	      1193	80000bb0	005472b3	and	x5,x8,x5	  x8:0x00000671  x5:0x00000001  x5=0x00000001
       11955000	      1194	80000bb4	004afb33	and	x22,x21,x4	 x21:0x00000000  x4:0x00000000 x22=0x00000000
       11965000	      1195	80000bb8	0025da13	srli	x20,x11,0x2	 x11:0x00000000 x20=0x00000000
       11975000	      1196	80000bbc	9a03c113	xori	x2,x7,-1632	  x7:0x0800002e  x2=0xf7fff98e
       11985000	      1197	80000bc0	028000ef	jal	x1,80000bc0	  x1=0x80000bc0
       11995000	      1198	00000000	00000013	addi	x0,x0,0	  x0:0x00000000
       12005000	      1199	80000be4	00000013	addi	x0,x0,0	  x0:0x00000000
       12015000	      1200	80000be8	03800b6f	jal	x22,80000be8	 x22=0x80000be8
       12025000	      1201	00000000	00000013	addi	x0,x0,0	  x0:0x00000000
       12035000	      1202	80000c1c	00000013	addi	x0,x0,0	  x0:0x00000000
       12045000	      1203	80000c20	fa5ffe6f	jal	x28,80000c20	 x28=0x80000c20
       12055000	      1204	00000000	00000013	addi	x0,x0,0	  x0:0x00000000
       12065000	      1205	80000bc0	00000013	addi	x0,x0,0	  x0:0x00000000
       12075000	      1206	80000bc4	0400036f	jal	x6,80000bc4	  x6=0x80000bc4
       12085000	      1207	00000000	00000013	addi	x0,x0,0	  x0:0x00000000
       12095000	      1208	80000c00	00000013	addi	x0,x0,0	  x0:0x00000000
       12105000	      1209	80000c04	fddff0ef	jal	x1,80000c04	  x1=0x80000c04
       12115000	      1210	00000000	00000013	addi	x0,x0,0	  x0:0x00000000
       12125000	      1211	80000bdc	00000013	addi	x0,x0,0	  x0:0x00000000
       12135000	      1212	80000be0	050007ef	jal	x15,80000be0	 x15=0x80000be0
       12145000	      1213	00000000	00000013	addi	x0,x0,0	  x0:0x00000000
       12155000	      1214	80000c2c	00000013	addi	x0,x0,0	  x0:0x00000000
       12165000	      1215	80000c30	fddff0ef	jal	x1,80000c30	  x1=0x80000c30
       12175000	      1216	00000000	00000013	addi	x0,x0,0	  x0:0x00000000
       12185000	      1217	80000c08	00000013	addi	x0,x0,0	  x0:0x00000000
       12195000	      1218	80000c0c	00800c6f	jal	x24,80000c0c	 x24=0x80000c0c
       12205000	      1219	00000000	00000013	addi	x0,x0,0	  x0:0x00000000
       12215000	      1220	80000c10	00000013	addi	x0,x0,0	  x0:0x00000000
       12225000	      1221	80000c14	014008ef	jal	x17,80000c14	 x17=0x80000c14
       12235000	      1222	00000000	00000013	addi	x0,x0,0	  x0:0x00000000
       12245000	      1223	80000c24	00000013	addi	x0,x0,0	  x0:0x00000000
       12255000	      1224	80000c28	fb1ff0ef	jal	x1,80000c28	  x1=0x80000c28
       12265000	      1225	00000000	00000013	addi	x0,x0,0	  x0:0x00000000
       12275000	      1226	80000bd4	00000013	addi	x0,x0,0	  x0:0x00000000
       12285000	      1227	80000bd8	0400036f	jal	x6,80000bd8	  x6=0x80000bd8
       12295000	      1228	00000000	00000013	addi	x0,x0,0	  x0:0x00000000
       12305000	      1229	80000c14	00000013	addi	x0,x0,0	  x0:0x00000000
       12315000	      1230	80000c18	fb1ff16f	jal	x2,80000c18	  x2=0x80000c18
       12325000	      1231	00000000	00000013	addi	x0,x0,0	  x0:0x00000000
       12335000	      1232	80000bc4	00000013	addi	x0,x0,0	  x0:0x00000000
       12345000	      1233	80000bc8	024000ef	jal	x1,80000bc8	  x1=0x80000bc8
       12355000	      1234	00000000	00000013	addi	x0,x0,0	  x0:0x00000000
       12365000	      1235	80000be8	00000013	addi	x0,x0,0	  x0:0x00000000
       12375000	      1236	80000bec	0040036f	jal	x6,80000bec	  x6=0x80000bec
       12385000	      1237	00000000	00000013	addi	x0,x0,0	  x0:0x00000000
       12395000	      1238	80000bec	00000013	addi	x0,x0,0	  x0:0x00000000
       12405000	      1239	80000bf0	0200036f	jal	x6,80000bf0	  x6=0x80000bf0
       12415000	      1240	00000000	00000013	addi	x0,x0,0	  x0:0x00000000
       12425000	      1241	80000c0c	00000013	addi	x0,x0,0	  x0:0x00000000
       12435000	      1242	80000c10	0140036f	jal	x6,80000c10	  x6=0x80000c10
       12445000	      1243	00000000	00000013	addi	x0,x0,0	  x0:0x00000000
       12455000	      1244	80000c20	00000013	addi	x0,x0,0	  x0:0x00000000
       12465000	      1245	80000c24	fd1ffa6f	jal	x20,80000c24	 x20=0x80000c24
       12475000	      1246	00000000	00000013	addi	x0,x0,0	  x0:0x00000000
       12485000	      1247	80000bf0	00000013	addi	x0,x0,0	  x0:0x00000000
       12495000	      1248	80000bf4	038000ef	jal	x1,80000bf4	  x1=0x80000bf4
       12505000	      1249	00000000	00000013	addi	x0,x0,0	  x0:0x00000000
       12515000	      1250	80000c28	00000013	addi	x0,x0,0	  x0:0x00000000
       12525000	      1251	80000c2c	fb9ff0ef	jal	x1,80000c2c	  x1=0x80000c2c
       12535000	      1252	00000000	00000013	addi	x0,x0,0	  x0:0x00000000
       12545000	      1253	80000be0	00000013	addi	x0,x0,0	  x0:0x00000000
       12555000	      1254	80000be4	0180036f	jal	x6,80000be4	  x6=0x80000be4
       12565000	      1255	00000000	00000013	addi	x0,x0,0	  x0:0x00000000
       12575000	      1256	80000bf8	00000013	addi	x0,x0,0	  x0:0x00000000
       12585000	      1257	80000bfc	fd5ff86f	jal	x16,80000bfc	 x16=0x80000bfc
       12595000	      1258	00000000	00000013	addi	x0,x0,0	  x0:0x00000000
       12605000	      1259	80000bcc	00000013	addi	x0,x0,0	  x0:0x00000000
       12615000	      1260	80000bd0	038000ef	jal	x1,80000bd0	  x1=0x80000bd0
       12625000	      1261	00000000	00000013	addi	x0,x0,0	  x0:0x00000000
       12635000	      1262	80000c04	00000013	addi	x0,x0,0	  x0:0x00000000
       12645000	      1263	80000c08	fcdff2ef	jal	x5,80000c08	  x5=0x80000c08
       12655000	      1264	00000000	00000013	addi	x0,x0,0	  x0:0x00000000
       12665000	      1265	80000bd0	00000013	addi	x0,x0,0	  x0:0x00000000
       12675000	      1266	80000bd4	0240026f	jal	x4,80000bd4	  x4=0x80000bd4
       12685000	      1267	00000000	00000013	addi	x0,x0,0	  x0:0x00000000
       12695000	      1268	80000bf4	00000013	addi	x0,x0,0	  x0:0x00000000
       12705000	      1269	80000bf8	fe5ff0ef	jal	x1,80000bf8	  x1=0x80000bf8
       12715000	      1270	00000000	00000013	addi	x0,x0,0	  x0:0x00000000
       12725000	      1271	80000bd8	00000013	addi	x0,x0,0	  x0:0x00000000
       12735000	      1272	80000bdc	05c0036f	jal	x6,80000bdc	  x6=0x80000bdc
       12745000	      1273	00000000	00000013	addi	x0,x0,0	  x0:0x00000000
       12755000	      1274	80000c34	00000013	addi	x0,x0,0	  x0:0x00000000
       12765000	      1275	80000c38	ffdff0ef	jal	x1,80000c38	  x1=0x80000c38
       12775000	      1276	00000000	00000013	addi	x0,x0,0	  x0:0x00000000
       12785000	      1277	80000c30	00000013	addi	x0,x0,0	  x0:0x00000000
       12795000	      1278	80000c34	fcdff0ef	jal	x1,80000c34	  x1=0x80000c34
       12805000	      1279	00000000	00000013	addi	x0,x0,0	  x0:0x00000000
       12815000	      1280	80000bfc	00000013	addi	x0,x0,0	  x0:0x00000000
       12825000	      1281	80000c00	01c0036f	jal	x6,80000c00	  x6=0x80000c00
       12835000	      1282	00000000	00000013	addi	x0,x0,0	  x0:0x00000000
       12845000	      1283	80000c18	00000013	addi	x0,x0,0	  x0:0x00000000
       12855000	      1284	80000c1c	fb1ff36f	jal	x6,80000c1c	  x6=0x80000c1c
       12865000	      1285	00000000	00000013	addi	x0,x0,0	  x0:0x00000000
       12875000	      1286	80000bc8	00000013	addi	x0,x0,0	  x0:0x00000000
       12885000	      1287	80000bcc	070000ef	jal	x1,80000bcc	  x1=0x80000bcc
       12895000	      1288	00000000	00000013	addi	x0,x0,0	  x0:0x00000000
       12905000	      1289	80000c38	00000013	addi	x0,x0,0	  x0:0x00000000
       12915000	      1290	80000c3c	a3c7c713	xori	x14,x15,-1476	 x15:0x80000be0 x14=0x7ffff1dc
       12925000	      1291	80000c40	00ee1993	slli	x19,x28,0xe	 x28:0x80000c20 x19=0x03080000
       12935000	      1292	80000c44	288d6193	ori	x3,x26,648	 x26:0x00000001  x3=0x00000289
       12945000	      1293	80000c48	04f34063	blt	x6,x15,80000c88	  x6:0x80000c1c x15:0x80000be0
       12955000	      1294	80000c4c	366882b7	lui	x5,0x36688	  x5=0x36688000
       12965000	      1295	80000c50	03be4663	blt	x28,x27,80000c7c	 x28:0x80000c20 x27:0x00000000
       12975000	      1296	00000000	00000013	addi	x0,x0,0	  x0:0x00000000
       12985000	      1297	80000c78	00000013	addi	x0,x0,0	  x0:0x00000000
       12995000	      1298	80000c7c	01581ab3	sll	x21,x16,x21	 x16:0x80000bfc x21:0x00000000 x21=0x80000bfc
       13005000	      1299	80000c80	20d83893	sltiu	x17,x16,525	 x16:0x80000bfc x17=0x00000000
       13015000	      1300	80000c84	00414033	xor	x0,x2,x4	  x2:0x80000c18  x4:0x80000bd4
       13025000	      1301	80000c88	014822b3	slt	x5,x16,x20	 x16:0x80000bfc x20:0x80000c24  x5=0x00000001
       13035000	      1302	80000c8c	00727e63	bgeu	x4,x7,80000ca8	  x4:0x80000bd4  x7:0x0800002e
       13045000	      1303	00000000	00000013	addi	x0,x0,0	  x0:0x00000000
       13055000	      1304	80000ca4	00000013	addi	x0,x0,0	  x0:0x00000000
       13065000	      1305	80000ca8	01771663	bne	x14,x23,80000cb4	 x14:0x7ffff1dc x23:0x00000000
       13075000	      1306	00000000	00000013	addi	x0,x0,0	  x0:0x00000000
       13085000	      1307	80000cb0	00000013	addi	x0,x0,0	  x0:0x00000000
       13095000	      1308	80000cb4	9609b193	sltiu	x3,x19,-1696	 x19:0x03080000  x3=0x00000001
       13105000	      1309	80000cb8	2a198593	addi	x11,x19,673	 x19:0x03080000 x11=0x030802a1
       13115000	      1310	80000cbc	01800333	add	x6,x0,x24	  x0:0x00000000 x24:0x80000c0c  x6=0x80000c0c
       13125000	      1311	80000cc0	41a28d33	sub	x26,x5,x26	  x5:0x00000001 x26:0x00000001 x26=0x00000000
       13135000	      1312	80000cc4	02359663	bne	x11,x3,80000cf0	 x11:0x030802a1  x3:0x00000001
       13145000	      1313	00000000	00000013	addi	x0,x0,0	  x0:0x00000000
       13155000	      1314	80000cec	00000013	addi	x0,x0,0	  x0:0x00000000
       13165000	      1315	80000cf0	015c6a63	bltu	x24,x21,80000d04	 x24:0x80000c0c x21:0x80000bfc
       13175000	      1316	80000cf4	2cc57a93	andi	x21,x10,716	 x10:0x00000240 x21=0x00000240
       13185000	      1317	80000cf8	9cb4c393	xori	x7,x9,-1589	  x9:0xfffffa1e  x7=0x000003d5
       13195000	      1318	80000cfc	0174fab3	and	x21,x9,x23	  x9:0xfffffa1e x23:0x00000000 x21=0x00000000
       13205000	      1319	80000d00	435f6b93	ori	x23,x30,1077	 x30:0x00000000 x23=0x00000435
       13215000	      1320	80000d04	711cbe13	sltiu	x28,x25,1809	 x25:0x80009fc3 x28=0x00000000
       13225000	      1321	80000d08	0091e433	or	x8,x3,x9	  x3:0x00000001  x9:0xfffffa1e  x8=0xfffffa1f
       13235000	      1322	80000d0c	0172e433	or	x8,x5,x23	  x5:0x00000001 x23:0x00000435  x8=0x00000435
       13245000	      1323	80000d10	004db133	sltu	x2,x27,x4	 x27:0x00000000  x4:0x80000bd4  x2=0x00000001
       13255000	      1324	80000d14	77a38c13	addi	x24,x7,1914	  x7:0x000003d5 x24=0x00000b4f
       13265000	      1325	80000d18	0004a8b3	slt	x17,x9,x0	  x9:0xfffffa1e  x0:0x00000000 x17=0x00000001
       13275000	      1326	80000d1c	e0f6f993	andi	x19,x13,-497	 x13:0xfffff8dc x19=0xfffff80c
       13285000	      1327	80000d20	ae86f193	andi	x3,x13,-1304	 x13:0xfffff8dc  x3=0xfffff8c8
       13295000	      1328	80000d24	8aebc117	auipc	x2,0x8aebc	  x2=0x0aebcd20
       13305000	      1329	80000d28	023e5663	bge	x28,x3,80000d54	 x28:0x00000000  x3:0xfffff8c8
       13315000	      1330	00000000	00000013	addi	x0,x0,0	  x0:0x00000000
       13325000	      1331	80000d50	00000013	addi	x0,x0,0	  x0:0x00000000
       13335000	      1332	80000d54	000d6a33	or	x20,x26,x0	 x26:0x00000000  x0:0x00000000 x20=0x00000000
       13345000	      1333	80000d58	259d8793	addi	x15,x27,601	 x27:0x00000000 x15=0x00000259
       13355000	      1334	80000d5c	00c000ef	jal	x1,80000d5c	  x1=0x80000d5c
       13365000	      1335	00000000	00000013	addi	x0,x0,0	  x0:0x00000000
       13375000	      1336	80000d64	00000013	addi	x0,x0,0	  x0:0x00000000
       13385000	      1337	80000d68	01c0036f	jal	x6,80000d68	  x6=0x80000d68
       13395000	      1338	00000000	00000013	addi	x0,x0,0	  x0:0x00000000
       13405000	      1339	80000d80	00000013	addi	x0,x0,0	  x0:0x00000000
       13415000	      1340	80000d84	ff9ff0ef	jal	x1,80000d84	  x1=0x80000d84
       13425000	      1341	00000000	00000013	addi	x0,x0,0	  x0:0x00000000
       13435000	      1342	80000d78	00000013	addi	x0,x0,0	  x0:0x00000000
       13445000	      1343	80000d7c	02c0036f	jal	x6,80000d7c	  x6=0x80000d7c
       13455000	      1344	00000000	00000013	addi	x0,x0,0	  x0:0x00000000
       13465000	      1345	80000da4	00000013	addi	x0,x0,0	  x0:0x00000000
       13475000	      1346	80000da8	ff5ffa6f	jal	x20,80000da8	 x20=0x80000da8
       13485000	      1347	00000000	00000013	addi	x0,x0,0	  x0:0x00000000
       13495000	      1348	80000d98	00000013	addi	x0,x0,0	  x0:0x00000000
       13505000	      1349	80000d9c	030006ef	jal	x13,80000d9c	 x13=0x80000d9c
       13515000	      1350	00000000	00000013	addi	x0,x0,0	  x0:0x00000000
       13525000	      1351	80000dc8	00000013	addi	x0,x0,0	  x0:0x00000000
       13535000	      1352	80000dcc	ff9ff26f	jal	x4,80000dcc	  x4=0x80000dcc
       13545000	      1353	00000000	00000013	addi	x0,x0,0	  x0:0x00000000
       13555000	      1354	80000dc0	00000013	addi	x0,x0,0	  x0:0x00000000
       13565000	      1355	80000dc4	fddff0ef	jal	x1,80000dc4	  x1=0x80000dc4
       13575000	      1356	00000000	00000013	addi	x0,x0,0	  x0:0x00000000
       13585000	      1357	80000d9c	00000013	addi	x0,x0,0	  x0:0x00000000
       13595000	      1358	80000da0	0180066f	jal	x12,80000da0	 x12=0x80000da0
       13605000	      1359	00000000	00000013	addi	x0,x0,0	  x0:0x00000000
       13615000	      1360	80000db4	00000013	addi	x0,x0,0	  x0:0x00000000
       13625000	      1361	80000db8	ff5ff36f	jal	x6,80000db8	  x6=0x80000db8
       13635000	      1362	00000000	00000013	addi	x0,x0,0	  x0:0x00000000
       13645000	      1363	80000da8	00000013	addi	x0,x0,0	  x0:0x00000000
       13655000	      1364	80000dac	fd5ff36f	jal	x6,80000dac	  x6=0x80000dac
       13665000	      1365	00000000	00000013	addi	x0,x0,0	  x0:0x00000000
       13675000	      1366	80000d7c	00000013	addi	x0,x0,0	  x0:0x00000000
       13685000	      1367	80000d80	0180026f	jal	x4,80000d80	  x4=0x80000d80
       13695000	      1368	00000000	00000013	addi	x0,x0,0	  x0:0x00000000
       13705000	      1369	80000d94	00000013	addi	x0,x0,0	  x0:0x00000000
       13715000	      1370	80000d98	ff1ffd6f	jal	x26,80000d98	 x26=0x80000d98
       13725000	      1371	00000000	00000013	addi	x0,x0,0	  x0:0x00000000
       13735000	      1372	80000d84	00000013	addi	x0,x0,0	  x0:0x00000000
       13745000	      1373	80000d88	0380046f	jal	x8,80000d88	  x8=0x80000d88
       13755000	      1374	00000000	00000013	addi	x0,x0,0	  x0:0x00000000
       13765000	      1375	80000dbc	00000013	addi	x0,x0,0	  x0:0x00000000
       13775000	      1376	80000dc0	fadff0ef	jal	x1,80000dc0	  x1=0x80000dc0
       13785000	      1377	00000000	00000013	addi	x0,x0,0	  x0:0x00000000
       13795000	      1378	80000d68	00000013	addi	x0,x0,0	  x0:0x00000000
       13805000	      1379	80000d6c	020000ef	jal	x1,80000d6c	  x1=0x80000d6c
       13815000	      1380	00000000	00000013	addi	x0,x0,0	  x0:0x00000000
       13825000	      1381	80000d88	00000013	addi	x0,x0,0	  x0:0x00000000
       13835000	      1382	80000d8c	03c0056f	jal	x10,80000d8c	 x10=0x80000d8c
       13845000	      1383	00000000	00000013	addi	x0,x0,0	  x0:0x00000000
       13855000	      1384	80000dc4	00000013	addi	x0,x0,0	  x0:0x00000000
       13865000	      1385	80000dc8	f9dff56f	jal	x10,80000dc8	 x10=0x80000dc8
       13875000	      1386	00000000	00000013	addi	x0,x0,0	  x0:0x00000000
       13885000	      1387	80000d60	00000013	addi	x0,x0,0	  x0:0x00000000
       13895000	      1388	80000d64	04c000ef	jal	x1,80000d64	  x1=0x80000d64
       13905000	      1389	00000000	00000013	addi	x0,x0,0	  x0:0x00000000
       13915000	      1390	80000dac	00000013	addi	x0,x0,0	  x0:0x00000000
       13925000	      1391	80000db0	fb1ff0ef	jal	x1,80000db0	  x1=0x80000db0
       13935000	      1392	00000000	00000013	addi	x0,x0,0	  x0:0x00000000
       13945000	      1393	80000d5c	00000013	addi	x0,x0,0	  x0:0x00000000
       13955000	      1394	80000d60	044000ef	jal	x1,80000d60	  x1=0x80000d60
       13965000	      1395	00000000	00000013	addi	x0,x0,0	  x0:0x00000000
       13975000	      1396	80000da0	00000013	addi	x0,x0,0	  x0:0x00000000
       13985000	      1397	80000da4	fedff0ef	jal	x1,80000da4	  x1=0x80000da4
       13995000	      1398	00000000	00000013	addi	x0,x0,0	  x0:0x00000000
       14005000	      1399	80000d8c	00000013	addi	x0,x0,0	  x0:0x00000000
       14015000	      1400	80000d90	fe1fff6f	jal	x30,80000d90	 x30=0x80000d90
       14025000	      1401	00000000	00000013	addi	x0,x0,0	  x0:0x00000000
       14035000	      1402	80000d6c	00000013	addi	x0,x0,0	  x0:0x00000000
       14045000	      1403	80000d70	004000ef	jal	x1,80000d70	  x1=0x80000d70
       14055000	      1404	00000000	00000013	addi	x0,x0,0	  x0:0x00000000
       14065000	      1405	80000d70	00000013	addi	x0,x0,0	  x0:0x00000000
       14075000	      1406	80000d74	040000ef	jal	x1,80000d74	  x1=0x80000d74
       14085000	      1407	00000000	00000013	addi	x0,x0,0	  x0:0x00000000
       14095000	      1408	80000db0	00000013	addi	x0,x0,0	  x0:0x00000000
       14105000	      1409	80000db4	fe1ff0ef	jal	x1,80000db4	  x1=0x80000db4
       14115000	      1410	00000000	00000013	addi	x0,x0,0	  x0:0x00000000
       14125000	      1411	80000d90	00000013	addi	x0,x0,0	  x0:0x00000000
       14135000	      1412	80000d94	028000ef	jal	x1,80000d94	  x1=0x80000d94
       14145000	      1413	00000000	00000013	addi	x0,x0,0	  x0:0x00000000
       14155000	      1414	80000db8	00000013	addi	x0,x0,0	  x0:0x00000000
       14165000	      1415	80000dbc	fbdff0ef	jal	x1,80000dbc	  x1=0x80000dbc
       14175000	      1416	00000000	00000013	addi	x0,x0,0	  x0:0x00000000
       14185000	      1417	80000d74	00000013	addi	x0,x0,0	  x0:0x00000000
       14195000	      1418	80000d78	0580036f	jal	x6,80000d78	  x6=0x80000d78
       14205000	      1419	00000000	00000013	addi	x0,x0,0	  x0:0x00000000
       14215000	      1420	80000dcc	00000013	addi	x0,x0,0	  x0:0x00000000
       14225000	      1421	80000dd0	01ea1233	sll	x4,x20,x30	 x20:0x80000da8 x30:0x80000d90  x4=0x0da80000
       14235000	      1422	80000dd4	01234e63	blt	x6,x18,80000df0	  x6:0x80000d78 x18:0x80009fc4
       14245000	      1423	00000000	00000013	addi	x0,x0,0	  x0:0x00000000
       14255000	      1424	80000dec	00000013	addi	x0,x0,0	  x0:0x00000000
       14265000	      1425	80000df0	01946863	bltu	x8,x25,80000e00	  x8:0x80000d88 x25:0x80009fc3
       14275000	      1426	00000000	00000013	addi	x0,x0,0	  x0:0x00000000
       14285000	      1427	80000dfc	00000013	addi	x0,x0,0	  x0:0x00000000
       14295000	      1428	80000e00	8a2dbc17	auipc	x24,0x8a2db	 x24=0x0a2dbdfc
       14305000	      1429	80000e04	01348033	add	x0,x9,x19	  x9:0xfffffa1e x19:0xfffff80c
       14315000	      1430	80000e08	04261c63	bne	x12,x2,80000e60	 x12:0x80000da0  x2:0x0aebcd20
       14325000	      1431	00000000	00000013	addi	x0,x0,0	  x0:0x00000000
       14335000	      1432	80000e5c	00000013	addi	x0,x0,0	  x0:0x00000000
       14345000	      1433	80000e60	0568f263	bgeu	x17,x22,80000ea4	 x17:0x00000001 x22:0x80000be8
       14355000	      1434	80000e64	04bcc263	blt	x25,x11,80000ea8	 x25:0x80009fc3 x11:0x030802a1
       14365000	      1435	00000000	00000013	addi	x0,x0,0	  x0:0x00000000
       14375000	      1436	80000ea4	00000013	addi	x0,x0,0	  x0:0x00000000
       14385000	      1437	80000ea8	011b6ab3	or	x21,x22,x17	 x22:0x80000be8 x17:0x00000001 x21=0x80000be9
       14395000	      1438	80000eac	02cd7263	bgeu	x26,x12,80000ed0	 x26:0x80000d98 x12:0x80000da0
       14405000	      1439	80000eb0	00794233	xor	x4,x18,x7	 x18:0x80009fc4  x7:0x000003d5  x4=0x80009c11
       14415000	      1440	80000eb4	03d0da63	bge	x1,x29,80000ee8	  x1:0x80000dbc x29:0x7ffefd06
       14425000	      1441	80000eb8	01e595b3	sll	x11,x11,x30	 x11:0x030802a1 x30:0x80000d90 x11=0x02a10000
       14435000	      1442	80000ebc	bdc5b893	sltiu	x17,x11,-1060	 x11:0x02a10000 x17=0x00000001
       14445000	      1443	80000ec0	0029d333	srl	x6,x19,x2	 x19:0xfffff80c  x2:0x0aebcd20  x6=0xfffff80c
       14455000	      1444	80000ec4	1511e617	auipc	x12,0x1511e	 x12=0x9511eec0
       14465000	      1445	80000ec8	0142e6b3	or	x13,x5,x20	  x5:0x00000001 x20:0x80000da8 x13=0x80000da9
       14475000	      1446	80000ecc	99a38593	addi	x11,x7,-1638	  x7:0x000003d5 x11=0xfffffd6f
       14485000	      1447	80000ed0	408ed2b3	sra	x5,x29,x8	 x29:0x7ffefd06  x8:0x80000d88  x5=0x007ffefd
       14495000	      1448	80000ed4	405e8a33	sub	x20,x29,x5	 x29:0x7ffefd06  x5:0x007ffefd x20=0x7f7efe09
       14505000	      1449	80000ed8	05bf5263	bge	x30,x27,80000f1c	 x30:0x80000d90 x27:0x00000000
       14515000	      1450	80000edc	03360c63	beq	x12,x19,80000f14	 x12:0x9511eec0 x19:0xfffff80c
       14525000	      1451	80000ee0	02789663	bne	x17,x7,80000f0c	 x17:0x00000001  x7:0x000003d5
       14535000	      1452	00000000	00000013	addi	x0,x0,0	  x0:0x00000000
       14545000	      1453	80000f08	00000013	addi	x0,x0,0	  x0:0x00000000
       14555000	      1454	80000f0c	013a9413	slli	x8,x21,0x13	 x21:0x80000be9  x8=0x5f480000
       14565000	      1455	80000f10	03a1c663	blt	x3,x26,80000f3c	  x3:0xfffff8c8 x26:0x80000d98
       14575000	      1456	80000f14	0109d4b3	srl	x9,x19,x16	 x19:0xfffff80c x16:0x80000bfc  x9=0x0000000f
       14585000	      1457	80000f18	016e74b3	and	x9,x28,x22	 x28:0x00000000 x22:0x80000be8  x9=0x00000000
       14595000	      1458	80000f1c	02379663	bne	x15,x3,80000f48	 x15:0x00000259  x3:0xfffff8c8
       14605000	      1459	00000000	00000013	addi	x0,x0,0	  x0:0x00000000
       14615000	      1460	80000f44	00000013	addi	x0,x0,0	  x0:0x00000000
       14625000	      1461	80000f48	0574f463	bgeu	x9,x23,80000f90	  x9:0x00000000 x23:0x00000435
       14635000	      1462	80000f4c	046e5863	bge	x28,x6,80000f9c	 x28:0x00000000  x6:0xfffff80c
       14645000	      1463	00000000	00000013	addi	x0,x0,0	  x0:0x00000000
       14655000	      1464	80000f98	00000013	addi	x0,x0,0	  x0:0x00000000
       14665000	      1465	80000f9c	01f72bb3	slt	x23,x14,x31	 x14:0x7ffff1dc x31:0x80009f84 x23=0x00000000
       14675000	      1466	80000fa0	45573137	lui	x2,0x45573	  x2=0x45573000
       14685000	      1467	80000fa4	6f9f3897	auipc	x17,0x6f9f3	 x17=0xef9f3fa0
       14695000	      1468	80000fa8	046b0063	beq	x22,x6,80000fe8	 x22:0x80000be8  x6:0xfffff80c
       14705000	      1469	80000fac	01dfdb13	srli	x22,x31,0x1d	 x31:0x80009f84 x22=0x00000004
       14715000	      1470	80000fb0	6375bd13	sltiu	x26,x11,1591	 x11:0xfffffd6f x26=0x00000000
       14725000	      1471	80000fb4	00169493	slli	x9,x13,0x1	 x13:0x80000da9  x9=0x00001b52
       14735000	      1472	80000fb8	bed5c613	xori	x12,x11,-1043	 x11:0xfffffd6f x12=0x00000682
       14745000	      1473	80000fbc	00bbc9b3	xor	x19,x23,x11	 x23:0x00000000 x11:0xfffffd6f x19=0xfffffd6f
       14755000	      1474	80000fc0	01665eb3	srl	x29,x12,x22	 x12:0x00000682 x22:0x00000004 x29=0x00000068
       14765000	      1475	80000fc4	41fc8633	sub	x12,x25,x31	 x25:0x80009fc3 x31:0x80009f84 x12=0x0000003f
       14775000	      1476	80000fc8	41aadb93	srai	x23,x21,0x1a	 x21:0x80000be9 x23=0xffffffe0
       14785000	      1477	80000fcc	0009d693	srli	x13,x19,0x0	 x19:0xfffffd6f x13=0xfffffd6f
       14795000	      1478	80000fd0	01697a63	bgeu	x18,x22,80000fe4	 x18:0x80009fc4 x22:0x00000004
       14805000	      1479	00000000	00000013	addi	x0,x0,0	  x0:0x00000000
       14815000	      1480	80000fe0	00000013	addi	x0,x0,0	  x0:0x00000000
       14825000	      1481	80000fe4	4103dcb3	sra	x25,x7,x16	  x7:0x000003d5 x16:0x80000bfc x25=0x00000000
       14835000	      1482	80000fe8	01221d13	slli	x26,x4,0x12	  x4:0x80009c11 x26=0x70440000
       14845000	      1483	80000fec	f73fef13	ori	x30,x31,-141	 x31:0x80009f84 x30=0xfffffff7
       14855000	      1484	80000ff0	01742cb3	slt	x25,x8,x23	  x8:0x5f480000 x23:0xffffffe0 x25=0x00000000
       14865000	      1485	80000ff4	e00e69b7	lui	x19,0xe00e6	 x19=0xe00e6000
       14875000	      1486	80000ff8	01e4f2b3	and	x5,x9,x30	  x9:0x00001b52 x30:0xfffffff7  x5=0x00001b52
       14885000	      1487	80000ffc	0018d333	srl	x6,x17,x1	 x17:0xef9f3fa0  x1:0x80000dbc  x6=0x0000000e
       14895000	      1488	80001000	019b6f33	or	x30,x22,x25	 x22:0x00000004 x25:0x00000000 x30=0x00000004
       14905000	      1489	80001004	00000013	addi	x0,x0,0	  x0:0x00000000
       14915000	      1490	80001008	b1ee9e97	auipc	x29,0xb1ee9	 x29=0x31eea004
       14925000	      1491	8000100c	01041e33	sll	x28,x8,x16	  x8:0x5f480000 x16:0x80000bfc x28=0x00000000
       14935000	      1492	80001010	00001897	auipc	x17,0x1	 x17=0x8000200c
       14945000	      1493	80001014	81088893	addi	x17,x17,-2032	 x17:0x8000200c x17=0x8000181c
       14955000	      1494	80001018	007dab33	slt	x22,x27,x7	 x27:0x00000000  x7:0x000003d5 x22=0x00000001
       14965000	      1495	8000101c	013155b3	srl	x11,x2,x19	  x2:0x45573000 x19:0xe00e6000 x11=0x45573000
       14975000	      1496	80001020	f4588893	addi	x17,x17,-187	 x17:0x8000181c x17=0x80001761
       14985000	      1497	80001024	412a5113	srai	x2,x20,0x12	 x20:0x7f7efe09  x2=0x00001fdf
       14995000	      1498	80001028	0bb880e7	jalr	x1,x17,187	 x17:0x80001761  x1=0x80001028
       15005000	      1499	00000000	00000013	addi	x0,x0,0	  x0:0x00000000
       15015000	      1500	8000181c	00000013	addi	x0,x0,0	  x0:0x00000000
       15025000	      1501	80001820	00da8d33	add	x26,x21,x13	 x21:0x80000be9 x13:0xfffffd6f x26=0x80000958
       15035000	      1502	80001824	fd4f8f93	addi	x31,x31,-44	 x31:0x80009f84 x31=0x80009f58
       15045000	      1503	80001828	002011b3	sll	x3,x0,x2	  x0:0x00000000  x2:0x00001fdf  x3=0x00000000
       15055000	      1504	8000182c	b9147a93	andi	x21,x8,-1135	  x8:0x5f480000 x21=0x5f480000
       15065000	      1505	80001830	5b099297	auipc	x5,0x5b099	  x5=0xdb09a82c
       15075000	      1506	80001834	00030533	add	x10,x6,x0	  x6:0x0000000e  x0:0x00000000 x10=0x0000000e
       15085000	      1507	80001838	0049bb33	sltu	x22,x19,x4	 x19:0xe00e6000  x4:0x80009c11 x22=0x00000000
       15095000	      1508	8000183c	ac52aa93	slti	x21,x5,-1339	  x5:0xdb09a82c x21=0x00000001
       15105000	      1509	80001840	001fa223	sw	x1,4(x31)	 x31:0x80009f58  x1:0x80001028 PA:0x80009f5c
       15115000	      1510	80001844	014ad333	srl	x6,x21,x20	 x21:0x00000001 x20:0x7f7efe09  x6=0x00000000
       15125000	      1511	80001848	1521a493	slti	x9,x3,338	  x3:0x00000000  x9=0x00000001
       15135000	      1512	8000184c	416cd993	srai	x19,x25,0x16	 x25:0x00000000 x19=0x00000000
       15145000	      1513	80001850	00003597	auipc	x11,0x3	 x11=0x8000484c
       15155000	      1514	80001854	95058593	addi	x11,x11,-1712	 x11:0x8000484c x11=0x8000419c
       15165000	      1515	80001858	fc258593	addi	x11,x11,-62	 x11:0x8000419c x11=0x8000415e
       15175000	      1516	8000185c	00fdfc33	and	x24,x27,x15	 x27:0x00000000 x15:0x00000259 x24=0x00000000
       15185000	      1517	80001860	be988293	addi	x5,x17,-1047	 x17:0x80001761  x5=0x8000134a
       15195000	      1518	80001864	5e99e293	ori	x5,x19,1513	 x19:0x00000000  x5=0x000005e9
       15205000	      1519	80001868	017e3133	sltu	x2,x28,x23	 x28:0x00000000 x23:0xffffffe0  x2=0x00000001
       15215000	      1520	8000186c	03f580e7	jalr	x1,x11,63	 x11:0x8000415e  x1=0x8000186c
       15225000	      1521	00000000	00000013	addi	x0,x0,0	  x0:0x00000000
       15235000	      1522	8000419c	00000013	addi	x0,x0,0	  x0:0x00000000
       15245000	      1523	800041a0	40835813	srai	x16,x6,0x8	  x6:0x00000000 x16=0x00000000
       15255000	      1524	800041a4	00fa1513	slli	x10,x20,0xf	 x20:0x7f7efe09 x10=0x7f048000
       15265000	      1525	800041a8	01f95133	srl	x2,x18,x31	 x18:0x80009fc4 x31:0x80009f58  x2=0x00000080
       15275000	      1526	800041ac	0179b633	sltu	x12,x19,x23	 x19:0x00000000 x23:0xffffffe0 x12=0x00000001
       15285000	      1527	800041b0	fd4f8f93	addi	x31,x31,-44	 x31:0x80009f58 x31=0x80009f2c
       15295000	      1528	800041b4	2a004393	xori	x7,x0,672	  x0:0x00000000  x7=0x000002a0
       15305000	      1529	800041b8	019a7d33	and	x26,x20,x25	 x20:0x7f7efe09 x25:0x00000000 x26=0x00000000
       15315000	      1530	800041bc	00742d33	slt	x26,x8,x7	  x8:0x5f480000  x7:0x000002a0 x26=0x00000000
       15325000	      1531	800041c0	001fa223	sw	x1,4(x31)	 x31:0x80009f2c  x1:0x8000186c PA:0x80009f30
       15335000	      1532	800041c4	4fca4d13	xori	x26,x20,1276	 x20:0x7f7efe09 x26=0x7f7efaf5
       15345000	      1533	800041c8	01afacb3	slt	x25,x31,x26	 x31:0x80009f2c x26:0x7f7efaf5 x25=0x00000001
       15355000	      1534	800041cc	005fa233	slt	x4,x31,x5	 x31:0x80009f2c  x5:0x000005e9  x4=0x00000001
       15365000	      1535	800041d0	54f50e97	auipc	x29,0x54f50	 x29=0xd4f541cc
       15375000	      1536	800041d4	00869833	sll	x16,x13,x8	 x13:0xfffffd6f  x8:0x5f480000 x16=0xfffffd6f
       15385000	      1537	800041d8	01eb9993	slli	x19,x23,0x1e	 x23:0xffffffe0 x19=0x00000000
       15395000	      1538	800041dc	4126dbb3	sra	x23,x13,x18	 x13:0xfffffd6f x18:0x80009fc4 x23=0xffffffd6
       15405000	      1539	800041e0	fcbb9737	lui	x14,0xfcbb9	 x14=0xfcbb9000
       15415000	      1540	800041e4	00c15733	srl	x14,x2,x12	  x2:0x00000080 x12:0x00000001 x14=0x00000040
       15425000	      1541	800041e8	57f12e13	slti	x28,x2,1407	  x2:0x00000080 x28=0x00000001
       15435000	      1542	800041ec	d00fe0ef	jal	x1,800041ec	  x1=0x800041ec
       15445000	      1543	00000000	00000013	addi	x0,x0,0	  x0:0x00000000
       15455000	      1544	800026e8	00000013	addi	x0,x0,0	  x0:0x00000000
       15465000	      1545	800026ec	f0b0af13	slti	x30,x1,-245	  x1:0x800041ec x30=0x00000001
       15475000	      1546	800026f0	fc8f8f93	addi	x31,x31,-56	 x31:0x80009f2c x31=0x80009ef4
       15485000	      1547	800026f4	00f4d893	srli	x17,x9,0xf	  x9:0x00000001 x17=0x00000000
       15495000	      1548	800026f8	ae7e0c13	addi	x24,x28,-1305	 x28:0x00000001 x24=0xfffffae8
       15505000	      1549	800026fc	001fa223	sw	x1,4(x31)	 x31:0x80009ef4  x1:0x800041ec PA:0x80009ef8
       15515000	      1550	80002700	01a9a733	slt	x14,x19,x26	 x19:0x00000000 x26:0x7f7efaf5 x14=0x00000001
       15525000	      1551	80002704	32d4f413	andi	x8,x9,813	  x9:0x00000001  x8=0x00000001
       15535000	      1552	80002708	4634eb13	ori	x22,x9,1123	  x9:0x00000001 x22=0x00000463
       15545000	      1553	8000270c	411f8233	sub	x4,x31,x17	 x31:0x80009ef4 x17:0x00000000  x4=0x80009ef4
       15555000	      1554	80002710	003c7133	and	x2,x24,x3	 x24:0xfffffae8  x3:0x00000000  x2=0x00000000
       15565000	      1555	80002714	058000ef	jal	x1,80002714	  x1=0x80002714
       15575000	      1556	00000000	00000013	addi	x0,x0,0	  x0:0x00000000
       15585000	      1557	80002768	00000013	addi	x0,x0,0	  x0:0x00000000
       15595000	      1558	8000276c	ff1ff36f	jal	x6,8000276c	  x6=0x8000276c
       15605000	      1559	00000000	00000013	addi	x0,x0,0	  x0:0x00000000
       15615000	      1560	80002758	00000013	addi	x0,x0,0	  x0:0x00000000
       15625000	      1561	8000275c	fe9ff0ef	jal	x1,8000275c	  x1=0x8000275c
       15635000	      1562	00000000	00000013	addi	x0,x0,0	  x0:0x00000000
       15645000	      1563	80002740	00000013	addi	x0,x0,0	  x0:0x00000000
       15655000	      1564	80002744	024000ef	jal	x1,80002744	  x1=0x80002744
       15665000	      1565	00000000	00000013	addi	x0,x0,0	  x0:0x00000000
       15675000	      1566	80002764	00000013	addi	x0,x0,0	  x0:0x00000000
       15685000	      1567	80002768	fc9ff36f	jal	x6,80002768	  x6=0x80002768
       15695000	      1568	00000000	00000013	addi	x0,x0,0	  x0:0x00000000
       15705000	      1569	8000272c	00000013	addi	x0,x0,0	  x0:0x00000000
       15715000	      1570	80002730	028000ef	jal	x1,80002730	  x1=0x80002730
       15725000	      1571	00000000	00000013	addi	x0,x0,0	  x0:0x00000000
       15735000	      1572	80002754	00000013	addi	x0,x0,0	  x0:0x00000000
       15745000	      1573	80002758	fe5ff36f	jal	x6,80002758	  x6=0x80002758
       15755000	      1574	00000000	00000013	addi	x0,x0,0	  x0:0x00000000
       15765000	      1575	80002738	00000013	addi	x0,x0,0	  x0:0x00000000
       15775000	      1576	8000273c	01000eef	jal	x29,8000273c	 x29=0x8000273c
       15785000	      1577	00000000	00000013	addi	x0,x0,0	  x0:0x00000000
       15795000	      1578	80002748	00000013	addi	x0,x0,0	  x0:0x00000000
       15805000	      1579	8000274c	ffdff0ef	jal	x1,8000274c	  x1=0x8000274c
       15815000	      1580	00000000	00000013	addi	x0,x0,0	  x0:0x00000000
       15825000	      1581	80002744	00000013	addi	x0,x0,0	  x0:0x00000000
       15835000	      1582	80002748	008000ef	jal	x1,80002748	  x1=0x80002748
       15845000	      1583	00000000	00000013	addi	x0,x0,0	  x0:0x00000000
       15855000	      1584	8000274c	00000013	addi	x0,x0,0	  x0:0x00000000
       15865000	      1585	80002750	fd5ff36f	jal	x6,80002750	  x6=0x80002750
       15875000	      1586	00000000	00000013	addi	x0,x0,0	  x0:0x00000000
       15885000	      1587	80002720	00000013	addi	x0,x0,0	  x0:0x00000000
       15895000	      1588	80002724	008000ef	jal	x1,80002724	  x1=0x80002724
       15905000	      1589	00000000	00000013	addi	x0,x0,0	  x0:0x00000000
       15915000	      1590	80002728	00000013	addi	x0,x0,0	  x0:0x00000000
       15925000	      1591	8000272c	0340036f	jal	x6,8000272c	  x6=0x8000272c
       15935000	      1592	00000000	00000013	addi	x0,x0,0	  x0:0x00000000
       15945000	      1593	8000275c	00000013	addi	x0,x0,0	  x0:0x00000000
       15955000	      1594	80002760	fb9ff36f	jal	x6,80002760	  x6=0x80002760
       15965000	      1595	00000000	00000013	addi	x0,x0,0	  x0:0x00000000
       15975000	      1596	80002714	00000013	addi	x0,x0,0	  x0:0x00000000
       15985000	      1597	80002718	008000ef	jal	x1,80002718	  x1=0x80002718
       15995000	      1598	00000000	00000013	addi	x0,x0,0	  x0:0x00000000
       16005000	      1599	8000271c	00000013	addi	x0,x0,0	  x0:0x00000000
       16015000	      1600	80002720	054001ef	jal	x3,80002720	  x3=0x80002720
       16025000	      1601	00000000	00000013	addi	x0,x0,0	  x0:0x00000000
       16035000	      1602	80002770	00000013	addi	x0,x0,0	  x0:0x00000000
       16045000	      1603	80002774	fc1ffaef	jal	x21,80002774	 x21=0x80002774
       16055000	      1604	00000000	00000013	addi	x0,x0,0	  x0:0x00000000
       16065000	      1605	80002730	00000013	addi	x0,x0,0	  x0:0x00000000
       16075000	      1606	80002734	ff5ff36f	jal	x6,80002734	  x6=0x80002734
       16085000	      1607	00000000	00000013	addi	x0,x0,0	  x0:0x00000000
       16095000	      1608	80002724	00000013	addi	x0,x0,0	  x0:0x00000000
       16105000	      1609	80002728	ff5ff0ef	jal	x1,80002728	  x1=0x80002728
       16115000	      1610	00000000	00000013	addi	x0,x0,0	  x0:0x00000000
       16125000	      1611	80002718	00000013	addi	x0,x0,0	  x0:0x00000000
       16135000	      1612	8000271c	038000ef	jal	x1,8000271c	  x1=0x8000271c
       16145000	      1613	00000000	00000013	addi	x0,x0,0	  x0:0x00000000
       16155000	      1614	80002750	00000013	addi	x0,x0,0	  x0:0x00000000
       16165000	      1615	80002754	01c000ef	jal	x1,80002754	  x1=0x80002754
       16175000	      1616	00000000	00000013	addi	x0,x0,0	  x0:0x00000000
       16185000	      1617	8000276c	00000013	addi	x0,x0,0	  x0:0x00000000
       16195000	      1618	80002770	fd1ff0ef	jal	x1,80002770	  x1=0x80002770
       16205000	      1619	00000000	00000013	addi	x0,x0,0	  x0:0x00000000
       16215000	      1620	8000273c	00000013	addi	x0,x0,0	  x0:0x00000000
       16225000	      1621	80002740	ff9ff0ef	jal	x1,80002740	  x1=0x80002740
       16235000	      1622	00000000	00000013	addi	x0,x0,0	  x0:0x00000000
       16245000	      1623	80002734	00000013	addi	x0,x0,0	  x0:0x00000000
       16255000	      1624	80002738	02c000ef	jal	x1,80002738	  x1=0x80002738
       16265000	      1625	00000000	00000013	addi	x0,x0,0	  x0:0x00000000
       16275000	      1626	80002760	00000013	addi	x0,x0,0	  x0:0x00000000
       16285000	      1627	80002764	014000ef	jal	x1,80002764	  x1=0x80002764
       16295000	      1628	00000000	00000013	addi	x0,x0,0	  x0:0x00000000
       16305000	      1629	80002774	00000013	addi	x0,x0,0	  x0:0x00000000
       16315000	      1630	80002778	0127f533	and	x10,x15,x18	 x15:0x00000259 x18:0x80009fc4 x10=0x00000240
       16325000	      1631	8000277c	050000ef	jal	x1,8000277c	  x1=0x8000277c
       16335000	      1632	00000000	00000013	addi	x0,x0,0	  x0:0x00000000
       16345000	      1633	800027c8	00000013	addi	x0,x0,0	  x0:0x00000000
       16355000	      1634	800027cc	fcdff16f	jal	x2,800027cc	  x2=0x800027cc
       16365000	      1635	00000000	00000013	addi	x0,x0,0	  x0:0x00000000
       16375000	      1636	80002794	00000013	addi	x0,x0,0	  x0:0x00000000
       16385000	      1637	80002798	fe9ffe6f	jal	x28,80002798	 x28=0x80002798
       16395000	      1638	00000000	00000013	addi	x0,x0,0	  x0:0x00000000
       16405000	      1639	8000277c	00000013	addi	x0,x0,0	  x0:0x00000000
       16415000	      1640	80002780	0040036f	jal	x6,80002780	  x6=0x80002780
       16425000	      1641	00000000	00000013	addi	x0,x0,0	  x0:0x00000000
       16435000	      1642	80002780	00000013	addi	x0,x0,0	  x0:0x00000000
       16445000	      1643	80002784	028000ef	jal	x1,80002784	  x1=0x80002784
       16455000	      1644	00000000	00000013	addi	x0,x0,0	  x0:0x00000000
       16465000	      1645	800027a8	00000013	addi	x0,x0,0	  x0:0x00000000
       16475000	      1646	800027ac	03000a6f	jal	x20,800027ac	 x20=0x800027ac
       16485000	      1647	00000000	00000013	addi	x0,x0,0	  x0:0x00000000
       16495000	      1648	800027d8	00000013	addi	x0,x0,0	  x0:0x00000000
       16505000	      1649	800027dc	fedffcef	jal	x25,800027dc	 x25=0x800027dc
       16515000	      1650	00000000	00000013	addi	x0,x0,0	  x0:0x00000000
       16525000	      1651	800027c4	00000013	addi	x0,x0,0	  x0:0x00000000
       16535000	      1652	800027c8	fd5ffd6f	jal	x26,800027c8	 x26=0x800027c8
       16545000	      1653	00000000	00000013	addi	x0,x0,0	  x0:0x00000000
       16555000	      1654	80002798	00000013	addi	x0,x0,0	  x0:0x00000000
       16565000	      1655	8000279c	004000ef	jal	x1,8000279c	  x1=0x8000279c
       16575000	      1656	00000000	00000013	addi	x0,x0,0	  x0:0x00000000
       16585000	      1657	8000279c	00000013	addi	x0,x0,0	  x0:0x00000000
       16595000	      1658	800027a0	038002ef	jal	x5,800027a0	  x5=0x800027a0
       16605000	      1659	00000000	00000013	addi	x0,x0,0	  x0:0x00000000
       16615000	      1660	800027d4	00000013	addi	x0,x0,0	  x0:0x00000000
       16625000	      1661	800027d8	fddffe6f	jal	x28,800027d8	 x28=0x800027d8
       16635000	      1662	00000000	00000013	addi	x0,x0,0	  x0:0x00000000
       16645000	      1663	800027b0	00000013	addi	x0,x0,0	  x0:0x00000000
       16655000	      1664	800027b4	fd5ff1ef	jal	x3,800027b4	  x3=0x800027b4
       16665000	      1665	00000000	00000013	addi	x0,x0,0	  x0:0x00000000
       16675000	      1666	80002784	00000013	addi	x0,x0,0	  x0:0x00000000
       16685000	      1667	80002788	00c000ef	jal	x1,80002788	  x1=0x80002788
       16695000	      1668	00000000	00000013	addi	x0,x0,0	  x0:0x00000000
       16705000	      1669	80002790	00000013	addi	x0,x0,0	  x0:0x00000000
       16715000	      1670	80002794	014000ef	jal	x1,80002794	  x1=0x80002794
       16725000	      1671	00000000	00000013	addi	x0,x0,0	  x0:0x00000000
       16735000	      1672	800027a4	00000013	addi	x0,x0,0	  x0:0x00000000
       16745000	      1673	800027a8	028000ef	jal	x1,800027a8	  x1=0x800027a8
       16755000	      1674	00000000	00000013	addi	x0,x0,0	  x0:0x00000000
       16765000	      1675	800027cc	00000013	addi	x0,x0,0	  x0:0x00000000
       16775000	      1676	800027d0	fd5ff76f	jal	x14,800027d0	 x14=0x800027d0
       16785000	      1677	00000000	00000013	addi	x0,x0,0	  x0:0x00000000
       16795000	      1678	800027a0	00000013	addi	x0,x0,0	  x0:0x00000000
       16805000	      1679	800027a4	01c00f6f	jal	x30,800027a4	 x30=0x800027a4
       16815000	      1680	00000000	00000013	addi	x0,x0,0	  x0:0x00000000
       16825000	      1681	800027bc	00000013	addi	x0,x0,0	  x0:0x00000000
       16835000	      1682	800027c0	0040076f	jal	x14,800027c0	 x14=0x800027c0
       16845000	      1683	00000000	00000013	addi	x0,x0,0	  x0:0x00000000
       16855000	      1684	800027c0	00000013	addi	x0,x0,0	  x0:0x00000000
       16865000	      1685	800027c4	fcdff0ef	jal	x1,800027c4	  x1=0x800027c4
       16875000	      1686	00000000	00000013	addi	x0,x0,0	  x0:0x00000000
       16885000	      1687	8000278c	00000013	addi	x0,x0,0	  x0:0x00000000
       16895000	      1688	80002790	020000ef	jal	x1,80002790	  x1=0x80002790
       16905000	      1689	00000000	00000013	addi	x0,x0,0	  x0:0x00000000
       16915000	      1690	800027ac	00000013	addi	x0,x0,0	  x0:0x00000000
       16925000	      1691	800027b0	fddff46f	jal	x8,800027b0	  x8=0x800027b0
       16935000	      1692	00000000	00000013	addi	x0,x0,0	  x0:0x00000000
       16945000	      1693	80002788	00000013	addi	x0,x0,0	  x0:0x00000000
       16955000	      1694	8000278c	02c000ef	jal	x1,8000278c	  x1=0x8000278c
       16965000	      1695	00000000	00000013	addi	x0,x0,0	  x0:0x00000000
       16975000	      1696	800027b4	00000013	addi	x0,x0,0	  x0:0x00000000
       16985000	      1697	800027b8	01c000ef	jal	x1,800027b8	  x1=0x800027b8
       16995000	      1698	00000000	00000013	addi	x0,x0,0	  x0:0x00000000
       17005000	      1699	800027d0	00000013	addi	x0,x0,0	  x0:0x00000000
       17015000	      1700	800027d4	fe9ff56f	jal	x10,800027d4	 x10=0x800027d4
       17025000	      1701	00000000	00000013	addi	x0,x0,0	  x0:0x00000000
       17035000	      1702	800027b8	00000013	addi	x0,x0,0	  x0:0x00000000
       17045000	      1703	800027bc	024000ef	jal	x1,800027bc	  x1=0x800027bc
       17055000	      1704	00000000	00000013	addi	x0,x0,0	  x0:0x00000000
       17065000	      1705	800027dc	00000013	addi	x0,x0,0	  x0:0x00000000
       17075000	      1706	800027e0	4075d093	srai	x1,x11,0x7	 x11:0x8000415e  x1=0xff000082
       17085000	      1707	800027e4	060000ef	jal	x1,800027e4	  x1=0x800027e4
       17095000	      1708	00000000	00000013	addi	x0,x0,0	  x0:0x00000000
       17105000	      1709	80002840	00000013	addi	x0,x0,0	  x0:0x00000000
       17115000	      1710	80002844	0180036f	jal	x6,80002844	  x6=0x80002844
       17125000	      1711	00000000	00000013	addi	x0,x0,0	  x0:0x00000000
       17135000	      1712	80002858	00000013	addi	x0,x0,0	  x0:0x00000000
       17145000	      1713	8000285c	fc9ff36f	jal	x6,8000285c	  x6=0x8000285c
       17155000	      1714	00000000	00000013	addi	x0,x0,0	  x0:0x00000000
       17165000	      1715	80002820	00000013	addi	x0,x0,0	  x0:0x00000000
       17175000	      1716	80002824	0340036f	jal	x6,80002824	  x6=0x80002824
       17185000	      1717	00000000	00000013	addi	x0,x0,0	  x0:0x00000000
       17195000	      1718	80002854	00000013	addi	x0,x0,0	  x0:0x00000000
       17205000	      1719	80002858	fe5ff0ef	jal	x1,80002858	  x1=0x80002858
       17215000	      1720	00000000	00000013	addi	x0,x0,0	  x0:0x00000000
       17225000	      1721	80002838	00000013	addi	x0,x0,0	  x0:0x00000000
       17235000	      1722	8000283c	010000ef	jal	x1,8000283c	  x1=0x8000283c
       17245000	      1723	00000000	00000013	addi	x0,x0,0	  x0:0x00000000
       17255000	      1724	80002848	00000013	addi	x0,x0,0	  x0:0x00000000
       17265000	      1725	8000284c	fe1ff36f	jal	x6,8000284c	  x6=0x8000284c
       17275000	      1726	00000000	00000013	addi	x0,x0,0	  x0:0x00000000
       17285000	      1727	80002828	00000013	addi	x0,x0,0	  x0:0x00000000
       17295000	      1728	8000282c	0280036f	jal	x6,8000282c	  x6=0x8000282c
       17305000	      1729	00000000	00000013	addi	x0,x0,0	  x0:0x00000000
       17315000	      1730	80002850	00000013	addi	x0,x0,0	  x0:0x00000000
       17325000	      1731	80002854	fedff0ef	jal	x1,80002854	  x1=0x80002854
       17335000	      1732	00000000	00000013	addi	x0,x0,0	  x0:0x00000000
       17345000	      1733	8000283c	00000013	addi	x0,x0,0	  x0:0x00000000
       17355000	      1734	80002840	fc1ff36f	jal	x6,80002840	  x6=0x80002840
       17365000	      1735	00000000	00000013	addi	x0,x0,0	  x0:0x00000000
       17375000	      1736	800027fc	00000013	addi	x0,x0,0	  x0:0x00000000
       17385000	      1737	80002800	028000ef	jal	x1,80002800	  x1=0x80002800
       17395000	      1738	00000000	00000013	addi	x0,x0,0	  x0:0x00000000
       17405000	      1739	80002824	00000013	addi	x0,x0,0	  x0:0x00000000
       17415000	      1740	80002828	02800eef	jal	x29,80002828	 x29=0x80002828
       17425000	      1741	00000000	00000013	addi	x0,x0,0	  x0:0x00000000
       17435000	      1742	8000284c	00000013	addi	x0,x0,0	  x0:0x00000000
       17445000	      1743	80002850	fc1ff36f	jal	x6,80002850	  x6=0x80002850
       17455000	      1744	00000000	00000013	addi	x0,x0,0	  x0:0x00000000
       17465000	      1745	8000280c	00000013	addi	x0,x0,0	  x0:0x00000000
       17475000	      1746	80002810	fe5ff7ef	jal	x15,80002810	 x15=0x80002810
       17485000	      1747	00000000	00000013	addi	x0,x0,0	  x0:0x00000000
       17495000	      1748	800027f0	00000013	addi	x0,x0,0	  x0:0x00000000
       17505000	      1749	800027f4	0140016f	jal	x2,800027f4	  x2=0x800027f4
       17515000	      1750	00000000	00000013	addi	x0,x0,0	  x0:0x00000000
       17525000	      1751	80002804	00000013	addi	x0,x0,0	  x0:0x00000000
       17535000	      1752	80002808	fe1ff16f	jal	x2,80002808	  x2=0x80002808
       17545000	      1753	00000000	00000013	addi	x0,x0,0	  x0:0x00000000
       17555000	      1754	800027e4	00000013	addi	x0,x0,0	  x0:0x00000000
       17565000	      1755	800027e8	038000ef	jal	x1,800027e8	  x1=0x800027e8
       17575000	      1756	00000000	00000013	addi	x0,x0,0	  x0:0x00000000
       17585000	      1757	8000281c	00000013	addi	x0,x0,0	  x0:0x00000000
       17595000	      1758	80002820	fd9ff36f	jal	x6,80002820	  x6=0x80002820
       17605000	      1759	00000000	00000013	addi	x0,x0,0	  x0:0x00000000
       17615000	      1760	800027f4	00000013	addi	x0,x0,0	  x0:0x00000000
       17625000	      1761	800027f8	0240036f	jal	x6,800027f8	  x6=0x800027f8
       17635000	      1762	00000000	00000013	addi	x0,x0,0	  x0:0x00000000
       17645000	      1763	80002818	00000013	addi	x0,x0,0	  x0:0x00000000
       17655000	      1764	8000281c	0140036f	jal	x6,8000281c	  x6=0x8000281c
       17665000	      1765	00000000	00000013	addi	x0,x0,0	  x0:0x00000000
       17675000	      1766	8000282c	00000013	addi	x0,x0,0	  x0:0x00000000
       17685000	      1767	80002830	00400aef	jal	x21,80002830	 x21=0x80002830
       17695000	      1768	00000000	00000013	addi	x0,x0,0	  x0:0x00000000
       17705000	      1769	80002830	00000013	addi	x0,x0,0	  x0:0x00000000
       17715000	      1770	80002834	fe5ff26f	jal	x4,80002834	  x4=0x80002834
       17725000	      1771	00000000	00000013	addi	x0,x0,0	  x0:0x00000000
       17735000	      1772	80002814	00000013	addi	x0,x0,0	  x0:0x00000000
       17745000	      1773	80002818	fd5ff0ef	jal	x1,80002818	  x1=0x80002818
       17755000	      1774	00000000	00000013	addi	x0,x0,0	  x0:0x00000000
       17765000	      1775	800027e8	00000013	addi	x0,x0,0	  x0:0x00000000
       17775000	      1776	800027ec	028000ef	jal	x1,800027ec	  x1=0x800027ec
       17785000	      1777	00000000	00000013	addi	x0,x0,0	  x0:0x00000000
       17795000	      1778	80002810	00000013	addi	x0,x0,0	  x0:0x00000000
       17805000	      1779	80002814	ff1ff0ef	jal	x1,80002814	  x1=0x80002814
       17815000	      1780	00000000	00000013	addi	x0,x0,0	  x0:0x00000000
       17825000	      1781	80002800	00000013	addi	x0,x0,0	  x0:0x00000000
       17835000	      1782	80002804	fedff36f	jal	x6,80002804	  x6=0x80002804
       17845000	      1783	00000000	00000013	addi	x0,x0,0	  x0:0x00000000
       17855000	      1784	800027ec	00000013	addi	x0,x0,0	  x0:0x00000000
       17865000	      1785	800027f0	04800c6f	jal	x24,800027f0	 x24=0x800027f0
       17875000	      1786	00000000	00000013	addi	x0,x0,0	  x0:0x00000000
       17885000	      1787	80002834	00000013	addi	x0,x0,0	  x0:0x00000000
       17895000	      1788	80002838	fd5ff5ef	jal	x11,80002838	 x11=0x80002838
       17905000	      1789	00000000	00000013	addi	x0,x0,0	  x0:0x00000000
       17915000	      1790	80002808	00000013	addi	x0,x0,0	  x0:0x00000000
       17925000	      1791	8000280c	ff1ff0ef	jal	x1,8000280c	  x1=0x8000280c
       17935000	      1792	00000000	00000013	addi	x0,x0,0	  x0:0x00000000
       17945000	      1793	800027f8	00000013	addi	x0,x0,0	  x0:0x00000000
       17955000	      1794	800027fc	04c000ef	jal	x1,800027fc	  x1=0x800027fc
       17965000	      1795	00000000	00000013	addi	x0,x0,0	  x0:0x00000000
       17975000	      1796	80002844	00000013	addi	x0,x0,0	  x0:0x00000000
       17985000	      1797	80002848	01800f6f	jal	x30,80002848	 x30=0x80002848
       17995000	      1798	00000000	00000013	addi	x0,x0,0	  x0:0x00000000
       18005000	      1799	8000285c	00000013	addi	x0,x0,0	  x0:0x00000000
       18015000	      1800	80002860	001b2ab3	slt	x21,x22,x1	 x22:0x00000463  x1:0x800027fc x21=0x00000000
       18025000	      1801	80002864	020000ef	jal	x1,80002864	  x1=0x80002864
       18035000	      1802	00000000	00000013	addi	x0,x0,0	  x0:0x00000000
       18045000	      1803	80002880	00000013	addi	x0,x0,0	  x0:0x00000000
       18055000	      1804	80002884	020000ef	jal	x1,80002884	  x1=0x80002884
       18065000	      1805	00000000	00000013	addi	x0,x0,0	  x0:0x00000000
       18075000	      1806	800028a0	00000013	addi	x0,x0,0	  x0:0x00000000
       18085000	      1807	800028a4	fcdff0ef	jal	x1,800028a4	  x1=0x800028a4
       18095000	      1808	00000000	00000013	addi	x0,x0,0	  x0:0x00000000
       18105000	      1809	8000286c	00000013	addi	x0,x0,0	  x0:0x00000000
       18115000	      1810	80002870	ff9ffaef	jal	x21,80002870	 x21=0x80002870
       18125000	      1811	00000000	00000013	addi	x0,x0,0	  x0:0x00000000
       18135000	      1812	80002864	00000013	addi	x0,x0,0	  x0:0x00000000
       18145000	      1813	80002868	020000ef	jal	x1,80002868	  x1=0x80002868
       18155000	      1814	00000000	00000013	addi	x0,x0,0	  x0:0x00000000
       18165000	      1815	80002884	00000013	addi	x0,x0,0	  x0:0x00000000
       18175000	      1816	80002888	ff5ff1ef	jal	x3,80002888	  x3=0x80002888
       18185000	      1817	00000000	00000013	addi	x0,x0,0	  x0:0x00000000
       18195000	      1818	80002878	00000013	addi	x0,x0,0	  x0:0x00000000
       18205000	      1819	8000287c	ff1ff0ef	jal	x1,8000287c	  x1=0x8000287c
       18215000	      1820	00000000	00000013	addi	x0,x0,0	  x0:0x00000000
       18225000	      1821	80002868	00000013	addi	x0,x0,0	  x0:0x00000000
       18235000	      1822	8000286c	024000ef	jal	x1,8000286c	  x1=0x8000286c
       18245000	      1823	00000000	00000013	addi	x0,x0,0	  x0:0x00000000
       18255000	      1824	8000288c	00000013	addi	x0,x0,0	  x0:0x00000000
       18265000	      1825	80002890	018000ef	jal	x1,80002890	  x1=0x80002890
       18275000	      1826	00000000	00000013	addi	x0,x0,0	  x0:0x00000000
       18285000	      1827	800028a4	00000013	addi	x0,x0,0	  x0:0x00000000
       18295000	      1828	800028a8	fd1ff0ef	jal	x1,800028a8	  x1=0x800028a8
       18305000	      1829	00000000	00000013	addi	x0,x0,0	  x0:0x00000000
       18315000	      1830	80002874	00000013	addi	x0,x0,0	  x0:0x00000000
       18325000	      1831	80002878	01c0036f	jal	x6,80002878	  x6=0x80002878
       18335000	      1832	00000000	00000013	addi	x0,x0,0	  x0:0x00000000
       18345000	      1833	80002890	00000013	addi	x0,x0,0	  x0:0x00000000
       18355000	      1834	80002894	ff9ff0ef	jal	x1,80002894	  x1=0x80002894
       18365000	      1835	00000000	00000013	addi	x0,x0,0	  x0:0x00000000
       18375000	      1836	80002888	00000013	addi	x0,x0,0	  x0:0x00000000
       18385000	      1837	8000288c	014008ef	jal	x17,8000288c	 x17=0x8000288c
       18395000	      1838	00000000	00000013	addi	x0,x0,0	  x0:0x00000000
       18405000	      1839	8000289c	00000013	addi	x0,x0,0	  x0:0x00000000
       18415000	      1840	800028a0	ffdff0ef	jal	x1,800028a0	  x1=0x800028a0
       18425000	      1841	00000000	00000013	addi	x0,x0,0	  x0:0x00000000
       18435000	      1842	80002898	00000013	addi	x0,x0,0	  x0:0x00000000
       18445000	      1843	8000289c	fd9ff0ef	jal	x1,8000289c	  x1=0x8000289c
       18455000	      1844	00000000	00000013	addi	x0,x0,0	  x0:0x00000000
       18465000	      1845	80002870	00000013	addi	x0,x0,0	  x0:0x00000000
       18475000	      1846	80002874	00c008ef	jal	x17,80002874	 x17=0x80002874
       18485000	      1847	00000000	00000013	addi	x0,x0,0	  x0:0x00000000
       18495000	      1848	8000287c	00000013	addi	x0,x0,0	  x0:0x00000000
       18505000	      1849	80002880	018000ef	jal	x1,80002880	  x1=0x80002880
       18515000	      1850	00000000	00000013	addi	x0,x0,0	  x0:0x00000000
       18525000	      1851	80002894	00000013	addi	x0,x0,0	  x0:0x00000000
       18535000	      1852	80002898	014000ef	jal	x1,80002898	  x1=0x80002898
       18545000	      1853	00000000	00000013	addi	x0,x0,0	  x0:0x00000000
       18555000	      1854	800028a8	00000013	addi	x0,x0,0	  x0:0x00000000
       18565000	      1855	800028ac	01bd5033	srl	x0,x26,x27	 x26:0x800027c8 x27:0x00000000
       18575000	      1856	800028b0	014000ef	jal	x1,800028b0	  x1=0x800028b0
       18585000	      1857	00000000	00000013	addi	x0,x0,0	  x0:0x00000000
       18595000	      1858	800028c0	00000013	addi	x0,x0,0	  x0:0x00000000
       18605000	      1859	800028c4	ffdff0ef	jal	x1,800028c4	  x1=0x800028c4
       18615000	      1860	00000000	00000013	addi	x0,x0,0	  x0:0x00000000
       18625000	      1861	800028bc	00000013	addi	x0,x0,0	  x0:0x00000000
       18635000	      1862	800028c0	058001ef	jal	x3,800028c0	  x3=0x800028c0
       18645000	      1863	00000000	00000013	addi	x0,x0,0	  x0:0x00000000
       18655000	      1864	80002914	00000013	addi	x0,x0,0	  x0:0x00000000
       18665000	      1865	80002918	fe5ff0ef	jal	x1,80002918	  x1=0x80002918
       18675000	      1866	00000000	00000013	addi	x0,x0,0	  x0:0x00000000
       18685000	      1867	800028f8	00000013	addi	x0,x0,0	  x0:0x00000000
       18695000	      1868	800028fc	004000ef	jal	x1,800028fc	  x1=0x800028fc
       18705000	      1869	00000000	00000013	addi	x0,x0,0	  x0:0x00000000
       18715000	      1870	800028fc	00000013	addi	x0,x0,0	  x0:0x00000000
       18725000	      1871	80002900	014000ef	jal	x1,80002900	  x1=0x80002900
       18735000	      1872	00000000	00000013	addi	x0,x0,0	  x0:0x00000000
       18745000	      1873	80002910	00000013	addi	x0,x0,0	  x0:0x00000000
       18755000	      1874	80002914	ff9ff26f	jal	x4,80002914	  x4=0x80002914
       18765000	      1875	00000000	00000013	addi	x0,x0,0	  x0:0x00000000
       18775000	      1876	80002908	00000013	addi	x0,x0,0	  x0:0x00000000
       18785000	      1877	8000290c	ffdff6ef	jal	x13,8000290c	 x13=0x8000290c
       18795000	      1878	00000000	00000013	addi	x0,x0,0	  x0:0x00000000
       18805000	      1879	80002904	00000013	addi	x0,x0,0	  x0:0x00000000
       18815000	      1880	80002908	fc9ff0ef	jal	x1,80002908	  x1=0x80002908
       18825000	      1881	00000000	00000013	addi	x0,x0,0	  x0:0x00000000
       18835000	      1882	800028cc	00000013	addi	x0,x0,0	  x0:0x00000000
       18845000	      1883	800028d0	0180076f	jal	x14,800028d0	 x14=0x800028d0
       18855000	      1884	00000000	00000013	addi	x0,x0,0	  x0:0x00000000
       18865000	      1885	800028e4	00000013	addi	x0,x0,0	  x0:0x00000000
       18875000	      1886	800028e8	fd5ff36f	jal	x6,800028e8	  x6=0x800028e8
       18885000	      1887	00000000	00000013	addi	x0,x0,0	  x0:0x00000000
       18895000	      1888	800028b8	00000013	addi	x0,x0,0	  x0:0x00000000
       18905000	      1889	800028bc	034000ef	jal	x1,800028bc	  x1=0x800028bc
       18915000	      1890	00000000	00000013	addi	x0,x0,0	  x0:0x00000000
       18925000	      1891	800028ec	00000013	addi	x0,x0,0	  x0:0x00000000
       18935000	      1892	800028f0	0200046f	jal	x8,800028f0	  x8=0x800028f0
       18945000	      1893	00000000	00000013	addi	x0,x0,0	  x0:0x00000000
       18955000	      1894	8000290c	00000013	addi	x0,x0,0	  x0:0x00000000
       18965000	      1895	80002910	fe5ffcef	jal	x25,80002910	 x25=0x80002910
       18975000	      1896	00000000	00000013	addi	x0,x0,0	  x0:0x00000000
       18985000	      1897	800028f0	00000013	addi	x0,x0,0	  x0:0x00000000
       18995000	      1898	800028f4	fd5ff0ef	jal	x1,800028f4	  x1=0x800028f4
       19005000	      1899	00000000	00000013	addi	x0,x0,0	  x0:0x00000000
       19015000	      1900	800028c4	00000013	addi	x0,x0,0	  x0:0x00000000
       19025000	      1901	800028c8	030000ef	jal	x1,800028c8	  x1=0x800028c8
       19035000	      1902	00000000	00000013	addi	x0,x0,0	  x0:0x00000000
       19045000	      1903	800028f4	00000013	addi	x0,x0,0	  x0:0x00000000
       19055000	      1904	800028f8	fbdff0ef	jal	x1,800028f8	  x1=0x800028f8
       19065000	      1905	00000000	00000013	addi	x0,x0,0	  x0:0x00000000
       19075000	      1906	800028b0	00000013	addi	x0,x0,0	  x0:0x00000000
       19085000	      1907	800028b4	024000ef	jal	x1,800028b4	  x1=0x800028b4
       19095000	      1908	00000000	00000013	addi	x0,x0,0	  x0:0x00000000
       19105000	      1909	800028d4	00000013	addi	x0,x0,0	  x0:0x00000000
       19115000	      1910	800028d8	00c000ef	jal	x1,800028d8	  x1=0x800028d8
       19125000	      1911	00000000	00000013	addi	x0,x0,0	  x0:0x00000000
       19135000	      1912	800028e0	00000013	addi	x0,x0,0	  x0:0x00000000
       19145000	      1913	800028e4	020000ef	jal	x1,800028e4	  x1=0x800028e4
       19155000	      1914	00000000	00000013	addi	x0,x0,0	  x0:0x00000000
       19165000	      1915	80002900	00000013	addi	x0,x0,0	  x0:0x00000000
       19175000	      1916	80002904	0180046f	jal	x8,80002904	  x8=0x80002904
       19185000	      1917	00000000	00000013	addi	x0,x0,0	  x0:0x00000000
       19195000	      1918	80002918	00000013	addi	x0,x0,0	  x0:0x00000000
       19205000	      1919	8000291c	f9dff36f	jal	x6,8000291c	  x6=0x8000291c
       19215000	      1920	00000000	00000013	addi	x0,x0,0	  x0:0x00000000
       19225000	      1921	800028b4	00000013	addi	x0,x0,0	  x0:0x00000000
       19235000	      1922	800028b8	014000ef	jal	x1,800028b8	  x1=0x800028b8
       19245000	      1923	00000000	00000013	addi	x0,x0,0	  x0:0x00000000
       19255000	      1924	800028c8	00000013	addi	x0,x0,0	  x0:0x00000000
       19265000	      1925	800028cc	0100036f	jal	x6,800028cc	  x6=0x800028cc
       19275000	      1926	00000000	00000013	addi	x0,x0,0	  x0:0x00000000
       19285000	      1927	800028d8	00000013	addi	x0,x0,0	  x0:0x00000000
       19295000	      1928	800028dc	010000ef	jal	x1,800028dc	  x1=0x800028dc
       19305000	      1929	00000000	00000013	addi	x0,x0,0	  x0:0x00000000
       19315000	      1930	800028e8	00000013	addi	x0,x0,0	  x0:0x00000000
       19325000	      1931	800028ec	ff5ff36f	jal	x6,800028ec	  x6=0x800028ec
       19335000	      1932	00000000	00000013	addi	x0,x0,0	  x0:0x00000000
       19345000	      1933	800028dc	00000013	addi	x0,x0,0	  x0:0x00000000
       19355000	      1934	800028e0	ff5ff0ef	jal	x1,800028e0	  x1=0x800028e0
       19365000	      1935	00000000	00000013	addi	x0,x0,0	  x0:0x00000000
       19375000	      1936	800028d0	00000013	addi	x0,x0,0	  x0:0x00000000
       19385000	      1937	800028d4	04c0086f	jal	x16,800028d4	 x16=0x800028d4
       19395000	      1938	00000000	00000013	addi	x0,x0,0	  x0:0x00000000
       19405000	      1939	8000291c	00000013	addi	x0,x0,0	  x0:0x00000000
       19415000	      1940	80002920	01331bb3	sll	x23,x6,x19	  x6:0x800028ec x19:0x00000000 x23=0x800028ec
       19425000	      1941	80002924	054000ef	jal	x1,80002924	  x1=0x80002924
       19435000	      1942	00000000	00000013	addi	x0,x0,0	  x0:0x00000000
       19445000	      1943	80002974	00000013	addi	x0,x0,0	  x0:0x00000000
       19455000	      1944	80002978	fedff0ef	jal	x1,80002978	  x1=0x80002978
       19465000	      1945	00000000	00000013	addi	x0,x0,0	  x0:0x00000000
       19475000	      1946	80002960	00000013	addi	x0,x0,0	  x0:0x00000000
       19485000	      1947	80002964	fd5ff0ef	jal	x1,80002964	  x1=0x80002964
       19495000	      1948	00000000	00000013	addi	x0,x0,0	  x0:0x00000000
       19505000	      1949	80002934	00000013	addi	x0,x0,0	  x0:0x00000000
       19515000	      1950	80002938	018001ef	jal	x3,80002938	  x3=0x80002938
       19525000	      1951	00000000	00000013	addi	x0,x0,0	  x0:0x00000000
       19535000	      1952	8000294c	00000013	addi	x0,x0,0	  x0:0x00000000
       19545000	      1953	80002950	00c000ef	jal	x1,80002950	  x1=0x80002950
       19555000	      1954	00000000	00000013	addi	x0,x0,0	  x0:0x00000000
       19565000	      1955	80002958	00000013	addi	x0,x0,0	  x0:0x00000000
       19575000	      1956	8000295c	fedff0ef	jal	x1,8000295c	  x1=0x8000295c
       19585000	      1957	00000000	00000013	addi	x0,x0,0	  x0:0x00000000
       19595000	      1958	80002944	00000013	addi	x0,x0,0	  x0:0x00000000
       19605000	      1959	80002948	fe5ff0ef	jal	x1,80002948	  x1=0x80002948
       19615000	      1960	00000000	00000013	addi	x0,x0,0	  x0:0x00000000
       19625000	      1961	80002928	00000013	addi	x0,x0,0	  x0:0x00000000
       19635000	      1962	8000292c	0200036f	jal	x6,8000292c	  x6=0x8000292c
       19645000	      1963	00000000	00000013	addi	x0,x0,0	  x0:0x00000000
       19655000	      1964	80002948	00000013	addi	x0,x0,0	  x0:0x00000000
       19665000	      1965	8000294c	00c000ef	jal	x1,8000294c	  x1=0x8000294c
       19675000	      1966	00000000	00000013	addi	x0,x0,0	  x0:0x00000000
       19685000	      1967	80002954	00000013	addi	x0,x0,0	  x0:0x00000000
       19695000	      1968	80002958	fedff0ef	jal	x1,80002958	  x1=0x80002958
       19705000	      1969	00000000	00000013	addi	x0,x0,0	  x0:0x00000000
       19715000	      1970	80002940	00000013	addi	x0,x0,0	  x0:0x00000000
       19725000	      1971	80002944	028000ef	jal	x1,80002944	  x1=0x80002944
       19735000	      1972	00000000	00000013	addi	x0,x0,0	  x0:0x00000000
       19745000	      1973	80002968	00000013	addi	x0,x0,0	  x0:0x00000000
       19755000	      1974	8000296c	ff5ff1ef	jal	x3,8000296c	  x3=0x8000296c
       19765000	      1975	00000000	00000013	addi	x0,x0,0	  x0:0x00000000
       19775000	      1976	8000295c	00000013	addi	x0,x0,0	  x0:0x00000000
       19785000	      1977	80002960	fc9ff0ef	jal	x1,80002960	  x1=0x80002960
       19795000	      1978	00000000	00000013	addi	x0,x0,0	  x0:0x00000000
       19805000	      1979	80002924	00000013	addi	x0,x0,0	  x0:0x00000000
       19815000	      1980	80002928	040001ef	jal	x3,80002928	  x3=0x80002928
       19825000	      1981	00000000	00000013	addi	x0,x0,0	  x0:0x00000000
       19835000	      1982	80002964	00000013	addi	x0,x0,0	  x0:0x00000000
       19845000	      1983	80002968	fedff0ef	jal	x1,80002968	  x1=0x80002968
       19855000	      1984	00000000	00000013	addi	x0,x0,0	  x0:0x00000000
       19865000	      1985	80002950	00000013	addi	x0,x0,0	  x0:0x00000000
       19875000	      1986	80002954	01c0036f	jal	x6,80002954	  x6=0x80002954
       19885000	      1987	00000000	00000013	addi	x0,x0,0	  x0:0x00000000
       19895000	      1988	8000296c	00000013	addi	x0,x0,0	  x0:0x00000000
       19905000	      1989	80002970	004000ef	jal	x1,80002970	  x1=0x80002970
       19915000	      1990	00000000	00000013	addi	x0,x0,0	  x0:0x00000000
       19925000	      1991	80002970	00000013	addi	x0,x0,0	  x0:0x00000000
       19935000	      1992	80002974	fcdff0ef	jal	x1,80002974	  x1=0x80002974
       19945000	      1993	00000000	00000013	addi	x0,x0,0	  x0:0x00000000
       19955000	      1994	8000293c	00000013	addi	x0,x0,0	  x0:0x00000000
       19965000	      1995	80002940	ffdff36f	jal	x6,80002940	  x6=0x80002940
       19975000	      1996	00000000	00000013	addi	x0,x0,0	  x0:0x00000000
       19985000	      1997	80002938	00000013	addi	x0,x0,0	  x0:0x00000000
       19995000	      1998	8000293c	ff5ff56f	jal	x10,8000293c	 x10=0x8000293c
       20005000	      1999	00000000	00000013	addi	x0,x0,0	  x0:0x00000000
       20015000	      2000	8000292c	00000013	addi	x0,x0,0	  x0:0x00000000
       20025000	      2001	80002930	004000ef	jal	x1,80002930	  x1=0x80002930
       20035000	      2002	00000000	00000013	addi	x0,x0,0	  x0:0x00000000
       20045000	      2003	80002930	00000013	addi	x0,x0,0	  x0:0x00000000
       20055000	      2004	80002934	048000ef	jal	x1,80002934	  x1=0x80002934
       20065000	      2005	00000000	00000013	addi	x0,x0,0	  x0:0x00000000
       20075000	      2006	80002978	00000013	addi	x0,x0,0	  x0:0x00000000
       20085000	      2007	8000297c	0101b733	sltu	x14,x3,x16	  x3:0x80002928 x16:0x800028d4 x14=0x00000000
       20095000	      2008	80002980	01c000ef	jal	x1,80002980	  x1=0x80002980
       20105000	      2009	00000000	00000013	addi	x0,x0,0	  x0:0x00000000
       20115000	      2010	80002998	00000013	addi	x0,x0,0	  x0:0x00000000
       20125000	      2011	8000299c	ff5ff0ef	jal	x1,8000299c	  x1=0x8000299c
       20135000	      2012	00000000	00000013	addi	x0,x0,0	  x0:0x00000000
       20145000	      2013	8000298c	00000013	addi	x0,x0,0	  x0:0x00000000
       20155000	      2014	80002990	008003ef	jal	x7,80002990	  x7=0x80002990
       20165000	      2015	00000000	00000013	addi	x0,x0,0	  x0:0x00000000
       20175000	      2016	80002994	00000013	addi	x0,x0,0	  x0:0x00000000
       20185000	      2017	80002998	008000ef	jal	x1,80002998	  x1=0x80002998
       20195000	      2018	00000000	00000013	addi	x0,x0,0	  x0:0x00000000
       20205000	      2019	8000299c	00000013	addi	x0,x0,0	  x0:0x00000000
       20215000	      2020	800029a0	ff5ff36f	jal	x6,800029a0	  x6=0x800029a0
       20225000	      2021	00000000	00000013	addi	x0,x0,0	  x0:0x00000000
       20235000	      2022	80002990	00000013	addi	x0,x0,0	  x0:0x00000000
       20245000	      2023	80002994	014000ef	jal	x1,80002994	  x1=0x80002994
       20255000	      2024	00000000	00000013	addi	x0,x0,0	  x0:0x00000000
       20265000	      2025	800029a4	00000013	addi	x0,x0,0	  x0:0x00000000
       20275000	      2026	800029a8	fddff36f	jal	x6,800029a8	  x6=0x800029a8
       20285000	      2027	00000000	00000013	addi	x0,x0,0	  x0:0x00000000
       20295000	      2028	80002980	00000013	addi	x0,x0,0	  x0:0x00000000
       20305000	      2029	80002984	020000ef	jal	x1,80002984	  x1=0x80002984
       20315000	      2030	00000000	00000013	addi	x0,x0,0	  x0:0x00000000
       20325000	      2031	800029a0	00000013	addi	x0,x0,0	  x0:0x00000000
       20335000	      2032	800029a4	fe5ffeef	jal	x29,800029a4	 x29=0x800029a4
       20345000	      2033	00000000	00000013	addi	x0,x0,0	  x0:0x00000000
       20355000	      2034	80002984	00000013	addi	x0,x0,0	  x0:0x00000000
       20365000	      2035	80002988	0040036f	jal	x6,80002988	  x6=0x80002988
       20375000	      2036	00000000	00000013	addi	x0,x0,0	  x0:0x00000000
       20385000	      2037	80002988	00000013	addi	x0,x0,0	  x0:0x00000000
       20395000	      2038	8000298c	0200036f	jal	x6,8000298c	  x6=0x8000298c
       20405000	      2039	00000000	00000013	addi	x0,x0,0	  x0:0x00000000
       20415000	      2040	800029a8	00000013	addi	x0,x0,0	  x0:0x00000000
       20425000	      2041	800029ac	728a8113	addi	x2,x21,1832	 x21:0x80002870  x2=0x80002f98
       20435000	      2042	800029b0	028000ef	jal	x1,800029b0	  x1=0x800029b0
       20445000	      2043	00000000	00000013	addi	x0,x0,0	  x0:0x00000000
       20455000	      2044	800029d4	00000013	addi	x0,x0,0	  x0:0x00000000
       20465000	      2045	800029d8	ff1ff0ef	jal	x1,800029d8	  x1=0x800029d8
       20475000	      2046	00000000	00000013	addi	x0,x0,0	  x0:0x00000000
       20485000	      2047	800029c4	00000013	addi	x0,x0,0	  x0:0x00000000
       20495000	      2048	800029c8	004000ef	jal	x1,800029c8	  x1=0x800029c8
       20505000	      2049	00000000	00000013	addi	x0,x0,0	  x0:0x00000000
       20515000	      2050	800029c8	00000013	addi	x0,x0,0	  x0:0x00000000
       20525000	      2051	800029cc	0080016f	jal	x2,800029cc	  x2=0x800029cc
       20535000	      2052	00000000	00000013	addi	x0,x0,0	  x0:0x00000000
       20545000	      2053	800029d0	00000013	addi	x0,x0,0	  x0:0x00000000
       20555000	      2054	800029d4	ffdff0ef	jal	x1,800029d4	  x1=0x800029d4
       20565000	      2055	00000000	00000013	addi	x0,x0,0	  x0:0x00000000
       20575000	      2056	800029cc	00000013	addi	x0,x0,0	  x0:0x00000000
       20585000	      2057	800029d0	ff5ff0ef	jal	x1,800029d0	  x1=0x800029d0
       20595000	      2058	00000000	00000013	addi	x0,x0,0	  x0:0x00000000
       20605000	      2059	800029c0	00000013	addi	x0,x0,0	  x0:0x00000000
       20615000	      2060	800029c4	038002ef	jal	x5,800029c4	  x5=0x800029c4
       20625000	      2061	00000000	00000013	addi	x0,x0,0	  x0:0x00000000
       20635000	      2062	800029f8	00000013	addi	x0,x0,0	  x0:0x00000000
       20645000	      2063	800029fc	004000ef	jal	x1,800029fc	  x1=0x800029fc
       20655000	      2064	00000000	00000013	addi	x0,x0,0	  x0:0x00000000
       20665000	      2065	800029fc	00000013	addi	x0,x0,0	  x0:0x00000000
       20675000	      2066	80002a00	fb9ff0ef	jal	x1,80002a00	  x1=0x80002a00
       20685000	      2067	00000000	00000013	addi	x0,x0,0	  x0:0x00000000
       20695000	      2068	800029b4	00000013	addi	x0,x0,0	  x0:0x00000000
       20705000	      2069	800029b8	0280036f	jal	x6,800029b8	  x6=0x800029b8
       20715000	      2070	00000000	00000013	addi	x0,x0,0	  x0:0x00000000
       20725000	      2071	800029dc	00000013	addi	x0,x0,0	  x0:0x00000000
       20735000	      2072	800029e0	004000ef	jal	x1,800029e0	  x1=0x800029e0
       20745000	      2073	00000000	00000013	addi	x0,x0,0	  x0:0x00000000
       20755000	      2074	800029e0	00000013	addi	x0,x0,0	  x0:0x00000000
       20765000	      2075	800029e4	008000ef	jal	x1,800029e4	  x1=0x800029e4
       20775000	      2076	00000000	00000013	addi	x0,x0,0	  x0:0x00000000
       20785000	      2077	800029e8	00000013	addi	x0,x0,0	  x0:0x00000000
       20795000	      2078	800029ec	00c006ef	jal	x13,800029ec	 x13=0x800029ec
       20805000	      2079	00000000	00000013	addi	x0,x0,0	  x0:0x00000000
       20815000	      2080	800029f4	00000013	addi	x0,x0,0	  x0:0x00000000
       20825000	      2081	800029f8	fc9ff0ef	jal	x1,800029f8	  x1=0x800029f8
       20835000	      2082	00000000	00000013	addi	x0,x0,0	  x0:0x00000000
       20845000	      2083	800029bc	00000013	addi	x0,x0,0	  x0:0x00000000
       20855000	      2084	800029c0	ff5ff0ef	jal	x1,800029c0	  x1=0x800029c0
       20865000	      2085	00000000	00000013	addi	x0,x0,0	  x0:0x00000000
       20875000	      2086	800029b0	00000013	addi	x0,x0,0	  x0:0x00000000
       20885000	      2087	800029b4	03c0036f	jal	x6,800029b4	  x6=0x800029b4
       20895000	      2088	00000000	00000013	addi	x0,x0,0	  x0:0x00000000
       20905000	      2089	800029ec	00000013	addi	x0,x0,0	  x0:0x00000000
       20915000	      2090	800029f0	004000ef	jal	x1,800029f0	  x1=0x800029f0
       20925000	      2091	00000000	00000013	addi	x0,x0,0	  x0:0x00000000
       20935000	      2092	800029f0	00000013	addi	x0,x0,0	  x0:0x00000000
       20945000	      2093	800029f4	ff5ffa6f	jal	x20,800029f4	 x20=0x800029f4
       20955000	      2094	00000000	00000013	addi	x0,x0,0	  x0:0x00000000
       20965000	      2095	800029e4	00000013	addi	x0,x0,0	  x0:0x00000000
       20975000	      2096	800029e8	ff5ffaef	jal	x21,800029e8	 x21=0x800029e8
       20985000	      2097	00000000	00000013	addi	x0,x0,0	  x0:0x00000000
       20995000	      2098	800029d8	00000013	addi	x0,x0,0	  x0:0x00000000
       21005000	      2099	800029dc	fe1ff0ef	jal	x1,800029dc	  x1=0x800029dc
       21015000	      2100	00000000	00000013	addi	x0,x0,0	  x0:0x00000000
       21025000	      2101	800029b8	00000013	addi	x0,x0,0	  x0:0x00000000
       21035000	      2102	800029bc	048000ef	jal	x1,800029bc	  x1=0x800029bc
       21045000	      2103	00000000	00000013	addi	x0,x0,0	  x0:0x00000000
       21055000	      2104	80002a00	00000013	addi	x0,x0,0	  x0:0x00000000
       21065000	      2105	80002a04	41b50a33	sub	x20,x10,x27	 x10:0x8000293c x27:0x00000000 x20=0x8000293c
       21075000	      2106	80002a08	048000ef	jal	x1,80002a08	  x1=0x80002a08
       21085000	      2107	00000000	00000013	addi	x0,x0,0	  x0:0x00000000
       21095000	      2108	80002a4c	00000013	addi	x0,x0,0	  x0:0x00000000
       21105000	      2109	80002a50	fd9ff0ef	jal	x1,80002a50	  x1=0x80002a50
       21115000	      2110	00000000	00000013	addi	x0,x0,0	  x0:0x00000000
       21125000	      2111	80002a24	00000013	addi	x0,x0,0	  x0:0x00000000
       21135000	      2112	80002a28	fe9ff36f	jal	x6,80002a28	  x6=0x80002a28
       21145000	      2113	00000000	00000013	addi	x0,x0,0	  x0:0x00000000
       21155000	      2114	80002a0c	00000013	addi	x0,x0,0	  x0:0x00000000
       21165000	      2115	80002a10	020000ef	jal	x1,80002a10	  x1=0x80002a10
       21175000	      2116	00000000	00000013	addi	x0,x0,0	  x0:0x00000000
       21185000	      2117	80002a2c	00000013	addi	x0,x0,0	  x0:0x00000000
       21195000	      2118	80002a30	ffdff0ef	jal	x1,80002a30	  x1=0x80002a30
       21205000	      2119	00000000	00000013	addi	x0,x0,0	  x0:0x00000000
       21215000	      2120	80002a28	00000013	addi	x0,x0,0	  x0:0x00000000
       21225000	      2121	80002a2c	028000ef	jal	x1,80002a2c	  x1=0x80002a2c
       21235000	      2122	00000000	00000013	addi	x0,x0,0	  x0:0x00000000
       21245000	      2123	80002a50	00000013	addi	x0,x0,0	  x0:0x00000000
       21255000	      2124	80002a54	fb9ff1ef	jal	x3,80002a54	  x3=0x80002a54
       21265000	      2125	00000000	00000013	addi	x0,x0,0	  x0:0x00000000
       21275000	      2126	80002a08	00000013	addi	x0,x0,0	  x0:0x00000000
       21285000	      2127	80002a0c	0300036f	jal	x6,80002a0c	  x6=0x80002a0c
       21295000	      2128	00000000	00000013	addi	x0,x0,0	  x0:0x00000000
       21305000	      2129	80002a38	00000013	addi	x0,x0,0	  x0:0x00000000
       21315000	      2130	80002a3c	0240036f	jal	x6,80002a3c	  x6=0x80002a3c
       21325000	      2131	00000000	00000013	addi	x0,x0,0	  x0:0x00000000
       21335000	      2132	80002a5c	00000013	addi	x0,x0,0	  x0:0x00000000
       21345000	      2133	80002a60	fc1ff1ef	jal	x3,80002a60	  x3=0x80002a60
       21355000	      2134	00000000	00000013	addi	x0,x0,0	  x0:0x00000000
       21365000	      2135	80002a1c	00000013	addi	x0,x0,0	  x0:0x00000000
       21375000	      2136	80002a20	044000ef	jal	x1,80002a20	  x1=0x80002a20
       21385000	      2137	00000000	00000013	addi	x0,x0,0	  x0:0x00000000
       21395000	      2138	80002a60	00000013	addi	x0,x0,0	  x0:0x00000000
       21405000	      2139	80002a64	fd5ff0ef	jal	x1,80002a64	  x1=0x80002a64
       21415000	      2140	00000000	00000013	addi	x0,x0,0	  x0:0x00000000
       21425000	      2141	80002a34	00000013	addi	x0,x0,0	  x0:0x00000000
       21435000	      2142	80002a38	fe1ff2ef	jal	x5,80002a38	  x5=0x80002a38
       21445000	      2143	00000000	00000013	addi	x0,x0,0	  x0:0x00000000
       21455000	      2144	80002a14	00000013	addi	x0,x0,0	  x0:0x00000000
       21465000	      2145	80002a18	044000ef	jal	x1,80002a18	  x1=0x80002a18
       21475000	      2146	00000000	00000013	addi	x0,x0,0	  x0:0x00000000
       21485000	      2147	80002a58	00000013	addi	x0,x0,0	  x0:0x00000000
       21495000	      2148	80002a5c	ffdff0ef	jal	x1,80002a5c	  x1=0x80002a5c
       21505000	      2149	00000000	00000013	addi	x0,x0,0	  x0:0x00000000
       21515000	      2150	80002a54	00000013	addi	x0,x0,0	  x0:0x00000000
       21525000	      2151	80002a58	fc5ff0ef	jal	x1,80002a58	  x1=0x80002a58
       21535000	      2152	00000000	00000013	addi	x0,x0,0	  x0:0x00000000
       21545000	      2153	80002a18	00000013	addi	x0,x0,0	  x0:0x00000000
       21555000	      2154	80002a1c	02c000ef	jal	x1,80002a1c	  x1=0x80002a1c
       21565000	      2155	00000000	00000013	addi	x0,x0,0	  x0:0x00000000
       21575000	      2156	80002a44	00000013	addi	x0,x0,0	  x0:0x00000000
       21585000	      2157	80002a48	fedff0ef	jal	x1,80002a48	  x1=0x80002a48
       21595000	      2158	00000000	00000013	addi	x0,x0,0	  x0:0x00000000
       21605000	      2159	80002a30	00000013	addi	x0,x0,0	  x0:0x00000000
       21615000	      2160	80002a34	fe1ff0ef	jal	x1,80002a34	  x1=0x80002a34
       21625000	      2161	00000000	00000013	addi	x0,x0,0	  x0:0x00000000
       21635000	      2162	80002a10	00000013	addi	x0,x0,0	  x0:0x00000000
       21645000	      2163	80002a14	030000ef	jal	x1,80002a14	  x1=0x80002a14
       21655000	      2164	00000000	00000013	addi	x0,x0,0	  x0:0x00000000
       21665000	      2165	80002a40	00000013	addi	x0,x0,0	  x0:0x00000000
       21675000	      2166	80002a44	008000ef	jal	x1,80002a44	  x1=0x80002a44
       21685000	      2167	00000000	00000013	addi	x0,x0,0	  x0:0x00000000
       21695000	      2168	80002a48	00000013	addi	x0,x0,0	  x0:0x00000000
       21705000	      2169	80002a4c	fd9ff0ef	jal	x1,80002a4c	  x1=0x80002a4c
       21715000	      2170	00000000	00000013	addi	x0,x0,0	  x0:0x00000000
       21725000	      2171	80002a20	00000013	addi	x0,x0,0	  x0:0x00000000
       21735000	      2172	80002a24	01c00d6f	jal	x26,80002a24	 x26=0x80002a24
       21745000	      2173	00000000	00000013	addi	x0,x0,0	  x0:0x00000000
       21755000	      2174	80002a3c	00000013	addi	x0,x0,0	  x0:0x00000000
       21765000	      2175	80002a40	02800d6f	jal	x26,80002a40	 x26=0x80002a40
       21775000	      2176	00000000	00000013	addi	x0,x0,0	  x0:0x00000000
       21785000	      2177	80002a64	00000013	addi	x0,x0,0	  x0:0x00000000
       21795000	      2178	80002a68	00000013	addi	x0,x0,0	  x0:0x00000000
       21805000	      2179	80002a6c	050000ef	jal	x1,80002a6c	  x1=0x80002a6c
       21815000	      2180	00000000	00000013	addi	x0,x0,0	  x0:0x00000000
       21825000	      2181	80002ab8	00000013	addi	x0,x0,0	  x0:0x00000000
       21835000	      2182	80002abc	ff5ff56f	jal	x10,80002abc	 x10=0x80002abc
       21845000	      2183	00000000	00000013	addi	x0,x0,0	  x0:0x00000000
       21855000	      2184	80002aac	00000013	addi	x0,x0,0	  x0:0x00000000
       21865000	      2185	80002ab0	010000ef	jal	x1,80002ab0	  x1=0x80002ab0
       21875000	      2186	00000000	00000013	addi	x0,x0,0	  x0:0x00000000
       21885000	      2187	80002abc	00000013	addi	x0,x0,0	  x0:0x00000000
       21895000	      2188	80002ac0	fb9ff0ef	jal	x1,80002ac0	  x1=0x80002ac0
       21905000	      2189	00000000	00000013	addi	x0,x0,0	  x0:0x00000000
       21915000	      2190	80002a74	00000013	addi	x0,x0,0	  x0:0x00000000
       21925000	      2191	80002a78	00c00c6f	jal	x24,80002a78	 x24=0x80002a78
       21935000	      2192	00000000	00000013	addi	x0,x0,0	  x0:0x00000000
       21945000	      2193	80002a80	00000013	addi	x0,x0,0	  x0:0x00000000
       21955000	      2194	80002a84	ff1ff0ef	jal	x1,80002a84	  x1=0x80002a84
       21965000	      2195	00000000	00000013	addi	x0,x0,0	  x0:0x00000000
       21975000	      2196	80002a70	00000013	addi	x0,x0,0	  x0:0x00000000
       21985000	      2197	80002a74	060007ef	jal	x15,80002a74	 x15=0x80002a74
       21995000	      2198	00000000	00000013	addi	x0,x0,0	  x0:0x00000000
       22005000	      2199	80002ad0	00000013	addi	x0,x0,0	  x0:0x00000000
       22015000	      2200	80002ad4	fe5ff36f	jal	x6,80002ad4	  x6=0x80002ad4
       22025000	      2201	00000000	00000013	addi	x0,x0,0	  x0:0x00000000
       22035000	      2202	80002ab4	00000013	addi	x0,x0,0	  x0:0x00000000
       22045000	      2203	80002ab8	fddff9ef	jal	x19,80002ab8	 x19=0x80002ab8
       22055000	      2204	00000000	00000013	addi	x0,x0,0	  x0:0x00000000
       22065000	      2205	80002a90	00000013	addi	x0,x0,0	  x0:0x00000000
       22075000	      2206	80002a94	fedff16f	jal	x2,80002a94	  x2=0x80002a94
       22085000	      2207	00000000	00000013	addi	x0,x0,0	  x0:0x00000000
       22095000	      2208	80002a7c	00000013	addi	x0,x0,0	  x0:0x00000000
       22105000	      2209	80002a80	020000ef	jal	x1,80002a80	  x1=0x80002a80
       22115000	      2210	00000000	00000013	addi	x0,x0,0	  x0:0x00000000
       22125000	      2211	80002a9c	00000013	addi	x0,x0,0	  x0:0x00000000
       22135000	      2212	80002aa0	fe9ff0ef	jal	x1,80002aa0	  x1=0x80002aa0
       22145000	      2213	00000000	00000013	addi	x0,x0,0	  x0:0x00000000
       22155000	      2214	80002a84	00000013	addi	x0,x0,0	  x0:0x00000000
       22165000	      2215	80002a88	024000ef	jal	x1,80002a88	  x1=0x80002a88
       22175000	      2216	00000000	00000013	addi	x0,x0,0	  x0:0x00000000
       22185000	      2217	80002aa8	00000013	addi	x0,x0,0	  x0:0x00000000
       22195000	      2218	80002aac	fedff36f	jal	x6,80002aac	  x6=0x80002aac
       22205000	      2219	00000000	00000013	addi	x0,x0,0	  x0:0x00000000
       22215000	      2220	80002a94	00000013	addi	x0,x0,0	  x0:0x00000000
       22225000	      2221	80002a98	ff9ff36f	jal	x6,80002a98	  x6=0x80002a98
       22235000	      2222	00000000	00000013	addi	x0,x0,0	  x0:0x00000000
       22245000	      2223	80002a8c	00000013	addi	x0,x0,0	  x0:0x00000000
       22255000	      2224	80002a90	00c000ef	jal	x1,80002a90	  x1=0x80002a90
       22265000	      2225	00000000	00000013	addi	x0,x0,0	  x0:0x00000000
       22275000	      2226	80002a98	00000013	addi	x0,x0,0	  x0:0x00000000
       22285000	      2227	80002a9c	00c007ef	jal	x15,80002a9c	 x15=0x80002a9c
       22295000	      2228	00000000	00000013	addi	x0,x0,0	  x0:0x00000000
       22305000	      2229	80002aa4	00000013	addi	x0,x0,0	  x0:0x00000000
       22315000	      2230	80002aa8	030001ef	jal	x3,80002aa8	  x3=0x80002aa8
       22325000	      2231	00000000	00000013	addi	x0,x0,0	  x0:0x00000000
       22335000	      2232	80002ad4	00000013	addi	x0,x0,0	  x0:0x00000000
       22345000	      2233	80002ad8	f99ff0ef	jal	x1,80002ad8	  x1=0x80002ad8
       22355000	      2234	00000000	00000013	addi	x0,x0,0	  x0:0x00000000
       22365000	      2235	80002a6c	00000013	addi	x0,x0,0	  x0:0x00000000
       22375000	      2236	80002a70	06c0036f	jal	x6,80002a70	  x6=0x80002a70
       22385000	      2237	00000000	00000013	addi	x0,x0,0	  x0:0x00000000
       22395000	      2238	80002ad8	00000013	addi	x0,x0,0	  x0:0x00000000
       22405000	      2239	80002adc	fa1ff66f	jal	x12,80002adc	 x12=0x80002adc
       22415000	      2240	00000000	00000013	addi	x0,x0,0	  x0:0x00000000
       22425000	      2241	80002a78	00000013	addi	x0,x0,0	  x0:0x00000000
       22435000	      2242	80002a7c	04c000ef	jal	x1,80002a7c	  x1=0x80002a7c
       22445000	      2243	00000000	00000013	addi	x0,x0,0	  x0:0x00000000
       22455000	      2244	80002ac4	00000013	addi	x0,x0,0	  x0:0x00000000
       22465000	      2245	80002ac8	0040036f	jal	x6,80002ac8	  x6=0x80002ac8
       22475000	      2246	00000000	00000013	addi	x0,x0,0	  x0:0x00000000
       22485000	      2247	80002ac8	00000013	addi	x0,x0,0	  x0:0x00000000
       22495000	      2248	80002acc	004000ef	jal	x1,80002acc	  x1=0x80002acc
       22505000	      2249	00000000	00000013	addi	x0,x0,0	  x0:0x00000000
       22515000	      2250	80002acc	00000013	addi	x0,x0,0	  x0:0x00000000
       22525000	      2251	80002ad0	fe5ff1ef	jal	x3,80002ad0	  x3=0x80002ad0
       22535000	      2252	00000000	00000013	addi	x0,x0,0	  x0:0x00000000
       22545000	      2253	80002ab0	00000013	addi	x0,x0,0	  x0:0x00000000
       22555000	      2254	80002ab4	010000ef	jal	x1,80002ab4	  x1=0x80002ab4
       22565000	      2255	00000000	00000013	addi	x0,x0,0	  x0:0x00000000
       22575000	      2256	80002ac0	00000013	addi	x0,x0,0	  x0:0x00000000
       22585000	      2257	80002ac4	fe1ff36f	jal	x6,80002ac4	  x6=0x80002ac4
       22595000	      2258	00000000	00000013	addi	x0,x0,0	  x0:0x00000000
       22605000	      2259	80002aa0	00000013	addi	x0,x0,0	  x0:0x00000000
       22615000	      2260	80002aa4	fe9ff56f	jal	x10,80002aa4	 x10=0x80002aa4
       22625000	      2261	00000000	00000013	addi	x0,x0,0	  x0:0x00000000
       22635000	      2262	80002a88	00000013	addi	x0,x0,0	  x0:0x00000000
       22645000	      2263	80002a8c	05400c6f	jal	x24,80002a8c	 x24=0x80002a8c
       22655000	      2264	00000000	00000013	addi	x0,x0,0	  x0:0x00000000
       22665000	      2265	80002adc	00000013	addi	x0,x0,0	  x0:0x00000000
       22675000	      2266	80002ae0	018c34b3	sltu	x9,x24,x24	 x24:0x80002a8c x24:0x80002a8c  x9=0x00000000
       22685000	      2267	80002ae4	038000ef	jal	x1,80002ae4	  x1=0x80002ae4
       22695000	      2268	00000000	00000013	addi	x0,x0,0	  x0:0x00000000
       22705000	      2269	80002b18	00000013	addi	x0,x0,0	  x0:0x00000000
       22715000	      2270	80002b1c	0140026f	jal	x4,80002b1c	  x4=0x80002b1c
       22725000	      2271	00000000	00000013	addi	x0,x0,0	  x0:0x00000000
       22735000	      2272	80002b2c	00000013	addi	x0,x0,0	  x0:0x00000000
       22745000	      2273	80002b30	fc9ffc6f	jal	x24,80002b30	 x24=0x80002b30
       22755000	      2274	00000000	00000013	addi	x0,x0,0	  x0:0x00000000
       22765000	      2275	80002af4	00000013	addi	x0,x0,0	  x0:0x00000000
       22775000	      2276	80002af8	010000ef	jal	x1,80002af8	  x1=0x80002af8
       22785000	      2277	00000000	00000013	addi	x0,x0,0	  x0:0x00000000
       22795000	      2278	80002b04	00000013	addi	x0,x0,0	  x0:0x00000000
       22805000	      2279	80002b08	02c000ef	jal	x1,80002b08	  x1=0x80002b08
       22815000	      2280	00000000	00000013	addi	x0,x0,0	  x0:0x00000000
       22825000	      2281	80002b30	00000013	addi	x0,x0,0	  x0:0x00000000
       22835000	      2282	80002b34	ff5ff0ef	jal	x1,80002b34	  x1=0x80002b34
       22845000	      2283	00000000	00000013	addi	x0,x0,0	  x0:0x00000000
       22855000	      2284	80002b24	00000013	addi	x0,x0,0	  x0:0x00000000
       22865000	      2285	80002b28	fe5ff0ef	jal	x1,80002b28	  x1=0x80002b28
       22875000	      2286	00000000	00000013	addi	x0,x0,0	  x0:0x00000000
       22885000	      2287	80002b08	00000013	addi	x0,x0,0	  x0:0x00000000
       22895000	      2288	80002b0c	00c0036f	jal	x6,80002b0c	  x6=0x80002b0c
       22905000	      2289	00000000	00000013	addi	x0,x0,0	  x0:0x00000000
       22915000	      2290	80002b14	00000013	addi	x0,x0,0	  x0:0x00000000
       22925000	      2291	80002b18	014000ef	jal	x1,80002b18	  x1=0x80002b18
       22935000	      2292	00000000	00000013	addi	x0,x0,0	  x0:0x00000000
       22945000	      2293	80002b28	00000013	addi	x0,x0,0	  x0:0x00000000
       22955000	      2294	80002b2c	ff9ffaef	jal	x21,80002b2c	 x21=0x80002b2c
       22965000	      2295	00000000	00000013	addi	x0,x0,0	  x0:0x00000000
       22975000	      2296	80002b20	00000013	addi	x0,x0,0	  x0:0x00000000
       22985000	      2297	80002b24	fddffaef	jal	x21,80002b24	 x21=0x80002b24
       22995000	      2298	00000000	00000013	addi	x0,x0,0	  x0:0x00000000
       23005000	      2299	80002afc	00000013	addi	x0,x0,0	  x0:0x00000000
       23015000	      2300	80002b00	ff1ff36f	jal	x6,80002b00	  x6=0x80002b00
       23025000	      2301	00000000	00000013	addi	x0,x0,0	  x0:0x00000000
       23035000	      2302	80002aec	00000013	addi	x0,x0,0	  x0:0x00000000
       23045000	      2303	80002af0	0140036f	jal	x6,80002af0	  x6=0x80002af0
       23055000	      2304	00000000	00000013	addi	x0,x0,0	  x0:0x00000000
       23065000	      2305	80002b00	00000013	addi	x0,x0,0	  x0:0x00000000
       23075000	      2306	80002b04	010000ef	jal	x1,80002b04	  x1=0x80002b04
       23085000	      2307	00000000	00000013	addi	x0,x0,0	  x0:0x00000000
       23095000	      2308	80002b10	00000013	addi	x0,x0,0	  x0:0x00000000
       23105000	      2309	80002b14	fd9ff9ef	jal	x19,80002b14	 x19=0x80002b14
       23115000	      2310	00000000	00000013	addi	x0,x0,0	  x0:0x00000000
       23125000	      2311	80002ae8	00000013	addi	x0,x0,0	  x0:0x00000000
       23135000	      2312	80002aec	03400d6f	jal	x26,80002aec	 x26=0x80002aec
       23145000	      2313	00000000	00000013	addi	x0,x0,0	  x0:0x00000000
       23155000	      2314	80002b1c	00000013	addi	x0,x0,0	  x0:0x00000000
       23165000	      2315	80002b20	fddff0ef	jal	x1,80002b20	  x1=0x80002b20
       23175000	      2316	00000000	00000013	addi	x0,x0,0	  x0:0x00000000
       23185000	      2317	80002af8	00000013	addi	x0,x0,0	  x0:0x00000000
       23195000	      2318	80002afc	fedff0ef	jal	x1,80002afc	  x1=0x80002afc
       23205000	      2319	00000000	00000013	addi	x0,x0,0	  x0:0x00000000
       23215000	      2320	80002ae4	00000013	addi	x0,x0,0	  x0:0x00000000
       23225000	      2321	80002ae8	028000ef	jal	x1,80002ae8	  x1=0x80002ae8
       23235000	      2322	00000000	00000013	addi	x0,x0,0	  x0:0x00000000
       23245000	      2323	80002b0c	00000013	addi	x0,x0,0	  x0:0x00000000
       23255000	      2324	80002b10	fe5ff0ef	jal	x1,80002b10	  x1=0x80002b10
       23265000	      2325	00000000	00000013	addi	x0,x0,0	  x0:0x00000000
       23275000	      2326	80002af0	00000013	addi	x0,x0,0	  x0:0x00000000
       23285000	      2327	80002af4	0440036f	jal	x6,80002af4	  x6=0x80002af4
       23295000	      2328	00000000	00000013	addi	x0,x0,0	  x0:0x00000000
       23305000	      2329	80002b34	00000013	addi	x0,x0,0	  x0:0x00000000
       23315000	      2330	80002b38	97f4e493	ori	x9,x9,-1665	  x9:0x00000000  x9=0xfffff97f
       23325000	      2331	80002b3c	014000ef	jal	x1,80002b3c	  x1=0x80002b3c
       23335000	      2332	00000000	00000013	addi	x0,x0,0	  x0:0x00000000
       23345000	      2333	80002b4c	00000013	addi	x0,x0,0	  x0:0x00000000
       23355000	      2334	80002b50	030005ef	jal	x11,80002b50	 x11=0x80002b50
       23365000	      2335	00000000	00000013	addi	x0,x0,0	  x0:0x00000000
       23375000	      2336	80002b7c	00000013	addi	x0,x0,0	  x0:0x00000000
       23385000	      2337	80002b80	fcdff36f	jal	x6,80002b80	  x6=0x80002b80
       23395000	      2338	00000000	00000013	addi	x0,x0,0	  x0:0x00000000
       23405000	      2339	80002b48	00000013	addi	x0,x0,0	  x0:0x00000000
       23415000	      2340	80002b4c	014000ef	jal	x1,80002b4c	  x1=0x80002b4c
       23425000	      2341	00000000	00000013	addi	x0,x0,0	  x0:0x00000000
       23435000	      2342	80002b5c	00000013	addi	x0,x0,0	  x0:0x00000000
       23445000	      2343	80002b60	0180036f	jal	x6,80002b60	  x6=0x80002b60
       23455000	      2344	00000000	00000013	addi	x0,x0,0	  x0:0x00000000
       23465000	      2345	80002b74	00000013	addi	x0,x0,0	  x0:0x00000000
       23475000	      2346	80002b78	fc9ff0ef	jal	x1,80002b78	  x1=0x80002b78
       23485000	      2347	00000000	00000013	addi	x0,x0,0	  x0:0x00000000
       23495000	      2348	80002b3c	00000013	addi	x0,x0,0	  x0:0x00000000
       23505000	      2349	80002b40	050001ef	jal	x3,80002b40	  x3=0x80002b40
       23515000	      2350	00000000	00000013	addi	x0,x0,0	  x0:0x00000000
       23525000	      2351	80002b8c	00000013	addi	x0,x0,0	  x0:0x00000000
       23535000	      2352	80002b90	0080036f	jal	x6,80002b90	  x6=0x80002b90
       23545000	      2353	00000000	00000013	addi	x0,x0,0	  x0:0x00000000
       23555000	      2354	80002b94	00000013	addi	x0,x0,0	  x0:0x00000000
       23565000	      2355	80002b98	ff5ff8ef	jal	x17,80002b98	 x17=0x80002b98
       23575000	      2356	00000000	00000013	addi	x0,x0,0	  x0:0x00000000
       23585000	      2357	80002b88	00000013	addi	x0,x0,0	  x0:0x00000000
       23595000	      2358	80002b8c	ffdff0ef	jal	x1,80002b8c	  x1=0x80002b8c
       23605000	      2359	00000000	00000013	addi	x0,x0,0	  x0:0x00000000
       23615000	      2360	80002b84	00000013	addi	x0,x0,0	  x0:0x00000000
       23625000	      2361	80002b88	fd1ff2ef	jal	x5,80002b88	  x5=0x80002b88
       23635000	      2362	00000000	00000013	addi	x0,x0,0	  x0:0x00000000
       23645000	      2363	80002b54	00000013	addi	x0,x0,0	  x0:0x00000000
       23655000	      2364	80002b58	fedff1ef	jal	x3,80002b58	  x3=0x80002b58
       23665000	      2365	00000000	00000013	addi	x0,x0,0	  x0:0x00000000
       23675000	      2366	80002b40	00000013	addi	x0,x0,0	  x0:0x00000000
       23685000	      2367	80002b44	050000ef	jal	x1,80002b44	  x1=0x80002b44
       23695000	      2368	00000000	00000013	addi	x0,x0,0	  x0:0x00000000
       23705000	      2369	80002b90	00000013	addi	x0,x0,0	  x0:0x00000000
       23715000	      2370	80002b94	fd9ff0ef	jal	x1,80002b94	  x1=0x80002b94
       23725000	      2371	00000000	00000013	addi	x0,x0,0	  x0:0x00000000
       23735000	      2372	80002b68	00000013	addi	x0,x0,0	  x0:0x00000000
       23745000	      2373	80002b6c	010000ef	jal	x1,80002b6c	  x1=0x80002b6c
       23755000	      2374	00000000	00000013	addi	x0,x0,0	  x0:0x00000000
       23765000	      2375	80002b78	00000013	addi	x0,x0,0	  x0:0x00000000
       23775000	      2376	80002b7c	ff5ff36f	jal	x6,80002b7c	  x6=0x80002b7c
       23785000	      2377	00000000	00000013	addi	x0,x0,0	  x0:0x00000000
       23795000	      2378	80002b6c	00000013	addi	x0,x0,0	  x0:0x00000000
       23805000	      2379	80002b70	fe5ff26f	jal	x4,80002b70	  x4=0x80002b70
       23815000	      2380	00000000	00000013	addi	x0,x0,0	  x0:0x00000000
       23825000	      2381	80002b50	00000013	addi	x0,x0,0	  x0:0x00000000
       23835000	      2382	80002b54	03000b6f	jal	x22,80002b54	 x22=0x80002b54
       23845000	      2383	00000000	00000013	addi	x0,x0,0	  x0:0x00000000
       23855000	      2384	80002b80	00000013	addi	x0,x0,0	  x0:0x00000000
       23865000	      2385	80002b84	fd9ff0ef	jal	x1,80002b84	  x1=0x80002b84
       23875000	      2386	00000000	00000013	addi	x0,x0,0	  x0:0x00000000
       23885000	      2387	80002b58	00000013	addi	x0,x0,0	  x0:0x00000000
       23895000	      2388	80002b5c	0080036f	jal	x6,80002b5c	  x6=0x80002b5c
       23905000	      2389	00000000	00000013	addi	x0,x0,0	  x0:0x00000000
       23915000	      2390	80002b60	00000013	addi	x0,x0,0	  x0:0x00000000
       23925000	      2391	80002b64	01000d6f	jal	x26,80002b64	 x26=0x80002b64
       23935000	      2392	00000000	00000013	addi	x0,x0,0	  x0:0x00000000
       23945000	      2393	80002b70	00000013	addi	x0,x0,0	  x0:0x00000000
       23955000	      2394	80002b74	ff5ff0ef	jal	x1,80002b74	  x1=0x80002b74
       23965000	      2395	00000000	00000013	addi	x0,x0,0	  x0:0x00000000
       23975000	      2396	80002b64	00000013	addi	x0,x0,0	  x0:0x00000000
       23985000	      2397	80002b68	fe1ff36f	jal	x6,80002b68	  x6=0x80002b68
       23995000	      2398	00000000	00000013	addi	x0,x0,0	  x0:0x00000000
       24005000	      2399	80002b44	00000013	addi	x0,x0,0	  x0:0x00000000
       24015000	      2400	80002b48	054001ef	jal	x3,80002b48	  x3=0x80002b48
       24025000	      2401	00000000	00000013	addi	x0,x0,0	  x0:0x00000000
       24035000	      2402	80002b98	00000013	addi	x0,x0,0	  x0:0x00000000
       24045000	      2403	80002b9c	018498b3	sll	x17,x9,x24	  x9:0xfffff97f x24:0x80002b30 x17=0xf97f0000
       24055000	      2404	80002ba0	01c000ef	jal	x1,80002ba0	  x1=0x80002ba0
       24065000	      2405	00000000	00000013	addi	x0,x0,0	  x0:0x00000000
       24075000	      2406	80002bb8	00000013	addi	x0,x0,0	  x0:0x00000000
       24085000	      2407	80002bbc	ff1ff0ef	jal	x1,80002bbc	  x1=0x80002bbc
       24095000	      2408	00000000	00000013	addi	x0,x0,0	  x0:0x00000000
       24105000	      2409	80002ba8	00000013	addi	x0,x0,0	  x0:0x00000000
       24115000	      2410	80002bac	0040086f	jal	x16,80002bac	 x16=0x80002bac
       24125000	      2411	00000000	00000013	addi	x0,x0,0	  x0:0x00000000
       24135000	      2412	80002bac	00000013	addi	x0,x0,0	  x0:0x00000000
       24145000	      2413	80002bb0	0280036f	jal	x6,80002bb0	  x6=0x80002bb0
       24155000	      2414	00000000	00000013	addi	x0,x0,0	  x0:0x00000000
       24165000	      2415	80002bd4	00000013	addi	x0,x0,0	  x0:0x00000000
       24175000	      2416	80002bd8	fe1ff0ef	jal	x1,80002bd8	  x1=0x80002bd8
       24185000	      2417	00000000	00000013	addi	x0,x0,0	  x0:0x00000000
       24195000	      2418	80002bb4	00000013	addi	x0,x0,0	  x0:0x00000000
       24205000	      2419	80002bb8	0180036f	jal	x6,80002bb8	  x6=0x80002bb8
       24215000	      2420	00000000	00000013	addi	x0,x0,0	  x0:0x00000000
       24225000	      2421	80002bcc	00000013	addi	x0,x0,0	  x0:0x00000000
       24235000	      2422	80002bd0	fd5ff36f	jal	x6,80002bd0	  x6=0x80002bd0
       24245000	      2423	00000000	00000013	addi	x0,x0,0	  x0:0x00000000
       24255000	      2424	80002ba0	00000013	addi	x0,x0,0	  x0:0x00000000
       24265000	      2425	80002ba4	01c000ef	jal	x1,80002ba4	  x1=0x80002ba4
       24275000	      2426	00000000	00000013	addi	x0,x0,0	  x0:0x00000000
       24285000	      2427	80002bbc	00000013	addi	x0,x0,0	  x0:0x00000000
       24295000	      2428	80002bc0	00c0036f	jal	x6,80002bc0	  x6=0x80002bc0
       24305000	      2429	00000000	00000013	addi	x0,x0,0	  x0:0x00000000
       24315000	      2430	80002bc8	00000013	addi	x0,x0,0	  x0:0x00000000
       24325000	      2431	80002bcc	010000ef	jal	x1,80002bcc	  x1=0x80002bcc
       24335000	      2432	00000000	00000013	addi	x0,x0,0	  x0:0x00000000
       24345000	      2433	80002bd8	00000013	addi	x0,x0,0	  x0:0x00000000
       24355000	      2434	80002bdc	fe9ff36f	jal	x6,80002bdc	  x6=0x80002bdc
       24365000	      2435	00000000	00000013	addi	x0,x0,0	  x0:0x00000000
       24375000	      2436	80002bc0	00000013	addi	x0,x0,0	  x0:0x00000000
       24385000	      2437	80002bc4	010002ef	jal	x5,80002bc4	  x5=0x80002bc4
       24395000	      2438	00000000	00000013	addi	x0,x0,0	  x0:0x00000000
       24405000	      2439	80002bd0	00000013	addi	x0,x0,0	  x0:0x00000000
       24415000	      2440	80002bd4	ff5ff0ef	jal	x1,80002bd4	  x1=0x80002bd4
       24425000	      2441	00000000	00000013	addi	x0,x0,0	  x0:0x00000000
       24435000	      2442	80002bc4	00000013	addi	x0,x0,0	  x0:0x00000000
       24445000	      2443	80002bc8	fe1ff0ef	jal	x1,80002bc8	  x1=0x80002bc8
       24455000	      2444	00000000	00000013	addi	x0,x0,0	  x0:0x00000000
       24465000	      2445	80002ba4	00000013	addi	x0,x0,0	  x0:0x00000000
       24475000	      2446	80002ba8	00c0026f	jal	x4,80002ba8	  x4=0x80002ba8
       24485000	      2447	00000000	00000013	addi	x0,x0,0	  x0:0x00000000
       24495000	      2448	80002bb0	00000013	addi	x0,x0,0	  x0:0x00000000
       24505000	      2449	80002bb4	02c000ef	jal	x1,80002bb4	  x1=0x80002bb4
       24515000	      2450	00000000	00000013	addi	x0,x0,0	  x0:0x00000000
       24525000	      2451	80002bdc	00000013	addi	x0,x0,0	  x0:0x00000000
       24535000	      2452	80002be0	00192833	slt	x16,x18,x1	 x18:0x80009fc4  x1:0x80002bb4 x16=0x00000000
       24545000	      2453	80002be4	01c000ef	jal	x1,80002be4	  x1=0x80002be4
       24555000	      2454	00000000	00000013	addi	x0,x0,0	  x0:0x00000000
       24565000	      2455	80002bfc	00000013	addi	x0,x0,0	  x0:0x00000000
       24575000	      2456	80002c00	0080036f	jal	x6,80002c00	  x6=0x80002c00
       24585000	      2457	00000000	00000013	addi	x0,x0,0	  x0:0x00000000
       24595000	      2458	80002c04	00000013	addi	x0,x0,0	  x0:0x00000000
       24605000	      2459	80002c08	fe5ff36f	jal	x6,80002c08	  x6=0x80002c08
       24615000	      2460	00000000	00000013	addi	x0,x0,0	  x0:0x00000000
       24625000	      2461	80002be8	00000013	addi	x0,x0,0	  x0:0x00000000
       24635000	      2462	80002bec	ffdff0ef	jal	x1,80002bec	  x1=0x80002bec
       24645000	      2463	00000000	00000013	addi	x0,x0,0	  x0:0x00000000
       24655000	      2464	80002be4	00000013	addi	x0,x0,0	  x0:0x00000000
       24665000	      2465	80002be8	01c000ef	jal	x1,80002be8	  x1=0x80002be8
       24675000	      2466	00000000	00000013	addi	x0,x0,0	  x0:0x00000000
       24685000	      2467	80002c00	00000013	addi	x0,x0,0	  x0:0x00000000
       24695000	      2468	80002c04	010000ef	jal	x1,80002c04	  x1=0x80002c04
       24705000	      2469	00000000	00000013	addi	x0,x0,0	  x0:0x00000000
       24715000	      2470	80002c10	00000013	addi	x0,x0,0	  x0:0x00000000
       24725000	      2471	80002c14	fe1ff0ef	jal	x1,80002c14	  x1=0x80002c14
       24735000	      2472	00000000	00000013	addi	x0,x0,0	  x0:0x00000000
       24745000	      2473	80002bf0	00000013	addi	x0,x0,0	  x0:0x00000000
       24755000	      2474	80002bf4	008009ef	jal	x19,80002bf4	 x19=0x80002bf4
       24765000	      2475	00000000	00000013	addi	x0,x0,0	  x0:0x00000000
       24775000	      2476	80002bf8	00000013	addi	x0,x0,0	  x0:0x00000000
       24785000	      2477	80002bfc	014000ef	jal	x1,80002bfc	  x1=0x80002bfc
       24795000	      2478	00000000	00000013	addi	x0,x0,0	  x0:0x00000000
       24805000	      2479	80002c0c	00000013	addi	x0,x0,0	  x0:0x00000000
       24815000	      2480	80002c10	fe9ff0ef	jal	x1,80002c10	  x1=0x80002c10
       24825000	      2481	00000000	00000013	addi	x0,x0,0	  x0:0x00000000
       24835000	      2482	80002bf4	00000013	addi	x0,x0,0	  x0:0x00000000
       24845000	      2483	80002bf8	014008ef	jal	x17,80002bf8	 x17=0x80002bf8
       24855000	      2484	00000000	00000013	addi	x0,x0,0	  x0:0x00000000
       24865000	      2485	80002c08	00000013	addi	x0,x0,0	  x0:0x00000000
       24875000	      2486	80002c0c	fe5ff0ef	jal	x1,80002c0c	  x1=0x80002c0c
       24885000	      2487	00000000	00000013	addi	x0,x0,0	  x0:0x00000000
       24895000	      2488	80002bec	00000013	addi	x0,x0,0	  x0:0x00000000
       24905000	      2489	80002bf0	0280036f	jal	x6,80002bf0	  x6=0x80002bf0
       24915000	      2490	00000000	00000013	addi	x0,x0,0	  x0:0x00000000
       24925000	      2491	80002c14	00000013	addi	x0,x0,0	  x0:0x00000000
       24935000	      2492	80002c18	bd0cec13	ori	x24,x25,-1072	 x25:0x80002910 x24=0xfffffbd0
       24945000	      2493	80002c1c	044000ef	jal	x1,80002c1c	  x1=0x80002c1c
       24955000	      2494	00000000	00000013	addi	x0,x0,0	  x0:0x00000000
       24965000	      2495	80002c5c	00000013	addi	x0,x0,0	  x0:0x00000000
       24975000	      2496	80002c60	fe1ff0ef	jal	x1,80002c60	  x1=0x80002c60
       24985000	      2497	00000000	00000013	addi	x0,x0,0	  x0:0x00000000
       24995000	      2498	80002c3c	00000013	addi	x0,x0,0	  x0:0x00000000
       25005000	      2499	80002c40	024002ef	jal	x5,80002c40	  x5=0x80002c40
       25015000	      2500	00000000	00000013	addi	x0,x0,0	  x0:0x00000000
       25025000	      2501	80002c60	00000013	addi	x0,x0,0	  x0:0x00000000
       25035000	      2502	80002c64	01c000ef	jal	x1,80002c64	  x1=0x80002c64
       25045000	      2503	00000000	00000013	addi	x0,x0,0	  x0:0x00000000
       25055000	      2504	80002c7c	00000013	addi	x0,x0,0	  x0:0x00000000
       25065000	      2505	80002c80	fddff16f	jal	x2,80002c80	  x2=0x80002c80
       25075000	      2506	00000000	00000013	addi	x0,x0,0	  x0:0x00000000
       25085000	      2507	80002c58	00000013	addi	x0,x0,0	  x0:0x00000000
       25095000	      2508	80002c5c	ff1ff5ef	jal	x11,80002c5c	 x11=0x80002c5c
       25105000	      2509	00000000	00000013	addi	x0,x0,0	  x0:0x00000000
       25115000	      2510	80002c48	00000013	addi	x0,x0,0	  x0:0x00000000
       25125000	      2511	80002c4c	ff1ff0ef	jal	x1,80002c4c	  x1=0x80002c4c
       25135000	      2512	00000000	00000013	addi	x0,x0,0	  x0:0x00000000
       25145000	      2513	80002c38	00000013	addi	x0,x0,0	  x0:0x00000000
       25155000	      2514	80002c3c	034000ef	jal	x1,80002c3c	  x1=0x80002c3c
       25165000	      2515	00000000	00000013	addi	x0,x0,0	  x0:0x00000000
       25175000	      2516	80002c6c	00000013	addi	x0,x0,0	  x0:0x00000000
       25185000	      2517	80002c70	fb5ff0ef	jal	x1,80002c70	  x1=0x80002c70
       25195000	      2518	00000000	00000013	addi	x0,x0,0	  x0:0x00000000
       25205000	      2519	80002c20	00000013	addi	x0,x0,0	  x0:0x00000000
       25215000	      2520	80002c24	01000bef	jal	x23,80002c24	 x23=0x80002c24
       25225000	      2521	00000000	00000013	addi	x0,x0,0	  x0:0x00000000
       25235000	      2522	80002c30	00000013	addi	x0,x0,0	  x0:0x00000000
       25245000	      2523	80002c34	01c000ef	jal	x1,80002c34	  x1=0x80002c34
       25255000	      2524	00000000	00000013	addi	x0,x0,0	  x0:0x00000000
       25265000	      2525	80002c4c	00000013	addi	x0,x0,0	  x0:0x00000000
       25275000	      2526	80002c50	0080036f	jal	x6,80002c50	  x6=0x80002c50
       25285000	      2527	00000000	00000013	addi	x0,x0,0	  x0:0x00000000
       25295000	      2528	80002c54	00000013	addi	x0,x0,0	  x0:0x00000000
       25305000	      2529	80002c58	fe1ff36f	jal	x6,80002c58	  x6=0x80002c58
       25315000	      2530	00000000	00000013	addi	x0,x0,0	  x0:0x00000000
       25325000	      2531	80002c34	00000013	addi	x0,x0,0	  x0:0x00000000
       25335000	      2532	80002c38	00c0076f	jal	x14,80002c38	 x14=0x80002c38
       25345000	      2533	00000000	00000013	addi	x0,x0,0	  x0:0x00000000
       25355000	      2534	80002c40	00000013	addi	x0,x0,0	  x0:0x00000000
       25365000	      2535	80002c44	038000ef	jal	x1,80002c44	  x1=0x80002c44
       25375000	      2536	00000000	00000013	addi	x0,x0,0	  x0:0x00000000
       25385000	      2537	80002c78	00000013	addi	x0,x0,0	  x0:0x00000000
       25395000	      2538	80002c7c	fcdffb6f	jal	x22,80002c7c	 x22=0x80002c7c
       25405000	      2539	00000000	00000013	addi	x0,x0,0	  x0:0x00000000
       25415000	      2540	80002c44	00000013	addi	x0,x0,0	  x0:0x00000000
       25425000	      2541	80002c48	024000ef	jal	x1,80002c48	  x1=0x80002c48
       25435000	      2542	00000000	00000013	addi	x0,x0,0	  x0:0x00000000
       25445000	      2543	80002c68	00000013	addi	x0,x0,0	  x0:0x00000000
       25455000	      2544	80002c6c	fe9ffbef	jal	x23,80002c6c	 x23=0x80002c6c
       25465000	      2545	00000000	00000013	addi	x0,x0,0	  x0:0x00000000
       25475000	      2546	80002c50	00000013	addi	x0,x0,0	  x0:0x00000000
       25485000	      2547	80002c54	fd5ff0ef	jal	x1,80002c54	  x1=0x80002c54
       25495000	      2548	00000000	00000013	addi	x0,x0,0	  x0:0x00000000
       25505000	      2549	80002c24	00000013	addi	x0,x0,0	  x0:0x00000000
       25515000	      2550	80002c28	050000ef	jal	x1,80002c28	  x1=0x80002c28
       25525000	      2551	00000000	00000013	addi	x0,x0,0	  x0:0x00000000
       25535000	      2552	80002c74	00000013	addi	x0,x0,0	  x0:0x00000000
       25545000	      2553	80002c78	fb9ff26f	jal	x4,80002c78	  x4=0x80002c78
       25555000	      2554	00000000	00000013	addi	x0,x0,0	  x0:0x00000000
       25565000	      2555	80002c2c	00000013	addi	x0,x0,0	  x0:0x00000000
       25575000	      2556	80002c30	ff1ff0ef	jal	x1,80002c30	  x1=0x80002c30
       25585000	      2557	00000000	00000013	addi	x0,x0,0	  x0:0x00000000
       25595000	      2558	80002c1c	00000013	addi	x0,x0,0	  x0:0x00000000
       25605000	      2559	80002c20	0480036f	jal	x6,80002c20	  x6=0x80002c20
       25615000	      2560	00000000	00000013	addi	x0,x0,0	  x0:0x00000000
       25625000	      2561	80002c64	00000013	addi	x0,x0,0	  x0:0x00000000
       25635000	      2562	80002c68	fc5ff16f	jal	x2,80002c68	  x2=0x80002c68
       25645000	      2563	00000000	00000013	addi	x0,x0,0	  x0:0x00000000
       25655000	      2564	80002c28	00000013	addi	x0,x0,0	  x0:0x00000000
       25665000	      2565	80002c2c	04800d6f	jal	x26,80002c2c	 x26=0x80002c2c
       25675000	      2566	00000000	00000013	addi	x0,x0,0	  x0:0x00000000
       25685000	      2567	80002c70	00000013	addi	x0,x0,0	  x0:0x00000000
       25695000	      2568	80002c74	010000ef	jal	x1,80002c74	  x1=0x80002c74
       25705000	      2569	00000000	00000013	addi	x0,x0,0	  x0:0x00000000
       25715000	      2570	80002c80	00000013	addi	x0,x0,0	  x0:0x00000000
       25725000	      2571	80002c84	0097d0b3	srl	x1,x15,x9	 x15:0x80002a9c  x9:0xfffff97f  x1=0x00000001
       25735000	      2572	80002c88	02c000ef	jal	x1,80002c88	  x1=0x80002c88
       25745000	      2573	00000000	00000013	addi	x0,x0,0	  x0:0x00000000
       25755000	      2574	80002cb0	00000013	addi	x0,x0,0	  x0:0x00000000
       25765000	      2575	80002cb4	fe1ff0ef	jal	x1,80002cb4	  x1=0x80002cb4
       25775000	      2576	00000000	00000013	addi	x0,x0,0	  x0:0x00000000
       25785000	      2577	80002c90	00000013	addi	x0,x0,0	  x0:0x00000000
       25795000	      2578	80002c94	004000ef	jal	x1,80002c94	  x1=0x80002c94
       25805000	      2579	00000000	00000013	addi	x0,x0,0	  x0:0x00000000
       25815000	      2580	80002c94	00000013	addi	x0,x0,0	  x0:0x00000000
       25825000	      2581	80002c98	0140036f	jal	x6,80002c98	  x6=0x80002c98
       25835000	      2582	00000000	00000013	addi	x0,x0,0	  x0:0x00000000
       25845000	      2583	80002ca8	00000013	addi	x0,x0,0	  x0:0x00000000
       25855000	      2584	80002cac	0280036f	jal	x6,80002cac	  x6=0x80002cac
       25865000	      2585	00000000	00000013	addi	x0,x0,0	  x0:0x00000000
       25875000	      2586	80002cd0	00000013	addi	x0,x0,0	  x0:0x00000000
       25885000	      2587	80002cd4	00c009ef	jal	x19,80002cd4	 x19=0x80002cd4
       25895000	      2588	00000000	00000013	addi	x0,x0,0	  x0:0x00000000
       25905000	      2589	80002cdc	00000013	addi	x0,x0,0	  x0:0x00000000
       25915000	      2590	80002ce0	fb1ff36f	jal	x6,80002ce0	  x6=0x80002ce0
       25925000	      2591	00000000	00000013	addi	x0,x0,0	  x0:0x00000000
       25935000	      2592	80002c8c	00000013	addi	x0,x0,0	  x0:0x00000000
       25945000	      2593	80002c90	00c000ef	jal	x1,80002c90	  x1=0x80002c90
       25955000	      2594	00000000	00000013	addi	x0,x0,0	  x0:0x00000000
       25965000	      2595	80002c98	00000013	addi	x0,x0,0	  x0:0x00000000
       25975000	      2596	80002c9c	ff1ff0ef	jal	x1,80002c9c	  x1=0x80002c9c
       25985000	      2597	00000000	00000013	addi	x0,x0,0	  x0:0x00000000
       25995000	      2598	80002c88	00000013	addi	x0,x0,0	  x0:0x00000000
       26005000	      2599	80002c8c	050000ef	jal	x1,80002c8c	  x1=0x80002c8c
       26015000	      2600	00000000	00000013	addi	x0,x0,0	  x0:0x00000000
       26025000	      2601	80002cd8	00000013	addi	x0,x0,0	  x0:0x00000000
       26035000	      2602	80002cdc	ff5ff0ef	jal	x1,80002cdc	  x1=0x80002cdc
       26045000	      2603	00000000	00000013	addi	x0,x0,0	  x0:0x00000000
       26055000	      2604	80002ccc	00000013	addi	x0,x0,0	  x0:0x00000000
       26065000	      2605	80002cd0	fedff0ef	jal	x1,80002cd0	  x1=0x80002cd0
       26075000	      2606	00000000	00000013	addi	x0,x0,0	  x0:0x00000000
       26085000	      2607	80002cb8	00000013	addi	x0,x0,0	  x0:0x00000000
       26095000	      2608	80002cbc	ff5ff1ef	jal	x3,80002cbc	  x3=0x80002cbc
       26105000	      2609	00000000	00000013	addi	x0,x0,0	  x0:0x00000000
       26115000	      2610	80002cac	00000013	addi	x0,x0,0	  x0:0x00000000
       26125000	      2611	80002cb0	028000ef	jal	x1,80002cb0	  x1=0x80002cb0
       26135000	      2612	00000000	00000013	addi	x0,x0,0	  x0:0x00000000
       26145000	      2613	80002cd4	00000013	addi	x0,x0,0	  x0:0x00000000
       26155000	      2614	80002cd8	fc9ff36f	jal	x6,80002cd8	  x6=0x80002cd8
       26165000	      2615	00000000	00000013	addi	x0,x0,0	  x0:0x00000000
       26175000	      2616	80002c9c	00000013	addi	x0,x0,0	  x0:0x00000000
       26185000	      2617	80002ca0	0200016f	jal	x2,80002ca0	  x2=0x80002ca0
       26195000	      2618	00000000	00000013	addi	x0,x0,0	  x0:0x00000000
       26205000	      2619	80002cbc	00000013	addi	x0,x0,0	  x0:0x00000000
       26215000	      2620	80002cc0	00c000ef	jal	x1,80002cc0	  x1=0x80002cc0
       26225000	      2621	00000000	00000013	addi	x0,x0,0	  x0:0x00000000
       26235000	      2622	80002cc8	00000013	addi	x0,x0,0	  x0:0x00000000
       26245000	      2623	80002ccc	ffdff0ef	jal	x1,80002ccc	  x1=0x80002ccc
       26255000	      2624	00000000	00000013	addi	x0,x0,0	  x0:0x00000000
       26265000	      2625	80002cc4	00000013	addi	x0,x0,0	  x0:0x00000000
       26275000	      2626	80002cc8	fe1ff0ef	jal	x1,80002cc8	  x1=0x80002cc8
       26285000	      2627	00000000	00000013	addi	x0,x0,0	  x0:0x00000000
       26295000	      2628	80002ca4	00000013	addi	x0,x0,0	  x0:0x00000000
       26305000	      2629	80002ca8	ffdff0ef	jal	x1,80002ca8	  x1=0x80002ca8
       26315000	      2630	00000000	00000013	addi	x0,x0,0	  x0:0x00000000
       26325000	      2631	80002ca0	00000013	addi	x0,x0,0	  x0:0x00000000
       26335000	      2632	80002ca4	01400c6f	jal	x24,80002ca4	 x24=0x80002ca4
       26345000	      2633	00000000	00000013	addi	x0,x0,0	  x0:0x00000000
       26355000	      2634	80002cb4	00000013	addi	x0,x0,0	  x0:0x00000000
       26365000	      2635	80002cb8	00c000ef	jal	x1,80002cb8	  x1=0x80002cb8
       26375000	      2636	00000000	00000013	addi	x0,x0,0	  x0:0x00000000
       26385000	      2637	80002cc0	00000013	addi	x0,x0,0	  x0:0x00000000
       26395000	      2638	80002cc4	020001ef	jal	x3,80002cc4	  x3=0x80002cc4
       26405000	      2639	00000000	00000013	addi	x0,x0,0	  x0:0x00000000
       26415000	      2640	80002ce0	00000013	addi	x0,x0,0	  x0:0x00000000
       26425000	      2641	80002ce4	40b45713	srai	x14,x8,0xb	  x8:0x80002904 x14=0xfff00005
       26435000	      2642	80002ce8	024000ef	jal	x1,80002ce8	  x1=0x80002ce8
       26445000	      2643	00000000	00000013	addi	x0,x0,0	  x0:0x00000000
       26455000	      2644	80002d08	00000013	addi	x0,x0,0	  x0:0x00000000
       26465000	      2645	80002d0c	fe9ff3ef	jal	x7,80002d0c	  x7=0x80002d0c
       26475000	      2646	00000000	00000013	addi	x0,x0,0	  x0:0x00000000
       26485000	      2647	80002cf0	00000013	addi	x0,x0,0	  x0:0x00000000
       26495000	      2648	80002cf4	0140036f	jal	x6,80002cf4	  x6=0x80002cf4
       26505000	      2649	00000000	00000013	addi	x0,x0,0	  x0:0x00000000
       26515000	      2650	80002d04	00000013	addi	x0,x0,0	  x0:0x00000000
       26525000	      2651	80002d08	fe9ff9ef	jal	x19,80002d08	 x19=0x80002d08
       26535000	      2652	00000000	00000013	addi	x0,x0,0	  x0:0x00000000
       26545000	      2653	80002cec	00000013	addi	x0,x0,0	  x0:0x00000000
       26555000	      2654	80002cf0	008000ef	jal	x1,80002cf0	  x1=0x80002cf0
       26565000	      2655	00000000	00000013	addi	x0,x0,0	  x0:0x00000000
       26575000	      2656	80002cf4	00000013	addi	x0,x0,0	  x0:0x00000000
       26585000	      2657	80002cf8	018000ef	jal	x1,80002cf8	  x1=0x80002cf8
       26595000	      2658	00000000	00000013	addi	x0,x0,0	  x0:0x00000000
       26605000	      2659	80002d0c	00000013	addi	x0,x0,0	  x0:0x00000000
       26615000	      2660	80002d10	fedff0ef	jal	x1,80002d10	  x1=0x80002d10
       26625000	      2661	00000000	00000013	addi	x0,x0,0	  x0:0x00000000
       26635000	      2662	80002cf8	00000013	addi	x0,x0,0	  x0:0x00000000
       26645000	      2663	80002cfc	0040036f	jal	x6,80002cfc	  x6=0x80002cfc
       26655000	      2664	00000000	00000013	addi	x0,x0,0	  x0:0x00000000
       26665000	      2665	80002cfc	00000013	addi	x0,x0,0	  x0:0x00000000
       26675000	      2666	80002d00	004000ef	jal	x1,80002d00	  x1=0x80002d00
       26685000	      2667	00000000	00000013	addi	x0,x0,0	  x0:0x00000000
       26695000	      2668	80002d00	00000013	addi	x0,x0,0	  x0:0x00000000
       26705000	      2669	80002d04	fe9ff0ef	jal	x1,80002d04	  x1=0x80002d04
       26715000	      2670	00000000	00000013	addi	x0,x0,0	  x0:0x00000000
       26725000	      2671	80002ce8	00000013	addi	x0,x0,0	  x0:0x00000000
       26735000	      2672	80002cec	028000ef	jal	x1,80002cec	  x1=0x80002cec
       26745000	      2673	00000000	00000013	addi	x0,x0,0	  x0:0x00000000
       26755000	      2674	80002d10	00000013	addi	x0,x0,0	  x0:0x00000000
       26765000	      2675	80002d14	01324733	xor	x14,x4,x19	  x4:0x80002c78 x19:0x80002d08 x14=0x00000170
       26775000	      2676	80002d18	030000ef	jal	x1,80002d18	  x1=0x80002d18
       26785000	      2677	00000000	00000013	addi	x0,x0,0	  x0:0x00000000
       26795000	      2678	80002d44	00000013	addi	x0,x0,0	  x0:0x00000000
       26805000	      2679	80002d48	004000ef	jal	x1,80002d48	  x1=0x80002d48
       26815000	      2680	00000000	00000013	addi	x0,x0,0	  x0:0x00000000
       26825000	      2681	80002d48	00000013	addi	x0,x0,0	  x0:0x00000000
       26835000	      2682	80002d4c	fe9ff36f	jal	x6,80002d4c	  x6=0x80002d4c
       26845000	      2683	00000000	00000013	addi	x0,x0,0	  x0:0x00000000
       26855000	      2684	80002d30	00000013	addi	x0,x0,0	  x0:0x00000000
       26865000	      2685	80002d34	fe9ff0ef	jal	x1,80002d34	  x1=0x80002d34
       26875000	      2686	00000000	00000013	addi	x0,x0,0	  x0:0x00000000
       26885000	      2687	80002d18	00000013	addi	x0,x0,0	  x0:0x00000000
       26895000	      2688	80002d1c	0040036f	jal	x6,80002d1c	  x6=0x80002d1c
       26905000	      2689	00000000	00000013	addi	x0,x0,0	  x0:0x00000000
       26915000	      2690	80002d1c	00000013	addi	x0,x0,0	  x0:0x00000000
       26925000	      2691	80002d20	0200026f	jal	x4,80002d20	  x4=0x80002d20
       26935000	      2692	00000000	00000013	addi	x0,x0,0	  x0:0x00000000
       26945000	      2693	80002d3c	00000013	addi	x0,x0,0	  x0:0x00000000
       26955000	      2694	80002d40	fe9ff0ef	jal	x1,80002d40	  x1=0x80002d40
       26965000	      2695	00000000	00000013	addi	x0,x0,0	  x0:0x00000000
       26975000	      2696	80002d24	00000013	addi	x0,x0,0	  x0:0x00000000
       26985000	      2697	80002d28	010000ef	jal	x1,80002d28	  x1=0x80002d28
       26995000	      2698	00000000	00000013	addi	x0,x0,0	  x0:0x00000000
       27005000	      2699	80002d34	00000013	addi	x0,x0,0	  x0:0x00000000
       27015000	      2700	80002d38	fedff36f	jal	x6,80002d38	  x6=0x80002d38
       27025000	      2701	00000000	00000013	addi	x0,x0,0	  x0:0x00000000
       27035000	      2702	80002d20	00000013	addi	x0,x0,0	  x0:0x00000000
       27045000	      2703	80002d24	00c000ef	jal	x1,80002d24	  x1=0x80002d24
       27055000	      2704	00000000	00000013	addi	x0,x0,0	  x0:0x00000000
       27065000	      2705	80002d2c	00000013	addi	x0,x0,0	  x0:0x00000000
       27075000	      2706	80002d30	ffdff0ef	jal	x1,80002d30	  x1=0x80002d30
       27085000	      2707	00000000	00000013	addi	x0,x0,0	  x0:0x00000000
       27095000	      2708	80002d28	00000013	addi	x0,x0,0	  x0:0x00000000
       27105000	      2709	80002d2c	010000ef	jal	x1,80002d2c	  x1=0x80002d2c
       27115000	      2710	00000000	00000013	addi	x0,x0,0	  x0:0x00000000
       27125000	      2711	80002d38	00000013	addi	x0,x0,0	  x0:0x00000000
       27135000	      2712	80002d3c	008000ef	jal	x1,80002d3c	  x1=0x80002d3c
       27145000	      2713	00000000	00000013	addi	x0,x0,0	  x0:0x00000000
       27155000	      2714	80002d40	00000013	addi	x0,x0,0	  x0:0x00000000
       27165000	      2715	80002d44	00c0066f	jal	x12,80002d44	 x12=0x80002d44
       27175000	      2716	00000000	00000013	addi	x0,x0,0	  x0:0x00000000
       27185000	      2717	80002d4c	00000013	addi	x0,x0,0	  x0:0x00000000
       27195000	      2718	80002d50	004000ef	jal	x1,80002d50	  x1=0x80002d50
       27205000	      2719	00000000	00000013	addi	x0,x0,0	  x0:0x00000000
       27215000	      2720	80002d50	00000013	addi	x0,x0,0	  x0:0x00000000
       27225000	      2721	80002d54	41185b93	srai	x23,x16,0x11	 x16:0x00000000 x23=0x00000000
       27235000	      2722	80002d58	030000ef	jal	x1,80002d58	  x1=0x80002d58
       27245000	      2723	00000000	00000013	addi	x0,x0,0	  x0:0x00000000
       27255000	      2724	80002d84	00000013	addi	x0,x0,0	  x0:0x00000000
       27265000	      2725	80002d88	fe9ff0ef	jal	x1,80002d88	  x1=0x80002d88
       27275000	      2726	00000000	00000013	addi	x0,x0,0	  x0:0x00000000
       27285000	      2727	80002d6c	00000013	addi	x0,x0,0	  x0:0x00000000
       27295000	      2728	80002d70	ff1ff0ef	jal	x1,80002d70	  x1=0x80002d70
       27305000	      2729	00000000	00000013	addi	x0,x0,0	  x0:0x00000000
       27315000	      2730	80002d5c	00000013	addi	x0,x0,0	  x0:0x00000000
       27325000	      2731	80002d60	004000ef	jal	x1,80002d60	  x1=0x80002d60
       27335000	      2732	00000000	00000013	addi	x0,x0,0	  x0:0x00000000
       27345000	      2733	80002d60	00000013	addi	x0,x0,0	  x0:0x00000000
       27355000	      2734	80002d64	02c000ef	jal	x1,80002d64	  x1=0x80002d64
       27365000	      2735	00000000	00000013	addi	x0,x0,0	  x0:0x00000000
       27375000	      2736	80002d8c	00000013	addi	x0,x0,0	  x0:0x00000000
       27385000	      2737	80002d90	004000ef	jal	x1,80002d90	  x1=0x80002d90
       27395000	      2738	00000000	00000013	addi	x0,x0,0	  x0:0x00000000
       27405000	      2739	80002d90	00000013	addi	x0,x0,0	  x0:0x00000000
       27415000	      2740	80002d94	fedff0ef	jal	x1,80002d94	  x1=0x80002d94
       27425000	      2741	00000000	00000013	addi	x0,x0,0	  x0:0x00000000
       27435000	      2742	80002d7c	00000013	addi	x0,x0,0	  x0:0x00000000
       27445000	      2743	80002d80	ff9ff36f	jal	x6,80002d80	  x6=0x80002d80
       27455000	      2744	00000000	00000013	addi	x0,x0,0	  x0:0x00000000
       27465000	      2745	80002d74	00000013	addi	x0,x0,0	  x0:0x00000000
       27475000	      2746	80002d78	ff1ffa6f	jal	x20,80002d78	 x20=0x80002d78
       27485000	      2747	00000000	00000013	addi	x0,x0,0	  x0:0x00000000
       27495000	      2748	80002d64	00000013	addi	x0,x0,0	  x0:0x00000000
       27505000	      2749	80002d68	ff5ff3ef	jal	x7,80002d68	  x7=0x80002d68
       27515000	      2750	00000000	00000013	addi	x0,x0,0	  x0:0x00000000
       27525000	      2751	80002d58	00000013	addi	x0,x0,0	  x0:0x00000000
       27535000	      2752	80002d5c	028000ef	jal	x1,80002d5c	  x1=0x80002d5c
       27545000	      2753	00000000	00000013	addi	x0,x0,0	  x0:0x00000000
       27555000	      2754	80002d80	00000013	addi	x0,x0,0	  x0:0x00000000
       27565000	      2755	80002d84	ff9ff0ef	jal	x1,80002d84	  x1=0x80002d84
       27575000	      2756	00000000	00000013	addi	x0,x0,0	  x0:0x00000000
       27585000	      2757	80002d78	00000013	addi	x0,x0,0	  x0:0x00000000
       27595000	      2758	80002d7c	ff9ff36f	jal	x6,80002d7c	  x6=0x80002d7c
       27605000	      2759	00000000	00000013	addi	x0,x0,0	  x0:0x00000000
       27615000	      2760	80002d70	00000013	addi	x0,x0,0	  x0:0x00000000
       27625000	      2761	80002d74	ff9ff36f	jal	x6,80002d74	  x6=0x80002d74
       27635000	      2762	00000000	00000013	addi	x0,x0,0	  x0:0x00000000
       27645000	      2763	80002d68	00000013	addi	x0,x0,0	  x0:0x00000000
       27655000	      2764	80002d6c	02c000ef	jal	x1,80002d6c	  x1=0x80002d6c
       27665000	      2765	00000000	00000013	addi	x0,x0,0	  x0:0x00000000
       27675000	      2766	80002d94	00000013	addi	x0,x0,0	  x0:0x00000000
       27685000	      2767	80002d98	ff5ff0ef	jal	x1,80002d98	  x1=0x80002d98
       27695000	      2768	00000000	00000013	addi	x0,x0,0	  x0:0x00000000
       27705000	      2769	80002d88	00000013	addi	x0,x0,0	  x0:0x00000000
       27715000	      2770	80002d8c	010000ef	jal	x1,80002d8c	  x1=0x80002d8c
       27725000	      2771	00000000	00000013	addi	x0,x0,0	  x0:0x00000000
       27735000	      2772	80002d98	00000013	addi	x0,x0,0	  x0:0x00000000
       27745000	      2773	80002d9c	0139fb33	and	x22,x19,x19	 x19:0x80002d08 x19:0x80002d08 x22=0x80002d08
       27755000	      2774	80002da0	03c000ef	jal	x1,80002da0	  x1=0x80002da0
       27765000	      2775	00000000	00000013	addi	x0,x0,0	  x0:0x00000000
       27775000	      2776	80002dd8	00000013	addi	x0,x0,0	  x0:0x00000000
       27785000	      2777	80002ddc	ffdff0ef	jal	x1,80002ddc	  x1=0x80002ddc
       27795000	      2778	00000000	00000013	addi	x0,x0,0	  x0:0x00000000
       27805000	      2779	80002dd4	00000013	addi	x0,x0,0	  x0:0x00000000
       27815000	      2780	80002dd8	00c000ef	jal	x1,80002dd8	  x1=0x80002dd8
       27825000	      2781	00000000	00000013	addi	x0,x0,0	  x0:0x00000000
       27835000	      2782	80002de0	00000013	addi	x0,x0,0	  x0:0x00000000
       27845000	      2783	80002de4	fe1ff0ef	jal	x1,80002de4	  x1=0x80002de4
       27855000	      2784	00000000	00000013	addi	x0,x0,0	  x0:0x00000000
       27865000	      2785	80002dc0	00000013	addi	x0,x0,0	  x0:0x00000000
       27875000	      2786	80002dc4	ff9ff36f	jal	x6,80002dc4	  x6=0x80002dc4
       27885000	      2787	00000000	00000013	addi	x0,x0,0	  x0:0x00000000
       27895000	      2788	80002db8	00000013	addi	x0,x0,0	  x0:0x00000000
       27905000	      2789	80002dbc	fedff0ef	jal	x1,80002dbc	  x1=0x80002dbc
       27915000	      2790	00000000	00000013	addi	x0,x0,0	  x0:0x00000000
       27925000	      2791	80002da4	00000013	addi	x0,x0,0	  x0:0x00000000
       27935000	      2792	80002da8	0180016f	jal	x2,80002da8	  x2=0x80002da8
       27945000	      2793	00000000	00000013	addi	x0,x0,0	  x0:0x00000000
       27955000	      2794	80002dbc	00000013	addi	x0,x0,0	  x0:0x00000000
       27965000	      2795	80002dc0	ff9ff76f	jal	x14,80002dc0	 x14=0x80002dc0
       27975000	      2796	00000000	00000013	addi	x0,x0,0	  x0:0x00000000
       27985000	      2797	80002db4	00000013	addi	x0,x0,0	  x0:0x00000000
       27995000	      2798	80002db8	034000ef	jal	x1,80002db8	  x1=0x80002db8
       28005000	      2799	00000000	00000013	addi	x0,x0,0	  x0:0x00000000
       28015000	      2800	80002de8	00000013	addi	x0,x0,0	  x0:0x00000000
       28025000	      2801	80002dec	fe5ff26f	jal	x4,80002dec	  x4=0x80002dec
       28035000	      2802	00000000	00000013	addi	x0,x0,0	  x0:0x00000000
       28045000	      2803	80002dcc	00000013	addi	x0,x0,0	  x0:0x00000000
       28055000	      2804	80002dd0	fe1ff0ef	jal	x1,80002dd0	  x1=0x80002dd0
       28065000	      2805	00000000	00000013	addi	x0,x0,0	  x0:0x00000000
       28075000	      2806	80002dac	00000013	addi	x0,x0,0	  x0:0x00000000
       28085000	      2807	80002db0	ffdff0ef	jal	x1,80002db0	  x1=0x80002db0
       28095000	      2808	00000000	00000013	addi	x0,x0,0	  x0:0x00000000
       28105000	      2809	80002da8	00000013	addi	x0,x0,0	  x0:0x00000000
       28115000	      2810	80002dac	ff9ff36f	jal	x6,80002dac	  x6=0x80002dac
       28125000	      2811	00000000	00000013	addi	x0,x0,0	  x0:0x00000000
       28135000	      2812	80002da0	00000013	addi	x0,x0,0	  x0:0x00000000
       28145000	      2813	80002da4	01000e6f	jal	x28,80002da4	 x28=0x80002da4
       28155000	      2814	00000000	00000013	addi	x0,x0,0	  x0:0x00000000
       28165000	      2815	80002db0	00000013	addi	x0,x0,0	  x0:0x00000000
       28175000	      2816	80002db4	014000ef	jal	x1,80002db4	  x1=0x80002db4
       28185000	      2817	00000000	00000013	addi	x0,x0,0	  x0:0x00000000
       28195000	      2818	80002dc4	00000013	addi	x0,x0,0	  x0:0x00000000
       28205000	      2819	80002dc8	004001ef	jal	x3,80002dc8	  x3=0x80002dc8
       28215000	      2820	00000000	00000013	addi	x0,x0,0	  x0:0x00000000
       28225000	      2821	80002dc8	00000013	addi	x0,x0,0	  x0:0x00000000
       28235000	      2822	80002dcc	014000ef	jal	x1,80002dcc	  x1=0x80002dcc
       28245000	      2823	00000000	00000013	addi	x0,x0,0	  x0:0x00000000
       28255000	      2824	80002ddc	00000013	addi	x0,x0,0	  x0:0x00000000
       28265000	      2825	80002de0	008000ef	jal	x1,80002de0	  x1=0x80002de0
       28275000	      2826	00000000	00000013	addi	x0,x0,0	  x0:0x00000000
       28285000	      2827	80002de4	00000013	addi	x0,x0,0	  x0:0x00000000
       28295000	      2828	80002de8	fedff36f	jal	x6,80002de8	  x6=0x80002de8
       28305000	      2829	00000000	00000013	addi	x0,x0,0	  x0:0x00000000
       28315000	      2830	80002dd0	00000013	addi	x0,x0,0	  x0:0x00000000
       28325000	      2831	80002dd4	01c0036f	jal	x6,80002dd4	  x6=0x80002dd4
       28335000	      2832	00000000	00000013	addi	x0,x0,0	  x0:0x00000000
       28345000	      2833	80002dec	00000013	addi	x0,x0,0	  x0:0x00000000
       28355000	      2834	80002df0	00269e93	slli	x29,x13,0x2	 x13:0x800029ec x29=0x0000a7b0
       28365000	      2835	80002df4	01a41b93	slli	x23,x8,0x1a	  x8:0x80002904 x23=0x10000000
       28375000	      2836	80002df8	71b4b093	sltiu	x1,x9,1819	  x9:0xfffff97f  x1=0x00000000
       28385000	      2837	80002dfc	41f95f13	srai	x30,x18,0x1f	 x18:0x80009fc4 x30=0xffffffff
       28395000	      2838	80002e00	00eab033	sltu	x0,x21,x14	 x21:0x80002b24 x14:0x80002dc0
       28405000	      2839	80002e04	00ea53b3	srl	x7,x20,x14	 x20:0x80002d78 x14:0x80002dc0  x7=0x80002d78
       28415000	      2840	80002e08	0496d463	bge	x13,x9,80002e50	 x13:0x800029ec  x9:0xfffff97f
       28425000	      2841	80002e0c	030be463	bltu	x23,x16,80002e34	 x23:0x10000000 x16:0x00000000
       28435000	      2842	80002e10	019fe2b3	or	x5,x31,x25	 x31:0x80009ef4 x25:0x80002910  x5=0x8000bff4
       28445000	      2843	80002e14	00a45813	srli	x16,x8,0xa	  x8:0x80002904 x16=0x0020000a
       28455000	      2844	80002e18	0039da63	bge	x19,x3,80002e2c	 x19:0x80002d08  x3:0x80002dc8
       28465000	      2845	80002e1c	018fb033	sltu	x0,x31,x24	 x31:0x80009ef4 x24:0x80002ca4
       28475000	      2846	80002e20	005f6c33	or	x24,x30,x5	 x30:0xffffffff  x5:0x8000bff4 x24=0xffffffff
       28485000	      2847	80002e24	01d15463	bge	x2,x29,80002e2c	  x2:0x80002da8 x29:0x0000a7b0
       28495000	      2848	80002e28	907b0393	addi	x7,x22,-1785	 x22:0x80002d08  x7=0x8000260f
       28505000	      2849	80002e2c	024b0463	beq	x22,x4,80002e54	 x22:0x80002d08  x4:0x80002dec
       28515000	      2850	80002e30	dd880197	auipc	x3,0xdd880	  x3=0x5d882e2c
       28525000	      2851	80002e34	0195fc33	and	x24,x11,x25	 x11:0x80002c5c x25:0x80002910 x24=0x80002810
       28535000	      2852	80002e38	01233133	sltu	x2,x6,x18	  x6:0x80002dd4 x18:0x80009fc4  x2=0x00000001
       28545000	      2853	80002e3c	05bbe463	bltu	x23,x27,80002e84	 x23:0x10000000 x27:0x00000000
       28555000	      2854	80002e40	04857263	bgeu	x10,x8,80002e84	 x10:0x80002aa4  x8:0x80002904
       28565000	      2855	00000000	00000013	addi	x0,x0,0	  x0:0x00000000
       28575000	      2856	80002e80	00000013	addi	x0,x0,0	  x0:0x00000000
       28585000	      2857	80002e84	000730b3	sltu	x1,x14,x0	 x14:0x80002dc0  x0:0x00000000  x1=0x00000000
       28595000	      2858	80002e88	0189abb3	slt	x23,x19,x24	 x19:0x80002d08 x24:0x80002810 x23=0x00000000
       28605000	      2859	80002e8c	410f0ab3	sub	x21,x30,x16	 x30:0xffffffff x16:0x0020000a x21=0xffdffff5
       28615000	      2860	80002e90	014658b3	srl	x17,x12,x20	 x12:0x80002d44 x20:0x80002d78 x17=0x00000080
       28625000	      2861	80002e94	019b9e93	slli	x29,x23,0x19	 x23:0x00000000 x29=0x00000000
       28635000	      2862	80002e98	c5904b93	xori	x23,x0,-935	  x0:0x00000000 x23=0xfffffc59
       28645000	      2863	80002e9c	00e3ef33	or	x30,x7,x14	  x7:0x8000260f x14:0x80002dc0 x30=0x80002fcf
       28655000	      2864	80002ea0	01230663	beq	x6,x18,80002eac	  x6:0x80002dd4 x18:0x80009fc4
       28665000	      2865	80002ea4	01e6d393	srli	x7,x13,0x1e	 x13:0x800029ec  x7=0x00000002
       28675000	      2866	80002ea8	00bc1ab3	sll	x21,x24,x11	 x24:0x80002810 x11:0x80002c5c x21=0x00000000
       28685000	      2867	80002eac	0833f513	andi	x10,x7,131	  x7:0x00000002 x10=0x00000002
       28695000	      2868	80002eb0	00b0db93	srli	x23,x1,0xb	  x1:0x00000000 x23=0x00000000
       28705000	      2869	80002eb4	002e83b3	add	x7,x29,x2	 x29:0x00000000  x2:0x00000001  x7=0x00000001
       28715000	      2870	80002eb8	0098b633	sltu	x12,x17,x9	 x17:0x00000080  x9:0xfffff97f x12=0x00000001
       28725000	      2871	80002ebc	e613eb93	ori	x23,x7,-415	  x7:0x00000001 x23=0xfffffe61
       28735000	      2872	80002ec0	00ce14b3	sll	x9,x28,x12	 x28:0x80002da4 x12:0x00000001  x9=0x00005b48
       28745000	      2873	80002ec4	003a5433	srl	x8,x20,x3	 x20:0x80002d78  x3:0x5d882e2c  x8=0x00080002
       28755000	      2874	80002ec8	01e2a513	slti	x10,x5,30	  x5:0x8000bff4 x10=0x00000001
       28765000	      2875	80002ecc	41b9df33	sra	x30,x19,x27	 x19:0x80002d08 x27:0x00000000 x30=0x80002d08
       28775000	      2876	80002ed0	413b0a33	sub	x20,x22,x19	 x22:0x80002d08 x19:0x80002d08 x20=0x00000000
       28785000	      2877	80002ed4	6c380593	addi	x11,x16,1731	 x16:0x0020000a x11=0x002006cd
       28795000	      2878	80002ed8	85350813	addi	x16,x10,-1965	 x10:0x00000001 x16=0xfffff854
       28805000	      2879	80002edc	03214463	blt	x2,x18,80002f04	  x2:0x00000001 x18:0x80009fc4
       28815000	      2880	80002ee0	007f2e33	slt	x28,x30,x7	 x30:0x80002d08  x7:0x00000001 x28=0x00000001
       28825000	      2881	80002ee4	a934f537	lui	x10,0xa934f	 x10=0xa934f000
       28835000	      2882	80002ee8	019943b3	xor	x7,x18,x25	 x18:0x80009fc4 x25:0x80002910  x7=0x0000b6d4
       28845000	      2883	80002eec	015231b3	sltu	x3,x4,x21	  x4:0x80002dec x21:0x00000000  x3=0x00000000
       28855000	      2884	80002ef0	00d90463	beq	x18,x13,80002ef8	 x18:0x80009fc4 x13:0x800029ec
       28865000	      2885	80002ef4	007510b3	sll	x1,x10,x7	 x10:0xa934f000  x7:0x0000b6d4  x1=0x00000000
       28875000	      2886	80002ef8	3e5960b7	lui	x1,0x3e596	  x1=0x3e596000
       28885000	      2887	80002efc	017594b3	sll	x9,x11,x23	 x11:0x002006cd x23:0xfffffe61  x9=0x00400d9a
       28895000	      2888	80002f00	073fbbb7	lui	x23,0x73fb	 x23=0x073fb000
       28905000	      2889	80002f04	01f95863	bge	x18,x31,80002f14	 x18:0x80009fc4 x31:0x80009ef4
       28915000	      2890	00000000	00000013	addi	x0,x0,0	  x0:0x00000000
       28925000	      2891	80002f10	00000013	addi	x0,x0,0	  x0:0x00000000
       28935000	      2892	80002f14	00000013	addi	x0,x0,0	  x0:0x00000000
       28945000	      2893	80002f18	01077f33	and	x30,x14,x16	 x14:0x80002dc0 x16:0xfffff854 x30=0x80002840
       28955000	      2894	80002f1c	0073fc63	bgeu	x7,x7,80002f34	  x7:0x0000b6d4  x7:0x0000b6d4
       28965000	      2895	00000000	00000013	addi	x0,x0,0	  x0:0x00000000
       28975000	      2896	80002f30	00000013	addi	x0,x0,0	  x0:0x00000000
       28985000	      2897	80002f34	00028663	beq	x5,x0,80002f40	  x5:0x8000bff4  x0:0x00000000
       28995000	      2898	80002f38	013ff263	bgeu	x31,x19,80002f3c	 x31:0x80009ef4 x19:0x80002d08
       29005000	      2899	00000000	00000013	addi	x0,x0,0	  x0:0x00000000
       29015000	      2900	80002f38	00000013	addi	x0,x0,0	  x0:0x00000000
       29025000	      2901	80002f3c	00a0d693	srli	x13,x1,0xa	  x1:0x3e596000 x13=0x000f9658
       29035000	      2902	80002f40	4029da93	srai	x21,x19,0x2	 x19:0x80002d08 x21=0xe0000b42
       29045000	      2903	80002f44	00701c63	bne	x0,x7,80002f5c	  x0:0x00000000  x7:0x0000b6d4
       29055000	      2904	00000000	00000013	addi	x0,x0,0	  x0:0x00000000
       29065000	      2905	80002f58	00000013	addi	x0,x0,0	  x0:0x00000000
       29075000	      2906	80002f5c	4ff92e93	slti	x29,x18,1279	 x18:0x80009fc4 x29=0x00000001
       29085000	      2907	80002f60	0025da63	bge	x11,x2,80002f74	 x11:0x002006cd  x2:0x00000001
       29095000	      2908	00000000	00000013	addi	x0,x0,0	  x0:0x00000000
       29105000	      2909	80002f70	00000013	addi	x0,x0,0	  x0:0x00000000
       29115000	      2910	80002f74	00b71463	bne	x14,x11,80002f7c	 x14:0x80002dc0 x11:0x002006cd
       29125000	      2911	00000000	00000013	addi	x0,x0,0	  x0:0x00000000
       29135000	      2912	80002f78	00000013	addi	x0,x0,0	  x0:0x00000000
       29145000	      2913	80002f7c	01506863	bltu	x0,x21,80002f8c	  x0:0x00000000 x21:0xe0000b42
       29155000	      2914	00000000	00000013	addi	x0,x0,0	  x0:0x00000000
       29165000	      2915	80002f88	00000013	addi	x0,x0,0	  x0:0x00000000
       29175000	      2916	80002f8c	d767fb17	auipc	x22,0xd767f	 x22=0x57681f88
       29185000	      2917	80002f90	4079d8b3	sra	x17,x19,x7	 x19:0x80002d08  x7:0x0000b6d4 x17=0xfffff800
       29195000	      2918	80002f94	01cc08b3	add	x17,x24,x28	 x24:0x80002810 x28:0x00000001 x17=0x80002811
       29205000	      2919	80002f98	02124e63	blt	x4,x1,80002fd4	  x4:0x80002dec  x1:0x3e596000
       29215000	      2920	00000000	00000013	addi	x0,x0,0	  x0:0x00000000
       29225000	      2921	80002fd0	00000013	addi	x0,x0,0	  x0:0x00000000
       29235000	      2922	80002fd4	00a8eeb3	or	x29,x17,x10	 x17:0x80002811 x10:0xa934f000 x29=0xa934f811
       29245000	      2923	80002fd8	007f41b3	xor	x3,x30,x7	 x30:0x80002840  x7:0x0000b6d4  x3=0x80009e94
       29255000	      2924	80002fdc	41cc5693	srai	x13,x24,0x1c	 x24:0x80002810 x13=0xfffffff8
       29265000	      2925	80002fe0	67f7aa93	slti	x21,x15,1663	 x15:0x80002a9c x21=0x00000001
       29275000	      2926	80002fe4	80cc2313	slti	x6,x24,-2036	 x24:0x80002810  x6=0x00000001
       29285000	      2927	80002fe8	0006c033	xor	x0,x13,x0	 x13:0xfffffff8  x0:0x00000000
       29295000	      2928	80002fec	00f71593	slli	x11,x14,0xf	 x14:0x80002dc0 x11=0x16e00000
       29305000	      2929	80002ff0	414cd7b3	sra	x15,x25,x20	 x25:0x80002910 x20:0x00000000 x15=0x80002910
       29315000	      2930	80002ff4	0192f133	and	x2,x5,x25	  x5:0x8000bff4 x25:0x80002910  x2=0x80002910
       29325000	      2931	80002ff8	00ca0663	beq	x20,x12,80003004	 x20:0x00000000 x12:0x00000001
       29335000	      2932	80002ffc	00b71e63	bne	x14,x11,80003018	 x14:0x80002dc0 x11:0x16e00000
       29345000	      2933	00000000	00000013	addi	x0,x0,0	  x0:0x00000000
       29355000	      2934	80003014	00000013	addi	x0,x0,0	  x0:0x00000000
       29365000	      2935	80003018	4188d193	srai	x3,x17,0x18	 x17:0x80002811  x3=0xffffff80
       29375000	      2936	8000301c	c070ea93	ori	x21,x1,-1017	  x1:0x3e596000 x21=0xfffffc07
       29385000	      2937	80003020	01933333	sltu	x6,x6,x25	  x6:0x00000001 x25:0x80002910  x6=0x00000001
       29395000	      2938	80003024	f49ddb17	auipc	x22,0xf49dd	 x22=0x749e0020
       29405000	      2939	80003028	01228c63	beq	x5,x18,80003040	  x5:0x8000bff4 x18:0x80009fc4
       29415000	      2940	8000302c	00261263	bne	x12,x2,80003030	 x12:0x00000001  x2:0x80002910
       29425000	      2941	00000000	00000013	addi	x0,x0,0	  x0:0x00000000
       29435000	      2942	8000302c	00000013	addi	x0,x0,0	  x0:0x00000000
       29445000	      2943	80003030	02e68463	beq	x13,x14,80003058	 x13:0xfffffff8 x14:0x80002dc0
       29455000	      2944	80003034	6f67e713	ori	x14,x15,1782	 x15:0x80002910 x14=0x80002ff6
       29465000	      2945	80003038	03c53e93	sltiu	x29,x10,60	 x10:0xa934f000 x29=0x00000000
       29475000	      2946	8000303c	40465533	sra	x10,x12,x4	 x12:0x00000001  x4:0x80002dec x10=0x00000000
       29485000	      2947	80003040	003febb3	or	x23,x31,x3	 x31:0x80009ef4  x3:0xffffff80 x23=0xfffffff4
       29495000	      2948	80003044	02799e63	bne	x19,x7,80003080	 x19:0x80002d08  x7:0x0000b6d4
       29505000	      2949	00000000	00000013	addi	x0,x0,0	  x0:0x00000000
       29515000	      2950	8000307c	00000013	addi	x0,x0,0	  x0:0x00000000
       29525000	      2951	80003080	00571233	sll	x4,x14,x5	 x14:0x80002ff6  x5:0x8000bff4  x4=0xff600000
       29535000	      2952	80003084	2dd0eb93	ori	x23,x1,733	  x1:0x3e596000 x23=0x3e5962dd
       29545000	      2953	80003088	014692b3	sll	x5,x13,x20	 x13:0xfffffff8 x20:0x00000000  x5=0xfffffff8
       29555000	      2954	8000308c	e8c73893	sltiu	x17,x14,-372	 x14:0x80002ff6 x17=0x00000001
       29565000	      2955	80003090	0013ec33	or	x24,x7,x1	  x7:0x0000b6d4  x1:0x3e596000 x24=0x3e59f6d4
       29575000	      2956	80003094	5cdbb013	sltiu	x0,x23,1485	 x23:0x3e5962dd
       29585000	      2957	80003098	04fa8263	beq	x21,x15,800030dc	 x21:0xfffffc07 x15:0x80002910
       29595000	      2958	8000309c	eff60e93	addi	x29,x12,-257	 x12:0x00000001 x29=0xffffff00
       29605000	      2959	800030a0	03506b93	ori	x23,x0,53	  x0:0x00000000 x23=0x00000035
       29615000	      2960	800030a4	408b0533	sub	x10,x22,x8	 x22:0x749e0020  x8:0x00080002 x10=0x7496001e
       29625000	      2961	800030a8	00485293	srli	x5,x16,0x4	 x16:0xfffff854  x5=0x0fffff85
       29635000	      2962	800030ac	08030a63	beq	x6,x0,80003140	  x6:0x00000001  x0:0x00000000
       29645000	      2963	800030b0	01212833	slt	x16,x2,x18	  x2:0x80002910 x18:0x80009fc4 x16=0x00000001
       29655000	      2964	800030b4	00175263	bge	x14,x1,800030b8	 x14:0x80002ff6  x1:0x3e596000
       29665000	      2965	800030b8	015a8b33	add	x22,x21,x21	 x21:0xfffffc07 x21:0xfffffc07 x22=0xfffff80e
       29675000	      2966	800030bc	02ca9463	bne	x21,x12,800030e4	 x21:0xfffffc07 x12:0x00000001
       29685000	      2967	00000000	00000013	addi	x0,x0,0	  x0:0x00000000
       29695000	      2968	800030e0	00000013	addi	x0,x0,0	  x0:0x00000000
       29705000	      2969	800030e4	004a31b3	sltu	x3,x20,x4	 x20:0x00000000  x4:0xff600000  x3=0x00000001
       29715000	      2970	800030e8	019d5293	srli	x5,x26,0x19	 x26:0x80002c2c  x5=0x00000040
       29725000	      2971	800030ec	04bbde63	bge	x23,x11,80003148	 x23:0x00000035 x11:0x16e00000
       29735000	      2972	800030f0	00244b33	xor	x22,x8,x2	  x8:0x00080002  x2:0x80002910 x22=0x80082912
       29745000	      2973	800030f4	018000ef	jal	x1,800030f4	  x1=0x800030f4
       29755000	      2974	00000000	00000013	addi	x0,x0,0	  x0:0x00000000
       29765000	      2975	80003108	00000013	addi	x0,x0,0	  x0:0x00000000
       29775000	      2976	8000310c	014000ef	jal	x1,8000310c	  x1=0x8000310c
       29785000	      2977	00000000	00000013	addi	x0,x0,0	  x0:0x00000000
       29795000	      2978	8000311c	00000013	addi	x0,x0,0	  x0:0x00000000
       29805000	      2979	80003120	014002ef	jal	x5,80003120	  x5=0x80003120
       29815000	      2980	00000000	00000013	addi	x0,x0,0	  x0:0x00000000
       29825000	      2981	80003130	00000013	addi	x0,x0,0	  x0:0x00000000
       29835000	      2982	80003134	fe9ff0ef	jal	x1,80003134	  x1=0x80003134
       29845000	      2983	00000000	00000013	addi	x0,x0,0	  x0:0x00000000
       29855000	      2984	80003118	00000013	addi	x0,x0,0	  x0:0x00000000
       29865000	      2985	8000311c	0080036f	jal	x6,8000311c	  x6=0x8000311c
       29875000	      2986	00000000	00000013	addi	x0,x0,0	  x0:0x00000000
       29885000	      2987	80003120	00000013	addi	x0,x0,0	  x0:0x00000000
       29895000	      2988	80003124	ff5ff36f	jal	x6,80003124	  x6=0x80003124
       29905000	      2989	00000000	00000013	addi	x0,x0,0	  x0:0x00000000
       29915000	      2990	80003114	00000013	addi	x0,x0,0	  x0:0x00000000
       29925000	      2991	80003118	ff9ff0ef	jal	x1,80003118	  x1=0x80003118
       29935000	      2992	00000000	00000013	addi	x0,x0,0	  x0:0x00000000
       29945000	      2993	8000310c	00000013	addi	x0,x0,0	  x0:0x00000000
       29955000	      2994	80003110	ff1ff36f	jal	x6,80003110	  x6=0x80003110
       29965000	      2995	00000000	00000013	addi	x0,x0,0	  x0:0x00000000
       29975000	      2996	800030fc	00000013	addi	x0,x0,0	  x0:0x00000000
       29985000	      2997	80003100	004000ef	jal	x1,80003100	  x1=0x80003100
       29995000	      2998	00000000	00000013	addi	x0,x0,0	  x0:0x00000000
       30005000	      2999	80003100	00000013	addi	x0,x0,0	  x0:0x00000000
       30015000	      3000	80003104	004000ef	jal	x1,80003104	  x1=0x80003104
       30025000	      3001	00000000	00000013	addi	x0,x0,0	  x0:0x00000000
       30035000	      3002	80003104	00000013	addi	x0,x0,0	  x0:0x00000000
       30045000	      3003	80003108	020000ef	jal	x1,80003108	  x1=0x80003108
       30055000	      3004	00000000	00000013	addi	x0,x0,0	  x0:0x00000000
       30065000	      3005	80003124	00000013	addi	x0,x0,0	  x0:0x00000000
       30075000	      3006	80003128	008000ef	jal	x1,80003128	  x1=0x80003128
       30085000	      3007	00000000	00000013	addi	x0,x0,0	  x0:0x00000000
       30095000	      3008	8000312c	00000013	addi	x0,x0,0	  x0:0x00000000
       30105000	      3009	80003130	008000ef	jal	x1,80003130	  x1=0x80003130
       30115000	      3010	00000000	00000013	addi	x0,x0,0	  x0:0x00000000
       30125000	      3011	80003134	00000013	addi	x0,x0,0	  x0:0x00000000
       30135000	      3012	80003138	fddff36f	jal	x6,80003138	  x6=0x80003138
       30145000	      3013	00000000	00000013	addi	x0,x0,0	  x0:0x00000000
       30155000	      3014	80003110	00000013	addi	x0,x0,0	  x0:0x00000000
       30165000	      3015	80003114	fe5ff1ef	jal	x3,80003114	  x3=0x80003114
       30175000	      3016	00000000	00000013	addi	x0,x0,0	  x0:0x00000000
       30185000	      3017	800030f4	00000013	addi	x0,x0,0	  x0:0x00000000
       30195000	      3018	800030f8	0040036f	jal	x6,800030f8	  x6=0x800030f8
       30205000	      3019	00000000	00000013	addi	x0,x0,0	  x0:0x00000000
       30215000	      3020	800030f8	00000013	addi	x0,x0,0	  x0:0x00000000
       30225000	      3021	800030fc	030001ef	jal	x3,800030fc	  x3=0x800030fc
       30235000	      3022	00000000	00000013	addi	x0,x0,0	  x0:0x00000000
       30245000	      3023	80003128	00000013	addi	x0,x0,0	  x0:0x00000000
       30255000	      3024	8000312c	010000ef	jal	x1,8000312c	  x1=0x8000312c
       30265000	      3025	00000000	00000013	addi	x0,x0,0	  x0:0x00000000
       30275000	      3026	80003138	00000013	addi	x0,x0,0	  x0:0x00000000
       30285000	      3027	8000313c	010ea9b3	slt	x19,x29,x16	 x29:0xffffff00 x16:0x00000001 x19=0x00000001
       30295000	      3028	80003140	40f189b3	sub	x19,x3,x15	  x3:0x800030fc x15:0x80002910 x19=0x000007ec
       30305000	      3029	80003144	00529193	slli	x3,x5,0x5	  x5:0x80003120  x3=0x00062400
       30315000	      3030	80003148	32cea993	slti	x19,x29,812	 x29:0xffffff00 x19=0x00000001
       30325000	      3031	8000314c	40cfde13	srai	x28,x31,0xc	 x31:0x80009ef4 x28=0xfff80009
       30335000	      3032	80003150	00645733	srl	x14,x8,x6	  x8:0x00080002  x6:0x800030f8 x14=0x00000000
       30345000	      3033	80003154	2be5b593	sltiu	x11,x11,702	 x11:0x16e00000 x11=0x00000000
       30355000	      3034	80003158	40485a93	srai	x21,x16,0x4	 x16:0x00000001 x21=0x00000000
       30365000	      3035	8000315c	009e7a63	bgeu	x28,x9,80003170	 x28:0xfff80009  x9:0x00400d9a
       30375000	      3036	00000000	00000013	addi	x0,x0,0	  x0:0x00000000
       30385000	      3037	8000316c	00000013	addi	x0,x0,0	  x0:0x00000000
       30395000	      3038	80003170	41db5613	srai	x12,x22,0x1d	 x22:0x80082912 x12=0xfffffffc
       30405000	      3039	80003174	0352fe63	bgeu	x5,x21,800031b0	  x5:0x80003120 x21:0x00000000
       30415000	      3040	00000000	00000013	addi	x0,x0,0	  x0:0x00000000
       30425000	      3041	800031ac	00000013	addi	x0,x0,0	  x0:0x00000000
       30435000	      3042	800031b0	1f730e37	lui	x28,0x1f730	 x28=0x1f730000
       30445000	      3043	800031b4	2273ba97	auipc	x21,0x2273b	 x21=0xa273e1b0
       30455000	      3044	800031b8	41d10833	sub	x16,x2,x29	  x2:0x80002910 x29:0xffffff00 x16=0x80002a10
       30465000	      3045	800031bc	3b686113	ori	x2,x16,950	 x16:0x80002a10  x2=0x80002bb6
       30475000	      3046	800031c0	3484c113	xori	x2,x9,840	  x9:0x00400d9a  x2=0x00400ed2
       30485000	      3047	800031c4	00000013	addi	x0,x0,0	  x0:0x00000000
       30495000	      3048	800031c8	496a9897	auipc	x17,0x496a9	 x17=0xc96ac1c4
       30505000	      3049	800031cc	00c46663	bltu	x8,x12,800031d8	  x8:0x00080002 x12:0xfffffffc
       30515000	      3050	00000000	00000013	addi	x0,x0,0	  x0:0x00000000
       30525000	      3051	800031d4	00000013	addi	x0,x0,0	  x0:0x00000000
       30535000	      3052	800031d8	9dc84337	lui	x6,0x9dc84	  x6=0x9dc84000
       30545000	      3053	800031dc	01424c63	blt	x4,x20,800031f4	  x4:0xff600000 x20:0x00000000
       30555000	      3054	00000000	00000013	addi	x0,x0,0	  x0:0x00000000
       30565000	      3055	800031f0	00000013	addi	x0,x0,0	  x0:0x00000000
       30575000	      3056	800031f4	01cba9b3	slt	x19,x23,x28	 x23:0x00000035 x28:0x1f730000 x19=0x00000001
       30585000	      3057	800031f8	941b7a93	andi	x21,x22,-1727	 x22:0x80082912 x21=0x80082900
       30595000	      3058	800031fc	037b9463	bne	x23,x23,80003224	 x23:0x00000035 x23:0x00000035
       30605000	      3059	80003200	2dd5ec13	ori	x24,x11,733	 x11:0x00000000 x24=0x000002dd
       30615000	      3060	80003204	e45a0513	addi	x10,x20,-443	 x20:0x00000000 x10=0xfffffe45
       30625000	      3061	80003208	00349c13	slli	x24,x9,0x3	  x9:0x00400d9a x24=0x02006cd0
       30635000	      3062	8000320c	00d3aa13	slti	x20,x7,13	  x7:0x0000b6d4 x20=0x00000000
       30645000	      3063	80003210	01853533	sltu	x10,x10,x24	 x10:0xfffffe45 x24:0x02006cd0 x10=0x00000000
       30655000	      3064	80003214	01d8e463	bltu	x17,x29,8000321c	 x17:0xc96ac1c4 x29:0xffffff00
       30665000	      3065	00000000	00000013	addi	x0,x0,0	  x0:0x00000000
       30675000	      3066	80003218	00000013	addi	x0,x0,0	  x0:0x00000000
       30685000	      3067	8000321c	dec20d13	addi	x26,x4,-532	  x4:0xff600000 x26=0xff5ffdec
       30695000	      3068	80003220	2d1c0113	addi	x2,x24,721	 x24:0x02006cd0  x2=0x02006fa1
       30705000	      3069	80003224	407f0033	sub	x0,x30,x7	 x30:0x80002840  x7:0x0000b6d4
       30715000	      3070	80003228	04a47063	bgeu	x8,x10,80003268	  x8:0x00080002 x10:0x00000000
       30725000	      3071	00000000	00000013	addi	x0,x0,0	  x0:0x00000000
       30735000	      3072	80003264	00000013	addi	x0,x0,0	  x0:0x00000000
       30745000	      3073	80003268	eaf28993	addi	x19,x5,-337	  x5:0x80003120 x19=0x80002fcf
       30755000	      3074	8000326c	00000013	addi	x0,x0,0	  x0:0x00000000
       30765000	      3075	80003270	01220333	add	x6,x4,x18	  x4:0xff600000 x18:0x80009fc4  x6=0x7f609fc4
       30775000	      3076	80003274	05144463	blt	x8,x17,800032bc	  x8:0x00080002 x17:0xc96ac1c4
       30785000	      3077	80003278	0016ec63	bltu	x13,x1,80003290	 x13:0xfffffff8  x1:0x8000312c
       30795000	      3078	8000327c	00899713	slli	x14,x19,0x8	 x19:0x80002fcf x14=0x002fcf00
       30805000	      3079	80003280	26eee213	ori	x4,x29,622	 x29:0xffffff00  x4=0xffffff6e
       30815000	      3080	80003284	4122d533	sra	x10,x5,x18	  x5:0x80003120 x18:0x80009fc4 x10=0xf8000312
       30825000	      3081	80003288	007a0c63	beq	x20,x7,800032a0	 x20:0x00000000  x7:0x0000b6d4
       30835000	      3082	8000328c	017efc63	bgeu	x29,x23,800032a4	 x29:0xffffff00 x23:0x00000035
       30845000	      3083	00000000	00000013	addi	x0,x0,0	  x0:0x00000000
       30855000	      3084	800032a0	00000013	addi	x0,x0,0	  x0:0x00000000
       30865000	      3085	800032a4	01085533	srl	x10,x16,x16	 x16:0x80002a10 x16:0x80002a10 x10=0x00008000
       30875000	      3086	800032a8	af688493	addi	x9,x17,-1290	 x17:0xc96ac1c4  x9=0xc96abcba
       30885000	      3087	800032ac	c8592e93	slti	x29,x18,-891	 x18:0x80009fc4 x29=0x00000001
       30895000	      3088	800032b0	4004d393	srai	x7,x9,0x0	  x9:0xc96abcba  x7=0xc96abcba
       30905000	      3089	800032b4	012c32b3	sltu	x5,x24,x18	 x24:0x02006cd0 x18:0x80009fc4  x5=0x00000001
       30915000	      3090	800032b8	0018c7b3	xor	x15,x17,x1	 x17:0xc96ac1c4  x1:0x8000312c x15=0x496af0e8
       30925000	      3091	800032bc	00dd2433	slt	x8,x26,x13	 x26:0xff5ffdec x13:0xfffffff8  x8=0x00000001
       30935000	      3092	800032c0	66aae193	ori	x3,x21,1642	 x21:0x80082900  x3=0x80082f6a
       30945000	      3093	800032c4	0027c0b3	xor	x1,x15,x2	 x15:0x496af0e8  x2:0x02006fa1  x1=0x4b6a9f49
       30955000	      3094	800032c8	28c94b17	auipc	x22,0x28c94	 x22=0xa8c972c4
       30965000	      3095	800032cc	018e1863	bne	x28,x24,800032dc	 x28:0x1f730000 x24:0x02006cd0
       30975000	      3096	00000000	00000013	addi	x0,x0,0	  x0:0x00000000
       30985000	      3097	800032d8	00000013	addi	x0,x0,0	  x0:0x00000000
       30995000	      3098	800032dc	6672cd13	xori	x26,x5,1639	  x5:0x00000001 x26=0x00000666
       31005000	      3099	800032e0	419102b3	sub	x5,x2,x25	  x2:0x02006fa1 x25:0x80002910  x5=0x82004691
       31015000	      3100	800032e4	00000013	addi	x0,x0,0	  x0:0x00000000
       31025000	      3101	800032e8	e0ddb313	sltiu	x6,x27,-499	 x27:0x00000000  x6=0x00000001
       31035000	      3102	800032ec	41575393	srai	x7,x14,0x15	 x14:0x002fcf00  x7=0x00000001
       31045000	      3103	800032f0	01d682b3	add	x5,x13,x29	 x13:0xfffffff8 x29:0x00000001  x5=0xfffffff9
       31055000	      3104	800032f4	0437c263	blt	x15,x3,80003338	 x15:0x496af0e8  x3:0x80082f6a
       31065000	      3105	800032f8	008d9133	sll	x2,x27,x8	 x27:0x00000000  x8:0x00000001  x2=0x00000000
       31075000	      3106	800032fc	02588863	beq	x17,x5,8000332c	 x17:0xc96ac1c4  x5:0xfffffff9
       31085000	      3107	80003300	0174c463	blt	x9,x23,80003308	  x9:0xc96abcba x23:0x00000035
       31095000	      3108	00000000	00000013	addi	x0,x0,0	  x0:0x00000000
       31105000	      3109	80003304	00000013	addi	x0,x0,0	  x0:0x00000000
       31115000	      3110	80003308	0023e463	bltu	x7,x2,80003310	  x7:0x00000001  x2:0x00000000
       31125000	      3111	8000330c	0323d463	bge	x7,x18,80003334	  x7:0x00000001 x18:0x80009fc4
       31135000	      3112	00000000	00000013	addi	x0,x0,0	  x0:0x00000000
       31145000	      3113	80003330	00000013	addi	x0,x0,0	  x0:0x00000000
       31155000	      3114	80003334	006a4eb3	xor	x29,x20,x6	 x20:0x00000000  x6:0x00000001 x29=0x00000001
       31165000	      3115	80003338	09964c63	blt	x12,x25,800033d0	 x12:0xfffffffc x25:0x80002910
       31175000	      3116	8000333c	01ca1b13	slli	x22,x20,0x1c	 x20:0x00000000 x22=0x00000000
       31185000	      3117	80003340	0bb5d663	bge	x11,x27,800033ec	 x11:0x00000000 x27:0x00000000
       31195000	      3118	00000000	00000013	addi	x0,x0,0	  x0:0x00000000
       31205000	      3119	800033e8	00000013	addi	x0,x0,0	  x0:0x00000000
       31215000	      3120	800033ec	01cea633	slt	x12,x29,x28	 x29:0x00000001 x28:0x1f730000 x12=0x00000001
       31225000	      3121	800033f0	ba0d2b13	slti	x22,x26,-1120	 x26:0x00000666 x22=0x00000000
       31235000	      3122	800033f4	00518eb3	add	x29,x3,x5	  x3:0x80082f6a  x5:0xfffffff9 x29=0x80082f63
       31245000	      3123	800033f8	01e45463	bge	x8,x30,80003400	  x8:0x00000001 x30:0x80002840
       31255000	      3124	00000000	00000013	addi	x0,x0,0	  x0:0x00000000
       31265000	      3125	800033fc	00000013	addi	x0,x0,0	  x0:0x00000000
       31275000	      3126	80003400	007c83b3	add	x7,x25,x7	 x25:0x80002910  x7:0x00000001  x7=0x80002911
       31285000	      3127	80003404	40ccd9b3	sra	x19,x25,x12	 x25:0x80002910 x12:0x00000001 x19=0xc0001488
       31295000	      3128	80003408	048000ef	jal	x1,80003408	  x1=0x80003408
       31305000	      3129	00000000	00000013	addi	x0,x0,0	  x0:0x00000000
       31315000	      3130	8000344c	00000013	addi	x0,x0,0	  x0:0x00000000
       31325000	      3131	80003450	fe1ffd6f	jal	x26,80003450	 x26=0x80003450
       31335000	      3132	00000000	00000013	addi	x0,x0,0	  x0:0x00000000
       31345000	      3133	8000342c	00000013	addi	x0,x0,0	  x0:0x00000000
       31355000	      3134	80003430	01c0036f	jal	x6,80003430	  x6=0x80003430
       31365000	      3135	00000000	00000013	addi	x0,x0,0	  x0:0x00000000
       31375000	      3136	80003448	00000013	addi	x0,x0,0	  x0:0x00000000
       31385000	      3137	8000344c	fedff0ef	jal	x1,8000344c	  x1=0x8000344c
       31395000	      3138	00000000	00000013	addi	x0,x0,0	  x0:0x00000000
       31405000	      3139	80003434	00000013	addi	x0,x0,0	  x0:0x00000000
       31415000	      3140	80003438	00c0016f	jal	x2,80003438	  x2=0x80003438
       31425000	      3141	00000000	00000013	addi	x0,x0,0	  x0:0x00000000
       31435000	      3142	80003440	00000013	addi	x0,x0,0	  x0:0x00000000
       31445000	      3143	80003444	fd1ff3ef	jal	x7,80003444	  x7=0x80003444
       31455000	      3144	00000000	00000013	addi	x0,x0,0	  x0:0x00000000
       31465000	      3145	80003410	00000013	addi	x0,x0,0	  x0:0x00000000
       31475000	      3146	80003414	010000ef	jal	x1,80003414	  x1=0x80003414
       31485000	      3147	00000000	00000013	addi	x0,x0,0	  x0:0x00000000
       31495000	      3148	80003420	00000013	addi	x0,x0,0	  x0:0x00000000
       31505000	      3149	80003424	00400bef	jal	x23,80003424	 x23=0x80003424
       31515000	      3150	00000000	00000013	addi	x0,x0,0	  x0:0x00000000
       31525000	      3151	80003424	00000013	addi	x0,x0,0	  x0:0x00000000
       31535000	      3152	80003428	ff9ffc6f	jal	x24,80003428	 x24=0x80003428
       31545000	      3153	00000000	00000013	addi	x0,x0,0	  x0:0x00000000
       31555000	      3154	8000341c	00000013	addi	x0,x0,0	  x0:0x00000000
       31565000	      3155	80003420	02800d6f	jal	x26,80003420	 x26=0x80003420
       31575000	      3156	00000000	00000013	addi	x0,x0,0	  x0:0x00000000
       31585000	      3157	80003444	00000013	addi	x0,x0,0	  x0:0x00000000
       31595000	      3158	80003448	010000ef	jal	x1,80003448	  x1=0x80003448
       31605000	      3159	00000000	00000013	addi	x0,x0,0	  x0:0x00000000
       31615000	      3160	80003454	00000013	addi	x0,x0,0	  x0:0x00000000
       31625000	      3161	80003458	fb5ff36f	jal	x6,80003458	  x6=0x80003458
       31635000	      3162	00000000	00000013	addi	x0,x0,0	  x0:0x00000000
       31645000	      3163	80003408	00000013	addi	x0,x0,0	  x0:0x00000000
       31655000	      3164	8000340c	00c005ef	jal	x11,8000340c	 x11=0x8000340c
       31665000	      3165	00000000	00000013	addi	x0,x0,0	  x0:0x00000000
       31675000	      3166	80003414	00000013	addi	x0,x0,0	  x0:0x00000000
       31685000	      3167	80003418	014000ef	jal	x1,80003418	  x1=0x80003418
       31695000	      3168	00000000	00000013	addi	x0,x0,0	  x0:0x00000000
       31705000	      3169	80003428	00000013	addi	x0,x0,0	  x0:0x00000000
       31715000	      3170	8000342c	0100036f	jal	x6,8000342c	  x6=0x8000342c
       31725000	      3171	00000000	00000013	addi	x0,x0,0	  x0:0x00000000
       31735000	      3172	80003438	00000013	addi	x0,x0,0	  x0:0x00000000
       31745000	      3173	8000343c	004000ef	jal	x1,8000343c	  x1=0x8000343c
       31755000	      3174	00000000	00000013	addi	x0,x0,0	  x0:0x00000000
       31765000	      3175	8000343c	00000013	addi	x0,x0,0	  x0:0x00000000
       31775000	      3176	80003440	fd1ff2ef	jal	x5,80003440	  x5=0x80003440
       31785000	      3177	00000000	00000013	addi	x0,x0,0	  x0:0x00000000
       31795000	      3178	8000340c	00000013	addi	x0,x0,0	  x0:0x00000000
       31805000	      3179	80003410	044000ef	jal	x1,80003410	  x1=0x80003410
       31815000	      3180	00000000	00000013	addi	x0,x0,0	  x0:0x00000000
       31825000	      3181	80003450	00000013	addi	x0,x0,0	  x0:0x00000000
       31835000	      3182	80003454	fc9ff0ef	jal	x1,80003454	  x1=0x80003454
       31845000	      3183	00000000	00000013	addi	x0,x0,0	  x0:0x00000000
       31855000	      3184	80003418	00000013	addi	x0,x0,0	  x0:0x00000000
       31865000	      3185	8000341c	018000ef	jal	x1,8000341c	  x1=0x8000341c
       31875000	      3186	00000000	00000013	addi	x0,x0,0	  x0:0x00000000
       31885000	      3187	80003430	00000013	addi	x0,x0,0	  x0:0x00000000
       31895000	      3188	80003434	028000ef	jal	x1,80003434	  x1=0x80003434
       31905000	      3189	00000000	00000013	addi	x0,x0,0	  x0:0x00000000
       31915000	      3190	80003458	00000013	addi	x0,x0,0	  x0:0x00000000
       31925000	      3191	8000345c	004000ef	jal	x1,8000345c	  x1=0x8000345c
       31935000	      3192	00000000	00000013	addi	x0,x0,0	  x0:0x00000000
       31945000	      3193	8000345c	00000013	addi	x0,x0,0	  x0:0x00000000
       31955000	      3194	80003460	00b289b3	add	x19,x5,x11	  x5:0x80003440 x11:0x8000340c x19=0x0000684c
       31965000	      3195	80003464	406357b3	sra	x15,x6,x6	  x6:0x8000342c  x6:0x8000342c x15=0xfff80003
       31975000	      3196	80003468	76508b93	addi	x23,x1,1893	  x1:0x8000345c x23=0x80003bc1
       31985000	      3197	8000346c	40584c13	xori	x24,x16,1029	 x16:0x80002a10 x24=0x80002e15
       31995000	      3198	80003470	46ff7e93	andi	x29,x30,1135	 x30:0x80002840 x29=0x00000040
       32005000	      3199	80003474	011f4233	xor	x4,x30,x17	 x30:0x80002840 x17:0xc96ac1c4  x4=0x496ae984
       32015000	      3200	80003478	8cc13313	sltiu	x6,x2,-1844	  x2:0x80003438  x6=0x00000001
       32025000	      3201	8000347c	9e59a513	slti	x10,x19,-1563	 x19:0x0000684c x10=0x00000000
       32035000	      3202	80003480	0076d0b3	srl	x1,x13,x7	 x13:0xfffffff8  x7:0x80003444  x1=0x0fffffff
       32045000	      3203	80003484	011dd813	srli	x16,x27,0x11	 x27:0x00000000 x16=0x00000000
       32055000	      3204	80003488	6ecef193	andi	x3,x29,1772	 x29:0x00000040  x3=0x00000040
       32065000	      3205	8000348c	01dcf733	and	x14,x25,x29	 x25:0x80002910 x29:0x00000040 x14=0x00000000
       32075000	      3206	80003490	01fa56b3	srl	x13,x20,x31	 x20:0x00000000 x31:0x80009ef4 x13=0x00000000
       32085000	      3207	80003494	013b9593	slli	x11,x23,0x13	 x23:0x80003bc1 x11=0xde080000
       32095000	      3208	80003498	0184ab33	slt	x22,x9,x24	  x9:0xc96abcba x24:0x80002e15 x22=0x00000000
       32105000	      3209	8000349c	01fc1ab3	sll	x21,x24,x31	 x24:0x80002e15 x31:0x80009ef4 x21=0xe1500000
       32115000	      3210	800034a0	4195d833	sra	x16,x11,x25	 x11:0xde080000 x25:0x80002910 x16=0xffffde08
       32125000	      3211	800034a4	000937b3	sltu	x15,x18,x0	 x18:0x80009fc4  x0:0x00000000 x15=0x00000000
       32135000	      3212	800034a8	f1ee6b13	ori	x22,x28,-226	 x28:0x1f730000 x22=0xffffff1e
       32145000	      3213	800034ac	0076db33	srl	x22,x13,x7	 x13:0x00000000  x7:0x80003444 x22=0x00000000
       32155000	      3214	800034b0	0505ee63	bltu	x11,x16,8000350c	 x11:0xde080000 x16:0xffffde08
       32165000	      3215	00000000	00000013	addi	x0,x0,0	  x0:0x00000000
       32175000	      3216	80003508	00000013	addi	x0,x0,0	  x0:0x00000000
       32185000	      3217	8000350c	76cbc113	xori	x2,x23,1900	 x23:0x80003bc1  x2=0x80003cad
       32195000	      3218	80003510	41b35c33	sra	x24,x6,x27	  x6:0x00000001 x27:0x00000000 x24=0x00000001
       32205000	      3219	80003514	00949533	sll	x10,x9,x9	  x9:0xc96abcba  x9:0xc96abcba x10=0xe8000000
       32215000	      3220	80003518	00fe5333	srl	x6,x28,x15	 x28:0x1f730000 x15:0x00000000  x6=0x1f730000
       32225000	      3221	8000351c	008486b3	add	x13,x9,x8	  x9:0xc96abcba  x8:0x00000001 x13=0xc96abcbb
       32235000	      3222	80003520	00000013	addi	x0,x0,0	  x0:0x00000000
       32245000	      3223	80003524	019f65b3	or	x11,x30,x25	 x30:0x80002840 x25:0x80002910 x11=0x80002950
       32255000	      3224	80003528	eedcc313	xori	x6,x25,-275	 x25:0x80002910  x6=0x7fffd7fd
       32265000	      3225	8000352c	9f867193	andi	x3,x12,-1544	 x12:0x00000001  x3=0x00000000
       32275000	      3226	80003530	4073d733	sra	x14,x7,x7	  x7:0x80003444  x7:0x80003444 x14=0xf8000344
       32285000	      3227	80003534	01209393	slli	x7,x1,0x12	  x1:0x0fffffff  x7=0xfffc0000
       32295000	      3228	80003538	00e092b3	sll	x5,x1,x14	  x1:0x0fffffff x14:0xf8000344  x5=0xfffffff0
       32305000	      3229	8000353c	87bf4e13	xori	x28,x30,-1925	 x30:0x80002840 x28=0x7fffd03b
       32315000	      3230	80003540	01981093	slli	x1,x16,0x19	 x16:0xffffde08  x1=0x10000000
       32325000	      3231	80003544	001f0863	beq	x30,x1,80003554	 x30:0x80002840  x1:0x10000000
       32335000	      3232	80003548	9b033f13	sltiu	x30,x6,-1616	  x6:0x7fffd7fd x30=0x00000001
       32345000	      3233	8000354c	01b47833	and	x16,x8,x27	  x8:0x00000001 x27:0x00000000 x16=0x00000000
       32355000	      3234	80003550	41e157b3	sra	x15,x2,x30	  x2:0x80003cad x30:0x00000001 x15=0xc0001e56
       32365000	      3235	80003554	0144f533	and	x10,x9,x20	  x9:0xc96abcba x20:0x00000000 x10=0x00000000
       32375000	      3236	80003558	5d20f513	andi	x10,x1,1490	  x1:0x10000000 x10=0x00000000
       32385000	      3237	8000355c	016c2233	slt	x4,x24,x22	 x24:0x00000001 x22:0x00000000  x4=0x00000000
       32395000	      3238	80003560	0160f663	bgeu	x1,x22,8000356c	  x1:0x10000000 x22:0x00000000
       32405000	      3239	00000000	00000013	addi	x0,x0,0	  x0:0x00000000
       32415000	      3240	80003568	00000013	addi	x0,x0,0	  x0:0x00000000
       32425000	      3241	8000356c	15609c37	lui	x24,0x15609	 x24=0x15609000
       32435000	      3242	80003570	41f7db33	sra	x22,x15,x31	 x15:0xc0001e56 x31:0x80009ef4 x22=0xfffffc00
       32445000	      3243	80003574	40b10533	sub	x10,x2,x11	  x2:0x80003cad x11:0x80002950 x10=0x0000135d
       32455000	      3244	80003578	35e7b313	sltiu	x6,x15,862	 x15:0xc0001e56  x6=0x00000000
       32465000	      3245	8000357c	5e64beb7	lui	x29,0x5e64b	 x29=0x5e64b000
       32475000	      3246	80003580	417e89b3	sub	x19,x29,x23	 x29:0x5e64b000 x23:0x80003bc1 x19=0xde64743f
       32485000	      3247	80003584	414e50b3	sra	x1,x28,x20	 x28:0x7fffd03b x20:0x00000000  x1=0x7fffd03b
       32495000	      3248	80003588	00e6d9b3	srl	x19,x13,x14	 x13:0xc96abcbb x14:0xf8000344 x19=0x0c96abcb
       32505000	      3249	8000358c	00bb36b3	sltu	x13,x22,x11	 x22:0xfffffc00 x11:0x80002950 x13=0x00000000
       32515000	      3250	80003590	7c2a0e13	addi	x28,x20,1986	 x20:0x00000000 x28=0x000007c2
       32525000	      3251	80003594	bf57a997	auipc	x19,0xbf57a	 x19=0x3f57d590
       32535000	      3252	80003598	0df34993	xori	x19,x6,223	  x6:0x00000000 x19=0x000000df
       32545000	      3253	8000359c	cb2672b7	lui	x5,0xcb267	  x5=0xcb267000
       32555000	      3254	800035a0	96651d17	auipc	x26,0x96651	 x26=0x1665459c
       32565000	      3255	800035a4	4baef593	andi	x11,x29,1210	 x29:0x5e64b000 x11=0x00000000
       32575000	      3256	800035a8	fa21ef37	lui	x30,0xfa21e	 x30=0xfa21e000
       32585000	      3257	800035ac	48e23713	sltiu	x14,x4,1166	  x4:0x00000000 x14=0x00000001
       32595000	      3258	800035b0	01810d33	add	x26,x2,x24	  x2:0x80003cad x24:0x15609000 x26=0x9560ccad
       32605000	      3259	800035b4	001395b3	sll	x11,x7,x1	  x7:0xfffc0000  x1:0x7fffd03b x11=0x00000000
       32615000	      3260	800035b8	053dc463	blt	x27,x19,80003600	 x27:0x00000000 x19:0x000000df
       32625000	      3261	00000000	00000013	addi	x0,x0,0	  x0:0x00000000
       32635000	      3262	800035fc	00000013	addi	x0,x0,0	  x0:0x00000000
       32645000	      3263	80003600	0103c2b3	xor	x5,x7,x16	  x7:0xfffc0000 x16:0x00000000  x5=0xfffc0000
       32655000	      3264	80003604	93028413	addi	x8,x5,-1744	  x5:0xfffc0000  x8=0xfffbf930
       32665000	      3265	80003608	0216fa63	bgeu	x13,x1,8000363c	 x13:0x00000000  x1:0x7fffd03b
       32675000	      3266	8000360c	19e34593	xori	x11,x6,414	  x6:0x00000000 x11=0x0000019e
       32685000	      3267	80003610	01596633	or	x12,x18,x21	 x18:0x80009fc4 x21:0xe1500000 x12=0xe1509fc4
       32695000	      3268	80003614	03227463	bgeu	x4,x18,8000363c	  x4:0x00000000 x18:0x80009fc4
       32705000	      3269	80003618	4182d333	sra	x6,x5,x24	  x5:0xfffc0000 x24:0x15609000  x6=0xfffc0000
       32715000	      3270	8000361c	9fbbaf13	slti	x30,x23,-1541	 x23:0x80003bc1 x30=0x00000001
       32725000	      3271	80003620	407c0f33	sub	x30,x24,x7	 x24:0x15609000  x7:0xfffc0000 x30=0x15649000
       32735000	      3272	80003624	01438533	add	x10,x7,x20	  x7:0xfffc0000 x20:0x00000000 x10=0xfffc0000
       32745000	      3273	80003628	00b734b3	sltu	x9,x14,x11	 x14:0x00000001 x11:0x0000019e  x9=0x00000001
       32755000	      3274	8000362c	debeca13	xori	x20,x29,-533	 x29:0x5e64b000 x20=0xa19b4deb
       32765000	      3275	80003630	00d1db93	srli	x23,x3,0xd	  x3:0x00000000 x23=0x00000000
       32775000	      3276	80003634	00702a33	slt	x20,x0,x7	  x0:0x00000000  x7:0xfffc0000 x20=0x00000000
       32785000	      3277	80003638	01415333	srl	x6,x2,x20	  x2:0x80003cad x20:0x00000000  x6=0x80003cad
       32795000	      3278	8000363c	cd4be893	ori	x17,x23,-812	 x23:0x00000000 x17=0xfffffcd4
       32805000	      3279	80003640	011be733	or	x14,x23,x17	 x23:0x00000000 x17:0xfffffcd4 x14=0xfffffcd4
       32815000	      3280	80003644	0336f863	bgeu	x13,x19,80003674	 x13:0x00000000 x19:0x000000df
       32825000	      3281	80003648	00600a63	beq	x0,x6,8000365c	  x0:0x00000000  x6:0x80003cad
       32835000	      3282	8000364c	52df7f13	andi	x30,x30,1325	 x30:0x15649000 x30=0x00000000
       32845000	      3283	80003650	04120463	beq	x4,x1,80003698	  x4:0x00000000  x1:0x7fffd03b
       32855000	      3284	80003654	03819463	bne	x3,x24,8000367c	  x3:0x00000000 x24:0x15609000
       32865000	      3285	00000000	00000013	addi	x0,x0,0	  x0:0x00000000
       32875000	      3286	80003678	00000013	addi	x0,x0,0	  x0:0x00000000
       32885000	      3287	8000367c	00dbc333	xor	x6,x23,x13	 x23:0x00000000 x13:0x00000000  x6=0x00000000
       32895000	      3288	80003680	014ee263	bltu	x29,x20,80003684	 x29:0x5e64b000 x20:0x00000000
       32905000	      3289	80003684	016e06b3	add	x13,x28,x22	 x28:0x000007c2 x22:0xfffffc00 x13=0x000003c2
       32915000	      3290	80003688	047cf463	bgeu	x25,x7,800036d0	 x25:0x80002910  x7:0xfffc0000
       32925000	      3291	8000368c	05264063	blt	x12,x18,800036cc	 x12:0xe1509fc4 x18:0x80009fc4
       32935000	      3292	80003690	015a0c63	beq	x20,x21,800036a8	 x20:0x00000000 x21:0xe1500000
       32945000	      3293	80003694	40f35f13	srai	x30,x6,0xf	  x6:0x00000000 x30=0x00000000
       32955000	      3294	80003698	05171863	bne	x14,x17,800036e8	 x14:0xfffffcd4 x17:0xfffffcd4
       32965000	      3295	8000369c	00d506b3	add	x13,x10,x13	 x10:0xfffc0000 x13:0x000003c2 x13=0xfffc03c2
       32975000	      3296	800036a0	01f9ce63	blt	x19,x31,800036bc	 x19:0x000000df x31:0x80009ef4
       32985000	      3297	800036a4	419b0d33	sub	x26,x22,x25	 x22:0xfffffc00 x25:0x80002910 x26=0x7fffd2f0
       32995000	      3298	800036a8	011a9263	bne	x21,x17,800036ac	 x21:0xe1500000 x17:0xfffffcd4
       33005000	      3299	00000000	00000013	addi	x0,x0,0	  x0:0x00000000
       33015000	      3300	800036a8	00000013	addi	x0,x0,0	  x0:0x00000000
       33025000	      3301	800036ac	009b2d33	slt	x26,x22,x9	 x22:0xfffffc00  x9:0x00000001 x26=0x00000001
       33035000	      3302	800036b0	01fd9833	sll	x16,x27,x31	 x27:0x00000000 x31:0x80009ef4 x16=0x00000000
       33045000	      3303	800036b4	ff1a6897	auipc	x17,0xff1a6	 x17=0x7f1a96b0
       33055000	      3304	800036b8	40c20333	sub	x6,x4,x12	  x4:0x00000000 x12:0xe1509fc4  x6=0x1eaf603c
       33065000	      3305	800036bc	26496a93	ori	x21,x18,612	 x18:0x80009fc4 x21=0x80009fe4
       33075000	      3306	800036c0	412052b3	sra	x5,x0,x18	  x0:0x00000000 x18:0x80009fc4  x5=0x00000000
       33085000	      3307	800036c4	015399b3	sll	x19,x7,x21	  x7:0xfffc0000 x21:0x80009fe4 x19=0xffc00000
       33095000	      3308	800036c8	00f42c33	slt	x24,x8,x15	  x8:0xfffbf930 x15:0xc0001e56 x24=0x00000000
       33105000	      3309	800036cc	017e1c63	bne	x28,x23,800036e4	 x28:0x000007c2 x23:0x00000000
       33115000	      3310	00000000	00000013	addi	x0,x0,0	  x0:0x00000000
       33125000	      3311	800036e0	00000013	addi	x0,x0,0	  x0:0x00000000
       33135000	      3312	800036e4	00075c33	srl	x24,x14,x0	 x14:0xfffffcd4  x0:0x00000000 x24=0xfffffcd4
       33145000	      3313	800036e8	ca536f13	ori	x30,x6,-859	  x6:0x1eaf603c x30=0xfffffcbd
       33155000	      3314	800036ec	005db633	sltu	x12,x27,x5	 x27:0x00000000  x5:0x00000000 x12=0x00000000
       33165000	      3315	800036f0	00ded463	bge	x29,x13,800036f8	 x29:0x5e64b000 x13:0xfffc03c2
       33175000	      3316	00000000	00000013	addi	x0,x0,0	  x0:0x00000000
       33185000	      3317	800036f4	00000013	addi	x0,x0,0	  x0:0x00000000
       33195000	      3318	800036f8	00edb633	sltu	x12,x27,x14	 x27:0x00000000 x14:0xfffffcd4 x12=0x00000001
       33205000	      3319	800036fc	41abd893	srai	x17,x23,0x1a	 x23:0x00000000 x17=0x00000000
       33215000	      3320	80003700	3149b013	sltiu	x0,x19,788	 x19:0xffc00000
       33225000	      3321	80003704	014e1013	slli	x0,x28,0x14	 x28:0x000007c2
       33235000	      3322	80003708	412687b3	sub	x15,x13,x18	 x13:0xfffc03c2 x18:0x80009fc4 x15=0x7ffb63fe
       33245000	      3323	8000370c	0421d263	bge	x3,x2,80003750	  x3:0x00000000  x2:0x80003cad
       33255000	      3324	00000000	00000013	addi	x0,x0,0	  x0:0x00000000
       33265000	      3325	8000374c	00000013	addi	x0,x0,0	  x0:0x00000000
       33275000	      3326	80003750	41bcde13	srai	x28,x25,0x1b	 x25:0x80002910 x28=0xfffffff0
       33285000	      3327	80003754	000fe233	or	x4,x31,x0	 x31:0x80009ef4  x0:0x00000000  x4=0x80009ef4
       33295000	      3328	80003758	0149f663	bgeu	x19,x20,80003764	 x19:0xffc00000 x20:0x00000000
       33305000	      3329	00000000	00000013	addi	x0,x0,0	  x0:0x00000000
       33315000	      3330	80003760	00000013	addi	x0,x0,0	  x0:0x00000000
       33325000	      3331	80003764	00c513b3	sll	x7,x10,x12	 x10:0xfffc0000 x12:0x00000001  x7=0xfff80000
       33335000	      3332	80003768	023d7e63	bgeu	x26,x3,800037a4	 x26:0x00000001  x3:0x00000000
       33345000	      3333	00000000	00000013	addi	x0,x0,0	  x0:0x00000000
       33355000	      3334	800037a0	00000013	addi	x0,x0,0	  x0:0x00000000
       33365000	      3335	800037a4	40990333	sub	x6,x18,x9	 x18:0x80009fc4  x9:0x00000001  x6=0x80009fc3
       33375000	      3336	800037a8	02ff9c63	bne	x31,x15,800037e0	 x31:0x80009ef4 x15:0x7ffb63fe
       33385000	      3337	00000000	00000013	addi	x0,x0,0	  x0:0x00000000
       33395000	      3338	800037dc	00000013	addi	x0,x0,0	  x0:0x00000000
       33405000	      3339	800037e0	00ca9793	slli	x15,x21,0xc	 x21:0x80009fe4 x15=0x09fe4000
       33415000	      3340	800037e4	01327433	and	x8,x4,x19	  x4:0x80009ef4 x19:0xffc00000  x8=0x80000000
       33425000	      3341	800037e8	be6dce93	xori	x29,x27,-1050	 x27:0x00000000 x29=0xfffffbe6
       33435000	      3342	800037ec	416059b3	sra	x19,x0,x22	  x0:0x00000000 x22:0xfffffc00 x19=0x00000000
       33445000	      3343	800037f0	0517f663	bgeu	x15,x17,8000383c	 x15:0x09fe4000 x17:0x00000000
       33455000	      3344	00000000	00000013	addi	x0,x0,0	  x0:0x00000000
       33465000	      3345	80003838	00000013	addi	x0,x0,0	  x0:0x00000000
       33475000	      3346	8000383c	be0c3993	sltiu	x19,x24,-1056	 x24:0xfffffcd4 x19=0x00000000
       33485000	      3347	80003840	004ed8b3	srl	x17,x29,x4	 x29:0xfffffbe6  x4:0x80009ef4 x17=0x00000fff
       33495000	      3348	80003844	00785a63	bge	x16,x7,80003858	 x16:0x00000000  x7:0xfff80000
       33505000	      3349	00000000	00000013	addi	x0,x0,0	  x0:0x00000000
       33515000	      3350	80003854	00000013	addi	x0,x0,0	  x0:0x00000000
       33525000	      3351	80003858	218cec97	auipc	x25,0x218ce	 x25=0xa18d1854
       33535000	      3352	8000385c	002e6c63	bltu	x28,x2,80003874	 x28:0xfffffff0  x2:0x80003cad
       33545000	      3353	80003860	408bd193	srai	x3,x23,0x8	 x23:0x00000000  x3=0x00000000
       33555000	      3354	80003864	016b6463	bltu	x22,x22,8000386c	 x22:0xfffffc00 x22:0xfffffc00
       33565000	      3355	80003868	de20fd13	andi	x26,x1,-542	  x1:0x7fffd03b x26=0x7fffd022
       33575000	      3356	8000386c	01eb58b3	srl	x17,x22,x30	 x22:0xfffffc00 x30:0xfffffcbd x17=0x00000007
       33585000	      3357	80003870	01f03eb3	sltu	x29,x0,x31	  x0:0x00000000 x31:0x80009ef4 x29=0x00000001
       33595000	      3358	80003874	01827633	and	x12,x4,x24	  x4:0x80009ef4 x24:0xfffffcd4 x12=0x80009cd4
       33605000	      3359	80003878	00a2d663	bge	x5,x10,80003884	  x5:0x00000000 x10:0xfffc0000
       33615000	      3360	00000000	00000013	addi	x0,x0,0	  x0:0x00000000
       33625000	      3361	80003880	00000013	addi	x0,x0,0	  x0:0x00000000
       33635000	      3362	80003884	00ae3b33	sltu	x22,x28,x10	 x28:0xfffffff0 x10:0xfffc0000 x22=0x00000000
       33645000	      3363	80003888	c2dc0b13	addi	x22,x24,-979	 x24:0xfffffcd4 x22=0xfffff901
       33655000	      3364	8000388c	f9ad2e13	slti	x28,x26,-102	 x26:0x7fffd022 x28=0x00000000
       33665000	      3365	80003890	0191abb3	slt	x23,x3,x25	  x3:0x00000000 x25:0xa18d1854 x23=0x00000000
       33675000	      3366	80003894	d7463c13	sltiu	x24,x12,-652	 x12:0x80009cd4 x24=0x00000001
       33685000	      3367	80003898	011d9393	slli	x7,x27,0x11	 x27:0x00000000  x7=0x00000000
       33695000	      3368	8000389c	00749433	sll	x8,x9,x7	  x9:0x00000001  x7:0x00000000  x8=0x00000001
       33705000	      3369	800038a0	26af0e93	addi	x29,x30,618	 x30:0xfffffcbd x29=0xffffff27
       33715000	      3370	800038a4	a9f98997	auipc	x19,0xa9f98	 x19=0x29f9b8a0
       33725000	      3371	800038a8	0cb9c093	xori	x1,x19,203	 x19:0x29f9b8a0  x1=0x29f9b86b
       33735000	      3372	800038ac	012253b3	srl	x7,x4,x18	  x4:0x80009ef4 x18:0x80009fc4  x7=0x080009ef
       33745000	      3373	800038b0	07ce4513	xori	x10,x28,124	 x28:0x00000000 x10=0x0000007c
       33755000	      3374	800038b4	840f2213	slti	x4,x30,-1984	 x30:0xfffffcbd  x4=0x00000000
       33765000	      3375	800038b8	00000013	addi	x0,x0,0	  x0:0x00000000
       33775000	      3376	800038bc	00f047b3	xor	x15,x0,x15	  x0:0x00000000 x15:0x09fe4000 x15=0x09fe4000
       33785000	      3377	800038c0	0162dd33	srl	x26,x5,x22	  x5:0x00000000 x22:0xfffff901 x26=0x00000000
       33795000	      3378	800038c4	414fdbb3	sra	x23,x31,x20	 x31:0x80009ef4 x20:0x00000000 x23=0x80009ef4
       33805000	      3379	800038c8	03777463	bgeu	x14,x23,800038f0	 x14:0xfffffcd4 x23:0x80009ef4
       33815000	      3380	00000000	00000013	addi	x0,x0,0	  x0:0x00000000
       33825000	      3381	800038ec	00000013	addi	x0,x0,0	  x0:0x00000000
       33835000	      3382	800038f0	0c326993	ori	x19,x4,195	  x4:0x00000000 x19=0x000000c3
       33845000	      3383	800038f4	00288cb3	add	x25,x17,x2	 x17:0x00000007  x2:0x80003cad x25=0x80003cb4
       33855000	      3384	800038f8	00d75b93	srli	x23,x14,0xd	 x14:0xfffffcd4 x23=0x0007ffff
       33865000	      3385	800038fc	001ce3b3	or	x7,x25,x1	 x25:0x80003cb4  x1:0x29f9b86b  x7=0xa9f9bcff
       33875000	      3386	80003900	01a9d533	srl	x10,x19,x26	 x19:0x000000c3 x26:0x00000000 x10=0x000000c3
       33885000	      3387	80003904	05d1f063	bgeu	x3,x29,80003944	  x3:0x00000000 x29:0xffffff27
       33895000	      3388	80003908	671f3b93	sltiu	x23,x30,1649	 x30:0xfffffcbd x23=0x00000000
       33905000	      3389	8000390c	05088263	beq	x17,x16,80003950	 x17:0x00000007 x16:0x00000000
       33915000	      3390	80003910	c7308393	addi	x7,x1,-909	  x1:0x29f9b86b  x7=0x29f9b4de
       33925000	      3391	80003914	692c8713	addi	x14,x25,1682	 x25:0x80003cb4 x14=0x80004346
       33935000	      3392	80003918	011f0133	add	x2,x30,x17	 x30:0xfffffcbd x17:0x00000007  x2=0xfffffcc4
       33945000	      3393	8000391c	0065fc33	and	x24,x11,x6	 x11:0x0000019e  x6:0x80009fc3 x24=0x00000182
       33955000	      3394	80003920	0312ca63	blt	x5,x17,80003954	  x5:0x00000000 x17:0x00000007
       33965000	      3395	00000000	00000013	addi	x0,x0,0	  x0:0x00000000
       33975000	      3396	80003950	00000013	addi	x0,x0,0	  x0:0x00000000
       33985000	      3397	80003954	a7f93113	sltiu	x2,x18,-1409	 x18:0x80009fc4  x2=0x00000001
       33995000	      3398	80003958	0117a0b3	slt	x1,x15,x17	 x15:0x09fe4000 x17:0x00000007  x1=0x00000000
       34005000	      3399	8000395c	01b06c63	bltu	x0,x27,80003974	  x0:0x00000000 x27:0x00000000
       34015000	      3400	80003960	01867eb3	and	x29,x12,x24	 x12:0x80009cd4 x24:0x00000182 x29=0x00000080
       34025000	      3401	80003964	41e628b7	lui	x17,0x41e62	 x17=0x41e62000
       34035000	      3402	80003968	00276c33	or	x24,x14,x2	 x14:0x80004346  x2:0x00000001 x24=0x80004347
       34045000	      3403	8000396c	8e02bd13	sltiu	x26,x5,-1824	  x5:0x00000000 x26=0x00000001
       34055000	      3404	80003970	01cb9093	slli	x1,x23,0x1c	 x23:0x00000000  x1=0x00000000
       34065000	      3405	80003974	01dfd793	srli	x15,x31,0x1d	 x31:0x80009ef4 x15=0x00000004
       34075000	      3406	80003978	51938f13	addi	x30,x7,1305	  x7:0x29f9b4de x30=0x29f9b9f7
       34085000	      3407	8000397c	0065d663	bge	x11,x6,80003988	 x11:0x0000019e  x6:0x80009fc3
       34095000	      3408	00000000	00000013	addi	x0,x0,0	  x0:0x00000000
       34105000	      3409	80003984	00000013	addi	x0,x0,0	  x0:0x00000000
       34115000	      3410	80003988	4062d593	srai	x11,x5,0x6	  x5:0x00000000 x11=0x00000000
       34125000	      3411	8000398c	004273b3	and	x7,x4,x4	  x4:0x00000000  x4:0x00000000  x7=0x00000000
       34135000	      3412	80003990	26acb793	sltiu	x15,x25,618	 x25:0x80003cb4 x15=0x00000000
       34145000	      3413	80003994	00c36863	bltu	x6,x12,800039a4	  x6:0x80009fc3 x12:0x80009cd4
       34155000	      3414	80003998	04bf7463	bgeu	x30,x11,800039e0	 x30:0x29f9b9f7 x11:0x00000000
       34165000	      3415	00000000	00000013	addi	x0,x0,0	  x0:0x00000000
       34175000	      3416	800039dc	00000013	addi	x0,x0,0	  x0:0x00000000
       34185000	      3417	800039e0	415fd193	srai	x3,x31,0x15	 x31:0x80009ef4  x3=0xfffffc00
       34195000	      3418	800039e4	40e7db33	sra	x22,x15,x14	 x15:0x00000000 x14:0x80004346 x22=0x00000000
       34205000	      3419	800039e8	e9c94213	xori	x4,x18,-356	 x18:0x80009fc4  x4=0x7fff6158
       34215000	      3420	800039ec	01f01eb3	sll	x29,x0,x31	  x0:0x00000000 x31:0x80009ef4 x29=0x00000000
       34225000	      3421	800039f0	57510b93	addi	x23,x2,1397	  x2:0x00000001 x23=0x00000576
       34235000	      3422	800039f4	003b9533	sll	x10,x23,x3	 x23:0x00000576  x3:0xfffffc00 x10=0x00000576
       34245000	      3423	800039f8	e0dd2493	slti	x9,x26,-499	 x26:0x00000001  x9=0x00000000
       34255000	      3424	800039fc	7bb64537	lui	x10,0x7bb64	 x10=0x7bb64000
       34265000	      3425	80003a00	01b825b3	slt	x11,x16,x27	 x16:0x00000000 x27:0x00000000 x11=0x00000000
       34275000	      3426	80003a04	00dbe033	or	x0,x23,x13	 x23:0x00000576 x13:0xfffc03c2
       34285000	      3427	80003a08	005a7f33	and	x30,x20,x5	 x20:0x00000000  x5:0x00000000 x30=0x00000000
       34295000	      3428	80003a0c	aeeb7613	andi	x12,x22,-1298	 x22:0x00000000 x12=0x00000000
       34305000	      3429	80003a10	00c77533	and	x10,x14,x12	 x14:0x80004346 x12:0x00000000 x10=0x00000000
       34315000	      3430	80003a14	00c63833	sltu	x16,x12,x12	 x12:0x00000000 x12:0x00000000 x16=0x00000000
       34325000	      3431	80003a18	e9268093	addi	x1,x13,-366	 x13:0xfffc03c2  x1=0xfffc0254
       34335000	      3432	80003a1c	7332c513	xori	x10,x5,1843	  x5:0x00000000 x10=0x00000733
       34345000	      3433	80003a20	41e0dd33	sra	x26,x1,x30	  x1:0xfffc0254 x30:0x00000000 x26=0xfffc0254
       34355000	      3434	80003a24	00d77463	bgeu	x14,x13,80003a2c	 x14:0x80004346 x13:0xfffc03c2
       34365000	      3435	80003a28	992e7b17	auipc	x22,0x992e7	 x22=0x192eaa24
       34375000	      3436	80003a2c	1ea1aa93	slti	x21,x3,490	  x3:0xfffffc00 x21=0x00000001
       34385000	      3437	80003a30	11aca113	slti	x2,x25,282	 x25:0x80003cb4  x2=0x00000001
       34395000	      3438	80003a34	01c26d33	or	x26,x4,x28	  x4:0x7fff6158 x28:0x00000000 x26=0x7fff6158
       34405000	      3439	80003a38	4bf1f893	andi	x17,x3,1215	  x3:0xfffffc00 x17=0x00000400
       34415000	      3440	80003a3c	ad4d2493	slti	x9,x26,-1324	 x26:0x7fff6158  x9=0x00000000
       34425000	      3441	80003a40	02474e63	blt	x14,x4,80003a7c	 x14:0x80004346  x4:0x7fff6158
       34435000	      3442	00000000	00000013	addi	x0,x0,0	  x0:0x00000000
       34445000	      3443	80003a78	00000013	addi	x0,x0,0	  x0:0x00000000
       34455000	      3444	80003a7c	00301463	bne	x0,x3,80003a84	  x0:0x00000000  x3:0xfffffc00
       34465000	      3445	00000000	00000013	addi	x0,x0,0	  x0:0x00000000
       34475000	      3446	80003a80	00000013	addi	x0,x0,0	  x0:0x00000000
       34485000	      3447	80003a84	408e5bb3	sra	x23,x28,x8	 x28:0x00000000  x8:0x00000001 x23=0x00000000
       34495000	      3448	80003a88	27d3bab7	lui	x21,0x27d3b	 x21=0x27d3b000
       34505000	      3449	80003a8c	01b75863	bge	x14,x27,80003a9c	 x14:0x80004346 x27:0x00000000
       34515000	      3450	80003a90	40e9d233	sra	x4,x19,x14	 x19:0x000000c3 x14:0x80004346  x4=0x00000003
       34525000	      3451	80003a94	01bee663	bltu	x29,x27,80003aa0	 x29:0x00000000 x27:0x00000000
       34535000	      3452	80003a98	0136c233	xor	x4,x13,x19	 x13:0xfffc03c2 x19:0x000000c3  x4=0xfffc0301
       34545000	      3453	80003a9c	00c38533	add	x10,x7,x12	  x7:0x00000000 x12:0x00000000 x10=0x00000000
       34555000	      3454	80003aa0	80e91a17	auipc	x20,0x80e91	 x20=0x00e94a9c
       34565000	      3455	80003aa4	00dd9233	sll	x4,x27,x13	 x27:0x00000000 x13:0xfffc03c2  x4=0x00000000
       34575000	      3456	80003aa8	922d2e13	slti	x28,x26,-1758	 x26:0x7fff6158 x28=0x00000000
       34585000	      3457	80003aac	d8e9e613	ori	x12,x19,-626	 x19:0x000000c3 x12=0xfffffdcf
       34595000	      3458	80003ab0	016ac733	xor	x14,x21,x22	 x21:0x27d3b000 x22:0x192eaa24 x14=0x3efd1a24
       34605000	      3459	80003ab4	410ddf33	sra	x30,x27,x16	 x27:0x00000000 x16:0x00000000 x30=0x00000000
       34615000	      3460	80003ab8	41e9d733	sra	x14,x19,x30	 x19:0x000000c3 x30:0x00000000 x14=0x000000c3
       34625000	      3461	80003abc	01860e63	beq	x12,x24,80003ad8	 x12:0xfffffdcf x24:0x80004347
       34635000	      3462	80003ac0	005fdb93	srli	x23,x31,0x5	 x31:0x80009ef4 x23=0x040004f7
       34645000	      3463	80003ac4	419c5733	sra	x14,x24,x25	 x24:0x80004347 x25:0x80003cb4 x14=0xfffff800
       34655000	      3464	80003ac8	007b9533	sll	x10,x23,x7	 x23:0x040004f7  x7:0x00000000 x10=0x040004f7
       34665000	      3465	80003acc	01d15c63	bge	x2,x29,80003ae4	  x2:0x00000001 x29:0x00000000
       34675000	      3466	00000000	00000013	addi	x0,x0,0	  x0:0x00000000
       34685000	      3467	80003ae0	00000013	addi	x0,x0,0	  x0:0x00000000
       34695000	      3468	80003ae4	01b25663	bge	x4,x27,80003af0	  x4:0x00000000 x27:0x00000000
       34705000	      3469	00000000	00000013	addi	x0,x0,0	  x0:0x00000000
       34715000	      3470	80003aec	00000013	addi	x0,x0,0	  x0:0x00000000
       34725000	      3471	80003af0	9aefa0b7	lui	x1,0x9aefa	  x1=0x9aefa000
       34735000	      3472	80003af4	c81c0813	addi	x16,x24,-895	 x24:0x80004347 x16=0x80003fc8
       34745000	      3473	80003af8	bd5dbc13	sltiu	x24,x27,-1067	 x27:0x00000000 x24=0x00000001
       34755000	      3474	80003afc	00bea5b3	slt	x11,x29,x11	 x29:0x00000000 x11:0x00000000 x11=0x00000000
       34765000	      3475	80003b00	00000013	addi	x0,x0,0	  x0:0x00000000
       34775000	      3476	80003b04	c985ca17	auipc	x20,0xc985c	 x20=0x4985fb00
       34785000	      3477	80003b08	005ac733	xor	x14,x21,x5	 x21:0x27d3b000  x5:0x00000000 x14=0x27d3b000
       34795000	      3478	80003b0c	01cd4a33	xor	x20,x26,x28	 x26:0x7fff6158 x28:0x00000000 x20=0x7fff6158
       34805000	      3479	80003b10	0014a433	slt	x8,x9,x1	  x9:0x00000000  x1:0x9aefa000  x8=0x00000000
       34815000	      3480	80003b14	40ca5c13	srai	x24,x20,0xc	 x20:0x7fff6158 x24=0x0007fff6
       34825000	      3481	80003b18	0044de93	srli	x29,x9,0x4	  x9:0x00000000 x29=0x00000000
       34835000	      3482	80003b1c	393f9617	auipc	x12,0x393f9	 x12=0xb93fcb18
       34845000	      3483	80003b20	6421ac93	slti	x25,x3,1602	  x3:0xfffffc00 x25=0x00000001
       34855000	      3484	80003b24	01789793	slli	x15,x17,0x17	 x17:0x00000400 x15=0x00000000
       34865000	      3485	80003b28	114f8713	addi	x14,x31,276	 x31:0x80009ef4 x14=0x8000a008
       34875000	      3486	80003b2c	00270bb3	add	x23,x14,x2	 x14:0x8000a008  x2:0x00000001 x23=0x8000a009
       34885000	      3487	80003b30	03800193	addi	x3,x0,56	  x0:0x00000000  x3=0x00000038
       34895000	      3488	80003b34	41e55b33	sra	x22,x10,x30	 x10:0x040004f7 x30:0x00000000 x22=0x040004f7
       34905000	      3489	80003b38	014b2033	slt	x0,x22,x20	 x22:0x040004f7 x20:0x7fff6158
       34915000	      3490	80003b3c	d54cc393	xori	x7,x25,-684	 x25:0x00000001  x7=0xfffffd55
       34925000	      3491	80003b40	40605ab3	sra	x21,x0,x6	  x0:0x00000000  x6:0x80009fc3 x21=0x00000000
       34935000	      3492	80003b44	01304eb3	xor	x29,x0,x19	  x0:0x00000000 x19:0x000000c3 x29=0x000000c3
       34945000	      3493	80003b48	7be3f793	andi	x15,x7,1982	  x7:0xfffffd55 x15=0x00000514
       34955000	      3494	80003b4c	00219213	slli	x4,x3,0x2	  x3:0x00000038  x4=0x000000e0
       34965000	      3495	80003b50	41790533	sub	x10,x18,x23	 x18:0x80009fc4 x23:0x8000a009 x10=0xffffffbb
       34975000	      3496	80003b54	7ea34613	xori	x12,x6,2026	  x6:0x80009fc3 x12=0x80009829
       34985000	      3497	80003b58	49a5d217	auipc	x4,0x49a5d	  x4=0xc9a60b54
       34995000	      3498	80003b5c	011dd313	srli	x6,x27,0x11	 x27:0x00000000  x6=0x00000000
       35005000	      3499	80003b60	023c1a63	bne	x24,x3,80003b94	 x24:0x0007fff6  x3:0x00000038
       35015000	      3500	00000000	00000013	addi	x0,x0,0	  x0:0x00000000
       35025000	      3501	80003b90	00000013	addi	x0,x0,0	  x0:0x00000000
       35035000	      3502	80003b94	01c8d793	srli	x15,x17,0x1c	 x17:0x00000400 x15=0x00000000
       35045000	      3503	80003b98	01be1133	sll	x2,x28,x27	 x28:0x00000000 x27:0x00000000  x2=0x00000000
       35055000	      3504	80003b9c	01d4e633	or	x12,x9,x29	  x9:0x00000000 x29:0x000000c3 x12=0x000000c3
       35065000	      3505	80003ba0	4cc662b7	lui	x5,0x4cc66	  x5=0x4cc66000
       35075000	      3506	80003ba4	419407b3	sub	x15,x8,x25	  x8:0x00000000 x25:0x00000001 x15=0xffffffff
       35085000	      3507	80003ba8	0098f4b3	and	x9,x17,x9	 x17:0x00000400  x9:0x00000000  x9=0x00000000
       35095000	      3508	80003bac	0267ec63	bltu	x15,x6,80003be4	 x15:0xffffffff  x6:0x00000000
       35105000	      3509	80003bb0	0003d713	srli	x14,x7,0x0	  x7:0xfffffd55 x14=0xfffffd55
       35115000	      3510	80003bb4	75ed6ab7	lui	x21,0x75ed6	 x21=0x75ed6000
       35125000	      3511	80003bb8	92244413	xori	x8,x8,-1758	  x8:0x00000000  x8=0xfffff922
       35135000	      3512	80003bbc	bb60ca93	xori	x21,x1,-1098	  x1:0x9aefa000 x21=0x65105bb6
       35145000	      3513	80003bc0	4178d4b3	sra	x9,x17,x23	 x17:0x00000400 x23:0x8000a009  x9=0x00000002
       35155000	      3514	80003bc4	01a56433	or	x8,x10,x26	 x10:0xffffffbb x26:0x7fff6158  x8=0xfffffffb
       35165000	      3515	80003bc8	0158e033	or	x0,x17,x21	 x17:0x00000400 x21:0x65105bb6
       35175000	      3516	80003bcc	01dbbe33	sltu	x28,x23,x29	 x23:0x8000a009 x29:0x000000c3 x28=0x00000000
       35185000	      3517	80003bd0	d0dfd0ef	jal	x1,80003bd0	  x1=0x80003bd0
       35195000	      3518	00000000	00000013	addi	x0,x0,0	  x0:0x00000000
       35205000	      3519	800018d8	00000013	addi	x0,x0,0	  x0:0x00000000
       35215000	      3520	800018dc	01815663	bge	x2,x24,800018e8	  x2:0x00000000 x24:0x0007fff6
       35225000	      3521	800018e0	3d1afeb7	lui	x29,0x3d1af	 x29=0x3d1af000
       35235000	      3522	800018e4	004b2333	slt	x6,x22,x4	 x22:0x040004f7  x4:0xc9a60b54  x6=0x00000000
       35245000	      3523	800018e8	fd0f8f93	addi	x31,x31,-48	 x31:0x80009ef4 x31=0x80009ec4
       35255000	      3524	800018ec	01a369b3	or	x19,x6,x26	  x6:0x00000000 x26:0x7fff6158 x19=0x7fff6158
       35265000	      3525	800018f0	001fa223	sw	x1,4(x31)	 x31:0x80009ec4  x1:0x80003bd0 PA:0x80009ec8
       35275000	      3526	800018f4	0060d693	srli	x13,x1,0x6	  x1:0x80003bd0 x13=0x020000ef
       35285000	      3527	800018f8	2fc44d13	xori	x26,x8,764	  x8:0xfffffffb x26=0xfffffd07
       35295000	      3528	800018fc	018e35b3	sltu	x11,x28,x24	 x28:0x00000000 x24:0x0007fff6 x11=0x00000001
       35305000	      3529	80001900	020000ef	jal	x1,80001900	  x1=0x80001900
       35315000	      3530	00000000	00000013	addi	x0,x0,0	  x0:0x00000000
       35325000	      3531	8000191c	00000013	addi	x0,x0,0	  x0:0x00000000
       35335000	      3532	80001920	008000ef	jal	x1,80001920	  x1=0x80001920
       35345000	      3533	00000000	00000013	addi	x0,x0,0	  x0:0x00000000
       35355000	      3534	80001924	00000013	addi	x0,x0,0	  x0:0x00000000
       35365000	      3535	80001928	02c003ef	jal	x7,80001928	  x7=0x80001928
       35375000	      3536	00000000	00000013	addi	x0,x0,0	  x0:0x00000000
       35385000	      3537	80001950	00000013	addi	x0,x0,0	  x0:0x00000000
       35395000	      3538	80001954	fe9ff36f	jal	x6,80001954	  x6=0x80001954
       35405000	      3539	00000000	00000013	addi	x0,x0,0	  x0:0x00000000
       35415000	      3540	80001938	00000013	addi	x0,x0,0	  x0:0x00000000
       35425000	      3541	8000193c	008000ef	jal	x1,8000193c	  x1=0x8000193c
       35435000	      3542	00000000	00000013	addi	x0,x0,0	  x0:0x00000000
       35445000	      3543	80001940	00000013	addi	x0,x0,0	  x0:0x00000000
       35455000	      3544	80001944	ff1ff0ef	jal	x1,80001944	  x1=0x80001944
       35465000	      3545	00000000	00000013	addi	x0,x0,0	  x0:0x00000000
       35475000	      3546	80001930	00000013	addi	x0,x0,0	  x0:0x00000000
       35485000	      3547	80001934	03800b6f	jal	x22,80001934	 x22=0x80001934
       35495000	      3548	00000000	00000013	addi	x0,x0,0	  x0:0x00000000
       35505000	      3549	80001968	00000013	addi	x0,x0,0	  x0:0x00000000
       35515000	      3550	8000196c	fddff36f	jal	x6,8000196c	  x6=0x8000196c
       35525000	      3551	00000000	00000013	addi	x0,x0,0	  x0:0x00000000
       35535000	      3552	80001944	00000013	addi	x0,x0,0	  x0:0x00000000
       35545000	      3553	80001948	fcdff26f	jal	x4,80001948	  x4=0x80001948
       35555000	      3554	00000000	00000013	addi	x0,x0,0	  x0:0x00000000
       35565000	      3555	80001910	00000013	addi	x0,x0,0	  x0:0x00000000
       35575000	      3556	80001914	04c000ef	jal	x1,80001914	  x1=0x80001914
       35585000	      3557	00000000	00000013	addi	x0,x0,0	  x0:0x00000000
       35595000	      3558	8000195c	00000013	addi	x0,x0,0	  x0:0x00000000
       35605000	      3559	80001960	fb9ff9ef	jal	x19,80001960	 x19=0x80001960
       35615000	      3560	00000000	00000013	addi	x0,x0,0	  x0:0x00000000
       35625000	      3561	80001914	00000013	addi	x0,x0,0	  x0:0x00000000
       35635000	      3562	80001918	ff5ffeef	jal	x29,80001918	 x29=0x80001918
       35645000	      3563	00000000	00000013	addi	x0,x0,0	  x0:0x00000000
       35655000	      3564	80001908	00000013	addi	x0,x0,0	  x0:0x00000000
       35665000	      3565	8000190c	0040036f	jal	x6,8000190c	  x6=0x8000190c
       35675000	      3566	00000000	00000013	addi	x0,x0,0	  x0:0x00000000
       35685000	      3567	8000190c	00000013	addi	x0,x0,0	  x0:0x00000000
       35695000	      3568	80001910	020000ef	jal	x1,80001910	  x1=0x80001910
       35705000	      3569	00000000	00000013	addi	x0,x0,0	  x0:0x00000000
       35715000	      3570	8000192c	00000013	addi	x0,x0,0	  x0:0x00000000
       35725000	      3571	80001930	fedff36f	jal	x6,80001930	  x6=0x80001930
       35735000	      3572	00000000	00000013	addi	x0,x0,0	  x0:0x00000000
       35745000	      3573	80001918	00000013	addi	x0,x0,0	  x0:0x00000000
       35755000	      3574	8000191c	0080036f	jal	x6,8000191c	  x6=0x8000191c
       35765000	      3575	00000000	00000013	addi	x0,x0,0	  x0:0x00000000
       35775000	      3576	80001920	00000013	addi	x0,x0,0	  x0:0x00000000
       35785000	      3577	80001924	02c000ef	jal	x1,80001924	  x1=0x80001924
       35795000	      3578	00000000	00000013	addi	x0,x0,0	  x0:0x00000000
       35805000	      3579	8000194c	00000013	addi	x0,x0,0	  x0:0x00000000
       35815000	      3580	80001950	fb9ff0ef	jal	x1,80001950	  x1=0x80001950
       35825000	      3581	00000000	00000013	addi	x0,x0,0	  x0:0x00000000
       35835000	      3582	80001904	00000013	addi	x0,x0,0	  x0:0x00000000
       35845000	      3583	80001908	060000ef	jal	x1,80001908	  x1=0x80001908
       35855000	      3584	00000000	00000013	addi	x0,x0,0	  x0:0x00000000
       35865000	      3585	80001964	00000013	addi	x0,x0,0	  x0:0x00000000
       35875000	      3586	80001968	fd1ffe6f	jal	x28,80001968	 x28=0x80001968
       35885000	      3587	00000000	00000013	addi	x0,x0,0	  x0:0x00000000
       35895000	      3588	80001934	00000013	addi	x0,x0,0	  x0:0x00000000
       35905000	      3589	80001938	00800aef	jal	x21,80001938	 x21=0x80001938
       35915000	      3590	00000000	00000013	addi	x0,x0,0	  x0:0x00000000
       35925000	      3591	8000193c	00000013	addi	x0,x0,0	  x0:0x00000000
       35935000	      3592	80001940	fc5ff1ef	jal	x3,80001940	  x3=0x80001940
       35945000	      3593	00000000	00000013	addi	x0,x0,0	  x0:0x00000000
       35955000	      3594	80001900	00000013	addi	x0,x0,0	  x0:0x00000000
       35965000	      3595	80001904	0580016f	jal	x2,80001904	  x2=0x80001904
       35975000	      3596	00000000	00000013	addi	x0,x0,0	  x0:0x00000000
       35985000	      3597	80001958	00000013	addi	x0,x0,0	  x0:0x00000000
       35995000	      3598	8000195c	008000ef	jal	x1,8000195c	  x1=0x8000195c
       36005000	      3599	00000000	00000013	addi	x0,x0,0	  x0:0x00000000
       36015000	      3600	80001960	00000013	addi	x0,x0,0	  x0:0x00000000
       36025000	      3601	80001964	fc9ff0ef	jal	x1,80001964	  x1=0x80001964
       36035000	      3602	00000000	00000013	addi	x0,x0,0	  x0:0x00000000
       36045000	      3603	80001928	00000013	addi	x0,x0,0	  x0:0x00000000
       36055000	      3604	8000192c	020003ef	jal	x7,8000192c	  x7=0x8000192c
       36065000	      3605	00000000	00000013	addi	x0,x0,0	  x0:0x00000000
       36075000	      3606	80001948	00000013	addi	x0,x0,0	  x0:0x00000000
       36085000	      3607	8000194c	00c00d6f	jal	x26,8000194c	 x26=0x8000194c
       36095000	      3608	00000000	00000013	addi	x0,x0,0	  x0:0x00000000
       36105000	      3609	80001954	00000013	addi	x0,x0,0	  x0:0x00000000
       36115000	      3610	80001958	018005ef	jal	x11,80001958	 x11=0x80001958
       36125000	      3611	00000000	00000013	addi	x0,x0,0	  x0:0x00000000
       36135000	      3612	8000196c	00000013	addi	x0,x0,0	  x0:0x00000000
       36145000	      3613	80001970	41a48ab3	sub	x21,x9,x26	  x9:0x00000002 x26:0x8000194c x21=0x7fffe6b6
       36155000	      3614	80001974	040000ef	jal	x1,80001974	  x1=0x80001974
       36165000	      3615	00000000	00000013	addi	x0,x0,0	  x0:0x00000000
       36175000	      3616	800019b0	00000013	addi	x0,x0,0	  x0:0x00000000
       36185000	      3617	800019b4	fc9ff26f	jal	x4,800019b4	  x4=0x800019b4
       36195000	      3618	00000000	00000013	addi	x0,x0,0	  x0:0x00000000
       36205000	      3619	80001978	00000013	addi	x0,x0,0	  x0:0x00000000
       36215000	      3620	8000197c	01800f6f	jal	x30,8000197c	 x30=0x8000197c
       36225000	      3621	00000000	00000013	addi	x0,x0,0	  x0:0x00000000
       36235000	      3622	80001990	00000013	addi	x0,x0,0	  x0:0x00000000
       36245000	      3623	80001994	01c000ef	jal	x1,80001994	  x1=0x80001994
       36255000	      3624	00000000	00000013	addi	x0,x0,0	  x0:0x00000000
       36265000	      3625	800019ac	00000013	addi	x0,x0,0	  x0:0x00000000
       36275000	      3626	800019b0	ff5ff7ef	jal	x15,800019b0	 x15=0x800019b0
       36285000	      3627	00000000	00000013	addi	x0,x0,0	  x0:0x00000000
       36295000	      3628	800019a0	00000013	addi	x0,x0,0	  x0:0x00000000
       36305000	      3629	800019a4	fe9ff36f	jal	x6,800019a4	  x6=0x800019a4
       36315000	      3630	00000000	00000013	addi	x0,x0,0	  x0:0x00000000
       36325000	      3631	80001988	00000013	addi	x0,x0,0	  x0:0x00000000
       36335000	      3632	8000198c	01c0076f	jal	x14,8000198c	 x14=0x8000198c
       36345000	      3633	00000000	00000013	addi	x0,x0,0	  x0:0x00000000
       36355000	      3634	800019a4	00000013	addi	x0,x0,0	  x0:0x00000000
       36365000	      3635	800019a8	028000ef	jal	x1,800019a8	  x1=0x800019a8
       36375000	      3636	00000000	00000013	addi	x0,x0,0	  x0:0x00000000
       36385000	      3637	800019cc	00000013	addi	x0,x0,0	  x0:0x00000000
       36395000	      3638	800019d0	fb1ff0ef	jal	x1,800019d0	  x1=0x800019d0
       36405000	      3639	00000000	00000013	addi	x0,x0,0	  x0:0x00000000
       36415000	      3640	8000197c	00000013	addi	x0,x0,0	  x0:0x00000000
       36425000	      3641	80001980	0040026f	jal	x4,80001980	  x4=0x80001980
       36435000	      3642	00000000	00000013	addi	x0,x0,0	  x0:0x00000000
       36445000	      3643	80001980	00000013	addi	x0,x0,0	  x0:0x00000000
       36455000	      3644	80001984	01c000ef	jal	x1,80001984	  x1=0x80001984
       36465000	      3645	00000000	00000013	addi	x0,x0,0	  x0:0x00000000
       36475000	      3646	8000199c	00000013	addi	x0,x0,0	  x0:0x00000000
       36485000	      3647	800019a0	018000ef	jal	x1,800019a0	  x1=0x800019a0
       36495000	      3648	00000000	00000013	addi	x0,x0,0	  x0:0x00000000
       36505000	      3649	800019b4	00000013	addi	x0,x0,0	  x0:0x00000000
       36515000	      3650	800019b8	004000ef	jal	x1,800019b8	  x1=0x800019b8
       36525000	      3651	00000000	00000013	addi	x0,x0,0	  x0:0x00000000
       36535000	      3652	800019b8	00000013	addi	x0,x0,0	  x0:0x00000000
       36545000	      3653	800019bc	fddff0ef	jal	x1,800019bc	  x1=0x800019bc
       36555000	      3654	00000000	00000013	addi	x0,x0,0	  x0:0x00000000
       36565000	      3655	80001994	00000013	addi	x0,x0,0	  x0:0x00000000
       36575000	      3656	80001998	fe1ff36f	jal	x6,80001998	  x6=0x80001998
       36585000	      3657	00000000	00000013	addi	x0,x0,0	  x0:0x00000000
       36595000	      3658	80001974	00000013	addi	x0,x0,0	  x0:0x00000000
       36605000	      3659	80001978	018000ef	jal	x1,80001978	  x1=0x80001978
       36615000	      3660	00000000	00000013	addi	x0,x0,0	  x0:0x00000000
       36625000	      3661	8000198c	00000013	addi	x0,x0,0	  x0:0x00000000
       36635000	      3662	80001990	ff9ff36f	jal	x6,80001990	  x6=0x80001990
       36645000	      3663	00000000	00000013	addi	x0,x0,0	  x0:0x00000000
       36655000	      3664	80001984	00000013	addi	x0,x0,0	  x0:0x00000000
       36665000	      3665	80001988	0400036f	jal	x6,80001988	  x6=0x80001988
       36675000	      3666	00000000	00000013	addi	x0,x0,0	  x0:0x00000000
       36685000	      3667	800019c4	00000013	addi	x0,x0,0	  x0:0x00000000
       36695000	      3668	800019c8	ffdff0ef	jal	x1,800019c8	  x1=0x800019c8
       36705000	      3669	00000000	00000013	addi	x0,x0,0	  x0:0x00000000
       36715000	      3670	800019c0	00000013	addi	x0,x0,0	  x0:0x00000000
       36725000	      3671	800019c4	008000ef	jal	x1,800019c4	  x1=0x800019c4
       36735000	      3672	00000000	00000013	addi	x0,x0,0	  x0:0x00000000
       36745000	      3673	800019c8	00000013	addi	x0,x0,0	  x0:0x00000000
       36755000	      3674	800019cc	ff5ff0ef	jal	x1,800019cc	  x1=0x800019cc
       36765000	      3675	00000000	00000013	addi	x0,x0,0	  x0:0x00000000
       36775000	      3676	800019bc	00000013	addi	x0,x0,0	  x0:0x00000000
       36785000	      3677	800019c0	fddff0ef	jal	x1,800019c0	  x1=0x800019c0
       36795000	      3678	00000000	00000013	addi	x0,x0,0	  x0:0x00000000
       36805000	      3679	80001998	00000013	addi	x0,x0,0	  x0:0x00000000
       36815000	      3680	8000199c	0100036f	jal	x6,8000199c	  x6=0x8000199c
       36825000	      3681	00000000	00000013	addi	x0,x0,0	  x0:0x00000000
       36835000	      3682	800019a8	00000013	addi	x0,x0,0	  x0:0x00000000
       36845000	      3683	800019ac	028000ef	jal	x1,800019ac	  x1=0x800019ac
       36855000	      3684	00000000	00000013	addi	x0,x0,0	  x0:0x00000000
       36865000	      3685	800019d0	00000013	addi	x0,x0,0	  x0:0x00000000
       36875000	      3686	800019d4	6f974413	xori	x8,x14,1785	 x14:0x8000198c  x8=0x80001f75
       36885000	      3687	800019d8	010000ef	jal	x1,800019d8	  x1=0x800019d8
       36895000	      3688	00000000	00000013	addi	x0,x0,0	  x0:0x00000000
       36905000	      3689	800019e4	00000013	addi	x0,x0,0	  x0:0x00000000
       36915000	      3690	800019e8	020000ef	jal	x1,800019e8	  x1=0x800019e8
       36925000	      3691	00000000	00000013	addi	x0,x0,0	  x0:0x00000000
       36935000	      3692	80001a04	00000013	addi	x0,x0,0	  x0:0x00000000
       36945000	      3693	80001a08	fddff8ef	jal	x17,80001a08	 x17=0x80001a08
       36955000	      3694	00000000	00000013	addi	x0,x0,0	  x0:0x00000000
       36965000	      3695	800019e0	00000013	addi	x0,x0,0	  x0:0x00000000
       36975000	      3696	800019e4	ffdff0ef	jal	x1,800019e4	  x1=0x800019e4
       36985000	      3697	00000000	00000013	addi	x0,x0,0	  x0:0x00000000
       36995000	      3698	800019dc	00000013	addi	x0,x0,0	  x0:0x00000000
       37005000	      3699	800019e0	020000ef	jal	x1,800019e0	  x1=0x800019e0
       37015000	      3700	00000000	00000013	addi	x0,x0,0	  x0:0x00000000
       37025000	      3701	800019fc	00000013	addi	x0,x0,0	  x0:0x00000000
       37035000	      3702	80001a00	fddffaef	jal	x21,80001a00	 x21=0x80001a00
       37045000	      3703	00000000	00000013	addi	x0,x0,0	  x0:0x00000000
       37055000	      3704	800019d8	00000013	addi	x0,x0,0	  x0:0x00000000
       37065000	      3705	800019dc	0140036f	jal	x6,800019dc	  x6=0x800019dc
       37075000	      3706	00000000	00000013	addi	x0,x0,0	  x0:0x00000000
       37085000	      3707	800019ec	00000013	addi	x0,x0,0	  x0:0x00000000
       37095000	      3708	800019f0	ffdff0ef	jal	x1,800019f0	  x1=0x800019f0
       37105000	      3709	00000000	00000013	addi	x0,x0,0	  x0:0x00000000
       37115000	      3710	800019e8	00000013	addi	x0,x0,0	  x0:0x00000000
       37125000	      3711	800019ec	0080036f	jal	x6,800019ec	  x6=0x800019ec
       37135000	      3712	00000000	00000013	addi	x0,x0,0	  x0:0x00000000
       37145000	      3713	800019f0	00000013	addi	x0,x0,0	  x0:0x00000000
       37155000	      3714	800019f4	004000ef	jal	x1,800019f4	  x1=0x800019f4
       37165000	      3715	00000000	00000013	addi	x0,x0,0	  x0:0x00000000
       37175000	      3716	800019f4	00000013	addi	x0,x0,0	  x0:0x00000000
       37185000	      3717	800019f8	00c000ef	jal	x1,800019f8	  x1=0x800019f8
       37195000	      3718	00000000	00000013	addi	x0,x0,0	  x0:0x00000000
       37205000	      3719	80001a00	00000013	addi	x0,x0,0	  x0:0x00000000
       37215000	      3720	80001a04	008000ef	jal	x1,80001a04	  x1=0x80001a04
       37225000	      3721	00000000	00000013	addi	x0,x0,0	  x0:0x00000000
       37235000	      3722	80001a08	00000013	addi	x0,x0,0	  x0:0x00000000
       37245000	      3723	80001a0c	00800a6f	jal	x20,80001a0c	 x20=0x80001a0c
       37255000	      3724	00000000	00000013	addi	x0,x0,0	  x0:0x00000000
       37265000	      3725	80001a10	00000013	addi	x0,x0,0	  x0:0x00000000
       37275000	      3726	80001a14	fe9ff36f	jal	x6,80001a14	  x6=0x80001a14
       37285000	      3727	00000000	00000013	addi	x0,x0,0	  x0:0x00000000
       37295000	      3728	800019f8	00000013	addi	x0,x0,0	  x0:0x00000000
       37305000	      3729	800019fc	014000ef	jal	x1,800019fc	  x1=0x800019fc
       37315000	      3730	00000000	00000013	addi	x0,x0,0	  x0:0x00000000
       37325000	      3731	80001a0c	00000013	addi	x0,x0,0	  x0:0x00000000
       37335000	      3732	80001a10	0080036f	jal	x6,80001a10	  x6=0x80001a10
       37345000	      3733	00000000	00000013	addi	x0,x0,0	  x0:0x00000000
       37355000	      3734	80001a14	00000013	addi	x0,x0,0	  x0:0x00000000
       37365000	      3735	80001a18	0045c7b3	xor	x15,x11,x4	 x11:0x80001958  x4:0x80001980 x15=0x000000d8
       37375000	      3736	80001a1c	050000ef	jal	x1,80001a1c	  x1=0x80001a1c
       37385000	      3737	00000000	00000013	addi	x0,x0,0	  x0:0x00000000
       37395000	      3738	80001a68	00000013	addi	x0,x0,0	  x0:0x00000000
       37405000	      3739	80001a6c	ff5ff36f	jal	x6,80001a6c	  x6=0x80001a6c
       37415000	      3740	00000000	00000013	addi	x0,x0,0	  x0:0x00000000
       37425000	      3741	80001a5c	00000013	addi	x0,x0,0	  x0:0x00000000
       37435000	      3742	80001a60	fddff16f	jal	x2,80001a60	  x2=0x80001a60
       37445000	      3743	00000000	00000013	addi	x0,x0,0	  x0:0x00000000
       37455000	      3744	80001a38	00000013	addi	x0,x0,0	  x0:0x00000000
       37465000	      3745	80001a3c	ffdff0ef	jal	x1,80001a3c	  x1=0x80001a3c
       37475000	      3746	00000000	00000013	addi	x0,x0,0	  x0:0x00000000
       37485000	      3747	80001a34	00000013	addi	x0,x0,0	  x0:0x00000000
       37495000	      3748	80001a38	030000ef	jal	x1,80001a38	  x1=0x80001a38
       37505000	      3749	00000000	00000013	addi	x0,x0,0	  x0:0x00000000
       37515000	      3750	80001a64	00000013	addi	x0,x0,0	  x0:0x00000000
       37525000	      3751	80001a68	fe9ff0ef	jal	x1,80001a68	  x1=0x80001a68
       37535000	      3752	00000000	00000013	addi	x0,x0,0	  x0:0x00000000
       37545000	      3753	80001a4c	00000013	addi	x0,x0,0	  x0:0x00000000
       37555000	      3754	80001a50	fd9ff0ef	jal	x1,80001a50	  x1=0x80001a50
       37565000	      3755	00000000	00000013	addi	x0,x0,0	  x0:0x00000000
       37575000	      3756	80001a24	00000013	addi	x0,x0,0	  x0:0x00000000
       37585000	      3757	80001a28	ff9ff0ef	jal	x1,80001a28	  x1=0x80001a28
       37595000	      3758	00000000	00000013	addi	x0,x0,0	  x0:0x00000000
       37605000	      3759	80001a1c	00000013	addi	x0,x0,0	  x0:0x00000000
       37615000	      3760	80001a20	03400f6f	jal	x30,80001a20	 x30=0x80001a20
       37625000	      3761	00000000	00000013	addi	x0,x0,0	  x0:0x00000000
       37635000	      3762	80001a50	00000013	addi	x0,x0,0	  x0:0x00000000
       37645000	      3763	80001a54	fe1ff0ef	jal	x1,80001a54	  x1=0x80001a54
       37655000	      3764	00000000	00000013	addi	x0,x0,0	  x0:0x00000000
       37665000	      3765	80001a30	00000013	addi	x0,x0,0	  x0:0x00000000
       37675000	      3766	80001a34	0180036f	jal	x6,80001a34	  x6=0x80001a34
       37685000	      3767	00000000	00000013	addi	x0,x0,0	  x0:0x00000000
       37695000	      3768	80001a48	00000013	addi	x0,x0,0	  x0:0x00000000
       37705000	      3769	80001a4c	fd9ff0ef	jal	x1,80001a4c	  x1=0x80001a4c
       37715000	      3770	00000000	00000013	addi	x0,x0,0	  x0:0x00000000
       37725000	      3771	80001a20	00000013	addi	x0,x0,0	  x0:0x00000000
       37735000	      3772	80001a24	0500036f	jal	x6,80001a24	  x6=0x80001a24
       37745000	      3773	00000000	00000013	addi	x0,x0,0	  x0:0x00000000
       37755000	      3774	80001a70	00000013	addi	x0,x0,0	  x0:0x00000000
       37765000	      3775	80001a74	fd5ff0ef	jal	x1,80001a74	  x1=0x80001a74
       37775000	      3776	00000000	00000013	addi	x0,x0,0	  x0:0x00000000
       37785000	      3777	80001a44	00000013	addi	x0,x0,0	  x0:0x00000000
       37795000	      3778	80001a48	fe5ff0ef	jal	x1,80001a48	  x1=0x80001a48
       37805000	      3779	00000000	00000013	addi	x0,x0,0	  x0:0x00000000
       37815000	      3780	80001a28	00000013	addi	x0,x0,0	  x0:0x00000000
       37825000	      3781	80001a2c	0140016f	jal	x2,80001a2c	  x2=0x80001a2c
       37835000	      3782	00000000	00000013	addi	x0,x0,0	  x0:0x00000000
       37845000	      3783	80001a3c	00000013	addi	x0,x0,0	  x0:0x00000000
       37855000	      3784	80001a40	03800f6f	jal	x30,80001a40	 x30=0x80001a40
       37865000	      3785	00000000	00000013	addi	x0,x0,0	  x0:0x00000000
       37875000	      3786	80001a74	00000013	addi	x0,x0,0	  x0:0x00000000
       37885000	      3787	80001a78	fcdff36f	jal	x6,80001a78	  x6=0x80001a78
       37895000	      3788	00000000	00000013	addi	x0,x0,0	  x0:0x00000000
       37905000	      3789	80001a40	00000013	addi	x0,x0,0	  x0:0x00000000
       37915000	      3790	80001a44	018000ef	jal	x1,80001a44	  x1=0x80001a44
       37925000	      3791	00000000	00000013	addi	x0,x0,0	  x0:0x00000000
       37935000	      3792	80001a58	00000013	addi	x0,x0,0	  x0:0x00000000
       37945000	      3793	80001a5c	ffdff36f	jal	x6,80001a5c	  x6=0x80001a5c
       37955000	      3794	00000000	00000013	addi	x0,x0,0	  x0:0x00000000
       37965000	      3795	80001a54	00000013	addi	x0,x0,0	  x0:0x00000000
       37975000	      3796	80001a58	fd9ff0ef	jal	x1,80001a58	  x1=0x80001a58
       37985000	      3797	00000000	00000013	addi	x0,x0,0	  x0:0x00000000
       37995000	      3798	80001a2c	00000013	addi	x0,x0,0	  x0:0x00000000
       38005000	      3799	80001a30	040009ef	jal	x19,80001a30	 x19=0x80001a30
       38015000	      3800	00000000	00000013	addi	x0,x0,0	  x0:0x00000000
       38025000	      3801	80001a6c	00000013	addi	x0,x0,0	  x0:0x00000000
       38035000	      3802	80001a70	ff5ff0ef	jal	x1,80001a70	  x1=0x80001a70
       38045000	      3803	00000000	00000013	addi	x0,x0,0	  x0:0x00000000
       38055000	      3804	80001a60	00000013	addi	x0,x0,0	  x0:0x00000000
       38065000	      3805	80001a64	0180036f	jal	x6,80001a64	  x6=0x80001a64
       38075000	      3806	00000000	00000013	addi	x0,x0,0	  x0:0x00000000
       38085000	      3807	80001a78	00000013	addi	x0,x0,0	  x0:0x00000000
       38095000	      3808	80001a7c	00bf78b3	and	x17,x30,x11	 x30:0x80001a40 x11:0x80001958 x17=0x80001840
       38105000	      3809	80001a80	00c000ef	jal	x1,80001a80	  x1=0x80001a80
       38115000	      3810	00000000	00000013	addi	x0,x0,0	  x0:0x00000000
       38125000	      3811	80001a88	00000013	addi	x0,x0,0	  x0:0x00000000
       38135000	      3812	80001a8c	01c0076f	jal	x14,80001a8c	 x14=0x80001a8c
       38145000	      3813	00000000	00000013	addi	x0,x0,0	  x0:0x00000000
       38155000	      3814	80001aa4	00000013	addi	x0,x0,0	  x0:0x00000000
       38165000	      3815	80001aa8	008000ef	jal	x1,80001aa8	  x1=0x80001aa8
       38175000	      3816	00000000	00000013	addi	x0,x0,0	  x0:0x00000000
       38185000	      3817	80001aac	00000013	addi	x0,x0,0	  x0:0x00000000
       38195000	      3818	80001ab0	fe5ff36f	jal	x6,80001ab0	  x6=0x80001ab0
       38205000	      3819	00000000	00000013	addi	x0,x0,0	  x0:0x00000000
       38215000	      3820	80001a90	00000013	addi	x0,x0,0	  x0:0x00000000
       38225000	      3821	80001a94	0200036f	jal	x6,80001a94	  x6=0x80001a94
       38235000	      3822	00000000	00000013	addi	x0,x0,0	  x0:0x00000000
       38245000	      3823	80001ab0	00000013	addi	x0,x0,0	  x0:0x00000000
       38255000	      3824	80001ab4	018000ef	jal	x1,80001ab4	  x1=0x80001ab4
       38265000	      3825	00000000	00000013	addi	x0,x0,0	  x0:0x00000000
       38275000	      3826	80001ac8	00000013	addi	x0,x0,0	  x0:0x00000000
       38285000	      3827	80001acc	fb9ff0ef	jal	x1,80001acc	  x1=0x80001acc
       38295000	      3828	00000000	00000013	addi	x0,x0,0	  x0:0x00000000
       38305000	      3829	80001a80	00000013	addi	x0,x0,0	  x0:0x00000000
       38315000	      3830	80001a84	0340036f	jal	x6,80001a84	  x6=0x80001a84
       38325000	      3831	00000000	00000013	addi	x0,x0,0	  x0:0x00000000
       38335000	      3832	80001ab4	00000013	addi	x0,x0,0	  x0:0x00000000
       38345000	      3833	80001ab8	fe9ff0ef	jal	x1,80001ab8	  x1=0x80001ab8
       38355000	      3834	00000000	00000013	addi	x0,x0,0	  x0:0x00000000
       38365000	      3835	80001a9c	00000013	addi	x0,x0,0	  x0:0x00000000
       38375000	      3836	80001aa0	ffdff36f	jal	x6,80001aa0	  x6=0x80001aa0
       38385000	      3837	00000000	00000013	addi	x0,x0,0	  x0:0x00000000
       38395000	      3838	80001a98	00000013	addi	x0,x0,0	  x0:0x00000000
       38405000	      3839	80001a9c	02c000ef	jal	x1,80001a9c	  x1=0x80001a9c
       38415000	      3840	00000000	00000013	addi	x0,x0,0	  x0:0x00000000
       38425000	      3841	80001ac4	00000013	addi	x0,x0,0	  x0:0x00000000
       38435000	      3842	80001ac8	ff5ff9ef	jal	x19,80001ac8	 x19=0x80001ac8
       38445000	      3843	00000000	00000013	addi	x0,x0,0	  x0:0x00000000
       38455000	      3844	80001ab8	00000013	addi	x0,x0,0	  x0:0x00000000
       38465000	      3845	80001abc	fe9fff6f	jal	x30,80001abc	 x30=0x80001abc
       38475000	      3846	00000000	00000013	addi	x0,x0,0	  x0:0x00000000
       38485000	      3847	80001aa0	00000013	addi	x0,x0,0	  x0:0x00000000
       38495000	      3848	80001aa4	01c000ef	jal	x1,80001aa4	  x1=0x80001aa4
       38505000	      3849	00000000	00000013	addi	x0,x0,0	  x0:0x00000000
       38515000	      3850	80001abc	00000013	addi	x0,x0,0	  x0:0x00000000
       38525000	      3851	80001ac0	0040026f	jal	x4,80001ac0	  x4=0x80001ac0
       38535000	      3852	00000000	00000013	addi	x0,x0,0	  x0:0x00000000
       38545000	      3853	80001ac0	00000013	addi	x0,x0,0	  x0:0x00000000
       38555000	      3854	80001ac4	fc5ff2ef	jal	x5,80001ac4	  x5=0x80001ac4
       38565000	      3855	00000000	00000013	addi	x0,x0,0	  x0:0x00000000
       38575000	      3856	80001a84	00000013	addi	x0,x0,0	  x0:0x00000000
       38585000	      3857	80001a88	010000ef	jal	x1,80001a88	  x1=0x80001a88
       38595000	      3858	00000000	00000013	addi	x0,x0,0	  x0:0x00000000
       38605000	      3859	80001a94	00000013	addi	x0,x0,0	  x0:0x00000000
       38615000	      3860	80001a98	014000ef	jal	x1,80001a98	  x1=0x80001a98
       38625000	      3861	00000000	00000013	addi	x0,x0,0	  x0:0x00000000
       38635000	      3862	80001aa8	00000013	addi	x0,x0,0	  x0:0x00000000
       38645000	      3863	80001aac	fe5ff36f	jal	x6,80001aac	  x6=0x80001aac
       38655000	      3864	00000000	00000013	addi	x0,x0,0	  x0:0x00000000
       38665000	      3865	80001a8c	00000013	addi	x0,x0,0	  x0:0x00000000
       38675000	      3866	80001a90	040000ef	jal	x1,80001a90	  x1=0x80001a90
       38685000	      3867	00000000	00000013	addi	x0,x0,0	  x0:0x00000000
       38695000	      3868	80001acc	00000013	addi	x0,x0,0	  x0:0x00000000
       38705000	      3869	80001ad0	4cd37493	andi	x9,x6,1229	  x6:0x80001aac  x9=0x0000008c
       38715000	      3870	80001ad4	010000ef	jal	x1,80001ad4	  x1=0x80001ad4
       38725000	      3871	00000000	00000013	addi	x0,x0,0	  x0:0x00000000
       38735000	      3872	80001ae0	00000013	addi	x0,x0,0	  x0:0x00000000
       38745000	      3873	80001ae4	0180036f	jal	x6,80001ae4	  x6=0x80001ae4
       38755000	      3874	00000000	00000013	addi	x0,x0,0	  x0:0x00000000
       38765000	      3875	80001af8	00000013	addi	x0,x0,0	  x0:0x00000000
       38775000	      3876	80001afc	ffdffc6f	jal	x24,80001afc	 x24=0x80001afc
       38785000	      3877	00000000	00000013	addi	x0,x0,0	  x0:0x00000000
       38795000	      3878	80001af4	00000013	addi	x0,x0,0	  x0:0x00000000
       38805000	      3879	80001af8	018000ef	jal	x1,80001af8	  x1=0x80001af8
       38815000	      3880	00000000	00000013	addi	x0,x0,0	  x0:0x00000000
       38825000	      3881	80001b0c	00000013	addi	x0,x0,0	  x0:0x00000000
       38835000	      3882	80001b10	ff5ffcef	jal	x25,80001b10	 x25=0x80001b10
       38845000	      3883	00000000	00000013	addi	x0,x0,0	  x0:0x00000000
       38855000	      3884	80001b00	00000013	addi	x0,x0,0	  x0:0x00000000
       38865000	      3885	80001b04	fddff0ef	jal	x1,80001b04	  x1=0x80001b04
       38875000	      3886	00000000	00000013	addi	x0,x0,0	  x0:0x00000000
       38885000	      3887	80001adc	00000013	addi	x0,x0,0	  x0:0x00000000
       38895000	      3888	80001ae0	02c0036f	jal	x6,80001ae0	  x6=0x80001ae0
       38905000	      3889	00000000	00000013	addi	x0,x0,0	  x0:0x00000000
       38915000	      3890	80001b08	00000013	addi	x0,x0,0	  x0:0x00000000
       38925000	      3891	80001b0c	ff5ff0ef	jal	x1,80001b0c	  x1=0x80001b0c
       38935000	      3892	00000000	00000013	addi	x0,x0,0	  x0:0x00000000
       38945000	      3893	80001afc	00000013	addi	x0,x0,0	  x0:0x00000000
       38955000	      3894	80001b00	fedff46f	jal	x8,80001b00	  x8=0x80001b00
       38965000	      3895	00000000	00000013	addi	x0,x0,0	  x0:0x00000000
       38975000	      3896	80001ae8	00000013	addi	x0,x0,0	  x0:0x00000000
       38985000	      3897	80001aec	ffdff36f	jal	x6,80001aec	  x6=0x80001aec
       38995000	      3898	00000000	00000013	addi	x0,x0,0	  x0:0x00000000
       39005000	      3899	80001ae4	00000013	addi	x0,x0,0	  x0:0x00000000
       39015000	      3900	80001ae8	ff1ff16f	jal	x2,80001ae8	  x2=0x80001ae8
       39025000	      3901	00000000	00000013	addi	x0,x0,0	  x0:0x00000000
       39035000	      3902	80001ad4	00000013	addi	x0,x0,0	  x0:0x00000000
       39045000	      3903	80001ad8	040000ef	jal	x1,80001ad8	  x1=0x80001ad8
       39055000	      3904	00000000	00000013	addi	x0,x0,0	  x0:0x00000000
       39065000	      3905	80001b14	00000013	addi	x0,x0,0	  x0:0x00000000
       39075000	      3906	80001b18	ff1ff9ef	jal	x19,80001b18	 x19=0x80001b18
       39085000	      3907	00000000	00000013	addi	x0,x0,0	  x0:0x00000000
       39095000	      3908	80001b04	00000013	addi	x0,x0,0	  x0:0x00000000
       39105000	      3909	80001b08	fedff0ef	jal	x1,80001b08	  x1=0x80001b08
       39115000	      3910	00000000	00000013	addi	x0,x0,0	  x0:0x00000000
       39125000	      3911	80001af0	00000013	addi	x0,x0,0	  x0:0x00000000
       39135000	      3912	80001af4	020001ef	jal	x3,80001af4	  x3=0x80001af4
       39145000	      3913	00000000	00000013	addi	x0,x0,0	  x0:0x00000000
       39155000	      3914	80001b10	00000013	addi	x0,x0,0	  x0:0x00000000
       39165000	      3915	80001b14	fddff46f	jal	x8,80001b14	  x8=0x80001b14
       39175000	      3916	00000000	00000013	addi	x0,x0,0	  x0:0x00000000
       39185000	      3917	80001aec	00000013	addi	x0,x0,0	  x0:0x00000000
       39195000	      3918	80001af0	fedff26f	jal	x4,80001af0	  x4=0x80001af0
       39205000	      3919	00000000	00000013	addi	x0,x0,0	  x0:0x00000000
       39215000	      3920	80001ad8	00000013	addi	x0,x0,0	  x0:0x00000000
       39225000	      3921	80001adc	0400036f	jal	x6,80001adc	  x6=0x80001adc
       39235000	      3922	00000000	00000013	addi	x0,x0,0	  x0:0x00000000
       39245000	      3923	80001b18	00000013	addi	x0,x0,0	  x0:0x00000000
       39255000	      3924	80001b1c	00c1aa33	slt	x20,x3,x12	  x3:0x80001af4 x12:0x000000c3 x20=0x00000001
       39265000	      3925	80001b20	03c000ef	jal	x1,80001b20	  x1=0x80001b20
       39275000	      3926	00000000	00000013	addi	x0,x0,0	  x0:0x00000000
       39285000	      3927	80001b58	00000013	addi	x0,x0,0	  x0:0x00000000
       39295000	      3928	80001b5c	00c0026f	jal	x4,80001b5c	  x4=0x80001b5c
       39305000	      3929	00000000	00000013	addi	x0,x0,0	  x0:0x00000000
       39315000	      3930	80001b64	00000013	addi	x0,x0,0	  x0:0x00000000
       39325000	      3931	80001b68	ff1ff0ef	jal	x1,80001b68	  x1=0x80001b68
       39335000	      3932	00000000	00000013	addi	x0,x0,0	  x0:0x00000000
       39345000	      3933	80001b54	00000013	addi	x0,x0,0	  x0:0x00000000
       39355000	      3934	80001b58	00c00a6f	jal	x20,80001b58	 x20=0x80001b58
       39365000	      3935	00000000	00000013	addi	x0,x0,0	  x0:0x00000000
       39375000	      3936	80001b60	00000013	addi	x0,x0,0	  x0:0x00000000
       39385000	      3937	80001b64	008000ef	jal	x1,80001b64	  x1=0x80001b64
       39395000	      3938	00000000	00000013	addi	x0,x0,0	  x0:0x00000000
       39405000	      3939	80001b68	00000013	addi	x0,x0,0	  x0:0x00000000
       39415000	      3940	80001b6c	014000ef	jal	x1,80001b6c	  x1=0x80001b6c
       39425000	      3941	00000000	00000013	addi	x0,x0,0	  x0:0x00000000
       39435000	      3942	80001b7c	00000013	addi	x0,x0,0	  x0:0x00000000
       39445000	      3943	80001b80	fc9ff0ef	jal	x1,80001b80	  x1=0x80001b80
       39455000	      3944	00000000	00000013	addi	x0,x0,0	  x0:0x00000000
       39465000	      3945	80001b44	00000013	addi	x0,x0,0	  x0:0x00000000
       39475000	      3946	80001b48	fe9ffd6f	jal	x26,80001b48	 x26=0x80001b48
       39485000	      3947	00000000	00000013	addi	x0,x0,0	  x0:0x00000000
       39495000	      3948	80001b2c	00000013	addi	x0,x0,0	  x0:0x00000000
       39505000	      3949	80001b30	044000ef	jal	x1,80001b30	  x1=0x80001b30
       39515000	      3950	00000000	00000013	addi	x0,x0,0	  x0:0x00000000
       39525000	      3951	80001b70	00000013	addi	x0,x0,0	  x0:0x00000000
       39535000	      3952	80001b74	fe1ff0ef	jal	x1,80001b74	  x1=0x80001b74
       39545000	      3953	00000000	00000013	addi	x0,x0,0	  x0:0x00000000
       39555000	      3954	80001b50	00000013	addi	x0,x0,0	  x0:0x00000000
       39565000	      3955	80001b54	fe1ff86f	jal	x16,80001b54	 x16=0x80001b54
       39575000	      3956	00000000	00000013	addi	x0,x0,0	  x0:0x00000000
       39585000	      3957	80001b30	00000013	addi	x0,x0,0	  x0:0x00000000
       39595000	      3958	80001b34	02c002ef	jal	x5,80001b34	  x5=0x80001b34
       39605000	      3959	00000000	00000013	addi	x0,x0,0	  x0:0x00000000
       39615000	      3960	80001b5c	00000013	addi	x0,x0,0	  x0:0x00000000
       39625000	      3961	80001b60	01c008ef	jal	x17,80001b60	 x17=0x80001b60
       39635000	      3962	00000000	00000013	addi	x0,x0,0	  x0:0x00000000
       39645000	      3963	80001b78	00000013	addi	x0,x0,0	  x0:0x00000000
       39655000	      3964	80001b7c	fd1ff0ef	jal	x1,80001b7c	  x1=0x80001b7c
       39665000	      3965	00000000	00000013	addi	x0,x0,0	  x0:0x00000000
       39675000	      3966	80001b48	00000013	addi	x0,x0,0	  x0:0x00000000
       39685000	      3967	80001b4c	ff9ff0ef	jal	x1,80001b4c	  x1=0x80001b4c
       39695000	      3968	00000000	00000013	addi	x0,x0,0	  x0:0x00000000
       39705000	      3969	80001b40	00000013	addi	x0,x0,0	  x0:0x00000000
       39715000	      3970	80001b44	040000ef	jal	x1,80001b44	  x1=0x80001b44
       39725000	      3971	00000000	00000013	addi	x0,x0,0	  x0:0x00000000
       39735000	      3972	80001b80	00000013	addi	x0,x0,0	  x0:0x00000000
       39745000	      3973	80001b84	fb9ff2ef	jal	x5,80001b84	  x5=0x80001b84
       39755000	      3974	00000000	00000013	addi	x0,x0,0	  x0:0x00000000
       39765000	      3975	80001b38	00000013	addi	x0,x0,0	  x0:0x00000000
       39775000	      3976	80001b3c	fedff2ef	jal	x5,80001b3c	  x5=0x80001b3c
       39785000	      3977	00000000	00000013	addi	x0,x0,0	  x0:0x00000000
       39795000	      3978	80001b24	00000013	addi	x0,x0,0	  x0:0x00000000
       39805000	      3979	80001b28	048000ef	jal	x1,80001b28	  x1=0x80001b28
       39815000	      3980	00000000	00000013	addi	x0,x0,0	  x0:0x00000000
       39825000	      3981	80001b6c	00000013	addi	x0,x0,0	  x0:0x00000000
       39835000	      3982	80001b70	fb5ffe6f	jal	x28,80001b70	 x28=0x80001b70
       39845000	      3983	00000000	00000013	addi	x0,x0,0	  x0:0x00000000
       39855000	      3984	80001b20	00000013	addi	x0,x0,0	  x0:0x00000000
       39865000	      3985	80001b24	014000ef	jal	x1,80001b24	  x1=0x80001b24
       39875000	      3986	00000000	00000013	addi	x0,x0,0	  x0:0x00000000
       39885000	      3987	80001b34	00000013	addi	x0,x0,0	  x0:0x00000000
       39895000	      3988	80001b38	008001ef	jal	x3,80001b38	  x3=0x80001b38
       39905000	      3989	00000000	00000013	addi	x0,x0,0	  x0:0x00000000
       39915000	      3990	80001b3c	00000013	addi	x0,x0,0	  x0:0x00000000
       39925000	      3991	80001b40	010002ef	jal	x5,80001b40	  x5=0x80001b40
       39935000	      3992	00000000	00000013	addi	x0,x0,0	  x0:0x00000000
       39945000	      3993	80001b4c	00000013	addi	x0,x0,0	  x0:0x00000000
       39955000	      3994	80001b50	028000ef	jal	x1,80001b50	  x1=0x80001b50
       39965000	      3995	00000000	00000013	addi	x0,x0,0	  x0:0x00000000
       39975000	      3996	80001b74	00000013	addi	x0,x0,0	  x0:0x00000000
       39985000	      3997	80001b78	fb5ff3ef	jal	x7,80001b78	  x7=0x80001b78
       39995000	      3998	00000000	00000013	addi	x0,x0,0	  x0:0x00000000
       40005000	      3999	80001b28	00000013	addi	x0,x0,0	  x0:0x00000000
       40015000	      4000	80001b2c	05c000ef	jal	x1,80001b2c	  x1=0x80001b2c
       40025000	      4001	00000000	00000013	addi	x0,x0,0	  x0:0x00000000
       40035000	      4002	80001b84	00000013	addi	x0,x0,0	  x0:0x00000000
       40045000	      4003	80001b88	00537033	and	x0,x6,x5	  x6:0x80001adc  x5:0x80001b40
       40055000	      4004	80001b8c	024000ef	jal	x1,80001b8c	  x1=0x80001b8c
       40065000	      4005	00000000	00000013	addi	x0,x0,0	  x0:0x00000000
       40075000	      4006	80001bac	00000013	addi	x0,x0,0	  x0:0x00000000
       40085000	      4007	80001bb0	03c000ef	jal	x1,80001bb0	  x1=0x80001bb0
       40095000	      4008	00000000	00000013	addi	x0,x0,0	  x0:0x00000000
       40105000	      4009	80001be8	00000013	addi	x0,x0,0	  x0:0x00000000
       40115000	      4010	80001bec	ffdff36f	jal	x6,80001bec	  x6=0x80001bec
       40125000	      4011	00000000	00000013	addi	x0,x0,0	  x0:0x00000000
       40135000	      4012	80001be4	00000013	addi	x0,x0,0	  x0:0x00000000
       40145000	      4013	80001be8	fcdff36f	jal	x6,80001be8	  x6=0x80001be8
       40155000	      4014	00000000	00000013	addi	x0,x0,0	  x0:0x00000000
       40165000	      4015	80001bb0	00000013	addi	x0,x0,0	  x0:0x00000000
       40175000	      4016	80001bb4	fedff0ef	jal	x1,80001bb4	  x1=0x80001bb4
       40185000	      4017	00000000	00000013	addi	x0,x0,0	  x0:0x00000000
       40195000	      4018	80001b9c	00000013	addi	x0,x0,0	  x0:0x00000000
       40205000	      4019	80001ba0	ff1ff36f	jal	x6,80001ba0	  x6=0x80001ba0
       40215000	      4020	00000000	00000013	addi	x0,x0,0	  x0:0x00000000
       40225000	      4021	80001b8c	00000013	addi	x0,x0,0	  x0:0x00000000
       40235000	      4022	80001b90	0180036f	jal	x6,80001b90	  x6=0x80001b90
       40245000	      4023	00000000	00000013	addi	x0,x0,0	  x0:0x00000000
       40255000	      4024	80001ba4	00000013	addi	x0,x0,0	  x0:0x00000000
       40265000	      4025	80001ba8	03c0016f	jal	x2,80001ba8	  x2=0x80001ba8
       40275000	      4026	00000000	00000013	addi	x0,x0,0	  x0:0x00000000
       40285000	      4027	80001be0	00000013	addi	x0,x0,0	  x0:0x00000000
       40295000	      4028	80001be4	fc9ff36f	jal	x6,80001be4	  x6=0x80001be4
       40305000	      4029	00000000	00000013	addi	x0,x0,0	  x0:0x00000000
       40315000	      4030	80001ba8	00000013	addi	x0,x0,0	  x0:0x00000000
       40325000	      4031	80001bac	fedff0ef	jal	x1,80001bac	  x1=0x80001bac
       40335000	      4032	00000000	00000013	addi	x0,x0,0	  x0:0x00000000
       40345000	      4033	80001b94	00000013	addi	x0,x0,0	  x0:0x00000000
       40355000	      4034	80001b98	05c0036f	jal	x6,80001b98	  x6=0x80001b98
       40365000	      4035	00000000	00000013	addi	x0,x0,0	  x0:0x00000000
       40375000	      4036	80001bf0	00000013	addi	x0,x0,0	  x0:0x00000000
       40385000	      4037	80001bf4	fa1ff0ef	jal	x1,80001bf4	  x1=0x80001bf4
       40395000	      4038	00000000	00000013	addi	x0,x0,0	  x0:0x00000000
       40405000	      4039	80001b90	00000013	addi	x0,x0,0	  x0:0x00000000
       40415000	      4040	80001b94	0400026f	jal	x4,80001b94	  x4=0x80001b94
       40425000	      4041	00000000	00000013	addi	x0,x0,0	  x0:0x00000000
       40435000	      4042	80001bd0	00000013	addi	x0,x0,0	  x0:0x00000000
       40445000	      4043	80001bd4	ff5ff0ef	jal	x1,80001bd4	  x1=0x80001bd4
       40455000	      4044	00000000	00000013	addi	x0,x0,0	  x0:0x00000000
       40465000	      4045	80001bc4	00000013	addi	x0,x0,0	  x0:0x00000000
       40475000	      4046	80001bc8	008000ef	jal	x1,80001bc8	  x1=0x80001bc8
       40485000	      4047	00000000	00000013	addi	x0,x0,0	  x0:0x00000000
       40495000	      4048	80001bcc	00000013	addi	x0,x0,0	  x0:0x00000000
       40505000	      4049	80001bd0	fe9ff0ef	jal	x1,80001bd0	  x1=0x80001bd0
       40515000	      4050	00000000	00000013	addi	x0,x0,0	  x0:0x00000000
       40525000	      4051	80001bb4	00000013	addi	x0,x0,0	  x0:0x00000000
       40535000	      4052	80001bb8	0040046f	jal	x8,80001bb8	  x8=0x80001bb8
       40545000	      4053	00000000	00000013	addi	x0,x0,0	  x0:0x00000000
       40555000	      4054	80001bb8	00000013	addi	x0,x0,0	  x0:0x00000000
       40565000	      4055	80001bbc	01000cef	jal	x25,80001bbc	 x25=0x80001bbc
       40575000	      4056	00000000	00000013	addi	x0,x0,0	  x0:0x00000000
       40585000	      4057	80001bc8	00000013	addi	x0,x0,0	  x0:0x00000000
       40595000	      4058	80001bcc	010000ef	jal	x1,80001bcc	  x1=0x80001bcc
       40605000	      4059	00000000	00000013	addi	x0,x0,0	  x0:0x00000000
       40615000	      4060	80001bd8	00000013	addi	x0,x0,0	  x0:0x00000000
       40625000	      4061	80001bdc	014000ef	jal	x1,80001bdc	  x1=0x80001bdc
       40635000	      4062	00000000	00000013	addi	x0,x0,0	  x0:0x00000000
       40645000	      4063	80001bec	00000013	addi	x0,x0,0	  x0:0x00000000
       40655000	      4064	80001bf0	fd1ff0ef	jal	x1,80001bf0	  x1=0x80001bf0
       40665000	      4065	00000000	00000013	addi	x0,x0,0	  x0:0x00000000
       40675000	      4066	80001bbc	00000013	addi	x0,x0,0	  x0:0x00000000
       40685000	      4067	80001bc0	fe5ff0ef	jal	x1,80001bc0	  x1=0x80001bc0
       40695000	      4068	00000000	00000013	addi	x0,x0,0	  x0:0x00000000
       40705000	      4069	80001ba0	00000013	addi	x0,x0,0	  x0:0x00000000
       40715000	      4070	80001ba4	03c000ef	jal	x1,80001ba4	  x1=0x80001ba4
       40725000	      4071	00000000	00000013	addi	x0,x0,0	  x0:0x00000000
       40735000	      4072	80001bdc	00000013	addi	x0,x0,0	  x0:0x00000000
       40745000	      4073	80001be0	ff9ff0ef	jal	x1,80001be0	  x1=0x80001be0
       40755000	      4074	00000000	00000013	addi	x0,x0,0	  x0:0x00000000
       40765000	      4075	80001bd4	00000013	addi	x0,x0,0	  x0:0x00000000
       40775000	      4076	80001bd8	fc5ffa6f	jal	x20,80001bd8	 x20=0x80001bd8
       40785000	      4077	00000000	00000013	addi	x0,x0,0	  x0:0x00000000
       40795000	      4078	80001b98	00000013	addi	x0,x0,0	  x0:0x00000000
       40805000	      4079	80001b9c	0280026f	jal	x4,80001b9c	  x4=0x80001b9c
       40815000	      4080	00000000	00000013	addi	x0,x0,0	  x0:0x00000000
       40825000	      4081	80001bc0	00000013	addi	x0,x0,0	  x0:0x00000000
       40835000	      4082	80001bc4	0340026f	jal	x4,80001bc4	  x4=0x80001bc4
       40845000	      4083	00000000	00000013	addi	x0,x0,0	  x0:0x00000000
       40855000	      4084	80001bf4	00000013	addi	x0,x0,0	  x0:0x00000000
       40865000	      4085	80001bf8	41f0d793	srai	x15,x1,0x1f	  x1:0x80001be0 x15=0xffffffff
       40875000	      4086	80001bfc	014000ef	jal	x1,80001bfc	  x1=0x80001bfc
       40885000	      4087	00000000	00000013	addi	x0,x0,0	  x0:0x00000000
       40895000	      4088	80001c0c	00000013	addi	x0,x0,0	  x0:0x00000000
       40905000	      4089	80001c10	ff1ff0ef	jal	x1,80001c10	  x1=0x80001c10
       40915000	      4090	00000000	00000013	addi	x0,x0,0	  x0:0x00000000
       40925000	      4091	80001bfc	00000013	addi	x0,x0,0	  x0:0x00000000
       40935000	      4092	80001c00	008000ef	jal	x1,80001c00	  x1=0x80001c00
       40945000	      4093	00000000	00000013	addi	x0,x0,0	  x0:0x00000000
       40955000	      4094	80001c04	00000013	addi	x0,x0,0	  x0:0x00000000
       40965000	      4095	80001c08	018000ef	jal	x1,80001c08	  x1=0x80001c08
       40975000	      4096	00000000	00000013	addi	x0,x0,0	  x0:0x00000000
       40985000	      4097	80001c1c	00000013	addi	x0,x0,0	  x0:0x00000000
       40995000	      4098	80001c20	fedff36f	jal	x6,80001c20	  x6=0x80001c20
       41005000	      4099	00000000	00000013	addi	x0,x0,0	  x0:0x00000000
       41015000	      4100	80001c08	00000013	addi	x0,x0,0	  x0:0x00000000
       41025000	      4101	80001c0c	00c000ef	jal	x1,80001c0c	  x1=0x80001c0c
       41035000	      4102	00000000	00000013	addi	x0,x0,0	  x0:0x00000000
       41045000	      4103	80001c14	00000013	addi	x0,x0,0	  x0:0x00000000
       41055000	      4104	80001c18	fedff5ef	jal	x11,80001c18	 x11=0x80001c18
       41065000	      4105	00000000	00000013	addi	x0,x0,0	  x0:0x00000000
       41075000	      4106	80001c00	00000013	addi	x0,x0,0	  x0:0x00000000
       41085000	      4107	80001c04	0100036f	jal	x6,80001c04	  x6=0x80001c04
       41095000	      4108	00000000	00000013	addi	x0,x0,0	  x0:0x00000000
       41105000	      4109	80001c10	00000013	addi	x0,x0,0	  x0:0x00000000
       41115000	      4110	80001c14	014000ef	jal	x1,80001c14	  x1=0x80001c14
       41125000	      4111	00000000	00000013	addi	x0,x0,0	  x0:0x00000000
       41135000	      4112	80001c24	00000013	addi	x0,x0,0	  x0:0x00000000
       41145000	      4113	80001c28	0080036f	jal	x6,80001c28	  x6=0x80001c28
       41155000	      4114	00000000	00000013	addi	x0,x0,0	  x0:0x00000000
       41165000	      4115	80001c2c	00000013	addi	x0,x0,0	  x0:0x00000000
       41175000	      4116	80001c30	ff5ffeef	jal	x29,80001c30	 x29=0x80001c30
       41185000	      4117	00000000	00000013	addi	x0,x0,0	  x0:0x00000000
       41195000	      4118	80001c20	00000013	addi	x0,x0,0	  x0:0x00000000
       41205000	      4119	80001c24	ff9ff36f	jal	x6,80001c24	  x6=0x80001c24
       41215000	      4120	00000000	00000013	addi	x0,x0,0	  x0:0x00000000
       41225000	      4121	80001c18	00000013	addi	x0,x0,0	  x0:0x00000000
       41235000	      4122	80001c1c	0100036f	jal	x6,80001c1c	  x6=0x80001c1c
       41245000	      4123	00000000	00000013	addi	x0,x0,0	  x0:0x00000000
       41255000	      4124	80001c28	00000013	addi	x0,x0,0	  x0:0x00000000
       41265000	      4125	80001c2c	00800f6f	jal	x30,80001c2c	 x30=0x80001c2c
       41275000	      4126	00000000	00000013	addi	x0,x0,0	  x0:0x00000000
       41285000	      4127	80001c30	00000013	addi	x0,x0,0	  x0:0x00000000
       41295000	      4128	80001c34	405f0333	sub	x6,x30,x5	 x30:0x80001c2c  x5:0x80001b40  x6=0x000000ec
       41305000	      4129	80001c38	068000ef	jal	x1,80001c38	  x1=0x80001c38
       41315000	      4130	00000000	00000013	addi	x0,x0,0	  x0:0x00000000
       41325000	      4131	80001c9c	00000013	addi	x0,x0,0	  x0:0x00000000
       41335000	      4132	80001ca0	fcdff0ef	jal	x1,80001ca0	  x1=0x80001ca0
       41345000	      4133	00000000	00000013	addi	x0,x0,0	  x0:0x00000000
       41355000	      4134	80001c68	00000013	addi	x0,x0,0	  x0:0x00000000
       41365000	      4135	80001c6c	fd1ff0ef	jal	x1,80001c6c	  x1=0x80001c6c
       41375000	      4136	00000000	00000013	addi	x0,x0,0	  x0:0x00000000
       41385000	      4137	80001c38	00000013	addi	x0,x0,0	  x0:0x00000000
       41395000	      4138	80001c3c	028000ef	jal	x1,80001c3c	  x1=0x80001c3c
       41405000	      4139	00000000	00000013	addi	x0,x0,0	  x0:0x00000000
       41415000	      4140	80001c60	00000013	addi	x0,x0,0	  x0:0x00000000
       41425000	      4141	80001c64	fe1ff0ef	jal	x1,80001c64	  x1=0x80001c64
       41435000	      4142	00000000	00000013	addi	x0,x0,0	  x0:0x00000000
       41445000	      4143	80001c40	00000013	addi	x0,x0,0	  x0:0x00000000
       41455000	      4144	80001c44	05800aef	jal	x21,80001c44	 x21=0x80001c44
       41465000	      4145	00000000	00000013	addi	x0,x0,0	  x0:0x00000000
       41475000	      4146	80001c98	00000013	addi	x0,x0,0	  x0:0x00000000
       41485000	      4147	80001c9c	0080036f	jal	x6,80001c9c	  x6=0x80001c9c
       41495000	      4148	00000000	00000013	addi	x0,x0,0	  x0:0x00000000
       41505000	      4149	80001ca0	00000013	addi	x0,x0,0	  x0:0x00000000
       41515000	      4150	80001ca4	fd9ff0ef	jal	x1,80001ca4	  x1=0x80001ca4
       41525000	      4151	00000000	00000013	addi	x0,x0,0	  x0:0x00000000
       41535000	      4152	80001c78	00000013	addi	x0,x0,0	  x0:0x00000000
       41545000	      4153	80001c7c	01c002ef	jal	x5,80001c7c	  x5=0x80001c7c
       41555000	      4154	00000000	00000013	addi	x0,x0,0	  x0:0x00000000
       41565000	      4155	80001c94	00000013	addi	x0,x0,0	  x0:0x00000000
       41575000	      4156	80001c98	fd9ff1ef	jal	x3,80001c98	  x3=0x80001c98
       41585000	      4157	00000000	00000013	addi	x0,x0,0	  x0:0x00000000
       41595000	      4158	80001c6c	00000013	addi	x0,x0,0	  x0:0x00000000
       41605000	      4159	80001c70	03c0036f	jal	x6,80001c70	  x6=0x80001c70
       41615000	      4160	00000000	00000013	addi	x0,x0,0	  x0:0x00000000
       41625000	      4161	80001ca8	00000013	addi	x0,x0,0	  x0:0x00000000
       41635000	      4162	80001cac	fddff0ef	jal	x1,80001cac	  x1=0x80001cac
       41645000	      4163	00000000	00000013	addi	x0,x0,0	  x0:0x00000000
       41655000	      4164	80001c84	00000013	addi	x0,x0,0	  x0:0x00000000
       41665000	      4165	80001c88	fcdff36f	jal	x6,80001c88	  x6=0x80001c88
       41675000	      4166	00000000	00000013	addi	x0,x0,0	  x0:0x00000000
       41685000	      4167	80001c50	00000013	addi	x0,x0,0	  x0:0x00000000
       41695000	      4168	80001c54	038000ef	jal	x1,80001c54	  x1=0x80001c54
       41705000	      4169	00000000	00000013	addi	x0,x0,0	  x0:0x00000000
       41715000	      4170	80001c88	00000013	addi	x0,x0,0	  x0:0x00000000
       41725000	      4171	80001c8c	fc5ff36f	jal	x6,80001c8c	  x6=0x80001c8c
       41735000	      4172	00000000	00000013	addi	x0,x0,0	  x0:0x00000000
       41745000	      4173	80001c4c	00000013	addi	x0,x0,0	  x0:0x00000000
       41755000	      4174	80001c50	034000ef	jal	x1,80001c50	  x1=0x80001c50
       41765000	      4175	00000000	00000013	addi	x0,x0,0	  x0:0x00000000
       41775000	      4176	80001c80	00000013	addi	x0,x0,0	  x0:0x00000000
       41785000	      4177	80001c84	fd5ff0ef	jal	x1,80001c84	  x1=0x80001c84
       41795000	      4178	00000000	00000013	addi	x0,x0,0	  x0:0x00000000
       41805000	      4179	80001c54	00000013	addi	x0,x0,0	  x0:0x00000000
       41815000	      4180	80001c58	01000e6f	jal	x28,80001c58	 x28=0x80001c58
       41825000	      4181	00000000	00000013	addi	x0,x0,0	  x0:0x00000000
       41835000	      4182	80001c64	00000013	addi	x0,x0,0	  x0:0x00000000
       41845000	      4183	80001c68	018000ef	jal	x1,80001c68	  x1=0x80001c68
       41855000	      4184	00000000	00000013	addi	x0,x0,0	  x0:0x00000000
       41865000	      4185	80001c7c	00000013	addi	x0,x0,0	  x0:0x00000000
       41875000	      4186	80001c80	fe1ff0ef	jal	x1,80001c80	  x1=0x80001c80
       41885000	      4187	00000000	00000013	addi	x0,x0,0	  x0:0x00000000
       41895000	      4188	80001c5c	00000013	addi	x0,x0,0	  x0:0x00000000
       41905000	      4189	80001c60	fe9ff0ef	jal	x1,80001c60	  x1=0x80001c60
       41915000	      4190	00000000	00000013	addi	x0,x0,0	  x0:0x00000000
       41925000	      4191	80001c44	00000013	addi	x0,x0,0	  x0:0x00000000
       41935000	      4192	80001c48	004000ef	jal	x1,80001c48	  x1=0x80001c48
       41945000	      4193	00000000	00000013	addi	x0,x0,0	  x0:0x00000000
       41955000	      4194	80001c48	00000013	addi	x0,x0,0	  x0:0x00000000
       41965000	      4195	80001c4c	044000ef	jal	x1,80001c4c	  x1=0x80001c4c
       41975000	      4196	00000000	00000013	addi	x0,x0,0	  x0:0x00000000
       41985000	      4197	80001c8c	00000013	addi	x0,x0,0	  x0:0x00000000
       41995000	      4198	80001c90	fe5ff0ef	jal	x1,80001c90	  x1=0x80001c90
       42005000	      4199	00000000	00000013	addi	x0,x0,0	  x0:0x00000000
       42015000	      4200	80001c70	00000013	addi	x0,x0,0	  x0:0x00000000
       42025000	      4201	80001c74	004000ef	jal	x1,80001c74	  x1=0x80001c74
       42035000	      4202	00000000	00000013	addi	x0,x0,0	  x0:0x00000000
       42045000	      4203	80001c74	00000013	addi	x0,x0,0	  x0:0x00000000
       42055000	      4204	80001c78	030000ef	jal	x1,80001c78	  x1=0x80001c78
       42065000	      4205	00000000	00000013	addi	x0,x0,0	  x0:0x00000000
       42075000	      4206	80001ca4	00000013	addi	x0,x0,0	  x0:0x00000000
       42085000	      4207	80001ca8	fedff0ef	jal	x1,80001ca8	  x1=0x80001ca8
       42095000	      4208	00000000	00000013	addi	x0,x0,0	  x0:0x00000000
       42105000	      4209	80001c90	00000013	addi	x0,x0,0	  x0:0x00000000
       42115000	      4210	80001c94	fadff3ef	jal	x7,80001c94	  x7=0x80001c94
       42125000	      4211	00000000	00000013	addi	x0,x0,0	  x0:0x00000000
       42135000	      4212	80001c3c	00000013	addi	x0,x0,0	  x0:0x00000000
       42145000	      4213	80001c40	01c000ef	jal	x1,80001c40	  x1=0x80001c40
       42155000	      4214	00000000	00000013	addi	x0,x0,0	  x0:0x00000000
       42165000	      4215	80001c58	00000013	addi	x0,x0,0	  x0:0x00000000
       42175000	      4216	80001c5c	054000ef	jal	x1,80001c5c	  x1=0x80001c5c
       42185000	      4217	00000000	00000013	addi	x0,x0,0	  x0:0x00000000
       42195000	      4218	80001cac	00000013	addi	x0,x0,0	  x0:0x00000000
       42205000	      4219	80001cb0	3929be17	auipc	x28,0x3929b	 x28=0xb929ccac
       42215000	      4220	80001cb4	393dc1b7	lui	x3,0x393dc	  x3=0x393dc000
       42225000	      4221	80001cb8	032c9263	bne	x25,x18,80001cdc	 x25:0x80001bbc x18:0x80009fc4
       42235000	      4222	00000000	00000013	addi	x0,x0,0	  x0:0x00000000
       42245000	      4223	80001cd8	00000013	addi	x0,x0,0	  x0:0x00000000
       42255000	      4224	80001cdc	413e5233	sra	x4,x28,x19	 x28:0xb929ccac x19:0x80001b18  x4=0xffffffb9
       42265000	      4225	80001ce0	9714c693	xori	x13,x9,-1679	  x9:0x0000008c x13=0xfffff9fd
       42275000	      4226	80001ce4	0256c663	blt	x13,x5,80001d10	 x13:0xfffff9fd  x5:0x80001c7c
       42285000	      4227	80001ce8	01f51e93	slli	x29,x10,0x1f	 x10:0xffffffbb x29=0x80000000
       42295000	      4228	80001cec	01a35a13	srli	x20,x6,0x1a	  x6:0x80001c8c x20=0x00000020
       42305000	      4229	80001cf0	00000013	addi	x0,x0,0	  x0:0x00000000
       42315000	      4230	80001cf4	00bc2033	slt	x0,x24,x11	 x24:0x80001afc x11:0x80001c18
       42325000	      4231	80001cf8	00aa47b3	xor	x15,x20,x10	 x20:0x00000020 x10:0xffffffbb x15=0xffffff9b
       42335000	      4232	80001cfc	05507863	bgeu	x0,x21,80001d4c	  x0:0x00000000 x21:0x80001c44
       42345000	      4233	80001d00	00609cb3	sll	x25,x1,x6	  x1:0x80001c5c  x6:0x80001c8c x25=0x01c5c000
       42355000	      4234	80001d04	000e5d13	srli	x26,x28,0x0	 x28:0xb929ccac x26=0xb929ccac
       42365000	      4235	80001d08	1d00e993	ori	x19,x1,464	  x1:0x80001c5c x19=0x80001ddc
       42375000	      4236	80001d0c	03d71c63	bne	x14,x29,80001d44	 x14:0x80001a8c x29:0x80000000
       42385000	      4237	00000000	00000013	addi	x0,x0,0	  x0:0x00000000
       42395000	      4238	80001d40	00000013	addi	x0,x0,0	  x0:0x00000000
       42405000	      4239	80001d44	48a43113	sltiu	x2,x8,1162	  x8:0x80001bb8  x2=0x00000000
       42415000	      4240	80001d48	416bd4b3	sra	x9,x23,x22	 x23:0x8000a009 x22:0x80001934  x9=0xfffff800
       42425000	      4241	80001d4c	00f39813	slli	x16,x7,0xf	  x7:0x80001c94 x16=0x0e4a0000
       42435000	      4242	80001d50	00746733	or	x14,x8,x7	  x8:0x80001bb8  x7:0x80001c94 x14=0x80001fbc
       42445000	      4243	80001d54	cc9f4e93	xori	x29,x30,-823	 x30:0x80001c2c x29=0x7fffe0e5
       42455000	      4244	80001d58	00000013	addi	x0,x0,0	  x0:0x00000000
       42465000	      4245	80001d5c	012a95b3	sll	x11,x21,x18	 x21:0x80001c44 x18:0x80009fc4 x11=0x0001c440
       42475000	      4246	80001d60	00729193	slli	x3,x5,0x7	  x5:0x80001c7c  x3=0x000e3e00
       42485000	      4247	80001d64	e4f1b693	sltiu	x13,x3,-433	  x3:0x000e3e00 x13=0x00000001
       42495000	      4248	80001d68	00120663	beq	x4,x1,80001d74	  x4:0xffffffb9  x1:0x80001c5c
       42505000	      4249	80001d6c	000ab133	sltu	x2,x21,x0	 x21:0x80001c44  x0:0x00000000  x2=0x00000000
       42515000	      4250	80001d70	01920a33	add	x20,x4,x25	  x4:0xffffffb9 x25:0x01c5c000 x20=0x01c5bfb9
       42525000	      4251	80001d74	00008463	beq	x1,x0,80001d7c	  x1:0x80001c5c  x0:0x00000000
       42535000	      4252	80001d78	01a2f0b3	and	x1,x5,x26	  x5:0x80001c7c x26:0xb929ccac  x1=0x80000c2c
       42545000	      4253	80001d7c	01aefcb3	and	x25,x29,x26	 x29:0x7fffe0e5 x26:0xb929ccac x25=0x3929c0a4
       42555000	      4254	80001d80	00fcfcb3	and	x25,x25,x15	 x25:0x3929c0a4 x15:0xffffff9b x25=0x3929c080
       42565000	      4255	80001d84	c36c2493	slti	x9,x24,-970	 x24:0x80001afc  x9=0x00000001
       42575000	      4256	80001d88	00000013	addi	x0,x0,0	  x0:0x00000000
       42585000	      4257	80001d8c	00dc9693	slli	x13,x25,0xd	 x25:0x3929c080 x13=0x38100000
       42595000	      4258	80001d90	007f9413	slli	x8,x31,0x7	 x31:0x80009ec4  x8=0x004f6200
       42605000	      4259	80001d94	241b4213	xori	x4,x22,577	 x22:0x80001934  x4=0x80001b75
       42615000	      4260	80001d98	01af5ab3	srl	x21,x30,x26	 x30:0x80001c2c x26:0xb929ccac x21=0x00080001
       42625000	      4261	80001d9c	012201b3	add	x3,x4,x18	  x4:0x80001b75 x18:0x80009fc4  x3=0x0000bb39
       42635000	      4262	80001da0	00000013	addi	x0,x0,0	  x0:0x00000000
       42645000	      4263	80001da4	058eb093	sltiu	x1,x29,88	 x29:0x7fffe0e5  x1=0x00000000
       42655000	      4264	80001da8	05ec8263	beq	x25,x30,80001dec	 x25:0x3929c080 x30:0x80001c2c
       42665000	      4265	80001dac	8c2f3293	sltiu	x5,x30,-1854	 x30:0x80001c2c  x5=0x00000001
       42675000	      4266	80001db0	97dc6513	ori	x10,x24,-1667	 x24:0x80001afc x10=0xfffffbfd
       42685000	      4267	80001db4	fb81e313	ori	x6,x3,-72	  x3:0x0000bb39  x6=0xffffffb9
       42695000	      4268	80001db8	edd52b93	slti	x23,x10,-291	 x10:0xfffffbfd x23=0x00000001
       42705000	      4269	80001dbc	04bf8263	beq	x31,x11,80001e00	 x31:0x80009ec4 x11:0x0001c440
       42715000	      4270	80001dc0	40138a33	sub	x20,x7,x1	  x7:0x80001c94  x1:0x00000000 x20=0x80001c94
       42725000	      4271	80001dc4	0180f6b3	and	x13,x1,x24	  x1:0x00000000 x24:0x80001afc x13=0x00000000
       42735000	      4272	80001dc8	02594a63	blt	x18,x5,80001dfc	 x18:0x80009fc4  x5:0x00000001
       42745000	      4273	00000000	00000013	addi	x0,x0,0	  x0:0x00000000
       42755000	      4274	80001df8	00000013	addi	x0,x0,0	  x0:0x00000000
       42765000	      4275	80001dfc	0570c863	blt	x1,x23,80001e4c	  x1:0x00000000 x23:0x00000001
       42775000	      4276	00000000	00000013	addi	x0,x0,0	  x0:0x00000000
       42785000	      4277	80001e48	00000013	addi	x0,x0,0	  x0:0x00000000
       42795000	      4278	80001e4c	005b9193	slli	x3,x23,0x5	 x23:0x00000001  x3=0x00000020
       42805000	      4279	80001e50	b1c4dab7	lui	x21,0xb1c4d	 x21=0xb1c4d000
       42815000	      4280	80001e54	014cd4b3	srl	x9,x25,x20	 x25:0x3929c080 x20:0x80001c94  x9=0x00000392
       42825000	      4281	80001e58	41d683b3	sub	x7,x13,x29	 x13:0x00000000 x29:0x7fffe0e5  x7=0x80001f1b
       42835000	      4282	80001e5c	70196793	ori	x15,x18,1793	 x18:0x80009fc4 x15=0x80009fc5
       42845000	      4283	80001e60	d32a3c13	sltiu	x24,x20,-718	 x20:0x80001c94 x24=0x00000001
       42855000	      4284	80001e64	0182c6b3	xor	x13,x5,x24	  x5:0x00000001 x24:0x00000001 x13=0x00000000
       42865000	      4285	80001e68	0378c663	blt	x17,x23,80001e94	 x17:0x80001b60 x23:0x00000001
       42875000	      4286	00000000	00000013	addi	x0,x0,0	  x0:0x00000000
       42885000	      4287	80001e90	00000013	addi	x0,x0,0	  x0:0x00000000
       42895000	      4288	80001e94	40d45393	srai	x7,x8,0xd	  x8:0x004f6200  x7=0x0000027b
       42905000	      4289	80001e98	010accb3	xor	x25,x21,x16	 x21:0xb1c4d000 x16:0x0e4a0000 x25=0xbf8ed000
       42915000	      4290	80001e9c	0114c463	blt	x9,x17,80001ea4	  x9:0x00000392 x17:0x80001b60
       42925000	      4291	80001ea0	018313b3	sll	x7,x6,x24	  x6:0xffffffb9 x24:0x00000001  x7=0xffffff72
       42935000	      4292	80001ea4	05270863	beq	x14,x18,80001ef4	 x14:0x80001fbc x18:0x80009fc4
       42945000	      4293	80001ea8	0032d6b3	srl	x13,x5,x3	  x5:0x00000001  x3:0x00000020 x13=0x00000001
       42955000	      4294	80001eac	00e4b5b3	sltu	x11,x9,x14	  x9:0x00000392 x14:0x80001fbc x11=0x00000001
       42965000	      4295	80001eb0	1db40793	addi	x15,x8,475	  x8:0x004f6200 x15=0x004f63db
       42975000	      4296	80001eb4	04ade863	bltu	x27,x10,80001f04	 x27:0x00000000 x10:0xfffffbfd
       42985000	      4297	00000000	00000013	addi	x0,x0,0	  x0:0x00000000
       42995000	      4298	80001f00	00000013	addi	x0,x0,0	  x0:0x00000000
       43005000	      4299	80001f04	01559133	sll	x2,x11,x21	 x11:0x00000001 x21:0xb1c4d000  x2=0x00000001
       43015000	      4300	80001f08	986daab7	lui	x21,0x986da	 x21=0x986da000
       43025000	      4301	80001f0c	019760b3	or	x1,x14,x25	 x14:0x80001fbc x25:0xbf8ed000  x1=0xbf8edfbc
       43035000	      4302	80001f10	01ccdb33	srl	x22,x25,x28	 x25:0xbf8ed000 x28:0xb929ccac x22=0x000bf8ed
       43045000	      4303	80001f14	00f039b3	sltu	x19,x0,x15	  x0:0x00000000 x15:0x004f63db x19=0x00000001
       43055000	      4304	80001f18	a49e24b7	lui	x9,0xa49e2	  x9=0xa49e2000
       43065000	      4305	80001f1c	21fd1c17	auipc	x24,0x21fd1	 x24=0xa1fd2f18
       43075000	      4306	80001f20	668e0317	auipc	x6,0x668e0	  x6=0xe68e1f1c
       43085000	      4307	80001f24	40145713	srai	x14,x8,0x1	  x8:0x004f6200 x14=0x0027b100
       43095000	      4308	80001f28	0102f533	and	x10,x5,x16	  x5:0x00000001 x16:0x0e4a0000 x10=0x00000000
       43105000	      4309	80001f2c	7e2f4f13	xori	x30,x30,2018	 x30:0x80001c2c x30=0x80001bce
       43115000	      4310	80001f30	41135013	srai	x0,x6,0x11	  x6:0xe68e1f1c
       43125000	      4311	80001f34	78d00a93	addi	x21,x0,1933	  x0:0x00000000 x21=0x0000078d
       43135000	      4312	80001f38	69554b13	xori	x22,x10,1685	 x10:0x00000000 x22=0x00000695
       43145000	      4313	80001f3c	7f7bbd13	sltiu	x26,x23,2039	 x23:0x00000001 x26=0x00000001
       43155000	      4314	80001f40	41325ab3	sra	x21,x4,x19	  x4:0x80001b75 x19:0x00000001 x21=0xc0000dba
       43165000	      4315	80001f44	01831463	bne	x6,x24,80001f4c	  x6:0xe68e1f1c x24:0xa1fd2f18
       43175000	      4316	00000000	00000013	addi	x0,x0,0	  x0:0x00000000
       43185000	      4317	80001f48	00000013	addi	x0,x0,0	  x0:0x00000000
       43195000	      4318	80001f4c	02f79263	bne	x15,x15,80001f70	 x15:0x004f63db x15:0x004f63db
       43205000	      4319	80001f50	02cc8663	beq	x25,x12,80001f7c	 x25:0xbf8ed000 x12:0x000000c3
       43215000	      4320	80001f54	055ad863	bge	x21,x21,80001fa4	 x21:0xc0000dba x21:0xc0000dba
       43225000	      4321	00000000	00000013	addi	x0,x0,0	  x0:0x00000000
       43235000	      4322	80001fa0	00000013	addi	x0,x0,0	  x0:0x00000000
       43245000	      4323	80001fa4	409d0c33	sub	x24,x26,x9	 x26:0x00000001  x9:0xa49e2000 x24=0x5b61e001
       43255000	      4324	80001fa8	2fd36c17	auipc	x24,0x2fd36	 x24=0xafd37fa4
       43265000	      4325	80001fac	017527b3	slt	x15,x10,x23	 x10:0x00000000 x23:0x00000001 x15=0x00000001
       43275000	      4326	80001fb0	41415eb3	sra	x29,x2,x20	  x2:0x00000001 x20:0x80001c94 x29=0x00000000
       43285000	      4327	80001fb4	41515433	sra	x8,x2,x21	  x2:0x00000001 x21:0xc0000dba  x8=0x00000000
       43295000	      4328	80001fb8	40ff0ab3	sub	x21,x30,x15	 x30:0x80001bce x15:0x00000001 x21=0x80001bcd
       43305000	      4329	80001fbc	00085193	srli	x3,x16,0x0	 x16:0x0e4a0000  x3=0x0e4a0000
       43315000	      4330	80001fc0	14fa9737	lui	x14,0x14fa9	 x14=0x14fa9000
       43325000	      4331	80001fc4	f04cb413	sltiu	x8,x25,-252	 x25:0xbf8ed000  x8=0x00000001
       43335000	      4332	80001fc8	0035dc33	srl	x24,x11,x3	 x11:0x00000001  x3:0x0e4a0000 x24=0x00000001
       43345000	      4333	80001fcc	00f21b93	slli	x23,x4,0xf	  x4:0x80001b75 x23=0x0dba8000
       43355000	      4334	80001fd0	06dd5e63	bge	x26,x13,8000204c	 x26:0x00000001 x13:0x00000001
       43365000	      4335	00000000	00000013	addi	x0,x0,0	  x0:0x00000000
       43375000	      4336	80002048	00000013	addi	x0,x0,0	  x0:0x00000000
       43385000	      4337	8000204c	2a128713	addi	x14,x5,673	  x5:0x00000001 x14=0x000002a2
       43395000	      4338	80002050	01f592b3	sll	x5,x11,x31	 x11:0x00000001 x31:0x80009ec4  x5=0x00000010
       43405000	      4339	80002054	60b5a613	slti	x12,x11,1547	 x11:0x00000001 x12=0x00000001
       43415000	      4340	80002058	00d50f33	add	x30,x10,x13	 x10:0x00000000 x13:0x00000001 x30=0x00000001
       43425000	      4341	8000205c	01f50463	beq	x10,x31,80002064	 x10:0x00000000 x31:0x80009ec4
       43435000	      4342	80002060	0002f233	and	x4,x5,x0	  x5:0x00000010  x0:0x00000000  x4=0x00000000
       43445000	      4343	80002064	00ce8b33	add	x22,x29,x12	 x29:0x00000000 x12:0x00000001 x22=0x00000001
       43455000	      4344	80002068	9fa98313	addi	x6,x19,-1542	 x19:0x00000001  x6=0xfffff9fb
       43465000	      4345	8000206c	002b9033	sll	x0,x23,x2	 x23:0x0dba8000  x2:0x00000001
       43475000	      4346	80002070	0196d393	srli	x7,x13,0x19	 x13:0x00000001  x7=0x00000000
       43485000	      4347	80002074	4193d493	srai	x9,x7,0x19	  x7:0x00000000  x9=0x00000000
       43495000	      4348	80002078	e76363b7	lui	x7,0xe7636	  x7=0xe7636000
       43505000	      4349	8000207c	014916b3	sll	x13,x18,x20	 x18:0x80009fc4 x20:0x80001c94 x13=0xfc400000
       43515000	      4350	80002080	005409b3	add	x19,x8,x5	  x8:0x00000001  x5:0x00000010 x19=0x00000011
       43525000	      4351	80002084	00d3e533	or	x10,x7,x13	  x7:0xe7636000 x13:0xfc400000 x10=0xff636000
       43535000	      4352	80002088	02db9263	bne	x23,x13,800020ac	 x23:0x0dba8000 x13:0xfc400000
       43545000	      4353	00000000	00000013	addi	x0,x0,0	  x0:0x00000000
       43555000	      4354	800020a8	00000013	addi	x0,x0,0	  x0:0x00000000
       43565000	      4355	800020ac	019c5193	srli	x3,x24,0x19	 x24:0x00000001  x3=0x00000000
       43575000	      4356	800020b0	aa6cc493	xori	x9,x25,-1370	 x25:0xbf8ed000  x9=0x40712aa6
       43585000	      4357	800020b4	026dc993	xori	x19,x27,38	 x27:0x00000000 x19=0x00000026
       43595000	      4358	800020b8	00000013	addi	x0,x0,0	  x0:0x00000000
       43605000	      4359	800020bc	00000013	addi	x0,x0,0	  x0:0x00000000
       43615000	      4360	800020c0	01936eb3	or	x29,x6,x25	  x6:0xfffff9fb x25:0xbf8ed000 x29=0xfffff9fb
       43625000	      4361	800020c4	021fda63	bge	x31,x1,800020f8	 x31:0x80009ec4  x1:0xbf8edfbc
       43635000	      4362	800020c8	00579993	slli	x19,x15,0x5	 x15:0x00000001 x19=0x00000020
       43645000	      4363	800020cc	04948263	beq	x9,x9,80002110	  x9:0x40712aa6  x9:0x40712aa6
       43655000	      4364	00000000	00000013	addi	x0,x0,0	  x0:0x00000000
       43665000	      4365	8000210c	00000013	addi	x0,x0,0	  x0:0x00000000
       43675000	      4366	80002110	41df0f33	sub	x30,x30,x29	 x30:0x00000001 x29:0xfffff9fb x30=0x00000606
       43685000	      4367	80002114	02dae663	bltu	x21,x13,80002140	 x21:0x80001bcd x13:0xfc400000
       43695000	      4368	00000000	00000013	addi	x0,x0,0	  x0:0x00000000
       43705000	      4369	8000213c	00000013	addi	x0,x0,0	  x0:0x00000000
       43715000	      4370	80002140	00251033	sll	x0,x10,x2	 x10:0xff636000  x2:0x00000001
       43725000	      4371	80002144	03def413	andi	x8,x29,61	 x29:0xfffff9fb  x8=0x00000039
       43735000	      4372	80002148	00240233	add	x4,x8,x2	  x8:0x00000039  x2:0x00000001  x4=0x0000003a
       43745000	      4373	8000214c	014b3833	sltu	x16,x22,x20	 x22:0x00000001 x20:0x80001c94 x16=0x00000001
       43755000	      4374	80002150	03b2d663	bge	x5,x27,8000217c	  x5:0x00000010 x27:0x00000000
       43765000	      4375	00000000	00000013	addi	x0,x0,0	  x0:0x00000000
       43775000	      4376	80002178	00000013	addi	x0,x0,0	  x0:0x00000000
       43785000	      4377	8000217c	0021fc33	and	x24,x3,x2	  x3:0x00000000  x2:0x00000001 x24=0x00000000
       43795000	      4378	80002180	67c73613	sltiu	x12,x14,1660	 x14:0x000002a2 x12=0x00000001
       43805000	      4379	80002184	00f8a133	slt	x2,x17,x15	 x17:0x80001b60 x15:0x00000001  x2=0x00000001
       43815000	      4380	80002188	01a453b3	srl	x7,x8,x26	  x8:0x00000039 x26:0x00000001  x7=0x0000001c
       43825000	      4381	8000218c	051df463	bgeu	x27,x17,800021d4	 x27:0x00000000 x17:0x80001b60
       43835000	      4382	80002190	01aa4133	xor	x2,x20,x26	 x20:0x80001c94 x26:0x00000001  x2=0x80001c95
       43845000	      4383	80002194	51526393	ori	x7,x4,1301	  x4:0x0000003a  x7=0x0000053f
       43855000	      4384	80002198	a983b293	sltiu	x5,x7,-1384	  x7:0x0000053f  x5=0x00000001
       43865000	      4385	8000219c	ce9f8c13	addi	x24,x31,-791	 x31:0x80009ec4 x24=0x80009bad
       43875000	      4386	800021a0	c4afce37	lui	x28,0xc4afc	 x28=0xc4afc000
       43885000	      4387	800021a4	5f3d2ab7	lui	x21,0x5f3d2	 x21=0x5f3d2000
       43895000	      4388	800021a8	048f5263	bge	x30,x8,800021ec	 x30:0x00000606  x8:0x00000039
       43905000	      4389	00000000	00000013	addi	x0,x0,0	  x0:0x00000000
       43915000	      4390	800021e8	00000013	addi	x0,x0,0	  x0:0x00000000
       43925000	      4391	800021ec	002415b3	sll	x11,x8,x2	  x8:0x00000039  x2:0x80001c95 x11=0x07200000
       43935000	      4392	800021f0	00356ab3	or	x21,x10,x3	 x10:0xff636000  x3:0x00000000 x21=0xff636000
       43945000	      4393	800021f4	f91fc693	xori	x13,x31,-111	 x31:0x80009ec4 x13=0x7fff6155
       43955000	      4394	800021f8	3292ca93	xori	x21,x5,809	  x5:0x00000001 x21=0x00000328
       43965000	      4395	800021fc	d7357413	andi	x8,x10,-653	 x10:0xff636000  x8=0xff636000
       43975000	      4396	80002200	01469113	slli	x2,x13,0x14	 x13:0x7fff6155  x2=0x15500000
       43985000	      4397	80002204	6b1f0217	auipc	x4,0x6b1f0	  x4=0xeb1f2200
       43995000	      4398	80002208	41dedb13	srai	x22,x29,0x1d	 x29:0xfffff9fb x22=0xffffffff
       44005000	      4399	8000220c	01d6f663	bgeu	x13,x29,80002218	 x13:0x7fff6155 x29:0xfffff9fb
       44015000	      4400	80002210	2e15a213	slti	x4,x11,737	 x11:0x07200000  x4=0x00000000
       44025000	      4401	80002214	00099c33	sll	x24,x19,x0	 x19:0x00000020  x0:0x00000000 x24=0x00000020
       44035000	      4402	80002218	03d0fc63	bgeu	x1,x29,80002250	  x1:0xbf8edfbc x29:0xfffff9fb
       44045000	      4403	8000221c	014c8eb3	add	x29,x25,x20	 x25:0xbf8ed000 x20:0x80001c94 x29=0x3f8eec94
       44055000	      4404	80002220	02529063	bne	x5,x5,80002240	  x5:0x00000001  x5:0x00000001
       44065000	      4405	80002224	1f10a813	slti	x16,x1,497	  x1:0xbf8edfbc x16=0x00000001
       44075000	      4406	80002228	410fd633	sra	x12,x31,x16	 x31:0x80009ec4 x16:0x00000001 x12=0xc0004f62
       44085000	      4407	8000222c	00616833	or	x16,x2,x6	  x2:0x15500000  x6:0xfffff9fb x16=0xfffff9fb
       44095000	      4408	80002230	004947b3	xor	x15,x18,x4	 x18:0x80009fc4  x4:0x00000000 x15=0x80009fc4
       44105000	      4409	80002234	08564f13	xori	x30,x12,133	 x12:0xc0004f62 x30=0xc0004fe7
       44115000	      4410	80002238	0062b0b3	sltu	x1,x5,x6	  x5:0x00000001  x6:0xfffff9fb  x1=0x00000001
       44125000	      4411	8000223c	037d7863	bgeu	x26,x23,8000226c	 x26:0x00000001 x23:0x0dba8000
       44135000	      4412	80002240	019cfab3	and	x21,x25,x25	 x25:0xbf8ed000 x25:0xbf8ed000 x21=0xbf8ed000
       44145000	      4413	80002244	0590d863	bge	x1,x25,80002294	  x1:0x00000001 x25:0xbf8ed000
       44155000	      4414	00000000	00000013	addi	x0,x0,0	  x0:0x00000000
       44165000	      4415	80002290	00000013	addi	x0,x0,0	  x0:0x00000000
       44175000	      4416	80002294	00c36463	bltu	x6,x12,8000229c	  x6:0xfffff9fb x12:0xc0004f62
       44185000	      4417	80002298	01a07f33	and	x30,x0,x26	  x0:0x00000000 x26:0x00000001 x30=0x00000000
       44195000	      4418	8000229c	418353b3	sra	x7,x6,x24	  x6:0xfffff9fb x24:0x00000020  x7=0xfffff9fb
       44205000	      4419	800022a0	40d38cb3	sub	x25,x7,x13	  x7:0xfffff9fb x13:0x7fff6155 x25=0x800098a6
       44215000	      4420	800022a4	43794413	xori	x8,x18,1079	 x18:0x80009fc4  x8=0x80009bf3
       44225000	      4421	800022a8	68fe79b7	lui	x19,0x68fe7	 x19=0x68fe7000
       44235000	      4422	800022ac	01d5e3b3	or	x7,x11,x29	 x11:0x07200000 x29:0x3f8eec94  x7=0x3faeec94
       44245000	      4423	800022b0	0166d6b3	srl	x13,x13,x22	 x13:0x7fff6155 x22:0xffffffff x13=0x00000000
       44255000	      4424	800022b4	00517e33	and	x28,x2,x5	  x2:0x15500000  x5:0x00000001 x28=0x00000000
       44265000	      4425	800022b8	0036db13	srli	x22,x13,0x3	 x13:0x00000000 x22=0x00000000
       44275000	      4426	800022bc	414cde13	srai	x28,x25,0x14	 x25:0x800098a6 x28=0xfffff800
       44285000	      4427	800022c0	00c21b33	sll	x22,x4,x12	  x4:0x00000000 x12:0xc0004f62 x22=0x00000000
       44295000	      4428	800022c4	00167c33	and	x24,x12,x1	 x12:0xc0004f62  x1:0x00000001 x24=0x00000000
       44305000	      4429	800022c8	00385013	srli	x0,x16,0x3	 x16:0xfffff9fb
       44315000	      4430	800022cc	017b0463	beq	x22,x23,800022d4	 x22:0x00000000 x23:0x0dba8000
       44325000	      4431	800022d0	021d4463	blt	x26,x1,800022f8	 x26:0x00000001  x1:0x00000001
       44335000	      4432	800022d4	1767ff13	andi	x30,x15,374	 x15:0x80009fc4 x30=0x00000144
       44345000	      4433	800022d8	413ed733	sra	x14,x29,x19	 x29:0x3f8eec94 x19:0x68fe7000 x14=0x3f8eec94
       44355000	      4434	800022dc	00000013	addi	x0,x0,0	  x0:0x00000000
       44365000	      4435	800022e0	05ad7863	bgeu	x26,x26,80002330	 x26:0x00000001 x26:0x00000001
       44375000	      4436	00000000	00000013	addi	x0,x0,0	  x0:0x00000000
       44385000	      4437	8000232c	00000013	addi	x0,x0,0	  x0:0x00000000
       44395000	      4438	80002330	003d5433	srl	x8,x26,x3	 x26:0x00000001  x3:0x00000000  x8=0x00000001
       44405000	      4439	80002334	016561b3	or	x3,x10,x22	 x10:0xff636000 x22:0x00000000  x3=0xff636000
       44415000	      4440	80002338	019c5d13	srli	x26,x24,0x19	 x24:0x00000000 x26=0x00000000
       44425000	      4441	8000233c	7fcfbe93	sltiu	x29,x31,2044	 x31:0x80009ec4 x29=0x00000000
       44435000	      4442	80002340	0413e463	bltu	x7,x1,80002388	  x7:0x3faeec94  x1:0x00000001
       44445000	      4443	80002344	b8717793	andi	x15,x2,-1145	  x2:0x15500000 x15=0x15500000
       44455000	      4444	80002348	444bb893	sltiu	x17,x23,1092	 x23:0x0dba8000 x17=0x00000000
       44465000	      4445	8000234c	01738b33	add	x22,x7,x23	  x7:0x3faeec94 x23:0x0dba8000 x22=0x4d696c94
       44475000	      4446	80002350	04bb6263	bltu	x22,x11,80002394	 x22:0x4d696c94 x11:0x07200000
       44485000	      4447	80002354	40798ab3	sub	x21,x19,x7	 x19:0x68fe7000  x7:0x3faeec94 x21=0x294f836c
       44495000	      4448	80002358	63e1c5b7	lui	x11,0x63e1c	 x11=0x63e1c000
       44505000	      4449	8000235c	404a5493	srai	x9,x20,0x4	 x20:0x80001c94  x9=0xf80001c9
       44515000	      4450	80002360	00000013	addi	x0,x0,0	  x0:0x00000000
       44525000	      4451	80002364	01f6e863	bltu	x13,x31,80002374	 x13:0x00000000 x31:0x80009ec4
       44535000	      4452	00000000	00000013	addi	x0,x0,0	  x0:0x00000000
       44545000	      4453	80002370	00000013	addi	x0,x0,0	  x0:0x00000000
       44555000	      4454	80002374	504beb13	ori	x22,x23,1284	 x23:0x0dba8000 x22=0x0dba8504
       44565000	      4455	80002378	26c8e793	ori	x15,x17,620	 x17:0x00000000 x15=0x0000026c
       44575000	      4456	8000237c	c0fa5837	lui	x16,0xc0fa5	 x16=0xc0fa5000
       44585000	      4457	80002380	00cd5493	srli	x9,x26,0xc	 x26:0x00000000  x9=0x00000000
       44595000	      4458	80002384	0512d863	bge	x5,x17,800023d4	  x5:0x00000001 x17:0x00000000
       44605000	      4459	00000000	00000013	addi	x0,x0,0	  x0:0x00000000
       44615000	      4460	800023d0	00000013	addi	x0,x0,0	  x0:0x00000000
       44625000	      4461	800023d4	407b82b3	sub	x5,x23,x7	 x23:0x0dba8000  x7:0x3faeec94  x5=0xce0b936c
       44635000	      4462	800023d8	3e354193	xori	x3,x10,995	 x10:0xff636000  x3=0xff6363e3
       44645000	      4463	800023dc	00cdad33	slt	x26,x27,x12	 x27:0x00000000 x12:0xc0004f62 x26=0x00000000
       44655000	      4464	800023e0	be84e113	ori	x2,x9,-1048	  x9:0x00000000  x2=0xfffffbe8
       44665000	      4465	800023e4	41995213	srai	x4,x18,0x19	 x18:0x80009fc4  x4=0xffffffc0
       44675000	      4466	800023e8	00f65133	srl	x2,x12,x15	 x12:0xc0004f62 x15:0x0000026c  x2=0x000c0004
       44685000	      4467	800023ec	01279033	sll	x0,x15,x18	 x15:0x0000026c x18:0x80009fc4
       44695000	      4468	800023f0	0118fab3	and	x21,x17,x17	 x17:0x00000000 x17:0x00000000 x21=0x00000000
       44705000	      4469	800023f4	0049beb3	sltu	x29,x19,x4	 x19:0x68fe7000  x4:0xffffffc0 x29=0x00000001
       44715000	      4470	800023f8	9a3ce713	ori	x14,x25,-1629	 x25:0x800098a6 x14=0xfffff9a7
       44725000	      4471	800023fc	01a67463	bgeu	x12,x26,80002404	 x12:0xc0004f62 x26:0x00000000
       44735000	      4472	00000000	00000013	addi	x0,x0,0	  x0:0x00000000
       44745000	      4473	80002400	00000013	addi	x0,x0,0	  x0:0x00000000
       44755000	      4474	80002404	00f59533	sll	x10,x11,x15	 x11:0x63e1c000 x15:0x0000026c x10=0x1c000000
       44765000	      4475	80002408	003682b3	add	x5,x13,x3	 x13:0x00000000  x3:0xff6363e3  x5=0xff6363e3
       44775000	      4476	8000240c	0111d463	bge	x3,x17,80002414	  x3:0xff6363e3 x17:0x00000000
       44785000	      4477	80002410	cdf0ecb7	lui	x25,0xcdf0e	 x25=0xcdf0e000
       44795000	      4478	80002414	00000013	addi	x0,x0,0	  x0:0x00000000
       44805000	      4479	80002418	41365333	sra	x6,x12,x19	 x12:0xc0004f62 x19:0x68fe7000  x6=0xc0004f62
       44815000	      4480	8000241c	036f7a63	bgeu	x30,x22,80002450	 x30:0x00000144 x22:0x0dba8504
       44825000	      4481	80002420	b48c3613	sltiu	x12,x24,-1208	 x24:0x00000000 x12=0x00000001
       44835000	      4482	80002424	41ab5793	srai	x15,x22,0x1a	 x22:0x0dba8504 x15=0x00000003
       44845000	      4483	80002428	01a41eb3	sll	x29,x8,x26	  x8:0x00000001 x26:0x00000000 x29=0x00000001
       44855000	      4484	8000242c	0598f463	bgeu	x17,x25,80002474	 x17:0x00000000 x25:0xcdf0e000
       44865000	      4485	80002430	03bafc63	bgeu	x21,x27,80002468	 x21:0x00000000 x27:0x00000000
       44875000	      4486	00000000	00000013	addi	x0,x0,0	  x0:0x00000000
       44885000	      4487	80002464	00000013	addi	x0,x0,0	  x0:0x00000000
       44895000	      4488	80002468	0321c463	blt	x3,x18,80002490	  x3:0xff6363e3 x18:0x80009fc4
       44905000	      4489	8000246c	00b0d833	srl	x16,x1,x11	  x1:0x00000001 x11:0x63e1c000 x16=0x00000001
       44915000	      4490	80002470	0035d313	srli	x6,x11,0x3	 x11:0x63e1c000  x6=0x0c7c3800
       44925000	      4491	80002474	4006de13	srai	x28,x13,0x0	 x13:0x00000000 x28=0x00000000
       44935000	      4492	80002478	01d028b3	slt	x17,x0,x29	  x0:0x00000000 x29:0x00000001 x17=0x00000001
       44945000	      4493	8000247c	001d9613	slli	x12,x27,0x1	 x27:0x00000000 x12=0x00000000
       44955000	      4494	80002480	007772b3	and	x5,x14,x7	 x14:0xfffff9a7  x7:0x3faeec94  x5=0x3faee884
       44965000	      4495	80002484	4097deb3	sra	x29,x15,x9	 x15:0x00000003  x9:0x00000000 x29=0x00000003
       44975000	      4496	80002488	0059da33	srl	x20,x19,x5	 x19:0x68fe7000  x5:0x3faee884 x20=0x068fe700
       44985000	      4497	8000248c	045c1863	bne	x24,x5,800024dc	 x24:0x00000000  x5:0x3faee884
       44995000	      4498	00000000	00000013	addi	x0,x0,0	  x0:0x00000000
       45005000	      4499	800024d8	00000013	addi	x0,x0,0	  x0:0x00000000
       45015000	      4500	800024dc	70b17093	andi	x1,x2,1803	  x2:0x000c0004  x1=0x00000000
       45025000	      4501	800024e0	03461863	bne	x12,x20,80002510	 x12:0x00000000 x20:0x068fe700
       45035000	      4502	00000000	00000013	addi	x0,x0,0	  x0:0x00000000
       45045000	      4503	8000250c	00000013	addi	x0,x0,0	  x0:0x00000000
       45055000	      4504	80002510	b1de3693	sltiu	x13,x28,-1251	 x28:0x00000000 x13=0x00000001
       45065000	      4505	80002514	00dad613	srli	x12,x21,0xd	 x21:0x00000000 x12=0x00000000
       45075000	      4506	80002518	a274af13	slti	x30,x9,-1497	  x9:0x00000000 x30=0x00000000
       45085000	      4507	8000251c	005ac463	blt	x21,x5,80002524	 x21:0x00000000  x5:0x3faee884
       45095000	      4508	00000000	00000013	addi	x0,x0,0	  x0:0x00000000
       45105000	      4509	80002520	00000013	addi	x0,x0,0	  x0:0x00000000
       45115000	      4510	80002524	0125e6b3	or	x13,x11,x18	 x11:0x63e1c000 x18:0x80009fc4 x13=0xe3e1dfc4
       45125000	      4511	80002528	041d6263	bltu	x26,x1,8000256c	 x26:0x00000000  x1:0x00000000
       45135000	      4512	8000252c	04ecf863	bgeu	x25,x14,8000257c	 x25:0xcdf0e000 x14:0xfffff9a7
       45145000	      4513	80002530	00970ab3	add	x21,x14,x9	 x14:0xfffff9a7  x9:0x00000000 x21=0xfffff9a7
       45155000	      4514	80002534	40185993	srai	x19,x16,0x1	 x16:0x00000001 x19=0x00000000
       45165000	      4515	80002538	00dd11b3	sll	x3,x26,x13	 x26:0x00000000 x13:0xe3e1dfc4  x3=0x00000000
       45175000	      4516	8000253c	00c35013	srli	x0,x6,0xc	  x6:0x0c7c3800
       45185000	      4517	80002540	012fa1b3	slt	x3,x31,x18	 x31:0x80009ec4 x18:0x80009fc4  x3=0x00000001
       45195000	      4518	80002544	412755b3	sra	x11,x14,x18	 x14:0xfffff9a7 x18:0x80009fc4 x11=0xffffff9a
       45205000	      4519	80002548	0167db93	srli	x23,x15,0x16	 x15:0x00000003 x23=0x00000000
       45215000	      4520	8000254c	00cd1313	slli	x6,x26,0xc	 x26:0x00000000  x6=0x00000000
       45225000	      4521	80002550	01a413b3	sll	x7,x8,x26	  x8:0x00000001 x26:0x00000000  x7=0x00000001
       45235000	      4522	80002554	01eff663	bgeu	x31,x30,80002560	 x31:0x80009ec4 x30:0x00000000
       45245000	      4523	00000000	00000013	addi	x0,x0,0	  x0:0x00000000
       45255000	      4524	8000255c	00000013	addi	x0,x0,0	  x0:0x00000000
       45265000	      4525	80002560	014b1533	sll	x10,x22,x20	 x22:0x0dba8504 x20:0x068fe700 x10=0x0dba8504
       45275000	      4526	80002564	01c69713	slli	x14,x13,0x1c	 x13:0xe3e1dfc4 x14=0x40000000
       45285000	      4527	80002568	40b100b3	sub	x1,x2,x11	  x2:0x000c0004 x11:0xffffff9a  x1=0x000c006a
       45295000	      4528	8000256c	b75cb793	sltiu	x15,x25,-1163	 x25:0xcdf0e000 x15=0x00000001
       45305000	      4529	80002570	03330863	beq	x6,x19,800025a0	  x6:0x00000000 x19:0x00000000
       45315000	      4530	00000000	00000013	addi	x0,x0,0	  x0:0x00000000
       45325000	      4531	8000259c	00000013	addi	x0,x0,0	  x0:0x00000000
       45335000	      4532	800025a0	f57c3b97	auipc	x23,0xf57c3	 x23=0x757c559c
       45345000	      4533	800025a4	41785413	srai	x8,x16,0x17	 x16:0x00000001  x8=0x00000000
       45355000	      4534	800025a8	06fdf293	andi	x5,x27,111	 x27:0x00000000  x5=0x00000000
       45365000	      4535	800025ac	05e0d063	bge	x1,x30,800025ec	  x1:0x000c006a x30:0x00000000
       45375000	      4536	00000000	00000013	addi	x0,x0,0	  x0:0x00000000
       45385000	      4537	800025e8	00000013	addi	x0,x0,0	  x0:0x00000000
       45395000	      4538	800025ec	02dae263	bltu	x21,x13,80002610	 x21:0xfffff9a7 x13:0xe3e1dfc4
       45405000	      4539	800025f0	0191a733	slt	x14,x3,x25	  x3:0x00000001 x25:0xcdf0e000 x14=0x00000000
       45415000	      4540	800025f4	002cf1b3	and	x3,x25,x2	 x25:0xcdf0e000  x2:0x000c0004  x3=0x00000000
       45425000	      4541	800025f8	407a5d13	srai	x26,x20,0x7	 x20:0x068fe700 x26=0x000d1fce
       45435000	      4542	800025fc	01206333	or	x6,x0,x18	  x0:0x00000000 x18:0x80009fc4  x6=0x80009fc4
       45445000	      4543	80002600	05b27063	bgeu	x4,x27,80002640	  x4:0xffffffc0 x27:0x00000000
       45455000	      4544	00000000	00000013	addi	x0,x0,0	  x0:0x00000000
       45465000	      4545	8000263c	00000013	addi	x0,x0,0	  x0:0x00000000
       45475000	      4546	80002640	015ddab3	srl	x21,x27,x21	 x27:0x00000000 x21:0xfffff9a7 x21=0x00000000
       45485000	      4547	80002644	004fa083	lw	x1,4(x31)	 x31:0x80009ec4  x1=0x80003bd0 PA:0x80009ec8
       45495000	      4548	80002648	0049ce33	xor	x28,x19,x4	 x19:0x00000000  x4:0xffffffc0 x28=0xffffffc0
       45505000	      4549	8000264c	030f8f93	addi	x31,x31,48	 x31:0x80009ec4 x31=0x80009ef4
       45515000	      4550	80002650	00000013	addi	x0,x0,0	  x0:0x00000000
       45525000	      4551	80002654	01f781b3	add	x3,x15,x31	 x15:0x00000001 x31:0x80009ef4  x3=0x80009ef5
       45535000	      4552	80002658	00d852b3	srl	x5,x16,x13	 x16:0x00000001 x13:0xe3e1dfc4  x5=0x00000000
       45545000	      4553	8000265c	00000013	addi	x0,x0,0	  x0:0x00000000
       45555000	      4554	80002660	00008213	addi	x4,x1,0	  x1:0x80003bd0  x4=0x80003bd0
       45565000	      4555	80002664	00020267	jalr	x4,x4,0	  x4:0x80003bd0  x4=0x80002664
       45575000	      4556	00000000	00000013	addi	x0,x0,0	  x0:0x00000000
       45585000	      4557	80003bd0	00000013	addi	x0,x0,0	  x0:0x00000000
       45595000	      4558	80003bd4	00000013	addi	x0,x0,0	  x0:0x00000000
       45605000	      4559	80003bd8	052c4663	blt	x24,x18,80003c24	 x24:0x00000000 x18:0x80009fc4
       45615000	      4560	80003bdc	01d3e6b3	or	x13,x7,x29	  x7:0x00000001 x29:0x00000003 x13=0x00000003
       45625000	      4561	80003be0	01b3d3b3	srl	x7,x7,x27	  x7:0x00000001 x27:0x00000000  x7=0x00000001
       45635000	      4562	80003be4	131e0393	addi	x7,x28,305	 x28:0xffffffc0  x7=0x000000f1
       45645000	      4563	80003be8	00bc1093	slli	x1,x24,0xb	 x24:0x00000000  x1=0x00000000
       45655000	      4564	80003bec	41085893	srai	x17,x16,0x10	 x16:0x00000001 x17=0x00000000
       45665000	      4565	80003bf0	047c6463	bltu	x24,x7,80003c38	 x24:0x00000000  x7:0x000000f1
       45675000	      4566	00000000	00000013	addi	x0,x0,0	  x0:0x00000000
       45685000	      4567	80003c34	00000013	addi	x0,x0,0	  x0:0x00000000
       45695000	      4568	80003c38	e7ac8993	addi	x19,x25,-390	 x25:0xcdf0e000 x19=0xcdf0de7a
       45705000	      4569	80003c3c	00000013	addi	x0,x0,0	  x0:0x00000000
       45715000	      4570	80003c40	40ced193	srai	x3,x29,0xc	 x29:0x00000003  x3=0x00000000
       45725000	      4571	80003c44	23ecf713	andi	x14,x25,574	 x25:0xcdf0e000 x14=0x00000000
       45735000	      4572	80003c48	fa420c93	addi	x25,x4,-92	  x4:0x80002664 x25=0x80002608
       45745000	      4573	80003c4c	01789833	sll	x16,x17,x23	 x17:0x00000000 x23:0x757c559c x16=0x00000000
       45755000	      4574	80003c50	00000013	addi	x0,x0,0	  x0:0x00000000
       45765000	      4575	80003c54	cffa5197	auipc	x3,0xcffa5	  x3=0x4ffa8c50
       45775000	      4576	80003c58	01bae863	bltu	x21,x27,80003c68	 x21:0x00000000 x27:0x00000000
       45785000	      4577	80003c5c	417755b3	sra	x11,x14,x23	 x14:0x00000000 x23:0x757c559c x11=0x00000000
       45795000	      4578	80003c60	41ebd993	srai	x19,x23,0x1e	 x23:0x757c559c x19=0x00000001
       45805000	      4579	80003c64	3c7e0a13	addi	x20,x28,967	 x28:0xffffffc0 x20=0x00000387
       45815000	      4580	80003c68	016dd9b3	srl	x19,x27,x22	 x27:0x00000000 x22:0x0dba8504 x19=0x00000000
       45825000	      4581	80003c6c	cc08ce97	auipc	x29,0xcc08c	 x29=0x4c08fc68
       45835000	      4582	80003c70	7dc9b697	auipc	x13,0x7dc9b	 x13=0xfdc9ec6c
       45845000	      4583	80003c74	008d71b3	and	x3,x26,x8	 x26:0x000d1fce  x8:0x00000000  x3=0x00000000
       45855000	      4584	80003c78	01571c33	sll	x24,x14,x21	 x14:0x00000000 x21:0x00000000 x24=0x00000000
       45865000	      4585	80003c7c	90297293	andi	x5,x18,-1790	 x18:0x80009fc4  x5=0x80009900
       45875000	      4586	80003c80	015b7263	bgeu	x22,x21,80003c84	 x22:0x0dba8504 x21:0x00000000
       45885000	      4587	00000000	00000013	addi	x0,x0,0	  x0:0x00000000
       45895000	      4588	80003c80	00000013	addi	x0,x0,0	  x0:0x00000000
       45905000	      4589	80003c84	95154113	xori	x2,x10,-1711	 x10:0x0dba8504  x2=0xf2457c55
       45915000	      4590	80003c88	00d0b133	sltu	x2,x1,x13	  x1:0x00000000 x13:0xfdc9ec6c  x2=0x00000001
       45925000	      4591	80003c8c	02938463	beq	x7,x9,80003cb4	  x7:0x000000f1  x9:0x00000000
       45935000	      4592	80003c90	007f5413	srli	x8,x30,0x7	 x30:0x00000000  x8=0x00000000
       45945000	      4593	80003c94	3547ff13	andi	x30,x15,852	 x15:0x00000001 x30=0x00000000
       45955000	      4594	80003c98	011d29b3	slt	x19,x26,x17	 x26:0x000d1fce x17:0x00000000 x19=0x00000000
       45965000	      4595	80003c9c	eafd3593	sltiu	x11,x26,-337	 x26:0x000d1fce x11=0x00000001
       45975000	      4596	80003ca0	00868433	add	x8,x13,x8	 x13:0xfdc9ec6c  x8:0x00000000  x8=0xfdc9ec6c
       45985000	      4597	80003ca4	030afc63	bgeu	x21,x16,80003cdc	 x21:0x00000000 x16:0x00000000
       45995000	      4598	00000000	00000013	addi	x0,x0,0	  x0:0x00000000
       46005000	      4599	80003cd8	00000013	addi	x0,x0,0	  x0:0x00000000
       46015000	      4600	80003cdc	4a12ee13	ori	x28,x5,1185	  x5:0x80009900 x28=0x80009da1
       46025000	      4601	80003ce0	0504c263	blt	x9,x16,80003d24	  x9:0x00000000 x16:0x00000000
       46035000	      4602	80003ce4	01714bb3	xor	x23,x2,x23	  x2:0x00000001 x23:0x757c559c x23=0x757c559d
       46045000	      4603	80003ce8	00199133	sll	x2,x19,x1	 x19:0x00000000  x1:0x00000000  x2=0x00000000
       46055000	      4604	80003cec	00324a33	xor	x20,x4,x3	  x4:0x80002664  x3:0x00000000 x20=0x80002664
       46065000	      4605	80003cf0	01f58e33	add	x28,x11,x31	 x11:0x00000001 x31:0x80009ef4 x28=0x80009ef5
       46075000	      4606	80003cf4	f21ee113	ori	x2,x29,-223	 x29:0x4c08fc68  x2=0xffffff69
       46085000	      4607	80003cf8	0146d863	bge	x13,x20,80003d08	 x13:0xfdc9ec6c x20:0x80002664
       46095000	      4608	00000000	00000013	addi	x0,x0,0	  x0:0x00000000
       46105000	      4609	80003d04	00000013	addi	x0,x0,0	  x0:0x00000000
       46115000	      4610	80003d08	239d4e93	xori	x29,x26,569	 x26:0x000d1fce x29=0x000d1df7
       46125000	      4611	80003d0c	57427093	andi	x1,x4,1396	  x4:0x80002664  x1=0x00000464
       46135000	      4612	80003d10	00000013	addi	x0,x0,0	  x0:0x00000000
       46145000	      4613	80003d14	00000013	addi	x0,x0,0	  x0:0x00000000
       46155000	      4614	80003d18	0f043313	sltiu	x6,x8,240	  x8:0xfdc9ec6c  x6=0x00000000
       46165000	      4615	80003d1c	04ff4263	blt	x30,x15,80003d60	 x30:0x00000000 x15:0x00000001
       46175000	      4616	00000000	00000013	addi	x0,x0,0	  x0:0x00000000
       46185000	      4617	80003d5c	00000013	addi	x0,x0,0	  x0:0x00000000
       46195000	      4618	80003d60	c7b53693	sltiu	x13,x10,-901	 x10:0x0dba8504 x13=0x00000001
       46205000	      4619	80003d64	030dc463	blt	x27,x16,80003d8c	 x27:0x00000000 x16:0x00000000
       46215000	      4620	80003d68	bfb28093	addi	x1,x5,-1029	  x5:0x80009900  x1=0x800094fb
       46225000	      4621	80003d6c	00fd1733	sll	x14,x26,x15	 x26:0x000d1fce x15:0x00000001 x14=0x001a3f9c
       46235000	      4622	80003d70	01987a33	and	x20,x16,x25	 x16:0x00000000 x25:0x80002608 x20=0x00000000
       46245000	      4623	80003d74	00000013	addi	x0,x0,0	  x0:0x00000000
       46255000	      4624	80003d78	0c2c4493	xori	x9,x24,194	 x24:0x00000000  x9=0x000000c2
       46265000	      4625	80003d7c	011c0cb3	add	x25,x24,x17	 x24:0x00000000 x17:0x00000000 x25=0x00000000
       46275000	      4626	80003d80	73353093	sltiu	x1,x10,1843	 x10:0x0dba8504  x1=0x00000000
       46285000	      4627	80003d84	8cef54b7	lui	x9,0x8cef5	  x9=0x8cef5000
       46295000	      4628	80003d88	002fd793	srli	x15,x31,0x2	 x31:0x80009ef4 x15=0x200027bd
       46305000	      4629	80003d8c	01ff3eb3	sltu	x29,x30,x31	 x30:0x00000000 x31:0x80009ef4 x29=0x00000001
       46315000	      4630	80003d90	00e9c633	xor	x12,x19,x14	 x19:0x00000000 x14:0x001a3f9c x12=0x001a3f9c
       46325000	      4631	80003d94	00392c33	slt	x24,x18,x3	 x18:0x80009fc4  x3:0x00000000 x24=0x00000001
       46335000	      4632	80003d98	4349bf13	sltiu	x30,x19,1076	 x19:0x00000000 x30=0x00000001
       46345000	      4633	80003d9c	00515a93	srli	x21,x2,0x5	  x2:0xffffff69 x21=0x07fffffb
       46355000	      4634	80003da0	013695b3	sll	x11,x13,x19	 x13:0x00000001 x19:0x00000000 x11=0x00000001
       46365000	      4635	80003da4	59adec93	ori	x25,x27,1434	 x27:0x00000000 x25=0x0000059a
       46375000	      4636	80003da8	021e5e63	bge	x28,x1,80003de4	 x28:0x80009ef5  x1:0x00000000
       46385000	      4637	80003dac	00a05993	srli	x19,x0,0xa	  x0:0x00000000 x19=0x00000000
       46395000	      4638	80003db0	01449733	sll	x14,x9,x20	  x9:0x8cef5000 x20:0x00000000 x14=0x8cef5000
       46405000	      4639	80003db4	8b802893	slti	x17,x0,-1864	  x0:0x00000000 x17=0x00000000
       46415000	      4640	80003db8	00394733	xor	x14,x18,x3	 x18:0x80009fc4  x3:0x00000000 x14=0x80009fc4
       46425000	      4641	80003dbc	002a5533	srl	x10,x20,x2	 x20:0x00000000  x2:0xffffff69 x10=0x00000000
       46435000	      4642	80003dc0	2613eb13	ori	x22,x7,609	  x7:0x000000f1 x22=0x000002f1
       46445000	      4643	80003dc4	02d78c63	beq	x15,x13,80003dfc	 x15:0x200027bd x13:0x00000001
       46455000	      4644	80003dc8	01971c63	bne	x14,x25,80003de0	 x14:0x80009fc4 x25:0x0000059a
       46465000	      4645	00000000	00000013	addi	x0,x0,0	  x0:0x00000000
       46475000	      4646	80003ddc	00000013	addi	x0,x0,0	  x0:0x00000000
       46485000	      4647	80003de0	019248b3	xor	x17,x4,x25	  x4:0x80002664 x25:0x0000059a x17=0x800023fe
       46495000	      4648	80003de4	40370033	sub	x0,x14,x3	 x14:0x80009fc4  x3:0x00000000
       46505000	      4649	80003de8	0041c3b3	xor	x7,x3,x4	  x3:0x00000000  x4:0x80002664  x7=0x80002664
       46515000	      4650	80003dec	0158a333	slt	x6,x17,x21	 x17:0x800023fe x21:0x07fffffb  x6=0x00000001
       46525000	      4651	80003df0	01e1c463	blt	x3,x30,80003df8	  x3:0x00000000 x30:0x00000001
       46535000	      4652	00000000	00000013	addi	x0,x0,0	  x0:0x00000000
       46545000	      4653	80003df4	00000013	addi	x0,x0,0	  x0:0x00000000
       46555000	      4654	80003df8	b9682313	slti	x6,x16,-1130	 x16:0x00000000  x6=0x00000000
       46565000	      4655	80003dfc	414353b3	sra	x7,x6,x20	  x6:0x00000000 x20:0x00000000  x7=0x00000000
       46575000	      4656	80003e00	1adb2e37	lui	x28,0x1adb2	 x28=0x1adb2000
       46585000	      4657	80003e04	417d8333	sub	x6,x27,x23	 x27:0x00000000 x23:0x757c559d  x6=0x8a83aa63
       46595000	      4658	80003e08	857d0217	auipc	x4,0x857d0	  x4=0x057d3e04
       46605000	      4659	80003e0c	00799463	bne	x19,x7,80003e14	 x19:0x00000000  x7:0x00000000
       46615000	      4660	80003e10	00000013	addi	x0,x0,0	  x0:0x00000000
       46625000	      4661	80003e14	41ac07b3	sub	x15,x24,x26	 x24:0x00000001 x26:0x000d1fce x15=0xfff2e033
       46635000	      4662	80003e18	0117d733	srl	x14,x15,x17	 x15:0xfff2e033 x17:0x800023fe x14=0x00000003
       46645000	      4663	80003e1c	404007b3	sub	x15,x0,x4	  x0:0x00000000  x4:0x057d3e04 x15=0xfa82c1fc
       46655000	      4664	80003e20	03ad1e63	bne	x26,x26,80003e5c	 x26:0x000d1fce x26:0x000d1fce
       46665000	      4665	80003e24	408b5833	sra	x16,x22,x8	 x22:0x000002f1  x8:0xfdc9ec6c x16=0x00000000
       46675000	      4666	80003e28	40425d33	sra	x26,x4,x4	  x4:0x057d3e04  x4:0x057d3e04 x26=0x0057d3e0
       46685000	      4667	80003e2c	7cec0113	addi	x2,x24,1998	 x24:0x00000001  x2=0x000007cf
       46695000	      4668	80003e30	04a49863	bne	x9,x10,80003e80	  x9:0x8cef5000 x10:0x00000000
       46705000	      4669	00000000	00000013	addi	x0,x0,0	  x0:0x00000000
       46715000	      4670	80003e7c	00000013	addi	x0,x0,0	  x0:0x00000000
       46725000	      4671	80003e80	13640713	addi	x14,x8,310	  x8:0xfdc9ec6c x14=0xfdc9eda2
       46735000	      4672	80003e84	01b3fc63	bgeu	x7,x27,80003e9c	  x7:0x00000000 x27:0x00000000
       46745000	      4673	00000000	00000013	addi	x0,x0,0	  x0:0x00000000
       46755000	      4674	80003e98	00000013	addi	x0,x0,0	  x0:0x00000000
       46765000	      4675	80003e9c	00add393	srli	x7,x27,0xa	 x27:0x00000000  x7=0x00000000
       46775000	      4676	80003ea0	4dca7113	andi	x2,x20,1244	 x20:0x00000000  x2=0x00000000
       46785000	      4677	80003ea4	60a6f093	andi	x1,x13,1546	 x13:0x00000001  x1=0x00000000
       46795000	      4678	80003ea8	41f10033	sub	x0,x2,x31	  x2:0x00000000 x31:0x80009ef4
       46805000	      4679	80003eac	002bfc63	bgeu	x23,x2,80003ec4	 x23:0x757c559d  x2:0x00000000
       46815000	      4680	00000000	00000013	addi	x0,x0,0	  x0:0x00000000
       46825000	      4681	80003ec0	00000013	addi	x0,x0,0	  x0:0x00000000
       46835000	      4682	80003ec4	00f5d433	srl	x8,x11,x15	 x11:0x00000001 x15:0xfa82c1fc  x8=0x00000000
       46845000	      4683	80003ec8	01db47b3	xor	x15,x22,x29	 x22:0x000002f1 x29:0x00000001 x15=0x000002f0
       46855000	      4684	80003ecc	01d81493	slli	x9,x16,0x1d	 x16:0x00000000  x9=0x00000000
       46865000	      4685	80003ed0	042b7663	bgeu	x22,x2,80003f1c	 x22:0x000002f1  x2:0x00000000
       46875000	      4686	00000000	00000013	addi	x0,x0,0	  x0:0x00000000
       46885000	      4687	80003f18	00000013	addi	x0,x0,0	  x0:0x00000000
       46895000	      4688	80003f1c	01fcf863	bgeu	x25,x31,80003f2c	 x25:0x0000059a x31:0x80009ef4
       46905000	      4689	80003f20	00fbea63	bltu	x23,x15,80003f34	 x23:0x757c559d x15:0x000002f0
       46915000	      4690	80003f24	01cd7133	and	x2,x26,x28	 x26:0x0057d3e0 x28:0x1adb2000  x2=0x00530000
       46925000	      4691	80003f28	0151d463	bge	x3,x21,80003f30	  x3:0x00000000 x21:0x07fffffb
       46935000	      4692	80003f2c	da036013	ori	x0,x6,-608	  x6:0x8a83aa63
       46945000	      4693	80003f30	6d55d297	auipc	x5,0x6d55d	  x5=0xed560f2c
       46955000	      4694	80003f34	010c5c63	bge	x24,x16,80003f4c	 x24:0x00000001 x16:0x00000000
       46965000	      4695	00000000	00000013	addi	x0,x0,0	  x0:0x00000000
       46975000	      4696	80003f48	00000013	addi	x0,x0,0	  x0:0x00000000
       46985000	      4697	80003f4c	00000013	addi	x0,x0,0	  x0:0x00000000
       46995000	      4698	80003f50	e6283017	auipc	x0,0xe6283	
       47005000	      4699	80003f54	00307b33	and	x22,x0,x3	  x0:0x00000000  x3:0x00000000 x22=0x00000000
       47015000	      4700	80003f58	024b6463	bltu	x22,x4,80003f80	 x22:0x00000000  x4:0x057d3e04
       47025000	      4701	00000000	00000013	addi	x0,x0,0	  x0:0x00000000
       47035000	      4702	80003f7c	00000013	addi	x0,x0,0	  x0:0x00000000
       47045000	      4703	80003f80	01f39ab3	sll	x21,x7,x31	  x7:0x00000000 x31:0x80009ef4 x21=0x00000000
       47055000	      4704	80003f84	9bf6b997	auipc	x19,0x9bf6b	 x19=0x1bf6ef80
       47065000	      4705	80003f88	4036f693	andi	x13,x13,1027	 x13:0x00000001 x13=0x00000001
       47075000	      4706	80003f8c	044c9463	bne	x25,x4,80003fd4	 x25:0x0000059a  x4:0x057d3e04
       47085000	      4707	00000000	00000013	addi	x0,x0,0	  x0:0x00000000
       47095000	      4708	80003fd0	00000013	addi	x0,x0,0	  x0:0x00000000
       47105000	      4709	80003fd4	41a9d713	srai	x14,x19,0x1a	 x19:0x1bf6ef80 x14=0x00000006
       47115000	      4710	80003fd8	003b9693	slli	x13,x23,0x3	 x23:0x757c559d x13=0xabe2ace8
       47125000	      4711	80003fdc	55ee3493	sltiu	x9,x28,1374	 x28:0x1adb2000  x9=0x00000000
       47135000	      4712	80003fe0	00c3dcb3	srl	x25,x7,x12	  x7:0x00000000 x12:0x001a3f9c x25=0x00000000
       47145000	      4713	80003fe4	02c09e63	bne	x1,x12,80004020	  x1:0x00000000 x12:0x001a3f9c
       47155000	      4714	00000000	00000013	addi	x0,x0,0	  x0:0x00000000
       47165000	      4715	8000401c	00000013	addi	x0,x0,0	  x0:0x00000000
       47175000	      4716	80004020	03f44e63	blt	x8,x31,8000405c	  x8:0x00000000 x31:0x80009ef4
       47185000	      4717	80004024	002c7133	and	x2,x24,x2	 x24:0x00000001  x2:0x00530000  x2=0x00000000
       47195000	      4718	80004028	015b9a63	bne	x23,x21,8000403c	 x23:0x757c559d x21:0x00000000
       47205000	      4719	00000000	00000013	addi	x0,x0,0	  x0:0x00000000
       47215000	      4720	80004038	00000013	addi	x0,x0,0	  x0:0x00000000
       47225000	      4721	8000403c	e0f6cb93	xori	x23,x13,-497	 x13:0xabe2ace8 x23=0x541d52e7
       47235000	      4722	80004040	41818b33	sub	x22,x3,x24	  x3:0x00000000 x24:0x00000001 x22=0xffffffff
       47245000	      4723	80004044	28176293	ori	x5,x14,641	 x14:0x00000006  x5=0x00000287
       47255000	      4724	80004048	00480c63	beq	x16,x4,80004060	 x16:0x00000000  x4:0x057d3e04
       47265000	      4725	8000404c	40950c33	sub	x24,x10,x9	 x10:0x00000000  x9:0x00000000 x24=0x00000000
       47275000	      4726	80004050	41395e33	sra	x28,x18,x19	 x18:0x80009fc4 x19:0x1bf6ef80 x28=0x80009fc4
       47285000	      4727	80004054	016d2333	slt	x6,x26,x22	 x26:0x0057d3e0 x22:0xffffffff  x6=0x00000000
       47295000	      4728	80004058	01f90233	add	x4,x18,x31	 x18:0x80009fc4 x31:0x80009ef4  x4=0x00013eb8
       47305000	      4729	8000405c	00ea9a93	slli	x21,x21,0xe	 x21:0x00000000 x21=0x00000000
       47315000	      4730	80004060	01701d33	sll	x26,x0,x23	  x0:0x00000000 x23:0x541d52e7 x26=0x00000000
       47325000	      4731	80004064	00000013	addi	x0,x0,0	  x0:0x00000000
       47335000	      4732	80004068	011aa7b3	slt	x15,x21,x17	 x21:0x00000000 x17:0x800023fe x15=0x00000000
       47345000	      4733	8000406c	01ef4a33	xor	x20,x30,x30	 x30:0x00000001 x30:0x00000001 x20=0x00000000
       47355000	      4734	80004070	018b9113	slli	x2,x23,0x18	 x23:0x541d52e7  x2=0xe7000000
       47365000	      4735	80004074	40445e93	srai	x29,x8,0x4	  x8:0x00000000 x29=0x00000000
       47375000	      4736	80004078	01e171b3	and	x3,x2,x30	  x2:0xe7000000 x30:0x00000001  x3=0x00000000
       47385000	      4737	8000407c	41ca8133	sub	x2,x21,x28	 x21:0x00000000 x28:0x80009fc4  x2=0x7fff603c
       47395000	      4738	80004080	0190f633	and	x12,x1,x25	  x1:0x00000000 x25:0x00000000 x12=0x00000000
       47405000	      4739	80004084	04646263	bltu	x8,x6,800040c8	  x8:0x00000000  x6:0x00000000
       47415000	      4740	80004088	00000013	addi	x0,x0,0	  x0:0x00000000
       47425000	      4741	8000408c	00168c63	beq	x13,x1,800040a4	 x13:0xabe2ace8  x1:0x00000000
       47435000	      4742	80004090	01e927b3	slt	x15,x18,x30	 x18:0x80009fc4 x30:0x00000001 x15=0x00000001
       47445000	      4743	80004094	be446993	ori	x19,x8,-1052	  x8:0x00000000 x19=0xfffffbe4
       47455000	      4744	80004098	01445733	srl	x14,x8,x20	  x8:0x00000000 x20:0x00000000 x14=0x00000000
       47465000	      4745	8000409c	00bf9463	bne	x31,x11,800040a4	 x31:0x80009ef4 x11:0x00000001
       47475000	      4746	00000000	00000013	addi	x0,x0,0	  x0:0x00000000
       47485000	      4747	800040a0	00000013	addi	x0,x0,0	  x0:0x00000000
       47495000	      4748	800040a4	b3950713	addi	x14,x10,-1223	 x10:0x00000000 x14=0xfffffb39
       47505000	      4749	800040a8	01b605b3	add	x11,x12,x27	 x12:0x00000000 x27:0x00000000 x11=0x00000000
       47515000	      4750	800040ac	032f4a63	blt	x30,x18,800040e0	 x30:0x00000001 x18:0x80009fc4
       47525000	      4751	800040b0	00d77863	bgeu	x14,x13,800040c0	 x14:0xfffffb39 x13:0xabe2ace8
       47535000	      4752	00000000	00000013	addi	x0,x0,0	  x0:0x00000000
       47545000	      4753	800040bc	00000013	addi	x0,x0,0	  x0:0x00000000
       47555000	      4754	800040c0	01bafa63	bgeu	x21,x27,800040d4	 x21:0x00000000 x27:0x00000000
       47565000	      4755	00000000	00000013	addi	x0,x0,0	  x0:0x00000000
       47575000	      4756	800040d0	00000013	addi	x0,x0,0	  x0:0x00000000
       47585000	      4757	800040d4	008b5eb3	srl	x29,x22,x8	 x22:0xffffffff  x8:0x00000000 x29=0xffffffff
       47595000	      4758	800040d8	0164c033	xor	x0,x9,x22	  x9:0x00000000 x22:0xffffffff
       47605000	      4759	800040dc	15f2ec13	ori	x24,x5,351	  x5:0x00000287 x24=0x000003df
       47615000	      4760	800040e0	1dc27693	andi	x13,x4,476	  x4:0x00013eb8 x13=0x00000098
       47625000	      4761	800040e4	01f94233	xor	x4,x18,x31	 x18:0x80009fc4 x31:0x80009ef4  x4=0x00000130
       47635000	      4762	800040e8	cc18e497	auipc	x9,0xcc18e	  x9=0x4c1920e4
       47645000	      4763	800040ec	3295b993	sltiu	x19,x11,809	 x11:0x00000000 x19=0x00000001
       47655000	      4764	800040f0	01042ab3	slt	x21,x8,x16	  x8:0x00000000 x16:0x00000000 x21=0x00000000
       47665000	      4765	800040f4	05abe463	bltu	x23,x26,8000413c	 x23:0x541d52e7 x26:0x00000000
       47675000	      4766	800040f8	009207b3	add	x15,x4,x9	  x4:0x00000130  x9:0x4c1920e4 x15=0x4c192214
       47685000	      4767	800040fc	f35fec93	ori	x25,x31,-203	 x31:0x80009ef4 x25=0xfffffff5
       47695000	      4768	80004100	515a8813	addi	x16,x21,1301	 x21:0x00000000 x16=0x00000515
       47705000	      4769	80004104	0175e863	bltu	x11,x23,80004114	 x11:0x00000000 x23:0x541d52e7
       47715000	      4770	00000000	00000013	addi	x0,x0,0	  x0:0x00000000
       47725000	      4771	80004110	00000013	addi	x0,x0,0	  x0:0x00000000
       47735000	      4772	80004114	00141713	slli	x14,x8,0x1	  x8:0x00000000 x14=0x00000000
       47745000	      4773	80004118	04e12493	slti	x9,x2,78	  x2:0x7fff603c  x9=0x00000000
       47755000	      4774	8000411c	010d7433	and	x8,x26,x16	 x26:0x00000000 x16:0x00000515  x8=0x00000000
       47765000	      4775	80004120	00000013	addi	x0,x0,0	  x0:0x00000000
       47775000	      4776	80004124	00dfc8b3	xor	x17,x31,x13	 x31:0x80009ef4 x13:0x00000098 x17=0x80009e6c
       47785000	      4777	80004128	05576063	bltu	x14,x21,80004168	 x14:0x00000000 x21:0x00000000
       47795000	      4778	8000412c	403c0c33	sub	x24,x24,x3	 x24:0x000003df  x3:0x00000000 x24=0x000003df
       47805000	      4779	80004130	9a35e713	ori	x14,x11,-1629	 x11:0x00000000 x14=0xfffff9a3
       47815000	      4780	80004134	031c7463	bgeu	x24,x17,8000415c	 x24:0x000003df x17:0x80009e6c
       47825000	      4781	80004138	fe3cc413	xori	x8,x25,-29	 x25:0xfffffff5  x8=0x00000016
       47835000	      4782	8000413c	018e1463	bne	x28,x24,80004144	 x28:0x80009fc4 x24:0x000003df
       47845000	      4783	00000000	00000013	addi	x0,x0,0	  x0:0x00000000
       47855000	      4784	80004140	00000013	addi	x0,x0,0	  x0:0x00000000
       47865000	      4785	80004144	001952b3	srl	x5,x18,x1	 x18:0x80009fc4  x1:0x00000000  x5=0x80009fc4
       47875000	      4786	80004148	03994463	blt	x18,x25,80004170	 x18:0x80009fc4 x25:0xfffffff5
       47885000	      4787	00000000	00000013	addi	x0,x0,0	  x0:0x00000000
       47895000	      4788	8000416c	00000013	addi	x0,x0,0	  x0:0x00000000
       47905000	      4789	80004170	402bd413	srai	x8,x23,0x2	 x23:0x541d52e7  x8=0x150754b9
       47915000	      4790	80004174	004fa083	lw	x1,4(x31)	 x31:0x80009ef4  x1=0x800041ec PA:0x80009ef8
       47925000	      4791	80004178	00550ab3	add	x21,x10,x5	 x10:0x00000000  x5:0x80009fc4 x21=0x80009fc4
       47935000	      4792	8000417c	038f8f93	addi	x31,x31,56	 x31:0x80009ef4 x31=0x80009f2c
       47945000	      4793	80004180	40710bb3	sub	x23,x2,x7	  x2:0x7fff603c  x7:0x00000000 x23=0x7fff603c
       47955000	      4794	80004184	407a2a13	slti	x20,x20,1031	 x20:0x00000000 x20=0x00000001
       47965000	      4795	80004188	016dcbb3	xor	x23,x27,x22	 x27:0x00000000 x22:0xffffffff x23=0xffffffff
       47975000	      4796	8000418c	e0b8a813	slti	x16,x17,-501	 x17:0x80009e6c x16=0x00000001
       47985000	      4797	80004190	41c35833	sra	x16,x6,x28	  x6:0x00000000 x28:0x80009fc4 x16=0x00000000
       47995000	      4798	80004194	401502b3	sub	x5,x10,x1	 x10:0x00000000  x1:0x800041ec  x5=0x7fffbe14
       48005000	      4799	80004198	00108f13	addi	x30,x1,1	  x1:0x800041ec x30=0x800041ed
       48015000	      4800	8000419c	000f0f67	jalr	x30,x30,0	 x30:0x800041ed x30=0x8000419c
       48025000	      4801	00000000	00000013	addi	x0,x0,0	  x0:0x00000000
       48035000	      4802	800041ec	00000013	addi	x0,x0,0	  x0:0x00000000
       48045000	      4803	800041f0	004cde13	srli	x28,x25,0x4	 x25:0xfffffff5 x28=0x0fffffff
       48055000	      4804	800041f4	05364393	xori	x7,x12,83	 x12:0x00000000  x7=0x00000053
       48065000	      4805	800041f8	00000013	addi	x0,x0,0	  x0:0x00000000
       48075000	      4806	800041fc	00a3d0b3	srl	x1,x7,x10	  x7:0x00000053 x10:0x00000000  x1=0x00000053
       48085000	      4807	80004200	009ecbb3	xor	x23,x29,x9	 x29:0xffffffff  x9:0x00000000 x23=0xffffffff
       48095000	      4808	80004204	e36c0f13	addi	x30,x24,-458	 x24:0x000003df x30=0x00000215
       48105000	      4809	80004208	ce4fe0ef	jal	x1,80004208	  x1=0x80004208
       48115000	      4810	00000000	00000013	addi	x0,x0,0	  x0:0x00000000
       48125000	      4811	800026e8	00000013	addi	x0,x0,0	  x0:0x00000000
       48135000	      4812	800026ec	f0b0af13	slti	x30,x1,-245	  x1:0x80004208 x30=0x00000001
       48145000	      4813	800026f0	fc8f8f93	addi	x31,x31,-56	 x31:0x80009f2c x31=0x80009ef4
       48155000	      4814	800026f4	00f4d893	srli	x17,x9,0xf	  x9:0x00000000 x17=0x00000000
       48165000	      4815	800026f8	ae7e0c13	addi	x24,x28,-1305	 x28:0x0fffffff x24=0x0ffffae6
       48175000	      4816	800026fc	001fa223	sw	x1,4(x31)	 x31:0x80009ef4  x1:0x80004208 PA:0x80009ef8
       48185000	      4817	80002700	01a9a733	slt	x14,x19,x26	 x19:0x00000001 x26:0x00000000 x14=0x00000000
       48195000	      4818	80002704	32d4f413	andi	x8,x9,813	  x9:0x00000000  x8=0x00000000
       48205000	      4819	80002708	4634eb13	ori	x22,x9,1123	  x9:0x00000000 x22=0x00000463
       48215000	      4820	8000270c	411f8233	sub	x4,x31,x17	 x31:0x80009ef4 x17:0x00000000  x4=0x80009ef4
       48225000	      4821	80002710	003c7133	and	x2,x24,x3	 x24:0x0ffffae6  x3:0x00000000  x2=0x00000000
       48235000	      4822	80002714	058000ef	jal	x1,80002714	  x1=0x80002714
       48245000	      4823	00000000	00000013	addi	x0,x0,0	  x0:0x00000000
       48255000	      4824	80002768	00000013	addi	x0,x0,0	  x0:0x00000000
       48265000	      4825	8000276c	ff1ff36f	jal	x6,8000276c	  x6=0x8000276c
       48275000	      4826	00000000	00000013	addi	x0,x0,0	  x0:0x00000000
       48285000	      4827	80002758	00000013	addi	x0,x0,0	  x0:0x00000000
       48295000	      4828	8000275c	fe9ff0ef	jal	x1,8000275c	  x1=0x8000275c
       48305000	      4829	00000000	00000013	addi	x0,x0,0	  x0:0x00000000
       48315000	      4830	80002740	00000013	addi	x0,x0,0	  x0:0x00000000
       48325000	      4831	80002744	024000ef	jal	x1,80002744	  x1=0x80002744
       48335000	      4832	00000000	00000013	addi	x0,x0,0	  x0:0x00000000
       48345000	      4833	80002764	00000013	addi	x0,x0,0	  x0:0x00000000
       48355000	      4834	80002768	fc9ff36f	jal	x6,80002768	  x6=0x80002768
       48365000	      4835	00000000	00000013	addi	x0,x0,0	  x0:0x00000000
       48375000	      4836	8000272c	00000013	addi	x0,x0,0	  x0:0x00000000
       48385000	      4837	80002730	028000ef	jal	x1,80002730	  x1=0x80002730
       48395000	      4838	00000000	00000013	addi	x0,x0,0	  x0:0x00000000
       48405000	      4839	80002754	00000013	addi	x0,x0,0	  x0:0x00000000
       48415000	      4840	80002758	fe5ff36f	jal	x6,80002758	  x6=0x80002758
       48425000	      4841	00000000	00000013	addi	x0,x0,0	  x0:0x00000000
       48435000	      4842	80002738	00000013	addi	x0,x0,0	  x0:0x00000000
       48445000	      4843	8000273c	01000eef	jal	x29,8000273c	 x29=0x8000273c
       48455000	      4844	00000000	00000013	addi	x0,x0,0	  x0:0x00000000
       48465000	      4845	80002748	00000013	addi	x0,x0,0	  x0:0x00000000
       48475000	      4846	8000274c	ffdff0ef	jal	x1,8000274c	  x1=0x8000274c
       48485000	      4847	00000000	00000013	addi	x0,x0,0	  x0:0x00000000
       48495000	      4848	80002744	00000013	addi	x0,x0,0	  x0:0x00000000
       48505000	      4849	80002748	008000ef	jal	x1,80002748	  x1=0x80002748
       48515000	      4850	00000000	00000013	addi	x0,x0,0	  x0:0x00000000
       48525000	      4851	8000274c	00000013	addi	x0,x0,0	  x0:0x00000000
       48535000	      4852	80002750	fd5ff36f	jal	x6,80002750	  x6=0x80002750
       48545000	      4853	00000000	00000013	addi	x0,x0,0	  x0:0x00000000
       48555000	      4854	80002720	00000013	addi	x0,x0,0	  x0:0x00000000
       48565000	      4855	80002724	008000ef	jal	x1,80002724	  x1=0x80002724
       48575000	      4856	00000000	00000013	addi	x0,x0,0	  x0:0x00000000
       48585000	      4857	80002728	00000013	addi	x0,x0,0	  x0:0x00000000
       48595000	      4858	8000272c	0340036f	jal	x6,8000272c	  x6=0x8000272c
       48605000	      4859	00000000	00000013	addi	x0,x0,0	  x0:0x00000000
       48615000	      4860	8000275c	00000013	addi	x0,x0,0	  x0:0x00000000
       48625000	      4861	80002760	fb9ff36f	jal	x6,80002760	  x6=0x80002760
       48635000	      4862	00000000	00000013	addi	x0,x0,0	  x0:0x00000000
       48645000	      4863	80002714	00000013	addi	x0,x0,0	  x0:0x00000000
       48655000	      4864	80002718	008000ef	jal	x1,80002718	  x1=0x80002718
       48665000	      4865	00000000	00000013	addi	x0,x0,0	  x0:0x00000000
       48675000	      4866	8000271c	00000013	addi	x0,x0,0	  x0:0x00000000
       48685000	      4867	80002720	054001ef	jal	x3,80002720	  x3=0x80002720
       48695000	      4868	00000000	00000013	addi	x0,x0,0	  x0:0x00000000
       48705000	      4869	80002770	00000013	addi	x0,x0,0	  x0:0x00000000
       48715000	      4870	80002774	fc1ffaef	jal	x21,80002774	 x21=0x80002774
       48725000	      4871	00000000	00000013	addi	x0,x0,0	  x0:0x00000000
       48735000	      4872	80002730	00000013	addi	x0,x0,0	  x0:0x00000000
       48745000	      4873	80002734	ff5ff36f	jal	x6,80002734	  x6=0x80002734
       48755000	      4874	00000000	00000013	addi	x0,x0,0	  x0:0x00000000
       48765000	      4875	80002724	00000013	addi	x0,x0,0	  x0:0x00000000
       48775000	      4876	80002728	ff5ff0ef	jal	x1,80002728	  x1=0x80002728
       48785000	      4877	00000000	00000013	addi	x0,x0,0	  x0:0x00000000
       48795000	      4878	80002718	00000013	addi	x0,x0,0	  x0:0x00000000
       48805000	      4879	8000271c	038000ef	jal	x1,8000271c	  x1=0x8000271c
       48815000	      4880	00000000	00000013	addi	x0,x0,0	  x0:0x00000000
       48825000	      4881	80002750	00000013	addi	x0,x0,0	  x0:0x00000000
       48835000	      4882	80002754	01c000ef	jal	x1,80002754	  x1=0x80002754
       48845000	      4883	00000000	00000013	addi	x0,x0,0	  x0:0x00000000
       48855000	      4884	8000276c	00000013	addi	x0,x0,0	  x0:0x00000000
       48865000	      4885	80002770	fd1ff0ef	jal	x1,80002770	  x1=0x80002770
       48875000	      4886	00000000	00000013	addi	x0,x0,0	  x0:0x00000000
       48885000	      4887	8000273c	00000013	addi	x0,x0,0	  x0:0x00000000
       48895000	      4888	80002740	ff9ff0ef	jal	x1,80002740	  x1=0x80002740
       48905000	      4889	00000000	00000013	addi	x0,x0,0	  x0:0x00000000
       48915000	      4890	80002734	00000013	addi	x0,x0,0	  x0:0x00000000
       48925000	      4891	80002738	02c000ef	jal	x1,80002738	  x1=0x80002738
       48935000	      4892	00000000	00000013	addi	x0,x0,0	  x0:0x00000000
       48945000	      4893	80002760	00000013	addi	x0,x0,0	  x0:0x00000000
       48955000	      4894	80002764	014000ef	jal	x1,80002764	  x1=0x80002764
       48965000	      4895	00000000	00000013	addi	x0,x0,0	  x0:0x00000000
       48975000	      4896	80002774	00000013	addi	x0,x0,0	  x0:0x00000000
       48985000	      4897	80002778	0127f533	and	x10,x15,x18	 x15:0x4c192214 x18:0x80009fc4 x10=0x00000204
       48995000	      4898	8000277c	050000ef	jal	x1,8000277c	  x1=0x8000277c
       49005000	      4899	00000000	00000013	addi	x0,x0,0	  x0:0x00000000
       49015000	      4900	800027c8	00000013	addi	x0,x0,0	  x0:0x00000000
       49025000	      4901	800027cc	fcdff16f	jal	x2,800027cc	  x2=0x800027cc
       49035000	      4902	00000000	00000013	addi	x0,x0,0	  x0:0x00000000
       49045000	      4903	80002794	00000013	addi	x0,x0,0	  x0:0x00000000
       49055000	      4904	80002798	fe9ffe6f	jal	x28,80002798	 x28=0x80002798
       49065000	      4905	00000000	00000013	addi	x0,x0,0	  x0:0x00000000
       49075000	      4906	8000277c	00000013	addi	x0,x0,0	  x0:0x00000000
       49085000	      4907	80002780	0040036f	jal	x6,80002780	  x6=0x80002780
       49095000	      4908	00000000	00000013	addi	x0,x0,0	  x0:0x00000000
       49105000	      4909	80002780	00000013	addi	x0,x0,0	  x0:0x00000000
       49115000	      4910	80002784	028000ef	jal	x1,80002784	  x1=0x80002784
       49125000	      4911	00000000	00000013	addi	x0,x0,0	  x0:0x00000000
       49135000	      4912	800027a8	00000013	addi	x0,x0,0	  x0:0x00000000
       49145000	      4913	800027ac	03000a6f	jal	x20,800027ac	 x20=0x800027ac
       49155000	      4914	00000000	00000013	addi	x0,x0,0	  x0:0x00000000
       49165000	      4915	800027d8	00000013	addi	x0,x0,0	  x0:0x00000000
       49175000	      4916	800027dc	fedffcef	jal	x25,800027dc	 x25=0x800027dc
       49185000	      4917	00000000	00000013	addi	x0,x0,0	  x0:0x00000000
       49195000	      4918	800027c4	00000013	addi	x0,x0,0	  x0:0x00000000
       49205000	      4919	800027c8	fd5ffd6f	jal	x26,800027c8	 x26=0x800027c8
       49215000	      4920	00000000	00000013	addi	x0,x0,0	  x0:0x00000000
       49225000	      4921	80002798	00000013	addi	x0,x0,0	  x0:0x00000000
       49235000	      4922	8000279c	004000ef	jal	x1,8000279c	  x1=0x8000279c
       49245000	      4923	00000000	00000013	addi	x0,x0,0	  x0:0x00000000
       49255000	      4924	8000279c	00000013	addi	x0,x0,0	  x0:0x00000000
       49265000	      4925	800027a0	038002ef	jal	x5,800027a0	  x5=0x800027a0
       49275000	      4926	00000000	00000013	addi	x0,x0,0	  x0:0x00000000
       49285000	      4927	800027d4	00000013	addi	x0,x0,0	  x0:0x00000000
       49295000	      4928	800027d8	fddffe6f	jal	x28,800027d8	 x28=0x800027d8
       49305000	      4929	00000000	00000013	addi	x0,x0,0	  x0:0x00000000
       49315000	      4930	800027b0	00000013	addi	x0,x0,0	  x0:0x00000000
       49325000	      4931	800027b4	fd5ff1ef	jal	x3,800027b4	  x3=0x800027b4
       49335000	      4932	00000000	00000013	addi	x0,x0,0	  x0:0x00000000
       49345000	      4933	80002784	00000013	addi	x0,x0,0	  x0:0x00000000
       49355000	      4934	80002788	00c000ef	jal	x1,80002788	  x1=0x80002788
       49365000	      4935	00000000	00000013	addi	x0,x0,0	  x0:0x00000000
       49375000	      4936	80002790	00000013	addi	x0,x0,0	  x0:0x00000000
       49385000	      4937	80002794	014000ef	jal	x1,80002794	  x1=0x80002794
       49395000	      4938	00000000	00000013	addi	x0,x0,0	  x0:0x00000000
       49405000	      4939	800027a4	00000013	addi	x0,x0,0	  x0:0x00000000
       49415000	      4940	800027a8	028000ef	jal	x1,800027a8	  x1=0x800027a8
       49425000	      4941	00000000	00000013	addi	x0,x0,0	  x0:0x00000000
       49435000	      4942	800027cc	00000013	addi	x0,x0,0	  x0:0x00000000
       49445000	      4943	800027d0	fd5ff76f	jal	x14,800027d0	 x14=0x800027d0
       49455000	      4944	00000000	00000013	addi	x0,x0,0	  x0:0x00000000
       49465000	      4945	800027a0	00000013	addi	x0,x0,0	  x0:0x00000000
       49475000	      4946	800027a4	01c00f6f	jal	x30,800027a4	 x30=0x800027a4
       49485000	      4947	00000000	00000013	addi	x0,x0,0	  x0:0x00000000
       49495000	      4948	800027bc	00000013	addi	x0,x0,0	  x0:0x00000000
       49505000	      4949	800027c0	0040076f	jal	x14,800027c0	 x14=0x800027c0
       49515000	      4950	00000000	00000013	addi	x0,x0,0	  x0:0x00000000
       49525000	      4951	800027c0	00000013	addi	x0,x0,0	  x0:0x00000000
       49535000	      4952	800027c4	fcdff0ef	jal	x1,800027c4	  x1=0x800027c4
       49545000	      4953	00000000	00000013	addi	x0,x0,0	  x0:0x00000000
       49555000	      4954	8000278c	00000013	addi	x0,x0,0	  x0:0x00000000
       49565000	      4955	80002790	020000ef	jal	x1,80002790	  x1=0x80002790
       49575000	      4956	00000000	00000013	addi	x0,x0,0	  x0:0x00000000
       49585000	      4957	800027ac	00000013	addi	x0,x0,0	  x0:0x00000000
       49595000	      4958	800027b0	fddff46f	jal	x8,800027b0	  x8=0x800027b0
       49605000	      4959	00000000	00000013	addi	x0,x0,0	  x0:0x00000000
       49615000	      4960	80002788	00000013	addi	x0,x0,0	  x0:0x00000000
       49625000	      4961	8000278c	02c000ef	jal	x1,8000278c	  x1=0x8000278c
       49635000	      4962	00000000	00000013	addi	x0,x0,0	  x0:0x00000000
       49645000	      4963	800027b4	00000013	addi	x0,x0,0	  x0:0x00000000
       49655000	      4964	800027b8	01c000ef	jal	x1,800027b8	  x1=0x800027b8
       49665000	      4965	00000000	00000013	addi	x0,x0,0	  x0:0x00000000
       49675000	      4966	800027d0	00000013	addi	x0,x0,0	  x0:0x00000000
       49685000	      4967	800027d4	fe9ff56f	jal	x10,800027d4	 x10=0x800027d4
       49695000	      4968	00000000	00000013	addi	x0,x0,0	  x0:0x00000000
       49705000	      4969	800027b8	00000013	addi	x0,x0,0	  x0:0x00000000
       49715000	      4970	800027bc	024000ef	jal	x1,800027bc	  x1=0x800027bc
       49725000	      4971	00000000	00000013	addi	x0,x0,0	  x0:0x00000000
       49735000	      4972	800027dc	00000013	addi	x0,x0,0	  x0:0x00000000
       49745000	      4973	800027e0	4075d093	srai	x1,x11,0x7	 x11:0x00000000  x1=0x00000000
       49755000	      4974	800027e4	060000ef	jal	x1,800027e4	  x1=0x800027e4
       49765000	      4975	00000000	00000013	addi	x0,x0,0	  x0:0x00000000
       49775000	      4976	80002840	00000013	addi	x0,x0,0	  x0:0x00000000
       49785000	      4977	80002844	0180036f	jal	x6,80002844	  x6=0x80002844
       49795000	      4978	00000000	00000013	addi	x0,x0,0	  x0:0x00000000
       49805000	      4979	80002858	00000013	addi	x0,x0,0	  x0:0x00000000
       49815000	      4980	8000285c	fc9ff36f	jal	x6,8000285c	  x6=0x8000285c
       49825000	      4981	00000000	00000013	addi	x0,x0,0	  x0:0x00000000
       49835000	      4982	80002820	00000013	addi	x0,x0,0	  x0:0x00000000
       49845000	      4983	80002824	0340036f	jal	x6,80002824	  x6=0x80002824
       49855000	      4984	00000000	00000013	addi	x0,x0,0	  x0:0x00000000
       49865000	      4985	80002854	00000013	addi	x0,x0,0	  x0:0x00000000
       49875000	      4986	80002858	fe5ff0ef	jal	x1,80002858	  x1=0x80002858
       49885000	      4987	00000000	00000013	addi	x0,x0,0	  x0:0x00000000
       49895000	      4988	80002838	00000013	addi	x0,x0,0	  x0:0x00000000
       49905000	      4989	8000283c	010000ef	jal	x1,8000283c	  x1=0x8000283c
       49915000	      4990	00000000	00000013	addi	x0,x0,0	  x0:0x00000000
       49925000	      4991	80002848	00000013	addi	x0,x0,0	  x0:0x00000000
       49935000	      4992	8000284c	fe1ff36f	jal	x6,8000284c	  x6=0x8000284c
       49945000	      4993	00000000	00000013	addi	x0,x0,0	  x0:0x00000000
       49955000	      4994	80002828	00000013	addi	x0,x0,0	  x0:0x00000000
       49965000	      4995	8000282c	0280036f	jal	x6,8000282c	  x6=0x8000282c
       49975000	      4996	00000000	00000013	addi	x0,x0,0	  x0:0x00000000
       49985000	      4997	80002850	00000013	addi	x0,x0,0	  x0:0x00000000
       49995000	      4998	80002854	fedff0ef	jal	x1,80002854	  x1=0x80002854
       50005000	      4999	00000000	00000013	addi	x0,x0,0	  x0:0x00000000
       50015000	      5000	8000283c	00000013	addi	x0,x0,0	  x0:0x00000000
       50025000	      5001	80002840	fc1ff36f	jal	x6,80002840	  x6=0x80002840
       50035000	      5002	00000000	00000013	addi	x0,x0,0	  x0:0x00000000
       50045000	      5003	800027fc	00000013	addi	x0,x0,0	  x0:0x00000000
       50055000	      5004	80002800	028000ef	jal	x1,80002800	  x1=0x80002800
       50065000	      5005	00000000	00000013	addi	x0,x0,0	  x0:0x00000000
       50075000	      5006	80002824	00000013	addi	x0,x0,0	  x0:0x00000000
       50085000	      5007	80002828	02800eef	jal	x29,80002828	 x29=0x80002828
       50095000	      5008	00000000	00000013	addi	x0,x0,0	  x0:0x00000000
       50105000	      5009	8000284c	00000013	addi	x0,x0,0	  x0:0x00000000
       50115000	      5010	80002850	fc1ff36f	jal	x6,80002850	  x6=0x80002850
       50125000	      5011	00000000	00000013	addi	x0,x0,0	  x0:0x00000000
       50135000	      5012	8000280c	00000013	addi	x0,x0,0	  x0:0x00000000
       50145000	      5013	80002810	fe5ff7ef	jal	x15,80002810	 x15=0x80002810
       50155000	      5014	00000000	00000013	addi	x0,x0,0	  x0:0x00000000
       50165000	      5015	800027f0	00000013	addi	x0,x0,0	  x0:0x00000000
       50175000	      5016	800027f4	0140016f	jal	x2,800027f4	  x2=0x800027f4
       50185000	      5017	00000000	00000013	addi	x0,x0,0	  x0:0x00000000
       50195000	      5018	80002804	00000013	addi	x0,x0,0	  x0:0x00000000
       50205000	      5019	80002808	fe1ff16f	jal	x2,80002808	  x2=0x80002808
       50215000	      5020	00000000	00000013	addi	x0,x0,0	  x0:0x00000000
       50225000	      5021	800027e4	00000013	addi	x0,x0,0	  x0:0x00000000
       50235000	      5022	800027e8	038000ef	jal	x1,800027e8	  x1=0x800027e8
       50245000	      5023	00000000	00000013	addi	x0,x0,0	  x0:0x00000000
       50255000	      5024	8000281c	00000013	addi	x0,x0,0	  x0:0x00000000
       50265000	      5025	80002820	fd9ff36f	jal	x6,80002820	  x6=0x80002820
       50275000	      5026	00000000	00000013	addi	x0,x0,0	  x0:0x00000000
       50285000	      5027	800027f4	00000013	addi	x0,x0,0	  x0:0x00000000
       50295000	      5028	800027f8	0240036f	jal	x6,800027f8	  x6=0x800027f8
       50305000	      5029	00000000	00000013	addi	x0,x0,0	  x0:0x00000000
       50315000	      5030	80002818	00000013	addi	x0,x0,0	  x0:0x00000000
       50325000	      5031	8000281c	0140036f	jal	x6,8000281c	  x6=0x8000281c
       50335000	      5032	00000000	00000013	addi	x0,x0,0	  x0:0x00000000
       50345000	      5033	8000282c	00000013	addi	x0,x0,0	  x0:0x00000000
       50355000	      5034	80002830	00400aef	jal	x21,80002830	 x21=0x80002830
       50365000	      5035	00000000	00000013	addi	x0,x0,0	  x0:0x00000000
       50375000	      5036	80002830	00000013	addi	x0,x0,0	  x0:0x00000000
       50385000	      5037	80002834	fe5ff26f	jal	x4,80002834	  x4=0x80002834
       50395000	      5038	00000000	00000013	addi	x0,x0,0	  x0:0x00000000
       50405000	      5039	80002814	00000013	addi	x0,x0,0	  x0:0x00000000
       50415000	      5040	80002818	fd5ff0ef	jal	x1,80002818	  x1=0x80002818
       50425000	      5041	00000000	00000013	addi	x0,x0,0	  x0:0x00000000
       50435000	      5042	800027e8	00000013	addi	x0,x0,0	  x0:0x00000000
       50445000	      5043	800027ec	028000ef	jal	x1,800027ec	  x1=0x800027ec
       50455000	      5044	00000000	00000013	addi	x0,x0,0	  x0:0x00000000
       50465000	      5045	80002810	00000013	addi	x0,x0,0	  x0:0x00000000
       50475000	      5046	80002814	ff1ff0ef	jal	x1,80002814	  x1=0x80002814
       50485000	      5047	00000000	00000013	addi	x0,x0,0	  x0:0x00000000
       50495000	      5048	80002800	00000013	addi	x0,x0,0	  x0:0x00000000
       50505000	      5049	80002804	fedff36f	jal	x6,80002804	  x6=0x80002804
       50515000	      5050	00000000	00000013	addi	x0,x0,0	  x0:0x00000000
       50525000	      5051	800027ec	00000013	addi	x0,x0,0	  x0:0x00000000
       50535000	      5052	800027f0	04800c6f	jal	x24,800027f0	 x24=0x800027f0
       50545000	      5053	00000000	00000013	addi	x0,x0,0	  x0:0x00000000
       50555000	      5054	80002834	00000013	addi	x0,x0,0	  x0:0x00000000
       50565000	      5055	80002838	fd5ff5ef	jal	x11,80002838	 x11=0x80002838
       50575000	      5056	00000000	00000013	addi	x0,x0,0	  x0:0x00000000
       50585000	      5057	80002808	00000013	addi	x0,x0,0	  x0:0x00000000
       50595000	      5058	8000280c	ff1ff0ef	jal	x1,8000280c	  x1=0x8000280c
       50605000	      5059	00000000	00000013	addi	x0,x0,0	  x0:0x00000000
       50615000	      5060	800027f8	00000013	addi	x0,x0,0	  x0:0x00000000
       50625000	      5061	800027fc	04c000ef	jal	x1,800027fc	  x1=0x800027fc
       50635000	      5062	00000000	00000013	addi	x0,x0,0	  x0:0x00000000
       50645000	      5063	80002844	00000013	addi	x0,x0,0	  x0:0x00000000
       50655000	      5064	80002848	01800f6f	jal	x30,80002848	 x30=0x80002848
       50665000	      5065	00000000	00000013	addi	x0,x0,0	  x0:0x00000000
       50675000	      5066	8000285c	00000013	addi	x0,x0,0	  x0:0x00000000
       50685000	      5067	80002860	001b2ab3	slt	x21,x22,x1	 x22:0x00000463  x1:0x800027fc x21=0x00000000
       50695000	      5068	80002864	020000ef	jal	x1,80002864	  x1=0x80002864
       50705000	      5069	00000000	00000013	addi	x0,x0,0	  x0:0x00000000
       50715000	      5070	80002880	00000013	addi	x0,x0,0	  x0:0x00000000
       50725000	      5071	80002884	020000ef	jal	x1,80002884	  x1=0x80002884
       50735000	      5072	00000000	00000013	addi	x0,x0,0	  x0:0x00000000
       50745000	      5073	800028a0	00000013	addi	x0,x0,0	  x0:0x00000000
       50755000	      5074	800028a4	fcdff0ef	jal	x1,800028a4	  x1=0x800028a4
       50765000	      5075	00000000	00000013	addi	x0,x0,0	  x0:0x00000000
       50775000	      5076	8000286c	00000013	addi	x0,x0,0	  x0:0x00000000
       50785000	      5077	80002870	ff9ffaef	jal	x21,80002870	 x21=0x80002870
       50795000	      5078	00000000	00000013	addi	x0,x0,0	  x0:0x00000000
       50805000	      5079	80002864	00000013	addi	x0,x0,0	  x0:0x00000000
       50815000	      5080	80002868	020000ef	jal	x1,80002868	  x1=0x80002868
       50825000	      5081	00000000	00000013	addi	x0,x0,0	  x0:0x00000000
       50835000	      5082	80002884	00000013	addi	x0,x0,0	  x0:0x00000000
       50845000	      5083	80002888	ff5ff1ef	jal	x3,80002888	  x3=0x80002888
       50855000	      5084	00000000	00000013	addi	x0,x0,0	  x0:0x00000000
       50865000	      5085	80002878	00000013	addi	x0,x0,0	  x0:0x00000000
       50875000	      5086	8000287c	ff1ff0ef	jal	x1,8000287c	  x1=0x8000287c
       50885000	      5087	00000000	00000013	addi	x0,x0,0	  x0:0x00000000
       50895000	      5088	80002868	00000013	addi	x0,x0,0	  x0:0x00000000
       50905000	      5089	8000286c	024000ef	jal	x1,8000286c	  x1=0x8000286c
       50915000	      5090	00000000	00000013	addi	x0,x0,0	  x0:0x00000000
       50925000	      5091	8000288c	00000013	addi	x0,x0,0	  x0:0x00000000
       50935000	      5092	80002890	018000ef	jal	x1,80002890	  x1=0x80002890
       50945000	      5093	00000000	00000013	addi	x0,x0,0	  x0:0x00000000
       50955000	      5094	800028a4	00000013	addi	x0,x0,0	  x0:0x00000000
       50965000	      5095	800028a8	fd1ff0ef	jal	x1,800028a8	  x1=0x800028a8
       50975000	      5096	00000000	00000013	addi	x0,x0,0	  x0:0x00000000
       50985000	      5097	80002874	00000013	addi	x0,x0,0	  x0:0x00000000
       50995000	      5098	80002878	01c0036f	jal	x6,80002878	  x6=0x80002878
       51005000	      5099	00000000	00000013	addi	x0,x0,0	  x0:0x00000000
       51015000	      5100	80002890	00000013	addi	x0,x0,0	  x0:0x00000000
       51025000	      5101	80002894	ff9ff0ef	jal	x1,80002894	  x1=0x80002894
       51035000	      5102	00000000	00000013	addi	x0,x0,0	  x0:0x00000000
       51045000	      5103	80002888	00000013	addi	x0,x0,0	  x0:0x00000000
       51055000	      5104	8000288c	014008ef	jal	x17,8000288c	 x17=0x8000288c
       51065000	      5105	00000000	00000013	addi	x0,x0,0	  x0:0x00000000
       51075000	      5106	8000289c	00000013	addi	x0,x0,0	  x0:0x00000000
       51085000	      5107	800028a0	ffdff0ef	jal	x1,800028a0	  x1=0x800028a0
       51095000	      5108	00000000	00000013	addi	x0,x0,0	  x0:0x00000000
       51105000	      5109	80002898	00000013	addi	x0,x0,0	  x0:0x00000000
       51115000	      5110	8000289c	fd9ff0ef	jal	x1,8000289c	  x1=0x8000289c
       51125000	      5111	00000000	00000013	addi	x0,x0,0	  x0:0x00000000
       51135000	      5112	80002870	00000013	addi	x0,x0,0	  x0:0x00000000
       51145000	      5113	80002874	00c008ef	jal	x17,80002874	 x17=0x80002874
       51155000	      5114	00000000	00000013	addi	x0,x0,0	  x0:0x00000000
       51165000	      5115	8000287c	00000013	addi	x0,x0,0	  x0:0x00000000
       51175000	      5116	80002880	018000ef	jal	x1,80002880	  x1=0x80002880
       51185000	      5117	00000000	00000013	addi	x0,x0,0	  x0:0x00000000
       51195000	      5118	80002894	00000013	addi	x0,x0,0	  x0:0x00000000
       51205000	      5119	80002898	014000ef	jal	x1,80002898	  x1=0x80002898
       51215000	      5120	00000000	00000013	addi	x0,x0,0	  x0:0x00000000
       51225000	      5121	800028a8	00000013	addi	x0,x0,0	  x0:0x00000000
       51235000	      5122	800028ac	01bd5033	srl	x0,x26,x27	 x26:0x800027c8 x27:0x00000000
       51245000	      5123	800028b0	014000ef	jal	x1,800028b0	  x1=0x800028b0
       51255000	      5124	00000000	00000013	addi	x0,x0,0	  x0:0x00000000
       51265000	      5125	800028c0	00000013	addi	x0,x0,0	  x0:0x00000000
       51275000	      5126	800028c4	ffdff0ef	jal	x1,800028c4	  x1=0x800028c4
       51285000	      5127	00000000	00000013	addi	x0,x0,0	  x0:0x00000000
       51295000	      5128	800028bc	00000013	addi	x0,x0,0	  x0:0x00000000
       51305000	      5129	800028c0	058001ef	jal	x3,800028c0	  x3=0x800028c0
       51315000	      5130	00000000	00000013	addi	x0,x0,0	  x0:0x00000000
       51325000	      5131	80002914	00000013	addi	x0,x0,0	  x0:0x00000000
       51335000	      5132	80002918	fe5ff0ef	jal	x1,80002918	  x1=0x80002918
       51345000	      5133	00000000	00000013	addi	x0,x0,0	  x0:0x00000000
       51355000	      5134	800028f8	00000013	addi	x0,x0,0	  x0:0x00000000
       51365000	      5135	800028fc	004000ef	jal	x1,800028fc	  x1=0x800028fc
       51375000	      5136	00000000	00000013	addi	x0,x0,0	  x0:0x00000000
       51385000	      5137	800028fc	00000013	addi	x0,x0,0	  x0:0x00000000
       51395000	      5138	80002900	014000ef	jal	x1,80002900	  x1=0x80002900
       51405000	      5139	00000000	00000013	addi	x0,x0,0	  x0:0x00000000
       51415000	      5140	80002910	00000013	addi	x0,x0,0	  x0:0x00000000
       51425000	      5141	80002914	ff9ff26f	jal	x4,80002914	  x4=0x80002914
       51435000	      5142	00000000	00000013	addi	x0,x0,0	  x0:0x00000000
       51445000	      5143	80002908	00000013	addi	x0,x0,0	  x0:0x00000000
       51455000	      5144	8000290c	ffdff6ef	jal	x13,8000290c	 x13=0x8000290c
       51465000	      5145	00000000	00000013	addi	x0,x0,0	  x0:0x00000000
       51475000	      5146	80002904	00000013	addi	x0,x0,0	  x0:0x00000000
       51485000	      5147	80002908	fc9ff0ef	jal	x1,80002908	  x1=0x80002908
       51495000	      5148	00000000	00000013	addi	x0,x0,0	  x0:0x00000000
       51505000	      5149	800028cc	00000013	addi	x0,x0,0	  x0:0x00000000
       51515000	      5150	800028d0	0180076f	jal	x14,800028d0	 x14=0x800028d0
       51525000	      5151	00000000	00000013	addi	x0,x0,0	  x0:0x00000000
       51535000	      5152	800028e4	00000013	addi	x0,x0,0	  x0:0x00000000
       51545000	      5153	800028e8	fd5ff36f	jal	x6,800028e8	  x6=0x800028e8
       51555000	      5154	00000000	00000013	addi	x0,x0,0	  x0:0x00000000
       51565000	      5155	800028b8	00000013	addi	x0,x0,0	  x0:0x00000000
       51575000	      5156	800028bc	034000ef	jal	x1,800028bc	  x1=0x800028bc
       51585000	      5157	00000000	00000013	addi	x0,x0,0	  x0:0x00000000
       51595000	      5158	800028ec	00000013	addi	x0,x0,0	  x0:0x00000000
       51605000	      5159	800028f0	0200046f	jal	x8,800028f0	  x8=0x800028f0
       51615000	      5160	00000000	00000013	addi	x0,x0,0	  x0:0x00000000
       51625000	      5161	8000290c	00000013	addi	x0,x0,0	  x0:0x00000000
       51635000	      5162	80002910	fe5ffcef	jal	x25,80002910	 x25=0x80002910
       51645000	      5163	00000000	00000013	addi	x0,x0,0	  x0:0x00000000
       51655000	      5164	800028f0	00000013	addi	x0,x0,0	  x0:0x00000000
       51665000	      5165	800028f4	fd5ff0ef	jal	x1,800028f4	  x1=0x800028f4
       51675000	      5166	00000000	00000013	addi	x0,x0,0	  x0:0x00000000
       51685000	      5167	800028c4	00000013	addi	x0,x0,0	  x0:0x00000000
       51695000	      5168	800028c8	030000ef	jal	x1,800028c8	  x1=0x800028c8
       51705000	      5169	00000000	00000013	addi	x0,x0,0	  x0:0x00000000
       51715000	      5170	800028f4	00000013	addi	x0,x0,0	  x0:0x00000000
       51725000	      5171	800028f8	fbdff0ef	jal	x1,800028f8	  x1=0x800028f8
       51735000	      5172	00000000	00000013	addi	x0,x0,0	  x0:0x00000000
       51745000	      5173	800028b0	00000013	addi	x0,x0,0	  x0:0x00000000
       51755000	      5174	800028b4	024000ef	jal	x1,800028b4	  x1=0x800028b4
       51765000	      5175	00000000	00000013	addi	x0,x0,0	  x0:0x00000000
       51775000	      5176	800028d4	00000013	addi	x0,x0,0	  x0:0x00000000
       51785000	      5177	800028d8	00c000ef	jal	x1,800028d8	  x1=0x800028d8
       51795000	      5178	00000000	00000013	addi	x0,x0,0	  x0:0x00000000
       51805000	      5179	800028e0	00000013	addi	x0,x0,0	  x0:0x00000000
       51815000	      5180	800028e4	020000ef	jal	x1,800028e4	  x1=0x800028e4
       51825000	      5181	00000000	00000013	addi	x0,x0,0	  x0:0x00000000
       51835000	      5182	80002900	00000013	addi	x0,x0,0	  x0:0x00000000
       51845000	      5183	80002904	0180046f	jal	x8,80002904	  x8=0x80002904
       51855000	      5184	00000000	00000013	addi	x0,x0,0	  x0:0x00000000
       51865000	      5185	80002918	00000013	addi	x0,x0,0	  x0:0x00000000
       51875000	      5186	8000291c	f9dff36f	jal	x6,8000291c	  x6=0x8000291c
       51885000	      5187	00000000	00000013	addi	x0,x0,0	  x0:0x00000000
       51895000	      5188	800028b4	00000013	addi	x0,x0,0	  x0:0x00000000
       51905000	      5189	800028b8	014000ef	jal	x1,800028b8	  x1=0x800028b8
       51915000	      5190	00000000	00000013	addi	x0,x0,0	  x0:0x00000000
       51925000	      5191	800028c8	00000013	addi	x0,x0,0	  x0:0x00000000
       51935000	      5192	800028cc	0100036f	jal	x6,800028cc	  x6=0x800028cc
       51945000	      5193	00000000	00000013	addi	x0,x0,0	  x0:0x00000000
       51955000	      5194	800028d8	00000013	addi	x0,x0,0	  x0:0x00000000
       51965000	      5195	800028dc	010000ef	jal	x1,800028dc	  x1=0x800028dc
       51975000	      5196	00000000	00000013	addi	x0,x0,0	  x0:0x00000000
       51985000	      5197	800028e8	00000013	addi	x0,x0,0	  x0:0x00000000
       51995000	      5198	800028ec	ff5ff36f	jal	x6,800028ec	  x6=0x800028ec
       52005000	      5199	00000000	00000013	addi	x0,x0,0	  x0:0x00000000
       52015000	      5200	800028dc	00000013	addi	x0,x0,0	  x0:0x00000000
       52025000	      5201	800028e0	ff5ff0ef	jal	x1,800028e0	  x1=0x800028e0
       52035000	      5202	00000000	00000013	addi	x0,x0,0	  x0:0x00000000
       52045000	      5203	800028d0	00000013	addi	x0,x0,0	  x0:0x00000000
       52055000	      5204	800028d4	04c0086f	jal	x16,800028d4	 x16=0x800028d4
       52065000	      5205	00000000	00000013	addi	x0,x0,0	  x0:0x00000000
       52075000	      5206	8000291c	00000013	addi	x0,x0,0	  x0:0x00000000
       52085000	      5207	80002920	01331bb3	sll	x23,x6,x19	  x6:0x800028ec x19:0x00000001 x23=0x000051d8
       52095000	      5208	80002924	054000ef	jal	x1,80002924	  x1=0x80002924
       52105000	      5209	00000000	00000013	addi	x0,x0,0	  x0:0x00000000
       52115000	      5210	80002974	00000013	addi	x0,x0,0	  x0:0x00000000
       52125000	      5211	80002978	fedff0ef	jal	x1,80002978	  x1=0x80002978
       52135000	      5212	00000000	00000013	addi	x0,x0,0	  x0:0x00000000
       52145000	      5213	80002960	00000013	addi	x0,x0,0	  x0:0x00000000
       52155000	      5214	80002964	fd5ff0ef	jal	x1,80002964	  x1=0x80002964
       52165000	      5215	00000000	00000013	addi	x0,x0,0	  x0:0x00000000
       52175000	      5216	80002934	00000013	addi	x0,x0,0	  x0:0x00000000
       52185000	      5217	80002938	018001ef	jal	x3,80002938	  x3=0x80002938
       52195000	      5218	00000000	00000013	addi	x0,x0,0	  x0:0x00000000
       52205000	      5219	8000294c	00000013	addi	x0,x0,0	  x0:0x00000000
       52215000	      5220	80002950	00c000ef	jal	x1,80002950	  x1=0x80002950
       52225000	      5221	00000000	00000013	addi	x0,x0,0	  x0:0x00000000
       52235000	      5222	80002958	00000013	addi	x0,x0,0	  x0:0x00000000
       52245000	      5223	8000295c	fedff0ef	jal	x1,8000295c	  x1=0x8000295c
       52255000	      5224	00000000	00000013	addi	x0,x0,0	  x0:0x00000000
       52265000	      5225	80002944	00000013	addi	x0,x0,0	  x0:0x00000000
       52275000	      5226	80002948	fe5ff0ef	jal	x1,80002948	  x1=0x80002948
       52285000	      5227	00000000	00000013	addi	x0,x0,0	  x0:0x00000000
       52295000	      5228	80002928	00000013	addi	x0,x0,0	  x0:0x00000000
       52305000	      5229	8000292c	0200036f	jal	x6,8000292c	  x6=0x8000292c
       52315000	      5230	00000000	00000013	addi	x0,x0,0	  x0:0x00000000
       52325000	      5231	80002948	00000013	addi	x0,x0,0	  x0:0x00000000
       52335000	      5232	8000294c	00c000ef	jal	x1,8000294c	  x1=0x8000294c
       52345000	      5233	00000000	00000013	addi	x0,x0,0	  x0:0x00000000
       52355000	      5234	80002954	00000013	addi	x0,x0,0	  x0:0x00000000
       52365000	      5235	80002958	fedff0ef	jal	x1,80002958	  x1=0x80002958
       52375000	      5236	00000000	00000013	addi	x0,x0,0	  x0:0x00000000
       52385000	      5237	80002940	00000013	addi	x0,x0,0	  x0:0x00000000
       52395000	      5238	80002944	028000ef	jal	x1,80002944	  x1=0x80002944
       52405000	      5239	00000000	00000013	addi	x0,x0,0	  x0:0x00000000
       52415000	      5240	80002968	00000013	addi	x0,x0,0	  x0:0x00000000
       52425000	      5241	8000296c	ff5ff1ef	jal	x3,8000296c	  x3=0x8000296c
       52435000	      5242	00000000	00000013	addi	x0,x0,0	  x0:0x00000000
       52445000	      5243	8000295c	00000013	addi	x0,x0,0	  x0:0x00000000
       52455000	      5244	80002960	fc9ff0ef	jal	x1,80002960	  x1=0x80002960
       52465000	      5245	00000000	00000013	addi	x0,x0,0	  x0:0x00000000
       52475000	      5246	80002924	00000013	addi	x0,x0,0	  x0:0x00000000
       52485000	      5247	80002928	040001ef	jal	x3,80002928	  x3=0x80002928
       52495000	      5248	00000000	00000013	addi	x0,x0,0	  x0:0x00000000
       52505000	      5249	80002964	00000013	addi	x0,x0,0	  x0:0x00000000
       52515000	      5250	80002968	fedff0ef	jal	x1,80002968	  x1=0x80002968
       52525000	      5251	00000000	00000013	addi	x0,x0,0	  x0:0x00000000
       52535000	      5252	80002950	00000013	addi	x0,x0,0	  x0:0x00000000
       52545000	      5253	80002954	01c0036f	jal	x6,80002954	  x6=0x80002954
       52555000	      5254	00000000	00000013	addi	x0,x0,0	  x0:0x00000000
       52565000	      5255	8000296c	00000013	addi	x0,x0,0	  x0:0x00000000
       52575000	      5256	80002970	004000ef	jal	x1,80002970	  x1=0x80002970
       52585000	      5257	00000000	00000013	addi	x0,x0,0	  x0:0x00000000
       52595000	      5258	80002970	00000013	addi	x0,x0,0	  x0:0x00000000
       52605000	      5259	80002974	fcdff0ef	jal	x1,80002974	  x1=0x80002974
       52615000	      5260	00000000	00000013	addi	x0,x0,0	  x0:0x00000000
       52625000	      5261	8000293c	00000013	addi	x0,x0,0	  x0:0x00000000
       52635000	      5262	80002940	ffdff36f	jal	x6,80002940	  x6=0x80002940
       52645000	      5263	00000000	00000013	addi	x0,x0,0	  x0:0x00000000
       52655000	      5264	80002938	00000013	addi	x0,x0,0	  x0:0x00000000
       52665000	      5265	8000293c	ff5ff56f	jal	x10,8000293c	 x10=0x8000293c
       52675000	      5266	00000000	00000013	addi	x0,x0,0	  x0:0x00000000
       52685000	      5267	8000292c	00000013	addi	x0,x0,0	  x0:0x00000000
       52695000	      5268	80002930	004000ef	jal	x1,80002930	  x1=0x80002930
       52705000	      5269	00000000	00000013	addi	x0,x0,0	  x0:0x00000000
       52715000	      5270	80002930	00000013	addi	x0,x0,0	  x0:0x00000000
       52725000	      5271	80002934	048000ef	jal	x1,80002934	  x1=0x80002934
       52735000	      5272	00000000	00000013	addi	x0,x0,0	  x0:0x00000000
       52745000	      5273	80002978	00000013	addi	x0,x0,0	  x0:0x00000000
       52755000	      5274	8000297c	0101b733	sltu	x14,x3,x16	  x3:0x80002928 x16:0x800028d4 x14=0x00000000
       52765000	      5275	80002980	01c000ef	jal	x1,80002980	  x1=0x80002980
       52775000	      5276	00000000	00000013	addi	x0,x0,0	  x0:0x00000000
       52785000	      5277	80002998	00000013	addi	x0,x0,0	  x0:0x00000000
       52795000	      5278	8000299c	ff5ff0ef	jal	x1,8000299c	  x1=0x8000299c
       52805000	      5279	00000000	00000013	addi	x0,x0,0	  x0:0x00000000
       52815000	      5280	8000298c	00000013	addi	x0,x0,0	  x0:0x00000000
       52825000	      5281	80002990	008003ef	jal	x7,80002990	  x7=0x80002990
       52835000	      5282	00000000	00000013	addi	x0,x0,0	  x0:0x00000000
       52845000	      5283	80002994	00000013	addi	x0,x0,0	  x0:0x00000000
       52855000	      5284	80002998	008000ef	jal	x1,80002998	  x1=0x80002998
       52865000	      5285	00000000	00000013	addi	x0,x0,0	  x0:0x00000000
       52875000	      5286	8000299c	00000013	addi	x0,x0,0	  x0:0x00000000
       52885000	      5287	800029a0	ff5ff36f	jal	x6,800029a0	  x6=0x800029a0
       52895000	      5288	00000000	00000013	addi	x0,x0,0	  x0:0x00000000
       52905000	      5289	80002990	00000013	addi	x0,x0,0	  x0:0x00000000
       52915000	      5290	80002994	014000ef	jal	x1,80002994	  x1=0x80002994
       52925000	      5291	00000000	00000013	addi	x0,x0,0	  x0:0x00000000
       52935000	      5292	800029a4	00000013	addi	x0,x0,0	  x0:0x00000000
       52945000	      5293	800029a8	fddff36f	jal	x6,800029a8	  x6=0x800029a8
       52955000	      5294	00000000	00000013	addi	x0,x0,0	  x0:0x00000000
       52965000	      5295	80002980	00000013	addi	x0,x0,0	  x0:0x00000000
       52975000	      5296	80002984	020000ef	jal	x1,80002984	  x1=0x80002984
       52985000	      5297	00000000	00000013	addi	x0,x0,0	  x0:0x00000000
       52995000	      5298	800029a0	00000013	addi	x0,x0,0	  x0:0x00000000
       53005000	      5299	800029a4	fe5ffeef	jal	x29,800029a4	 x29=0x800029a4
       53015000	      5300	00000000	00000013	addi	x0,x0,0	  x0:0x00000000
       53025000	      5301	80002984	00000013	addi	x0,x0,0	  x0:0x00000000
       53035000	      5302	80002988	0040036f	jal	x6,80002988	  x6=0x80002988
       53045000	      5303	00000000	00000013	addi	x0,x0,0	  x0:0x00000000
       53055000	      5304	80002988	00000013	addi	x0,x0,0	  x0:0x00000000
       53065000	      5305	8000298c	0200036f	jal	x6,8000298c	  x6=0x8000298c
       53075000	      5306	00000000	00000013	addi	x0,x0,0	  x0:0x00000000
       53085000	      5307	800029a8	00000013	addi	x0,x0,0	  x0:0x00000000
       53095000	      5308	800029ac	728a8113	addi	x2,x21,1832	 x21:0x80002870  x2=0x80002f98
       53105000	      5309	800029b0	028000ef	jal	x1,800029b0	  x1=0x800029b0
       53115000	      5310	00000000	00000013	addi	x0,x0,0	  x0:0x00000000
       53125000	      5311	800029d4	00000013	addi	x0,x0,0	  x0:0x00000000
       53135000	      5312	800029d8	ff1ff0ef	jal	x1,800029d8	  x1=0x800029d8
       53145000	      5313	00000000	00000013	addi	x0,x0,0	  x0:0x00000000
       53155000	      5314	800029c4	00000013	addi	x0,x0,0	  x0:0x00000000
       53165000	      5315	800029c8	004000ef	jal	x1,800029c8	  x1=0x800029c8
       53175000	      5316	00000000	00000013	addi	x0,x0,0	  x0:0x00000000
       53185000	      5317	800029c8	00000013	addi	x0,x0,0	  x0:0x00000000
       53195000	      5318	800029cc	0080016f	jal	x2,800029cc	  x2=0x800029cc
       53205000	      5319	00000000	00000013	addi	x0,x0,0	  x0:0x00000000
       53215000	      5320	800029d0	00000013	addi	x0,x0,0	  x0:0x00000000
       53225000	      5321	800029d4	ffdff0ef	jal	x1,800029d4	  x1=0x800029d4
       53235000	      5322	00000000	00000013	addi	x0,x0,0	  x0:0x00000000
       53245000	      5323	800029cc	00000013	addi	x0,x0,0	  x0:0x00000000
       53255000	      5324	800029d0	ff5ff0ef	jal	x1,800029d0	  x1=0x800029d0
       53265000	      5325	00000000	00000013	addi	x0,x0,0	  x0:0x00000000
       53275000	      5326	800029c0	00000013	addi	x0,x0,0	  x0:0x00000000
       53285000	      5327	800029c4	038002ef	jal	x5,800029c4	  x5=0x800029c4
       53295000	      5328	00000000	00000013	addi	x0,x0,0	  x0:0x00000000
       53305000	      5329	800029f8	00000013	addi	x0,x0,0	  x0:0x00000000
       53315000	      5330	800029fc	004000ef	jal	x1,800029fc	  x1=0x800029fc
       53325000	      5331	00000000	00000013	addi	x0,x0,0	  x0:0x00000000
       53335000	      5332	800029fc	00000013	addi	x0,x0,0	  x0:0x00000000
       53345000	      5333	80002a00	fb9ff0ef	jal	x1,80002a00	  x1=0x80002a00
       53355000	      5334	00000000	00000013	addi	x0,x0,0	  x0:0x00000000
       53365000	      5335	800029b4	00000013	addi	x0,x0,0	  x0:0x00000000
       53375000	      5336	800029b8	0280036f	jal	x6,800029b8	  x6=0x800029b8
       53385000	      5337	00000000	00000013	addi	x0,x0,0	  x0:0x00000000
       53395000	      5338	800029dc	00000013	addi	x0,x0,0	  x0:0x00000000
       53405000	      5339	800029e0	004000ef	jal	x1,800029e0	  x1=0x800029e0
       53415000	      5340	00000000	00000013	addi	x0,x0,0	  x0:0x00000000
       53425000	      5341	800029e0	00000013	addi	x0,x0,0	  x0:0x00000000
       53435000	      5342	800029e4	008000ef	jal	x1,800029e4	  x1=0x800029e4
       53445000	      5343	00000000	00000013	addi	x0,x0,0	  x0:0x00000000
       53455000	      5344	800029e8	00000013	addi	x0,x0,0	  x0:0x00000000
       53465000	      5345	800029ec	00c006ef	jal	x13,800029ec	 x13=0x800029ec
       53475000	      5346	00000000	00000013	addi	x0,x0,0	  x0:0x00000000
       53485000	      5347	800029f4	00000013	addi	x0,x0,0	  x0:0x00000000
       53495000	      5348	800029f8	fc9ff0ef	jal	x1,800029f8	  x1=0x800029f8
       53505000	      5349	00000000	00000013	addi	x0,x0,0	  x0:0x00000000
       53515000	      5350	800029bc	00000013	addi	x0,x0,0	  x0:0x00000000
       53525000	      5351	800029c0	ff5ff0ef	jal	x1,800029c0	  x1=0x800029c0
       53535000	      5352	00000000	00000013	addi	x0,x0,0	  x0:0x00000000
       53545000	      5353	800029b0	00000013	addi	x0,x0,0	  x0:0x00000000
       53555000	      5354	800029b4	03c0036f	jal	x6,800029b4	  x6=0x800029b4
       53565000	      5355	00000000	00000013	addi	x0,x0,0	  x0:0x00000000
       53575000	      5356	800029ec	00000013	addi	x0,x0,0	  x0:0x00000000
       53585000	      5357	800029f0	004000ef	jal	x1,800029f0	  x1=0x800029f0
       53595000	      5358	00000000	00000013	addi	x0,x0,0	  x0:0x00000000
       53605000	      5359	800029f0	00000013	addi	x0,x0,0	  x0:0x00000000
       53615000	      5360	800029f4	ff5ffa6f	jal	x20,800029f4	 x20=0x800029f4
       53625000	      5361	00000000	00000013	addi	x0,x0,0	  x0:0x00000000
       53635000	      5362	800029e4	00000013	addi	x0,x0,0	  x0:0x00000000
       53645000	      5363	800029e8	ff5ffaef	jal	x21,800029e8	 x21=0x800029e8
       53655000	      5364	00000000	00000013	addi	x0,x0,0	  x0:0x00000000
       53665000	      5365	800029d8	00000013	addi	x0,x0,0	  x0:0x00000000
       53675000	      5366	800029dc	fe1ff0ef	jal	x1,800029dc	  x1=0x800029dc
       53685000	      5367	00000000	00000013	addi	x0,x0,0	  x0:0x00000000
       53695000	      5368	800029b8	00000013	addi	x0,x0,0	  x0:0x00000000
       53705000	      5369	800029bc	048000ef	jal	x1,800029bc	  x1=0x800029bc
       53715000	      5370	00000000	00000013	addi	x0,x0,0	  x0:0x00000000
       53725000	      5371	80002a00	00000013	addi	x0,x0,0	  x0:0x00000000
       53735000	      5372	80002a04	41b50a33	sub	x20,x10,x27	 x10:0x8000293c x27:0x00000000 x20=0x8000293c
       53745000	      5373	80002a08	048000ef	jal	x1,80002a08	  x1=0x80002a08
       53755000	      5374	00000000	00000013	addi	x0,x0,0	  x0:0x00000000
       53765000	      5375	80002a4c	00000013	addi	x0,x0,0	  x0:0x00000000
       53775000	      5376	80002a50	fd9ff0ef	jal	x1,80002a50	  x1=0x80002a50
       53785000	      5377	00000000	00000013	addi	x0,x0,0	  x0:0x00000000
       53795000	      5378	80002a24	00000013	addi	x0,x0,0	  x0:0x00000000
       53805000	      5379	80002a28	fe9ff36f	jal	x6,80002a28	  x6=0x80002a28
       53815000	      5380	00000000	00000013	addi	x0,x0,0	  x0:0x00000000
       53825000	      5381	80002a0c	00000013	addi	x0,x0,0	  x0:0x00000000
       53835000	      5382	80002a10	020000ef	jal	x1,80002a10	  x1=0x80002a10
       53845000	      5383	00000000	00000013	addi	x0,x0,0	  x0:0x00000000
       53855000	      5384	80002a2c	00000013	addi	x0,x0,0	  x0:0x00000000
       53865000	      5385	80002a30	ffdff0ef	jal	x1,80002a30	  x1=0x80002a30
       53875000	      5386	00000000	00000013	addi	x0,x0,0	  x0:0x00000000
       53885000	      5387	80002a28	00000013	addi	x0,x0,0	  x0:0x00000000
       53895000	      5388	80002a2c	028000ef	jal	x1,80002a2c	  x1=0x80002a2c
       53905000	      5389	00000000	00000013	addi	x0,x0,0	  x0:0x00000000
       53915000	      5390	80002a50	00000013	addi	x0,x0,0	  x0:0x00000000
       53925000	      5391	80002a54	fb9ff1ef	jal	x3,80002a54	  x3=0x80002a54
       53935000	      5392	00000000	00000013	addi	x0,x0,0	  x0:0x00000000
       53945000	      5393	80002a08	00000013	addi	x0,x0,0	  x0:0x00000000
       53955000	      5394	80002a0c	0300036f	jal	x6,80002a0c	  x6=0x80002a0c
       53965000	      5395	00000000	00000013	addi	x0,x0,0	  x0:0x00000000
       53975000	      5396	80002a38	00000013	addi	x0,x0,0	  x0:0x00000000
       53985000	      5397	80002a3c	0240036f	jal	x6,80002a3c	  x6=0x80002a3c
       53995000	      5398	00000000	00000013	addi	x0,x0,0	  x0:0x00000000
       54005000	      5399	80002a5c	00000013	addi	x0,x0,0	  x0:0x00000000
       54015000	      5400	80002a60	fc1ff1ef	jal	x3,80002a60	  x3=0x80002a60
       54025000	      5401	00000000	00000013	addi	x0,x0,0	  x0:0x00000000
       54035000	      5402	80002a1c	00000013	addi	x0,x0,0	  x0:0x00000000
       54045000	      5403	80002a20	044000ef	jal	x1,80002a20	  x1=0x80002a20
       54055000	      5404	00000000	00000013	addi	x0,x0,0	  x0:0x00000000
       54065000	      5405	80002a60	00000013	addi	x0,x0,0	  x0:0x00000000
       54075000	      5406	80002a64	fd5ff0ef	jal	x1,80002a64	  x1=0x80002a64
       54085000	      5407	00000000	00000013	addi	x0,x0,0	  x0:0x00000000
       54095000	      5408	80002a34	00000013	addi	x0,x0,0	  x0:0x00000000
       54105000	      5409	80002a38	fe1ff2ef	jal	x5,80002a38	  x5=0x80002a38
       54115000	      5410	00000000	00000013	addi	x0,x0,0	  x0:0x00000000
       54125000	      5411	80002a14	00000013	addi	x0,x0,0	  x0:0x00000000
       54135000	      5412	80002a18	044000ef	jal	x1,80002a18	  x1=0x80002a18
       54145000	      5413	00000000	00000013	addi	x0,x0,0	  x0:0x00000000
       54155000	      5414	80002a58	00000013	addi	x0,x0,0	  x0:0x00000000
       54165000	      5415	80002a5c	ffdff0ef	jal	x1,80002a5c	  x1=0x80002a5c
       54175000	      5416	00000000	00000013	addi	x0,x0,0	  x0:0x00000000
       54185000	      5417	80002a54	00000013	addi	x0,x0,0	  x0:0x00000000
       54195000	      5418	80002a58	fc5ff0ef	jal	x1,80002a58	  x1=0x80002a58
       54205000	      5419	00000000	00000013	addi	x0,x0,0	  x0:0x00000000
       54215000	      5420	80002a18	00000013	addi	x0,x0,0	  x0:0x00000000
       54225000	      5421	80002a1c	02c000ef	jal	x1,80002a1c	  x1=0x80002a1c
       54235000	      5422	00000000	00000013	addi	x0,x0,0	  x0:0x00000000
       54245000	      5423	80002a44	00000013	addi	x0,x0,0	  x0:0x00000000
       54255000	      5424	80002a48	fedff0ef	jal	x1,80002a48	  x1=0x80002a48
       54265000	      5425	00000000	00000013	addi	x0,x0,0	  x0:0x00000000
       54275000	      5426	80002a30	00000013	addi	x0,x0,0	  x0:0x00000000
       54285000	      5427	80002a34	fe1ff0ef	jal	x1,80002a34	  x1=0x80002a34
       54295000	      5428	00000000	00000013	addi	x0,x0,0	  x0:0x00000000
       54305000	      5429	80002a10	00000013	addi	x0,x0,0	  x0:0x00000000
       54315000	      5430	80002a14	030000ef	jal	x1,80002a14	  x1=0x80002a14
       54325000	      5431	00000000	00000013	addi	x0,x0,0	  x0:0x00000000
       54335000	      5432	80002a40	00000013	addi	x0,x0,0	  x0:0x00000000
       54345000	      5433	80002a44	008000ef	jal	x1,80002a44	  x1=0x80002a44
       54355000	      5434	00000000	00000013	addi	x0,x0,0	  x0:0x00000000
       54365000	      5435	80002a48	00000013	addi	x0,x0,0	  x0:0x00000000
       54375000	      5436	80002a4c	fd9ff0ef	jal	x1,80002a4c	  x1=0x80002a4c
       54385000	      5437	00000000	00000013	addi	x0,x0,0	  x0:0x00000000
       54395000	      5438	80002a20	00000013	addi	x0,x0,0	  x0:0x00000000
       54405000	      5439	80002a24	01c00d6f	jal	x26,80002a24	 x26=0x80002a24
       54415000	      5440	00000000	00000013	addi	x0,x0,0	  x0:0x00000000
       54425000	      5441	80002a3c	00000013	addi	x0,x0,0	  x0:0x00000000
       54435000	      5442	80002a40	02800d6f	jal	x26,80002a40	 x26=0x80002a40
       54445000	      5443	00000000	00000013	addi	x0,x0,0	  x0:0x00000000
       54455000	      5444	80002a64	00000013	addi	x0,x0,0	  x0:0x00000000
       54465000	      5445	80002a68	00000013	addi	x0,x0,0	  x0:0x00000000
       54475000	      5446	80002a6c	050000ef	jal	x1,80002a6c	  x1=0x80002a6c
       54485000	      5447	00000000	00000013	addi	x0,x0,0	  x0:0x00000000
       54495000	      5448	80002ab8	00000013	addi	x0,x0,0	  x0:0x00000000
       54505000	      5449	80002abc	ff5ff56f	jal	x10,80002abc	 x10=0x80002abc
       54515000	      5450	00000000	00000013	addi	x0,x0,0	  x0:0x00000000
       54525000	      5451	80002aac	00000013	addi	x0,x0,0	  x0:0x00000000
       54535000	      5452	80002ab0	010000ef	jal	x1,80002ab0	  x1=0x80002ab0
       54545000	      5453	00000000	00000013	addi	x0,x0,0	  x0:0x00000000
       54555000	      5454	80002abc	00000013	addi	x0,x0,0	  x0:0x00000000
       54565000	      5455	80002ac0	fb9ff0ef	jal	x1,80002ac0	  x1=0x80002ac0
       54575000	      5456	00000000	00000013	addi	x0,x0,0	  x0:0x00000000
       54585000	      5457	80002a74	00000013	addi	x0,x0,0	  x0:0x00000000
       54595000	      5458	80002a78	00c00c6f	jal	x24,80002a78	 x24=0x80002a78
       54605000	      5459	00000000	00000013	addi	x0,x0,0	  x0:0x00000000
       54615000	      5460	80002a80	00000013	addi	x0,x0,0	  x0:0x00000000
       54625000	      5461	80002a84	ff1ff0ef	jal	x1,80002a84	  x1=0x80002a84
       54635000	      5462	00000000	00000013	addi	x0,x0,0	  x0:0x00000000
       54645000	      5463	80002a70	00000013	addi	x0,x0,0	  x0:0x00000000
       54655000	      5464	80002a74	060007ef	jal	x15,80002a74	 x15=0x80002a74
       54665000	      5465	00000000	00000013	addi	x0,x0,0	  x0:0x00000000
       54675000	      5466	80002ad0	00000013	addi	x0,x0,0	  x0:0x00000000
       54685000	      5467	80002ad4	fe5ff36f	jal	x6,80002ad4	  x6=0x80002ad4
       54695000	      5468	00000000	00000013	addi	x0,x0,0	  x0:0x00000000
       54705000	      5469	80002ab4	00000013	addi	x0,x0,0	  x0:0x00000000
       54715000	      5470	80002ab8	fddff9ef	jal	x19,80002ab8	 x19=0x80002ab8
       54725000	      5471	00000000	00000013	addi	x0,x0,0	  x0:0x00000000
       54735000	      5472	80002a90	00000013	addi	x0,x0,0	  x0:0x00000000
       54745000	      5473	80002a94	fedff16f	jal	x2,80002a94	  x2=0x80002a94
       54755000	      5474	00000000	00000013	addi	x0,x0,0	  x0:0x00000000
       54765000	      5475	80002a7c	00000013	addi	x0,x0,0	  x0:0x00000000
       54775000	      5476	80002a80	020000ef	jal	x1,80002a80	  x1=0x80002a80
       54785000	      5477	00000000	00000013	addi	x0,x0,0	  x0:0x00000000
       54795000	      5478	80002a9c	00000013	addi	x0,x0,0	  x0:0x00000000
       54805000	      5479	80002aa0	fe9ff0ef	jal	x1,80002aa0	  x1=0x80002aa0
       54815000	      5480	00000000	00000013	addi	x0,x0,0	  x0:0x00000000
       54825000	      5481	80002a84	00000013	addi	x0,x0,0	  x0:0x00000000
       54835000	      5482	80002a88	024000ef	jal	x1,80002a88	  x1=0x80002a88
       54845000	      5483	00000000	00000013	addi	x0,x0,0	  x0:0x00000000
       54855000	      5484	80002aa8	00000013	addi	x0,x0,0	  x0:0x00000000
       54865000	      5485	80002aac	fedff36f	jal	x6,80002aac	  x6=0x80002aac
       54875000	      5486	00000000	00000013	addi	x0,x0,0	  x0:0x00000000
       54885000	      5487	80002a94	00000013	addi	x0,x0,0	  x0:0x00000000
       54895000	      5488	80002a98	ff9ff36f	jal	x6,80002a98	  x6=0x80002a98
       54905000	      5489	00000000	00000013	addi	x0,x0,0	  x0:0x00000000
       54915000	      5490	80002a8c	00000013	addi	x0,x0,0	  x0:0x00000000
       54925000	      5491	80002a90	00c000ef	jal	x1,80002a90	  x1=0x80002a90
       54935000	      5492	00000000	00000013	addi	x0,x0,0	  x0:0x00000000
       54945000	      5493	80002a98	00000013	addi	x0,x0,0	  x0:0x00000000
       54955000	      5494	80002a9c	00c007ef	jal	x15,80002a9c	 x15=0x80002a9c
       54965000	      5495	00000000	00000013	addi	x0,x0,0	  x0:0x00000000
       54975000	      5496	80002aa4	00000013	addi	x0,x0,0	  x0:0x00000000
       54985000	      5497	80002aa8	030001ef	jal	x3,80002aa8	  x3=0x80002aa8
       54995000	      5498	00000000	00000013	addi	x0,x0,0	  x0:0x00000000
       55005000	      5499	80002ad4	00000013	addi	x0,x0,0	  x0:0x00000000
       55015000	      5500	80002ad8	f99ff0ef	jal	x1,80002ad8	  x1=0x80002ad8
       55025000	      5501	00000000	00000013	addi	x0,x0,0	  x0:0x00000000
       55035000	      5502	80002a6c	00000013	addi	x0,x0,0	  x0:0x00000000
       55045000	      5503	80002a70	06c0036f	jal	x6,80002a70	  x6=0x80002a70
       55055000	      5504	00000000	00000013	addi	x0,x0,0	  x0:0x00000000
       55065000	      5505	80002ad8	00000013	addi	x0,x0,0	  x0:0x00000000
       55075000	      5506	80002adc	fa1ff66f	jal	x12,80002adc	 x12=0x80002adc
       55085000	      5507	00000000	00000013	addi	x0,x0,0	  x0:0x00000000
       55095000	      5508	80002a78	00000013	addi	x0,x0,0	  x0:0x00000000
       55105000	      5509	80002a7c	04c000ef	jal	x1,80002a7c	  x1=0x80002a7c
       55115000	      5510	00000000	00000013	addi	x0,x0,0	  x0:0x00000000
       55125000	      5511	80002ac4	00000013	addi	x0,x0,0	  x0:0x00000000
       55135000	      5512	80002ac8	0040036f	jal	x6,80002ac8	  x6=0x80002ac8
       55145000	      5513	00000000	00000013	addi	x0,x0,0	  x0:0x00000000
       55155000	      5514	80002ac8	00000013	addi	x0,x0,0	  x0:0x00000000
       55165000	      5515	80002acc	004000ef	jal	x1,80002acc	  x1=0x80002acc
       55175000	      5516	00000000	00000013	addi	x0,x0,0	  x0:0x00000000
       55185000	      5517	80002acc	00000013	addi	x0,x0,0	  x0:0x00000000
       55195000	      5518	80002ad0	fe5ff1ef	jal	x3,80002ad0	  x3=0x80002ad0
       55205000	      5519	00000000	00000013	addi	x0,x0,0	  x0:0x00000000
       55215000	      5520	80002ab0	00000013	addi	x0,x0,0	  x0:0x00000000
       55225000	      5521	80002ab4	010000ef	jal	x1,80002ab4	  x1=0x80002ab4
       55235000	      5522	00000000	00000013	addi	x0,x0,0	  x0:0x00000000
       55245000	      5523	80002ac0	00000013	addi	x0,x0,0	  x0:0x00000000
       55255000	      5524	80002ac4	fe1ff36f	jal	x6,80002ac4	  x6=0x80002ac4
       55265000	      5525	00000000	00000013	addi	x0,x0,0	  x0:0x00000000
       55275000	      5526	80002aa0	00000013	addi	x0,x0,0	  x0:0x00000000
       55285000	      5527	80002aa4	fe9ff56f	jal	x10,80002aa4	 x10=0x80002aa4
       55295000	      5528	00000000	00000013	addi	x0,x0,0	  x0:0x00000000
       55305000	      5529	80002a88	00000013	addi	x0,x0,0	  x0:0x00000000
       55315000	      5530	80002a8c	05400c6f	jal	x24,80002a8c	 x24=0x80002a8c
       55325000	      5531	00000000	00000013	addi	x0,x0,0	  x0:0x00000000
       55335000	      5532	80002adc	00000013	addi	x0,x0,0	  x0:0x00000000
       55345000	      5533	80002ae0	018c34b3	sltu	x9,x24,x24	 x24:0x80002a8c x24:0x80002a8c  x9=0x00000000
       55355000	      5534	80002ae4	038000ef	jal	x1,80002ae4	  x1=0x80002ae4
       55365000	      5535	00000000	00000013	addi	x0,x0,0	  x0:0x00000000
       55375000	      5536	80002b18	00000013	addi	x0,x0,0	  x0:0x00000000
       55385000	      5537	80002b1c	0140026f	jal	x4,80002b1c	  x4=0x80002b1c
       55395000	      5538	00000000	00000013	addi	x0,x0,0	  x0:0x00000000
       55405000	      5539	80002b2c	00000013	addi	x0,x0,0	  x0:0x00000000
       55415000	      5540	80002b30	fc9ffc6f	jal	x24,80002b30	 x24=0x80002b30
       55425000	      5541	00000000	00000013	addi	x0,x0,0	  x0:0x00000000
       55435000	      5542	80002af4	00000013	addi	x0,x0,0	  x0:0x00000000
       55445000	      5543	80002af8	010000ef	jal	x1,80002af8	  x1=0x80002af8
       55455000	      5544	00000000	00000013	addi	x0,x0,0	  x0:0x00000000
       55465000	      5545	80002b04	00000013	addi	x0,x0,0	  x0:0x00000000
       55475000	      5546	80002b08	02c000ef	jal	x1,80002b08	  x1=0x80002b08
       55485000	      5547	00000000	00000013	addi	x0,x0,0	  x0:0x00000000
       55495000	      5548	80002b30	00000013	addi	x0,x0,0	  x0:0x00000000
       55505000	      5549	80002b34	ff5ff0ef	jal	x1,80002b34	  x1=0x80002b34
       55515000	      5550	00000000	00000013	addi	x0,x0,0	  x0:0x00000000
       55525000	      5551	80002b24	00000013	addi	x0,x0,0	  x0:0x00000000
       55535000	      5552	80002b28	fe5ff0ef	jal	x1,80002b28	  x1=0x80002b28
       55545000	      5553	00000000	00000013	addi	x0,x0,0	  x0:0x00000000
       55555000	      5554	80002b08	00000013	addi	x0,x0,0	  x0:0x00000000
       55565000	      5555	80002b0c	00c0036f	jal	x6,80002b0c	  x6=0x80002b0c
       55575000	      5556	00000000	00000013	addi	x0,x0,0	  x0:0x00000000
       55585000	      5557	80002b14	00000013	addi	x0,x0,0	  x0:0x00000000
       55595000	      5558	80002b18	014000ef	jal	x1,80002b18	  x1=0x80002b18
       55605000	      5559	00000000	00000013	addi	x0,x0,0	  x0:0x00000000
       55615000	      5560	80002b28	00000013	addi	x0,x0,0	  x0:0x00000000
       55625000	      5561	80002b2c	ff9ffaef	jal	x21,80002b2c	 x21=0x80002b2c
       55635000	      5562	00000000	00000013	addi	x0,x0,0	  x0:0x00000000
       55645000	      5563	80002b20	00000013	addi	x0,x0,0	  x0:0x00000000
       55655000	      5564	80002b24	fddffaef	jal	x21,80002b24	 x21=0x80002b24
       55665000	      5565	00000000	00000013	addi	x0,x0,0	  x0:0x00000000
       55675000	      5566	80002afc	00000013	addi	x0,x0,0	  x0:0x00000000
       55685000	      5567	80002b00	ff1ff36f	jal	x6,80002b00	  x6=0x80002b00
       55695000	      5568	00000000	00000013	addi	x0,x0,0	  x0:0x00000000
       55705000	      5569	80002aec	00000013	addi	x0,x0,0	  x0:0x00000000
       55715000	      5570	80002af0	0140036f	jal	x6,80002af0	  x6=0x80002af0
       55725000	      5571	00000000	00000013	addi	x0,x0,0	  x0:0x00000000
       55735000	      5572	80002b00	00000013	addi	x0,x0,0	  x0:0x00000000
       55745000	      5573	80002b04	010000ef	jal	x1,80002b04	  x1=0x80002b04
       55755000	      5574	00000000	00000013	addi	x0,x0,0	  x0:0x00000000
       55765000	      5575	80002b10	00000013	addi	x0,x0,0	  x0:0x00000000
       55775000	      5576	80002b14	fd9ff9ef	jal	x19,80002b14	 x19=0x80002b14
       55785000	      5577	00000000	00000013	addi	x0,x0,0	  x0:0x00000000
       55795000	      5578	80002ae8	00000013	addi	x0,x0,0	  x0:0x00000000
       55805000	      5579	80002aec	03400d6f	jal	x26,80002aec	 x26=0x80002aec
       55815000	      5580	00000000	00000013	addi	x0,x0,0	  x0:0x00000000
       55825000	      5581	80002b1c	00000013	addi	x0,x0,0	  x0:0x00000000
       55835000	      5582	80002b20	fddff0ef	jal	x1,80002b20	  x1=0x80002b20
       55845000	      5583	00000000	00000013	addi	x0,x0,0	  x0:0x00000000
       55855000	      5584	80002af8	00000013	addi	x0,x0,0	  x0:0x00000000
       55865000	      5585	80002afc	fedff0ef	jal	x1,80002afc	  x1=0x80002afc
       55875000	      5586	00000000	00000013	addi	x0,x0,0	  x0:0x00000000
       55885000	      5587	80002ae4	00000013	addi	x0,x0,0	  x0:0x00000000
       55895000	      5588	80002ae8	028000ef	jal	x1,80002ae8	  x1=0x80002ae8
       55905000	      5589	00000000	00000013	addi	x0,x0,0	  x0:0x00000000
       55915000	      5590	80002b0c	00000013	addi	x0,x0,0	  x0:0x00000000
       55925000	      5591	80002b10	fe5ff0ef	jal	x1,80002b10	  x1=0x80002b10
       55935000	      5592	00000000	00000013	addi	x0,x0,0	  x0:0x00000000
       55945000	      5593	80002af0	00000013	addi	x0,x0,0	  x0:0x00000000
       55955000	      5594	80002af4	0440036f	jal	x6,80002af4	  x6=0x80002af4
       55965000	      5595	00000000	00000013	addi	x0,x0,0	  x0:0x00000000
       55975000	      5596	80002b34	00000013	addi	x0,x0,0	  x0:0x00000000
       55985000	      5597	80002b38	97f4e493	ori	x9,x9,-1665	  x9:0x00000000  x9=0xfffff97f
       55995000	      5598	80002b3c	014000ef	jal	x1,80002b3c	  x1=0x80002b3c
       56005000	      5599	00000000	00000013	addi	x0,x0,0	  x0:0x00000000
       56015000	      5600	80002b4c	00000013	addi	x0,x0,0	  x0:0x00000000
       56025000	      5601	80002b50	030005ef	jal	x11,80002b50	 x11=0x80002b50
       56035000	      5602	00000000	00000013	addi	x0,x0,0	  x0:0x00000000
       56045000	      5603	80002b7c	00000013	addi	x0,x0,0	  x0:0x00000000
       56055000	      5604	80002b80	fcdff36f	jal	x6,80002b80	  x6=0x80002b80
       56065000	      5605	00000000	00000013	addi	x0,x0,0	  x0:0x00000000
       56075000	      5606	80002b48	00000013	addi	x0,x0,0	  x0:0x00000000
       56085000	      5607	80002b4c	014000ef	jal	x1,80002b4c	  x1=0x80002b4c
       56095000	      5608	00000000	00000013	addi	x0,x0,0	  x0:0x00000000
       56105000	      5609	80002b5c	00000013	addi	x0,x0,0	  x0:0x00000000
       56115000	      5610	80002b60	0180036f	jal	x6,80002b60	  x6=0x80002b60
       56125000	      5611	00000000	00000013	addi	x0,x0,0	  x0:0x00000000
       56135000	      5612	80002b74	00000013	addi	x0,x0,0	  x0:0x00000000
       56145000	      5613	80002b78	fc9ff0ef	jal	x1,80002b78	  x1=0x80002b78
       56155000	      5614	00000000	00000013	addi	x0,x0,0	  x0:0x00000000
       56165000	      5615	80002b3c	00000013	addi	x0,x0,0	  x0:0x00000000
       56175000	      5616	80002b40	050001ef	jal	x3,80002b40	  x3=0x80002b40
       56185000	      5617	00000000	00000013	addi	x0,x0,0	  x0:0x00000000
       56195000	      5618	80002b8c	00000013	addi	x0,x0,0	  x0:0x00000000
       56205000	      5619	80002b90	0080036f	jal	x6,80002b90	  x6=0x80002b90
       56215000	      5620	00000000	00000013	addi	x0,x0,0	  x0:0x00000000
       56225000	      5621	80002b94	00000013	addi	x0,x0,0	  x0:0x00000000
       56235000	      5622	80002b98	ff5ff8ef	jal	x17,80002b98	 x17=0x80002b98
       56245000	      5623	00000000	00000013	addi	x0,x0,0	  x0:0x00000000
       56255000	      5624	80002b88	00000013	addi	x0,x0,0	  x0:0x00000000
       56265000	      5625	80002b8c	ffdff0ef	jal	x1,80002b8c	  x1=0x80002b8c
       56275000	      5626	00000000	00000013	addi	x0,x0,0	  x0:0x00000000
       56285000	      5627	80002b84	00000013	addi	x0,x0,0	  x0:0x00000000
       56295000	      5628	80002b88	fd1ff2ef	jal	x5,80002b88	  x5=0x80002b88
       56305000	      5629	00000000	00000013	addi	x0,x0,0	  x0:0x00000000
       56315000	      5630	80002b54	00000013	addi	x0,x0,0	  x0:0x00000000
       56325000	      5631	80002b58	fedff1ef	jal	x3,80002b58	  x3=0x80002b58
       56335000	      5632	00000000	00000013	addi	x0,x0,0	  x0:0x00000000
       56345000	      5633	80002b40	00000013	addi	x0,x0,0	  x0:0x00000000
       56355000	      5634	80002b44	050000ef	jal	x1,80002b44	  x1=0x80002b44
       56365000	      5635	00000000	00000013	addi	x0,x0,0	  x0:0x00000000
       56375000	      5636	80002b90	00000013	addi	x0,x0,0	  x0:0x00000000
       56385000	      5637	80002b94	fd9ff0ef	jal	x1,80002b94	  x1=0x80002b94
       56395000	      5638	00000000	00000013	addi	x0,x0,0	  x0:0x00000000
       56405000	      5639	80002b68	00000013	addi	x0,x0,0	  x0:0x00000000
       56415000	      5640	80002b6c	010000ef	jal	x1,80002b6c	  x1=0x80002b6c
       56425000	      5641	00000000	00000013	addi	x0,x0,0	  x0:0x00000000
       56435000	      5642	80002b78	00000013	addi	x0,x0,0	  x0:0x00000000
       56445000	      5643	80002b7c	ff5ff36f	jal	x6,80002b7c	  x6=0x80002b7c
       56455000	      5644	00000000	00000013	addi	x0,x0,0	  x0:0x00000000
       56465000	      5645	80002b6c	00000013	addi	x0,x0,0	  x0:0x00000000
       56475000	      5646	80002b70	fe5ff26f	jal	x4,80002b70	  x4=0x80002b70
       56485000	      5647	00000000	00000013	addi	x0,x0,0	  x0:0x00000000
       56495000	      5648	80002b50	00000013	addi	x0,x0,0	  x0:0x00000000
       56505000	      5649	80002b54	03000b6f	jal	x22,80002b54	 x22=0x80002b54
       56515000	      5650	00000000	00000013	addi	x0,x0,0	  x0:0x00000000
       56525000	      5651	80002b80	00000013	addi	x0,x0,0	  x0:0x00000000
       56535000	      5652	80002b84	fd9ff0ef	jal	x1,80002b84	  x1=0x80002b84
       56545000	      5653	00000000	00000013	addi	x0,x0,0	  x0:0x00000000
       56555000	      5654	80002b58	00000013	addi	x0,x0,0	  x0:0x00000000
       56565000	      5655	80002b5c	0080036f	jal	x6,80002b5c	  x6=0x80002b5c
       56575000	      5656	00000000	00000013	addi	x0,x0,0	  x0:0x00000000
       56585000	      5657	80002b60	00000013	addi	x0,x0,0	  x0:0x00000000
       56595000	      5658	80002b64	01000d6f	jal	x26,80002b64	 x26=0x80002b64
       56605000	      5659	00000000	00000013	addi	x0,x0,0	  x0:0x00000000
       56615000	      5660	80002b70	00000013	addi	x0,x0,0	  x0:0x00000000
       56625000	      5661	80002b74	ff5ff0ef	jal	x1,80002b74	  x1=0x80002b74
       56635000	      5662	00000000	00000013	addi	x0,x0,0	  x0:0x00000000
       56645000	      5663	80002b64	00000013	addi	x0,x0,0	  x0:0x00000000
       56655000	      5664	80002b68	fe1ff36f	jal	x6,80002b68	  x6=0x80002b68
       56665000	      5665	00000000	00000013	addi	x0,x0,0	  x0:0x00000000
       56675000	      5666	80002b44	00000013	addi	x0,x0,0	  x0:0x00000000
       56685000	      5667	80002b48	054001ef	jal	x3,80002b48	  x3=0x80002b48
       56695000	      5668	00000000	00000013	addi	x0,x0,0	  x0:0x00000000
       56705000	      5669	80002b98	00000013	addi	x0,x0,0	  x0:0x00000000
       56715000	      5670	80002b9c	018498b3	sll	x17,x9,x24	  x9:0xfffff97f x24:0x80002b30 x17=0xf97f0000
       56725000	      5671	80002ba0	01c000ef	jal	x1,80002ba0	  x1=0x80002ba0
       56735000	      5672	00000000	00000013	addi	x0,x0,0	  x0:0x00000000
       56745000	      5673	80002bb8	00000013	addi	x0,x0,0	  x0:0x00000000
       56755000	      5674	80002bbc	ff1ff0ef	jal	x1,80002bbc	  x1=0x80002bbc
       56765000	      5675	00000000	00000013	addi	x0,x0,0	  x0:0x00000000
       56775000	      5676	80002ba8	00000013	addi	x0,x0,0	  x0:0x00000000
       56785000	      5677	80002bac	0040086f	jal	x16,80002bac	 x16=0x80002bac
       56795000	      5678	00000000	00000013	addi	x0,x0,0	  x0:0x00000000
       56805000	      5679	80002bac	00000013	addi	x0,x0,0	  x0:0x00000000
       56815000	      5680	80002bb0	0280036f	jal	x6,80002bb0	  x6=0x80002bb0
       56825000	      5681	00000000	00000013	addi	x0,x0,0	  x0:0x00000000
       56835000	      5682	80002bd4	00000013	addi	x0,x0,0	  x0:0x00000000
       56845000	      5683	80002bd8	fe1ff0ef	jal	x1,80002bd8	  x1=0x80002bd8
       56855000	      5684	00000000	00000013	addi	x0,x0,0	  x0:0x00000000
       56865000	      5685	80002bb4	00000013	addi	x0,x0,0	  x0:0x00000000
       56875000	      5686	80002bb8	0180036f	jal	x6,80002bb8	  x6=0x80002bb8
       56885000	      5687	00000000	00000013	addi	x0,x0,0	  x0:0x00000000
       56895000	      5688	80002bcc	00000013	addi	x0,x0,0	  x0:0x00000000
       56905000	      5689	80002bd0	fd5ff36f	jal	x6,80002bd0	  x6=0x80002bd0
       56915000	      5690	00000000	00000013	addi	x0,x0,0	  x0:0x00000000
       56925000	      5691	80002ba0	00000013	addi	x0,x0,0	  x0:0x00000000
       56935000	      5692	80002ba4	01c000ef	jal	x1,80002ba4	  x1=0x80002ba4
       56945000	      5693	00000000	00000013	addi	x0,x0,0	  x0:0x00000000
       56955000	      5694	80002bbc	00000013	addi	x0,x0,0	  x0:0x00000000
       56965000	      5695	80002bc0	00c0036f	jal	x6,80002bc0	  x6=0x80002bc0
       56975000	      5696	00000000	00000013	addi	x0,x0,0	  x0:0x00000000
       56985000	      5697	80002bc8	00000013	addi	x0,x0,0	  x0:0x00000000
       56995000	      5698	80002bcc	010000ef	jal	x1,80002bcc	  x1=0x80002bcc
       57005000	      5699	00000000	00000013	addi	x0,x0,0	  x0:0x00000000
       57015000	      5700	80002bd8	00000013	addi	x0,x0,0	  x0:0x00000000
       57025000	      5701	80002bdc	fe9ff36f	jal	x6,80002bdc	  x6=0x80002bdc
       57035000	      5702	00000000	00000013	addi	x0,x0,0	  x0:0x00000000
       57045000	      5703	80002bc0	00000013	addi	x0,x0,0	  x0:0x00000000
       57055000	      5704	80002bc4	010002ef	jal	x5,80002bc4	  x5=0x80002bc4
       57065000	      5705	00000000	00000013	addi	x0,x0,0	  x0:0x00000000
       57075000	      5706	80002bd0	00000013	addi	x0,x0,0	  x0:0x00000000
       57085000	      5707	80002bd4	ff5ff0ef	jal	x1,80002bd4	  x1=0x80002bd4
       57095000	      5708	00000000	00000013	addi	x0,x0,0	  x0:0x00000000
       57105000	      5709	80002bc4	00000013	addi	x0,x0,0	  x0:0x00000000
       57115000	      5710	80002bc8	fe1ff0ef	jal	x1,80002bc8	  x1=0x80002bc8
       57125000	      5711	00000000	00000013	addi	x0,x0,0	  x0:0x00000000
       57135000	      5712	80002ba4	00000013	addi	x0,x0,0	  x0:0x00000000
       57145000	      5713	80002ba8	00c0026f	jal	x4,80002ba8	  x4=0x80002ba8
       57155000	      5714	00000000	00000013	addi	x0,x0,0	  x0:0x00000000
       57165000	      5715	80002bb0	00000013	addi	x0,x0,0	  x0:0x00000000
       57175000	      5716	80002bb4	02c000ef	jal	x1,80002bb4	  x1=0x80002bb4
       57185000	      5717	00000000	00000013	addi	x0,x0,0	  x0:0x00000000
       57195000	      5718	80002bdc	00000013	addi	x0,x0,0	  x0:0x00000000
       57205000	      5719	80002be0	00192833	slt	x16,x18,x1	 x18:0x80009fc4  x1:0x80002bb4 x16=0x00000000
       57215000	      5720	80002be4	01c000ef	jal	x1,80002be4	  x1=0x80002be4
       57225000	      5721	00000000	00000013	addi	x0,x0,0	  x0:0x00000000
       57235000	      5722	80002bfc	00000013	addi	x0,x0,0	  x0:0x00000000
       57245000	      5723	80002c00	0080036f	jal	x6,80002c00	  x6=0x80002c00
       57255000	      5724	00000000	00000013	addi	x0,x0,0	  x0:0x00000000
       57265000	      5725	80002c04	00000013	addi	x0,x0,0	  x0:0x00000000
       57275000	      5726	80002c08	fe5ff36f	jal	x6,80002c08	  x6=0x80002c08
       57285000	      5727	00000000	00000013	addi	x0,x0,0	  x0:0x00000000
       57295000	      5728	80002be8	00000013	addi	x0,x0,0	  x0:0x00000000
       57305000	      5729	80002bec	ffdff0ef	jal	x1,80002bec	  x1=0x80002bec
       57315000	      5730	00000000	00000013	addi	x0,x0,0	  x0:0x00000000
       57325000	      5731	80002be4	00000013	addi	x0,x0,0	  x0:0x00000000
       57335000	      5732	80002be8	01c000ef	jal	x1,80002be8	  x1=0x80002be8
       57345000	      5733	00000000	00000013	addi	x0,x0,0	  x0:0x00000000
       57355000	      5734	80002c00	00000013	addi	x0,x0,0	  x0:0x00000000
       57365000	      5735	80002c04	010000ef	jal	x1,80002c04	  x1=0x80002c04
       57375000	      5736	00000000	00000013	addi	x0,x0,0	  x0:0x00000000
       57385000	      5737	80002c10	00000013	addi	x0,x0,0	  x0:0x00000000
       57395000	      5738	80002c14	fe1ff0ef	jal	x1,80002c14	  x1=0x80002c14
       57405000	      5739	00000000	00000013	addi	x0,x0,0	  x0:0x00000000
       57415000	      5740	80002bf0	00000013	addi	x0,x0,0	  x0:0x00000000
       57425000	      5741	80002bf4	008009ef	jal	x19,80002bf4	 x19=0x80002bf4
       57435000	      5742	00000000	00000013	addi	x0,x0,0	  x0:0x00000000
       57445000	      5743	80002bf8	00000013	addi	x0,x0,0	  x0:0x00000000
       57455000	      5744	80002bfc	014000ef	jal	x1,80002bfc	  x1=0x80002bfc
       57465000	      5745	00000000	00000013	addi	x0,x0,0	  x0:0x00000000
       57475000	      5746	80002c0c	00000013	addi	x0,x0,0	  x0:0x00000000
       57485000	      5747	80002c10	fe9ff0ef	jal	x1,80002c10	  x1=0x80002c10
       57495000	      5748	00000000	00000013	addi	x0,x0,0	  x0:0x00000000
       57505000	      5749	80002bf4	00000013	addi	x0,x0,0	  x0:0x00000000
       57515000	      5750	80002bf8	014008ef	jal	x17,80002bf8	 x17=0x80002bf8
       57525000	      5751	00000000	00000013	addi	x0,x0,0	  x0:0x00000000
       57535000	      5752	80002c08	00000013	addi	x0,x0,0	  x0:0x00000000
       57545000	      5753	80002c0c	fe5ff0ef	jal	x1,80002c0c	  x1=0x80002c0c
       57555000	      5754	00000000	00000013	addi	x0,x0,0	  x0:0x00000000
       57565000	      5755	80002bec	00000013	addi	x0,x0,0	  x0:0x00000000
       57575000	      5756	80002bf0	0280036f	jal	x6,80002bf0	  x6=0x80002bf0
       57585000	      5757	00000000	00000013	addi	x0,x0,0	  x0:0x00000000
       57595000	      5758	80002c14	00000013	addi	x0,x0,0	  x0:0x00000000
       57605000	      5759	80002c18	bd0cec13	ori	x24,x25,-1072	 x25:0x80002910 x24=0xfffffbd0
       57615000	      5760	80002c1c	044000ef	jal	x1,80002c1c	  x1=0x80002c1c
       57625000	      5761	00000000	00000013	addi	x0,x0,0	  x0:0x00000000
       57635000	      5762	80002c5c	00000013	addi	x0,x0,0	  x0:0x00000000
       57645000	      5763	80002c60	fe1ff0ef	jal	x1,80002c60	  x1=0x80002c60
       57655000	      5764	00000000	00000013	addi	x0,x0,0	  x0:0x00000000
       57665000	      5765	80002c3c	00000013	addi	x0,x0,0	  x0:0x00000000
       57675000	      5766	80002c40	024002ef	jal	x5,80002c40	  x5=0x80002c40
       57685000	      5767	00000000	00000013	addi	x0,x0,0	  x0:0x00000000
       57695000	      5768	80002c60	00000013	addi	x0,x0,0	  x0:0x00000000
       57705000	      5769	80002c64	01c000ef	jal	x1,80002c64	  x1=0x80002c64
       57715000	      5770	00000000	00000013	addi	x0,x0,0	  x0:0x00000000
       57725000	      5771	80002c7c	00000013	addi	x0,x0,0	  x0:0x00000000
       57735000	      5772	80002c80	fddff16f	jal	x2,80002c80	  x2=0x80002c80
       57745000	      5773	00000000	00000013	addi	x0,x0,0	  x0:0x00000000
       57755000	      5774	80002c58	00000013	addi	x0,x0,0	  x0:0x00000000
       57765000	      5775	80002c5c	ff1ff5ef	jal	x11,80002c5c	 x11=0x80002c5c
       57775000	      5776	00000000	00000013	addi	x0,x0,0	  x0:0x00000000
       57785000	      5777	80002c48	00000013	addi	x0,x0,0	  x0:0x00000000
       57795000	      5778	80002c4c	ff1ff0ef	jal	x1,80002c4c	  x1=0x80002c4c
       57805000	      5779	00000000	00000013	addi	x0,x0,0	  x0:0x00000000
       57815000	      5780	80002c38	00000013	addi	x0,x0,0	  x0:0x00000000
       57825000	      5781	80002c3c	034000ef	jal	x1,80002c3c	  x1=0x80002c3c
       57835000	      5782	00000000	00000013	addi	x0,x0,0	  x0:0x00000000
       57845000	      5783	80002c6c	00000013	addi	x0,x0,0	  x0:0x00000000
       57855000	      5784	80002c70	fb5ff0ef	jal	x1,80002c70	  x1=0x80002c70
       57865000	      5785	00000000	00000013	addi	x0,x0,0	  x0:0x00000000
       57875000	      5786	80002c20	00000013	addi	x0,x0,0	  x0:0x00000000
       57885000	      5787	80002c24	01000bef	jal	x23,80002c24	 x23=0x80002c24
       57895000	      5788	00000000	00000013	addi	x0,x0,0	  x0:0x00000000
       57905000	      5789	80002c30	00000013	addi	x0,x0,0	  x0:0x00000000
       57915000	      5790	80002c34	01c000ef	jal	x1,80002c34	  x1=0x80002c34
       57925000	      5791	00000000	00000013	addi	x0,x0,0	  x0:0x00000000
       57935000	      5792	80002c4c	00000013	addi	x0,x0,0	  x0:0x00000000
       57945000	      5793	80002c50	0080036f	jal	x6,80002c50	  x6=0x80002c50
       57955000	      5794	00000000	00000013	addi	x0,x0,0	  x0:0x00000000
       57965000	      5795	80002c54	00000013	addi	x0,x0,0	  x0:0x00000000
       57975000	      5796	80002c58	fe1ff36f	jal	x6,80002c58	  x6=0x80002c58
       57985000	      5797	00000000	00000013	addi	x0,x0,0	  x0:0x00000000
       57995000	      5798	80002c34	00000013	addi	x0,x0,0	  x0:0x00000000
       58005000	      5799	80002c38	00c0076f	jal	x14,80002c38	 x14=0x80002c38
       58015000	      5800	00000000	00000013	addi	x0,x0,0	  x0:0x00000000
       58025000	      5801	80002c40	00000013	addi	x0,x0,0	  x0:0x00000000
       58035000	      5802	80002c44	038000ef	jal	x1,80002c44	  x1=0x80002c44
       58045000	      5803	00000000	00000013	addi	x0,x0,0	  x0:0x00000000
       58055000	      5804	80002c78	00000013	addi	x0,x0,0	  x0:0x00000000
       58065000	      5805	80002c7c	fcdffb6f	jal	x22,80002c7c	 x22=0x80002c7c
       58075000	      5806	00000000	00000013	addi	x0,x0,0	  x0:0x00000000
       58085000	      5807	80002c44	00000013	addi	x0,x0,0	  x0:0x00000000
       58095000	      5808	80002c48	024000ef	jal	x1,80002c48	  x1=0x80002c48
       58105000	      5809	00000000	00000013	addi	x0,x0,0	  x0:0x00000000
       58115000	      5810	80002c68	00000013	addi	x0,x0,0	  x0:0x00000000
       58125000	      5811	80002c6c	fe9ffbef	jal	x23,80002c6c	 x23=0x80002c6c
       58135000	      5812	00000000	00000013	addi	x0,x0,0	  x0:0x00000000
       58145000	      5813	80002c50	00000013	addi	x0,x0,0	  x0:0x00000000
       58155000	      5814	80002c54	fd5ff0ef	jal	x1,80002c54	  x1=0x80002c54
       58165000	      5815	00000000	00000013	addi	x0,x0,0	  x0:0x00000000
       58175000	      5816	80002c24	00000013	addi	x0,x0,0	  x0:0x00000000
       58185000	      5817	80002c28	050000ef	jal	x1,80002c28	  x1=0x80002c28
       58195000	      5818	00000000	00000013	addi	x0,x0,0	  x0:0x00000000
       58205000	      5819	80002c74	00000013	addi	x0,x0,0	  x0:0x00000000
       58215000	      5820	80002c78	fb9ff26f	jal	x4,80002c78	  x4=0x80002c78
       58225000	      5821	00000000	00000013	addi	x0,x0,0	  x0:0x00000000
       58235000	      5822	80002c2c	00000013	addi	x0,x0,0	  x0:0x00000000
       58245000	      5823	80002c30	ff1ff0ef	jal	x1,80002c30	  x1=0x80002c30
       58255000	      5824	00000000	00000013	addi	x0,x0,0	  x0:0x00000000
       58265000	      5825	80002c1c	00000013	addi	x0,x0,0	  x0:0x00000000
       58275000	      5826	80002c20	0480036f	jal	x6,80002c20	  x6=0x80002c20
       58285000	      5827	00000000	00000013	addi	x0,x0,0	  x0:0x00000000
       58295000	      5828	80002c64	00000013	addi	x0,x0,0	  x0:0x00000000
       58305000	      5829	80002c68	fc5ff16f	jal	x2,80002c68	  x2=0x80002c68
       58315000	      5830	00000000	00000013	addi	x0,x0,0	  x0:0x00000000
       58325000	      5831	80002c28	00000013	addi	x0,x0,0	  x0:0x00000000
       58335000	      5832	80002c2c	04800d6f	jal	x26,80002c2c	 x26=0x80002c2c
       58345000	      5833	00000000	00000013	addi	x0,x0,0	  x0:0x00000000
       58355000	      5834	80002c70	00000013	addi	x0,x0,0	  x0:0x00000000
       58365000	      5835	80002c74	010000ef	jal	x1,80002c74	  x1=0x80002c74
       58375000	      5836	00000000	00000013	addi	x0,x0,0	  x0:0x00000000
       58385000	      5837	80002c80	00000013	addi	x0,x0,0	  x0:0x00000000
       58395000	      5838	80002c84	0097d0b3	srl	x1,x15,x9	 x15:0x80002a9c  x9:0xfffff97f  x1=0x00000001
       58405000	      5839	80002c88	02c000ef	jal	x1,80002c88	  x1=0x80002c88
       58415000	      5840	00000000	00000013	addi	x0,x0,0	  x0:0x00000000
       58425000	      5841	80002cb0	00000013	addi	x0,x0,0	  x0:0x00000000
       58435000	      5842	80002cb4	fe1ff0ef	jal	x1,80002cb4	  x1=0x80002cb4
       58445000	      5843	00000000	00000013	addi	x0,x0,0	  x0:0x00000000
       58455000	      5844	80002c90	00000013	addi	x0,x0,0	  x0:0x00000000
       58465000	      5845	80002c94	004000ef	jal	x1,80002c94	  x1=0x80002c94
       58475000	      5846	00000000	00000013	addi	x0,x0,0	  x0:0x00000000
       58485000	      5847	80002c94	00000013	addi	x0,x0,0	  x0:0x00000000
       58495000	      5848	80002c98	0140036f	jal	x6,80002c98	  x6=0x80002c98
       58505000	      5849	00000000	00000013	addi	x0,x0,0	  x0:0x00000000
       58515000	      5850	80002ca8	00000013	addi	x0,x0,0	  x0:0x00000000
       58525000	      5851	80002cac	0280036f	jal	x6,80002cac	  x6=0x80002cac
       58535000	      5852	00000000	00000013	addi	x0,x0,0	  x0:0x00000000
       58545000	      5853	80002cd0	00000013	addi	x0,x0,0	  x0:0x00000000
       58555000	      5854	80002cd4	00c009ef	jal	x19,80002cd4	 x19=0x80002cd4
       58565000	      5855	00000000	00000013	addi	x0,x0,0	  x0:0x00000000
       58575000	      5856	80002cdc	00000013	addi	x0,x0,0	  x0:0x00000000
       58585000	      5857	80002ce0	fb1ff36f	jal	x6,80002ce0	  x6=0x80002ce0
       58595000	      5858	00000000	00000013	addi	x0,x0,0	  x0:0x00000000
       58605000	      5859	80002c8c	00000013	addi	x0,x0,0	  x0:0x00000000
       58615000	      5860	80002c90	00c000ef	jal	x1,80002c90	  x1=0x80002c90
       58625000	      5861	00000000	00000013	addi	x0,x0,0	  x0:0x00000000
       58635000	      5862	80002c98	00000013	addi	x0,x0,0	  x0:0x00000000
       58645000	      5863	80002c9c	ff1ff0ef	jal	x1,80002c9c	  x1=0x80002c9c
       58655000	      5864	00000000	00000013	addi	x0,x0,0	  x0:0x00000000
       58665000	      5865	80002c88	00000013	addi	x0,x0,0	  x0:0x00000000
       58675000	      5866	80002c8c	050000ef	jal	x1,80002c8c	  x1=0x80002c8c
       58685000	      5867	00000000	00000013	addi	x0,x0,0	  x0:0x00000000
       58695000	      5868	80002cd8	00000013	addi	x0,x0,0	  x0:0x00000000
       58705000	      5869	80002cdc	ff5ff0ef	jal	x1,80002cdc	  x1=0x80002cdc
       58715000	      5870	00000000	00000013	addi	x0,x0,0	  x0:0x00000000
       58725000	      5871	80002ccc	00000013	addi	x0,x0,0	  x0:0x00000000
       58735000	      5872	80002cd0	fedff0ef	jal	x1,80002cd0	  x1=0x80002cd0
       58745000	      5873	00000000	00000013	addi	x0,x0,0	  x0:0x00000000
       58755000	      5874	80002cb8	00000013	addi	x0,x0,0	  x0:0x00000000
       58765000	      5875	80002cbc	ff5ff1ef	jal	x3,80002cbc	  x3=0x80002cbc
       58775000	      5876	00000000	00000013	addi	x0,x0,0	  x0:0x00000000
       58785000	      5877	80002cac	00000013	addi	x0,x0,0	  x0:0x00000000
       58795000	      5878	80002cb0	028000ef	jal	x1,80002cb0	  x1=0x80002cb0
       58805000	      5879	00000000	00000013	addi	x0,x0,0	  x0:0x00000000
       58815000	      5880	80002cd4	00000013	addi	x0,x0,0	  x0:0x00000000
       58825000	      5881	80002cd8	fc9ff36f	jal	x6,80002cd8	  x6=0x80002cd8
       58835000	      5882	00000000	00000013	addi	x0,x0,0	  x0:0x00000000
       58845000	      5883	80002c9c	00000013	addi	x0,x0,0	  x0:0x00000000
       58855000	      5884	80002ca0	0200016f	jal	x2,80002ca0	  x2=0x80002ca0
       58865000	      5885	00000000	00000013	addi	x0,x0,0	  x0:0x00000000
       58875000	      5886	80002cbc	00000013	addi	x0,x0,0	  x0:0x00000000
       58885000	      5887	80002cc0	00c000ef	jal	x1,80002cc0	  x1=0x80002cc0
       58895000	      5888	00000000	00000013	addi	x0,x0,0	  x0:0x00000000
       58905000	      5889	80002cc8	00000013	addi	x0,x0,0	  x0:0x00000000
       58915000	      5890	80002ccc	ffdff0ef	jal	x1,80002ccc	  x1=0x80002ccc
       58925000	      5891	00000000	00000013	addi	x0,x0,0	  x0:0x00000000
       58935000	      5892	80002cc4	00000013	addi	x0,x0,0	  x0:0x00000000
       58945000	      5893	80002cc8	fe1ff0ef	jal	x1,80002cc8	  x1=0x80002cc8
       58955000	      5894	00000000	00000013	addi	x0,x0,0	  x0:0x00000000
       58965000	      5895	80002ca4	00000013	addi	x0,x0,0	  x0:0x00000000
       58975000	      5896	80002ca8	ffdff0ef	jal	x1,80002ca8	  x1=0x80002ca8
       58985000	      5897	00000000	00000013	addi	x0,x0,0	  x0:0x00000000
       58995000	      5898	80002ca0	00000013	addi	x0,x0,0	  x0:0x00000000
       59005000	      5899	80002ca4	01400c6f	jal	x24,80002ca4	 x24=0x80002ca4
       59015000	      5900	00000000	00000013	addi	x0,x0,0	  x0:0x00000000
       59025000	      5901	80002cb4	00000013	addi	x0,x0,0	  x0:0x00000000
       59035000	      5902	80002cb8	00c000ef	jal	x1,80002cb8	  x1=0x80002cb8
       59045000	      5903	00000000	00000013	addi	x0,x0,0	  x0:0x00000000
       59055000	      5904	80002cc0	00000013	addi	x0,x0,0	  x0:0x00000000
       59065000	      5905	80002cc4	020001ef	jal	x3,80002cc4	  x3=0x80002cc4
       59075000	      5906	00000000	00000013	addi	x0,x0,0	  x0:0x00000000
       59085000	      5907	80002ce0	00000013	addi	x0,x0,0	  x0:0x00000000
       59095000	      5908	80002ce4	40b45713	srai	x14,x8,0xb	  x8:0x80002904 x14=0xfff00005
       59105000	      5909	80002ce8	024000ef	jal	x1,80002ce8	  x1=0x80002ce8
       59115000	      5910	00000000	00000013	addi	x0,x0,0	  x0:0x00000000
       59125000	      5911	80002d08	00000013	addi	x0,x0,0	  x0:0x00000000
       59135000	      5912	80002d0c	fe9ff3ef	jal	x7,80002d0c	  x7=0x80002d0c
       59145000	      5913	00000000	00000013	addi	x0,x0,0	  x0:0x00000000
       59155000	      5914	80002cf0	00000013	addi	x0,x0,0	  x0:0x00000000
       59165000	      5915	80002cf4	0140036f	jal	x6,80002cf4	  x6=0x80002cf4
       59175000	      5916	00000000	00000013	addi	x0,x0,0	  x0:0x00000000
       59185000	      5917	80002d04	00000013	addi	x0,x0,0	  x0:0x00000000
       59195000	      5918	80002d08	fe9ff9ef	jal	x19,80002d08	 x19=0x80002d08
       59205000	      5919	00000000	00000013	addi	x0,x0,0	  x0:0x00000000
       59215000	      5920	80002cec	00000013	addi	x0,x0,0	  x0:0x00000000
       59225000	      5921	80002cf0	008000ef	jal	x1,80002cf0	  x1=0x80002cf0
       59235000	      5922	00000000	00000013	addi	x0,x0,0	  x0:0x00000000
       59245000	      5923	80002cf4	00000013	addi	x0,x0,0	  x0:0x00000000
       59255000	      5924	80002cf8	018000ef	jal	x1,80002cf8	  x1=0x80002cf8
       59265000	      5925	00000000	00000013	addi	x0,x0,0	  x0:0x00000000
       59275000	      5926	80002d0c	00000013	addi	x0,x0,0	  x0:0x00000000
       59285000	      5927	80002d10	fedff0ef	jal	x1,80002d10	  x1=0x80002d10
       59295000	      5928	00000000	00000013	addi	x0,x0,0	  x0:0x00000000
       59305000	      5929	80002cf8	00000013	addi	x0,x0,0	  x0:0x00000000
       59315000	      5930	80002cfc	0040036f	jal	x6,80002cfc	  x6=0x80002cfc
       59325000	      5931	00000000	00000013	addi	x0,x0,0	  x0:0x00000000
       59335000	      5932	80002cfc	00000013	addi	x0,x0,0	  x0:0x00000000
       59345000	      5933	80002d00	004000ef	jal	x1,80002d00	  x1=0x80002d00
       59355000	      5934	00000000	00000013	addi	x0,x0,0	  x0:0x00000000
       59365000	      5935	80002d00	00000013	addi	x0,x0,0	  x0:0x00000000
       59375000	      5936	80002d04	fe9ff0ef	jal	x1,80002d04	  x1=0x80002d04
       59385000	      5937	00000000	00000013	addi	x0,x0,0	  x0:0x00000000
       59395000	      5938	80002ce8	00000013	addi	x0,x0,0	  x0:0x00000000
       59405000	      5939	80002cec	028000ef	jal	x1,80002cec	  x1=0x80002cec
       59415000	      5940	00000000	00000013	addi	x0,x0,0	  x0:0x00000000
       59425000	      5941	80002d10	00000013	addi	x0,x0,0	  x0:0x00000000
       59435000	      5942	80002d14	01324733	xor	x14,x4,x19	  x4:0x80002c78 x19:0x80002d08 x14=0x00000170
       59445000	      5943	80002d18	030000ef	jal	x1,80002d18	  x1=0x80002d18
       59455000	      5944	00000000	00000013	addi	x0,x0,0	  x0:0x00000000
       59465000	      5945	80002d44	00000013	addi	x0,x0,0	  x0:0x00000000
       59475000	      5946	80002d48	004000ef	jal	x1,80002d48	  x1=0x80002d48
       59485000	      5947	00000000	00000013	addi	x0,x0,0	  x0:0x00000000
       59495000	      5948	80002d48	00000013	addi	x0,x0,0	  x0:0x00000000
       59505000	      5949	80002d4c	fe9ff36f	jal	x6,80002d4c	  x6=0x80002d4c
       59515000	      5950	00000000	00000013	addi	x0,x0,0	  x0:0x00000000
       59525000	      5951	80002d30	00000013	addi	x0,x0,0	  x0:0x00000000
       59535000	      5952	80002d34	fe9ff0ef	jal	x1,80002d34	  x1=0x80002d34
       59545000	      5953	00000000	00000013	addi	x0,x0,0	  x0:0x00000000
       59555000	      5954	80002d18	00000013	addi	x0,x0,0	  x0:0x00000000
       59565000	      5955	80002d1c	0040036f	jal	x6,80002d1c	  x6=0x80002d1c
       59575000	      5956	00000000	00000013	addi	x0,x0,0	  x0:0x00000000
       59585000	      5957	80002d1c	00000013	addi	x0,x0,0	  x0:0x00000000
       59595000	      5958	80002d20	0200026f	jal	x4,80002d20	  x4=0x80002d20
       59605000	      5959	00000000	00000013	addi	x0,x0,0	  x0:0x00000000
       59615000	      5960	80002d3c	00000013	addi	x0,x0,0	  x0:0x00000000
       59625000	      5961	80002d40	fe9ff0ef	jal	x1,80002d40	  x1=0x80002d40
       59635000	      5962	00000000	00000013	addi	x0,x0,0	  x0:0x00000000
       59645000	      5963	80002d24	00000013	addi	x0,x0,0	  x0:0x00000000
       59655000	      5964	80002d28	010000ef	jal	x1,80002d28	  x1=0x80002d28
       59665000	      5965	00000000	00000013	addi	x0,x0,0	  x0:0x00000000
       59675000	      5966	80002d34	00000013	addi	x0,x0,0	  x0:0x00000000
       59685000	      5967	80002d38	fedff36f	jal	x6,80002d38	  x6=0x80002d38
       59695000	      5968	00000000	00000013	addi	x0,x0,0	  x0:0x00000000
       59705000	      5969	80002d20	00000013	addi	x0,x0,0	  x0:0x00000000
       59715000	      5970	80002d24	00c000ef	jal	x1,80002d24	  x1=0x80002d24
       59725000	      5971	00000000	00000013	addi	x0,x0,0	  x0:0x00000000
       59735000	      5972	80002d2c	00000013	addi	x0,x0,0	  x0:0x00000000
       59745000	      5973	80002d30	ffdff0ef	jal	x1,80002d30	  x1=0x80002d30
       59755000	      5974	00000000	00000013	addi	x0,x0,0	  x0:0x00000000
       59765000	      5975	80002d28	00000013	addi	x0,x0,0	  x0:0x00000000
       59775000	      5976	80002d2c	010000ef	jal	x1,80002d2c	  x1=0x80002d2c
       59785000	      5977	00000000	00000013	addi	x0,x0,0	  x0:0x00000000
       59795000	      5978	80002d38	00000013	addi	x0,x0,0	  x0:0x00000000
       59805000	      5979	80002d3c	008000ef	jal	x1,80002d3c	  x1=0x80002d3c
       59815000	      5980	00000000	00000013	addi	x0,x0,0	  x0:0x00000000
       59825000	      5981	80002d40	00000013	addi	x0,x0,0	  x0:0x00000000
       59835000	      5982	80002d44	00c0066f	jal	x12,80002d44	 x12=0x80002d44
       59845000	      5983	00000000	00000013	addi	x0,x0,0	  x0:0x00000000
       59855000	      5984	80002d4c	00000013	addi	x0,x0,0	  x0:0x00000000
       59865000	      5985	80002d50	004000ef	jal	x1,80002d50	  x1=0x80002d50
       59875000	      5986	00000000	00000013	addi	x0,x0,0	  x0:0x00000000
       59885000	      5987	80002d50	00000013	addi	x0,x0,0	  x0:0x00000000
       59895000	      5988	80002d54	41185b93	srai	x23,x16,0x11	 x16:0x00000000 x23=0x00000000
       59905000	      5989	80002d58	030000ef	jal	x1,80002d58	  x1=0x80002d58
       59915000	      5990	00000000	00000013	addi	x0,x0,0	  x0:0x00000000
       59925000	      5991	80002d84	00000013	addi	x0,x0,0	  x0:0x00000000
       59935000	      5992	80002d88	fe9ff0ef	jal	x1,80002d88	  x1=0x80002d88
       59945000	      5993	00000000	00000013	addi	x0,x0,0	  x0:0x00000000
       59955000	      5994	80002d6c	00000013	addi	x0,x0,0	  x0:0x00000000
       59965000	      5995	80002d70	ff1ff0ef	jal	x1,80002d70	  x1=0x80002d70
       59975000	      5996	00000000	00000013	addi	x0,x0,0	  x0:0x00000000
       59985000	      5997	80002d5c	00000013	addi	x0,x0,0	  x0:0x00000000
       59995000	      5998	80002d60	004000ef	jal	x1,80002d60	  x1=0x80002d60
       60005000	      5999	00000000	00000013	addi	x0,x0,0	  x0:0x00000000
       60015000	      6000	80002d60	00000013	addi	x0,x0,0	  x0:0x00000000
       60025000	      6001	80002d64	02c000ef	jal	x1,80002d64	  x1=0x80002d64
       60035000	      6002	00000000	00000013	addi	x0,x0,0	  x0:0x00000000
       60045000	      6003	80002d8c	00000013	addi	x0,x0,0	  x0:0x00000000
       60055000	      6004	80002d90	004000ef	jal	x1,80002d90	  x1=0x80002d90
       60065000	      6005	00000000	00000013	addi	x0,x0,0	  x0:0x00000000
       60075000	      6006	80002d90	00000013	addi	x0,x0,0	  x0:0x00000000
       60085000	      6007	80002d94	fedff0ef	jal	x1,80002d94	  x1=0x80002d94
       60095000	      6008	00000000	00000013	addi	x0,x0,0	  x0:0x00000000
       60105000	      6009	80002d7c	00000013	addi	x0,x0,0	  x0:0x00000000
       60115000	      6010	80002d80	ff9ff36f	jal	x6,80002d80	  x6=0x80002d80
       60125000	      6011	00000000	00000013	addi	x0,x0,0	  x0:0x00000000
       60135000	      6012	80002d74	00000013	addi	x0,x0,0	  x0:0x00000000
       60145000	      6013	80002d78	ff1ffa6f	jal	x20,80002d78	 x20=0x80002d78
       60155000	      6014	00000000	00000013	addi	x0,x0,0	  x0:0x00000000
       60165000	      6015	80002d64	00000013	addi	x0,x0,0	  x0:0x00000000
       60175000	      6016	80002d68	ff5ff3ef	jal	x7,80002d68	  x7=0x80002d68
       60185000	      6017	00000000	00000013	addi	x0,x0,0	  x0:0x00000000
       60195000	      6018	80002d58	00000013	addi	x0,x0,0	  x0:0x00000000
       60205000	      6019	80002d5c	028000ef	jal	x1,80002d5c	  x1=0x80002d5c
       60215000	      6020	00000000	00000013	addi	x0,x0,0	  x0:0x00000000
       60225000	      6021	80002d80	00000013	addi	x0,x0,0	  x0:0x00000000
       60235000	      6022	80002d84	ff9ff0ef	jal	x1,80002d84	  x1=0x80002d84
       60245000	      6023	00000000	00000013	addi	x0,x0,0	  x0:0x00000000
       60255000	      6024	80002d78	00000013	addi	x0,x0,0	  x0:0x00000000
       60265000	      6025	80002d7c	ff9ff36f	jal	x6,80002d7c	  x6=0x80002d7c
       60275000	      6026	00000000	00000013	addi	x0,x0,0	  x0:0x00000000
       60285000	      6027	80002d70	00000013	addi	x0,x0,0	  x0:0x00000000
       60295000	      6028	80002d74	ff9ff36f	jal	x6,80002d74	  x6=0x80002d74
       60305000	      6029	00000000	00000013	addi	x0,x0,0	  x0:0x00000000
       60315000	      6030	80002d68	00000013	addi	x0,x0,0	  x0:0x00000000
       60325000	      6031	80002d6c	02c000ef	jal	x1,80002d6c	  x1=0x80002d6c
       60335000	      6032	00000000	00000013	addi	x0,x0,0	  x0:0x00000000
       60345000	      6033	80002d94	00000013	addi	x0,x0,0	  x0:0x00000000
       60355000	      6034	80002d98	ff5ff0ef	jal	x1,80002d98	  x1=0x80002d98
       60365000	      6035	00000000	00000013	addi	x0,x0,0	  x0:0x00000000
       60375000	      6036	80002d88	00000013	addi	x0,x0,0	  x0:0x00000000
       60385000	      6037	80002d8c	010000ef	jal	x1,80002d8c	  x1=0x80002d8c
       60395000	      6038	00000000	00000013	addi	x0,x0,0	  x0:0x00000000
       60405000	      6039	80002d98	00000013	addi	x0,x0,0	  x0:0x00000000
       60415000	      6040	80002d9c	0139fb33	and	x22,x19,x19	 x19:0x80002d08 x19:0x80002d08 x22=0x80002d08
       60425000	      6041	80002da0	03c000ef	jal	x1,80002da0	  x1=0x80002da0
       60435000	      6042	00000000	00000013	addi	x0,x0,0	  x0:0x00000000
       60445000	      6043	80002dd8	00000013	addi	x0,x0,0	  x0:0x00000000
       60455000	      6044	80002ddc	ffdff0ef	jal	x1,80002ddc	  x1=0x80002ddc
       60465000	      6045	00000000	00000013	addi	x0,x0,0	  x0:0x00000000
       60475000	      6046	80002dd4	00000013	addi	x0,x0,0	  x0:0x00000000
       60485000	      6047	80002dd8	00c000ef	jal	x1,80002dd8	  x1=0x80002dd8
       60495000	      6048	00000000	00000013	addi	x0,x0,0	  x0:0x00000000
       60505000	      6049	80002de0	00000013	addi	x0,x0,0	  x0:0x00000000
       60515000	      6050	80002de4	fe1ff0ef	jal	x1,80002de4	  x1=0x80002de4
       60525000	      6051	00000000	00000013	addi	x0,x0,0	  x0:0x00000000
       60535000	      6052	80002dc0	00000013	addi	x0,x0,0	  x0:0x00000000
       60545000	      6053	80002dc4	ff9ff36f	jal	x6,80002dc4	  x6=0x80002dc4
       60555000	      6054	00000000	00000013	addi	x0,x0,0	  x0:0x00000000
       60565000	      6055	80002db8	00000013	addi	x0,x0,0	  x0:0x00000000
       60575000	      6056	80002dbc	fedff0ef	jal	x1,80002dbc	  x1=0x80002dbc
       60585000	      6057	00000000	00000013	addi	x0,x0,0	  x0:0x00000000
       60595000	      6058	80002da4	00000013	addi	x0,x0,0	  x0:0x00000000
       60605000	      6059	80002da8	0180016f	jal	x2,80002da8	  x2=0x80002da8
       60615000	      6060	00000000	00000013	addi	x0,x0,0	  x0:0x00000000
       60625000	      6061	80002dbc	00000013	addi	x0,x0,0	  x0:0x00000000
       60635000	      6062	80002dc0	ff9ff76f	jal	x14,80002dc0	 x14=0x80002dc0
       60645000	      6063	00000000	00000013	addi	x0,x0,0	  x0:0x00000000
       60655000	      6064	80002db4	00000013	addi	x0,x0,0	  x0:0x00000000
       60665000	      6065	80002db8	034000ef	jal	x1,80002db8	  x1=0x80002db8
       60675000	      6066	00000000	00000013	addi	x0,x0,0	  x0:0x00000000
       60685000	      6067	80002de8	00000013	addi	x0,x0,0	  x0:0x00000000
       60695000	      6068	80002dec	fe5ff26f	jal	x4,80002dec	  x4=0x80002dec
       60705000	      6069	00000000	00000013	addi	x0,x0,0	  x0:0x00000000
       60715000	      6070	80002dcc	00000013	addi	x0,x0,0	  x0:0x00000000
       60725000	      6071	80002dd0	fe1ff0ef	jal	x1,80002dd0	  x1=0x80002dd0
       60735000	      6072	00000000	00000013	addi	x0,x0,0	  x0:0x00000000
       60745000	      6073	80002dac	00000013	addi	x0,x0,0	  x0:0x00000000
       60755000	      6074	80002db0	ffdff0ef	jal	x1,80002db0	  x1=0x80002db0
       60765000	      6075	00000000	00000013	addi	x0,x0,0	  x0:0x00000000
       60775000	      6076	80002da8	00000013	addi	x0,x0,0	  x0:0x00000000
       60785000	      6077	80002dac	ff9ff36f	jal	x6,80002dac	  x6=0x80002dac
       60795000	      6078	00000000	00000013	addi	x0,x0,0	  x0:0x00000000
       60805000	      6079	80002da0	00000013	addi	x0,x0,0	  x0:0x00000000
       60815000	      6080	80002da4	01000e6f	jal	x28,80002da4	 x28=0x80002da4
       60825000	      6081	00000000	00000013	addi	x0,x0,0	  x0:0x00000000
       60835000	      6082	80002db0	00000013	addi	x0,x0,0	  x0:0x00000000
       60845000	      6083	80002db4	014000ef	jal	x1,80002db4	  x1=0x80002db4
       60855000	      6084	00000000	00000013	addi	x0,x0,0	  x0:0x00000000
       60865000	      6085	80002dc4	00000013	addi	x0,x0,0	  x0:0x00000000
       60875000	      6086	80002dc8	004001ef	jal	x3,80002dc8	  x3=0x80002dc8
       60885000	      6087	00000000	00000013	addi	x0,x0,0	  x0:0x00000000
       60895000	      6088	80002dc8	00000013	addi	x0,x0,0	  x0:0x00000000
       60905000	      6089	80002dcc	014000ef	jal	x1,80002dcc	  x1=0x80002dcc
       60915000	      6090	00000000	00000013	addi	x0,x0,0	  x0:0x00000000
       60925000	      6091	80002ddc	00000013	addi	x0,x0,0	  x0:0x00000000
       60935000	      6092	80002de0	008000ef	jal	x1,80002de0	  x1=0x80002de0
       60945000	      6093	00000000	00000013	addi	x0,x0,0	  x0:0x00000000
       60955000	      6094	80002de4	00000013	addi	x0,x0,0	  x0:0x00000000
       60965000	      6095	80002de8	fedff36f	jal	x6,80002de8	  x6=0x80002de8
       60975000	      6096	00000000	00000013	addi	x0,x0,0	  x0:0x00000000
       60985000	      6097	80002dd0	00000013	addi	x0,x0,0	  x0:0x00000000
       60995000	      6098	80002dd4	01c0036f	jal	x6,80002dd4	  x6=0x80002dd4
       61005000	      6099	00000000	00000013	addi	x0,x0,0	  x0:0x00000000
       61015000	      6100	80002dec	00000013	addi	x0,x0,0	  x0:0x00000000
       61025000	      6101	80002df0	00269e93	slli	x29,x13,0x2	 x13:0x800029ec x29=0x0000a7b0
       61035000	      6102	80002df4	01a41b93	slli	x23,x8,0x1a	  x8:0x80002904 x23=0x10000000
       61045000	      6103	80002df8	71b4b093	sltiu	x1,x9,1819	  x9:0xfffff97f  x1=0x00000000
       61055000	      6104	80002dfc	41f95f13	srai	x30,x18,0x1f	 x18:0x80009fc4 x30=0xffffffff
       61065000	      6105	80002e00	00eab033	sltu	x0,x21,x14	 x21:0x80002b24 x14:0x80002dc0
       61075000	      6106	80002e04	00ea53b3	srl	x7,x20,x14	 x20:0x80002d78 x14:0x80002dc0  x7=0x80002d78
       61085000	      6107	80002e08	0496d463	bge	x13,x9,80002e50	 x13:0x800029ec  x9:0xfffff97f
       61095000	      6108	80002e0c	030be463	bltu	x23,x16,80002e34	 x23:0x10000000 x16:0x00000000
       61105000	      6109	80002e10	019fe2b3	or	x5,x31,x25	 x31:0x80009ef4 x25:0x80002910  x5=0x8000bff4
       61115000	      6110	80002e14	00a45813	srli	x16,x8,0xa	  x8:0x80002904 x16=0x0020000a
       61125000	      6111	80002e18	0039da63	bge	x19,x3,80002e2c	 x19:0x80002d08  x3:0x80002dc8
       61135000	      6112	80002e1c	018fb033	sltu	x0,x31,x24	 x31:0x80009ef4 x24:0x80002ca4
       61145000	      6113	80002e20	005f6c33	or	x24,x30,x5	 x30:0xffffffff  x5:0x8000bff4 x24=0xffffffff
       61155000	      6114	80002e24	01d15463	bge	x2,x29,80002e2c	  x2:0x80002da8 x29:0x0000a7b0
       61165000	      6115	80002e28	907b0393	addi	x7,x22,-1785	 x22:0x80002d08  x7=0x8000260f
       61175000	      6116	80002e2c	024b0463	beq	x22,x4,80002e54	 x22:0x80002d08  x4:0x80002dec
       61185000	      6117	80002e30	dd880197	auipc	x3,0xdd880	  x3=0x5d882e2c
       61195000	      6118	80002e34	0195fc33	and	x24,x11,x25	 x11:0x80002c5c x25:0x80002910 x24=0x80002810
       61205000	      6119	80002e38	01233133	sltu	x2,x6,x18	  x6:0x80002dd4 x18:0x80009fc4  x2=0x00000001
       61215000	      6120	80002e3c	05bbe463	bltu	x23,x27,80002e84	 x23:0x10000000 x27:0x00000000
       61225000	      6121	80002e40	04857263	bgeu	x10,x8,80002e84	 x10:0x80002aa4  x8:0x80002904
       61235000	      6122	00000000	00000013	addi	x0,x0,0	  x0:0x00000000
       61245000	      6123	80002e80	00000013	addi	x0,x0,0	  x0:0x00000000
       61255000	      6124	80002e84	000730b3	sltu	x1,x14,x0	 x14:0x80002dc0  x0:0x00000000  x1=0x00000000
       61265000	      6125	80002e88	0189abb3	slt	x23,x19,x24	 x19:0x80002d08 x24:0x80002810 x23=0x00000000
       61275000	      6126	80002e8c	410f0ab3	sub	x21,x30,x16	 x30:0xffffffff x16:0x0020000a x21=0xffdffff5
       61285000	      6127	80002e90	014658b3	srl	x17,x12,x20	 x12:0x80002d44 x20:0x80002d78 x17=0x00000080
       61295000	      6128	80002e94	019b9e93	slli	x29,x23,0x19	 x23:0x00000000 x29=0x00000000
       61305000	      6129	80002e98	c5904b93	xori	x23,x0,-935	  x0:0x00000000 x23=0xfffffc59
       61315000	      6130	80002e9c	00e3ef33	or	x30,x7,x14	  x7:0x8000260f x14:0x80002dc0 x30=0x80002fcf
       61325000	      6131	80002ea0	01230663	beq	x6,x18,80002eac	  x6:0x80002dd4 x18:0x80009fc4
       61335000	      6132	80002ea4	01e6d393	srli	x7,x13,0x1e	 x13:0x800029ec  x7=0x00000002
       61345000	      6133	80002ea8	00bc1ab3	sll	x21,x24,x11	 x24:0x80002810 x11:0x80002c5c x21=0x00000000
       61355000	      6134	80002eac	0833f513	andi	x10,x7,131	  x7:0x00000002 x10=0x00000002
       61365000	      6135	80002eb0	00b0db93	srli	x23,x1,0xb	  x1:0x00000000 x23=0x00000000
       61375000	      6136	80002eb4	002e83b3	add	x7,x29,x2	 x29:0x00000000  x2:0x00000001  x7=0x00000001
       61385000	      6137	80002eb8	0098b633	sltu	x12,x17,x9	 x17:0x00000080  x9:0xfffff97f x12=0x00000001
       61395000	      6138	80002ebc	e613eb93	ori	x23,x7,-415	  x7:0x00000001 x23=0xfffffe61
       61405000	      6139	80002ec0	00ce14b3	sll	x9,x28,x12	 x28:0x80002da4 x12:0x00000001  x9=0x00005b48
       61415000	      6140	80002ec4	003a5433	srl	x8,x20,x3	 x20:0x80002d78  x3:0x5d882e2c  x8=0x00080002
       61425000	      6141	80002ec8	01e2a513	slti	x10,x5,30	  x5:0x8000bff4 x10=0x00000001
       61435000	      6142	80002ecc	41b9df33	sra	x30,x19,x27	 x19:0x80002d08 x27:0x00000000 x30=0x80002d08
       61445000	      6143	80002ed0	413b0a33	sub	x20,x22,x19	 x22:0x80002d08 x19:0x80002d08 x20=0x00000000
       61455000	      6144	80002ed4	6c380593	addi	x11,x16,1731	 x16:0x0020000a x11=0x002006cd
       61465000	      6145	80002ed8	85350813	addi	x16,x10,-1965	 x10:0x00000001 x16=0xfffff854
       61475000	      6146	80002edc	03214463	blt	x2,x18,80002f04	  x2:0x00000001 x18:0x80009fc4
       61485000	      6147	80002ee0	007f2e33	slt	x28,x30,x7	 x30:0x80002d08  x7:0x00000001 x28=0x00000001
       61495000	      6148	80002ee4	a934f537	lui	x10,0xa934f	 x10=0xa934f000
       61505000	      6149	80002ee8	019943b3	xor	x7,x18,x25	 x18:0x80009fc4 x25:0x80002910  x7=0x0000b6d4
       61515000	      6150	80002eec	015231b3	sltu	x3,x4,x21	  x4:0x80002dec x21:0x00000000  x3=0x00000000
       61525000	      6151	80002ef0	00d90463	beq	x18,x13,80002ef8	 x18:0x80009fc4 x13:0x800029ec
       61535000	      6152	80002ef4	007510b3	sll	x1,x10,x7	 x10:0xa934f000  x7:0x0000b6d4  x1=0x00000000
       61545000	      6153	80002ef8	3e5960b7	lui	x1,0x3e596	  x1=0x3e596000
       61555000	      6154	80002efc	017594b3	sll	x9,x11,x23	 x11:0x002006cd x23:0xfffffe61  x9=0x00400d9a
       61565000	      6155	80002f00	073fbbb7	lui	x23,0x73fb	 x23=0x073fb000
       61575000	      6156	80002f04	01f95863	bge	x18,x31,80002f14	 x18:0x80009fc4 x31:0x80009ef4
       61585000	      6157	00000000	00000013	addi	x0,x0,0	  x0:0x00000000
       61595000	      6158	80002f10	00000013	addi	x0,x0,0	  x0:0x00000000
       61605000	      6159	80002f14	00000013	addi	x0,x0,0	  x0:0x00000000
       61615000	      6160	80002f18	01077f33	and	x30,x14,x16	 x14:0x80002dc0 x16:0xfffff854 x30=0x80002840
       61625000	      6161	80002f1c	0073fc63	bgeu	x7,x7,80002f34	  x7:0x0000b6d4  x7:0x0000b6d4
       61635000	      6162	00000000	00000013	addi	x0,x0,0	  x0:0x00000000
       61645000	      6163	80002f30	00000013	addi	x0,x0,0	  x0:0x00000000
       61655000	      6164	80002f34	00028663	beq	x5,x0,80002f40	  x5:0x8000bff4  x0:0x00000000
       61665000	      6165	80002f38	013ff263	bgeu	x31,x19,80002f3c	 x31:0x80009ef4 x19:0x80002d08
       61675000	      6166	00000000	00000013	addi	x0,x0,0	  x0:0x00000000
       61685000	      6167	80002f38	00000013	addi	x0,x0,0	  x0:0x00000000
       61695000	      6168	80002f3c	00a0d693	srli	x13,x1,0xa	  x1:0x3e596000 x13=0x000f9658
       61705000	      6169	80002f40	4029da93	srai	x21,x19,0x2	 x19:0x80002d08 x21=0xe0000b42
       61715000	      6170	80002f44	00701c63	bne	x0,x7,80002f5c	  x0:0x00000000  x7:0x0000b6d4
       61725000	      6171	00000000	00000013	addi	x0,x0,0	  x0:0x00000000
       61735000	      6172	80002f58	00000013	addi	x0,x0,0	  x0:0x00000000
       61745000	      6173	80002f5c	4ff92e93	slti	x29,x18,1279	 x18:0x80009fc4 x29=0x00000001
       61755000	      6174	80002f60	0025da63	bge	x11,x2,80002f74	 x11:0x002006cd  x2:0x00000001
       61765000	      6175	00000000	00000013	addi	x0,x0,0	  x0:0x00000000
       61775000	      6176	80002f70	00000013	addi	x0,x0,0	  x0:0x00000000
       61785000	      6177	80002f74	00b71463	bne	x14,x11,80002f7c	 x14:0x80002dc0 x11:0x002006cd
       61795000	      6178	00000000	00000013	addi	x0,x0,0	  x0:0x00000000
       61805000	      6179	80002f78	00000013	addi	x0,x0,0	  x0:0x00000000
       61815000	      6180	80002f7c	01506863	bltu	x0,x21,80002f8c	  x0:0x00000000 x21:0xe0000b42
       61825000	      6181	00000000	00000013	addi	x0,x0,0	  x0:0x00000000
       61835000	      6182	80002f88	00000013	addi	x0,x0,0	  x0:0x00000000
       61845000	      6183	80002f8c	d767fb17	auipc	x22,0xd767f	 x22=0x57681f88
       61855000	      6184	80002f90	4079d8b3	sra	x17,x19,x7	 x19:0x80002d08  x7:0x0000b6d4 x17=0xfffff800
       61865000	      6185	80002f94	01cc08b3	add	x17,x24,x28	 x24:0x80002810 x28:0x00000001 x17=0x80002811
       61875000	      6186	80002f98	02124e63	blt	x4,x1,80002fd4	  x4:0x80002dec  x1:0x3e596000
       61885000	      6187	00000000	00000013	addi	x0,x0,0	  x0:0x00000000
       61895000	      6188	80002fd0	00000013	addi	x0,x0,0	  x0:0x00000000
       61905000	      6189	80002fd4	00a8eeb3	or	x29,x17,x10	 x17:0x80002811 x10:0xa934f000 x29=0xa934f811
       61915000	      6190	80002fd8	007f41b3	xor	x3,x30,x7	 x30:0x80002840  x7:0x0000b6d4  x3=0x80009e94
       61925000	      6191	80002fdc	41cc5693	srai	x13,x24,0x1c	 x24:0x80002810 x13=0xfffffff8
       61935000	      6192	80002fe0	67f7aa93	slti	x21,x15,1663	 x15:0x80002a9c x21=0x00000001
       61945000	      6193	80002fe4	80cc2313	slti	x6,x24,-2036	 x24:0x80002810  x6=0x00000001
       61955000	      6194	80002fe8	0006c033	xor	x0,x13,x0	 x13:0xfffffff8  x0:0x00000000
       61965000	      6195	80002fec	00f71593	slli	x11,x14,0xf	 x14:0x80002dc0 x11=0x16e00000
       61975000	      6196	80002ff0	414cd7b3	sra	x15,x25,x20	 x25:0x80002910 x20:0x00000000 x15=0x80002910
       61985000	      6197	80002ff4	0192f133	and	x2,x5,x25	  x5:0x8000bff4 x25:0x80002910  x2=0x80002910
       61995000	      6198	80002ff8	00ca0663	beq	x20,x12,80003004	 x20:0x00000000 x12:0x00000001
       62005000	      6199	80002ffc	00b71e63	bne	x14,x11,80003018	 x14:0x80002dc0 x11:0x16e00000
       62015000	      6200	00000000	00000013	addi	x0,x0,0	  x0:0x00000000
       62025000	      6201	80003014	00000013	addi	x0,x0,0	  x0:0x00000000
       62035000	      6202	80003018	4188d193	srai	x3,x17,0x18	 x17:0x80002811  x3=0xffffff80
       62045000	      6203	8000301c	c070ea93	ori	x21,x1,-1017	  x1:0x3e596000 x21=0xfffffc07
       62055000	      6204	80003020	01933333	sltu	x6,x6,x25	  x6:0x00000001 x25:0x80002910  x6=0x00000001
       62065000	      6205	80003024	f49ddb17	auipc	x22,0xf49dd	 x22=0x749e0020
       62075000	      6206	80003028	01228c63	beq	x5,x18,80003040	  x5:0x8000bff4 x18:0x80009fc4
       62085000	      6207	8000302c	00261263	bne	x12,x2,80003030	 x12:0x00000001  x2:0x80002910
       62095000	      6208	00000000	00000013	addi	x0,x0,0	  x0:0x00000000
       62105000	      6209	8000302c	00000013	addi	x0,x0,0	  x0:0x00000000
       62115000	      6210	80003030	02e68463	beq	x13,x14,80003058	 x13:0xfffffff8 x14:0x80002dc0
       62125000	      6211	80003034	6f67e713	ori	x14,x15,1782	 x15:0x80002910 x14=0x80002ff6
       62135000	      6212	80003038	03c53e93	sltiu	x29,x10,60	 x10:0xa934f000 x29=0x00000000
       62145000	      6213	8000303c	40465533	sra	x10,x12,x4	 x12:0x00000001  x4:0x80002dec x10=0x00000000
       62155000	      6214	80003040	003febb3	or	x23,x31,x3	 x31:0x80009ef4  x3:0xffffff80 x23=0xfffffff4
       62165000	      6215	80003044	02799e63	bne	x19,x7,80003080	 x19:0x80002d08  x7:0x0000b6d4
       62175000	      6216	00000000	00000013	addi	x0,x0,0	  x0:0x00000000
       62185000	      6217	8000307c	00000013	addi	x0,x0,0	  x0:0x00000000
       62195000	      6218	80003080	00571233	sll	x4,x14,x5	 x14:0x80002ff6  x5:0x8000bff4  x4=0xff600000
       62205000	      6219	80003084	2dd0eb93	ori	x23,x1,733	  x1:0x3e596000 x23=0x3e5962dd
       62215000	      6220	80003088	014692b3	sll	x5,x13,x20	 x13:0xfffffff8 x20:0x00000000  x5=0xfffffff8
       62225000	      6221	8000308c	e8c73893	sltiu	x17,x14,-372	 x14:0x80002ff6 x17=0x00000001
       62235000	      6222	80003090	0013ec33	or	x24,x7,x1	  x7:0x0000b6d4  x1:0x3e596000 x24=0x3e59f6d4
       62245000	      6223	80003094	5cdbb013	sltiu	x0,x23,1485	 x23:0x3e5962dd
       62255000	      6224	80003098	04fa8263	beq	x21,x15,800030dc	 x21:0xfffffc07 x15:0x80002910
       62265000	      6225	8000309c	eff60e93	addi	x29,x12,-257	 x12:0x00000001 x29=0xffffff00
       62275000	      6226	800030a0	03506b93	ori	x23,x0,53	  x0:0x00000000 x23=0x00000035
       62285000	      6227	800030a4	408b0533	sub	x10,x22,x8	 x22:0x749e0020  x8:0x00080002 x10=0x7496001e
       62295000	      6228	800030a8	00485293	srli	x5,x16,0x4	 x16:0xfffff854  x5=0x0fffff85
       62305000	      6229	800030ac	08030a63	beq	x6,x0,80003140	  x6:0x00000001  x0:0x00000000
       62315000	      6230	800030b0	01212833	slt	x16,x2,x18	  x2:0x80002910 x18:0x80009fc4 x16=0x00000001
       62325000	      6231	800030b4	00175263	bge	x14,x1,800030b8	 x14:0x80002ff6  x1:0x3e596000
       62335000	      6232	800030b8	015a8b33	add	x22,x21,x21	 x21:0xfffffc07 x21:0xfffffc07 x22=0xfffff80e
       62345000	      6233	800030bc	02ca9463	bne	x21,x12,800030e4	 x21:0xfffffc07 x12:0x00000001
       62355000	      6234	00000000	00000013	addi	x0,x0,0	  x0:0x00000000
       62365000	      6235	800030e0	00000013	addi	x0,x0,0	  x0:0x00000000
       62375000	      6236	800030e4	004a31b3	sltu	x3,x20,x4	 x20:0x00000000  x4:0xff600000  x3=0x00000001
       62385000	      6237	800030e8	019d5293	srli	x5,x26,0x19	 x26:0x80002c2c  x5=0x00000040
       62395000	      6238	800030ec	04bbde63	bge	x23,x11,80003148	 x23:0x00000035 x11:0x16e00000
       62405000	      6239	800030f0	00244b33	xor	x22,x8,x2	  x8:0x00080002  x2:0x80002910 x22=0x80082912
       62415000	      6240	800030f4	018000ef	jal	x1,800030f4	  x1=0x800030f4
       62425000	      6241	00000000	00000013	addi	x0,x0,0	  x0:0x00000000
       62435000	      6242	80003108	00000013	addi	x0,x0,0	  x0:0x00000000
       62445000	      6243	8000310c	014000ef	jal	x1,8000310c	  x1=0x8000310c
       62455000	      6244	00000000	00000013	addi	x0,x0,0	  x0:0x00000000
       62465000	      6245	8000311c	00000013	addi	x0,x0,0	  x0:0x00000000
       62475000	      6246	80003120	014002ef	jal	x5,80003120	  x5=0x80003120
       62485000	      6247	00000000	00000013	addi	x0,x0,0	  x0:0x00000000
       62495000	      6248	80003130	00000013	addi	x0,x0,0	  x0:0x00000000
       62505000	      6249	80003134	fe9ff0ef	jal	x1,80003134	  x1=0x80003134
       62515000	      6250	00000000	00000013	addi	x0,x0,0	  x0:0x00000000
       62525000	      6251	80003118	00000013	addi	x0,x0,0	  x0:0x00000000
       62535000	      6252	8000311c	0080036f	jal	x6,8000311c	  x6=0x8000311c
       62545000	      6253	00000000	00000013	addi	x0,x0,0	  x0:0x00000000
       62555000	      6254	80003120	00000013	addi	x0,x0,0	  x0:0x00000000
       62565000	      6255	80003124	ff5ff36f	jal	x6,80003124	  x6=0x80003124
       62575000	      6256	00000000	00000013	addi	x0,x0,0	  x0:0x00000000
       62585000	      6257	80003114	00000013	addi	x0,x0,0	  x0:0x00000000
       62595000	      6258	80003118	ff9ff0ef	jal	x1,80003118	  x1=0x80003118
       62605000	      6259	00000000	00000013	addi	x0,x0,0	  x0:0x00000000
       62615000	      6260	8000310c	00000013	addi	x0,x0,0	  x0:0x00000000
       62625000	      6261	80003110	ff1ff36f	jal	x6,80003110	  x6=0x80003110
       62635000	      6262	00000000	00000013	addi	x0,x0,0	  x0:0x00000000
       62645000	      6263	800030fc	00000013	addi	x0,x0,0	  x0:0x00000000
       62655000	      6264	80003100	004000ef	jal	x1,80003100	  x1=0x80003100
       62665000	      6265	00000000	00000013	addi	x0,x0,0	  x0:0x00000000
       62675000	      6266	80003100	00000013	addi	x0,x0,0	  x0:0x00000000
       62685000	      6267	80003104	004000ef	jal	x1,80003104	  x1=0x80003104
       62695000	      6268	00000000	00000013	addi	x0,x0,0	  x0:0x00000000
       62705000	      6269	80003104	00000013	addi	x0,x0,0	  x0:0x00000000
       62715000	      6270	80003108	020000ef	jal	x1,80003108	  x1=0x80003108
       62725000	      6271	00000000	00000013	addi	x0,x0,0	  x0:0x00000000
       62735000	      6272	80003124	00000013	addi	x0,x0,0	  x0:0x00000000
       62745000	      6273	80003128	008000ef	jal	x1,80003128	  x1=0x80003128
       62755000	      6274	00000000	00000013	addi	x0,x0,0	  x0:0x00000000
       62765000	      6275	8000312c	00000013	addi	x0,x0,0	  x0:0x00000000
       62775000	      6276	80003130	008000ef	jal	x1,80003130	  x1=0x80003130
       62785000	      6277	00000000	00000013	addi	x0,x0,0	  x0:0x00000000
       62795000	      6278	80003134	00000013	addi	x0,x0,0	  x0:0x00000000
       62805000	      6279	80003138	fddff36f	jal	x6,80003138	  x6=0x80003138
       62815000	      6280	00000000	00000013	addi	x0,x0,0	  x0:0x00000000
       62825000	      6281	80003110	00000013	addi	x0,x0,0	  x0:0x00000000
       62835000	      6282	80003114	fe5ff1ef	jal	x3,80003114	  x3=0x80003114
       62845000	      6283	00000000	00000013	addi	x0,x0,0	  x0:0x00000000
       62855000	      6284	800030f4	00000013	addi	x0,x0,0	  x0:0x00000000
       62865000	      6285	800030f8	0040036f	jal	x6,800030f8	  x6=0x800030f8
       62875000	      6286	00000000	00000013	addi	x0,x0,0	  x0:0x00000000
       62885000	      6287	800030f8	00000013	addi	x0,x0,0	  x0:0x00000000
       62895000	      6288	800030fc	030001ef	jal	x3,800030fc	  x3=0x800030fc
       62905000	      6289	00000000	00000013	addi	x0,x0,0	  x0:0x00000000
       62915000	      6290	80003128	00000013	addi	x0,x0,0	  x0:0x00000000
       62925000	      6291	8000312c	010000ef	jal	x1,8000312c	  x1=0x8000312c
       62935000	      6292	00000000	00000013	addi	x0,x0,0	  x0:0x00000000
       62945000	      6293	80003138	00000013	addi	x0,x0,0	  x0:0x00000000
       62955000	      6294	8000313c	010ea9b3	slt	x19,x29,x16	 x29:0xffffff00 x16:0x00000001 x19=0x00000001
       62965000	      6295	80003140	40f189b3	sub	x19,x3,x15	  x3:0x800030fc x15:0x80002910 x19=0x000007ec
       62975000	      6296	80003144	00529193	slli	x3,x5,0x5	  x5:0x80003120  x3=0x00062400
       62985000	      6297	80003148	32cea993	slti	x19,x29,812	 x29:0xffffff00 x19=0x00000001
       62995000	      6298	8000314c	40cfde13	srai	x28,x31,0xc	 x31:0x80009ef4 x28=0xfff80009
       63005000	      6299	80003150	00645733	srl	x14,x8,x6	  x8:0x00080002  x6:0x800030f8 x14=0x00000000
       63015000	      6300	80003154	2be5b593	sltiu	x11,x11,702	 x11:0x16e00000 x11=0x00000000
       63025000	      6301	80003158	40485a93	srai	x21,x16,0x4	 x16:0x00000001 x21=0x00000000
       63035000	      6302	8000315c	009e7a63	bgeu	x28,x9,80003170	 x28:0xfff80009  x9:0x00400d9a
       63045000	      6303	00000000	00000013	addi	x0,x0,0	  x0:0x00000000
       63055000	      6304	8000316c	00000013	addi	x0,x0,0	  x0:0x00000000
       63065000	      6305	80003170	41db5613	srai	x12,x22,0x1d	 x22:0x80082912 x12=0xfffffffc
       63075000	      6306	80003174	0352fe63	bgeu	x5,x21,800031b0	  x5:0x80003120 x21:0x00000000
       63085000	      6307	00000000	00000013	addi	x0,x0,0	  x0:0x00000000
       63095000	      6308	800031ac	00000013	addi	x0,x0,0	  x0:0x00000000
       63105000	      6309	800031b0	1f730e37	lui	x28,0x1f730	 x28=0x1f730000
       63115000	      6310	800031b4	2273ba97	auipc	x21,0x2273b	 x21=0xa273e1b0
       63125000	      6311	800031b8	41d10833	sub	x16,x2,x29	  x2:0x80002910 x29:0xffffff00 x16=0x80002a10
       63135000	      6312	800031bc	3b686113	ori	x2,x16,950	 x16:0x80002a10  x2=0x80002bb6
       63145000	      6313	800031c0	3484c113	xori	x2,x9,840	  x9:0x00400d9a  x2=0x00400ed2
       63155000	      6314	800031c4	00000013	addi	x0,x0,0	  x0:0x00000000
       63165000	      6315	800031c8	496a9897	auipc	x17,0x496a9	 x17=0xc96ac1c4
       63175000	      6316	800031cc	00c46663	bltu	x8,x12,800031d8	  x8:0x00080002 x12:0xfffffffc
       63185000	      6317	00000000	00000013	addi	x0,x0,0	  x0:0x00000000
       63195000	      6318	800031d4	00000013	addi	x0,x0,0	  x0:0x00000000
       63205000	      6319	800031d8	9dc84337	lui	x6,0x9dc84	  x6=0x9dc84000
       63215000	      6320	800031dc	01424c63	blt	x4,x20,800031f4	  x4:0xff600000 x20:0x00000000
       63225000	      6321	00000000	00000013	addi	x0,x0,0	  x0:0x00000000
       63235000	      6322	800031f0	00000013	addi	x0,x0,0	  x0:0x00000000
       63245000	      6323	800031f4	01cba9b3	slt	x19,x23,x28	 x23:0x00000035 x28:0x1f730000 x19=0x00000001
       63255000	      6324	800031f8	941b7a93	andi	x21,x22,-1727	 x22:0x80082912 x21=0x80082900
       63265000	      6325	800031fc	037b9463	bne	x23,x23,80003224	 x23:0x00000035 x23:0x00000035
       63275000	      6326	80003200	2dd5ec13	ori	x24,x11,733	 x11:0x00000000 x24=0x000002dd
       63285000	      6327	80003204	e45a0513	addi	x10,x20,-443	 x20:0x00000000 x10=0xfffffe45
       63295000	      6328	80003208	00349c13	slli	x24,x9,0x3	  x9:0x00400d9a x24=0x02006cd0
       63305000	      6329	8000320c	00d3aa13	slti	x20,x7,13	  x7:0x0000b6d4 x20=0x00000000
       63315000	      6330	80003210	01853533	sltu	x10,x10,x24	 x10:0xfffffe45 x24:0x02006cd0 x10=0x00000000
       63325000	      6331	80003214	01d8e463	bltu	x17,x29,8000321c	 x17:0xc96ac1c4 x29:0xffffff00
       63335000	      6332	00000000	00000013	addi	x0,x0,0	  x0:0x00000000
       63345000	      6333	80003218	00000013	addi	x0,x0,0	  x0:0x00000000
       63355000	      6334	8000321c	dec20d13	addi	x26,x4,-532	  x4:0xff600000 x26=0xff5ffdec
       63365000	      6335	80003220	2d1c0113	addi	x2,x24,721	 x24:0x02006cd0  x2=0x02006fa1
       63375000	      6336	80003224	407f0033	sub	x0,x30,x7	 x30:0x80002840  x7:0x0000b6d4
       63385000	      6337	80003228	04a47063	bgeu	x8,x10,80003268	  x8:0x00080002 x10:0x00000000
       63395000	      6338	00000000	00000013	addi	x0,x0,0	  x0:0x00000000
       63405000	      6339	80003264	00000013	addi	x0,x0,0	  x0:0x00000000
       63415000	      6340	80003268	eaf28993	addi	x19,x5,-337	  x5:0x80003120 x19=0x80002fcf
       63425000	      6341	8000326c	00000013	addi	x0,x0,0	  x0:0x00000000
       63435000	      6342	80003270	01220333	add	x6,x4,x18	  x4:0xff600000 x18:0x80009fc4  x6=0x7f609fc4
       63445000	      6343	80003274	05144463	blt	x8,x17,800032bc	  x8:0x00080002 x17:0xc96ac1c4
       63455000	      6344	80003278	0016ec63	bltu	x13,x1,80003290	 x13:0xfffffff8  x1:0x8000312c
       63465000	      6345	8000327c	00899713	slli	x14,x19,0x8	 x19:0x80002fcf x14=0x002fcf00
       63475000	      6346	80003280	26eee213	ori	x4,x29,622	 x29:0xffffff00  x4=0xffffff6e
       63485000	      6347	80003284	4122d533	sra	x10,x5,x18	  x5:0x80003120 x18:0x80009fc4 x10=0xf8000312
       63495000	      6348	80003288	007a0c63	beq	x20,x7,800032a0	 x20:0x00000000  x7:0x0000b6d4
       63505000	      6349	8000328c	017efc63	bgeu	x29,x23,800032a4	 x29:0xffffff00 x23:0x00000035
       63515000	      6350	00000000	00000013	addi	x0,x0,0	  x0:0x00000000
       63525000	      6351	800032a0	00000013	addi	x0,x0,0	  x0:0x00000000
       63535000	      6352	800032a4	01085533	srl	x10,x16,x16	 x16:0x80002a10 x16:0x80002a10 x10=0x00008000
       63545000	      6353	800032a8	af688493	addi	x9,x17,-1290	 x17:0xc96ac1c4  x9=0xc96abcba
       63555000	      6354	800032ac	c8592e93	slti	x29,x18,-891	 x18:0x80009fc4 x29=0x00000001
       63565000	      6355	800032b0	4004d393	srai	x7,x9,0x0	  x9:0xc96abcba  x7=0xc96abcba
       63575000	      6356	800032b4	012c32b3	sltu	x5,x24,x18	 x24:0x02006cd0 x18:0x80009fc4  x5=0x00000001
       63585000	      6357	800032b8	0018c7b3	xor	x15,x17,x1	 x17:0xc96ac1c4  x1:0x8000312c x15=0x496af0e8
       63595000	      6358	800032bc	00dd2433	slt	x8,x26,x13	 x26:0xff5ffdec x13:0xfffffff8  x8=0x00000001
       63605000	      6359	800032c0	66aae193	ori	x3,x21,1642	 x21:0x80082900  x3=0x80082f6a
       63615000	      6360	800032c4	0027c0b3	xor	x1,x15,x2	 x15:0x496af0e8  x2:0x02006fa1  x1=0x4b6a9f49
       63625000	      6361	800032c8	28c94b17	auipc	x22,0x28c94	 x22=0xa8c972c4
       63635000	      6362	800032cc	018e1863	bne	x28,x24,800032dc	 x28:0x1f730000 x24:0x02006cd0
       63645000	      6363	00000000	00000013	addi	x0,x0,0	  x0:0x00000000
       63655000	      6364	800032d8	00000013	addi	x0,x0,0	  x0:0x00000000
       63665000	      6365	800032dc	6672cd13	xori	x26,x5,1639	  x5:0x00000001 x26=0x00000666
       63675000	      6366	800032e0	419102b3	sub	x5,x2,x25	  x2:0x02006fa1 x25:0x80002910  x5=0x82004691
       63685000	      6367	800032e4	00000013	addi	x0,x0,0	  x0:0x00000000
       63695000	      6368	800032e8	e0ddb313	sltiu	x6,x27,-499	 x27:0x00000000  x6=0x00000001
       63705000	      6369	800032ec	41575393	srai	x7,x14,0x15	 x14:0x002fcf00  x7=0x00000001
       63715000	      6370	800032f0	01d682b3	add	x5,x13,x29	 x13:0xfffffff8 x29:0x00000001  x5=0xfffffff9
       63725000	      6371	800032f4	0437c263	blt	x15,x3,80003338	 x15:0x496af0e8  x3:0x80082f6a
       63735000	      6372	800032f8	008d9133	sll	x2,x27,x8	 x27:0x00000000  x8:0x00000001  x2=0x00000000
       63745000	      6373	800032fc	02588863	beq	x17,x5,8000332c	 x17:0xc96ac1c4  x5:0xfffffff9
       63755000	      6374	80003300	0174c463	blt	x9,x23,80003308	  x9:0xc96abcba x23:0x00000035
       63765000	      6375	00000000	00000013	addi	x0,x0,0	  x0:0x00000000
       63775000	      6376	80003304	00000013	addi	x0,x0,0	  x0:0x00000000
       63785000	      6377	80003308	0023e463	bltu	x7,x2,80003310	  x7:0x00000001  x2:0x00000000
       63795000	      6378	8000330c	0323d463	bge	x7,x18,80003334	  x7:0x00000001 x18:0x80009fc4
       63805000	      6379	00000000	00000013	addi	x0,x0,0	  x0:0x00000000
       63815000	      6380	80003330	00000013	addi	x0,x0,0	  x0:0x00000000
       63825000	      6381	80003334	006a4eb3	xor	x29,x20,x6	 x20:0x00000000  x6:0x00000001 x29=0x00000001
       63835000	      6382	80003338	09964c63	blt	x12,x25,800033d0	 x12:0xfffffffc x25:0x80002910
       63845000	      6383	8000333c	01ca1b13	slli	x22,x20,0x1c	 x20:0x00000000 x22=0x00000000
       63855000	      6384	80003340	0bb5d663	bge	x11,x27,800033ec	 x11:0x00000000 x27:0x00000000
       63865000	      6385	00000000	00000013	addi	x0,x0,0	  x0:0x00000000
       63875000	      6386	800033e8	00000013	addi	x0,x0,0	  x0:0x00000000
       63885000	      6387	800033ec	01cea633	slt	x12,x29,x28	 x29:0x00000001 x28:0x1f730000 x12=0x00000001
       63895000	      6388	800033f0	ba0d2b13	slti	x22,x26,-1120	 x26:0x00000666 x22=0x00000000
       63905000	      6389	800033f4	00518eb3	add	x29,x3,x5	  x3:0x80082f6a  x5:0xfffffff9 x29=0x80082f63
       63915000	      6390	800033f8	01e45463	bge	x8,x30,80003400	  x8:0x00000001 x30:0x80002840
       63925000	      6391	00000000	00000013	addi	x0,x0,0	  x0:0x00000000
       63935000	      6392	800033fc	00000013	addi	x0,x0,0	  x0:0x00000000
       63945000	      6393	80003400	007c83b3	add	x7,x25,x7	 x25:0x80002910  x7:0x00000001  x7=0x80002911
       63955000	      6394	80003404	40ccd9b3	sra	x19,x25,x12	 x25:0x80002910 x12:0x00000001 x19=0xc0001488
       63965000	      6395	80003408	048000ef	jal	x1,80003408	  x1=0x80003408
       63975000	      6396	00000000	00000013	addi	x0,x0,0	  x0:0x00000000
       63985000	      6397	8000344c	00000013	addi	x0,x0,0	  x0:0x00000000
       63995000	      6398	80003450	fe1ffd6f	jal	x26,80003450	 x26=0x80003450
       64005000	      6399	00000000	00000013	addi	x0,x0,0	  x0:0x00000000
       64015000	      6400	8000342c	00000013	addi	x0,x0,0	  x0:0x00000000
       64025000	      6401	80003430	01c0036f	jal	x6,80003430	  x6=0x80003430
       64035000	      6402	00000000	00000013	addi	x0,x0,0	  x0:0x00000000
       64045000	      6403	80003448	00000013	addi	x0,x0,0	  x0:0x00000000
       64055000	      6404	8000344c	fedff0ef	jal	x1,8000344c	  x1=0x8000344c
       64065000	      6405	00000000	00000013	addi	x0,x0,0	  x0:0x00000000
       64075000	      6406	80003434	00000013	addi	x0,x0,0	  x0:0x00000000
       64085000	      6407	80003438	00c0016f	jal	x2,80003438	  x2=0x80003438
       64095000	      6408	00000000	00000013	addi	x0,x0,0	  x0:0x00000000
       64105000	      6409	80003440	00000013	addi	x0,x0,0	  x0:0x00000000
       64115000	      6410	80003444	fd1ff3ef	jal	x7,80003444	  x7=0x80003444
       64125000	      6411	00000000	00000013	addi	x0,x0,0	  x0:0x00000000
       64135000	      6412	80003410	00000013	addi	x0,x0,0	  x0:0x00000000
       64145000	      6413	80003414	010000ef	jal	x1,80003414	  x1=0x80003414
       64155000	      6414	00000000	00000013	addi	x0,x0,0	  x0:0x00000000
       64165000	      6415	80003420	00000013	addi	x0,x0,0	  x0:0x00000000
       64175000	      6416	80003424	00400bef	jal	x23,80003424	 x23=0x80003424
       64185000	      6417	00000000	00000013	addi	x0,x0,0	  x0:0x00000000
       64195000	      6418	80003424	00000013	addi	x0,x0,0	  x0:0x00000000
       64205000	      6419	80003428	ff9ffc6f	jal	x24,80003428	 x24=0x80003428
       64215000	      6420	00000000	00000013	addi	x0,x0,0	  x0:0x00000000
       64225000	      6421	8000341c	00000013	addi	x0,x0,0	  x0:0x00000000
       64235000	      6422	80003420	02800d6f	jal	x26,80003420	 x26=0x80003420
       64245000	      6423	00000000	00000013	addi	x0,x0,0	  x0:0x00000000
       64255000	      6424	80003444	00000013	addi	x0,x0,0	  x0:0x00000000
       64265000	      6425	80003448	010000ef	jal	x1,80003448	  x1=0x80003448
       64275000	      6426	00000000	00000013	addi	x0,x0,0	  x0:0x00000000
       64285000	      6427	80003454	00000013	addi	x0,x0,0	  x0:0x00000000
       64295000	      6428	80003458	fb5ff36f	jal	x6,80003458	  x6=0x80003458
       64305000	      6429	00000000	00000013	addi	x0,x0,0	  x0:0x00000000
       64315000	      6430	80003408	00000013	addi	x0,x0,0	  x0:0x00000000
       64325000	      6431	8000340c	00c005ef	jal	x11,8000340c	 x11=0x8000340c
       64335000	      6432	00000000	00000013	addi	x0,x0,0	  x0:0x00000000
       64345000	      6433	80003414	00000013	addi	x0,x0,0	  x0:0x00000000
       64355000	      6434	80003418	014000ef	jal	x1,80003418	  x1=0x80003418
       64365000	      6435	00000000	00000013	addi	x0,x0,0	  x0:0x00000000
       64375000	      6436	80003428	00000013	addi	x0,x0,0	  x0:0x00000000
       64385000	      6437	8000342c	0100036f	jal	x6,8000342c	  x6=0x8000342c
       64395000	      6438	00000000	00000013	addi	x0,x0,0	  x0:0x00000000
       64405000	      6439	80003438	00000013	addi	x0,x0,0	  x0:0x00000000
       64415000	      6440	8000343c	004000ef	jal	x1,8000343c	  x1=0x8000343c
       64425000	      6441	00000000	00000013	addi	x0,x0,0	  x0:0x00000000
       64435000	      6442	8000343c	00000013	addi	x0,x0,0	  x0:0x00000000
       64445000	      6443	80003440	fd1ff2ef	jal	x5,80003440	  x5=0x80003440
       64455000	      6444	00000000	00000013	addi	x0,x0,0	  x0:0x00000000
       64465000	      6445	8000340c	00000013	addi	x0,x0,0	  x0:0x00000000
       64475000	      6446	80003410	044000ef	jal	x1,80003410	  x1=0x80003410
       64485000	      6447	00000000	00000013	addi	x0,x0,0	  x0:0x00000000
       64495000	      6448	80003450	00000013	addi	x0,x0,0	  x0:0x00000000
       64505000	      6449	80003454	fc9ff0ef	jal	x1,80003454	  x1=0x80003454
       64515000	      6450	00000000	00000013	addi	x0,x0,0	  x0:0x00000000
       64525000	      6451	80003418	00000013	addi	x0,x0,0	  x0:0x00000000
       64535000	      6452	8000341c	018000ef	jal	x1,8000341c	  x1=0x8000341c
       64545000	      6453	00000000	00000013	addi	x0,x0,0	  x0:0x00000000
       64555000	      6454	80003430	00000013	addi	x0,x0,0	  x0:0x00000000
       64565000	      6455	80003434	028000ef	jal	x1,80003434	  x1=0x80003434
       64575000	      6456	00000000	00000013	addi	x0,x0,0	  x0:0x00000000
       64585000	      6457	80003458	00000013	addi	x0,x0,0	  x0:0x00000000
       64595000	      6458	8000345c	004000ef	jal	x1,8000345c	  x1=0x8000345c
       64605000	      6459	00000000	00000013	addi	x0,x0,0	  x0:0x00000000
       64615000	      6460	8000345c	00000013	addi	x0,x0,0	  x0:0x00000000
       64625000	      6461	80003460	00b289b3	add	x19,x5,x11	  x5:0x80003440 x11:0x8000340c x19=0x0000684c
       64635000	      6462	80003464	406357b3	sra	x15,x6,x6	  x6:0x8000342c  x6:0x8000342c x15=0xfff80003
       64645000	      6463	80003468	76508b93	addi	x23,x1,1893	  x1:0x8000345c x23=0x80003bc1
       64655000	      6464	8000346c	40584c13	xori	x24,x16,1029	 x16:0x80002a10 x24=0x80002e15
       64665000	      6465	80003470	46ff7e93	andi	x29,x30,1135	 x30:0x80002840 x29=0x00000040
       64675000	      6466	80003474	011f4233	xor	x4,x30,x17	 x30:0x80002840 x17:0xc96ac1c4  x4=0x496ae984
       64685000	      6467	80003478	8cc13313	sltiu	x6,x2,-1844	  x2:0x80003438  x6=0x00000001
       64695000	      6468	8000347c	9e59a513	slti	x10,x19,-1563	 x19:0x0000684c x10=0x00000000
       64705000	      6469	80003480	0076d0b3	srl	x1,x13,x7	 x13:0xfffffff8  x7:0x80003444  x1=0x0fffffff
       64715000	      6470	80003484	011dd813	srli	x16,x27,0x11	 x27:0x00000000 x16=0x00000000
       64725000	      6471	80003488	6ecef193	andi	x3,x29,1772	 x29:0x00000040  x3=0x00000040
       64735000	      6472	8000348c	01dcf733	and	x14,x25,x29	 x25:0x80002910 x29:0x00000040 x14=0x00000000
       64745000	      6473	80003490	01fa56b3	srl	x13,x20,x31	 x20:0x00000000 x31:0x80009ef4 x13=0x00000000
       64755000	      6474	80003494	013b9593	slli	x11,x23,0x13	 x23:0x80003bc1 x11=0xde080000
       64765000	      6475	80003498	0184ab33	slt	x22,x9,x24	  x9:0xc96abcba x24:0x80002e15 x22=0x00000000
       64775000	      6476	8000349c	01fc1ab3	sll	x21,x24,x31	 x24:0x80002e15 x31:0x80009ef4 x21=0xe1500000
       64785000	      6477	800034a0	4195d833	sra	x16,x11,x25	 x11:0xde080000 x25:0x80002910 x16=0xffffde08
       64795000	      6478	800034a4	000937b3	sltu	x15,x18,x0	 x18:0x80009fc4  x0:0x00000000 x15=0x00000000
       64805000	      6479	800034a8	f1ee6b13	ori	x22,x28,-226	 x28:0x1f730000 x22=0xffffff1e
       64815000	      6480	800034ac	0076db33	srl	x22,x13,x7	 x13:0x00000000  x7:0x80003444 x22=0x00000000
       64825000	      6481	800034b0	0505ee63	bltu	x11,x16,8000350c	 x11:0xde080000 x16:0xffffde08
       64835000	      6482	00000000	00000013	addi	x0,x0,0	  x0:0x00000000
       64845000	      6483	80003508	00000013	addi	x0,x0,0	  x0:0x00000000
       64855000	      6484	8000350c	76cbc113	xori	x2,x23,1900	 x23:0x80003bc1  x2=0x80003cad
       64865000	      6485	80003510	41b35c33	sra	x24,x6,x27	  x6:0x00000001 x27:0x00000000 x24=0x00000001
       64875000	      6486	80003514	00949533	sll	x10,x9,x9	  x9:0xc96abcba  x9:0xc96abcba x10=0xe8000000
       64885000	      6487	80003518	00fe5333	srl	x6,x28,x15	 x28:0x1f730000 x15:0x00000000  x6=0x1f730000
       64895000	      6488	8000351c	008486b3	add	x13,x9,x8	  x9:0xc96abcba  x8:0x00000001 x13=0xc96abcbb
       64905000	      6489	80003520	00000013	addi	x0,x0,0	  x0:0x00000000
       64915000	      6490	80003524	019f65b3	or	x11,x30,x25	 x30:0x80002840 x25:0x80002910 x11=0x80002950
       64925000	      6491	80003528	eedcc313	xori	x6,x25,-275	 x25:0x80002910  x6=0x7fffd7fd
       64935000	      6492	8000352c	9f867193	andi	x3,x12,-1544	 x12:0x00000001  x3=0x00000000
       64945000	      6493	80003530	4073d733	sra	x14,x7,x7	  x7:0x80003444  x7:0x80003444 x14=0xf8000344
       64955000	      6494	80003534	01209393	slli	x7,x1,0x12	  x1:0x0fffffff  x7=0xfffc0000
       64965000	      6495	80003538	00e092b3	sll	x5,x1,x14	  x1:0x0fffffff x14:0xf8000344  x5=0xfffffff0
       64975000	      6496	8000353c	87bf4e13	xori	x28,x30,-1925	 x30:0x80002840 x28=0x7fffd03b
       64985000	      6497	80003540	01981093	slli	x1,x16,0x19	 x16:0xffffde08  x1=0x10000000
       64995000	      6498	80003544	001f0863	beq	x30,x1,80003554	 x30:0x80002840  x1:0x10000000
       65005000	      6499	80003548	9b033f13	sltiu	x30,x6,-1616	  x6:0x7fffd7fd x30=0x00000001
       65015000	      6500	8000354c	01b47833	and	x16,x8,x27	  x8:0x00000001 x27:0x00000000 x16=0x00000000
       65025000	      6501	80003550	41e157b3	sra	x15,x2,x30	  x2:0x80003cad x30:0x00000001 x15=0xc0001e56
       65035000	      6502	80003554	0144f533	and	x10,x9,x20	  x9:0xc96abcba x20:0x00000000 x10=0x00000000
       65045000	      6503	80003558	5d20f513	andi	x10,x1,1490	  x1:0x10000000 x10=0x00000000
       65055000	      6504	8000355c	016c2233	slt	x4,x24,x22	 x24:0x00000001 x22:0x00000000  x4=0x00000000
       65065000	      6505	80003560	0160f663	bgeu	x1,x22,8000356c	  x1:0x10000000 x22:0x00000000
       65075000	      6506	00000000	00000013	addi	x0,x0,0	  x0:0x00000000
       65085000	      6507	80003568	00000013	addi	x0,x0,0	  x0:0x00000000
       65095000	      6508	8000356c	15609c37	lui	x24,0x15609	 x24=0x15609000
       65105000	      6509	80003570	41f7db33	sra	x22,x15,x31	 x15:0xc0001e56 x31:0x80009ef4 x22=0xfffffc00
       65115000	      6510	80003574	40b10533	sub	x10,x2,x11	  x2:0x80003cad x11:0x80002950 x10=0x0000135d
       65125000	      6511	80003578	35e7b313	sltiu	x6,x15,862	 x15:0xc0001e56  x6=0x00000000
       65135000	      6512	8000357c	5e64beb7	lui	x29,0x5e64b	 x29=0x5e64b000
       65145000	      6513	80003580	417e89b3	sub	x19,x29,x23	 x29:0x5e64b000 x23:0x80003bc1 x19=0xde64743f
       65155000	      6514	80003584	414e50b3	sra	x1,x28,x20	 x28:0x7fffd03b x20:0x00000000  x1=0x7fffd03b
       65165000	      6515	80003588	00e6d9b3	srl	x19,x13,x14	 x13:0xc96abcbb x14:0xf8000344 x19=0x0c96abcb
       65175000	      6516	8000358c	00bb36b3	sltu	x13,x22,x11	 x22:0xfffffc00 x11:0x80002950 x13=0x00000000
       65185000	      6517	80003590	7c2a0e13	addi	x28,x20,1986	 x20:0x00000000 x28=0x000007c2
       65195000	      6518	80003594	bf57a997	auipc	x19,0xbf57a	 x19=0x3f57d590
       65205000	      6519	80003598	0df34993	xori	x19,x6,223	  x6:0x00000000 x19=0x000000df
       65215000	      6520	8000359c	cb2672b7	lui	x5,0xcb267	  x5=0xcb267000
       65225000	      6521	800035a0	96651d17	auipc	x26,0x96651	 x26=0x1665459c
       65235000	      6522	800035a4	4baef593	andi	x11,x29,1210	 x29:0x5e64b000 x11=0x00000000
       65245000	      6523	800035a8	fa21ef37	lui	x30,0xfa21e	 x30=0xfa21e000
       65255000	      6524	800035ac	48e23713	sltiu	x14,x4,1166	  x4:0x00000000 x14=0x00000001
       65265000	      6525	800035b0	01810d33	add	x26,x2,x24	  x2:0x80003cad x24:0x15609000 x26=0x9560ccad
       65275000	      6526	800035b4	001395b3	sll	x11,x7,x1	  x7:0xfffc0000  x1:0x7fffd03b x11=0x00000000
       65285000	      6527	800035b8	053dc463	blt	x27,x19,80003600	 x27:0x00000000 x19:0x000000df
       65295000	      6528	00000000	00000013	addi	x0,x0,0	  x0:0x00000000
       65305000	      6529	800035fc	00000013	addi	x0,x0,0	  x0:0x00000000
       65315000	      6530	80003600	0103c2b3	xor	x5,x7,x16	  x7:0xfffc0000 x16:0x00000000  x5=0xfffc0000
       65325000	      6531	80003604	93028413	addi	x8,x5,-1744	  x5:0xfffc0000  x8=0xfffbf930
       65335000	      6532	80003608	0216fa63	bgeu	x13,x1,8000363c	 x13:0x00000000  x1:0x7fffd03b
       65345000	      6533	8000360c	19e34593	xori	x11,x6,414	  x6:0x00000000 x11=0x0000019e
       65355000	      6534	80003610	01596633	or	x12,x18,x21	 x18:0x80009fc4 x21:0xe1500000 x12=0xe1509fc4
       65365000	      6535	80003614	03227463	bgeu	x4,x18,8000363c	  x4:0x00000000 x18:0x80009fc4
       65375000	      6536	80003618	4182d333	sra	x6,x5,x24	  x5:0xfffc0000 x24:0x15609000  x6=0xfffc0000
       65385000	      6537	8000361c	9fbbaf13	slti	x30,x23,-1541	 x23:0x80003bc1 x30=0x00000001
       65395000	      6538	80003620	407c0f33	sub	x30,x24,x7	 x24:0x15609000  x7:0xfffc0000 x30=0x15649000
       65405000	      6539	80003624	01438533	add	x10,x7,x20	  x7:0xfffc0000 x20:0x00000000 x10=0xfffc0000
       65415000	      6540	80003628	00b734b3	sltu	x9,x14,x11	 x14:0x00000001 x11:0x0000019e  x9=0x00000001
       65425000	      6541	8000362c	debeca13	xori	x20,x29,-533	 x29:0x5e64b000 x20=0xa19b4deb
       65435000	      6542	80003630	00d1db93	srli	x23,x3,0xd	  x3:0x00000000 x23=0x00000000
       65445000	      6543	80003634	00702a33	slt	x20,x0,x7	  x0:0x00000000  x7:0xfffc0000 x20=0x00000000
       65455000	      6544	80003638	01415333	srl	x6,x2,x20	  x2:0x80003cad x20:0x00000000  x6=0x80003cad
       65465000	      6545	8000363c	cd4be893	ori	x17,x23,-812	 x23:0x00000000 x17=0xfffffcd4
       65475000	      6546	80003640	011be733	or	x14,x23,x17	 x23:0x00000000 x17:0xfffffcd4 x14=0xfffffcd4
       65485000	      6547	80003644	0336f863	bgeu	x13,x19,80003674	 x13:0x00000000 x19:0x000000df
       65495000	      6548	80003648	00600a63	beq	x0,x6,8000365c	  x0:0x00000000  x6:0x80003cad
       65505000	      6549	8000364c	52df7f13	andi	x30,x30,1325	 x30:0x15649000 x30=0x00000000
       65515000	      6550	80003650	04120463	beq	x4,x1,80003698	  x4:0x00000000  x1:0x7fffd03b
       65525000	      6551	80003654	03819463	bne	x3,x24,8000367c	  x3:0x00000000 x24:0x15609000
       65535000	      6552	00000000	00000013	addi	x0,x0,0	  x0:0x00000000
       65545000	      6553	80003678	00000013	addi	x0,x0,0	  x0:0x00000000
       65555000	      6554	8000367c	00dbc333	xor	x6,x23,x13	 x23:0x00000000 x13:0x00000000  x6=0x00000000
       65565000	      6555	80003680	014ee263	bltu	x29,x20,80003684	 x29:0x5e64b000 x20:0x00000000
       65575000	      6556	80003684	016e06b3	add	x13,x28,x22	 x28:0x000007c2 x22:0xfffffc00 x13=0x000003c2
       65585000	      6557	80003688	047cf463	bgeu	x25,x7,800036d0	 x25:0x80002910  x7:0xfffc0000
       65595000	      6558	8000368c	05264063	blt	x12,x18,800036cc	 x12:0xe1509fc4 x18:0x80009fc4
       65605000	      6559	80003690	015a0c63	beq	x20,x21,800036a8	 x20:0x00000000 x21:0xe1500000
       65615000	      6560	80003694	40f35f13	srai	x30,x6,0xf	  x6:0x00000000 x30=0x00000000
       65625000	      6561	80003698	05171863	bne	x14,x17,800036e8	 x14:0xfffffcd4 x17:0xfffffcd4
       65635000	      6562	8000369c	00d506b3	add	x13,x10,x13	 x10:0xfffc0000 x13:0x000003c2 x13=0xfffc03c2
       65645000	      6563	800036a0	01f9ce63	blt	x19,x31,800036bc	 x19:0x000000df x31:0x80009ef4
       65655000	      6564	800036a4	419b0d33	sub	x26,x22,x25	 x22:0xfffffc00 x25:0x80002910 x26=0x7fffd2f0
       65665000	      6565	800036a8	011a9263	bne	x21,x17,800036ac	 x21:0xe1500000 x17:0xfffffcd4
       65675000	      6566	00000000	00000013	addi	x0,x0,0	  x0:0x00000000
       65685000	      6567	800036a8	00000013	addi	x0,x0,0	  x0:0x00000000
       65695000	      6568	800036ac	009b2d33	slt	x26,x22,x9	 x22:0xfffffc00  x9:0x00000001 x26=0x00000001
       65705000	      6569	800036b0	01fd9833	sll	x16,x27,x31	 x27:0x00000000 x31:0x80009ef4 x16=0x00000000
       65715000	      6570	800036b4	ff1a6897	auipc	x17,0xff1a6	 x17=0x7f1a96b0
       65725000	      6571	800036b8	40c20333	sub	x6,x4,x12	  x4:0x00000000 x12:0xe1509fc4  x6=0x1eaf603c
       65735000	      6572	800036bc	26496a93	ori	x21,x18,612	 x18:0x80009fc4 x21=0x80009fe4
       65745000	      6573	800036c0	412052b3	sra	x5,x0,x18	  x0:0x00000000 x18:0x80009fc4  x5=0x00000000
       65755000	      6574	800036c4	015399b3	sll	x19,x7,x21	  x7:0xfffc0000 x21:0x80009fe4 x19=0xffc00000
       65765000	      6575	800036c8	00f42c33	slt	x24,x8,x15	  x8:0xfffbf930 x15:0xc0001e56 x24=0x00000000
       65775000	      6576	800036cc	017e1c63	bne	x28,x23,800036e4	 x28:0x000007c2 x23:0x00000000
       65785000	      6577	00000000	00000013	addi	x0,x0,0	  x0:0x00000000
       65795000	      6578	800036e0	00000013	addi	x0,x0,0	  x0:0x00000000
       65805000	      6579	800036e4	00075c33	srl	x24,x14,x0	 x14:0xfffffcd4  x0:0x00000000 x24=0xfffffcd4
       65815000	      6580	800036e8	ca536f13	ori	x30,x6,-859	  x6:0x1eaf603c x30=0xfffffcbd
       65825000	      6581	800036ec	005db633	sltu	x12,x27,x5	 x27:0x00000000  x5:0x00000000 x12=0x00000000
       65835000	      6582	800036f0	00ded463	bge	x29,x13,800036f8	 x29:0x5e64b000 x13:0xfffc03c2
       65845000	      6583	00000000	00000013	addi	x0,x0,0	  x0:0x00000000
       65855000	      6584	800036f4	00000013	addi	x0,x0,0	  x0:0x00000000
       65865000	      6585	800036f8	00edb633	sltu	x12,x27,x14	 x27:0x00000000 x14:0xfffffcd4 x12=0x00000001
       65875000	      6586	800036fc	41abd893	srai	x17,x23,0x1a	 x23:0x00000000 x17=0x00000000
       65885000	      6587	80003700	3149b013	sltiu	x0,x19,788	 x19:0xffc00000
       65895000	      6588	80003704	014e1013	slli	x0,x28,0x14	 x28:0x000007c2
       65905000	      6589	80003708	412687b3	sub	x15,x13,x18	 x13:0xfffc03c2 x18:0x80009fc4 x15=0x7ffb63fe
       65915000	      6590	8000370c	0421d263	bge	x3,x2,80003750	  x3:0x00000000  x2:0x80003cad
       65925000	      6591	00000000	00000013	addi	x0,x0,0	  x0:0x00000000
       65935000	      6592	8000374c	00000013	addi	x0,x0,0	  x0:0x00000000
       65945000	      6593	80003750	41bcde13	srai	x28,x25,0x1b	 x25:0x80002910 x28=0xfffffff0
       65955000	      6594	80003754	000fe233	or	x4,x31,x0	 x31:0x80009ef4  x0:0x00000000  x4=0x80009ef4
       65965000	      6595	80003758	0149f663	bgeu	x19,x20,80003764	 x19:0xffc00000 x20:0x00000000
       65975000	      6596	00000000	00000013	addi	x0,x0,0	  x0:0x00000000
       65985000	      6597	80003760	00000013	addi	x0,x0,0	  x0:0x00000000
       65995000	      6598	80003764	00c513b3	sll	x7,x10,x12	 x10:0xfffc0000 x12:0x00000001  x7=0xfff80000
       66005000	      6599	80003768	023d7e63	bgeu	x26,x3,800037a4	 x26:0x00000001  x3:0x00000000
       66015000	      6600	00000000	00000013	addi	x0,x0,0	  x0:0x00000000
       66025000	      6601	800037a0	00000013	addi	x0,x0,0	  x0:0x00000000
       66035000	      6602	800037a4	40990333	sub	x6,x18,x9	 x18:0x80009fc4  x9:0x00000001  x6=0x80009fc3
       66045000	      6603	800037a8	02ff9c63	bne	x31,x15,800037e0	 x31:0x80009ef4 x15:0x7ffb63fe
       66055000	      6604	00000000	00000013	addi	x0,x0,0	  x0:0x00000000
       66065000	      6605	800037dc	00000013	addi	x0,x0,0	  x0:0x00000000
       66075000	      6606	800037e0	00ca9793	slli	x15,x21,0xc	 x21:0x80009fe4 x15=0x09fe4000
       66085000	      6607	800037e4	01327433	and	x8,x4,x19	  x4:0x80009ef4 x19:0xffc00000  x8=0x80000000
       66095000	      6608	800037e8	be6dce93	xori	x29,x27,-1050	 x27:0x00000000 x29=0xfffffbe6
       66105000	      6609	800037ec	416059b3	sra	x19,x0,x22	  x0:0x00000000 x22:0xfffffc00 x19=0x00000000
       66115000	      6610	800037f0	0517f663	bgeu	x15,x17,8000383c	 x15:0x09fe4000 x17:0x00000000
       66125000	      6611	00000000	00000013	addi	x0,x0,0	  x0:0x00000000
       66135000	      6612	80003838	00000013	addi	x0,x0,0	  x0:0x00000000
       66145000	      6613	8000383c	be0c3993	sltiu	x19,x24,-1056	 x24:0xfffffcd4 x19=0x00000000
       66155000	      6614	80003840	004ed8b3	srl	x17,x29,x4	 x29:0xfffffbe6  x4:0x80009ef4 x17=0x00000fff
       66165000	      6615	80003844	00785a63	bge	x16,x7,80003858	 x16:0x00000000  x7:0xfff80000
       66175000	      6616	00000000	00000013	addi	x0,x0,0	  x0:0x00000000
       66185000	      6617	80003854	00000013	addi	x0,x0,0	  x0:0x00000000
       66195000	      6618	80003858	218cec97	auipc	x25,0x218ce	 x25=0xa18d1854
       66205000	      6619	8000385c	002e6c63	bltu	x28,x2,80003874	 x28:0xfffffff0  x2:0x80003cad
       66215000	      6620	80003860	408bd193	srai	x3,x23,0x8	 x23:0x00000000  x3=0x00000000
       66225000	      6621	80003864	016b6463	bltu	x22,x22,8000386c	 x22:0xfffffc00 x22:0xfffffc00
       66235000	      6622	80003868	de20fd13	andi	x26,x1,-542	  x1:0x7fffd03b x26=0x7fffd022
       66245000	      6623	8000386c	01eb58b3	srl	x17,x22,x30	 x22:0xfffffc00 x30:0xfffffcbd x17=0x00000007
       66255000	      6624	80003870	01f03eb3	sltu	x29,x0,x31	  x0:0x00000000 x31:0x80009ef4 x29=0x00000001
       66265000	      6625	80003874	01827633	and	x12,x4,x24	  x4:0x80009ef4 x24:0xfffffcd4 x12=0x80009cd4
       66275000	      6626	80003878	00a2d663	bge	x5,x10,80003884	  x5:0x00000000 x10:0xfffc0000
       66285000	      6627	00000000	00000013	addi	x0,x0,0	  x0:0x00000000
       66295000	      6628	80003880	00000013	addi	x0,x0,0	  x0:0x00000000
       66305000	      6629	80003884	00ae3b33	sltu	x22,x28,x10	 x28:0xfffffff0 x10:0xfffc0000 x22=0x00000000
       66315000	      6630	80003888	c2dc0b13	addi	x22,x24,-979	 x24:0xfffffcd4 x22=0xfffff901
       66325000	      6631	8000388c	f9ad2e13	slti	x28,x26,-102	 x26:0x7fffd022 x28=0x00000000
       66335000	      6632	80003890	0191abb3	slt	x23,x3,x25	  x3:0x00000000 x25:0xa18d1854 x23=0x00000000
       66345000	      6633	80003894	d7463c13	sltiu	x24,x12,-652	 x12:0x80009cd4 x24=0x00000001
       66355000	      6634	80003898	011d9393	slli	x7,x27,0x11	 x27:0x00000000  x7=0x00000000
       66365000	      6635	8000389c	00749433	sll	x8,x9,x7	  x9:0x00000001  x7:0x00000000  x8=0x00000001
       66375000	      6636	800038a0	26af0e93	addi	x29,x30,618	 x30:0xfffffcbd x29=0xffffff27
       66385000	      6637	800038a4	a9f98997	auipc	x19,0xa9f98	 x19=0x29f9b8a0
       66395000	      6638	800038a8	0cb9c093	xori	x1,x19,203	 x19:0x29f9b8a0  x1=0x29f9b86b
       66405000	      6639	800038ac	012253b3	srl	x7,x4,x18	  x4:0x80009ef4 x18:0x80009fc4  x7=0x080009ef
       66415000	      6640	800038b0	07ce4513	xori	x10,x28,124	 x28:0x00000000 x10=0x0000007c
       66425000	      6641	800038b4	840f2213	slti	x4,x30,-1984	 x30:0xfffffcbd  x4=0x00000000
       66435000	      6642	800038b8	00000013	addi	x0,x0,0	  x0:0x00000000
       66445000	      6643	800038bc	00f047b3	xor	x15,x0,x15	  x0:0x00000000 x15:0x09fe4000 x15=0x09fe4000
       66455000	      6644	800038c0	0162dd33	srl	x26,x5,x22	  x5:0x00000000 x22:0xfffff901 x26=0x00000000
       66465000	      6645	800038c4	414fdbb3	sra	x23,x31,x20	 x31:0x80009ef4 x20:0x00000000 x23=0x80009ef4
       66475000	      6646	800038c8	03777463	bgeu	x14,x23,800038f0	 x14:0xfffffcd4 x23:0x80009ef4
       66485000	      6647	00000000	00000013	addi	x0,x0,0	  x0:0x00000000
       66495000	      6648	800038ec	00000013	addi	x0,x0,0	  x0:0x00000000
       66505000	      6649	800038f0	0c326993	ori	x19,x4,195	  x4:0x00000000 x19=0x000000c3
       66515000	      6650	800038f4	00288cb3	add	x25,x17,x2	 x17:0x00000007  x2:0x80003cad x25=0x80003cb4
       66525000	      6651	800038f8	00d75b93	srli	x23,x14,0xd	 x14:0xfffffcd4 x23=0x0007ffff
       66535000	      6652	800038fc	001ce3b3	or	x7,x25,x1	 x25:0x80003cb4  x1:0x29f9b86b  x7=0xa9f9bcff
       66545000	      6653	80003900	01a9d533	srl	x10,x19,x26	 x19:0x000000c3 x26:0x00000000 x10=0x000000c3
       66555000	      6654	80003904	05d1f063	bgeu	x3,x29,80003944	  x3:0x00000000 x29:0xffffff27
       66565000	      6655	80003908	671f3b93	sltiu	x23,x30,1649	 x30:0xfffffcbd x23=0x00000000
       66575000	      6656	8000390c	05088263	beq	x17,x16,80003950	 x17:0x00000007 x16:0x00000000
       66585000	      6657	80003910	c7308393	addi	x7,x1,-909	  x1:0x29f9b86b  x7=0x29f9b4de
       66595000	      6658	80003914	692c8713	addi	x14,x25,1682	 x25:0x80003cb4 x14=0x80004346
       66605000	      6659	80003918	011f0133	add	x2,x30,x17	 x30:0xfffffcbd x17:0x00000007  x2=0xfffffcc4
       66615000	      6660	8000391c	0065fc33	and	x24,x11,x6	 x11:0x0000019e  x6:0x80009fc3 x24=0x00000182
       66625000	      6661	80003920	0312ca63	blt	x5,x17,80003954	  x5:0x00000000 x17:0x00000007
       66635000	      6662	00000000	00000013	addi	x0,x0,0	  x0:0x00000000
       66645000	      6663	80003950	00000013	addi	x0,x0,0	  x0:0x00000000
       66655000	      6664	80003954	a7f93113	sltiu	x2,x18,-1409	 x18:0x80009fc4  x2=0x00000001
       66665000	      6665	80003958	0117a0b3	slt	x1,x15,x17	 x15:0x09fe4000 x17:0x00000007  x1=0x00000000
       66675000	      6666	8000395c	01b06c63	bltu	x0,x27,80003974	  x0:0x00000000 x27:0x00000000
       66685000	      6667	80003960	01867eb3	and	x29,x12,x24	 x12:0x80009cd4 x24:0x00000182 x29=0x00000080
       66695000	      6668	80003964	41e628b7	lui	x17,0x41e62	 x17=0x41e62000
       66705000	      6669	80003968	00276c33	or	x24,x14,x2	 x14:0x80004346  x2:0x00000001 x24=0x80004347
       66715000	      6670	8000396c	8e02bd13	sltiu	x26,x5,-1824	  x5:0x00000000 x26=0x00000001
       66725000	      6671	80003970	01cb9093	slli	x1,x23,0x1c	 x23:0x00000000  x1=0x00000000
       66735000	      6672	80003974	01dfd793	srli	x15,x31,0x1d	 x31:0x80009ef4 x15=0x00000004
       66745000	      6673	80003978	51938f13	addi	x30,x7,1305	  x7:0x29f9b4de x30=0x29f9b9f7
       66755000	      6674	8000397c	0065d663	bge	x11,x6,80003988	 x11:0x0000019e  x6:0x80009fc3
       66765000	      6675	00000000	00000013	addi	x0,x0,0	  x0:0x00000000
       66775000	      6676	80003984	00000013	addi	x0,x0,0	  x0:0x00000000
       66785000	      6677	80003988	4062d593	srai	x11,x5,0x6	  x5:0x00000000 x11=0x00000000
       66795000	      6678	8000398c	004273b3	and	x7,x4,x4	  x4:0x00000000  x4:0x00000000  x7=0x00000000
       66805000	      6679	80003990	26acb793	sltiu	x15,x25,618	 x25:0x80003cb4 x15=0x00000000
       66815000	      6680	80003994	00c36863	bltu	x6,x12,800039a4	  x6:0x80009fc3 x12:0x80009cd4
       66825000	      6681	80003998	04bf7463	bgeu	x30,x11,800039e0	 x30:0x29f9b9f7 x11:0x00000000
       66835000	      6682	00000000	00000013	addi	x0,x0,0	  x0:0x00000000
       66845000	      6683	800039dc	00000013	addi	x0,x0,0	  x0:0x00000000
       66855000	      6684	800039e0	415fd193	srai	x3,x31,0x15	 x31:0x80009ef4  x3=0xfffffc00
       66865000	      6685	800039e4	40e7db33	sra	x22,x15,x14	 x15:0x00000000 x14:0x80004346 x22=0x00000000
       66875000	      6686	800039e8	e9c94213	xori	x4,x18,-356	 x18:0x80009fc4  x4=0x7fff6158
       66885000	      6687	800039ec	01f01eb3	sll	x29,x0,x31	  x0:0x00000000 x31:0x80009ef4 x29=0x00000000
       66895000	      6688	800039f0	57510b93	addi	x23,x2,1397	  x2:0x00000001 x23=0x00000576
       66905000	      6689	800039f4	003b9533	sll	x10,x23,x3	 x23:0x00000576  x3:0xfffffc00 x10=0x00000576
       66915000	      6690	800039f8	e0dd2493	slti	x9,x26,-499	 x26:0x00000001  x9=0x00000000
       66925000	      6691	800039fc	7bb64537	lui	x10,0x7bb64	 x10=0x7bb64000
       66935000	      6692	80003a00	01b825b3	slt	x11,x16,x27	 x16:0x00000000 x27:0x00000000 x11=0x00000000
       66945000	      6693	80003a04	00dbe033	or	x0,x23,x13	 x23:0x00000576 x13:0xfffc03c2
       66955000	      6694	80003a08	005a7f33	and	x30,x20,x5	 x20:0x00000000  x5:0x00000000 x30=0x00000000
       66965000	      6695	80003a0c	aeeb7613	andi	x12,x22,-1298	 x22:0x00000000 x12=0x00000000
       66975000	      6696	80003a10	00c77533	and	x10,x14,x12	 x14:0x80004346 x12:0x00000000 x10=0x00000000
       66985000	      6697	80003a14	00c63833	sltu	x16,x12,x12	 x12:0x00000000 x12:0x00000000 x16=0x00000000
       66995000	      6698	80003a18	e9268093	addi	x1,x13,-366	 x13:0xfffc03c2  x1=0xfffc0254
       67005000	      6699	80003a1c	7332c513	xori	x10,x5,1843	  x5:0x00000000 x10=0x00000733
       67015000	      6700	80003a20	41e0dd33	sra	x26,x1,x30	  x1:0xfffc0254 x30:0x00000000 x26=0xfffc0254
       67025000	      6701	80003a24	00d77463	bgeu	x14,x13,80003a2c	 x14:0x80004346 x13:0xfffc03c2
       67035000	      6702	80003a28	992e7b17	auipc	x22,0x992e7	 x22=0x192eaa24
       67045000	      6703	80003a2c	1ea1aa93	slti	x21,x3,490	  x3:0xfffffc00 x21=0x00000001
       67055000	      6704	80003a30	11aca113	slti	x2,x25,282	 x25:0x80003cb4  x2=0x00000001
       67065000	      6705	80003a34	01c26d33	or	x26,x4,x28	  x4:0x7fff6158 x28:0x00000000 x26=0x7fff6158
       67075000	      6706	80003a38	4bf1f893	andi	x17,x3,1215	  x3:0xfffffc00 x17=0x00000400
       67085000	      6707	80003a3c	ad4d2493	slti	x9,x26,-1324	 x26:0x7fff6158  x9=0x00000000
       67095000	      6708	80003a40	02474e63	blt	x14,x4,80003a7c	 x14:0x80004346  x4:0x7fff6158
       67105000	      6709	00000000	00000013	addi	x0,x0,0	  x0:0x00000000
       67115000	      6710	80003a78	00000013	addi	x0,x0,0	  x0:0x00000000
       67125000	      6711	80003a7c	00301463	bne	x0,x3,80003a84	  x0:0x00000000  x3:0xfffffc00
       67135000	      6712	00000000	00000013	addi	x0,x0,0	  x0:0x00000000
       67145000	      6713	80003a80	00000013	addi	x0,x0,0	  x0:0x00000000
       67155000	      6714	80003a84	408e5bb3	sra	x23,x28,x8	 x28:0x00000000  x8:0x00000001 x23=0x00000000
       67165000	      6715	80003a88	27d3bab7	lui	x21,0x27d3b	 x21=0x27d3b000
       67175000	      6716	80003a8c	01b75863	bge	x14,x27,80003a9c	 x14:0x80004346 x27:0x00000000
       67185000	      6717	80003a90	40e9d233	sra	x4,x19,x14	 x19:0x000000c3 x14:0x80004346  x4=0x00000003
       67195000	      6718	80003a94	01bee663	bltu	x29,x27,80003aa0	 x29:0x00000000 x27:0x00000000
       67205000	      6719	80003a98	0136c233	xor	x4,x13,x19	 x13:0xfffc03c2 x19:0x000000c3  x4=0xfffc0301
       67215000	      6720	80003a9c	00c38533	add	x10,x7,x12	  x7:0x00000000 x12:0x00000000 x10=0x00000000
       67225000	      6721	80003aa0	80e91a17	auipc	x20,0x80e91	 x20=0x00e94a9c
       67235000	      6722	80003aa4	00dd9233	sll	x4,x27,x13	 x27:0x00000000 x13:0xfffc03c2  x4=0x00000000
       67245000	      6723	80003aa8	922d2e13	slti	x28,x26,-1758	 x26:0x7fff6158 x28=0x00000000
       67255000	      6724	80003aac	d8e9e613	ori	x12,x19,-626	 x19:0x000000c3 x12=0xfffffdcf
       67265000	      6725	80003ab0	016ac733	xor	x14,x21,x22	 x21:0x27d3b000 x22:0x192eaa24 x14=0x3efd1a24
       67275000	      6726	80003ab4	410ddf33	sra	x30,x27,x16	 x27:0x00000000 x16:0x00000000 x30=0x00000000
       67285000	      6727	80003ab8	41e9d733	sra	x14,x19,x30	 x19:0x000000c3 x30:0x00000000 x14=0x000000c3
       67295000	      6728	80003abc	01860e63	beq	x12,x24,80003ad8	 x12:0xfffffdcf x24:0x80004347
       67305000	      6729	80003ac0	005fdb93	srli	x23,x31,0x5	 x31:0x80009ef4 x23=0x040004f7
       67315000	      6730	80003ac4	419c5733	sra	x14,x24,x25	 x24:0x80004347 x25:0x80003cb4 x14=0xfffff800
       67325000	      6731	80003ac8	007b9533	sll	x10,x23,x7	 x23:0x040004f7  x7:0x00000000 x10=0x040004f7
       67335000	      6732	80003acc	01d15c63	bge	x2,x29,80003ae4	  x2:0x00000001 x29:0x00000000
       67345000	      6733	00000000	00000013	addi	x0,x0,0	  x0:0x00000000
       67355000	      6734	80003ae0	00000013	addi	x0,x0,0	  x0:0x00000000
       67365000	      6735	80003ae4	01b25663	bge	x4,x27,80003af0	  x4:0x00000000 x27:0x00000000
       67375000	      6736	00000000	00000013	addi	x0,x0,0	  x0:0x00000000
       67385000	      6737	80003aec	00000013	addi	x0,x0,0	  x0:0x00000000
       67395000	      6738	80003af0	9aefa0b7	lui	x1,0x9aefa	  x1=0x9aefa000
       67405000	      6739	80003af4	c81c0813	addi	x16,x24,-895	 x24:0x80004347 x16=0x80003fc8
       67415000	      6740	80003af8	bd5dbc13	sltiu	x24,x27,-1067	 x27:0x00000000 x24=0x00000001
       67425000	      6741	80003afc	00bea5b3	slt	x11,x29,x11	 x29:0x00000000 x11:0x00000000 x11=0x00000000
       67435000	      6742	80003b00	00000013	addi	x0,x0,0	  x0:0x00000000
       67445000	      6743	80003b04	c985ca17	auipc	x20,0xc985c	 x20=0x4985fb00
       67455000	      6744	80003b08	005ac733	xor	x14,x21,x5	 x21:0x27d3b000  x5:0x00000000 x14=0x27d3b000
       67465000	      6745	80003b0c	01cd4a33	xor	x20,x26,x28	 x26:0x7fff6158 x28:0x00000000 x20=0x7fff6158
       67475000	      6746	80003b10	0014a433	slt	x8,x9,x1	  x9:0x00000000  x1:0x9aefa000  x8=0x00000000
       67485000	      6747	80003b14	40ca5c13	srai	x24,x20,0xc	 x20:0x7fff6158 x24=0x0007fff6
       67495000	      6748	80003b18	0044de93	srli	x29,x9,0x4	  x9:0x00000000 x29=0x00000000
       67505000	      6749	80003b1c	393f9617	auipc	x12,0x393f9	 x12=0xb93fcb18
       67515000	      6750	80003b20	6421ac93	slti	x25,x3,1602	  x3:0xfffffc00 x25=0x00000001
       67525000	      6751	80003b24	01789793	slli	x15,x17,0x17	 x17:0x00000400 x15=0x00000000
       67535000	      6752	80003b28	114f8713	addi	x14,x31,276	 x31:0x80009ef4 x14=0x8000a008
       67545000	      6753	80003b2c	00270bb3	add	x23,x14,x2	 x14:0x8000a008  x2:0x00000001 x23=0x8000a009
       67555000	      6754	80003b30	03800193	addi	x3,x0,56	  x0:0x00000000  x3=0x00000038
       67565000	      6755	80003b34	41e55b33	sra	x22,x10,x30	 x10:0x040004f7 x30:0x00000000 x22=0x040004f7
       67575000	      6756	80003b38	014b2033	slt	x0,x22,x20	 x22:0x040004f7 x20:0x7fff6158
       67585000	      6757	80003b3c	d54cc393	xori	x7,x25,-684	 x25:0x00000001  x7=0xfffffd55
       67595000	      6758	80003b40	40605ab3	sra	x21,x0,x6	  x0:0x00000000  x6:0x80009fc3 x21=0x00000000
       67605000	      6759	80003b44	01304eb3	xor	x29,x0,x19	  x0:0x00000000 x19:0x000000c3 x29=0x000000c3
       67615000	      6760	80003b48	7be3f793	andi	x15,x7,1982	  x7:0xfffffd55 x15=0x00000514
       67625000	      6761	80003b4c	00219213	slli	x4,x3,0x2	  x3:0x00000038  x4=0x000000e0
       67635000	      6762	80003b50	41790533	sub	x10,x18,x23	 x18:0x80009fc4 x23:0x8000a009 x10=0xffffffbb
       67645000	      6763	80003b54	7ea34613	xori	x12,x6,2026	  x6:0x80009fc3 x12=0x80009829
       67655000	      6764	80003b58	49a5d217	auipc	x4,0x49a5d	  x4=0xc9a60b54
       67665000	      6765	80003b5c	011dd313	srli	x6,x27,0x11	 x27:0x00000000  x6=0x00000000
       67675000	      6766	80003b60	023c1a63	bne	x24,x3,80003b94	 x24:0x0007fff6  x3:0x00000038
       67685000	      6767	00000000	00000013	addi	x0,x0,0	  x0:0x00000000
       67695000	      6768	80003b90	00000013	addi	x0,x0,0	  x0:0x00000000
       67705000	      6769	80003b94	01c8d793	srli	x15,x17,0x1c	 x17:0x00000400 x15=0x00000000
       67715000	      6770	80003b98	01be1133	sll	x2,x28,x27	 x28:0x00000000 x27:0x00000000  x2=0x00000000
       67725000	      6771	80003b9c	01d4e633	or	x12,x9,x29	  x9:0x00000000 x29:0x000000c3 x12=0x000000c3
       67735000	      6772	80003ba0	4cc662b7	lui	x5,0x4cc66	  x5=0x4cc66000
       67745000	      6773	80003ba4	419407b3	sub	x15,x8,x25	  x8:0x00000000 x25:0x00000001 x15=0xffffffff
       67755000	      6774	80003ba8	0098f4b3	and	x9,x17,x9	 x17:0x00000400  x9:0x00000000  x9=0x00000000
       67765000	      6775	80003bac	0267ec63	bltu	x15,x6,80003be4	 x15:0xffffffff  x6:0x00000000
       67775000	      6776	80003bb0	0003d713	srli	x14,x7,0x0	  x7:0xfffffd55 x14=0xfffffd55
       67785000	      6777	80003bb4	75ed6ab7	lui	x21,0x75ed6	 x21=0x75ed6000
       67795000	      6778	80003bb8	92244413	xori	x8,x8,-1758	  x8:0x00000000  x8=0xfffff922
       67805000	      6779	80003bbc	bb60ca93	xori	x21,x1,-1098	  x1:0x9aefa000 x21=0x65105bb6
       67815000	      6780	80003bc0	4178d4b3	sra	x9,x17,x23	 x17:0x00000400 x23:0x8000a009  x9=0x00000002
       67825000	      6781	80003bc4	01a56433	or	x8,x10,x26	 x10:0xffffffbb x26:0x7fff6158  x8=0xfffffffb
       67835000	      6782	80003bc8	0158e033	or	x0,x17,x21	 x17:0x00000400 x21:0x65105bb6
       67845000	      6783	80003bcc	01dbbe33	sltu	x28,x23,x29	 x23:0x8000a009 x29:0x000000c3 x28=0x00000000
       67855000	      6784	80003bd0	d0dfd0ef	jal	x1,80003bd0	  x1=0x80003bd0
       67865000	      6785	00000000	00000013	addi	x0,x0,0	  x0:0x00000000
       67875000	      6786	800018d8	00000013	addi	x0,x0,0	  x0:0x00000000
       67885000	      6787	800018dc	01815663	bge	x2,x24,800018e8	  x2:0x00000000 x24:0x0007fff6
       67895000	      6788	800018e0	3d1afeb7	lui	x29,0x3d1af	 x29=0x3d1af000
       67905000	      6789	800018e4	004b2333	slt	x6,x22,x4	 x22:0x040004f7  x4:0xc9a60b54  x6=0x00000000
       67915000	      6790	800018e8	fd0f8f93	addi	x31,x31,-48	 x31:0x80009ef4 x31=0x80009ec4
       67925000	      6791	800018ec	01a369b3	or	x19,x6,x26	  x6:0x00000000 x26:0x7fff6158 x19=0x7fff6158
       67935000	      6792	800018f0	001fa223	sw	x1,4(x31)	 x31:0x80009ec4  x1:0x80003bd0 PA:0x80009ec8
       67945000	      6793	800018f4	0060d693	srli	x13,x1,0x6	  x1:0x80003bd0 x13=0x020000ef
       67955000	      6794	800018f8	2fc44d13	xori	x26,x8,764	  x8:0xfffffffb x26=0xfffffd07
       67965000	      6795	800018fc	018e35b3	sltu	x11,x28,x24	 x28:0x00000000 x24:0x0007fff6 x11=0x00000001
       67975000	      6796	80001900	020000ef	jal	x1,80001900	  x1=0x80001900
       67985000	      6797	00000000	00000013	addi	x0,x0,0	  x0:0x00000000
       67995000	      6798	8000191c	00000013	addi	x0,x0,0	  x0:0x00000000
       68005000	      6799	80001920	008000ef	jal	x1,80001920	  x1=0x80001920
       68015000	      6800	00000000	00000013	addi	x0,x0,0	  x0:0x00000000
       68025000	      6801	80001924	00000013	addi	x0,x0,0	  x0:0x00000000
       68035000	      6802	80001928	02c003ef	jal	x7,80001928	  x7=0x80001928
       68045000	      6803	00000000	00000013	addi	x0,x0,0	  x0:0x00000000
       68055000	      6804	80001950	00000013	addi	x0,x0,0	  x0:0x00000000
       68065000	      6805	80001954	fe9ff36f	jal	x6,80001954	  x6=0x80001954
       68075000	      6806	00000000	00000013	addi	x0,x0,0	  x0:0x00000000
       68085000	      6807	80001938	00000013	addi	x0,x0,0	  x0:0x00000000
       68095000	      6808	8000193c	008000ef	jal	x1,8000193c	  x1=0x8000193c
       68105000	      6809	00000000	00000013	addi	x0,x0,0	  x0:0x00000000
       68115000	      6810	80001940	00000013	addi	x0,x0,0	  x0:0x00000000
       68125000	      6811	80001944	ff1ff0ef	jal	x1,80001944	  x1=0x80001944
       68135000	      6812	00000000	00000013	addi	x0,x0,0	  x0:0x00000000
       68145000	      6813	80001930	00000013	addi	x0,x0,0	  x0:0x00000000
       68155000	      6814	80001934	03800b6f	jal	x22,80001934	 x22=0x80001934
       68165000	      6815	00000000	00000013	addi	x0,x0,0	  x0:0x00000000
       68175000	      6816	80001968	00000013	addi	x0,x0,0	  x0:0x00000000
       68185000	      6817	8000196c	fddff36f	jal	x6,8000196c	  x6=0x8000196c
       68195000	      6818	00000000	00000013	addi	x0,x0,0	  x0:0x00000000
       68205000	      6819	80001944	00000013	addi	x0,x0,0	  x0:0x00000000
       68215000	      6820	80001948	fcdff26f	jal	x4,80001948	  x4=0x80001948
       68225000	      6821	00000000	00000013	addi	x0,x0,0	  x0:0x00000000
       68235000	      6822	80001910	00000013	addi	x0,x0,0	  x0:0x00000000
       68245000	      6823	80001914	04c000ef	jal	x1,80001914	  x1=0x80001914
       68255000	      6824	00000000	00000013	addi	x0,x0,0	  x0:0x00000000
       68265000	      6825	8000195c	00000013	addi	x0,x0,0	  x0:0x00000000
       68275000	      6826	80001960	fb9ff9ef	jal	x19,80001960	 x19=0x80001960
       68285000	      6827	00000000	00000013	addi	x0,x0,0	  x0:0x00000000
       68295000	      6828	80001914	00000013	addi	x0,x0,0	  x0:0x00000000
       68305000	      6829	80001918	ff5ffeef	jal	x29,80001918	 x29=0x80001918
       68315000	      6830	00000000	00000013	addi	x0,x0,0	  x0:0x00000000
       68325000	      6831	80001908	00000013	addi	x0,x0,0	  x0:0x00000000
       68335000	      6832	8000190c	0040036f	jal	x6,8000190c	  x6=0x8000190c
       68345000	      6833	00000000	00000013	addi	x0,x0,0	  x0:0x00000000
       68355000	      6834	8000190c	00000013	addi	x0,x0,0	  x0:0x00000000
       68365000	      6835	80001910	020000ef	jal	x1,80001910	  x1=0x80001910
       68375000	      6836	00000000	00000013	addi	x0,x0,0	  x0:0x00000000
       68385000	      6837	8000192c	00000013	addi	x0,x0,0	  x0:0x00000000
       68395000	      6838	80001930	fedff36f	jal	x6,80001930	  x6=0x80001930
       68405000	      6839	00000000	00000013	addi	x0,x0,0	  x0:0x00000000
       68415000	      6840	80001918	00000013	addi	x0,x0,0	  x0:0x00000000
       68425000	      6841	8000191c	0080036f	jal	x6,8000191c	  x6=0x8000191c
       68435000	      6842	00000000	00000013	addi	x0,x0,0	  x0:0x00000000
       68445000	      6843	80001920	00000013	addi	x0,x0,0	  x0:0x00000000
       68455000	      6844	80001924	02c000ef	jal	x1,80001924	  x1=0x80001924
       68465000	      6845	00000000	00000013	addi	x0,x0,0	  x0:0x00000000
       68475000	      6846	8000194c	00000013	addi	x0,x0,0	  x0:0x00000000
       68485000	      6847	80001950	fb9ff0ef	jal	x1,80001950	  x1=0x80001950
       68495000	      6848	00000000	00000013	addi	x0,x0,0	  x0:0x00000000
       68505000	      6849	80001904	00000013	addi	x0,x0,0	  x0:0x00000000
       68515000	      6850	80001908	060000ef	jal	x1,80001908	  x1=0x80001908
       68525000	      6851	00000000	00000013	addi	x0,x0,0	  x0:0x00000000
       68535000	      6852	80001964	00000013	addi	x0,x0,0	  x0:0x00000000
       68545000	      6853	80001968	fd1ffe6f	jal	x28,80001968	 x28=0x80001968
       68555000	      6854	00000000	00000013	addi	x0,x0,0	  x0:0x00000000
       68565000	      6855	80001934	00000013	addi	x0,x0,0	  x0:0x00000000
       68575000	      6856	80001938	00800aef	jal	x21,80001938	 x21=0x80001938
       68585000	      6857	00000000	00000013	addi	x0,x0,0	  x0:0x00000000
       68595000	      6858	8000193c	00000013	addi	x0,x0,0	  x0:0x00000000
       68605000	      6859	80001940	fc5ff1ef	jal	x3,80001940	  x3=0x80001940
       68615000	      6860	00000000	00000013	addi	x0,x0,0	  x0:0x00000000
       68625000	      6861	80001900	00000013	addi	x0,x0,0	  x0:0x00000000
       68635000	      6862	80001904	0580016f	jal	x2,80001904	  x2=0x80001904
       68645000	      6863	00000000	00000013	addi	x0,x0,0	  x0:0x00000000
       68655000	      6864	80001958	00000013	addi	x0,x0,0	  x0:0x00000000
       68665000	      6865	8000195c	008000ef	jal	x1,8000195c	  x1=0x8000195c
       68675000	      6866	00000000	00000013	addi	x0,x0,0	  x0:0x00000000
       68685000	      6867	80001960	00000013	addi	x0,x0,0	  x0:0x00000000
       68695000	      6868	80001964	fc9ff0ef	jal	x1,80001964	  x1=0x80001964
       68705000	      6869	00000000	00000013	addi	x0,x0,0	  x0:0x00000000
       68715000	      6870	80001928	00000013	addi	x0,x0,0	  x0:0x00000000
       68725000	      6871	8000192c	020003ef	jal	x7,8000192c	  x7=0x8000192c
       68735000	      6872	00000000	00000013	addi	x0,x0,0	  x0:0x00000000
       68745000	      6873	80001948	00000013	addi	x0,x0,0	  x0:0x00000000
       68755000	      6874	8000194c	00c00d6f	jal	x26,8000194c	 x26=0x8000194c
       68765000	      6875	00000000	00000013	addi	x0,x0,0	  x0:0x00000000
       68775000	      6876	80001954	00000013	addi	x0,x0,0	  x0:0x00000000
       68785000	      6877	80001958	018005ef	jal	x11,80001958	 x11=0x80001958
       68795000	      6878	00000000	00000013	addi	x0,x0,0	  x0:0x00000000
       68805000	      6879	8000196c	00000013	addi	x0,x0,0	  x0:0x00000000
       68815000	      6880	80001970	41a48ab3	sub	x21,x9,x26	  x9:0x00000002 x26:0x8000194c x21=0x7fffe6b6
       68825000	      6881	80001974	040000ef	jal	x1,80001974	  x1=0x80001974
       68835000	      6882	00000000	00000013	addi	x0,x0,0	  x0:0x00000000
       68845000	      6883	800019b0	00000013	addi	x0,x0,0	  x0:0x00000000
       68855000	      6884	800019b4	fc9ff26f	jal	x4,800019b4	  x4=0x800019b4
       68865000	      6885	00000000	00000013	addi	x0,x0,0	  x0:0x00000000
       68875000	      6886	80001978	00000013	addi	x0,x0,0	  x0:0x00000000
       68885000	      6887	8000197c	01800f6f	jal	x30,8000197c	 x30=0x8000197c
       68895000	      6888	00000000	00000013	addi	x0,x0,0	  x0:0x00000000
       68905000	      6889	80001990	00000013	addi	x0,x0,0	  x0:0x00000000
       68915000	      6890	80001994	01c000ef	jal	x1,80001994	  x1=0x80001994
       68925000	      6891	00000000	00000013	addi	x0,x0,0	  x0:0x00000000
       68935000	      6892	800019ac	00000013	addi	x0,x0,0	  x0:0x00000000
       68945000	      6893	800019b0	ff5ff7ef	jal	x15,800019b0	 x15=0x800019b0
       68955000	      6894	00000000	00000013	addi	x0,x0,0	  x0:0x00000000
       68965000	      6895	800019a0	00000013	addi	x0,x0,0	  x0:0x00000000
       68975000	      6896	800019a4	fe9ff36f	jal	x6,800019a4	  x6=0x800019a4
       68985000	      6897	00000000	00000013	addi	x0,x0,0	  x0:0x00000000
       68995000	      6898	80001988	00000013	addi	x0,x0,0	  x0:0x00000000
       69005000	      6899	8000198c	01c0076f	jal	x14,8000198c	 x14=0x8000198c
       69015000	      6900	00000000	00000013	addi	x0,x0,0	  x0:0x00000000
       69025000	      6901	800019a4	00000013	addi	x0,x0,0	  x0:0x00000000
       69035000	      6902	800019a8	028000ef	jal	x1,800019a8	  x1=0x800019a8
       69045000	      6903	00000000	00000013	addi	x0,x0,0	  x0:0x00000000
       69055000	      6904	800019cc	00000013	addi	x0,x0,0	  x0:0x00000000
       69065000	      6905	800019d0	fb1ff0ef	jal	x1,800019d0	  x1=0x800019d0
       69075000	      6906	00000000	00000013	addi	x0,x0,0	  x0:0x00000000
       69085000	      6907	8000197c	00000013	addi	x0,x0,0	  x0:0x00000000
       69095000	      6908	80001980	0040026f	jal	x4,80001980	  x4=0x80001980
       69105000	      6909	00000000	00000013	addi	x0,x0,0	  x0:0x00000000
       69115000	      6910	80001980	00000013	addi	x0,x0,0	  x0:0x00000000
       69125000	      6911	80001984	01c000ef	jal	x1,80001984	  x1=0x80001984
       69135000	      6912	00000000	00000013	addi	x0,x0,0	  x0:0x00000000
       69145000	      6913	8000199c	00000013	addi	x0,x0,0	  x0:0x00000000
       69155000	      6914	800019a0	018000ef	jal	x1,800019a0	  x1=0x800019a0
       69165000	      6915	00000000	00000013	addi	x0,x0,0	  x0:0x00000000
       69175000	      6916	800019b4	00000013	addi	x0,x0,0	  x0:0x00000000
       69185000	      6917	800019b8	004000ef	jal	x1,800019b8	  x1=0x800019b8
       69195000	      6918	00000000	00000013	addi	x0,x0,0	  x0:0x00000000
       69205000	      6919	800019b8	00000013	addi	x0,x0,0	  x0:0x00000000
       69215000	      6920	800019bc	fddff0ef	jal	x1,800019bc	  x1=0x800019bc
       69225000	      6921	00000000	00000013	addi	x0,x0,0	  x0:0x00000000
       69235000	      6922	80001994	00000013	addi	x0,x0,0	  x0:0x00000000
       69245000	      6923	80001998	fe1ff36f	jal	x6,80001998	  x6=0x80001998
       69255000	      6924	00000000	00000013	addi	x0,x0,0	  x0:0x00000000
       69265000	      6925	80001974	00000013	addi	x0,x0,0	  x0:0x00000000
       69275000	      6926	80001978	018000ef	jal	x1,80001978	  x1=0x80001978
       69285000	      6927	00000000	00000013	addi	x0,x0,0	  x0:0x00000000
       69295000	      6928	8000198c	00000013	addi	x0,x0,0	  x0:0x00000000
       69305000	      6929	80001990	ff9ff36f	jal	x6,80001990	  x6=0x80001990
       69315000	      6930	00000000	00000013	addi	x0,x0,0	  x0:0x00000000
       69325000	      6931	80001984	00000013	addi	x0,x0,0	  x0:0x00000000
       69335000	      6932	80001988	0400036f	jal	x6,80001988	  x6=0x80001988
       69345000	      6933	00000000	00000013	addi	x0,x0,0	  x0:0x00000000
       69355000	      6934	800019c4	00000013	addi	x0,x0,0	  x0:0x00000000
       69365000	      6935	800019c8	ffdff0ef	jal	x1,800019c8	  x1=0x800019c8
       69375000	      6936	00000000	00000013	addi	x0,x0,0	  x0:0x00000000
       69385000	      6937	800019c0	00000013	addi	x0,x0,0	  x0:0x00000000
       69395000	      6938	800019c4	008000ef	jal	x1,800019c4	  x1=0x800019c4
       69405000	      6939	00000000	00000013	addi	x0,x0,0	  x0:0x00000000
       69415000	      6940	800019c8	00000013	addi	x0,x0,0	  x0:0x00000000
       69425000	      6941	800019cc	ff5ff0ef	jal	x1,800019cc	  x1=0x800019cc
       69435000	      6942	00000000	00000013	addi	x0,x0,0	  x0:0x00000000
       69445000	      6943	800019bc	00000013	addi	x0,x0,0	  x0:0x00000000
       69455000	      6944	800019c0	fddff0ef	jal	x1,800019c0	  x1=0x800019c0
       69465000	      6945	00000000	00000013	addi	x0,x0,0	  x0:0x00000000
       69475000	      6946	80001998	00000013	addi	x0,x0,0	  x0:0x00000000
       69485000	      6947	8000199c	0100036f	jal	x6,8000199c	  x6=0x8000199c
       69495000	      6948	00000000	00000013	addi	x0,x0,0	  x0:0x00000000
       69505000	      6949	800019a8	00000013	addi	x0,x0,0	  x0:0x00000000
       69515000	      6950	800019ac	028000ef	jal	x1,800019ac	  x1=0x800019ac
       69525000	      6951	00000000	00000013	addi	x0,x0,0	  x0:0x00000000
       69535000	      6952	800019d0	00000013	addi	x0,x0,0	  x0:0x00000000
       69545000	      6953	800019d4	6f974413	xori	x8,x14,1785	 x14:0x8000198c  x8=0x80001f75
       69555000	      6954	800019d8	010000ef	jal	x1,800019d8	  x1=0x800019d8
       69565000	      6955	00000000	00000013	addi	x0,x0,0	  x0:0x00000000
       69575000	      6956	800019e4	00000013	addi	x0,x0,0	  x0:0x00000000
       69585000	      6957	800019e8	020000ef	jal	x1,800019e8	  x1=0x800019e8
       69595000	      6958	00000000	00000013	addi	x0,x0,0	  x0:0x00000000
       69605000	      6959	80001a04	00000013	addi	x0,x0,0	  x0:0x00000000
       69615000	      6960	80001a08	fddff8ef	jal	x17,80001a08	 x17=0x80001a08
       69625000	      6961	00000000	00000013	addi	x0,x0,0	  x0:0x00000000
       69635000	      6962	800019e0	00000013	addi	x0,x0,0	  x0:0x00000000
       69645000	      6963	800019e4	ffdff0ef	jal	x1,800019e4	  x1=0x800019e4
       69655000	      6964	00000000	00000013	addi	x0,x0,0	  x0:0x00000000
       69665000	      6965	800019dc	00000013	addi	x0,x0,0	  x0:0x00000000
       69675000	      6966	800019e0	020000ef	jal	x1,800019e0	  x1=0x800019e0
       69685000	      6967	00000000	00000013	addi	x0,x0,0	  x0:0x00000000
       69695000	      6968	800019fc	00000013	addi	x0,x0,0	  x0:0x00000000
       69705000	      6969	80001a00	fddffaef	jal	x21,80001a00	 x21=0x80001a00
       69715000	      6970	00000000	00000013	addi	x0,x0,0	  x0:0x00000000
       69725000	      6971	800019d8	00000013	addi	x0,x0,0	  x0:0x00000000
       69735000	      6972	800019dc	0140036f	jal	x6,800019dc	  x6=0x800019dc
       69745000	      6973	00000000	00000013	addi	x0,x0,0	  x0:0x00000000
       69755000	      6974	800019ec	00000013	addi	x0,x0,0	  x0:0x00000000
       69765000	      6975	800019f0	ffdff0ef	jal	x1,800019f0	  x1=0x800019f0
       69775000	      6976	00000000	00000013	addi	x0,x0,0	  x0:0x00000000
       69785000	      6977	800019e8	00000013	addi	x0,x0,0	  x0:0x00000000
       69795000	      6978	800019ec	0080036f	jal	x6,800019ec	  x6=0x800019ec
       69805000	      6979	00000000	00000013	addi	x0,x0,0	  x0:0x00000000
       69815000	      6980	800019f0	00000013	addi	x0,x0,0	  x0:0x00000000
       69825000	      6981	800019f4	004000ef	jal	x1,800019f4	  x1=0x800019f4
       69835000	      6982	00000000	00000013	addi	x0,x0,0	  x0:0x00000000
       69845000	      6983	800019f4	00000013	addi	x0,x0,0	  x0:0x00000000
       69855000	      6984	800019f8	00c000ef	jal	x1,800019f8	  x1=0x800019f8
       69865000	      6985	00000000	00000013	addi	x0,x0,0	  x0:0x00000000
       69875000	      6986	80001a00	00000013	addi	x0,x0,0	  x0:0x00000000
       69885000	      6987	80001a04	008000ef	jal	x1,80001a04	  x1=0x80001a04
       69895000	      6988	00000000	00000013	addi	x0,x0,0	  x0:0x00000000
       69905000	      6989	80001a08	00000013	addi	x0,x0,0	  x0:0x00000000
       69915000	      6990	80001a0c	00800a6f	jal	x20,80001a0c	 x20=0x80001a0c
       69925000	      6991	00000000	00000013	addi	x0,x0,0	  x0:0x00000000
       69935000	      6992	80001a10	00000013	addi	x0,x0,0	  x0:0x00000000
       69945000	      6993	80001a14	fe9ff36f	jal	x6,80001a14	  x6=0x80001a14
       69955000	      6994	00000000	00000013	addi	x0,x0,0	  x0:0x00000000
       69965000	      6995	800019f8	00000013	addi	x0,x0,0	  x0:0x00000000
       69975000	      6996	800019fc	014000ef	jal	x1,800019fc	  x1=0x800019fc
       69985000	      6997	00000000	00000013	addi	x0,x0,0	  x0:0x00000000
       69995000	      6998	80001a0c	00000013	addi	x0,x0,0	  x0:0x00000000
       70005000	      6999	80001a10	0080036f	jal	x6,80001a10	  x6=0x80001a10
       70015000	      7000	00000000	00000013	addi	x0,x0,0	  x0:0x00000000
       70025000	      7001	80001a14	00000013	addi	x0,x0,0	  x0:0x00000000
       70035000	      7002	80001a18	0045c7b3	xor	x15,x11,x4	 x11:0x80001958  x4:0x80001980 x15=0x000000d8
       70045000	      7003	80001a1c	050000ef	jal	x1,80001a1c	  x1=0x80001a1c
       70055000	      7004	00000000	00000013	addi	x0,x0,0	  x0:0x00000000
       70065000	      7005	80001a68	00000013	addi	x0,x0,0	  x0:0x00000000
       70075000	      7006	80001a6c	ff5ff36f	jal	x6,80001a6c	  x6=0x80001a6c
       70085000	      7007	00000000	00000013	addi	x0,x0,0	  x0:0x00000000
       70095000	      7008	80001a5c	00000013	addi	x0,x0,0	  x0:0x00000000
       70105000	      7009	80001a60	fddff16f	jal	x2,80001a60	  x2=0x80001a60
       70115000	      7010	00000000	00000013	addi	x0,x0,0	  x0:0x00000000
       70125000	      7011	80001a38	00000013	addi	x0,x0,0	  x0:0x00000000
       70135000	      7012	80001a3c	ffdff0ef	jal	x1,80001a3c	  x1=0x80001a3c
       70145000	      7013	00000000	00000013	addi	x0,x0,0	  x0:0x00000000
       70155000	      7014	80001a34	00000013	addi	x0,x0,0	  x0:0x00000000
       70165000	      7015	80001a38	030000ef	jal	x1,80001a38	  x1=0x80001a38
       70175000	      7016	00000000	00000013	addi	x0,x0,0	  x0:0x00000000
       70185000	      7017	80001a64	00000013	addi	x0,x0,0	  x0:0x00000000
       70195000	      7018	80001a68	fe9ff0ef	jal	x1,80001a68	  x1=0x80001a68
       70205000	      7019	00000000	00000013	addi	x0,x0,0	  x0:0x00000000
       70215000	      7020	80001a4c	00000013	addi	x0,x0,0	  x0:0x00000000
       70225000	      7021	80001a50	fd9ff0ef	jal	x1,80001a50	  x1=0x80001a50
       70235000	      7022	00000000	00000013	addi	x0,x0,0	  x0:0x00000000
       70245000	      7023	80001a24	00000013	addi	x0,x0,0	  x0:0x00000000
       70255000	      7024	80001a28	ff9ff0ef	jal	x1,80001a28	  x1=0x80001a28
       70265000	      7025	00000000	00000013	addi	x0,x0,0	  x0:0x00000000
       70275000	      7026	80001a1c	00000013	addi	x0,x0,0	  x0:0x00000000
       70285000	      7027	80001a20	03400f6f	jal	x30,80001a20	 x30=0x80001a20
       70295000	      7028	00000000	00000013	addi	x0,x0,0	  x0:0x00000000
       70305000	      7029	80001a50	00000013	addi	x0,x0,0	  x0:0x00000000
       70315000	      7030	80001a54	fe1ff0ef	jal	x1,80001a54	  x1=0x80001a54
       70325000	      7031	00000000	00000013	addi	x0,x0,0	  x0:0x00000000
       70335000	      7032	80001a30	00000013	addi	x0,x0,0	  x0:0x00000000
       70345000	      7033	80001a34	0180036f	jal	x6,80001a34	  x6=0x80001a34
       70355000	      7034	00000000	00000013	addi	x0,x0,0	  x0:0x00000000
       70365000	      7035	80001a48	00000013	addi	x0,x0,0	  x0:0x00000000
       70375000	      7036	80001a4c	fd9ff0ef	jal	x1,80001a4c	  x1=0x80001a4c
       70385000	      7037	00000000	00000013	addi	x0,x0,0	  x0:0x00000000
       70395000	      7038	80001a20	00000013	addi	x0,x0,0	  x0:0x00000000
       70405000	      7039	80001a24	0500036f	jal	x6,80001a24	  x6=0x80001a24
       70415000	      7040	00000000	00000013	addi	x0,x0,0	  x0:0x00000000
       70425000	      7041	80001a70	00000013	addi	x0,x0,0	  x0:0x00000000
       70435000	      7042	80001a74	fd5ff0ef	jal	x1,80001a74	  x1=0x80001a74
       70445000	      7043	00000000	00000013	addi	x0,x0,0	  x0:0x00000000
       70455000	      7044	80001a44	00000013	addi	x0,x0,0	  x0:0x00000000
       70465000	      7045	80001a48	fe5ff0ef	jal	x1,80001a48	  x1=0x80001a48
       70475000	      7046	00000000	00000013	addi	x0,x0,0	  x0:0x00000000
       70485000	      7047	80001a28	00000013	addi	x0,x0,0	  x0:0x00000000
       70495000	      7048	80001a2c	0140016f	jal	x2,80001a2c	  x2=0x80001a2c
       70505000	      7049	00000000	00000013	addi	x0,x0,0	  x0:0x00000000
       70515000	      7050	80001a3c	00000013	addi	x0,x0,0	  x0:0x00000000
       70525000	      7051	80001a40	03800f6f	jal	x30,80001a40	 x30=0x80001a40
       70535000	      7052	00000000	00000013	addi	x0,x0,0	  x0:0x00000000
       70545000	      7053	80001a74	00000013	addi	x0,x0,0	  x0:0x00000000
       70555000	      7054	80001a78	fcdff36f	jal	x6,80001a78	  x6=0x80001a78
       70565000	      7055	00000000	00000013	addi	x0,x0,0	  x0:0x00000000
       70575000	      7056	80001a40	00000013	addi	x0,x0,0	  x0:0x00000000
       70585000	      7057	80001a44	018000ef	jal	x1,80001a44	  x1=0x80001a44
       70595000	      7058	00000000	00000013	addi	x0,x0,0	  x0:0x00000000
       70605000	      7059	80001a58	00000013	addi	x0,x0,0	  x0:0x00000000
       70615000	      7060	80001a5c	ffdff36f	jal	x6,80001a5c	  x6=0x80001a5c
       70625000	      7061	00000000	00000013	addi	x0,x0,0	  x0:0x00000000
       70635000	      7062	80001a54	00000013	addi	x0,x0,0	  x0:0x00000000
       70645000	      7063	80001a58	fd9ff0ef	jal	x1,80001a58	  x1=0x80001a58
       70655000	      7064	00000000	00000013	addi	x0,x0,0	  x0:0x00000000
       70665000	      7065	80001a2c	00000013	addi	x0,x0,0	  x0:0x00000000
       70675000	      7066	80001a30	040009ef	jal	x19,80001a30	 x19=0x80001a30
       70685000	      7067	00000000	00000013	addi	x0,x0,0	  x0:0x00000000
       70695000	      7068	80001a6c	00000013	addi	x0,x0,0	  x0:0x00000000
       70705000	      7069	80001a70	ff5ff0ef	jal	x1,80001a70	  x1=0x80001a70
       70715000	      7070	00000000	00000013	addi	x0,x0,0	  x0:0x00000000
       70725000	      7071	80001a60	00000013	addi	x0,x0,0	  x0:0x00000000
       70735000	      7072	80001a64	0180036f	jal	x6,80001a64	  x6=0x80001a64
       70745000	      7073	00000000	00000013	addi	x0,x0,0	  x0:0x00000000
       70755000	      7074	80001a78	00000013	addi	x0,x0,0	  x0:0x00000000
       70765000	      7075	80001a7c	00bf78b3	and	x17,x30,x11	 x30:0x80001a40 x11:0x80001958 x17=0x80001840
       70775000	      7076	80001a80	00c000ef	jal	x1,80001a80	  x1=0x80001a80
       70785000	      7077	00000000	00000013	addi	x0,x0,0	  x0:0x00000000
       70795000	      7078	80001a88	00000013	addi	x0,x0,0	  x0:0x00000000
       70805000	      7079	80001a8c	01c0076f	jal	x14,80001a8c	 x14=0x80001a8c
       70815000	      7080	00000000	00000013	addi	x0,x0,0	  x0:0x00000000
       70825000	      7081	80001aa4	00000013	addi	x0,x0,0	  x0:0x00000000
       70835000	      7082	80001aa8	008000ef	jal	x1,80001aa8	  x1=0x80001aa8
       70845000	      7083	00000000	00000013	addi	x0,x0,0	  x0:0x00000000
       70855000	      7084	80001aac	00000013	addi	x0,x0,0	  x0:0x00000000
       70865000	      7085	80001ab0	fe5ff36f	jal	x6,80001ab0	  x6=0x80001ab0
       70875000	      7086	00000000	00000013	addi	x0,x0,0	  x0:0x00000000
       70885000	      7087	80001a90	00000013	addi	x0,x0,0	  x0:0x00000000
       70895000	      7088	80001a94	0200036f	jal	x6,80001a94	  x6=0x80001a94
       70905000	      7089	00000000	00000013	addi	x0,x0,0	  x0:0x00000000
       70915000	      7090	80001ab0	00000013	addi	x0,x0,0	  x0:0x00000000
       70925000	      7091	80001ab4	018000ef	jal	x1,80001ab4	  x1=0x80001ab4
       70935000	      7092	00000000	00000013	addi	x0,x0,0	  x0:0x00000000
       70945000	      7093	80001ac8	00000013	addi	x0,x0,0	  x0:0x00000000
       70955000	      7094	80001acc	fb9ff0ef	jal	x1,80001acc	  x1=0x80001acc
       70965000	      7095	00000000	00000013	addi	x0,x0,0	  x0:0x00000000
       70975000	      7096	80001a80	00000013	addi	x0,x0,0	  x0:0x00000000
       70985000	      7097	80001a84	0340036f	jal	x6,80001a84	  x6=0x80001a84
       70995000	      7098	00000000	00000013	addi	x0,x0,0	  x0:0x00000000
       71005000	      7099	80001ab4	00000013	addi	x0,x0,0	  x0:0x00000000
       71015000	      7100	80001ab8	fe9ff0ef	jal	x1,80001ab8	  x1=0x80001ab8
       71025000	      7101	00000000	00000013	addi	x0,x0,0	  x0:0x00000000
       71035000	      7102	80001a9c	00000013	addi	x0,x0,0	  x0:0x00000000
       71045000	      7103	80001aa0	ffdff36f	jal	x6,80001aa0	  x6=0x80001aa0
       71055000	      7104	00000000	00000013	addi	x0,x0,0	  x0:0x00000000
       71065000	      7105	80001a98	00000013	addi	x0,x0,0	  x0:0x00000000
       71075000	      7106	80001a9c	02c000ef	jal	x1,80001a9c	  x1=0x80001a9c
       71085000	      7107	00000000	00000013	addi	x0,x0,0	  x0:0x00000000
       71095000	      7108	80001ac4	00000013	addi	x0,x0,0	  x0:0x00000000
       71105000	      7109	80001ac8	ff5ff9ef	jal	x19,80001ac8	 x19=0x80001ac8
       71115000	      7110	00000000	00000013	addi	x0,x0,0	  x0:0x00000000
       71125000	      7111	80001ab8	00000013	addi	x0,x0,0	  x0:0x00000000
       71135000	      7112	80001abc	fe9fff6f	jal	x30,80001abc	 x30=0x80001abc
       71145000	      7113	00000000	00000013	addi	x0,x0,0	  x0:0x00000000
       71155000	      7114	80001aa0	00000013	addi	x0,x0,0	  x0:0x00000000
       71165000	      7115	80001aa4	01c000ef	jal	x1,80001aa4	  x1=0x80001aa4
       71175000	      7116	00000000	00000013	addi	x0,x0,0	  x0:0x00000000
       71185000	      7117	80001abc	00000013	addi	x0,x0,0	  x0:0x00000000
       71195000	      7118	80001ac0	0040026f	jal	x4,80001ac0	  x4=0x80001ac0
       71205000	      7119	00000000	00000013	addi	x0,x0,0	  x0:0x00000000
       71215000	      7120	80001ac0	00000013	addi	x0,x0,0	  x0:0x00000000
       71225000	      7121	80001ac4	fc5ff2ef	jal	x5,80001ac4	  x5=0x80001ac4
       71235000	      7122	00000000	00000013	addi	x0,x0,0	  x0:0x00000000
       71245000	      7123	80001a84	00000013	addi	x0,x0,0	  x0:0x00000000
       71255000	      7124	80001a88	010000ef	jal	x1,80001a88	  x1=0x80001a88
       71265000	      7125	00000000	00000013	addi	x0,x0,0	  x0:0x00000000
       71275000	      7126	80001a94	00000013	addi	x0,x0,0	  x0:0x00000000
       71285000	      7127	80001a98	014000ef	jal	x1,80001a98	  x1=0x80001a98
       71295000	      7128	00000000	00000013	addi	x0,x0,0	  x0:0x00000000
       71305000	      7129	80001aa8	00000013	addi	x0,x0,0	  x0:0x00000000
       71315000	      7130	80001aac	fe5ff36f	jal	x6,80001aac	  x6=0x80001aac
       71325000	      7131	00000000	00000013	addi	x0,x0,0	  x0:0x00000000
       71335000	      7132	80001a8c	00000013	addi	x0,x0,0	  x0:0x00000000
       71345000	      7133	80001a90	040000ef	jal	x1,80001a90	  x1=0x80001a90
       71355000	      7134	00000000	00000013	addi	x0,x0,0	  x0:0x00000000
       71365000	      7135	80001acc	00000013	addi	x0,x0,0	  x0:0x00000000
       71375000	      7136	80001ad0	4cd37493	andi	x9,x6,1229	  x6:0x80001aac  x9=0x0000008c
       71385000	      7137	80001ad4	010000ef	jal	x1,80001ad4	  x1=0x80001ad4
       71395000	      7138	00000000	00000013	addi	x0,x0,0	  x0:0x00000000
       71405000	      7139	80001ae0	00000013	addi	x0,x0,0	  x0:0x00000000
       71415000	      7140	80001ae4	0180036f	jal	x6,80001ae4	  x6=0x80001ae4
       71425000	      7141	00000000	00000013	addi	x0,x0,0	  x0:0x00000000
       71435000	      7142	80001af8	00000013	addi	x0,x0,0	  x0:0x00000000
       71445000	      7143	80001afc	ffdffc6f	jal	x24,80001afc	 x24=0x80001afc
       71455000	      7144	00000000	00000013	addi	x0,x0,0	  x0:0x00000000
       71465000	      7145	80001af4	00000013	addi	x0,x0,0	  x0:0x00000000
       71475000	      7146	80001af8	018000ef	jal	x1,80001af8	  x1=0x80001af8
       71485000	      7147	00000000	00000013	addi	x0,x0,0	  x0:0x00000000
       71495000	      7148	80001b0c	00000013	addi	x0,x0,0	  x0:0x00000000
       71505000	      7149	80001b10	ff5ffcef	jal	x25,80001b10	 x25=0x80001b10
       71515000	      7150	00000000	00000013	addi	x0,x0,0	  x0:0x00000000
       71525000	      7151	80001b00	00000013	addi	x0,x0,0	  x0:0x00000000
       71535000	      7152	80001b04	fddff0ef	jal	x1,80001b04	  x1=0x80001b04
       71545000	      7153	00000000	00000013	addi	x0,x0,0	  x0:0x00000000
       71555000	      7154	80001adc	00000013	addi	x0,x0,0	  x0:0x00000000
       71565000	      7155	80001ae0	02c0036f	jal	x6,80001ae0	  x6=0x80001ae0
       71575000	      7156	00000000	00000013	addi	x0,x0,0	  x0:0x00000000
       71585000	      7157	80001b08	00000013	addi	x0,x0,0	  x0:0x00000000
       71595000	      7158	80001b0c	ff5ff0ef	jal	x1,80001b0c	  x1=0x80001b0c
       71605000	      7159	00000000	00000013	addi	x0,x0,0	  x0:0x00000000
       71615000	      7160	80001afc	00000013	addi	x0,x0,0	  x0:0x00000000
       71625000	      7161	80001b00	fedff46f	jal	x8,80001b00	  x8=0x80001b00
       71635000	      7162	00000000	00000013	addi	x0,x0,0	  x0:0x00000000
       71645000	      7163	80001ae8	00000013	addi	x0,x0,0	  x0:0x00000000
       71655000	      7164	80001aec	ffdff36f	jal	x6,80001aec	  x6=0x80001aec
       71665000	      7165	00000000	00000013	addi	x0,x0,0	  x0:0x00000000
       71675000	      7166	80001ae4	00000013	addi	x0,x0,0	  x0:0x00000000
       71685000	      7167	80001ae8	ff1ff16f	jal	x2,80001ae8	  x2=0x80001ae8
       71695000	      7168	00000000	00000013	addi	x0,x0,0	  x0:0x00000000
       71705000	      7169	80001ad4	00000013	addi	x0,x0,0	  x0:0x00000000
       71715000	      7170	80001ad8	040000ef	jal	x1,80001ad8	  x1=0x80001ad8
       71725000	      7171	00000000	00000013	addi	x0,x0,0	  x0:0x00000000
       71735000	      7172	80001b14	00000013	addi	x0,x0,0	  x0:0x00000000
       71745000	      7173	80001b18	ff1ff9ef	jal	x19,80001b18	 x19=0x80001b18
       71755000	      7174	00000000	00000013	addi	x0,x0,0	  x0:0x00000000
       71765000	      7175	80001b04	00000013	addi	x0,x0,0	  x0:0x00000000
       71775000	      7176	80001b08	fedff0ef	jal	x1,80001b08	  x1=0x80001b08
       71785000	      7177	00000000	00000013	addi	x0,x0,0	  x0:0x00000000
       71795000	      7178	80001af0	00000013	addi	x0,x0,0	  x0:0x00000000
       71805000	      7179	80001af4	020001ef	jal	x3,80001af4	  x3=0x80001af4
       71815000	      7180	00000000	00000013	addi	x0,x0,0	  x0:0x00000000
       71825000	      7181	80001b10	00000013	addi	x0,x0,0	  x0:0x00000000
       71835000	      7182	80001b14	fddff46f	jal	x8,80001b14	  x8=0x80001b14
       71845000	      7183	00000000	00000013	addi	x0,x0,0	  x0:0x00000000
       71855000	      7184	80001aec	00000013	addi	x0,x0,0	  x0:0x00000000
       71865000	      7185	80001af0	fedff26f	jal	x4,80001af0	  x4=0x80001af0
       71875000	      7186	00000000	00000013	addi	x0,x0,0	  x0:0x00000000
       71885000	      7187	80001ad8	00000013	addi	x0,x0,0	  x0:0x00000000
       71895000	      7188	80001adc	0400036f	jal	x6,80001adc	  x6=0x80001adc
       71905000	      7189	00000000	00000013	addi	x0,x0,0	  x0:0x00000000
       71915000	      7190	80001b18	00000013	addi	x0,x0,0	  x0:0x00000000
       71925000	      7191	80001b1c	00c1aa33	slt	x20,x3,x12	  x3:0x80001af4 x12:0x000000c3 x20=0x00000001
       71935000	      7192	80001b20	03c000ef	jal	x1,80001b20	  x1=0x80001b20
       71945000	      7193	00000000	00000013	addi	x0,x0,0	  x0:0x00000000
       71955000	      7194	80001b58	00000013	addi	x0,x0,0	  x0:0x00000000
       71965000	      7195	80001b5c	00c0026f	jal	x4,80001b5c	  x4=0x80001b5c
       71975000	      7196	00000000	00000013	addi	x0,x0,0	  x0:0x00000000
       71985000	      7197	80001b64	00000013	addi	x0,x0,0	  x0:0x00000000
       71995000	      7198	80001b68	ff1ff0ef	jal	x1,80001b68	  x1=0x80001b68
       72005000	      7199	00000000	00000013	addi	x0,x0,0	  x0:0x00000000
       72015000	      7200	80001b54	00000013	addi	x0,x0,0	  x0:0x00000000
       72025000	      7201	80001b58	00c00a6f	jal	x20,80001b58	 x20=0x80001b58
       72035000	      7202	00000000	00000013	addi	x0,x0,0	  x0:0x00000000
       72045000	      7203	80001b60	00000013	addi	x0,x0,0	  x0:0x00000000
       72055000	      7204	80001b64	008000ef	jal	x1,80001b64	  x1=0x80001b64
       72065000	      7205	00000000	00000013	addi	x0,x0,0	  x0:0x00000000
       72075000	      7206	80001b68	00000013	addi	x0,x0,0	  x0:0x00000000
       72085000	      7207	80001b6c	014000ef	jal	x1,80001b6c	  x1=0x80001b6c
       72095000	      7208	00000000	00000013	addi	x0,x0,0	  x0:0x00000000
       72105000	      7209	80001b7c	00000013	addi	x0,x0,0	  x0:0x00000000
       72115000	      7210	80001b80	fc9ff0ef	jal	x1,80001b80	  x1=0x80001b80
       72125000	      7211	00000000	00000013	addi	x0,x0,0	  x0:0x00000000
       72135000	      7212	80001b44	00000013	addi	x0,x0,0	  x0:0x00000000
       72145000	      7213	80001b48	fe9ffd6f	jal	x26,80001b48	 x26=0x80001b48
       72155000	      7214	00000000	00000013	addi	x0,x0,0	  x0:0x00000000
       72165000	      7215	80001b2c	00000013	addi	x0,x0,0	  x0:0x00000000
       72175000	      7216	80001b30	044000ef	jal	x1,80001b30	  x1=0x80001b30
       72185000	      7217	00000000	00000013	addi	x0,x0,0	  x0:0x00000000
       72195000	      7218	80001b70	00000013	addi	x0,x0,0	  x0:0x00000000
       72205000	      7219	80001b74	fe1ff0ef	jal	x1,80001b74	  x1=0x80001b74
       72215000	      7220	00000000	00000013	addi	x0,x0,0	  x0:0x00000000
       72225000	      7221	80001b50	00000013	addi	x0,x0,0	  x0:0x00000000
       72235000	      7222	80001b54	fe1ff86f	jal	x16,80001b54	 x16=0x80001b54
       72245000	      7223	00000000	00000013	addi	x0,x0,0	  x0:0x00000000
       72255000	      7224	80001b30	00000013	addi	x0,x0,0	  x0:0x00000000
       72265000	      7225	80001b34	02c002ef	jal	x5,80001b34	  x5=0x80001b34
       72275000	      7226	00000000	00000013	addi	x0,x0,0	  x0:0x00000000
       72285000	      7227	80001b5c	00000013	addi	x0,x0,0	  x0:0x00000000
       72295000	      7228	80001b60	01c008ef	jal	x17,80001b60	 x17=0x80001b60
       72305000	      7229	00000000	00000013	addi	x0,x0,0	  x0:0x00000000
       72315000	      7230	80001b78	00000013	addi	x0,x0,0	  x0:0x00000000
       72325000	      7231	80001b7c	fd1ff0ef	jal	x1,80001b7c	  x1=0x80001b7c
       72335000	      7232	00000000	00000013	addi	x0,x0,0	  x0:0x00000000
       72345000	      7233	80001b48	00000013	addi	x0,x0,0	  x0:0x00000000
       72355000	      7234	80001b4c	ff9ff0ef	jal	x1,80001b4c	  x1=0x80001b4c
       72365000	      7235	00000000	00000013	addi	x0,x0,0	  x0:0x00000000
       72375000	      7236	80001b40	00000013	addi	x0,x0,0	  x0:0x00000000
       72385000	      7237	80001b44	040000ef	jal	x1,80001b44	  x1=0x80001b44
       72395000	      7238	00000000	00000013	addi	x0,x0,0	  x0:0x00000000
       72405000	      7239	80001b80	00000013	addi	x0,x0,0	  x0:0x00000000
       72415000	      7240	80001b84	fb9ff2ef	jal	x5,80001b84	  x5=0x80001b84
       72425000	      7241	00000000	00000013	addi	x0,x0,0	  x0:0x00000000
       72435000	      7242	80001b38	00000013	addi	x0,x0,0	  x0:0x00000000
       72445000	      7243	80001b3c	fedff2ef	jal	x5,80001b3c	  x5=0x80001b3c
       72455000	      7244	00000000	00000013	addi	x0,x0,0	  x0:0x00000000
       72465000	      7245	80001b24	00000013	addi	x0,x0,0	  x0:0x00000000
       72475000	      7246	80001b28	048000ef	jal	x1,80001b28	  x1=0x80001b28
       72485000	      7247	00000000	00000013	addi	x0,x0,0	  x0:0x00000000
       72495000	      7248	80001b6c	00000013	addi	x0,x0,0	  x0:0x00000000
       72505000	      7249	80001b70	fb5ffe6f	jal	x28,80001b70	 x28=0x80001b70
       72515000	      7250	00000000	00000013	addi	x0,x0,0	  x0:0x00000000
       72525000	      7251	80001b20	00000013	addi	x0,x0,0	  x0:0x00000000
       72535000	      7252	80001b24	014000ef	jal	x1,80001b24	  x1=0x80001b24
       72545000	      7253	00000000	00000013	addi	x0,x0,0	  x0:0x00000000
       72555000	      7254	80001b34	00000013	addi	x0,x0,0	  x0:0x00000000
       72565000	      7255	80001b38	008001ef	jal	x3,80001b38	  x3=0x80001b38
       72575000	      7256	00000000	00000013	addi	x0,x0,0	  x0:0x00000000
       72585000	      7257	80001b3c	00000013	addi	x0,x0,0	  x0:0x00000000
       72595000	      7258	80001b40	010002ef	jal	x5,80001b40	  x5=0x80001b40
       72605000	      7259	00000000	00000013	addi	x0,x0,0	  x0:0x00000000
       72615000	      7260	80001b4c	00000013	addi	x0,x0,0	  x0:0x00000000
       72625000	      7261	80001b50	028000ef	jal	x1,80001b50	  x1=0x80001b50
       72635000	      7262	00000000	00000013	addi	x0,x0,0	  x0:0x00000000
       72645000	      7263	80001b74	00000013	addi	x0,x0,0	  x0:0x00000000
       72655000	      7264	80001b78	fb5ff3ef	jal	x7,80001b78	  x7=0x80001b78
       72665000	      7265	00000000	00000013	addi	x0,x0,0	  x0:0x00000000
       72675000	      7266	80001b28	00000013	addi	x0,x0,0	  x0:0x00000000
       72685000	      7267	80001b2c	05c000ef	jal	x1,80001b2c	  x1=0x80001b2c
       72695000	      7268	00000000	00000013	addi	x0,x0,0	  x0:0x00000000
       72705000	      7269	80001b84	00000013	addi	x0,x0,0	  x0:0x00000000
       72715000	      7270	80001b88	00537033	and	x0,x6,x5	  x6:0x80001adc  x5:0x80001b40
       72725000	      7271	80001b8c	024000ef	jal	x1,80001b8c	  x1=0x80001b8c
       72735000	      7272	00000000	00000013	addi	x0,x0,0	  x0:0x00000000
       72745000	      7273	80001bac	00000013	addi	x0,x0,0	  x0:0x00000000
       72755000	      7274	80001bb0	03c000ef	jal	x1,80001bb0	  x1=0x80001bb0
       72765000	      7275	00000000	00000013	addi	x0,x0,0	  x0:0x00000000
       72775000	      7276	80001be8	00000013	addi	x0,x0,0	  x0:0x00000000
       72785000	      7277	80001bec	ffdff36f	jal	x6,80001bec	  x6=0x80001bec
       72795000	      7278	00000000	00000013	addi	x0,x0,0	  x0:0x00000000
       72805000	      7279	80001be4	00000013	addi	x0,x0,0	  x0:0x00000000
       72815000	      7280	80001be8	fcdff36f	jal	x6,80001be8	  x6=0x80001be8
       72825000	      7281	00000000	00000013	addi	x0,x0,0	  x0:0x00000000
       72835000	      7282	80001bb0	00000013	addi	x0,x0,0	  x0:0x00000000
       72845000	      7283	80001bb4	fedff0ef	jal	x1,80001bb4	  x1=0x80001bb4
       72855000	      7284	00000000	00000013	addi	x0,x0,0	  x0:0x00000000
       72865000	      7285	80001b9c	00000013	addi	x0,x0,0	  x0:0x00000000
       72875000	      7286	80001ba0	ff1ff36f	jal	x6,80001ba0	  x6=0x80001ba0
       72885000	      7287	00000000	00000013	addi	x0,x0,0	  x0:0x00000000
       72895000	      7288	80001b8c	00000013	addi	x0,x0,0	  x0:0x00000000
       72905000	      7289	80001b90	0180036f	jal	x6,80001b90	  x6=0x80001b90
       72915000	      7290	00000000	00000013	addi	x0,x0,0	  x0:0x00000000
       72925000	      7291	80001ba4	00000013	addi	x0,x0,0	  x0:0x00000000
       72935000	      7292	80001ba8	03c0016f	jal	x2,80001ba8	  x2=0x80001ba8
       72945000	      7293	00000000	00000013	addi	x0,x0,0	  x0:0x00000000
       72955000	      7294	80001be0	00000013	addi	x0,x0,0	  x0:0x00000000
       72965000	      7295	80001be4	fc9ff36f	jal	x6,80001be4	  x6=0x80001be4
       72975000	      7296	00000000	00000013	addi	x0,x0,0	  x0:0x00000000
       72985000	      7297	80001ba8	00000013	addi	x0,x0,0	  x0:0x00000000
       72995000	      7298	80001bac	fedff0ef	jal	x1,80001bac	  x1=0x80001bac
       73005000	      7299	00000000	00000013	addi	x0,x0,0	  x0:0x00000000
       73015000	      7300	80001b94	00000013	addi	x0,x0,0	  x0:0x00000000
       73025000	      7301	80001b98	05c0036f	jal	x6,80001b98	  x6=0x80001b98
       73035000	      7302	00000000	00000013	addi	x0,x0,0	  x0:0x00000000
       73045000	      7303	80001bf0	00000013	addi	x0,x0,0	  x0:0x00000000
       73055000	      7304	80001bf4	fa1ff0ef	jal	x1,80001bf4	  x1=0x80001bf4
       73065000	      7305	00000000	00000013	addi	x0,x0,0	  x0:0x00000000
       73075000	      7306	80001b90	00000013	addi	x0,x0,0	  x0:0x00000000
       73085000	      7307	80001b94	0400026f	jal	x4,80001b94	  x4=0x80001b94
       73095000	      7308	00000000	00000013	addi	x0,x0,0	  x0:0x00000000
       73105000	      7309	80001bd0	00000013	addi	x0,x0,0	  x0:0x00000000
       73115000	      7310	80001bd4	ff5ff0ef	jal	x1,80001bd4	  x1=0x80001bd4
       73125000	      7311	00000000	00000013	addi	x0,x0,0	  x0:0x00000000
       73135000	      7312	80001bc4	00000013	addi	x0,x0,0	  x0:0x00000000
       73145000	      7313	80001bc8	008000ef	jal	x1,80001bc8	  x1=0x80001bc8
       73155000	      7314	00000000	00000013	addi	x0,x0,0	  x0:0x00000000
       73165000	      7315	80001bcc	00000013	addi	x0,x0,0	  x0:0x00000000
       73175000	      7316	80001bd0	fe9ff0ef	jal	x1,80001bd0	  x1=0x80001bd0
       73185000	      7317	00000000	00000013	addi	x0,x0,0	  x0:0x00000000
       73195000	      7318	80001bb4	00000013	addi	x0,x0,0	  x0:0x00000000
       73205000	      7319	80001bb8	0040046f	jal	x8,80001bb8	  x8=0x80001bb8
       73215000	      7320	00000000	00000013	addi	x0,x0,0	  x0:0x00000000
       73225000	      7321	80001bb8	00000013	addi	x0,x0,0	  x0:0x00000000
       73235000	      7322	80001bbc	01000cef	jal	x25,80001bbc	 x25=0x80001bbc
       73245000	      7323	00000000	00000013	addi	x0,x0,0	  x0:0x00000000
       73255000	      7324	80001bc8	00000013	addi	x0,x0,0	  x0:0x00000000
       73265000	      7325	80001bcc	010000ef	jal	x1,80001bcc	  x1=0x80001bcc
       73275000	      7326	00000000	00000013	addi	x0,x0,0	  x0:0x00000000
       73285000	      7327	80001bd8	00000013	addi	x0,x0,0	  x0:0x00000000
       73295000	      7328	80001bdc	014000ef	jal	x1,80001bdc	  x1=0x80001bdc
       73305000	      7329	00000000	00000013	addi	x0,x0,0	  x0:0x00000000
       73315000	      7330	80001bec	00000013	addi	x0,x0,0	  x0:0x00000000
       73325000	      7331	80001bf0	fd1ff0ef	jal	x1,80001bf0	  x1=0x80001bf0
       73335000	      7332	00000000	00000013	addi	x0,x0,0	  x0:0x00000000
       73345000	      7333	80001bbc	00000013	addi	x0,x0,0	  x0:0x00000000
       73355000	      7334	80001bc0	fe5ff0ef	jal	x1,80001bc0	  x1=0x80001bc0
       73365000	      7335	00000000	00000013	addi	x0,x0,0	  x0:0x00000000
       73375000	      7336	80001ba0	00000013	addi	x0,x0,0	  x0:0x00000000
       73385000	      7337	80001ba4	03c000ef	jal	x1,80001ba4	  x1=0x80001ba4
       73395000	      7338	00000000	00000013	addi	x0,x0,0	  x0:0x00000000
       73405000	      7339	80001bdc	00000013	addi	x0,x0,0	  x0:0x00000000
       73415000	      7340	80001be0	ff9ff0ef	jal	x1,80001be0	  x1=0x80001be0
       73425000	      7341	00000000	00000013	addi	x0,x0,0	  x0:0x00000000
       73435000	      7342	80001bd4	00000013	addi	x0,x0,0	  x0:0x00000000
       73445000	      7343	80001bd8	fc5ffa6f	jal	x20,80001bd8	 x20=0x80001bd8
       73455000	      7344	00000000	00000013	addi	x0,x0,0	  x0:0x00000000
       73465000	      7345	80001b98	00000013	addi	x0,x0,0	  x0:0x00000000
       73475000	      7346	80001b9c	0280026f	jal	x4,80001b9c	  x4=0x80001b9c
       73485000	      7347	00000000	00000013	addi	x0,x0,0	  x0:0x00000000
       73495000	      7348	80001bc0	00000013	addi	x0,x0,0	  x0:0x00000000
       73505000	      7349	80001bc4	0340026f	jal	x4,80001bc4	  x4=0x80001bc4
       73515000	      7350	00000000	00000013	addi	x0,x0,0	  x0:0x00000000
       73525000	      7351	80001bf4	00000013	addi	x0,x0,0	  x0:0x00000000
       73535000	      7352	80001bf8	41f0d793	srai	x15,x1,0x1f	  x1:0x80001be0 x15=0xffffffff
       73545000	      7353	80001bfc	014000ef	jal	x1,80001bfc	  x1=0x80001bfc
       73555000	      7354	00000000	00000013	addi	x0,x0,0	  x0:0x00000000
       73565000	      7355	80001c0c	00000013	addi	x0,x0,0	  x0:0x00000000
       73575000	      7356	80001c10	ff1ff0ef	jal	x1,80001c10	  x1=0x80001c10
       73585000	      7357	00000000	00000013	addi	x0,x0,0	  x0:0x00000000
       73595000	      7358	80001bfc	00000013	addi	x0,x0,0	  x0:0x00000000
       73605000	      7359	80001c00	008000ef	jal	x1,80001c00	  x1=0x80001c00
       73615000	      7360	00000000	00000013	addi	x0,x0,0	  x0:0x00000000
       73625000	      7361	80001c04	00000013	addi	x0,x0,0	  x0:0x00000000
       73635000	      7362	80001c08	018000ef	jal	x1,80001c08	  x1=0x80001c08
       73645000	      7363	00000000	00000013	addi	x0,x0,0	  x0:0x00000000
       73655000	      7364	80001c1c	00000013	addi	x0,x0,0	  x0:0x00000000
       73665000	      7365	80001c20	fedff36f	jal	x6,80001c20	  x6=0x80001c20
       73675000	      7366	00000000	00000013	addi	x0,x0,0	  x0:0x00000000
       73685000	      7367	80001c08	00000013	addi	x0,x0,0	  x0:0x00000000
       73695000	      7368	80001c0c	00c000ef	jal	x1,80001c0c	  x1=0x80001c0c
       73705000	      7369	00000000	00000013	addi	x0,x0,0	  x0:0x00000000
       73715000	      7370	80001c14	00000013	addi	x0,x0,0	  x0:0x00000000
       73725000	      7371	80001c18	fedff5ef	jal	x11,80001c18	 x11=0x80001c18
       73735000	      7372	00000000	00000013	addi	x0,x0,0	  x0:0x00000000
       73745000	      7373	80001c00	00000013	addi	x0,x0,0	  x0:0x00000000
       73755000	      7374	80001c04	0100036f	jal	x6,80001c04	  x6=0x80001c04
       73765000	      7375	00000000	00000013	addi	x0,x0,0	  x0:0x00000000
       73775000	      7376	80001c10	00000013	addi	x0,x0,0	  x0:0x00000000
       73785000	      7377	80001c14	014000ef	jal	x1,80001c14	  x1=0x80001c14
       73795000	      7378	00000000	00000013	addi	x0,x0,0	  x0:0x00000000
       73805000	      7379	80001c24	00000013	addi	x0,x0,0	  x0:0x00000000
       73815000	      7380	80001c28	0080036f	jal	x6,80001c28	  x6=0x80001c28
       73825000	      7381	00000000	00000013	addi	x0,x0,0	  x0:0x00000000
       73835000	      7382	80001c2c	00000013	addi	x0,x0,0	  x0:0x00000000
       73845000	      7383	80001c30	ff5ffeef	jal	x29,80001c30	 x29=0x80001c30
       73855000	      7384	00000000	00000013	addi	x0,x0,0	  x0:0x00000000
       73865000	      7385	80001c20	00000013	addi	x0,x0,0	  x0:0x00000000
       73875000	      7386	80001c24	ff9ff36f	jal	x6,80001c24	  x6=0x80001c24
       73885000	      7387	00000000	00000013	addi	x0,x0,0	  x0:0x00000000
       73895000	      7388	80001c18	00000013	addi	x0,x0,0	  x0:0x00000000
       73905000	      7389	80001c1c	0100036f	jal	x6,80001c1c	  x6=0x80001c1c
       73915000	      7390	00000000	00000013	addi	x0,x0,0	  x0:0x00000000
       73925000	      7391	80001c28	00000013	addi	x0,x0,0	  x0:0x00000000
       73935000	      7392	80001c2c	00800f6f	jal	x30,80001c2c	 x30=0x80001c2c
       73945000	      7393	00000000	00000013	addi	x0,x0,0	  x0:0x00000000
       73955000	      7394	80001c30	00000013	addi	x0,x0,0	  x0:0x00000000
       73965000	      7395	80001c34	405f0333	sub	x6,x30,x5	 x30:0x80001c2c  x5:0x80001b40  x6=0x000000ec
       73975000	      7396	80001c38	068000ef	jal	x1,80001c38	  x1=0x80001c38
       73985000	      7397	00000000	00000013	addi	x0,x0,0	  x0:0x00000000
       73995000	      7398	80001c9c	00000013	addi	x0,x0,0	  x0:0x00000000
       74005000	      7399	80001ca0	fcdff0ef	jal	x1,80001ca0	  x1=0x80001ca0
       74015000	      7400	00000000	00000013	addi	x0,x0,0	  x0:0x00000000
       74025000	      7401	80001c68	00000013	addi	x0,x0,0	  x0:0x00000000
       74035000	      7402	80001c6c	fd1ff0ef	jal	x1,80001c6c	  x1=0x80001c6c
       74045000	      7403	00000000	00000013	addi	x0,x0,0	  x0:0x00000000
       74055000	      7404	80001c38	00000013	addi	x0,x0,0	  x0:0x00000000
       74065000	      7405	80001c3c	028000ef	jal	x1,80001c3c	  x1=0x80001c3c
       74075000	      7406	00000000	00000013	addi	x0,x0,0	  x0:0x00000000
       74085000	      7407	80001c60	00000013	addi	x0,x0,0	  x0:0x00000000
       74095000	      7408	80001c64	fe1ff0ef	jal	x1,80001c64	  x1=0x80001c64
       74105000	      7409	00000000	00000013	addi	x0,x0,0	  x0:0x00000000
       74115000	      7410	80001c40	00000013	addi	x0,x0,0	  x0:0x00000000
       74125000	      7411	80001c44	05800aef	jal	x21,80001c44	 x21=0x80001c44
       74135000	      7412	00000000	00000013	addi	x0,x0,0	  x0:0x00000000
       74145000	      7413	80001c98	00000013	addi	x0,x0,0	  x0:0x00000000
       74155000	      7414	80001c9c	0080036f	jal	x6,80001c9c	  x6=0x80001c9c
       74165000	      7415	00000000	00000013	addi	x0,x0,0	  x0:0x00000000
       74175000	      7416	80001ca0	00000013	addi	x0,x0,0	  x0:0x00000000
       74185000	      7417	80001ca4	fd9ff0ef	jal	x1,80001ca4	  x1=0x80001ca4
       74195000	      7418	00000000	00000013	addi	x0,x0,0	  x0:0x00000000
       74205000	      7419	80001c78	00000013	addi	x0,x0,0	  x0:0x00000000
       74215000	      7420	80001c7c	01c002ef	jal	x5,80001c7c	  x5=0x80001c7c
       74225000	      7421	00000000	00000013	addi	x0,x0,0	  x0:0x00000000
       74235000	      7422	80001c94	00000013	addi	x0,x0,0	  x0:0x00000000
       74245000	      7423	80001c98	fd9ff1ef	jal	x3,80001c98	  x3=0x80001c98
       74255000	      7424	00000000	00000013	addi	x0,x0,0	  x0:0x00000000
       74265000	      7425	80001c6c	00000013	addi	x0,x0,0	  x0:0x00000000
       74275000	      7426	80001c70	03c0036f	jal	x6,80001c70	  x6=0x80001c70
       74285000	      7427	00000000	00000013	addi	x0,x0,0	  x0:0x00000000
       74295000	      7428	80001ca8	00000013	addi	x0,x0,0	  x0:0x00000000
       74305000	      7429	80001cac	fddff0ef	jal	x1,80001cac	  x1=0x80001cac
       74315000	      7430	00000000	00000013	addi	x0,x0,0	  x0:0x00000000
       74325000	      7431	80001c84	00000013	addi	x0,x0,0	  x0:0x00000000
       74335000	      7432	80001c88	fcdff36f	jal	x6,80001c88	  x6=0x80001c88
       74345000	      7433	00000000	00000013	addi	x0,x0,0	  x0:0x00000000
       74355000	      7434	80001c50	00000013	addi	x0,x0,0	  x0:0x00000000
       74365000	      7435	80001c54	038000ef	jal	x1,80001c54	  x1=0x80001c54
       74375000	      7436	00000000	00000013	addi	x0,x0,0	  x0:0x00000000
       74385000	      7437	80001c88	00000013	addi	x0,x0,0	  x0:0x00000000
       74395000	      7438	80001c8c	fc5ff36f	jal	x6,80001c8c	  x6=0x80001c8c
       74405000	      7439	00000000	00000013	addi	x0,x0,0	  x0:0x00000000
       74415000	      7440	80001c4c	00000013	addi	x0,x0,0	  x0:0x00000000
       74425000	      7441	80001c50	034000ef	jal	x1,80001c50	  x1=0x80001c50
       74435000	      7442	00000000	00000013	addi	x0,x0,0	  x0:0x00000000
       74445000	      7443	80001c80	00000013	addi	x0,x0,0	  x0:0x00000000
       74455000	      7444	80001c84	fd5ff0ef	jal	x1,80001c84	  x1=0x80001c84
       74465000	      7445	00000000	00000013	addi	x0,x0,0	  x0:0x00000000
       74475000	      7446	80001c54	00000013	addi	x0,x0,0	  x0:0x00000000
       74485000	      7447	80001c58	01000e6f	jal	x28,80001c58	 x28=0x80001c58
       74495000	      7448	00000000	00000013	addi	x0,x0,0	  x0:0x00000000
       74505000	      7449	80001c64	00000013	addi	x0,x0,0	  x0:0x00000000
       74515000	      7450	80001c68	018000ef	jal	x1,80001c68	  x1=0x80001c68
       74525000	      7451	00000000	00000013	addi	x0,x0,0	  x0:0x00000000
       74535000	      7452	80001c7c	00000013	addi	x0,x0,0	  x0:0x00000000
       74545000	      7453	80001c80	fe1ff0ef	jal	x1,80001c80	  x1=0x80001c80
       74555000	      7454	00000000	00000013	addi	x0,x0,0	  x0:0x00000000
       74565000	      7455	80001c5c	00000013	addi	x0,x0,0	  x0:0x00000000
       74575000	      7456	80001c60	fe9ff0ef	jal	x1,80001c60	  x1=0x80001c60
       74585000	      7457	00000000	00000013	addi	x0,x0,0	  x0:0x00000000
       74595000	      7458	80001c44	00000013	addi	x0,x0,0	  x0:0x00000000
       74605000	      7459	80001c48	004000ef	jal	x1,80001c48	  x1=0x80001c48
       74615000	      7460	00000000	00000013	addi	x0,x0,0	  x0:0x00000000
       74625000	      7461	80001c48	00000013	addi	x0,x0,0	  x0:0x00000000
       74635000	      7462	80001c4c	044000ef	jal	x1,80001c4c	  x1=0x80001c4c
       74645000	      7463	00000000	00000013	addi	x0,x0,0	  x0:0x00000000
       74655000	      7464	80001c8c	00000013	addi	x0,x0,0	  x0:0x00000000
       74665000	      7465	80001c90	fe5ff0ef	jal	x1,80001c90	  x1=0x80001c90
       74675000	      7466	00000000	00000013	addi	x0,x0,0	  x0:0x00000000
       74685000	      7467	80001c70	00000013	addi	x0,x0,0	  x0:0x00000000
       74695000	      7468	80001c74	004000ef	jal	x1,80001c74	  x1=0x80001c74
       74705000	      7469	00000000	00000013	addi	x0,x0,0	  x0:0x00000000
       74715000	      7470	80001c74	00000013	addi	x0,x0,0	  x0:0x00000000
       74725000	      7471	80001c78	030000ef	jal	x1,80001c78	  x1=0x80001c78
       74735000	      7472	00000000	00000013	addi	x0,x0,0	  x0:0x00000000
       74745000	      7473	80001ca4	00000013	addi	x0,x0,0	  x0:0x00000000
       74755000	      7474	80001ca8	fedff0ef	jal	x1,80001ca8	  x1=0x80001ca8
       74765000	      7475	00000000	00000013	addi	x0,x0,0	  x0:0x00000000
       74775000	      7476	80001c90	00000013	addi	x0,x0,0	  x0:0x00000000
       74785000	      7477	80001c94	fadff3ef	jal	x7,80001c94	  x7=0x80001c94
       74795000	      7478	00000000	00000013	addi	x0,x0,0	  x0:0x00000000
       74805000	      7479	80001c3c	00000013	addi	x0,x0,0	  x0:0x00000000
       74815000	      7480	80001c40	01c000ef	jal	x1,80001c40	  x1=0x80001c40
       74825000	      7481	00000000	00000013	addi	x0,x0,0	  x0:0x00000000
       74835000	      7482	80001c58	00000013	addi	x0,x0,0	  x0:0x00000000
       74845000	      7483	80001c5c	054000ef	jal	x1,80001c5c	  x1=0x80001c5c
       74855000	      7484	00000000	00000013	addi	x0,x0,0	  x0:0x00000000
       74865000	      7485	80001cac	00000013	addi	x0,x0,0	  x0:0x00000000
       74875000	      7486	80001cb0	3929be17	auipc	x28,0x3929b	 x28=0xb929ccac
       74885000	      7487	80001cb4	393dc1b7	lui	x3,0x393dc	  x3=0x393dc000
       74895000	      7488	80001cb8	032c9263	bne	x25,x18,80001cdc	 x25:0x80001bbc x18:0x80009fc4
       74905000	      7489	00000000	00000013	addi	x0,x0,0	  x0:0x00000000
       74915000	      7490	80001cd8	00000013	addi	x0,x0,0	  x0:0x00000000
       74925000	      7491	80001cdc	413e5233	sra	x4,x28,x19	 x28:0xb929ccac x19:0x80001b18  x4=0xffffffb9
       74935000	      7492	80001ce0	9714c693	xori	x13,x9,-1679	  x9:0x0000008c x13=0xfffff9fd
       74945000	      7493	80001ce4	0256c663	blt	x13,x5,80001d10	 x13:0xfffff9fd  x5:0x80001c7c
       74955000	      7494	80001ce8	01f51e93	slli	x29,x10,0x1f	 x10:0xffffffbb x29=0x80000000
       74965000	      7495	80001cec	01a35a13	srli	x20,x6,0x1a	  x6:0x80001c8c x20=0x00000020
       74975000	      7496	80001cf0	00000013	addi	x0,x0,0	  x0:0x00000000
       74985000	      7497	80001cf4	00bc2033	slt	x0,x24,x11	 x24:0x80001afc x11:0x80001c18
       74995000	      7498	80001cf8	00aa47b3	xor	x15,x20,x10	 x20:0x00000020 x10:0xffffffbb x15=0xffffff9b
       75005000	      7499	80001cfc	05507863	bgeu	x0,x21,80001d4c	  x0:0x00000000 x21:0x80001c44
       75015000	      7500	80001d00	00609cb3	sll	x25,x1,x6	  x1:0x80001c5c  x6:0x80001c8c x25=0x01c5c000
       75025000	      7501	80001d04	000e5d13	srli	x26,x28,0x0	 x28:0xb929ccac x26=0xb929ccac
       75035000	      7502	80001d08	1d00e993	ori	x19,x1,464	  x1:0x80001c5c x19=0x80001ddc
       75045000	      7503	80001d0c	03d71c63	bne	x14,x29,80001d44	 x14:0x80001a8c x29:0x80000000
       75055000	      7504	00000000	00000013	addi	x0,x0,0	  x0:0x00000000
       75065000	      7505	80001d40	00000013	addi	x0,x0,0	  x0:0x00000000
       75075000	      7506	80001d44	48a43113	sltiu	x2,x8,1162	  x8:0x80001bb8  x2=0x00000000
       75085000	      7507	80001d48	416bd4b3	sra	x9,x23,x22	 x23:0x8000a009 x22:0x80001934  x9=0xfffff800
       75095000	      7508	80001d4c	00f39813	slli	x16,x7,0xf	  x7:0x80001c94 x16=0x0e4a0000
       75105000	      7509	80001d50	00746733	or	x14,x8,x7	  x8:0x80001bb8  x7:0x80001c94 x14=0x80001fbc
       75115000	      7510	80001d54	cc9f4e93	xori	x29,x30,-823	 x30:0x80001c2c x29=0x7fffe0e5
       75125000	      7511	80001d58	00000013	addi	x0,x0,0	  x0:0x00000000
       75135000	      7512	80001d5c	012a95b3	sll	x11,x21,x18	 x21:0x80001c44 x18:0x80009fc4 x11=0x0001c440
       75145000	      7513	80001d60	00729193	slli	x3,x5,0x7	  x5:0x80001c7c  x3=0x000e3e00
       75155000	      7514	80001d64	e4f1b693	sltiu	x13,x3,-433	  x3:0x000e3e00 x13=0x00000001
       75165000	      7515	80001d68	00120663	beq	x4,x1,80001d74	  x4:0xffffffb9  x1:0x80001c5c
       75175000	      7516	80001d6c	000ab133	sltu	x2,x21,x0	 x21:0x80001c44  x0:0x00000000  x2=0x00000000
       75185000	      7517	80001d70	01920a33	add	x20,x4,x25	  x4:0xffffffb9 x25:0x01c5c000 x20=0x01c5bfb9
       75195000	      7518	80001d74	00008463	beq	x1,x0,80001d7c	  x1:0x80001c5c  x0:0x00000000
       75205000	      7519	80001d78	01a2f0b3	and	x1,x5,x26	  x5:0x80001c7c x26:0xb929ccac  x1=0x80000c2c
       75215000	      7520	80001d7c	01aefcb3	and	x25,x29,x26	 x29:0x7fffe0e5 x26:0xb929ccac x25=0x3929c0a4
       75225000	      7521	80001d80	00fcfcb3	and	x25,x25,x15	 x25:0x3929c0a4 x15:0xffffff9b x25=0x3929c080
       75235000	      7522	80001d84	c36c2493	slti	x9,x24,-970	 x24:0x80001afc  x9=0x00000001
       75245000	      7523	80001d88	00000013	addi	x0,x0,0	  x0:0x00000000
       75255000	      7524	80001d8c	00dc9693	slli	x13,x25,0xd	 x25:0x3929c080 x13=0x38100000
       75265000	      7525	80001d90	007f9413	slli	x8,x31,0x7	 x31:0x80009ec4  x8=0x004f6200
       75275000	      7526	80001d94	241b4213	xori	x4,x22,577	 x22:0x80001934  x4=0x80001b75
       75285000	      7527	80001d98	01af5ab3	srl	x21,x30,x26	 x30:0x80001c2c x26:0xb929ccac x21=0x00080001
       75295000	      7528	80001d9c	012201b3	add	x3,x4,x18	  x4:0x80001b75 x18:0x80009fc4  x3=0x0000bb39
       75305000	      7529	80001da0	00000013	addi	x0,x0,0	  x0:0x00000000
       75315000	      7530	80001da4	058eb093	sltiu	x1,x29,88	 x29:0x7fffe0e5  x1=0x00000000
       75325000	      7531	80001da8	05ec8263	beq	x25,x30,80001dec	 x25:0x3929c080 x30:0x80001c2c
       75335000	      7532	80001dac	8c2f3293	sltiu	x5,x30,-1854	 x30:0x80001c2c  x5=0x00000001
       75345000	      7533	80001db0	97dc6513	ori	x10,x24,-1667	 x24:0x80001afc x10=0xfffffbfd
       75355000	      7534	80001db4	fb81e313	ori	x6,x3,-72	  x3:0x0000bb39  x6=0xffffffb9
       75365000	      7535	80001db8	edd52b93	slti	x23,x10,-291	 x10:0xfffffbfd x23=0x00000001
       75375000	      7536	80001dbc	04bf8263	beq	x31,x11,80001e00	 x31:0x80009ec4 x11:0x0001c440
       75385000	      7537	80001dc0	40138a33	sub	x20,x7,x1	  x7:0x80001c94  x1:0x00000000 x20=0x80001c94
       75395000	      7538	80001dc4	0180f6b3	and	x13,x1,x24	  x1:0x00000000 x24:0x80001afc x13=0x00000000
       75405000	      7539	80001dc8	02594a63	blt	x18,x5,80001dfc	 x18:0x80009fc4  x5:0x00000001
       75415000	      7540	00000000	00000013	addi	x0,x0,0	  x0:0x00000000
       75425000	      7541	80001df8	00000013	addi	x0,x0,0	  x0:0x00000000
       75435000	      7542	80001dfc	0570c863	blt	x1,x23,80001e4c	  x1:0x00000000 x23:0x00000001
       75445000	      7543	00000000	00000013	addi	x0,x0,0	  x0:0x00000000
       75455000	      7544	80001e48	00000013	addi	x0,x0,0	  x0:0x00000000
       75465000	      7545	80001e4c	005b9193	slli	x3,x23,0x5	 x23:0x00000001  x3=0x00000020
       75475000	      7546	80001e50	b1c4dab7	lui	x21,0xb1c4d	 x21=0xb1c4d000
       75485000	      7547	80001e54	014cd4b3	srl	x9,x25,x20	 x25:0x3929c080 x20:0x80001c94  x9=0x00000392
       75495000	      7548	80001e58	41d683b3	sub	x7,x13,x29	 x13:0x00000000 x29:0x7fffe0e5  x7=0x80001f1b
       75505000	      7549	80001e5c	70196793	ori	x15,x18,1793	 x18:0x80009fc4 x15=0x80009fc5
       75515000	      7550	80001e60	d32a3c13	sltiu	x24,x20,-718	 x20:0x80001c94 x24=0x00000001
       75525000	      7551	80001e64	0182c6b3	xor	x13,x5,x24	  x5:0x00000001 x24:0x00000001 x13=0x00000000
       75535000	      7552	80001e68	0378c663	blt	x17,x23,80001e94	 x17:0x80001b60 x23:0x00000001
       75545000	      7553	00000000	00000013	addi	x0,x0,0	  x0:0x00000000
       75555000	      7554	80001e90	00000013	addi	x0,x0,0	  x0:0x00000000
       75565000	      7555	80001e94	40d45393	srai	x7,x8,0xd	  x8:0x004f6200  x7=0x0000027b
       75575000	      7556	80001e98	010accb3	xor	x25,x21,x16	 x21:0xb1c4d000 x16:0x0e4a0000 x25=0xbf8ed000
       75585000	      7557	80001e9c	0114c463	blt	x9,x17,80001ea4	  x9:0x00000392 x17:0x80001b60
       75595000	      7558	80001ea0	018313b3	sll	x7,x6,x24	  x6:0xffffffb9 x24:0x00000001  x7=0xffffff72
       75605000	      7559	80001ea4	05270863	beq	x14,x18,80001ef4	 x14:0x80001fbc x18:0x80009fc4
       75615000	      7560	80001ea8	0032d6b3	srl	x13,x5,x3	  x5:0x00000001  x3:0x00000020 x13=0x00000001
       75625000	      7561	80001eac	00e4b5b3	sltu	x11,x9,x14	  x9:0x00000392 x14:0x80001fbc x11=0x00000001
       75635000	      7562	80001eb0	1db40793	addi	x15,x8,475	  x8:0x004f6200 x15=0x004f63db
       75645000	      7563	80001eb4	04ade863	bltu	x27,x10,80001f04	 x27:0x00000000 x10:0xfffffbfd
       75655000	      7564	00000000	00000013	addi	x0,x0,0	  x0:0x00000000
       75665000	      7565	80001f00	00000013	addi	x0,x0,0	  x0:0x00000000
       75675000	      7566	80001f04	01559133	sll	x2,x11,x21	 x11:0x00000001 x21:0xb1c4d000  x2=0x00000001
       75685000	      7567	80001f08	986daab7	lui	x21,0x986da	 x21=0x986da000
       75695000	      7568	80001f0c	019760b3	or	x1,x14,x25	 x14:0x80001fbc x25:0xbf8ed000  x1=0xbf8edfbc
       75705000	      7569	80001f10	01ccdb33	srl	x22,x25,x28	 x25:0xbf8ed000 x28:0xb929ccac x22=0x000bf8ed
       75715000	      7570	80001f14	00f039b3	sltu	x19,x0,x15	  x0:0x00000000 x15:0x004f63db x19=0x00000001
       75725000	      7571	80001f18	a49e24b7	lui	x9,0xa49e2	  x9=0xa49e2000
       75735000	      7572	80001f1c	21fd1c17	auipc	x24,0x21fd1	 x24=0xa1fd2f18
       75745000	      7573	80001f20	668e0317	auipc	x6,0x668e0	  x6=0xe68e1f1c
       75755000	      7574	80001f24	40145713	srai	x14,x8,0x1	  x8:0x004f6200 x14=0x0027b100
       75765000	      7575	80001f28	0102f533	and	x10,x5,x16	  x5:0x00000001 x16:0x0e4a0000 x10=0x00000000
       75775000	      7576	80001f2c	7e2f4f13	xori	x30,x30,2018	 x30:0x80001c2c x30=0x80001bce
       75785000	      7577	80001f30	41135013	srai	x0,x6,0x11	  x6:0xe68e1f1c
       75795000	      7578	80001f34	78d00a93	addi	x21,x0,1933	  x0:0x00000000 x21=0x0000078d
       75805000	      7579	80001f38	69554b13	xori	x22,x10,1685	 x10:0x00000000 x22=0x00000695
       75815000	      7580	80001f3c	7f7bbd13	sltiu	x26,x23,2039	 x23:0x00000001 x26=0x00000001
       75825000	      7581	80001f40	41325ab3	sra	x21,x4,x19	  x4:0x80001b75 x19:0x00000001 x21=0xc0000dba
       75835000	      7582	80001f44	01831463	bne	x6,x24,80001f4c	  x6:0xe68e1f1c x24:0xa1fd2f18
       75845000	      7583	00000000	00000013	addi	x0,x0,0	  x0:0x00000000
       75855000	      7584	80001f48	00000013	addi	x0,x0,0	  x0:0x00000000
       75865000	      7585	80001f4c	02f79263	bne	x15,x15,80001f70	 x15:0x004f63db x15:0x004f63db
       75875000	      7586	80001f50	02cc8663	beq	x25,x12,80001f7c	 x25:0xbf8ed000 x12:0x000000c3
       75885000	      7587	80001f54	055ad863	bge	x21,x21,80001fa4	 x21:0xc0000dba x21:0xc0000dba
       75895000	      7588	00000000	00000013	addi	x0,x0,0	  x0:0x00000000
       75905000	      7589	80001fa0	00000013	addi	x0,x0,0	  x0:0x00000000
       75915000	      7590	80001fa4	409d0c33	sub	x24,x26,x9	 x26:0x00000001  x9:0xa49e2000 x24=0x5b61e001
       75925000	      7591	80001fa8	2fd36c17	auipc	x24,0x2fd36	 x24=0xafd37fa4
       75935000	      7592	80001fac	017527b3	slt	x15,x10,x23	 x10:0x00000000 x23:0x00000001 x15=0x00000001
       75945000	      7593	80001fb0	41415eb3	sra	x29,x2,x20	  x2:0x00000001 x20:0x80001c94 x29=0x00000000
       75955000	      7594	80001fb4	41515433	sra	x8,x2,x21	  x2:0x00000001 x21:0xc0000dba  x8=0x00000000
       75965000	      7595	80001fb8	40ff0ab3	sub	x21,x30,x15	 x30:0x80001bce x15:0x00000001 x21=0x80001bcd
       75975000	      7596	80001fbc	00085193	srli	x3,x16,0x0	 x16:0x0e4a0000  x3=0x0e4a0000
       75985000	      7597	80001fc0	14fa9737	lui	x14,0x14fa9	 x14=0x14fa9000
       75995000	      7598	80001fc4	f04cb413	sltiu	x8,x25,-252	 x25:0xbf8ed000  x8=0x00000001
       76005000	      7599	80001fc8	0035dc33	srl	x24,x11,x3	 x11:0x00000001  x3:0x0e4a0000 x24=0x00000001
       76015000	      7600	80001fcc	00f21b93	slli	x23,x4,0xf	  x4:0x80001b75 x23=0x0dba8000
       76025000	      7601	80001fd0	06dd5e63	bge	x26,x13,8000204c	 x26:0x00000001 x13:0x00000001
       76035000	      7602	00000000	00000013	addi	x0,x0,0	  x0:0x00000000
       76045000	      7603	80002048	00000013	addi	x0,x0,0	  x0:0x00000000
       76055000	      7604	8000204c	2a128713	addi	x14,x5,673	  x5:0x00000001 x14=0x000002a2
       76065000	      7605	80002050	01f592b3	sll	x5,x11,x31	 x11:0x00000001 x31:0x80009ec4  x5=0x00000010
       76075000	      7606	80002054	60b5a613	slti	x12,x11,1547	 x11:0x00000001 x12=0x00000001
       76085000	      7607	80002058	00d50f33	add	x30,x10,x13	 x10:0x00000000 x13:0x00000001 x30=0x00000001
       76095000	      7608	8000205c	01f50463	beq	x10,x31,80002064	 x10:0x00000000 x31:0x80009ec4
       76105000	      7609	80002060	0002f233	and	x4,x5,x0	  x5:0x00000010  x0:0x00000000  x4=0x00000000
       76115000	      7610	80002064	00ce8b33	add	x22,x29,x12	 x29:0x00000000 x12:0x00000001 x22=0x00000001
       76125000	      7611	80002068	9fa98313	addi	x6,x19,-1542	 x19:0x00000001  x6=0xfffff9fb
       76135000	      7612	8000206c	002b9033	sll	x0,x23,x2	 x23:0x0dba8000  x2:0x00000001
       76145000	      7613	80002070	0196d393	srli	x7,x13,0x19	 x13:0x00000001  x7=0x00000000
       76155000	      7614	80002074	4193d493	srai	x9,x7,0x19	  x7:0x00000000  x9=0x00000000
       76165000	      7615	80002078	e76363b7	lui	x7,0xe7636	  x7=0xe7636000
       76175000	      7616	8000207c	014916b3	sll	x13,x18,x20	 x18:0x80009fc4 x20:0x80001c94 x13=0xfc400000
       76185000	      7617	80002080	005409b3	add	x19,x8,x5	  x8:0x00000001  x5:0x00000010 x19=0x00000011
       76195000	      7618	80002084	00d3e533	or	x10,x7,x13	  x7:0xe7636000 x13:0xfc400000 x10=0xff636000
       76205000	      7619	80002088	02db9263	bne	x23,x13,800020ac	 x23:0x0dba8000 x13:0xfc400000
       76215000	      7620	00000000	00000013	addi	x0,x0,0	  x0:0x00000000
       76225000	      7621	800020a8	00000013	addi	x0,x0,0	  x0:0x00000000
       76235000	      7622	800020ac	019c5193	srli	x3,x24,0x19	 x24:0x00000001  x3=0x00000000
       76245000	      7623	800020b0	aa6cc493	xori	x9,x25,-1370	 x25:0xbf8ed000  x9=0x40712aa6
       76255000	      7624	800020b4	026dc993	xori	x19,x27,38	 x27:0x00000000 x19=0x00000026
       76265000	      7625	800020b8	00000013	addi	x0,x0,0	  x0:0x00000000
       76275000	      7626	800020bc	00000013	addi	x0,x0,0	  x0:0x00000000
       76285000	      7627	800020c0	01936eb3	or	x29,x6,x25	  x6:0xfffff9fb x25:0xbf8ed000 x29=0xfffff9fb
       76295000	      7628	800020c4	021fda63	bge	x31,x1,800020f8	 x31:0x80009ec4  x1:0xbf8edfbc
       76305000	      7629	800020c8	00579993	slli	x19,x15,0x5	 x15:0x00000001 x19=0x00000020
       76315000	      7630	800020cc	04948263	beq	x9,x9,80002110	  x9:0x40712aa6  x9:0x40712aa6
       76325000	      7631	00000000	00000013	addi	x0,x0,0	  x0:0x00000000
       76335000	      7632	8000210c	00000013	addi	x0,x0,0	  x0:0x00000000
       76345000	      7633	80002110	41df0f33	sub	x30,x30,x29	 x30:0x00000001 x29:0xfffff9fb x30=0x00000606
       76355000	      7634	80002114	02dae663	bltu	x21,x13,80002140	 x21:0x80001bcd x13:0xfc400000
       76365000	      7635	00000000	00000013	addi	x0,x0,0	  x0:0x00000000
       76375000	      7636	8000213c	00000013	addi	x0,x0,0	  x0:0x00000000
       76385000	      7637	80002140	00251033	sll	x0,x10,x2	 x10:0xff636000  x2:0x00000001
       76395000	      7638	80002144	03def413	andi	x8,x29,61	 x29:0xfffff9fb  x8=0x00000039
       76405000	      7639	80002148	00240233	add	x4,x8,x2	  x8:0x00000039  x2:0x00000001  x4=0x0000003a
       76415000	      7640	8000214c	014b3833	sltu	x16,x22,x20	 x22:0x00000001 x20:0x80001c94 x16=0x00000001
       76425000	      7641	80002150	03b2d663	bge	x5,x27,8000217c	  x5:0x00000010 x27:0x00000000
       76435000	      7642	00000000	00000013	addi	x0,x0,0	  x0:0x00000000
       76445000	      7643	80002178	00000013	addi	x0,x0,0	  x0:0x00000000
       76455000	      7644	8000217c	0021fc33	and	x24,x3,x2	  x3:0x00000000  x2:0x00000001 x24=0x00000000
       76465000	      7645	80002180	67c73613	sltiu	x12,x14,1660	 x14:0x000002a2 x12=0x00000001
       76475000	      7646	80002184	00f8a133	slt	x2,x17,x15	 x17:0x80001b60 x15:0x00000001  x2=0x00000001
       76485000	      7647	80002188	01a453b3	srl	x7,x8,x26	  x8:0x00000039 x26:0x00000001  x7=0x0000001c
       76495000	      7648	8000218c	051df463	bgeu	x27,x17,800021d4	 x27:0x00000000 x17:0x80001b60
       76505000	      7649	80002190	01aa4133	xor	x2,x20,x26	 x20:0x80001c94 x26:0x00000001  x2=0x80001c95
       76515000	      7650	80002194	51526393	ori	x7,x4,1301	  x4:0x0000003a  x7=0x0000053f
       76525000	      7651	80002198	a983b293	sltiu	x5,x7,-1384	  x7:0x0000053f  x5=0x00000001
       76535000	      7652	8000219c	ce9f8c13	addi	x24,x31,-791	 x31:0x80009ec4 x24=0x80009bad
       76545000	      7653	800021a0	c4afce37	lui	x28,0xc4afc	 x28=0xc4afc000
       76555000	      7654	800021a4	5f3d2ab7	lui	x21,0x5f3d2	 x21=0x5f3d2000
       76565000	      7655	800021a8	048f5263	bge	x30,x8,800021ec	 x30:0x00000606  x8:0x00000039
       76575000	      7656	00000000	00000013	addi	x0,x0,0	  x0:0x00000000
       76585000	      7657	800021e8	00000013	addi	x0,x0,0	  x0:0x00000000
       76595000	      7658	800021ec	002415b3	sll	x11,x8,x2	  x8:0x00000039  x2:0x80001c95 x11=0x07200000
       76605000	      7659	800021f0	00356ab3	or	x21,x10,x3	 x10:0xff636000  x3:0x00000000 x21=0xff636000
       76615000	      7660	800021f4	f91fc693	xori	x13,x31,-111	 x31:0x80009ec4 x13=0x7fff6155
       76625000	      7661	800021f8	3292ca93	xori	x21,x5,809	  x5:0x00000001 x21=0x00000328
       76635000	      7662	800021fc	d7357413	andi	x8,x10,-653	 x10:0xff636000  x8=0xff636000
       76645000	      7663	80002200	01469113	slli	x2,x13,0x14	 x13:0x7fff6155  x2=0x15500000
       76655000	      7664	80002204	6b1f0217	auipc	x4,0x6b1f0	  x4=0xeb1f2200
       76665000	      7665	80002208	41dedb13	srai	x22,x29,0x1d	 x29:0xfffff9fb x22=0xffffffff
       76675000	      7666	8000220c	01d6f663	bgeu	x13,x29,80002218	 x13:0x7fff6155 x29:0xfffff9fb
       76685000	      7667	80002210	2e15a213	slti	x4,x11,737	 x11:0x07200000  x4=0x00000000
       76695000	      7668	80002214	00099c33	sll	x24,x19,x0	 x19:0x00000020  x0:0x00000000 x24=0x00000020
       76705000	      7669	80002218	03d0fc63	bgeu	x1,x29,80002250	  x1:0xbf8edfbc x29:0xfffff9fb
       76715000	      7670	8000221c	014c8eb3	add	x29,x25,x20	 x25:0xbf8ed000 x20:0x80001c94 x29=0x3f8eec94
       76725000	      7671	80002220	02529063	bne	x5,x5,80002240	  x5:0x00000001  x5:0x00000001
       76735000	      7672	80002224	1f10a813	slti	x16,x1,497	  x1:0xbf8edfbc x16=0x00000001
       76745000	      7673	80002228	410fd633	sra	x12,x31,x16	 x31:0x80009ec4 x16:0x00000001 x12=0xc0004f62
       76755000	      7674	8000222c	00616833	or	x16,x2,x6	  x2:0x15500000  x6:0xfffff9fb x16=0xfffff9fb
       76765000	      7675	80002230	004947b3	xor	x15,x18,x4	 x18:0x80009fc4  x4:0x00000000 x15=0x80009fc4
       76775000	      7676	80002234	08564f13	xori	x30,x12,133	 x12:0xc0004f62 x30=0xc0004fe7
       76785000	      7677	80002238	0062b0b3	sltu	x1,x5,x6	  x5:0x00000001  x6:0xfffff9fb  x1=0x00000001
       76795000	      7678	8000223c	037d7863	bgeu	x26,x23,8000226c	 x26:0x00000001 x23:0x0dba8000
       76805000	      7679	80002240	019cfab3	and	x21,x25,x25	 x25:0xbf8ed000 x25:0xbf8ed000 x21=0xbf8ed000
       76815000	      7680	80002244	0590d863	bge	x1,x25,80002294	  x1:0x00000001 x25:0xbf8ed000
       76825000	      7681	00000000	00000013	addi	x0,x0,0	  x0:0x00000000
       76835000	      7682	80002290	00000013	addi	x0,x0,0	  x0:0x00000000
       76845000	      7683	80002294	00c36463	bltu	x6,x12,8000229c	  x6:0xfffff9fb x12:0xc0004f62
       76855000	      7684	80002298	01a07f33	and	x30,x0,x26	  x0:0x00000000 x26:0x00000001 x30=0x00000000
       76865000	      7685	8000229c	418353b3	sra	x7,x6,x24	  x6:0xfffff9fb x24:0x00000020  x7=0xfffff9fb
       76875000	      7686	800022a0	40d38cb3	sub	x25,x7,x13	  x7:0xfffff9fb x13:0x7fff6155 x25=0x800098a6
       76885000	      7687	800022a4	43794413	xori	x8,x18,1079	 x18:0x80009fc4  x8=0x80009bf3
       76895000	      7688	800022a8	68fe79b7	lui	x19,0x68fe7	 x19=0x68fe7000
       76905000	      7689	800022ac	01d5e3b3	or	x7,x11,x29	 x11:0x07200000 x29:0x3f8eec94  x7=0x3faeec94
       76915000	      7690	800022b0	0166d6b3	srl	x13,x13,x22	 x13:0x7fff6155 x22:0xffffffff x13=0x00000000
       76925000	      7691	800022b4	00517e33	and	x28,x2,x5	  x2:0x15500000  x5:0x00000001 x28=0x00000000
       76935000	      7692	800022b8	0036db13	srli	x22,x13,0x3	 x13:0x00000000 x22=0x00000000
       76945000	      7693	800022bc	414cde13	srai	x28,x25,0x14	 x25:0x800098a6 x28=0xfffff800
       76955000	      7694	800022c0	00c21b33	sll	x22,x4,x12	  x4:0x00000000 x12:0xc0004f62 x22=0x00000000
       76965000	      7695	800022c4	00167c33	and	x24,x12,x1	 x12:0xc0004f62  x1:0x00000001 x24=0x00000000
       76975000	      7696	800022c8	00385013	srli	x0,x16,0x3	 x16:0xfffff9fb
       76985000	      7697	800022cc	017b0463	beq	x22,x23,800022d4	 x22:0x00000000 x23:0x0dba8000
       76995000	      7698	800022d0	021d4463	blt	x26,x1,800022f8	 x26:0x00000001  x1:0x00000001
       77005000	      7699	800022d4	1767ff13	andi	x30,x15,374	 x15:0x80009fc4 x30=0x00000144
       77015000	      7700	800022d8	413ed733	sra	x14,x29,x19	 x29:0x3f8eec94 x19:0x68fe7000 x14=0x3f8eec94
       77025000	      7701	800022dc	00000013	addi	x0,x0,0	  x0:0x00000000
       77035000	      7702	800022e0	05ad7863	bgeu	x26,x26,80002330	 x26:0x00000001 x26:0x00000001
       77045000	      7703	00000000	00000013	addi	x0,x0,0	  x0:0x00000000
       77055000	      7704	8000232c	00000013	addi	x0,x0,0	  x0:0x00000000
       77065000	      7705	80002330	003d5433	srl	x8,x26,x3	 x26:0x00000001  x3:0x00000000  x8=0x00000001
       77075000	      7706	80002334	016561b3	or	x3,x10,x22	 x10:0xff636000 x22:0x00000000  x3=0xff636000
       77085000	      7707	80002338	019c5d13	srli	x26,x24,0x19	 x24:0x00000000 x26=0x00000000
       77095000	      7708	8000233c	7fcfbe93	sltiu	x29,x31,2044	 x31:0x80009ec4 x29=0x00000000
       77105000	      7709	80002340	0413e463	bltu	x7,x1,80002388	  x7:0x3faeec94  x1:0x00000001
       77115000	      7710	80002344	b8717793	andi	x15,x2,-1145	  x2:0x15500000 x15=0x15500000
       77125000	      7711	80002348	444bb893	sltiu	x17,x23,1092	 x23:0x0dba8000 x17=0x00000000
       77135000	      7712	8000234c	01738b33	add	x22,x7,x23	  x7:0x3faeec94 x23:0x0dba8000 x22=0x4d696c94
       77145000	      7713	80002350	04bb6263	bltu	x22,x11,80002394	 x22:0x4d696c94 x11:0x07200000
       77155000	      7714	80002354	40798ab3	sub	x21,x19,x7	 x19:0x68fe7000  x7:0x3faeec94 x21=0x294f836c
       77165000	      7715	80002358	63e1c5b7	lui	x11,0x63e1c	 x11=0x63e1c000
       77175000	      7716	8000235c	404a5493	srai	x9,x20,0x4	 x20:0x80001c94  x9=0xf80001c9
       77185000	      7717	80002360	00000013	addi	x0,x0,0	  x0:0x00000000
       77195000	      7718	80002364	01f6e863	bltu	x13,x31,80002374	 x13:0x00000000 x31:0x80009ec4
       77205000	      7719	00000000	00000013	addi	x0,x0,0	  x0:0x00000000
       77215000	      7720	80002370	00000013	addi	x0,x0,0	  x0:0x00000000
       77225000	      7721	80002374	504beb13	ori	x22,x23,1284	 x23:0x0dba8000 x22=0x0dba8504
       77235000	      7722	80002378	26c8e793	ori	x15,x17,620	 x17:0x00000000 x15=0x0000026c
       77245000	      7723	8000237c	c0fa5837	lui	x16,0xc0fa5	 x16=0xc0fa5000
       77255000	      7724	80002380	00cd5493	srli	x9,x26,0xc	 x26:0x00000000  x9=0x00000000
       77265000	      7725	80002384	0512d863	bge	x5,x17,800023d4	  x5:0x00000001 x17:0x00000000
       77275000	      7726	00000000	00000013	addi	x0,x0,0	  x0:0x00000000
       77285000	      7727	800023d0	00000013	addi	x0,x0,0	  x0:0x00000000
       77295000	      7728	800023d4	407b82b3	sub	x5,x23,x7	 x23:0x0dba8000  x7:0x3faeec94  x5=0xce0b936c
       77305000	      7729	800023d8	3e354193	xori	x3,x10,995	 x10:0xff636000  x3=0xff6363e3
       77315000	      7730	800023dc	00cdad33	slt	x26,x27,x12	 x27:0x00000000 x12:0xc0004f62 x26=0x00000000
       77325000	      7731	800023e0	be84e113	ori	x2,x9,-1048	  x9:0x00000000  x2=0xfffffbe8
       77335000	      7732	800023e4	41995213	srai	x4,x18,0x19	 x18:0x80009fc4  x4=0xffffffc0
       77345000	      7733	800023e8	00f65133	srl	x2,x12,x15	 x12:0xc0004f62 x15:0x0000026c  x2=0x000c0004
       77355000	      7734	800023ec	01279033	sll	x0,x15,x18	 x15:0x0000026c x18:0x80009fc4
       77365000	      7735	800023f0	0118fab3	and	x21,x17,x17	 x17:0x00000000 x17:0x00000000 x21=0x00000000
       77375000	      7736	800023f4	0049beb3	sltu	x29,x19,x4	 x19:0x68fe7000  x4:0xffffffc0 x29=0x00000001
       77385000	      7737	800023f8	9a3ce713	ori	x14,x25,-1629	 x25:0x800098a6 x14=0xfffff9a7
       77395000	      7738	800023fc	01a67463	bgeu	x12,x26,80002404	 x12:0xc0004f62 x26:0x00000000
       77405000	      7739	00000000	00000013	addi	x0,x0,0	  x0:0x00000000
       77415000	      7740	80002400	00000013	addi	x0,x0,0	  x0:0x00000000
       77425000	      7741	80002404	00f59533	sll	x10,x11,x15	 x11:0x63e1c000 x15:0x0000026c x10=0x1c000000
       77435000	      7742	80002408	003682b3	add	x5,x13,x3	 x13:0x00000000  x3:0xff6363e3  x5=0xff6363e3
       77445000	      7743	8000240c	0111d463	bge	x3,x17,80002414	  x3:0xff6363e3 x17:0x00000000
       77455000	      7744	80002410	cdf0ecb7	lui	x25,0xcdf0e	 x25=0xcdf0e000
       77465000	      7745	80002414	00000013	addi	x0,x0,0	  x0:0x00000000
       77475000	      7746	80002418	41365333	sra	x6,x12,x19	 x12:0xc0004f62 x19:0x68fe7000  x6=0xc0004f62
       77485000	      7747	8000241c	036f7a63	bgeu	x30,x22,80002450	 x30:0x00000144 x22:0x0dba8504
       77495000	      7748	80002420	b48c3613	sltiu	x12,x24,-1208	 x24:0x00000000 x12=0x00000001
       77505000	      7749	80002424	41ab5793	srai	x15,x22,0x1a	 x22:0x0dba8504 x15=0x00000003
       77515000	      7750	80002428	01a41eb3	sll	x29,x8,x26	  x8:0x00000001 x26:0x00000000 x29=0x00000001
       77525000	      7751	8000242c	0598f463	bgeu	x17,x25,80002474	 x17:0x00000000 x25:0xcdf0e000
       77535000	      7752	80002430	03bafc63	bgeu	x21,x27,80002468	 x21:0x00000000 x27:0x00000000
       77545000	      7753	00000000	00000013	addi	x0,x0,0	  x0:0x00000000
       77555000	      7754	80002464	00000013	addi	x0,x0,0	  x0:0x00000000
       77565000	      7755	80002468	0321c463	blt	x3,x18,80002490	  x3:0xff6363e3 x18:0x80009fc4
       77575000	      7756	8000246c	00b0d833	srl	x16,x1,x11	  x1:0x00000001 x11:0x63e1c000 x16=0x00000001
       77585000	      7757	80002470	0035d313	srli	x6,x11,0x3	 x11:0x63e1c000  x6=0x0c7c3800
       77595000	      7758	80002474	4006de13	srai	x28,x13,0x0	 x13:0x00000000 x28=0x00000000
       77605000	      7759	80002478	01d028b3	slt	x17,x0,x29	  x0:0x00000000 x29:0x00000001 x17=0x00000001
       77615000	      7760	8000247c	001d9613	slli	x12,x27,0x1	 x27:0x00000000 x12=0x00000000
       77625000	      7761	80002480	007772b3	and	x5,x14,x7	 x14:0xfffff9a7  x7:0x3faeec94  x5=0x3faee884
       77635000	      7762	80002484	4097deb3	sra	x29,x15,x9	 x15:0x00000003  x9:0x00000000 x29=0x00000003
       77645000	      7763	80002488	0059da33	srl	x20,x19,x5	 x19:0x68fe7000  x5:0x3faee884 x20=0x068fe700
       77655000	      7764	8000248c	045c1863	bne	x24,x5,800024dc	 x24:0x00000000  x5:0x3faee884
       77665000	      7765	00000000	00000013	addi	x0,x0,0	  x0:0x00000000
       77675000	      7766	800024d8	00000013	addi	x0,x0,0	  x0:0x00000000
       77685000	      7767	800024dc	70b17093	andi	x1,x2,1803	  x2:0x000c0004  x1=0x00000000
       77695000	      7768	800024e0	03461863	bne	x12,x20,80002510	 x12:0x00000000 x20:0x068fe700
       77705000	      7769	00000000	00000013	addi	x0,x0,0	  x0:0x00000000
       77715000	      7770	8000250c	00000013	addi	x0,x0,0	  x0:0x00000000
       77725000	      7771	80002510	b1de3693	sltiu	x13,x28,-1251	 x28:0x00000000 x13=0x00000001
       77735000	      7772	80002514	00dad613	srli	x12,x21,0xd	 x21:0x00000000 x12=0x00000000
       77745000	      7773	80002518	a274af13	slti	x30,x9,-1497	  x9:0x00000000 x30=0x00000000
       77755000	      7774	8000251c	005ac463	blt	x21,x5,80002524	 x21:0x00000000  x5:0x3faee884
       77765000	      7775	00000000	00000013	addi	x0,x0,0	  x0:0x00000000
       77775000	      7776	80002520	00000013	addi	x0,x0,0	  x0:0x00000000
       77785000	      7777	80002524	0125e6b3	or	x13,x11,x18	 x11:0x63e1c000 x18:0x80009fc4 x13=0xe3e1dfc4
       77795000	      7778	80002528	041d6263	bltu	x26,x1,8000256c	 x26:0x00000000  x1:0x00000000
       77805000	      7779	8000252c	04ecf863	bgeu	x25,x14,8000257c	 x25:0xcdf0e000 x14:0xfffff9a7
       77815000	      7780	80002530	00970ab3	add	x21,x14,x9	 x14:0xfffff9a7  x9:0x00000000 x21=0xfffff9a7
       77825000	      7781	80002534	40185993	srai	x19,x16,0x1	 x16:0x00000001 x19=0x00000000
       77835000	      7782	80002538	00dd11b3	sll	x3,x26,x13	 x26:0x00000000 x13:0xe3e1dfc4  x3=0x00000000
       77845000	      7783	8000253c	00c35013	srli	x0,x6,0xc	  x6:0x0c7c3800
       77855000	      7784	80002540	012fa1b3	slt	x3,x31,x18	 x31:0x80009ec4 x18:0x80009fc4  x3=0x00000001
       77865000	      7785	80002544	412755b3	sra	x11,x14,x18	 x14:0xfffff9a7 x18:0x80009fc4 x11=0xffffff9a
       77875000	      7786	80002548	0167db93	srli	x23,x15,0x16	 x15:0x00000003 x23=0x00000000
       77885000	      7787	8000254c	00cd1313	slli	x6,x26,0xc	 x26:0x00000000  x6=0x00000000
       77895000	      7788	80002550	01a413b3	sll	x7,x8,x26	  x8:0x00000001 x26:0x00000000  x7=0x00000001
       77905000	      7789	80002554	01eff663	bgeu	x31,x30,80002560	 x31:0x80009ec4 x30:0x00000000
       77915000	      7790	00000000	00000013	addi	x0,x0,0	  x0:0x00000000
       77925000	      7791	8000255c	00000013	addi	x0,x0,0	  x0:0x00000000
       77935000	      7792	80002560	014b1533	sll	x10,x22,x20	 x22:0x0dba8504 x20:0x068fe700 x10=0x0dba8504
       77945000	      7793	80002564	01c69713	slli	x14,x13,0x1c	 x13:0xe3e1dfc4 x14=0x40000000
       77955000	      7794	80002568	40b100b3	sub	x1,x2,x11	  x2:0x000c0004 x11:0xffffff9a  x1=0x000c006a
       77965000	      7795	8000256c	b75cb793	sltiu	x15,x25,-1163	 x25:0xcdf0e000 x15=0x00000001
       77975000	      7796	80002570	03330863	beq	x6,x19,800025a0	  x6:0x00000000 x19:0x00000000
       77985000	      7797	00000000	00000013	addi	x0,x0,0	  x0:0x00000000
       77995000	      7798	8000259c	00000013	addi	x0,x0,0	  x0:0x00000000
       78005000	      7799	800025a0	f57c3b97	auipc	x23,0xf57c3	 x23=0x757c559c
       78015000	      7800	800025a4	41785413	srai	x8,x16,0x17	 x16:0x00000001  x8=0x00000000
       78025000	      7801	800025a8	06fdf293	andi	x5,x27,111	 x27:0x00000000  x5=0x00000000
       78035000	      7802	800025ac	05e0d063	bge	x1,x30,800025ec	  x1:0x000c006a x30:0x00000000
       78045000	      7803	00000000	00000013	addi	x0,x0,0	  x0:0x00000000
       78055000	      7804	800025e8	00000013	addi	x0,x0,0	  x0:0x00000000
       78065000	      7805	800025ec	02dae263	bltu	x21,x13,80002610	 x21:0xfffff9a7 x13:0xe3e1dfc4
       78075000	      7806	800025f0	0191a733	slt	x14,x3,x25	  x3:0x00000001 x25:0xcdf0e000 x14=0x00000000
       78085000	      7807	800025f4	002cf1b3	and	x3,x25,x2	 x25:0xcdf0e000  x2:0x000c0004  x3=0x00000000
       78095000	      7808	800025f8	407a5d13	srai	x26,x20,0x7	 x20:0x068fe700 x26=0x000d1fce
       78105000	      7809	800025fc	01206333	or	x6,x0,x18	  x0:0x00000000 x18:0x80009fc4  x6=0x80009fc4
       78115000	      7810	80002600	05b27063	bgeu	x4,x27,80002640	  x4:0xffffffc0 x27:0x00000000
       78125000	      7811	00000000	00000013	addi	x0,x0,0	  x0:0x00000000
       78135000	      7812	8000263c	00000013	addi	x0,x0,0	  x0:0x00000000
       78145000	      7813	80002640	015ddab3	srl	x21,x27,x21	 x27:0x00000000 x21:0xfffff9a7 x21=0x00000000
       78155000	      7814	80002644	004fa083	lw	x1,4(x31)	 x31:0x80009ec4  x1=0x80003bd0 PA:0x80009ec8
       78165000	      7815	80002648	0049ce33	xor	x28,x19,x4	 x19:0x00000000  x4:0xffffffc0 x28=0xffffffc0
       78175000	      7816	8000264c	030f8f93	addi	x31,x31,48	 x31:0x80009ec4 x31=0x80009ef4
       78185000	      7817	80002650	00000013	addi	x0,x0,0	  x0:0x00000000
       78195000	      7818	80002654	01f781b3	add	x3,x15,x31	 x15:0x00000001 x31:0x80009ef4  x3=0x80009ef5
       78205000	      7819	80002658	00d852b3	srl	x5,x16,x13	 x16:0x00000001 x13:0xe3e1dfc4  x5=0x00000000
       78215000	      7820	8000265c	00000013	addi	x0,x0,0	  x0:0x00000000
       78225000	      7821	80002660	00008213	addi	x4,x1,0	  x1:0x80003bd0  x4=0x80003bd0
       78235000	      7822	80002664	00020267	jalr	x4,x4,0	  x4:0x80003bd0  x4=0x80002664
       78245000	      7823	00000000	00000013	addi	x0,x0,0	  x0:0x00000000
       78255000	      7824	80003bd0	00000013	addi	x0,x0,0	  x0:0x00000000
       78265000	      7825	80003bd4	00000013	addi	x0,x0,0	  x0:0x00000000
       78275000	      7826	80003bd8	052c4663	blt	x24,x18,80003c24	 x24:0x00000000 x18:0x80009fc4
       78285000	      7827	80003bdc	01d3e6b3	or	x13,x7,x29	  x7:0x00000001 x29:0x00000003 x13=0x00000003
       78295000	      7828	80003be0	01b3d3b3	srl	x7,x7,x27	  x7:0x00000001 x27:0x00000000  x7=0x00000001
       78305000	      7829	80003be4	131e0393	addi	x7,x28,305	 x28:0xffffffc0  x7=0x000000f1
       78315000	      7830	80003be8	00bc1093	slli	x1,x24,0xb	 x24:0x00000000  x1=0x00000000
       78325000	      7831	80003bec	41085893	srai	x17,x16,0x10	 x16:0x00000001 x17=0x00000000
       78335000	      7832	80003bf0	047c6463	bltu	x24,x7,80003c38	 x24:0x00000000  x7:0x000000f1
       78345000	      7833	00000000	00000013	addi	x0,x0,0	  x0:0x00000000
       78355000	      7834	80003c34	00000013	addi	x0,x0,0	  x0:0x00000000
       78365000	      7835	80003c38	e7ac8993	addi	x19,x25,-390	 x25:0xcdf0e000 x19=0xcdf0de7a
       78375000	      7836	80003c3c	00000013	addi	x0,x0,0	  x0:0x00000000
       78385000	      7837	80003c40	40ced193	srai	x3,x29,0xc	 x29:0x00000003  x3=0x00000000
       78395000	      7838	80003c44	23ecf713	andi	x14,x25,574	 x25:0xcdf0e000 x14=0x00000000
       78405000	      7839	80003c48	fa420c93	addi	x25,x4,-92	  x4:0x80002664 x25=0x80002608
       78415000	      7840	80003c4c	01789833	sll	x16,x17,x23	 x17:0x00000000 x23:0x757c559c x16=0x00000000
       78425000	      7841	80003c50	00000013	addi	x0,x0,0	  x0:0x00000000
       78435000	      7842	80003c54	cffa5197	auipc	x3,0xcffa5	  x3=0x4ffa8c50
       78445000	      7843	80003c58	01bae863	bltu	x21,x27,80003c68	 x21:0x00000000 x27:0x00000000
       78455000	      7844	80003c5c	417755b3	sra	x11,x14,x23	 x14:0x00000000 x23:0x757c559c x11=0x00000000
       78465000	      7845	80003c60	41ebd993	srai	x19,x23,0x1e	 x23:0x757c559c x19=0x00000001
       78475000	      7846	80003c64	3c7e0a13	addi	x20,x28,967	 x28:0xffffffc0 x20=0x00000387
       78485000	      7847	80003c68	016dd9b3	srl	x19,x27,x22	 x27:0x00000000 x22:0x0dba8504 x19=0x00000000
       78495000	      7848	80003c6c	cc08ce97	auipc	x29,0xcc08c	 x29=0x4c08fc68
       78505000	      7849	80003c70	7dc9b697	auipc	x13,0x7dc9b	 x13=0xfdc9ec6c
       78515000	      7850	80003c74	008d71b3	and	x3,x26,x8	 x26:0x000d1fce  x8:0x00000000  x3=0x00000000
       78525000	      7851	80003c78	01571c33	sll	x24,x14,x21	 x14:0x00000000 x21:0x00000000 x24=0x00000000
       78535000	      7852	80003c7c	90297293	andi	x5,x18,-1790	 x18:0x80009fc4  x5=0x80009900
       78545000	      7853	80003c80	015b7263	bgeu	x22,x21,80003c84	 x22:0x0dba8504 x21:0x00000000
       78555000	      7854	00000000	00000013	addi	x0,x0,0	  x0:0x00000000
       78565000	      7855	80003c80	00000013	addi	x0,x0,0	  x0:0x00000000
       78575000	      7856	80003c84	95154113	xori	x2,x10,-1711	 x10:0x0dba8504  x2=0xf2457c55
       78585000	      7857	80003c88	00d0b133	sltu	x2,x1,x13	  x1:0x00000000 x13:0xfdc9ec6c  x2=0x00000001
       78595000	      7858	80003c8c	02938463	beq	x7,x9,80003cb4	  x7:0x000000f1  x9:0x00000000
       78605000	      7859	80003c90	007f5413	srli	x8,x30,0x7	 x30:0x00000000  x8=0x00000000
       78615000	      7860	80003c94	3547ff13	andi	x30,x15,852	 x15:0x00000001 x30=0x00000000
       78625000	      7861	80003c98	011d29b3	slt	x19,x26,x17	 x26:0x000d1fce x17:0x00000000 x19=0x00000000
       78635000	      7862	80003c9c	eafd3593	sltiu	x11,x26,-337	 x26:0x000d1fce x11=0x00000001
       78645000	      7863	80003ca0	00868433	add	x8,x13,x8	 x13:0xfdc9ec6c  x8:0x00000000  x8=0xfdc9ec6c
       78655000	      7864	80003ca4	030afc63	bgeu	x21,x16,80003cdc	 x21:0x00000000 x16:0x00000000
       78665000	      7865	00000000	00000013	addi	x0,x0,0	  x0:0x00000000
       78675000	      7866	80003cd8	00000013	addi	x0,x0,0	  x0:0x00000000
       78685000	      7867	80003cdc	4a12ee13	ori	x28,x5,1185	  x5:0x80009900 x28=0x80009da1
       78695000	      7868	80003ce0	0504c263	blt	x9,x16,80003d24	  x9:0x00000000 x16:0x00000000
       78705000	      7869	80003ce4	01714bb3	xor	x23,x2,x23	  x2:0x00000001 x23:0x757c559c x23=0x757c559d
       78715000	      7870	80003ce8	00199133	sll	x2,x19,x1	 x19:0x00000000  x1:0x00000000  x2=0x00000000
       78725000	      7871	80003cec	00324a33	xor	x20,x4,x3	  x4:0x80002664  x3:0x00000000 x20=0x80002664
       78735000	      7872	80003cf0	01f58e33	add	x28,x11,x31	 x11:0x00000001 x31:0x80009ef4 x28=0x80009ef5
       78745000	      7873	80003cf4	f21ee113	ori	x2,x29,-223	 x29:0x4c08fc68  x2=0xffffff69
       78755000	      7874	80003cf8	0146d863	bge	x13,x20,80003d08	 x13:0xfdc9ec6c x20:0x80002664
       78765000	      7875	00000000	00000013	addi	x0,x0,0	  x0:0x00000000
       78775000	      7876	80003d04	00000013	addi	x0,x0,0	  x0:0x00000000
       78785000	      7877	80003d08	239d4e93	xori	x29,x26,569	 x26:0x000d1fce x29=0x000d1df7
       78795000	      7878	80003d0c	57427093	andi	x1,x4,1396	  x4:0x80002664  x1=0x00000464
       78805000	      7879	80003d10	00000013	addi	x0,x0,0	  x0:0x00000000
       78815000	      7880	80003d14	00000013	addi	x0,x0,0	  x0:0x00000000
       78825000	      7881	80003d18	0f043313	sltiu	x6,x8,240	  x8:0xfdc9ec6c  x6=0x00000000
       78835000	      7882	80003d1c	04ff4263	blt	x30,x15,80003d60	 x30:0x00000000 x15:0x00000001
       78845000	      7883	00000000	00000013	addi	x0,x0,0	  x0:0x00000000
       78855000	      7884	80003d5c	00000013	addi	x0,x0,0	  x0:0x00000000
       78865000	      7885	80003d60	c7b53693	sltiu	x13,x10,-901	 x10:0x0dba8504 x13=0x00000001
       78875000	      7886	80003d64	030dc463	blt	x27,x16,80003d8c	 x27:0x00000000 x16:0x00000000
       78885000	      7887	80003d68	bfb28093	addi	x1,x5,-1029	  x5:0x80009900  x1=0x800094fb
       78895000	      7888	80003d6c	00fd1733	sll	x14,x26,x15	 x26:0x000d1fce x15:0x00000001 x14=0x001a3f9c
       78905000	      7889	80003d70	01987a33	and	x20,x16,x25	 x16:0x00000000 x25:0x80002608 x20=0x00000000
       78915000	      7890	80003d74	00000013	addi	x0,x0,0	  x0:0x00000000
       78925000	      7891	80003d78	0c2c4493	xori	x9,x24,194	 x24:0x00000000  x9=0x000000c2
       78935000	      7892	80003d7c	011c0cb3	add	x25,x24,x17	 x24:0x00000000 x17:0x00000000 x25=0x00000000
       78945000	      7893	80003d80	73353093	sltiu	x1,x10,1843	 x10:0x0dba8504  x1=0x00000000
       78955000	      7894	80003d84	8cef54b7	lui	x9,0x8cef5	  x9=0x8cef5000
       78965000	      7895	80003d88	002fd793	srli	x15,x31,0x2	 x31:0x80009ef4 x15=0x200027bd
       78975000	      7896	80003d8c	01ff3eb3	sltu	x29,x30,x31	 x30:0x00000000 x31:0x80009ef4 x29=0x00000001
       78985000	      7897	80003d90	00e9c633	xor	x12,x19,x14	 x19:0x00000000 x14:0x001a3f9c x12=0x001a3f9c
       78995000	      7898	80003d94	00392c33	slt	x24,x18,x3	 x18:0x80009fc4  x3:0x00000000 x24=0x00000001
       79005000	      7899	80003d98	4349bf13	sltiu	x30,x19,1076	 x19:0x00000000 x30=0x00000001
       79015000	      7900	80003d9c	00515a93	srli	x21,x2,0x5	  x2:0xffffff69 x21=0x07fffffb
       79025000	      7901	80003da0	013695b3	sll	x11,x13,x19	 x13:0x00000001 x19:0x00000000 x11=0x00000001
       79035000	      7902	80003da4	59adec93	ori	x25,x27,1434	 x27:0x00000000 x25=0x0000059a
       79045000	      7903	80003da8	021e5e63	bge	x28,x1,80003de4	 x28:0x80009ef5  x1:0x00000000
       79055000	      7904	80003dac	00a05993	srli	x19,x0,0xa	  x0:0x00000000 x19=0x00000000
       79065000	      7905	80003db0	01449733	sll	x14,x9,x20	  x9:0x8cef5000 x20:0x00000000 x14=0x8cef5000
       79075000	      7906	80003db4	8b802893	slti	x17,x0,-1864	  x0:0x00000000 x17=0x00000000
       79085000	      7907	80003db8	00394733	xor	x14,x18,x3	 x18:0x80009fc4  x3:0x00000000 x14=0x80009fc4
       79095000	      7908	80003dbc	002a5533	srl	x10,x20,x2	 x20:0x00000000  x2:0xffffff69 x10=0x00000000
       79105000	      7909	80003dc0	2613eb13	ori	x22,x7,609	  x7:0x000000f1 x22=0x000002f1
       79115000	      7910	80003dc4	02d78c63	beq	x15,x13,80003dfc	 x15:0x200027bd x13:0x00000001
       79125000	      7911	80003dc8	01971c63	bne	x14,x25,80003de0	 x14:0x80009fc4 x25:0x0000059a
       79135000	      7912	00000000	00000013	addi	x0,x0,0	  x0:0x00000000
       79145000	      7913	80003ddc	00000013	addi	x0,x0,0	  x0:0x00000000
       79155000	      7914	80003de0	019248b3	xor	x17,x4,x25	  x4:0x80002664 x25:0x0000059a x17=0x800023fe
       79165000	      7915	80003de4	40370033	sub	x0,x14,x3	 x14:0x80009fc4  x3:0x00000000
       79175000	      7916	80003de8	0041c3b3	xor	x7,x3,x4	  x3:0x00000000  x4:0x80002664  x7=0x80002664
       79185000	      7917	80003dec	0158a333	slt	x6,x17,x21	 x17:0x800023fe x21:0x07fffffb  x6=0x00000001
       79195000	      7918	80003df0	01e1c463	blt	x3,x30,80003df8	  x3:0x00000000 x30:0x00000001
       79205000	      7919	00000000	00000013	addi	x0,x0,0	  x0:0x00000000
       79215000	      7920	80003df4	00000013	addi	x0,x0,0	  x0:0x00000000
       79225000	      7921	80003df8	b9682313	slti	x6,x16,-1130	 x16:0x00000000  x6=0x00000000
       79235000	      7922	80003dfc	414353b3	sra	x7,x6,x20	  x6:0x00000000 x20:0x00000000  x7=0x00000000
       79245000	      7923	80003e00	1adb2e37	lui	x28,0x1adb2	 x28=0x1adb2000
       79255000	      7924	80003e04	417d8333	sub	x6,x27,x23	 x27:0x00000000 x23:0x757c559d  x6=0x8a83aa63
       79265000	      7925	80003e08	857d0217	auipc	x4,0x857d0	  x4=0x057d3e04
       79275000	      7926	80003e0c	00799463	bne	x19,x7,80003e14	 x19:0x00000000  x7:0x00000000
       79285000	      7927	80003e10	00000013	addi	x0,x0,0	  x0:0x00000000
       79295000	      7928	80003e14	41ac07b3	sub	x15,x24,x26	 x24:0x00000001 x26:0x000d1fce x15=0xfff2e033
       79305000	      7929	80003e18	0117d733	srl	x14,x15,x17	 x15:0xfff2e033 x17:0x800023fe x14=0x00000003
       79315000	      7930	80003e1c	404007b3	sub	x15,x0,x4	  x0:0x00000000  x4:0x057d3e04 x15=0xfa82c1fc
       79325000	      7931	80003e20	03ad1e63	bne	x26,x26,80003e5c	 x26:0x000d1fce x26:0x000d1fce
       79335000	      7932	80003e24	408b5833	sra	x16,x22,x8	 x22:0x000002f1  x8:0xfdc9ec6c x16=0x00000000
       79345000	      7933	80003e28	40425d33	sra	x26,x4,x4	  x4:0x057d3e04  x4:0x057d3e04 x26=0x0057d3e0
       79355000	      7934	80003e2c	7cec0113	addi	x2,x24,1998	 x24:0x00000001  x2=0x000007cf
       79365000	      7935	80003e30	04a49863	bne	x9,x10,80003e80	  x9:0x8cef5000 x10:0x00000000
       79375000	      7936	00000000	00000013	addi	x0,x0,0	  x0:0x00000000
       79385000	      7937	80003e7c	00000013	addi	x0,x0,0	  x0:0x00000000
       79395000	      7938	80003e80	13640713	addi	x14,x8,310	  x8:0xfdc9ec6c x14=0xfdc9eda2
       79405000	      7939	80003e84	01b3fc63	bgeu	x7,x27,80003e9c	  x7:0x00000000 x27:0x00000000
       79415000	      7940	00000000	00000013	addi	x0,x0,0	  x0:0x00000000
       79425000	      7941	80003e98	00000013	addi	x0,x0,0	  x0:0x00000000
       79435000	      7942	80003e9c	00add393	srli	x7,x27,0xa	 x27:0x00000000  x7=0x00000000
       79445000	      7943	80003ea0	4dca7113	andi	x2,x20,1244	 x20:0x00000000  x2=0x00000000
       79455000	      7944	80003ea4	60a6f093	andi	x1,x13,1546	 x13:0x00000001  x1=0x00000000
       79465000	      7945	80003ea8	41f10033	sub	x0,x2,x31	  x2:0x00000000 x31:0x80009ef4
       79475000	      7946	80003eac	002bfc63	bgeu	x23,x2,80003ec4	 x23:0x757c559d  x2:0x00000000
       79485000	      7947	00000000	00000013	addi	x0,x0,0	  x0:0x00000000
       79495000	      7948	80003ec0	00000013	addi	x0,x0,0	  x0:0x00000000
       79505000	      7949	80003ec4	00f5d433	srl	x8,x11,x15	 x11:0x00000001 x15:0xfa82c1fc  x8=0x00000000
       79515000	      7950	80003ec8	01db47b3	xor	x15,x22,x29	 x22:0x000002f1 x29:0x00000001 x15=0x000002f0
       79525000	      7951	80003ecc	01d81493	slli	x9,x16,0x1d	 x16:0x00000000  x9=0x00000000
       79535000	      7952	80003ed0	042b7663	bgeu	x22,x2,80003f1c	 x22:0x000002f1  x2:0x00000000
       79545000	      7953	00000000	00000013	addi	x0,x0,0	  x0:0x00000000
       79555000	      7954	80003f18	00000013	addi	x0,x0,0	  x0:0x00000000
       79565000	      7955	80003f1c	01fcf863	bgeu	x25,x31,80003f2c	 x25:0x0000059a x31:0x80009ef4
       79575000	      7956	80003f20	00fbea63	bltu	x23,x15,80003f34	 x23:0x757c559d x15:0x000002f0
       79585000	      7957	80003f24	01cd7133	and	x2,x26,x28	 x26:0x0057d3e0 x28:0x1adb2000  x2=0x00530000
       79595000	      7958	80003f28	0151d463	bge	x3,x21,80003f30	  x3:0x00000000 x21:0x07fffffb
       79605000	      7959	80003f2c	da036013	ori	x0,x6,-608	  x6:0x8a83aa63
       79615000	      7960	80003f30	6d55d297	auipc	x5,0x6d55d	  x5=0xed560f2c
       79625000	      7961	80003f34	010c5c63	bge	x24,x16,80003f4c	 x24:0x00000001 x16:0x00000000
       79635000	      7962	00000000	00000013	addi	x0,x0,0	  x0:0x00000000
       79645000	      7963	80003f48	00000013	addi	x0,x0,0	  x0:0x00000000
       79655000	      7964	80003f4c	00000013	addi	x0,x0,0	  x0:0x00000000
       79665000	      7965	80003f50	e6283017	auipc	x0,0xe6283	
       79675000	      7966	80003f54	00307b33	and	x22,x0,x3	  x0:0x00000000  x3:0x00000000 x22=0x00000000
       79685000	      7967	80003f58	024b6463	bltu	x22,x4,80003f80	 x22:0x00000000  x4:0x057d3e04
       79695000	      7968	00000000	00000013	addi	x0,x0,0	  x0:0x00000000
       79705000	      7969	80003f7c	00000013	addi	x0,x0,0	  x0:0x00000000
       79715000	      7970	80003f80	01f39ab3	sll	x21,x7,x31	  x7:0x00000000 x31:0x80009ef4 x21=0x00000000
       79725000	      7971	80003f84	9bf6b997	auipc	x19,0x9bf6b	 x19=0x1bf6ef80
       79735000	      7972	80003f88	4036f693	andi	x13,x13,1027	 x13:0x00000001 x13=0x00000001
       79745000	      7973	80003f8c	044c9463	bne	x25,x4,80003fd4	 x25:0x0000059a  x4:0x057d3e04
       79755000	      7974	00000000	00000013	addi	x0,x0,0	  x0:0x00000000
       79765000	      7975	80003fd0	00000013	addi	x0,x0,0	  x0:0x00000000
       79775000	      7976	80003fd4	41a9d713	srai	x14,x19,0x1a	 x19:0x1bf6ef80 x14=0x00000006
       79785000	      7977	80003fd8	003b9693	slli	x13,x23,0x3	 x23:0x757c559d x13=0xabe2ace8
       79795000	      7978	80003fdc	55ee3493	sltiu	x9,x28,1374	 x28:0x1adb2000  x9=0x00000000
       79805000	      7979	80003fe0	00c3dcb3	srl	x25,x7,x12	  x7:0x00000000 x12:0x001a3f9c x25=0x00000000
       79815000	      7980	80003fe4	02c09e63	bne	x1,x12,80004020	  x1:0x00000000 x12:0x001a3f9c
       79825000	      7981	00000000	00000013	addi	x0,x0,0	  x0:0x00000000
       79835000	      7982	8000401c	00000013	addi	x0,x0,0	  x0:0x00000000
       79845000	      7983	80004020	03f44e63	blt	x8,x31,8000405c	  x8:0x00000000 x31:0x80009ef4
       79855000	      7984	80004024	002c7133	and	x2,x24,x2	 x24:0x00000001  x2:0x00530000  x2=0x00000000
       79865000	      7985	80004028	015b9a63	bne	x23,x21,8000403c	 x23:0x757c559d x21:0x00000000
       79875000	      7986	00000000	00000013	addi	x0,x0,0	  x0:0x00000000
       79885000	      7987	80004038	00000013	addi	x0,x0,0	  x0:0x00000000
       79895000	      7988	8000403c	e0f6cb93	xori	x23,x13,-497	 x13:0xabe2ace8 x23=0x541d52e7
       79905000	      7989	80004040	41818b33	sub	x22,x3,x24	  x3:0x00000000 x24:0x00000001 x22=0xffffffff
       79915000	      7990	80004044	28176293	ori	x5,x14,641	 x14:0x00000006  x5=0x00000287
       79925000	      7991	80004048	00480c63	beq	x16,x4,80004060	 x16:0x00000000  x4:0x057d3e04
       79935000	      7992	8000404c	40950c33	sub	x24,x10,x9	 x10:0x00000000  x9:0x00000000 x24=0x00000000
       79945000	      7993	80004050	41395e33	sra	x28,x18,x19	 x18:0x80009fc4 x19:0x1bf6ef80 x28=0x80009fc4
       79955000	      7994	80004054	016d2333	slt	x6,x26,x22	 x26:0x0057d3e0 x22:0xffffffff  x6=0x00000000
       79965000	      7995	80004058	01f90233	add	x4,x18,x31	 x18:0x80009fc4 x31:0x80009ef4  x4=0x00013eb8
       79975000	      7996	8000405c	00ea9a93	slli	x21,x21,0xe	 x21:0x00000000 x21=0x00000000
       79985000	      7997	80004060	01701d33	sll	x26,x0,x23	  x0:0x00000000 x23:0x541d52e7 x26=0x00000000
       79995000	      7998	80004064	00000013	addi	x0,x0,0	  x0:0x00000000
       80005000	      7999	80004068	011aa7b3	slt	x15,x21,x17	 x21:0x00000000 x17:0x800023fe x15=0x00000000
       80015000	      8000	8000406c	01ef4a33	xor	x20,x30,x30	 x30:0x00000001 x30:0x00000001 x20=0x00000000
       80025000	      8001	80004070	018b9113	slli	x2,x23,0x18	 x23:0x541d52e7  x2=0xe7000000
       80035000	      8002	80004074	40445e93	srai	x29,x8,0x4	  x8:0x00000000 x29=0x00000000
       80045000	      8003	80004078	01e171b3	and	x3,x2,x30	  x2:0xe7000000 x30:0x00000001  x3=0x00000000
       80055000	      8004	8000407c	41ca8133	sub	x2,x21,x28	 x21:0x00000000 x28:0x80009fc4  x2=0x7fff603c
       80065000	      8005	80004080	0190f633	and	x12,x1,x25	  x1:0x00000000 x25:0x00000000 x12=0x00000000
       80075000	      8006	80004084	04646263	bltu	x8,x6,800040c8	  x8:0x00000000  x6:0x00000000
       80085000	      8007	80004088	00000013	addi	x0,x0,0	  x0:0x00000000
       80095000	      8008	8000408c	00168c63	beq	x13,x1,800040a4	 x13:0xabe2ace8  x1:0x00000000
       80105000	      8009	80004090	01e927b3	slt	x15,x18,x30	 x18:0x80009fc4 x30:0x00000001 x15=0x00000001
       80115000	      8010	80004094	be446993	ori	x19,x8,-1052	  x8:0x00000000 x19=0xfffffbe4
       80125000	      8011	80004098	01445733	srl	x14,x8,x20	  x8:0x00000000 x20:0x00000000 x14=0x00000000
       80135000	      8012	8000409c	00bf9463	bne	x31,x11,800040a4	 x31:0x80009ef4 x11:0x00000001
       80145000	      8013	00000000	00000013	addi	x0,x0,0	  x0:0x00000000
       80155000	      8014	800040a0	00000013	addi	x0,x0,0	  x0:0x00000000
       80165000	      8015	800040a4	b3950713	addi	x14,x10,-1223	 x10:0x00000000 x14=0xfffffb39
       80175000	      8016	800040a8	01b605b3	add	x11,x12,x27	 x12:0x00000000 x27:0x00000000 x11=0x00000000
       80185000	      8017	800040ac	032f4a63	blt	x30,x18,800040e0	 x30:0x00000001 x18:0x80009fc4
       80195000	      8018	800040b0	00d77863	bgeu	x14,x13,800040c0	 x14:0xfffffb39 x13:0xabe2ace8
       80205000	      8019	00000000	00000013	addi	x0,x0,0	  x0:0x00000000
       80215000	      8020	800040bc	00000013	addi	x0,x0,0	  x0:0x00000000
       80225000	      8021	800040c0	01bafa63	bgeu	x21,x27,800040d4	 x21:0x00000000 x27:0x00000000
       80235000	      8022	00000000	00000013	addi	x0,x0,0	  x0:0x00000000
       80245000	      8023	800040d0	00000013	addi	x0,x0,0	  x0:0x00000000
       80255000	      8024	800040d4	008b5eb3	srl	x29,x22,x8	 x22:0xffffffff  x8:0x00000000 x29=0xffffffff
       80265000	      8025	800040d8	0164c033	xor	x0,x9,x22	  x9:0x00000000 x22:0xffffffff
       80275000	      8026	800040dc	15f2ec13	ori	x24,x5,351	  x5:0x00000287 x24=0x000003df
       80285000	      8027	800040e0	1dc27693	andi	x13,x4,476	  x4:0x00013eb8 x13=0x00000098
       80295000	      8028	800040e4	01f94233	xor	x4,x18,x31	 x18:0x80009fc4 x31:0x80009ef4  x4=0x00000130
       80305000	      8029	800040e8	cc18e497	auipc	x9,0xcc18e	  x9=0x4c1920e4
       80315000	      8030	800040ec	3295b993	sltiu	x19,x11,809	 x11:0x00000000 x19=0x00000001
       80325000	      8031	800040f0	01042ab3	slt	x21,x8,x16	  x8:0x00000000 x16:0x00000000 x21=0x00000000
       80335000	      8032	800040f4	05abe463	bltu	x23,x26,8000413c	 x23:0x541d52e7 x26:0x00000000
       80345000	      8033	800040f8	009207b3	add	x15,x4,x9	  x4:0x00000130  x9:0x4c1920e4 x15=0x4c192214
       80355000	      8034	800040fc	f35fec93	ori	x25,x31,-203	 x31:0x80009ef4 x25=0xfffffff5
       80365000	      8035	80004100	515a8813	addi	x16,x21,1301	 x21:0x00000000 x16=0x00000515
       80375000	      8036	80004104	0175e863	bltu	x11,x23,80004114	 x11:0x00000000 x23:0x541d52e7
       80385000	      8037	00000000	00000013	addi	x0,x0,0	  x0:0x00000000
       80395000	      8038	80004110	00000013	addi	x0,x0,0	  x0:0x00000000
       80405000	      8039	80004114	00141713	slli	x14,x8,0x1	  x8:0x00000000 x14=0x00000000
       80415000	      8040	80004118	04e12493	slti	x9,x2,78	  x2:0x7fff603c  x9=0x00000000
       80425000	      8041	8000411c	010d7433	and	x8,x26,x16	 x26:0x00000000 x16:0x00000515  x8=0x00000000
       80435000	      8042	80004120	00000013	addi	x0,x0,0	  x0:0x00000000
       80445000	      8043	80004124	00dfc8b3	xor	x17,x31,x13	 x31:0x80009ef4 x13:0x00000098 x17=0x80009e6c
       80455000	      8044	80004128	05576063	bltu	x14,x21,80004168	 x14:0x00000000 x21:0x00000000
       80465000	      8045	8000412c	403c0c33	sub	x24,x24,x3	 x24:0x000003df  x3:0x00000000 x24=0x000003df
       80475000	      8046	80004130	9a35e713	ori	x14,x11,-1629	 x11:0x00000000 x14=0xfffff9a3
       80485000	      8047	80004134	031c7463	bgeu	x24,x17,8000415c	 x24:0x000003df x17:0x80009e6c
       80495000	      8048	80004138	fe3cc413	xori	x8,x25,-29	 x25:0xfffffff5  x8=0x00000016
       80505000	      8049	8000413c	018e1463	bne	x28,x24,80004144	 x28:0x80009fc4 x24:0x000003df
       80515000	      8050	00000000	00000013	addi	x0,x0,0	  x0:0x00000000
       80525000	      8051	80004140	00000013	addi	x0,x0,0	  x0:0x00000000
       80535000	      8052	80004144	001952b3	srl	x5,x18,x1	 x18:0x80009fc4  x1:0x00000000  x5=0x80009fc4
       80545000	      8053	80004148	03994463	blt	x18,x25,80004170	 x18:0x80009fc4 x25:0xfffffff5
       80555000	      8054	00000000	00000013	addi	x0,x0,0	  x0:0x00000000
       80565000	      8055	8000416c	00000013	addi	x0,x0,0	  x0:0x00000000
       80575000	      8056	80004170	402bd413	srai	x8,x23,0x2	 x23:0x541d52e7  x8=0x150754b9
       80585000	      8057	80004174	004fa083	lw	x1,4(x31)	 x31:0x80009ef4  x1=0x80004208 PA:0x80009ef8
       80595000	      8058	80004178	00550ab3	add	x21,x10,x5	 x10:0x00000000  x5:0x80009fc4 x21=0x80009fc4
       80605000	      8059	8000417c	038f8f93	addi	x31,x31,56	 x31:0x80009ef4 x31=0x80009f2c
       80615000	      8060	80004180	40710bb3	sub	x23,x2,x7	  x2:0x7fff603c  x7:0x00000000 x23=0x7fff603c
       80625000	      8061	80004184	407a2a13	slti	x20,x20,1031	 x20:0x00000000 x20=0x00000001
       80635000	      8062	80004188	016dcbb3	xor	x23,x27,x22	 x27:0x00000000 x22:0xffffffff x23=0xffffffff
       80645000	      8063	8000418c	e0b8a813	slti	x16,x17,-501	 x17:0x80009e6c x16=0x00000001
       80655000	      8064	80004190	41c35833	sra	x16,x6,x28	  x6:0x00000000 x28:0x80009fc4 x16=0x00000000
       80665000	      8065	80004194	401502b3	sub	x5,x10,x1	 x10:0x00000000  x1:0x80004208  x5=0x7fffbdf8
       80675000	      8066	80004198	00108f13	addi	x30,x1,1	  x1:0x80004208 x30=0x80004209
       80685000	      8067	8000419c	000f0f67	jalr	x30,x30,0	 x30:0x80004209 x30=0x8000419c
       80695000	      8068	00000000	00000013	addi	x0,x0,0	  x0:0x00000000
       80705000	      8069	80004208	00000013	addi	x0,x0,0	  x0:0x00000000
       80715000	      8070	8000420c	ffffe097	auipc	x1,0xffffe	  x1=0x80002208
       80725000	      8071	80004210	45c08093	addi	x1,x1,1116	  x1:0x80002208  x1=0x80002664
       80735000	      8072	80004214	403f5d33	sra	x26,x30,x3	 x30:0x8000419c  x3:0x00000000 x26=0x8000419c
       80745000	      8073	80004218	06908093	addi	x1,x1,105	  x1:0x80002664  x1=0x800026cd
       80755000	      8074	8000421c	01dc4c63	blt	x24,x29,80004234	 x24:0x000003df x29:0xffffffff
       80765000	      8075	80004220	00f05713	srli	x14,x0,0xf	  x0:0x00000000 x14=0x00000000
       80775000	      8076	80004224	412b8ab3	sub	x21,x23,x18	 x23:0xffffffff x18:0x80009fc4 x21=0x7fff603b
       80785000	      8077	80004228	5dd5b313	sltiu	x6,x11,1501	 x11:0x00000000  x6=0x00000001
       80795000	      8078	8000422c	0067ccb3	xor	x25,x15,x6	 x15:0x4c192214  x6:0x00000001 x25=0x4c192215
       80805000	      8079	80004230	4769a213	slti	x4,x19,1142	 x19:0x00000001  x4=0x00000001
       80815000	      8080	80004234	f97080e7	jalr	x1,x1,-105	  x1:0x800026cd  x1=0x80004234
       80825000	      8081	00000000	00000013	addi	x0,x0,0	  x0:0x00000000
       80835000	      8082	80002664	00000013	addi	x0,x0,0	  x0:0x00000000
       80845000	      8083	80002668	00e85e93	srli	x29,x16,0xe	 x16:0x00000000 x29=0x00000000
       80855000	      8084	8000266c	fc8f8f93	addi	x31,x31,-56	 x31:0x80009f2c x31=0x80009ef4
       80865000	      8085	80002670	009ede93	srli	x29,x29,0x9	 x29:0x00000000 x29=0x00000000
       80875000	      8086	80002674	001fa223	sw	x1,4(x31)	 x31:0x80009ef4  x1:0x80004234 PA:0x80009ef8
       80885000	      8087	80002678	0009b9b3	sltu	x19,x19,x0	 x19:0x00000001  x0:0x00000000 x19=0x00000000
       80895000	      8088	8000267c	00000013	addi	x0,x0,0	  x0:0x00000000
       80905000	      8089	80002680	40eedd33	sra	x26,x29,x14	 x29:0x00000000 x14:0x00000000 x26=0x00000000
       80915000	      8090	80002684	4d6ee413	ori	x8,x29,1238	 x29:0x00000000  x8=0x000004d6
       80925000	      8091	80002688	014ce633	or	x12,x25,x20	 x25:0x4c192215 x20:0x00000001 x12=0x4c192215
       80935000	      8092	8000268c	017cb133	sltu	x2,x25,x23	 x25:0x4c192215 x23:0xffffffff  x2=0x00000001
       80945000	      8093	80002690	01650e33	add	x28,x10,x22	 x10:0x00000000 x22:0xffffffff x28=0xffffffff
       80955000	      8094	80002694	00000013	addi	x0,x0,0	  x0:0x00000000
       80965000	      8095	80002698	3ac12113	slti	x2,x2,940	  x2:0x00000001  x2=0x00000001
       80975000	      8096	8000269c	00129f33	sll	x30,x5,x1	  x5:0x7fffbdf8  x1:0x80004234 x30=0xdf800000
       80985000	      8097	800026a0	005784b3	add	x9,x15,x5	 x15:0x4c192214  x5:0x7fffbdf8  x9=0xcc18e00c
       80995000	      8098	800026a4	1afa6013	ori	x0,x20,431	 x20:0x00000001
       81005000	      8099	800026a8	01566a63	bltu	x12,x21,800026bc	 x12:0x4c192215 x21:0x7fff603b
       81015000	      8100	00000000	00000013	addi	x0,x0,0	  x0:0x00000000
       81025000	      8101	800026b8	00000013	addi	x0,x0,0	  x0:0x00000000
       81035000	      8102	800026bc	00000013	addi	x0,x0,0	  x0:0x00000000
       81045000	      8103	800026c0	01f67033	and	x0,x12,x31	 x12:0x4c192215 x31:0x80009ef4
       81055000	      8104	800026c4	8a640993	addi	x19,x8,-1882	  x8:0x000004d6 x19=0xfffffd7c
       81065000	      8105	800026c8	63f15d37	lui	x26,0x63f15	 x26=0x63f15000
       81075000	      8106	800026cc	004fa083	lw	x1,4(x31)	 x31:0x80009ef4  x1=0x80004234 PA:0x80009ef8
       81085000	      8107	800026d0	41a00f33	sub	x30,x0,x26	  x0:0x00000000 x26:0x63f15000 x30=0x9c0eb000
       81095000	      8108	800026d4	038f8f93	addi	x31,x31,56	 x31:0x80009ef4 x31=0x80009f2c
       81105000	      8109	800026d8	009d17b3	sll	x15,x26,x9	 x26:0x63f15000  x9:0xcc18e00c x15=0x15000000
       81115000	      8110	800026dc	00000013	addi	x0,x0,0	  x0:0x00000000
       81125000	      8111	800026e0	00346d33	or	x26,x8,x3	  x8:0x000004d6  x3:0x00000000 x26=0x000004d6
       81135000	      8112	800026e4	00008513	addi	x10,x1,0	  x1:0x80004234 x10=0x80004234
       81145000	      8113	800026e8	00050567	jalr	x10,x10,0	 x10:0x80004234 x10=0x800026e8
       81155000	      8114	00000000	00000013	addi	x0,x0,0	  x0:0x00000000
       81165000	      8115	80004234	00000013	addi	x0,x0,0	  x0:0x00000000
       81175000	      8116	80004238	020000ef	jal	x1,80004238	  x1=0x80004238
       81185000	      8117	00000000	00000013	addi	x0,x0,0	  x0:0x00000000
       81195000	      8118	80004254	00000013	addi	x0,x0,0	  x0:0x00000000
       81205000	      8119	80004258	0080026f	jal	x4,80004258	  x4=0x80004258
       81215000	      8120	00000000	00000013	addi	x0,x0,0	  x0:0x00000000
       81225000	      8121	8000425c	00000013	addi	x0,x0,0	  x0:0x00000000
       81235000	      8122	80004260	fe9ff0ef	jal	x1,80004260	  x1=0x80004260
       81245000	      8123	00000000	00000013	addi	x0,x0,0	  x0:0x00000000
       81255000	      8124	80004244	00000013	addi	x0,x0,0	  x0:0x00000000
       81265000	      8125	80004248	0080036f	jal	x6,80004248	  x6=0x80004248
       81275000	      8126	00000000	00000013	addi	x0,x0,0	  x0:0x00000000
       81285000	      8127	8000424c	00000013	addi	x0,x0,0	  x0:0x00000000
       81295000	      8128	80004250	0040066f	jal	x12,80004250	 x12=0x80004250
       81305000	      8129	00000000	00000013	addi	x0,x0,0	  x0:0x00000000
       81315000	      8130	80004250	00000013	addi	x0,x0,0	  x0:0x00000000
       81325000	      8131	80004254	008000ef	jal	x1,80004254	  x1=0x80004254
       81335000	      8132	00000000	00000013	addi	x0,x0,0	  x0:0x00000000
       81345000	      8133	80004258	00000013	addi	x0,x0,0	  x0:0x00000000
       81355000	      8134	8000425c	010000ef	jal	x1,8000425c	  x1=0x8000425c
       81365000	      8135	00000000	00000013	addi	x0,x0,0	  x0:0x00000000
       81375000	      8136	80004268	00000013	addi	x0,x0,0	  x0:0x00000000
       81385000	      8137	8000426c	fd5ff0ef	jal	x1,8000426c	  x1=0x8000426c
       81395000	      8138	00000000	00000013	addi	x0,x0,0	  x0:0x00000000
       81405000	      8139	8000423c	00000013	addi	x0,x0,0	  x0:0x00000000
       81415000	      8140	80004240	00c0036f	jal	x6,80004240	  x6=0x80004240
       81425000	      8141	00000000	00000013	addi	x0,x0,0	  x0:0x00000000
       81435000	      8142	80004248	00000013	addi	x0,x0,0	  x0:0x00000000
       81445000	      8143	8000424c	ff9ff36f	jal	x6,8000424c	  x6=0x8000424c
       81455000	      8144	00000000	00000013	addi	x0,x0,0	  x0:0x00000000
       81465000	      8145	80004240	00000013	addi	x0,x0,0	  x0:0x00000000
       81475000	      8146	80004244	0200036f	jal	x6,80004244	  x6=0x80004244
       81485000	      8147	00000000	00000013	addi	x0,x0,0	  x0:0x00000000
       81495000	      8148	80004260	00000013	addi	x0,x0,0	  x0:0x00000000
       81505000	      8149	80004264	0040036f	jal	x6,80004264	  x6=0x80004264
       81515000	      8150	00000000	00000013	addi	x0,x0,0	  x0:0x00000000
       81525000	      8151	80004264	00000013	addi	x0,x0,0	  x0:0x00000000
       81535000	      8152	80004268	fd5ff0ef	jal	x1,80004268	  x1=0x80004268
       81545000	      8153	00000000	00000013	addi	x0,x0,0	  x0:0x00000000
       81555000	      8154	80004238	00000013	addi	x0,x0,0	  x0:0x00000000
       81565000	      8155	8000423c	034000ef	jal	x1,8000423c	  x1=0x8000423c
       81575000	      8156	00000000	00000013	addi	x0,x0,0	  x0:0x00000000
       81585000	      8157	8000426c	00000013	addi	x0,x0,0	  x0:0x00000000
       81595000	      8158	80004270	00289e93	slli	x29,x17,0x2	 x17:0x80009e6c x29=0x000279b0
       81605000	      8159	80004274	004000ef	jal	x1,80004274	  x1=0x80004274
       81615000	      8160	00000000	00000013	addi	x0,x0,0	  x0:0x00000000
       81625000	      8161	80004274	00000013	addi	x0,x0,0	  x0:0x00000000
       81635000	      8162	80004278	004000ef	jal	x1,80004278	  x1=0x80004278
       81645000	      8163	00000000	00000013	addi	x0,x0,0	  x0:0x00000000
       81655000	      8164	80004278	00000013	addi	x0,x0,0	  x0:0x00000000
       81665000	      8165	8000427c	02c000ef	jal	x1,8000427c	  x1=0x8000427c
       81675000	      8166	00000000	00000013	addi	x0,x0,0	  x0:0x00000000
       81685000	      8167	800042a4	00000013	addi	x0,x0,0	  x0:0x00000000
       81695000	      8168	800042a8	fedff0ef	jal	x1,800042a8	  x1=0x800042a8
       81705000	      8169	00000000	00000013	addi	x0,x0,0	  x0:0x00000000
       81715000	      8170	80004290	00000013	addi	x0,x0,0	  x0:0x00000000
       81725000	      8171	80004294	008000ef	jal	x1,80004294	  x1=0x80004294
       81735000	      8172	00000000	00000013	addi	x0,x0,0	  x0:0x00000000
       81745000	      8173	80004298	00000013	addi	x0,x0,0	  x0:0x00000000
       81755000	      8174	8000429c	01c000ef	jal	x1,8000429c	  x1=0x8000429c
       81765000	      8175	00000000	00000013	addi	x0,x0,0	  x0:0x00000000
       81775000	      8176	800042b4	00000013	addi	x0,x0,0	  x0:0x00000000
       81785000	      8177	800042b8	ff5ff16f	jal	x2,800042b8	  x2=0x800042b8
       81795000	      8178	00000000	00000013	addi	x0,x0,0	  x0:0x00000000
       81805000	      8179	800042a8	00000013	addi	x0,x0,0	  x0:0x00000000
       81815000	      8180	800042ac	fe5ff36f	jal	x6,800042ac	  x6=0x800042ac
       81825000	      8181	00000000	00000013	addi	x0,x0,0	  x0:0x00000000
       81835000	      8182	8000428c	00000013	addi	x0,x0,0	  x0:0x00000000
       81845000	      8183	80004290	024000ef	jal	x1,80004290	  x1=0x80004290
       81855000	      8184	00000000	00000013	addi	x0,x0,0	  x0:0x00000000
       81865000	      8185	800042b0	00000013	addi	x0,x0,0	  x0:0x00000000
       81875000	      8186	800042b4	fcdff0ef	jal	x1,800042b4	  x1=0x800042b4
       81885000	      8187	00000000	00000013	addi	x0,x0,0	  x0:0x00000000
       81895000	      8188	8000427c	00000013	addi	x0,x0,0	  x0:0x00000000
       81905000	      8189	80004280	018000ef	jal	x1,80004280	  x1=0x80004280
       81915000	      8190	00000000	00000013	addi	x0,x0,0	  x0:0x00000000
       81925000	      8191	80004294	00000013	addi	x0,x0,0	  x0:0x00000000
       81935000	      8192	80004298	008000ef	jal	x1,80004298	  x1=0x80004298
       81945000	      8193	00000000	00000013	addi	x0,x0,0	  x0:0x00000000
       81955000	      8194	8000429c	00000013	addi	x0,x0,0	  x0:0x00000000
       81965000	      8195	800042a0	fe5ff36f	jal	x6,800042a0	  x6=0x800042a0
       81975000	      8196	00000000	00000013	addi	x0,x0,0	  x0:0x00000000
       81985000	      8197	80004280	00000013	addi	x0,x0,0	  x0:0x00000000
       81995000	      8198	80004284	008000ef	jal	x1,80004284	  x1=0x80004284
       82005000	      8199	00000000	00000013	addi	x0,x0,0	  x0:0x00000000
       82015000	      8200	80004288	00000013	addi	x0,x0,0	  x0:0x00000000
       82025000	      8201	8000428c	ffdff0ef	jal	x1,8000428c	  x1=0x8000428c
       82035000	      8202	00000000	00000013	addi	x0,x0,0	  x0:0x00000000
       82045000	      8203	80004284	00000013	addi	x0,x0,0	  x0:0x00000000
       82055000	      8204	80004288	02800d6f	jal	x26,80004288	 x26=0x80004288
       82065000	      8205	00000000	00000013	addi	x0,x0,0	  x0:0x00000000
       82075000	      8206	800042ac	00000013	addi	x0,x0,0	  x0:0x00000000
       82085000	      8207	800042b0	ff5ff0ef	jal	x1,800042b0	  x1=0x800042b0
       82095000	      8208	00000000	00000013	addi	x0,x0,0	  x0:0x00000000
       82105000	      8209	800042a0	00000013	addi	x0,x0,0	  x0:0x00000000
       82115000	      8210	800042a4	018000ef	jal	x1,800042a4	  x1=0x800042a4
       82125000	      8211	00000000	00000013	addi	x0,x0,0	  x0:0x00000000
       82135000	      8212	800042b8	00000013	addi	x0,x0,0	  x0:0x00000000
       82145000	      8213	800042bc	01b907b3	add	x15,x18,x27	 x18:0x80009fc4 x27:0x00000000 x15=0x80009fc4
       82155000	      8214	800042c0	028000ef	jal	x1,800042c0	  x1=0x800042c0
       82165000	      8215	00000000	00000013	addi	x0,x0,0	  x0:0x00000000
       82175000	      8216	800042e4	00000013	addi	x0,x0,0	  x0:0x00000000
       82185000	      8217	800042e8	ffdff36f	jal	x6,800042e8	  x6=0x800042e8
       82195000	      8218	00000000	00000013	addi	x0,x0,0	  x0:0x00000000
       82205000	      8219	800042e0	00000013	addi	x0,x0,0	  x0:0x00000000
       82215000	      8220	800042e4	00c000ef	jal	x1,800042e4	  x1=0x800042e4
       82225000	      8221	00000000	00000013	addi	x0,x0,0	  x0:0x00000000
       82235000	      8222	800042ec	00000013	addi	x0,x0,0	  x0:0x00000000
       82245000	      8223	800042f0	0180036f	jal	x6,800042f0	  x6=0x800042f0
       82255000	      8224	00000000	00000013	addi	x0,x0,0	  x0:0x00000000
       82265000	      8225	80004304	00000013	addi	x0,x0,0	  x0:0x00000000
       82275000	      8226	80004308	fedff0ef	jal	x1,80004308	  x1=0x80004308
       82285000	      8227	00000000	00000013	addi	x0,x0,0	  x0:0x00000000
       82295000	      8228	800042f0	00000013	addi	x0,x0,0	  x0:0x00000000
       82305000	      8229	800042f4	fd5ff0ef	jal	x1,800042f4	  x1=0x800042f4
       82315000	      8230	00000000	00000013	addi	x0,x0,0	  x0:0x00000000
       82325000	      8231	800042c4	00000013	addi	x0,x0,0	  x0:0x00000000
       82335000	      8232	800042c8	04c003ef	jal	x7,800042c8	  x7=0x800042c8
       82345000	      8233	00000000	00000013	addi	x0,x0,0	  x0:0x00000000
       82355000	      8234	80004310	00000013	addi	x0,x0,0	  x0:0x00000000
       82365000	      8235	80004314	fe5ff0ef	jal	x1,80004314	  x1=0x80004314
       82375000	      8236	00000000	00000013	addi	x0,x0,0	  x0:0x00000000
       82385000	      8237	800042f4	00000013	addi	x0,x0,0	  x0:0x00000000
       82395000	      8238	800042f8	fddffd6f	jal	x26,800042f8	 x26=0x800042f8
       82405000	      8239	00000000	00000013	addi	x0,x0,0	  x0:0x00000000
       82415000	      8240	800042d0	00000013	addi	x0,x0,0	  x0:0x00000000
       82425000	      8241	800042d4	00c00f6f	jal	x30,800042d4	 x30=0x800042d4
       82435000	      8242	00000000	00000013	addi	x0,x0,0	  x0:0x00000000
       82445000	      8243	800042dc	00000013	addi	x0,x0,0	  x0:0x00000000
       82455000	      8244	800042e0	ffdff26f	jal	x4,800042e0	  x4=0x800042e0
       82465000	      8245	00000000	00000013	addi	x0,x0,0	  x0:0x00000000
       82475000	      8246	800042d8	00000013	addi	x0,x0,0	  x0:0x00000000
       82485000	      8247	800042dc	024000ef	jal	x1,800042dc	  x1=0x800042dc
       82495000	      8248	00000000	00000013	addi	x0,x0,0	  x0:0x00000000
       82505000	      8249	800042fc	00000013	addi	x0,x0,0	  x0:0x00000000
       82515000	      8250	80004300	fedffc6f	jal	x24,80004300	 x24=0x80004300
       82525000	      8251	00000000	00000013	addi	x0,x0,0	  x0:0x00000000
       82535000	      8252	800042e8	00000013	addi	x0,x0,0	  x0:0x00000000
       82545000	      8253	800042ec	018000ef	jal	x1,800042ec	  x1=0x800042ec
       82555000	      8254	00000000	00000013	addi	x0,x0,0	  x0:0x00000000
       82565000	      8255	80004300	00000013	addi	x0,x0,0	  x0:0x00000000
       82575000	      8256	80004304	fcdff0ef	jal	x1,80004304	  x1=0x80004304
       82585000	      8257	00000000	00000013	addi	x0,x0,0	  x0:0x00000000
       82595000	      8258	800042cc	00000013	addi	x0,x0,0	  x0:0x00000000
       82605000	      8259	800042d0	048000ef	jal	x1,800042d0	  x1=0x800042d0
       82615000	      8260	00000000	00000013	addi	x0,x0,0	  x0:0x00000000
       82625000	      8261	80004314	00000013	addi	x0,x0,0	  x0:0x00000000
       82635000	      8262	80004318	fb5ff36f	jal	x6,80004318	  x6=0x80004318
       82645000	      8263	00000000	00000013	addi	x0,x0,0	  x0:0x00000000
       82655000	      8264	800042c8	00000013	addi	x0,x0,0	  x0:0x00000000
       82665000	      8265	800042cc	00c0036f	jal	x6,800042cc	  x6=0x800042cc
       82675000	      8266	00000000	00000013	addi	x0,x0,0	  x0:0x00000000
       82685000	      8267	800042d4	00000013	addi	x0,x0,0	  x0:0x00000000
       82695000	      8268	800042d8	fedff66f	jal	x12,800042d8	 x12=0x800042d8
       82705000	      8269	00000000	00000013	addi	x0,x0,0	  x0:0x00000000
       82715000	      8270	800042c0	00000013	addi	x0,x0,0	  x0:0x00000000
       82725000	      8271	800042c4	0380036f	jal	x6,800042c4	  x6=0x800042c4
       82735000	      8272	00000000	00000013	addi	x0,x0,0	  x0:0x00000000
       82745000	      8273	800042f8	00000013	addi	x0,x0,0	  x0:0x00000000
       82755000	      8274	800042fc	014000ef	jal	x1,800042fc	  x1=0x800042fc
       82765000	      8275	00000000	00000013	addi	x0,x0,0	  x0:0x00000000
       82775000	      8276	8000430c	00000013	addi	x0,x0,0	  x0:0x00000000
       82785000	      8277	80004310	ffdff36f	jal	x6,80004310	  x6=0x80004310
       82795000	      8278	00000000	00000013	addi	x0,x0,0	  x0:0x00000000
       82805000	      8279	80004308	00000013	addi	x0,x0,0	  x0:0x00000000
       82815000	      8280	8000430c	010002ef	jal	x5,8000430c	  x5=0x8000430c
       82825000	      8281	00000000	00000013	addi	x0,x0,0	  x0:0x00000000
       82835000	      8282	80004318	00000013	addi	x0,x0,0	  x0:0x00000000
       82845000	      8283	8000431c	00b545b3	xor	x11,x10,x11	 x10:0x800026e8 x11:0x00000000 x11=0x800026e8
       82855000	      8284	80004320	01af5a33	srl	x20,x30,x26	 x30:0x800042d4 x26:0x800042f8 x20=0x00000080
       82865000	      8285	80004324	011fee63	bltu	x31,x17,80004340	 x31:0x80009f2c x17:0x80009e6c
       82875000	      8286	80004328	fed52b93	slti	x23,x10,-19	 x10:0x800026e8 x23=0x00000001
       82885000	      8287	8000432c	e33de513	ori	x10,x27,-461	 x27:0x00000000 x10=0xfffffe33
       82895000	      8288	80004330	044bf863	bgeu	x23,x4,80004380	 x23:0x00000001  x4:0x800042e0
       82905000	      8289	80004334	0b19a693	slti	x13,x19,177	 x19:0xfffffd7c x13=0x00000001
       82915000	      8290	80004338	0b4f8693	addi	x13,x31,180	 x31:0x80009f2c x13=0x80009fe0
       82925000	      8291	8000433c	0b4b0e93	addi	x29,x22,180	 x22:0xffffffff x29=0x000000b3
       82935000	      8292	80004340	01e84433	xor	x8,x16,x30	 x16:0x00000000 x30:0x800042d4  x8=0x800042d4
       82945000	      8293	80004344	03c6e863	bltu	x13,x28,80004374	 x13:0x80009fe0 x28:0xffffffff
       82955000	      8294	00000000	00000013	addi	x0,x0,0	  x0:0x00000000
       82965000	      8295	80004370	00000013	addi	x0,x0,0	  x0:0x00000000
       82975000	      8296	80004374	40335293	srai	x5,x6,0x3	  x6:0x80004310  x5=0xf0000862
       82985000	      8297	80004378	0040d813	srli	x16,x1,0x4	  x1:0x800042fc x16=0x0800042f
       82995000	      8298	8000437c	00cf40b3	xor	x1,x30,x12	 x30:0x800042d4 x12:0x800042d8  x1=0x0000000c
       83005000	      8299	80004380	05b77863	bgeu	x14,x27,800043d0	 x14:0x00000000 x27:0x00000000
       83015000	      8300	00000000	00000013	addi	x0,x0,0	  x0:0x00000000
       83025000	      8301	800043cc	00000013	addi	x0,x0,0	  x0:0x00000000
       83035000	      8302	800043d0	4159de33	sra	x28,x19,x21	 x19:0xfffffd7c x21:0x7fff603b x28=0xffffffff
       83045000	      8303	800043d4	02fff663	bgeu	x31,x15,80004400	 x31:0x80009f2c x15:0x80009fc4
       83055000	      8304	800043d8	40f65e33	sra	x28,x12,x15	 x12:0x800042d8 x15:0x80009fc4 x28=0xf800042d
       83065000	      8305	800043dc	02e47e63	bgeu	x8,x14,80004418	  x8:0x800042d4 x14:0x00000000
       83075000	      8306	00000000	00000013	addi	x0,x0,0	  x0:0x00000000
       83085000	      8307	80004414	00000013	addi	x0,x0,0	  x0:0x00000000
       83095000	      8308	80004418	01875593	srli	x11,x14,0x18	 x14:0x00000000 x11=0x00000000
       83105000	      8309	8000441c	3cf4e4b7	lui	x9,0x3cf4e	  x9=0x3cf4e000
       83115000	      8310	80004420	03e79063	bne	x15,x30,80004440	 x15:0x80009fc4 x30:0x800042d4
       83125000	      8311	00000000	00000013	addi	x0,x0,0	  x0:0x00000000
       83135000	      8312	8000443c	00000013	addi	x0,x0,0	  x0:0x00000000
       83145000	      8313	80004440	05b5c463	blt	x11,x27,80004488	 x11:0x00000000 x27:0x00000000
       83155000	      8314	80004444	e3467113	andi	x2,x12,-460	 x12:0x800042d8  x2=0x80004210
       83165000	      8315	80004448	00e13f33	sltu	x30,x2,x14	  x2:0x80004210 x14:0x00000000 x30=0x00000000
       83175000	      8316	8000444c	41cc0333	sub	x6,x24,x28	 x24:0x80004300 x28:0xf800042d  x6=0x88003ed3
       83185000	      8317	80004450	fa1aee13	ori	x28,x21,-95	 x21:0x7fff603b x28=0xffffffbb
       83195000	      8318	80004454	00e11533	sll	x10,x2,x14	  x2:0x80004210 x14:0x00000000 x10=0x80004210
       83205000	      8319	80004458	2fbafc13	andi	x24,x21,763	 x21:0x7fff603b x24=0x0000003b
       83215000	      8320	8000445c	5d092193	slti	x3,x18,1488	 x18:0x80009fc4  x3=0x00000001
       83225000	      8321	80004460	03b37663	bgeu	x6,x27,8000448c	  x6:0x88003ed3 x27:0x00000000
       83235000	      8322	00000000	00000013	addi	x0,x0,0	  x0:0x00000000
       83245000	      8323	80004488	00000013	addi	x0,x0,0	  x0:0x00000000
       83255000	      8324	8000448c	01ec9713	slli	x14,x25,0x1e	 x25:0x4c192215 x14=0x40000000
       83265000	      8325	80004490	018843b3	xor	x7,x16,x24	 x16:0x0800042f x24:0x0000003b  x7=0x08000414
       83275000	      8326	80004494	01f4bbb3	sltu	x23,x9,x31	  x9:0x3cf4e000 x31:0x80009f2c x23=0x00000001
       83285000	      8327	80004498	00ea2d33	slt	x26,x20,x14	 x20:0x00000080 x14:0x40000000 x26=0x00000001
       83295000	      8328	8000449c	003bdab3	srl	x21,x23,x3	 x23:0x00000001  x3:0x00000001 x21=0x00000000
       83305000	      8329	800044a0	01a822b3	slt	x5,x16,x26	 x16:0x0800042f x26:0x00000001  x5=0x00000000
       83315000	      8330	800044a4	0143cf33	xor	x30,x7,x20	  x7:0x08000414 x20:0x00000080 x30=0x08000494
       83325000	      8331	800044a8	002ad693	srli	x13,x21,0x2	 x21:0x00000000 x13=0x00000000
       83335000	      8332	800044ac	0150cb33	xor	x22,x1,x21	  x1:0x0000000c x21:0x00000000 x22=0x0000000c
       83345000	      8333	800044b0	3e38d6b7	lui	x13,0x3e38d	 x13=0x3e38d000
       83355000	      8334	800044b4	00c0ed33	or	x26,x1,x12	  x1:0x0000000c x12:0x800042d8 x26=0x800042dc
       83365000	      8335	800044b8	01eac0b3	xor	x1,x21,x30	 x21:0x00000000 x30:0x08000494  x1=0x08000494
       83375000	      8336	800044bc	005782b3	add	x5,x15,x5	 x15:0x80009fc4  x5:0x00000000  x5=0x80009fc4
       83385000	      8337	800044c0	10c78193	addi	x3,x15,268	 x15:0x80009fc4  x3=0x8000a0d0
       83395000	      8338	800044c4	04481663	bne	x16,x4,80004510	 x16:0x0800042f  x4:0x800042e0
       83405000	      8339	00000000	00000013	addi	x0,x0,0	  x0:0x00000000
       83415000	      8340	8000450c	00000013	addi	x0,x0,0	  x0:0x00000000
       83425000	      8341	80004510	00000013	addi	x0,x0,0	  x0:0x00000000
       83435000	      8342	80004514	5a2ba093	slti	x1,x23,1442	 x23:0x00000001  x1=0x00000001
       83445000	      8343	80004518	024e1263	bne	x28,x4,8000453c	 x28:0xffffffbb  x4:0x800042e0
       83455000	      8344	00000000	00000013	addi	x0,x0,0	  x0:0x00000000
       83465000	      8345	80004538	00000013	addi	x0,x0,0	  x0:0x00000000
       83475000	      8346	8000453c	0047f1b3	and	x3,x15,x4	 x15:0x80009fc4  x4:0x800042e0  x3=0x800002c0
       83485000	      8347	80004540	acae2713	slti	x14,x28,-1334	 x28:0xffffffbb x14=0x00000000
       83495000	      8348	80004544	dd594593	xori	x11,x18,-555	 x18:0x80009fc4 x11=0x7fff6211
       83505000	      8349	80004548	f3e96ab7	lui	x21,0xf3e96	 x21=0xf3e96000
       83515000	      8350	8000454c	01fa9893	slli	x17,x21,0x1f	 x21:0xf3e96000 x17=0x00000000
       83525000	      8351	80004550	002e49b3	xor	x19,x28,x2	 x28:0xffffffbb  x2:0x80004210 x19=0x7fffbdab
       83535000	      8352	80004554	0e58c893	xori	x17,x17,229	 x17:0x00000000 x17=0x000000e5
       83545000	      8353	80004558	3c448713	addi	x14,x9,964	  x9:0x3cf4e000 x14=0x3cf4e3c4
       83555000	      8354	8000455c	05fdc863	blt	x27,x31,800045ac	 x27:0x00000000 x31:0x80009f2c
       83565000	      8355	80004560	02dc9663	bne	x25,x13,8000458c	 x25:0x4c192215 x13:0x3e38d000
       83575000	      8356	00000000	00000013	addi	x0,x0,0	  x0:0x00000000
       83585000	      8357	80004588	00000013	addi	x0,x0,0	  x0:0x00000000
       83595000	      8358	8000458c	00bd66b3	or	x13,x26,x11	 x26:0x800042dc x11:0x7fff6211 x13=0xffff62dd
       83605000	      8359	80004590	1216d897	auipc	x17,0x1216d	 x17=0x9217158c
       83615000	      8360	80004594	02116c63	bltu	x2,x1,800045cc	  x2:0x80004210  x1:0x00000001
       83625000	      8361	80004598	41960333	sub	x6,x12,x25	 x12:0x800042d8 x25:0x4c192215  x6=0x33e720c3
       83635000	      8362	8000459c	ee400093	addi	x1,x0,-284	  x0:0x00000000  x1=0xfffffee4
       83645000	      8363	800045a0	00d9b2b3	sltu	x5,x19,x13	 x19:0x7fffbdab x13:0xffff62dd  x5=0x00000001
       83655000	      8364	800045a4	41600733	sub	x14,x0,x22	  x0:0x00000000 x22:0x0000000c x14=0xfffffff4
       83665000	      8365	800045a8	03840863	beq	x8,x24,800045d8	  x8:0x800042d4 x24:0x0000003b
       83675000	      8366	800045ac	01d95133	srl	x2,x18,x29	 x18:0x80009fc4 x29:0x000000b3  x2=0x00001000
       83685000	      8367	800045b0	46d02617	auipc	x12,0x46d02	 x12=0xc6d065ac
       83695000	      8368	800045b4	018402b3	add	x5,x8,x24	  x8:0x800042d4 x24:0x0000003b  x5=0x8000430f
       83705000	      8369	800045b8	05516663	bltu	x2,x21,80004604	  x2:0x00001000 x21:0xf3e96000
       83715000	      8370	00000000	00000013	addi	x0,x0,0	  x0:0x00000000
       83725000	      8371	80004600	00000013	addi	x0,x0,0	  x0:0x00000000
       83735000	      8372	80004604	00000013	addi	x0,x0,0	  x0:0x00000000
       83745000	      8373	80004608	016041b3	xor	x3,x0,x22	  x0:0x00000000 x22:0x0000000c  x3=0x0000000c
       83755000	      8374	8000460c	414701b3	sub	x3,x14,x20	 x14:0xfffffff4 x20:0x00000080  x3=0xffffff74
       83765000	      8375	80004610	004fa083	lw	x1,4(x31)	 x31:0x80009f2c  x1=0x8000186c PA:0x80009f30
       83775000	      8376	80004614	00864233	xor	x4,x12,x8	 x12:0xc6d065ac  x8:0x800042d4  x4=0x46d02778
       83785000	      8377	80004618	02cf8f93	addi	x31,x31,44	 x31:0x80009f2c x31=0x80009f58
       83795000	      8378	8000461c	00000013	addi	x0,x0,0	  x0:0x00000000
       83805000	      8379	80004620	bfa53593	sltiu	x11,x10,-1030	 x10:0x80004210 x11=0x00000001
       83815000	      8380	80004624	00d7dc93	srli	x25,x15,0xd	 x15:0x80009fc4 x25=0x00040004
       83825000	      8381	80004628	00108713	addi	x14,x1,1	  x1:0x8000186c x14=0x8000186d
       83835000	      8382	8000462c	00070767	jalr	x14,x14,0	 x14:0x8000186d x14=0x8000462c
       83845000	      8383	00000000	00000013	addi	x0,x0,0	  x0:0x00000000
       83855000	      8384	8000186c	00000013	addi	x0,x0,0	  x0:0x00000000
       83865000	      8385	80001870	d6090413	addi	x8,x18,-672	 x18:0x80009fc4  x8=0x80009d24
       83875000	      8386	80001874	24852297	auipc	x5,0x24852	  x5=0xa4853870
       83885000	      8387	80001878	c536a9b7	lui	x19,0xc536a	 x19=0xc536a000
       83895000	      8388	8000187c	00545ab3	srl	x21,x8,x5	  x8:0x80009d24  x5:0xa4853870 x21=0x00008000
       83905000	      8389	80001880	0024dc13	srli	x24,x9,0x2	  x9:0x3cf4e000 x24=0x0f3d3800
       83915000	      8390	80001884	01aa3333	sltu	x6,x20,x26	 x20:0x00000080 x26:0x800042dc  x6=0x00000001
       83925000	      8391	80001888	0260f063	bgeu	x1,x6,800018a8	  x1:0x8000186c  x6:0x00000001
       83935000	      8392	00000000	00000013	addi	x0,x0,0	  x0:0x00000000
       83945000	      8393	800018a4	00000013	addi	x0,x0,0	  x0:0x00000000
       83955000	      8394	800018a8	e78f4b13	xori	x22,x30,-392	 x30:0x08000494 x22=0xf7fffaec
       83965000	      8395	800018ac	0007d813	srli	x16,x15,0x0	 x15:0x80009fc4 x16=0x80009fc4
       83975000	      8396	800018b0	004fa083	lw	x1,4(x31)	 x31:0x80009f58  x1=0x80001028 PA:0x80009f5c
       83985000	      8397	800018b4	017447b3	xor	x15,x8,x23	  x8:0x80009d24 x23:0x00000001 x15=0x80009d25
       83995000	      8398	800018b8	5d60e293	ori	x5,x1,1494	  x1:0x80001028  x5=0x800015fe
       84005000	      8399	800018bc	02cf8f93	addi	x31,x31,44	 x31:0x80009f58 x31=0x80009f84
       84015000	      8400	800018c0	01195693	srli	x13,x18,0x11	 x18:0x80009fc4 x13=0x00004000
       84025000	      8401	800018c4	01da9793	slli	x15,x21,0x1d	 x21:0x00008000 x15=0x00000000
       84035000	      8402	800018c8	4126d313	srai	x6,x13,0x12	 x13:0x00004000  x6=0x00000000
       84045000	      8403	800018cc	40e154b3	sra	x9,x2,x14	  x2:0x00001000 x14:0x8000462c  x9=0x00000001
       84055000	      8404	800018d0	041e8113	addi	x2,x29,65	 x29:0x000000b3  x2=0x000000f4
       84065000	      8405	800018d4	00108613	addi	x12,x1,1	  x1:0x80001028 x12=0x80001029
       84075000	      8406	800018d8	00060667	jalr	x12,x12,0	 x12:0x80001029 x12=0x800018d8
       84085000	      8407	00000000	00000013	addi	x0,x0,0	  x0:0x00000000
       84095000	      8408	80001028	00000013	addi	x0,x0,0	  x0:0x00000000
       84105000	      8409	8000102c	01c9da33	srl	x20,x19,x28	 x19:0xc536a000 x28:0xffffffbb x20=0x00000018
       84115000	      8410	80001030	41ae85b3	sub	x11,x29,x26	 x29:0x000000b3 x26:0x800042dc x11=0x7fffbdd7
       84125000	      8411	80001034	01043833	sltu	x16,x8,x16	  x8:0x80009d24 x16:0x80009fc4 x16=0x00000001
       84135000	      8412	80001038	00677663	bgeu	x14,x6,80001044	 x14:0x8000462c  x6:0x00000000
       84145000	      8413	00000000	00000013	addi	x0,x0,0	  x0:0x00000000
       84155000	      8414	80001040	00000013	addi	x0,x0,0	  x0:0x00000000
       84165000	      8415	80001044	04a50863	beq	x10,x10,80001094	 x10:0x80004210 x10:0x80004210
       84175000	      8416	00000000	00000013	addi	x0,x0,0	  x0:0x00000000
       84185000	      8417	80001090	00000013	addi	x0,x0,0	  x0:0x00000000
       84195000	      8418	80001094	5f76ec93	ori	x25,x13,1527	 x13:0x00004000 x25=0x000045f7
       84205000	      8419	80001098	00bea633	slt	x12,x29,x11	 x29:0x000000b3 x11:0x7fffbdd7 x12=0x00000001
       84215000	      8420	8000109c	0089d213	srli	x4,x19,0x8	 x19:0xc536a000  x4=0x00c536a0
       84225000	      8421	800010a0	41df87b3	sub	x15,x31,x29	 x31:0x80009f84 x29:0x000000b3 x15=0x80009ed1
       84235000	      8422	800010a4	043b6e63	bltu	x22,x3,80001100	 x22:0xf7fffaec  x3:0xffffff74
       84245000	      8423	00000000	00000013	addi	x0,x0,0	  x0:0x00000000
       84255000	      8424	800010fc	00000013	addi	x0,x0,0	  x0:0x00000000
       84265000	      8425	80001100	003e5b33	srl	x22,x28,x3	 x28:0xffffffbb  x3:0xffffff74 x22=0x00000fff
       84275000	      8426	80001104	01775e63	bge	x14,x23,80001120	 x14:0x8000462c x23:0x00000001
       84285000	      8427	80001108	87641437	lui	x8,0x87641	  x8=0x87641000
       84295000	      8428	8000110c	016cd333	srl	x6,x25,x22	 x25:0x000045f7 x22:0x00000fff  x6=0x00000000
       84305000	      8429	80001110	042ec063	blt	x29,x2,80001150	 x29:0x000000b3  x2:0x000000f4
       84315000	      8430	00000000	00000013	addi	x0,x0,0	  x0:0x00000000
       84325000	      8431	8000114c	00000013	addi	x0,x0,0	  x0:0x00000000
       84335000	      8432	80001150	001f2ab3	slt	x21,x30,x1	 x30:0x08000494  x1:0x80001028 x21=0x00000000
       84345000	      8433	80001154	00dd61b3	or	x3,x26,x13	 x26:0x800042dc x13:0x00004000  x3=0x800042dc
       84355000	      8434	80001158	006f7033	and	x0,x30,x6	 x30:0x08000494  x6:0x00000000
       84365000	      8435	8000115c	89dbe3b7	lui	x7,0x89dbe	  x7=0x89dbe000
       84375000	      8436	80001160	01370e63	beq	x14,x19,8000117c	 x14:0x8000462c x19:0xc536a000
       84385000	      8437	80001164	016421b3	slt	x3,x8,x22	  x8:0x87641000 x22:0x00000fff  x3=0x00000001
       84395000	      8438	80001168	f3071c97	auipc	x25,0xf3071	 x25=0x73072164
       84405000	      8439	8000116c	00000013	addi	x0,x0,0	  x0:0x00000000
       84415000	      8440	80001170	05131463	bne	x6,x17,800011b8	  x6:0x00000000 x17:0x9217158c
       84425000	      8441	00000000	00000013	addi	x0,x0,0	  x0:0x00000000
       84435000	      8442	800011b4	00000013	addi	x0,x0,0	  x0:0x00000000
       84445000	      8443	800011b8	70579437	lui	x8,0x70579	  x8=0x70579000
       84455000	      8444	800011bc	012e97b3	sll	x15,x29,x18	 x29:0x000000b3 x18:0x80009fc4 x15=0x00000b30
       84465000	      8445	800011c0	da937793	andi	x15,x6,-599	  x6:0x00000000 x15=0x00000000
       84475000	      8446	800011c4	028c6663	bltu	x24,x8,800011f0	 x24:0x0f3d3800  x8:0x70579000
       84485000	      8447	00000000	00000013	addi	x0,x0,0	  x0:0x00000000
       84495000	      8448	800011ec	00000013	addi	x0,x0,0	  x0:0x00000000
       84505000	      8449	800011f0	01792133	slt	x2,x18,x23	 x18:0x80009fc4 x23:0x00000001  x2=0x00000001
       84515000	      8450	800011f4	40305b13	srai	x22,x0,0x3	  x0:0x00000000 x22=0x00000000
       84525000	      8451	800011f8	e3833e17	auipc	x28,0xe3833	 x28=0x638341f4
       84535000	      8452	800011fc	e2f93393	sltiu	x7,x18,-465	 x18:0x80009fc4  x7=0x00000001
       84545000	      8453	80001200	00f79513	slli	x10,x15,0xf	 x15:0x00000000 x10=0x00000000
       84555000	      8454	80001204	03e7e863	bltu	x15,x30,80001234	 x15:0x00000000 x30:0x08000494
       84565000	      8455	00000000	00000013	addi	x0,x0,0	  x0:0x00000000
       84575000	      8456	80001230	00000013	addi	x0,x0,0	  x0:0x00000000
       84585000	      8457	80001234	00000013	addi	x0,x0,0	  x0:0x00000000
       84595000	      8458	80001238	026d0663	beq	x26,x6,80001264	 x26:0x800042dc  x6:0x00000000
       84605000	      8459	8000123c	000b5663	bge	x22,x0,80001248	 x22:0x00000000  x0:0x00000000
       84615000	      8460	00000000	00000013	addi	x0,x0,0	  x0:0x00000000
       84625000	      8461	80001244	00000013	addi	x0,x0,0	  x0:0x00000000
       84635000	      8462	80001248	00ce0c33	add	x24,x28,x12	 x28:0x638341f4 x12:0x00000001 x24=0x638341f5
       84645000	      8463	8000124c	008198b3	sll	x17,x3,x8	  x3:0x00000001  x8:0x70579000 x17=0x00000001
       84655000	      8464	80001250	00d4eeb3	or	x29,x9,x13	  x9:0x00000001 x13:0x00004000 x29=0x00004001
       84665000	      8465	80001254	01114e63	blt	x2,x17,80001270	  x2:0x00000001 x17:0x00000001
       84675000	      8466	80001258	ffa98593	addi	x11,x19,-6	 x19:0xc536a000 x11=0xc5369ffa
       84685000	      8467	8000125c	012ccab3	xor	x21,x25,x18	 x25:0x73072164 x18:0x80009fc4 x21=0xf307bea0
       84695000	      8468	80001260	01f98033	add	x0,x19,x31	 x19:0xc536a000 x31:0x80009f84
       84705000	      8469	80001264	016cae33	slt	x28,x25,x22	 x25:0x73072164 x22:0x00000000 x28=0x00000000
       84715000	      8470	80001268	00104a63	blt	x0,x1,8000127c	  x0:0x00000000  x1:0x80001028
       84725000	      8471	8000126c	9939f793	andi	x15,x19,-1645	 x19:0xc536a000 x15=0xc536a000
       84735000	      8472	80001270	723ec813	xori	x16,x29,1827	 x29:0x00004001 x16=0x00004722
       84745000	      8473	80001274	15cffc93	andi	x25,x31,348	 x31:0x80009f84 x25=0x00000104
       84755000	      8474	80001278	01ca0cb3	add	x25,x20,x28	 x20:0x00000018 x28:0x00000000 x25=0x00000018
       84765000	      8475	8000127c	006b1463	bne	x22,x6,80001284	 x22:0x00000000  x6:0x00000000
       84775000	      8476	80001280	0096f033	and	x0,x13,x9	 x13:0x00004000  x9:0x00000001
       84785000	      8477	80001284	01e01493	slli	x9,x0,0x1e	  x0:0x00000000  x9=0x00000000
       84795000	      8478	80001288	06774b93	xori	x23,x14,103	 x14:0x8000462c x23=0x8000464b
       84805000	      8479	8000128c	bbfdb537	lui	x10,0xbbfdb	 x10=0xbbfdb000
       84815000	      8480	80001290	0af16263	bltu	x2,x15,80001334	  x2:0x00000001 x15:0xc536a000
       84825000	      8481	00000000	00000013	addi	x0,x0,0	  x0:0x00000000
       84835000	      8482	80001330	00000013	addi	x0,x0,0	  x0:0x00000000
       84845000	      8483	80001334	5bd89437	lui	x8,0x5bd89	  x8=0x5bd89000
       84855000	      8484	80001338	01f325b3	slt	x11,x6,x31	  x6:0x00000000 x31:0x80009f84 x11=0x00000000
       84865000	      8485	8000133c	01045f33	srl	x30,x8,x16	  x8:0x5bd89000 x16:0x00004722 x30=0x16f62400
       84875000	      8486	80001340	01ae2433	slt	x8,x28,x26	 x28:0x00000000 x26:0x800042dc  x8=0x00000000
       84885000	      8487	80001344	01a35c13	srli	x24,x6,0x1a	  x6:0x00000000 x24=0x00000000
       84895000	      8488	80001348	00cba333	slt	x6,x23,x12	 x23:0x8000464b x12:0x00000001  x6=0x00000001
       84905000	      8489	8000134c	04700463	beq	x0,x7,80001394	  x0:0x00000000  x7:0x00000001
       84915000	      8490	80001350	00ea0733	add	x14,x20,x14	 x20:0x00000018 x14:0x8000462c x14=0x80004644
       84925000	      8491	80001354	2c64ef13	ori	x30,x9,710	  x9:0x00000000 x30=0x000002c6
       84935000	      8492	80001358	054a0863	beq	x20,x20,800013a8	 x20:0x00000018 x20:0x00000018
       84945000	      8493	00000000	00000013	addi	x0,x0,0	  x0:0x00000000
       84955000	      8494	800013a4	00000013	addi	x0,x0,0	  x0:0x00000000
       84965000	      8495	800013a8	a6a3ba93	sltiu	x21,x7,-1430	  x7:0x00000001 x21=0x00000001
       84975000	      8496	800013ac	f596c693	xori	x13,x13,-167	 x13:0x00004000 x13=0xffffbf59
       84985000	      8497	800013b0	00fea633	slt	x12,x29,x15	 x29:0x00004001 x15:0xc536a000 x12=0x00000000
       84995000	      8498	800013b4	bb01ee13	ori	x28,x3,-1104	  x3:0x00000001 x28=0xfffffbb1
       85005000	      8499	800013b8	1a83ed13	ori	x26,x7,424	  x7:0x00000001 x26=0x000001a9
       85015000	      8500	800013bc	00cb6433	or	x8,x22,x12	 x22:0x00000000 x12:0x00000000  x8=0x00000000
       85025000	      8501	800013c0	031d6a63	bltu	x26,x17,800013f4	 x26:0x000001a9 x17:0x00000001
       85035000	      8502	800013c4	01e0e833	or	x16,x1,x30	  x1:0x80001028 x30:0x000002c6 x16=0x800012ee
       85045000	      8503	800013c8	007f4cb3	xor	x25,x30,x7	 x30:0x000002c6  x7:0x00000001 x25=0x000002c7
       85055000	      8504	800013cc	010590b3	sll	x1,x11,x16	 x11:0x00000000 x16:0x800012ee  x1=0x00000000
       85065000	      8505	800013d0	00375863	bge	x14,x3,800013e0	 x14:0x80004644  x3:0x00000001
       85075000	      8506	800013d4	018975b3	and	x11,x18,x24	 x18:0x80009fc4 x24:0x00000000 x11=0x00000000
       85085000	      8507	800013d8	009f4e63	blt	x30,x9,800013f4	 x30:0x000002c6  x9:0x00000000
       85095000	      8508	800013dc	0087bbb3	sltu	x23,x15,x8	 x15:0xc536a000  x8:0x00000000 x23=0x00000000
       85105000	      8509	800013e0	0285d263	bge	x11,x8,80001404	 x11:0x00000000  x8:0x00000000
       85115000	      8510	00000000	00000013	addi	x0,x0,0	  x0:0x00000000
       85125000	      8511	80001400	00000013	addi	x0,x0,0	  x0:0x00000000
       85135000	      8512	80001404	41f1d113	srai	x2,x3,0x1f	  x3:0x00000001  x2=0x00000000
       85145000	      8513	80001408	b30cc113	xori	x2,x25,-1232	 x25:0x000002c7  x2=0xfffff9f7
       85155000	      8514	8000140c	4bd5d597	auipc	x11,0x4bd5d	 x11=0xcbd5e408
       85165000	      8515	80001410	04906663	bltu	x0,x9,8000145c	  x0:0x00000000  x9:0x00000000
       85175000	      8516	80001414	01b3d9b3	srl	x19,x7,x27	  x7:0x00000001 x27:0x00000000 x19=0x00000001
       85185000	      8517	80001418	042d7263	bgeu	x26,x2,8000145c	 x26:0x000001a9  x2:0xfffff9f7
       85195000	      8518	8000141c	007e98b3	sll	x17,x29,x7	 x29:0x00004001  x7:0x00000001 x17=0x00008002
       85205000	      8519	80001420	01c0fc33	and	x24,x1,x28	  x1:0x00000000 x28:0xfffffbb1 x24=0x00000000
       85215000	      8520	80001424	1a6cfd13	andi	x26,x25,422	 x25:0x000002c7 x26=0x00000086
       85225000	      8521	80001428	426bb737	lui	x14,0x426bb	 x14=0x426bb000
       85235000	      8522	8000142c	00447e63	bgeu	x8,x4,80001448	  x8:0x00000000  x4:0x00c536a0
       85245000	      8523	80001430	017e3d13	sltiu	x26,x28,23	 x28:0xfffffbb1 x26=0x00000000
       85255000	      8524	80001434	9bafcb97	auipc	x23,0x9bafc	 x23=0x1bafd430
       85265000	      8525	80001438	02d86863	bltu	x16,x13,80001468	 x16:0x800012ee x13:0xffffbf59
       85275000	      8526	00000000	00000013	addi	x0,x0,0	  x0:0x00000000
       85285000	      8527	80001464	00000013	addi	x0,x0,0	  x0:0x00000000
       85295000	      8528	80001468	f7d6f293	andi	x5,x13,-131	 x13:0xffffbf59  x5=0xffffbf59
       85305000	      8529	8000146c	caabc837	lui	x16,0xcaabc	 x16=0xcaabc000
       85315000	      8530	80001470	58418e13	addi	x28,x3,1412	  x3:0x00000001 x28=0x00000585
       85325000	      8531	80001474	00820e33	add	x28,x4,x8	  x4:0x00c536a0  x8:0x00000000 x28=0x00c536a0
       85335000	      8532	80001478	0073d393	srli	x7,x7,0x7	  x7:0x00000001  x7=0x00000000
       85345000	      8533	8000147c	0082d413	srli	x8,x5,0x8	  x5:0xffffbf59  x8=0x00ffffbf
       85355000	      8534	80001480	05ef9263	bne	x31,x30,800014c4	 x31:0x80009f84 x30:0x000002c6
       85365000	      8535	00000000	00000013	addi	x0,x0,0	  x0:0x00000000
       85375000	      8536	800014c0	00000013	addi	x0,x0,0	  x0:0x00000000
       85385000	      8537	800014c4	009a7533	and	x10,x20,x9	 x20:0x00000018  x9:0x00000000 x10=0x00000000
       85395000	      8538	800014c8	ed7e7b13	andi	x22,x28,-297	 x28:0x00c536a0 x22=0x00c53680
       85405000	      8539	800014cc	00000013	addi	x0,x0,0	  x0:0x00000000
       85415000	      8540	800014d0	01aa8e63	beq	x21,x26,800014ec	 x21:0x00000001 x26:0x00000000
       85425000	      8541	800014d4	f0349c17	auipc	x24,0xf0349	 x24=0x7034a4d0
       85435000	      8542	800014d8	05a18063	beq	x3,x26,80001518	  x3:0x00000001 x26:0x00000000
       85445000	      8543	800014dc	04d26263	bltu	x4,x13,80001520	  x4:0x00c536a0 x13:0xffffbf59
       85455000	      8544	00000000	00000013	addi	x0,x0,0	  x0:0x00000000
       85465000	      8545	8000151c	00000013	addi	x0,x0,0	  x0:0x00000000
       85475000	      8546	80001520	00f54f33	xor	x30,x10,x15	 x10:0x00000000 x15:0xc536a000 x30=0xc536a000
       85485000	      8547	80001524	4032db13	srai	x22,x5,0x3	  x5:0xffffbf59 x22=0xfffff7eb
       85495000	      8548	80001528	011792b3	sll	x5,x15,x17	 x15:0xc536a000 x17:0x00008002  x5=0x14da8000
       85505000	      8549	8000152c	68b7bc93	sltiu	x25,x15,1675	 x15:0xc536a000 x25=0x00000000
       85515000	      8550	80001530	0540e863	bltu	x1,x20,80001580	  x1:0x00000000 x20:0x00000018
       85525000	      8551	00000000	00000013	addi	x0,x0,0	  x0:0x00000000
       85535000	      8552	8000157c	00000013	addi	x0,x0,0	  x0:0x00000000
       85545000	      8553	80001580	00cafe63	bgeu	x21,x12,8000159c	 x21:0x00000001 x12:0x00000000
       85555000	      8554	00000000	00000013	addi	x0,x0,0	  x0:0x00000000
       85565000	      8555	80001598	00000013	addi	x0,x0,0	  x0:0x00000000
       85575000	      8556	8000159c	0076d293	srli	x5,x13,0x7	 x13:0xffffbf59  x5=0x01ffff7e
       85585000	      8557	800015a0	00121e63	bne	x4,x1,800015bc	  x4:0x00c536a0  x1:0x00000000
       85595000	      8558	00000000	00000013	addi	x0,x0,0	  x0:0x00000000
       85605000	      8559	800015b8	00000013	addi	x0,x0,0	  x0:0x00000000
       85615000	      8560	800015bc	3628a393	slti	x7,x17,866	 x17:0x00008002  x7=0x00000000
       85625000	      8561	800015c0	a3fd6193	ori	x3,x26,-1473	 x26:0x00000000  x3=0xfffffa3f
       85635000	      8562	800015c4	4069df13	srai	x30,x19,0x6	 x19:0x00000001 x30=0x00000000
       85645000	      8563	800015c8	41e8d633	sra	x12,x17,x30	 x17:0x00008002 x30:0x00000000 x12=0x00008002
       85655000	      8564	800015cc	00fc1393	slli	x7,x24,0xf	 x24:0x7034a4d0  x7=0x52680000
       85665000	      8565	800015d0	00000013	addi	x0,x0,0	  x0:0x00000000
       85675000	      8566	800015d4	00000013	addi	x0,x0,0	  x0:0x00000000
       85685000	      8567	800015d8	c5e40113	addi	x2,x8,-930	  x8:0x00ffffbf  x2=0x00fffc1d
       85695000	      8568	800015dc	47286f13	ori	x30,x16,1138	 x16:0xcaabc000 x30=0xcaabc472
       85705000	      8569	800015e0	1e2b8d13	addi	x26,x23,482	 x23:0x1bafd430 x26=0x1bafd612
       85715000	      8570	800015e4	0153a033	slt	x0,x7,x21	  x7:0x52680000 x21:0x00000001
       85725000	      8571	800015e8	008c49b3	xor	x19,x24,x8	 x24:0x7034a4d0  x8:0x00ffffbf x19=0x70cb5b6f
       85735000	      8572	800015ec	0110c9b3	xor	x19,x1,x17	  x1:0x00000000 x17:0x00008002 x19=0x00008002
       85745000	      8573	800015f0	05f45263	bge	x8,x31,80001634	  x8:0x00ffffbf x31:0x80009f84
       85755000	      8574	00000000	00000013	addi	x0,x0,0	  x0:0x00000000
       85765000	      8575	80001630	00000013	addi	x0,x0,0	  x0:0x00000000
       85775000	      8576	80001634	dad4e193	ori	x3,x9,-595	  x9:0x00000000  x3=0xfffffdad
       85785000	      8577	80001638	03d7ea63	bltu	x15,x29,8000166c	 x15:0xc536a000 x29:0x00004001
       85795000	      8578	8000163c	40ab5e13	srai	x28,x22,0xa	 x22:0xfffff7eb x28=0xfffffffd
       85805000	      8579	80001640	00000013	addi	x0,x0,0	  x0:0x00000000
       85815000	      8580	80001644	40045c13	srai	x24,x8,0x0	  x8:0x00ffffbf x24=0x00ffffbf
       85825000	      8581	80001648	00000013	addi	x0,x0,0	  x0:0x00000000
       85835000	      8582	8000164c	41d80eb3	sub	x29,x16,x29	 x16:0xcaabc000 x29:0x00004001 x29=0xcaab7fff
       85845000	      8583	80001650	01221ab3	sll	x21,x4,x18	  x4:0x00c536a0 x18:0x80009fc4 x21=0x0c536a00
       85855000	      8584	80001654	41405413	srai	x8,x0,0x14	  x0:0x00000000  x8=0x00000000
       85865000	      8585	80001658	018ff033	and	x0,x31,x24	 x31:0x80009f84 x24:0x00ffffbf
       85875000	      8586	8000165c	010189b3	add	x19,x3,x16	  x3:0xfffffdad x16:0xcaabc000 x19=0xcaabbdad
       85885000	      8587	80001660	41715d13	srai	x26,x2,0x17	  x2:0x00fffc1d x26=0x00000001
       85895000	      8588	80001664	015bebb3	or	x23,x23,x21	 x23:0x1bafd430 x21:0x0c536a00 x23=0x1ffffe30
       85905000	      8589	80001668	014bc633	xor	x12,x23,x20	 x23:0x1ffffe30 x20:0x00000018 x12=0x1ffffe28
       85915000	      8590	8000166c	01c1f463	bgeu	x3,x28,80001674	  x3:0xfffffdad x28:0xfffffffd
       85925000	      8591	80001670	47cd2593	slti	x11,x26,1148	 x26:0x00000001 x11=0x00000001
       85935000	      8592	80001674	d01e8d13	addi	x26,x29,-767	 x29:0xcaab7fff x26=0xcaab7d00
       85945000	      8593	80001678	41060c33	sub	x24,x12,x16	 x12:0x1ffffe28 x16:0xcaabc000 x24=0x55543e28
       85955000	      8594	8000167c	01222433	slt	x8,x4,x18	  x4:0x00c536a0 x18:0x80009fc4  x8=0x00000000
       85965000	      8595	80001680	7829b313	sltiu	x6,x19,1922	 x19:0xcaabbdad  x6=0x00000000
       85975000	      8596	80001684	224ecb93	xori	x23,x29,548	 x29:0xcaab7fff x23=0xcaab7ddb
       85985000	      8597	80001688	009c5863	bge	x24,x9,80001698	 x24:0x55543e28  x9:0x00000000
       85995000	      8598	00000000	00000013	addi	x0,x0,0	  x0:0x00000000
       86005000	      8599	80001694	00000013	addi	x0,x0,0	  x0:0x00000000
       86015000	      8600	80001698	00479f33	sll	x30,x15,x4	 x15:0xc536a000  x4:0x00c536a0 x30=0xc536a000
       86025000	      8601	8000169c	413981b3	sub	x3,x19,x19	 x19:0xcaabbdad x19:0xcaabbdad  x3=0x00000000
       86035000	      8602	800016a0	8e6e7613	andi	x12,x28,-1818	 x28:0xfffffffd x12=0xfffff8e4
       86045000	      8603	800016a4	00f1c7b3	xor	x15,x3,x15	  x3:0x00000000 x15:0xc536a000 x15=0xc536a000
       86055000	      8604	800016a8	33740f13	addi	x30,x8,823	  x8:0x00000000 x30=0x00000337
       86065000	      8605	800016ac	02ed0663	beq	x26,x14,800016d8	 x26:0xcaab7d00 x14:0x426bb000
       86075000	      8606	800016b0	03b0e663	bltu	x1,x27,800016dc	  x1:0x00000000 x27:0x00000000
       86085000	      8607	800016b4	e061a5b7	lui	x11,0xe061a	 x11=0xe061a000
       86095000	      8608	800016b8	427d4413	xori	x8,x26,1063	 x26:0xcaab7d00  x8=0xcaab7927
       86105000	      8609	800016bc	c3a18493	addi	x9,x3,-966	  x3:0x00000000  x9=0xfffffc3a
       86115000	      8610	800016c0	005b5a33	srl	x20,x22,x5	 x22:0xfffff7eb  x5:0x01ffff7e x20=0x00000003
       86125000	      8611	800016c4	40545133	sra	x2,x8,x5	  x8:0xcaab7927  x5:0x01ffff7e  x2=0xffffffff
       86135000	      8612	800016c8	029e5263	bge	x28,x9,800016ec	 x28:0xfffffffd  x9:0xfffffc3a
       86145000	      8613	00000000	00000013	addi	x0,x0,0	  x0:0x00000000
       86155000	      8614	800016e8	00000013	addi	x0,x0,0	  x0:0x00000000
       86165000	      8615	800016ec	01b41633	sll	x12,x8,x27	  x8:0xcaab7927 x27:0x00000000 x12=0xcaab7927
       86175000	      8616	800016f0	034000ef	jal	x1,800016f0	  x1=0x800016f0
       86185000	      8617	00000000	00000013	addi	x0,x0,0	  x0:0x00000000
       86195000	      8618	80001720	00000013	addi	x0,x0,0	  x0:0x00000000
       86205000	      8619	80001724	ff5ff36f	jal	x6,80001724	  x6=0x80001724
       86215000	      8620	00000000	00000013	addi	x0,x0,0	  x0:0x00000000
       86225000	      8621	80001714	00000013	addi	x0,x0,0	  x0:0x00000000
       86235000	      8622	80001718	02c000ef	jal	x1,80001718	  x1=0x80001718
       86245000	      8623	00000000	00000013	addi	x0,x0,0	  x0:0x00000000
       86255000	      8624	80001740	00000013	addi	x0,x0,0	  x0:0x00000000
       86265000	      8625	80001744	fedff36f	jal	x6,80001744	  x6=0x80001744
       86275000	      8626	00000000	00000013	addi	x0,x0,0	  x0:0x00000000
       86285000	      8627	8000172c	00000013	addi	x0,x0,0	  x0:0x00000000
       86295000	      8628	80001730	fcdff36f	jal	x6,80001730	  x6=0x80001730
       86305000	      8629	00000000	00000013	addi	x0,x0,0	  x0:0x00000000
       86315000	      8630	800016f8	00000013	addi	x0,x0,0	  x0:0x00000000
       86325000	      8631	800016fc	ffdff0ef	jal	x1,800016fc	  x1=0x800016fc
       86335000	      8632	00000000	00000013	addi	x0,x0,0	  x0:0x00000000
       86345000	      8633	800016f4	00000013	addi	x0,x0,0	  x0:0x00000000
       86355000	      8634	800016f8	018001ef	jal	x3,800016f8	  x3=0x800016f8
       86365000	      8635	00000000	00000013	addi	x0,x0,0	  x0:0x00000000
       86375000	      8636	8000170c	00000013	addi	x0,x0,0	  x0:0x00000000
       86385000	      8637	80001710	ff9ff0ef	jal	x1,80001710	  x1=0x80001710
       86395000	      8638	00000000	00000013	addi	x0,x0,0	  x0:0x00000000
       86405000	      8639	80001704	00000013	addi	x0,x0,0	  x0:0x00000000
       86415000	      8640	80001708	fedff0ef	jal	x1,80001708	  x1=0x80001708
       86425000	      8641	00000000	00000013	addi	x0,x0,0	  x0:0x00000000
       86435000	      8642	800016f0	00000013	addi	x0,x0,0	  x0:0x00000000
       86445000	      8643	800016f4	038000ef	jal	x1,800016f4	  x1=0x800016f4
       86455000	      8644	00000000	00000013	addi	x0,x0,0	  x0:0x00000000
       86465000	      8645	80001728	00000013	addi	x0,x0,0	  x0:0x00000000
       86475000	      8646	8000172c	00c0016f	jal	x2,8000172c	  x2=0x8000172c
       86485000	      8647	00000000	00000013	addi	x0,x0,0	  x0:0x00000000
       86495000	      8648	80001734	00000013	addi	x0,x0,0	  x0:0x00000000
       86505000	      8649	80001738	fe9ff0ef	jal	x1,80001738	  x1=0x80001738
       86515000	      8650	00000000	00000013	addi	x0,x0,0	  x0:0x00000000
       86525000	      8651	8000171c	00000013	addi	x0,x0,0	  x0:0x00000000
       86535000	      8652	80001720	014002ef	jal	x5,80001720	  x5=0x80001720
       86545000	      8653	00000000	00000013	addi	x0,x0,0	  x0:0x00000000
       86555000	      8654	80001730	00000013	addi	x0,x0,0	  x0:0x00000000
       86565000	      8655	80001734	00c000ef	jal	x1,80001734	  x1=0x80001734
       86575000	      8656	00000000	00000013	addi	x0,x0,0	  x0:0x00000000
       86585000	      8657	8000173c	00000013	addi	x0,x0,0	  x0:0x00000000
       86595000	      8658	80001740	fddff0ef	jal	x1,80001740	  x1=0x80001740
       86605000	      8659	00000000	00000013	addi	x0,x0,0	  x0:0x00000000
       86615000	      8660	80001718	00000013	addi	x0,x0,0	  x0:0x00000000
       86625000	      8661	8000171c	ff9ff0ef	jal	x1,8000171c	  x1=0x8000171c
       86635000	      8662	00000000	00000013	addi	x0,x0,0	  x0:0x00000000
       86645000	      8663	80001710	00000013	addi	x0,x0,0	  x0:0x00000000
       86655000	      8664	80001714	fedff0ef	jal	x1,80001714	  x1=0x80001714
       86665000	      8665	00000000	00000013	addi	x0,x0,0	  x0:0x00000000
       86675000	      8666	800016fc	00000013	addi	x0,x0,0	  x0:0x00000000
       86685000	      8667	80001700	004004ef	jal	x9,80001700	  x9=0x80001700
       86695000	      8668	00000000	00000013	addi	x0,x0,0	  x0:0x00000000
       86705000	      8669	80001700	00000013	addi	x0,x0,0	  x0:0x00000000
       86715000	      8670	80001704	0080046f	jal	x8,80001704	  x8=0x80001704
       86725000	      8671	00000000	00000013	addi	x0,x0,0	  x0:0x00000000
       86735000	      8672	80001708	00000013	addi	x0,x0,0	  x0:0x00000000
       86745000	      8673	8000170c	01c000ef	jal	x1,8000170c	  x1=0x8000170c
       86755000	      8674	00000000	00000013	addi	x0,x0,0	  x0:0x00000000
       86765000	      8675	80001724	00000013	addi	x0,x0,0	  x0:0x00000000
       86775000	      8676	80001728	014000ef	jal	x1,80001728	  x1=0x80001728
       86785000	      8677	00000000	00000013	addi	x0,x0,0	  x0:0x00000000
       86795000	      8678	80001738	00000013	addi	x0,x0,0	  x0:0x00000000
       86805000	      8679	8000173c	00c0026f	jal	x4,8000173c	  x4=0x8000173c
       86815000	      8680	00000000	00000013	addi	x0,x0,0	  x0:0x00000000
       86825000	      8681	80001744	00000013	addi	x0,x0,0	  x0:0x00000000
       86835000	      8682	80001748	0139ab33	slt	x22,x19,x19	 x19:0xcaabbdad x19:0xcaabbdad x22=0x00000000
       86845000	      8683	8000174c	0019fe63	bgeu	x19,x1,80001768	 x19:0xcaabbdad  x1:0x80001728
       86855000	      8684	00000000	00000013	addi	x0,x0,0	  x0:0x00000000
       86865000	      8685	80001764	00000013	addi	x0,x0,0	  x0:0x00000000
       86875000	      8686	80001768	0246c263	blt	x13,x4,8000178c	 x13:0xffffbf59  x4:0x8000173c
       86885000	      8687	8000176c	47593413	sltiu	x8,x18,1141	 x18:0x80009fc4  x8=0x00000000
       86895000	      8688	80001770	00962bb3	slt	x23,x12,x9	 x12:0xcaab7927  x9:0x80001700 x23=0x00000000
       86905000	      8689	80001774	00b456b3	srl	x13,x8,x11	  x8:0x00000000 x11:0xe061a000 x13=0x00000000
       86915000	      8690	80001778	409c85b3	sub	x11,x25,x9	 x25:0x00000000  x9:0x80001700 x11=0x7fffe900
       86925000	      8691	8000177c	0154d033	srl	x0,x9,x21	  x9:0x80001700 x21:0x0c536a00
       86935000	      8692	80001780	00835593	srli	x11,x6,0x8	  x6:0x80001730 x11=0x00800017
       86945000	      8693	80001784	21458393	addi	x7,x11,532	 x11:0x00800017  x7=0x0080022b
       86955000	      8694	80001788	44820e13	addi	x28,x4,1096	  x4:0x8000173c x28=0x80001b84
       86965000	      8695	8000178c	286dab93	slti	x23,x27,646	 x27:0x00000000 x23=0x00000001
       86975000	      8696	80001790	0086b533	sltu	x10,x13,x8	 x13:0x00000000  x8:0x00000000 x10=0x00000000
       86985000	      8697	80001794	40f2d093	srai	x1,x5,0xf	  x5:0x80001720  x1=0xffff0000
       86995000	      8698	80001798	01b15863	bge	x2,x27,800017a8	  x2:0x8000172c x27:0x00000000
       87005000	      8699	8000179c	0021bab3	sltu	x21,x3,x2	  x3:0x800016f8  x2:0x8000172c x21=0x00000001
       87015000	      8700	800017a0	04c64863	blt	x12,x12,800017f0	 x12:0xcaab7927 x12:0xcaab7927
       87025000	      8701	800017a4	01c46033	or	x0,x8,x28	  x8:0x00000000 x28:0x80001b84
       87035000	      8702	800017a8	00981393	slli	x7,x16,0x9	 x16:0xcaabc000  x7=0x57800000
       87045000	      8703	800017ac	013bd133	srl	x2,x23,x19	 x23:0x00000001 x19:0xcaabbdad  x2=0x00000000
       87055000	      8704	800017b0	40e50a33	sub	x20,x10,x14	 x10:0x00000000 x14:0x426bb000 x20=0xbd945000
       87065000	      8705	800017b4	01b9c633	xor	x12,x19,x27	 x19:0xcaabbdad x27:0x00000000 x12=0xcaabbdad
       87075000	      8706	800017b8	2f5d8437	lui	x8,0x2f5d8	  x8=0x2f5d8000
       87085000	      8707	800017bc	cf247b13	andi	x22,x8,-782	  x8:0x2f5d8000 x22=0x2f5d8000
       87095000	      8708	800017c0	0099b0b3	sltu	x1,x19,x9	 x19:0xcaabbdad  x9:0x80001700  x1=0x00000000
       87105000	      8709	800017c4	f20ce993	ori	x19,x25,-224	 x25:0x00000000 x19=0xffffff20
       87115000	      8710	800017c8	02ee9663	bne	x29,x14,800017f4	 x29:0xcaab7fff x14:0x426bb000
       87125000	      8711	00000000	00000013	addi	x0,x0,0	  x0:0x00000000
       87135000	      8712	800017f0	00000013	addi	x0,x0,0	  x0:0x00000000
       87145000	      8713	800017f4	51a9f993	andi	x19,x19,1306	 x19:0xffffff20 x19=0x00000500
       87155000	      8714	800017f8	00bd55b3	srl	x11,x26,x11	 x26:0xcaab7d00 x11:0x00800017 x11=0x00000195
       87165000	      8715	800017fc	01f65663	bge	x12,x31,80001808	 x12:0xcaabbdad x31:0x80009f84
       87175000	      8716	00000000	00000013	addi	x0,x0,0	  x0:0x00000000
       87185000	      8717	80001804	00000013	addi	x0,x0,0	  x0:0x00000000
       87195000	      8718	80001808	00000013	addi	x0,x0,0	  x0:0x00000000
       87205000	      8719	8000180c	00000d97	auipc	x27,0x0	 x27=0x80001808
       87215000	      8720	80001810	00cd8d93	addi	x27,x27,12	 x27:0x80001808 x27=0x80001814
       87225000	      8721	80001814	000d8067	jalr	x0,x27,0	 x27:0x80001814
       87235000	      8722	00000000	00000013	addi	x0,x0,0	  x0:0x00000000
       87245000	      8723	80001814	00000013	addi	x0,x0,0	  x0:0x00000000
       87255000	      8724	80001818	00100193	addi	x3,x0,1	  x0:0x00000000  x3=0x00000001
       87265000	      8725	8000181c	00000073	ecall	
       87275000	      8726	80001820	00da8d33	add	x26,x21,x13	 x21:0x00000001 x13:0x00000000 x26=0x00000001
