		Time			Cycle	PC		Insn	Decoded instruction	Register and memory contents
          65000	         5	80000004	00000293	addi	x5,x0,0	  x0:0x00000000  x5=0x00000000
          75000	         6	80000008	00000313	addi	x6,x0,0	  x0:0x00000000  x6=0x00000000
          85000	         7	8000000c	00628263	beq	x5,x6,80000010	  x5:0x00000000  x6:0x00000000
          95000	         8	00000000	00000013	addi	x0,x0,0	  x0:0x00000000
         105000	         9	8000000c	00000013	addi	x0,x0,0	  x0:0x00000000
         115000	        10	80000010	00000697	auipc	x13,0x0	 x13=0x8000000c
         125000	        11	80000014	00c68693	addi	x13,x13,12	 x13:0x8000000c x13=0x80000018
         135000	        12	80000018	00068067	jalr	x0,x13,0	 x13:0x80000018
         145000	        13	00000000	00000013	addi	x0,x0,0	  x0:0x00000000
         155000	        14	80000018	00000013	addi	x0,x0,0	  x0:0x00000000
         165000	        15	8000001c	40000ab7	lui	x21,0x40000	 x21=0x40000000
         175000	        16	80000020	100a8a93	addi	x21,x21,256	 x21:0x40000000 x21=0x40000100
         185000	        17	80000024	00000013	addi	x0,x0,0	  x0:0x00000000
         195000	        18	80000028	0000a317	auipc	x6,0xa	  x6=0x8000a024
         205000	        19	8000002c	fa030313	addi	x6,x6,-96	  x6:0x8000a024  x6=0x80009fc4
         215000	        20	80000030	00004a97	auipc	x21,0x4	 x21=0x8000402c
         225000	        21	80000034	5eca8a93	addi	x21,x21,1516	 x21:0x8000402c x21=0x80004618
         235000	        22	80000038	000aea93	ori	x21,x21,0	 x21:0x80004618 x21=0x80004618
         245000	        23	8000003c	00000013	addi	x0,x0,0	  x0:0x00000000
         255000	        24	80000040	00000a97	auipc	x21,0x0	 x21=0x8000003c
         265000	        25	80000044	020a8a93	addi	x21,x21,32	 x21:0x8000003c x21=0x8000005c
         275000	        26	80000048	00000013	addi	x0,x0,0	  x0:0x00000000
         285000	        27	8000004c	00000013	addi	x0,x0,0	  x0:0x00000000
         295000	        28	80000050	00002ab7	lui	x21,0x2	 x21=0x00002000
         305000	        29	80000054	800a8a93	addi	x21,x21,-2048	 x21:0x00002000 x21=0x00001800
         315000	        30	80000058	00000013	addi	x0,x0,0	  x0:0x00000000
         325000	        31	8000005c	00000013	addi	x0,x0,0	  x0:0x00000000
         335000	        32	80000060	00c00013	addi	x0,x0,12	  x0:0x00000000
         345000	        33	80000064	00100093	addi	x1,x0,1	  x0:0x00000000  x1=0x00000001
         355000	        34	80000068	00000113	addi	x2,x0,0	  x0:0x00000000  x2=0x00000000
         365000	        35	8000006c	d687d1b7	lui	x3,0xd687d	  x3=0xd687d000
         375000	        36	80000070	4a918193	addi	x3,x3,1193	  x3:0xd687d000  x3=0xd687d4a9
         385000	        37	80000074	00700213	addi	x4,x0,7	  x0:0x00000000  x4=0x00000007
         395000	        38	80000078	0192b2b7	lui	x5,0x192b	  x5=0x0192b000
         405000	        39	8000007c	bc028293	addi	x5,x5,-1088	  x5:0x0192b000  x5=0x0192abc0
         415000	        40	80000080	00000393	addi	x7,x0,0	  x0:0x00000000  x7=0x00000000
         425000	        41	80000084	f7317437	lui	x8,0xf7317	  x8=0xf7317000
         435000	        42	80000088	43d40413	addi	x8,x8,1085	  x8:0xf7317000  x8=0xf731743d
         445000	        43	8000008c	00b00493	addi	x9,x0,11	  x0:0x00000000  x9=0x0000000b
         455000	        44	80000090	00000593	addi	x11,x0,0	  x0:0x00000000 x11=0x00000000
         465000	        45	80000094	00600613	addi	x12,x0,6	  x0:0x00000000 x12=0x00000006
         475000	        46	80000098	3e6ee6b7	lui	x13,0x3e6ee	 x13=0x3e6ee000
         485000	        47	8000009c	ed768693	addi	x13,x13,-297	 x13:0x3e6ee000 x13=0x3e6eded7
         495000	        48	800000a0	80000737	lui	x14,0x80000	 x14=0x80000000
         505000	        49	800000a4	00000793	addi	x15,x0,0	  x0:0x00000000 x15=0x00000000
         515000	        50	800000a8	00000813	addi	x16,x0,0	  x0:0x00000000 x16=0x00000000
         525000	        51	800000ac	fb6fc8b7	lui	x17,0xfb6fc	 x17=0xfb6fc000
         535000	        52	800000b0	84688893	addi	x17,x17,-1978	 x17:0xfb6fc000 x17=0xfb6fb846
         545000	        53	800000b4	8fcce937	lui	x18,0x8fcce	 x18=0x8fcce000
         555000	        54	800000b8	dd390913	addi	x18,x18,-557	 x18:0x8fcce000 x18=0x8fccddd3
         565000	        55	800000bc	800009b7	lui	x19,0x80000	 x19=0x80000000
         575000	        56	800000c0	00000a13	addi	x20,x0,0	  x0:0x00000000 x20=0x00000000
         585000	        57	800000c4	80000ab7	lui	x21,0x80000	 x21=0x80000000
         595000	        58	800000c8	80000b37	lui	x22,0x80000	 x22=0x80000000
         605000	        59	800000cc	00100b93	addi	x23,x0,1	  x0:0x00000000 x23=0x00000001
         615000	        60	800000d0	e68cac37	lui	x24,0xe68ca	 x24=0xe68ca000
         625000	        61	800000d4	d95c0c13	addi	x24,x24,-619	 x24:0xe68ca000 x24=0xe68c9d95
         635000	        62	800000d8	00a00c93	addi	x25,x0,10	  x0:0x00000000 x25=0x0000000a
         645000	        63	800000dc	bef9dd37	lui	x26,0xbef9d	 x26=0xbef9d000
         655000	        64	800000e0	797d0d13	addi	x26,x26,1943	 x26:0xbef9d000 x26=0xbef9d797
         665000	        65	800000e4	00b00d93	addi	x27,x0,11	  x0:0x00000000 x27=0x0000000b
         675000	        66	800000e8	80000e37	lui	x28,0x80000	 x28=0x80000000
         685000	        67	800000ec	80000eb7	lui	x29,0x80000	 x29=0x80000000
         695000	        68	800000f0	80000f37	lui	x30,0x80000	 x30=0x80000000
         705000	        69	800000f4	f25ccfb7	lui	x31,0xf25cc	 x31=0xf25cc000
         715000	        70	800000f8	d35f8f93	addi	x31,x31,-715	 x31:0xf25cc000 x31=0xf25cbd35
         725000	        71	800000fc	0000a517	auipc	x10,0xa	 x10=0x8000a0f8
         735000	        72	80000100	e8c50513	addi	x10,x10,-372	 x10:0x8000a0f8 x10=0x80009f84
         745000	        73	80000104	00004717	auipc	x14,0x4	 x14=0x80004100
         755000	        74	80000108	18c70713	addi	x14,x14,396	 x14:0x80004100 x14=0x8000428c
         765000	        75	8000010c	01a39ab3	sll	x21,x7,x26	  x7:0x00000000 x26:0xbef9d797 x21=0x00000000
         775000	        76	80000110	f078e213	ori	x4,x17,-249	 x17:0xfb6fb846  x4=0xffffff47
         785000	        77	80000114	0023d113	srli	x2,x7,0x2	  x7:0x00000000  x2=0x00000000
         795000	        78	80000118	002a2d33	slt	x26,x20,x2	 x20:0x00000000  x2:0x00000000 x26=0x00000000
         805000	        79	8000011c	e4070713	addi	x14,x14,-448	 x14:0x8000428c x14=0x800040cc
         815000	        80	80000120	79372a93	slti	x21,x14,1939	 x14:0x800040cc x21=0x00000001
         825000	        81	80000124	1c170d67	jalr	x26,x14,449	 x14:0x800040cc x26=0x80000124
         835000	        82	00000000	00000013	addi	x0,x0,0	  x0:0x00000000
         845000	        83	8000428c	00000013	addi	x0,x0,0	  x0:0x00000000
         855000	        84	80004290	01dc0fb3	add	x31,x24,x29	 x24:0xe68c9d95 x29:0x80000000 x31=0x668c9d95
         865000	        85	80004294	01f07463	bgeu	x0,x31,8000429c	  x0:0x00000000 x31:0x668c9d95
         875000	        86	80004298	01fed9b3	srl	x19,x29,x31	 x29:0x80000000 x31:0x668c9d95 x19=0x00000400
         885000	        87	8000429c	fc050513	addi	x10,x10,-64	 x10:0x80009f84 x10=0x80009f44
         895000	        88	800042a0	00000013	addi	x0,x0,0	  x0:0x00000000
         905000	        89	800042a4	004228b3	slt	x17,x4,x4	  x4:0xffffff47  x4:0xffffff47 x17=0x00000000
         915000	        90	800042a8	f3a4f913	andi	x18,x9,-198	  x9:0x0000000b x18=0x0000000a
         925000	        91	800042ac	4c3a2893	slti	x17,x20,1219	 x20:0x00000000 x17=0x00000001
         935000	        92	800042b0	019c9a33	sll	x20,x25,x25	 x25:0x0000000a x25:0x0000000a x20=0x00002800
         945000	        93	800042b4	01695893	srli	x17,x18,0x16	 x18:0x0000000a x17=0x00000000
         955000	        94	800042b8	005632b3	sltu	x5,x12,x5	 x12:0x00000006  x5:0x0192abc0  x5=0x00000001
         965000	        95	800042bc	01a52223	sw	x26,4(x10)	 x10:0x80009f44 x26:0x80000124 PA:0x80009f48
         975000	        96	800042c0	7027b897	auipc	x17,0x7027b	 x17=0xf027f2bc
         985000	        97	800042c4	4001dd13	srai	x26,x3,0x0	  x3:0xd687d4a9 x26=0xd687d4a9
         995000	        98	800042c8	01c657b3	srl	x15,x12,x28	 x12:0x00000006 x28:0x80000000 x15=0x00000006
        1005000	        99	800042cc	5cf8cb97	auipc	x23,0x5cf8c	 x23=0xdcf902c8
        1015000	       100	800042d0	00000013	addi	x0,x0,0	  x0:0x00000000
        1025000	       101	800042d4	419f5d33	sra	x26,x30,x25	 x30:0x80000000 x25:0x0000000a x26=0xffe00000
        1035000	       102	800042d8	1dc00d6f	jal	x26,800042d8	 x26=0x800042d8
        1045000	       103	00000000	00000013	addi	x0,x0,0	  x0:0x00000000
        1055000	       104	800044b0	00000013	addi	x0,x0,0	  x0:0x00000000
        1065000	       105	800044b4	00111433	sll	x8,x2,x1	  x2:0x00000000  x1:0x00000001  x8=0x00000000
        1075000	       106	800044b8	013c5193	srli	x3,x24,0x13	 x24:0xe68c9d95  x3=0x00001cd1
        1085000	       107	800044bc	9e6c43b7	lui	x7,0x9e6c4	  x7=0x9e6c4000
        1095000	       108	800044c0	68d22b13	slti	x22,x4,1677	  x4:0xffffff47 x22=0x00000001
        1105000	       109	800044c4	00000013	addi	x0,x0,0	  x0:0x00000000
        1115000	       110	800044c8	01c47463	bgeu	x8,x28,800044d0	  x8:0x00000000 x28:0x80000000
        1125000	       111	800044cc	00ef10b3	sll	x1,x30,x14	 x30:0x80000000 x14:0x800040cc  x1=0x00000000
        1135000	       112	800044d0	ff850513	addi	x10,x10,-8	 x10:0x80009f44 x10=0x80009f3c
        1145000	       113	800044d4	6c2dfa13	andi	x20,x27,1730	 x27:0x0000000b x20=0x00000002
        1155000	       114	800044d8	01a52223	sw	x26,4(x10)	 x10:0x80009f3c x26:0x800042d8 PA:0x80009f40
        1165000	       115	800044dc	2ae9b713	sltiu	x14,x19,686	 x19:0x00000400 x14=0x00000000
        1175000	       116	800044e0	3f85a713	slti	x14,x11,1016	 x11:0x00000000 x14=0x00000001
        1185000	       117	800044e4	5df1a713	slti	x14,x3,1503	  x3:0x00001cd1 x14=0x00000000
        1195000	       118	800044e8	00000013	addi	x0,x0,0	  x0:0x00000000
        1205000	       119	800044ec	414dda13	srai	x20,x27,0x14	 x27:0x0000000b x20=0x00000000
        1215000	       120	800044f0	403c8e33	sub	x28,x25,x3	 x25:0x0000000a  x3:0x00001cd1 x28=0xffffe339
        1225000	       121	800044f4	419602b3	sub	x5,x12,x25	 x12:0x00000006 x25:0x0000000a  x5=0xfffffffc
        1235000	       122	800044f8	7f010193	addi	x3,x2,2032	  x2:0x00000000  x3=0x000007f0
        1245000	       123	800044fc	00cc1833	sll	x16,x24,x12	 x24:0xe68c9d95 x12:0x00000006 x16=0xa3276540
        1255000	       124	80004500	405903b3	sub	x7,x18,x5	 x18:0x0000000a  x5:0xfffffffc  x7=0x0000000e
        1265000	       125	80004504	63473a13	sltiu	x20,x14,1588	 x14:0x00000000 x20=0x00000001
        1275000	       126	80004508	437de717	auipc	x14,0x437de	 x14=0xc37e2504
        1285000	       127	8000450c	cd5fbd6f	jal	x26,8000450c	 x26=0x8000450c
        1295000	       128	00000000	00000013	addi	x0,x0,0	  x0:0x00000000
        1305000	       129	800001dc	00000013	addi	x0,x0,0	  x0:0x00000000
        1315000	       130	800001e0	00695463	bge	x18,x6,800001e8	 x18:0x0000000a  x6:0x80009fc4
        1325000	       131	00000000	00000013	addi	x0,x0,0	  x0:0x00000000
        1335000	       132	800001e4	00000013	addi	x0,x0,0	  x0:0x00000000
        1345000	       133	800001e8	fe850513	addi	x10,x10,-24	 x10:0x80009f3c x10=0x80009f24
        1355000	       134	800001ec	782a6f93	ori	x31,x20,1922	 x20:0x00000001 x31=0x00000783
        1365000	       135	800001f0	af6dad93	slti	x27,x27,-1290	 x27:0x0000000b x27=0x00000000
        1375000	       136	800001f4	018e7fb3	and	x31,x28,x24	 x28:0xffffe339 x24:0xe68c9d95 x31=0xe68c8111
        1385000	       137	800001f8	01039933	sll	x18,x7,x16	  x7:0x0000000e x16:0xa3276540 x18=0x0000000e
        1395000	       138	800001fc	01a52223	sw	x26,4(x10)	 x10:0x80009f24 x26:0x8000450c PA:0x80009f28
        1405000	       139	80000200	d995eb13	ori	x22,x11,-615	 x11:0x00000000 x22=0xfffffd99
        1415000	       140	80000204	01400d6f	jal	x26,80000204	 x26=0x80000204
        1425000	       141	00000000	00000013	addi	x0,x0,0	  x0:0x00000000
        1435000	       142	80000214	00000013	addi	x0,x0,0	  x0:0x00000000
        1445000	       143	80000218	030000ef	jal	x1,80000218	  x1=0x80000218
        1455000	       144	00000000	00000013	addi	x0,x0,0	  x0:0x00000000
        1465000	       145	80000244	00000013	addi	x0,x0,0	  x0:0x00000000
        1475000	       146	80000248	020000ef	jal	x1,80000248	  x1=0x80000248
        1485000	       147	00000000	00000013	addi	x0,x0,0	  x0:0x00000000
        1495000	       148	80000264	00000013	addi	x0,x0,0	  x0:0x00000000
        1505000	       149	80000268	fb9ff0ef	jal	x1,80000268	  x1=0x80000268
        1515000	       150	00000000	00000013	addi	x0,x0,0	  x0:0x00000000
        1525000	       151	8000021c	00000013	addi	x0,x0,0	  x0:0x00000000
        1535000	       152	80000220	04c000ef	jal	x1,80000220	  x1=0x80000220
        1545000	       153	00000000	00000013	addi	x0,x0,0	  x0:0x00000000
        1555000	       154	80000268	00000013	addi	x0,x0,0	  x0:0x00000000
        1565000	       155	8000026c	fe9ff3ef	jal	x7,8000026c	  x7=0x8000026c
        1575000	       156	00000000	00000013	addi	x0,x0,0	  x0:0x00000000
        1585000	       157	80000250	00000013	addi	x0,x0,0	  x0:0x00000000
        1595000	       158	80000254	004000ef	jal	x1,80000254	  x1=0x80000254
        1605000	       159	00000000	00000013	addi	x0,x0,0	  x0:0x00000000
        1615000	       160	80000254	00000013	addi	x0,x0,0	  x0:0x00000000
        1625000	       161	80000258	fbdff86f	jal	x16,80000258	 x16=0x80000258
        1635000	       162	00000000	00000013	addi	x0,x0,0	  x0:0x00000000
        1645000	       163	80000210	00000013	addi	x0,x0,0	  x0:0x00000000
        1655000	       164	80000214	05000b6f	jal	x22,80000214	 x22=0x80000214
        1665000	       165	00000000	00000013	addi	x0,x0,0	  x0:0x00000000
        1675000	       166	80000260	00000013	addi	x0,x0,0	  x0:0x00000000
        1685000	       167	80000264	ff9ff3ef	jal	x7,80000264	  x7=0x80000264
        1695000	       168	00000000	00000013	addi	x0,x0,0	  x0:0x00000000
        1705000	       169	80000258	00000013	addi	x0,x0,0	  x0:0x00000000
        1715000	       170	8000025c	fcdff46f	jal	x8,8000025c	  x8=0x8000025c
        1725000	       171	00000000	00000013	addi	x0,x0,0	  x0:0x00000000
        1735000	       172	80000224	00000013	addi	x0,x0,0	  x0:0x00000000
        1745000	       173	80000228	00c0016f	jal	x2,80000228	  x2=0x80000228
        1755000	       174	00000000	00000013	addi	x0,x0,0	  x0:0x00000000
        1765000	       175	80000230	00000013	addi	x0,x0,0	  x0:0x00000000
        1775000	       176	80000234	ffdff0ef	jal	x1,80000234	  x1=0x80000234
        1785000	       177	00000000	00000013	addi	x0,x0,0	  x0:0x00000000
        1795000	       178	8000022c	00000013	addi	x0,x0,0	  x0:0x00000000
        1805000	       179	80000230	008000ef	jal	x1,80000230	  x1=0x80000230
        1815000	       180	00000000	00000013	addi	x0,x0,0	  x0:0x00000000
        1825000	       181	80000234	00000013	addi	x0,x0,0	  x0:0x00000000
        1835000	       182	80000238	fd1ff0ef	jal	x1,80000238	  x1=0x80000238
        1845000	       183	00000000	00000013	addi	x0,x0,0	  x0:0x00000000
        1855000	       184	80000204	00000013	addi	x0,x0,0	  x0:0x00000000
        1865000	       185	80000208	02400cef	jal	x25,80000208	 x25=0x80000208
        1875000	       186	00000000	00000013	addi	x0,x0,0	  x0:0x00000000
        1885000	       187	80000228	00000013	addi	x0,x0,0	  x0:0x00000000
        1895000	       188	8000022c	024007ef	jal	x15,8000022c	 x15=0x8000022c
        1905000	       189	00000000	00000013	addi	x0,x0,0	  x0:0x00000000
        1915000	       190	8000024c	00000013	addi	x0,x0,0	  x0:0x00000000
        1925000	       191	80000250	fedff0ef	jal	x1,80000250	  x1=0x80000250
        1935000	       192	00000000	00000013	addi	x0,x0,0	  x0:0x00000000
        1945000	       193	80000238	00000013	addi	x0,x0,0	  x0:0x00000000
        1955000	       194	8000023c	fe1ff26f	jal	x4,8000023c	  x4=0x8000023c
        1965000	       195	00000000	00000013	addi	x0,x0,0	  x0:0x00000000
        1975000	       196	80000218	00000013	addi	x0,x0,0	  x0:0x00000000
        1985000	       197	8000021c	044000ef	jal	x1,8000021c	  x1=0x8000021c
        1995000	       198	00000000	00000013	addi	x0,x0,0	  x0:0x00000000
        2005000	       199	8000025c	00000013	addi	x0,x0,0	  x0:0x00000000
        2015000	       200	80000260	fadffbef	jal	x23,80000260	 x23=0x80000260
        2025000	       201	00000000	00000013	addi	x0,x0,0	  x0:0x00000000
        2035000	       202	80000208	00000013	addi	x0,x0,0	  x0:0x00000000
        2045000	       203	8000020c	038000ef	jal	x1,8000020c	  x1=0x8000020c
        2055000	       204	00000000	00000013	addi	x0,x0,0	  x0:0x00000000
        2065000	       205	80000240	00000013	addi	x0,x0,0	  x0:0x00000000
        2075000	       206	80000244	008000ef	jal	x1,80000244	  x1=0x80000244
        2085000	       207	00000000	00000013	addi	x0,x0,0	  x0:0x00000000
        2095000	       208	80000248	00000013	addi	x0,x0,0	  x0:0x00000000
        2105000	       209	8000024c	fc5ff0ef	jal	x1,8000024c	  x1=0x8000024c
        2115000	       210	00000000	00000013	addi	x0,x0,0	  x0:0x00000000
        2125000	       211	8000020c	00000013	addi	x0,x0,0	  x0:0x00000000
        2135000	       212	80000210	01400b6f	jal	x22,80000210	 x22=0x80000210
        2145000	       213	00000000	00000013	addi	x0,x0,0	  x0:0x00000000
        2155000	       214	80000220	00000013	addi	x0,x0,0	  x0:0x00000000
        2165000	       215	80000224	01c000ef	jal	x1,80000224	  x1=0x80000224
        2175000	       216	00000000	00000013	addi	x0,x0,0	  x0:0x00000000
        2185000	       217	8000023c	00000013	addi	x0,x0,0	  x0:0x00000000
        2195000	       218	80000240	030004ef	jal	x9,80000240	  x9=0x80000240
        2205000	       219	00000000	00000013	addi	x0,x0,0	  x0:0x00000000
        2215000	       220	8000026c	00000013	addi	x0,x0,0	  x0:0x00000000
        2225000	       221	80000270	01c52ab3	slt	x21,x10,x28	 x10:0x80009f24 x28:0xffffe339 x21=0x00000001
        2235000	       222	80000274	01400d6f	jal	x26,80000274	 x26=0x80000274
        2245000	       223	00000000	00000013	addi	x0,x0,0	  x0:0x00000000
        2255000	       224	80000284	00000013	addi	x0,x0,0	  x0:0x00000000
        2265000	       225	80000288	00c0016f	jal	x2,80000288	  x2=0x80000288
        2275000	       226	00000000	00000013	addi	x0,x0,0	  x0:0x00000000
        2285000	       227	80000290	00000013	addi	x0,x0,0	  x0:0x00000000
        2295000	       228	80000294	ffdff0ef	jal	x1,80000294	  x1=0x80000294
        2305000	       229	00000000	00000013	addi	x0,x0,0	  x0:0x00000000
        2315000	       230	8000028c	00000013	addi	x0,x0,0	  x0:0x00000000
        2325000	       231	80000290	00c000ef	jal	x1,80000290	  x1=0x80000290
        2335000	       232	00000000	00000013	addi	x0,x0,0	  x0:0x00000000
        2345000	       233	80000298	00000013	addi	x0,x0,0	  x0:0x00000000
        2355000	       234	8000029c	fe9ff46f	jal	x8,8000029c	  x8=0x8000029c
        2365000	       235	00000000	00000013	addi	x0,x0,0	  x0:0x00000000
        2375000	       236	80000280	00000013	addi	x0,x0,0	  x0:0x00000000
        2385000	       237	80000284	014000ef	jal	x1,80000284	  x1=0x80000284
        2395000	       238	00000000	00000013	addi	x0,x0,0	  x0:0x00000000
        2405000	       239	80000294	00000013	addi	x0,x0,0	  x0:0x00000000
        2415000	       240	80000298	fe9ff0ef	jal	x1,80000298	  x1=0x80000298
        2425000	       241	00000000	00000013	addi	x0,x0,0	  x0:0x00000000
        2435000	       242	8000027c	00000013	addi	x0,x0,0	  x0:0x00000000
        2445000	       243	80000280	ffdff0ef	jal	x1,80000280	  x1=0x80000280
        2455000	       244	00000000	00000013	addi	x0,x0,0	  x0:0x00000000
        2465000	       245	80000278	00000013	addi	x0,x0,0	  x0:0x00000000
        2475000	       246	8000027c	ffdff0ef	jal	x1,8000027c	  x1=0x8000027c
        2485000	       247	00000000	00000013	addi	x0,x0,0	  x0:0x00000000
        2495000	       248	80000274	00000013	addi	x0,x0,0	  x0:0x00000000
        2505000	       249	80000278	014000ef	jal	x1,80000278	  x1=0x80000278
        2515000	       250	00000000	00000013	addi	x0,x0,0	  x0:0x00000000
        2525000	       251	80000288	00000013	addi	x0,x0,0	  x0:0x00000000
        2535000	       252	8000028c	014000ef	jal	x1,8000028c	  x1=0x8000028c
        2545000	       253	00000000	00000013	addi	x0,x0,0	  x0:0x00000000
        2555000	       254	8000029c	00000013	addi	x0,x0,0	  x0:0x00000000
        2565000	       255	800002a0	40c1db13	srai	x22,x3,0xc	  x3:0x000007f0 x22=0x00000000
        2575000	       256	800002a4	00c00d6f	jal	x26,800002a4	 x26=0x800002a4
        2585000	       257	00000000	00000013	addi	x0,x0,0	  x0:0x00000000
        2595000	       258	800002ac	00000013	addi	x0,x0,0	  x0:0x00000000
        2605000	       259	800002b0	04800aef	jal	x21,800002b0	 x21=0x800002b0
        2615000	       260	00000000	00000013	addi	x0,x0,0	  x0:0x00000000
        2625000	       261	800002f4	00000013	addi	x0,x0,0	  x0:0x00000000
        2635000	       262	800002f8	fbdffdef	jal	x27,800002f8	 x27=0x800002f8
        2645000	       263	00000000	00000013	addi	x0,x0,0	  x0:0x00000000
        2655000	       264	800002b0	00000013	addi	x0,x0,0	  x0:0x00000000
        2665000	       265	800002b4	040000ef	jal	x1,800002b4	  x1=0x800002b4
        2675000	       266	00000000	00000013	addi	x0,x0,0	  x0:0x00000000
        2685000	       267	800002f0	00000013	addi	x0,x0,0	  x0:0x00000000
        2695000	       268	800002f4	fb9ff0ef	jal	x1,800002f4	  x1=0x800002f4
        2705000	       269	00000000	00000013	addi	x0,x0,0	  x0:0x00000000
        2715000	       270	800002a8	00000013	addi	x0,x0,0	  x0:0x00000000
        2725000	       271	800002ac	024000ef	jal	x1,800002ac	  x1=0x800002ac
        2735000	       272	00000000	00000013	addi	x0,x0,0	  x0:0x00000000
        2745000	       273	800002cc	00000013	addi	x0,x0,0	  x0:0x00000000
        2755000	       274	800002d0	004005ef	jal	x11,800002d0	 x11=0x800002d0
        2765000	       275	00000000	00000013	addi	x0,x0,0	  x0:0x00000000
        2775000	       276	800002d0	00000013	addi	x0,x0,0	  x0:0x00000000
        2785000	       277	800002d4	ff1ff0ef	jal	x1,800002d4	  x1=0x800002d4
        2795000	       278	00000000	00000013	addi	x0,x0,0	  x0:0x00000000
        2805000	       279	800002c0	00000013	addi	x0,x0,0	  x0:0x00000000
        2815000	       280	800002c4	018000ef	jal	x1,800002c4	  x1=0x800002c4
        2825000	       281	00000000	00000013	addi	x0,x0,0	  x0:0x00000000
        2835000	       282	800002d8	00000013	addi	x0,x0,0	  x0:0x00000000
        2845000	       283	800002dc	030000ef	jal	x1,800002dc	  x1=0x800002dc
        2855000	       284	00000000	00000013	addi	x0,x0,0	  x0:0x00000000
        2865000	       285	80000308	00000013	addi	x0,x0,0	  x0:0x00000000
        2875000	       286	8000030c	ff9ff0ef	jal	x1,8000030c	  x1=0x8000030c
        2885000	       287	00000000	00000013	addi	x0,x0,0	  x0:0x00000000
        2895000	       288	80000300	00000013	addi	x0,x0,0	  x0:0x00000000
        2905000	       289	80000304	fb5ff0ef	jal	x1,80000304	  x1=0x80000304
        2915000	       290	00000000	00000013	addi	x0,x0,0	  x0:0x00000000
        2925000	       291	800002b4	00000013	addi	x0,x0,0	  x0:0x00000000
        2935000	       292	800002b8	0480016f	jal	x2,800002b8	  x2=0x800002b8
        2945000	       293	00000000	00000013	addi	x0,x0,0	  x0:0x00000000
        2955000	       294	800002fc	00000013	addi	x0,x0,0	  x0:0x00000000
        2965000	       295	80000300	fc1fff6f	jal	x30,80000300	 x30=0x80000300
        2975000	       296	00000000	00000013	addi	x0,x0,0	  x0:0x00000000
        2985000	       297	800002bc	00000013	addi	x0,x0,0	  x0:0x00000000
        2995000	       298	800002c0	02400e6f	jal	x28,800002c0	 x28=0x800002c0
        3005000	       299	00000000	00000013	addi	x0,x0,0	  x0:0x00000000
        3015000	       300	800002e0	00000013	addi	x0,x0,0	  x0:0x00000000
        3025000	       301	800002e4	004000ef	jal	x1,800002e4	  x1=0x800002e4
        3035000	       302	00000000	00000013	addi	x0,x0,0	  x0:0x00000000
        3045000	       303	800002e4	00000013	addi	x0,x0,0	  x0:0x00000000
        3055000	       304	800002e8	008000ef	jal	x1,800002e8	  x1=0x800002e8
        3065000	       305	00000000	00000013	addi	x0,x0,0	  x0:0x00000000
        3075000	       306	800002ec	00000013	addi	x0,x0,0	  x0:0x00000000
        3085000	       307	800002f0	fb9ff26f	jal	x4,800002f0	  x4=0x800002f0
        3095000	       308	00000000	00000013	addi	x0,x0,0	  x0:0x00000000
        3105000	       309	800002a4	00000013	addi	x0,x0,0	  x0:0x00000000
        3115000	       310	800002a8	038000ef	jal	x1,800002a8	  x1=0x800002a8
        3125000	       311	00000000	00000013	addi	x0,x0,0	  x0:0x00000000
        3135000	       312	800002dc	00000013	addi	x0,x0,0	  x0:0x00000000
        3145000	       313	800002e0	0280026f	jal	x4,800002e0	  x4=0x800002e0
        3155000	       314	00000000	00000013	addi	x0,x0,0	  x0:0x00000000
        3165000	       315	80000304	00000013	addi	x0,x0,0	  x0:0x00000000
        3175000	       316	80000308	fb5ff0ef	jal	x1,80000308	  x1=0x80000308
        3185000	       317	00000000	00000013	addi	x0,x0,0	  x0:0x00000000
        3195000	       318	800002b8	00000013	addi	x0,x0,0	  x0:0x00000000
        3205000	       319	800002bc	04000eef	jal	x29,800002bc	 x29=0x800002bc
        3215000	       320	00000000	00000013	addi	x0,x0,0	  x0:0x00000000
        3225000	       321	800002f8	00000013	addi	x0,x0,0	  x0:0x00000000
        3235000	       322	800002fc	fcdff0ef	jal	x1,800002fc	  x1=0x800002fc
        3245000	       323	00000000	00000013	addi	x0,x0,0	  x0:0x00000000
        3255000	       324	800002c4	00000013	addi	x0,x0,0	  x0:0x00000000
        3265000	       325	800002c8	00400e6f	jal	x28,800002c8	 x28=0x800002c8
        3275000	       326	00000000	00000013	addi	x0,x0,0	  x0:0x00000000
        3285000	       327	800002c8	00000013	addi	x0,x0,0	  x0:0x00000000
        3295000	       328	800002cc	00c000ef	jal	x1,800002cc	  x1=0x800002cc
        3305000	       329	00000000	00000013	addi	x0,x0,0	  x0:0x00000000
        3315000	       330	800002d4	00000013	addi	x0,x0,0	  x0:0x00000000
        3325000	       331	800002d8	01400bef	jal	x23,800002d8	 x23=0x800002d8
        3335000	       332	00000000	00000013	addi	x0,x0,0	  x0:0x00000000
        3345000	       333	800002e8	00000013	addi	x0,x0,0	  x0:0x00000000
        3355000	       334	800002ec	024000ef	jal	x1,800002ec	  x1=0x800002ec
        3365000	       335	00000000	00000013	addi	x0,x0,0	  x0:0x00000000
        3375000	       336	8000030c	00000013	addi	x0,x0,0	  x0:0x00000000
        3385000	       337	80000310	d091a713	slti	x14,x3,-759	  x3:0x000007f0 x14=0x00000000
        3395000	       338	80000314	06400d6f	jal	x26,80000314	 x26=0x80000314
        3405000	       339	00000000	00000013	addi	x0,x0,0	  x0:0x00000000
        3415000	       340	80000374	00000013	addi	x0,x0,0	  x0:0x00000000
        3425000	       341	80000378	fe9ff16f	jal	x2,80000378	  x2=0x80000378
        3435000	       342	00000000	00000013	addi	x0,x0,0	  x0:0x00000000
        3445000	       343	8000035c	00000013	addi	x0,x0,0	  x0:0x00000000
        3455000	       344	80000360	fc5ff0ef	jal	x1,80000360	  x1=0x80000360
        3465000	       345	00000000	00000013	addi	x0,x0,0	  x0:0x00000000
        3475000	       346	80000320	00000013	addi	x0,x0,0	  x0:0x00000000
        3485000	       347	80000324	050002ef	jal	x5,80000324	  x5=0x80000324
        3495000	       348	00000000	00000013	addi	x0,x0,0	  x0:0x00000000
        3505000	       349	80000370	00000013	addi	x0,x0,0	  x0:0x00000000
        3515000	       350	80000374	ff9ff0ef	jal	x1,80000374	  x1=0x80000374
        3525000	       351	00000000	00000013	addi	x0,x0,0	  x0:0x00000000
        3535000	       352	80000368	00000013	addi	x0,x0,0	  x0:0x00000000
        3545000	       353	8000036c	fadff0ef	jal	x1,8000036c	  x1=0x8000036c
        3555000	       354	00000000	00000013	addi	x0,x0,0	  x0:0x00000000
        3565000	       355	80000314	00000013	addi	x0,x0,0	  x0:0x00000000
        3575000	       356	80000318	05800fef	jal	x31,80000318	 x31=0x80000318
        3585000	       357	00000000	00000013	addi	x0,x0,0	  x0:0x00000000
        3595000	       358	8000036c	00000013	addi	x0,x0,0	  x0:0x00000000
        3605000	       359	80000370	fd1ff0ef	jal	x1,80000370	  x1=0x80000370
        3615000	       360	00000000	00000013	addi	x0,x0,0	  x0:0x00000000
        3625000	       361	8000033c	00000013	addi	x0,x0,0	  x0:0x00000000
        3635000	       362	80000340	ff9ff0ef	jal	x1,80000340	  x1=0x80000340
        3645000	       363	00000000	00000013	addi	x0,x0,0	  x0:0x00000000
        3655000	       364	80000334	00000013	addi	x0,x0,0	  x0:0x00000000
        3665000	       365	80000338	014000ef	jal	x1,80000338	  x1=0x80000338
        3675000	       366	00000000	00000013	addi	x0,x0,0	  x0:0x00000000
        3685000	       367	80000348	00000013	addi	x0,x0,0	  x0:0x00000000
        3695000	       368	8000034c	fe5ff0ef	jal	x1,8000034c	  x1=0x8000034c
        3705000	       369	00000000	00000013	addi	x0,x0,0	  x0:0x00000000
        3715000	       370	8000032c	00000013	addi	x0,x0,0	  x0:0x00000000
        3725000	       371	80000330	004000ef	jal	x1,80000330	  x1=0x80000330
        3735000	       372	00000000	00000013	addi	x0,x0,0	  x0:0x00000000
        3745000	       373	80000330	00000013	addi	x0,x0,0	  x0:0x00000000
        3755000	       374	80000334	fedff0ef	jal	x1,80000334	  x1=0x80000334
        3765000	       375	00000000	00000013	addi	x0,x0,0	  x0:0x00000000
        3775000	       376	8000031c	00000013	addi	x0,x0,0	  x0:0x00000000
        3785000	       377	80000320	008000ef	jal	x1,80000320	  x1=0x80000320
        3795000	       378	00000000	00000013	addi	x0,x0,0	  x0:0x00000000
        3805000	       379	80000324	00000013	addi	x0,x0,0	  x0:0x00000000
        3815000	       380	80000328	0140016f	jal	x2,80000328	  x2=0x80000328
        3825000	       381	00000000	00000013	addi	x0,x0,0	  x0:0x00000000
        3835000	       382	80000338	00000013	addi	x0,x0,0	  x0:0x00000000
        3845000	       383	8000033c	00c000ef	jal	x1,8000033c	  x1=0x8000033c
        3855000	       384	00000000	00000013	addi	x0,x0,0	  x0:0x00000000
        3865000	       385	80000344	00000013	addi	x0,x0,0	  x0:0x00000000
        3875000	       386	80000348	010000ef	jal	x1,80000348	  x1=0x80000348
        3885000	       387	00000000	00000013	addi	x0,x0,0	  x0:0x00000000
        3895000	       388	80000354	00000013	addi	x0,x0,0	  x0:0x00000000
        3905000	       389	80000358	00c000ef	jal	x1,80000358	  x1=0x80000358
        3915000	       390	00000000	00000013	addi	x0,x0,0	  x0:0x00000000
        3925000	       391	80000360	00000013	addi	x0,x0,0	  x0:0x00000000
        3935000	       392	80000364	00400b6f	jal	x22,80000364	 x22=0x80000364
        3945000	       393	00000000	00000013	addi	x0,x0,0	  x0:0x00000000
        3955000	       394	80000364	00000013	addi	x0,x0,0	  x0:0x00000000
        3965000	       395	80000368	fc5ff0ef	jal	x1,80000368	  x1=0x80000368
        3975000	       396	00000000	00000013	addi	x0,x0,0	  x0:0x00000000
        3985000	       397	80000328	00000013	addi	x0,x0,0	  x0:0x00000000
        3995000	       398	8000032c	054000ef	jal	x1,8000032c	  x1=0x8000032c
        4005000	       399	00000000	00000013	addi	x0,x0,0	  x0:0x00000000
        4015000	       400	8000037c	00000013	addi	x0,x0,0	  x0:0x00000000
        4025000	       401	80000380	ffdff0ef	jal	x1,80000380	  x1=0x80000380
        4035000	       402	00000000	00000013	addi	x0,x0,0	  x0:0x00000000
        4045000	       403	80000378	00000013	addi	x0,x0,0	  x0:0x00000000
        4055000	       404	8000037c	0080086f	jal	x16,8000037c	 x16=0x8000037c
        4065000	       405	00000000	00000013	addi	x0,x0,0	  x0:0x00000000
        4075000	       406	80000380	00000013	addi	x0,x0,0	  x0:0x00000000
        4085000	       407	80000384	fd9ffbef	jal	x23,80000384	 x23=0x80000384
        4095000	       408	00000000	00000013	addi	x0,x0,0	  x0:0x00000000
        4105000	       409	80000358	00000013	addi	x0,x0,0	  x0:0x00000000
        4115000	       410	8000035c	fc1ff0ef	jal	x1,8000035c	  x1=0x8000035c
        4125000	       411	00000000	00000013	addi	x0,x0,0	  x0:0x00000000
        4135000	       412	80000318	00000013	addi	x0,x0,0	  x0:0x00000000
        4145000	       413	8000031c	034000ef	jal	x1,8000031c	  x1=0x8000031c
        4155000	       414	00000000	00000013	addi	x0,x0,0	  x0:0x00000000
        4165000	       415	8000034c	00000013	addi	x0,x0,0	  x0:0x00000000
        4175000	       416	80000350	004000ef	jal	x1,80000350	  x1=0x80000350
        4185000	       417	00000000	00000013	addi	x0,x0,0	  x0:0x00000000
        4195000	       418	80000350	00000013	addi	x0,x0,0	  x0:0x00000000
        4205000	       419	80000354	ff1ffd6f	jal	x26,80000354	 x26=0x80000354
        4215000	       420	00000000	00000013	addi	x0,x0,0	  x0:0x00000000
        4225000	       421	80000340	00000013	addi	x0,x0,0	  x0:0x00000000
        4235000	       422	80000344	0440046f	jal	x8,80000344	  x8=0x80000344
        4245000	       423	00000000	00000013	addi	x0,x0,0	  x0:0x00000000
        4255000	       424	80000384	00000013	addi	x0,x0,0	  x0:0x00000000
        4265000	       425	80000388	00e95413	srli	x8,x18,0xe	 x18:0x0000000e  x8=0x00000000
        4275000	       426	8000038c	02800d6f	jal	x26,8000038c	 x26=0x8000038c
        4285000	       427	00000000	00000013	addi	x0,x0,0	  x0:0x00000000
        4295000	       428	800003b0	00000013	addi	x0,x0,0	  x0:0x00000000
        4305000	       429	800003b4	0180026f	jal	x4,800003b4	  x4=0x800003b4
        4315000	       430	00000000	00000013	addi	x0,x0,0	  x0:0x00000000
        4325000	       431	800003c8	00000013	addi	x0,x0,0	  x0:0x00000000
        4335000	       432	800003cc	01c000ef	jal	x1,800003cc	  x1=0x800003cc
        4345000	       433	00000000	00000013	addi	x0,x0,0	  x0:0x00000000
        4355000	       434	800003e4	00000013	addi	x0,x0,0	  x0:0x00000000
        4365000	       435	800003e8	fe1ff0ef	jal	x1,800003e8	  x1=0x800003e8
        4375000	       436	00000000	00000013	addi	x0,x0,0	  x0:0x00000000
        4385000	       437	800003c4	00000013	addi	x0,x0,0	  x0:0x00000000
        4395000	       438	800003c8	fcdff0ef	jal	x1,800003c8	  x1=0x800003c8
        4405000	       439	00000000	00000013	addi	x0,x0,0	  x0:0x00000000
        4415000	       440	80000390	00000013	addi	x0,x0,0	  x0:0x00000000
        4425000	       441	80000394	0400086f	jal	x16,80000394	 x16=0x80000394
        4435000	       442	00000000	00000013	addi	x0,x0,0	  x0:0x00000000
        4445000	       443	800003d0	00000013	addi	x0,x0,0	  x0:0x00000000
        4455000	       444	800003d4	fc5ff26f	jal	x4,800003d4	  x4=0x800003d4
        4465000	       445	00000000	00000013	addi	x0,x0,0	  x0:0x00000000
        4475000	       446	80000394	00000013	addi	x0,x0,0	  x0:0x00000000
        4485000	       447	80000398	0480066f	jal	x12,80000398	 x12=0x80000398
        4495000	       448	00000000	00000013	addi	x0,x0,0	  x0:0x00000000
        4505000	       449	800003dc	00000013	addi	x0,x0,0	  x0:0x00000000
        4515000	       450	800003e0	ff1ffc6f	jal	x24,800003e0	 x24=0x800003e0
        4525000	       451	00000000	00000013	addi	x0,x0,0	  x0:0x00000000
        4535000	       452	800003cc	00000013	addi	x0,x0,0	  x0:0x00000000
        4545000	       453	800003d0	014000ef	jal	x1,800003d0	  x1=0x800003d0
        4555000	       454	00000000	00000013	addi	x0,x0,0	  x0:0x00000000
        4565000	       455	800003e0	00000013	addi	x0,x0,0	  x0:0x00000000
        4575000	       456	800003e4	ff5ff0ef	jal	x1,800003e4	  x1=0x800003e4
        4585000	       457	00000000	00000013	addi	x0,x0,0	  x0:0x00000000
        4595000	       458	800003d4	00000013	addi	x0,x0,0	  x0:0x00000000
        4605000	       459	800003d8	fd5ff0ef	jal	x1,800003d8	  x1=0x800003d8
        4615000	       460	00000000	00000013	addi	x0,x0,0	  x0:0x00000000
        4625000	       461	800003a8	00000013	addi	x0,x0,0	  x0:0x00000000
        4635000	       462	800003ac	0300016f	jal	x2,800003ac	  x2=0x800003ac
        4645000	       463	00000000	00000013	addi	x0,x0,0	  x0:0x00000000
        4655000	       464	800003d8	00000013	addi	x0,x0,0	  x0:0x00000000
        4665000	       465	800003dc	fe9ff0ef	jal	x1,800003dc	  x1=0x800003dc
        4675000	       466	00000000	00000013	addi	x0,x0,0	  x0:0x00000000
        4685000	       467	800003c0	00000013	addi	x0,x0,0	  x0:0x00000000
        4695000	       468	800003c4	fd9ff0ef	jal	x1,800003c4	  x1=0x800003c4
        4705000	       469	00000000	00000013	addi	x0,x0,0	  x0:0x00000000
        4715000	       470	80000398	00000013	addi	x0,x0,0	  x0:0x00000000
        4725000	       471	8000039c	01c00fef	jal	x31,8000039c	 x31=0x8000039c
        4735000	       472	00000000	00000013	addi	x0,x0,0	  x0:0x00000000
        4745000	       473	800003b4	00000013	addi	x0,x0,0	  x0:0x00000000
        4755000	       474	800003b8	038000ef	jal	x1,800003b8	  x1=0x800003b8
        4765000	       475	00000000	00000013	addi	x0,x0,0	  x0:0x00000000
        4775000	       476	800003ec	00000013	addi	x0,x0,0	  x0:0x00000000
        4785000	       477	800003f0	fb1ff0ef	jal	x1,800003f0	  x1=0x800003f0
        4795000	       478	00000000	00000013	addi	x0,x0,0	  x0:0x00000000
        4805000	       479	8000039c	00000013	addi	x0,x0,0	  x0:0x00000000
        4815000	       480	800003a0	ff1ff76f	jal	x14,800003a0	 x14=0x800003a0
        4825000	       481	00000000	00000013	addi	x0,x0,0	  x0:0x00000000
        4835000	       482	8000038c	00000013	addi	x0,x0,0	  x0:0x00000000
        4845000	       483	80000390	020000ef	jal	x1,80000390	  x1=0x80000390
        4855000	       484	00000000	00000013	addi	x0,x0,0	  x0:0x00000000
        4865000	       485	800003ac	00000013	addi	x0,x0,0	  x0:0x00000000
        4875000	       486	800003b0	010002ef	jal	x5,800003b0	  x5=0x800003b0
        4885000	       487	00000000	00000013	addi	x0,x0,0	  x0:0x00000000
        4895000	       488	800003bc	00000013	addi	x0,x0,0	  x0:0x00000000
        4905000	       489	800003c0	02c0076f	jal	x14,800003c0	 x14=0x800003c0
        4915000	       490	00000000	00000013	addi	x0,x0,0	  x0:0x00000000
        4925000	       491	800003e8	00000013	addi	x0,x0,0	  x0:0x00000000
        4935000	       492	800003ec	fb9ff0ef	jal	x1,800003ec	  x1=0x800003ec
        4945000	       493	00000000	00000013	addi	x0,x0,0	  x0:0x00000000
        4955000	       494	800003a0	00000013	addi	x0,x0,0	  x0:0x00000000
        4965000	       495	800003a4	004000ef	jal	x1,800003a4	  x1=0x800003a4
        4975000	       496	00000000	00000013	addi	x0,x0,0	  x0:0x00000000
        4985000	       497	800003a4	00000013	addi	x0,x0,0	  x0:0x00000000
        4995000	       498	800003a8	04c000ef	jal	x1,800003a8	  x1=0x800003a8
        5005000	       499	00000000	00000013	addi	x0,x0,0	  x0:0x00000000
        5015000	       500	800003f0	00000013	addi	x0,x0,0	  x0:0x00000000
        5025000	       501	800003f4	fc9ff2ef	jal	x5,800003f4	  x5=0x800003f4
        5035000	       502	00000000	00000013	addi	x0,x0,0	  x0:0x00000000
        5045000	       503	800003b8	00000013	addi	x0,x0,0	  x0:0x00000000
        5055000	       504	800003bc	03c000ef	jal	x1,800003bc	  x1=0x800003bc
        5065000	       505	00000000	00000013	addi	x0,x0,0	  x0:0x00000000
        5075000	       506	800003f4	00000013	addi	x0,x0,0	  x0:0x00000000
        5085000	       507	800003f8	41d9da13	srai	x20,x19,0x1d	 x19:0x00000400 x20=0x00000000
        5095000	       508	800003fc	03000d6f	jal	x26,800003fc	 x26=0x800003fc
        5105000	       509	00000000	00000013	addi	x0,x0,0	  x0:0x00000000
        5115000	       510	80000428	00000013	addi	x0,x0,0	  x0:0x00000000
        5125000	       511	8000042c	fd9ff0ef	jal	x1,8000042c	  x1=0x8000042c
        5135000	       512	00000000	00000013	addi	x0,x0,0	  x0:0x00000000
        5145000	       513	80000400	00000013	addi	x0,x0,0	  x0:0x00000000
        5155000	       514	80000404	038001ef	jal	x3,80000404	  x3=0x80000404
        5165000	       515	00000000	00000013	addi	x0,x0,0	  x0:0x00000000
        5175000	       516	80000438	00000013	addi	x0,x0,0	  x0:0x00000000
        5185000	       517	8000043c	008000ef	jal	x1,8000043c	  x1=0x8000043c
        5195000	       518	00000000	00000013	addi	x0,x0,0	  x0:0x00000000
        5205000	       519	80000440	00000013	addi	x0,x0,0	  x0:0x00000000
        5215000	       520	80000444	fe5ff3ef	jal	x7,80000444	  x7=0x80000444
        5225000	       521	00000000	00000013	addi	x0,x0,0	  x0:0x00000000
        5235000	       522	80000424	00000013	addi	x0,x0,0	  x0:0x00000000
        5245000	       523	80000428	fe5ffdef	jal	x27,80000428	 x27=0x80000428
        5255000	       524	00000000	00000013	addi	x0,x0,0	  x0:0x00000000
        5265000	       525	80000408	00000013	addi	x0,x0,0	  x0:0x00000000
        5275000	       526	8000040c	034000ef	jal	x1,8000040c	  x1=0x8000040c
        5285000	       527	00000000	00000013	addi	x0,x0,0	  x0:0x00000000
        5295000	       528	8000043c	00000013	addi	x0,x0,0	  x0:0x00000000
        5305000	       529	80000440	fd1ff0ef	jal	x1,80000440	  x1=0x80000440
        5315000	       530	00000000	00000013	addi	x0,x0,0	  x0:0x00000000
        5325000	       531	8000040c	00000013	addi	x0,x0,0	  x0:0x00000000
        5335000	       532	80000410	010000ef	jal	x1,80000410	  x1=0x80000410
        5345000	       533	00000000	00000013	addi	x0,x0,0	  x0:0x00000000
        5355000	       534	8000041c	00000013	addi	x0,x0,0	  x0:0x00000000
        5365000	       535	80000420	ffdff0ef	jal	x1,80000420	  x1=0x80000420
        5375000	       536	00000000	00000013	addi	x0,x0,0	  x0:0x00000000
        5385000	       537	80000418	00000013	addi	x0,x0,0	  x0:0x00000000
        5395000	       538	8000041c	018000ef	jal	x1,8000041c	  x1=0x8000041c
        5405000	       539	00000000	00000013	addi	x0,x0,0	  x0:0x00000000
        5415000	       540	80000430	00000013	addi	x0,x0,0	  x0:0x00000000
        5425000	       541	80000434	fcdff0ef	jal	x1,80000434	  x1=0x80000434
        5435000	       542	00000000	00000013	addi	x0,x0,0	  x0:0x00000000
        5445000	       543	800003fc	00000013	addi	x0,x0,0	  x0:0x00000000
        5455000	       544	80000400	024000ef	jal	x1,80000400	  x1=0x80000400
        5465000	       545	00000000	00000013	addi	x0,x0,0	  x0:0x00000000
        5475000	       546	80000420	00000013	addi	x0,x0,0	  x0:0x00000000
        5485000	       547	80000424	fe5ff9ef	jal	x19,80000424	 x19=0x80000424
        5495000	       548	00000000	00000013	addi	x0,x0,0	  x0:0x00000000
        5505000	       549	80000404	00000013	addi	x0,x0,0	  x0:0x00000000
        5515000	       550	80000408	00c000ef	jal	x1,80000408	  x1=0x80000408
        5525000	       551	00000000	00000013	addi	x0,x0,0	  x0:0x00000000
        5535000	       552	80000410	00000013	addi	x0,x0,0	  x0:0x00000000
        5545000	       553	80000414	01c000ef	jal	x1,80000414	  x1=0x80000414
        5555000	       554	00000000	00000013	addi	x0,x0,0	  x0:0x00000000
        5565000	       555	8000042c	00000013	addi	x0,x0,0	  x0:0x00000000
        5575000	       556	80000430	fe9ff26f	jal	x4,80000430	  x4=0x80000430
        5585000	       557	00000000	00000013	addi	x0,x0,0	  x0:0x00000000
        5595000	       558	80000414	00000013	addi	x0,x0,0	  x0:0x00000000
        5605000	       559	80000418	030000ef	jal	x1,80000418	  x1=0x80000418
        5615000	       560	00000000	00000013	addi	x0,x0,0	  x0:0x00000000
        5625000	       561	80000444	00000013	addi	x0,x0,0	  x0:0x00000000
        5635000	       562	80000448	ff1ff0ef	jal	x1,80000448	  x1=0x80000448
        5645000	       563	00000000	00000013	addi	x0,x0,0	  x0:0x00000000
        5655000	       564	80000434	00000013	addi	x0,x0,0	  x0:0x00000000
        5665000	       565	80000438	014000ef	jal	x1,80000438	  x1=0x80000438
        5675000	       566	00000000	00000013	addi	x0,x0,0	  x0:0x00000000
        5685000	       567	80000448	00000013	addi	x0,x0,0	  x0:0x00000000
        5695000	       568	8000044c	4257a213	slti	x4,x15,1061	 x15:0x8000022c  x4=0x00000001
        5705000	       569	80000450	01c00d6f	jal	x26,80000450	 x26=0x80000450
        5715000	       570	00000000	00000013	addi	x0,x0,0	  x0:0x00000000
        5725000	       571	80000468	00000013	addi	x0,x0,0	  x0:0x00000000
        5735000	       572	8000046c	fe9ff46f	jal	x8,8000046c	  x8=0x8000046c
        5745000	       573	00000000	00000013	addi	x0,x0,0	  x0:0x00000000
        5755000	       574	80000450	00000013	addi	x0,x0,0	  x0:0x00000000
        5765000	       575	80000454	020000ef	jal	x1,80000454	  x1=0x80000454
        5775000	       576	00000000	00000013	addi	x0,x0,0	  x0:0x00000000
        5785000	       577	80000470	00000013	addi	x0,x0,0	  x0:0x00000000
        5795000	       578	80000474	ffdff0ef	jal	x1,80000474	  x1=0x80000474
        5805000	       579	00000000	00000013	addi	x0,x0,0	  x0:0x00000000
        5815000	       580	8000046c	00000013	addi	x0,x0,0	  x0:0x00000000
        5825000	       581	80000470	ff9ff26f	jal	x4,80000470	  x4=0x80000470
        5835000	       582	00000000	00000013	addi	x0,x0,0	  x0:0x00000000
        5845000	       583	80000464	00000013	addi	x0,x0,0	  x0:0x00000000
        5855000	       584	80000468	0100026f	jal	x4,80000468	  x4=0x80000468
        5865000	       585	00000000	00000013	addi	x0,x0,0	  x0:0x00000000
        5875000	       586	80000474	00000013	addi	x0,x0,0	  x0:0x00000000
        5885000	       587	80000478	fedff0ef	jal	x1,80000478	  x1=0x80000478
        5895000	       588	00000000	00000013	addi	x0,x0,0	  x0:0x00000000
        5905000	       589	80000460	00000013	addi	x0,x0,0	  x0:0x00000000
        5915000	       590	80000464	ff9ff0ef	jal	x1,80000464	  x1=0x80000464
        5925000	       591	00000000	00000013	addi	x0,x0,0	  x0:0x00000000
        5935000	       592	80000458	00000013	addi	x0,x0,0	  x0:0x00000000
        5945000	       593	8000045c	004000ef	jal	x1,8000045c	  x1=0x8000045c
        5955000	       594	00000000	00000013	addi	x0,x0,0	  x0:0x00000000
        5965000	       595	8000045c	00000013	addi	x0,x0,0	  x0:0x00000000
        5975000	       596	80000460	ff9ff0ef	jal	x1,80000460	  x1=0x80000460
        5985000	       597	00000000	00000013	addi	x0,x0,0	  x0:0x00000000
        5995000	       598	80000454	00000013	addi	x0,x0,0	  x0:0x00000000
        6005000	       599	80000458	024000ef	jal	x1,80000458	  x1=0x80000458
        6015000	       600	00000000	00000013	addi	x0,x0,0	  x0:0x00000000
        6025000	       601	80000478	00000013	addi	x0,x0,0	  x0:0x00000000
        6035000	       602	8000047c	01f98133	add	x2,x19,x31	 x19:0x80000424 x31:0x8000039c  x2=0x000007c0
        6045000	       603	80000480	04800d6f	jal	x26,80000480	 x26=0x80000480
        6055000	       604	00000000	00000013	addi	x0,x0,0	  x0:0x00000000
        6065000	       605	800004c4	00000013	addi	x0,x0,0	  x0:0x00000000
        6075000	       606	800004c8	00800cef	jal	x25,800004c8	 x25=0x800004c8
        6085000	       607	00000000	00000013	addi	x0,x0,0	  x0:0x00000000
        6095000	       608	800004cc	00000013	addi	x0,x0,0	  x0:0x00000000
        6105000	       609	800004d0	fcdff0ef	jal	x1,800004d0	  x1=0x800004d0
        6115000	       610	00000000	00000013	addi	x0,x0,0	  x0:0x00000000
        6125000	       611	80000498	00000013	addi	x0,x0,0	  x0:0x00000000
        6135000	       612	8000049c	048000ef	jal	x1,8000049c	  x1=0x8000049c
        6145000	       613	00000000	00000013	addi	x0,x0,0	  x0:0x00000000
        6155000	       614	800004e0	00000013	addi	x0,x0,0	  x0:0x00000000
        6165000	       615	800004e4	fadff0ef	jal	x1,800004e4	  x1=0x800004e4
        6175000	       616	00000000	00000013	addi	x0,x0,0	  x0:0x00000000
        6185000	       617	8000048c	00000013	addi	x0,x0,0	  x0:0x00000000
        6195000	       618	80000490	0440026f	jal	x4,80000490	  x4=0x80000490
        6205000	       619	00000000	00000013	addi	x0,x0,0	  x0:0x00000000
        6215000	       620	800004d0	00000013	addi	x0,x0,0	  x0:0x00000000
        6225000	       621	800004d4	fe1ff0ef	jal	x1,800004d4	  x1=0x800004d4
        6235000	       622	00000000	00000013	addi	x0,x0,0	  x0:0x00000000
        6245000	       623	800004b0	00000013	addi	x0,x0,0	  x0:0x00000000
        6255000	       624	800004b4	fe1ff7ef	jal	x15,800004b4	 x15=0x800004b4
        6265000	       625	00000000	00000013	addi	x0,x0,0	  x0:0x00000000
        6275000	       626	80000490	00000013	addi	x0,x0,0	  x0:0x00000000
        6285000	       627	80000494	01400bef	jal	x23,80000494	 x23=0x80000494
        6295000	       628	00000000	00000013	addi	x0,x0,0	  x0:0x00000000
        6305000	       629	800004a4	00000013	addi	x0,x0,0	  x0:0x00000000
        6315000	       630	800004a8	004000ef	jal	x1,800004a8	  x1=0x800004a8
        6325000	       631	00000000	00000013	addi	x0,x0,0	  x0:0x00000000
        6335000	       632	800004a8	00000013	addi	x0,x0,0	  x0:0x00000000
        6345000	       633	800004ac	048000ef	jal	x1,800004ac	  x1=0x800004ac
        6355000	       634	00000000	00000013	addi	x0,x0,0	  x0:0x00000000
        6365000	       635	800004f0	00000013	addi	x0,x0,0	  x0:0x00000000
        6375000	       636	800004f4	fbdff0ef	jal	x1,800004f4	  x1=0x800004f4
        6385000	       637	00000000	00000013	addi	x0,x0,0	  x0:0x00000000
        6395000	       638	800004ac	00000013	addi	x0,x0,0	  x0:0x00000000
        6405000	       639	800004b0	02c000ef	jal	x1,800004b0	  x1=0x800004b0
        6415000	       640	00000000	00000013	addi	x0,x0,0	  x0:0x00000000
        6425000	       641	800004d8	00000013	addi	x0,x0,0	  x0:0x00000000
        6435000	       642	800004dc	010002ef	jal	x5,800004dc	  x5=0x800004dc
        6445000	       643	00000000	00000013	addi	x0,x0,0	  x0:0x00000000
        6455000	       644	800004e8	00000013	addi	x0,x0,0	  x0:0x00000000
        6465000	       645	800004ec	fcdff0ef	jal	x1,800004ec	  x1=0x800004ec
        6475000	       646	00000000	00000013	addi	x0,x0,0	  x0:0x00000000
        6485000	       647	800004b4	00000013	addi	x0,x0,0	  x0:0x00000000
        6495000	       648	800004b8	030000ef	jal	x1,800004b8	  x1=0x800004b8
        6505000	       649	00000000	00000013	addi	x0,x0,0	  x0:0x00000000
        6515000	       650	800004e4	00000013	addi	x0,x0,0	  x0:0x00000000
        6525000	       651	800004e8	fa5ff0ef	jal	x1,800004e8	  x1=0x800004e8
        6535000	       652	00000000	00000013	addi	x0,x0,0	  x0:0x00000000
        6545000	       653	80000488	00000013	addi	x0,x0,0	  x0:0x00000000
        6555000	       654	8000048c	034000ef	jal	x1,8000048c	  x1=0x8000048c
        6565000	       655	00000000	00000013	addi	x0,x0,0	  x0:0x00000000
        6575000	       656	800004bc	00000013	addi	x0,x0,0	  x0:0x00000000
        6585000	       657	800004c0	004000ef	jal	x1,800004c0	  x1=0x800004c0
        6595000	       658	00000000	00000013	addi	x0,x0,0	  x0:0x00000000
        6605000	       659	800004c0	00000013	addi	x0,x0,0	  x0:0x00000000
        6615000	       660	800004c4	01c000ef	jal	x1,800004c4	  x1=0x800004c4
        6625000	       661	00000000	00000013	addi	x0,x0,0	  x0:0x00000000
        6635000	       662	800004dc	00000013	addi	x0,x0,0	  x0:0x00000000
        6645000	       663	800004e0	fb9ff3ef	jal	x7,800004e0	  x7=0x800004e0
        6655000	       664	00000000	00000013	addi	x0,x0,0	  x0:0x00000000
        6665000	       665	80000494	00000013	addi	x0,x0,0	  x0:0x00000000
        6675000	       666	80000498	ff1ff26f	jal	x4,80000498	  x4=0x80000498
        6685000	       667	00000000	00000013	addi	x0,x0,0	  x0:0x00000000
        6695000	       668	80000484	00000013	addi	x0,x0,0	  x0:0x00000000
        6705000	       669	80000488	018000ef	jal	x1,80000488	  x1=0x80000488
        6715000	       670	00000000	00000013	addi	x0,x0,0	  x0:0x00000000
        6725000	       671	8000049c	00000013	addi	x0,x0,0	  x0:0x00000000
        6735000	       672	800004a0	02c000ef	jal	x1,800004a0	  x1=0x800004a0
        6745000	       673	00000000	00000013	addi	x0,x0,0	  x0:0x00000000
        6755000	       674	800004c8	00000013	addi	x0,x0,0	  x0:0x00000000
        6765000	       675	800004cc	fb9ff2ef	jal	x5,800004cc	  x5=0x800004cc
        6775000	       676	00000000	00000013	addi	x0,x0,0	  x0:0x00000000
        6785000	       677	80000480	00000013	addi	x0,x0,0	  x0:0x00000000
        6795000	       678	80000484	038000ef	jal	x1,80000484	  x1=0x80000484
        6805000	       679	00000000	00000013	addi	x0,x0,0	  x0:0x00000000
        6815000	       680	800004b8	00000013	addi	x0,x0,0	  x0:0x00000000
        6825000	       681	800004bc	01c000ef	jal	x1,800004bc	  x1=0x800004bc
        6835000	       682	00000000	00000013	addi	x0,x0,0	  x0:0x00000000
        6845000	       683	800004d4	00000013	addi	x0,x0,0	  x0:0x00000000
        6855000	       684	800004d8	020000ef	jal	x1,800004d8	  x1=0x800004d8
        6865000	       685	00000000	00000013	addi	x0,x0,0	  x0:0x00000000
        6875000	       686	800004f4	00000013	addi	x0,x0,0	  x0:0x00000000
        6885000	       687	800004f8	ff9ff0ef	jal	x1,800004f8	  x1=0x800004f8
        6895000	       688	00000000	00000013	addi	x0,x0,0	  x0:0x00000000
        6905000	       689	800004ec	00000013	addi	x0,x0,0	  x0:0x00000000
        6915000	       690	800004f0	fb5ff0ef	jal	x1,800004f0	  x1=0x800004f0
        6925000	       691	00000000	00000013	addi	x0,x0,0	  x0:0x00000000
        6935000	       692	800004a0	00000013	addi	x0,x0,0	  x0:0x00000000
        6945000	       693	800004a4	058000ef	jal	x1,800004a4	  x1=0x800004a4
        6955000	       694	00000000	00000013	addi	x0,x0,0	  x0:0x00000000
        6965000	       695	800004f8	00000013	addi	x0,x0,0	  x0:0x00000000
        6975000	       696	800004fc	01a34033	xor	x0,x6,x26	  x6:0x80009fc4 x26:0x80000480
        6985000	       697	80000500	03000d6f	jal	x26,80000500	 x26=0x80000500
        6995000	       698	00000000	00000013	addi	x0,x0,0	  x0:0x00000000
        7005000	       699	8000052c	00000013	addi	x0,x0,0	  x0:0x00000000
        7015000	       700	80000530	ffdff8ef	jal	x17,80000530	 x17=0x80000530
        7025000	       701	00000000	00000013	addi	x0,x0,0	  x0:0x00000000
        7035000	       702	80000528	00000013	addi	x0,x0,0	  x0:0x00000000
        7045000	       703	8000052c	fedff5ef	jal	x11,8000052c	 x11=0x8000052c
        7055000	       704	00000000	00000013	addi	x0,x0,0	  x0:0x00000000
        7065000	       705	80000514	00000013	addi	x0,x0,0	  x0:0x00000000
        7075000	       706	80000518	01c000ef	jal	x1,80000518	  x1=0x80000518
        7085000	       707	00000000	00000013	addi	x0,x0,0	  x0:0x00000000
        7095000	       708	80000530	00000013	addi	x0,x0,0	  x0:0x00000000
        7105000	       709	80000534	fd9ffaef	jal	x21,80000534	 x21=0x80000534
        7115000	       710	00000000	00000013	addi	x0,x0,0	  x0:0x00000000
        7125000	       711	80000508	00000013	addi	x0,x0,0	  x0:0x00000000
        7135000	       712	8000050c	ffdff0ef	jal	x1,8000050c	  x1=0x8000050c
        7145000	       713	00000000	00000013	addi	x0,x0,0	  x0:0x00000000
        7155000	       714	80000504	00000013	addi	x0,x0,0	  x0:0x00000000
        7165000	       715	80000508	018000ef	jal	x1,80000508	  x1=0x80000508
        7175000	       716	00000000	00000013	addi	x0,x0,0	  x0:0x00000000
        7185000	       717	8000051c	00000013	addi	x0,x0,0	  x0:0x00000000
        7195000	       718	80000520	ff5ff0ef	jal	x1,80000520	  x1=0x80000520
        7205000	       719	00000000	00000013	addi	x0,x0,0	  x0:0x00000000
        7215000	       720	80000510	00000013	addi	x0,x0,0	  x0:0x00000000
        7225000	       721	80000514	008009ef	jal	x19,80000514	 x19=0x80000514
        7235000	       722	00000000	00000013	addi	x0,x0,0	  x0:0x00000000
        7245000	       723	80000518	00000013	addi	x0,x0,0	  x0:0x00000000
        7255000	       724	8000051c	00800a6f	jal	x20,8000051c	 x20=0x8000051c
        7265000	       725	00000000	00000013	addi	x0,x0,0	  x0:0x00000000
        7275000	       726	80000520	00000013	addi	x0,x0,0	  x0:0x00000000
        7285000	       727	80000524	004000ef	jal	x1,80000524	  x1=0x80000524
        7295000	       728	00000000	00000013	addi	x0,x0,0	  x0:0x00000000
        7305000	       729	80000524	00000013	addi	x0,x0,0	  x0:0x00000000
        7315000	       730	80000528	fe9ff0ef	jal	x1,80000528	  x1=0x80000528
        7325000	       731	00000000	00000013	addi	x0,x0,0	  x0:0x00000000
        7335000	       732	8000050c	00000013	addi	x0,x0,0	  x0:0x00000000
        7345000	       733	80000510	ff5ff0ef	jal	x1,80000510	  x1=0x80000510
        7355000	       734	00000000	00000013	addi	x0,x0,0	  x0:0x00000000
        7365000	       735	80000500	00000013	addi	x0,x0,0	  x0:0x00000000
        7375000	       736	80000504	034000ef	jal	x1,80000504	  x1=0x80000504
        7385000	       737	00000000	00000013	addi	x0,x0,0	  x0:0x00000000
        7395000	       738	80000534	00000013	addi	x0,x0,0	  x0:0x00000000
        7405000	       739	80000538	003634b3	sltu	x9,x12,x3	 x12:0x80000398  x3:0x80000404  x9=0x00000001
        7415000	       740	8000053c	01000d6f	jal	x26,8000053c	 x26=0x8000053c
        7425000	       741	00000000	00000013	addi	x0,x0,0	  x0:0x00000000
        7435000	       742	80000548	00000013	addi	x0,x0,0	  x0:0x00000000
        7445000	       743	8000054c	00c00e6f	jal	x28,8000054c	 x28=0x8000054c
        7455000	       744	00000000	00000013	addi	x0,x0,0	  x0:0x00000000
        7465000	       745	80000554	00000013	addi	x0,x0,0	  x0:0x00000000
        7475000	       746	80000558	030000ef	jal	x1,80000558	  x1=0x80000558
        7485000	       747	00000000	00000013	addi	x0,x0,0	  x0:0x00000000
        7495000	       748	80000584	00000013	addi	x0,x0,0	  x0:0x00000000
        7505000	       749	80000588	ff9ff0ef	jal	x1,80000588	  x1=0x80000588
        7515000	       750	00000000	00000013	addi	x0,x0,0	  x0:0x00000000
        7525000	       751	8000057c	00000013	addi	x0,x0,0	  x0:0x00000000
        7535000	       752	80000580	ff9ff0ef	jal	x1,80000580	  x1=0x80000580
        7545000	       753	00000000	00000013	addi	x0,x0,0	  x0:0x00000000
        7555000	       754	80000574	00000013	addi	x0,x0,0	  x0:0x00000000
        7565000	       755	80000578	fd1ff0ef	jal	x1,80000578	  x1=0x80000578
        7575000	       756	00000000	00000013	addi	x0,x0,0	  x0:0x00000000
        7585000	       757	80000544	00000013	addi	x0,x0,0	  x0:0x00000000
        7595000	       758	80000548	024009ef	jal	x19,80000548	 x19=0x80000548
        7605000	       759	00000000	00000013	addi	x0,x0,0	  x0:0x00000000
        7615000	       760	80000568	00000013	addi	x0,x0,0	  x0:0x00000000
        7625000	       761	8000056c	ff5ffe6f	jal	x28,8000056c	 x28=0x8000056c
        7635000	       762	00000000	00000013	addi	x0,x0,0	  x0:0x00000000
        7645000	       763	8000055c	00000013	addi	x0,x0,0	  x0:0x00000000
        7655000	       764	80000560	01000fef	jal	x31,80000560	 x31=0x80000560
        7665000	       765	00000000	00000013	addi	x0,x0,0	  x0:0x00000000
        7675000	       766	8000056c	00000013	addi	x0,x0,0	  x0:0x00000000
        7685000	       767	80000570	ff9ff0ef	jal	x1,80000570	  x1=0x80000570
        7695000	       768	00000000	00000013	addi	x0,x0,0	  x0:0x00000000
        7705000	       769	80000564	00000013	addi	x0,x0,0	  x0:0x00000000
        7715000	       770	80000568	01c00eef	jal	x29,80000568	 x29=0x80000568
        7725000	       771	00000000	00000013	addi	x0,x0,0	  x0:0x00000000
        7735000	       772	80000580	00000013	addi	x0,x0,0	  x0:0x00000000
        7745000	       773	80000584	fbdff0ef	jal	x1,80000584	  x1=0x80000584
        7755000	       774	00000000	00000013	addi	x0,x0,0	  x0:0x00000000
        7765000	       775	8000053c	00000013	addi	x0,x0,0	  x0:0x00000000
        7775000	       776	80000540	0240026f	jal	x4,80000540	  x4=0x80000540
        7785000	       777	00000000	00000013	addi	x0,x0,0	  x0:0x00000000
        7795000	       778	80000560	00000013	addi	x0,x0,0	  x0:0x00000000
        7805000	       779	80000564	fedff7ef	jal	x15,80000564	 x15=0x80000564
        7815000	       780	00000000	00000013	addi	x0,x0,0	  x0:0x00000000
        7825000	       781	8000054c	00000013	addi	x0,x0,0	  x0:0x00000000
        7835000	       782	80000550	00c003ef	jal	x7,80000550	  x7=0x80000550
        7845000	       783	00000000	00000013	addi	x0,x0,0	  x0:0x00000000
        7855000	       784	80000558	00000013	addi	x0,x0,0	  x0:0x00000000
        7865000	       785	8000055c	ff9ff16f	jal	x2,8000055c	  x2=0x8000055c
        7875000	       786	00000000	00000013	addi	x0,x0,0	  x0:0x00000000
        7885000	       787	80000550	00000013	addi	x0,x0,0	  x0:0x00000000
        7895000	       788	80000554	020000ef	jal	x1,80000554	  x1=0x80000554
        7905000	       789	00000000	00000013	addi	x0,x0,0	  x0:0x00000000
        7915000	       790	80000570	00000013	addi	x0,x0,0	  x0:0x00000000
        7925000	       791	80000574	008000ef	jal	x1,80000574	  x1=0x80000574
        7935000	       792	00000000	00000013	addi	x0,x0,0	  x0:0x00000000
        7945000	       793	80000578	00000013	addi	x0,x0,0	  x0:0x00000000
        7955000	       794	8000057c	fc9ff0ef	jal	x1,8000057c	  x1=0x8000057c
        7965000	       795	00000000	00000013	addi	x0,x0,0	  x0:0x00000000
        7975000	       796	80000540	00000013	addi	x0,x0,0	  x0:0x00000000
        7985000	       797	80000544	048000ef	jal	x1,80000544	  x1=0x80000544
        7995000	       798	00000000	00000013	addi	x0,x0,0	  x0:0x00000000
        8005000	       799	80000588	00000013	addi	x0,x0,0	  x0:0x00000000
        8015000	       800	8000058c	00b61913	slli	x18,x12,0xb	 x12:0x80000398 x18=0x001cc000
        8025000	       801	80000590	01800d6f	jal	x26,80000590	 x26=0x80000590
        8035000	       802	00000000	00000013	addi	x0,x0,0	  x0:0x00000000
        8045000	       803	800005a4	00000013	addi	x0,x0,0	  x0:0x00000000
        8055000	       804	800005a8	03c000ef	jal	x1,800005a8	  x1=0x800005a8
        8065000	       805	00000000	00000013	addi	x0,x0,0	  x0:0x00000000
        8075000	       806	800005e0	00000013	addi	x0,x0,0	  x0:0x00000000
        8085000	       807	800005e4	fe1ff0ef	jal	x1,800005e4	  x1=0x800005e4
        8095000	       808	00000000	00000013	addi	x0,x0,0	  x0:0x00000000
        8105000	       809	800005c0	00000013	addi	x0,x0,0	  x0:0x00000000
        8115000	       810	800005c4	fe1fff6f	jal	x30,800005c4	 x30=0x800005c4
        8125000	       811	00000000	00000013	addi	x0,x0,0	  x0:0x00000000
        8135000	       812	800005a0	00000013	addi	x0,x0,0	  x0:0x00000000
        8145000	       813	800005a4	044000ef	jal	x1,800005a4	  x1=0x800005a4
        8155000	       814	00000000	00000013	addi	x0,x0,0	  x0:0x00000000
        8165000	       815	800005e4	00000013	addi	x0,x0,0	  x0:0x00000000
        8175000	       816	800005e8	ff9ff0ef	jal	x1,800005e8	  x1=0x800005e8
        8185000	       817	00000000	00000013	addi	x0,x0,0	  x0:0x00000000
        8195000	       818	800005dc	00000013	addi	x0,x0,0	  x0:0x00000000
        8205000	       819	800005e0	ff1ff0ef	jal	x1,800005e0	  x1=0x800005e0
        8215000	       820	00000000	00000013	addi	x0,x0,0	  x0:0x00000000
        8225000	       821	800005cc	00000013	addi	x0,x0,0	  x0:0x00000000
        8235000	       822	800005d0	ffdff0ef	jal	x1,800005d0	  x1=0x800005d0
        8245000	       823	00000000	00000013	addi	x0,x0,0	  x0:0x00000000
        8255000	       824	800005c8	00000013	addi	x0,x0,0	  x0:0x00000000
        8265000	       825	800005cc	fcdff16f	jal	x2,800005cc	  x2=0x800005cc
        8275000	       826	00000000	00000013	addi	x0,x0,0	  x0:0x00000000
        8285000	       827	80000594	00000013	addi	x0,x0,0	  x0:0x00000000
        8295000	       828	80000598	04400aef	jal	x21,80000598	 x21=0x80000598
        8305000	       829	00000000	00000013	addi	x0,x0,0	  x0:0x00000000
        8315000	       830	800005d8	00000013	addi	x0,x0,0	  x0:0x00000000
        8325000	       831	800005dc	ff9ff9ef	jal	x19,800005dc	 x19=0x800005dc
        8335000	       832	00000000	00000013	addi	x0,x0,0	  x0:0x00000000
        8345000	       833	800005d0	00000013	addi	x0,x0,0	  x0:0x00000000
        8355000	       834	800005d4	fd9ff0ef	jal	x1,800005d4	  x1=0x800005d4
        8365000	       835	00000000	00000013	addi	x0,x0,0	  x0:0x00000000
        8375000	       836	800005a8	00000013	addi	x0,x0,0	  x0:0x00000000
        8385000	       837	800005ac	010000ef	jal	x1,800005ac	  x1=0x800005ac
        8395000	       838	00000000	00000013	addi	x0,x0,0	  x0:0x00000000
        8405000	       839	800005b8	00000013	addi	x0,x0,0	  x0:0x00000000
        8415000	       840	800005bc	fe5ff0ef	jal	x1,800005bc	  x1=0x800005bc
        8425000	       841	00000000	00000013	addi	x0,x0,0	  x0:0x00000000
        8435000	       842	8000059c	00000013	addi	x0,x0,0	  x0:0x00000000
        8445000	       843	800005a0	014001ef	jal	x3,800005a0	  x3=0x800005a0
        8455000	       844	00000000	00000013	addi	x0,x0,0	  x0:0x00000000
        8465000	       845	800005b0	00000013	addi	x0,x0,0	  x0:0x00000000
        8475000	       846	800005b4	fe9ff0ef	jal	x1,800005b4	  x1=0x800005b4
        8485000	       847	00000000	00000013	addi	x0,x0,0	  x0:0x00000000
        8495000	       848	80000598	00000013	addi	x0,x0,0	  x0:0x00000000
        8505000	       849	8000059c	0140026f	jal	x4,8000059c	  x4=0x8000059c
        8515000	       850	00000000	00000013	addi	x0,x0,0	  x0:0x00000000
        8525000	       851	800005ac	00000013	addi	x0,x0,0	  x0:0x00000000
        8535000	       852	800005b0	01000b6f	jal	x22,800005b0	 x22=0x800005b0
        8545000	       853	00000000	00000013	addi	x0,x0,0	  x0:0x00000000
        8555000	       854	800005bc	00000013	addi	x0,x0,0	  x0:0x00000000
        8565000	       855	800005c0	fd5ff66f	jal	x12,800005c0	 x12=0x800005c0
        8575000	       856	00000000	00000013	addi	x0,x0,0	  x0:0x00000000
        8585000	       857	80000590	00000013	addi	x0,x0,0	  x0:0x00000000
        8595000	       858	80000594	0440066f	jal	x12,80000594	 x12=0x80000594
        8605000	       859	00000000	00000013	addi	x0,x0,0	  x0:0x00000000
        8615000	       860	800005d4	00000013	addi	x0,x0,0	  x0:0x00000000
        8625000	       861	800005d8	ff1ff26f	jal	x4,800005d8	  x4=0x800005d8
        8635000	       862	00000000	00000013	addi	x0,x0,0	  x0:0x00000000
        8645000	       863	800005c4	00000013	addi	x0,x0,0	  x0:0x00000000
        8655000	       864	800005c8	ff1ff0ef	jal	x1,800005c8	  x1=0x800005c8
        8665000	       865	00000000	00000013	addi	x0,x0,0	  x0:0x00000000
        8675000	       866	800005b4	00000013	addi	x0,x0,0	  x0:0x00000000
        8685000	       867	800005b8	034000ef	jal	x1,800005b8	  x1=0x800005b8
        8695000	       868	00000000	00000013	addi	x0,x0,0	  x0:0x00000000
        8705000	       869	800005e8	00000013	addi	x0,x0,0	  x0:0x00000000
        8715000	       870	800005ec	976334b7	lui	x9,0x97633	  x9=0x97633000
        8725000	       871	800005f0	04800d6f	jal	x26,800005f0	 x26=0x800005f0
        8735000	       872	00000000	00000013	addi	x0,x0,0	  x0:0x00000000
        8745000	       873	80000634	00000013	addi	x0,x0,0	  x0:0x00000000
        8755000	       874	80000638	024000ef	jal	x1,80000638	  x1=0x80000638
        8765000	       875	00000000	00000013	addi	x0,x0,0	  x0:0x00000000
        8775000	       876	80000658	00000013	addi	x0,x0,0	  x0:0x00000000
        8785000	       877	8000065c	ff9ff3ef	jal	x7,8000065c	  x7=0x8000065c
        8795000	       878	00000000	00000013	addi	x0,x0,0	  x0:0x00000000
        8805000	       879	80000650	00000013	addi	x0,x0,0	  x0:0x00000000
        8815000	       880	80000654	fa9ff0ef	jal	x1,80000654	  x1=0x80000654
        8825000	       881	00000000	00000013	addi	x0,x0,0	  x0:0x00000000
        8835000	       882	800005f8	00000013	addi	x0,x0,0	  x0:0x00000000
        8845000	       883	800005fc	028000ef	jal	x1,800005fc	  x1=0x800005fc
        8855000	       884	00000000	00000013	addi	x0,x0,0	  x0:0x00000000
        8865000	       885	80000620	00000013	addi	x0,x0,0	  x0:0x00000000
        8875000	       886	80000624	fe1ff2ef	jal	x5,80000624	  x5=0x80000624
        8885000	       887	00000000	00000013	addi	x0,x0,0	  x0:0x00000000
        8895000	       888	80000600	00000013	addi	x0,x0,0	  x0:0x00000000
        8905000	       889	80000604	00c004ef	jal	x9,80000604	  x9=0x80000604
        8915000	       890	00000000	00000013	addi	x0,x0,0	  x0:0x00000000
        8925000	       891	8000060c	00000013	addi	x0,x0,0	  x0:0x00000000
        8935000	       892	80000610	020000ef	jal	x1,80000610	  x1=0x80000610
        8945000	       893	00000000	00000013	addi	x0,x0,0	  x0:0x00000000
        8955000	       894	8000062c	00000013	addi	x0,x0,0	  x0:0x00000000
        8965000	       895	80000630	fddff0ef	jal	x1,80000630	  x1=0x80000630
        8975000	       896	00000000	00000013	addi	x0,x0,0	  x0:0x00000000
        8985000	       897	80000608	00000013	addi	x0,x0,0	  x0:0x00000000
        8995000	       898	8000060c	fedff0ef	jal	x1,8000060c	  x1=0x8000060c
        9005000	       899	00000000	00000013	addi	x0,x0,0	  x0:0x00000000
        9015000	       900	800005f4	00000013	addi	x0,x0,0	  x0:0x00000000
        9025000	       901	800005f8	03000eef	jal	x29,800005f8	 x29=0x800005f8
        9035000	       902	00000000	00000013	addi	x0,x0,0	  x0:0x00000000
        9045000	       903	80000624	00000013	addi	x0,x0,0	  x0:0x00000000
        9055000	       904	80000628	ff5ff0ef	jal	x1,80000628	  x1=0x80000628
        9065000	       905	00000000	00000013	addi	x0,x0,0	  x0:0x00000000
        9075000	       906	80000618	00000013	addi	x0,x0,0	  x0:0x00000000
        9085000	       907	8000061c	ff9ff0ef	jal	x1,8000061c	  x1=0x8000061c
        9095000	       908	00000000	00000013	addi	x0,x0,0	  x0:0x00000000
        9105000	       909	80000610	00000013	addi	x0,x0,0	  x0:0x00000000
        9115000	       910	80000614	004002ef	jal	x5,80000614	  x5=0x80000614
        9125000	       911	00000000	00000013	addi	x0,x0,0	  x0:0x00000000
        9135000	       912	80000614	00000013	addi	x0,x0,0	  x0:0x00000000
        9145000	       913	80000618	02c000ef	jal	x1,80000618	  x1=0x80000618
        9155000	       914	00000000	00000013	addi	x0,x0,0	  x0:0x00000000
        9165000	       915	80000640	00000013	addi	x0,x0,0	  x0:0x00000000
        9175000	       916	80000644	01c000ef	jal	x1,80000644	  x1=0x80000644
        9185000	       917	00000000	00000013	addi	x0,x0,0	  x0:0x00000000
        9195000	       918	8000065c	00000013	addi	x0,x0,0	  x0:0x00000000
        9205000	       919	80000660	fd5ff96f	jal	x18,80000660	 x18=0x80000660
        9215000	       920	00000000	00000013	addi	x0,x0,0	  x0:0x00000000
        9225000	       921	80000630	00000013	addi	x0,x0,0	  x0:0x00000000
        9235000	       922	80000634	01800cef	jal	x25,80000634	 x25=0x80000634
        9245000	       923	00000000	00000013	addi	x0,x0,0	  x0:0x00000000
        9255000	       924	80000648	00000013	addi	x0,x0,0	  x0:0x00000000
        9265000	       925	8000064c	ff1ffaef	jal	x21,8000064c	 x21=0x8000064c
        9275000	       926	00000000	00000013	addi	x0,x0,0	  x0:0x00000000
        9285000	       927	80000638	00000013	addi	x0,x0,0	  x0:0x00000000
        9295000	       928	8000063c	fe5ff0ef	jal	x1,8000063c	  x1=0x8000063c
        9305000	       929	00000000	00000013	addi	x0,x0,0	  x0:0x00000000
        9315000	       930	8000061c	00000013	addi	x0,x0,0	  x0:0x00000000
        9325000	       931	80000620	030000ef	jal	x1,80000620	  x1=0x80000620
        9335000	       932	00000000	00000013	addi	x0,x0,0	  x0:0x00000000
        9345000	       933	8000064c	00000013	addi	x0,x0,0	  x0:0x00000000
        9355000	       934	80000650	fddff0ef	jal	x1,80000650	  x1=0x80000650
        9365000	       935	00000000	00000013	addi	x0,x0,0	  x0:0x00000000
        9375000	       936	80000628	00000013	addi	x0,x0,0	  x0:0x00000000
        9385000	       937	8000062c	014000ef	jal	x1,8000062c	  x1=0x8000062c
        9395000	       938	00000000	00000013	addi	x0,x0,0	  x0:0x00000000
        9405000	       939	8000063c	00000013	addi	x0,x0,0	  x0:0x00000000
        9415000	       940	80000640	018000ef	jal	x1,80000640	  x1=0x80000640
        9425000	       941	00000000	00000013	addi	x0,x0,0	  x0:0x00000000
        9435000	       942	80000654	00000013	addi	x0,x0,0	  x0:0x00000000
        9445000	       943	80000658	fb1ff0ef	jal	x1,80000658	  x1=0x80000658
        9455000	       944	00000000	00000013	addi	x0,x0,0	  x0:0x00000000
        9465000	       945	80000604	00000013	addi	x0,x0,0	  x0:0x00000000
        9475000	       946	80000608	fedffbef	jal	x23,80000608	 x23=0x80000608
        9485000	       947	00000000	00000013	addi	x0,x0,0	  x0:0x00000000
        9495000	       948	800005f0	00000013	addi	x0,x0,0	  x0:0x00000000
        9505000	       949	800005f4	054002ef	jal	x5,800005f4	  x5=0x800005f4
        9515000	       950	00000000	00000013	addi	x0,x0,0	  x0:0x00000000
        9525000	       951	80000644	00000013	addi	x0,x0,0	  x0:0x00000000
        9535000	       952	80000648	01c000ef	jal	x1,80000648	  x1=0x80000648
        9545000	       953	00000000	00000013	addi	x0,x0,0	  x0:0x00000000
        9555000	       954	80000660	00000013	addi	x0,x0,0	  x0:0x00000000
        9565000	       955	80000664	f9dff0ef	jal	x1,80000664	  x1=0x80000664
        9575000	       956	00000000	00000013	addi	x0,x0,0	  x0:0x00000000
        9585000	       957	800005fc	00000013	addi	x0,x0,0	  x0:0x00000000
        9595000	       958	80000600	06800bef	jal	x23,80000600	 x23=0x80000600
        9605000	       959	00000000	00000013	addi	x0,x0,0	  x0:0x00000000
        9615000	       960	80000664	00000013	addi	x0,x0,0	  x0:0x00000000
        9625000	       961	80000668	32372f93	slti	x31,x14,803	 x14:0x800003c0 x31=0x00000001
        9635000	       962	8000066c	00400d6f	jal	x26,8000066c	 x26=0x8000066c
        9645000	       963	00000000	00000013	addi	x0,x0,0	  x0:0x00000000
        9655000	       964	8000066c	00000013	addi	x0,x0,0	  x0:0x00000000
        9665000	       965	80000670	010008ef	jal	x17,80000670	 x17=0x80000670
        9675000	       966	00000000	00000013	addi	x0,x0,0	  x0:0x00000000
        9685000	       967	8000067c	00000013	addi	x0,x0,0	  x0:0x00000000
        9695000	       968	80000680	0100046f	jal	x8,80000680	  x8=0x80000680
        9705000	       969	00000000	00000013	addi	x0,x0,0	  x0:0x00000000
        9715000	       970	8000068c	00000013	addi	x0,x0,0	  x0:0x00000000
        9725000	       971	80000690	fe5ffa6f	jal	x20,80000690	 x20=0x80000690
        9735000	       972	00000000	00000013	addi	x0,x0,0	  x0:0x00000000
        9745000	       973	80000670	00000013	addi	x0,x0,0	  x0:0x00000000
        9755000	       974	80000674	020000ef	jal	x1,80000674	  x1=0x80000674
        9765000	       975	00000000	00000013	addi	x0,x0,0	  x0:0x00000000
        9775000	       976	80000690	00000013	addi	x0,x0,0	  x0:0x00000000
        9785000	       977	80000694	01400c6f	jal	x24,80000694	 x24=0x80000694
        9795000	       978	00000000	00000013	addi	x0,x0,0	  x0:0x00000000
        9805000	       979	800006a4	00000013	addi	x0,x0,0	  x0:0x00000000
        9815000	       980	800006a8	fd1ff2ef	jal	x5,800006a8	  x5=0x800006a8
        9825000	       981	00000000	00000013	addi	x0,x0,0	  x0:0x00000000
        9835000	       982	80000674	00000013	addi	x0,x0,0	  x0:0x00000000
        9845000	       983	80000678	020000ef	jal	x1,80000678	  x1=0x80000678
        9855000	       984	00000000	00000013	addi	x0,x0,0	  x0:0x00000000
        9865000	       985	80000694	00000013	addi	x0,x0,0	  x0:0x00000000
        9875000	       986	80000698	fedff0ef	jal	x1,80000698	  x1=0x80000698
        9885000	       987	00000000	00000013	addi	x0,x0,0	  x0:0x00000000
        9895000	       988	80000680	00000013	addi	x0,x0,0	  x0:0x00000000
        9905000	       989	80000684	020000ef	jal	x1,80000684	  x1=0x80000684
        9915000	       990	00000000	00000013	addi	x0,x0,0	  x0:0x00000000
        9925000	       991	800006a0	00000013	addi	x0,x0,0	  x0:0x00000000
        9935000	       992	800006a4	fe9ff0ef	jal	x1,800006a4	  x1=0x800006a4
        9945000	       993	00000000	00000013	addi	x0,x0,0	  x0:0x00000000
        9955000	       994	80000688	00000013	addi	x0,x0,0	  x0:0x00000000
        9965000	       995	8000068c	02c000ef	jal	x1,8000068c	  x1=0x8000068c
        9975000	       996	00000000	00000013	addi	x0,x0,0	  x0:0x00000000
        9985000	       997	800006b4	00000013	addi	x0,x0,0	  x0:0x00000000
        9995000	       998	800006b8	ff5ff0ef	jal	x1,800006b8	  x1=0x800006b8
       10005000	       999	00000000	00000013	addi	x0,x0,0	  x0:0x00000000
       10015000	      1000	800006a8	00000013	addi	x0,x0,0	  x0:0x00000000
       10025000	      1001	800006ac	fddff26f	jal	x4,800006ac	  x4=0x800006ac
       10035000	      1002	00000000	00000013	addi	x0,x0,0	  x0:0x00000000
       10045000	      1003	80000684	00000013	addi	x0,x0,0	  x0:0x00000000
       10055000	      1004	80000688	02c000ef	jal	x1,80000688	  x1=0x80000688
       10065000	      1005	00000000	00000013	addi	x0,x0,0	  x0:0x00000000
       10075000	      1006	800006b0	00000013	addi	x0,x0,0	  x0:0x00000000
       10085000	      1007	800006b4	fe9ff3ef	jal	x7,800006b4	  x7=0x800006b4
       10095000	      1008	00000000	00000013	addi	x0,x0,0	  x0:0x00000000
       10105000	      1009	80000698	00000013	addi	x0,x0,0	  x0:0x00000000
       10115000	      1010	8000069c	fe1ff0ef	jal	x1,8000069c	  x1=0x8000069c
       10125000	      1011	00000000	00000013	addi	x0,x0,0	  x0:0x00000000
       10135000	      1012	80000678	00000013	addi	x0,x0,0	  x0:0x00000000
       10145000	      1013	8000067c	024000ef	jal	x1,8000067c	  x1=0x8000067c
       10155000	      1014	00000000	00000013	addi	x0,x0,0	  x0:0x00000000
       10165000	      1015	8000069c	00000013	addi	x0,x0,0	  x0:0x00000000
       10175000	      1016	800006a0	01000cef	jal	x25,800006a0	 x25=0x800006a0
       10185000	      1017	00000000	00000013	addi	x0,x0,0	  x0:0x00000000
       10195000	      1018	800006ac	00000013	addi	x0,x0,0	  x0:0x00000000
       10205000	      1019	800006b0	00c002ef	jal	x5,800006b0	  x5=0x800006b0
       10215000	      1020	00000000	00000013	addi	x0,x0,0	  x0:0x00000000
       10225000	      1021	800006b8	00000013	addi	x0,x0,0	  x0:0x00000000
       10235000	      1022	800006bc	00f69d13	slli	x26,x13,0xf	 x13:0x3e6eded7 x26=0x6f6b8000
       10245000	      1023	800006c0	02400d6f	jal	x26,800006c0	 x26=0x800006c0
       10255000	      1024	00000000	00000013	addi	x0,x0,0	  x0:0x00000000
       10265000	      1025	800006e0	00000013	addi	x0,x0,0	  x0:0x00000000
       10275000	      1026	800006e4	008000ef	jal	x1,800006e4	  x1=0x800006e4
       10285000	      1027	00000000	00000013	addi	x0,x0,0	  x0:0x00000000
       10295000	      1028	800006e8	00000013	addi	x0,x0,0	  x0:0x00000000
       10305000	      1029	800006ec	ff1ff0ef	jal	x1,800006ec	  x1=0x800006ec
       10315000	      1030	00000000	00000013	addi	x0,x0,0	  x0:0x00000000
       10325000	      1031	800006d8	00000013	addi	x0,x0,0	  x0:0x00000000
       10335000	      1032	800006dc	fe9ff0ef	jal	x1,800006dc	  x1=0x800006dc
       10345000	      1033	00000000	00000013	addi	x0,x0,0	  x0:0x00000000
       10355000	      1034	800006c0	00000013	addi	x0,x0,0	  x0:0x00000000
       10365000	      1035	800006c4	014000ef	jal	x1,800006c4	  x1=0x800006c4
       10375000	      1036	00000000	00000013	addi	x0,x0,0	  x0:0x00000000
       10385000	      1037	800006d4	00000013	addi	x0,x0,0	  x0:0x00000000
       10395000	      1038	800006d8	ff5ff0ef	jal	x1,800006d8	  x1=0x800006d8
       10405000	      1039	00000000	00000013	addi	x0,x0,0	  x0:0x00000000
       10415000	      1040	800006c8	00000013	addi	x0,x0,0	  x0:0x00000000
       10425000	      1041	800006cc	004000ef	jal	x1,800006cc	  x1=0x800006cc
       10435000	      1042	00000000	00000013	addi	x0,x0,0	  x0:0x00000000
       10445000	      1043	800006cc	00000013	addi	x0,x0,0	  x0:0x00000000
       10455000	      1044	800006d0	004000ef	jal	x1,800006d0	  x1=0x800006d0
       10465000	      1045	00000000	00000013	addi	x0,x0,0	  x0:0x00000000
       10475000	      1046	800006d0	00000013	addi	x0,x0,0	  x0:0x00000000
       10485000	      1047	800006d4	01c00cef	jal	x25,800006d4	 x25=0x800006d4
       10495000	      1048	00000000	00000013	addi	x0,x0,0	  x0:0x00000000
       10505000	      1049	800006ec	00000013	addi	x0,x0,0	  x0:0x00000000
       10515000	      1050	800006f0	ff1ff0ef	jal	x1,800006f0	  x1=0x800006f0
       10525000	      1051	00000000	00000013	addi	x0,x0,0	  x0:0x00000000
       10535000	      1052	800006dc	00000013	addi	x0,x0,0	  x0:0x00000000
       10545000	      1053	800006e0	008000ef	jal	x1,800006e0	  x1=0x800006e0
       10555000	      1054	00000000	00000013	addi	x0,x0,0	  x0:0x00000000
       10565000	      1055	800006e4	00000013	addi	x0,x0,0	  x0:0x00000000
       10575000	      1056	800006e8	fe1ff0ef	jal	x1,800006e8	  x1=0x800006e8
       10585000	      1057	00000000	00000013	addi	x0,x0,0	  x0:0x00000000
       10595000	      1058	800006c4	00000013	addi	x0,x0,0	  x0:0x00000000
       10605000	      1059	800006c8	02c008ef	jal	x17,800006c8	 x17=0x800006c8
       10615000	      1060	00000000	00000013	addi	x0,x0,0	  x0:0x00000000
       10625000	      1061	800006f0	00000013	addi	x0,x0,0	  x0:0x00000000
       10635000	      1062	800006f4	693eef93	ori	x31,x29,1683	 x29:0x800005f8 x31=0x800007fb
       10645000	      1063	800006f8	02800d6f	jal	x26,800006f8	 x26=0x800006f8
       10655000	      1064	00000000	00000013	addi	x0,x0,0	  x0:0x00000000
       10665000	      1065	8000071c	00000013	addi	x0,x0,0	  x0:0x00000000
       10675000	      1066	80000720	0100096f	jal	x18,80000720	 x18=0x80000720
       10685000	      1067	00000000	00000013	addi	x0,x0,0	  x0:0x00000000
       10695000	      1068	8000072c	00000013	addi	x0,x0,0	  x0:0x00000000
       10705000	      1069	80000730	fe5ff0ef	jal	x1,80000730	  x1=0x80000730
       10715000	      1070	00000000	00000013	addi	x0,x0,0	  x0:0x00000000
       10725000	      1071	80000710	00000013	addi	x0,x0,0	  x0:0x00000000
       10735000	      1072	80000714	ffdffa6f	jal	x20,80000714	 x20=0x80000714
       10745000	      1073	00000000	00000013	addi	x0,x0,0	  x0:0x00000000
       10755000	      1074	8000070c	00000013	addi	x0,x0,0	  x0:0x00000000
       10765000	      1075	80000710	01c000ef	jal	x1,80000710	  x1=0x80000710
       10775000	      1076	00000000	00000013	addi	x0,x0,0	  x0:0x00000000
       10785000	      1077	80000728	00000013	addi	x0,x0,0	  x0:0x00000000
       10795000	      1078	8000072c	ffdffc6f	jal	x24,8000072c	 x24=0x8000072c
       10805000	      1079	00000000	00000013	addi	x0,x0,0	  x0:0x00000000
       10815000	      1080	80000724	00000013	addi	x0,x0,0	  x0:0x00000000
       10825000	      1081	80000728	ff1ff0ef	jal	x1,80000728	  x1=0x80000728
       10835000	      1082	00000000	00000013	addi	x0,x0,0	  x0:0x00000000
       10845000	      1083	80000714	00000013	addi	x0,x0,0	  x0:0x00000000
       10855000	      1084	80000718	fe5ff0ef	jal	x1,80000718	  x1=0x80000718
       10865000	      1085	00000000	00000013	addi	x0,x0,0	  x0:0x00000000
       10875000	      1086	800006f8	00000013	addi	x0,x0,0	  x0:0x00000000
       10885000	      1087	800006fc	010000ef	jal	x1,800006fc	  x1=0x800006fc
       10895000	      1088	00000000	00000013	addi	x0,x0,0	  x0:0x00000000
       10905000	      1089	80000708	00000013	addi	x0,x0,0	  x0:0x00000000
       10915000	      1090	8000070c	018008ef	jal	x17,8000070c	 x17=0x8000070c
       10925000	      1091	00000000	00000013	addi	x0,x0,0	  x0:0x00000000
       10935000	      1092	80000720	00000013	addi	x0,x0,0	  x0:0x00000000
       10945000	      1093	80000724	ff9ff0ef	jal	x1,80000724	  x1=0x80000724
       10955000	      1094	00000000	00000013	addi	x0,x0,0	  x0:0x00000000
       10965000	      1095	80000718	00000013	addi	x0,x0,0	  x0:0x00000000
       10975000	      1096	8000071c	fe9ff0ef	jal	x1,8000071c	  x1=0x8000071c
       10985000	      1097	00000000	00000013	addi	x0,x0,0	  x0:0x00000000
       10995000	      1098	80000700	00000013	addi	x0,x0,0	  x0:0x00000000
       11005000	      1099	80000704	0040076f	jal	x14,80000704	 x14=0x80000704
       11015000	      1100	00000000	00000013	addi	x0,x0,0	  x0:0x00000000
       11025000	      1101	80000704	00000013	addi	x0,x0,0	  x0:0x00000000
       11035000	      1102	80000708	ff9ffc6f	jal	x24,80000708	 x24=0x80000708
       11045000	      1103	00000000	00000013	addi	x0,x0,0	  x0:0x00000000
       11055000	      1104	800006fc	00000013	addi	x0,x0,0	  x0:0x00000000
       11065000	      1105	80000700	0340076f	jal	x14,80000700	 x14=0x80000700
       11075000	      1106	00000000	00000013	addi	x0,x0,0	  x0:0x00000000
       11085000	      1107	80000730	00000013	addi	x0,x0,0	  x0:0x00000000
       11095000	      1108	80000734	0175cb33	xor	x22,x11,x23	 x11:0x8000052c x23:0x80000600 x22=0x0000032c
       11105000	      1109	80000738	00800d6f	jal	x26,80000738	 x26=0x80000738
       11115000	      1110	00000000	00000013	addi	x0,x0,0	  x0:0x00000000
       11125000	      1111	8000073c	00000013	addi	x0,x0,0	  x0:0x00000000
       11135000	      1112	80000740	0240026f	jal	x4,80000740	  x4=0x80000740
       11145000	      1113	00000000	00000013	addi	x0,x0,0	  x0:0x00000000
       11155000	      1114	80000760	00000013	addi	x0,x0,0	  x0:0x00000000
       11165000	      1115	80000764	fe9ff0ef	jal	x1,80000764	  x1=0x80000764
       11175000	      1116	00000000	00000013	addi	x0,x0,0	  x0:0x00000000
       11185000	      1117	80000748	00000013	addi	x0,x0,0	  x0:0x00000000
       11195000	      1118	8000074c	014000ef	jal	x1,8000074c	  x1=0x8000074c
       11205000	      1119	00000000	00000013	addi	x0,x0,0	  x0:0x00000000
       11215000	      1120	8000075c	00000013	addi	x0,x0,0	  x0:0x00000000
       11225000	      1121	80000760	00800b6f	jal	x22,80000760	 x22=0x80000760
       11235000	      1122	00000000	00000013	addi	x0,x0,0	  x0:0x00000000
       11245000	      1123	80000764	00000013	addi	x0,x0,0	  x0:0x00000000
       11255000	      1124	80000768	fedff0ef	jal	x1,80000768	  x1=0x80000768
       11265000	      1125	00000000	00000013	addi	x0,x0,0	  x0:0x00000000
       11275000	      1126	80000750	00000013	addi	x0,x0,0	  x0:0x00000000
       11285000	      1127	80000754	018002ef	jal	x5,80000754	  x5=0x80000754
       11295000	      1128	00000000	00000013	addi	x0,x0,0	  x0:0x00000000
       11305000	      1129	80000768	00000013	addi	x0,x0,0	  x0:0x00000000
       11315000	      1130	8000076c	fedffd6f	jal	x26,8000076c	 x26=0x8000076c
       11325000	      1131	00000000	00000013	addi	x0,x0,0	  x0:0x00000000
       11335000	      1132	80000754	00000013	addi	x0,x0,0	  x0:0x00000000
       11345000	      1133	80000758	ff1fff6f	jal	x30,80000758	 x30=0x80000758
       11355000	      1134	00000000	00000013	addi	x0,x0,0	  x0:0x00000000
       11365000	      1135	80000744	00000013	addi	x0,x0,0	  x0:0x00000000
       11375000	      1136	80000748	ff5fff6f	jal	x30,80000748	 x30=0x80000748
       11385000	      1137	00000000	00000013	addi	x0,x0,0	  x0:0x00000000
       11395000	      1138	80000738	00000013	addi	x0,x0,0	  x0:0x00000000
       11405000	      1139	8000073c	008002ef	jal	x5,8000073c	  x5=0x8000073c
       11415000	      1140	00000000	00000013	addi	x0,x0,0	  x0:0x00000000
       11425000	      1141	80000740	00000013	addi	x0,x0,0	  x0:0x00000000
       11435000	      1142	80000744	018000ef	jal	x1,80000744	  x1=0x80000744
       11445000	      1143	00000000	00000013	addi	x0,x0,0	  x0:0x00000000
       11455000	      1144	80000758	00000013	addi	x0,x0,0	  x0:0x00000000
       11465000	      1145	8000075c	ff5ff0ef	jal	x1,8000075c	  x1=0x8000075c
       11475000	      1146	00000000	00000013	addi	x0,x0,0	  x0:0x00000000
       11485000	      1147	8000074c	00000013	addi	x0,x0,0	  x0:0x00000000
       11495000	      1148	80000750	020002ef	jal	x5,80000750	  x5=0x80000750
       11505000	      1149	00000000	00000013	addi	x0,x0,0	  x0:0x00000000
       11515000	      1150	8000076c	00000013	addi	x0,x0,0	  x0:0x00000000
       11525000	      1151	80000770	01646133	or	x2,x8,x22	  x8:0x80000680 x22:0x80000760  x2=0x800007e0
       11535000	      1152	80000774	02400d6f	jal	x26,80000774	 x26=0x80000774
       11545000	      1153	00000000	00000013	addi	x0,x0,0	  x0:0x00000000
       11555000	      1154	80000794	00000013	addi	x0,x0,0	  x0:0x00000000
       11565000	      1155	80000798	008000ef	jal	x1,80000798	  x1=0x80000798
       11575000	      1156	00000000	00000013	addi	x0,x0,0	  x0:0x00000000
       11585000	      1157	8000079c	00000013	addi	x0,x0,0	  x0:0x00000000
       11595000	      1158	800007a0	fd9ff16f	jal	x2,800007a0	  x2=0x800007a0
       11605000	      1159	00000000	00000013	addi	x0,x0,0	  x0:0x00000000
       11615000	      1160	80000774	00000013	addi	x0,x0,0	  x0:0x00000000
       11625000	      1161	80000778	008000ef	jal	x1,80000778	  x1=0x80000778
       11635000	      1162	00000000	00000013	addi	x0,x0,0	  x0:0x00000000
       11645000	      1163	8000077c	00000013	addi	x0,x0,0	  x0:0x00000000
       11655000	      1164	80000780	008000ef	jal	x1,80000780	  x1=0x80000780
       11665000	      1165	00000000	00000013	addi	x0,x0,0	  x0:0x00000000
       11675000	      1166	80000784	00000013	addi	x0,x0,0	  x0:0x00000000
       11685000	      1167	80000788	008007ef	jal	x15,80000788	 x15=0x80000788
       11695000	      1168	00000000	00000013	addi	x0,x0,0	  x0:0x00000000
       11705000	      1169	8000078c	00000013	addi	x0,x0,0	  x0:0x00000000
       11715000	      1170	80000790	004000ef	jal	x1,80000790	  x1=0x80000790
       11725000	      1171	00000000	00000013	addi	x0,x0,0	  x0:0x00000000
       11735000	      1172	80000790	00000013	addi	x0,x0,0	  x0:0x00000000
       11745000	      1173	80000794	ff1ff0ef	jal	x1,80000794	  x1=0x80000794
       11755000	      1174	00000000	00000013	addi	x0,x0,0	  x0:0x00000000
       11765000	      1175	80000780	00000013	addi	x0,x0,0	  x0:0x00000000
       11775000	      1176	80000784	00800b6f	jal	x22,80000784	 x22=0x80000784
       11785000	      1177	00000000	00000013	addi	x0,x0,0	  x0:0x00000000
       11795000	      1178	80000788	00000013	addi	x0,x0,0	  x0:0x00000000
       11805000	      1179	8000078c	ff1ff0ef	jal	x1,8000078c	  x1=0x8000078c
       11815000	      1180	00000000	00000013	addi	x0,x0,0	  x0:0x00000000
       11825000	      1181	80000778	00000013	addi	x0,x0,0	  x0:0x00000000
       11835000	      1182	8000077c	020000ef	jal	x1,8000077c	  x1=0x8000077c
       11845000	      1183	00000000	00000013	addi	x0,x0,0	  x0:0x00000000
       11855000	      1184	80000798	00000013	addi	x0,x0,0	  x0:0x00000000
       11865000	      1185	8000079c	008000ef	jal	x1,8000079c	  x1=0x8000079c
       11875000	      1186	00000000	00000013	addi	x0,x0,0	  x0:0x00000000
       11885000	      1187	800007a0	00000013	addi	x0,x0,0	  x0:0x00000000
       11895000	      1188	800007a4	00000013	addi	x0,x0,0	  x0:0x00000000
       11905000	      1189	800007a8	05000d6f	jal	x26,800007a8	 x26=0x800007a8
       11915000	      1190	00000000	00000013	addi	x0,x0,0	  x0:0x00000000
       11925000	      1191	800007f4	00000013	addi	x0,x0,0	  x0:0x00000000
       11935000	      1192	800007f8	ff5ff0ef	jal	x1,800007f8	  x1=0x800007f8
       11945000	      1193	00000000	00000013	addi	x0,x0,0	  x0:0x00000000
       11955000	      1194	800007e8	00000013	addi	x0,x0,0	  x0:0x00000000
       11965000	      1195	800007ec	fc5ff2ef	jal	x5,800007ec	  x5=0x800007ec
       11975000	      1196	00000000	00000013	addi	x0,x0,0	  x0:0x00000000
       11985000	      1197	800007ac	00000013	addi	x0,x0,0	  x0:0x00000000
       11995000	      1198	800007b0	054000ef	jal	x1,800007b0	  x1=0x800007b0
       12005000	      1199	00000000	00000013	addi	x0,x0,0	  x0:0x00000000
       12015000	      1200	80000800	00000013	addi	x0,x0,0	  x0:0x00000000
       12025000	      1201	80000804	fcdff0ef	jal	x1,80000804	  x1=0x80000804
       12035000	      1202	00000000	00000013	addi	x0,x0,0	  x0:0x00000000
       12045000	      1203	800007cc	00000013	addi	x0,x0,0	  x0:0x00000000
       12055000	      1204	800007d0	0140096f	jal	x18,800007d0	 x18=0x800007d0
       12065000	      1205	00000000	00000013	addi	x0,x0,0	  x0:0x00000000
       12075000	      1206	800007e0	00000013	addi	x0,x0,0	  x0:0x00000000
       12085000	      1207	800007e4	00c001ef	jal	x3,800007e4	  x3=0x800007e4
       12095000	      1208	00000000	00000013	addi	x0,x0,0	  x0:0x00000000
       12105000	      1209	800007ec	00000013	addi	x0,x0,0	  x0:0x00000000
       12115000	      1210	800007f0	fedff0ef	jal	x1,800007f0	  x1=0x800007f0
       12125000	      1211	00000000	00000013	addi	x0,x0,0	  x0:0x00000000
       12135000	      1212	800007d8	00000013	addi	x0,x0,0	  x0:0x00000000
       12145000	      1213	800007dc	ffdff0ef	jal	x1,800007dc	  x1=0x800007dc
       12155000	      1214	00000000	00000013	addi	x0,x0,0	  x0:0x00000000
       12165000	      1215	800007d4	00000013	addi	x0,x0,0	  x0:0x00000000
       12175000	      1216	800007d8	ffdff0ef	jal	x1,800007d8	  x1=0x800007d8
       12185000	      1217	00000000	00000013	addi	x0,x0,0	  x0:0x00000000
       12195000	      1218	800007d0	00000013	addi	x0,x0,0	  x0:0x00000000
       12205000	      1219	800007d4	ff5ff0ef	jal	x1,800007d4	  x1=0x800007d4
       12215000	      1220	00000000	00000013	addi	x0,x0,0	  x0:0x00000000
       12225000	      1221	800007c4	00000013	addi	x0,x0,0	  x0:0x00000000
       12235000	      1222	800007c8	004000ef	jal	x1,800007c8	  x1=0x800007c8
       12245000	      1223	00000000	00000013	addi	x0,x0,0	  x0:0x00000000
       12255000	      1224	800007c8	00000013	addi	x0,x0,0	  x0:0x00000000
       12265000	      1225	800007cc	0440016f	jal	x2,800007cc	  x2=0x800007cc
       12275000	      1226	00000000	00000013	addi	x0,x0,0	  x0:0x00000000
       12285000	      1227	8000080c	00000013	addi	x0,x0,0	  x0:0x00000000
       12295000	      1228	80000810	f9dff0ef	jal	x1,80000810	  x1=0x80000810
       12305000	      1229	00000000	00000013	addi	x0,x0,0	  x0:0x00000000
       12315000	      1230	800007a8	00000013	addi	x0,x0,0	  x0:0x00000000
       12325000	      1231	800007ac	014000ef	jal	x1,800007ac	  x1=0x800007ac
       12335000	      1232	00000000	00000013	addi	x0,x0,0	  x0:0x00000000
       12345000	      1233	800007bc	00000013	addi	x0,x0,0	  x0:0x00000000
       12355000	      1234	800007c0	048001ef	jal	x3,800007c0	  x3=0x800007c0
       12365000	      1235	00000000	00000013	addi	x0,x0,0	  x0:0x00000000
       12375000	      1236	80000804	00000013	addi	x0,x0,0	  x0:0x00000000
       12385000	      1237	80000808	fedff0ef	jal	x1,80000808	  x1=0x80000808
       12395000	      1238	00000000	00000013	addi	x0,x0,0	  x0:0x00000000
       12405000	      1239	800007f0	00000013	addi	x0,x0,0	  x0:0x00000000
       12415000	      1240	800007f4	ff5ff2ef	jal	x5,800007f4	  x5=0x800007f4
       12425000	      1241	00000000	00000013	addi	x0,x0,0	  x0:0x00000000
       12435000	      1242	800007e4	00000013	addi	x0,x0,0	  x0:0x00000000
       12445000	      1243	800007e8	fcdff0ef	jal	x1,800007e8	  x1=0x800007e8
       12455000	      1244	00000000	00000013	addi	x0,x0,0	  x0:0x00000000
       12465000	      1245	800007b0	00000013	addi	x0,x0,0	  x0:0x00000000
       12475000	      1246	800007b4	004000ef	jal	x1,800007b4	  x1=0x800007b4
       12485000	      1247	00000000	00000013	addi	x0,x0,0	  x0:0x00000000
       12495000	      1248	800007b4	00000013	addi	x0,x0,0	  x0:0x00000000
       12505000	      1249	800007b8	004000ef	jal	x1,800007b8	  x1=0x800007b8
       12515000	      1250	00000000	00000013	addi	x0,x0,0	  x0:0x00000000
       12525000	      1251	800007b8	00000013	addi	x0,x0,0	  x0:0x00000000
       12535000	      1252	800007bc	024000ef	jal	x1,800007bc	  x1=0x800007bc
       12545000	      1253	00000000	00000013	addi	x0,x0,0	  x0:0x00000000
       12555000	      1254	800007dc	00000013	addi	x0,x0,0	  x0:0x00000000
       12565000	      1255	800007e0	fe5ffeef	jal	x29,800007e0	 x29=0x800007e0
       12575000	      1256	00000000	00000013	addi	x0,x0,0	  x0:0x00000000
       12585000	      1257	800007c0	00000013	addi	x0,x0,0	  x0:0x00000000
       12595000	      1258	800007c4	048004ef	jal	x9,800007c4	  x9=0x800007c4
       12605000	      1259	00000000	00000013	addi	x0,x0,0	  x0:0x00000000
       12615000	      1260	80000808	00000013	addi	x0,x0,0	  x0:0x00000000
       12625000	      1261	8000080c	ff1ff0ef	jal	x1,8000080c	  x1=0x8000080c
       12635000	      1262	00000000	00000013	addi	x0,x0,0	  x0:0x00000000
       12645000	      1263	800007f8	00000013	addi	x0,x0,0	  x0:0x00000000
       12655000	      1264	800007fc	004000ef	jal	x1,800007fc	  x1=0x800007fc
       12665000	      1265	00000000	00000013	addi	x0,x0,0	  x0:0x00000000
       12675000	      1266	800007fc	00000013	addi	x0,x0,0	  x0:0x00000000
       12685000	      1267	80000800	014000ef	jal	x1,80000800	  x1=0x80000800
       12695000	      1268	00000000	00000013	addi	x0,x0,0	  x0:0x00000000
       12705000	      1269	80000810	00000013	addi	x0,x0,0	  x0:0x00000000
       12715000	      1270	80000814	f08b0393	addi	x7,x22,-248	 x22:0x80000784  x7=0x8000068c
       12725000	      1271	80000818	00c00d6f	jal	x26,80000818	 x26=0x80000818
       12735000	      1272	00000000	00000013	addi	x0,x0,0	  x0:0x00000000
       12745000	      1273	80000820	00000013	addi	x0,x0,0	  x0:0x00000000
       12755000	      1274	80000824	ffdff0ef	jal	x1,80000824	  x1=0x80000824
       12765000	      1275	00000000	00000013	addi	x0,x0,0	  x0:0x00000000
       12775000	      1276	8000081c	00000013	addi	x0,x0,0	  x0:0x00000000
       12785000	      1277	80000820	010000ef	jal	x1,80000820	  x1=0x80000820
       12795000	      1278	00000000	00000013	addi	x0,x0,0	  x0:0x00000000
       12805000	      1279	8000082c	00000013	addi	x0,x0,0	  x0:0x00000000
       12815000	      1280	80000830	010000ef	jal	x1,80000830	  x1=0x80000830
       12825000	      1281	00000000	00000013	addi	x0,x0,0	  x0:0x00000000
       12835000	      1282	8000083c	00000013	addi	x0,x0,0	  x0:0x00000000
       12845000	      1283	80000840	ff5ff2ef	jal	x5,80000840	  x5=0x80000840
       12855000	      1284	00000000	00000013	addi	x0,x0,0	  x0:0x00000000
       12865000	      1285	80000830	00000013	addi	x0,x0,0	  x0:0x00000000
       12875000	      1286	80000834	ff5ff0ef	jal	x1,80000834	  x1=0x80000834
       12885000	      1287	00000000	00000013	addi	x0,x0,0	  x0:0x00000000
       12895000	      1288	80000824	00000013	addi	x0,x0,0	  x0:0x00000000
       12905000	      1289	80000828	ff5ffbef	jal	x23,80000828	 x23=0x80000828
       12915000	      1290	00000000	00000013	addi	x0,x0,0	  x0:0x00000000
       12925000	      1291	80000818	00000013	addi	x0,x0,0	  x0:0x00000000
       12935000	      1292	8000081c	028009ef	jal	x19,8000081c	 x19=0x8000081c
       12945000	      1293	00000000	00000013	addi	x0,x0,0	  x0:0x00000000
       12955000	      1294	80000840	00000013	addi	x0,x0,0	  x0:0x00000000
       12965000	      1295	80000844	ff9ff0ef	jal	x1,80000844	  x1=0x80000844
       12975000	      1296	00000000	00000013	addi	x0,x0,0	  x0:0x00000000
       12985000	      1297	80000838	00000013	addi	x0,x0,0	  x0:0x00000000
       12995000	      1298	8000083c	ff1ff0ef	jal	x1,8000083c	  x1=0x8000083c
       13005000	      1299	00000000	00000013	addi	x0,x0,0	  x0:0x00000000
       13015000	      1300	80000828	00000013	addi	x0,x0,0	  x0:0x00000000
       13025000	      1301	8000082c	00c000ef	jal	x1,8000082c	  x1=0x8000082c
       13035000	      1302	00000000	00000013	addi	x0,x0,0	  x0:0x00000000
       13045000	      1303	80000834	00000013	addi	x0,x0,0	  x0:0x00000000
       13055000	      1304	80000838	010000ef	jal	x1,80000838	  x1=0x80000838
       13065000	      1305	00000000	00000013	addi	x0,x0,0	  x0:0x00000000
       13075000	      1306	80000844	00000013	addi	x0,x0,0	  x0:0x00000000
       13085000	      1307	80000848	01260bb3	add	x23,x12,x18	 x12:0x80000594 x18:0x800007d0 x23=0x00000d64
       13095000	      1308	8000084c	05400d6f	jal	x26,8000084c	 x26=0x8000084c
       13105000	      1309	00000000	00000013	addi	x0,x0,0	  x0:0x00000000
       13115000	      1310	8000089c	00000013	addi	x0,x0,0	  x0:0x00000000
       13125000	      1311	800008a0	fd1ff0ef	jal	x1,800008a0	  x1=0x800008a0
       13135000	      1312	00000000	00000013	addi	x0,x0,0	  x0:0x00000000
       13145000	      1313	8000086c	00000013	addi	x0,x0,0	  x0:0x00000000
       13155000	      1314	80000870	048000ef	jal	x1,80000870	  x1=0x80000870
       13165000	      1315	00000000	00000013	addi	x0,x0,0	  x0:0x00000000
       13175000	      1316	800008b4	00000013	addi	x0,x0,0	  x0:0x00000000
       13185000	      1317	800008b8	fd5ff0ef	jal	x1,800008b8	  x1=0x800008b8
       13195000	      1318	00000000	00000013	addi	x0,x0,0	  x0:0x00000000
       13205000	      1319	80000888	00000013	addi	x0,x0,0	  x0:0x00000000
       13215000	      1320	8000088c	fd1ff0ef	jal	x1,8000088c	  x1=0x8000088c
       13225000	      1321	00000000	00000013	addi	x0,x0,0	  x0:0x00000000
       13235000	      1322	80000858	00000013	addi	x0,x0,0	  x0:0x00000000
       13245000	      1323	8000085c	010000ef	jal	x1,8000085c	  x1=0x8000085c
       13255000	      1324	00000000	00000013	addi	x0,x0,0	  x0:0x00000000
       13265000	      1325	80000868	00000013	addi	x0,x0,0	  x0:0x00000000
       13275000	      1326	8000086c	01800cef	jal	x25,8000086c	 x25=0x8000086c
       13285000	      1327	00000000	00000013	addi	x0,x0,0	  x0:0x00000000
       13295000	      1328	80000880	00000013	addi	x0,x0,0	  x0:0x00000000
       13305000	      1329	80000884	03c000ef	jal	x1,80000884	  x1=0x80000884
       13315000	      1330	00000000	00000013	addi	x0,x0,0	  x0:0x00000000
       13325000	      1331	800008bc	00000013	addi	x0,x0,0	  x0:0x00000000
       13335000	      1332	800008c0	fd9ff0ef	jal	x1,800008c0	  x1=0x800008c0
       13345000	      1333	00000000	00000013	addi	x0,x0,0	  x0:0x00000000
       13355000	      1334	80000894	00000013	addi	x0,x0,0	  x0:0x00000000
       13365000	      1335	80000898	fddffbef	jal	x23,80000898	 x23=0x80000898
       13375000	      1336	00000000	00000013	addi	x0,x0,0	  x0:0x00000000
       13385000	      1337	80000870	00000013	addi	x0,x0,0	  x0:0x00000000
       13395000	      1338	80000874	038000ef	jal	x1,80000874	  x1=0x80000874
       13405000	      1339	00000000	00000013	addi	x0,x0,0	  x0:0x00000000
       13415000	      1340	800008a8	00000013	addi	x0,x0,0	  x0:0x00000000
       13425000	      1341	800008ac	008000ef	jal	x1,800008ac	  x1=0x800008ac
       13435000	      1342	00000000	00000013	addi	x0,x0,0	  x0:0x00000000
       13445000	      1343	800008b0	00000013	addi	x0,x0,0	  x0:0x00000000
       13455000	      1344	800008b4	fa1ff0ef	jal	x1,800008b4	  x1=0x800008b4
       13465000	      1345	00000000	00000013	addi	x0,x0,0	  x0:0x00000000
       13475000	      1346	80000850	00000013	addi	x0,x0,0	  x0:0x00000000
       13485000	      1347	80000854	004000ef	jal	x1,80000854	  x1=0x80000854
       13495000	      1348	00000000	00000013	addi	x0,x0,0	  x0:0x00000000
       13505000	      1349	80000854	00000013	addi	x0,x0,0	  x0:0x00000000
       13515000	      1350	80000858	04c000ef	jal	x1,80000858	  x1=0x80000858
       13525000	      1351	00000000	00000013	addi	x0,x0,0	  x0:0x00000000
       13535000	      1352	800008a0	00000013	addi	x0,x0,0	  x0:0x00000000
       13545000	      1353	800008a4	fadff0ef	jal	x1,800008a4	  x1=0x800008a4
       13555000	      1354	00000000	00000013	addi	x0,x0,0	  x0:0x00000000
       13565000	      1355	8000084c	00000013	addi	x0,x0,0	  x0:0x00000000
       13575000	      1356	80000850	044000ef	jal	x1,80000850	  x1=0x80000850
       13585000	      1357	00000000	00000013	addi	x0,x0,0	  x0:0x00000000
       13595000	      1358	80000890	00000013	addi	x0,x0,0	  x0:0x00000000
       13605000	      1359	80000894	fe9ffa6f	jal	x20,80000894	 x20=0x80000894
       13615000	      1360	00000000	00000013	addi	x0,x0,0	  x0:0x00000000
       13625000	      1361	80000878	00000013	addi	x0,x0,0	  x0:0x00000000
       13635000	      1362	8000087c	ffdff0ef	jal	x1,8000087c	  x1=0x8000087c
       13645000	      1363	00000000	00000013	addi	x0,x0,0	  x0:0x00000000
       13655000	      1364	80000874	00000013	addi	x0,x0,0	  x0:0x00000000
       13665000	      1365	80000878	fedff66f	jal	x12,80000878	 x12=0x80000878
       13675000	      1366	00000000	00000013	addi	x0,x0,0	  x0:0x00000000
       13685000	      1367	80000860	00000013	addi	x0,x0,0	  x0:0x00000000
       13695000	      1368	80000864	024000ef	jal	x1,80000864	  x1=0x80000864
       13705000	      1369	00000000	00000013	addi	x0,x0,0	  x0:0x00000000
       13715000	      1370	80000884	00000013	addi	x0,x0,0	  x0:0x00000000
       13725000	      1371	80000888	fe1ff0ef	jal	x1,80000888	  x1=0x80000888
       13735000	      1372	00000000	00000013	addi	x0,x0,0	  x0:0x00000000
       13745000	      1373	80000864	00000013	addi	x0,x0,0	  x0:0x00000000
       13755000	      1374	80000868	0400076f	jal	x14,80000868	 x14=0x80000868
       13765000	      1375	00000000	00000013	addi	x0,x0,0	  x0:0x00000000
       13775000	      1376	800008a4	00000013	addi	x0,x0,0	  x0:0x00000000
       13785000	      1377	800008a8	fd9ff66f	jal	x12,800008a8	 x12=0x800008a8
       13795000	      1378	00000000	00000013	addi	x0,x0,0	  x0:0x00000000
       13805000	      1379	8000087c	00000013	addi	x0,x0,0	  x0:0x00000000
       13815000	      1380	80000880	030000ef	jal	x1,80000880	  x1=0x80000880
       13825000	      1381	00000000	00000013	addi	x0,x0,0	  x0:0x00000000
       13835000	      1382	800008ac	00000013	addi	x0,x0,0	  x0:0x00000000
       13845000	      1383	800008b0	fedff0ef	jal	x1,800008b0	  x1=0x800008b0
       13855000	      1384	00000000	00000013	addi	x0,x0,0	  x0:0x00000000
       13865000	      1385	80000898	00000013	addi	x0,x0,0	  x0:0x00000000
       13875000	      1386	8000089c	ff5ff0ef	jal	x1,8000089c	  x1=0x8000089c
       13885000	      1387	00000000	00000013	addi	x0,x0,0	  x0:0x00000000
       13895000	      1388	8000088c	00000013	addi	x0,x0,0	  x0:0x00000000
       13905000	      1389	80000890	02c000ef	jal	x1,80000890	  x1=0x80000890
       13915000	      1390	00000000	00000013	addi	x0,x0,0	  x0:0x00000000
       13925000	      1391	800008b8	00000013	addi	x0,x0,0	  x0:0x00000000
       13935000	      1392	800008bc	fa5ff26f	jal	x4,800008bc	  x4=0x800008bc
       13945000	      1393	00000000	00000013	addi	x0,x0,0	  x0:0x00000000
       13955000	      1394	8000085c	00000013	addi	x0,x0,0	  x0:0x00000000
       13965000	      1395	80000860	064000ef	jal	x1,80000860	  x1=0x80000860
       13975000	      1396	00000000	00000013	addi	x0,x0,0	  x0:0x00000000
       13985000	      1397	800008c0	00000013	addi	x0,x0,0	  x0:0x00000000
       13995000	      1398	800008c4	41485e33	sra	x28,x16,x20	 x16:0x80000394 x20:0x80000894 x28=0xfffff800
       14005000	      1399	800008c8	02c00d6f	jal	x26,800008c8	 x26=0x800008c8
       14015000	      1400	00000000	00000013	addi	x0,x0,0	  x0:0x00000000
       14025000	      1401	800008f0	00000013	addi	x0,x0,0	  x0:0x00000000
       14035000	      1402	800008f4	ff9ff0ef	jal	x1,800008f4	  x1=0x800008f4
       14045000	      1403	00000000	00000013	addi	x0,x0,0	  x0:0x00000000
       14055000	      1404	800008e8	00000013	addi	x0,x0,0	  x0:0x00000000
       14065000	      1405	800008ec	010000ef	jal	x1,800008ec	  x1=0x800008ec
       14075000	      1406	00000000	00000013	addi	x0,x0,0	  x0:0x00000000
       14085000	      1407	800008f8	00000013	addi	x0,x0,0	  x0:0x00000000
       14095000	      1408	800008fc	fd9ff0ef	jal	x1,800008fc	  x1=0x800008fc
       14105000	      1409	00000000	00000013	addi	x0,x0,0	  x0:0x00000000
       14115000	      1410	800008d0	00000013	addi	x0,x0,0	  x0:0x00000000
       14125000	      1411	800008d4	008000ef	jal	x1,800008d4	  x1=0x800008d4
       14135000	      1412	00000000	00000013	addi	x0,x0,0	  x0:0x00000000
       14145000	      1413	800008d8	00000013	addi	x0,x0,0	  x0:0x00000000
       14155000	      1414	800008dc	00c000ef	jal	x1,800008dc	  x1=0x800008dc
       14165000	      1415	00000000	00000013	addi	x0,x0,0	  x0:0x00000000
       14175000	      1416	800008e4	00000013	addi	x0,x0,0	  x0:0x00000000
       14185000	      1417	800008e8	018000ef	jal	x1,800008e8	  x1=0x800008e8
       14195000	      1418	00000000	00000013	addi	x0,x0,0	  x0:0x00000000
       14205000	      1419	800008fc	00000013	addi	x0,x0,0	  x0:0x00000000
       14215000	      1420	80000900	ff1ff0ef	jal	x1,80000900	  x1=0x80000900
       14225000	      1421	00000000	00000013	addi	x0,x0,0	  x0:0x00000000
       14235000	      1422	800008ec	00000013	addi	x0,x0,0	  x0:0x00000000
       14245000	      1423	800008f0	0280076f	jal	x14,800008f0	 x14=0x800008f0
       14255000	      1424	00000000	00000013	addi	x0,x0,0	  x0:0x00000000
       14265000	      1425	80000914	00000013	addi	x0,x0,0	  x0:0x00000000
       14275000	      1426	80000918	ff1ff0ef	jal	x1,80000918	  x1=0x80000918
       14285000	      1427	00000000	00000013	addi	x0,x0,0	  x0:0x00000000
       14295000	      1428	80000904	00000013	addi	x0,x0,0	  x0:0x00000000
       14305000	      1429	80000908	024004ef	jal	x9,80000908	  x9=0x80000908
       14315000	      1430	00000000	00000013	addi	x0,x0,0	  x0:0x00000000
       14325000	      1431	80000928	00000013	addi	x0,x0,0	  x0:0x00000000
       14335000	      1432	8000092c	fe9ffb6f	jal	x22,8000092c	 x22=0x8000092c
       14345000	      1433	00000000	00000013	addi	x0,x0,0	  x0:0x00000000
       14355000	      1434	80000910	00000013	addi	x0,x0,0	  x0:0x00000000
       14365000	      1435	80000914	fcdff0ef	jal	x1,80000914	  x1=0x80000914
       14375000	      1436	00000000	00000013	addi	x0,x0,0	  x0:0x00000000
       14385000	      1437	800008dc	00000013	addi	x0,x0,0	  x0:0x00000000
       14395000	      1438	800008e0	044000ef	jal	x1,800008e0	  x1=0x800008e0
       14405000	      1439	00000000	00000013	addi	x0,x0,0	  x0:0x00000000
       14415000	      1440	80000920	00000013	addi	x0,x0,0	  x0:0x00000000
       14425000	      1441	80000924	ff9ff0ef	jal	x1,80000924	  x1=0x80000924
       14435000	      1442	00000000	00000013	addi	x0,x0,0	  x0:0x00000000
       14445000	      1443	80000918	00000013	addi	x0,x0,0	  x0:0x00000000
       14455000	      1444	8000091c	fe9ff0ef	jal	x1,8000091c	  x1=0x8000091c
       14465000	      1445	00000000	00000013	addi	x0,x0,0	  x0:0x00000000
       14475000	      1446	80000900	00000013	addi	x0,x0,0	  x0:0x00000000
       14485000	      1447	80000904	01c000ef	jal	x1,80000904	  x1=0x80000904
       14495000	      1448	00000000	00000013	addi	x0,x0,0	  x0:0x00000000
       14505000	      1449	8000091c	00000013	addi	x0,x0,0	  x0:0x00000000
       14515000	      1450	80000920	fb1ff0ef	jal	x1,80000920	  x1=0x80000920
       14525000	      1451	00000000	00000013	addi	x0,x0,0	  x0:0x00000000
       14535000	      1452	800008cc	00000013	addi	x0,x0,0	  x0:0x00000000
       14545000	      1453	800008d0	040000ef	jal	x1,800008d0	  x1=0x800008d0
       14555000	      1454	00000000	00000013	addi	x0,x0,0	  x0:0x00000000
       14565000	      1455	8000090c	00000013	addi	x0,x0,0	  x0:0x00000000
       14575000	      1456	80000910	fbdff8ef	jal	x17,80000910	 x17=0x80000910
       14585000	      1457	00000000	00000013	addi	x0,x0,0	  x0:0x00000000
       14595000	      1458	800008c8	00000013	addi	x0,x0,0	  x0:0x00000000
       14605000	      1459	800008cc	064000ef	jal	x1,800008cc	  x1=0x800008cc
       14615000	      1460	00000000	00000013	addi	x0,x0,0	  x0:0x00000000
       14625000	      1461	8000092c	00000013	addi	x0,x0,0	  x0:0x00000000
       14635000	      1462	80000930	fa9ff0ef	jal	x1,80000930	  x1=0x80000930
       14645000	      1463	00000000	00000013	addi	x0,x0,0	  x0:0x00000000
       14655000	      1464	800008d4	00000013	addi	x0,x0,0	  x0:0x00000000
       14665000	      1465	800008d8	00c000ef	jal	x1,800008d8	  x1=0x800008d8
       14675000	      1466	00000000	00000013	addi	x0,x0,0	  x0:0x00000000
       14685000	      1467	800008e0	00000013	addi	x0,x0,0	  x0:0x00000000
       14695000	      1468	800008e4	028000ef	jal	x1,800008e4	  x1=0x800008e4
       14705000	      1469	00000000	00000013	addi	x0,x0,0	  x0:0x00000000
       14715000	      1470	80000908	00000013	addi	x0,x0,0	  x0:0x00000000
       14725000	      1471	8000090c	fedff0ef	jal	x1,8000090c	  x1=0x8000090c
       14735000	      1472	00000000	00000013	addi	x0,x0,0	  x0:0x00000000
       14745000	      1473	800008f4	00000013	addi	x0,x0,0	  x0:0x00000000
       14755000	      1474	800008f8	03000a6f	jal	x20,800008f8	 x20=0x800008f8
       14765000	      1475	00000000	00000013	addi	x0,x0,0	  x0:0x00000000
       14775000	      1476	80000924	00000013	addi	x0,x0,0	  x0:0x00000000
       14785000	      1477	80000928	00c000ef	jal	x1,80000928	  x1=0x80000928
       14795000	      1478	00000000	00000013	addi	x0,x0,0	  x0:0x00000000
       14805000	      1479	80000930	00000013	addi	x0,x0,0	  x0:0x00000000
       14815000	      1480	80000934	0167f233	and	x4,x15,x22	 x15:0x80000788 x22:0x8000092c  x4=0x80000108
       14825000	      1481	80000938	02c00d6f	jal	x26,80000938	 x26=0x80000938
       14835000	      1482	00000000	00000013	addi	x0,x0,0	  x0:0x00000000
       14845000	      1483	80000960	00000013	addi	x0,x0,0	  x0:0x00000000
       14855000	      1484	80000964	fedff26f	jal	x4,80000964	  x4=0x80000964
       14865000	      1485	00000000	00000013	addi	x0,x0,0	  x0:0x00000000
       14875000	      1486	8000094c	00000013	addi	x0,x0,0	  x0:0x00000000
       14885000	      1487	80000950	030001ef	jal	x3,80000950	  x3=0x80000950
       14895000	      1488	00000000	00000013	addi	x0,x0,0	  x0:0x00000000
       14905000	      1489	8000097c	00000013	addi	x0,x0,0	  x0:0x00000000
       14915000	      1490	80000980	ffdff0ef	jal	x1,80000980	  x1=0x80000980
       14925000	      1491	00000000	00000013	addi	x0,x0,0	  x0:0x00000000
       14935000	      1492	80000978	00000013	addi	x0,x0,0	  x0:0x00000000
       14945000	      1493	8000097c	fc9fffef	jal	x31,8000097c	 x31=0x8000097c
       14955000	      1494	00000000	00000013	addi	x0,x0,0	  x0:0x00000000
       14965000	      1495	80000940	00000013	addi	x0,x0,0	  x0:0x00000000
       14975000	      1496	80000944	ffdff16f	jal	x2,80000944	  x2=0x80000944
       14985000	      1497	00000000	00000013	addi	x0,x0,0	  x0:0x00000000
       14995000	      1498	8000093c	00000013	addi	x0,x0,0	  x0:0x00000000
       15005000	      1499	80000940	020000ef	jal	x1,80000940	  x1=0x80000940
       15015000	      1500	00000000	00000013	addi	x0,x0,0	  x0:0x00000000
       15025000	      1501	8000095c	00000013	addi	x0,x0,0	  x0:0x00000000
       15035000	      1502	80000960	fddff26f	jal	x4,80000960	  x4=0x80000960
       15045000	      1503	00000000	00000013	addi	x0,x0,0	  x0:0x00000000
       15055000	      1504	80000938	00000013	addi	x0,x0,0	  x0:0x00000000
       15065000	      1505	8000093c	038000ef	jal	x1,8000093c	  x1=0x8000093c
       15075000	      1506	00000000	00000013	addi	x0,x0,0	  x0:0x00000000
       15085000	      1507	80000970	00000013	addi	x0,x0,0	  x0:0x00000000
       15095000	      1508	80000974	fe9ff1ef	jal	x3,80000974	  x3=0x80000974
       15105000	      1509	00000000	00000013	addi	x0,x0,0	  x0:0x00000000
       15115000	      1510	80000958	00000013	addi	x0,x0,0	  x0:0x00000000
       15125000	      1511	8000095c	00c000ef	jal	x1,8000095c	  x1=0x8000095c
       15135000	      1512	00000000	00000013	addi	x0,x0,0	  x0:0x00000000
       15145000	      1513	80000964	00000013	addi	x0,x0,0	  x0:0x00000000
       15155000	      1514	80000968	01000c6f	jal	x24,80000968	 x24=0x80000968
       15165000	      1515	00000000	00000013	addi	x0,x0,0	  x0:0x00000000
       15175000	      1516	80000974	00000013	addi	x0,x0,0	  x0:0x00000000
       15185000	      1517	80000978	fd1ffeef	jal	x29,80000978	 x29=0x80000978
       15195000	      1518	00000000	00000013	addi	x0,x0,0	  x0:0x00000000
       15205000	      1519	80000944	00000013	addi	x0,x0,0	  x0:0x00000000
       15215000	      1520	80000948	024000ef	jal	x1,80000948	  x1=0x80000948
       15225000	      1521	00000000	00000013	addi	x0,x0,0	  x0:0x00000000
       15235000	      1522	80000968	00000013	addi	x0,x0,0	  x0:0x00000000
       15245000	      1523	8000096c	fedff0ef	jal	x1,8000096c	  x1=0x8000096c
       15255000	      1524	00000000	00000013	addi	x0,x0,0	  x0:0x00000000
       15265000	      1525	80000954	00000013	addi	x0,x0,0	  x0:0x00000000
       15275000	      1526	80000958	ff5ff66f	jal	x12,80000958	 x12=0x80000958
       15285000	      1527	00000000	00000013	addi	x0,x0,0	  x0:0x00000000
       15295000	      1528	80000948	00000013	addi	x0,x0,0	  x0:0x00000000
       15305000	      1529	8000094c	024000ef	jal	x1,8000094c	  x1=0x8000094c
       15315000	      1530	00000000	00000013	addi	x0,x0,0	  x0:0x00000000
       15325000	      1531	8000096c	00000013	addi	x0,x0,0	  x0:0x00000000
       15335000	      1532	80000970	fe5ff0ef	jal	x1,80000970	  x1=0x80000970
       15345000	      1533	00000000	00000013	addi	x0,x0,0	  x0:0x00000000
       15355000	      1534	80000950	00000013	addi	x0,x0,0	  x0:0x00000000
       15365000	      1535	80000954	030000ef	jal	x1,80000954	  x1=0x80000954
       15375000	      1536	00000000	00000013	addi	x0,x0,0	  x0:0x00000000
       15385000	      1537	80000980	00000013	addi	x0,x0,0	  x0:0x00000000
       15395000	      1538	80000984	01dcc7b3	xor	x15,x25,x29	 x25:0x8000086c x29:0x80000978 x15=0x00000114
       15405000	      1539	80000988	02c00d6f	jal	x26,80000988	 x26=0x80000988
       15415000	      1540	00000000	00000013	addi	x0,x0,0	  x0:0x00000000
       15425000	      1541	800009b0	00000013	addi	x0,x0,0	  x0:0x00000000
       15435000	      1542	800009b4	008000ef	jal	x1,800009b4	  x1=0x800009b4
       15445000	      1543	00000000	00000013	addi	x0,x0,0	  x0:0x00000000
       15455000	      1544	800009b8	00000013	addi	x0,x0,0	  x0:0x00000000
       15465000	      1545	800009bc	fddff0ef	jal	x1,800009bc	  x1=0x800009bc
       15475000	      1546	00000000	00000013	addi	x0,x0,0	  x0:0x00000000
       15485000	      1547	80000994	00000013	addi	x0,x0,0	  x0:0x00000000
       15495000	      1548	80000998	ff5ff0ef	jal	x1,80000998	  x1=0x80000998
       15505000	      1549	00000000	00000013	addi	x0,x0,0	  x0:0x00000000
       15515000	      1550	80000988	00000013	addi	x0,x0,0	  x0:0x00000000
       15525000	      1551	8000098c	01c000ef	jal	x1,8000098c	  x1=0x8000098c
       15535000	      1552	00000000	00000013	addi	x0,x0,0	  x0:0x00000000
       15545000	      1553	800009a4	00000013	addi	x0,x0,0	  x0:0x00000000
       15555000	      1554	800009a8	ff5ff46f	jal	x8,800009a8	  x8=0x800009a8
       15565000	      1555	00000000	00000013	addi	x0,x0,0	  x0:0x00000000
       15575000	      1556	80000998	00000013	addi	x0,x0,0	  x0:0x00000000
       15585000	      1557	8000099c	008002ef	jal	x5,8000099c	  x5=0x8000099c
       15595000	      1558	00000000	00000013	addi	x0,x0,0	  x0:0x00000000
       15605000	      1559	800009a0	00000013	addi	x0,x0,0	  x0:0x00000000
       15615000	      1560	800009a4	00c0066f	jal	x12,800009a4	 x12=0x800009a4
       15625000	      1561	00000000	00000013	addi	x0,x0,0	  x0:0x00000000
       15635000	      1562	800009ac	00000013	addi	x0,x0,0	  x0:0x00000000
       15645000	      1563	800009b0	ffdff0ef	jal	x1,800009b0	  x1=0x800009b0
       15655000	      1564	00000000	00000013	addi	x0,x0,0	  x0:0x00000000
       15665000	      1565	800009a8	00000013	addi	x0,x0,0	  x0:0x00000000
       15675000	      1566	800009ac	fe5ff0ef	jal	x1,800009ac	  x1=0x800009ac
       15685000	      1567	00000000	00000013	addi	x0,x0,0	  x0:0x00000000
       15695000	      1568	8000098c	00000013	addi	x0,x0,0	  x0:0x00000000
       15705000	      1569	80000990	00400cef	jal	x25,80000990	 x25=0x80000990
       15715000	      1570	00000000	00000013	addi	x0,x0,0	  x0:0x00000000
       15725000	      1571	80000990	00000013	addi	x0,x0,0	  x0:0x00000000
       15735000	      1572	80000994	00c000ef	jal	x1,80000994	  x1=0x80000994
       15745000	      1573	00000000	00000013	addi	x0,x0,0	  x0:0x00000000
       15755000	      1574	8000099c	00000013	addi	x0,x0,0	  x0:0x00000000
       15765000	      1575	800009a0	0180096f	jal	x18,800009a0	 x18=0x800009a0
       15775000	      1576	00000000	00000013	addi	x0,x0,0	  x0:0x00000000
       15785000	      1577	800009b4	00000013	addi	x0,x0,0	  x0:0x00000000
       15795000	      1578	800009b8	00800def	jal	x27,800009b8	 x27=0x800009b8
       15805000	      1579	00000000	00000013	addi	x0,x0,0	  x0:0x00000000
       15815000	      1580	800009bc	00000013	addi	x0,x0,0	  x0:0x00000000
       15825000	      1581	800009c0	4c24ba93	sltiu	x21,x9,1218	  x9:0x80000908 x21=0x00000000
       15835000	      1582	800009c4	01000d6f	jal	x26,800009c4	 x26=0x800009c4
       15845000	      1583	00000000	00000013	addi	x0,x0,0	  x0:0x00000000
       15855000	      1584	800009d0	00000013	addi	x0,x0,0	  x0:0x00000000
       15865000	      1585	800009d4	00c00eef	jal	x29,800009d4	 x29=0x800009d4
       15875000	      1586	00000000	00000013	addi	x0,x0,0	  x0:0x00000000
       15885000	      1587	800009dc	00000013	addi	x0,x0,0	  x0:0x00000000
       15895000	      1588	800009e0	014000ef	jal	x1,800009e0	  x1=0x800009e0
       15905000	      1589	00000000	00000013	addi	x0,x0,0	  x0:0x00000000
       15915000	      1590	800009f0	00000013	addi	x0,x0,0	  x0:0x00000000
       15925000	      1591	800009f4	0080086f	jal	x16,800009f4	 x16=0x800009f4
       15935000	      1592	00000000	00000013	addi	x0,x0,0	  x0:0x00000000
       15945000	      1593	800009f8	00000013	addi	x0,x0,0	  x0:0x00000000
       15955000	      1594	800009fc	fe9ff3ef	jal	x7,800009fc	  x7=0x800009fc
       15965000	      1595	00000000	00000013	addi	x0,x0,0	  x0:0x00000000
       15975000	      1596	800009e0	00000013	addi	x0,x0,0	  x0:0x00000000
       15985000	      1597	800009e4	00c0026f	jal	x4,800009e4	  x4=0x800009e4
       15995000	      1598	00000000	00000013	addi	x0,x0,0	  x0:0x00000000
       16005000	      1599	800009ec	00000013	addi	x0,x0,0	  x0:0x00000000
       16015000	      1600	800009f0	ffdff8ef	jal	x17,800009f0	 x17=0x800009f0
       16025000	      1601	00000000	00000013	addi	x0,x0,0	  x0:0x00000000
       16035000	      1602	800009e8	00000013	addi	x0,x0,0	  x0:0x00000000
       16045000	      1603	800009ec	ffdffcef	jal	x25,800009ec	 x25=0x800009ec
       16055000	      1604	00000000	00000013	addi	x0,x0,0	  x0:0x00000000
       16065000	      1605	800009e4	00000013	addi	x0,x0,0	  x0:0x00000000
       16075000	      1606	800009e8	fe1ff0ef	jal	x1,800009e8	  x1=0x800009e8
       16085000	      1607	00000000	00000013	addi	x0,x0,0	  x0:0x00000000
       16095000	      1608	800009c4	00000013	addi	x0,x0,0	  x0:0x00000000
       16105000	      1609	800009c8	014000ef	jal	x1,800009c8	  x1=0x800009c8
       16115000	      1610	00000000	00000013	addi	x0,x0,0	  x0:0x00000000
       16125000	      1611	800009d8	00000013	addi	x0,x0,0	  x0:0x00000000
       16135000	      1612	800009dc	ff1fff6f	jal	x30,800009dc	 x30=0x800009dc
       16145000	      1613	00000000	00000013	addi	x0,x0,0	  x0:0x00000000
       16155000	      1614	800009c8	00000013	addi	x0,x0,0	  x0:0x00000000
       16165000	      1615	800009cc	00c000ef	jal	x1,800009cc	  x1=0x800009cc
       16175000	      1616	00000000	00000013	addi	x0,x0,0	  x0:0x00000000
       16185000	      1617	800009d4	00000013	addi	x0,x0,0	  x0:0x00000000
       16195000	      1618	800009d8	ff9ff0ef	jal	x1,800009d8	  x1=0x800009d8
       16205000	      1619	00000000	00000013	addi	x0,x0,0	  x0:0x00000000
       16215000	      1620	800009cc	00000013	addi	x0,x0,0	  x0:0x00000000
       16225000	      1621	800009d0	028000ef	jal	x1,800009d0	  x1=0x800009d0
       16235000	      1622	00000000	00000013	addi	x0,x0,0	  x0:0x00000000
       16245000	      1623	800009f4	00000013	addi	x0,x0,0	  x0:0x00000000
       16255000	      1624	800009f8	008000ef	jal	x1,800009f8	  x1=0x800009f8
       16265000	      1625	00000000	00000013	addi	x0,x0,0	  x0:0x00000000
       16275000	      1626	800009fc	00000013	addi	x0,x0,0	  x0:0x00000000
       16285000	      1627	80000a00	004000ef	jal	x1,80000a00	  x1=0x80000a00
       16295000	      1628	00000000	00000013	addi	x0,x0,0	  x0:0x00000000
       16305000	      1629	80000a00	00000013	addi	x0,x0,0	  x0:0x00000000
       16315000	      1630	80000a04	00531f13	slli	x30,x6,0x5	  x6:0x80009fc4 x30=0x0013f880
       16325000	      1631	80000a08	06000d6f	jal	x26,80000a08	 x26=0x80000a08
       16335000	      1632	00000000	00000013	addi	x0,x0,0	  x0:0x00000000
       16345000	      1633	80000a64	00000013	addi	x0,x0,0	  x0:0x00000000
       16355000	      1634	80000a68	fc5ff96f	jal	x18,80000a68	 x18=0x80000a68
       16365000	      1635	00000000	00000013	addi	x0,x0,0	  x0:0x00000000
       16375000	      1636	80000a28	00000013	addi	x0,x0,0	  x0:0x00000000
       16385000	      1637	80000a2c	00400c6f	jal	x24,80000a2c	 x24=0x80000a2c
       16395000	      1638	00000000	00000013	addi	x0,x0,0	  x0:0x00000000
       16405000	      1639	80000a2c	00000013	addi	x0,x0,0	  x0:0x00000000
       16415000	      1640	80000a30	024000ef	jal	x1,80000a30	  x1=0x80000a30
       16425000	      1641	00000000	00000013	addi	x0,x0,0	  x0:0x00000000
       16435000	      1642	80000a50	00000013	addi	x0,x0,0	  x0:0x00000000
       16445000	      1643	80000a54	fedff0ef	jal	x1,80000a54	  x1=0x80000a54
       16455000	      1644	00000000	00000013	addi	x0,x0,0	  x0:0x00000000
       16465000	      1645	80000a3c	00000013	addi	x0,x0,0	  x0:0x00000000
       16475000	      1646	80000a40	00c004ef	jal	x9,80000a40	  x9=0x80000a40
       16485000	      1647	00000000	00000013	addi	x0,x0,0	  x0:0x00000000
       16495000	      1648	80000a48	00000013	addi	x0,x0,0	  x0:0x00000000
       16505000	      1649	80000a4c	ff1ff0ef	jal	x1,80000a4c	  x1=0x80000a4c
       16515000	      1650	00000000	00000013	addi	x0,x0,0	  x0:0x00000000
       16525000	      1651	80000a38	00000013	addi	x0,x0,0	  x0:0x00000000
       16535000	      1652	80000a3c	fd1ff0ef	jal	x1,80000a3c	  x1=0x80000a3c
       16545000	      1653	00000000	00000013	addi	x0,x0,0	  x0:0x00000000
       16555000	      1654	80000a08	00000013	addi	x0,x0,0	  x0:0x00000000
       16565000	      1655	80000a0c	02c002ef	jal	x5,80000a0c	  x5=0x80000a0c
       16575000	      1656	00000000	00000013	addi	x0,x0,0	  x0:0x00000000
       16585000	      1657	80000a34	00000013	addi	x0,x0,0	  x0:0x00000000
       16595000	      1658	80000a38	fe9ff0ef	jal	x1,80000a38	  x1=0x80000a38
       16605000	      1659	00000000	00000013	addi	x0,x0,0	  x0:0x00000000
       16615000	      1660	80000a1c	00000013	addi	x0,x0,0	  x0:0x00000000
       16625000	      1661	80000a20	ff9ff1ef	jal	x3,80000a20	  x3=0x80000a20
       16635000	      1662	00000000	00000013	addi	x0,x0,0	  x0:0x00000000
       16645000	      1663	80000a14	00000013	addi	x0,x0,0	  x0:0x00000000
       16655000	      1664	80000a18	060000ef	jal	x1,80000a18	  x1=0x80000a18
       16665000	      1665	00000000	00000013	addi	x0,x0,0	  x0:0x00000000
       16675000	      1666	80000a74	00000013	addi	x0,x0,0	  x0:0x00000000
       16685000	      1667	80000a78	fadff0ef	jal	x1,80000a78	  x1=0x80000a78
       16695000	      1668	00000000	00000013	addi	x0,x0,0	  x0:0x00000000
       16705000	      1669	80000a20	00000013	addi	x0,x0,0	  x0:0x00000000
       16715000	      1670	80000a24	04c0046f	jal	x8,80000a24	  x8=0x80000a24
       16725000	      1671	00000000	00000013	addi	x0,x0,0	  x0:0x00000000
       16735000	      1672	80000a6c	00000013	addi	x0,x0,0	  x0:0x00000000
       16745000	      1673	80000a70	fb9ff0ef	jal	x1,80000a70	  x1=0x80000a70
       16755000	      1674	00000000	00000013	addi	x0,x0,0	  x0:0x00000000
       16765000	      1675	80000a24	00000013	addi	x0,x0,0	  x0:0x00000000
       16775000	      1676	80000a28	0200076f	jal	x14,80000a28	 x14=0x80000a28
       16785000	      1677	00000000	00000013	addi	x0,x0,0	  x0:0x00000000
       16795000	      1678	80000a44	00000013	addi	x0,x0,0	  x0:0x00000000
       16805000	      1679	80000a48	fcdff5ef	jal	x11,80000a48	 x11=0x80000a48
       16815000	      1680	00000000	00000013	addi	x0,x0,0	  x0:0x00000000
       16825000	      1681	80000a10	00000013	addi	x0,x0,0	  x0:0x00000000
       16835000	      1682	80000a14	03c000ef	jal	x1,80000a14	  x1=0x80000a14
       16845000	      1683	00000000	00000013	addi	x0,x0,0	  x0:0x00000000
       16855000	      1684	80000a4c	00000013	addi	x0,x0,0	  x0:0x00000000
       16865000	      1685	80000a50	ff5ff96f	jal	x18,80000a50	 x18=0x80000a50
       16875000	      1686	00000000	00000013	addi	x0,x0,0	  x0:0x00000000
       16885000	      1687	80000a40	00000013	addi	x0,x0,0	  x0:0x00000000
       16895000	      1688	80000a44	01800c6f	jal	x24,80000a44	 x24=0x80000a44
       16905000	      1689	00000000	00000013	addi	x0,x0,0	  x0:0x00000000
       16915000	      1690	80000a58	00000013	addi	x0,x0,0	  x0:0x00000000
       16925000	      1691	80000a5c	ffdff86f	jal	x16,80000a5c	 x16=0x80000a5c
       16935000	      1692	00000000	00000013	addi	x0,x0,0	  x0:0x00000000
       16945000	      1693	80000a54	00000013	addi	x0,x0,0	  x0:0x00000000
       16955000	      1694	80000a58	fddff0ef	jal	x1,80000a58	  x1=0x80000a58
       16965000	      1695	00000000	00000013	addi	x0,x0,0	  x0:0x00000000
       16975000	      1696	80000a30	00000013	addi	x0,x0,0	  x0:0x00000000
       16985000	      1697	80000a34	02c000ef	jal	x1,80000a34	  x1=0x80000a34
       16995000	      1698	00000000	00000013	addi	x0,x0,0	  x0:0x00000000
       17005000	      1699	80000a5c	00000013	addi	x0,x0,0	  x0:0x00000000
       17015000	      1700	80000a60	00c000ef	jal	x1,80000a60	  x1=0x80000a60
       17025000	      1701	00000000	00000013	addi	x0,x0,0	  x0:0x00000000
       17035000	      1702	80000a68	00000013	addi	x0,x0,0	  x0:0x00000000
       17045000	      1703	80000a6c	fa5ff0ef	jal	x1,80000a6c	  x1=0x80000a6c
       17055000	      1704	00000000	00000013	addi	x0,x0,0	  x0:0x00000000
       17065000	      1705	80000a0c	00000013	addi	x0,x0,0	  x0:0x00000000
       17075000	      1706	80000a10	06c000ef	jal	x1,80000a10	  x1=0x80000a10
       17085000	      1707	00000000	00000013	addi	x0,x0,0	  x0:0x00000000
       17095000	      1708	80000a78	00000013	addi	x0,x0,0	  x0:0x00000000
       17105000	      1709	80000a7c	ff9ff66f	jal	x12,80000a7c	 x12=0x80000a7c
       17115000	      1710	00000000	00000013	addi	x0,x0,0	  x0:0x00000000
       17125000	      1711	80000a70	00000013	addi	x0,x0,0	  x0:0x00000000
       17135000	      1712	80000a74	ff1ff0ef	jal	x1,80000a74	  x1=0x80000a74
       17145000	      1713	00000000	00000013	addi	x0,x0,0	  x0:0x00000000
       17155000	      1714	80000a60	00000013	addi	x0,x0,0	  x0:0x00000000
       17165000	      1715	80000a64	fb9ff0ef	jal	x1,80000a64	  x1=0x80000a64
       17175000	      1716	00000000	00000013	addi	x0,x0,0	  x0:0x00000000
       17185000	      1717	80000a18	00000013	addi	x0,x0,0	  x0:0x00000000
       17195000	      1718	80000a1c	064000ef	jal	x1,80000a1c	  x1=0x80000a1c
       17205000	      1719	00000000	00000013	addi	x0,x0,0	  x0:0x00000000
       17215000	      1720	80000a7c	00000013	addi	x0,x0,0	  x0:0x00000000
       17225000	      1721	80000a80	00000013	addi	x0,x0,0	  x0:0x00000000
       17235000	      1722	80000a84	06000d6f	jal	x26,80000a84	 x26=0x80000a84
       17245000	      1723	00000000	00000013	addi	x0,x0,0	  x0:0x00000000
       17255000	      1724	80000ae0	00000013	addi	x0,x0,0	  x0:0x00000000
       17265000	      1725	80000ae4	fbdff66f	jal	x12,80000ae4	 x12=0x80000ae4
       17275000	      1726	00000000	00000013	addi	x0,x0,0	  x0:0x00000000
       17285000	      1727	80000a9c	00000013	addi	x0,x0,0	  x0:0x00000000
       17295000	      1728	80000aa0	ff1ffb6f	jal	x22,80000aa0	 x22=0x80000aa0
       17305000	      1729	00000000	00000013	addi	x0,x0,0	  x0:0x00000000
       17315000	      1730	80000a8c	00000013	addi	x0,x0,0	  x0:0x00000000
       17325000	      1731	80000a90	064000ef	jal	x1,80000a90	  x1=0x80000a90
       17335000	      1732	00000000	00000013	addi	x0,x0,0	  x0:0x00000000
       17345000	      1733	80000af0	00000013	addi	x0,x0,0	  x0:0x00000000
       17355000	      1734	80000af4	fc5ff0ef	jal	x1,80000af4	  x1=0x80000af4
       17365000	      1735	00000000	00000013	addi	x0,x0,0	  x0:0x00000000
       17375000	      1736	80000ab4	00000013	addi	x0,x0,0	  x0:0x00000000
       17385000	      1737	80000ab8	ff9ff1ef	jal	x3,80000ab8	  x3=0x80000ab8
       17395000	      1738	00000000	00000013	addi	x0,x0,0	  x0:0x00000000
       17405000	      1739	80000aac	00000013	addi	x0,x0,0	  x0:0x00000000
       17415000	      1740	80000ab0	018002ef	jal	x5,80000ab0	  x5=0x80000ab0
       17425000	      1741	00000000	00000013	addi	x0,x0,0	  x0:0x00000000
       17435000	      1742	80000ac4	00000013	addi	x0,x0,0	  x0:0x00000000
       17445000	      1743	80000ac8	fd1ff2ef	jal	x5,80000ac8	  x5=0x80000ac8
       17455000	      1744	00000000	00000013	addi	x0,x0,0	  x0:0x00000000
       17465000	      1745	80000a94	00000013	addi	x0,x0,0	  x0:0x00000000
       17475000	      1746	80000a98	01c000ef	jal	x1,80000a98	  x1=0x80000a98
       17485000	      1747	00000000	00000013	addi	x0,x0,0	  x0:0x00000000
       17495000	      1748	80000ab0	00000013	addi	x0,x0,0	  x0:0x00000000
       17505000	      1749	80000ab4	03c000ef	jal	x1,80000ab4	  x1=0x80000ab4
       17515000	      1750	00000000	00000013	addi	x0,x0,0	  x0:0x00000000
       17525000	      1751	80000aec	00000013	addi	x0,x0,0	  x0:0x00000000
       17535000	      1752	80000af0	fe1ff0ef	jal	x1,80000af0	  x1=0x80000af0
       17545000	      1753	00000000	00000013	addi	x0,x0,0	  x0:0x00000000
       17555000	      1754	80000acc	00000013	addi	x0,x0,0	  x0:0x00000000
       17565000	      1755	80000ad0	fc5ff46f	jal	x8,80000ad0	  x8=0x80000ad0
       17575000	      1756	00000000	00000013	addi	x0,x0,0	  x0:0x00000000
       17585000	      1757	80000a90	00000013	addi	x0,x0,0	  x0:0x00000000
       17595000	      1758	80000a94	010000ef	jal	x1,80000a94	  x1=0x80000a94
       17605000	      1759	00000000	00000013	addi	x0,x0,0	  x0:0x00000000
       17615000	      1760	80000aa0	00000013	addi	x0,x0,0	  x0:0x00000000
       17625000	      1761	80000aa4	004000ef	jal	x1,80000aa4	  x1=0x80000aa4
       17635000	      1762	00000000	00000013	addi	x0,x0,0	  x0:0x00000000
       17645000	      1763	80000aa4	00000013	addi	x0,x0,0	  x0:0x00000000
       17655000	      1764	80000aa8	030000ef	jal	x1,80000aa8	  x1=0x80000aa8
       17665000	      1765	00000000	00000013	addi	x0,x0,0	  x0:0x00000000
       17675000	      1766	80000ad4	00000013	addi	x0,x0,0	  x0:0x00000000
       17685000	      1767	80000ad8	fedff0ef	jal	x1,80000ad8	  x1=0x80000ad8
       17695000	      1768	00000000	00000013	addi	x0,x0,0	  x0:0x00000000
       17705000	      1769	80000ac0	00000013	addi	x0,x0,0	  x0:0x00000000
       17715000	      1770	80000ac4	028000ef	jal	x1,80000ac4	  x1=0x80000ac4
       17725000	      1771	00000000	00000013	addi	x0,x0,0	  x0:0x00000000
       17735000	      1772	80000ae8	00000013	addi	x0,x0,0	  x0:0x00000000
       17745000	      1773	80000aec	fd1ff8ef	jal	x17,80000aec	 x17=0x80000aec
       17755000	      1774	00000000	00000013	addi	x0,x0,0	  x0:0x00000000
       17765000	      1775	80000ab8	00000013	addi	x0,x0,0	  x0:0x00000000
       17775000	      1776	80000abc	fd1ff76f	jal	x14,80000abc	 x14=0x80000abc
       17785000	      1777	00000000	00000013	addi	x0,x0,0	  x0:0x00000000
       17795000	      1778	80000a88	00000013	addi	x0,x0,0	  x0:0x00000000
       17805000	      1779	80000a8c	05c000ef	jal	x1,80000a8c	  x1=0x80000a8c
       17815000	      1780	00000000	00000013	addi	x0,x0,0	  x0:0x00000000
       17825000	      1781	80000ae4	00000013	addi	x0,x0,0	  x0:0x00000000
       17835000	      1782	80000ae8	ff5ff0ef	jal	x1,80000ae8	  x1=0x80000ae8
       17845000	      1783	00000000	00000013	addi	x0,x0,0	  x0:0x00000000
       17855000	      1784	80000ad8	00000013	addi	x0,x0,0	  x0:0x00000000
       17865000	      1785	80000adc	fd1ff0ef	jal	x1,80000adc	  x1=0x80000adc
       17875000	      1786	00000000	00000013	addi	x0,x0,0	  x0:0x00000000
       17885000	      1787	80000aa8	00000013	addi	x0,x0,0	  x0:0x00000000
       17895000	      1788	80000aac	ff1ff1ef	jal	x3,80000aac	  x3=0x80000aac
       17905000	      1789	00000000	00000013	addi	x0,x0,0	  x0:0x00000000
       17915000	      1790	80000a98	00000013	addi	x0,x0,0	  x0:0x00000000
       17925000	      1791	80000a9c	fedff0ef	jal	x1,80000a9c	  x1=0x80000a9c
       17935000	      1792	00000000	00000013	addi	x0,x0,0	  x0:0x00000000
       17945000	      1793	80000a84	00000013	addi	x0,x0,0	  x0:0x00000000
       17955000	      1794	80000a88	04c000ef	jal	x1,80000a88	  x1=0x80000a88
       17965000	      1795	00000000	00000013	addi	x0,x0,0	  x0:0x00000000
       17975000	      1796	80000ad0	00000013	addi	x0,x0,0	  x0:0x00000000
       17985000	      1797	80000ad4	fedff0ef	jal	x1,80000ad4	  x1=0x80000ad4
       17995000	      1798	00000000	00000013	addi	x0,x0,0	  x0:0x00000000
       18005000	      1799	80000abc	00000013	addi	x0,x0,0	  x0:0x00000000
       18015000	      1800	80000ac0	02000aef	jal	x21,80000ac0	 x21=0x80000ac0
       18025000	      1801	00000000	00000013	addi	x0,x0,0	  x0:0x00000000
       18035000	      1802	80000adc	00000013	addi	x0,x0,0	  x0:0x00000000
       18045000	      1803	80000ae0	018000ef	jal	x1,80000ae0	  x1=0x80000ae0
       18055000	      1804	00000000	00000013	addi	x0,x0,0	  x0:0x00000000
       18065000	      1805	80000af4	00000013	addi	x0,x0,0	  x0:0x00000000
       18075000	      1806	80000af8	fd5ff0ef	jal	x1,80000af8	  x1=0x80000af8
       18085000	      1807	00000000	00000013	addi	x0,x0,0	  x0:0x00000000
       18095000	      1808	80000ac8	00000013	addi	x0,x0,0	  x0:0x00000000
       18105000	      1809	80000acc	030000ef	jal	x1,80000acc	  x1=0x80000acc
       18115000	      1810	00000000	00000013	addi	x0,x0,0	  x0:0x00000000
       18125000	      1811	80000af8	00000013	addi	x0,x0,0	  x0:0x00000000
       18135000	      1812	80000afc	000bf633	and	x12,x23,x0	 x23:0x80000898  x0:0x00000000 x12=0x00000000
       18145000	      1813	80000b00	02000d6f	jal	x26,80000b00	 x26=0x80000b00
       18155000	      1814	00000000	00000013	addi	x0,x0,0	  x0:0x00000000
       18165000	      1815	80000b1c	00000013	addi	x0,x0,0	  x0:0x00000000
       18175000	      1816	80000b20	ffdff8ef	jal	x17,80000b20	 x17=0x80000b20
       18185000	      1817	00000000	00000013	addi	x0,x0,0	  x0:0x00000000
       18195000	      1818	80000b18	00000013	addi	x0,x0,0	  x0:0x00000000
       18205000	      1819	80000b1c	ff9ff26f	jal	x4,80000b1c	  x4=0x80000b1c
       18215000	      1820	00000000	00000013	addi	x0,x0,0	  x0:0x00000000
       18225000	      1821	80000b10	00000013	addi	x0,x0,0	  x0:0x00000000
       18235000	      1822	80000b14	ff1ff0ef	jal	x1,80000b14	  x1=0x80000b14
       18245000	      1823	00000000	00000013	addi	x0,x0,0	  x0:0x00000000
       18255000	      1824	80000b00	00000013	addi	x0,x0,0	  x0:0x00000000
       18265000	      1825	80000b04	00c000ef	jal	x1,80000b04	  x1=0x80000b04
       18275000	      1826	00000000	00000013	addi	x0,x0,0	  x0:0x00000000
       18285000	      1827	80000b0c	00000013	addi	x0,x0,0	  x0:0x00000000
       18295000	      1828	80000b10	018000ef	jal	x1,80000b10	  x1=0x80000b10
       18305000	      1829	00000000	00000013	addi	x0,x0,0	  x0:0x00000000
       18315000	      1830	80000b24	00000013	addi	x0,x0,0	  x0:0x00000000
       18325000	      1831	80000b28	ffdff1ef	jal	x3,80000b28	  x3=0x80000b28
       18335000	      1832	00000000	00000013	addi	x0,x0,0	  x0:0x00000000
       18345000	      1833	80000b20	00000013	addi	x0,x0,0	  x0:0x00000000
       18355000	      1834	80000b24	0080026f	jal	x4,80000b24	  x4=0x80000b24
       18365000	      1835	00000000	00000013	addi	x0,x0,0	  x0:0x00000000
       18375000	      1836	80000b28	00000013	addi	x0,x0,0	  x0:0x00000000
       18385000	      1837	80000b2c	fedff0ef	jal	x1,80000b2c	  x1=0x80000b2c
       18395000	      1838	00000000	00000013	addi	x0,x0,0	  x0:0x00000000
       18405000	      1839	80000b14	00000013	addi	x0,x0,0	  x0:0x00000000
       18415000	      1840	80000b18	ff1ff8ef	jal	x17,80000b18	 x17=0x80000b18
       18425000	      1841	00000000	00000013	addi	x0,x0,0	  x0:0x00000000
       18435000	      1842	80000b04	00000013	addi	x0,x0,0	  x0:0x00000000
       18445000	      1843	80000b08	0040016f	jal	x2,80000b08	  x2=0x80000b08
       18455000	      1844	00000000	00000013	addi	x0,x0,0	  x0:0x00000000
       18465000	      1845	80000b08	00000013	addi	x0,x0,0	  x0:0x00000000
       18475000	      1846	80000b0c	024000ef	jal	x1,80000b0c	  x1=0x80000b0c
       18485000	      1847	00000000	00000013	addi	x0,x0,0	  x0:0x00000000
       18495000	      1848	80000b2c	00000013	addi	x0,x0,0	  x0:0x00000000
       18505000	      1849	80000b30	404e5a13	srai	x20,x28,0x4	 x28:0xfffff800 x20=0xffffff80
       18515000	      1850	80000b34	04000d6f	jal	x26,80000b34	 x26=0x80000b34
       18525000	      1851	00000000	00000013	addi	x0,x0,0	  x0:0x00000000
       18535000	      1852	80000b70	00000013	addi	x0,x0,0	  x0:0x00000000
       18545000	      1853	80000b74	fedff9ef	jal	x19,80000b74	 x19=0x80000b74
       18555000	      1854	00000000	00000013	addi	x0,x0,0	  x0:0x00000000
       18565000	      1855	80000b5c	00000013	addi	x0,x0,0	  x0:0x00000000
       18575000	      1856	80000b60	ff1ff1ef	jal	x3,80000b60	  x3=0x80000b60
       18585000	      1857	00000000	00000013	addi	x0,x0,0	  x0:0x00000000
       18595000	      1858	80000b4c	00000013	addi	x0,x0,0	  x0:0x00000000
       18605000	      1859	80000b50	ff1ff0ef	jal	x1,80000b50	  x1=0x80000b50
       18615000	      1860	00000000	00000013	addi	x0,x0,0	  x0:0x00000000
       18625000	      1861	80000b3c	00000013	addi	x0,x0,0	  x0:0x00000000
       18635000	      1862	80000b40	004000ef	jal	x1,80000b40	  x1=0x80000b40
       18645000	      1863	00000000	00000013	addi	x0,x0,0	  x0:0x00000000
       18655000	      1864	80000b40	00000013	addi	x0,x0,0	  x0:0x00000000
       18665000	      1865	80000b44	010000ef	jal	x1,80000b44	  x1=0x80000b44
       18675000	      1866	00000000	00000013	addi	x0,x0,0	  x0:0x00000000
       18685000	      1867	80000b50	00000013	addi	x0,x0,0	  x0:0x00000000
       18695000	      1868	80000b54	ff9ff86f	jal	x16,80000b54	 x16=0x80000b54
       18705000	      1869	00000000	00000013	addi	x0,x0,0	  x0:0x00000000
       18715000	      1870	80000b48	00000013	addi	x0,x0,0	  x0:0x00000000
       18725000	      1871	80000b4c	018002ef	jal	x5,80000b4c	  x5=0x80000b4c
       18735000	      1872	00000000	00000013	addi	x0,x0,0	  x0:0x00000000
       18745000	      1873	80000b60	00000013	addi	x0,x0,0	  x0:0x00000000
       18755000	      1874	80000b64	008000ef	jal	x1,80000b64	  x1=0x80000b64
       18765000	      1875	00000000	00000013	addi	x0,x0,0	  x0:0x00000000
       18775000	      1876	80000b68	00000013	addi	x0,x0,0	  x0:0x00000000
       18785000	      1877	80000b6c	fd1ff1ef	jal	x3,80000b6c	  x3=0x80000b6c
       18795000	      1878	00000000	00000013	addi	x0,x0,0	  x0:0x00000000
       18805000	      1879	80000b38	00000013	addi	x0,x0,0	  x0:0x00000000
       18815000	      1880	80000b3c	034005ef	jal	x11,80000b3c	 x11=0x80000b3c
       18825000	      1881	00000000	00000013	addi	x0,x0,0	  x0:0x00000000
       18835000	      1882	80000b6c	00000013	addi	x0,x0,0	  x0:0x00000000
       18845000	      1883	80000b70	fd9ff0ef	jal	x1,80000b70	  x1=0x80000b70
       18855000	      1884	00000000	00000013	addi	x0,x0,0	  x0:0x00000000
       18865000	      1885	80000b44	00000013	addi	x0,x0,0	  x0:0x00000000
       18875000	      1886	80000b48	0200026f	jal	x4,80000b48	  x4=0x80000b48
       18885000	      1887	00000000	00000013	addi	x0,x0,0	  x0:0x00000000
       18895000	      1888	80000b64	00000013	addi	x0,x0,0	  x0:0x00000000
       18905000	      1889	80000b68	ff1ff0ef	jal	x1,80000b68	  x1=0x80000b68
       18915000	      1890	00000000	00000013	addi	x0,x0,0	  x0:0x00000000
       18925000	      1891	80000b54	00000013	addi	x0,x0,0	  x0:0x00000000
       18935000	      1892	80000b58	004000ef	jal	x1,80000b58	  x1=0x80000b58
       18945000	      1893	00000000	00000013	addi	x0,x0,0	  x0:0x00000000
       18955000	      1894	80000b58	00000013	addi	x0,x0,0	  x0:0x00000000
       18965000	      1895	80000b5c	fddff0ef	jal	x1,80000b5c	  x1=0x80000b5c
       18975000	      1896	00000000	00000013	addi	x0,x0,0	  x0:0x00000000
       18985000	      1897	80000b34	00000013	addi	x0,x0,0	  x0:0x00000000
       18995000	      1898	80000b38	040000ef	jal	x1,80000b38	  x1=0x80000b38
       19005000	      1899	00000000	00000013	addi	x0,x0,0	  x0:0x00000000
       19015000	      1900	80000b74	00000013	addi	x0,x0,0	  x0:0x00000000
       19025000	      1901	80000b78	00ee02b3	add	x5,x28,x14	 x28:0xfffff800 x14:0x80000abc  x5=0x800002bc
       19035000	      1902	80000b7c	03c00d6f	jal	x26,80000b7c	 x26=0x80000b7c
       19045000	      1903	00000000	00000013	addi	x0,x0,0	  x0:0x00000000
       19055000	      1904	80000bb4	00000013	addi	x0,x0,0	  x0:0x00000000
       19065000	      1905	80000bb8	ff1ff0ef	jal	x1,80000bb8	  x1=0x80000bb8
       19075000	      1906	00000000	00000013	addi	x0,x0,0	  x0:0x00000000
       19085000	      1907	80000ba4	00000013	addi	x0,x0,0	  x0:0x00000000
       19095000	      1908	80000ba8	0040026f	jal	x4,80000ba8	  x4=0x80000ba8
       19105000	      1909	00000000	00000013	addi	x0,x0,0	  x0:0x00000000
       19115000	      1910	80000ba8	00000013	addi	x0,x0,0	  x0:0x00000000
       19125000	      1911	80000bac	0040016f	jal	x2,80000bac	  x2=0x80000bac
       19135000	      1912	00000000	00000013	addi	x0,x0,0	  x0:0x00000000
       19145000	      1913	80000bac	00000013	addi	x0,x0,0	  x0:0x00000000
       19155000	      1914	80000bb0	ff1ff0ef	jal	x1,80000bb0	  x1=0x80000bb0
       19165000	      1915	00000000	00000013	addi	x0,x0,0	  x0:0x00000000
       19175000	      1916	80000b9c	00000013	addi	x0,x0,0	  x0:0x00000000
       19185000	      1917	80000ba0	fe9ff0ef	jal	x1,80000ba0	  x1=0x80000ba0
       19195000	      1918	00000000	00000013	addi	x0,x0,0	  x0:0x00000000
       19205000	      1919	80000b84	00000013	addi	x0,x0,0	  x0:0x00000000
       19215000	      1920	80000b88	014000ef	jal	x1,80000b88	  x1=0x80000b88
       19225000	      1921	00000000	00000013	addi	x0,x0,0	  x0:0x00000000
       19235000	      1922	80000b98	00000013	addi	x0,x0,0	  x0:0x00000000
       19245000	      1923	80000b9c	020000ef	jal	x1,80000b9c	  x1=0x80000b9c
       19255000	      1924	00000000	00000013	addi	x0,x0,0	  x0:0x00000000
       19265000	      1925	80000bb8	00000013	addi	x0,x0,0	  x0:0x00000000
       19275000	      1926	80000bbc	008000ef	jal	x1,80000bbc	  x1=0x80000bbc
       19285000	      1927	00000000	00000013	addi	x0,x0,0	  x0:0x00000000
       19295000	      1928	80000bc0	00000013	addi	x0,x0,0	  x0:0x00000000
       19305000	      1929	80000bc4	fc9ff0ef	jal	x1,80000bc4	  x1=0x80000bc4
       19315000	      1930	00000000	00000013	addi	x0,x0,0	  x0:0x00000000
       19325000	      1931	80000b88	00000013	addi	x0,x0,0	  x0:0x00000000
       19335000	      1932	80000b8c	0180026f	jal	x4,80000b8c	  x4=0x80000b8c
       19345000	      1933	00000000	00000013	addi	x0,x0,0	  x0:0x00000000
       19355000	      1934	80000ba0	00000013	addi	x0,x0,0	  x0:0x00000000
       19365000	      1935	80000ba4	fedff0ef	jal	x1,80000ba4	  x1=0x80000ba4
       19375000	      1936	00000000	00000013	addi	x0,x0,0	  x0:0x00000000
       19385000	      1937	80000b8c	00000013	addi	x0,x0,0	  x0:0x00000000
       19395000	      1938	80000b90	024000ef	jal	x1,80000b90	  x1=0x80000b90
       19405000	      1939	00000000	00000013	addi	x0,x0,0	  x0:0x00000000
       19415000	      1940	80000bb0	00000013	addi	x0,x0,0	  x0:0x00000000
       19425000	      1941	80000bb4	fd1ff0ef	jal	x1,80000bb4	  x1=0x80000bb4
       19435000	      1942	00000000	00000013	addi	x0,x0,0	  x0:0x00000000
       19445000	      1943	80000b80	00000013	addi	x0,x0,0	  x0:0x00000000
       19455000	      1944	80000b84	014000ef	jal	x1,80000b84	  x1=0x80000b84
       19465000	      1945	00000000	00000013	addi	x0,x0,0	  x0:0x00000000
       19475000	      1946	80000b94	00000013	addi	x0,x0,0	  x0:0x00000000
       19485000	      1947	80000b98	030000ef	jal	x1,80000b98	  x1=0x80000b98
       19495000	      1948	00000000	00000013	addi	x0,x0,0	  x0:0x00000000
       19505000	      1949	80000bc4	00000013	addi	x0,x0,0	  x0:0x00000000
       19515000	      1950	80000bc8	fb9ffdef	jal	x27,80000bc8	 x27=0x80000bc8
       19525000	      1951	00000000	00000013	addi	x0,x0,0	  x0:0x00000000
       19535000	      1952	80000b7c	00000013	addi	x0,x0,0	  x0:0x00000000
       19545000	      1953	80000b80	014000ef	jal	x1,80000b80	  x1=0x80000b80
       19555000	      1954	00000000	00000013	addi	x0,x0,0	  x0:0x00000000
       19565000	      1955	80000b90	00000013	addi	x0,x0,0	  x0:0x00000000
       19575000	      1956	80000b94	02c000ef	jal	x1,80000b94	  x1=0x80000b94
       19585000	      1957	00000000	00000013	addi	x0,x0,0	  x0:0x00000000
       19595000	      1958	80000bbc	00000013	addi	x0,x0,0	  x0:0x00000000
       19605000	      1959	80000bc0	00c0076f	jal	x14,80000bc0	 x14=0x80000bc0
       19615000	      1960	00000000	00000013	addi	x0,x0,0	  x0:0x00000000
       19625000	      1961	80000bc8	00000013	addi	x0,x0,0	  x0:0x00000000
       19635000	      1962	80000bcc	01109b93	slli	x23,x1,0x11	  x1:0x80000b94 x23=0x17280000
       19645000	      1963	80000bd0	03c00d6f	jal	x26,80000bd0	 x26=0x80000bd0
       19655000	      1964	00000000	00000013	addi	x0,x0,0	  x0:0x00000000
       19665000	      1965	80000c08	00000013	addi	x0,x0,0	  x0:0x00000000
       19675000	      1966	80000c0c	fd9ff0ef	jal	x1,80000c0c	  x1=0x80000c0c
       19685000	      1967	00000000	00000013	addi	x0,x0,0	  x0:0x00000000
       19695000	      1968	80000be0	00000013	addi	x0,x0,0	  x0:0x00000000
       19705000	      1969	80000be4	0180026f	jal	x4,80000be4	  x4=0x80000be4
       19715000	      1970	00000000	00000013	addi	x0,x0,0	  x0:0x00000000
       19725000	      1971	80000bf8	00000013	addi	x0,x0,0	  x0:0x00000000
       19735000	      1972	80000bfc	ff9ff4ef	jal	x9,80000bfc	  x9=0x80000bfc
       19745000	      1973	00000000	00000013	addi	x0,x0,0	  x0:0x00000000
       19755000	      1974	80000bf0	00000013	addi	x0,x0,0	  x0:0x00000000
       19765000	      1975	80000bf4	fe1ff16f	jal	x2,80000bf4	  x2=0x80000bf4
       19775000	      1976	00000000	00000013	addi	x0,x0,0	  x0:0x00000000
       19785000	      1977	80000bd0	00000013	addi	x0,x0,0	  x0:0x00000000
       19795000	      1978	80000bd4	00c000ef	jal	x1,80000bd4	  x1=0x80000bd4
       19805000	      1979	00000000	00000013	addi	x0,x0,0	  x0:0x00000000
       19815000	      1980	80000bdc	00000013	addi	x0,x0,0	  x0:0x00000000
       19825000	      1981	80000be0	04000aef	jal	x21,80000be0	 x21=0x80000be0
       19835000	      1982	00000000	00000013	addi	x0,x0,0	  x0:0x00000000
       19845000	      1983	80000c1c	00000013	addi	x0,x0,0	  x0:0x00000000
       19855000	      1984	80000c20	fbdff66f	jal	x12,80000c20	 x12=0x80000c20
       19865000	      1985	00000000	00000013	addi	x0,x0,0	  x0:0x00000000
       19875000	      1986	80000bd8	00000013	addi	x0,x0,0	  x0:0x00000000
       19885000	      1987	80000bdc	03c000ef	jal	x1,80000bdc	  x1=0x80000bdc
       19895000	      1988	00000000	00000013	addi	x0,x0,0	  x0:0x00000000
       19905000	      1989	80000c14	00000013	addi	x0,x0,0	  x0:0x00000000
       19915000	      1990	80000c18	fe9ff0ef	jal	x1,80000c18	  x1=0x80000c18
       19925000	      1991	00000000	00000013	addi	x0,x0,0	  x0:0x00000000
       19935000	      1992	80000bfc	00000013	addi	x0,x0,0	  x0:0x00000000
       19945000	      1993	80000c00	fe9ff0ef	jal	x1,80000c00	  x1=0x80000c00
       19955000	      1994	00000000	00000013	addi	x0,x0,0	  x0:0x00000000
       19965000	      1995	80000be4	00000013	addi	x0,x0,0	  x0:0x00000000
       19975000	      1996	80000be8	02c000ef	jal	x1,80000be8	  x1=0x80000be8
       19985000	      1997	00000000	00000013	addi	x0,x0,0	  x0:0x00000000
       19995000	      1998	80000c10	00000013	addi	x0,x0,0	  x0:0x00000000
       20005000	      1999	80000c14	008000ef	jal	x1,80000c14	  x1=0x80000c14
       20015000	      2000	00000000	00000013	addi	x0,x0,0	  x0:0x00000000
       20025000	      2001	80000c18	00000013	addi	x0,x0,0	  x0:0x00000000
       20035000	      2002	80000c1c	fd5ffdef	jal	x27,80000c1c	 x27=0x80000c1c
       20045000	      2003	00000000	00000013	addi	x0,x0,0	  x0:0x00000000
       20055000	      2004	80000bec	00000013	addi	x0,x0,0	  x0:0x00000000
       20065000	      2005	80000bf0	fe9ff0ef	jal	x1,80000bf0	  x1=0x80000bf0
       20075000	      2006	00000000	00000013	addi	x0,x0,0	  x0:0x00000000
       20085000	      2007	80000bd4	00000013	addi	x0,x0,0	  x0:0x00000000
       20095000	      2008	80000bd8	030000ef	jal	x1,80000bd8	  x1=0x80000bd8
       20105000	      2009	00000000	00000013	addi	x0,x0,0	  x0:0x00000000
       20115000	      2010	80000c04	00000013	addi	x0,x0,0	  x0:0x00000000
       20125000	      2011	80000c08	fe5ff2ef	jal	x5,80000c08	  x5=0x80000c08
       20135000	      2012	00000000	00000013	addi	x0,x0,0	  x0:0x00000000
       20145000	      2013	80000be8	00000013	addi	x0,x0,0	  x0:0x00000000
       20155000	      2014	80000bec	018000ef	jal	x1,80000bec	  x1=0x80000bec
       20165000	      2015	00000000	00000013	addi	x0,x0,0	  x0:0x00000000
       20175000	      2016	80000c00	00000013	addi	x0,x0,0	  x0:0x00000000
       20185000	      2017	80000c04	00c0096f	jal	x18,80000c04	 x18=0x80000c04
       20195000	      2018	00000000	00000013	addi	x0,x0,0	  x0:0x00000000
       20205000	      2019	80000c0c	00000013	addi	x0,x0,0	  x0:0x00000000
       20215000	      2020	80000c10	fe9ffeef	jal	x29,80000c10	 x29=0x80000c10
       20225000	      2021	00000000	00000013	addi	x0,x0,0	  x0:0x00000000
       20235000	      2022	80000bf4	00000013	addi	x0,x0,0	  x0:0x00000000
       20245000	      2023	80000bf8	02c000ef	jal	x1,80000bf8	  x1=0x80000bf8
       20255000	      2024	00000000	00000013	addi	x0,x0,0	  x0:0x00000000
       20265000	      2025	80000c20	00000013	addi	x0,x0,0	  x0:0x00000000
       20275000	      2026	80000c24	01cc0e33	add	x28,x24,x28	 x24:0x80000a44 x28:0xfffff800 x28=0x80000244
       20285000	      2027	80000c28	02400d6f	jal	x26,80000c28	 x26=0x80000c28
       20295000	      2028	00000000	00000013	addi	x0,x0,0	  x0:0x00000000
       20305000	      2029	80000c48	00000013	addi	x0,x0,0	  x0:0x00000000
       20315000	      2030	80000c4c	fe1ff26f	jal	x4,80000c4c	  x4=0x80000c4c
       20325000	      2031	00000000	00000013	addi	x0,x0,0	  x0:0x00000000
       20335000	      2032	80000c28	00000013	addi	x0,x0,0	  x0:0x00000000
       20345000	      2033	80000c2c	01c0016f	jal	x2,80000c2c	  x2=0x80000c2c
       20355000	      2034	00000000	00000013	addi	x0,x0,0	  x0:0x00000000
       20365000	      2035	80000c44	00000013	addi	x0,x0,0	  x0:0x00000000
       20375000	      2036	80000c48	ffdfffef	jal	x31,80000c48	 x31=0x80000c48
       20385000	      2037	00000000	00000013	addi	x0,x0,0	  x0:0x00000000
       20395000	      2038	80000c40	00000013	addi	x0,x0,0	  x0:0x00000000
       20405000	      2039	80000c44	ff5ff1ef	jal	x3,80000c44	  x3=0x80000c44
       20415000	      2040	00000000	00000013	addi	x0,x0,0	  x0:0x00000000
       20425000	      2041	80000c34	00000013	addi	x0,x0,0	  x0:0x00000000
       20435000	      2042	80000c38	01800bef	jal	x23,80000c38	 x23=0x80000c38
       20445000	      2043	00000000	00000013	addi	x0,x0,0	  x0:0x00000000
       20455000	      2044	80000c4c	00000013	addi	x0,x0,0	  x0:0x00000000
       20465000	      2045	80000c50	fe5ff0ef	jal	x1,80000c50	  x1=0x80000c50
       20475000	      2046	00000000	00000013	addi	x0,x0,0	  x0:0x00000000
       20485000	      2047	80000c30	00000013	addi	x0,x0,0	  x0:0x00000000
       20495000	      2048	80000c34	ffdff0ef	jal	x1,80000c34	  x1=0x80000c34
       20505000	      2049	00000000	00000013	addi	x0,x0,0	  x0:0x00000000
       20515000	      2050	80000c2c	00000013	addi	x0,x0,0	  x0:0x00000000
       20525000	      2051	80000c30	00c001ef	jal	x3,80000c30	  x3=0x80000c30
       20535000	      2052	00000000	00000013	addi	x0,x0,0	  x0:0x00000000
       20545000	      2053	80000c38	00000013	addi	x0,x0,0	  x0:0x00000000
       20555000	      2054	80000c3c	004002ef	jal	x5,80000c3c	  x5=0x80000c3c
       20565000	      2055	00000000	00000013	addi	x0,x0,0	  x0:0x00000000
       20575000	      2056	80000c3c	00000013	addi	x0,x0,0	  x0:0x00000000
       20585000	      2057	80000c40	014000ef	jal	x1,80000c40	  x1=0x80000c40
       20595000	      2058	00000000	00000013	addi	x0,x0,0	  x0:0x00000000
       20605000	      2059	80000c50	00000013	addi	x0,x0,0	  x0:0x00000000
       20615000	      2060	80000c54	84e5a597	auipc	x11,0x84e5a	 x11=0x04e5ac50
       20625000	      2061	80000c58	00400d6f	jal	x26,80000c58	 x26=0x80000c58
       20635000	      2062	00000000	00000013	addi	x0,x0,0	  x0:0x00000000
       20645000	      2063	80000c58	00000013	addi	x0,x0,0	  x0:0x00000000
       20655000	      2064	80000c5c	0600026f	jal	x4,80000c5c	  x4=0x80000c5c
       20665000	      2065	00000000	00000013	addi	x0,x0,0	  x0:0x00000000
       20675000	      2066	80000cb8	00000013	addi	x0,x0,0	  x0:0x00000000
       20685000	      2067	80000cbc	fadffc6f	jal	x24,80000cbc	 x24=0x80000cbc
       20695000	      2068	00000000	00000013	addi	x0,x0,0	  x0:0x00000000
       20705000	      2069	80000c64	00000013	addi	x0,x0,0	  x0:0x00000000
       20715000	      2070	80000c68	0380086f	jal	x16,80000c68	 x16=0x80000c68
       20725000	      2071	00000000	00000013	addi	x0,x0,0	  x0:0x00000000
       20735000	      2072	80000c9c	00000013	addi	x0,x0,0	  x0:0x00000000
       20745000	      2073	80000ca0	ff9ff0ef	jal	x1,80000ca0	  x1=0x80000ca0
       20755000	      2074	00000000	00000013	addi	x0,x0,0	  x0:0x00000000
       20765000	      2075	80000c94	00000013	addi	x0,x0,0	  x0:0x00000000
       20775000	      2076	80000c98	ff9ff0ef	jal	x1,80000c98	  x1=0x80000c98
       20785000	      2077	00000000	00000013	addi	x0,x0,0	  x0:0x00000000
       20795000	      2078	80000c8c	00000013	addi	x0,x0,0	  x0:0x00000000
       20805000	      2079	80000c90	fe9ffe6f	jal	x28,80000c90	 x28=0x80000c90
       20815000	      2080	00000000	00000013	addi	x0,x0,0	  x0:0x00000000
       20825000	      2081	80000c74	00000013	addi	x0,x0,0	  x0:0x00000000
       20835000	      2082	80000c78	038000ef	jal	x1,80000c78	  x1=0x80000c78
       20845000	      2083	00000000	00000013	addi	x0,x0,0	  x0:0x00000000
       20855000	      2084	80000cac	00000013	addi	x0,x0,0	  x0:0x00000000
       20865000	      2085	80000cb0	ff9ff0ef	jal	x1,80000cb0	  x1=0x80000cb0
       20875000	      2086	00000000	00000013	addi	x0,x0,0	  x0:0x00000000
       20885000	      2087	80000ca4	00000013	addi	x0,x0,0	  x0:0x00000000
       20895000	      2088	80000ca8	fc5ff0ef	jal	x1,80000ca8	  x1=0x80000ca8
       20905000	      2089	00000000	00000013	addi	x0,x0,0	  x0:0x00000000
       20915000	      2090	80000c68	00000013	addi	x0,x0,0	  x0:0x00000000
       20925000	      2091	80000c6c	008000ef	jal	x1,80000c6c	  x1=0x80000c6c
       20935000	      2092	00000000	00000013	addi	x0,x0,0	  x0:0x00000000
       20945000	      2093	80000c70	00000013	addi	x0,x0,0	  x0:0x00000000
       20955000	      2094	80000c74	030002ef	jal	x5,80000c74	  x5=0x80000c74
       20965000	      2095	00000000	00000013	addi	x0,x0,0	  x0:0x00000000
       20975000	      2096	80000ca0	00000013	addi	x0,x0,0	  x0:0x00000000
       20985000	      2097	80000ca4	01400bef	jal	x23,80000ca4	 x23=0x80000ca4
       20995000	      2098	00000000	00000013	addi	x0,x0,0	  x0:0x00000000
       21005000	      2099	80000cb4	00000013	addi	x0,x0,0	  x0:0x00000000
       21015000	      2100	80000cb8	fddffbef	jal	x23,80000cb8	 x23=0x80000cb8
       21025000	      2101	00000000	00000013	addi	x0,x0,0	  x0:0x00000000
       21035000	      2102	80000c90	00000013	addi	x0,x0,0	  x0:0x00000000
       21045000	      2103	80000c94	ff9ff0ef	jal	x1,80000c94	  x1=0x80000c94
       21055000	      2104	00000000	00000013	addi	x0,x0,0	  x0:0x00000000
       21065000	      2105	80000c88	00000013	addi	x0,x0,0	  x0:0x00000000
       21075000	      2106	80000c8c	028000ef	jal	x1,80000c8c	  x1=0x80000c8c
       21085000	      2107	00000000	00000013	addi	x0,x0,0	  x0:0x00000000
       21095000	      2108	80000cb0	00000013	addi	x0,x0,0	  x0:0x00000000
       21105000	      2109	80000cb4	fd5ff0ef	jal	x1,80000cb4	  x1=0x80000cb4
       21115000	      2110	00000000	00000013	addi	x0,x0,0	  x0:0x00000000
       21125000	      2111	80000c84	00000013	addi	x0,x0,0	  x0:0x00000000
       21135000	      2112	80000c88	fddff0ef	jal	x1,80000c88	  x1=0x80000c88
       21145000	      2113	00000000	00000013	addi	x0,x0,0	  x0:0x00000000
       21155000	      2114	80000c60	00000013	addi	x0,x0,0	  x0:0x00000000
       21165000	      2115	80000c64	ffdffe6f	jal	x28,80000c64	 x28=0x80000c64
       21175000	      2116	00000000	00000013	addi	x0,x0,0	  x0:0x00000000
       21185000	      2117	80000c5c	00000013	addi	x0,x0,0	  x0:0x00000000
       21195000	      2118	80000c60	060000ef	jal	x1,80000c60	  x1=0x80000c60
       21205000	      2119	00000000	00000013	addi	x0,x0,0	  x0:0x00000000
       21215000	      2120	80000cbc	00000013	addi	x0,x0,0	  x0:0x00000000
       21225000	      2121	80000cc0	fedffaef	jal	x21,80000cc0	 x21=0x80000cc0
       21235000	      2122	00000000	00000013	addi	x0,x0,0	  x0:0x00000000
       21245000	      2123	80000ca8	00000013	addi	x0,x0,0	  x0:0x00000000
       21255000	      2124	80000cac	fd5ff86f	jal	x16,80000cac	 x16=0x80000cac
       21265000	      2125	00000000	00000013	addi	x0,x0,0	  x0:0x00000000
       21275000	      2126	80000c7c	00000013	addi	x0,x0,0	  x0:0x00000000
       21285000	      2127	80000c80	01c000ef	jal	x1,80000c80	  x1=0x80000c80
       21295000	      2128	00000000	00000013	addi	x0,x0,0	  x0:0x00000000
       21305000	      2129	80000c98	00000013	addi	x0,x0,0	  x0:0x00000000
       21315000	      2130	80000c9c	fd5fffef	jal	x31,80000c9c	 x31=0x80000c9c
       21325000	      2131	00000000	00000013	addi	x0,x0,0	  x0:0x00000000
       21335000	      2132	80000c6c	00000013	addi	x0,x0,0	  x0:0x00000000
       21345000	      2133	80000c70	014000ef	jal	x1,80000c70	  x1=0x80000c70
       21355000	      2134	00000000	00000013	addi	x0,x0,0	  x0:0x00000000
       21365000	      2135	80000c80	00000013	addi	x0,x0,0	  x0:0x00000000
       21375000	      2136	80000c84	ff9ffaef	jal	x21,80000c84	 x21=0x80000c84
       21385000	      2137	00000000	00000013	addi	x0,x0,0	  x0:0x00000000
       21395000	      2138	80000c78	00000013	addi	x0,x0,0	  x0:0x00000000
       21405000	      2139	80000c7c	048000ef	jal	x1,80000c7c	  x1=0x80000c7c
       21415000	      2140	00000000	00000013	addi	x0,x0,0	  x0:0x00000000
       21425000	      2141	80000cc0	00000013	addi	x0,x0,0	  x0:0x00000000
       21435000	      2142	80000cc4	011add93	srli	x27,x21,0x11	 x21:0x80000c84 x27=0x00004000
       21445000	      2143	80000cc8	03400d6f	jal	x26,80000cc8	 x26=0x80000cc8
       21455000	      2144	00000000	00000013	addi	x0,x0,0	  x0:0x00000000
       21465000	      2145	80000cf8	00000013	addi	x0,x0,0	  x0:0x00000000
       21475000	      2146	80000cfc	fd5ff66f	jal	x12,80000cfc	 x12=0x80000cfc
       21485000	      2147	00000000	00000013	addi	x0,x0,0	  x0:0x00000000
       21495000	      2148	80000ccc	00000013	addi	x0,x0,0	  x0:0x00000000
       21505000	      2149	80000cd0	038000ef	jal	x1,80000cd0	  x1=0x80000cd0
       21515000	      2150	00000000	00000013	addi	x0,x0,0	  x0:0x00000000
       21525000	      2151	80000d04	00000013	addi	x0,x0,0	  x0:0x00000000
       21535000	      2152	80000d08	fd5ff26f	jal	x4,80000d08	  x4=0x80000d08
       21545000	      2153	00000000	00000013	addi	x0,x0,0	  x0:0x00000000
       21555000	      2154	80000cd8	00000013	addi	x0,x0,0	  x0:0x00000000
       21565000	      2155	80000cdc	ffdff0ef	jal	x1,80000cdc	  x1=0x80000cdc
       21575000	      2156	00000000	00000013	addi	x0,x0,0	  x0:0x00000000
       21585000	      2157	80000cd4	00000013	addi	x0,x0,0	  x0:0x00000000
       21595000	      2158	80000cd8	038000ef	jal	x1,80000cd8	  x1=0x80000cd8
       21605000	      2159	00000000	00000013	addi	x0,x0,0	  x0:0x00000000
       21615000	      2160	80000d0c	00000013	addi	x0,x0,0	  x0:0x00000000
       21625000	      2161	80000d10	fbdff0ef	jal	x1,80000d10	  x1=0x80000d10
       21635000	      2162	00000000	00000013	addi	x0,x0,0	  x0:0x00000000
       21645000	      2163	80000cc8	00000013	addi	x0,x0,0	  x0:0x00000000
       21655000	      2164	80000ccc	02c0026f	jal	x4,80000ccc	  x4=0x80000ccc
       21665000	      2165	00000000	00000013	addi	x0,x0,0	  x0:0x00000000
       21675000	      2166	80000cf4	00000013	addi	x0,x0,0	  x0:0x00000000
       21685000	      2167	80000cf8	fedff0ef	jal	x1,80000cf8	  x1=0x80000cf8
       21695000	      2168	00000000	00000013	addi	x0,x0,0	  x0:0x00000000
       21705000	      2169	80000ce0	00000013	addi	x0,x0,0	  x0:0x00000000
       21715000	      2170	80000ce4	020000ef	jal	x1,80000ce4	  x1=0x80000ce4
       21725000	      2171	00000000	00000013	addi	x0,x0,0	  x0:0x00000000
       21735000	      2172	80000d00	00000013	addi	x0,x0,0	  x0:0x00000000
       21745000	      2173	80000d04	ffdff0ef	jal	x1,80000d04	  x1=0x80000d04
       21755000	      2174	00000000	00000013	addi	x0,x0,0	  x0:0x00000000
       21765000	      2175	80000cfc	00000013	addi	x0,x0,0	  x0:0x00000000
       21775000	      2176	80000d00	fe1ff0ef	jal	x1,80000d00	  x1=0x80000d00
       21785000	      2177	00000000	00000013	addi	x0,x0,0	  x0:0x00000000
       21795000	      2178	80000cdc	00000013	addi	x0,x0,0	  x0:0x00000000
       21805000	      2179	80000ce0	0380016f	jal	x2,80000ce0	  x2=0x80000ce0
       21815000	      2180	00000000	00000013	addi	x0,x0,0	  x0:0x00000000
       21825000	      2181	80000d14	00000013	addi	x0,x0,0	  x0:0x00000000
       21835000	      2182	80000d18	ffdffa6f	jal	x20,80000d18	 x20=0x80000d18
       21845000	      2183	00000000	00000013	addi	x0,x0,0	  x0:0x00000000
       21855000	      2184	80000d10	00000013	addi	x0,x0,0	  x0:0x00000000
       21865000	      2185	80000d14	fddff2ef	jal	x5,80000d14	  x5=0x80000d14
       21875000	      2186	00000000	00000013	addi	x0,x0,0	  x0:0x00000000
       21885000	      2187	80000cec	00000013	addi	x0,x0,0	  x0:0x00000000
       21895000	      2188	80000cf0	00400e6f	jal	x28,80000cf0	 x28=0x80000cf0
       21905000	      2189	00000000	00000013	addi	x0,x0,0	  x0:0x00000000
       21915000	      2190	80000cf0	00000013	addi	x0,x0,0	  x0:0x00000000
       21925000	      2191	80000cf4	018000ef	jal	x1,80000cf4	  x1=0x80000cf4
       21935000	      2192	00000000	00000013	addi	x0,x0,0	  x0:0x00000000
       21945000	      2193	80000d08	00000013	addi	x0,x0,0	  x0:0x00000000
       21955000	      2194	80000d0c	010000ef	jal	x1,80000d0c	  x1=0x80000d0c
       21965000	      2195	00000000	00000013	addi	x0,x0,0	  x0:0x00000000
       21975000	      2196	80000d18	00000013	addi	x0,x0,0	  x0:0x00000000
       21985000	      2197	80000d1c	fd1ff0ef	jal	x1,80000d1c	  x1=0x80000d1c
       21995000	      2198	00000000	00000013	addi	x0,x0,0	  x0:0x00000000
       22005000	      2199	80000ce8	00000013	addi	x0,x0,0	  x0:0x00000000
       22015000	      2200	80000cec	fe9ff0ef	jal	x1,80000cec	  x1=0x80000cec
       22025000	      2201	00000000	00000013	addi	x0,x0,0	  x0:0x00000000
       22035000	      2202	80000cd0	00000013	addi	x0,x0,0	  x0:0x00000000
       22045000	      2203	80000cd4	014000ef	jal	x1,80000cd4	  x1=0x80000cd4
       22055000	      2204	00000000	00000013	addi	x0,x0,0	  x0:0x00000000
       22065000	      2205	80000ce4	00000013	addi	x0,x0,0	  x0:0x00000000
       22075000	      2206	80000ce8	038000ef	jal	x1,80000ce8	  x1=0x80000ce8
       22085000	      2207	00000000	00000013	addi	x0,x0,0	  x0:0x00000000
       22095000	      2208	80000d1c	00000013	addi	x0,x0,0	  x0:0x00000000
       22105000	      2209	80000d20	75d58b97	auipc	x23,0x75d58	 x23=0xf5d58d1c
       22115000	      2210	80000d24	02800d6f	jal	x26,80000d24	 x26=0x80000d24
       22125000	      2211	00000000	00000013	addi	x0,x0,0	  x0:0x00000000
       22135000	      2212	80000d48	00000013	addi	x0,x0,0	  x0:0x00000000
       22145000	      2213	80000d4c	03c000ef	jal	x1,80000d4c	  x1=0x80000d4c
       22155000	      2214	00000000	00000013	addi	x0,x0,0	  x0:0x00000000
       22165000	      2215	80000d84	00000013	addi	x0,x0,0	  x0:0x00000000
       22175000	      2216	80000d88	ff1ff0ef	jal	x1,80000d88	  x1=0x80000d88
       22185000	      2217	00000000	00000013	addi	x0,x0,0	  x0:0x00000000
       22195000	      2218	80000d74	00000013	addi	x0,x0,0	  x0:0x00000000
       22205000	      2219	80000d78	014000ef	jal	x1,80000d78	  x1=0x80000d78
       22215000	      2220	00000000	00000013	addi	x0,x0,0	  x0:0x00000000
       22225000	      2221	80000d88	00000013	addi	x0,x0,0	  x0:0x00000000
       22235000	      2222	80000d8c	fe5ff0ef	jal	x1,80000d8c	  x1=0x80000d8c
       22245000	      2223	00000000	00000013	addi	x0,x0,0	  x0:0x00000000
       22255000	      2224	80000d6c	00000013	addi	x0,x0,0	  x0:0x00000000
       22265000	      2225	80000d70	fb9ff26f	jal	x4,80000d70	  x4=0x80000d70
       22275000	      2226	00000000	00000013	addi	x0,x0,0	  x0:0x00000000
       22285000	      2227	80000d24	00000013	addi	x0,x0,0	  x0:0x00000000
       22295000	      2228	80000d28	05400c6f	jal	x24,80000d28	 x24=0x80000d28
       22305000	      2229	00000000	00000013	addi	x0,x0,0	  x0:0x00000000
       22315000	      2230	80000d78	00000013	addi	x0,x0,0	  x0:0x00000000
       22325000	      2231	80000d7c	fd9ff0ef	jal	x1,80000d7c	  x1=0x80000d7c
       22335000	      2232	00000000	00000013	addi	x0,x0,0	  x0:0x00000000
       22345000	      2233	80000d50	00000013	addi	x0,x0,0	  x0:0x00000000
       22355000	      2234	80000d54	fe5ff0ef	jal	x1,80000d54	  x1=0x80000d54
       22365000	      2235	00000000	00000013	addi	x0,x0,0	  x0:0x00000000
       22375000	      2236	80000d34	00000013	addi	x0,x0,0	  x0:0x00000000
       22385000	      2237	80000d38	ff5ff0ef	jal	x1,80000d38	  x1=0x80000d38
       22395000	      2238	00000000	00000013	addi	x0,x0,0	  x0:0x00000000
       22405000	      2239	80000d28	00000013	addi	x0,x0,0	  x0:0x00000000
       22415000	      2240	80000d2c	03c000ef	jal	x1,80000d2c	  x1=0x80000d2c
       22425000	      2241	00000000	00000013	addi	x0,x0,0	  x0:0x00000000
       22435000	      2242	80000d64	00000013	addi	x0,x0,0	  x0:0x00000000
       22445000	      2243	80000d68	fc9ff0ef	jal	x1,80000d68	  x1=0x80000d68
       22455000	      2244	00000000	00000013	addi	x0,x0,0	  x0:0x00000000
       22465000	      2245	80000d2c	00000013	addi	x0,x0,0	  x0:0x00000000
       22475000	      2246	80000d30	02c000ef	jal	x1,80000d30	  x1=0x80000d30
       22485000	      2247	00000000	00000013	addi	x0,x0,0	  x0:0x00000000
       22495000	      2248	80000d58	00000013	addi	x0,x0,0	  x0:0x00000000
       22505000	      2249	80000d5c	ffdff0ef	jal	x1,80000d5c	  x1=0x80000d5c
       22515000	      2250	00000000	00000013	addi	x0,x0,0	  x0:0x00000000
       22525000	      2251	80000d54	00000013	addi	x0,x0,0	  x0:0x00000000
       22535000	      2252	80000d58	ff1ff0ef	jal	x1,80000d58	  x1=0x80000d58
       22545000	      2253	00000000	00000013	addi	x0,x0,0	  x0:0x00000000
       22555000	      2254	80000d44	00000013	addi	x0,x0,0	  x0:0x00000000
       22565000	      2255	80000d48	018000ef	jal	x1,80000d48	  x1=0x80000d48
       22575000	      2256	00000000	00000013	addi	x0,x0,0	  x0:0x00000000
       22585000	      2257	80000d5c	00000013	addi	x0,x0,0	  x0:0x00000000
       22595000	      2258	80000d60	00c000ef	jal	x1,80000d60	  x1=0x80000d60
       22605000	      2259	00000000	00000013	addi	x0,x0,0	  x0:0x00000000
       22615000	      2260	80000d68	00000013	addi	x0,x0,0	  x0:0x00000000
       22625000	      2261	80000d6c	fd1ff0ef	jal	x1,80000d6c	  x1=0x80000d6c
       22635000	      2262	00000000	00000013	addi	x0,x0,0	  x0:0x00000000
       22645000	      2263	80000d38	00000013	addi	x0,x0,0	  x0:0x00000000
       22655000	      2264	80000d3c	044000ef	jal	x1,80000d3c	  x1=0x80000d3c
       22665000	      2265	00000000	00000013	addi	x0,x0,0	  x0:0x00000000
       22675000	      2266	80000d7c	00000013	addi	x0,x0,0	  x0:0x00000000
       22685000	      2267	80000d80	004000ef	jal	x1,80000d80	  x1=0x80000d80
       22695000	      2268	00000000	00000013	addi	x0,x0,0	  x0:0x00000000
       22705000	      2269	80000d80	00000013	addi	x0,x0,0	  x0:0x00000000
       22715000	      2270	80000d84	fbdff1ef	jal	x3,80000d84	  x3=0x80000d84
       22725000	      2271	00000000	00000013	addi	x0,x0,0	  x0:0x00000000
       22735000	      2272	80000d3c	00000013	addi	x0,x0,0	  x0:0x00000000
       22745000	      2273	80000d40	034000ef	jal	x1,80000d40	  x1=0x80000d40
       22755000	      2274	00000000	00000013	addi	x0,x0,0	  x0:0x00000000
       22765000	      2275	80000d70	00000013	addi	x0,x0,0	  x0:0x00000000
       22775000	      2276	80000d74	fc1ff0ef	jal	x1,80000d74	  x1=0x80000d74
       22785000	      2277	00000000	00000013	addi	x0,x0,0	  x0:0x00000000
       22795000	      2278	80000d30	00000013	addi	x0,x0,0	  x0:0x00000000
       22805000	      2279	80000d34	01c000ef	jal	x1,80000d34	  x1=0x80000d34
       22815000	      2280	00000000	00000013	addi	x0,x0,0	  x0:0x00000000
       22825000	      2281	80000d4c	00000013	addi	x0,x0,0	  x0:0x00000000
       22835000	      2282	80000d50	01400eef	jal	x29,80000d50	 x29=0x80000d50
       22845000	      2283	00000000	00000013	addi	x0,x0,0	  x0:0x00000000
       22855000	      2284	80000d60	00000013	addi	x0,x0,0	  x0:0x00000000
       22865000	      2285	80000d64	fe1ff0ef	jal	x1,80000d64	  x1=0x80000d64
       22875000	      2286	00000000	00000013	addi	x0,x0,0	  x0:0x00000000
       22885000	      2287	80000d40	00000013	addi	x0,x0,0	  x0:0x00000000
       22895000	      2288	80000d44	04c000ef	jal	x1,80000d44	  x1=0x80000d44
       22905000	      2289	00000000	00000013	addi	x0,x0,0	  x0:0x00000000
       22915000	      2290	80000d8c	00000013	addi	x0,x0,0	  x0:0x00000000
       22925000	      2291	80000d90	01e9fab3	and	x21,x19,x30	 x19:0x80000b74 x30:0x0013f880 x21=0x00000800
       22935000	      2292	80000d94	03400d6f	jal	x26,80000d94	 x26=0x80000d94
       22945000	      2293	00000000	00000013	addi	x0,x0,0	  x0:0x00000000
       22955000	      2294	80000dc4	00000013	addi	x0,x0,0	  x0:0x00000000
       22965000	      2295	80000dc8	ff1ff0ef	jal	x1,80000dc8	  x1=0x80000dc8
       22975000	      2296	00000000	00000013	addi	x0,x0,0	  x0:0x00000000
       22985000	      2297	80000db4	00000013	addi	x0,x0,0	  x0:0x00000000
       22995000	      2298	80000db8	004000ef	jal	x1,80000db8	  x1=0x80000db8
       23005000	      2299	00000000	00000013	addi	x0,x0,0	  x0:0x00000000
       23015000	      2300	80000db8	00000013	addi	x0,x0,0	  x0:0x00000000
       23025000	      2301	80000dbc	ff5ff0ef	jal	x1,80000dbc	  x1=0x80000dbc
       23035000	      2302	00000000	00000013	addi	x0,x0,0	  x0:0x00000000
       23045000	      2303	80000dac	00000013	addi	x0,x0,0	  x0:0x00000000
       23055000	      2304	80000db0	fe9ff0ef	jal	x1,80000db0	  x1=0x80000db0
       23065000	      2305	00000000	00000013	addi	x0,x0,0	  x0:0x00000000
       23075000	      2306	80000d94	00000013	addi	x0,x0,0	  x0:0x00000000
       23085000	      2307	80000d98	00c000ef	jal	x1,80000d98	  x1=0x80000d98
       23095000	      2308	00000000	00000013	addi	x0,x0,0	  x0:0x00000000
       23105000	      2309	80000da0	00000013	addi	x0,x0,0	  x0:0x00000000
       23115000	      2310	80000da4	00800cef	jal	x25,80000da4	 x25=0x80000da4
       23125000	      2311	00000000	00000013	addi	x0,x0,0	  x0:0x00000000
       23135000	      2312	80000da8	00000013	addi	x0,x0,0	  x0:0x00000000
       23145000	      2313	80000dac	ff5ff0ef	jal	x1,80000dac	  x1=0x80000dac
       23155000	      2314	00000000	00000013	addi	x0,x0,0	  x0:0x00000000
       23165000	      2315	80000d9c	00000013	addi	x0,x0,0	  x0:0x00000000
       23175000	      2316	80000da0	014002ef	jal	x5,80000da0	  x5=0x80000da0
       23185000	      2317	00000000	00000013	addi	x0,x0,0	  x0:0x00000000
       23195000	      2318	80000db0	00000013	addi	x0,x0,0	  x0:0x00000000
       23205000	      2319	80000db4	ff5ff0ef	jal	x1,80000db4	  x1=0x80000db4
       23215000	      2320	00000000	00000013	addi	x0,x0,0	  x0:0x00000000
       23225000	      2321	80000da4	00000013	addi	x0,x0,0	  x0:0x00000000
       23235000	      2322	80000da8	018002ef	jal	x5,80000da8	  x5=0x80000da8
       23245000	      2323	00000000	00000013	addi	x0,x0,0	  x0:0x00000000
       23255000	      2324	80000dbc	00000013	addi	x0,x0,0	  x0:0x00000000
       23265000	      2325	80000dc0	fddff0ef	jal	x1,80000dc0	  x1=0x80000dc0
       23275000	      2326	00000000	00000013	addi	x0,x0,0	  x0:0x00000000
       23285000	      2327	80000d98	00000013	addi	x0,x0,0	  x0:0x00000000
       23295000	      2328	80000d9c	028000ef	jal	x1,80000d9c	  x1=0x80000d9c
       23305000	      2329	00000000	00000013	addi	x0,x0,0	  x0:0x00000000
       23315000	      2330	80000dc0	00000013	addi	x0,x0,0	  x0:0x00000000
       23325000	      2331	80000dc4	008000ef	jal	x1,80000dc4	  x1=0x80000dc4
       23335000	      2332	00000000	00000013	addi	x0,x0,0	  x0:0x00000000
       23345000	      2333	80000dc8	00000013	addi	x0,x0,0	  x0:0x00000000
       23355000	      2334	80000dcc	00c4aeb3	slt	x29,x9,x12	  x9:0x80000bfc x12:0x80000cfc x29=0x00000001
       23365000	      2335	80000dd0	01800d6f	jal	x26,80000dd0	 x26=0x80000dd0
       23375000	      2336	00000000	00000013	addi	x0,x0,0	  x0:0x00000000
       23385000	      2337	80000de4	00000013	addi	x0,x0,0	  x0:0x00000000
       23395000	      2338	80000de8	044000ef	jal	x1,80000de8	  x1=0x80000de8
       23405000	      2339	00000000	00000013	addi	x0,x0,0	  x0:0x00000000
       23415000	      2340	80000e28	00000013	addi	x0,x0,0	  x0:0x00000000
       23425000	      2341	80000e2c	fb5ff0ef	jal	x1,80000e2c	  x1=0x80000e2c
       23435000	      2342	00000000	00000013	addi	x0,x0,0	  x0:0x00000000
       23445000	      2343	80000ddc	00000013	addi	x0,x0,0	  x0:0x00000000
       23455000	      2344	80000de0	01c000ef	jal	x1,80000de0	  x1=0x80000de0
       23465000	      2345	00000000	00000013	addi	x0,x0,0	  x0:0x00000000
       23475000	      2346	80000df8	00000013	addi	x0,x0,0	  x0:0x00000000
       23485000	      2347	80000dfc	0180026f	jal	x4,80000dfc	  x4=0x80000dfc
       23495000	      2348	00000000	00000013	addi	x0,x0,0	  x0:0x00000000
       23505000	      2349	80000e10	00000013	addi	x0,x0,0	  x0:0x00000000
       23515000	      2350	80000e14	fe5ff0ef	jal	x1,80000e14	  x1=0x80000e14
       23525000	      2351	00000000	00000013	addi	x0,x0,0	  x0:0x00000000
       23535000	      2352	80000df4	00000013	addi	x0,x0,0	  x0:0x00000000
       23545000	      2353	80000df8	0200086f	jal	x16,80000df8	 x16=0x80000df8
       23555000	      2354	00000000	00000013	addi	x0,x0,0	  x0:0x00000000
       23565000	      2355	80000e14	00000013	addi	x0,x0,0	  x0:0x00000000
       23575000	      2356	80000e18	004000ef	jal	x1,80000e18	  x1=0x80000e18
       23585000	      2357	00000000	00000013	addi	x0,x0,0	  x0:0x00000000
       23595000	      2358	80000e18	00000013	addi	x0,x0,0	  x0:0x00000000
       23605000	      2359	80000e1c	020000ef	jal	x1,80000e1c	  x1=0x80000e1c
       23615000	      2360	00000000	00000013	addi	x0,x0,0	  x0:0x00000000
       23625000	      2361	80000e38	00000013	addi	x0,x0,0	  x0:0x00000000
       23635000	      2362	80000e3c	fedff16f	jal	x2,80000e3c	  x2=0x80000e3c
       23645000	      2363	00000000	00000013	addi	x0,x0,0	  x0:0x00000000
       23655000	      2364	80000e24	00000013	addi	x0,x0,0	  x0:0x00000000
       23665000	      2365	80000e28	fadff0ef	jal	x1,80000e28	  x1=0x80000e28
       23675000	      2366	00000000	00000013	addi	x0,x0,0	  x0:0x00000000
       23685000	      2367	80000dd0	00000013	addi	x0,x0,0	  x0:0x00000000
       23695000	      2368	80000dd4	064001ef	jal	x3,80000dd4	  x3=0x80000dd4
       23705000	      2369	00000000	00000013	addi	x0,x0,0	  x0:0x00000000
       23715000	      2370	80000e34	00000013	addi	x0,x0,0	  x0:0x00000000
       23725000	      2371	80000e38	fa1ff0ef	jal	x1,80000e38	  x1=0x80000e38
       23735000	      2372	00000000	00000013	addi	x0,x0,0	  x0:0x00000000
       23745000	      2373	80000dd4	00000013	addi	x0,x0,0	  x0:0x00000000
       23755000	      2374	80000dd8	048000ef	jal	x1,80000dd8	  x1=0x80000dd8
       23765000	      2375	00000000	00000013	addi	x0,x0,0	  x0:0x00000000
       23775000	      2376	80000e1c	00000013	addi	x0,x0,0	  x0:0x00000000
       23785000	      2377	80000e20	fbdff3ef	jal	x7,80000e20	  x7=0x80000e20
       23795000	      2378	00000000	00000013	addi	x0,x0,0	  x0:0x00000000
       23805000	      2379	80000dd8	00000013	addi	x0,x0,0	  x0:0x00000000
       23815000	      2380	80000ddc	014003ef	jal	x7,80000ddc	  x7=0x80000ddc
       23825000	      2381	00000000	00000013	addi	x0,x0,0	  x0:0x00000000
       23835000	      2382	80000dec	00000013	addi	x0,x0,0	  x0:0x00000000
       23845000	      2383	80000df0	04000def	jal	x27,80000df0	 x27=0x80000df0
       23855000	      2384	00000000	00000013	addi	x0,x0,0	  x0:0x00000000
       23865000	      2385	80000e2c	00000013	addi	x0,x0,0	  x0:0x00000000
       23875000	      2386	80000e30	fb5ff0ef	jal	x1,80000e30	  x1=0x80000e30
       23885000	      2387	00000000	00000013	addi	x0,x0,0	  x0:0x00000000
       23895000	      2388	80000de0	00000013	addi	x0,x0,0	  x0:0x00000000
       23905000	      2389	80000de4	020000ef	jal	x1,80000de4	  x1=0x80000de4
       23915000	      2390	00000000	00000013	addi	x0,x0,0	  x0:0x00000000
       23925000	      2391	80000e00	00000013	addi	x0,x0,0	  x0:0x00000000
       23935000	      2392	80000e04	030001ef	jal	x3,80000e04	  x3=0x80000e04
       23945000	      2393	00000000	00000013	addi	x0,x0,0	  x0:0x00000000
       23955000	      2394	80000e30	00000013	addi	x0,x0,0	  x0:0x00000000
       23965000	      2395	80000e34	ff1ff0ef	jal	x1,80000e34	  x1=0x80000e34
       23975000	      2396	00000000	00000013	addi	x0,x0,0	  x0:0x00000000
       23985000	      2397	80000e20	00000013	addi	x0,x0,0	  x0:0x00000000
       23995000	      2398	80000e24	fd1ff86f	jal	x16,80000e24	 x16=0x80000e24
       24005000	      2399	00000000	00000013	addi	x0,x0,0	  x0:0x00000000
       24015000	      2400	80000df0	00000013	addi	x0,x0,0	  x0:0x00000000
       24025000	      2401	80000df4	014000ef	jal	x1,80000df4	  x1=0x80000df4
       24035000	      2402	00000000	00000013	addi	x0,x0,0	  x0:0x00000000
       24045000	      2403	80000e04	00000013	addi	x0,x0,0	  x0:0x00000000
       24055000	      2404	80000e08	008000ef	jal	x1,80000e08	  x1=0x80000e08
       24065000	      2405	00000000	00000013	addi	x0,x0,0	  x0:0x00000000
       24075000	      2406	80000e0c	00000013	addi	x0,x0,0	  x0:0x00000000
       24085000	      2407	80000e10	ff1ff0ef	jal	x1,80000e10	  x1=0x80000e10
       24095000	      2408	00000000	00000013	addi	x0,x0,0	  x0:0x00000000
       24105000	      2409	80000dfc	00000013	addi	x0,x0,0	  x0:0x00000000
       24115000	      2410	80000e00	fedff0ef	jal	x1,80000e00	  x1=0x80000e00
       24125000	      2411	00000000	00000013	addi	x0,x0,0	  x0:0x00000000
       24135000	      2412	80000de8	00000013	addi	x0,x0,0	  x0:0x00000000
       24145000	      2413	80000dec	020002ef	jal	x5,80000dec	  x5=0x80000dec
       24155000	      2414	00000000	00000013	addi	x0,x0,0	  x0:0x00000000
       24165000	      2415	80000e08	00000013	addi	x0,x0,0	  x0:0x00000000
       24175000	      2416	80000e0c	034000ef	jal	x1,80000e0c	  x1=0x80000e0c
       24185000	      2417	00000000	00000013	addi	x0,x0,0	  x0:0x00000000
       24195000	      2418	80000e3c	00000013	addi	x0,x0,0	  x0:0x00000000
       24205000	      2419	80000e40	e270bf13	sltiu	x30,x1,-473	  x1:0x80000e0c x30=0x00000001
       24215000	      2420	80000e44	01c00d6f	jal	x26,80000e44	 x26=0x80000e44
       24225000	      2421	00000000	00000013	addi	x0,x0,0	  x0:0x00000000
       24235000	      2422	80000e5c	00000013	addi	x0,x0,0	  x0:0x00000000
       24245000	      2423	80000e60	ff1ff0ef	jal	x1,80000e60	  x1=0x80000e60
       24255000	      2424	00000000	00000013	addi	x0,x0,0	  x0:0x00000000
       24265000	      2425	80000e4c	00000013	addi	x0,x0,0	  x0:0x00000000
       24275000	      2426	80000e50	02400cef	jal	x25,80000e50	 x25=0x80000e50
       24285000	      2427	00000000	00000013	addi	x0,x0,0	  x0:0x00000000
       24295000	      2428	80000e70	00000013	addi	x0,x0,0	  x0:0x00000000
       24305000	      2429	80000e74	014000ef	jal	x1,80000e74	  x1=0x80000e74
       24315000	      2430	00000000	00000013	addi	x0,x0,0	  x0:0x00000000
       24325000	      2431	80000e84	00000013	addi	x0,x0,0	  x0:0x00000000
       24335000	      2432	80000e88	ff1ff0ef	jal	x1,80000e88	  x1=0x80000e88
       24345000	      2433	00000000	00000013	addi	x0,x0,0	  x0:0x00000000
       24355000	      2434	80000e74	00000013	addi	x0,x0,0	  x0:0x00000000
       24365000	      2435	80000e78	ff5ff0ef	jal	x1,80000e78	  x1=0x80000e78
       24375000	      2436	00000000	00000013	addi	x0,x0,0	  x0:0x00000000
       24385000	      2437	80000e68	00000013	addi	x0,x0,0	  x0:0x00000000
       24395000	      2438	80000e6c	004000ef	jal	x1,80000e6c	  x1=0x80000e6c
       24405000	      2439	00000000	00000013	addi	x0,x0,0	  x0:0x00000000
       24415000	      2440	80000e6c	00000013	addi	x0,x0,0	  x0:0x00000000
       24425000	      2441	80000e70	010000ef	jal	x1,80000e70	  x1=0x80000e70
       24435000	      2442	00000000	00000013	addi	x0,x0,0	  x0:0x00000000
       24445000	      2443	80000e7c	00000013	addi	x0,x0,0	  x0:0x00000000
       24455000	      2444	80000e80	fddff0ef	jal	x1,80000e80	  x1=0x80000e80
       24465000	      2445	00000000	00000013	addi	x0,x0,0	  x0:0x00000000
       24475000	      2446	80000e58	00000013	addi	x0,x0,0	  x0:0x00000000
       24485000	      2447	80000e5c	00c002ef	jal	x5,80000e5c	  x5=0x80000e5c
       24495000	      2448	00000000	00000013	addi	x0,x0,0	  x0:0x00000000
       24505000	      2449	80000e64	00000013	addi	x0,x0,0	  x0:0x00000000
       24515000	      2450	80000e68	fe1ff3ef	jal	x7,80000e68	  x7=0x80000e68
       24525000	      2451	00000000	00000013	addi	x0,x0,0	  x0:0x00000000
       24535000	      2452	80000e44	00000013	addi	x0,x0,0	  x0:0x00000000
       24545000	      2453	80000e48	00c000ef	jal	x1,80000e48	  x1=0x80000e48
       24555000	      2454	00000000	00000013	addi	x0,x0,0	  x0:0x00000000
       24565000	      2455	80000e50	00000013	addi	x0,x0,0	  x0:0x00000000
       24575000	      2456	80000e54	ff9ff0ef	jal	x1,80000e54	  x1=0x80000e54
       24585000	      2457	00000000	00000013	addi	x0,x0,0	  x0:0x00000000
       24595000	      2458	80000e48	00000013	addi	x0,x0,0	  x0:0x00000000
       24605000	      2459	80000e4c	0380016f	jal	x2,80000e4c	  x2=0x80000e4c
       24615000	      2460	00000000	00000013	addi	x0,x0,0	  x0:0x00000000
       24625000	      2461	80000e80	00000013	addi	x0,x0,0	  x0:0x00000000
       24635000	      2462	80000e84	fd5ff3ef	jal	x7,80000e84	  x7=0x80000e84
       24645000	      2463	00000000	00000013	addi	x0,x0,0	  x0:0x00000000
       24655000	      2464	80000e54	00000013	addi	x0,x0,0	  x0:0x00000000
       24665000	      2465	80000e58	024000ef	jal	x1,80000e58	  x1=0x80000e58
       24675000	      2466	00000000	00000013	addi	x0,x0,0	  x0:0x00000000
       24685000	      2467	80000e78	00000013	addi	x0,x0,0	  x0:0x00000000
       24695000	      2468	80000e7c	fe9ff0ef	jal	x1,80000e7c	  x1=0x80000e7c
       24705000	      2469	00000000	00000013	addi	x0,x0,0	  x0:0x00000000
       24715000	      2470	80000e60	00000013	addi	x0,x0,0	  x0:0x00000000
       24725000	      2471	80000e64	028000ef	jal	x1,80000e64	  x1=0x80000e64
       24735000	      2472	00000000	00000013	addi	x0,x0,0	  x0:0x00000000
       24745000	      2473	80000e88	00000013	addi	x0,x0,0	  x0:0x00000000
       24755000	      2474	80000e8c	000f3433	sltu	x8,x30,x0	 x30:0x00000001  x0:0x00000000  x8=0x00000000
       24765000	      2475	80000e90	02800d6f	jal	x26,80000e90	 x26=0x80000e90
       24775000	      2476	00000000	00000013	addi	x0,x0,0	  x0:0x00000000
       24785000	      2477	80000eb4	00000013	addi	x0,x0,0	  x0:0x00000000
       24795000	      2478	80000eb8	014000ef	jal	x1,80000eb8	  x1=0x80000eb8
       24805000	      2479	00000000	00000013	addi	x0,x0,0	  x0:0x00000000
       24815000	      2480	80000ec8	00000013	addi	x0,x0,0	  x0:0x00000000
       24825000	      2481	80000ecc	01000c6f	jal	x24,80000ecc	 x24=0x80000ecc
       24835000	      2482	00000000	00000013	addi	x0,x0,0	  x0:0x00000000
       24845000	      2483	80000ed8	00000013	addi	x0,x0,0	  x0:0x00000000
       24855000	      2484	80000edc	fbdff0ef	jal	x1,80000edc	  x1=0x80000edc
       24865000	      2485	00000000	00000013	addi	x0,x0,0	  x0:0x00000000
       24875000	      2486	80000e94	00000013	addi	x0,x0,0	  x0:0x00000000
       24885000	      2487	80000e98	010000ef	jal	x1,80000e98	  x1=0x80000e98
       24895000	      2488	00000000	00000013	addi	x0,x0,0	  x0:0x00000000
       24905000	      2489	80000ea4	00000013	addi	x0,x0,0	  x0:0x00000000
       24915000	      2490	80000ea8	008000ef	jal	x1,80000ea8	  x1=0x80000ea8
       24925000	      2491	00000000	00000013	addi	x0,x0,0	  x0:0x00000000
       24935000	      2492	80000eac	00000013	addi	x0,x0,0	  x0:0x00000000
       24945000	      2493	80000eb0	0380096f	jal	x18,80000eb0	 x18=0x80000eb0
       24955000	      2494	00000000	00000013	addi	x0,x0,0	  x0:0x00000000
       24965000	      2495	80000ee4	00000013	addi	x0,x0,0	  x0:0x00000000
       24975000	      2496	80000ee8	fddff26f	jal	x4,80000ee8	  x4=0x80000ee8
       24985000	      2497	00000000	00000013	addi	x0,x0,0	  x0:0x00000000
       24995000	      2498	80000ec0	00000013	addi	x0,x0,0	  x0:0x00000000
       25005000	      2499	80000ec4	010000ef	jal	x1,80000ec4	  x1=0x80000ec4
       25015000	      2500	00000000	00000013	addi	x0,x0,0	  x0:0x00000000
       25025000	      2501	80000ed0	00000013	addi	x0,x0,0	  x0:0x00000000
       25035000	      2502	80000ed4	fedffbef	jal	x23,80000ed4	 x23=0x80000ed4
       25045000	      2503	00000000	00000013	addi	x0,x0,0	  x0:0x00000000
       25055000	      2504	80000ebc	00000013	addi	x0,x0,0	  x0:0x00000000
       25065000	      2505	80000ec0	fedff0ef	jal	x1,80000ec0	  x1=0x80000ec0
       25075000	      2506	00000000	00000013	addi	x0,x0,0	  x0:0x00000000
       25085000	      2507	80000ea8	00000013	addi	x0,x0,0	  x0:0x00000000
       25095000	      2508	80000eac	ff9ffcef	jal	x25,80000eac	 x25=0x80000eac
       25105000	      2509	00000000	00000013	addi	x0,x0,0	  x0:0x00000000
       25115000	      2510	80000ea0	00000013	addi	x0,x0,0	  x0:0x00000000
       25125000	      2511	80000ea4	024002ef	jal	x5,80000ea4	  x5=0x80000ea4
       25135000	      2512	00000000	00000013	addi	x0,x0,0	  x0:0x00000000
       25145000	      2513	80000ec4	00000013	addi	x0,x0,0	  x0:0x00000000
       25155000	      2514	80000ec8	02800def	jal	x27,80000ec8	 x27=0x80000ec8
       25165000	      2515	00000000	00000013	addi	x0,x0,0	  x0:0x00000000
       25175000	      2516	80000eec	00000013	addi	x0,x0,0	  x0:0x00000000
       25185000	      2517	80000ef0	fadff0ef	jal	x1,80000ef0	  x1=0x80000ef0
       25195000	      2518	00000000	00000013	addi	x0,x0,0	  x0:0x00000000
       25205000	      2519	80000e98	00000013	addi	x0,x0,0	  x0:0x00000000
       25215000	      2520	80000e9c	03400aef	jal	x21,80000e9c	 x21=0x80000e9c
       25225000	      2521	00000000	00000013	addi	x0,x0,0	  x0:0x00000000
       25235000	      2522	80000ecc	00000013	addi	x0,x0,0	  x0:0x00000000
       25245000	      2523	80000ed0	014000ef	jal	x1,80000ed0	  x1=0x80000ed0
       25255000	      2524	00000000	00000013	addi	x0,x0,0	  x0:0x00000000
       25265000	      2525	80000ee0	00000013	addi	x0,x0,0	  x0:0x00000000
       25275000	      2526	80000ee4	ff5ff0ef	jal	x1,80000ee4	  x1=0x80000ee4
       25285000	      2527	00000000	00000013	addi	x0,x0,0	  x0:0x00000000
       25295000	      2528	80000ed4	00000013	addi	x0,x0,0	  x0:0x00000000
       25305000	      2529	80000ed8	fddff9ef	jal	x19,80000ed8	 x19=0x80000ed8
       25315000	      2530	00000000	00000013	addi	x0,x0,0	  x0:0x00000000
       25325000	      2531	80000eb0	00000013	addi	x0,x0,0	  x0:0x00000000
       25335000	      2532	80000eb4	02c000ef	jal	x1,80000eb4	  x1=0x80000eb4
       25345000	      2533	00000000	00000013	addi	x0,x0,0	  x0:0x00000000
       25355000	      2534	80000edc	00000013	addi	x0,x0,0	  x0:0x00000000
       25365000	      2535	80000ee0	fddff26f	jal	x4,80000ee0	  x4=0x80000ee0
       25375000	      2536	00000000	00000013	addi	x0,x0,0	  x0:0x00000000
       25385000	      2537	80000eb8	00000013	addi	x0,x0,0	  x0:0x00000000
       25395000	      2538	80000ebc	fd9ff0ef	jal	x1,80000ebc	  x1=0x80000ebc
       25405000	      2539	00000000	00000013	addi	x0,x0,0	  x0:0x00000000
       25415000	      2540	80000e90	00000013	addi	x0,x0,0	  x0:0x00000000
       25425000	      2541	80000e94	058000ef	jal	x1,80000e94	  x1=0x80000e94
       25435000	      2542	00000000	00000013	addi	x0,x0,0	  x0:0x00000000
       25445000	      2543	80000ee8	00000013	addi	x0,x0,0	  x0:0x00000000
       25455000	      2544	80000eec	fb5ff0ef	jal	x1,80000eec	  x1=0x80000eec
       25465000	      2545	00000000	00000013	addi	x0,x0,0	  x0:0x00000000
       25475000	      2546	80000e9c	00000013	addi	x0,x0,0	  x0:0x00000000
       25485000	      2547	80000ea0	054000ef	jal	x1,80000ea0	  x1=0x80000ea0
       25495000	      2548	00000000	00000013	addi	x0,x0,0	  x0:0x00000000
       25505000	      2549	80000ef0	00000013	addi	x0,x0,0	  x0:0x00000000
       25515000	      2550	80000ef4	41770ab3	sub	x21,x14,x23	 x14:0x80000bc0 x23:0x80000ed4 x21=0xfffffcec
       25525000	      2551	80000ef8	01000d6f	jal	x26,80000ef8	 x26=0x80000ef8
       25535000	      2552	00000000	00000013	addi	x0,x0,0	  x0:0x00000000
       25545000	      2553	80000f04	00000013	addi	x0,x0,0	  x0:0x00000000
       25555000	      2554	80000f08	02000d6f	jal	x26,80000f08	 x26=0x80000f08
       25565000	      2555	00000000	00000013	addi	x0,x0,0	  x0:0x00000000
       25575000	      2556	80000f24	00000013	addi	x0,x0,0	  x0:0x00000000
       25585000	      2557	80000f28	fddff0ef	jal	x1,80000f28	  x1=0x80000f28
       25595000	      2558	00000000	00000013	addi	x0,x0,0	  x0:0x00000000
       25605000	      2559	80000f00	00000013	addi	x0,x0,0	  x0:0x00000000
       25615000	      2560	80000f04	014000ef	jal	x1,80000f04	  x1=0x80000f04
       25625000	      2561	00000000	00000013	addi	x0,x0,0	  x0:0x00000000
       25635000	      2562	80000f14	00000013	addi	x0,x0,0	  x0:0x00000000
       25645000	      2563	80000f18	004002ef	jal	x5,80000f18	  x5=0x80000f18
       25655000	      2564	00000000	00000013	addi	x0,x0,0	  x0:0x00000000
       25665000	      2565	80000f18	00000013	addi	x0,x0,0	  x0:0x00000000
       25675000	      2566	80000f1c	ff1ff0ef	jal	x1,80000f1c	  x1=0x80000f1c
       25685000	      2567	00000000	00000013	addi	x0,x0,0	  x0:0x00000000
       25695000	      2568	80000f08	00000013	addi	x0,x0,0	  x0:0x00000000
       25705000	      2569	80000f0c	0080016f	jal	x2,80000f0c	  x2=0x80000f0c
       25715000	      2570	00000000	00000013	addi	x0,x0,0	  x0:0x00000000
       25725000	      2571	80000f10	00000013	addi	x0,x0,0	  x0:0x00000000
       25735000	      2572	80000f14	fe9ff0ef	jal	x1,80000f14	  x1=0x80000f14
       25745000	      2573	00000000	00000013	addi	x0,x0,0	  x0:0x00000000
       25755000	      2574	80000ef8	00000013	addi	x0,x0,0	  x0:0x00000000
       25765000	      2575	80000efc	004000ef	jal	x1,80000efc	  x1=0x80000efc
       25775000	      2576	00000000	00000013	addi	x0,x0,0	  x0:0x00000000
       25785000	      2577	80000efc	00000013	addi	x0,x0,0	  x0:0x00000000
       25795000	      2578	80000f00	020000ef	jal	x1,80000f00	  x1=0x80000f00
       25805000	      2579	00000000	00000013	addi	x0,x0,0	  x0:0x00000000
       25815000	      2580	80000f1c	00000013	addi	x0,x0,0	  x0:0x00000000
       25825000	      2581	80000f20	ff1ff0ef	jal	x1,80000f20	  x1=0x80000f20
       25835000	      2582	00000000	00000013	addi	x0,x0,0	  x0:0x00000000
       25845000	      2583	80000f0c	00000013	addi	x0,x0,0	  x0:0x00000000
       25855000	      2584	80000f10	014000ef	jal	x1,80000f10	  x1=0x80000f10
       25865000	      2585	00000000	00000013	addi	x0,x0,0	  x0:0x00000000
       25875000	      2586	80000f20	00000013	addi	x0,x0,0	  x0:0x00000000
       25885000	      2587	80000f24	008000ef	jal	x1,80000f24	  x1=0x80000f24
       25895000	      2588	00000000	00000013	addi	x0,x0,0	  x0:0x00000000
       25905000	      2589	80000f28	00000013	addi	x0,x0,0	  x0:0x00000000
       25915000	      2590	80000f2c	410d00b3	sub	x1,x26,x16	 x26:0x80000f08 x16:0x80000e24  x1=0x000000e4
       25925000	      2591	80000f30	01400d6f	jal	x26,80000f30	 x26=0x80000f30
       25935000	      2592	00000000	00000013	addi	x0,x0,0	  x0:0x00000000
       25945000	      2593	80000f40	00000013	addi	x0,x0,0	  x0:0x00000000
       25955000	      2594	80000f44	010000ef	jal	x1,80000f44	  x1=0x80000f44
       25965000	      2595	00000000	00000013	addi	x0,x0,0	  x0:0x00000000
       25975000	      2596	80000f50	00000013	addi	x0,x0,0	  x0:0x00000000
       25985000	      2597	80000f54	ffdff2ef	jal	x5,80000f54	  x5=0x80000f54
       25995000	      2598	00000000	00000013	addi	x0,x0,0	  x0:0x00000000
       26005000	      2599	80000f4c	00000013	addi	x0,x0,0	  x0:0x00000000
       26015000	      2600	80000f50	010007ef	jal	x15,80000f50	 x15=0x80000f50
       26025000	      2601	00000000	00000013	addi	x0,x0,0	  x0:0x00000000
       26035000	      2602	80000f5c	00000013	addi	x0,x0,0	  x0:0x00000000
       26045000	      2603	80000f60	fd5ff1ef	jal	x3,80000f60	  x3=0x80000f60
       26055000	      2604	00000000	00000013	addi	x0,x0,0	  x0:0x00000000
       26065000	      2605	80000f30	00000013	addi	x0,x0,0	  x0:0x00000000
       26075000	      2606	80000f34	014000ef	jal	x1,80000f34	  x1=0x80000f34
       26085000	      2607	00000000	00000013	addi	x0,x0,0	  x0:0x00000000
       26095000	      2608	80000f44	00000013	addi	x0,x0,0	  x0:0x00000000
       26105000	      2609	80000f48	ff5ff3ef	jal	x7,80000f48	  x7=0x80000f48
       26115000	      2610	00000000	00000013	addi	x0,x0,0	  x0:0x00000000
       26125000	      2611	80000f38	00000013	addi	x0,x0,0	  x0:0x00000000
       26135000	      2612	80000f3c	ffdff0ef	jal	x1,80000f3c	  x1=0x80000f3c
       26145000	      2613	00000000	00000013	addi	x0,x0,0	  x0:0x00000000
       26155000	      2614	80000f34	00000013	addi	x0,x0,0	  x0:0x00000000
       26165000	      2615	80000f38	024000ef	jal	x1,80000f38	  x1=0x80000f38
       26175000	      2616	00000000	00000013	addi	x0,x0,0	  x0:0x00000000
       26185000	      2617	80000f58	00000013	addi	x0,x0,0	  x0:0x00000000
       26195000	      2618	80000f5c	fe5ff0ef	jal	x1,80000f5c	  x1=0x80000f5c
       26205000	      2619	00000000	00000013	addi	x0,x0,0	  x0:0x00000000
       26215000	      2620	80000f3c	00000013	addi	x0,x0,0	  x0:0x00000000
       26225000	      2621	80000f40	00c000ef	jal	x1,80000f40	  x1=0x80000f40
       26235000	      2622	00000000	00000013	addi	x0,x0,0	  x0:0x00000000
       26245000	      2623	80000f48	00000013	addi	x0,x0,0	  x0:0x00000000
       26255000	      2624	80000f4c	02000f6f	jal	x30,80000f4c	 x30=0x80000f4c
       26265000	      2625	00000000	00000013	addi	x0,x0,0	  x0:0x00000000
       26275000	      2626	80000f68	00000013	addi	x0,x0,0	  x0:0x00000000
       26285000	      2627	80000f6c	004000ef	jal	x1,80000f6c	  x1=0x80000f6c
       26295000	      2628	00000000	00000013	addi	x0,x0,0	  x0:0x00000000
       26305000	      2629	80000f6c	00000013	addi	x0,x0,0	  x0:0x00000000
       26315000	      2630	80000f70	ff9ff0ef	jal	x1,80000f70	  x1=0x80000f70
       26325000	      2631	00000000	00000013	addi	x0,x0,0	  x0:0x00000000
       26335000	      2632	80000f64	00000013	addi	x0,x0,0	  x0:0x00000000
       26345000	      2633	80000f68	ff1ff0ef	jal	x1,80000f68	  x1=0x80000f68
       26355000	      2634	00000000	00000013	addi	x0,x0,0	  x0:0x00000000
       26365000	      2635	80000f54	00000013	addi	x0,x0,0	  x0:0x00000000
       26375000	      2636	80000f58	00c000ef	jal	x1,80000f58	  x1=0x80000f58
       26385000	      2637	00000000	00000013	addi	x0,x0,0	  x0:0x00000000
       26395000	      2638	80000f60	00000013	addi	x0,x0,0	  x0:0x00000000
       26405000	      2639	80000f64	010000ef	jal	x1,80000f64	  x1=0x80000f64
       26415000	      2640	00000000	00000013	addi	x0,x0,0	  x0:0x00000000
       26425000	      2641	80000f70	00000013	addi	x0,x0,0	  x0:0x00000000
       26435000	      2642	80000f74	404405b3	sub	x11,x8,x4	  x8:0x00000000  x4:0x80000ee0 x11=0x7ffff120
       26445000	      2643	80000f78	01512133	slt	x2,x2,x21	  x2:0x80000f0c x21:0xfffffcec  x2=0x00000001
       26455000	      2644	80000f7c	400b81b3	sub	x3,x23,x0	 x23:0x80000ed4  x0:0x00000000  x3=0x80000ed4
       26465000	      2645	80000f80	9428c793	xori	x15,x17,-1726	 x17:0x80000b18 x15=0x7ffff25a
       26475000	      2646	80000f84	18e36d93	ori	x27,x6,398	  x6:0x80009fc4 x27=0x80009fce
       26485000	      2647	80000f88	01242d33	slt	x26,x8,x18	  x8:0x00000000 x18:0x80000eb0 x26=0x00000000
       26495000	      2648	80000f8c	404282b3	sub	x5,x5,x4	  x5:0x80000f54  x4:0x80000ee0  x5=0x00000074
       26505000	      2649	80000f90	006cdcb3	srl	x25,x25,x6	 x25:0x80000eac  x6:0x80009fc4 x25=0x080000ea
       26515000	      2650	80000f94	6fc90013	addi	x0,x18,1788	 x18:0x80000eb0
       26525000	      2651	80000f98	e30af0b7	lui	x1,0xe30af	  x1=0xe30af000
       26535000	      2652	80000f9c	05f33d13	sltiu	x26,x6,95	  x6:0x80009fc4 x26=0x00000000
       26545000	      2653	80000fa0	03cb8a63	beq	x23,x28,80000fd4	 x23:0x80000ed4 x28:0x80000cf0
       26555000	      2654	80000fa4	40f850b3	sra	x1,x16,x15	 x16:0x80000e24 x15:0x7ffff25a  x1=0xffffffe0
       26565000	      2655	80000fa8	0173b2b3	sltu	x5,x7,x23	  x7:0x80000f48 x23:0x80000ed4  x5=0x00000000
       26575000	      2656	80000fac	d71e4197	auipc	x3,0xd71e4	  x3=0x571e4fa8
       26585000	      2657	80000fb0	7c79aa13	slti	x20,x19,1991	 x19:0x80000ed8 x20=0x00000001
       26595000	      2658	80000fb4	01ba42b3	xor	x5,x20,x27	 x20:0x00000001 x27:0x80009fce  x5=0x80009fcf
       26605000	      2659	80000fb8	00000013	addi	x0,x0,0	  x0:0x00000000
       26615000	      2660	80000fbc	e8b4aa93	slti	x21,x9,-373	  x9:0x80000bfc x21=0x00000001
       26625000	      2661	80000fc0	01d40863	beq	x8,x29,80000fd0	  x8:0x00000000 x29:0x00000001
       26635000	      2662	80000fc4	0019f0b3	and	x1,x19,x1	 x19:0x80000ed8  x1:0xffffffe0  x1=0x80000ec0
       26645000	      2663	80000fc8	00000013	addi	x0,x0,0	  x0:0x00000000
       26655000	      2664	80000fcc	41f0dd93	srai	x27,x1,0x1f	  x1:0x80000ec0 x27=0xffffffff
       26665000	      2665	80000fd0	33aea113	slti	x2,x29,826	 x29:0x00000001  x2=0x00000001
       26675000	      2666	80000fd4	40ca54b3	sra	x9,x20,x12	 x20:0x00000001 x12:0x80000cfc  x9=0x00000000
       26685000	      2667	80000fd8	02ca4063	blt	x20,x12,80000ff8	 x20:0x00000001 x12:0x80000cfc
       26695000	      2668	80000fdc	40988c33	sub	x24,x17,x9	 x17:0x80000b18  x9:0x00000000 x24=0x80000b18
       26705000	      2669	80000fe0	41db5a33	sra	x20,x22,x29	 x22:0x80000aa0 x29:0x00000001 x20=0xc0000550
       26715000	      2670	80000fe4	049e6263	bltu	x28,x9,80001028	 x28:0x80000cf0  x9:0x00000000
       26725000	      2671	80000fe8	ffc67913	andi	x18,x12,-4	 x12:0x80000cfc x18=0x80000cfc
       26735000	      2672	80000fec	01b5eeb3	or	x29,x11,x27	 x11:0x7ffff120 x27:0xffffffff x29=0xffffffff
       26745000	      2673	80000ff0	008b0733	add	x14,x22,x8	 x22:0x80000aa0  x8:0x00000000 x14=0x80000aa0
       26755000	      2674	80000ff4	411955b3	sra	x11,x18,x17	 x18:0x80000cfc x17:0x80000b18 x11=0xffffff80
       26765000	      2675	80000ff8	023b7263	bgeu	x22,x3,8000101c	 x22:0x80000aa0  x3:0x571e4fa8
       26775000	      2676	00000000	00000013	addi	x0,x0,0	  x0:0x00000000
       26785000	      2677	80001018	00000013	addi	x0,x0,0	  x0:0x00000000
       26795000	      2678	8000101c	01418c63	beq	x3,x20,80001034	  x3:0x571e4fa8 x20:0xc0000550
       26805000	      2679	80001020	01f9f463	bgeu	x19,x31,80001028	 x19:0x80000ed8 x31:0x80000c9c
       26815000	      2680	00000000	00000013	addi	x0,x0,0	  x0:0x00000000
       26825000	      2681	80001024	00000013	addi	x0,x0,0	  x0:0x00000000
       26835000	      2682	80001028	6352ce37	lui	x28,0x6352c	 x28=0x6352c000
       26845000	      2683	8000102c	00c41263	bne	x8,x12,80001030	  x8:0x00000000 x12:0x80000cfc
       26855000	      2684	00000000	00000013	addi	x0,x0,0	  x0:0x00000000
       26865000	      2685	8000102c	00000013	addi	x0,x0,0	  x0:0x00000000
       26875000	      2686	80001030	53052993	slti	x19,x10,1328	 x10:0x80009f24 x19=0x00000001
       26885000	      2687	80001034	41a65b93	srai	x23,x12,0x1a	 x12:0x80000cfc x23=0xffffffe0
       26895000	      2688	80001038	0085ce33	xor	x28,x11,x8	 x11:0xffffff80  x8:0x00000000 x28=0xffffff80
       26905000	      2689	8000103c	a4e28593	addi	x11,x5,-1458	  x5:0x80009fcf x11=0x80009a1d
       26915000	      2690	80001040	048d4663	blt	x26,x8,8000108c	 x26:0x00000000  x8:0x00000000
       26925000	      2691	80001044	6a6c4a93	xori	x21,x24,1702	 x24:0x80000b18 x21=0x80000dbe
       26935000	      2692	80001048	0038d033	srl	x0,x17,x3	 x17:0x80000b18  x3:0x571e4fa8
       26945000	      2693	8000104c	419f85b3	sub	x11,x31,x25	 x31:0x80000c9c x25:0x080000ea x11=0x78000bb2
       26955000	      2694	80001050	41df59b3	sra	x19,x30,x29	 x30:0x80000f4c x29:0xffffffff x19=0xffffffff
       26965000	      2695	80001054	40d55db3	sra	x27,x10,x13	 x10:0x80009f24 x13:0x3e6eded7 x27=0xffffff00
       26975000	      2696	80001058	eecf8793	addi	x15,x31,-276	 x31:0x80000c9c x15=0x80000b88
       26985000	      2697	8000105c	0251fe63	bgeu	x3,x5,80001098	  x3:0x571e4fa8  x5:0x80009fcf
       26995000	      2698	80001060	01aa4a63	blt	x20,x26,80001074	 x20:0xc0000550 x26:0x00000000
       27005000	      2699	00000000	00000013	addi	x0,x0,0	  x0:0x00000000
       27015000	      2700	80001070	00000013	addi	x0,x0,0	  x0:0x00000000
       27025000	      2701	80001074	0474e863	bltu	x9,x7,800010c4	  x9:0x00000000  x7:0x80000f48
       27035000	      2702	00000000	00000013	addi	x0,x0,0	  x0:0x00000000
       27045000	      2703	800010c0	00000013	addi	x0,x0,0	  x0:0x00000000
       27055000	      2704	800010c4	02a9d863	bge	x19,x10,800010f4	 x19:0xffffffff x10:0x80009f24
       27065000	      2705	00000000	00000013	addi	x0,x0,0	  x0:0x00000000
       27075000	      2706	800010f0	00000013	addi	x0,x0,0	  x0:0x00000000
       27085000	      2707	800010f4	002663b3	or	x7,x12,x2	 x12:0x80000cfc  x2:0x00000001  x7=0x80000cfd
       27095000	      2708	800010f8	404485b3	sub	x11,x9,x4	  x9:0x00000000  x4:0x80000ee0 x11=0x7ffff120
       27105000	      2709	800010fc	40f55633	sra	x12,x10,x15	 x10:0x80009f24 x15:0x80000b88 x12=0xff80009f
       27115000	      2710	80001100	05de1463	bne	x28,x29,80001148	 x28:0xffffff80 x29:0xffffffff
       27125000	      2711	00000000	00000013	addi	x0,x0,0	  x0:0x00000000
       27135000	      2712	80001144	00000013	addi	x0,x0,0	  x0:0x00000000
       27145000	      2713	80001148	24054c13	xori	x24,x10,576	 x10:0x80009f24 x24=0x80009d64
       27155000	      2714	8000114c	01f7a633	slt	x12,x15,x31	 x15:0x80000b88 x31:0x80000c9c x12=0x00000001
       27165000	      2715	80001150	c83fbc13	sltiu	x24,x31,-893	 x31:0x80000c9c x24=0x00000001
       27175000	      2716	80001154	1b655737	lui	x14,0x1b655	 x14=0x1b655000
       27185000	      2717	80001158	2517b993	sltiu	x19,x15,593	 x15:0x80000b88 x19=0x00000000
       27195000	      2718	8000115c	bbc3b213	sltiu	x4,x7,-1092	  x7:0x80000cfd  x4=0x00000001
       27205000	      2719	80001160	00a2de33	srl	x28,x5,x10	  x5:0x80009fcf x10:0x80009f24 x28=0x080009fc
       27215000	      2720	80001164	01612d33	slt	x26,x2,x22	  x2:0x00000001 x22:0x80000aa0 x26=0x00000000
       27225000	      2721	80001168	03d94063	blt	x18,x29,80001188	 x18:0x80000cfc x29:0xffffffff
       27235000	      2722	00000000	00000013	addi	x0,x0,0	  x0:0x00000000
       27245000	      2723	80001184	00000013	addi	x0,x0,0	  x0:0x00000000
       27255000	      2724	80001188	007bf833	and	x16,x23,x7	 x23:0xffffffe0  x7:0x80000cfd x16=0x80000ce0
       27265000	      2725	8000118c	0e186193	ori	x3,x16,225	 x16:0x80000ce0  x3=0x80000ce1
       27275000	      2726	80001190	92027d13	andi	x26,x4,-1760	  x4:0x00000001 x26=0x00000000
       27285000	      2727	80001194	04a68663	beq	x13,x10,800011e0	 x13:0x3e6eded7 x10:0x80009f24
       27295000	      2728	80001198	00fbd813	srli	x16,x23,0xf	 x23:0xffffffe0 x16=0x0001ffff
       27305000	      2729	8000119c	0077a633	slt	x12,x15,x7	 x15:0x80000b88  x7:0x80000cfd x12=0x00000001
       27315000	      2730	800011a0	00000013	addi	x0,x0,0	  x0:0x00000000
       27325000	      2731	800011a4	0011d263	bge	x3,x1,800011a8	  x3:0x80000ce1  x1:0x80000ec0
       27335000	      2732	800011a8	41145993	srai	x19,x8,0x11	  x8:0x00000000 x19=0x00000000
       27345000	      2733	800011ac	011f0733	add	x14,x30,x17	 x30:0x80000f4c x17:0x80000b18 x14=0x00001a64
       27355000	      2734	800011b0	00f41a93	slli	x21,x8,0xf	  x8:0x00000000 x21=0x00000000
       27365000	      2735	800011b4	a2928a97	auipc	x21,0xa2928	 x21=0x229291b0
       27375000	      2736	800011b8	013034b3	sltu	x9,x0,x19	  x0:0x00000000 x19:0x00000000  x9=0x00000000
       27385000	      2737	800011bc	00205013	srli	x0,x0,0x2	  x0:0x00000000
       27395000	      2738	800011c0	41fb8c33	sub	x24,x23,x31	 x23:0xffffffe0 x31:0x80000c9c x24=0x7ffff344
       27405000	      2739	800011c4	97ef8037	lui	x0,0x97ef8	
       27415000	      2740	800011c8	05bce063	bltu	x25,x27,80001208	 x25:0x080000ea x27:0xffffff00
       27425000	      2741	00000000	00000013	addi	x0,x0,0	  x0:0x00000000
       27435000	      2742	80001204	00000013	addi	x0,x0,0	  x0:0x00000000
       27445000	      2743	80001208	412bd793	srai	x15,x23,0x12	 x23:0xffffffe0 x15=0xffffffff
       27455000	      2744	8000120c	00000013	addi	x0,x0,0	  x0:0x00000000
       27465000	      2745	80001210	017f7433	and	x8,x30,x23	 x30:0x80000f4c x23:0xffffffe0  x8=0x80000f40
       27475000	      2746	80001214	255f7393	andi	x7,x30,597	 x30:0x80000f4c  x7=0x00000244
       27485000	      2747	80001218	41d5de13	srai	x28,x11,0x1d	 x11:0x7ffff120 x28=0x00000003
       27495000	      2748	8000121c	00503933	sltu	x18,x0,x5	  x0:0x00000000  x5:0x80009fcf x18=0x00000001
       27505000	      2749	80001220	c3938a13	addi	x20,x7,-967	  x7:0x00000244 x20=0xfffffe7d
       27515000	      2750	80001224	05a8c863	blt	x17,x26,80001274	 x17:0x80000b18 x26:0x00000000
       27525000	      2751	00000000	00000013	addi	x0,x0,0	  x0:0x00000000
       27535000	      2752	80001270	00000013	addi	x0,x0,0	  x0:0x00000000
       27545000	      2753	80001274	06ab6393	ori	x7,x22,106	 x22:0x80000aa0  x7=0x80000aea
       27555000	      2754	80001278	02cc5c63	bge	x24,x12,800012b0	 x24:0x7ffff344 x12:0x00000001
       27565000	      2755	00000000	00000013	addi	x0,x0,0	  x0:0x00000000
       27575000	      2756	800012ac	00000013	addi	x0,x0,0	  x0:0x00000000
       27585000	      2757	800012b0	05e27463	bgeu	x4,x30,800012f8	  x4:0x00000001 x30:0x80000f4c
       27595000	      2758	800012b4	02cc7a63	bgeu	x24,x12,800012e8	 x24:0x7ffff344 x12:0x00000001
       27605000	      2759	00000000	00000013	addi	x0,x0,0	  x0:0x00000000
       27615000	      2760	800012e4	00000013	addi	x0,x0,0	  x0:0x00000000
       27625000	      2761	800012e8	417fd113	srai	x2,x31,0x17	 x31:0x80000c9c  x2=0xffffff00
       27635000	      2762	800012ec	6f6f3493	sltiu	x9,x30,1782	 x30:0x80000f4c  x9=0x00000000
       27645000	      2763	800012f0	013a9a33	sll	x20,x21,x19	 x21:0x229291b0 x19:0x00000000 x20=0x229291b0
       27655000	      2764	800012f4	03ed0063	beq	x26,x30,80001314	 x26:0x00000000 x30:0x80000f4c
       27665000	      2765	800012f8	9f927093	andi	x1,x4,-1543	  x4:0x00000001  x1=0x00000001
       27675000	      2766	800012fc	013f9613	slli	x12,x31,0x13	 x31:0x80000c9c x12=0x64e00000
       27685000	      2767	80001300	8a524e13	xori	x28,x4,-1883	  x4:0x00000001 x28=0xfffff8a4
       27695000	      2768	80001304	03e59863	bne	x11,x30,80001334	 x11:0x7ffff120 x30:0x80000f4c
       27705000	      2769	00000000	00000013	addi	x0,x0,0	  x0:0x00000000
       27715000	      2770	80001330	00000013	addi	x0,x0,0	  x0:0x00000000
       27725000	      2771	80001334	91c20d13	addi	x26,x4,-1764	  x4:0x00000001 x26=0xfffff91d
       27735000	      2772	80001338	01cb9a63	bne	x23,x28,8000134c	 x23:0xffffffe0 x28:0xfffff8a4
       27745000	      2773	00000000	00000013	addi	x0,x0,0	  x0:0x00000000
       27755000	      2774	80001348	00000013	addi	x0,x0,0	  x0:0x00000000
       27765000	      2775	8000134c	00050fb3	add	x31,x10,x0	 x10:0x80009f24  x0:0x00000000 x31=0x80009f24
       27775000	      2776	80001350	169b6113	ori	x2,x22,361	 x22:0x80000aa0  x2=0x80000be9
       27785000	      2777	80001354	3e48eb13	ori	x22,x17,996	 x17:0x80000b18 x22=0x80000bfc
       27795000	      2778	80001358	402f01b3	sub	x3,x30,x2	 x30:0x80000f4c  x2:0x80000be9  x3=0x00000363
       27805000	      2779	8000135c	3e923a13	sltiu	x20,x4,1001	  x4:0x00000001 x20=0x00000001
       27815000	      2780	80001360	41d781b3	sub	x3,x15,x29	 x15:0xffffffff x29:0xffffffff  x3=0x00000000
       27825000	      2781	80001364	013f04b3	add	x9,x30,x19	 x30:0x80000f4c x19:0x00000000  x9=0x80000f4c
       27835000	      2782	80001368	00000013	addi	x0,x0,0	  x0:0x00000000
       27845000	      2783	8000136c	40a30833	sub	x16,x6,x10	  x6:0x80009fc4 x10:0x80009f24 x16=0x000000a0
       27855000	      2784	80001370	00a20f33	add	x30,x4,x10	  x4:0x00000001 x10:0x80009f24 x30=0x80009f25
       27865000	      2785	80001374	01e15113	srli	x2,x2,0x1e	  x2:0x80000be9  x2=0x00000002
       27875000	      2786	80001378	9ba8af13	slti	x30,x17,-1606	 x17:0x80000b18 x30=0x00000001
       27885000	      2787	8000137c	41858eb3	sub	x29,x11,x24	 x11:0x7ffff120 x24:0x7ffff344 x29=0xfffffddc
       27895000	      2788	80001380	054e7663	bgeu	x28,x20,800013cc	 x28:0xfffff8a4 x20:0x00000001
       27905000	      2789	00000000	00000013	addi	x0,x0,0	  x0:0x00000000
       27915000	      2790	800013c8	00000013	addi	x0,x0,0	  x0:0x00000000
       27925000	      2791	800013cc	d36f4793	xori	x15,x30,-714	 x30:0x00000001 x15=0xfffffd37
       27935000	      2792	800013d0	1496af93	slti	x31,x13,329	 x13:0x3e6eded7 x31=0x00000000
       27945000	      2793	800013d4	02cb6263	bltu	x22,x12,800013f8	 x22:0x80000bfc x12:0x64e00000
       27955000	      2794	800013d8	01c0d733	srl	x14,x1,x28	  x1:0x00000001 x28:0xfffff8a4 x14=0x00000000
       27965000	      2795	800013dc	005dc463	blt	x27,x5,800013e4	 x27:0xffffff00  x5:0x80009fcf
       27975000	      2796	800013e0	ab5ffb13	andi	x22,x31,-1355	 x31:0x00000000 x22=0x00000000
       27985000	      2797	800013e4	00000013	addi	x0,x0,0	  x0:0x00000000
       27995000	      2798	800013e8	40efd893	srai	x17,x31,0xe	 x31:0x00000000 x17=0x00000000
       28005000	      2799	800013ec	001fac33	slt	x24,x31,x1	 x31:0x00000000  x1:0x00000001 x24=0x00000001
       28015000	      2800	800013f0	40e3d633	sra	x12,x7,x14	  x7:0x80000aea x14:0x00000000 x12=0x80000aea
       28025000	      2801	800013f4	fd060a13	addi	x20,x12,-48	 x12:0x80000aea x20=0x80000aba
       28035000	      2802	800013f8	01449813	slli	x16,x9,0x14	  x9:0x80000f4c x16=0xf4c00000
       28045000	      2803	800013fc	400c8db3	sub	x27,x25,x0	 x25:0x080000ea  x0:0x00000000 x27=0x080000ea
       28055000	      2804	80001400	01d20fb3	add	x31,x4,x29	  x4:0x00000001 x29:0xfffffddc x31=0xfffffddd
       28065000	      2805	80001404	4108d733	sra	x14,x17,x16	 x17:0x00000000 x16:0xf4c00000 x14=0x00000000
       28075000	      2806	80001408	018a5c63	bge	x20,x24,80001420	 x20:0x80000aba x24:0x00000001
       28085000	      2807	8000140c	04821063	bne	x4,x8,8000144c	  x4:0x00000001  x8:0x80000f40
       28095000	      2808	00000000	00000013	addi	x0,x0,0	  x0:0x00000000
       28105000	      2809	80001448	00000013	addi	x0,x0,0	  x0:0x00000000
       28115000	      2810	8000144c	030d6263	bltu	x26,x16,80001470	 x26:0xfffff91d x16:0xf4c00000
       28125000	      2811	80001450	0174f9b3	and	x19,x9,x23	  x9:0x80000f4c x23:0xffffffe0 x19=0x80000f40
       28135000	      2812	80001454	01114e33	xor	x28,x2,x17	  x2:0x00000002 x17:0x00000000 x28=0x00000002
       28145000	      2813	80001458	40c68e33	sub	x28,x13,x12	 x13:0x3e6eded7 x12:0x80000aea x28=0xbe6ed3ed
       28155000	      2814	8000145c	c763c593	xori	x11,x7,-906	  x7:0x80000aea x11=0x7ffff69c
       28165000	      2815	80001460	44164d93	xori	x27,x12,1089	 x12:0x80000aea x27=0x80000eab
       28175000	      2816	80001464	011e4eb3	xor	x29,x28,x17	 x28:0xbe6ed3ed x17:0x00000000 x29=0xbe6ed3ed
       28185000	      2817	80001468	03c86e63	bltu	x16,x28,800014a4	 x16:0xf4c00000 x28:0xbe6ed3ed
       28195000	      2818	8000146c	4164d913	srai	x18,x9,0x16	  x9:0x80000f4c x18=0xfffffe00
       28205000	      2819	80001470	0355ea63	bltu	x11,x21,800014a4	 x11:0x7ffff69c x21:0x229291b0
       28215000	      2820	80001474	00d7cfb3	xor	x31,x15,x13	 x15:0xfffffd37 x13:0x3e6eded7 x31=0xc19123e0
       28225000	      2821	80001478	01883c33	sltu	x24,x16,x24	 x16:0xf4c00000 x24:0x00000001 x24=0x00000000
       28235000	      2822	8000147c	00941ab3	sll	x21,x8,x9	  x8:0x80000f40  x9:0x80000f4c x21=0x00f40000
       28245000	      2823	80001480	8eb6b713	sltiu	x14,x13,-1813	 x13:0x3e6eded7 x14=0x00000001
       28255000	      2824	80001484	008d6933	or	x18,x26,x8	 x26:0xfffff91d  x8:0x80000f40 x18=0xffffff5d
       28265000	      2825	80001488	02415e63	bge	x2,x4,800014c4	  x2:0x00000002  x4:0x00000001
       28275000	      2826	00000000	00000013	addi	x0,x0,0	  x0:0x00000000
       28285000	      2827	800014c0	00000013	addi	x0,x0,0	  x0:0x00000000
       28295000	      2828	800014c4	00fabfb3	sltu	x31,x21,x15	 x21:0x00f40000 x15:0xfffffd37 x31=0x00000001
       28305000	      2829	800014c8	9366b497	auipc	x9,0x9366b	  x9=0x1366c4c4
       28315000	      2830	800014cc	40f45493	srai	x9,x8,0xf	  x8:0x80000f40  x9=0xffff0000
       28325000	      2831	800014d0	dfb18837	lui	x16,0xdfb18	 x16=0xdfb18000
       28335000	      2832	800014d4	01149c33	sll	x24,x9,x17	  x9:0xffff0000 x17:0x00000000 x24=0xffff0000
       28345000	      2833	800014d8	047ec263	blt	x29,x7,8000151c	 x29:0xbe6ed3ed  x7:0x80000aea
       28355000	      2834	800014dc	a010b737	lui	x14,0xa010b	 x14=0xa010b000
       28365000	      2835	800014e0	7ecf9237	lui	x4,0x7ecf9	  x4=0x7ecf9000
       28375000	      2836	800014e4	012e1c63	bne	x28,x18,800014fc	 x28:0xbe6ed3ed x18:0xffffff5d
       28385000	      2837	00000000	00000013	addi	x0,x0,0	  x0:0x00000000
       28395000	      2838	800014f8	00000013	addi	x0,x0,0	  x0:0x00000000
       28405000	      2839	800014fc	00000013	addi	x0,x0,0	  x0:0x00000000
       28415000	      2840	80001500	dd5b8713	addi	x14,x23,-555	 x23:0xffffffe0 x14=0xfffffdb5
       28425000	      2841	80001504	0052dfb3	srl	x31,x5,x5	  x5:0x80009fcf  x5:0x80009fcf x31=0x00010001
       28435000	      2842	80001508	04bbe663	bltu	x23,x11,80001554	 x23:0xffffffe0 x11:0x7ffff69c
       28445000	      2843	8000150c	00d0e863	bltu	x1,x13,8000151c	  x1:0x00000001 x13:0x3e6eded7
       28455000	      2844	00000000	00000013	addi	x0,x0,0	  x0:0x00000000
       28465000	      2845	80001518	00000013	addi	x0,x0,0	  x0:0x00000000
       28475000	      2846	8000151c	a72f8a93	addi	x21,x31,-1422	 x31:0x00010001 x21=0x0000fa73
       28485000	      2847	80001520	00a683b3	add	x7,x13,x10	 x13:0x3e6eded7 x10:0x80009f24  x7=0xbe6f7dfb
       28495000	      2848	80001524	01679193	slli	x3,x15,0x16	 x15:0xfffffd37  x3=0x4dc00000
       28505000	      2849	80001528	16273113	sltiu	x2,x14,354	 x14:0xfffffdb5  x2=0x00000000
       28515000	      2850	8000152c	639c0f13	addi	x30,x24,1593	 x24:0xffff0000 x30=0xffff0639
       28525000	      2851	80001530	04dbd663	bge	x23,x13,8000157c	 x23:0xffffffe0 x13:0x3e6eded7
       28535000	      2852	80001534	010a9133	sll	x2,x21,x16	 x21:0x0000fa73 x16:0xdfb18000  x2=0x0000fa73
       28545000	      2853	80001538	00a292b3	sll	x5,x5,x10	  x5:0x80009fcf x10:0x80009f24  x5=0x0009fcf0
       28555000	      2854	8000153c	bd99ae17	auipc	x28,0xbd99a	 x28=0x3d99b538
       28565000	      2855	80001540	000add13	srli	x26,x21,0x0	 x21:0x0000fa73 x26=0x0000fa73
       28575000	      2856	80001544	03bae463	bltu	x21,x27,8000156c	 x21:0x0000fa73 x27:0x80000eab
       28585000	      2857	00000000	00000013	addi	x0,x0,0	  x0:0x00000000
       28595000	      2858	80001568	00000013	addi	x0,x0,0	  x0:0x00000000
       28605000	      2859	8000156c	0052a433	slt	x8,x5,x5	  x5:0x0009fcf0  x5:0x0009fcf0  x8=0x00000000
       28615000	      2860	80001570	40f4df33	sra	x30,x9,x15	  x9:0xffff0000 x15:0xfffffd37 x30=0xffffffff
       28625000	      2861	80001574	4128d193	srai	x3,x17,0x12	 x17:0x00000000  x3=0x00000000
       28635000	      2862	80001578	0242cc63	blt	x5,x4,800015b0	  x5:0x0009fcf0  x4:0x7ecf9000
       28645000	      2863	00000000	00000013	addi	x0,x0,0	  x0:0x00000000
       28655000	      2864	800015ac	00000013	addi	x0,x0,0	  x0:0x00000000
       28665000	      2865	800015b0	01ea9113	slli	x2,x21,0x1e	 x21:0x0000fa73  x2=0xc0000000
       28675000	      2866	800015b4	01c16463	bltu	x2,x28,800015bc	  x2:0xc0000000 x28:0x3d99b538
       28685000	      2867	800015b8	43ffb097	auipc	x1,0x43ffb	  x1=0xc3ffc5b4
       28695000	      2868	800015bc	cbce7b93	andi	x23,x28,-836	 x28:0x3d99b538 x23=0x3d99b438
       28705000	      2869	800015c0	005c3633	sltu	x12,x24,x5	 x24:0xffff0000  x5:0x0009fcf0 x12=0x00000000
       28715000	      2870	800015c4	252b6b13	ori	x22,x22,594	 x22:0x00000000 x22=0x00000252
       28725000	      2871	800015c8	03474263	blt	x14,x20,800015ec	 x14:0xfffffdb5 x20:0x80000aba
       28735000	      2872	800015cc	04a50663	beq	x10,x10,80001618	 x10:0x80009f24 x10:0x80009f24
       28745000	      2873	00000000	00000013	addi	x0,x0,0	  x0:0x00000000
       28755000	      2874	80001614	00000013	addi	x0,x0,0	  x0:0x00000000
       28765000	      2875	80001618	48703b93	sltiu	x23,x0,1159	  x0:0x00000000 x23=0x00000001
       28775000	      2876	8000161c	00a87b33	and	x22,x16,x10	 x16:0xdfb18000 x10:0x80009f24 x22=0x80008000
       28785000	      2877	80001620	00d1e2b3	or	x5,x3,x13	  x3:0x00000000 x13:0x3e6eded7  x5=0x3e6eded7
       28795000	      2878	80001624	015cca33	xor	x20,x25,x21	 x25:0x080000ea x21:0x0000fa73 x20=0x0800fa99
       28805000	      2879	80001628	3e3b9b97	auipc	x23,0x3e3b9	 x23=0xbe3ba624
       28815000	      2880	8000162c	01ef1a63	bne	x30,x30,80001640	 x30:0xffffffff x30:0xffffffff
       28825000	      2881	80001630	01e73c33	sltu	x24,x14,x30	 x14:0xfffffdb5 x30:0xffffffff x24=0x00000001
       28835000	      2882	80001634	00422933	slt	x18,x4,x4	  x4:0x7ecf9000  x4:0x7ecf9000 x18=0x00000000
       28845000	      2883	80001638	41480933	sub	x18,x16,x20	 x16:0xdfb18000 x20:0x0800fa99 x18=0xd7b08567
       28855000	      2884	8000163c	03f50a63	beq	x10,x31,80001670	 x10:0x80009f24 x31:0x00010001
       28865000	      2885	80001640	014ea2b3	slt	x5,x29,x20	 x29:0xbe6ed3ed x20:0x0800fa99  x5=0x00000001
       28875000	      2886	80001644	bef20c93	addi	x25,x4,-1041	  x4:0x7ecf9000 x25=0x7ecf8bef
       28885000	      2887	80001648	c0dc7d93	andi	x27,x24,-1011	 x24:0x00000001 x27=0x00000001
       28895000	      2888	8000164c	3e687993	andi	x19,x16,998	 x16:0xdfb18000 x19=0x00000000
       28905000	      2889	80001650	20a6f813	andi	x16,x13,522	 x13:0x3e6eded7 x16=0x00000202
       28915000	      2890	80001654	8a172093	slti	x1,x14,-1887	 x14:0xfffffdb5  x1=0x00000000
       28925000	      2891	80001658	0278c263	blt	x17,x7,8000167c	 x17:0x00000000  x7:0xbe6f7dfb
       28935000	      2892	8000165c	000b92b3	sll	x5,x23,x0	 x23:0xbe3ba624  x0:0x00000000  x5=0xbe3ba624
       28945000	      2893	80001660	0037f0b3	and	x1,x15,x3	 x15:0xfffffd37  x3:0x00000000  x1=0x00000000
       28955000	      2894	80001664	378e0e93	addi	x29,x28,888	 x28:0x3d99b538 x29=0x3d99b8b0
       28965000	      2895	80001668	01a55813	srli	x16,x10,0x1a	 x10:0x80009f24 x16=0x00000020
       28975000	      2896	8000166c	001c7c63	bgeu	x24,x1,80001684	 x24:0x00000001  x1:0x00000000
       28985000	      2897	00000000	00000013	addi	x0,x0,0	  x0:0x00000000
       28995000	      2898	80001680	00000013	addi	x0,x0,0	  x0:0x00000000
       29005000	      2899	80001684	0129feb3	and	x29,x19,x18	 x19:0x00000000 x18:0xd7b08567 x29=0x00000000
       29015000	      2900	80001688	014d3cb3	sltu	x25,x26,x20	 x26:0x0000fa73 x20:0x0800fa99 x25=0x00000001
       29025000	      2901	8000168c	15d96d93	ori	x27,x18,349	 x18:0xd7b08567 x27=0xd7b0857f
       29035000	      2902	80001690	045ce063	bltu	x25,x5,800016d0	 x25:0x00000001  x5:0xbe3ba624
       29045000	      2903	00000000	00000013	addi	x0,x0,0	  x0:0x00000000
       29055000	      2904	800016cc	00000013	addi	x0,x0,0	  x0:0x00000000
       29065000	      2905	800016d0	bb9e8237	lui	x4,0xbb9e8	  x4=0xbb9e8000
       29075000	      2906	800016d4	01336133	or	x2,x6,x19	  x6:0x80009fc4 x19:0x00000000  x2=0x80009fc4
       29085000	      2907	800016d8	c914ef93	ori	x31,x9,-879	  x9:0xffff0000 x31=0xfffffc91
       29095000	      2908	800016dc	018ff7b3	and	x15,x31,x24	 x31:0xfffffc91 x24:0x00000001 x15=0x00000001
       29105000	      2909	800016e0	41245c13	srai	x24,x8,0x12	  x8:0x00000000 x24=0x00000000
       29115000	      2910	800016e4	4085d793	srai	x15,x11,0x8	 x11:0x7ffff69c x15=0x007ffff6
       29125000	      2911	800016e8	05cf6293	ori	x5,x30,92	 x30:0xffffffff  x5=0xffffffff
       29135000	      2912	800016ec	016d8c33	add	x24,x27,x22	 x27:0xd7b0857f x22:0x80008000 x24=0x57b1057f
       29145000	      2913	800016f0	8f892913	slti	x18,x18,-1800	 x18:0xd7b08567 x18=0x00000001
       29155000	      2914	800016f4	30f8af93	slti	x31,x17,783	 x17:0x00000000 x31=0x00000001
       29165000	      2915	800016f8	013775b3	and	x11,x14,x19	 x14:0xfffffdb5 x19:0x00000000 x11=0x00000000
       29175000	      2916	800016fc	410907b3	sub	x15,x18,x16	 x18:0x00000001 x16:0x00000020 x15=0xffffffe1
       29185000	      2917	80001700	016b34b3	sltu	x9,x22,x22	 x22:0x80008000 x22:0x80008000  x9=0x00000000
       29195000	      2918	80001704	0002a9b3	slt	x19,x5,x0	  x5:0xffffffff  x0:0x00000000 x19=0x00000001
       29205000	      2919	80001708	41f24493	xori	x9,x4,1055	  x4:0xbb9e8000  x9=0xbb9e841f
       29215000	      2920	8000170c	3b31a037	lui	x0,0x3b31a	
       29225000	      2921	80001710	317a8597	auipc	x11,0x317a8	 x11=0xb17a970c
       29235000	      2922	80001714	73d20a93	addi	x21,x4,1853	  x4:0xbb9e8000 x21=0xbb9e873d
       29245000	      2923	80001718	76989037	lui	x0,0x76989	
       29255000	      2924	8000171c	fc3faa93	slti	x21,x31,-61	 x31:0x00000001 x21=0x00000000
       29265000	      2925	80001720	00eaebb3	or	x23,x21,x14	 x21:0x00000000 x14:0xfffffdb5 x23=0xfffffdb5
       29275000	      2926	80001724	b58df413	andi	x8,x27,-1192	 x27:0xd7b0857f  x8=0xd7b08158
       29285000	      2927	80001728	00000013	addi	x0,x0,0	  x0:0x00000000
       29295000	      2928	8000172c	0e174437	lui	x8,0xe174	  x8=0x0e174000
       29305000	      2929	80001730	00dba713	slti	x14,x23,13	 x23:0xfffffdb5 x14=0x00000001
       29315000	      2930	80001734	6c272493	slti	x9,x14,1730	 x14:0x00000001  x9=0x00000001
       29325000	      2931	80001738	001bd293	srli	x5,x23,0x1	 x23:0xfffffdb5  x5=0x7ffffeda
       29335000	      2932	8000173c	03c08063	beq	x1,x28,8000175c	  x1:0x00000000 x28:0x3d99b538
       29345000	      2933	80001740	811c7b97	auipc	x23,0x811c7	 x23=0x011c873c
       29355000	      2934	80001744	01889ab3	sll	x21,x17,x24	 x17:0x00000000 x24:0x57b1057f x21=0x00000000
       29365000	      2935	80001748	023be463	bltu	x23,x3,80001770	 x23:0x011c873c  x3:0x00000000
       29375000	      2936	8000174c	12686d93	ori	x27,x16,294	 x16:0x00000020 x27=0x00000126
       29385000	      2937	80001750	40bd0a33	sub	x20,x26,x11	 x26:0x0000fa73 x11:0xb17a970c x20=0x4e866367
       29395000	      2938	80001754	c3e76e93	ori	x29,x14,-962	 x14:0x00000001 x29=0xfffffc3f
       29405000	      2939	80001758	013d1733	sll	x14,x26,x19	 x26:0x0000fa73 x19:0x00000001 x14=0x0001f4e6
       29415000	      2940	8000175c	0c71f463	bgeu	x3,x7,80001824	  x3:0x00000000  x7:0xbe6f7dfb
       29425000	      2941	80001760	0082e263	bltu	x5,x8,80001764	  x5:0x7ffffeda  x8:0x0e174000
       29435000	      2942	80001764	00df6133	or	x2,x30,x13	 x30:0xffffffff x13:0x3e6eded7  x2=0xffffffff
       29445000	      2943	80001768	00000013	addi	x0,x0,0	  x0:0x00000000
       29455000	      2944	8000176c	41968b33	sub	x22,x13,x25	 x13:0x3e6eded7 x25:0x00000001 x22=0x3e6eded6
       29465000	      2945	80001770	01885193	srli	x3,x16,0x18	 x16:0x00000020  x3=0x00000000
       29475000	      2946	80001774	0c016263	bltu	x2,x0,80001838	  x2:0xffffffff  x0:0x00000000
       29485000	      2947	80001778	01738933	add	x18,x7,x23	  x7:0xbe6f7dfb x23:0x011c873c x18=0xbf8c0537
       29495000	      2948	8000177c	417050b3	sra	x1,x0,x23	  x0:0x00000000 x23:0x011c873c  x1=0x00000000
       29505000	      2949	80001780	00f5df33	srl	x30,x11,x15	 x11:0xb17a970c x15:0xffffffe1 x30=0x58bd4b86
       29515000	      2950	80001784	41cfd433	sra	x8,x31,x28	 x31:0x00000001 x28:0x3d99b538  x8=0x00000000
       29525000	      2951	80001788	40045293	srai	x5,x8,0x0	  x8:0x00000000  x5=0x00000000
       29535000	      2952	8000178c	01a4e933	or	x18,x9,x26	  x9:0x00000001 x26:0x0000fa73 x18=0x0000fa73
       29545000	      2953	80001790	9ccb4b13	xori	x22,x22,-1588	 x22:0x3e6eded6 x22=0xc191271a
       29555000	      2954	80001794	0016a3b3	slt	x7,x13,x1	 x13:0x3e6eded7  x1:0x00000000  x7=0x00000000
       29565000	      2955	80001798	03000d6f	jal	x26,80001798	 x26=0x80001798
       29575000	      2956	00000000	00000013	addi	x0,x0,0	  x0:0x00000000
       29585000	      2957	800017c4	00000013	addi	x0,x0,0	  x0:0x00000000
       29595000	      2958	800017c8	004000ef	jal	x1,800017c8	  x1=0x800017c8
       29605000	      2959	00000000	00000013	addi	x0,x0,0	  x0:0x00000000
       29615000	      2960	800017c8	00000013	addi	x0,x0,0	  x0:0x00000000
       29625000	      2961	800017cc	ff1ff86f	jal	x16,800017cc	 x16=0x800017cc
       29635000	      2962	00000000	00000013	addi	x0,x0,0	  x0:0x00000000
       29645000	      2963	800017b8	00000013	addi	x0,x0,0	  x0:0x00000000
       29655000	      2964	800017bc	038000ef	jal	x1,800017bc	  x1=0x800017bc
       29665000	      2965	00000000	00000013	addi	x0,x0,0	  x0:0x00000000
       29675000	      2966	800017f0	00000013	addi	x0,x0,0	  x0:0x00000000
       29685000	      2967	800017f4	fe9ff0ef	jal	x1,800017f4	  x1=0x800017f4
       29695000	      2968	00000000	00000013	addi	x0,x0,0	  x0:0x00000000
       29705000	      2969	800017d8	00000013	addi	x0,x0,0	  x0:0x00000000
       29715000	      2970	800017dc	00400b6f	jal	x22,800017dc	 x22=0x800017dc
       29725000	      2971	00000000	00000013	addi	x0,x0,0	  x0:0x00000000
       29735000	      2972	800017dc	00000013	addi	x0,x0,0	  x0:0x00000000
       29745000	      2973	800017e0	02c0066f	jal	x12,800017e0	 x12=0x800017e0
       29755000	      2974	00000000	00000013	addi	x0,x0,0	  x0:0x00000000
       29765000	      2975	80001808	00000013	addi	x0,x0,0	  x0:0x00000000
       29775000	      2976	8000180c	fd9ff0ef	jal	x1,8000180c	  x1=0x8000180c
       29785000	      2977	00000000	00000013	addi	x0,x0,0	  x0:0x00000000
       29795000	      2978	800017e0	00000013	addi	x0,x0,0	  x0:0x00000000
       29805000	      2979	800017e4	fc9ff0ef	jal	x1,800017e4	  x1=0x800017e4
       29815000	      2980	00000000	00000013	addi	x0,x0,0	  x0:0x00000000
       29825000	      2981	800017a8	00000013	addi	x0,x0,0	  x0:0x00000000
       29835000	      2982	800017ac	040000ef	jal	x1,800017ac	  x1=0x800017ac
       29845000	      2983	00000000	00000013	addi	x0,x0,0	  x0:0x00000000
       29855000	      2984	800017e8	00000013	addi	x0,x0,0	  x0:0x00000000
       29865000	      2985	800017ec	fb5ff0ef	jal	x1,800017ec	  x1=0x800017ec
       29875000	      2986	00000000	00000013	addi	x0,x0,0	  x0:0x00000000
       29885000	      2987	8000179c	00000013	addi	x0,x0,0	  x0:0x00000000
       29895000	      2988	800017a0	048000ef	jal	x1,800017a0	  x1=0x800017a0
       29905000	      2989	00000000	00000013	addi	x0,x0,0	  x0:0x00000000
       29915000	      2990	800017e4	00000013	addi	x0,x0,0	  x0:0x00000000
       29925000	      2991	800017e8	020000ef	jal	x1,800017e8	  x1=0x800017e8
       29935000	      2992	00000000	00000013	addi	x0,x0,0	  x0:0x00000000
       29945000	      2993	80001804	00000013	addi	x0,x0,0	  x0:0x00000000
       29955000	      2994	80001808	fd1ff5ef	jal	x11,80001808	 x11=0x80001808
       29965000	      2995	00000000	00000013	addi	x0,x0,0	  x0:0x00000000
       29975000	      2996	800017d4	00000013	addi	x0,x0,0	  x0:0x00000000
       29985000	      2997	800017d8	024000ef	jal	x1,800017d8	  x1=0x800017d8
       29995000	      2998	00000000	00000013	addi	x0,x0,0	  x0:0x00000000
       30005000	      2999	800017f8	00000013	addi	x0,x0,0	  x0:0x00000000
       30015000	      3000	800017fc	fd9ff66f	jal	x12,800017fc	 x12=0x800017fc
       30025000	      3001	00000000	00000013	addi	x0,x0,0	  x0:0x00000000
       30035000	      3002	800017d0	00000013	addi	x0,x0,0	  x0:0x00000000
       30045000	      3003	800017d4	024005ef	jal	x11,800017d4	 x11=0x800017d4
       30055000	      3004	00000000	00000013	addi	x0,x0,0	  x0:0x00000000
       30065000	      3005	800017f4	00000013	addi	x0,x0,0	  x0:0x00000000
       30075000	      3006	800017f8	fcdff2ef	jal	x5,800017f8	  x5=0x800017f8
       30085000	      3007	00000000	00000013	addi	x0,x0,0	  x0:0x00000000
       30095000	      3008	800017c0	00000013	addi	x0,x0,0	  x0:0x00000000
       30105000	      3009	800017c4	040000ef	jal	x1,800017c4	  x1=0x800017c4
       30115000	      3010	00000000	00000013	addi	x0,x0,0	  x0:0x00000000
       30125000	      3011	80001800	00000013	addi	x0,x0,0	  x0:0x00000000
       30135000	      3012	80001804	fadff0ef	jal	x1,80001804	  x1=0x80001804
       30145000	      3013	00000000	00000013	addi	x0,x0,0	  x0:0x00000000
       30155000	      3014	800017ac	00000013	addi	x0,x0,0	  x0:0x00000000
       30165000	      3015	800017b0	05000e6f	jal	x28,800017b0	 x28=0x800017b0
       30175000	      3016	00000000	00000013	addi	x0,x0,0	  x0:0x00000000
       30185000	      3017	800017fc	00000013	addi	x0,x0,0	  x0:0x00000000
       30195000	      3018	80001800	fa5ff1ef	jal	x3,80001800	  x3=0x80001800
       30205000	      3019	00000000	00000013	addi	x0,x0,0	  x0:0x00000000
       30215000	      3020	800017a0	00000013	addi	x0,x0,0	  x0:0x00000000
       30225000	      3021	800017a4	014000ef	jal	x1,800017a4	  x1=0x800017a4
       30235000	      3022	00000000	00000013	addi	x0,x0,0	  x0:0x00000000
       30245000	      3023	800017b4	00000013	addi	x0,x0,0	  x0:0x00000000
       30255000	      3024	800017b8	fe5ff2ef	jal	x5,800017b8	  x5=0x800017b8
       30265000	      3025	00000000	00000013	addi	x0,x0,0	  x0:0x00000000
       30275000	      3026	80001798	00000013	addi	x0,x0,0	  x0:0x00000000
       30285000	      3027	8000179c	034000ef	jal	x1,8000179c	  x1=0x8000179c
       30295000	      3028	00000000	00000013	addi	x0,x0,0	  x0:0x00000000
       30305000	      3029	800017cc	00000013	addi	x0,x0,0	  x0:0x00000000
       30315000	      3030	800017d0	ff1ffaef	jal	x21,800017d0	 x21=0x800017d0
       30325000	      3031	00000000	00000013	addi	x0,x0,0	  x0:0x00000000
       30335000	      3032	800017bc	00000013	addi	x0,x0,0	  x0:0x00000000
       30345000	      3033	800017c0	fe9ff0ef	jal	x1,800017c0	  x1=0x800017c0
       30355000	      3034	00000000	00000013	addi	x0,x0,0	  x0:0x00000000
       30365000	      3035	800017a4	00000013	addi	x0,x0,0	  x0:0x00000000
       30375000	      3036	800017a8	00c000ef	jal	x1,800017a8	  x1=0x800017a8
       30385000	      3037	00000000	00000013	addi	x0,x0,0	  x0:0x00000000
       30395000	      3038	800017b0	00000013	addi	x0,x0,0	  x0:0x00000000
       30405000	      3039	800017b4	03c0096f	jal	x18,800017b4	 x18=0x800017b4
       30415000	      3040	00000000	00000013	addi	x0,x0,0	  x0:0x00000000
       30425000	      3041	800017ec	00000013	addi	x0,x0,0	  x0:0x00000000
       30435000	      3042	800017f0	020000ef	jal	x1,800017f0	  x1=0x800017f0
       30445000	      3043	00000000	00000013	addi	x0,x0,0	  x0:0x00000000
       30455000	      3044	8000180c	00000013	addi	x0,x0,0	  x0:0x00000000
       30465000	      3045	80001810	b95cb193	sltiu	x3,x25,-1131	 x25:0x00000001  x3=0x00000001
       30475000	      3046	80001814	ec8fa993	slti	x19,x31,-312	 x31:0x00000001 x19=0x00000000
       30485000	      3047	80001818	000f7863	bgeu	x30,x0,80001828	 x30:0x58bd4b86  x0:0x00000000
       30495000	      3048	00000000	00000013	addi	x0,x0,0	  x0:0x00000000
       30505000	      3049	80001824	00000013	addi	x0,x0,0	  x0:0x00000000
       30515000	      3050	80001828	02714863	blt	x2,x7,80001858	  x2:0xffffffff  x7:0x00000000
       30525000	      3051	00000000	00000013	addi	x0,x0,0	  x0:0x00000000
       30535000	      3052	80001854	00000013	addi	x0,x0,0	  x0:0x00000000
       30545000	      3053	80001858	803d7093	andi	x1,x26,-2045	 x26:0x80001798  x1=0x80001000
       30555000	      3054	8000185c	00c73833	sltu	x16,x14,x12	 x14:0x0001f4e6 x12:0x800017fc x16=0x00000001
       30565000	      3055	80001860	058fe663	bltu	x31,x24,800018ac	 x31:0x00000001 x24:0x57b1057f
       30575000	      3056	00000000	00000013	addi	x0,x0,0	  x0:0x00000000
       30585000	      3057	800018a8	00000013	addi	x0,x0,0	  x0:0x00000000
       30595000	      3058	800018ac	8744e137	lui	x2,0x8744e	  x2=0x8744e000
       30605000	      3059	800018b0	0081ac33	slt	x24,x3,x8	  x3:0x00000001  x8:0x00000000 x24=0x00000000
       30615000	      3060	800018b4	00de0263	beq	x28,x13,800018b8	 x28:0x800017b0 x13:0x3e6eded7
       30625000	      3061	800018b8	00000013	addi	x0,x0,0	  x0:0x00000000
       30635000	      3062	800018bc	00a84d33	xor	x26,x16,x10	 x16:0x00000001 x10:0x80009f24 x26=0x80009f25
       30645000	      3063	800018c0	98027eb7	lui	x29,0x98027	 x29=0x98027000
       30655000	      3064	800018c4	40a0db93	srai	x23,x1,0xa	  x1:0x80001000 x23=0xffe00004
       30665000	      3065	800018c8	01569913	slli	x18,x13,0x15	 x13:0x3e6eded7 x18=0xdae00000
       30675000	      3066	800018cc	036c7463	bgeu	x24,x22,800018f4	 x24:0x00000000 x22:0x800017dc
       30685000	      3067	800018d0	404fdb13	srai	x22,x31,0x4	 x31:0x00000001 x22=0x00000000
       30695000	      3068	800018d4	00221593	slli	x11,x4,0x2	  x4:0xbb9e8000 x11=0xee7a0000
       30705000	      3069	800018d8	005cd8b3	srl	x17,x25,x5	 x25:0x00000001  x5:0x800017b8 x17=0x00000000
       30715000	      3070	800018dc	000088b3	add	x17,x1,x0	  x1:0x80001000  x0:0x00000000 x17=0x80001000
       30725000	      3071	800018e0	0962c263	blt	x5,x22,80001964	  x5:0x800017b8 x22:0x00000000
       30735000	      3072	00000000	00000013	addi	x0,x0,0	  x0:0x00000000
       30745000	      3073	80001960	00000013	addi	x0,x0,0	  x0:0x00000000
       30755000	      3074	80001964	d798ad93	slti	x27,x17,-647	 x17:0x80001000 x27=0x00000001
       30765000	      3075	80001968	94896f93	ori	x31,x18,-1720	 x18:0xdae00000 x31=0xfffff948
       30775000	      3076	8000196c	03b3fc63	bgeu	x7,x27,800019a4	  x7:0x00000000 x27:0x00000001
       30785000	      3077	80001970	c78dbe93	sltiu	x29,x27,-904	 x27:0x00000001 x29=0x00000001
       30795000	      3078	80001974	00860a33	add	x20,x12,x8	 x12:0x800017fc  x8:0x00000000 x20=0x800017fc
       30805000	      3079	80001978	dcbce893	ori	x17,x25,-565	 x25:0x00000001 x17=0xfffffdcb
       30815000	      3080	8000197c	c7f67d93	andi	x27,x12,-897	 x12:0x800017fc x27=0x8000147c
       30825000	      3081	80001980	01451db3	sll	x27,x10,x20	 x10:0x80009f24 x20:0x800017fc x27=0x40000000
       30835000	      3082	80001984	00d26463	bltu	x4,x13,8000198c	  x4:0xbb9e8000 x13:0x3e6eded7
       30845000	      3083	80001988	00de50b3	srl	x1,x28,x13	 x28:0x800017b0 x13:0x3e6eded7  x1=0x00000100
       30855000	      3084	8000198c	5da5a113	slti	x2,x11,1498	 x11:0xee7a0000  x2=0x00000001
       30865000	      3085	80001990	c3e30c13	addi	x24,x6,-962	  x6:0x80009fc4 x24=0x80009c02
       30875000	      3086	80001994	0029db93	srli	x23,x19,0x2	 x19:0x00000000 x23=0x00000000
       30885000	      3087	80001998	00fdf2b3	and	x5,x27,x15	 x27:0x40000000 x15:0xffffffe1  x5=0x40000000
       30895000	      3088	8000199c	413fd933	sra	x18,x31,x19	 x31:0xfffff948 x19:0x00000000 x18=0xfffff948
       30905000	      3089	800019a0	6333eb13	ori	x22,x7,1587	  x7:0x00000000 x22=0x00000633
       30915000	      3090	800019a4	01257e63	bgeu	x10,x18,800019c0	 x10:0x80009f24 x18:0xfffff948
       30925000	      3091	800019a8	01d1f033	and	x0,x3,x29	  x3:0x00000001 x29:0x00000001
       30935000	      3092	800019ac	03a89263	bne	x17,x26,800019d0	 x17:0xfffffdcb x26:0x80009f25
       30945000	      3093	00000000	00000013	addi	x0,x0,0	  x0:0x00000000
       30955000	      3094	800019cc	00000013	addi	x0,x0,0	  x0:0x00000000
       30965000	      3095	800019d0	00218863	beq	x3,x2,800019e0	  x3:0x00000001  x2:0x00000001
       30975000	      3096	00000000	00000013	addi	x0,x0,0	  x0:0x00000000
       30985000	      3097	800019dc	00000013	addi	x0,x0,0	  x0:0x00000000
       30995000	      3098	800019e0	fda66f93	ori	x31,x12,-38	 x12:0x800017fc x31=0xfffffffe
       31005000	      3099	800019e4	00c159b3	srl	x19,x2,x12	  x2:0x00000001 x12:0x800017fc x19=0x00000000
       31015000	      3100	800019e8	a23f3a13	sltiu	x20,x30,-1501	 x30:0x58bd4b86 x20=0x00000001
       31025000	      3101	800019ec	019d19b3	sll	x19,x26,x25	 x26:0x80009f25 x25:0x00000001 x19=0x00013e4a
       31035000	      3102	800019f0	015de433	or	x8,x27,x21	 x27:0x40000000 x21:0x800017d0  x8=0xc00017d0
       31045000	      3103	800019f4	5c2a2293	slti	x5,x20,1474	 x20:0x00000001  x5=0x00000001
       31055000	      3104	800019f8	fcd5bb13	sltiu	x22,x11,-51	 x11:0xee7a0000 x22=0x00000001
       31065000	      3105	800019fc	0ecad863	bge	x21,x12,80001aec	 x21:0x800017d0 x12:0x800017fc
       31075000	      3106	80001a00	03000d6f	jal	x26,80001a00	 x26=0x80001a00
       31085000	      3107	00000000	00000013	addi	x0,x0,0	  x0:0x00000000
       31095000	      3108	80001a2c	00000013	addi	x0,x0,0	  x0:0x00000000
       31105000	      3109	80001a30	ff9ffa6f	jal	x20,80001a30	 x20=0x80001a30
       31115000	      3110	00000000	00000013	addi	x0,x0,0	  x0:0x00000000
       31125000	      3111	80001a24	00000013	addi	x0,x0,0	  x0:0x00000000
       31135000	      3112	80001a28	ff5ff0ef	jal	x1,80001a28	  x1=0x80001a28
       31145000	      3113	00000000	00000013	addi	x0,x0,0	  x0:0x00000000
       31155000	      3114	80001a18	00000013	addi	x0,x0,0	  x0:0x00000000
       31165000	      3115	80001a1c	008002ef	jal	x5,80001a1c	  x5=0x80001a1c
       31175000	      3116	00000000	00000013	addi	x0,x0,0	  x0:0x00000000
       31185000	      3117	80001a20	00000013	addi	x0,x0,0	  x0:0x00000000
       31195000	      3118	80001a24	fe1ff0ef	jal	x1,80001a24	  x1=0x80001a24
       31205000	      3119	00000000	00000013	addi	x0,x0,0	  x0:0x00000000
       31215000	      3120	80001a00	00000013	addi	x0,x0,0	  x0:0x00000000
       31225000	      3121	80001a04	034000ef	jal	x1,80001a04	  x1=0x80001a04
       31235000	      3122	00000000	00000013	addi	x0,x0,0	  x0:0x00000000
       31245000	      3123	80001a34	00000013	addi	x0,x0,0	  x0:0x00000000
       31255000	      3124	80001a38	fd1ff0ef	jal	x1,80001a38	  x1=0x80001a38
       31265000	      3125	00000000	00000013	addi	x0,x0,0	  x0:0x00000000
       31275000	      3126	80001a04	00000013	addi	x0,x0,0	  x0:0x00000000
       31285000	      3127	80001a08	024000ef	jal	x1,80001a08	  x1=0x80001a08
       31295000	      3128	00000000	00000013	addi	x0,x0,0	  x0:0x00000000
       31305000	      3129	80001a28	00000013	addi	x0,x0,0	  x0:0x00000000
       31315000	      3130	80001a2c	008000ef	jal	x1,80001a2c	  x1=0x80001a2c
       31325000	      3131	00000000	00000013	addi	x0,x0,0	  x0:0x00000000
       31335000	      3132	80001a30	00000013	addi	x0,x0,0	  x0:0x00000000
       31345000	      3133	80001a34	fe1ff0ef	jal	x1,80001a34	  x1=0x80001a34
       31355000	      3134	00000000	00000013	addi	x0,x0,0	  x0:0x00000000
       31365000	      3135	80001a10	00000013	addi	x0,x0,0	  x0:0x00000000
       31375000	      3136	80001a14	028000ef	jal	x1,80001a14	  x1=0x80001a14
       31385000	      3137	00000000	00000013	addi	x0,x0,0	  x0:0x00000000
       31395000	      3138	80001a38	00000013	addi	x0,x0,0	  x0:0x00000000
       31405000	      3139	80001a3c	00c000ef	jal	x1,80001a3c	  x1=0x80001a3c
       31415000	      3140	00000000	00000013	addi	x0,x0,0	  x0:0x00000000
       31425000	      3141	80001a44	00000013	addi	x0,x0,0	  x0:0x00000000
       31435000	      3142	80001a48	ffdff2ef	jal	x5,80001a48	  x5=0x80001a48
       31445000	      3143	00000000	00000013	addi	x0,x0,0	  x0:0x00000000
       31455000	      3144	80001a40	00000013	addi	x0,x0,0	  x0:0x00000000
       31465000	      3145	80001a44	fddff0ef	jal	x1,80001a44	  x1=0x80001a44
       31475000	      3146	00000000	00000013	addi	x0,x0,0	  x0:0x00000000
       31485000	      3147	80001a1c	00000013	addi	x0,x0,0	  x0:0x00000000
       31495000	      3148	80001a20	fedff0ef	jal	x1,80001a20	  x1=0x80001a20
       31505000	      3149	00000000	00000013	addi	x0,x0,0	  x0:0x00000000
       31515000	      3150	80001a08	00000013	addi	x0,x0,0	  x0:0x00000000
       31525000	      3151	80001a0c	034000ef	jal	x1,80001a0c	  x1=0x80001a0c
       31535000	      3152	00000000	00000013	addi	x0,x0,0	  x0:0x00000000
       31545000	      3153	80001a3c	00000013	addi	x0,x0,0	  x0:0x00000000
       31555000	      3154	80001a40	fd9ff0ef	jal	x1,80001a40	  x1=0x80001a40
       31565000	      3155	00000000	00000013	addi	x0,x0,0	  x0:0x00000000
       31575000	      3156	80001a14	00000013	addi	x0,x0,0	  x0:0x00000000
       31585000	      3157	80001a18	ff9ff96f	jal	x18,80001a18	 x18=0x80001a18
       31595000	      3158	00000000	00000013	addi	x0,x0,0	  x0:0x00000000
       31605000	      3159	80001a0c	00000013	addi	x0,x0,0	  x0:0x00000000
       31615000	      3160	80001a10	03c000ef	jal	x1,80001a10	  x1=0x80001a10
       31625000	      3161	00000000	00000013	addi	x0,x0,0	  x0:0x00000000
       31635000	      3162	80001a48	00000013	addi	x0,x0,0	  x0:0x00000000
       31645000	      3163	80001a4c	00000013	addi	x0,x0,0	  x0:0x00000000
       31655000	      3164	80001a50	00717d33	and	x26,x2,x7	  x2:0x00000001  x7:0x00000000 x26=0x00000000
       31665000	      3165	80001a54	415b5033	sra	x0,x22,x21	 x22:0x00000001 x21:0x800017d0
       31675000	      3166	80001a58	000ae863	bltu	x21,x0,80001a68	 x21:0x800017d0  x0:0x00000000
       31685000	      3167	80001a5c	419385b3	sub	x11,x7,x25	  x7:0x00000000 x25:0x00000001 x11=0xffffffff
       31695000	      3168	80001a60	700d3e93	sltiu	x29,x26,1792	 x26:0x00000000 x29=0x00000001
       31705000	      3169	80001a64	01a05b93	srli	x23,x0,0x1a	  x0:0x00000000 x23=0x00000000
       31715000	      3170	80001a68	01ddce33	xor	x28,x27,x29	 x27:0x40000000 x29:0x00000001 x28=0x40000001
       31725000	      3171	80001a6c	92c5c8b7	lui	x17,0x92c5c	 x17=0x92c5c000
       31735000	      3172	80001a70	09a11063	bne	x2,x26,80001af0	  x2:0x00000001 x26:0x00000000
       31745000	      3173	00000000	00000013	addi	x0,x0,0	  x0:0x00000000
       31755000	      3174	80001aec	00000013	addi	x0,x0,0	  x0:0x00000000
       31765000	      3175	80001af0	02370263	beq	x14,x3,80001b14	 x14:0x0001f4e6  x3:0x00000001
       31775000	      3176	80001af4	c860cd13	xori	x26,x1,-890	  x1:0x80001a10 x26=0x7fffe696
       31785000	      3177	80001af8	05d2f063	bgeu	x5,x29,80001b38	  x5:0x80001a48 x29:0x00000001
       31795000	      3178	00000000	00000013	addi	x0,x0,0	  x0:0x00000000
       31805000	      3179	80001b34	00000013	addi	x0,x0,0	  x0:0x00000000
       31815000	      3180	80001b38	00000013	addi	x0,x0,0	  x0:0x00000000
       31825000	      3181	80001b3c	00000013	addi	x0,x0,0	  x0:0x00000000
       31835000	      3182	80001b40	001977b3	and	x15,x18,x1	 x18:0x80001a18  x1:0x80001a10 x15=0x80001a10
       31845000	      3183	80001b44	00b99293	slli	x5,x19,0xb	 x19:0x00013e4a  x5=0x09f25000
       31855000	      3184	80001b48	00abd033	srl	x0,x23,x10	 x23:0x00000000 x10:0x80009f24
       31865000	      3185	80001b4c	ad72eb93	ori	x23,x5,-1321	  x5:0x09f25000 x23=0xfffffad7
       31875000	      3186	80001b50	00000013	addi	x0,x0,0	  x0:0x00000000
       31885000	      3187	80001b54	0511bf13	sltiu	x30,x3,81	  x3:0x00000001 x30=0x00000001
       31895000	      3188	80001b58	009cc263	blt	x25,x9,80001b5c	 x25:0x00000001  x9:0x00000001
       31905000	      3189	80001b5c	411f5393	srai	x7,x30,0x11	 x30:0x00000001  x7=0x00000000
       31915000	      3190	80001b60	0408d863	bge	x17,x0,80001bb0	 x17:0x92c5c000  x0:0x00000000
       31925000	      3191	80001b64	0163cf33	xor	x30,x7,x22	  x7:0x00000000 x22:0x00000001 x30=0x00000001
       31935000	      3192	80001b68	009db133	sltu	x2,x27,x9	 x27:0x40000000  x9:0x00000001  x2=0x00000000
       31945000	      3193	80001b6c	daa6ce13	xori	x28,x13,-598	 x13:0x3e6eded7 x28=0xc191237d
       31955000	      3194	80001b70	40f8d433	sra	x8,x17,x15	 x17:0x92c5c000 x15:0x80001a10  x8=0xffff92c5
       31965000	      3195	80001b74	cead7093	andi	x1,x26,-790	 x26:0x7fffe696  x1=0x7fffe482
       31975000	      3196	80001b78	df417093	andi	x1,x2,-524	  x2:0x00000000  x1=0x00000000
       31985000	      3197	80001b7c	7e577b93	andi	x23,x14,2021	 x14:0x0001f4e6 x23=0x000004e4
       31995000	      3198	80001b80	873afc93	andi	x25,x21,-1933	 x21:0x800017d0 x25=0x80001050
       32005000	      3199	80001b84	05fe1663	bne	x28,x31,80001bd0	 x28:0xc191237d x31:0xfffffffe
       32015000	      3200	00000000	00000013	addi	x0,x0,0	  x0:0x00000000
       32025000	      3201	80001bcc	00000013	addi	x0,x0,0	  x0:0x00000000
       32035000	      3202	80001bd0	01173b33	sltu	x22,x14,x17	 x14:0x0001f4e6 x17:0x92c5c000 x22=0x00000001
       32045000	      3203	80001bd4	006218b3	sll	x17,x4,x6	  x4:0xbb9e8000  x6:0x80009fc4 x17=0xb9e80000
       32055000	      3204	80001bd8	03d8d863	bge	x17,x29,80001c08	 x17:0xb9e80000 x29:0x00000001
       32065000	      3205	80001bdc	01fc9993	slli	x19,x25,0x1f	 x25:0x80001050 x19=0x00000000
       32075000	      3206	80001be0	0073e733	or	x14,x7,x7	  x7:0x00000000  x7:0x00000000 x14=0x00000000
       32085000	      3207	80001be4	00115893	srli	x17,x2,0x1	  x2:0x00000000 x17=0x00000000
       32095000	      3208	80001be8	00f69a63	bne	x13,x15,80001bfc	 x13:0x3e6eded7 x15:0x80001a10
       32105000	      3209	00000000	00000013	addi	x0,x0,0	  x0:0x00000000
       32115000	      3210	80001bf8	00000013	addi	x0,x0,0	  x0:0x00000000
       32125000	      3211	80001bfc	022ef063	bgeu	x29,x2,80001c1c	 x29:0x00000001  x2:0x00000000
       32135000	      3212	00000000	00000013	addi	x0,x0,0	  x0:0x00000000
       32145000	      3213	80001c18	00000013	addi	x0,x0,0	  x0:0x00000000
       32155000	      3214	80001c1c	00b54863	blt	x10,x11,80001c2c	 x10:0x80009f24 x11:0xffffffff
       32165000	      3215	00000000	00000013	addi	x0,x0,0	  x0:0x00000000
       32175000	      3216	80001c28	00000013	addi	x0,x0,0	  x0:0x00000000
       32185000	      3217	80001c2c	00000013	addi	x0,x0,0	  x0:0x00000000
       32195000	      3218	80001c30	00232a33	slt	x20,x6,x2	  x6:0x80009fc4  x2:0x00000000 x20=0x00000001
       32205000	      3219	80001c34	b6c9a413	slti	x8,x19,-1172	 x19:0x00000000  x8=0x00000000
       32215000	      3220	80001c38	00379263	bne	x15,x3,80001c3c	 x15:0x80001a10  x3:0x00000001
       32225000	      3221	00000000	00000013	addi	x0,x0,0	  x0:0x00000000
       32235000	      3222	80001c38	00000013	addi	x0,x0,0	  x0:0x00000000
       32245000	      3223	80001c3c	00207233	and	x4,x0,x2	  x0:0x00000000  x2:0x00000000  x4=0x00000000
       32255000	      3224	80001c40	0224ea63	bltu	x9,x2,80001c74	  x9:0x00000001  x2:0x00000000
       32265000	      3225	80001c44	40bf5013	srai	x0,x30,0xb	 x30:0x00000001
       32275000	      3226	80001c48	3778eb93	ori	x23,x17,887	 x17:0x00000000 x23=0x00000377
       32285000	      3227	80001c4c	32acf017	auipc	x0,0x32acf	
       32295000	      3228	80001c50	01f96eb3	or	x29,x18,x31	 x18:0x80001a18 x31:0xfffffffe x29=0xfffffffe
       32305000	      3229	80001c54	00000013	addi	x0,x0,0	  x0:0x00000000
       32315000	      3230	80001c58	00fdd713	srli	x14,x27,0xf	 x27:0x40000000 x14=0x00008000
       32325000	      3231	80001c5c	01dce863	bltu	x25,x29,80001c6c	 x25:0x80001050 x29:0xfffffffe
       32335000	      3232	00000000	00000013	addi	x0,x0,0	  x0:0x00000000
       32345000	      3233	80001c68	00000013	addi	x0,x0,0	  x0:0x00000000
       32355000	      3234	80001c6c	240039b7	lui	x19,0x24003	 x19=0x24003000
       32365000	      3235	80001c70	01dbd613	srli	x12,x23,0x1d	 x23:0x00000377 x12=0x00000000
       32375000	      3236	80001c74	ce3e7b93	andi	x23,x28,-797	 x28:0xc191237d x23=0xc1912061
       32385000	      3237	80001c78	3d1afe93	andi	x29,x21,977	 x21:0x800017d0 x29=0x000003d0
       32395000	      3238	80001c7c	6d8b0f93	addi	x31,x22,1752	 x22:0x00000001 x31=0x000006d9
       32405000	      3239	80001c80	8c224a93	xori	x21,x4,-1854	  x4:0x00000000 x21=0xfffff8c2
       32415000	      3240	80001c84	eb413d13	sltiu	x26,x2,-332	  x2:0x00000000 x26=0x00000001
       32425000	      3241	80001c88	01c55463	bge	x10,x28,80001c90	 x10:0x80009f24 x28:0xc191237d
       32435000	      3242	80001c8c	01d3e1b3	or	x3,x7,x29	  x7:0x00000000 x29:0x000003d0  x3=0x000003d0
       32445000	      3243	80001c90	00af7cb3	and	x25,x30,x10	 x30:0x00000001 x10:0x80009f24 x25=0x00000000
       32455000	      3244	80001c94	54232213	slti	x4,x6,1346	  x6:0x80009fc4  x4=0x00000001
       32465000	      3245	80001c98	00c57c63	bgeu	x10,x12,80001cb0	 x10:0x80009f24 x12:0x00000000
       32475000	      3246	00000000	00000013	addi	x0,x0,0	  x0:0x00000000
       32485000	      3247	80001cac	00000013	addi	x0,x0,0	  x0:0x00000000
       32495000	      3248	80001cb0	402d5b93	srai	x23,x26,0x2	 x26:0x00000001 x23=0x00000000
       32505000	      3249	80001cb4	402cdfb3	sra	x31,x25,x2	 x25:0x00000000  x2:0x00000000 x31=0x00000000
       32515000	      3250	80001cb8	4057de33	sra	x28,x15,x5	 x15:0x80001a10  x5:0x09f25000 x28=0x80001a10
       32525000	      3251	80001cbc	0203f063	bgeu	x7,x0,80001cdc	  x7:0x00000000  x0:0x00000000
       32535000	      3252	00000000	00000013	addi	x0,x0,0	  x0:0x00000000
       32545000	      3253	80001cd8	00000013	addi	x0,x0,0	  x0:0x00000000
       32555000	      3254	80001cdc	0160b433	sltu	x8,x1,x22	  x1:0x00000000 x22:0x00000001  x8=0x00000001
       32565000	      3255	80001ce0	0120abb3	slt	x23,x1,x18	  x1:0x00000000 x18:0x80001a18 x23=0x00000000
       32575000	      3256	80001ce4	01815863	bge	x2,x24,80001cf4	  x2:0x00000000 x24:0x80009c02
       32585000	      3257	00000000	00000013	addi	x0,x0,0	  x0:0x00000000
       32595000	      3258	80001cf0	00000013	addi	x0,x0,0	  x0:0x00000000
       32605000	      3259	80001cf4	54f55f97	auipc	x31,0x54f55	 x31=0xd4f56cf0
       32615000	      3260	80001cf8	05b39463	bne	x7,x27,80001d40	  x7:0x00000000 x27:0x40000000
       32625000	      3261	00000000	00000013	addi	x0,x0,0	  x0:0x00000000
       32635000	      3262	80001d3c	00000013	addi	x0,x0,0	  x0:0x00000000
       32645000	      3263	80001d40	01c3f1b3	and	x3,x7,x28	  x7:0x00000000 x28:0x80001a10  x3=0x00000000
       32655000	      3264	80001d44	417dd013	srai	x0,x27,0x17	 x27:0x40000000
       32665000	      3265	80001d48	dfe17913	andi	x18,x2,-514	  x2:0x00000000 x18=0x00000000
       32675000	      3266	80001d4c	41b9dfb3	sra	x31,x19,x27	 x19:0x24003000 x27:0x40000000 x31=0x24003000
       32685000	      3267	80001d50	001441b3	xor	x3,x8,x1	  x8:0x00000001  x1:0x00000000  x3=0x00000001
       32695000	      3268	80001d54	74908893	addi	x17,x1,1865	  x1:0x00000000 x17=0x00000749
       32705000	      3269	80001d58	00b83133	sltu	x2,x16,x11	 x16:0x00000001 x11:0xffffffff  x2=0x00000001
       32715000	      3270	80001d5c	018c55b3	srl	x11,x24,x24	 x24:0x80009c02 x24:0x80009c02 x11=0x20002700
       32725000	      3271	80001d60	03954893	xori	x17,x10,57	 x10:0x80009f24 x17=0x80009f1d
       32735000	      3272	80001d64	00000013	addi	x0,x0,0	  x0:0x00000000
       32745000	      3273	80001d68	000129b3	slt	x19,x2,x0	  x2:0x00000001  x0:0x00000000 x19=0x00000000
       32755000	      3274	80001d6c	00000013	addi	x0,x0,0	  x0:0x00000000
       32765000	      3275	80001d70	41540f33	sub	x30,x8,x21	  x8:0x00000001 x21:0xfffff8c2 x30=0x0000073f
       32775000	      3276	80001d74	0240f463	bgeu	x1,x4,80001d9c	  x1:0x00000000  x4:0x00000001
       32785000	      3277	80001d78	007728b3	slt	x17,x14,x7	 x14:0x00008000  x7:0x00000000 x17=0x00000000
       32795000	      3278	80001d7c	e1464013	xori	x0,x12,-492	 x12:0x00000000
       32805000	      3279	80001d80	036d8e63	beq	x27,x22,80001dbc	 x27:0x40000000 x22:0x00000001
       32815000	      3280	80001d84	000104b3	add	x9,x2,x0	  x2:0x00000001  x0:0x00000000  x9=0x00000001
       32825000	      3281	80001d88	010edf33	srl	x30,x29,x16	 x29:0x000003d0 x16:0x00000001 x30=0x000001e8
       32835000	      3282	80001d8c	3c90dd97	auipc	x27,0x3c90d	 x27=0xbc90ed88
       32845000	      3283	80001d90	4153d813	srai	x16,x7,0x15	  x7:0x00000000 x16=0x00000000
       32855000	      3284	80001d94	825cc193	xori	x3,x25,-2011	 x25:0x00000000  x3=0xfffff825
       32865000	      3285	80001d98	00647c63	bgeu	x8,x6,80001db0	  x8:0x00000001  x6:0x80009fc4
       32875000	      3286	80001d9c	025f7263	bgeu	x30,x5,80001dc0	 x30:0x000001e8  x5:0x09f25000
       32885000	      3287	80001da0	05906263	bltu	x0,x25,80001de4	  x0:0x00000000 x25:0x00000000
       32895000	      3288	80001da4	41f78c33	sub	x24,x15,x31	 x15:0x80001a10 x31:0x24003000 x24=0x5bffea10
       32905000	      3289	80001da8	00659493	slli	x9,x11,0x6	 x11:0x20002700  x9=0x0009c000
       32915000	      3290	80001dac	7b170493	addi	x9,x14,1969	 x14:0x00008000  x9=0x000087b1
       32925000	      3291	80001db0	00406db3	or	x27,x0,x4	  x0:0x00000000  x4:0x00000001 x27=0x00000001
       32935000	      3292	80001db4	401d0633	sub	x12,x26,x1	 x26:0x00000001  x1:0x00000000 x12=0x00000001
       32945000	      3293	80001db8	00473bb3	sltu	x23,x14,x4	 x14:0x00008000  x4:0x00000001 x23=0x00000000
       32955000	      3294	80001dbc	0010f463	bgeu	x1,x1,80001dc4	  x1:0x00000000  x1:0x00000000
       32965000	      3295	00000000	00000013	addi	x0,x0,0	  x0:0x00000000
       32975000	      3296	80001dc0	00000013	addi	x0,x0,0	  x0:0x00000000
       32985000	      3297	80001dc4	0149afb3	slt	x31,x19,x20	 x19:0x00000000 x20:0x00000001 x31=0x00000001
       32995000	      3298	80001dc8	40205d93	srai	x27,x0,0x2	  x0:0x00000000 x27=0x00000000
       33005000	      3299	80001dcc	03d40863	beq	x8,x29,80001dfc	  x8:0x00000001 x29:0x000003d0
       33015000	      3300	80001dd0	00261fb3	sll	x31,x12,x2	 x12:0x00000001  x2:0x00000001 x31=0x00000002
       33025000	      3301	80001dd4	04bb9663	bne	x23,x11,80001e20	 x23:0x00000000 x11:0x20002700
       33035000	      3302	00000000	00000013	addi	x0,x0,0	  x0:0x00000000
       33045000	      3303	80001e1c	00000013	addi	x0,x0,0	  x0:0x00000000
       33055000	      3304	80001e20	00f68e33	add	x28,x13,x15	 x13:0x3e6eded7 x15:0x80001a10 x28=0xbe6ef8e7
       33065000	      3305	80001e24	9569af13	slti	x30,x19,-1706	 x19:0x00000000 x30=0x00000000
       33075000	      3306	80001e28	00d974b3	and	x9,x18,x13	 x18:0x00000000 x13:0x3e6eded7  x9=0x00000000
       33085000	      3307	80001e2c	04ff7663	bgeu	x30,x15,80001e78	 x30:0x00000000 x15:0x80001a10
       33095000	      3308	80001e30	41d157b3	sra	x15,x2,x29	  x2:0x00000001 x29:0x000003d0 x15=0x00000000
       33105000	      3309	80001e34	41b3d733	sra	x14,x7,x27	  x7:0x00000000 x27:0x00000000 x14=0x00000000
       33115000	      3310	80001e38	033b0e63	beq	x22,x19,80001e74	 x22:0x00000001 x19:0x00000000
       33125000	      3311	80001e3c	01b15b13	srli	x22,x2,0x1b	  x2:0x00000001 x22=0x00000000
       33135000	      3312	80001e40	59df7b13	andi	x22,x30,1437	 x30:0x00000000 x22=0x00000000
       33145000	      3313	80001e44	35068c13	addi	x24,x13,848	 x13:0x3e6eded7 x24=0x3e6ee227
       33155000	      3314	80001e48	8f2cb593	sltiu	x11,x25,-1806	 x25:0x00000000 x11=0x00000001
       33165000	      3315	80001e4c	3d55fe13	andi	x28,x11,981	 x11:0x00000001 x28=0x00000001
       33175000	      3316	80001e50	00418ab3	add	x21,x3,x4	  x3:0xfffff825  x4:0x00000001 x21=0xfffff826
       33185000	      3317	80001e54	26babb13	sltiu	x22,x21,619	 x21:0xfffff826 x22=0x00000000
       33195000	      3318	80001e58	40128733	sub	x14,x5,x1	  x5:0x09f25000  x1:0x00000000 x14=0x09f25000
       33205000	      3319	80001e5c	8d4c80b7	lui	x1,0x8d4c8	  x1=0x8d4c8000
       33215000	      3320	80001e60	01be0863	beq	x28,x27,80001e70	 x28:0x00000001 x27:0x00000000
       33225000	      3321	80001e64	01ff9593	slli	x11,x31,0x1f	 x31:0x00000002 x11=0x00000000
       33235000	      3322	80001e68	ed17b193	sltiu	x3,x15,-303	 x15:0x00000000  x3=0x00000001
       33245000	      3323	80001e6c	1249e893	ori	x17,x19,292	 x19:0x00000000 x17=0x00000124
       33255000	      3324	80001e70	017cf263	bgeu	x25,x23,80001e74	 x25:0x00000000 x23:0x00000000
       33265000	      3325	00000000	00000013	addi	x0,x0,0	  x0:0x00000000
       33275000	      3326	80001e70	00000013	addi	x0,x0,0	  x0:0x00000000
       33285000	      3327	80001e74	4042d5b3	sra	x11,x5,x4	  x5:0x09f25000  x4:0x00000001 x11=0x04f92800
       33295000	      3328	80001e78	01cfdb13	srli	x22,x31,0x1c	 x31:0x00000002 x22=0x00000000
       33305000	      3329	80001e7c	08e80c63	beq	x16,x14,80001f14	 x16:0x00000000 x14:0x09f25000
       33315000	      3330	80001e80	01293033	sltu	x0,x18,x18	 x18:0x00000000 x18:0x00000000
       33325000	      3331	80001e84	06db6a63	bltu	x22,x13,80001ef8	 x22:0x00000000 x13:0x3e6eded7
       33335000	      3332	00000000	00000013	addi	x0,x0,0	  x0:0x00000000
       33345000	      3333	80001ef4	00000013	addi	x0,x0,0	  x0:0x00000000
       33355000	      3334	80001ef8	0155d113	srli	x2,x11,0x15	 x11:0x04f92800  x2=0x00000027
       33365000	      3335	80001efc	40ba81b3	sub	x3,x21,x11	 x21:0xfffff826 x11:0x04f92800  x3=0xfb06d026
       33375000	      3336	80001f00	97986c93	ori	x25,x16,-1671	 x16:0x00000000 x25=0xfffff979
       33385000	      3337	80001f04	005f5733	srl	x14,x30,x5	 x30:0x00000000  x5:0x09f25000 x14=0x00000000
       33395000	      3338	80001f08	00645913	srli	x18,x8,0x6	  x8:0x00000001 x18=0x00000000
       33405000	      3339	80001f0c	dfd93093	sltiu	x1,x18,-515	 x18:0x00000000  x1=0x00000001
       33415000	      3340	80001f10	40618833	sub	x16,x3,x6	  x3:0xfb06d026  x6:0x80009fc4 x16=0x7b063062
       33425000	      3341	80001f14	01428c63	beq	x5,x20,80001f2c	  x5:0x09f25000 x20:0x00000001
       33435000	      3342	80001f18	410c0fb3	sub	x31,x24,x16	 x24:0x3e6ee227 x16:0x7b063062 x31=0xc368b1c5
       33445000	      3343	80001f1c	0067fc63	bgeu	x15,x6,80001f34	 x15:0x00000000  x6:0x80009fc4
       33455000	      3344	80001f20	04bb9263	bne	x23,x11,80001f64	 x23:0x00000000 x11:0x04f92800
       33465000	      3345	00000000	00000013	addi	x0,x0,0	  x0:0x00000000
       33475000	      3346	80001f60	00000013	addi	x0,x0,0	  x0:0x00000000
       33485000	      3347	80001f64	00865413	srli	x8,x12,0x8	 x12:0x00000001  x8=0x00000000
       33495000	      3348	80001f68	b4752713	slti	x14,x10,-1209	 x10:0x80009f24 x14=0x00000001
       33505000	      3349	80001f6c	01291ab3	sll	x21,x18,x18	 x18:0x00000000 x18:0x00000000 x21=0x00000000
       33515000	      3350	80001f70	44f5a813	slti	x16,x11,1103	 x11:0x04f92800 x16=0x00000000
       33525000	      3351	80001f74	00824cb3	xor	x25,x4,x8	  x4:0x00000001  x8:0x00000000 x25=0x00000001
       33535000	      3352	80001f78	411f5c93	srai	x25,x30,0x11	 x30:0x00000000 x25=0x00000000
       33545000	      3353	80001f7c	e7ba1b37	lui	x22,0xe7ba1	 x22=0xe7ba1000
       33555000	      3354	80001f80	02625063	bge	x4,x6,80001fa0	  x4:0x00000001  x6:0x80009fc4
       33565000	      3355	00000000	00000013	addi	x0,x0,0	  x0:0x00000000
       33575000	      3356	80001f9c	00000013	addi	x0,x0,0	  x0:0x00000000
       33585000	      3357	80001fa0	cf99a117	auipc	x2,0xcf99a	  x2=0x4f99bf9c
       33595000	      3358	80001fa4	d8aa0637	lui	x12,0xd8aa0	 x12=0xd8aa0000
       33605000	      3359	80001fa8	d102e413	ori	x8,x5,-752	  x5:0x09f25000  x8=0xfffffd10
       33615000	      3360	80001fac	0073b633	sltu	x12,x7,x7	  x7:0x00000000  x7:0x00000000 x12=0x00000000
       33625000	      3361	80001fb0	05995663	bge	x18,x25,80001ffc	 x18:0x00000000 x25:0x00000000
       33635000	      3362	00000000	00000013	addi	x0,x0,0	  x0:0x00000000
       33645000	      3363	80001ff8	00000013	addi	x0,x0,0	  x0:0x00000000
       33655000	      3364	80001ffc	0306e463	bltu	x13,x16,80002024	 x13:0x3e6eded7 x16:0x00000000
       33665000	      3365	80002000	a3c50913	addi	x18,x10,-1476	 x10:0x80009f24 x18=0x80009960
       33675000	      3366	80002004	00f76863	bltu	x14,x15,80002014	 x14:0x00000001 x15:0x00000000
       33685000	      3367	80002008	00334733	xor	x14,x6,x3	  x6:0x80009fc4  x3:0xfb06d026 x14=0x7b064fe2
       33695000	      3368	8000200c	0496f463	bgeu	x13,x9,80002054	 x13:0x3e6eded7  x9:0x00000000
       33705000	      3369	00000000	00000013	addi	x0,x0,0	  x0:0x00000000
       33715000	      3370	80002050	00000013	addi	x0,x0,0	  x0:0x00000000
       33725000	      3371	80002054	028f1263	bne	x30,x8,80002078	 x30:0x00000000  x8:0xfffffd10
       33735000	      3372	00000000	00000013	addi	x0,x0,0	  x0:0x00000000
       33745000	      3373	80002074	00000013	addi	x0,x0,0	  x0:0x00000000
       33755000	      3374	80002078	018c9593	slli	x11,x25,0x18	 x25:0x00000000 x11=0x00000000
       33765000	      3375	8000207c	0082a3b3	slt	x7,x5,x8	  x5:0x09f25000  x8:0xfffffd10  x7=0x00000000
       33775000	      3376	80002080	c19e6593	ori	x11,x28,-999	 x28:0x00000001 x11=0xfffffc19
       33785000	      3377	80002084	41680bb3	sub	x23,x16,x22	 x16:0x00000000 x22:0xe7ba1000 x23=0x1845f000
       33795000	      3378	80002088	40a25e13	srai	x28,x4,0xa	  x4:0x00000001 x28=0x00000000
       33805000	      3379	8000208c	01eb9633	sll	x12,x23,x30	 x23:0x1845f000 x30:0x00000000 x12=0x1845f000
       33815000	      3380	80002090	27749217	auipc	x4,0x27749	  x4=0xa774b08c
       33825000	      3381	80002094	4009d713	srai	x14,x19,0x0	 x19:0x00000000 x14=0x00000000
       33835000	      3382	80002098	31712993	slti	x19,x2,791	  x2:0x4f99bf9c x19=0x00000000
       33845000	      3383	8000209c	40588133	sub	x2,x17,x5	 x17:0x00000124  x5:0x09f25000  x2=0xf60db124
       33855000	      3384	800020a0	01981293	slli	x5,x16,0x19	 x16:0x00000000  x5=0x00000000
       33865000	      3385	800020a4	e574f113	andi	x2,x9,-425	  x9:0x00000000  x2=0x00000000
       33875000	      3386	800020a8	00c29713	slli	x14,x5,0xc	  x5:0x00000000 x14=0x00000000
       33885000	      3387	800020ac	00113a33	sltu	x20,x2,x1	  x2:0x00000000  x1:0x00000001 x20=0x00000001
       33895000	      3388	800020b0	017bacb3	slt	x25,x23,x23	 x23:0x1845f000 x23:0x1845f000 x25=0x00000000
       33905000	      3389	800020b4	00399c13	slli	x24,x19,0x3	 x19:0x00000000 x24=0x00000000
       33915000	      3390	800020b8	014b4633	xor	x12,x22,x20	 x22:0xe7ba1000 x20:0x00000001 x12=0xe7ba1001
       33925000	      3391	800020bc	00ac4b33	xor	x22,x24,x10	 x24:0x00000000 x10:0x80009f24 x22=0x80009f24
       33935000	      3392	800020c0	6385af17	auipc	x30,0x6385a	 x30=0xe385c0bc
       33945000	      3393	800020c4	02318063	beq	x3,x3,800020e4	  x3:0xfb06d026  x3:0xfb06d026
       33955000	      3394	00000000	00000013	addi	x0,x0,0	  x0:0x00000000
       33965000	      3395	800020e0	00000013	addi	x0,x0,0	  x0:0x00000000
       33975000	      3396	800020e4	01b1da33	srl	x20,x3,x27	  x3:0xfb06d026 x27:0x00000000 x20=0xfb06d026
       33985000	      3397	800020e8	8b299137	lui	x2,0x8b299	  x2=0x8b299000
       33995000	      3398	800020ec	02828a63	beq	x5,x8,80002120	  x5:0x00000000  x8:0xfffffd10
       34005000	      3399	800020f0	00070c63	beq	x14,x0,80002108	 x14:0x00000000  x0:0x00000000
       34015000	      3400	00000000	00000013	addi	x0,x0,0	  x0:0x00000000
       34025000	      3401	80002104	00000013	addi	x0,x0,0	  x0:0x00000000
       34035000	      3402	80002108	001b4863	blt	x22,x1,80002118	 x22:0x80009f24  x1:0x00000001
       34045000	      3403	00000000	00000013	addi	x0,x0,0	  x0:0x00000000
       34055000	      3404	80002114	00000013	addi	x0,x0,0	  x0:0x00000000
       34065000	      3405	80002118	0061d113	srli	x2,x3,0x6	  x3:0xfb06d026  x2=0x03ec1b40
       34075000	      3406	8000211c	00362433	slt	x8,x12,x3	 x12:0xe7ba1001  x3:0xfb06d026  x8=0x00000001
       34085000	      3407	80002120	01925f33	srl	x30,x4,x25	  x4:0xa774b08c x25:0x00000000 x30=0xa774b08c
       34095000	      3408	80002124	0191a633	slt	x12,x3,x25	  x3:0xfb06d026 x25:0x00000000 x12=0x00000001
       34105000	      3409	80002128	01a09933	sll	x18,x1,x26	  x1:0x00000001 x26:0x00000001 x18=0x00000002
       34115000	      3410	8000212c	00b604b3	add	x9,x12,x11	 x12:0x00000001 x11:0xfffffc19  x9=0xfffffc1a
       34125000	      3411	80002130	077d1fb7	lui	x31,0x77d1	 x31=0x077d1000
       34135000	      3412	80002134	007ef933	and	x18,x29,x7	 x29:0x000003d0  x7:0x00000000 x18=0x00000000
       34145000	      3413	80002138	0067ff33	and	x30,x15,x6	 x15:0x00000000  x6:0x80009fc4 x30=0x00000000
       34155000	      3414	8000213c	41f35433	sra	x8,x6,x31	  x6:0x80009fc4 x31:0x077d1000  x8=0x80009fc4
       34165000	      3415	80002140	0580e663	bltu	x1,x24,8000218c	  x1:0x00000001 x24:0x00000000
       34175000	      3416	80002144	00000013	addi	x0,x0,0	  x0:0x00000000
       34185000	      3417	80002148	01179bb3	sll	x23,x15,x17	 x15:0x00000000 x17:0x00000124 x23=0x00000000
       34195000	      3418	8000214c	0145d633	srl	x12,x11,x20	 x11:0xfffffc19 x20:0xfb06d026 x12=0x03fffff0
       34205000	      3419	80002150	01bd8b33	add	x22,x27,x27	 x27:0x00000000 x27:0x00000000 x22=0x00000000
       34215000	      3420	80002154	40775f13	srai	x30,x14,0x7	 x14:0x00000000 x30=0x00000000
       34225000	      3421	80002158	00000013	addi	x0,x0,0	  x0:0x00000000
       34235000	      3422	8000215c	00c99013	slli	x0,x19,0xc	 x19:0x00000000
       34245000	      3423	80002160	3064ab93	slti	x23,x9,774	  x9:0xfffffc1a x23=0x00000001
       34255000	      3424	80002164	9cc26f97	auipc	x31,0x9cc26	 x31=0x1cc28160
       34265000	      3425	80002168	05d0d863	bge	x1,x29,800021b8	  x1:0x00000001 x29:0x000003d0
       34275000	      3426	8000216c	02518c63	beq	x3,x5,800021a4	  x3:0xfb06d026  x5:0x00000000
       34285000	      3427	80002170	f5224413	xori	x8,x4,-174	  x4:0xa774b08c  x8=0x588b4fde
       34295000	      3428	80002174	016fe7b3	or	x15,x31,x22	 x31:0x1cc28160 x22:0x00000000 x15=0x1cc28160
       34305000	      3429	80002178	402dd433	sra	x8,x27,x2	 x27:0x00000000  x2:0x03ec1b40  x8=0x00000000
       34315000	      3430	8000217c	fcc6fd93	andi	x27,x13,-52	 x13:0x3e6eded7 x27=0x3e6edec4
       34325000	      3431	80002180	2a5de193	ori	x3,x27,677	 x27:0x3e6edec4  x3=0x3e6edee5
       34335000	      3432	80002184	00799a63	bne	x19,x7,80002198	 x19:0x00000000  x7:0x00000000
       34345000	      3433	80002188	412ad093	srai	x1,x21,0x12	 x21:0x00000000  x1=0x00000000
       34355000	      3434	8000218c	c33303b7	lui	x7,0xc3330	  x7=0xc3330000
       34365000	      3435	80002190	5e6f94b7	lui	x9,0x5e6f9	  x9=0x5e6f9000
       34375000	      3436	80002194	0164dbb3	srl	x23,x9,x22	  x9:0x5e6f9000 x22:0x00000000 x23=0x5e6f9000
       34385000	      3437	80002198	019502b3	add	x5,x10,x25	 x10:0x80009f24 x25:0x00000000  x5=0x80009f24
       34395000	      3438	8000219c	4111db13	srai	x22,x3,0x11	  x3:0x3e6edee5 x22=0x00001f37
       34405000	      3439	800021a0	40718f33	sub	x30,x3,x7	  x3:0x3e6edee5  x7:0xc3330000 x30=0x7b3bdee5
       34415000	      3440	800021a4	01e35cb3	srl	x25,x6,x30	  x6:0x80009fc4 x30:0x7b3bdee5 x25=0x040004fe
       34425000	      3441	800021a8	bb4df093	andi	x1,x27,-1100	 x27:0x3e6edec4  x1=0x3e6eda84
       34435000	      3442	800021ac	01ccf263	bgeu	x25,x28,800021b0	 x25:0x040004fe x28:0x00000000
       34445000	      3443	00000000	00000013	addi	x0,x0,0	  x0:0x00000000
       34455000	      3444	800021ac	00000013	addi	x0,x0,0	  x0:0x00000000
       34465000	      3445	800021b0	001b5c13	srli	x24,x22,0x1	 x22:0x00001f37 x24=0x00000f9b
       34475000	      3446	800021b4	a73a2893	slti	x17,x20,-1421	 x20:0xfb06d026 x17=0x00000001
       34485000	      3447	800021b8	40815a13	srai	x20,x2,0x8	  x2:0x03ec1b40 x20=0x0003ec1b
       34495000	      3448	800021bc	419bdab3	sra	x21,x23,x25	 x23:0x5e6f9000 x25:0x040004fe x21=0x00000001
       34505000	      3449	800021c0	01d367b3	or	x15,x6,x29	  x6:0x80009fc4 x29:0x000003d0 x15=0x80009fd4
       34515000	      3450	800021c4	40290233	sub	x4,x18,x2	 x18:0x00000000  x2:0x03ec1b40  x4=0xfc13e4c0
       34525000	      3451	800021c8	054bf063	bgeu	x23,x20,80002208	 x23:0x5e6f9000 x20:0x0003ec1b
       34535000	      3452	00000000	00000013	addi	x0,x0,0	  x0:0x00000000
       34545000	      3453	80002204	00000013	addi	x0,x0,0	  x0:0x00000000
       34555000	      3454	80002208	00000013	addi	x0,x0,0	  x0:0x00000000
       34565000	      3455	8000220c	00c09493	slli	x9,x1,0xc	  x1:0x3e6eda84  x9=0xeda84000
       34575000	      3456	80002210	416f5cb3	sra	x25,x30,x22	 x30:0x7b3bdee5 x22:0x00001f37 x25=0x000000f6
       34585000	      3457	80002214	18254d93	xori	x27,x10,386	 x10:0x80009f24 x27=0x80009ea6
       34595000	      3458	80002218	010c5463	bge	x24,x16,80002220	 x24:0x00000f9b x16:0x00000000
       34605000	      3459	00000000	00000013	addi	x0,x0,0	  x0:0x00000000
       34615000	      3460	8000221c	00000013	addi	x0,x0,0	  x0:0x00000000
       34625000	      3461	80002220	01ecee63	bltu	x25,x30,8000223c	 x25:0x000000f6 x30:0x7b3bdee5
       34635000	      3462	00000000	00000013	addi	x0,x0,0	  x0:0x00000000
       34645000	      3463	80002238	00000013	addi	x0,x0,0	  x0:0x00000000
       34655000	      3464	8000223c	22b1f493	andi	x9,x3,555	  x3:0x3e6edee5  x9=0x00000221
       34665000	      3465	80002240	01f704b3	add	x9,x14,x31	 x14:0x00000000 x31:0x1cc28160  x9=0x1cc28160
       34675000	      3466	80002244	019a7863	bgeu	x20,x25,80002254	 x20:0x0003ec1b x25:0x000000f6
       34685000	      3467	00000000	00000013	addi	x0,x0,0	  x0:0x00000000
       34695000	      3468	80002250	00000013	addi	x0,x0,0	  x0:0x00000000
       34705000	      3469	80002254	9fed4137	lui	x2,0x9fed4	  x2=0x9fed4000
       34715000	      3470	80002258	000ddcb3	srl	x25,x27,x0	 x27:0x80009ea6  x0:0x00000000 x25=0x80009ea6
       34725000	      3471	8000225c	008d1113	slli	x2,x26,0x8	 x26:0x00000001  x2=0x00000100
       34735000	      3472	80002260	01795b33	srl	x22,x18,x23	 x18:0x00000000 x23:0x5e6f9000 x22=0x00000000
       34745000	      3473	80002264	01064eb3	xor	x29,x12,x16	 x12:0x03fffff0 x16:0x00000000 x29=0x03fffff0
       34755000	      3474	80002268	a08e11b7	lui	x3,0xa08e1	  x3=0xa08e1000
       34765000	      3475	8000226c	01e31b93	slli	x23,x6,0x1e	  x6:0x80009fc4 x23=0x00000000
       34775000	      3476	80002270	408dd793	srai	x15,x27,0x8	 x27:0x80009ea6 x15=0xff80009e
       34785000	      3477	80002274	53f93c93	sltiu	x25,x18,1343	 x18:0x00000000 x25=0x00000001
       34795000	      3478	80002278	0030d493	srli	x9,x1,0x3	  x1:0x3e6eda84  x9=0x07cddb50
       34805000	      3479	8000227c	0157fab3	and	x21,x15,x21	 x15:0xff80009e x21:0x00000001 x21=0x00000000
       34815000	      3480	80002280	c98b2493	slti	x9,x22,-872	 x22:0x00000000  x9=0x00000000
       34825000	      3481	80002284	00100933	add	x18,x0,x1	  x0:0x00000000  x1:0x3e6eda84 x18=0x3e6eda84
       34835000	      3482	80002288	35e2fd93	andi	x27,x5,862	  x5:0x80009f24 x27=0x00000304
       34845000	      3483	8000228c	015f2eb3	slt	x29,x30,x21	 x30:0x7b3bdee5 x21:0x00000000 x29=0x00000000
       34855000	      3484	80002290	3b538593	addi	x11,x7,949	  x7:0xc3330000 x11=0xc33303b5
       34865000	      3485	80002294	d30bac93	slti	x25,x23,-720	 x23:0x00000000 x25=0x00000000
       34875000	      3486	80002298	8f8d2b93	slti	x23,x26,-1800	 x26:0x00000001 x23=0x00000000
       34885000	      3487	8000229c	0083b033	sltu	x0,x7,x8	  x7:0xc3330000  x8:0x00000000
       34895000	      3488	800022a0	00a09db3	sll	x27,x1,x10	  x1:0x3e6eda84 x10:0x80009f24 x27=0xe6eda840
       34905000	      3489	800022a4	01971833	sll	x16,x14,x25	 x14:0x00000000 x25:0x00000000 x16=0x00000000
       34915000	      3490	800022a8	009b6263	bltu	x22,x9,800022ac	 x22:0x00000000  x9:0x00000000
       34925000	      3491	800022ac	051c5463	bge	x24,x17,800022f4	 x24:0x00000f9b x17:0x00000001
       34935000	      3492	00000000	00000013	addi	x0,x0,0	  x0:0x00000000
       34945000	      3493	800022f0	00000013	addi	x0,x0,0	  x0:0x00000000
       34955000	      3494	800022f4	0182c1b3	xor	x3,x5,x24	  x5:0x80009f24 x24:0x00000f9b  x3=0x800090bf
       34965000	      3495	800022f8	41f38433	sub	x8,x7,x31	  x7:0xc3330000 x31:0x1cc28160  x8=0xa6707ea0
       34975000	      3496	800022fc	0043c263	blt	x7,x4,80002300	  x7:0xc3330000  x4:0xfc13e4c0
       34985000	      3497	00000000	00000013	addi	x0,x0,0	  x0:0x00000000
       34995000	      3498	800022fc	00000013	addi	x0,x0,0	  x0:0x00000000
       35005000	      3499	80002300	00112ab3	slt	x21,x2,x1	  x2:0x00000100  x1:0x3e6eda84 x21=0x00000001
       35015000	      3500	80002304	b3180113	addi	x2,x16,-1231	 x16:0x00000000  x2=0xfffffb31
       35025000	      3501	80002308	942db393	sltiu	x7,x27,-1726	 x27:0xe6eda840  x7=0x00000001
       35035000	      3502	8000230c	00fa7033	and	x0,x20,x15	 x20:0x0003ec1b x15:0xff80009e
       35045000	      3503	80002310	013feeb3	or	x29,x31,x19	 x31:0x1cc28160 x19:0x00000000 x29=0x1cc28160
       35055000	      3504	80002314	01d09733	sll	x14,x1,x29	  x1:0x3e6eda84 x29:0x1cc28160 x14=0x3e6eda84
       35065000	      3505	80002318	03aa5e63	bge	x20,x26,80002354	 x20:0x0003ec1b x26:0x00000001
       35075000	      3506	00000000	00000013	addi	x0,x0,0	  x0:0x00000000
       35085000	      3507	80002350	00000013	addi	x0,x0,0	  x0:0x00000000
       35095000	      3508	80002354	0139ff33	and	x30,x19,x19	 x19:0x00000000 x19:0x00000000 x30=0x00000000
       35105000	      3509	80002358	400cde33	sra	x28,x25,x0	 x25:0x00000000  x0:0x00000000 x28=0x00000000
       35115000	      3510	8000235c	012ed213	srli	x4,x29,0x12	 x29:0x1cc28160  x4=0x00000730
       35125000	      3511	80002360	046c0663	beq	x24,x6,800023ac	 x24:0x00000f9b  x6:0x80009fc4
       35135000	      3512	80002364	03dcf063	bgeu	x25,x29,80002384	 x25:0x00000000 x29:0x1cc28160
       35145000	      3513	80002368	033e8263	beq	x29,x19,8000238c	 x29:0x1cc28160 x19:0x00000000
       35155000	      3514	8000236c	01be7033	and	x0,x28,x27	 x28:0x00000000 x27:0xe6eda840
       35165000	      3515	80002370	031c0063	beq	x24,x17,80002390	 x24:0x00000f9b x17:0x00000001
       35175000	      3516	80002374	0194d233	srl	x4,x9,x25	  x9:0x00000000 x25:0x00000000  x4=0x00000000
       35185000	      3517	80002378	01d65b93	srli	x23,x12,0x1d	 x12:0x03fffff0 x23=0x00000000
       35195000	      3518	8000237c	00037863	bgeu	x6,x0,8000238c	  x6:0x80009fc4  x0:0x00000000
       35205000	      3519	00000000	00000013	addi	x0,x0,0	  x0:0x00000000
       35215000	      3520	80002388	00000013	addi	x0,x0,0	  x0:0x00000000
       35225000	      3521	8000238c	4cfb3013	sltiu	x0,x22,1231	 x22:0x00000000
       35235000	      3522	80002390	02c3ee63	bltu	x7,x12,800023cc	  x7:0x00000001 x12:0x03fffff0
       35245000	      3523	00000000	00000013	addi	x0,x0,0	  x0:0x00000000
       35255000	      3524	800023c8	00000013	addi	x0,x0,0	  x0:0x00000000
       35265000	      3525	800023cc	00fad633	srl	x12,x21,x15	 x21:0x00000001 x15:0xff80009e x12=0x00000000
       35275000	      3526	800023d0	00679113	slli	x2,x15,0x6	 x15:0xff80009e  x2=0xe0002780
       35285000	      3527	800023d4	000f8733	add	x14,x31,x0	 x31:0x1cc28160  x0:0x00000000 x14=0x1cc28160
       35295000	      3528	800023d8	0a7a9663	bne	x21,x7,80002484	 x21:0x00000001  x7:0x00000001
       35305000	      3529	800023dc	40b9dcb3	sra	x25,x19,x11	 x19:0x00000000 x11:0xc33303b5 x25=0x00000000
       35315000	      3530	800023e0	0b641863	bne	x8,x22,80002490	  x8:0xa6707ea0 x22:0x00000000
       35325000	      3531	00000000	00000013	addi	x0,x0,0	  x0:0x00000000
       35335000	      3532	8000248c	00000013	addi	x0,x0,0	  x0:0x00000000
       35345000	      3533	80002490	40930e33	sub	x28,x6,x9	  x6:0x80009fc4  x9:0x00000000 x28=0x80009fc4
       35355000	      3534	80002494	000b1813	slli	x16,x22,0x0	 x22:0x00000000 x16=0x00000000
       35365000	      3535	80002498	007f42b3	xor	x5,x30,x7	 x30:0x00000000  x7:0x00000001  x5=0x00000001
       35375000	      3536	8000249c	01196d33	or	x26,x18,x17	 x18:0x3e6eda84 x17:0x00000001 x26=0x3e6eda85
       35385000	      3537	800024a0	030a0063	beq	x20,x16,800024c0	 x20:0x0003ec1b x16:0x00000000
       35395000	      3538	800024a4	64953413	sltiu	x8,x10,1609	 x10:0x80009f24  x8=0x00000000
       35405000	      3539	800024a8	035cc863	blt	x25,x21,800024d8	 x25:0x00000000 x21:0x00000001
       35415000	      3540	00000000	00000013	addi	x0,x0,0	  x0:0x00000000
       35425000	      3541	800024d4	00000013	addi	x0,x0,0	  x0:0x00000000
       35435000	      3542	800024d8	025edc63	bge	x29,x5,80002510	 x29:0x1cc28160  x5:0x00000001
       35445000	      3543	00000000	00000013	addi	x0,x0,0	  x0:0x00000000
       35455000	      3544	8000250c	00000013	addi	x0,x0,0	  x0:0x00000000
       35465000	      3545	80002510	00134263	blt	x6,x1,80002514	  x6:0x80009fc4  x1:0x3e6eda84
       35475000	      3546	00000000	00000013	addi	x0,x0,0	  x0:0x00000000
       35485000	      3547	80002510	00000013	addi	x0,x0,0	  x0:0x00000000
       35495000	      3548	80002514	001ff463	bgeu	x31,x1,8000251c	 x31:0x1cc28160  x1:0x3e6eda84
       35505000	      3549	80002518	03f6c463	blt	x13,x31,80002540	 x13:0x3e6eded7 x31:0x1cc28160
       35515000	      3550	8000251c	8f297c13	andi	x24,x18,-1806	 x18:0x3e6eda84 x24=0x3e6ed880
       35525000	      3551	80002520	48398613	addi	x12,x19,1155	 x19:0x00000000 x12=0x00000483
       35535000	      3552	80002524	0120ee33	or	x28,x1,x18	  x1:0x3e6eda84 x18:0x3e6eda84 x28=0x3e6eda84
       35545000	      3553	80002528	01f28833	add	x16,x5,x31	  x5:0x00000001 x31:0x1cc28160 x16=0x1cc28161
       35555000	      3554	8000252c	00986fb3	or	x31,x16,x9	 x16:0x1cc28161  x9:0x00000000 x31=0x1cc28161
       35565000	      3555	80002530	01807ab3	and	x21,x0,x24	  x0:0x00000000 x24:0x3e6ed880 x21=0x00000000
       35575000	      3556	80002534	0150e1b3	or	x3,x1,x21	  x1:0x3e6eda84 x21:0x00000000  x3=0x3e6eda84
       35585000	      3557	80002538	04b85463	bge	x16,x11,80002580	 x16:0x1cc28161 x11:0xc33303b5
       35595000	      3558	00000000	00000013	addi	x0,x0,0	  x0:0x00000000
       35605000	      3559	8000257c	00000013	addi	x0,x0,0	  x0:0x00000000
       35615000	      3560	80002580	051b8663	beq	x23,x17,800025cc	 x23:0x00000000 x17:0x00000001
       35625000	      3561	80002584	01e55233	srl	x4,x10,x30	 x10:0x80009f24 x30:0x00000000  x4=0x80009f24
       35635000	      3562	80002588	00000013	addi	x0,x0,0	  x0:0x00000000
       35645000	      3563	8000258c	05a2c663	blt	x5,x26,800025d8	  x5:0x00000001 x26:0x3e6eda85
       35655000	      3564	00000000	00000013	addi	x0,x0,0	  x0:0x00000000
       35665000	      3565	800025d4	00000013	addi	x0,x0,0	  x0:0x00000000
       35675000	      3566	800025d8	00e85f33	srl	x30,x16,x14	 x16:0x1cc28161 x14:0x1cc28160 x30=0x1cc28161
       35685000	      3567	800025dc	5fda7d37	lui	x26,0x5fda7	 x26=0x5fda7000
       35695000	      3568	800025e0	598ee293	ori	x5,x29,1432	 x29:0x1cc28160  x5=0x1cc285f8
       35705000	      3569	800025e4	01005863	bge	x0,x16,800025f4	  x0:0x00000000 x16:0x1cc28161
       35715000	      3570	800025e8	013740b3	xor	x1,x14,x19	 x14:0x1cc28160 x19:0x00000000  x1=0x1cc28160
       35725000	      3571	800025ec	00ca6c63	bltu	x20,x12,80002604	 x20:0x0003ec1b x12:0x00000483
       35735000	      3572	800025f0	411c5c33	sra	x24,x24,x17	 x24:0x3e6ed880 x17:0x00000001 x24=0x1f376c40
       35745000	      3573	800025f4	02394063	blt	x18,x3,80002614	 x18:0x3e6eda84  x3:0x3e6eda84
       35755000	      3574	800025f8	43d9bd13	sltiu	x26,x19,1085	 x19:0x00000000 x26=0x00000001
       35765000	      3575	800025fc	01cfd2b3	srl	x5,x31,x28	 x31:0x1cc28161 x28:0x3e6eda84  x5=0x01cc2816
       35775000	      3576	80002600	00000013	addi	x0,x0,0	  x0:0x00000000
       35785000	      3577	80002604	76d76493	ori	x9,x14,1901	 x14:0x1cc28160  x9=0x1cc2876d
       35795000	      3578	80002608	027c5263	bge	x24,x7,8000262c	 x24:0x1f376c40  x7:0x00000001
       35805000	      3579	00000000	00000013	addi	x0,x0,0	  x0:0x00000000
       35815000	      3580	80002628	00000013	addi	x0,x0,0	  x0:0x00000000
       35825000	      3581	8000262c	004e7863	bgeu	x28,x4,8000263c	 x28:0x3e6eda84  x4:0x80009f24
       35835000	      3582	80002630	000c1393	slli	x7,x24,0x0	 x24:0x1f376c40  x7=0x1f376c40
       35845000	      3583	80002634	5d074013	xori	x0,x14,1488	 x14:0x1cc28160
       35855000	      3584	80002638	04e35263	bge	x6,x14,8000267c	  x6:0x80009fc4 x14:0x1cc28160
       35865000	      3585	8000263c	00776bb3	or	x23,x14,x7	 x14:0x1cc28160  x7:0x1f376c40 x23=0x1ff7ed60
       35875000	      3586	80002640	013cbe33	sltu	x28,x25,x19	 x25:0x00000000 x19:0x00000000 x28=0x00000000
       35885000	      3587	80002644	00ccd263	bge	x25,x12,80002648	 x25:0x00000000 x12:0x00000483
       35895000	      3588	80002648	00f4d5b3	srl	x11,x9,x15	  x9:0x1cc2876d x15:0xff80009e x11=0x00000000
       35905000	      3589	8000264c	00615413	srli	x8,x2,0x6	  x2:0xe0002780  x8=0x0380009e
       35915000	      3590	80002650	019ddf93	srli	x31,x27,0x19	 x27:0xe6eda840 x31=0x00000073
       35925000	      3591	80002654	019fcfb3	xor	x31,x31,x25	 x31:0x00000073 x25:0x00000000 x31=0x00000073
       35935000	      3592	80002658	010108b3	add	x17,x2,x16	  x2:0xe0002780 x16:0x1cc28161 x17=0xfcc2a8e1
       35945000	      3593	8000265c	13dbcf13	xori	x30,x23,317	 x23:0x1ff7ed60 x30=0x1ff7ec5d
       35955000	      3594	80002660	01135e33	srl	x28,x6,x17	  x6:0x80009fc4 x17:0xfcc2a8e1 x28=0x40004fe2
       35965000	      3595	80002664	0017a5b3	slt	x11,x15,x1	 x15:0xff80009e  x1:0x1cc28160 x11=0x00000001
       35975000	      3596	80002668	400e51b3	sra	x3,x28,x0	 x28:0x40004fe2  x0:0x00000000  x3=0x40004fe2
       35985000	      3597	8000266c	bcb82613	slti	x12,x16,-1077	 x16:0x1cc28161 x12=0x00000000
       35995000	      3598	80002670	012e6633	or	x12,x28,x18	 x28:0x40004fe2 x18:0x3e6eda84 x12=0x7e6edfe6
       36005000	      3599	80002674	01f7f263	bgeu	x15,x31,80002678	 x15:0xff80009e x31:0x00000073
       36015000	      3600	00000000	00000013	addi	x0,x0,0	  x0:0x00000000
       36025000	      3601	80002674	00000013	addi	x0,x0,0	  x0:0x00000000
       36035000	      3602	80002678	4197d113	srai	x2,x15,0x19	 x15:0xff80009e  x2=0xffffffff
       36045000	      3603	8000267c	f3526c93	ori	x25,x4,-203	  x4:0x80009f24 x25=0xffffff35
       36055000	      3604	80002680	a5eec213	xori	x4,x29,-1442	 x29:0x1cc28160  x4=0xe33d7b3e
       36065000	      3605	80002684	006b4bb3	xor	x23,x22,x6	 x22:0x00000000  x6:0x80009fc4 x23=0x80009fc4
       36075000	      3606	80002688	0148c5b3	xor	x11,x17,x20	 x17:0xfcc2a8e1 x20:0x0003ec1b x11=0xfcc144fa
       36085000	      3607	8000268c	01409713	slli	x14,x1,0x14	  x1:0x1cc28160 x14=0x16000000
       36095000	      3608	80002690	9c0afc13	andi	x24,x21,-1600	 x21:0x00000000 x24=0x00000000
       36105000	      3609	80002694	04c00d6f	jal	x26,80002694	 x26=0x80002694
       36115000	      3610	00000000	00000013	addi	x0,x0,0	  x0:0x00000000
       36125000	      3611	800026dc	00000013	addi	x0,x0,0	  x0:0x00000000
       36135000	      3612	800026e0	fe1ff86f	jal	x16,800026e0	 x16=0x800026e0
       36145000	      3613	00000000	00000013	addi	x0,x0,0	  x0:0x00000000
       36155000	      3614	800026bc	00000013	addi	x0,x0,0	  x0:0x00000000
       36165000	      3615	800026c0	018000ef	jal	x1,800026c0	  x1=0x800026c0
       36175000	      3616	00000000	00000013	addi	x0,x0,0	  x0:0x00000000
       36185000	      3617	800026d4	00000013	addi	x0,x0,0	  x0:0x00000000
       36195000	      3618	800026d8	fedff0ef	jal	x1,800026d8	  x1=0x800026d8
       36205000	      3619	00000000	00000013	addi	x0,x0,0	  x0:0x00000000
       36215000	      3620	800026c0	00000013	addi	x0,x0,0	  x0:0x00000000
       36225000	      3621	800026c4	ff1ff26f	jal	x4,800026c4	  x4=0x800026c4
       36235000	      3622	00000000	00000013	addi	x0,x0,0	  x0:0x00000000
       36245000	      3623	800026b0	00000013	addi	x0,x0,0	  x0:0x00000000
       36255000	      3624	800026b4	ff9ff0ef	jal	x1,800026b4	  x1=0x800026b4
       36265000	      3625	00000000	00000013	addi	x0,x0,0	  x0:0x00000000
       36275000	      3626	800026a8	00000013	addi	x0,x0,0	  x0:0x00000000
       36285000	      3627	800026ac	0040026f	jal	x4,800026ac	  x4=0x800026ac
       36295000	      3628	00000000	00000013	addi	x0,x0,0	  x0:0x00000000
       36305000	      3629	800026ac	00000013	addi	x0,x0,0	  x0:0x00000000
       36315000	      3630	800026b0	02400bef	jal	x23,800026b0	 x23=0x800026b0
       36325000	      3631	00000000	00000013	addi	x0,x0,0	  x0:0x00000000
       36335000	      3632	800026d0	00000013	addi	x0,x0,0	  x0:0x00000000
       36345000	      3633	800026d4	ff9ff0ef	jal	x1,800026d4	  x1=0x800026d4
       36355000	      3634	00000000	00000013	addi	x0,x0,0	  x0:0x00000000
       36365000	      3635	800026c8	00000013	addi	x0,x0,0	  x0:0x00000000
       36375000	      3636	800026cc	010000ef	jal	x1,800026cc	  x1=0x800026cc
       36385000	      3637	00000000	00000013	addi	x0,x0,0	  x0:0x00000000
       36395000	      3638	800026d8	00000013	addi	x0,x0,0	  x0:0x00000000
       36405000	      3639	800026dc	fc1ff0ef	jal	x1,800026dc	  x1=0x800026dc
       36415000	      3640	00000000	00000013	addi	x0,x0,0	  x0:0x00000000
       36425000	      3641	80002698	00000013	addi	x0,x0,0	  x0:0x00000000
       36435000	      3642	8000269c	004000ef	jal	x1,8000269c	  x1=0x8000269c
       36445000	      3643	00000000	00000013	addi	x0,x0,0	  x0:0x00000000
       36455000	      3644	8000269c	00000013	addi	x0,x0,0	  x0:0x00000000
       36465000	      3645	800026a0	ff9ff0ef	jal	x1,800026a0	  x1=0x800026a0
       36475000	      3646	00000000	00000013	addi	x0,x0,0	  x0:0x00000000
       36485000	      3647	80002694	00000013	addi	x0,x0,0	  x0:0x00000000
       36495000	      3648	80002698	010000ef	jal	x1,80002698	  x1=0x80002698
       36505000	      3649	00000000	00000013	addi	x0,x0,0	  x0:0x00000000
       36515000	      3650	800026a4	00000013	addi	x0,x0,0	  x0:0x00000000
       36525000	      3651	800026a8	028004ef	jal	x9,800026a8	  x9=0x800026a8
       36535000	      3652	00000000	00000013	addi	x0,x0,0	  x0:0x00000000
       36545000	      3653	800026cc	00000013	addi	x0,x0,0	  x0:0x00000000
       36555000	      3654	800026d0	fe9ff0ef	jal	x1,800026d0	  x1=0x800026d0
       36565000	      3655	00000000	00000013	addi	x0,x0,0	  x0:0x00000000
       36575000	      3656	800026b4	00000013	addi	x0,x0,0	  x0:0x00000000
       36585000	      3657	800026b8	010000ef	jal	x1,800026b8	  x1=0x800026b8
       36595000	      3658	00000000	00000013	addi	x0,x0,0	  x0:0x00000000
       36605000	      3659	800026c4	00000013	addi	x0,x0,0	  x0:0x00000000
       36615000	      3660	800026c8	ff5ff0ef	jal	x1,800026c8	  x1=0x800026c8
       36625000	      3661	00000000	00000013	addi	x0,x0,0	  x0:0x00000000
       36635000	      3662	800026b8	00000013	addi	x0,x0,0	  x0:0x00000000
       36645000	      3663	800026bc	fe9ff0ef	jal	x1,800026bc	  x1=0x800026bc
       36655000	      3664	00000000	00000013	addi	x0,x0,0	  x0:0x00000000
       36665000	      3665	800026a0	00000013	addi	x0,x0,0	  x0:0x00000000
       36675000	      3666	800026a4	04000a6f	jal	x20,800026a4	 x20=0x800026a4
       36685000	      3667	00000000	00000013	addi	x0,x0,0	  x0:0x00000000
       36695000	      3668	800026e0	00000013	addi	x0,x0,0	  x0:0x00000000
       36705000	      3669	800026e4	00f53d33	sltu	x26,x10,x15	 x10:0x80009f24 x15:0xff80009e x26=0x00000001
       36715000	      3670	800026e8	015278b3	and	x17,x4,x21	  x4:0x800026ac x21:0x00000000 x17=0x00000000
       36725000	      3671	800026ec	b569bb93	sltiu	x23,x19,-1194	 x19:0x00000000 x23=0x00000001
       36735000	      3672	800026f0	01909713	slli	x14,x1,0x19	  x1:0x800026bc x14=0x78000000
       36745000	      3673	800026f4	00591013	slli	x0,x18,0x5	 x18:0x3e6eda84
       36755000	      3674	800026f8	04cb7863	bgeu	x22,x12,80002748	 x22:0x00000000 x12:0x7e6edfe6
       36765000	      3675	800026fc	6e6bdc97	auipc	x25,0x6e6bd	 x25=0xee6bf6f8
       36775000	      3676	80002700	0385d263	bge	x11,x24,80002724	 x11:0xfcc144fa x24:0x00000000
       36785000	      3677	80002704	40cddb13	srai	x22,x27,0xc	 x27:0xe6eda840 x22=0xfffe6eda
       36795000	      3678	80002708	01259a63	bne	x11,x18,8000271c	 x11:0xfcc144fa x18:0x3e6eda84
       36805000	      3679	00000000	00000013	addi	x0,x0,0	  x0:0x00000000
       36815000	      3680	80002718	00000013	addi	x0,x0,0	  x0:0x00000000
       36825000	      3681	8000271c	05421663	bne	x4,x20,80002768	  x4:0x800026ac x20:0x800026a4
       36835000	      3682	00000000	00000013	addi	x0,x0,0	  x0:0x00000000
       36845000	      3683	80002764	00000013	addi	x0,x0,0	  x0:0x00000000
       36855000	      3684	80002768	012f12b3	sll	x5,x30,x18	 x30:0x1ff7ec5d x18:0x3e6eda84  x5=0xff7ec5d0
       36865000	      3685	8000276c	00328e63	beq	x5,x3,80002788	  x5:0xff7ec5d0  x3:0x40004fe2
       36875000	      3686	80002770	000c0bb3	add	x23,x24,x0	 x24:0x00000000  x0:0x00000000 x23=0x00000000
       36885000	      3687	80002774	00c26fb3	or	x31,x4,x12	  x4:0x800026ac x12:0x7e6edfe6 x31=0xfe6effee
       36895000	      3688	80002778	03ef5c63	bge	x30,x30,800027b0	 x30:0x1ff7ec5d x30:0x1ff7ec5d
       36905000	      3689	00000000	00000013	addi	x0,x0,0	  x0:0x00000000
       36915000	      3690	800027ac	00000013	addi	x0,x0,0	  x0:0x00000000
       36925000	      3691	800027b0	92406113	ori	x2,x0,-1756	  x0:0x00000000  x2=0xfffff924
       36935000	      3692	800027b4	003b6b33	or	x22,x22,x3	 x22:0xfffe6eda  x3:0x40004fe2 x22=0xfffe6ffa
       36945000	      3693	800027b8	e18aba93	sltiu	x21,x21,-488	 x21:0x00000000 x21=0x00000001
       36955000	      3694	800027bc	41ead933	sra	x18,x21,x30	 x21:0x00000001 x30:0x1ff7ec5d x18=0x00000000
       36965000	      3695	800027c0	5e127a13	andi	x20,x4,1505	  x4:0x800026ac x20=0x000004a0
       36975000	      3696	800027c4	411c5f33	sra	x30,x24,x17	 x24:0x00000000 x17:0x00000000 x30=0x00000000
       36985000	      3697	800027c8	39b847b7	lui	x15,0x39b84	 x15=0x39b84000
       36995000	      3698	800027cc	018a2233	slt	x4,x20,x24	 x20:0x000004a0 x24:0x00000000  x4=0x00000000
       37005000	      3699	800027d0	40ad5813	srai	x16,x26,0xa	 x26:0x00000001 x16=0x00000000
       37015000	      3700	800027d4	02171063	bne	x14,x1,800027f4	 x14:0x78000000  x1:0x800026bc
       37025000	      3701	00000000	00000013	addi	x0,x0,0	  x0:0x00000000
       37035000	      3702	800027f0	00000013	addi	x0,x0,0	  x0:0x00000000
       37045000	      3703	800027f4	010c9293	slli	x5,x25,0x10	 x25:0xee6bf6f8  x5=0xf6f80000
       37055000	      3704	800027f8	41ca83b3	sub	x7,x21,x28	 x21:0x00000001 x28:0x40004fe2  x7=0xbfffb01f
       37065000	      3705	800027fc	005fdc93	srli	x25,x31,0x5	 x31:0xfe6effee x25=0x07f377ff
       37075000	      3706	80002800	4127dcb3	sra	x25,x15,x18	 x15:0x39b84000 x18:0x00000000 x25=0x39b84000
       37085000	      3707	80002804	0191d863	bge	x3,x25,80002814	  x3:0x40004fe2 x25:0x39b84000
       37095000	      3708	00000000	00000013	addi	x0,x0,0	  x0:0x00000000
       37105000	      3709	80002810	00000013	addi	x0,x0,0	  x0:0x00000000
       37115000	      3710	80002814	00d9e133	or	x2,x19,x13	 x19:0x00000000 x13:0x3e6eded7  x2=0x3e6eded7
       37125000	      3711	80002818	40035093	srai	x1,x6,0x0	  x6:0x80009fc4  x1=0x80009fc4
       37135000	      3712	8000281c	04f98463	beq	x19,x15,80002864	 x19:0x00000000 x15:0x39b84000
       37145000	      3713	80002820	5e69b413	sltiu	x8,x19,1510	 x19:0x00000000  x8=0x00000001
       37155000	      3714	80002824	53ac4893	xori	x17,x24,1338	 x24:0x00000000 x17=0x0000053a
       37165000	      3715	80002828	40b8d193	srai	x3,x17,0xb	 x17:0x0000053a  x3=0x00000000
       37175000	      3716	8000282c	ceb48193	addi	x3,x9,-789	  x9:0x800026a8  x3=0x80002393
       37185000	      3717	80002830	c9e2a793	slti	x15,x5,-866	  x5:0xf6f80000 x15=0x00000001
       37195000	      3718	80002834	01ae9733	sll	x14,x29,x26	 x29:0x1cc28160 x26:0x00000001 x14=0x398502c0
       37205000	      3719	80002838	02bfc263	blt	x31,x11,8000285c	 x31:0xfe6effee x11:0xfcc144fa
       37215000	      3720	8000283c	00670863	beq	x14,x6,8000284c	 x14:0x398502c0  x6:0x80009fc4
       37225000	      3721	80002840	fc564d13	xori	x26,x12,-59	 x12:0x7e6edfe6 x26=0x81912023
       37235000	      3722	80002844	011c78b3	and	x17,x24,x17	 x24:0x00000000 x17:0x0000053a x17=0x00000000
       37245000	      3723	80002848	00f96bb3	or	x23,x18,x15	 x18:0x00000000 x15:0x00000001 x23=0x00000001
       37255000	      3724	8000284c	01af8c63	beq	x31,x26,80002864	 x31:0xfe6effee x26:0x81912023
       37265000	      3725	80002850	019ac8b3	xor	x17,x21,x25	 x21:0x00000001 x25:0x39b84000 x17=0x39b84001
       37275000	      3726	80002854	f33b8c93	addi	x25,x23,-205	 x23:0x00000001 x25=0xffffff34
       37285000	      3727	80002858	0080de93	srli	x29,x1,0x8	  x1:0x80009fc4 x29=0x0080009f
       37295000	      3728	8000285c	01c86cb3	or	x25,x16,x28	 x16:0x00000000 x28:0x40004fe2 x25=0x40004fe2
       37305000	      3729	80002860	00539e13	slli	x28,x7,0x5	  x7:0xbfffb01f x28=0xfff603e0
       37315000	      3730	80002864	01500c63	beq	x0,x21,8000287c	  x0:0x00000000 x21:0x00000001
       37325000	      3731	80002868	e9c26613	ori	x12,x4,-356	  x4:0x00000000 x12=0xfffffe9c
       37335000	      3732	8000286c	00000013	addi	x0,x0,0	  x0:0x00000000
       37345000	      3733	80002870	c472bc13	sltiu	x24,x5,-953	  x5:0xf6f80000 x24=0x00000001
       37355000	      3734	80002874	00b1a4b3	slt	x9,x3,x11	  x3:0x80002393 x11:0xfcc144fa  x9=0x00000001
       37365000	      3735	80002878	c29d4193	xori	x3,x26,-983	 x26:0x81912023  x3=0x7e6edc0a
       37375000	      3736	8000287c	00d97bb3	and	x23,x18,x13	 x18:0x00000000 x13:0x3e6eded7 x23=0x00000000
       37385000	      3737	80002880	824a0813	addi	x16,x20,-2012	 x20:0x000004a0 x16=0xfffffcc4
       37395000	      3738	80002884	00b18c63	beq	x3,x11,8000289c	  x3:0x7e6edc0a x11:0xfcc144fa
       37405000	      3739	80002888	a19e4613	xori	x12,x28,-1511	 x28:0xfff603e0 x12=0x0009f9f9
       37415000	      3740	8000288c	00000013	addi	x0,x0,0	  x0:0x00000000
       37425000	      3741	80002890	018928b3	slt	x17,x18,x24	 x18:0x00000000 x24:0x00000001 x17=0x00000001
       37435000	      3742	80002894	000d4a33	xor	x20,x26,x0	 x26:0x81912023  x0:0x00000000 x20=0x81912023
       37445000	      3743	80002898	02777c63	bgeu	x14,x7,800028d0	 x14:0x398502c0  x7:0xbfffb01f
       37455000	      3744	8000289c	07fea113	slti	x2,x29,127	 x29:0x0080009f  x2=0x00000000
       37465000	      3745	800028a0	00019413	slli	x8,x3,0x0	  x3:0x7e6edc0a  x8=0x7e6edc0a
       37475000	      3746	800028a4	817077b7	lui	x15,0x81707	 x15=0x81707000
       37485000	      3747	800028a8	41610d33	sub	x26,x2,x22	  x2:0x00000000 x22:0xfffe6ffa x26=0x00019006
       37495000	      3748	800028ac	95988413	addi	x8,x17,-1703	 x17:0x00000001  x8=0xfffff95a
       37505000	      3749	800028b0	8eea0613	addi	x12,x20,-1810	 x20:0x81912023 x12=0x81911911
       37515000	      3750	800028b4	048dd663	bge	x27,x8,80002900	 x27:0xe6eda840  x8:0xfffff95a
       37525000	      3751	800028b8	c9e0d717	auipc	x14,0xc9e0d	 x14=0x49e0f8b4
       37535000	      3752	800028bc	0170af33	slt	x30,x1,x23	  x1:0x80009fc4 x23:0x00000000 x30=0x00000001
       37545000	      3753	800028c0	75f8be93	sltiu	x29,x17,1887	 x17:0x00000001 x29=0x00000001
       37555000	      3754	800028c4	412d81b3	sub	x3,x27,x18	 x27:0xe6eda840 x18:0x00000000  x3=0xe6eda840
       37565000	      3755	800028c8	00994a63	blt	x18,x9,800028dc	 x18:0x00000000  x9:0x00000001
       37575000	      3756	00000000	00000013	addi	x0,x0,0	  x0:0x00000000
       37585000	      3757	800028d8	00000013	addi	x0,x0,0	  x0:0x00000000
       37595000	      3758	800028dc	00a8be33	sltu	x28,x17,x10	 x17:0x00000001 x10:0x80009f24 x28=0x00000001
       37605000	      3759	800028e0	01801193	slli	x3,x0,0x18	  x0:0x00000000  x3=0x00000000
       37615000	      3760	800028e4	48f861b7	lui	x3,0x48f86	  x3=0x48f86000
       37625000	      3761	800028e8	a8b68713	addi	x14,x13,-1397	 x13:0x3e6eded7 x14=0x3e6ed962
       37635000	      3762	800028ec	408d04b3	sub	x9,x26,x8	 x26:0x00019006  x8:0xfffff95a  x9=0x000196ac
       37645000	      3763	800028f0	d62cc993	xori	x19,x25,-670	 x25:0x40004fe2 x19=0xbfffb280
       37655000	      3764	800028f4	00609a33	sll	x20,x1,x6	  x1:0x80009fc4  x6:0x80009fc4 x20=0x0009fc40
       37665000	      3765	800028f8	00686e33	or	x28,x16,x6	 x16:0xfffffcc4  x6:0x80009fc4 x28=0xffffffc4
       37675000	      3766	800028fc	0414e663	bltu	x9,x1,80002948	  x9:0x000196ac  x1:0x80009fc4
       37685000	      3767	00000000	00000013	addi	x0,x0,0	  x0:0x00000000
       37695000	      3768	80002944	00000013	addi	x0,x0,0	  x0:0x00000000
       37705000	      3769	80002948	00596f33	or	x30,x18,x5	 x18:0x00000000  x5:0xf6f80000 x30=0xf6f80000
       37715000	      3770	8000294c	91de0813	addi	x16,x28,-1763	 x28:0xffffffc4 x16=0xfffff8e1
       37725000	      3771	80002950	0090a5b3	slt	x11,x1,x9	  x1:0x80009fc4  x9:0x000196ac x11=0x00000001
       37735000	      3772	80002954	01905c33	srl	x24,x0,x25	  x0:0x00000000 x25:0x40004fe2 x24=0x00000000
       37745000	      3773	80002958	002ab7b3	sltu	x15,x21,x2	 x21:0x00000001  x2:0x00000000 x15=0x00000000
       37755000	      3774	8000295c	01a89493	slli	x9,x17,0x1a	 x17:0x00000001  x9=0x04000000
       37765000	      3775	80002960	6cdae097	auipc	x1,0x6cdae	  x1=0xecdb095c
       37775000	      3776	80002964	3e004e97	auipc	x29,0x3e004	 x29=0xbe006960
       37785000	      3777	80002968	cbe94393	xori	x7,x18,-834	 x18:0x00000000  x7=0xfffffcbe
       37795000	      3778	8000296c	00e27e33	and	x28,x4,x14	  x4:0x00000000 x14:0x3e6ed962 x28=0x00000000
       37805000	      3779	80002970	00942933	slt	x18,x8,x9	  x8:0xfffff95a  x9:0x04000000 x18=0x00000001
       37815000	      3780	80002974	003f6c33	or	x24,x30,x3	 x30:0xf6f80000  x3:0x48f86000 x24=0xfef86000
       37825000	      3781	80002978	0030bab3	sltu	x21,x1,x3	  x1:0xecdb095c  x3:0x48f86000 x21=0x00000000
       37835000	      3782	8000297c	01466fb3	or	x31,x12,x20	 x12:0x81911911 x20:0x0009fc40 x31=0x8199fd51
       37845000	      3783	80002980	adbd2293	slti	x5,x26,-1317	 x26:0x00019006  x5=0x00000000
       37855000	      3784	80002984	0040ebb3	or	x23,x1,x4	  x1:0xecdb095c  x4:0x00000000 x23=0xecdb095c
       37865000	      3785	80002988	04ad0463	beq	x26,x10,800029d0	 x26:0x00019006 x10:0x80009f24
       37875000	      3786	8000298c	008fd863	bge	x31,x8,8000299c	 x31:0x8199fd51  x8:0xfffff95a
       37885000	      3787	80002990	03725463	bge	x4,x23,800029b8	  x4:0x00000000 x23:0xecdb095c
       37895000	      3788	00000000	00000013	addi	x0,x0,0	  x0:0x00000000
       37905000	      3789	800029b4	00000013	addi	x0,x0,0	  x0:0x00000000
       37915000	      3790	800029b8	4d582013	slti	x0,x16,1237	 x16:0xfffff8e1
       37925000	      3791	800029bc	002600b3	add	x1,x12,x2	 x12:0x81911911  x2:0x00000000  x1=0x81911911
       37935000	      3792	800029c0	0144bbb3	sltu	x23,x9,x20	  x9:0x04000000 x20:0x0009fc40 x23=0x00000000
       37945000	      3793	800029c4	03014e63	blt	x2,x16,80002a00	  x2:0x00000000 x16:0xfffff8e1
       37955000	      3794	800029c8	40ba5f93	srai	x31,x20,0xb	 x20:0x0009fc40 x31=0x0000013f
       37965000	      3795	800029cc	01f2d893	srli	x17,x5,0x1f	  x5:0x00000000 x17=0x00000000
       37975000	      3796	800029d0	efdb3db7	lui	x27,0xefdb3	 x27=0xefdb3000
       37985000	      3797	800029d4	041d8663	beq	x27,x1,80002a20	 x27:0xefdb3000  x1:0x81911911
       37995000	      3798	800029d8	6d6cc417	auipc	x8,0x6d6cc	  x8=0xed6ce9d4
       38005000	      3799	800029dc	4072d133	sra	x2,x5,x7	  x5:0x00000000  x7:0xfffffcbe  x2=0x00000000
       38015000	      3800	800029e0	fd217117	auipc	x2,0xfd217	  x2=0x7d2199dc
       38025000	      3801	800029e4	26f59817	auipc	x16,0x26f59	 x16=0xa6f5b9e0
       38035000	      3802	800029e8	41e35a13	srai	x20,x6,0x1e	  x6:0x80009fc4 x20=0xfffffffe
       38045000	      3803	800029ec	0104e993	ori	x19,x9,16	  x9:0x04000000 x19=0x04000010
       38055000	      3804	800029f0	029d8063	beq	x27,x9,80002a10	 x27:0xefdb3000  x9:0x04000000
       38065000	      3805	800029f4	15e03093	sltiu	x1,x0,350	  x0:0x00000000  x1=0x00000001
       38075000	      3806	800029f8	018a9b93	slli	x23,x21,0x18	 x21:0x00000000 x23=0x00000000
       38085000	      3807	800029fc	444fef93	ori	x31,x31,1092	 x31:0x0000013f x31=0x0000057f
       38095000	      3808	80002a00	038fea63	bltu	x31,x24,80002a34	 x31:0x0000057f x24:0xfef86000
       38105000	      3809	00000000	00000013	addi	x0,x0,0	  x0:0x00000000
       38115000	      3810	80002a30	00000013	addi	x0,x0,0	  x0:0x00000000
       38125000	      3811	80002a34	01585013	srli	x0,x16,0x15	 x16:0xa6f5b9e0
       38135000	      3812	80002a38	00ec08b3	add	x17,x24,x14	 x24:0xfef86000 x14:0x3e6ed962 x17=0x3d673962
       38145000	      3813	80002a3c	066dc213	xori	x4,x27,102	 x27:0xefdb3000  x4=0xefdb3066
       38155000	      3814	80002a40	41a451b3	sra	x3,x8,x26	  x8:0xed6ce9d4 x26:0x00019006  x3=0xffb5b3a7
       38165000	      3815	80002a44	023c8863	beq	x25,x3,80002a74	 x25:0x40004fe2  x3:0xffb5b3a7
       38175000	      3816	80002a48	01fb3f33	sltu	x30,x22,x31	 x22:0xfffe6ffa x31:0x0000057f x30=0x00000000
       38185000	      3817	80002a4c	fca50713	addi	x14,x10,-54	 x10:0x80009f24 x14=0x80009eee
       38195000	      3818	80002a50	d3dd3013	sltiu	x0,x26,-707	 x26:0x00019006
       38205000	      3819	80002a54	31b46897	auipc	x17,0x31b46	 x17=0xb1b48a50
       38215000	      3820	80002a58	25d66d93	ori	x27,x12,605	 x12:0x81911911 x27=0x81911b5d
       38225000	      3821	80002a5c	40095eb3	sra	x29,x18,x0	 x18:0x00000001  x0:0x00000000 x29=0x00000001
       38235000	      3822	80002a60	bcd22793	slti	x15,x4,-1075	  x4:0xefdb3066 x15=0x00000001
       38245000	      3823	80002a64	00f7dd93	srli	x27,x15,0xf	 x15:0x00000001 x27=0x00000000
       38255000	      3824	80002a68	89a87a93	andi	x21,x16,-1894	 x16:0xa6f5b9e0 x21=0xa6f5b880
       38265000	      3825	80002a6c	024a0263	beq	x20,x4,80002a90	 x20:0xfffffffe  x4:0xefdb3066
       38275000	      3826	80002a70	2013ab13	slti	x22,x7,513	  x7:0xfffffcbe x22=0x00000001
       38285000	      3827	80002a74	4042d5b3	sra	x11,x5,x4	  x5:0x00000000  x4:0xefdb3066 x11=0x00000000
       38295000	      3828	80002a78	0130c863	blt	x1,x19,80002a88	  x1:0x00000001 x19:0x04000010
       38305000	      3829	00000000	00000013	addi	x0,x0,0	  x0:0x00000000
       38315000	      3830	80002a84	00000013	addi	x0,x0,0	  x0:0x00000000
       38325000	      3831	80002a88	41f1ddb3	sra	x27,x3,x31	  x3:0xffb5b3a7 x31:0x0000057f x27=0xffffffff
       38335000	      3832	80002a8c	6e45e497	auipc	x9,0x6e45e	  x9=0xee460a88
       38345000	      3833	80002a90	046c8863	beq	x25,x6,80002ae0	 x25:0x40004fe2  x6:0x80009fc4
       38355000	      3834	80002a94	01c8f463	bgeu	x17,x28,80002a9c	 x17:0xb1b48a50 x28:0x00000000
       38365000	      3835	00000000	00000013	addi	x0,x0,0	  x0:0x00000000
       38375000	      3836	80002a98	00000013	addi	x0,x0,0	  x0:0x00000000
       38385000	      3837	80002a9c	40a35ab3	sra	x21,x6,x10	  x6:0x80009fc4 x10:0x80009f24 x21=0xf80009fc
       38395000	      3838	80002aa0	00290e63	beq	x18,x2,80002abc	 x18:0x00000001  x2:0x7d2199dc
       38405000	      3839	80002aa4	9ba3a393	slti	x7,x7,-1606	  x7:0xfffffcbe  x7=0x00000000
       38415000	      3840	80002aa8	40e2d393	srai	x7,x5,0xe	  x5:0x00000000  x7=0x00000000
       38425000	      3841	80002aac	01245c63	bge	x8,x18,80002ac4	  x8:0xed6ce9d4 x18:0x00000001
       38435000	      3842	80002ab0	00c6c5b3	xor	x11,x13,x12	 x13:0x3e6eded7 x12:0x81911911 x11=0xbfffc7c6
       38445000	      3843	80002ab4	01d8d4b3	srl	x9,x17,x29	 x17:0xb1b48a50 x29:0x00000001  x9=0x58da4528
       38455000	      3844	80002ab8	01db4633	xor	x12,x22,x29	 x22:0x00000001 x29:0x00000001 x12=0x00000000
       38465000	      3845	80002abc	55459837	lui	x16,0x55459	 x16=0x55459000
       38475000	      3846	80002ac0	01cb75b3	and	x11,x22,x28	 x22:0x00000001 x28:0x00000000 x11=0x00000000
       38485000	      3847	80002ac4	01c35bb3	srl	x23,x6,x28	  x6:0x80009fc4 x28:0x00000000 x23=0x80009fc4
       38495000	      3848	80002ac8	01d38a63	beq	x7,x29,80002adc	  x7:0x00000000 x29:0x00000001
       38505000	      3849	80002acc	013b1463	bne	x22,x19,80002ad4	 x22:0x00000001 x19:0x04000010
       38515000	      3850	00000000	00000013	addi	x0,x0,0	  x0:0x00000000
       38525000	      3851	80002ad0	00000013	addi	x0,x0,0	  x0:0x00000000
       38535000	      3852	80002ad4	01a61493	slli	x9,x12,0x1a	 x12:0x00000000  x9=0x00000000
       38545000	      3853	80002ad8	cbfe1897	auipc	x17,0xcbfe1	 x17=0x4bfe3ad4
       38555000	      3854	80002adc	00000013	addi	x0,x0,0	  x0:0x00000000
       38565000	      3855	80002ae0	03c79c63	bne	x15,x28,80002b18	 x15:0x00000001 x28:0x00000000
       38575000	      3856	00000000	00000013	addi	x0,x0,0	  x0:0x00000000
       38585000	      3857	80002b14	00000013	addi	x0,x0,0	  x0:0x00000000
       38595000	      3858	80002b18	00a79eb3	sll	x29,x15,x10	 x15:0x00000001 x10:0x80009f24 x29=0x00000010
       38605000	      3859	80002b1c	01caf8b3	and	x17,x21,x28	 x21:0xf80009fc x28:0x00000000 x17=0x00000000
       38615000	      3860	80002b20	0b92fc93	andi	x25,x5,185	  x5:0x00000000 x25=0x00000000
       38625000	      3861	80002b24	3859bf93	sltiu	x31,x19,901	 x19:0x04000010 x31=0x00000000
       38635000	      3862	80002b28	5faab897	auipc	x17,0x5faab	 x17=0xdfaadb24
       38645000	      3863	80002b2c	026e5263	bge	x28,x6,80002b50	 x28:0x00000000  x6:0x80009fc4
       38655000	      3864	00000000	00000013	addi	x0,x0,0	  x0:0x00000000
       38665000	      3865	80002b4c	00000013	addi	x0,x0,0	  x0:0x00000000
       38675000	      3866	80002b50	4080d4b3	sra	x9,x1,x8	  x1:0x00000001  x8:0xed6ce9d4  x9=0x00000000
       38685000	      3867	80002b54	011c9033	sll	x0,x25,x17	 x25:0x00000000 x17:0xdfaadb24
       38695000	      3868	80002b58	b2adc093	xori	x1,x27,-1238	 x27:0xffffffff  x1=0x000004d5
       38705000	      3869	80002b5c	05c07663	bgeu	x0,x28,80002ba8	  x0:0x00000000 x28:0x00000000
       38715000	      3870	00000000	00000013	addi	x0,x0,0	  x0:0x00000000
       38725000	      3871	80002ba4	00000013	addi	x0,x0,0	  x0:0x00000000
       38735000	      3872	80002ba8	0264ce63	blt	x9,x6,80002be4	  x9:0x00000000  x6:0x80009fc4
       38745000	      3873	80002bac	5dad6793	ori	x15,x26,1498	 x26:0x00019006 x15=0x000195de
       38755000	      3874	80002bb0	04444263	blt	x8,x4,80002bf4	  x8:0xed6ce9d4  x4:0xefdb3066
       38765000	      3875	00000000	00000013	addi	x0,x0,0	  x0:0x00000000
       38775000	      3876	80002bf0	00000013	addi	x0,x0,0	  x0:0x00000000
       38785000	      3877	80002bf4	03ecce63	blt	x25,x30,80002c30	 x25:0x00000000 x30:0x00000000
       38795000	      3878	80002bf8	c726ba13	sltiu	x20,x13,-910	 x13:0x3e6eded7 x20=0x00000001
       38805000	      3879	80002bfc	0273f063	bgeu	x7,x7,80002c1c	  x7:0x00000000  x7:0x00000000
       38815000	      3880	00000000	00000013	addi	x0,x0,0	  x0:0x00000000
       38825000	      3881	80002c18	00000013	addi	x0,x0,0	  x0:0x00000000
       38835000	      3882	80002c1c	05ed8663	beq	x27,x30,80002c68	 x27:0xffffffff x30:0x00000000
       38845000	      3883	80002c20	00000013	addi	x0,x0,0	  x0:0x00000000
       38855000	      3884	80002c24	9101a793	slti	x15,x3,-1776	  x3:0xffb5b3a7 x15=0x00000001
       38865000	      3885	80002c28	001b7d33	and	x26,x22,x1	 x22:0x00000001  x1:0x000004d5 x26=0x00000001
       38875000	      3886	80002c2c	00b632b3	sltu	x5,x12,x11	 x12:0x00000000 x11:0x00000000  x5=0x00000000
       38885000	      3887	80002c30	00da8c63	beq	x21,x13,80002c48	 x21:0xf80009fc x13:0x3e6eded7
       38895000	      3888	80002c34	403d81b3	sub	x3,x27,x3	 x27:0xffffffff  x3:0xffb5b3a7  x3=0x004a4c58
       38905000	      3889	80002c38	4f01bc93	sltiu	x25,x3,1264	  x3:0x004a4c58 x25=0x00000000
       38915000	      3890	80002c3c	402a5933	sra	x18,x20,x2	 x20:0x00000001  x2:0x7d2199dc x18=0x00000000
       38925000	      3891	80002c40	c4753813	sltiu	x16,x10,-953	 x10:0x80009f24 x16=0x00000001
       38935000	      3892	80002c44	00000013	addi	x0,x0,0	  x0:0x00000000
       38945000	      3893	80002c48	96d7f9b7	lui	x19,0x96d7f	 x19=0x96d7f000
       38955000	      3894	80002c4c	00b1fc63	bgeu	x3,x11,80002c64	  x3:0x004a4c58 x11:0x00000000
       38965000	      3895	00000000	00000013	addi	x0,x0,0	  x0:0x00000000
       38975000	      3896	80002c60	00000013	addi	x0,x0,0	  x0:0x00000000
       38985000	      3897	80002c64	040e7863	bgeu	x28,x0,80002cb4	 x28:0x00000000  x0:0x00000000
       38995000	      3898	00000000	00000013	addi	x0,x0,0	  x0:0x00000000
       39005000	      3899	80002cb0	00000013	addi	x0,x0,0	  x0:0x00000000
       39015000	      3900	80002cb4	012134b3	sltu	x9,x2,x18	  x2:0x7d2199dc x18:0x00000000  x9=0x00000000
       39025000	      3901	80002cb8	40485b13	srai	x22,x16,0x4	 x16:0x00000001 x22=0x00000000
       39035000	      3902	80002cbc	01236fb3	or	x31,x6,x18	  x6:0x80009fc4 x18:0x00000000 x31=0x80009fc4
       39045000	      3903	80002cc0	034b5a63	bge	x22,x20,80002cf4	 x22:0x00000000 x20:0x00000001
       39055000	      3904	80002cc4	ed867837	lui	x16,0xed867	 x16=0xed867000
       39065000	      3905	80002cc8	41550133	sub	x2,x10,x21	 x10:0x80009f24 x21:0xf80009fc  x2=0x88009528
       39075000	      3906	80002ccc	4028db93	srai	x23,x17,0x2	 x17:0xdfaadb24 x23=0xf7eab6c9
       39085000	      3907	80002cd0	014d2db3	slt	x27,x26,x20	 x26:0x00000001 x20:0x00000001 x27=0x00000000
       39095000	      3908	80002cd4	1af20593	addi	x11,x4,431	  x4:0xefdb3066 x11=0xefdb3215
       39105000	      3909	80002cd8	40e787b3	sub	x15,x15,x14	 x15:0x00000001 x14:0x80009eee x15=0x7fff6113
       39115000	      3910	80002cdc	41d25d13	srai	x26,x4,0x1d	  x4:0xefdb3066 x26=0xffffffff
       39125000	      3911	80002ce0	00915e63	bge	x2,x9,80002cfc	  x2:0x88009528  x9:0x00000000
       39135000	      3912	80002ce4	4074dcb3	sra	x25,x9,x7	  x9:0x00000000  x7:0x00000000 x25=0x00000000
       39145000	      3913	80002ce8	c9028913	addi	x18,x5,-880	  x5:0x00000000 x18=0xfffffc90
       39155000	      3914	80002cec	4077d933	sra	x18,x15,x7	 x15:0x7fff6113  x7:0x00000000 x18=0x7fff6113
       39165000	      3915	80002cf0	ef706113	ori	x2,x0,-265	  x0:0x00000000  x2=0xfffffef7
       39175000	      3916	80002cf4	00d85713	srli	x14,x16,0xd	 x16:0xed867000 x14=0x00076c33
       39185000	      3917	80002cf8	90c9fc97	auipc	x25,0x90c9f	 x25=0x10ca1cf4
       39195000	      3918	80002cfc	013e3833	sltu	x16,x28,x19	 x28:0x00000000 x19:0x96d7f000 x16=0x00000001
       39205000	      3919	80002d00	02928863	beq	x5,x9,80002d30	  x5:0x00000000  x9:0x00000000
       39215000	      3920	00000000	00000013	addi	x0,x0,0	  x0:0x00000000
       39225000	      3921	80002d2c	00000013	addi	x0,x0,0	  x0:0x00000000
       39235000	      3922	80002d30	450be213	ori	x4,x23,1104	 x23:0xf7eab6c9  x4=0xf7eab6d9
       39245000	      3923	80002d34	0151aa33	slt	x20,x3,x21	  x3:0x004a4c58 x21:0xf80009fc x20=0x00000000
       39255000	      3924	80002d38	84ad4413	xori	x8,x26,-1974	 x26:0xffffffff  x8=0x000007b5
       39265000	      3925	80002d3c	407bdf93	srai	x31,x23,0x7	 x23:0xf7eab6c9 x31=0xffefd56d
       39275000	      3926	80002d40	40bb84b3	sub	x9,x23,x11	 x23:0xf7eab6c9 x11:0xefdb3215  x9=0x080f84b4
       39285000	      3927	80002d44	0109df33	srl	x30,x19,x16	 x19:0x96d7f000 x16:0x00000001 x30=0x4b6bf800
       39295000	      3928	80002d48	00545f13	srli	x30,x8,0x5	  x8:0x000007b5 x30=0x0000003d
       39305000	      3929	80002d4c	01fad613	srli	x12,x21,0x1f	 x21:0xf80009fc x12=0x00000001
       39315000	      3930	80002d50	004ce0b3	or	x1,x25,x4	 x25:0x10ca1cf4  x4:0xf7eab6d9  x1=0xf7eabefd
       39325000	      3931	80002d54	086a5463	bge	x20,x6,80002ddc	 x20:0x00000000  x6:0x80009fc4
       39335000	      3932	00000000	00000013	addi	x0,x0,0	  x0:0x00000000
       39345000	      3933	80002dd8	00000013	addi	x0,x0,0	  x0:0x00000000
       39355000	      3934	80002ddc	41548e33	sub	x28,x9,x21	  x9:0x080f84b4 x21:0xf80009fc x28=0x100f7ab8
       39365000	      3935	80002de0	005fbeb3	sltu	x29,x31,x5	 x31:0xffefd56d  x5:0x00000000 x29=0x00000000
       39375000	      3936	80002de4	5dd7bb93	sltiu	x23,x15,1501	 x15:0x7fff6113 x23=0x00000000
       39385000	      3937	80002de8	74baca93	xori	x21,x21,1867	 x21:0xf80009fc x21=0xf8000eb7
       39395000	      3938	80002dec	0054bb33	sltu	x22,x9,x5	  x9:0x080f84b4  x5:0x00000000 x22=0x00000000
       39405000	      3939	80002df0	5268a397	auipc	x7,0x5268a	  x7=0xd268cdec
       39415000	      3940	80002df4	c7a845b7	lui	x11,0xc7a84	 x11=0xc7a84000
       39425000	      3941	80002df8	e3e9cb17	auipc	x22,0xe3e9c	 x22=0x63e9edf4
       39435000	      3942	80002dfc	011fa133	slt	x2,x31,x17	 x31:0xffefd56d x17:0xdfaadb24  x2=0x00000000
       39445000	      3943	80002e00	12e1ea13	ori	x20,x3,302	  x3:0x004a4c58 x20=0x004a4d7e
       39455000	      3944	80002e04	04165663	bge	x12,x1,80002e50	 x12:0x00000001  x1:0xf7eabefd
       39465000	      3945	00000000	00000013	addi	x0,x0,0	  x0:0x00000000
       39475000	      3946	80002e4c	00000013	addi	x0,x0,0	  x0:0x00000000
       39485000	      3947	80002e50	040ad663	bge	x21,x0,80002e9c	 x21:0xf8000eb7  x0:0x00000000
       39495000	      3948	80002e54	00d9f433	and	x8,x19,x13	 x19:0x96d7f000 x13:0x3e6eded7  x8=0x1646d000
       39505000	      3949	80002e58	00799c63	bne	x19,x7,80002e70	 x19:0x96d7f000  x7:0xd268cdec
       39515000	      3950	00000000	00000013	addi	x0,x0,0	  x0:0x00000000
       39525000	      3951	80002e6c	00000013	addi	x0,x0,0	  x0:0x00000000
       39535000	      3952	80002e70	0a3c7c63	bgeu	x24,x3,80002f28	 x24:0xfef86000  x3:0x004a4c58
       39545000	      3953	00000000	00000013	addi	x0,x0,0	  x0:0x00000000
       39555000	      3954	80002f24	00000013	addi	x0,x0,0	  x0:0x00000000
       39565000	      3955	80002f28	01ea5863	bge	x20,x30,80002f38	 x20:0x004a4d7e x30:0x0000003d
       39575000	      3956	00000000	00000013	addi	x0,x0,0	  x0:0x00000000
       39585000	      3957	80002f34	00000013	addi	x0,x0,0	  x0:0x00000000
       39595000	      3958	80002f38	00b31e93	slli	x29,x6,0xb	  x6:0x80009fc4 x29=0x04fe2000
       39605000	      3959	80002f3c	019d8033	add	x0,x27,x25	 x27:0x00000000 x25:0x10ca1cf4
       39615000	      3960	80002f40	8b374d93	xori	x27,x14,-1869	 x14:0x00076c33 x27=0xfff89480
       39625000	      3961	80002f44	40fd5293	srai	x5,x26,0xf	 x26:0xffffffff  x5=0xffffffff
       39635000	      3962	80002f48	01312833	slt	x16,x2,x19	  x2:0x00000000 x19:0x96d7f000 x16=0x00000000
       39645000	      3963	80002f4c	0037f933	and	x18,x15,x3	 x15:0x7fff6113  x3:0x004a4c58 x18=0x004a4010
       39655000	      3964	80002f50	02bcfe63	bgeu	x25,x11,80002f8c	 x25:0x10ca1cf4 x11:0xc7a84000
       39665000	      3965	80002f54	2415a613	slti	x12,x11,577	 x11:0xc7a84000 x12=0x00000001
       39675000	      3966	80002f58	400d5a33	sra	x20,x26,x0	 x26:0xffffffff  x0:0x00000000 x20=0xffffffff
       39685000	      3967	80002f5c	00a54e33	xor	x28,x10,x10	 x10:0x80009f24 x10:0x80009f24 x28=0x00000000
       39695000	      3968	80002f60	0582f463	bgeu	x5,x24,80002fa8	  x5:0xffffffff x24:0xfef86000
       39705000	      3969	00000000	00000013	addi	x0,x0,0	  x0:0x00000000
       39715000	      3970	80002fa4	00000013	addi	x0,x0,0	  x0:0x00000000
       39725000	      3971	80002fa8	05e38663	beq	x7,x30,80002ff4	  x7:0xd268cdec x30:0x0000003d
       39735000	      3972	80002fac	400edc93	srai	x25,x29,0x0	 x29:0x04fe2000 x25=0x04fe2000
       39745000	      3973	80002fb0	1fb5fc13	andi	x24,x11,507	 x11:0xc7a84000 x24=0x00000000
       39755000	      3974	80002fb4	004d9233	sll	x4,x27,x4	 x27:0xfff89480  x4:0xf7eab6d9  x4=0x00000000
       39765000	      3975	80002fb8	00a2c7b3	xor	x15,x5,x10	  x5:0xffffffff x10:0x80009f24 x15=0x7fff60db
       39775000	      3976	80002fbc	018a5f93	srli	x31,x20,0x18	 x20:0xffffffff x31=0x000000ff
       39785000	      3977	80002fc0	716dcd93	xori	x27,x27,1814	 x27:0xfff89480 x27=0xfff89396
       39795000	      3978	80002fc4	01499613	slli	x12,x19,0x14	 x19:0x96d7f000 x12=0x00000000
       39805000	      3979	80002fc8	78570f93	addi	x31,x14,1925	 x14:0x00076c33 x31=0x000773b8
       39815000	      3980	80002fcc	a7bc7593	andi	x11,x24,-1413	 x24:0x00000000 x11=0x00000000
       39825000	      3981	80002fd0	00cf9b33	sll	x22,x31,x12	 x31:0x000773b8 x12:0x00000000 x22=0x000773b8
       39835000	      3982	80002fd4	029b8263	beq	x23,x9,80002ff8	 x23:0x00000000  x9:0x080f84b4
       39845000	      3983	80002fd8	006681b3	add	x3,x13,x6	 x13:0x3e6eded7  x6:0x80009fc4  x3=0xbe6f7e9b
       39855000	      3984	80002fdc	01d8e133	or	x2,x17,x29	 x17:0xdfaadb24 x29:0x04fe2000  x2=0xdffefb24
       39865000	      3985	80002fe0	92838217	auipc	x4,0x92838	  x4=0x1283afdc
       39875000	      3986	80002fe4	00790a33	add	x20,x18,x7	 x18:0x004a4010  x7:0xd268cdec x20=0xd2b30dfc
       39885000	      3987	80002fe8	41455293	srai	x5,x10,0x14	 x10:0x80009f24  x5=0xfffff800
       39895000	      3988	80002fec	01afd113	srli	x2,x31,0x1a	 x31:0x000773b8  x2=0x00000000
       39905000	      3989	80002ff0	3b537937	lui	x18,0x3b537	 x18=0x3b537000
       39915000	      3990	80002ff4	0198bc33	sltu	x24,x17,x25	 x17:0xdfaadb24 x25:0x04fe2000 x24=0x00000000
       39925000	      3991	80002ff8	f92e7a93	andi	x21,x28,-110	 x28:0x00000000 x21=0x00000000
       39935000	      3992	80002ffc	97fd4413	xori	x8,x26,-1665	 x26:0xffffffff  x8=0x00000680
       39945000	      3993	80003000	3010b093	sltiu	x1,x1,769	  x1:0xf7eabefd  x1=0x00000000
       39955000	      3994	80003004	4120d113	srai	x2,x1,0x12	  x1:0x00000000  x2=0x00000000
       39965000	      3995	80003008	00667c33	and	x24,x12,x6	 x12:0x00000000  x6:0x80009fc4 x24=0x00000000
       39975000	      3996	8000300c	9f4ce397	auipc	x7,0x9f4ce	  x7=0x1f4d1008
       39985000	      3997	80003010	01354263	blt	x10,x19,80003014	 x10:0x80009f24 x19:0x96d7f000
       39995000	      3998	00000000	00000013	addi	x0,x0,0	  x0:0x00000000
       40005000	      3999	80003010	00000013	addi	x0,x0,0	  x0:0x00000000
       40015000	      4000	80003014	0020bd33	sltu	x26,x1,x2	  x1:0x00000000  x2:0x00000000 x26=0x00000000
       40025000	      4001	80003018	01cd4033	xor	x0,x26,x28	 x26:0x00000000 x28:0x00000000
       40035000	      4002	8000301c	65ed4493	xori	x9,x26,1630	 x26:0x00000000  x9=0x0000065e
       40045000	      4003	80003020	41f9d9b3	sra	x19,x19,x31	 x19:0x96d7f000 x31:0x000773b8 x19=0xffffff96
       40055000	      4004	80003024	088e8663	beq	x29,x8,800030b0	 x29:0x04fe2000  x8:0x00000680
       40065000	      4005	80003028	01e194b3	sll	x9,x3,x30	  x3:0xbe6f7e9b x30:0x0000003d  x9=0x60000000
       40075000	      4006	8000302c	09421463	bne	x4,x20,800030b4	  x4:0x1283afdc x20:0xd2b30dfc
       40085000	      4007	00000000	00000013	addi	x0,x0,0	  x0:0x00000000
       40095000	      4008	800030b0	00000013	addi	x0,x0,0	  x0:0x00000000
       40105000	      4009	800030b4	00777fb3	and	x31,x14,x7	 x14:0x00076c33  x7:0x1f4d1008 x31=0x00050000
       40115000	      4010	800030b8	41b80433	sub	x8,x16,x27	 x16:0x00000000 x27:0xfff89396  x8=0x00076c6a
       40125000	      4011	800030bc	05a46663	bltu	x8,x26,80003108	  x8:0x00076c6a x26:0x00000000
       40135000	      4012	800030c0	001877b3	and	x15,x16,x1	 x16:0x00000000  x1:0x00000000 x15=0x00000000
       40145000	      4013	800030c4	00f56bb3	or	x23,x10,x15	 x10:0x80009f24 x15:0x00000000 x23=0x80009f24
       40155000	      4014	800030c8	011b5b13	srli	x22,x22,0x11	 x22:0x000773b8 x22=0x00000003
       40165000	      4015	800030cc	eeef4d93	xori	x27,x30,-274	 x30:0x0000003d x27=0xfffffed3
       40175000	      4016	800030d0	00c15113	srli	x2,x2,0xc	  x2:0x00000000  x2=0x00000000
       40185000	      4017	800030d4	00000013	addi	x0,x0,0	  x0:0x00000000
       40195000	      4018	800030d8	004ede93	srli	x29,x29,0x4	 x29:0x04fe2000 x29=0x004fe200
       40205000	      4019	800030dc	923f4193	xori	x3,x30,-1757	 x30:0x0000003d  x3=0xfffff91e
       40215000	      4020	800030e0	01baa4b3	slt	x9,x21,x27	 x21:0x00000000 x27:0xfffffed3  x9=0x00000000
       40225000	      4021	800030e4	002adc33	srl	x24,x21,x2	 x21:0x00000000  x2:0x00000000 x24=0x00000000
       40235000	      4022	800030e8	01940133	add	x2,x8,x25	  x8:0x00076c6a x25:0x04fe2000  x2=0x05058c6a
       40245000	      4023	800030ec	00314f33	xor	x30,x2,x3	  x2:0x05058c6a  x3:0xfffff91e x30=0xfafa7574
       40255000	      4024	800030f0	f2493f97	auipc	x31,0xf2493	 x31=0x724960ec
       40265000	      4025	800030f4	392c7737	lui	x14,0x392c7	 x14=0x392c7000
       40275000	      4026	800030f8	b0324f93	xori	x31,x4,-1277	  x4:0x1283afdc x31=0xed7c54df
       40285000	      4027	800030fc	010ec1b3	xor	x3,x29,x16	 x29:0x004fe200 x16:0x00000000  x3=0x004fe200
       40295000	      4028	80003100	011d2d33	slt	x26,x26,x17	 x26:0x00000000 x17:0xdfaadb24 x26=0x00000000
       40305000	      4029	80003104	019a5a63	bge	x20,x25,80003118	 x20:0xd2b30dfc x25:0x04fe2000
       40315000	      4030	80003108	0176a833	slt	x16,x13,x23	 x13:0x3e6eded7 x23:0x80009f24 x16=0x00000000
       40325000	      4031	8000310c	00401cb3	sll	x25,x0,x4	  x0:0x00000000  x4:0x1283afdc x25=0x00000000
       40335000	      4032	80003110	017787b3	add	x15,x15,x23	 x15:0x00000000 x23:0x80009f24 x15=0x80009f24
       40345000	      4033	80003114	a523c713	xori	x14,x7,-1454	  x7:0x1f4d1008 x14=0xe0b2ea5a
       40355000	      4034	80003118	01c99a33	sll	x20,x19,x28	 x19:0xffffff96 x28:0x00000000 x20=0xffffff96
       40365000	      4035	8000311c	0002e433	or	x8,x5,x0	  x5:0xfffff800  x0:0x00000000  x8=0xfffff800
       40375000	      4036	80003120	018e0fb3	add	x31,x28,x24	 x28:0x00000000 x24:0x00000000 x31=0x00000000
       40385000	      4037	80003124	01e05263	bge	x0,x30,80003128	  x0:0x00000000 x30:0xfafa7574
       40395000	      4038	00000000	00000013	addi	x0,x0,0	  x0:0x00000000
       40405000	      4039	80003124	00000013	addi	x0,x0,0	  x0:0x00000000
       40415000	      4040	80003128	c7ce3e13	sltiu	x28,x28,-900	 x28:0x00000000 x28=0x00000001
       40425000	      4041	8000312c	dc659db7	lui	x27,0xdc659	 x27=0xdc659000
       40435000	      4042	80003130	0c010193	addi	x3,x2,192	  x2:0x05058c6a  x3=0x05058d2a
       40445000	      4043	80003134	05a80863	beq	x16,x26,80003184	 x16:0x00000000 x26:0x00000000
       40455000	      4044	00000000	00000013	addi	x0,x0,0	  x0:0x00000000
       40465000	      4045	80003180	00000013	addi	x0,x0,0	  x0:0x00000000
       40475000	      4046	80003184	43713917	auipc	x18,0x43713	 x18=0xc3716180
       40485000	      4047	80003188	01fddf33	srl	x30,x27,x31	 x27:0xdc659000 x31:0x00000000 x30=0xdc659000
       40495000	      4048	8000318c	01550bb3	add	x23,x10,x21	 x10:0x80009f24 x21:0x00000000 x23=0x80009f24
       40505000	      4049	80003190	00000013	addi	x0,x0,0	  x0:0x00000000
       40515000	      4050	80003194	00ffab33	slt	x22,x31,x15	 x31:0x00000000 x15:0x80009f24 x22=0x00000000
       40525000	      4051	80003198	244a3f13	sltiu	x30,x20,580	 x20:0xffffff96 x30=0x00000000
       40535000	      4052	8000319c	5530e093	ori	x1,x1,1363	  x1:0x00000000  x1=0x00000553
       40545000	      4053	800031a0	013bb3b3	sltu	x7,x23,x19	 x23:0x80009f24 x19:0xffffff96  x7=0x00000001
       40555000	      4054	800031a4	02f78a63	beq	x15,x15,800031d8	 x15:0x80009f24 x15:0x80009f24
       40565000	      4055	00000000	00000013	addi	x0,x0,0	  x0:0x00000000
       40575000	      4056	800031d4	00000013	addi	x0,x0,0	  x0:0x00000000
       40585000	      4057	800031d8	ceadaf93	slti	x31,x27,-790	 x27:0xdc659000 x31=0x00000001
       40595000	      4058	800031dc	416a5b93	srai	x23,x20,0x16	 x20:0xffffff96 x23=0xffffffff
       40605000	      4059	800031e0	014470b3	and	x1,x8,x20	  x8:0xfffff800 x20:0xffffff96  x1=0xfffff800
       40615000	      4060	800031e4	01302eb3	slt	x29,x0,x19	  x0:0x00000000 x19:0xffffff96 x29=0x00000000
       40625000	      4061	800031e8	01fc22b3	slt	x5,x24,x31	 x24:0x00000000 x31:0x00000001  x5=0x00000001
       40635000	      4062	800031ec	013a8463	beq	x21,x19,800031f4	 x21:0x00000000 x19:0xffffff96
       40645000	      4063	800031f0	b16abb93	sltiu	x23,x21,-1258	 x21:0x00000000 x23=0x00000001
       40655000	      4064	800031f4	01d747b3	xor	x15,x14,x29	 x14:0xe0b2ea5a x29:0x00000000 x15=0xe0b2ea5a
       40665000	      4065	800031f8	2b2aea93	ori	x21,x21,690	 x21:0x00000000 x21=0x000002b2
       40675000	      4066	800031fc	00ba2bb3	slt	x23,x20,x11	 x20:0xffffff96 x11:0x00000000 x23=0x00000001
       40685000	      4067	80003200	00ef9713	slli	x14,x31,0xe	 x31:0x00000001 x14=0x00004000
       40695000	      4068	80003204	03ae1063	bne	x28,x26,80003224	 x28:0x00000001 x26:0x00000000
       40705000	      4069	00000000	00000013	addi	x0,x0,0	  x0:0x00000000
       40715000	      4070	80003220	00000013	addi	x0,x0,0	  x0:0x00000000
       40725000	      4071	80003224	01b59113	slli	x2,x11,0x1b	 x11:0x00000000  x2=0x00000000
       40735000	      4072	80003228	01f6cb33	xor	x22,x13,x31	 x13:0x3e6eded7 x31:0x00000001 x22=0x3e6eded6
       40745000	      4073	8000322c	f26ff097	auipc	x1,0xf26ff	  x1=0x72702228
       40755000	      4074	80003230	cbd13213	sltiu	x4,x2,-835	  x2:0x00000000  x4=0x00000001
       40765000	      4075	80003234	030a8463	beq	x21,x16,8000325c	 x21:0x000002b2 x16:0x00000000
       40775000	      4076	80003238	00000013	addi	x0,x0,0	  x0:0x00000000
       40785000	      4077	8000323c	00000013	addi	x0,x0,0	  x0:0x00000000
       40795000	      4078	80003240	023b6e63	bltu	x22,x3,8000327c	 x22:0x3e6eded6  x3:0x05058d2a
       40805000	      4079	80003244	00702433	slt	x8,x0,x7	  x0:0x00000000  x7:0x00000001  x8=0x00000001
       40815000	      4080	80003248	409d0633	sub	x12,x26,x9	 x26:0x00000000  x9:0x00000000 x12=0x00000000
       40825000	      4081	8000324c	13873013	sltiu	x0,x14,312	 x14:0x00004000
       40835000	      4082	80003250	01f484b3	add	x9,x9,x31	  x9:0x00000000 x31:0x00000001  x9=0x00000001
       40845000	      4083	80003254	40118033	sub	x0,x3,x1	  x3:0x05058d2a  x1:0x72702228
       40855000	      4084	80003258	453ee293	ori	x5,x29,1107	 x29:0x00000000  x5=0x00000453
       40865000	      4085	8000325c	003a0e63	beq	x20,x3,80003278	 x20:0xffffff96  x3:0x05058d2a
       40875000	      4086	80003260	40bbd093	srai	x1,x23,0xb	 x23:0x00000001  x1=0x00000000
       40885000	      4087	80003264	00bd32b3	sltu	x5,x26,x11	 x26:0x00000000 x11:0x00000000  x5=0x00000000
       40895000	      4088	80003268	322ca293	slti	x5,x25,802	 x25:0x00000000  x5=0x00000001
       40905000	      4089	8000326c	ac7bb793	sltiu	x15,x23,-1337	 x23:0x00000001 x15=0x00000001
       40915000	      4090	80003270	015a35b3	sltu	x11,x20,x21	 x20:0xffffff96 x21:0x000002b2 x11=0x00000000
       40925000	      4091	80003274	40b50ab3	sub	x21,x10,x11	 x10:0x80009f24 x11:0x00000000 x21=0x80009f24
       40935000	      4092	80003278	05b54463	blt	x10,x27,800032c0	 x10:0x80009f24 x27:0xdc659000
       40945000	      4093	00000000	00000013	addi	x0,x0,0	  x0:0x00000000
       40955000	      4094	800032bc	00000013	addi	x0,x0,0	  x0:0x00000000
       40965000	      4095	800032c0	00b10233	add	x4,x2,x11	  x2:0x00000000 x11:0x00000000  x4=0x00000000
       40975000	      4096	800032c4	02bb1c63	bne	x22,x11,800032fc	 x22:0x3e6eded6 x11:0x00000000
       40985000	      4097	00000000	00000013	addi	x0,x0,0	  x0:0x00000000
       40995000	      4098	800032f8	00000013	addi	x0,x0,0	  x0:0x00000000
       41005000	      4099	800032fc	02556463	bltu	x10,x5,80003324	 x10:0x80009f24  x5:0x00000001
       41015000	      4100	80003300	7256c713	xori	x14,x13,1829	 x13:0x3e6eded7 x14=0x3e6ed9f2
       41025000	      4101	80003304	00d0cd33	xor	x26,x1,x13	  x1:0x00000000 x13:0x3e6eded7 x26=0x3e6eded7
       41035000	      4102	80003308	00b5dc63	bge	x11,x11,80003320	 x11:0x00000000 x11:0x00000000
       41045000	      4103	00000000	00000013	addi	x0,x0,0	  x0:0x00000000
       41055000	      4104	8000331c	00000013	addi	x0,x0,0	  x0:0x00000000
       41065000	      4105	80003320	40a78f33	sub	x30,x15,x10	 x15:0x00000001 x10:0x80009f24 x30=0x7fff60dd
       41075000	      4106	80003324	20a1b413	sltiu	x8,x3,522	  x3:0x05058d2a  x8=0x00000000
       41085000	      4107	80003328	01259c63	bne	x11,x18,80003340	 x11:0x00000000 x18:0xc3716180
       41095000	      4108	00000000	00000013	addi	x0,x0,0	  x0:0x00000000
       41105000	      4109	8000333c	00000013	addi	x0,x0,0	  x0:0x00000000
       41115000	      4110	80003340	00696933	or	x18,x18,x6	 x18:0xc3716180  x6:0x80009fc4 x18=0xc371ffc4
       41125000	      4111	80003344	00c7be33	sltu	x28,x15,x12	 x15:0x00000001 x12:0x00000000 x28=0x00000000
       41135000	      4112	80003348	ac3db913	sltiu	x18,x27,-1341	 x27:0xdc659000 x18=0x00000001
       41145000	      4113	8000334c	010d9fb3	sll	x31,x27,x16	 x27:0xdc659000 x16:0x00000000 x31=0xdc659000
       41155000	      4114	80003350	00b81fb3	sll	x31,x16,x11	 x16:0x00000000 x11:0x00000000 x31=0x00000000
       41165000	      4115	80003354	03934a63	blt	x6,x25,80003388	  x6:0x80009fc4 x25:0x00000000
       41175000	      4116	00000000	00000013	addi	x0,x0,0	  x0:0x00000000
       41185000	      4117	80003384	00000013	addi	x0,x0,0	  x0:0x00000000
       41195000	      4118	80003388	5acb8793	addi	x15,x23,1452	 x23:0x00000001 x15=0x000005ad
       41205000	      4119	8000338c	00800d6f	jal	x26,8000338c	 x26=0x8000338c
       41215000	      4120	00000000	00000013	addi	x0,x0,0	  x0:0x00000000
       41225000	      4121	80003390	00000013	addi	x0,x0,0	  x0:0x00000000
       41235000	      4122	80003394	024000ef	jal	x1,80003394	  x1=0x80003394
       41245000	      4123	00000000	00000013	addi	x0,x0,0	  x0:0x00000000
       41255000	      4124	800033b4	00000013	addi	x0,x0,0	  x0:0x00000000
       41265000	      4125	800033b8	0040016f	jal	x2,800033b8	  x2=0x800033b8
       41275000	      4126	00000000	00000013	addi	x0,x0,0	  x0:0x00000000
       41285000	      4127	800033b8	00000013	addi	x0,x0,0	  x0:0x00000000
       41295000	      4128	800033bc	ff1ff0ef	jal	x1,800033bc	  x1=0x800033bc
       41305000	      4129	00000000	00000013	addi	x0,x0,0	  x0:0x00000000
       41315000	      4130	800033a8	00000013	addi	x0,x0,0	  x0:0x00000000
       41325000	      4131	800033ac	ff1fff6f	jal	x30,800033ac	 x30=0x800033ac
       41335000	      4132	00000000	00000013	addi	x0,x0,0	  x0:0x00000000
       41345000	      4133	80003398	00000013	addi	x0,x0,0	  x0:0x00000000
       41355000	      4134	8000339c	024000ef	jal	x1,8000339c	  x1=0x8000339c
       41365000	      4135	00000000	00000013	addi	x0,x0,0	  x0:0x00000000
       41375000	      4136	800033bc	00000013	addi	x0,x0,0	  x0:0x00000000
       41385000	      4137	800033c0	fd9ff0ef	jal	x1,800033c0	  x1=0x800033c0
       41395000	      4138	00000000	00000013	addi	x0,x0,0	  x0:0x00000000
       41405000	      4139	80003394	00000013	addi	x0,x0,0	  x0:0x00000000
       41415000	      4140	80003398	010000ef	jal	x1,80003398	  x1=0x80003398
       41425000	      4141	00000000	00000013	addi	x0,x0,0	  x0:0x00000000
       41435000	      4142	800033a4	00000013	addi	x0,x0,0	  x0:0x00000000
       41445000	      4143	800033a8	00c000ef	jal	x1,800033a8	  x1=0x800033a8
       41455000	      4144	00000000	00000013	addi	x0,x0,0	  x0:0x00000000
       41465000	      4145	800033b0	00000013	addi	x0,x0,0	  x0:0x00000000
       41475000	      4146	800033b4	ff1ffa6f	jal	x20,800033b4	 x20=0x800033b4
       41485000	      4147	00000000	00000013	addi	x0,x0,0	  x0:0x00000000
       41495000	      4148	800033a0	00000013	addi	x0,x0,0	  x0:0x00000000
       41505000	      4149	800033a4	ffdff2ef	jal	x5,800033a4	  x5=0x800033a4
       41515000	      4150	00000000	00000013	addi	x0,x0,0	  x0:0x00000000
       41525000	      4151	8000339c	00000013	addi	x0,x0,0	  x0:0x00000000
       41535000	      4152	800033a0	010000ef	jal	x1,800033a0	  x1=0x800033a0
       41545000	      4153	00000000	00000013	addi	x0,x0,0	  x0:0x00000000
       41555000	      4154	800033ac	00000013	addi	x0,x0,0	  x0:0x00000000
       41565000	      4155	800033b0	fe1ff0ef	jal	x1,800033b0	  x1=0x800033b0
       41575000	      4156	00000000	00000013	addi	x0,x0,0	  x0:0x00000000
       41585000	      4157	8000338c	00000013	addi	x0,x0,0	  x0:0x00000000
       41595000	      4158	80003390	034002ef	jal	x5,80003390	  x5=0x80003390
       41605000	      4159	00000000	00000013	addi	x0,x0,0	  x0:0x00000000
       41615000	      4160	800033c0	00000013	addi	x0,x0,0	  x0:0x00000000
       41625000	      4161	800033c4	01427fb3	and	x31,x4,x20	  x4:0x00000000 x20:0x800033b4 x31=0x00000000
       41635000	      4162	800033c8	285e49b7	lui	x19,0x285e4	 x19=0x285e4000
       41645000	      4163	800033cc	00af54b3	srl	x9,x30,x10	 x30:0x800033ac x10:0x80009f24  x9=0x0800033a
       41655000	      4164	800033d0	f463c413	xori	x8,x7,-186	  x7:0x00000001  x8=0xffffff47
       41665000	      4165	800033d4	01610433	add	x8,x2,x22	  x2:0x800033b8 x22:0x3e6eded6  x8=0xbe6f128e
       41675000	      4166	800033d8	00e460b3	or	x1,x8,x14	  x8:0xbe6f128e x14:0x3e6ed9f2  x1=0xbe6fdbfe
       41685000	      4167	800033dc	5ff98e93	addi	x29,x19,1535	 x19:0x285e4000 x29=0x285e45ff
       41695000	      4168	800033e0	019d7263	bgeu	x26,x25,800033e4	 x26:0x8000338c x25:0x00000000
       41705000	      4169	00000000	00000013	addi	x0,x0,0	  x0:0x00000000
       41715000	      4170	800033e0	00000013	addi	x0,x0,0	  x0:0x00000000
       41725000	      4171	800033e4	005e0a63	beq	x28,x5,800033f8	 x28:0x00000000  x5:0x80003390
       41735000	      4172	800033e8	006ad193	srli	x3,x21,0x6	 x21:0x80009f24  x3=0x0200027c
       41745000	      4173	800033ec	010153b3	srl	x7,x2,x16	  x2:0x800033b8 x16:0x00000000  x7=0x800033b8
       41755000	      4174	800033f0	016f9863	bne	x31,x22,80003400	 x31:0x00000000 x22:0x3e6eded6
       41765000	      4175	00000000	00000013	addi	x0,x0,0	  x0:0x00000000
       41775000	      4176	800033fc	00000013	addi	x0,x0,0	  x0:0x00000000
       41785000	      4177	80003400	41475113	srai	x2,x14,0x14	 x14:0x3e6ed9f2  x2=0x000003e6
       41795000	      4178	80003404	00a2cc63	blt	x5,x10,8000341c	  x5:0x80003390 x10:0x80009f24
       41805000	      4179	00000000	00000013	addi	x0,x0,0	  x0:0x00000000
       41815000	      4180	80003418	00000013	addi	x0,x0,0	  x0:0x00000000
       41825000	      4181	8000341c	034b9863	bne	x23,x20,8000344c	 x23:0x00000001 x20:0x800033b4
       41835000	      4182	00000000	00000013	addi	x0,x0,0	  x0:0x00000000
       41845000	      4183	80003448	00000013	addi	x0,x0,0	  x0:0x00000000
       41855000	      4184	8000344c	9e634f13	xori	x30,x6,-1562	  x6:0x80009fc4 x30=0x7fff6622
       41865000	      4185	80003450	2642c993	xori	x19,x5,612	  x5:0x80003390 x19=0x800031f4
       41875000	      4186	80003454	01d0b2b3	sltu	x5,x1,x29	  x1:0xbe6fdbfe x29:0x285e45ff  x5=0x00000000
       41885000	      4187	80003458	001c5863	bge	x24,x1,80003468	 x24:0x00000000  x1:0xbe6fdbfe
       41895000	      4188	00000000	00000013	addi	x0,x0,0	  x0:0x00000000
       41905000	      4189	80003464	00000013	addi	x0,x0,0	  x0:0x00000000
       41915000	      4190	80003468	03bedc63	bge	x29,x27,800034a0	 x29:0x285e45ff x27:0xdc659000
       41925000	      4191	00000000	00000013	addi	x0,x0,0	  x0:0x00000000
       41935000	      4192	8000349c	00000013	addi	x0,x0,0	  x0:0x00000000
       41945000	      4193	800034a0	014e94b3	sll	x9,x29,x20	 x29:0x285e45ff x20:0x800033b4  x9=0x5ff00000
       41955000	      4194	800034a4	005d6cb3	or	x25,x26,x5	 x26:0x8000338c  x5:0x00000000 x25=0x8000338c
       41965000	      4195	800034a8	532be193	ori	x3,x23,1330	 x23:0x00000001  x3=0x00000533
       41975000	      4196	800034ac	011d5b93	srli	x23,x26,0x11	 x26:0x8000338c x23=0x00004000
       41985000	      4197	800034b0	09ed1063	bne	x26,x30,80003530	 x26:0x8000338c x30:0x7fff6622
       41995000	      4198	00000000	00000013	addi	x0,x0,0	  x0:0x00000000
       42005000	      4199	8000352c	00000013	addi	x0,x0,0	  x0:0x00000000
       42015000	      4200	80003530	4f4dcd93	xori	x27,x27,1268	 x27:0xdc659000 x27=0xdc6594f4
       42025000	      4201	80003534	3d638193	addi	x3,x7,982	  x7:0x800033b8  x3=0x8000378e
       42035000	      4202	80003538	00eac433	xor	x8,x21,x14	 x21:0x80009f24 x14:0x3e6ed9f2  x8=0xbe6e46d6
       42045000	      4203	8000353c	85ff8e13	addi	x28,x31,-1953	 x31:0x00000000 x28=0xfffff85f
       42055000	      4204	80003540	50c17113	andi	x2,x2,1292	  x2:0x000003e6  x2=0x00000104
       42065000	      4205	80003544	c4df3f13	sltiu	x30,x30,-947	 x30:0x7fff6622 x30=0x00000001
       42075000	      4206	80003548	4092d2b3	sra	x5,x5,x9	  x5:0x00000000  x9:0x5ff00000  x5=0x00000000
       42085000	      4207	8000354c	449e6e13	ori	x28,x28,1097	 x28:0xfffff85f x28=0xfffffc5f
       42095000	      4208	80003550	7707f393	andi	x7,x15,1904	 x15:0x000005ad  x7=0x00000520
       42105000	      4209	80003554	01fe1393	slli	x7,x28,0x1f	 x28:0xfffffc5f  x7=0x80000000
       42115000	      4210	80003558	0295f063	bgeu	x11,x9,80003578	 x11:0x00000000  x9:0x5ff00000
       42125000	      4211	8000355c	009e8d33	add	x26,x29,x9	 x29:0x285e45ff  x9:0x5ff00000 x26=0x884e45ff
       42135000	      4212	80003560	0035e0b3	or	x1,x11,x3	 x11:0x00000000  x3:0x8000378e  x1=0x8000378e
       42145000	      4213	80003564	04451063	bne	x10,x4,800035a4	 x10:0x80009f24  x4:0x00000000
       42155000	      4214	00000000	00000013	addi	x0,x0,0	  x0:0x00000000
       42165000	      4215	800035a0	00000013	addi	x0,x0,0	  x0:0x00000000
       42175000	      4216	800035a4	5ac3a093	slti	x1,x7,1452	  x7:0x80000000  x1=0x00000001
       42185000	      4217	800035a8	4131dc93	srai	x25,x3,0x13	  x3:0x8000378e x25=0xfffff000
       42195000	      4218	800035ac	4035da33	sra	x20,x11,x3	 x11:0x00000000  x3:0x8000378e x20=0x00000000
       42205000	      4219	800035b0	2f5c4617	auipc	x12,0x2f5c4	 x12=0xaf5c75ac
       42215000	      4220	800035b4	f4b87893	andi	x17,x16,-181	 x16:0x00000000 x17=0x00000000
       42225000	      4221	800035b8	004fcc63	blt	x31,x4,800035d0	 x31:0x00000000  x4:0x00000000
       42235000	      4222	800035bc	01c86863	bltu	x16,x28,800035cc	 x16:0x00000000 x28:0xfffffc5f
       42245000	      4223	00000000	00000013	addi	x0,x0,0	  x0:0x00000000
       42255000	      4224	800035c8	00000013	addi	x0,x0,0	  x0:0x00000000
       42265000	      4225	800035cc	01c650b3	srl	x1,x12,x28	 x12:0xaf5c75ac x28:0xfffffc5f  x1=0x00000001
       42275000	      4226	800035d0	41370033	sub	x0,x14,x19	 x14:0x3e6ed9f2 x19:0x800031f4
       42285000	      4227	800035d4	41845893	srai	x17,x8,0x18	  x8:0xbe6e46d6 x17=0xffffffbe
       42295000	      4228	800035d8	01abda93	srli	x21,x23,0x1a	 x23:0x00004000 x21=0x00000000
       42305000	      4229	800035dc	8bb10c13	addi	x24,x2,-1861	  x2:0x00000104 x24=0xfffff9bf
       42315000	      4230	800035e0	40f25893	srai	x17,x4,0xf	  x4:0x00000000 x17=0x00000000
       42325000	      4231	800035e4	f1036893	ori	x17,x6,-240	  x6:0x80009fc4 x17=0xffffffd4
       42335000	      4232	800035e8	48794037	lui	x0,0x48794	
       42345000	      4233	800035ec	00b0da63	bge	x1,x11,80003600	  x1:0x00000001 x11:0x00000000
       42355000	      4234	00000000	00000013	addi	x0,x0,0	  x0:0x00000000
       42365000	      4235	800035fc	00000013	addi	x0,x0,0	  x0:0x00000000
       42375000	      4236	80003600	0007c733	xor	x14,x15,x0	 x15:0x000005ad  x0:0x00000000 x14=0x000005ad
       42385000	      4237	80003604	00c7aeb3	slt	x29,x15,x12	 x15:0x000005ad x12:0xaf5c75ac x29=0x00000000
       42395000	      4238	80003608	00a38863	beq	x7,x10,80003618	  x7:0x80000000 x10:0x80009f24
       42405000	      4239	8000360c	01fcb9b3	sltu	x19,x25,x31	 x25:0xfffff000 x31:0x00000000 x19=0x00000000
       42415000	      4240	80003610	f7d27a17	auipc	x20,0xf7d27	 x20=0x77d2a60c
       42425000	      4241	80003614	4196dd93	srai	x27,x13,0x19	 x13:0x3e6eded7 x27=0x0000001f
       42435000	      4242	80003618	00a16c63	bltu	x2,x10,80003630	  x2:0x00000104 x10:0x80009f24
       42445000	      4243	00000000	00000013	addi	x0,x0,0	  x0:0x00000000
       42455000	      4244	8000362c	00000013	addi	x0,x0,0	  x0:0x00000000
       42465000	      4245	80003630	00435e63	bge	x6,x4,8000364c	  x6:0x80009fc4  x4:0x00000000
       42475000	      4246	80003634	013e7b33	and	x22,x28,x19	 x28:0xfffffc5f x19:0x00000000 x22=0x00000000
       42485000	      4247	80003638	056ec663	blt	x29,x22,80003684	 x29:0x00000000 x22:0x00000000
       42495000	      4248	8000363c	0519c663	blt	x19,x17,80003688	 x19:0x00000000 x17:0xffffffd4
       42505000	      4249	80003640	1cd42193	slti	x3,x8,461	  x8:0xbe6e46d6  x3=0x00000001
       42515000	      4250	80003644	01077c63	bgeu	x14,x16,8000365c	 x14:0x000005ad x16:0x00000000
       42525000	      4251	00000000	00000013	addi	x0,x0,0	  x0:0x00000000
       42535000	      4252	80003658	00000013	addi	x0,x0,0	  x0:0x00000000
       42545000	      4253	8000365c	01ea6463	bltu	x20,x30,80003664	 x20:0x77d2a60c x30:0x00000001
       42555000	      4254	80003660	0176e933	or	x18,x13,x23	 x13:0x3e6eded7 x23:0x00004000 x18=0x3e6eded7
       42565000	      4255	80003664	fbc70193	addi	x3,x14,-68	 x14:0x000005ad  x3=0x00000569
       42575000	      4256	80003668	00000013	addi	x0,x0,0	  x0:0x00000000
       42585000	      4257	8000366c	02f94063	blt	x18,x15,8000368c	 x18:0x3e6eded7 x15:0x000005ad
       42595000	      4258	80003670	0147e263	bltu	x15,x20,80003674	 x15:0x000005ad x20:0x77d2a60c
       42605000	      4259	00000000	00000013	addi	x0,x0,0	  x0:0x00000000
       42615000	      4260	80003670	00000013	addi	x0,x0,0	  x0:0x00000000
       42625000	      4261	80003674	01f567b3	or	x15,x10,x31	 x10:0x80009f24 x31:0x00000000 x15=0x80009f24
       42635000	      4262	80003678	412a8733	sub	x14,x21,x18	 x21:0x00000000 x18:0x3e6eded7 x14=0xc1912129
       42645000	      4263	8000367c	011d1593	slli	x11,x26,0x11	 x26:0x884e45ff x11=0x8bfe0000
       42655000	      4264	80003680	01bbac33	slt	x24,x23,x27	 x23:0x00004000 x27:0x0000001f x24=0x00000000
       42665000	      4265	80003684	0119cc63	blt	x19,x17,8000369c	 x19:0x00000000 x17:0xffffffd4
       42675000	      4266	80003688	98f4cd13	xori	x26,x9,-1649	  x9:0x5ff00000 x26=0xa00ff98f
       42685000	      4267	8000368c	41cfd093	srai	x1,x31,0x1c	 x31:0x00000000  x1=0x00000000
       42695000	      4268	80003690	003fb4b3	sltu	x9,x31,x3	 x31:0x00000000  x3:0x00000569  x9=0x00000001
       42705000	      4269	80003694	fc25a193	slti	x3,x11,-62	 x11:0x8bfe0000  x3=0x00000001
       42715000	      4270	80003698	0134dc33	srl	x24,x9,x19	  x9:0x00000001 x19:0x00000000 x24=0x00000001
       42725000	      4271	8000369c	f949bc93	sltiu	x25,x19,-108	 x19:0x00000000 x25=0x00000001
       42735000	      4272	800036a0	016b1d33	sll	x26,x22,x22	 x22:0x00000000 x22:0x00000000 x26=0x00000000
       42745000	      4273	800036a4	01704b93	xori	x23,x0,23	  x0:0x00000000 x23=0x00000017
       42755000	      4274	800036a8	63b66493	ori	x9,x12,1595	 x12:0xaf5c75ac  x9=0xaf5c77bf
       42765000	      4275	800036ac	001e5eb3	srl	x29,x28,x1	 x28:0xfffffc5f  x1:0x00000000 x29=0xfffffc5f
       42775000	      4276	800036b0	002dc3b3	xor	x7,x27,x2	 x27:0x0000001f  x2:0x00000104  x7=0x0000011b
       42785000	      4277	800036b4	01dd4f33	xor	x30,x26,x29	 x26:0x00000000 x29:0xfffffc5f x30=0xfffffc5f
       42795000	      4278	800036b8	00e933b3	sltu	x7,x18,x14	 x18:0x3e6eded7 x14:0xc1912129  x7=0x00000001
       42805000	      4279	800036bc	05178863	beq	x15,x17,8000370c	 x15:0x80009f24 x17:0xffffffd4
       42815000	      4280	800036c0	000b2433	slt	x8,x22,x0	 x22:0x00000000  x0:0x00000000  x8=0x00000000
       42825000	      4281	800036c4	40910cb3	sub	x25,x2,x9	  x2:0x00000104  x9:0xaf5c77bf x25=0x50a38945
       42835000	      4282	800036c8	00a2df33	srl	x30,x5,x10	  x5:0x00000000 x10:0x80009f24 x30=0x00000000
       42845000	      4283	800036cc	01c31d33	sll	x26,x6,x28	  x6:0x80009fc4 x28:0xfffffc5f x26=0x00000000
       42855000	      4284	800036d0	0014b833	sltu	x16,x9,x1	  x9:0xaf5c77bf  x1:0x00000000 x16=0x00000000
       42865000	      4285	800036d4	b605a493	slti	x9,x11,-1184	 x11:0x8bfe0000  x9=0x00000001
       42875000	      4286	800036d8	93627993	andi	x19,x4,-1738	  x4:0x00000000 x19=0x00000000
       42885000	      4287	800036dc	01abe3b3	or	x7,x23,x26	 x23:0x00000017 x26:0x00000000  x7=0x00000017
       42895000	      4288	800036e0	dc46a817	auipc	x16,0xdc46a	 x16=0x5c46d6dc
       42905000	      4289	800036e4	00e6b5b3	sltu	x11,x13,x14	 x13:0x3e6eded7 x14:0xc1912129 x11=0x00000001
       42915000	      4290	800036e8	f4590393	addi	x7,x18,-187	 x18:0x3e6eded7  x7=0x3e6ede1c
       42925000	      4291	800036ec	01f769b3	or	x19,x14,x31	 x14:0xc1912129 x31:0x00000000 x19=0xc1912129
       42935000	      4292	800036f0	000ef9b3	and	x19,x29,x0	 x29:0xfffffc5f  x0:0x00000000 x19=0x00000000
       42945000	      4293	800036f4	83e58b93	addi	x23,x11,-1986	 x11:0x00000001 x23=0xfffff83f
       42955000	      4294	800036f8	013b5613	srli	x12,x22,0x13	 x22:0x00000000 x12=0x00000000
       42965000	      4295	800036fc	006a9b13	slli	x22,x21,0x6	 x21:0x00000000 x22=0x00000000
       42975000	      4296	80003700	00771433	sll	x8,x14,x7	 x14:0xc1912129  x7:0x3e6ede1c  x8=0x90000000
       42985000	      4297	80003704	7b27f713	andi	x14,x15,1970	 x15:0x80009f24 x14=0x00000720
       42995000	      4298	80003708	37eb3a93	sltiu	x21,x22,894	 x22:0x00000000 x21=0x00000001
       43005000	      4299	8000370c	fa783013	sltiu	x0,x16,-89	 x16:0x5c46d6dc
       43015000	      4300	80003710	00000013	addi	x0,x0,0	  x0:0x00000000
       43025000	      4301	80003714	fcdd7713	andi	x14,x26,-51	 x26:0x00000000 x14=0x00000000
       43035000	      4302	80003718	9dec2637	lui	x12,0x9dec2	 x12=0x9dec2000
       43045000	      4303	8000371c	01d61d33	sll	x26,x12,x29	 x12:0x9dec2000 x29:0xfffffc5f x26=0x00000000
       43055000	      4304	80003720	a5987f17	auipc	x30,0xa5987	 x30=0x2598a71c
       43065000	      4305	80003724	00a188b3	add	x17,x3,x10	  x3:0x00000001 x10:0x80009f24 x17=0x80009f25
       43075000	      4306	80003728	01f05c93	srli	x25,x0,0x1f	  x0:0x00000000 x25=0x00000000
       43085000	      4307	8000372c	40250233	sub	x4,x10,x2	 x10:0x80009f24  x2:0x00000104  x4=0x80009e20
       43095000	      4308	80003730	f6a22c93	slti	x25,x4,-150	  x4:0x80009e20 x25=0x00000001
       43105000	      4309	80003734	41520033	sub	x0,x4,x21	  x4:0x80009e20 x21:0x00000001
       43115000	      4310	80003738	822c6013	ori	x0,x24,-2014	 x24:0x00000001
       43125000	      4311	8000373c	003f1db3	sll	x27,x30,x3	 x30:0x2598a71c  x3:0x00000001 x27=0x4b314e38
       43135000	      4312	80003740	007c5933	srl	x18,x24,x7	 x24:0x00000001  x7:0x3e6ede1c x18=0x00000000
       43145000	      4313	80003744	0090a933	slt	x18,x1,x9	  x1:0x00000000  x9:0x00000001 x18=0x00000001
       43155000	      4314	80003748	e5768793	addi	x15,x13,-425	 x13:0x3e6eded7 x15=0x3e6edd2e
       43165000	      4315	8000374c	00724c63	blt	x4,x7,80003764	  x4:0x80009e20  x7:0x3e6ede1c
       43175000	      4316	00000000	00000013	addi	x0,x0,0	  x0:0x00000000
       43185000	      4317	80003760	00000013	addi	x0,x0,0	  x0:0x00000000
       43195000	      4318	80003764	0012eb33	or	x22,x5,x1	  x5:0x00000000  x1:0x00000000 x22=0x00000000
       43205000	      4319	80003768	005097b3	sll	x15,x1,x5	  x1:0x00000000  x5:0x00000000 x15=0x00000000
       43215000	      4320	8000376c	00000013	addi	x0,x0,0	  x0:0x00000000
       43225000	      4321	80003770	00802133	slt	x2,x0,x8	  x0:0x00000000  x8:0x90000000  x2=0x00000000
       43235000	      4322	80003774	0104b133	sltu	x2,x9,x16	  x9:0x00000001 x16:0x5c46d6dc  x2=0x00000001
       43245000	      4323	80003778	76bacd93	xori	x27,x21,1899	 x21:0x00000001 x27=0x0000076a
       43255000	      4324	8000377c	b0890593	addi	x11,x18,-1272	 x18:0x00000001 x11=0xfffffb09
       43265000	      4325	80003780	adf5b093	sltiu	x1,x11,-1313	 x11:0xfffffb09  x1=0x00000000
       43275000	      4326	80003784	01629193	slli	x3,x5,0x16	  x5:0x00000000  x3=0x00000000
       43285000	      4327	80003788	05a44263	blt	x8,x26,800037cc	  x8:0x90000000 x26:0x00000000
       43295000	      4328	00000000	00000013	addi	x0,x0,0	  x0:0x00000000
       43305000	      4329	800037c8	00000013	addi	x0,x0,0	  x0:0x00000000
       43315000	      4330	800037cc	1fc6c613	xori	x12,x13,508	 x13:0x3e6eded7 x12=0x3e6edf2b
       43325000	      4331	800037d0	60442913	slti	x18,x8,1540	  x8:0x90000000 x18=0x00000001
       43335000	      4332	800037d4	00911593	slli	x11,x2,0x9	  x2:0x00000001 x11=0x00000200
       43345000	      4333	800037d8	ee404d13	xori	x26,x0,-284	  x0:0x00000000 x26=0xfffffee4
       43355000	      4334	800037dc	0248fe63	bgeu	x17,x4,80003818	 x17:0x80009f25  x4:0x80009e20
       43365000	      4335	00000000	00000013	addi	x0,x0,0	  x0:0x00000000
       43375000	      4336	80003814	00000013	addi	x0,x0,0	  x0:0x00000000
       43385000	      4337	80003818	09f36237	lui	x4,0x9f36	  x4=0x09f36000
       43395000	      4338	8000381c	0062dc63	bge	x5,x6,80003834	  x5:0x00000000  x6:0x80009fc4
       43405000	      4339	00000000	00000013	addi	x0,x0,0	  x0:0x00000000
       43415000	      4340	80003830	00000013	addi	x0,x0,0	  x0:0x00000000
       43425000	      4341	80003834	04b0f463	bgeu	x1,x11,8000387c	  x1:0x00000000 x11:0x00000200
       43435000	      4342	80003838	81a94197	auipc	x3,0x81a94	  x3=0x01a97834
       43445000	      4343	8000383c	009457b3	srl	x15,x8,x9	  x8:0x90000000  x9:0x00000001 x15=0x48000000
       43455000	      4344	80003840	00ba42b3	xor	x5,x20,x11	 x20:0x77d2a60c x11:0x00000200  x5=0x77d2a40c
       43465000	      4345	80003844	015f1e63	bne	x30,x21,80003860	 x30:0x2598a71c x21:0x00000001
       43475000	      4346	00000000	00000013	addi	x0,x0,0	  x0:0x00000000
       43485000	      4347	8000385c	00000013	addi	x0,x0,0	  x0:0x00000000
       43495000	      4348	80003860	a8686c93	ori	x25,x16,-1402	 x16:0x5c46d6dc x25=0xfffffede
       43505000	      4349	80003864	927de217	auipc	x4,0x927de	  x4=0x127e1860
       43515000	      4350	80003868	002ad213	srli	x4,x21,0x2	 x21:0x00000001  x4=0x00000000
       43525000	      4351	8000386c	01afe1b3	or	x3,x31,x26	 x31:0x00000000 x26:0xfffffee4  x3=0xfffffee4
       43535000	      4352	80003870	0014c633	xor	x12,x9,x1	  x9:0x00000001  x1:0x00000000 x12=0x00000001
       43545000	      4353	80003874	02929263	bne	x5,x9,80003898	  x5:0x77d2a40c  x9:0x00000001
       43555000	      4354	00000000	00000013	addi	x0,x0,0	  x0:0x00000000
       43565000	      4355	80003894	00000013	addi	x0,x0,0	  x0:0x00000000
       43575000	      4356	80003898	01548bb3	add	x23,x9,x21	  x9:0x00000001 x21:0x00000001 x23=0x00000002
       43585000	      4357	8000389c	036b1e63	bne	x22,x22,800038d8	 x22:0x00000000 x22:0x00000000
       43595000	      4358	800038a0	dc613c93	sltiu	x25,x2,-570	  x2:0x00000001 x25=0x00000001
       43605000	      4359	800038a4	00aad863	bge	x21,x10,800038b4	 x21:0x00000001 x10:0x80009f24
       43615000	      4360	00000000	00000013	addi	x0,x0,0	  x0:0x00000000
       43625000	      4361	800038b0	00000013	addi	x0,x0,0	  x0:0x00000000
       43635000	      4362	800038b4	01795593	srli	x11,x18,0x17	 x18:0x00000001 x11=0x00000000
       43645000	      4363	800038b8	41130433	sub	x8,x6,x17	  x6:0x80009fc4 x17:0x80009f25  x8=0x0000009f
       43655000	      4364	800038bc	7cfc9837	lui	x16,0x7cfc9	 x16=0x7cfc9000
       43665000	      4365	800038c0	c6c1f393	andi	x7,x3,-916	  x3:0xfffffee4  x7=0xfffffc64
       43675000	      4366	800038c4	045cc663	blt	x25,x5,80003910	 x25:0x00000001  x5:0x77d2a40c
       43685000	      4367	00000000	00000013	addi	x0,x0,0	  x0:0x00000000
       43695000	      4368	8000390c	00000013	addi	x0,x0,0	  x0:0x00000000
       43705000	      4369	80003910	77280c13	addi	x24,x16,1906	 x16:0x7cfc9000 x24=0x7cfc9772
       43715000	      4370	80003914	09d08063	beq	x1,x29,80003994	  x1:0x00000000 x29:0xfffffc5f
       43725000	      4371	80003918	007cd113	srli	x2,x25,0x7	 x25:0x00000001  x2=0x00000000
       43735000	      4372	8000391c	09d64e63	blt	x12,x29,800039b8	 x12:0x00000001 x29:0xfffffc5f
       43745000	      4373	80003920	891dea93	ori	x21,x27,-1903	 x27:0x0000076a x21=0xfffffffb
       43755000	      4374	80003924	41055033	sra	x0,x10,x16	 x10:0x80009f24 x16:0x7cfc9000
       43765000	      4375	80003928	006999b3	sll	x19,x19,x6	 x19:0x00000000  x6:0x80009fc4 x19=0x00000000
       43775000	      4376	8000392c	001adcb3	srl	x25,x21,x1	 x21:0xfffffffb  x1:0x00000000 x25=0xfffffffb
       43785000	      4377	80003930	01800d6f	jal	x26,80003930	 x26=0x80003930
       43795000	      4378	00000000	00000013	addi	x0,x0,0	  x0:0x00000000
       43805000	      4379	80003944	00000013	addi	x0,x0,0	  x0:0x00000000
       43815000	      4380	80003948	03c000ef	jal	x1,80003948	  x1=0x80003948
       43825000	      4381	00000000	00000013	addi	x0,x0,0	  x0:0x00000000
       43835000	      4382	80003980	00000013	addi	x0,x0,0	  x0:0x00000000
       43845000	      4383	80003984	fe1ff0ef	jal	x1,80003984	  x1=0x80003984
       43855000	      4384	00000000	00000013	addi	x0,x0,0	  x0:0x00000000
       43865000	      4385	80003960	00000013	addi	x0,x0,0	  x0:0x00000000
       43875000	      4386	80003964	ff9ffd6f	jal	x26,80003964	 x26=0x80003964
       43885000	      4387	00000000	00000013	addi	x0,x0,0	  x0:0x00000000
       43895000	      4388	80003958	00000013	addi	x0,x0,0	  x0:0x00000000
       43905000	      4389	8000395c	fe5ff0ef	jal	x1,8000395c	  x1=0x8000395c
       43915000	      4390	00000000	00000013	addi	x0,x0,0	  x0:0x00000000
       43925000	      4391	8000393c	00000013	addi	x0,x0,0	  x0:0x00000000
       43935000	      4392	80003940	034000ef	jal	x1,80003940	  x1=0x80003940
       43945000	      4393	00000000	00000013	addi	x0,x0,0	  x0:0x00000000
       43955000	      4394	80003970	00000013	addi	x0,x0,0	  x0:0x00000000
       43965000	      4395	80003974	ffdff0ef	jal	x1,80003974	  x1=0x80003974
       43975000	      4396	00000000	00000013	addi	x0,x0,0	  x0:0x00000000
       43985000	      4397	8000396c	00000013	addi	x0,x0,0	  x0:0x00000000
       43995000	      4398	80003970	fc5ffa6f	jal	x20,80003970	 x20=0x80003970
       44005000	      4399	00000000	00000013	addi	x0,x0,0	  x0:0x00000000
       44015000	      4400	80003930	00000013	addi	x0,x0,0	  x0:0x00000000
       44025000	      4401	80003934	038000ef	jal	x1,80003934	  x1=0x80003934
       44035000	      4402	00000000	00000013	addi	x0,x0,0	  x0:0x00000000
       44045000	      4403	80003968	00000013	addi	x0,x0,0	  x0:0x00000000
       44055000	      4404	8000396c	fd1ff0ef	jal	x1,8000396c	  x1=0x8000396c
       44065000	      4405	00000000	00000013	addi	x0,x0,0	  x0:0x00000000
       44075000	      4406	80003938	00000013	addi	x0,x0,0	  x0:0x00000000
       44085000	      4407	8000393c	018000ef	jal	x1,8000393c	  x1=0x8000393c
       44095000	      4408	00000000	00000013	addi	x0,x0,0	  x0:0x00000000
       44105000	      4409	80003950	00000013	addi	x0,x0,0	  x0:0x00000000
       44115000	      4410	80003954	014000ef	jal	x1,80003954	  x1=0x80003954
       44125000	      4411	00000000	00000013	addi	x0,x0,0	  x0:0x00000000
       44135000	      4412	80003964	00000013	addi	x0,x0,0	  x0:0x00000000
       44145000	      4413	80003968	018005ef	jal	x11,80003968	 x11=0x80003968
       44155000	      4414	00000000	00000013	addi	x0,x0,0	  x0:0x00000000
       44165000	      4415	8000397c	00000013	addi	x0,x0,0	  x0:0x00000000
       44175000	      4416	80003980	fd9ff0ef	jal	x1,80003980	  x1=0x80003980
       44185000	      4417	00000000	00000013	addi	x0,x0,0	  x0:0x00000000
       44195000	      4418	80003954	00000013	addi	x0,x0,0	  x0:0x00000000
       44205000	      4419	80003958	ff5ff9ef	jal	x19,80003958	 x19=0x80003958
       44215000	      4420	00000000	00000013	addi	x0,x0,0	  x0:0x00000000
       44225000	      4421	80003948	00000013	addi	x0,x0,0	  x0:0x00000000
       44235000	      4422	8000394c	004000ef	jal	x1,8000394c	  x1=0x8000394c
       44245000	      4423	00000000	00000013	addi	x0,x0,0	  x0:0x00000000
       44255000	      4424	8000394c	00000013	addi	x0,x0,0	  x0:0x00000000
       44265000	      4425	80003950	010000ef	jal	x1,80003950	  x1=0x80003950
       44275000	      4426	00000000	00000013	addi	x0,x0,0	  x0:0x00000000
       44285000	      4427	8000395c	00000013	addi	x0,x0,0	  x0:0x00000000
       44295000	      4428	80003960	fe5ff0ef	jal	x1,80003960	  x1=0x80003960
       44305000	      4429	00000000	00000013	addi	x0,x0,0	  x0:0x00000000
       44315000	      4430	80003940	00000013	addi	x0,x0,0	  x0:0x00000000
       44325000	      4431	80003944	034000ef	jal	x1,80003944	  x1=0x80003944
       44335000	      4432	00000000	00000013	addi	x0,x0,0	  x0:0x00000000
       44345000	      4433	80003974	00000013	addi	x0,x0,0	  x0:0x00000000
       44355000	      4434	80003978	fc1ff2ef	jal	x5,80003978	  x5=0x80003978
       44365000	      4435	00000000	00000013	addi	x0,x0,0	  x0:0x00000000
       44375000	      4436	80003934	00000013	addi	x0,x0,0	  x0:0x00000000
       44385000	      4437	80003938	044000ef	jal	x1,80003938	  x1=0x80003938
       44395000	      4438	00000000	00000013	addi	x0,x0,0	  x0:0x00000000
       44405000	      4439	80003978	00000013	addi	x0,x0,0	  x0:0x00000000
       44415000	      4440	8000397c	00c0016f	jal	x2,8000397c	  x2=0x8000397c
       44425000	      4441	00000000	00000013	addi	x0,x0,0	  x0:0x00000000
       44435000	      4442	80003984	00000013	addi	x0,x0,0	  x0:0x00000000
       44445000	      4443	80003988	01e0fc33	and	x24,x1,x30	  x1:0x80003938 x30:0x2598a71c x24=0x00002118
       44455000	      4444	8000398c	019cde33	srl	x28,x25,x25	 x25:0xfffffffb x25:0xfffffffb x28=0x0000001f
       44465000	      4445	80003990	05591663	bne	x18,x21,800039dc	 x18:0x00000001 x21:0xfffffffb
       44475000	      4446	00000000	00000013	addi	x0,x0,0	  x0:0x00000000
       44485000	      4447	800039d8	00000013	addi	x0,x0,0	  x0:0x00000000
       44495000	      4448	800039dc	4925ee37	lui	x28,0x4925e	 x28=0x4925e000
       44505000	      4449	800039e0	057b4263	blt	x22,x23,80003a24	 x22:0x00000000 x23:0x00000002
       44515000	      4450	00000000	00000013	addi	x0,x0,0	  x0:0x00000000
       44525000	      4451	80003a20	00000013	addi	x0,x0,0	  x0:0x00000000
       44535000	      4452	80003a24	01353ab3	sltu	x21,x10,x19	 x10:0x80009f24 x19:0x80003958 x21=0x00000000
       44545000	      4453	80003a28	01b05863	bge	x0,x27,80003a38	  x0:0x00000000 x27:0x0000076a
       44555000	      4454	80003a2c	00da1863	bne	x20,x13,80003a3c	 x20:0x80003970 x13:0x3e6eded7
       44565000	      4455	00000000	00000013	addi	x0,x0,0	  x0:0x00000000
       44575000	      4456	80003a38	00000013	addi	x0,x0,0	  x0:0x00000000
       44585000	      4457	80003a3c	000fcdb3	xor	x27,x31,x0	 x31:0x00000000  x0:0x00000000 x27=0x00000000
       44595000	      4458	80003a40	01f30cb3	add	x25,x6,x31	  x6:0x80009fc4 x31:0x00000000 x25=0x80009fc4
       44605000	      4459	80003a44	41d55633	sra	x12,x10,x29	 x10:0x80009f24 x29:0xfffffc5f x12=0xffffffff
       44615000	      4460	80003a48	000cf263	bgeu	x25,x0,80003a4c	 x25:0x80009fc4  x0:0x00000000
       44625000	      4461	00000000	00000013	addi	x0,x0,0	  x0:0x00000000
       44635000	      4462	80003a48	00000013	addi	x0,x0,0	  x0:0x00000000
       44645000	      4463	80003a4c	445f8e93	addi	x29,x31,1093	 x31:0x00000000 x29=0x00000445
       44655000	      4464	80003a50	402d0db3	sub	x27,x26,x2	 x26:0x80003964  x2:0x8000397c x27=0xffffffe8
       44665000	      4465	80003a54	007d9393	slli	x7,x27,0x7	 x27:0xffffffe8  x7=0xfffff400
       44675000	      4466	80003a58	01e0ec63	bltu	x1,x30,80003a70	  x1:0x80003938 x30:0x2598a71c
       44685000	      4467	80003a5c	9f538d13	addi	x26,x7,-1547	  x7:0xfffff400 x26=0xffffedf5
       44695000	      4468	80003a60	00000013	addi	x0,x0,0	  x0:0x00000000
       44705000	      4469	80003a64	01f6e933	or	x18,x13,x31	 x13:0x3e6eded7 x31:0x00000000 x18=0x3e6eded7
       44715000	      4470	80003a68	5d365d97	auipc	x27,0x5d365	 x27=0xdd368a64
       44725000	      4471	80003a6c	c10a8a93	addi	x21,x21,-1008	 x21:0x00000000 x21=0xfffffc10
       44735000	      4472	80003a70	007e35b3	sltu	x11,x28,x7	 x28:0x4925e000  x7:0xfffff400 x11=0x00000001
       44745000	      4473	80003a74	002bfb33	and	x22,x23,x2	 x23:0x00000002  x2:0x8000397c x22=0x00000000
       44755000	      4474	80003a78	007b8eb3	add	x29,x23,x7	 x23:0x00000002  x7:0xfffff400 x29=0xfffff402
       44765000	      4475	80003a7c	a5432b13	slti	x22,x6,-1452	  x6:0x80009fc4 x22=0x00000001
       44775000	      4476	80003a80	004aeb33	or	x22,x21,x4	 x21:0xfffffc10  x4:0x00000000 x22=0xfffffc10
       44785000	      4477	80003a84	40125ab3	sra	x21,x4,x1	  x4:0x00000000  x1:0x80003938 x21=0x00000000
       44795000	      4478	80003a88	3ab1e413	ori	x8,x3,939	  x3:0xfffffee4  x8=0xffffffef
       44805000	      4479	80003a8c	04da4663	blt	x20,x13,80003ad8	 x20:0x80003970 x13:0x3e6eded7
       44815000	      4480	00000000	00000013	addi	x0,x0,0	  x0:0x00000000
       44825000	      4481	80003ad4	00000013	addi	x0,x0,0	  x0:0x00000000
       44835000	      4482	80003ad8	016a7a63	bgeu	x20,x22,80003aec	 x20:0x80003970 x22:0xfffffc10
       44845000	      4483	80003adc	8ce24b37	lui	x22,0x8ce24	 x22=0x8ce24000
       44855000	      4484	80003ae0	f55cc7b7	lui	x15,0xf55cc	 x15=0xf55cc000
       44865000	      4485	80003ae4	41a3dd93	srai	x27,x7,0x1a	  x7:0xfffff400 x27=0xffffffff
       44875000	      4486	80003ae8	ec81de37	lui	x28,0xec81d	 x28=0xec81d000
       44885000	      4487	80003aec	018e8f33	add	x30,x29,x24	 x29:0xfffff402 x24:0x00002118 x30=0x0000151a
       44895000	      4488	80003af0	03c5e863	bltu	x11,x28,80003b20	 x11:0x00000001 x28:0xec81d000
       44905000	      4489	00000000	00000013	addi	x0,x0,0	  x0:0x00000000
       44915000	      4490	80003b1c	00000013	addi	x0,x0,0	  x0:0x00000000
       44925000	      4491	80003b20	0500f063	bgeu	x1,x16,80003b60	  x1:0x80003938 x16:0x7cfc9000
       44935000	      4492	00000000	00000013	addi	x0,x0,0	  x0:0x00000000
       44945000	      4493	80003b5c	00000013	addi	x0,x0,0	  x0:0x00000000
       44955000	      4494	80003b60	73eb6f13	ori	x30,x22,1854	 x22:0x8ce24000 x30=0x8ce2473e
       44965000	      4495	80003b64	00b91c63	bne	x18,x11,80003b7c	 x18:0x3e6eded7 x11:0x00000001
       44975000	      4496	00000000	00000013	addi	x0,x0,0	  x0:0x00000000
       44985000	      4497	80003b78	00000013	addi	x0,x0,0	  x0:0x00000000
       44995000	      4498	80003b7c	01ce9ab3	sll	x21,x29,x28	 x29:0xfffff402 x28:0xec81d000 x21=0xfffff402
       45005000	      4499	80003b80	01c5fb33	and	x22,x11,x28	 x11:0x00000001 x28:0xec81d000 x22=0x00000000
       45015000	      4500	80003b84	00349e33	sll	x28,x9,x3	  x9:0x00000001  x3:0xfffffee4 x28=0x00000010
       45025000	      4501	80003b88	00cc1133	sll	x2,x24,x12	 x24:0x00002118 x12:0xffffffff  x2=0x00000000
       45035000	      4502	80003b8c	e30ff913	andi	x18,x31,-464	 x31:0x00000000 x18=0x00000000
       45045000	      4503	80003b90	01349793	slli	x15,x9,0x13	  x9:0x00000001 x15=0x00080000
       45055000	      4504	80003b94	00158263	beq	x11,x1,80003b98	 x11:0x00000001  x1:0x80003938
       45065000	      4505	80003b98	0015bf33	sltu	x30,x11,x1	 x11:0x00000001  x1:0x80003938 x30=0x00000001
       45075000	      4506	80003b9c	00b6d733	srl	x14,x13,x11	 x13:0x3e6eded7 x11:0x00000001 x14=0x1f376f6b
       45085000	      4507	80003ba0	05a1e663	bltu	x3,x26,80003bec	  x3:0xfffffee4 x26:0xffffedf5
       45095000	      4508	80003ba4	57167e93	andi	x29,x12,1393	 x12:0xffffffff x29=0x00000571
       45105000	      4509	80003ba8	e7d66f93	ori	x31,x12,-387	 x12:0xffffffff x31=0xffffffff
       45115000	      4510	80003bac	405b0f33	sub	x30,x22,x5	 x22:0x00000000  x5:0x80003978 x30=0x7fffc688
       45125000	      4511	80003bb0	00000013	addi	x0,x0,0	  x0:0x00000000
       45135000	      4512	80003bb4	01aed733	srl	x14,x29,x26	 x29:0x00000571 x26:0xffffedf5 x14=0x00000000
       45145000	      4513	80003bb8	04fdf863	bgeu	x27,x15,80003c08	 x27:0xffffffff x15:0x00080000
       45155000	      4514	00000000	00000013	addi	x0,x0,0	  x0:0x00000000
       45165000	      4515	80003c04	00000013	addi	x0,x0,0	  x0:0x00000000
       45175000	      4516	80003c08	01c548b3	xor	x17,x10,x28	 x10:0x80009f24 x28:0x00000010 x17=0x80009f34
       45185000	      4517	80003c0c	01cdd0b3	srl	x1,x27,x28	 x27:0xffffffff x28:0x00000010  x1=0x0000ffff
       45195000	      4518	80003c10	3fdf2617	auipc	x12,0x3fdf2	 x12=0xbfdf5c0c
       45205000	      4519	80003c14	f8d199b7	lui	x19,0xf8d19	 x19=0xf8d19000
       45215000	      4520	80003c18	06317893	andi	x17,x2,99	  x2:0x00000000 x17=0x00000000
       45225000	      4521	80003c1c	e7750013	addi	x0,x10,-393	 x10:0x80009f24
       45235000	      4522	80003c20	00eafa33	and	x20,x21,x14	 x21:0xfffff402 x14:0x00000000 x20=0x00000000
       45245000	      4523	80003c24	4012dfb3	sra	x31,x5,x1	  x5:0x80003978  x1:0x0000ffff x31=0xffffffff
       45255000	      4524	80003c28	001faab3	slt	x21,x31,x1	 x31:0xffffffff  x1:0x0000ffff x21=0x00000001
       45265000	      4525	80003c2c	03a59063	bne	x11,x26,80003c4c	 x11:0x00000001 x26:0xffffedf5
       45275000	      4526	00000000	00000013	addi	x0,x0,0	  x0:0x00000000
       45285000	      4527	80003c48	00000013	addi	x0,x0,0	  x0:0x00000000
       45295000	      4528	80003c4c	41685f13	srai	x30,x16,0x16	 x16:0x7cfc9000 x30=0x000001f3
       45305000	      4529	80003c50	04210463	beq	x2,x2,80003c98	  x2:0x00000000  x2:0x00000000
       45315000	      4530	00000000	00000013	addi	x0,x0,0	  x0:0x00000000
       45325000	      4531	80003c94	00000013	addi	x0,x0,0	  x0:0x00000000
       45335000	      4532	80003c98	053e4663	blt	x28,x19,80003ce4	 x28:0x00000010 x19:0xf8d19000
       45345000	      4533	80003c9c	41bd8233	sub	x4,x27,x27	 x27:0xffffffff x27:0xffffffff  x4=0x00000000
       45355000	      4534	80003ca0	019a0863	beq	x20,x25,80003cb0	 x20:0x00000000 x25:0x80009fc4
       45365000	      4535	80003ca4	00170ab3	add	x21,x14,x1	 x14:0x00000000  x1:0x0000ffff x21=0x0000ffff
       45375000	      4536	80003ca8	94973d17	auipc	x26,0x94973	 x26=0x14976ca4
       45385000	      4537	80003cac	4004d013	srai	x0,x9,0x0	  x9:0x00000001
       45395000	      4538	80003cb0	00000013	addi	x0,x0,0	  x0:0x00000000
       45405000	      4539	80003cb4	40b1db33	sra	x22,x3,x11	  x3:0xfffffee4 x11:0x00000001 x22=0xffffff72
       45415000	      4540	80003cb8	a7833c13	sltiu	x24,x6,-1416	  x6:0x80009fc4 x24=0x00000001
       45425000	      4541	80003cbc	00ef8cb3	add	x25,x31,x14	 x31:0xffffffff x14:0x00000000 x25=0xffffffff
       45435000	      4542	80003cc0	79ace093	ori	x1,x25,1946	 x25:0xffffffff  x1=0xffffffff
       45445000	      4543	80003cc4	014c8033	add	x0,x25,x20	 x25:0xffffffff x20:0x00000000
       45455000	      4544	80003cc8	00fddc93	srli	x25,x27,0xf	 x27:0xffffffff x25=0x0001ffff
       45465000	      4545	80003ccc	3a290993	addi	x19,x18,930	 x18:0x00000000 x19=0x000003a2
       45475000	      4546	80003cd0	00f87c63	bgeu	x16,x15,80003ce8	 x16:0x7cfc9000 x15:0x00080000
       45485000	      4547	00000000	00000013	addi	x0,x0,0	  x0:0x00000000
       45495000	      4548	80003ce4	00000013	addi	x0,x0,0	  x0:0x00000000
       45505000	      4549	80003ce8	20184593	xori	x11,x16,513	 x16:0x7cfc9000 x11=0x7cfc9201
       45515000	      4550	80003cec	7c488b93	addi	x23,x17,1988	 x17:0x00000000 x23=0x000007c4
       45525000	      4551	80003cf0	0163d613	srli	x12,x7,0x16	  x7:0xfffff400 x12=0x000003ff
       45535000	      4552	80003cf4	00737263	bgeu	x6,x7,80003cf8	  x6:0x80009fc4  x7:0xfffff400
       45545000	      4553	80003cf8	01932bb3	slt	x23,x6,x25	  x6:0x80009fc4 x25:0x0001ffff x23=0x00000001
       45555000	      4554	80003cfc	001f4c63	blt	x30,x1,80003d14	 x30:0x000001f3  x1:0xffffffff
       45565000	      4555	80003d00	00bdf833	and	x16,x27,x11	 x27:0xffffffff x11:0x7cfc9201 x16=0x7cfc9201
       45575000	      4556	80003d04	09231917	auipc	x18,0x9231	 x18=0x89234d00
       45585000	      4557	80003d08	00f394b3	sll	x9,x7,x15	  x7:0xfffff400 x15:0x00080000  x9=0xfffff400
       45595000	      4558	80003d0c	016462b3	or	x5,x8,x22	  x8:0xffffffef x22:0xffffff72  x5=0xffffffff
       45605000	      4559	80003d10	02ec5463	bge	x24,x14,80003d38	 x24:0x00000001 x14:0x00000000
       45615000	      4560	00000000	00000013	addi	x0,x0,0	  x0:0x00000000
       45625000	      4561	80003d34	00000013	addi	x0,x0,0	  x0:0x00000000
       45635000	      4562	80003d38	082fce63	blt	x31,x2,80003dd4	 x31:0xffffffff  x2:0x00000000
       45645000	      4563	00000000	00000013	addi	x0,x0,0	  x0:0x00000000
       45655000	      4564	80003dd0	00000013	addi	x0,x0,0	  x0:0x00000000
       45665000	      4565	80003dd4	0007fcb3	and	x25,x15,x0	 x15:0x00080000  x0:0x00000000 x25=0x00000000
       45675000	      4566	80003dd8	41e98cb3	sub	x25,x19,x30	 x19:0x000003a2 x30:0x000001f3 x25=0x000001af
       45685000	      4567	80003ddc	41a75a13	srai	x20,x14,0x1a	 x14:0x00000000 x20=0x00000000
       45695000	      4568	80003de0	044fd663	bge	x31,x4,80003e2c	 x31:0xffffffff  x4:0x00000000
       45705000	      4569	80003de4	aef5e993	ori	x19,x11,-1297	 x11:0x7cfc9201 x19=0xfffffaef
       45715000	      4570	80003de8	00100fb3	add	x31,x0,x1	  x0:0x00000000  x1:0xffffffff x31=0xffffffff
       45725000	      4571	80003dec	fb8f0717	auipc	x14,0xfb8f0	 x14=0x7b8f3de8
       45735000	      4572	80003df0	41ff0233	sub	x4,x30,x31	 x30:0x000001f3 x31:0xffffffff  x4=0x000001f4
       45745000	      4573	80003df4	f8ca3193	sltiu	x3,x20,-116	 x20:0x00000000  x3=0x00000001
       45755000	      4574	80003df8	00067ab3	and	x21,x12,x0	 x12:0x000003ff  x0:0x00000000 x21=0x00000000
       45765000	      4575	80003dfc	cc03fd13	andi	x26,x7,-832	  x7:0xfffff400 x26=0xfffff400
       45775000	      4576	80003e00	41ecaa17	auipc	x20,0x41eca	 x20=0xc1ecddfc
       45785000	      4577	80003e04	9347b013	sltiu	x0,x15,-1740	 x15:0x00080000
       45795000	      4578	80003e08	47145cb7	lui	x25,0x47145	 x25=0x47145000
       45805000	      4579	80003e0c	012a0c63	beq	x20,x18,80003e24	 x20:0xc1ecddfc x18:0x89234d00
       45815000	      4580	80003e10	01a27463	bgeu	x4,x26,80003e18	  x4:0x000001f4 x26:0xfffff400
       45825000	      4581	80003e14	002ef4b3	and	x9,x29,x2	 x29:0x00000571  x2:0x00000000  x9=0x00000000
       45835000	      4582	80003e18	99c3f813	andi	x16,x7,-1636	  x7:0xfffff400 x16=0xfffff000
       45845000	      4583	80003e1c	00211893	slli	x17,x2,0x2	  x2:0x00000000 x17=0x00000000
       45855000	      4584	80003e20	0014fbb3	and	x23,x9,x1	  x9:0x00000000  x1:0xffffffff x23=0x00000000
       45865000	      4585	80003e24	7f9b4c93	xori	x25,x22,2041	 x22:0xffffff72 x25=0xfffff88b
       45875000	      4586	80003e28	9d2e0817	auipc	x16,0x9d2e0	 x16=0x1d2e3e24
       45885000	      4587	80003e2c	00693133	sltu	x2,x18,x6	 x18:0x89234d00  x6:0x80009fc4  x2=0x00000000
       45895000	      4588	80003e30	4029d433	sra	x8,x19,x2	 x19:0xfffffaef  x2:0x00000000  x8=0xfffffaef
       45905000	      4589	80003e34	01775a63	bge	x14,x23,80003e48	 x14:0x7b8f3de8 x23:0x00000000
       45915000	      4590	00000000	00000013	addi	x0,x0,0	  x0:0x00000000
       45925000	      4591	80003e44	00000013	addi	x0,x0,0	  x0:0x00000000
       45935000	      4592	80003e48	41640933	sub	x18,x8,x22	  x8:0xfffffaef x22:0xffffff72 x18=0xfffffb7d
       45945000	      4593	80003e4c	f5f44113	xori	x2,x8,-161	  x8:0xfffffaef  x2=0x000005b0
       45955000	      4594	80003e50	01f25e33	srl	x28,x4,x31	  x4:0x000001f4 x31:0xffffffff x28=0x00000000
       45965000	      4595	80003e54	99298b93	addi	x23,x19,-1646	 x19:0xfffffaef x23=0xfffff481
       45975000	      4596	80003e58	00666733	or	x14,x12,x6	 x12:0x000003ff  x6:0x80009fc4 x14=0x80009fff
       45985000	      4597	80003e5c	40488bb3	sub	x23,x17,x4	 x17:0x00000000  x4:0x000001f4 x23=0xfffffe0c
       45995000	      4598	80003e60	00452d03	lw	x26,4(x10)	 x10:0x80009f24 x26=0x8000450c PA:0x80009f28
       46005000	      4599	80003e64	01850513	addi	x10,x10,24	 x10:0x80009f24 x10=0x80009f3c
       46015000	      4600	80003e68	013d04b3	add	x9,x26,x19	 x26:0x8000450c x19:0xfffffaef  x9=0x80003ffb
       46025000	      4601	80003e6c	f630e393	ori	x7,x1,-157	  x1:0xffffffff  x7=0xffffffff
       46035000	      4602	80003e70	000d0e93	addi	x29,x26,0	 x26:0x8000450c x29=0x8000450c
       46045000	      4603	80003e74	000e8ee7	jalr	x29,x29,0	 x29:0x8000450c x29=0x80003e74
       46055000	      4604	00000000	00000013	addi	x0,x0,0	  x0:0x00000000
       46065000	      4605	8000450c	00000013	addi	x0,x0,0	  x0:0x00000000
       46075000	      4606	80004510	85b86713	ori	x14,x16,-1957	 x16:0x1d2e3e24 x14=0xfffffe7f
       46085000	      4607	80004514	0e718f97	auipc	x31,0xe718	 x31=0x8e71c510
       46095000	      4608	80004518	01409f93	slli	x31,x1,0x14	  x1:0xffffffff x31=0xfff00000
       46105000	      4609	8000451c	00000197	auipc	x3,0x0	  x3=0x80004518
       46115000	      4610	80004520	95c18193	addi	x3,x3,-1700	  x3:0x80004518  x3=0x80003e74
       46125000	      4611	80004524	29318193	addi	x3,x3,659	  x3:0x80003e74  x3=0x80004107
       46135000	      4612	80004528	e5e96913	ori	x18,x18,-418	 x18:0xfffffb7d x18=0xffffff7f
       46145000	      4613	8000452c	f7aa7b13	andi	x22,x20,-134	 x20:0xc1ecddfc x22=0xc1ecdd78
       46155000	      4614	80004530	e1b52a93	slti	x21,x10,-485	 x10:0x80009f3c x21=0x00000001
       46165000	      4615	80004534	00e4b933	sltu	x18,x9,x14	  x9:0x80003ffb x14:0xfffffe7f x18=0x00000001
       46175000	      4616	80004538	00960863	beq	x12,x9,80004548	 x12:0x000003ff  x9:0x80003ffb
       46185000	      4617	8000453c	00000013	addi	x0,x0,0	  x0:0x00000000
       46195000	      4618	80004540	00d724b3	slt	x9,x14,x13	 x14:0xfffffe7f x13:0x3e6eded7  x9=0x00000001
       46205000	      4619	80004544	d41ab413	sltiu	x8,x21,-703	 x21:0x00000001  x8=0x00000001
       46215000	      4620	80004548	d6e18d67	jalr	x26,x3,-658	  x3:0x80004107 x26=0x80004548
       46225000	      4621	00000000	00000013	addi	x0,x0,0	  x0:0x00000000
       46235000	      4622	80003e74	00000013	addi	x0,x0,0	  x0:0x00000000
       46245000	      4623	80003e78	ff850513	addi	x10,x10,-8	 x10:0x80009f3c x10=0x80009f34
       46255000	      4624	80003e7c	d7304613	xori	x12,x0,-653	  x0:0x00000000 x12=0xfffffd73
       46265000	      4625	80003e80	0048b9b3	sltu	x19,x17,x4	 x17:0x00000000  x4:0x000001f4 x19=0x00000001
       46275000	      4626	80003e84	01a52223	sw	x26,4(x10)	 x10:0x80009f34 x26:0x80004548 PA:0x80009f38
       46285000	      4627	80003e88	01f78db3	add	x27,x15,x31	 x15:0x00080000 x31:0xfff00000 x27=0xfff80000
       46295000	      4628	80003e8c	0057de33	srl	x28,x15,x5	 x15:0x00080000  x5:0xffffffff x28=0x00000000
       46305000	      4629	80003e90	00000013	addi	x0,x0,0	  x0:0x00000000
       46315000	      4630	80003e94	0168b5b3	sltu	x11,x17,x22	 x17:0x00000000 x22:0xc1ecdd78 x11=0x00000001
       46325000	      4631	80003e98	2b4f4293	xori	x5,x30,692	 x30:0x000001f3  x5=0x00000347
       46335000	      4632	80003e9c	012925b3	slt	x11,x18,x18	 x18:0x00000001 x18:0x00000001 x11=0x00000000
       46345000	      4633	80003ea0	01800d6f	jal	x26,80003ea0	 x26=0x80003ea0
       46355000	      4634	00000000	00000013	addi	x0,x0,0	  x0:0x00000000
       46365000	      4635	80003eb4	00000013	addi	x0,x0,0	  x0:0x00000000
       46375000	      4636	80003eb8	008000ef	jal	x1,80003eb8	  x1=0x80003eb8
       46385000	      4637	00000000	00000013	addi	x0,x0,0	  x0:0x00000000
       46395000	      4638	80003ebc	00000013	addi	x0,x0,0	  x0:0x00000000
       46405000	      4639	80003ec0	ff1ff0ef	jal	x1,80003ec0	  x1=0x80003ec0
       46415000	      4640	00000000	00000013	addi	x0,x0,0	  x0:0x00000000
       46425000	      4641	80003eac	00000013	addi	x0,x0,0	  x0:0x00000000
       46435000	      4642	80003eb0	004000ef	jal	x1,80003eb0	  x1=0x80003eb0
       46445000	      4643	00000000	00000013	addi	x0,x0,0	  x0:0x00000000
       46455000	      4644	80003eb0	00000013	addi	x0,x0,0	  x0:0x00000000
       46465000	      4645	80003eb4	01400b6f	jal	x22,80003eb4	 x22=0x80003eb4
       46475000	      4646	00000000	00000013	addi	x0,x0,0	  x0:0x00000000
       46485000	      4647	80003ec4	00000013	addi	x0,x0,0	  x0:0x00000000
       46495000	      4648	80003ec8	fe1ffaef	jal	x21,80003ec8	 x21=0x80003ec8
       46505000	      4649	00000000	00000013	addi	x0,x0,0	  x0:0x00000000
       46515000	      4650	80003ea4	00000013	addi	x0,x0,0	  x0:0x00000000
       46525000	      4651	80003ea8	024002ef	jal	x5,80003ea8	  x5=0x80003ea8
       46535000	      4652	00000000	00000013	addi	x0,x0,0	  x0:0x00000000
       46545000	      4653	80003ec8	00000013	addi	x0,x0,0	  x0:0x00000000
       46555000	      4654	80003ecc	ff1ff0ef	jal	x1,80003ecc	  x1=0x80003ecc
       46565000	      4655	00000000	00000013	addi	x0,x0,0	  x0:0x00000000
       46575000	      4656	80003eb8	00000013	addi	x0,x0,0	  x0:0x00000000
       46585000	      4657	80003ebc	ff1ff0ef	jal	x1,80003ebc	  x1=0x80003ebc
       46595000	      4658	00000000	00000013	addi	x0,x0,0	  x0:0x00000000
       46605000	      4659	80003ea8	00000013	addi	x0,x0,0	  x0:0x00000000
       46615000	      4660	80003eac	024000ef	jal	x1,80003eac	  x1=0x80003eac
       46625000	      4661	00000000	00000013	addi	x0,x0,0	  x0:0x00000000
       46635000	      4662	80003ecc	00000013	addi	x0,x0,0	  x0:0x00000000
       46645000	      4663	80003ed0	fd5ff8ef	jal	x17,80003ed0	 x17=0x80003ed0
       46655000	      4664	00000000	00000013	addi	x0,x0,0	  x0:0x00000000
       46665000	      4665	80003ea0	00000013	addi	x0,x0,0	  x0:0x00000000
       46675000	      4666	80003ea4	020000ef	jal	x1,80003ea4	  x1=0x80003ea4
       46685000	      4667	00000000	00000013	addi	x0,x0,0	  x0:0x00000000
       46695000	      4668	80003ec0	00000013	addi	x0,x0,0	  x0:0x00000000
       46705000	      4669	80003ec4	01000b6f	jal	x22,80003ec4	 x22=0x80003ec4
       46715000	      4670	00000000	00000013	addi	x0,x0,0	  x0:0x00000000
       46725000	      4671	80003ed0	00000013	addi	x0,x0,0	  x0:0x00000000
       46735000	      4672	80003ed4	0040016f	jal	x2,80003ed4	  x2=0x80003ed4
       46745000	      4673	00000000	00000013	addi	x0,x0,0	  x0:0x00000000
       46755000	      4674	80003ed4	00000013	addi	x0,x0,0	  x0:0x00000000
       46765000	      4675	80003ed8	002ecbb3	xor	x23,x29,x2	 x29:0x80003e74  x2:0x80003ed4 x23=0x000000a0
       46775000	      4676	80003edc	2b14e837	lui	x16,0x2b14e	 x16=0x2b14e000
       46785000	      4677	80003ee0	038a7a63	bgeu	x20,x24,80003f14	 x20:0xc1ecddfc x24:0x00000001
       46795000	      4678	00000000	00000013	addi	x0,x0,0	  x0:0x00000000
       46805000	      4679	80003f10	00000013	addi	x0,x0,0	  x0:0x00000000
       46815000	      4680	80003f14	98944117	auipc	x2,0x98944	  x2=0x18947f10
       46825000	      4681	80003f18	0159c033	xor	x0,x19,x21	 x19:0x00000001 x21:0x80003ec8
       46835000	      4682	80003f1c	00c71863	bne	x14,x12,80003f2c	 x14:0xfffffe7f x12:0xfffffd73
       46845000	      4683	00000000	00000013	addi	x0,x0,0	  x0:0x00000000
       46855000	      4684	80003f28	00000013	addi	x0,x0,0	  x0:0x00000000
       46865000	      4685	80003f2c	00dadeb3	srl	x29,x21,x13	 x21:0x80003ec8 x13:0x3e6eded7 x29=0x00000100
       46875000	      4686	80003f30	410b5213	srai	x4,x22,0x10	 x22:0x80003ec4  x4=0xffff8000
       46885000	      4687	80003f34	00000013	addi	x0,x0,0	  x0:0x00000000
       46895000	      4688	80003f38	13284a93	xori	x21,x16,306	 x16:0x2b14e000 x21=0x2b14e132
       46905000	      4689	80003f3c	017c4933	xor	x18,x24,x23	 x24:0x00000001 x23:0x000000a0 x18=0x000000a1
       46915000	      4690	80003f40	00ce54b3	srl	x9,x28,x12	 x28:0x00000000 x12:0xfffffd73  x9=0x00000000
       46925000	      4691	80003f44	00000013	addi	x0,x0,0	  x0:0x00000000
       46935000	      4692	80003f48	02e14463	blt	x2,x14,80003f70	  x2:0x18947f10 x14:0xfffffe7f
       46945000	      4693	80003f4c	0002c933	xor	x18,x5,x0	  x5:0x80003ea8  x0:0x00000000 x18=0x80003ea8
       46955000	      4694	80003f50	00c13bb3	sltu	x23,x2,x12	  x2:0x18947f10 x12:0xfffffd73 x23=0x00000001
       46965000	      4695	80003f54	01609863	bne	x1,x22,80003f64	  x1:0x80003ea4 x22:0x80003ec4
       46975000	      4696	00000000	00000013	addi	x0,x0,0	  x0:0x00000000
       46985000	      4697	80003f60	00000013	addi	x0,x0,0	  x0:0x00000000
       46995000	      4698	80003f64	00a93eb3	sltu	x29,x18,x10	 x18:0x80003ea8 x10:0x80009f34 x29=0x00000001
       47005000	      4699	80003f68	00075f33	srl	x30,x14,x0	 x14:0xfffffe7f  x0:0x00000000 x30=0xfffffe7f
       47015000	      4700	80003f6c	04129063	bne	x5,x1,80003fac	  x5:0x80003ea8  x1:0x80003ea4
       47025000	      4701	00000000	00000013	addi	x0,x0,0	  x0:0x00000000
       47035000	      4702	80003fa8	00000013	addi	x0,x0,0	  x0:0x00000000
       47045000	      4703	80003fac	01ee5ab3	srl	x21,x28,x30	 x28:0x00000000 x30:0xfffffe7f x21=0x00000000
       47055000	      4704	80003fb0	9a05eb93	ori	x23,x11,-1632	 x11:0x00000000 x23=0xfffff9a0
       47065000	      4705	80003fb4	00bfd113	srli	x2,x31,0xb	 x31:0xfff00000  x2=0x001ffe00
       47075000	      4706	80003fb8	00452d03	lw	x26,4(x10)	 x10:0x80009f34 x26=0x80004548 PA:0x80009f38
       47085000	      4707	80003fbc	002100b3	add	x1,x2,x2	  x2:0x001ffe00  x2:0x001ffe00  x1=0x003ffc00
       47095000	      4708	80003fc0	0141c033	xor	x0,x3,x20	  x3:0x80004107 x20:0xc1ecddfc
       47105000	      4709	80003fc4	32408b13	addi	x22,x1,804	  x1:0x003ffc00 x22=0x003fff24
       47115000	      4710	80003fc8	019a8ab3	add	x21,x21,x25	 x21:0x00000000 x25:0xfffff88b x21=0xfffff88b
       47125000	      4711	80003fcc	00850513	addi	x10,x10,8	 x10:0x80009f34 x10=0x80009f3c
       47135000	      4712	80003fd0	0037c5b3	xor	x11,x15,x3	 x15:0x00080000  x3:0x80004107 x11=0x80084107
       47145000	      4713	80003fd4	0072cab3	xor	x21,x5,x7	  x5:0x80003ea8  x7:0xffffffff x21=0x7fffc157
       47155000	      4714	80003fd8	d981e213	ori	x4,x3,-616	  x3:0x80004107  x4=0xfffffd9f
       47165000	      4715	80003fdc	000d0a93	addi	x21,x26,0	 x26:0x80004548 x21=0x80004548
       47175000	      4716	80003fe0	000a8ae7	jalr	x21,x21,0	 x21:0x80004548 x21=0x80003fe0
       47185000	      4717	00000000	00000013	addi	x0,x0,0	  x0:0x00000000
       47195000	      4718	80004548	00000013	addi	x0,x0,0	  x0:0x00000000
       47205000	      4719	8000454c	01960733	add	x14,x12,x25	 x12:0xfffffd73 x25:0xfffff88b x14=0xfffff5fe
       47215000	      4720	80004550	db958893	addi	x17,x11,-583	 x11:0x80084107 x17=0x80083ec0
       47225000	      4721	80004554	01239293	slli	x5,x7,0x12	  x7:0xffffffff  x5=0xfffc0000
       47235000	      4722	80004558	b53b5097	auipc	x1,0xb53b5	  x1=0x353b9554
       47245000	      4723	8000455c	1a147293	andi	x5,x8,417	  x8:0x00000001  x5=0x00000001
       47255000	      4724	80004560	a85ffd6f	jal	x26,80004560	 x26=0x80004560
       47265000	      4725	00000000	00000013	addi	x0,x0,0	  x0:0x00000000
       47275000	      4726	80003fe0	00000013	addi	x0,x0,0	  x0:0x00000000
       47285000	      4727	80003fe4	00185f93	srli	x31,x16,0x1	 x16:0x2b14e000 x31=0x158a7000
       47295000	      4728	80003fe8	fe850513	addi	x10,x10,-24	 x10:0x80009f3c x10=0x80009f24
       47305000	      4729	80003fec	86156c93	ori	x25,x10,-1951	 x10:0x80009f24 x25=0xffffff65
       47315000	      4730	80003ff0	41000b33	sub	x22,x0,x16	  x0:0x00000000 x16:0x2b14e000 x22=0xd4eb2000
       47325000	      4731	80003ff4	2cafe117	auipc	x2,0x2cafe	  x2=0xacb01ff0
       47335000	      4732	80003ff8	01a52223	sw	x26,4(x10)	 x10:0x80009f24 x26:0x80004560 PA:0x80009f28
       47345000	      4733	80003ffc	dd412f93	slti	x31,x2,-556	  x2:0xacb01ff0 x31=0x00000001
       47355000	      4734	80004000	41615193	srai	x3,x2,0x16	  x2:0xacb01ff0  x3=0xfffffeb2
       47365000	      4735	80004004	01341013	slli	x0,x8,0x13	  x8:0x00000001
       47375000	      4736	80004008	0121b033	sltu	x0,x3,x18	  x3:0xfffffeb2 x18:0x80003ea8
       47385000	      4737	8000400c	00800d6f	jal	x26,8000400c	 x26=0x8000400c
       47395000	      4738	00000000	00000013	addi	x0,x0,0	  x0:0x00000000
       47405000	      4739	80004010	00000013	addi	x0,x0,0	  x0:0x00000000
       47415000	      4740	80004014	030000ef	jal	x1,80004014	  x1=0x80004014
       47425000	      4741	00000000	00000013	addi	x0,x0,0	  x0:0x00000000
       47435000	      4742	80004040	00000013	addi	x0,x0,0	  x0:0x00000000
       47445000	      4743	80004044	ff9ff0ef	jal	x1,80004044	  x1=0x80004044
       47455000	      4744	00000000	00000013	addi	x0,x0,0	  x0:0x00000000
       47465000	      4745	80004038	00000013	addi	x0,x0,0	  x0:0x00000000
       47475000	      4746	8000403c	fe5ff0ef	jal	x1,8000403c	  x1=0x8000403c
       47485000	      4747	00000000	00000013	addi	x0,x0,0	  x0:0x00000000
       47495000	      4748	8000401c	00000013	addi	x0,x0,0	  x0:0x00000000
       47505000	      4749	80004020	00c007ef	jal	x15,80004020	 x15=0x80004020
       47515000	      4750	00000000	00000013	addi	x0,x0,0	  x0:0x00000000
       47525000	      4751	80004028	00000013	addi	x0,x0,0	  x0:0x00000000
       47535000	      4752	8000402c	ff1ff0ef	jal	x1,8000402c	  x1=0x8000402c
       47545000	      4753	00000000	00000013	addi	x0,x0,0	  x0:0x00000000
       47555000	      4754	80004018	00000013	addi	x0,x0,0	  x0:0x00000000
       47565000	      4755	8000401c	0240026f	jal	x4,8000401c	  x4=0x8000401c
       47575000	      4756	00000000	00000013	addi	x0,x0,0	  x0:0x00000000
       47585000	      4757	8000403c	00000013	addi	x0,x0,0	  x0:0x00000000
       47595000	      4758	80004040	018000ef	jal	x1,80004040	  x1=0x80004040
       47605000	      4759	00000000	00000013	addi	x0,x0,0	  x0:0x00000000
       47615000	      4760	80004054	00000013	addi	x0,x0,0	  x0:0x00000000
       47625000	      4761	80004058	fe1ffbef	jal	x23,80004058	 x23=0x80004058
       47635000	      4762	00000000	00000013	addi	x0,x0,0	  x0:0x00000000
       47645000	      4763	80004034	00000013	addi	x0,x0,0	  x0:0x00000000
       47655000	      4764	80004038	fedff16f	jal	x2,80004038	  x2=0x80004038
       47665000	      4765	00000000	00000013	addi	x0,x0,0	  x0:0x00000000
       47675000	      4766	80004020	00000013	addi	x0,x0,0	  x0:0x00000000
       47685000	      4767	80004024	fedff0ef	jal	x1,80004024	  x1=0x80004024
       47695000	      4768	00000000	00000013	addi	x0,x0,0	  x0:0x00000000
       47705000	      4769	8000400c	00000013	addi	x0,x0,0	  x0:0x00000000
       47715000	      4770	80004010	044000ef	jal	x1,80004010	  x1=0x80004010
       47725000	      4771	00000000	00000013	addi	x0,x0,0	  x0:0x00000000
       47735000	      4772	80004050	00000013	addi	x0,x0,0	  x0:0x00000000
       47745000	      4773	80004054	ff9ff0ef	jal	x1,80004054	  x1=0x80004054
       47755000	      4774	00000000	00000013	addi	x0,x0,0	  x0:0x00000000
       47765000	      4775	80004048	00000013	addi	x0,x0,0	  x0:0x00000000
       47775000	      4776	8000404c	fe9ff0ef	jal	x1,8000404c	  x1=0x8000404c
       47785000	      4777	00000000	00000013	addi	x0,x0,0	  x0:0x00000000
       47795000	      4778	80004030	00000013	addi	x0,x0,0	  x0:0x00000000
       47805000	      4779	80004034	028000ef	jal	x1,80004034	  x1=0x80004034
       47815000	      4780	00000000	00000013	addi	x0,x0,0	  x0:0x00000000
       47825000	      4781	80004058	00000013	addi	x0,x0,0	  x0:0x00000000
       47835000	      4782	8000405c	fd5ff0ef	jal	x1,8000405c	  x1=0x8000405c
       47845000	      4783	00000000	00000013	addi	x0,x0,0	  x0:0x00000000
       47855000	      4784	8000402c	00000013	addi	x0,x0,0	  x0:0x00000000
       47865000	      4785	80004030	02000e6f	jal	x28,80004030	 x28=0x80004030
       47875000	      4786	00000000	00000013	addi	x0,x0,0	  x0:0x00000000
       47885000	      4787	8000404c	00000013	addi	x0,x0,0	  x0:0x00000000
       47895000	      4788	80004050	fc9ff86f	jal	x16,80004050	 x16=0x80004050
       47905000	      4789	00000000	00000013	addi	x0,x0,0	  x0:0x00000000
       47915000	      4790	80004014	00000013	addi	x0,x0,0	  x0:0x00000000
       47925000	      4791	80004018	0300026f	jal	x4,80004018	  x4=0x80004018
       47935000	      4792	00000000	00000013	addi	x0,x0,0	  x0:0x00000000
       47945000	      4793	80004044	00000013	addi	x0,x0,0	  x0:0x00000000
       47955000	      4794	80004048	0180046f	jal	x8,80004048	  x8=0x80004048
       47965000	      4795	00000000	00000013	addi	x0,x0,0	  x0:0x00000000
       47975000	      4796	8000405c	00000013	addi	x0,x0,0	  x0:0x00000000
       47985000	      4797	80004060	fc9ff0ef	jal	x1,80004060	  x1=0x80004060
       47995000	      4798	00000000	00000013	addi	x0,x0,0	  x0:0x00000000
       48005000	      4799	80004024	00000013	addi	x0,x0,0	  x0:0x00000000
       48015000	      4800	80004028	03c000ef	jal	x1,80004028	  x1=0x80004028
       48025000	      4801	00000000	00000013	addi	x0,x0,0	  x0:0x00000000
       48035000	      4802	80004060	00000013	addi	x0,x0,0	  x0:0x00000000
       48045000	      4803	80004064	94496813	ori	x16,x18,-1724	 x18:0x80003ea8 x16=0xffffffec
       48055000	      4804	80004068	02800d6f	jal	x26,80004068	 x26=0x80004068
       48065000	      4805	00000000	00000013	addi	x0,x0,0	  x0:0x00000000
       48075000	      4806	8000408c	00000013	addi	x0,x0,0	  x0:0x00000000
       48085000	      4807	80004090	fe1ff0ef	jal	x1,80004090	  x1=0x80004090
       48095000	      4808	00000000	00000013	addi	x0,x0,0	  x0:0x00000000
       48105000	      4809	8000406c	00000013	addi	x0,x0,0	  x0:0x00000000
       48115000	      4810	80004070	038000ef	jal	x1,80004070	  x1=0x80004070
       48125000	      4811	00000000	00000013	addi	x0,x0,0	  x0:0x00000000
       48135000	      4812	800040a4	00000013	addi	x0,x0,0	  x0:0x00000000
       48145000	      4813	800040a8	fd1ff2ef	jal	x5,800040a8	  x5=0x800040a8
       48155000	      4814	00000000	00000013	addi	x0,x0,0	  x0:0x00000000
       48165000	      4815	80004074	00000013	addi	x0,x0,0	  x0:0x00000000
       48175000	      4816	80004078	024000ef	jal	x1,80004078	  x1=0x80004078
       48185000	      4817	00000000	00000013	addi	x0,x0,0	  x0:0x00000000
       48195000	      4818	80004098	00000013	addi	x0,x0,0	  x0:0x00000000
       48205000	      4819	8000409c	fe9ff0ef	jal	x1,8000409c	  x1=0x8000409c
       48215000	      4820	00000000	00000013	addi	x0,x0,0	  x0:0x00000000
       48225000	      4821	80004080	00000013	addi	x0,x0,0	  x0:0x00000000
       48235000	      4822	80004084	010000ef	jal	x1,80004084	  x1=0x80004084
       48245000	      4823	00000000	00000013	addi	x0,x0,0	  x0:0x00000000
       48255000	      4824	80004090	00000013	addi	x0,x0,0	  x0:0x00000000
       48265000	      4825	80004094	fe9ff0ef	jal	x1,80004094	  x1=0x80004094
       48275000	      4826	00000000	00000013	addi	x0,x0,0	  x0:0x00000000
       48285000	      4827	80004078	00000013	addi	x0,x0,0	  x0:0x00000000
       48295000	      4828	8000407c	ff1ff0ef	jal	x1,8000407c	  x1=0x8000407c
       48305000	      4829	00000000	00000013	addi	x0,x0,0	  x0:0x00000000
       48315000	      4830	80004068	00000013	addi	x0,x0,0	  x0:0x00000000
       48325000	      4831	8000406c	01c000ef	jal	x1,8000406c	  x1=0x8000406c
       48335000	      4832	00000000	00000013	addi	x0,x0,0	  x0:0x00000000
       48345000	      4833	80004084	00000013	addi	x0,x0,0	  x0:0x00000000
       48355000	      4834	80004088	010000ef	jal	x1,80004088	  x1=0x80004088
       48365000	      4835	00000000	00000013	addi	x0,x0,0	  x0:0x00000000
       48375000	      4836	80004094	00000013	addi	x0,x0,0	  x0:0x00000000
       48385000	      4837	80004098	fe9ff0ef	jal	x1,80004098	  x1=0x80004098
       48395000	      4838	00000000	00000013	addi	x0,x0,0	  x0:0x00000000
       48405000	      4839	8000407c	00000013	addi	x0,x0,0	  x0:0x00000000
       48415000	      4840	80004080	ff5ff0ef	jal	x1,80004080	  x1=0x80004080
       48425000	      4841	00000000	00000013	addi	x0,x0,0	  x0:0x00000000
       48435000	      4842	80004070	00000013	addi	x0,x0,0	  x0:0x00000000
       48445000	      4843	80004074	018000ef	jal	x1,80004074	  x1=0x80004074
       48455000	      4844	00000000	00000013	addi	x0,x0,0	  x0:0x00000000
       48465000	      4845	80004088	00000013	addi	x0,x0,0	  x0:0x00000000
       48475000	      4846	8000408c	018000ef	jal	x1,8000408c	  x1=0x8000408c
       48485000	      4847	00000000	00000013	addi	x0,x0,0	  x0:0x00000000
       48495000	      4848	800040a0	00000013	addi	x0,x0,0	  x0:0x00000000
       48505000	      4849	800040a4	008000ef	jal	x1,800040a4	  x1=0x800040a4
       48515000	      4850	00000000	00000013	addi	x0,x0,0	  x0:0x00000000
       48525000	      4851	800040a8	00000013	addi	x0,x0,0	  x0:0x00000000
       48535000	      4852	800040ac	ff5ff0ef	jal	x1,800040ac	  x1=0x800040ac
       48545000	      4853	00000000	00000013	addi	x0,x0,0	  x0:0x00000000
       48555000	      4854	8000409c	00000013	addi	x0,x0,0	  x0:0x00000000
       48565000	      4855	800040a0	010000ef	jal	x1,800040a0	  x1=0x800040a0
       48575000	      4856	00000000	00000013	addi	x0,x0,0	  x0:0x00000000
       48585000	      4857	800040ac	00000013	addi	x0,x0,0	  x0:0x00000000
       48595000	      4858	800040b0	fbbc8413	addi	x8,x25,-69	 x25:0xffffff65  x8=0xffffff20
       48605000	      4859	800040b4	0387e463	bltu	x15,x24,800040dc	 x15:0x80004020 x24:0x00000001
       48615000	      4860	800040b8	00c81f93	slli	x31,x16,0xc	 x16:0xffffffec x31=0xfffec000
       48625000	      4861	800040bc	be8eb613	sltiu	x12,x29,-1048	 x29:0x00000001 x12=0x00000001
       48635000	      4862	800040c0	03f67463	bgeu	x12,x31,800040e8	 x12:0x00000001 x31:0xfffec000
       48645000	      4863	800040c4	019939b3	sltu	x19,x18,x25	 x18:0x80003ea8 x25:0xffffff65 x19=0x00000001
       48655000	      4864	800040c8	0130d233	srl	x4,x1,x19	  x1:0x800040a0 x19:0x00000001  x4=0x40002050
       48665000	      4865	800040cc	00467833	and	x16,x12,x4	 x12:0x00000001  x4:0x40002050 x16=0x00000000
       48675000	      4866	800040d0	01eed033	srl	x0,x29,x30	 x29:0x00000001 x30:0xfffffe7f
       48685000	      4867	800040d4	040bd063	bge	x23,x0,80004114	 x23:0x80004058  x0:0x00000000
       48695000	      4868	800040d8	01524c33	xor	x24,x4,x21	  x4:0x40002050 x21:0x80003fe0 x24=0xc0001fb0
       48705000	      4869	800040dc	03ed8e63	beq	x27,x30,80004118	 x27:0xfff80000 x30:0xfffffe7f
       48715000	      4870	800040e0	01eb3e33	sltu	x28,x22,x30	 x22:0xd4eb2000 x30:0xfffffe7f x28=0x00000001
       48725000	      4871	800040e4	04260263	beq	x12,x2,80004128	 x12:0x00000001  x2:0x80004038
       48735000	      4872	800040e8	da1d3937	lui	x18,0xda1d3	 x18=0xda1d3000
       48745000	      4873	800040ec	0311f663	bgeu	x3,x17,80004118	  x3:0xfffffeb2 x17:0x80083ec0
       48755000	      4874	00000000	00000013	addi	x0,x0,0	  x0:0x00000000
       48765000	      4875	80004114	00000013	addi	x0,x0,0	  x0:0x00000000
       48775000	      4876	80004118	9abf3b13	sltiu	x22,x30,-1621	 x30:0xfffffe7f x22=0x00000000
       48785000	      4877	8000411c	660fea93	ori	x21,x31,1632	 x31:0xfffec000 x21=0xfffec660
       48795000	      4878	80004120	00092bb3	slt	x23,x18,x0	 x18:0xda1d3000  x0:0x00000000 x23=0x00000001
       48805000	      4879	80004124	00b00d33	add	x26,x0,x11	  x0:0x00000000 x11:0x80084107 x26=0x80084107
       48815000	      4880	80004128	b3e64193	xori	x3,x12,-1218	 x12:0x00000001  x3=0xfffffb3f
       48825000	      4881	8000412c	40b05d13	srai	x26,x0,0xb	  x0:0x00000000 x26=0x00000000
       48835000	      4882	80004130	0186d663	bge	x13,x24,8000413c	 x13:0x3e6eded7 x24:0xc0001fb0
       48845000	      4883	00000000	00000013	addi	x0,x0,0	  x0:0x00000000
       48855000	      4884	80004138	00000013	addi	x0,x0,0	  x0:0x00000000
       48865000	      4885	8000413c	2cb740b7	lui	x1,0x2cb74	  x1=0x2cb74000
       48875000	      4886	80004140	ab19e397	auipc	x7,0xab19e	  x7=0x2b1a213c
       48885000	      4887	80004144	01e3dfb3	srl	x31,x7,x30	  x7:0x2b1a213c x30:0xfffffe7f x31=0x00000000
       48895000	      4888	80004148	00870033	add	x0,x14,x8	 x14:0xfffff5fe  x8:0xffffff20
       48905000	      4889	8000414c	01198d33	add	x26,x19,x17	 x19:0x00000001 x17:0x80083ec0 x26=0x80083ec1
       48915000	      4890	80004150	8ce1f593	andi	x11,x3,-1842	  x3:0xfffffb3f x11=0xfffff80e
       48925000	      4891	80004154	40240833	sub	x16,x8,x2	  x8:0xffffff20  x2:0x80004038 x16=0x7fffbee8
       48935000	      4892	80004158	2fcd4b13	xori	x22,x26,764	 x26:0x80083ec1 x22=0x80083c3d
       48945000	      4893	8000415c	12c40b13	addi	x22,x8,300	  x8:0xffffff20 x22=0x0000004c
       48955000	      4894	80004160	01b20263	beq	x4,x27,80004164	  x4:0x40002050 x27:0xfff80000
       48965000	      4895	80004164	025f7063	bgeu	x30,x5,80004184	 x30:0xfffffe7f  x5:0x800040a8
       48975000	      4896	00000000	00000013	addi	x0,x0,0	  x0:0x00000000
       48985000	      4897	80004180	00000013	addi	x0,x0,0	  x0:0x00000000
       48995000	      4898	80004184	02fd7463	bgeu	x26,x15,800041ac	 x26:0x80083ec1 x15:0x80004020
       49005000	      4899	00000000	00000013	addi	x0,x0,0	  x0:0x00000000
       49015000	      4900	800041a8	00000013	addi	x0,x0,0	  x0:0x00000000
       49025000	      4901	800041ac	0067d633	srl	x12,x15,x6	 x15:0x80004020  x6:0x80009fc4 x12=0x08000402
       49035000	      4902	800041b0	02428263	beq	x5,x4,800041d4	  x5:0x800040a8  x4:0x40002050
       49045000	      4903	800041b4	401d0c33	sub	x24,x26,x1	 x26:0x80083ec1  x1:0x2cb74000 x24=0x5350fec1
       49055000	      4904	800041b8	0022e433	or	x8,x5,x2	  x5:0x800040a8  x2:0x80004038  x8=0x800040b8
       49065000	      4905	800041bc	e0d0ba93	sltiu	x21,x1,-499	  x1:0x2cb74000 x21=0x00000001
       49075000	      4906	800041c0	d49b3913	sltiu	x18,x22,-695	 x22:0x0000004c x18=0x00000001
       49085000	      4907	800041c4	04699263	bne	x19,x6,80004208	 x19:0x00000001  x6:0x80009fc4
       49095000	      4908	00000000	00000013	addi	x0,x0,0	  x0:0x00000000
       49105000	      4909	80004204	00000013	addi	x0,x0,0	  x0:0x00000000
       49115000	      4910	80004208	01a682b3	add	x5,x13,x26	 x13:0x3e6eded7 x26:0x80083ec1  x5=0xbe771d98
       49125000	      4911	8000420c	000b6c63	bltu	x22,x0,80004224	 x22:0x0000004c  x0:0x00000000
       49135000	      4912	80004210	02570263	beq	x14,x5,80004234	 x14:0xfffff5fe  x5:0xbe771d98
       49145000	      4913	80004214	00c39f93	slli	x31,x7,0xc	  x7:0x2b1a213c x31=0xa213c000
       49155000	      4914	80004218	16283813	sltiu	x16,x16,354	 x16:0x7fffbee8 x16=0x00000000
       49165000	      4915	8000421c	4071d713	srai	x14,x3,0x7	  x3:0xfffffb3f x14=0xfffffff6
       49175000	      4916	80004220	0101ca63	blt	x3,x16,80004234	  x3:0xfffffb3f x16:0x00000000
       49185000	      4917	00000000	00000013	addi	x0,x0,0	  x0:0x00000000
       49195000	      4918	80004230	00000013	addi	x0,x0,0	  x0:0x00000000
       49205000	      4919	80004234	be0c7c93	andi	x25,x24,-1056	 x24:0x5350fec1 x25=0x5350fac0
       49215000	      4920	80004238	0194ce63	blt	x9,x25,80004254	  x9:0x00000000 x25:0x5350fac0
       49225000	      4921	00000000	00000013	addi	x0,x0,0	  x0:0x00000000
       49235000	      4922	80004250	00000013	addi	x0,x0,0	  x0:0x00000000
       49245000	      4923	80004254	ed5b0613	addi	x12,x22,-299	 x22:0x0000004c x12=0xffffff21
       49255000	      4924	80004258	1279bcb7	lui	x25,0x1279b	 x25=0x1279b000
       49265000	      4925	8000425c	0020be33	sltu	x28,x1,x2	  x1:0x2cb74000  x2:0x80004038 x28=0x00000001
       49275000	      4926	80004260	00452d03	lw	x26,4(x10)	 x10:0x80009f24 x26=0x80004560 PA:0x80009f28
       49285000	      4927	80004264	6b67d217	auipc	x4,0x6b67d	  x4=0xeb681260
       49295000	      4928	80004268	40975a93	srai	x21,x14,0x9	 x14:0xfffffff6 x21=0xffffffff
       49305000	      4929	8000426c	00867a33	and	x20,x12,x8	 x12:0xffffff21  x8:0x800040b8 x20=0x80004020
       49315000	      4930	80004270	01850513	addi	x10,x10,24	 x10:0x80009f24 x10=0x80009f3c
       49325000	      4931	80004274	8cb22417	auipc	x8,0x8cb22	  x8=0x0cb26270
       49335000	      4932	80004278	01415a93	srli	x21,x2,0x14	  x2:0x80004038 x21=0x00000800
       49345000	      4933	8000427c	00ebd113	srli	x2,x23,0xe	 x23:0x00000001  x2=0x00000000
       49355000	      4934	80004280	6c852393	slti	x7,x10,1736	 x10:0x80009f3c  x7=0x00000001
       49365000	      4935	80004284	0048df13	srli	x30,x17,0x4	 x17:0x80083ec0 x30=0x080083ec
       49375000	      4936	80004288	000d0613	addi	x12,x26,0	 x26:0x80004560 x12=0x80004560
       49385000	      4937	8000428c	00060667	jalr	x12,x12,0	 x12:0x80004560 x12=0x8000428c
       49395000	      4938	00000000	00000013	addi	x0,x0,0	  x0:0x00000000
       49405000	      4939	80004560	00000013	addi	x0,x0,0	  x0:0x00000000
       49415000	      4940	80004564	0130aeb3	slt	x29,x1,x19	  x1:0x2cb74000 x19:0x00000001 x29=0x00000000
       49425000	      4941	80004568	0063d7b3	srl	x15,x7,x6	  x7:0x00000001  x6:0x80009fc4 x15=0x00000000
       49435000	      4942	8000456c	9b47c113	xori	x2,x15,-1612	 x15:0x00000000  x2=0xfffff9b4
       49445000	      4943	80004570	01878e33	add	x28,x15,x24	 x15:0x00000000 x24:0x5350fec1 x28=0x5350fec1
       49455000	      4944	80004574	029cd063	bge	x25,x9,80004594	 x25:0x1279b000  x9:0x00000000
       49465000	      4945	00000000	00000013	addi	x0,x0,0	  x0:0x00000000
       49475000	      4946	80004590	00000013	addi	x0,x0,0	  x0:0x00000000
       49485000	      4947	80004594	05c76063	bltu	x14,x28,800045d4	 x14:0xfffffff6 x28:0x5350fec1
       49495000	      4948	80004598	41fdd7b3	sra	x15,x27,x31	 x27:0xfff80000 x31:0xa213c000 x15=0xfff80000
       49505000	      4949	8000459c	87a5f837	lui	x16,0x87a5f	 x16=0x87a5f000
       49515000	      4950	800045a0	3728f013	andi	x0,x17,882	 x17:0x80083ec0
       49525000	      4951	800045a4	e66c6e93	ori	x29,x24,-410	 x24:0x5350fec1 x29=0xfffffee7
       49535000	      4952	800045a8	01a98033	add	x0,x19,x26	 x19:0x00000001 x26:0x80004560
       49545000	      4953	800045ac	04619063	bne	x3,x6,800045ec	  x3:0xfffffb3f  x6:0x80009fc4
       49555000	      4954	00000000	00000013	addi	x0,x0,0	  x0:0x00000000
       49565000	      4955	800045e8	00000013	addi	x0,x0,0	  x0:0x00000000
       49575000	      4956	800045ec	0156a3b3	slt	x7,x13,x21	 x13:0x3e6eded7 x21:0x00000800  x7=0x00000000
       49585000	      4957	800045f0	00452d03	lw	x26,4(x10)	 x10:0x80009f3c x26=0x800042d8 PA:0x80009f40
       49595000	      4958	00000000	00000013	addi	x0,x0,0	  x0:0x00000000
       49605000	      4959	800045f4	41a80b33	sub	x22,x16,x26	 x16:0x87a5f000 x26:0x800042d8 x22=0x07a5ad28
       49615000	      4960	800045f8	00850513	addi	x10,x10,8	 x10:0x80009f3c x10=0x80009f44
       49625000	      4961	800045fc	fe392093	slti	x1,x18,-29	 x18:0x00000001  x1=0x00000000
       49635000	      4962	80004600	3f42c093	xori	x1,x5,1012	  x5:0xbe771d98  x1=0xbe771e6c
       49645000	      4963	80004604	001d0713	addi	x14,x26,1	 x26:0x800042d8 x14=0x800042d9
       49655000	      4964	80004608	00070767	jalr	x14,x14,0	 x14:0x800042d9 x14=0x80004608
       49665000	      4965	00000000	00000013	addi	x0,x0,0	  x0:0x00000000
       49675000	      4966	800042d8	00000013	addi	x0,x0,0	  x0:0x00000000
       49685000	      4967	800042dc	01400d6f	jal	x26,800042dc	 x26=0x800042dc
       49695000	      4968	00000000	00000013	addi	x0,x0,0	  x0:0x00000000
       49705000	      4969	800042ec	00000013	addi	x0,x0,0	  x0:0x00000000
       49715000	      4970	800042f0	018000ef	jal	x1,800042f0	  x1=0x800042f0
       49725000	      4971	00000000	00000013	addi	x0,x0,0	  x0:0x00000000
       49735000	      4972	80004304	00000013	addi	x0,x0,0	  x0:0x00000000
       49745000	      4973	80004308	fe1ff0ef	jal	x1,80004308	  x1=0x80004308
       49755000	      4974	00000000	00000013	addi	x0,x0,0	  x0:0x00000000
       49765000	      4975	800042e4	00000013	addi	x0,x0,0	  x0:0x00000000
       49775000	      4976	800042e8	010000ef	jal	x1,800042e8	  x1=0x800042e8
       49785000	      4977	00000000	00000013	addi	x0,x0,0	  x0:0x00000000
       49795000	      4978	800042f4	00000013	addi	x0,x0,0	  x0:0x00000000
       49805000	      4979	800042f8	01c000ef	jal	x1,800042f8	  x1=0x800042f8
       49815000	      4980	00000000	00000013	addi	x0,x0,0	  x0:0x00000000
       49825000	      4981	80004310	00000013	addi	x0,x0,0	  x0:0x00000000
       49835000	      4982	80004314	00c005ef	jal	x11,80004314	 x11=0x80004314
       49845000	      4983	00000000	00000013	addi	x0,x0,0	  x0:0x00000000
       49855000	      4984	8000431c	00000013	addi	x0,x0,0	  x0:0x00000000
       49865000	      4985	80004320	fddff86f	jal	x16,80004320	 x16=0x80004320
       49875000	      4986	00000000	00000013	addi	x0,x0,0	  x0:0x00000000
       49885000	      4987	800042f8	00000013	addi	x0,x0,0	  x0:0x00000000
       49895000	      4988	800042fc	01c00bef	jal	x23,800042fc	 x23=0x800042fc
       49905000	      4989	00000000	00000013	addi	x0,x0,0	  x0:0x00000000
       49915000	      4990	80004314	00000013	addi	x0,x0,0	  x0:0x00000000
       49925000	      4991	80004318	fedff0ef	jal	x1,80004318	  x1=0x80004318
       49935000	      4992	00000000	00000013	addi	x0,x0,0	  x0:0x00000000
       49945000	      4993	80004300	00000013	addi	x0,x0,0	  x0:0x00000000
       49955000	      4994	80004304	fddffcef	jal	x25,80004304	 x25=0x80004304
       49965000	      4995	00000000	00000013	addi	x0,x0,0	  x0:0x00000000
       49975000	      4996	800042dc	00000013	addi	x0,x0,0	  x0:0x00000000
       49985000	      4997	800042e0	014000ef	jal	x1,800042e0	  x1=0x800042e0
       49995000	      4998	00000000	00000013	addi	x0,x0,0	  x0:0x00000000
       50005000	      4999	800042f0	00000013	addi	x0,x0,0	  x0:0x00000000
       50015000	      5000	800042f4	01800def	jal	x27,800042f4	 x27=0x800042f4
       50025000	      5001	00000000	00000013	addi	x0,x0,0	  x0:0x00000000
       50035000	      5002	80004308	00000013	addi	x0,x0,0	  x0:0x00000000
       50045000	      5003	8000430c	010000ef	jal	x1,8000430c	  x1=0x8000430c
       50055000	      5004	00000000	00000013	addi	x0,x0,0	  x0:0x00000000
       50065000	      5005	80004318	00000013	addi	x0,x0,0	  x0:0x00000000
       50075000	      5006	8000431c	fd1ff0ef	jal	x1,8000431c	  x1=0x8000431c
       50085000	      5007	00000000	00000013	addi	x0,x0,0	  x0:0x00000000
       50095000	      5008	800042e8	00000013	addi	x0,x0,0	  x0:0x00000000
       50105000	      5009	800042ec	01400f6f	jal	x30,800042ec	 x30=0x800042ec
       50115000	      5010	00000000	00000013	addi	x0,x0,0	  x0:0x00000000
       50125000	      5011	800042fc	00000013	addi	x0,x0,0	  x0:0x00000000
       50135000	      5012	80004300	010000ef	jal	x1,80004300	  x1=0x80004300
       50145000	      5013	00000000	00000013	addi	x0,x0,0	  x0:0x00000000
       50155000	      5014	8000430c	00000013	addi	x0,x0,0	  x0:0x00000000
       50165000	      5015	80004310	fd5ff1ef	jal	x3,80004310	  x3=0x80004310
       50175000	      5016	00000000	00000013	addi	x0,x0,0	  x0:0x00000000
       50185000	      5017	800042e0	00000013	addi	x0,x0,0	  x0:0x00000000
       50195000	      5018	800042e4	040005ef	jal	x11,800042e4	 x11=0x800042e4
       50205000	      5019	00000000	00000013	addi	x0,x0,0	  x0:0x00000000
       50215000	      5020	80004320	00000013	addi	x0,x0,0	  x0:0x00000000
       50225000	      5021	80004324	24b7e893	ori	x17,x15,587	 x15:0xfff80000 x17=0xfff8024b
       50235000	      5022	80004328	013d5c63	bge	x26,x19,80004340	 x26:0x800042dc x19:0x00000001
       50245000	      5023	8000432c	01900d33	add	x26,x0,x25	  x0:0x00000000 x25:0x80004304 x26=0x80004304
       50255000	      5024	80004330	00508463	beq	x1,x5,80004338	  x1:0x80004300  x5:0xbe771d98
       50265000	      5025	80004334	00737eb3	and	x29,x6,x7	  x6:0x80009fc4  x7:0x00000000 x29=0x00000000
       50275000	      5026	80004338	3a758593	addi	x11,x11,935	 x11:0x800042e4 x11=0x8000468b
       50285000	      5027	8000433c	03206e63	bltu	x0,x18,80004378	  x0:0x00000000 x18:0x00000001
       50295000	      5028	00000000	00000013	addi	x0,x0,0	  x0:0x00000000
       50305000	      5029	80004374	00000013	addi	x0,x0,0	  x0:0x00000000
       50315000	      5030	80004378	011d9f13	slli	x30,x27,0x11	 x27:0x800042f4 x30=0x85e80000
       50325000	      5031	8000437c	009a33b3	sltu	x7,x20,x9	 x20:0x80004020  x9:0x00000000  x7=0x00000000
       50335000	      5032	80004380	00000013	addi	x0,x0,0	  x0:0x00000000
       50345000	      5033	80004384	00a3e8b3	or	x17,x7,x10	  x7:0x00000000 x10:0x80009f44 x17=0x80009f44
       50355000	      5034	80004388	00000013	addi	x0,x0,0	  x0:0x00000000
       50365000	      5035	8000438c	22e09017	auipc	x0,0x22e09	
       50375000	      5036	80004390	009d13b3	sll	x7,x26,x9	 x26:0x80004304  x9:0x00000000  x7=0x80004304
       50385000	      5037	80004394	00cd1a33	sll	x20,x26,x12	 x26:0x80004304 x12:0x8000428c x20=0x04304000
       50395000	      5038	80004398	9169b597	auipc	x11,0x9169b	 x11=0x1169f394
       50405000	      5039	8000439c	00000013	addi	x0,x0,0	  x0:0x00000000
       50415000	      5040	800043a0	0515c863	blt	x11,x17,800043f0	 x11:0x1169f394 x17:0x80009f44
       50425000	      5041	800043a4	4fb7d817	auipc	x16,0x4fb7d	 x16=0xcfb813a0
       50435000	      5042	800043a8	013a8d33	add	x26,x21,x19	 x21:0x00000800 x19:0x00000001 x26=0x00000801
       50445000	      5043	800043ac	050bc663	blt	x23,x16,800043f8	 x23:0x800042fc x16:0xcfb813a0
       50455000	      5044	00000000	00000013	addi	x0,x0,0	  x0:0x00000000
       50465000	      5045	800043f4	00000013	addi	x0,x0,0	  x0:0x00000000
       50475000	      5046	800043f8	3bd36913	ori	x18,x6,957	  x6:0x80009fc4 x18=0x80009ffd
       50485000	      5047	800043fc	7f12b413	sltiu	x8,x5,2033	  x5:0xbe771d98  x8=0x00000000
       50495000	      5048	80004400	0115c633	xor	x12,x11,x17	 x11:0x1169f394 x17:0x80009f44 x12=0x91696cd0
       50505000	      5049	80004404	00ca7033	and	x0,x20,x12	 x20:0x04304000 x12:0x91696cd0
       50515000	      5050	80004408	84a597b7	lui	x15,0x84a59	 x15=0x84a59000
       50525000	      5051	8000440c	01f385b3	add	x11,x7,x31	  x7:0x80004304 x31:0xa213c000 x11=0x22140304
       50535000	      5052	80004410	00a0c2b3	xor	x5,x1,x10	  x1:0x80004300 x10:0x80009f44  x5=0x0000dc44
       50545000	      5053	80004414	00000013	addi	x0,x0,0	  x0:0x00000000
       50555000	      5054	80004418	0069d7b3	srl	x15,x19,x6	 x19:0x00000001  x6:0x80009fc4 x15=0x00000000
       50565000	      5055	8000441c	40765b33	sra	x22,x12,x7	 x12:0x91696cd0  x7:0x80004304 x22=0xf91696cd
       50575000	      5056	80004420	01cec1b3	xor	x3,x29,x28	 x29:0x00000000 x28:0x5350fec1  x3=0x5350fec1
       50585000	      5057	80004424	02491463	bne	x18,x4,8000444c	 x18:0x80009ffd  x4:0xeb681260
       50595000	      5058	00000000	00000013	addi	x0,x0,0	  x0:0x00000000
       50605000	      5059	80004448	00000013	addi	x0,x0,0	  x0:0x00000000
       50615000	      5060	8000444c	010af3b3	and	x7,x21,x16	 x21:0x00000800 x16:0xcfb813a0  x7=0x00000000
       50625000	      5061	80004450	01f5d133	srl	x2,x11,x31	 x11:0x22140304 x31:0xa213c000  x2=0x22140304
       50635000	      5062	80004454	d5c78c93	addi	x25,x15,-676	 x15:0x00000000 x25=0xfffffd5c
       50645000	      5063	80004458	88eaf013	andi	x0,x21,-1906	 x21:0x00000800
       50655000	      5064	8000445c	017b5193	srli	x3,x22,0x17	 x22:0xf91696cd  x3=0x000001f2
       50665000	      5065	80004460	005711b3	sll	x3,x14,x5	 x14:0x80004608  x5:0x0000dc44  x3=0x00046080
       50675000	      5066	80004464	600041b7	lui	x3,0x60004	  x3=0x60004000
       50685000	      5067	80004468	4092d1b3	sra	x3,x5,x9	  x5:0x0000dc44  x9:0x00000000  x3=0x0000dc44
       50695000	      5068	8000446c	87faba93	sltiu	x21,x21,-1921	 x21:0x00000800 x21=0x00000001
       50705000	      5069	80004470	01d3c2b3	xor	x5,x7,x29	  x7:0x00000000 x29:0x00000000  x5=0x00000000
       50715000	      5070	80004474	005ff033	and	x0,x31,x5	 x31:0xa213c000  x5:0x00000000
       50725000	      5071	80004478	00c4c263	blt	x9,x12,8000447c	  x9:0x00000000 x12:0x91696cd0
       50735000	      5072	8000447c	00ed84b3	add	x9,x27,x14	 x27:0x800042f4 x14:0x80004608  x9=0x000088fc
       50745000	      5073	80004480	00452d03	lw	x26,4(x10)	 x10:0x80009f44 x26=0x80000124 PA:0x80009f48
       50755000	      5074	80004484	7efa3293	sltiu	x5,x20,2031	 x20:0x04304000  x5=0x00000000
       50765000	      5075	80004488	bef68413	addi	x8,x13,-1041	 x13:0x3e6eded7  x8=0x3e6edac6
       50775000	      5076	8000448c	9f3d7393	andi	x7,x26,-1549	 x26:0x80000124  x7=0x80000120
       50785000	      5077	80004490	48ee3f93	sltiu	x31,x28,1166	 x28:0x5350fec1 x31=0x00000000
       50795000	      5078	80004494	04050513	addi	x10,x10,64	 x10:0x80009f44 x10=0x80009f84
       50805000	      5079	80004498	0075df93	srli	x31,x11,0x7	 x11:0x22140304 x31=0x00442806
       50815000	      5080	8000449c	00000013	addi	x0,x0,0	  x0:0x00000000
       50825000	      5081	800044a0	92c3b993	sltiu	x19,x7,-1748	  x7:0x80000120 x19=0x00000001
       50835000	      5082	800044a4	01718833	add	x16,x3,x23	  x3:0x0000dc44 x23:0x800042fc x16=0x80011f40
       50845000	      5083	800044a8	0039d1b3	srl	x3,x19,x3	 x19:0x00000001  x3:0x0000dc44  x3=0x00000000
       50855000	      5084	800044ac	000d0d93	addi	x27,x26,0	 x26:0x80000124 x27=0x80000124
       50865000	      5085	800044b0	000d8de7	jalr	x27,x27,0	 x27:0x80000124 x27=0x800044b0
       50875000	      5086	00000000	00000013	addi	x0,x0,0	  x0:0x00000000
       50885000	      5087	80000124	00000013	addi	x0,x0,0	  x0:0x00000000
       50895000	      5088	80000128	02000d6f	jal	x26,80000128	 x26=0x80000128
       50905000	      5089	00000000	00000013	addi	x0,x0,0	  x0:0x00000000
       50915000	      5090	80000144	00000013	addi	x0,x0,0	  x0:0x00000000
       50925000	      5091	80000148	00c000ef	jal	x1,80000148	  x1=0x80000148
       50935000	      5092	00000000	00000013	addi	x0,x0,0	  x0:0x00000000
       50945000	      5093	80000150	00000013	addi	x0,x0,0	  x0:0x00000000
       50955000	      5094	80000154	fe1ffe6f	jal	x28,80000154	 x28=0x80000154
       50965000	      5095	00000000	00000013	addi	x0,x0,0	  x0:0x00000000
       50975000	      5096	80000130	00000013	addi	x0,x0,0	  x0:0x00000000
       50985000	      5097	80000134	018000ef	jal	x1,80000134	  x1=0x80000134
       50995000	      5098	00000000	00000013	addi	x0,x0,0	  x0:0x00000000
       51005000	      5099	80000148	00000013	addi	x0,x0,0	  x0:0x00000000
       51015000	      5100	8000014c	fe5ff0ef	jal	x1,8000014c	  x1=0x8000014c
       51025000	      5101	00000000	00000013	addi	x0,x0,0	  x0:0x00000000
       51035000	      5102	8000012c	00000013	addi	x0,x0,0	  x0:0x00000000
       51045000	      5103	80000130	00c000ef	jal	x1,80000130	  x1=0x80000130
       51055000	      5104	00000000	00000013	addi	x0,x0,0	  x0:0x00000000
       51065000	      5105	80000138	00000013	addi	x0,x0,0	  x0:0x00000000
       51075000	      5106	8000013c	014000ef	jal	x1,8000013c	  x1=0x8000013c
       51085000	      5107	00000000	00000013	addi	x0,x0,0	  x0:0x00000000
       51095000	      5108	8000014c	00000013	addi	x0,x0,0	  x0:0x00000000
       51105000	      5109	80000150	0080026f	jal	x4,80000150	  x4=0x80000150
       51115000	      5110	00000000	00000013	addi	x0,x0,0	  x0:0x00000000
       51125000	      5111	80000154	00000013	addi	x0,x0,0	  x0:0x00000000
       51135000	      5112	80000158	fe1ff0ef	jal	x1,80000158	  x1=0x80000158
       51145000	      5113	00000000	00000013	addi	x0,x0,0	  x0:0x00000000
       51155000	      5114	80000134	00000013	addi	x0,x0,0	  x0:0x00000000
       51165000	      5115	80000138	008000ef	jal	x1,80000138	  x1=0x80000138
       51175000	      5116	00000000	00000013	addi	x0,x0,0	  x0:0x00000000
       51185000	      5117	8000013c	00000013	addi	x0,x0,0	  x0:0x00000000
       51195000	      5118	80000140	fedff1ef	jal	x3,80000140	  x3=0x80000140
       51205000	      5119	00000000	00000013	addi	x0,x0,0	  x0:0x00000000
       51215000	      5120	80000128	00000013	addi	x0,x0,0	  x0:0x00000000
       51225000	      5121	8000012c	018000ef	jal	x1,8000012c	  x1=0x8000012c
       51235000	      5122	00000000	00000013	addi	x0,x0,0	  x0:0x00000000
       51245000	      5123	80000140	00000013	addi	x0,x0,0	  x0:0x00000000
       51255000	      5124	80000144	018000ef	jal	x1,80000144	  x1=0x80000144
       51265000	      5125	00000000	00000013	addi	x0,x0,0	  x0:0x00000000
       51275000	      5126	80000158	00000013	addi	x0,x0,0	  x0:0x00000000
       51285000	      5127	8000015c	40508d33	sub	x26,x1,x5	  x1:0x80000144  x5:0x00000000 x26=0x80000144
       51295000	      5128	80000160	03f77063	bgeu	x14,x31,80000180	 x14:0x80004608 x31:0x00442806
       51305000	      5129	00000000	00000013	addi	x0,x0,0	  x0:0x00000000
       51315000	      5130	8000017c	00000013	addi	x0,x0,0	  x0:0x00000000
       51325000	      5131	80000180	01f51a13	slli	x20,x10,0x1f	 x10:0x80009f84 x20=0x00000000
       51335000	      5132	80000184	00d42433	slt	x8,x8,x13	  x8:0x3e6edac6 x13:0x3e6eded7  x8=0x00000001
       51345000	      5133	80000188	b494be13	sltiu	x28,x9,-1207	  x9:0x000088fc x28=0x00000001
       51355000	      5134	8000018c	e5fc3717	auipc	x14,0xe5fc3	 x14=0x65fc3188
       51365000	      5135	80000190	00004117	auipc	x2,0x4	  x2=0x8000418c
       51375000	      5136	80000194	10010113	addi	x2,x2,256	  x2:0x8000418c  x2=0x8000428c
       51385000	      5137	80000198	00000013	addi	x0,x0,0	  x0:0x00000000
       51395000	      5138	8000019c	38910113	addi	x2,x2,905	  x2:0x8000428c  x2=0x80004615
       51405000	      5139	800001a0	011cd213	srli	x4,x25,0x11	 x25:0xfffffd5c  x4=0x00007fff
       51415000	      5140	800001a4	0088f9b3	and	x19,x17,x8	 x17:0x80009f44  x8:0x00000001 x19=0x00000000
       51425000	      5141	800001a8	c7710d67	jalr	x26,x2,-905	  x2:0x80004615 x26=0x800001a8
       51435000	      5142	00000000	00000013	addi	x0,x0,0	  x0:0x00000000
       51445000	      5143	8000428c	00000013	addi	x0,x0,0	  x0:0x00000000
       51455000	      5144	80004290	01dc0fb3	add	x31,x24,x29	 x24:0x5350fec1 x29:0x00000000 x31=0x5350fec1
       51465000	      5145	80004294	01f07463	bgeu	x0,x31,8000429c	  x0:0x00000000 x31:0x5350fec1
       51475000	      5146	80004298	01fed9b3	srl	x19,x29,x31	 x29:0x00000000 x31:0x5350fec1 x19=0x00000000
       51485000	      5147	8000429c	fc050513	addi	x10,x10,-64	 x10:0x80009f84 x10=0x80009f44
       51495000	      5148	800042a0	00000013	addi	x0,x0,0	  x0:0x00000000
       51505000	      5149	800042a4	004228b3	slt	x17,x4,x4	  x4:0x00007fff  x4:0x00007fff x17=0x00000000
       51515000	      5150	800042a8	f3a4f913	andi	x18,x9,-198	  x9:0x000088fc x18=0x00008838
       51525000	      5151	800042ac	4c3a2893	slti	x17,x20,1219	 x20:0x00000000 x17=0x00000001
       51535000	      5152	800042b0	019c9a33	sll	x20,x25,x25	 x25:0xfffffd5c x25:0xfffffd5c x20=0xc0000000
       51545000	      5153	800042b4	01695893	srli	x17,x18,0x16	 x18:0x00008838 x17=0x00000000
       51555000	      5154	800042b8	005632b3	sltu	x5,x12,x5	 x12:0x91696cd0  x5:0x00000000  x5=0x00000000
       51565000	      5155	800042bc	01a52223	sw	x26,4(x10)	 x10:0x80009f44 x26:0x800001a8 PA:0x80009f48
       51575000	      5156	800042c0	7027b897	auipc	x17,0x7027b	 x17=0xf027f2bc
       51585000	      5157	800042c4	4001dd13	srai	x26,x3,0x0	  x3:0x80000140 x26=0x80000140
       51595000	      5158	800042c8	01c657b3	srl	x15,x12,x28	 x12:0x91696cd0 x28:0x00000001 x15=0x48b4b668
       51605000	      5159	800042cc	5cf8cb97	auipc	x23,0x5cf8c	 x23=0xdcf902c8
       51615000	      5160	800042d0	00000013	addi	x0,x0,0	  x0:0x00000000
       51625000	      5161	800042d4	419f5d33	sra	x26,x30,x25	 x30:0x85e80000 x25:0xfffffd5c x26=0xfffffff8
       51635000	      5162	800042d8	1dc00d6f	jal	x26,800042d8	 x26=0x800042d8
       51645000	      5163	00000000	00000013	addi	x0,x0,0	  x0:0x00000000
       51655000	      5164	800044b0	00000013	addi	x0,x0,0	  x0:0x00000000
       51665000	      5165	800044b4	00111433	sll	x8,x2,x1	  x2:0x80004615  x1:0x80000144  x8=0x00046150
       51675000	      5166	800044b8	013c5193	srli	x3,x24,0x13	 x24:0x5350fec1  x3=0x00000a6a
       51685000	      5167	800044bc	9e6c43b7	lui	x7,0x9e6c4	  x7=0x9e6c4000
       51695000	      5168	800044c0	68d22b13	slti	x22,x4,1677	  x4:0x00007fff x22=0x00000000
       51705000	      5169	800044c4	00000013	addi	x0,x0,0	  x0:0x00000000
       51715000	      5170	800044c8	01c47463	bgeu	x8,x28,800044d0	  x8:0x00046150 x28:0x00000001
       51725000	      5171	00000000	00000013	addi	x0,x0,0	  x0:0x00000000
       51735000	      5172	800044cc	00000013	addi	x0,x0,0	  x0:0x00000000
       51745000	      5173	800044d0	ff850513	addi	x10,x10,-8	 x10:0x80009f44 x10=0x80009f3c
       51755000	      5174	800044d4	6c2dfa13	andi	x20,x27,1730	 x27:0x800044b0 x20=0x00000480
       51765000	      5175	800044d8	01a52223	sw	x26,4(x10)	 x10:0x80009f3c x26:0x800042d8 PA:0x80009f40
       51775000	      5176	800044dc	2ae9b713	sltiu	x14,x19,686	 x19:0x00000000 x14=0x00000001
       51785000	      5177	800044e0	3f85a713	slti	x14,x11,1016	 x11:0x22140304 x14=0x00000000
       51795000	      5178	800044e4	5df1a713	slti	x14,x3,1503	  x3:0x00000a6a x14=0x00000000
       51805000	      5179	800044e8	00000013	addi	x0,x0,0	  x0:0x00000000
       51815000	      5180	800044ec	414dda13	srai	x20,x27,0x14	 x27:0x800044b0 x20=0xfffff800
       51825000	      5181	800044f0	403c8e33	sub	x28,x25,x3	 x25:0xfffffd5c  x3:0x00000a6a x28=0xfffff2f2
       51835000	      5182	800044f4	419602b3	sub	x5,x12,x25	 x12:0x91696cd0 x25:0xfffffd5c  x5=0x91696f74
       51845000	      5183	800044f8	7f010193	addi	x3,x2,2032	  x2:0x80004615  x3=0x80004e05
       51855000	      5184	800044fc	00cc1833	sll	x16,x24,x12	 x24:0x5350fec1 x12:0x91696cd0 x16=0xfec10000
       51865000	      5185	80004500	405903b3	sub	x7,x18,x5	 x18:0x00008838  x5:0x91696f74  x7=0x6e9718c4
       51875000	      5186	80004504	63473a13	sltiu	x20,x14,1588	 x14:0x00000000 x20=0x00000001
       51885000	      5187	80004508	437de717	auipc	x14,0x437de	 x14=0xc37e2504
       51895000	      5188	8000450c	cd5fbd6f	jal	x26,8000450c	 x26=0x8000450c
       51905000	      5189	00000000	00000013	addi	x0,x0,0	  x0:0x00000000
       51915000	      5190	800001dc	00000013	addi	x0,x0,0	  x0:0x00000000
       51925000	      5191	800001e0	00695463	bge	x18,x6,800001e8	 x18:0x00008838  x6:0x80009fc4
       51935000	      5192	00000000	00000013	addi	x0,x0,0	  x0:0x00000000
       51945000	      5193	800001e4	00000013	addi	x0,x0,0	  x0:0x00000000
       51955000	      5194	800001e8	fe850513	addi	x10,x10,-24	 x10:0x80009f3c x10=0x80009f24
       51965000	      5195	800001ec	782a6f93	ori	x31,x20,1922	 x20:0x00000001 x31=0x00000783
       51975000	      5196	800001f0	af6dad93	slti	x27,x27,-1290	 x27:0x800044b0 x27=0x00000001
       51985000	      5197	800001f4	018e7fb3	and	x31,x28,x24	 x28:0xfffff2f2 x24:0x5350fec1 x31=0x5350f2c0
       51995000	      5198	800001f8	01039933	sll	x18,x7,x16	  x7:0x6e9718c4 x16:0xfec10000 x18=0x6e9718c4
       52005000	      5199	800001fc	01a52223	sw	x26,4(x10)	 x10:0x80009f24 x26:0x8000450c PA:0x80009f28
       52015000	      5200	80000200	d995eb13	ori	x22,x11,-615	 x11:0x22140304 x22=0xffffff9d
       52025000	      5201	80000204	01400d6f	jal	x26,80000204	 x26=0x80000204
       52035000	      5202	00000000	00000013	addi	x0,x0,0	  x0:0x00000000
       52045000	      5203	80000214	00000013	addi	x0,x0,0	  x0:0x00000000
       52055000	      5204	80000218	030000ef	jal	x1,80000218	  x1=0x80000218
       52065000	      5205	00000000	00000013	addi	x0,x0,0	  x0:0x00000000
       52075000	      5206	80000244	00000013	addi	x0,x0,0	  x0:0x00000000
       52085000	      5207	80000248	020000ef	jal	x1,80000248	  x1=0x80000248
       52095000	      5208	00000000	00000013	addi	x0,x0,0	  x0:0x00000000
       52105000	      5209	80000264	00000013	addi	x0,x0,0	  x0:0x00000000
       52115000	      5210	80000268	fb9ff0ef	jal	x1,80000268	  x1=0x80000268
       52125000	      5211	00000000	00000013	addi	x0,x0,0	  x0:0x00000000
       52135000	      5212	8000021c	00000013	addi	x0,x0,0	  x0:0x00000000
       52145000	      5213	80000220	04c000ef	jal	x1,80000220	  x1=0x80000220
       52155000	      5214	00000000	00000013	addi	x0,x0,0	  x0:0x00000000
       52165000	      5215	80000268	00000013	addi	x0,x0,0	  x0:0x00000000
       52175000	      5216	8000026c	fe9ff3ef	jal	x7,8000026c	  x7=0x8000026c
       52185000	      5217	00000000	00000013	addi	x0,x0,0	  x0:0x00000000
       52195000	      5218	80000250	00000013	addi	x0,x0,0	  x0:0x00000000
       52205000	      5219	80000254	004000ef	jal	x1,80000254	  x1=0x80000254
       52215000	      5220	00000000	00000013	addi	x0,x0,0	  x0:0x00000000
       52225000	      5221	80000254	00000013	addi	x0,x0,0	  x0:0x00000000
       52235000	      5222	80000258	fbdff86f	jal	x16,80000258	 x16=0x80000258
       52245000	      5223	00000000	00000013	addi	x0,x0,0	  x0:0x00000000
       52255000	      5224	80000210	00000013	addi	x0,x0,0	  x0:0x00000000
       52265000	      5225	80000214	05000b6f	jal	x22,80000214	 x22=0x80000214
       52275000	      5226	00000000	00000013	addi	x0,x0,0	  x0:0x00000000
       52285000	      5227	80000260	00000013	addi	x0,x0,0	  x0:0x00000000
       52295000	      5228	80000264	ff9ff3ef	jal	x7,80000264	  x7=0x80000264
       52305000	      5229	00000000	00000013	addi	x0,x0,0	  x0:0x00000000
       52315000	      5230	80000258	00000013	addi	x0,x0,0	  x0:0x00000000
       52325000	      5231	8000025c	fcdff46f	jal	x8,8000025c	  x8=0x8000025c
       52335000	      5232	00000000	00000013	addi	x0,x0,0	  x0:0x00000000
       52345000	      5233	80000224	00000013	addi	x0,x0,0	  x0:0x00000000
       52355000	      5234	80000228	00c0016f	jal	x2,80000228	  x2=0x80000228
       52365000	      5235	00000000	00000013	addi	x0,x0,0	  x0:0x00000000
       52375000	      5236	80000230	00000013	addi	x0,x0,0	  x0:0x00000000
       52385000	      5237	80000234	ffdff0ef	jal	x1,80000234	  x1=0x80000234
       52395000	      5238	00000000	00000013	addi	x0,x0,0	  x0:0x00000000
       52405000	      5239	8000022c	00000013	addi	x0,x0,0	  x0:0x00000000
       52415000	      5240	80000230	008000ef	jal	x1,80000230	  x1=0x80000230
       52425000	      5241	00000000	00000013	addi	x0,x0,0	  x0:0x00000000
       52435000	      5242	80000234	00000013	addi	x0,x0,0	  x0:0x00000000
       52445000	      5243	80000238	fd1ff0ef	jal	x1,80000238	  x1=0x80000238
       52455000	      5244	00000000	00000013	addi	x0,x0,0	  x0:0x00000000
       52465000	      5245	80000204	00000013	addi	x0,x0,0	  x0:0x00000000
       52475000	      5246	80000208	02400cef	jal	x25,80000208	 x25=0x80000208
       52485000	      5247	00000000	00000013	addi	x0,x0,0	  x0:0x00000000
       52495000	      5248	80000228	00000013	addi	x0,x0,0	  x0:0x00000000
       52505000	      5249	8000022c	024007ef	jal	x15,8000022c	 x15=0x8000022c
       52515000	      5250	00000000	00000013	addi	x0,x0,0	  x0:0x00000000
       52525000	      5251	8000024c	00000013	addi	x0,x0,0	  x0:0x00000000
       52535000	      5252	80000250	fedff0ef	jal	x1,80000250	  x1=0x80000250
       52545000	      5253	00000000	00000013	addi	x0,x0,0	  x0:0x00000000
       52555000	      5254	80000238	00000013	addi	x0,x0,0	  x0:0x00000000
       52565000	      5255	8000023c	fe1ff26f	jal	x4,8000023c	  x4=0x8000023c
       52575000	      5256	00000000	00000013	addi	x0,x0,0	  x0:0x00000000
       52585000	      5257	80000218	00000013	addi	x0,x0,0	  x0:0x00000000
       52595000	      5258	8000021c	044000ef	jal	x1,8000021c	  x1=0x8000021c
       52605000	      5259	00000000	00000013	addi	x0,x0,0	  x0:0x00000000
       52615000	      5260	8000025c	00000013	addi	x0,x0,0	  x0:0x00000000
       52625000	      5261	80000260	fadffbef	jal	x23,80000260	 x23=0x80000260
       52635000	      5262	00000000	00000013	addi	x0,x0,0	  x0:0x00000000
       52645000	      5263	80000208	00000013	addi	x0,x0,0	  x0:0x00000000
       52655000	      5264	8000020c	038000ef	jal	x1,8000020c	  x1=0x8000020c
       52665000	      5265	00000000	00000013	addi	x0,x0,0	  x0:0x00000000
       52675000	      5266	80000240	00000013	addi	x0,x0,0	  x0:0x00000000
       52685000	      5267	80000244	008000ef	jal	x1,80000244	  x1=0x80000244
       52695000	      5268	00000000	00000013	addi	x0,x0,0	  x0:0x00000000
       52705000	      5269	80000248	00000013	addi	x0,x0,0	  x0:0x00000000
       52715000	      5270	8000024c	fc5ff0ef	jal	x1,8000024c	  x1=0x8000024c
       52725000	      5271	00000000	00000013	addi	x0,x0,0	  x0:0x00000000
       52735000	      5272	8000020c	00000013	addi	x0,x0,0	  x0:0x00000000
       52745000	      5273	80000210	01400b6f	jal	x22,80000210	 x22=0x80000210
       52755000	      5274	00000000	00000013	addi	x0,x0,0	  x0:0x00000000
       52765000	      5275	80000220	00000013	addi	x0,x0,0	  x0:0x00000000
       52775000	      5276	80000224	01c000ef	jal	x1,80000224	  x1=0x80000224
       52785000	      5277	00000000	00000013	addi	x0,x0,0	  x0:0x00000000
       52795000	      5278	8000023c	00000013	addi	x0,x0,0	  x0:0x00000000
       52805000	      5279	80000240	030004ef	jal	x9,80000240	  x9=0x80000240
       52815000	      5280	00000000	00000013	addi	x0,x0,0	  x0:0x00000000
       52825000	      5281	8000026c	00000013	addi	x0,x0,0	  x0:0x00000000
       52835000	      5282	80000270	01c52ab3	slt	x21,x10,x28	 x10:0x80009f24 x28:0xfffff2f2 x21=0x00000001
       52845000	      5283	80000274	01400d6f	jal	x26,80000274	 x26=0x80000274
       52855000	      5284	00000000	00000013	addi	x0,x0,0	  x0:0x00000000
       52865000	      5285	80000284	00000013	addi	x0,x0,0	  x0:0x00000000
       52875000	      5286	80000288	00c0016f	jal	x2,80000288	  x2=0x80000288
       52885000	      5287	00000000	00000013	addi	x0,x0,0	  x0:0x00000000
       52895000	      5288	80000290	00000013	addi	x0,x0,0	  x0:0x00000000
       52905000	      5289	80000294	ffdff0ef	jal	x1,80000294	  x1=0x80000294
       52915000	      5290	00000000	00000013	addi	x0,x0,0	  x0:0x00000000
       52925000	      5291	8000028c	00000013	addi	x0,x0,0	  x0:0x00000000
       52935000	      5292	80000290	00c000ef	jal	x1,80000290	  x1=0x80000290
       52945000	      5293	00000000	00000013	addi	x0,x0,0	  x0:0x00000000
       52955000	      5294	80000298	00000013	addi	x0,x0,0	  x0:0x00000000
       52965000	      5295	8000029c	fe9ff46f	jal	x8,8000029c	  x8=0x8000029c
       52975000	      5296	00000000	00000013	addi	x0,x0,0	  x0:0x00000000
       52985000	      5297	80000280	00000013	addi	x0,x0,0	  x0:0x00000000
       52995000	      5298	80000284	014000ef	jal	x1,80000284	  x1=0x80000284
       53005000	      5299	00000000	00000013	addi	x0,x0,0	  x0:0x00000000
       53015000	      5300	80000294	00000013	addi	x0,x0,0	  x0:0x00000000
       53025000	      5301	80000298	fe9ff0ef	jal	x1,80000298	  x1=0x80000298
       53035000	      5302	00000000	00000013	addi	x0,x0,0	  x0:0x00000000
       53045000	      5303	8000027c	00000013	addi	x0,x0,0	  x0:0x00000000
       53055000	      5304	80000280	ffdff0ef	jal	x1,80000280	  x1=0x80000280
       53065000	      5305	00000000	00000013	addi	x0,x0,0	  x0:0x00000000
       53075000	      5306	80000278	00000013	addi	x0,x0,0	  x0:0x00000000
       53085000	      5307	8000027c	ffdff0ef	jal	x1,8000027c	  x1=0x8000027c
       53095000	      5308	00000000	00000013	addi	x0,x0,0	  x0:0x00000000
       53105000	      5309	80000274	00000013	addi	x0,x0,0	  x0:0x00000000
       53115000	      5310	80000278	014000ef	jal	x1,80000278	  x1=0x80000278
       53125000	      5311	00000000	00000013	addi	x0,x0,0	  x0:0x00000000
       53135000	      5312	80000288	00000013	addi	x0,x0,0	  x0:0x00000000
       53145000	      5313	8000028c	014000ef	jal	x1,8000028c	  x1=0x8000028c
       53155000	      5314	00000000	00000013	addi	x0,x0,0	  x0:0x00000000
       53165000	      5315	8000029c	00000013	addi	x0,x0,0	  x0:0x00000000
       53175000	      5316	800002a0	40c1db13	srai	x22,x3,0xc	  x3:0x80004e05 x22=0xfff80004
       53185000	      5317	800002a4	00c00d6f	jal	x26,800002a4	 x26=0x800002a4
       53195000	      5318	00000000	00000013	addi	x0,x0,0	  x0:0x00000000
       53205000	      5319	800002ac	00000013	addi	x0,x0,0	  x0:0x00000000
       53215000	      5320	800002b0	04800aef	jal	x21,800002b0	 x21=0x800002b0
       53225000	      5321	00000000	00000013	addi	x0,x0,0	  x0:0x00000000
       53235000	      5322	800002f4	00000013	addi	x0,x0,0	  x0:0x00000000
       53245000	      5323	800002f8	fbdffdef	jal	x27,800002f8	 x27=0x800002f8
       53255000	      5324	00000000	00000013	addi	x0,x0,0	  x0:0x00000000
       53265000	      5325	800002b0	00000013	addi	x0,x0,0	  x0:0x00000000
       53275000	      5326	800002b4	040000ef	jal	x1,800002b4	  x1=0x800002b4
       53285000	      5327	00000000	00000013	addi	x0,x0,0	  x0:0x00000000
       53295000	      5328	800002f0	00000013	addi	x0,x0,0	  x0:0x00000000
       53305000	      5329	800002f4	fb9ff0ef	jal	x1,800002f4	  x1=0x800002f4
       53315000	      5330	00000000	00000013	addi	x0,x0,0	  x0:0x00000000
       53325000	      5331	800002a8	00000013	addi	x0,x0,0	  x0:0x00000000
       53335000	      5332	800002ac	024000ef	jal	x1,800002ac	  x1=0x800002ac
       53345000	      5333	00000000	00000013	addi	x0,x0,0	  x0:0x00000000
       53355000	      5334	800002cc	00000013	addi	x0,x0,0	  x0:0x00000000
       53365000	      5335	800002d0	004005ef	jal	x11,800002d0	 x11=0x800002d0
       53375000	      5336	00000000	00000013	addi	x0,x0,0	  x0:0x00000000
       53385000	      5337	800002d0	00000013	addi	x0,x0,0	  x0:0x00000000
       53395000	      5338	800002d4	ff1ff0ef	jal	x1,800002d4	  x1=0x800002d4
       53405000	      5339	00000000	00000013	addi	x0,x0,0	  x0:0x00000000
       53415000	      5340	800002c0	00000013	addi	x0,x0,0	  x0:0x00000000
       53425000	      5341	800002c4	018000ef	jal	x1,800002c4	  x1=0x800002c4
       53435000	      5342	00000000	00000013	addi	x0,x0,0	  x0:0x00000000
       53445000	      5343	800002d8	00000013	addi	x0,x0,0	  x0:0x00000000
       53455000	      5344	800002dc	030000ef	jal	x1,800002dc	  x1=0x800002dc
       53465000	      5345	00000000	00000013	addi	x0,x0,0	  x0:0x00000000
       53475000	      5346	80000308	00000013	addi	x0,x0,0	  x0:0x00000000
       53485000	      5347	8000030c	ff9ff0ef	jal	x1,8000030c	  x1=0x8000030c
       53495000	      5348	00000000	00000013	addi	x0,x0,0	  x0:0x00000000
       53505000	      5349	80000300	00000013	addi	x0,x0,0	  x0:0x00000000
       53515000	      5350	80000304	fb5ff0ef	jal	x1,80000304	  x1=0x80000304
       53525000	      5351	00000000	00000013	addi	x0,x0,0	  x0:0x00000000
       53535000	      5352	800002b4	00000013	addi	x0,x0,0	  x0:0x00000000
       53545000	      5353	800002b8	0480016f	jal	x2,800002b8	  x2=0x800002b8
       53555000	      5354	00000000	00000013	addi	x0,x0,0	  x0:0x00000000
       53565000	      5355	800002fc	00000013	addi	x0,x0,0	  x0:0x00000000
       53575000	      5356	80000300	fc1fff6f	jal	x30,80000300	 x30=0x80000300
       53585000	      5357	00000000	00000013	addi	x0,x0,0	  x0:0x00000000
       53595000	      5358	800002bc	00000013	addi	x0,x0,0	  x0:0x00000000
       53605000	      5359	800002c0	02400e6f	jal	x28,800002c0	 x28=0x800002c0
       53615000	      5360	00000000	00000013	addi	x0,x0,0	  x0:0x00000000
       53625000	      5361	800002e0	00000013	addi	x0,x0,0	  x0:0x00000000
       53635000	      5362	800002e4	004000ef	jal	x1,800002e4	  x1=0x800002e4
       53645000	      5363	00000000	00000013	addi	x0,x0,0	  x0:0x00000000
       53655000	      5364	800002e4	00000013	addi	x0,x0,0	  x0:0x00000000
       53665000	      5365	800002e8	008000ef	jal	x1,800002e8	  x1=0x800002e8
       53675000	      5366	00000000	00000013	addi	x0,x0,0	  x0:0x00000000
       53685000	      5367	800002ec	00000013	addi	x0,x0,0	  x0:0x00000000
       53695000	      5368	800002f0	fb9ff26f	jal	x4,800002f0	  x4=0x800002f0
       53705000	      5369	00000000	00000013	addi	x0,x0,0	  x0:0x00000000
       53715000	      5370	800002a4	00000013	addi	x0,x0,0	  x0:0x00000000
       53725000	      5371	800002a8	038000ef	jal	x1,800002a8	  x1=0x800002a8
       53735000	      5372	00000000	00000013	addi	x0,x0,0	  x0:0x00000000
       53745000	      5373	800002dc	00000013	addi	x0,x0,0	  x0:0x00000000
       53755000	      5374	800002e0	0280026f	jal	x4,800002e0	  x4=0x800002e0
       53765000	      5375	00000000	00000013	addi	x0,x0,0	  x0:0x00000000
       53775000	      5376	80000304	00000013	addi	x0,x0,0	  x0:0x00000000
       53785000	      5377	80000308	fb5ff0ef	jal	x1,80000308	  x1=0x80000308
       53795000	      5378	00000000	00000013	addi	x0,x0,0	  x0:0x00000000
       53805000	      5379	800002b8	00000013	addi	x0,x0,0	  x0:0x00000000
       53815000	      5380	800002bc	04000eef	jal	x29,800002bc	 x29=0x800002bc
       53825000	      5381	00000000	00000013	addi	x0,x0,0	  x0:0x00000000
       53835000	      5382	800002f8	00000013	addi	x0,x0,0	  x0:0x00000000
       53845000	      5383	800002fc	fcdff0ef	jal	x1,800002fc	  x1=0x800002fc
       53855000	      5384	00000000	00000013	addi	x0,x0,0	  x0:0x00000000
       53865000	      5385	800002c4	00000013	addi	x0,x0,0	  x0:0x00000000
       53875000	      5386	800002c8	00400e6f	jal	x28,800002c8	 x28=0x800002c8
       53885000	      5387	00000000	00000013	addi	x0,x0,0	  x0:0x00000000
       53895000	      5388	800002c8	00000013	addi	x0,x0,0	  x0:0x00000000
       53905000	      5389	800002cc	00c000ef	jal	x1,800002cc	  x1=0x800002cc
       53915000	      5390	00000000	00000013	addi	x0,x0,0	  x0:0x00000000
       53925000	      5391	800002d4	00000013	addi	x0,x0,0	  x0:0x00000000
       53935000	      5392	800002d8	01400bef	jal	x23,800002d8	 x23=0x800002d8
       53945000	      5393	00000000	00000013	addi	x0,x0,0	  x0:0x00000000
       53955000	      5394	800002e8	00000013	addi	x0,x0,0	  x0:0x00000000
       53965000	      5395	800002ec	024000ef	jal	x1,800002ec	  x1=0x800002ec
       53975000	      5396	00000000	00000013	addi	x0,x0,0	  x0:0x00000000
       53985000	      5397	8000030c	00000013	addi	x0,x0,0	  x0:0x00000000
       53995000	      5398	80000310	d091a713	slti	x14,x3,-759	  x3:0x80004e05 x14=0x00000001
       54005000	      5399	80000314	06400d6f	jal	x26,80000314	 x26=0x80000314
       54015000	      5400	00000000	00000013	addi	x0,x0,0	  x0:0x00000000
       54025000	      5401	80000374	00000013	addi	x0,x0,0	  x0:0x00000000
       54035000	      5402	80000378	fe9ff16f	jal	x2,80000378	  x2=0x80000378
       54045000	      5403	00000000	00000013	addi	x0,x0,0	  x0:0x00000000
       54055000	      5404	8000035c	00000013	addi	x0,x0,0	  x0:0x00000000
       54065000	      5405	80000360	fc5ff0ef	jal	x1,80000360	  x1=0x80000360
       54075000	      5406	00000000	00000013	addi	x0,x0,0	  x0:0x00000000
       54085000	      5407	80000320	00000013	addi	x0,x0,0	  x0:0x00000000
       54095000	      5408	80000324	050002ef	jal	x5,80000324	  x5=0x80000324
       54105000	      5409	00000000	00000013	addi	x0,x0,0	  x0:0x00000000
       54115000	      5410	80000370	00000013	addi	x0,x0,0	  x0:0x00000000
       54125000	      5411	80000374	ff9ff0ef	jal	x1,80000374	  x1=0x80000374
       54135000	      5412	00000000	00000013	addi	x0,x0,0	  x0:0x00000000
       54145000	      5413	80000368	00000013	addi	x0,x0,0	  x0:0x00000000
       54155000	      5414	8000036c	fadff0ef	jal	x1,8000036c	  x1=0x8000036c
       54165000	      5415	00000000	00000013	addi	x0,x0,0	  x0:0x00000000
       54175000	      5416	80000314	00000013	addi	x0,x0,0	  x0:0x00000000
       54185000	      5417	80000318	05800fef	jal	x31,80000318	 x31=0x80000318
       54195000	      5418	00000000	00000013	addi	x0,x0,0	  x0:0x00000000
       54205000	      5419	8000036c	00000013	addi	x0,x0,0	  x0:0x00000000
       54215000	      5420	80000370	fd1ff0ef	jal	x1,80000370	  x1=0x80000370
       54225000	      5421	00000000	00000013	addi	x0,x0,0	  x0:0x00000000
       54235000	      5422	8000033c	00000013	addi	x0,x0,0	  x0:0x00000000
       54245000	      5423	80000340	ff9ff0ef	jal	x1,80000340	  x1=0x80000340
       54255000	      5424	00000000	00000013	addi	x0,x0,0	  x0:0x00000000
       54265000	      5425	80000334	00000013	addi	x0,x0,0	  x0:0x00000000
       54275000	      5426	80000338	014000ef	jal	x1,80000338	  x1=0x80000338
       54285000	      5427	00000000	00000013	addi	x0,x0,0	  x0:0x00000000
       54295000	      5428	80000348	00000013	addi	x0,x0,0	  x0:0x00000000
       54305000	      5429	8000034c	fe5ff0ef	jal	x1,8000034c	  x1=0x8000034c
       54315000	      5430	00000000	00000013	addi	x0,x0,0	  x0:0x00000000
       54325000	      5431	8000032c	00000013	addi	x0,x0,0	  x0:0x00000000
       54335000	      5432	80000330	004000ef	jal	x1,80000330	  x1=0x80000330
       54345000	      5433	00000000	00000013	addi	x0,x0,0	  x0:0x00000000
       54355000	      5434	80000330	00000013	addi	x0,x0,0	  x0:0x00000000
       54365000	      5435	80000334	fedff0ef	jal	x1,80000334	  x1=0x80000334
       54375000	      5436	00000000	00000013	addi	x0,x0,0	  x0:0x00000000
       54385000	      5437	8000031c	00000013	addi	x0,x0,0	  x0:0x00000000
       54395000	      5438	80000320	008000ef	jal	x1,80000320	  x1=0x80000320
       54405000	      5439	00000000	00000013	addi	x0,x0,0	  x0:0x00000000
       54415000	      5440	80000324	00000013	addi	x0,x0,0	  x0:0x00000000
       54425000	      5441	80000328	0140016f	jal	x2,80000328	  x2=0x80000328
       54435000	      5442	00000000	00000013	addi	x0,x0,0	  x0:0x00000000
       54445000	      5443	80000338	00000013	addi	x0,x0,0	  x0:0x00000000
       54455000	      5444	8000033c	00c000ef	jal	x1,8000033c	  x1=0x8000033c
       54465000	      5445	00000000	00000013	addi	x0,x0,0	  x0:0x00000000
       54475000	      5446	80000344	00000013	addi	x0,x0,0	  x0:0x00000000
       54485000	      5447	80000348	010000ef	jal	x1,80000348	  x1=0x80000348
       54495000	      5448	00000000	00000013	addi	x0,x0,0	  x0:0x00000000
       54505000	      5449	80000354	00000013	addi	x0,x0,0	  x0:0x00000000
       54515000	      5450	80000358	00c000ef	jal	x1,80000358	  x1=0x80000358
       54525000	      5451	00000000	00000013	addi	x0,x0,0	  x0:0x00000000
       54535000	      5452	80000360	00000013	addi	x0,x0,0	  x0:0x00000000
       54545000	      5453	80000364	00400b6f	jal	x22,80000364	 x22=0x80000364
       54555000	      5454	00000000	00000013	addi	x0,x0,0	  x0:0x00000000
       54565000	      5455	80000364	00000013	addi	x0,x0,0	  x0:0x00000000
       54575000	      5456	80000368	fc5ff0ef	jal	x1,80000368	  x1=0x80000368
       54585000	      5457	00000000	00000013	addi	x0,x0,0	  x0:0x00000000
       54595000	      5458	80000328	00000013	addi	x0,x0,0	  x0:0x00000000
       54605000	      5459	8000032c	054000ef	jal	x1,8000032c	  x1=0x8000032c
       54615000	      5460	00000000	00000013	addi	x0,x0,0	  x0:0x00000000
       54625000	      5461	8000037c	00000013	addi	x0,x0,0	  x0:0x00000000
       54635000	      5462	80000380	ffdff0ef	jal	x1,80000380	  x1=0x80000380
       54645000	      5463	00000000	00000013	addi	x0,x0,0	  x0:0x00000000
       54655000	      5464	80000378	00000013	addi	x0,x0,0	  x0:0x00000000
       54665000	      5465	8000037c	0080086f	jal	x16,8000037c	 x16=0x8000037c
       54675000	      5466	00000000	00000013	addi	x0,x0,0	  x0:0x00000000
       54685000	      5467	80000380	00000013	addi	x0,x0,0	  x0:0x00000000
       54695000	      5468	80000384	fd9ffbef	jal	x23,80000384	 x23=0x80000384
       54705000	      5469	00000000	00000013	addi	x0,x0,0	  x0:0x00000000
       54715000	      5470	80000358	00000013	addi	x0,x0,0	  x0:0x00000000
       54725000	      5471	8000035c	fc1ff0ef	jal	x1,8000035c	  x1=0x8000035c
       54735000	      5472	00000000	00000013	addi	x0,x0,0	  x0:0x00000000
       54745000	      5473	80000318	00000013	addi	x0,x0,0	  x0:0x00000000
       54755000	      5474	8000031c	034000ef	jal	x1,8000031c	  x1=0x8000031c
       54765000	      5475	00000000	00000013	addi	x0,x0,0	  x0:0x00000000
       54775000	      5476	8000034c	00000013	addi	x0,x0,0	  x0:0x00000000
       54785000	      5477	80000350	004000ef	jal	x1,80000350	  x1=0x80000350
       54795000	      5478	00000000	00000013	addi	x0,x0,0	  x0:0x00000000
       54805000	      5479	80000350	00000013	addi	x0,x0,0	  x0:0x00000000
       54815000	      5480	80000354	ff1ffd6f	jal	x26,80000354	 x26=0x80000354
       54825000	      5481	00000000	00000013	addi	x0,x0,0	  x0:0x00000000
       54835000	      5482	80000340	00000013	addi	x0,x0,0	  x0:0x00000000
       54845000	      5483	80000344	0440046f	jal	x8,80000344	  x8=0x80000344
       54855000	      5484	00000000	00000013	addi	x0,x0,0	  x0:0x00000000
       54865000	      5485	80000384	00000013	addi	x0,x0,0	  x0:0x00000000
       54875000	      5486	80000388	00e95413	srli	x8,x18,0xe	 x18:0x6e9718c4  x8=0x0001ba5c
       54885000	      5487	8000038c	02800d6f	jal	x26,8000038c	 x26=0x8000038c
       54895000	      5488	00000000	00000013	addi	x0,x0,0	  x0:0x00000000
       54905000	      5489	800003b0	00000013	addi	x0,x0,0	  x0:0x00000000
       54915000	      5490	800003b4	0180026f	jal	x4,800003b4	  x4=0x800003b4
       54925000	      5491	00000000	00000013	addi	x0,x0,0	  x0:0x00000000
       54935000	      5492	800003c8	00000013	addi	x0,x0,0	  x0:0x00000000
       54945000	      5493	800003cc	01c000ef	jal	x1,800003cc	  x1=0x800003cc
       54955000	      5494	00000000	00000013	addi	x0,x0,0	  x0:0x00000000
       54965000	      5495	800003e4	00000013	addi	x0,x0,0	  x0:0x00000000
       54975000	      5496	800003e8	fe1ff0ef	jal	x1,800003e8	  x1=0x800003e8
       54985000	      5497	00000000	00000013	addi	x0,x0,0	  x0:0x00000000
       54995000	      5498	800003c4	00000013	addi	x0,x0,0	  x0:0x00000000
       55005000	      5499	800003c8	fcdff0ef	jal	x1,800003c8	  x1=0x800003c8
       55015000	      5500	00000000	00000013	addi	x0,x0,0	  x0:0x00000000
       55025000	      5501	80000390	00000013	addi	x0,x0,0	  x0:0x00000000
       55035000	      5502	80000394	0400086f	jal	x16,80000394	 x16=0x80000394
       55045000	      5503	00000000	00000013	addi	x0,x0,0	  x0:0x00000000
       55055000	      5504	800003d0	00000013	addi	x0,x0,0	  x0:0x00000000
       55065000	      5505	800003d4	fc5ff26f	jal	x4,800003d4	  x4=0x800003d4
       55075000	      5506	00000000	00000013	addi	x0,x0,0	  x0:0x00000000
       55085000	      5507	80000394	00000013	addi	x0,x0,0	  x0:0x00000000
       55095000	      5508	80000398	0480066f	jal	x12,80000398	 x12=0x80000398
       55105000	      5509	00000000	00000013	addi	x0,x0,0	  x0:0x00000000
       55115000	      5510	800003dc	00000013	addi	x0,x0,0	  x0:0x00000000
       55125000	      5511	800003e0	ff1ffc6f	jal	x24,800003e0	 x24=0x800003e0
       55135000	      5512	00000000	00000013	addi	x0,x0,0	  x0:0x00000000
       55145000	      5513	800003cc	00000013	addi	x0,x0,0	  x0:0x00000000
       55155000	      5514	800003d0	014000ef	jal	x1,800003d0	  x1=0x800003d0
       55165000	      5515	00000000	00000013	addi	x0,x0,0	  x0:0x00000000
       55175000	      5516	800003e0	00000013	addi	x0,x0,0	  x0:0x00000000
       55185000	      5517	800003e4	ff5ff0ef	jal	x1,800003e4	  x1=0x800003e4
       55195000	      5518	00000000	00000013	addi	x0,x0,0	  x0:0x00000000
       55205000	      5519	800003d4	00000013	addi	x0,x0,0	  x0:0x00000000
       55215000	      5520	800003d8	fd5ff0ef	jal	x1,800003d8	  x1=0x800003d8
       55225000	      5521	00000000	00000013	addi	x0,x0,0	  x0:0x00000000
       55235000	      5522	800003a8	00000013	addi	x0,x0,0	  x0:0x00000000
       55245000	      5523	800003ac	0300016f	jal	x2,800003ac	  x2=0x800003ac
       55255000	      5524	00000000	00000013	addi	x0,x0,0	  x0:0x00000000
       55265000	      5525	800003d8	00000013	addi	x0,x0,0	  x0:0x00000000
       55275000	      5526	800003dc	fe9ff0ef	jal	x1,800003dc	  x1=0x800003dc
       55285000	      5527	00000000	00000013	addi	x0,x0,0	  x0:0x00000000
       55295000	      5528	800003c0	00000013	addi	x0,x0,0	  x0:0x00000000
       55305000	      5529	800003c4	fd9ff0ef	jal	x1,800003c4	  x1=0x800003c4
       55315000	      5530	00000000	00000013	addi	x0,x0,0	  x0:0x00000000
       55325000	      5531	80000398	00000013	addi	x0,x0,0	  x0:0x00000000
       55335000	      5532	8000039c	01c00fef	jal	x31,8000039c	 x31=0x8000039c
       55345000	      5533	00000000	00000013	addi	x0,x0,0	  x0:0x00000000
       55355000	      5534	800003b4	00000013	addi	x0,x0,0	  x0:0x00000000
       55365000	      5535	800003b8	038000ef	jal	x1,800003b8	  x1=0x800003b8
       55375000	      5536	00000000	00000013	addi	x0,x0,0	  x0:0x00000000
       55385000	      5537	800003ec	00000013	addi	x0,x0,0	  x0:0x00000000
       55395000	      5538	800003f0	fb1ff0ef	jal	x1,800003f0	  x1=0x800003f0
       55405000	      5539	00000000	00000013	addi	x0,x0,0	  x0:0x00000000
       55415000	      5540	8000039c	00000013	addi	x0,x0,0	  x0:0x00000000
       55425000	      5541	800003a0	ff1ff76f	jal	x14,800003a0	 x14=0x800003a0
       55435000	      5542	00000000	00000013	addi	x0,x0,0	  x0:0x00000000
       55445000	      5543	8000038c	00000013	addi	x0,x0,0	  x0:0x00000000
       55455000	      5544	80000390	020000ef	jal	x1,80000390	  x1=0x80000390
       55465000	      5545	00000000	00000013	addi	x0,x0,0	  x0:0x00000000
       55475000	      5546	800003ac	00000013	addi	x0,x0,0	  x0:0x00000000
       55485000	      5547	800003b0	010002ef	jal	x5,800003b0	  x5=0x800003b0
       55495000	      5548	00000000	00000013	addi	x0,x0,0	  x0:0x00000000
       55505000	      5549	800003bc	00000013	addi	x0,x0,0	  x0:0x00000000
       55515000	      5550	800003c0	02c0076f	jal	x14,800003c0	 x14=0x800003c0
       55525000	      5551	00000000	00000013	addi	x0,x0,0	  x0:0x00000000
       55535000	      5552	800003e8	00000013	addi	x0,x0,0	  x0:0x00000000
       55545000	      5553	800003ec	fb9ff0ef	jal	x1,800003ec	  x1=0x800003ec
       55555000	      5554	00000000	00000013	addi	x0,x0,0	  x0:0x00000000
       55565000	      5555	800003a0	00000013	addi	x0,x0,0	  x0:0x00000000
       55575000	      5556	800003a4	004000ef	jal	x1,800003a4	  x1=0x800003a4
       55585000	      5557	00000000	00000013	addi	x0,x0,0	  x0:0x00000000
       55595000	      5558	800003a4	00000013	addi	x0,x0,0	  x0:0x00000000
       55605000	      5559	800003a8	04c000ef	jal	x1,800003a8	  x1=0x800003a8
       55615000	      5560	00000000	00000013	addi	x0,x0,0	  x0:0x00000000
       55625000	      5561	800003f0	00000013	addi	x0,x0,0	  x0:0x00000000
       55635000	      5562	800003f4	fc9ff2ef	jal	x5,800003f4	  x5=0x800003f4
       55645000	      5563	00000000	00000013	addi	x0,x0,0	  x0:0x00000000
       55655000	      5564	800003b8	00000013	addi	x0,x0,0	  x0:0x00000000
       55665000	      5565	800003bc	03c000ef	jal	x1,800003bc	  x1=0x800003bc
       55675000	      5566	00000000	00000013	addi	x0,x0,0	  x0:0x00000000
       55685000	      5567	800003f4	00000013	addi	x0,x0,0	  x0:0x00000000
       55695000	      5568	800003f8	41d9da13	srai	x20,x19,0x1d	 x19:0x00000000 x20=0x00000000
       55705000	      5569	800003fc	03000d6f	jal	x26,800003fc	 x26=0x800003fc
       55715000	      5570	00000000	00000013	addi	x0,x0,0	  x0:0x00000000
       55725000	      5571	80000428	00000013	addi	x0,x0,0	  x0:0x00000000
       55735000	      5572	8000042c	fd9ff0ef	jal	x1,8000042c	  x1=0x8000042c
       55745000	      5573	00000000	00000013	addi	x0,x0,0	  x0:0x00000000
       55755000	      5574	80000400	00000013	addi	x0,x0,0	  x0:0x00000000
       55765000	      5575	80000404	038001ef	jal	x3,80000404	  x3=0x80000404
       55775000	      5576	00000000	00000013	addi	x0,x0,0	  x0:0x00000000
       55785000	      5577	80000438	00000013	addi	x0,x0,0	  x0:0x00000000
       55795000	      5578	8000043c	008000ef	jal	x1,8000043c	  x1=0x8000043c
       55805000	      5579	00000000	00000013	addi	x0,x0,0	  x0:0x00000000
       55815000	      5580	80000440	00000013	addi	x0,x0,0	  x0:0x00000000
       55825000	      5581	80000444	fe5ff3ef	jal	x7,80000444	  x7=0x80000444
       55835000	      5582	00000000	00000013	addi	x0,x0,0	  x0:0x00000000
       55845000	      5583	80000424	00000013	addi	x0,x0,0	  x0:0x00000000
       55855000	      5584	80000428	fe5ffdef	jal	x27,80000428	 x27=0x80000428
       55865000	      5585	00000000	00000013	addi	x0,x0,0	  x0:0x00000000
       55875000	      5586	80000408	00000013	addi	x0,x0,0	  x0:0x00000000
       55885000	      5587	8000040c	034000ef	jal	x1,8000040c	  x1=0x8000040c
       55895000	      5588	00000000	00000013	addi	x0,x0,0	  x0:0x00000000
       55905000	      5589	8000043c	00000013	addi	x0,x0,0	  x0:0x00000000
       55915000	      5590	80000440	fd1ff0ef	jal	x1,80000440	  x1=0x80000440
       55925000	      5591	00000000	00000013	addi	x0,x0,0	  x0:0x00000000
       55935000	      5592	8000040c	00000013	addi	x0,x0,0	  x0:0x00000000
       55945000	      5593	80000410	010000ef	jal	x1,80000410	  x1=0x80000410
       55955000	      5594	00000000	00000013	addi	x0,x0,0	  x0:0x00000000
       55965000	      5595	8000041c	00000013	addi	x0,x0,0	  x0:0x00000000
       55975000	      5596	80000420	ffdff0ef	jal	x1,80000420	  x1=0x80000420
       55985000	      5597	00000000	00000013	addi	x0,x0,0	  x0:0x00000000
       55995000	      5598	80000418	00000013	addi	x0,x0,0	  x0:0x00000000
       56005000	      5599	8000041c	018000ef	jal	x1,8000041c	  x1=0x8000041c
       56015000	      5600	00000000	00000013	addi	x0,x0,0	  x0:0x00000000
       56025000	      5601	80000430	00000013	addi	x0,x0,0	  x0:0x00000000
       56035000	      5602	80000434	fcdff0ef	jal	x1,80000434	  x1=0x80000434
       56045000	      5603	00000000	00000013	addi	x0,x0,0	  x0:0x00000000
       56055000	      5604	800003fc	00000013	addi	x0,x0,0	  x0:0x00000000
       56065000	      5605	80000400	024000ef	jal	x1,80000400	  x1=0x80000400
       56075000	      5606	00000000	00000013	addi	x0,x0,0	  x0:0x00000000
       56085000	      5607	80000420	00000013	addi	x0,x0,0	  x0:0x00000000
       56095000	      5608	80000424	fe5ff9ef	jal	x19,80000424	 x19=0x80000424
       56105000	      5609	00000000	00000013	addi	x0,x0,0	  x0:0x00000000
       56115000	      5610	80000404	00000013	addi	x0,x0,0	  x0:0x00000000
       56125000	      5611	80000408	00c000ef	jal	x1,80000408	  x1=0x80000408
       56135000	      5612	00000000	00000013	addi	x0,x0,0	  x0:0x00000000
       56145000	      5613	80000410	00000013	addi	x0,x0,0	  x0:0x00000000
       56155000	      5614	80000414	01c000ef	jal	x1,80000414	  x1=0x80000414
       56165000	      5615	00000000	00000013	addi	x0,x0,0	  x0:0x00000000
       56175000	      5616	8000042c	00000013	addi	x0,x0,0	  x0:0x00000000
       56185000	      5617	80000430	fe9ff26f	jal	x4,80000430	  x4=0x80000430
       56195000	      5618	00000000	00000013	addi	x0,x0,0	  x0:0x00000000
       56205000	      5619	80000414	00000013	addi	x0,x0,0	  x0:0x00000000
       56215000	      5620	80000418	030000ef	jal	x1,80000418	  x1=0x80000418
       56225000	      5621	00000000	00000013	addi	x0,x0,0	  x0:0x00000000
       56235000	      5622	80000444	00000013	addi	x0,x0,0	  x0:0x00000000
       56245000	      5623	80000448	ff1ff0ef	jal	x1,80000448	  x1=0x80000448
       56255000	      5624	00000000	00000013	addi	x0,x0,0	  x0:0x00000000
       56265000	      5625	80000434	00000013	addi	x0,x0,0	  x0:0x00000000
       56275000	      5626	80000438	014000ef	jal	x1,80000438	  x1=0x80000438
       56285000	      5627	00000000	00000013	addi	x0,x0,0	  x0:0x00000000
       56295000	      5628	80000448	00000013	addi	x0,x0,0	  x0:0x00000000
       56305000	      5629	8000044c	4257a213	slti	x4,x15,1061	 x15:0x8000022c  x4=0x00000001
       56315000	      5630	80000450	01c00d6f	jal	x26,80000450	 x26=0x80000450
       56325000	      5631	00000000	00000013	addi	x0,x0,0	  x0:0x00000000
       56335000	      5632	80000468	00000013	addi	x0,x0,0	  x0:0x00000000
       56345000	      5633	8000046c	fe9ff46f	jal	x8,8000046c	  x8=0x8000046c
       56355000	      5634	00000000	00000013	addi	x0,x0,0	  x0:0x00000000
       56365000	      5635	80000450	00000013	addi	x0,x0,0	  x0:0x00000000
       56375000	      5636	80000454	020000ef	jal	x1,80000454	  x1=0x80000454
       56385000	      5637	00000000	00000013	addi	x0,x0,0	  x0:0x00000000
       56395000	      5638	80000470	00000013	addi	x0,x0,0	  x0:0x00000000
       56405000	      5639	80000474	ffdff0ef	jal	x1,80000474	  x1=0x80000474
       56415000	      5640	00000000	00000013	addi	x0,x0,0	  x0:0x00000000
       56425000	      5641	8000046c	00000013	addi	x0,x0,0	  x0:0x00000000
       56435000	      5642	80000470	ff9ff26f	jal	x4,80000470	  x4=0x80000470
       56445000	      5643	00000000	00000013	addi	x0,x0,0	  x0:0x00000000
       56455000	      5644	80000464	00000013	addi	x0,x0,0	  x0:0x00000000
       56465000	      5645	80000468	0100026f	jal	x4,80000468	  x4=0x80000468
       56475000	      5646	00000000	00000013	addi	x0,x0,0	  x0:0x00000000
       56485000	      5647	80000474	00000013	addi	x0,x0,0	  x0:0x00000000
       56495000	      5648	80000478	fedff0ef	jal	x1,80000478	  x1=0x80000478
       56505000	      5649	00000000	00000013	addi	x0,x0,0	  x0:0x00000000
       56515000	      5650	80000460	00000013	addi	x0,x0,0	  x0:0x00000000
       56525000	      5651	80000464	ff9ff0ef	jal	x1,80000464	  x1=0x80000464
       56535000	      5652	00000000	00000013	addi	x0,x0,0	  x0:0x00000000
       56545000	      5653	80000458	00000013	addi	x0,x0,0	  x0:0x00000000
       56555000	      5654	8000045c	004000ef	jal	x1,8000045c	  x1=0x8000045c
       56565000	      5655	00000000	00000013	addi	x0,x0,0	  x0:0x00000000
       56575000	      5656	8000045c	00000013	addi	x0,x0,0	  x0:0x00000000
       56585000	      5657	80000460	ff9ff0ef	jal	x1,80000460	  x1=0x80000460
       56595000	      5658	00000000	00000013	addi	x0,x0,0	  x0:0x00000000
       56605000	      5659	80000454	00000013	addi	x0,x0,0	  x0:0x00000000
       56615000	      5660	80000458	024000ef	jal	x1,80000458	  x1=0x80000458
       56625000	      5661	00000000	00000013	addi	x0,x0,0	  x0:0x00000000
       56635000	      5662	80000478	00000013	addi	x0,x0,0	  x0:0x00000000
       56645000	      5663	8000047c	01f98133	add	x2,x19,x31	 x19:0x80000424 x31:0x8000039c  x2=0x000007c0
       56655000	      5664	80000480	04800d6f	jal	x26,80000480	 x26=0x80000480
       56665000	      5665	00000000	00000013	addi	x0,x0,0	  x0:0x00000000
       56675000	      5666	800004c4	00000013	addi	x0,x0,0	  x0:0x00000000
       56685000	      5667	800004c8	00800cef	jal	x25,800004c8	 x25=0x800004c8
       56695000	      5668	00000000	00000013	addi	x0,x0,0	  x0:0x00000000
       56705000	      5669	800004cc	00000013	addi	x0,x0,0	  x0:0x00000000
       56715000	      5670	800004d0	fcdff0ef	jal	x1,800004d0	  x1=0x800004d0
       56725000	      5671	00000000	00000013	addi	x0,x0,0	  x0:0x00000000
       56735000	      5672	80000498	00000013	addi	x0,x0,0	  x0:0x00000000
       56745000	      5673	8000049c	048000ef	jal	x1,8000049c	  x1=0x8000049c
       56755000	      5674	00000000	00000013	addi	x0,x0,0	  x0:0x00000000
       56765000	      5675	800004e0	00000013	addi	x0,x0,0	  x0:0x00000000
       56775000	      5676	800004e4	fadff0ef	jal	x1,800004e4	  x1=0x800004e4
       56785000	      5677	00000000	00000013	addi	x0,x0,0	  x0:0x00000000
       56795000	      5678	8000048c	00000013	addi	x0,x0,0	  x0:0x00000000
       56805000	      5679	80000490	0440026f	jal	x4,80000490	  x4=0x80000490
       56815000	      5680	00000000	00000013	addi	x0,x0,0	  x0:0x00000000
       56825000	      5681	800004d0	00000013	addi	x0,x0,0	  x0:0x00000000
       56835000	      5682	800004d4	fe1ff0ef	jal	x1,800004d4	  x1=0x800004d4
       56845000	      5683	00000000	00000013	addi	x0,x0,0	  x0:0x00000000
       56855000	      5684	800004b0	00000013	addi	x0,x0,0	  x0:0x00000000
       56865000	      5685	800004b4	fe1ff7ef	jal	x15,800004b4	 x15=0x800004b4
       56875000	      5686	00000000	00000013	addi	x0,x0,0	  x0:0x00000000
       56885000	      5687	80000490	00000013	addi	x0,x0,0	  x0:0x00000000
       56895000	      5688	80000494	01400bef	jal	x23,80000494	 x23=0x80000494
       56905000	      5689	00000000	00000013	addi	x0,x0,0	  x0:0x00000000
       56915000	      5690	800004a4	00000013	addi	x0,x0,0	  x0:0x00000000
       56925000	      5691	800004a8	004000ef	jal	x1,800004a8	  x1=0x800004a8
       56935000	      5692	00000000	00000013	addi	x0,x0,0	  x0:0x00000000
       56945000	      5693	800004a8	00000013	addi	x0,x0,0	  x0:0x00000000
       56955000	      5694	800004ac	048000ef	jal	x1,800004ac	  x1=0x800004ac
       56965000	      5695	00000000	00000013	addi	x0,x0,0	  x0:0x00000000
       56975000	      5696	800004f0	00000013	addi	x0,x0,0	  x0:0x00000000
       56985000	      5697	800004f4	fbdff0ef	jal	x1,800004f4	  x1=0x800004f4
       56995000	      5698	00000000	00000013	addi	x0,x0,0	  x0:0x00000000
       57005000	      5699	800004ac	00000013	addi	x0,x0,0	  x0:0x00000000
       57015000	      5700	800004b0	02c000ef	jal	x1,800004b0	  x1=0x800004b0
       57025000	      5701	00000000	00000013	addi	x0,x0,0	  x0:0x00000000
       57035000	      5702	800004d8	00000013	addi	x0,x0,0	  x0:0x00000000
       57045000	      5703	800004dc	010002ef	jal	x5,800004dc	  x5=0x800004dc
       57055000	      5704	00000000	00000013	addi	x0,x0,0	  x0:0x00000000
       57065000	      5705	800004e8	00000013	addi	x0,x0,0	  x0:0x00000000
       57075000	      5706	800004ec	fcdff0ef	jal	x1,800004ec	  x1=0x800004ec
       57085000	      5707	00000000	00000013	addi	x0,x0,0	  x0:0x00000000
       57095000	      5708	800004b4	00000013	addi	x0,x0,0	  x0:0x00000000
       57105000	      5709	800004b8	030000ef	jal	x1,800004b8	  x1=0x800004b8
       57115000	      5710	00000000	00000013	addi	x0,x0,0	  x0:0x00000000
       57125000	      5711	800004e4	00000013	addi	x0,x0,0	  x0:0x00000000
       57135000	      5712	800004e8	fa5ff0ef	jal	x1,800004e8	  x1=0x800004e8
       57145000	      5713	00000000	00000013	addi	x0,x0,0	  x0:0x00000000
       57155000	      5714	80000488	00000013	addi	x0,x0,0	  x0:0x00000000
       57165000	      5715	8000048c	034000ef	jal	x1,8000048c	  x1=0x8000048c
       57175000	      5716	00000000	00000013	addi	x0,x0,0	  x0:0x00000000
       57185000	      5717	800004bc	00000013	addi	x0,x0,0	  x0:0x00000000
       57195000	      5718	800004c0	004000ef	jal	x1,800004c0	  x1=0x800004c0
       57205000	      5719	00000000	00000013	addi	x0,x0,0	  x0:0x00000000
       57215000	      5720	800004c0	00000013	addi	x0,x0,0	  x0:0x00000000
       57225000	      5721	800004c4	01c000ef	jal	x1,800004c4	  x1=0x800004c4
       57235000	      5722	00000000	00000013	addi	x0,x0,0	  x0:0x00000000
       57245000	      5723	800004dc	00000013	addi	x0,x0,0	  x0:0x00000000
       57255000	      5724	800004e0	fb9ff3ef	jal	x7,800004e0	  x7=0x800004e0
       57265000	      5725	00000000	00000013	addi	x0,x0,0	  x0:0x00000000
       57275000	      5726	80000494	00000013	addi	x0,x0,0	  x0:0x00000000
       57285000	      5727	80000498	ff1ff26f	jal	x4,80000498	  x4=0x80000498
       57295000	      5728	00000000	00000013	addi	x0,x0,0	  x0:0x00000000
       57305000	      5729	80000484	00000013	addi	x0,x0,0	  x0:0x00000000
       57315000	      5730	80000488	018000ef	jal	x1,80000488	  x1=0x80000488
       57325000	      5731	00000000	00000013	addi	x0,x0,0	  x0:0x00000000
       57335000	      5732	8000049c	00000013	addi	x0,x0,0	  x0:0x00000000
       57345000	      5733	800004a0	02c000ef	jal	x1,800004a0	  x1=0x800004a0
       57355000	      5734	00000000	00000013	addi	x0,x0,0	  x0:0x00000000
       57365000	      5735	800004c8	00000013	addi	x0,x0,0	  x0:0x00000000
       57375000	      5736	800004cc	fb9ff2ef	jal	x5,800004cc	  x5=0x800004cc
       57385000	      5737	00000000	00000013	addi	x0,x0,0	  x0:0x00000000
       57395000	      5738	80000480	00000013	addi	x0,x0,0	  x0:0x00000000
       57405000	      5739	80000484	038000ef	jal	x1,80000484	  x1=0x80000484
       57415000	      5740	00000000	00000013	addi	x0,x0,0	  x0:0x00000000
       57425000	      5741	800004b8	00000013	addi	x0,x0,0	  x0:0x00000000
       57435000	      5742	800004bc	01c000ef	jal	x1,800004bc	  x1=0x800004bc
       57445000	      5743	00000000	00000013	addi	x0,x0,0	  x0:0x00000000
       57455000	      5744	800004d4	00000013	addi	x0,x0,0	  x0:0x00000000
       57465000	      5745	800004d8	020000ef	jal	x1,800004d8	  x1=0x800004d8
       57475000	      5746	00000000	00000013	addi	x0,x0,0	  x0:0x00000000
       57485000	      5747	800004f4	00000013	addi	x0,x0,0	  x0:0x00000000
       57495000	      5748	800004f8	ff9ff0ef	jal	x1,800004f8	  x1=0x800004f8
       57505000	      5749	00000000	00000013	addi	x0,x0,0	  x0:0x00000000
       57515000	      5750	800004ec	00000013	addi	x0,x0,0	  x0:0x00000000
       57525000	      5751	800004f0	fb5ff0ef	jal	x1,800004f0	  x1=0x800004f0
       57535000	      5752	00000000	00000013	addi	x0,x0,0	  x0:0x00000000
       57545000	      5753	800004a0	00000013	addi	x0,x0,0	  x0:0x00000000
       57555000	      5754	800004a4	058000ef	jal	x1,800004a4	  x1=0x800004a4
       57565000	      5755	00000000	00000013	addi	x0,x0,0	  x0:0x00000000
       57575000	      5756	800004f8	00000013	addi	x0,x0,0	  x0:0x00000000
       57585000	      5757	800004fc	01a34033	xor	x0,x6,x26	  x6:0x80009fc4 x26:0x80000480
       57595000	      5758	80000500	03000d6f	jal	x26,80000500	 x26=0x80000500
       57605000	      5759	00000000	00000013	addi	x0,x0,0	  x0:0x00000000
       57615000	      5760	8000052c	00000013	addi	x0,x0,0	  x0:0x00000000
       57625000	      5761	80000530	ffdff8ef	jal	x17,80000530	 x17=0x80000530
       57635000	      5762	00000000	00000013	addi	x0,x0,0	  x0:0x00000000
       57645000	      5763	80000528	00000013	addi	x0,x0,0	  x0:0x00000000
       57655000	      5764	8000052c	fedff5ef	jal	x11,8000052c	 x11=0x8000052c
       57665000	      5765	00000000	00000013	addi	x0,x0,0	  x0:0x00000000
       57675000	      5766	80000514	00000013	addi	x0,x0,0	  x0:0x00000000
       57685000	      5767	80000518	01c000ef	jal	x1,80000518	  x1=0x80000518
       57695000	      5768	00000000	00000013	addi	x0,x0,0	  x0:0x00000000
       57705000	      5769	80000530	00000013	addi	x0,x0,0	  x0:0x00000000
       57715000	      5770	80000534	fd9ffaef	jal	x21,80000534	 x21=0x80000534
       57725000	      5771	00000000	00000013	addi	x0,x0,0	  x0:0x00000000
       57735000	      5772	80000508	00000013	addi	x0,x0,0	  x0:0x00000000
       57745000	      5773	8000050c	ffdff0ef	jal	x1,8000050c	  x1=0x8000050c
       57755000	      5774	00000000	00000013	addi	x0,x0,0	  x0:0x00000000
       57765000	      5775	80000504	00000013	addi	x0,x0,0	  x0:0x00000000
       57775000	      5776	80000508	018000ef	jal	x1,80000508	  x1=0x80000508
       57785000	      5777	00000000	00000013	addi	x0,x0,0	  x0:0x00000000
       57795000	      5778	8000051c	00000013	addi	x0,x0,0	  x0:0x00000000
       57805000	      5779	80000520	ff5ff0ef	jal	x1,80000520	  x1=0x80000520
       57815000	      5780	00000000	00000013	addi	x0,x0,0	  x0:0x00000000
       57825000	      5781	80000510	00000013	addi	x0,x0,0	  x0:0x00000000
       57835000	      5782	80000514	008009ef	jal	x19,80000514	 x19=0x80000514
       57845000	      5783	00000000	00000013	addi	x0,x0,0	  x0:0x00000000
       57855000	      5784	80000518	00000013	addi	x0,x0,0	  x0:0x00000000
       57865000	      5785	8000051c	00800a6f	jal	x20,8000051c	 x20=0x8000051c
       57875000	      5786	00000000	00000013	addi	x0,x0,0	  x0:0x00000000
       57885000	      5787	80000520	00000013	addi	x0,x0,0	  x0:0x00000000
       57895000	      5788	80000524	004000ef	jal	x1,80000524	  x1=0x80000524
       57905000	      5789	00000000	00000013	addi	x0,x0,0	  x0:0x00000000
       57915000	      5790	80000524	00000013	addi	x0,x0,0	  x0:0x00000000
       57925000	      5791	80000528	fe9ff0ef	jal	x1,80000528	  x1=0x80000528
       57935000	      5792	00000000	00000013	addi	x0,x0,0	  x0:0x00000000
       57945000	      5793	8000050c	00000013	addi	x0,x0,0	  x0:0x00000000
       57955000	      5794	80000510	ff5ff0ef	jal	x1,80000510	  x1=0x80000510
       57965000	      5795	00000000	00000013	addi	x0,x0,0	  x0:0x00000000
       57975000	      5796	80000500	00000013	addi	x0,x0,0	  x0:0x00000000
       57985000	      5797	80000504	034000ef	jal	x1,80000504	  x1=0x80000504
       57995000	      5798	00000000	00000013	addi	x0,x0,0	  x0:0x00000000
       58005000	      5799	80000534	00000013	addi	x0,x0,0	  x0:0x00000000
       58015000	      5800	80000538	003634b3	sltu	x9,x12,x3	 x12:0x80000398  x3:0x80000404  x9=0x00000001
       58025000	      5801	8000053c	01000d6f	jal	x26,8000053c	 x26=0x8000053c
       58035000	      5802	00000000	00000013	addi	x0,x0,0	  x0:0x00000000
       58045000	      5803	80000548	00000013	addi	x0,x0,0	  x0:0x00000000
       58055000	      5804	8000054c	00c00e6f	jal	x28,8000054c	 x28=0x8000054c
       58065000	      5805	00000000	00000013	addi	x0,x0,0	  x0:0x00000000
       58075000	      5806	80000554	00000013	addi	x0,x0,0	  x0:0x00000000
       58085000	      5807	80000558	030000ef	jal	x1,80000558	  x1=0x80000558
       58095000	      5808	00000000	00000013	addi	x0,x0,0	  x0:0x00000000
       58105000	      5809	80000584	00000013	addi	x0,x0,0	  x0:0x00000000
       58115000	      5810	80000588	ff9ff0ef	jal	x1,80000588	  x1=0x80000588
       58125000	      5811	00000000	00000013	addi	x0,x0,0	  x0:0x00000000
       58135000	      5812	8000057c	00000013	addi	x0,x0,0	  x0:0x00000000
       58145000	      5813	80000580	ff9ff0ef	jal	x1,80000580	  x1=0x80000580
       58155000	      5814	00000000	00000013	addi	x0,x0,0	  x0:0x00000000
       58165000	      5815	80000574	00000013	addi	x0,x0,0	  x0:0x00000000
       58175000	      5816	80000578	fd1ff0ef	jal	x1,80000578	  x1=0x80000578
       58185000	      5817	00000000	00000013	addi	x0,x0,0	  x0:0x00000000
       58195000	      5818	80000544	00000013	addi	x0,x0,0	  x0:0x00000000
       58205000	      5819	80000548	024009ef	jal	x19,80000548	 x19=0x80000548
       58215000	      5820	00000000	00000013	addi	x0,x0,0	  x0:0x00000000
       58225000	      5821	80000568	00000013	addi	x0,x0,0	  x0:0x00000000
       58235000	      5822	8000056c	ff5ffe6f	jal	x28,8000056c	 x28=0x8000056c
       58245000	      5823	00000000	00000013	addi	x0,x0,0	  x0:0x00000000
       58255000	      5824	8000055c	00000013	addi	x0,x0,0	  x0:0x00000000
       58265000	      5825	80000560	01000fef	jal	x31,80000560	 x31=0x80000560
       58275000	      5826	00000000	00000013	addi	x0,x0,0	  x0:0x00000000
       58285000	      5827	8000056c	00000013	addi	x0,x0,0	  x0:0x00000000
       58295000	      5828	80000570	ff9ff0ef	jal	x1,80000570	  x1=0x80000570
       58305000	      5829	00000000	00000013	addi	x0,x0,0	  x0:0x00000000
       58315000	      5830	80000564	00000013	addi	x0,x0,0	  x0:0x00000000
       58325000	      5831	80000568	01c00eef	jal	x29,80000568	 x29=0x80000568
       58335000	      5832	00000000	00000013	addi	x0,x0,0	  x0:0x00000000
       58345000	      5833	80000580	00000013	addi	x0,x0,0	  x0:0x00000000
       58355000	      5834	80000584	fbdff0ef	jal	x1,80000584	  x1=0x80000584
       58365000	      5835	00000000	00000013	addi	x0,x0,0	  x0:0x00000000
       58375000	      5836	8000053c	00000013	addi	x0,x0,0	  x0:0x00000000
       58385000	      5837	80000540	0240026f	jal	x4,80000540	  x4=0x80000540
       58395000	      5838	00000000	00000013	addi	x0,x0,0	  x0:0x00000000
       58405000	      5839	80000560	00000013	addi	x0,x0,0	  x0:0x00000000
       58415000	      5840	80000564	fedff7ef	jal	x15,80000564	 x15=0x80000564
       58425000	      5841	00000000	00000013	addi	x0,x0,0	  x0:0x00000000
       58435000	      5842	8000054c	00000013	addi	x0,x0,0	  x0:0x00000000
       58445000	      5843	80000550	00c003ef	jal	x7,80000550	  x7=0x80000550
       58455000	      5844	00000000	00000013	addi	x0,x0,0	  x0:0x00000000
       58465000	      5845	80000558	00000013	addi	x0,x0,0	  x0:0x00000000
       58475000	      5846	8000055c	ff9ff16f	jal	x2,8000055c	  x2=0x8000055c
       58485000	      5847	00000000	00000013	addi	x0,x0,0	  x0:0x00000000
       58495000	      5848	80000550	00000013	addi	x0,x0,0	  x0:0x00000000
       58505000	      5849	80000554	020000ef	jal	x1,80000554	  x1=0x80000554
       58515000	      5850	00000000	00000013	addi	x0,x0,0	  x0:0x00000000
       58525000	      5851	80000570	00000013	addi	x0,x0,0	  x0:0x00000000
       58535000	      5852	80000574	008000ef	jal	x1,80000574	  x1=0x80000574
       58545000	      5853	00000000	00000013	addi	x0,x0,0	  x0:0x00000000
       58555000	      5854	80000578	00000013	addi	x0,x0,0	  x0:0x00000000
       58565000	      5855	8000057c	fc9ff0ef	jal	x1,8000057c	  x1=0x8000057c
       58575000	      5856	00000000	00000013	addi	x0,x0,0	  x0:0x00000000
       58585000	      5857	80000540	00000013	addi	x0,x0,0	  x0:0x00000000
       58595000	      5858	80000544	048000ef	jal	x1,80000544	  x1=0x80000544
       58605000	      5859	00000000	00000013	addi	x0,x0,0	  x0:0x00000000
       58615000	      5860	80000588	00000013	addi	x0,x0,0	  x0:0x00000000
       58625000	      5861	8000058c	00b61913	slli	x18,x12,0xb	 x12:0x80000398 x18=0x001cc000
       58635000	      5862	80000590	01800d6f	jal	x26,80000590	 x26=0x80000590
       58645000	      5863	00000000	00000013	addi	x0,x0,0	  x0:0x00000000
       58655000	      5864	800005a4	00000013	addi	x0,x0,0	  x0:0x00000000
       58665000	      5865	800005a8	03c000ef	jal	x1,800005a8	  x1=0x800005a8
       58675000	      5866	00000000	00000013	addi	x0,x0,0	  x0:0x00000000
       58685000	      5867	800005e0	00000013	addi	x0,x0,0	  x0:0x00000000
       58695000	      5868	800005e4	fe1ff0ef	jal	x1,800005e4	  x1=0x800005e4
       58705000	      5869	00000000	00000013	addi	x0,x0,0	  x0:0x00000000
       58715000	      5870	800005c0	00000013	addi	x0,x0,0	  x0:0x00000000
       58725000	      5871	800005c4	fe1fff6f	jal	x30,800005c4	 x30=0x800005c4
       58735000	      5872	00000000	00000013	addi	x0,x0,0	  x0:0x00000000
       58745000	      5873	800005a0	00000013	addi	x0,x0,0	  x0:0x00000000
       58755000	      5874	800005a4	044000ef	jal	x1,800005a4	  x1=0x800005a4
       58765000	      5875	00000000	00000013	addi	x0,x0,0	  x0:0x00000000
       58775000	      5876	800005e4	00000013	addi	x0,x0,0	  x0:0x00000000
       58785000	      5877	800005e8	ff9ff0ef	jal	x1,800005e8	  x1=0x800005e8
       58795000	      5878	00000000	00000013	addi	x0,x0,0	  x0:0x00000000
       58805000	      5879	800005dc	00000013	addi	x0,x0,0	  x0:0x00000000
       58815000	      5880	800005e0	ff1ff0ef	jal	x1,800005e0	  x1=0x800005e0
       58825000	      5881	00000000	00000013	addi	x0,x0,0	  x0:0x00000000
       58835000	      5882	800005cc	00000013	addi	x0,x0,0	  x0:0x00000000
       58845000	      5883	800005d0	ffdff0ef	jal	x1,800005d0	  x1=0x800005d0
       58855000	      5884	00000000	00000013	addi	x0,x0,0	  x0:0x00000000
       58865000	      5885	800005c8	00000013	addi	x0,x0,0	  x0:0x00000000
       58875000	      5886	800005cc	fcdff16f	jal	x2,800005cc	  x2=0x800005cc
       58885000	      5887	00000000	00000013	addi	x0,x0,0	  x0:0x00000000
       58895000	      5888	80000594	00000013	addi	x0,x0,0	  x0:0x00000000
       58905000	      5889	80000598	04400aef	jal	x21,80000598	 x21=0x80000598
       58915000	      5890	00000000	00000013	addi	x0,x0,0	  x0:0x00000000
       58925000	      5891	800005d8	00000013	addi	x0,x0,0	  x0:0x00000000
       58935000	      5892	800005dc	ff9ff9ef	jal	x19,800005dc	 x19=0x800005dc
       58945000	      5893	00000000	00000013	addi	x0,x0,0	  x0:0x00000000
       58955000	      5894	800005d0	00000013	addi	x0,x0,0	  x0:0x00000000
       58965000	      5895	800005d4	fd9ff0ef	jal	x1,800005d4	  x1=0x800005d4
       58975000	      5896	00000000	00000013	addi	x0,x0,0	  x0:0x00000000
       58985000	      5897	800005a8	00000013	addi	x0,x0,0	  x0:0x00000000
       58995000	      5898	800005ac	010000ef	jal	x1,800005ac	  x1=0x800005ac
       59005000	      5899	00000000	00000013	addi	x0,x0,0	  x0:0x00000000
       59015000	      5900	800005b8	00000013	addi	x0,x0,0	  x0:0x00000000
       59025000	      5901	800005bc	fe5ff0ef	jal	x1,800005bc	  x1=0x800005bc
       59035000	      5902	00000000	00000013	addi	x0,x0,0	  x0:0x00000000
       59045000	      5903	8000059c	00000013	addi	x0,x0,0	  x0:0x00000000
       59055000	      5904	800005a0	014001ef	jal	x3,800005a0	  x3=0x800005a0
       59065000	      5905	00000000	00000013	addi	x0,x0,0	  x0:0x00000000
       59075000	      5906	800005b0	00000013	addi	x0,x0,0	  x0:0x00000000
       59085000	      5907	800005b4	fe9ff0ef	jal	x1,800005b4	  x1=0x800005b4
       59095000	      5908	00000000	00000013	addi	x0,x0,0	  x0:0x00000000
       59105000	      5909	80000598	00000013	addi	x0,x0,0	  x0:0x00000000
       59115000	      5910	8000059c	0140026f	jal	x4,8000059c	  x4=0x8000059c
       59125000	      5911	00000000	00000013	addi	x0,x0,0	  x0:0x00000000
       59135000	      5912	800005ac	00000013	addi	x0,x0,0	  x0:0x00000000
       59145000	      5913	800005b0	01000b6f	jal	x22,800005b0	 x22=0x800005b0
       59155000	      5914	00000000	00000013	addi	x0,x0,0	  x0:0x00000000
       59165000	      5915	800005bc	00000013	addi	x0,x0,0	  x0:0x00000000
       59175000	      5916	800005c0	fd5ff66f	jal	x12,800005c0	 x12=0x800005c0
       59185000	      5917	00000000	00000013	addi	x0,x0,0	  x0:0x00000000
       59195000	      5918	80000590	00000013	addi	x0,x0,0	  x0:0x00000000
       59205000	      5919	80000594	0440066f	jal	x12,80000594	 x12=0x80000594
       59215000	      5920	00000000	00000013	addi	x0,x0,0	  x0:0x00000000
       59225000	      5921	800005d4	00000013	addi	x0,x0,0	  x0:0x00000000
       59235000	      5922	800005d8	ff1ff26f	jal	x4,800005d8	  x4=0x800005d8
       59245000	      5923	00000000	00000013	addi	x0,x0,0	  x0:0x00000000
       59255000	      5924	800005c4	00000013	addi	x0,x0,0	  x0:0x00000000
       59265000	      5925	800005c8	ff1ff0ef	jal	x1,800005c8	  x1=0x800005c8
       59275000	      5926	00000000	00000013	addi	x0,x0,0	  x0:0x00000000
       59285000	      5927	800005b4	00000013	addi	x0,x0,0	  x0:0x00000000
       59295000	      5928	800005b8	034000ef	jal	x1,800005b8	  x1=0x800005b8
       59305000	      5929	00000000	00000013	addi	x0,x0,0	  x0:0x00000000
       59315000	      5930	800005e8	00000013	addi	x0,x0,0	  x0:0x00000000
       59325000	      5931	800005ec	976334b7	lui	x9,0x97633	  x9=0x97633000
       59335000	      5932	800005f0	04800d6f	jal	x26,800005f0	 x26=0x800005f0
       59345000	      5933	00000000	00000013	addi	x0,x0,0	  x0:0x00000000
       59355000	      5934	80000634	00000013	addi	x0,x0,0	  x0:0x00000000
       59365000	      5935	80000638	024000ef	jal	x1,80000638	  x1=0x80000638
       59375000	      5936	00000000	00000013	addi	x0,x0,0	  x0:0x00000000
       59385000	      5937	80000658	00000013	addi	x0,x0,0	  x0:0x00000000
       59395000	      5938	8000065c	ff9ff3ef	jal	x7,8000065c	  x7=0x8000065c
       59405000	      5939	00000000	00000013	addi	x0,x0,0	  x0:0x00000000
       59415000	      5940	80000650	00000013	addi	x0,x0,0	  x0:0x00000000
       59425000	      5941	80000654	fa9ff0ef	jal	x1,80000654	  x1=0x80000654
       59435000	      5942	00000000	00000013	addi	x0,x0,0	  x0:0x00000000
       59445000	      5943	800005f8	00000013	addi	x0,x0,0	  x0:0x00000000
       59455000	      5944	800005fc	028000ef	jal	x1,800005fc	  x1=0x800005fc
       59465000	      5945	00000000	00000013	addi	x0,x0,0	  x0:0x00000000
       59475000	      5946	80000620	00000013	addi	x0,x0,0	  x0:0x00000000
       59485000	      5947	80000624	fe1ff2ef	jal	x5,80000624	  x5=0x80000624
       59495000	      5948	00000000	00000013	addi	x0,x0,0	  x0:0x00000000
       59505000	      5949	80000600	00000013	addi	x0,x0,0	  x0:0x00000000
       59515000	      5950	80000604	00c004ef	jal	x9,80000604	  x9=0x80000604
       59525000	      5951	00000000	00000013	addi	x0,x0,0	  x0:0x00000000
       59535000	      5952	8000060c	00000013	addi	x0,x0,0	  x0:0x00000000
       59545000	      5953	80000610	020000ef	jal	x1,80000610	  x1=0x80000610
       59555000	      5954	00000000	00000013	addi	x0,x0,0	  x0:0x00000000
       59565000	      5955	8000062c	00000013	addi	x0,x0,0	  x0:0x00000000
       59575000	      5956	80000630	fddff0ef	jal	x1,80000630	  x1=0x80000630
       59585000	      5957	00000000	00000013	addi	x0,x0,0	  x0:0x00000000
       59595000	      5958	80000608	00000013	addi	x0,x0,0	  x0:0x00000000
       59605000	      5959	8000060c	fedff0ef	jal	x1,8000060c	  x1=0x8000060c
       59615000	      5960	00000000	00000013	addi	x0,x0,0	  x0:0x00000000
       59625000	      5961	800005f4	00000013	addi	x0,x0,0	  x0:0x00000000
       59635000	      5962	800005f8	03000eef	jal	x29,800005f8	 x29=0x800005f8
       59645000	      5963	00000000	00000013	addi	x0,x0,0	  x0:0x00000000
       59655000	      5964	80000624	00000013	addi	x0,x0,0	  x0:0x00000000
       59665000	      5965	80000628	ff5ff0ef	jal	x1,80000628	  x1=0x80000628
       59675000	      5966	00000000	00000013	addi	x0,x0,0	  x0:0x00000000
       59685000	      5967	80000618	00000013	addi	x0,x0,0	  x0:0x00000000
       59695000	      5968	8000061c	ff9ff0ef	jal	x1,8000061c	  x1=0x8000061c
       59705000	      5969	00000000	00000013	addi	x0,x0,0	  x0:0x00000000
       59715000	      5970	80000610	00000013	addi	x0,x0,0	  x0:0x00000000
       59725000	      5971	80000614	004002ef	jal	x5,80000614	  x5=0x80000614
       59735000	      5972	00000000	00000013	addi	x0,x0,0	  x0:0x00000000
       59745000	      5973	80000614	00000013	addi	x0,x0,0	  x0:0x00000000
       59755000	      5974	80000618	02c000ef	jal	x1,80000618	  x1=0x80000618
       59765000	      5975	00000000	00000013	addi	x0,x0,0	  x0:0x00000000
       59775000	      5976	80000640	00000013	addi	x0,x0,0	  x0:0x00000000
       59785000	      5977	80000644	01c000ef	jal	x1,80000644	  x1=0x80000644
       59795000	      5978	00000000	00000013	addi	x0,x0,0	  x0:0x00000000
       59805000	      5979	8000065c	00000013	addi	x0,x0,0	  x0:0x00000000
       59815000	      5980	80000660	fd5ff96f	jal	x18,80000660	 x18=0x80000660
       59825000	      5981	00000000	00000013	addi	x0,x0,0	  x0:0x00000000
       59835000	      5982	80000630	00000013	addi	x0,x0,0	  x0:0x00000000
       59845000	      5983	80000634	01800cef	jal	x25,80000634	 x25=0x80000634
       59855000	      5984	00000000	00000013	addi	x0,x0,0	  x0:0x00000000
       59865000	      5985	80000648	00000013	addi	x0,x0,0	  x0:0x00000000
       59875000	      5986	8000064c	ff1ffaef	jal	x21,8000064c	 x21=0x8000064c
       59885000	      5987	00000000	00000013	addi	x0,x0,0	  x0:0x00000000
       59895000	      5988	80000638	00000013	addi	x0,x0,0	  x0:0x00000000
       59905000	      5989	8000063c	fe5ff0ef	jal	x1,8000063c	  x1=0x8000063c
       59915000	      5990	00000000	00000013	addi	x0,x0,0	  x0:0x00000000
       59925000	      5991	8000061c	00000013	addi	x0,x0,0	  x0:0x00000000
       59935000	      5992	80000620	030000ef	jal	x1,80000620	  x1=0x80000620
       59945000	      5993	00000000	00000013	addi	x0,x0,0	  x0:0x00000000
       59955000	      5994	8000064c	00000013	addi	x0,x0,0	  x0:0x00000000
       59965000	      5995	80000650	fddff0ef	jal	x1,80000650	  x1=0x80000650
       59975000	      5996	00000000	00000013	addi	x0,x0,0	  x0:0x00000000
       59985000	      5997	80000628	00000013	addi	x0,x0,0	  x0:0x00000000
       59995000	      5998	8000062c	014000ef	jal	x1,8000062c	  x1=0x8000062c
       60005000	      5999	00000000	00000013	addi	x0,x0,0	  x0:0x00000000
       60015000	      6000	8000063c	00000013	addi	x0,x0,0	  x0:0x00000000
       60025000	      6001	80000640	018000ef	jal	x1,80000640	  x1=0x80000640
       60035000	      6002	00000000	00000013	addi	x0,x0,0	  x0:0x00000000
       60045000	      6003	80000654	00000013	addi	x0,x0,0	  x0:0x00000000
       60055000	      6004	80000658	fb1ff0ef	jal	x1,80000658	  x1=0x80000658
       60065000	      6005	00000000	00000013	addi	x0,x0,0	  x0:0x00000000
       60075000	      6006	80000604	00000013	addi	x0,x0,0	  x0:0x00000000
       60085000	      6007	80000608	fedffbef	jal	x23,80000608	 x23=0x80000608
       60095000	      6008	00000000	00000013	addi	x0,x0,0	  x0:0x00000000
       60105000	      6009	800005f0	00000013	addi	x0,x0,0	  x0:0x00000000
       60115000	      6010	800005f4	054002ef	jal	x5,800005f4	  x5=0x800005f4
       60125000	      6011	00000000	00000013	addi	x0,x0,0	  x0:0x00000000
       60135000	      6012	80000644	00000013	addi	x0,x0,0	  x0:0x00000000
       60145000	      6013	80000648	01c000ef	jal	x1,80000648	  x1=0x80000648
       60155000	      6014	00000000	00000013	addi	x0,x0,0	  x0:0x00000000
       60165000	      6015	80000660	00000013	addi	x0,x0,0	  x0:0x00000000
       60175000	      6016	80000664	f9dff0ef	jal	x1,80000664	  x1=0x80000664
       60185000	      6017	00000000	00000013	addi	x0,x0,0	  x0:0x00000000
       60195000	      6018	800005fc	00000013	addi	x0,x0,0	  x0:0x00000000
       60205000	      6019	80000600	06800bef	jal	x23,80000600	 x23=0x80000600
       60215000	      6020	00000000	00000013	addi	x0,x0,0	  x0:0x00000000
       60225000	      6021	80000664	00000013	addi	x0,x0,0	  x0:0x00000000
       60235000	      6022	80000668	32372f93	slti	x31,x14,803	 x14:0x800003c0 x31=0x00000001
       60245000	      6023	8000066c	00400d6f	jal	x26,8000066c	 x26=0x8000066c
       60255000	      6024	00000000	00000013	addi	x0,x0,0	  x0:0x00000000
       60265000	      6025	8000066c	00000013	addi	x0,x0,0	  x0:0x00000000
       60275000	      6026	80000670	010008ef	jal	x17,80000670	 x17=0x80000670
       60285000	      6027	00000000	00000013	addi	x0,x0,0	  x0:0x00000000
       60295000	      6028	8000067c	00000013	addi	x0,x0,0	  x0:0x00000000
       60305000	      6029	80000680	0100046f	jal	x8,80000680	  x8=0x80000680
       60315000	      6030	00000000	00000013	addi	x0,x0,0	  x0:0x00000000
       60325000	      6031	8000068c	00000013	addi	x0,x0,0	  x0:0x00000000
       60335000	      6032	80000690	fe5ffa6f	jal	x20,80000690	 x20=0x80000690
       60345000	      6033	00000000	00000013	addi	x0,x0,0	  x0:0x00000000
       60355000	      6034	80000670	00000013	addi	x0,x0,0	  x0:0x00000000
       60365000	      6035	80000674	020000ef	jal	x1,80000674	  x1=0x80000674
       60375000	      6036	00000000	00000013	addi	x0,x0,0	  x0:0x00000000
       60385000	      6037	80000690	00000013	addi	x0,x0,0	  x0:0x00000000
       60395000	      6038	80000694	01400c6f	jal	x24,80000694	 x24=0x80000694
       60405000	      6039	00000000	00000013	addi	x0,x0,0	  x0:0x00000000
       60415000	      6040	800006a4	00000013	addi	x0,x0,0	  x0:0x00000000
       60425000	      6041	800006a8	fd1ff2ef	jal	x5,800006a8	  x5=0x800006a8
       60435000	      6042	00000000	00000013	addi	x0,x0,0	  x0:0x00000000
       60445000	      6043	80000674	00000013	addi	x0,x0,0	  x0:0x00000000
       60455000	      6044	80000678	020000ef	jal	x1,80000678	  x1=0x80000678
       60465000	      6045	00000000	00000013	addi	x0,x0,0	  x0:0x00000000
       60475000	      6046	80000694	00000013	addi	x0,x0,0	  x0:0x00000000
       60485000	      6047	80000698	fedff0ef	jal	x1,80000698	  x1=0x80000698
       60495000	      6048	00000000	00000013	addi	x0,x0,0	  x0:0x00000000
       60505000	      6049	80000680	00000013	addi	x0,x0,0	  x0:0x00000000
       60515000	      6050	80000684	020000ef	jal	x1,80000684	  x1=0x80000684
       60525000	      6051	00000000	00000013	addi	x0,x0,0	  x0:0x00000000
       60535000	      6052	800006a0	00000013	addi	x0,x0,0	  x0:0x00000000
       60545000	      6053	800006a4	fe9ff0ef	jal	x1,800006a4	  x1=0x800006a4
       60555000	      6054	00000000	00000013	addi	x0,x0,0	  x0:0x00000000
       60565000	      6055	80000688	00000013	addi	x0,x0,0	  x0:0x00000000
       60575000	      6056	8000068c	02c000ef	jal	x1,8000068c	  x1=0x8000068c
       60585000	      6057	00000000	00000013	addi	x0,x0,0	  x0:0x00000000
       60595000	      6058	800006b4	00000013	addi	x0,x0,0	  x0:0x00000000
       60605000	      6059	800006b8	ff5ff0ef	jal	x1,800006b8	  x1=0x800006b8
       60615000	      6060	00000000	00000013	addi	x0,x0,0	  x0:0x00000000
       60625000	      6061	800006a8	00000013	addi	x0,x0,0	  x0:0x00000000
       60635000	      6062	800006ac	fddff26f	jal	x4,800006ac	  x4=0x800006ac
       60645000	      6063	00000000	00000013	addi	x0,x0,0	  x0:0x00000000
       60655000	      6064	80000684	00000013	addi	x0,x0,0	  x0:0x00000000
       60665000	      6065	80000688	02c000ef	jal	x1,80000688	  x1=0x80000688
       60675000	      6066	00000000	00000013	addi	x0,x0,0	  x0:0x00000000
       60685000	      6067	800006b0	00000013	addi	x0,x0,0	  x0:0x00000000
       60695000	      6068	800006b4	fe9ff3ef	jal	x7,800006b4	  x7=0x800006b4
       60705000	      6069	00000000	00000013	addi	x0,x0,0	  x0:0x00000000
       60715000	      6070	80000698	00000013	addi	x0,x0,0	  x0:0x00000000
       60725000	      6071	8000069c	fe1ff0ef	jal	x1,8000069c	  x1=0x8000069c
       60735000	      6072	00000000	00000013	addi	x0,x0,0	  x0:0x00000000
       60745000	      6073	80000678	00000013	addi	x0,x0,0	  x0:0x00000000
       60755000	      6074	8000067c	024000ef	jal	x1,8000067c	  x1=0x8000067c
       60765000	      6075	00000000	00000013	addi	x0,x0,0	  x0:0x00000000
       60775000	      6076	8000069c	00000013	addi	x0,x0,0	  x0:0x00000000
       60785000	      6077	800006a0	01000cef	jal	x25,800006a0	 x25=0x800006a0
       60795000	      6078	00000000	00000013	addi	x0,x0,0	  x0:0x00000000
       60805000	      6079	800006ac	00000013	addi	x0,x0,0	  x0:0x00000000
       60815000	      6080	800006b0	00c002ef	jal	x5,800006b0	  x5=0x800006b0
       60825000	      6081	00000000	00000013	addi	x0,x0,0	  x0:0x00000000
       60835000	      6082	800006b8	00000013	addi	x0,x0,0	  x0:0x00000000
       60845000	      6083	800006bc	00f69d13	slli	x26,x13,0xf	 x13:0x3e6eded7 x26=0x6f6b8000
       60855000	      6084	800006c0	02400d6f	jal	x26,800006c0	 x26=0x800006c0
       60865000	      6085	00000000	00000013	addi	x0,x0,0	  x0:0x00000000
       60875000	      6086	800006e0	00000013	addi	x0,x0,0	  x0:0x00000000
       60885000	      6087	800006e4	008000ef	jal	x1,800006e4	  x1=0x800006e4
       60895000	      6088	00000000	00000013	addi	x0,x0,0	  x0:0x00000000
       60905000	      6089	800006e8	00000013	addi	x0,x0,0	  x0:0x00000000
       60915000	      6090	800006ec	ff1ff0ef	jal	x1,800006ec	  x1=0x800006ec
       60925000	      6091	00000000	00000013	addi	x0,x0,0	  x0:0x00000000
       60935000	      6092	800006d8	00000013	addi	x0,x0,0	  x0:0x00000000
       60945000	      6093	800006dc	fe9ff0ef	jal	x1,800006dc	  x1=0x800006dc
       60955000	      6094	00000000	00000013	addi	x0,x0,0	  x0:0x00000000
       60965000	      6095	800006c0	00000013	addi	x0,x0,0	  x0:0x00000000
       60975000	      6096	800006c4	014000ef	jal	x1,800006c4	  x1=0x800006c4
       60985000	      6097	00000000	00000013	addi	x0,x0,0	  x0:0x00000000
       60995000	      6098	800006d4	00000013	addi	x0,x0,0	  x0:0x00000000
       61005000	      6099	800006d8	ff5ff0ef	jal	x1,800006d8	  x1=0x800006d8
       61015000	      6100	00000000	00000013	addi	x0,x0,0	  x0:0x00000000
       61025000	      6101	800006c8	00000013	addi	x0,x0,0	  x0:0x00000000
       61035000	      6102	800006cc	004000ef	jal	x1,800006cc	  x1=0x800006cc
       61045000	      6103	00000000	00000013	addi	x0,x0,0	  x0:0x00000000
       61055000	      6104	800006cc	00000013	addi	x0,x0,0	  x0:0x00000000
       61065000	      6105	800006d0	004000ef	jal	x1,800006d0	  x1=0x800006d0
       61075000	      6106	00000000	00000013	addi	x0,x0,0	  x0:0x00000000
       61085000	      6107	800006d0	00000013	addi	x0,x0,0	  x0:0x00000000
       61095000	      6108	800006d4	01c00cef	jal	x25,800006d4	 x25=0x800006d4
       61105000	      6109	00000000	00000013	addi	x0,x0,0	  x0:0x00000000
       61115000	      6110	800006ec	00000013	addi	x0,x0,0	  x0:0x00000000
       61125000	      6111	800006f0	ff1ff0ef	jal	x1,800006f0	  x1=0x800006f0
       61135000	      6112	00000000	00000013	addi	x0,x0,0	  x0:0x00000000
       61145000	      6113	800006dc	00000013	addi	x0,x0,0	  x0:0x00000000
       61155000	      6114	800006e0	008000ef	jal	x1,800006e0	  x1=0x800006e0
       61165000	      6115	00000000	00000013	addi	x0,x0,0	  x0:0x00000000
       61175000	      6116	800006e4	00000013	addi	x0,x0,0	  x0:0x00000000
       61185000	      6117	800006e8	fe1ff0ef	jal	x1,800006e8	  x1=0x800006e8
       61195000	      6118	00000000	00000013	addi	x0,x0,0	  x0:0x00000000
       61205000	      6119	800006c4	00000013	addi	x0,x0,0	  x0:0x00000000
       61215000	      6120	800006c8	02c008ef	jal	x17,800006c8	 x17=0x800006c8
       61225000	      6121	00000000	00000013	addi	x0,x0,0	  x0:0x00000000
       61235000	      6122	800006f0	00000013	addi	x0,x0,0	  x0:0x00000000
       61245000	      6123	800006f4	693eef93	ori	x31,x29,1683	 x29:0x800005f8 x31=0x800007fb
       61255000	      6124	800006f8	02800d6f	jal	x26,800006f8	 x26=0x800006f8
       61265000	      6125	00000000	00000013	addi	x0,x0,0	  x0:0x00000000
       61275000	      6126	8000071c	00000013	addi	x0,x0,0	  x0:0x00000000
       61285000	      6127	80000720	0100096f	jal	x18,80000720	 x18=0x80000720
       61295000	      6128	00000000	00000013	addi	x0,x0,0	  x0:0x00000000
       61305000	      6129	8000072c	00000013	addi	x0,x0,0	  x0:0x00000000
       61315000	      6130	80000730	fe5ff0ef	jal	x1,80000730	  x1=0x80000730
       61325000	      6131	00000000	00000013	addi	x0,x0,0	  x0:0x00000000
       61335000	      6132	80000710	00000013	addi	x0,x0,0	  x0:0x00000000
       61345000	      6133	80000714	ffdffa6f	jal	x20,80000714	 x20=0x80000714
       61355000	      6134	00000000	00000013	addi	x0,x0,0	  x0:0x00000000
       61365000	      6135	8000070c	00000013	addi	x0,x0,0	  x0:0x00000000
       61375000	      6136	80000710	01c000ef	jal	x1,80000710	  x1=0x80000710
       61385000	      6137	00000000	00000013	addi	x0,x0,0	  x0:0x00000000
       61395000	      6138	80000728	00000013	addi	x0,x0,0	  x0:0x00000000
       61405000	      6139	8000072c	ffdffc6f	jal	x24,8000072c	 x24=0x8000072c
       61415000	      6140	00000000	00000013	addi	x0,x0,0	  x0:0x00000000
       61425000	      6141	80000724	00000013	addi	x0,x0,0	  x0:0x00000000
       61435000	      6142	80000728	ff1ff0ef	jal	x1,80000728	  x1=0x80000728
       61445000	      6143	00000000	00000013	addi	x0,x0,0	  x0:0x00000000
       61455000	      6144	80000714	00000013	addi	x0,x0,0	  x0:0x00000000
       61465000	      6145	80000718	fe5ff0ef	jal	x1,80000718	  x1=0x80000718
       61475000	      6146	00000000	00000013	addi	x0,x0,0	  x0:0x00000000
       61485000	      6147	800006f8	00000013	addi	x0,x0,0	  x0:0x00000000
       61495000	      6148	800006fc	010000ef	jal	x1,800006fc	  x1=0x800006fc
       61505000	      6149	00000000	00000013	addi	x0,x0,0	  x0:0x00000000
       61515000	      6150	80000708	00000013	addi	x0,x0,0	  x0:0x00000000
       61525000	      6151	8000070c	018008ef	jal	x17,8000070c	 x17=0x8000070c
       61535000	      6152	00000000	00000013	addi	x0,x0,0	  x0:0x00000000
       61545000	      6153	80000720	00000013	addi	x0,x0,0	  x0:0x00000000
       61555000	      6154	80000724	ff9ff0ef	jal	x1,80000724	  x1=0x80000724
       61565000	      6155	00000000	00000013	addi	x0,x0,0	  x0:0x00000000
       61575000	      6156	80000718	00000013	addi	x0,x0,0	  x0:0x00000000
       61585000	      6157	8000071c	fe9ff0ef	jal	x1,8000071c	  x1=0x8000071c
       61595000	      6158	00000000	00000013	addi	x0,x0,0	  x0:0x00000000
       61605000	      6159	80000700	00000013	addi	x0,x0,0	  x0:0x00000000
       61615000	      6160	80000704	0040076f	jal	x14,80000704	 x14=0x80000704
       61625000	      6161	00000000	00000013	addi	x0,x0,0	  x0:0x00000000
       61635000	      6162	80000704	00000013	addi	x0,x0,0	  x0:0x00000000
       61645000	      6163	80000708	ff9ffc6f	jal	x24,80000708	 x24=0x80000708
       61655000	      6164	00000000	00000013	addi	x0,x0,0	  x0:0x00000000
       61665000	      6165	800006fc	00000013	addi	x0,x0,0	  x0:0x00000000
       61675000	      6166	80000700	0340076f	jal	x14,80000700	 x14=0x80000700
       61685000	      6167	00000000	00000013	addi	x0,x0,0	  x0:0x00000000
       61695000	      6168	80000730	00000013	addi	x0,x0,0	  x0:0x00000000
       61705000	      6169	80000734	0175cb33	xor	x22,x11,x23	 x11:0x8000052c x23:0x80000600 x22=0x0000032c
       61715000	      6170	80000738	00800d6f	jal	x26,80000738	 x26=0x80000738
       61725000	      6171	00000000	00000013	addi	x0,x0,0	  x0:0x00000000
       61735000	      6172	8000073c	00000013	addi	x0,x0,0	  x0:0x00000000
       61745000	      6173	80000740	0240026f	jal	x4,80000740	  x4=0x80000740
       61755000	      6174	00000000	00000013	addi	x0,x0,0	  x0:0x00000000
       61765000	      6175	80000760	00000013	addi	x0,x0,0	  x0:0x00000000
       61775000	      6176	80000764	fe9ff0ef	jal	x1,80000764	  x1=0x80000764
       61785000	      6177	00000000	00000013	addi	x0,x0,0	  x0:0x00000000
       61795000	      6178	80000748	00000013	addi	x0,x0,0	  x0:0x00000000
       61805000	      6179	8000074c	014000ef	jal	x1,8000074c	  x1=0x8000074c
       61815000	      6180	00000000	00000013	addi	x0,x0,0	  x0:0x00000000
       61825000	      6181	8000075c	00000013	addi	x0,x0,0	  x0:0x00000000
       61835000	      6182	80000760	00800b6f	jal	x22,80000760	 x22=0x80000760
       61845000	      6183	00000000	00000013	addi	x0,x0,0	  x0:0x00000000
       61855000	      6184	80000764	00000013	addi	x0,x0,0	  x0:0x00000000
       61865000	      6185	80000768	fedff0ef	jal	x1,80000768	  x1=0x80000768
       61875000	      6186	00000000	00000013	addi	x0,x0,0	  x0:0x00000000
       61885000	      6187	80000750	00000013	addi	x0,x0,0	  x0:0x00000000
       61895000	      6188	80000754	018002ef	jal	x5,80000754	  x5=0x80000754
       61905000	      6189	00000000	00000013	addi	x0,x0,0	  x0:0x00000000
       61915000	      6190	80000768	00000013	addi	x0,x0,0	  x0:0x00000000
       61925000	      6191	8000076c	fedffd6f	jal	x26,8000076c	 x26=0x8000076c
       61935000	      6192	00000000	00000013	addi	x0,x0,0	  x0:0x00000000
       61945000	      6193	80000754	00000013	addi	x0,x0,0	  x0:0x00000000
       61955000	      6194	80000758	ff1fff6f	jal	x30,80000758	 x30=0x80000758
       61965000	      6195	00000000	00000013	addi	x0,x0,0	  x0:0x00000000
       61975000	      6196	80000744	00000013	addi	x0,x0,0	  x0:0x00000000
       61985000	      6197	80000748	ff5fff6f	jal	x30,80000748	 x30=0x80000748
       61995000	      6198	00000000	00000013	addi	x0,x0,0	  x0:0x00000000
       62005000	      6199	80000738	00000013	addi	x0,x0,0	  x0:0x00000000
       62015000	      6200	8000073c	008002ef	jal	x5,8000073c	  x5=0x8000073c
       62025000	      6201	00000000	00000013	addi	x0,x0,0	  x0:0x00000000
       62035000	      6202	80000740	00000013	addi	x0,x0,0	  x0:0x00000000
       62045000	      6203	80000744	018000ef	jal	x1,80000744	  x1=0x80000744
       62055000	      6204	00000000	00000013	addi	x0,x0,0	  x0:0x00000000
       62065000	      6205	80000758	00000013	addi	x0,x0,0	  x0:0x00000000
       62075000	      6206	8000075c	ff5ff0ef	jal	x1,8000075c	  x1=0x8000075c
       62085000	      6207	00000000	00000013	addi	x0,x0,0	  x0:0x00000000
       62095000	      6208	8000074c	00000013	addi	x0,x0,0	  x0:0x00000000
       62105000	      6209	80000750	020002ef	jal	x5,80000750	  x5=0x80000750
       62115000	      6210	00000000	00000013	addi	x0,x0,0	  x0:0x00000000
       62125000	      6211	8000076c	00000013	addi	x0,x0,0	  x0:0x00000000
       62135000	      6212	80000770	01646133	or	x2,x8,x22	  x8:0x80000680 x22:0x80000760  x2=0x800007e0
       62145000	      6213	80000774	02400d6f	jal	x26,80000774	 x26=0x80000774
       62155000	      6214	00000000	00000013	addi	x0,x0,0	  x0:0x00000000
       62165000	      6215	80000794	00000013	addi	x0,x0,0	  x0:0x00000000
       62175000	      6216	80000798	008000ef	jal	x1,80000798	  x1=0x80000798
       62185000	      6217	00000000	00000013	addi	x0,x0,0	  x0:0x00000000
       62195000	      6218	8000079c	00000013	addi	x0,x0,0	  x0:0x00000000
       62205000	      6219	800007a0	fd9ff16f	jal	x2,800007a0	  x2=0x800007a0
       62215000	      6220	00000000	00000013	addi	x0,x0,0	  x0:0x00000000
       62225000	      6221	80000774	00000013	addi	x0,x0,0	  x0:0x00000000
       62235000	      6222	80000778	008000ef	jal	x1,80000778	  x1=0x80000778
       62245000	      6223	00000000	00000013	addi	x0,x0,0	  x0:0x00000000
       62255000	      6224	8000077c	00000013	addi	x0,x0,0	  x0:0x00000000
       62265000	      6225	80000780	008000ef	jal	x1,80000780	  x1=0x80000780
       62275000	      6226	00000000	00000013	addi	x0,x0,0	  x0:0x00000000
       62285000	      6227	80000784	00000013	addi	x0,x0,0	  x0:0x00000000
       62295000	      6228	80000788	008007ef	jal	x15,80000788	 x15=0x80000788
       62305000	      6229	00000000	00000013	addi	x0,x0,0	  x0:0x00000000
       62315000	      6230	8000078c	00000013	addi	x0,x0,0	  x0:0x00000000
       62325000	      6231	80000790	004000ef	jal	x1,80000790	  x1=0x80000790
       62335000	      6232	00000000	00000013	addi	x0,x0,0	  x0:0x00000000
       62345000	      6233	80000790	00000013	addi	x0,x0,0	  x0:0x00000000
       62355000	      6234	80000794	ff1ff0ef	jal	x1,80000794	  x1=0x80000794
       62365000	      6235	00000000	00000013	addi	x0,x0,0	  x0:0x00000000
       62375000	      6236	80000780	00000013	addi	x0,x0,0	  x0:0x00000000
       62385000	      6237	80000784	00800b6f	jal	x22,80000784	 x22=0x80000784
       62395000	      6238	00000000	00000013	addi	x0,x0,0	  x0:0x00000000
       62405000	      6239	80000788	00000013	addi	x0,x0,0	  x0:0x00000000
       62415000	      6240	8000078c	ff1ff0ef	jal	x1,8000078c	  x1=0x8000078c
       62425000	      6241	00000000	00000013	addi	x0,x0,0	  x0:0x00000000
       62435000	      6242	80000778	00000013	addi	x0,x0,0	  x0:0x00000000
       62445000	      6243	8000077c	020000ef	jal	x1,8000077c	  x1=0x8000077c
       62455000	      6244	00000000	00000013	addi	x0,x0,0	  x0:0x00000000
       62465000	      6245	80000798	00000013	addi	x0,x0,0	  x0:0x00000000
       62475000	      6246	8000079c	008000ef	jal	x1,8000079c	  x1=0x8000079c
       62485000	      6247	00000000	00000013	addi	x0,x0,0	  x0:0x00000000
       62495000	      6248	800007a0	00000013	addi	x0,x0,0	  x0:0x00000000
       62505000	      6249	800007a4	00000013	addi	x0,x0,0	  x0:0x00000000
       62515000	      6250	800007a8	05000d6f	jal	x26,800007a8	 x26=0x800007a8
       62525000	      6251	00000000	00000013	addi	x0,x0,0	  x0:0x00000000
       62535000	      6252	800007f4	00000013	addi	x0,x0,0	  x0:0x00000000
       62545000	      6253	800007f8	ff5ff0ef	jal	x1,800007f8	  x1=0x800007f8
       62555000	      6254	00000000	00000013	addi	x0,x0,0	  x0:0x00000000
       62565000	      6255	800007e8	00000013	addi	x0,x0,0	  x0:0x00000000
       62575000	      6256	800007ec	fc5ff2ef	jal	x5,800007ec	  x5=0x800007ec
       62585000	      6257	00000000	00000013	addi	x0,x0,0	  x0:0x00000000
       62595000	      6258	800007ac	00000013	addi	x0,x0,0	  x0:0x00000000
       62605000	      6259	800007b0	054000ef	jal	x1,800007b0	  x1=0x800007b0
       62615000	      6260	00000000	00000013	addi	x0,x0,0	  x0:0x00000000
       62625000	      6261	80000800	00000013	addi	x0,x0,0	  x0:0x00000000
       62635000	      6262	80000804	fcdff0ef	jal	x1,80000804	  x1=0x80000804
       62645000	      6263	00000000	00000013	addi	x0,x0,0	  x0:0x00000000
       62655000	      6264	800007cc	00000013	addi	x0,x0,0	  x0:0x00000000
       62665000	      6265	800007d0	0140096f	jal	x18,800007d0	 x18=0x800007d0
       62675000	      6266	00000000	00000013	addi	x0,x0,0	  x0:0x00000000
       62685000	      6267	800007e0	00000013	addi	x0,x0,0	  x0:0x00000000
       62695000	      6268	800007e4	00c001ef	jal	x3,800007e4	  x3=0x800007e4
       62705000	      6269	00000000	00000013	addi	x0,x0,0	  x0:0x00000000
       62715000	      6270	800007ec	00000013	addi	x0,x0,0	  x0:0x00000000
       62725000	      6271	800007f0	fedff0ef	jal	x1,800007f0	  x1=0x800007f0
       62735000	      6272	00000000	00000013	addi	x0,x0,0	  x0:0x00000000
       62745000	      6273	800007d8	00000013	addi	x0,x0,0	  x0:0x00000000
       62755000	      6274	800007dc	ffdff0ef	jal	x1,800007dc	  x1=0x800007dc
       62765000	      6275	00000000	00000013	addi	x0,x0,0	  x0:0x00000000
       62775000	      6276	800007d4	00000013	addi	x0,x0,0	  x0:0x00000000
       62785000	      6277	800007d8	ffdff0ef	jal	x1,800007d8	  x1=0x800007d8
       62795000	      6278	00000000	00000013	addi	x0,x0,0	  x0:0x00000000
       62805000	      6279	800007d0	00000013	addi	x0,x0,0	  x0:0x00000000
       62815000	      6280	800007d4	ff5ff0ef	jal	x1,800007d4	  x1=0x800007d4
       62825000	      6281	00000000	00000013	addi	x0,x0,0	  x0:0x00000000
       62835000	      6282	800007c4	00000013	addi	x0,x0,0	  x0:0x00000000
       62845000	      6283	800007c8	004000ef	jal	x1,800007c8	  x1=0x800007c8
       62855000	      6284	00000000	00000013	addi	x0,x0,0	  x0:0x00000000
       62865000	      6285	800007c8	00000013	addi	x0,x0,0	  x0:0x00000000
       62875000	      6286	800007cc	0440016f	jal	x2,800007cc	  x2=0x800007cc
       62885000	      6287	00000000	00000013	addi	x0,x0,0	  x0:0x00000000
       62895000	      6288	8000080c	00000013	addi	x0,x0,0	  x0:0x00000000
       62905000	      6289	80000810	f9dff0ef	jal	x1,80000810	  x1=0x80000810
       62915000	      6290	00000000	00000013	addi	x0,x0,0	  x0:0x00000000
       62925000	      6291	800007a8	00000013	addi	x0,x0,0	  x0:0x00000000
       62935000	      6292	800007ac	014000ef	jal	x1,800007ac	  x1=0x800007ac
       62945000	      6293	00000000	00000013	addi	x0,x0,0	  x0:0x00000000
       62955000	      6294	800007bc	00000013	addi	x0,x0,0	  x0:0x00000000
       62965000	      6295	800007c0	048001ef	jal	x3,800007c0	  x3=0x800007c0
       62975000	      6296	00000000	00000013	addi	x0,x0,0	  x0:0x00000000
       62985000	      6297	80000804	00000013	addi	x0,x0,0	  x0:0x00000000
       62995000	      6298	80000808	fedff0ef	jal	x1,80000808	  x1=0x80000808
       63005000	      6299	00000000	00000013	addi	x0,x0,0	  x0:0x00000000
       63015000	      6300	800007f0	00000013	addi	x0,x0,0	  x0:0x00000000
       63025000	      6301	800007f4	ff5ff2ef	jal	x5,800007f4	  x5=0x800007f4
       63035000	      6302	00000000	00000013	addi	x0,x0,0	  x0:0x00000000
       63045000	      6303	800007e4	00000013	addi	x0,x0,0	  x0:0x00000000
       63055000	      6304	800007e8	fcdff0ef	jal	x1,800007e8	  x1=0x800007e8
       63065000	      6305	00000000	00000013	addi	x0,x0,0	  x0:0x00000000
       63075000	      6306	800007b0	00000013	addi	x0,x0,0	  x0:0x00000000
       63085000	      6307	800007b4	004000ef	jal	x1,800007b4	  x1=0x800007b4
       63095000	      6308	00000000	00000013	addi	x0,x0,0	  x0:0x00000000
       63105000	      6309	800007b4	00000013	addi	x0,x0,0	  x0:0x00000000
       63115000	      6310	800007b8	004000ef	jal	x1,800007b8	  x1=0x800007b8
       63125000	      6311	00000000	00000013	addi	x0,x0,0	  x0:0x00000000
       63135000	      6312	800007b8	00000013	addi	x0,x0,0	  x0:0x00000000
       63145000	      6313	800007bc	024000ef	jal	x1,800007bc	  x1=0x800007bc
       63155000	      6314	00000000	00000013	addi	x0,x0,0	  x0:0x00000000
       63165000	      6315	800007dc	00000013	addi	x0,x0,0	  x0:0x00000000
       63175000	      6316	800007e0	fe5ffeef	jal	x29,800007e0	 x29=0x800007e0
       63185000	      6317	00000000	00000013	addi	x0,x0,0	  x0:0x00000000
       63195000	      6318	800007c0	00000013	addi	x0,x0,0	  x0:0x00000000
       63205000	      6319	800007c4	048004ef	jal	x9,800007c4	  x9=0x800007c4
       63215000	      6320	00000000	00000013	addi	x0,x0,0	  x0:0x00000000
       63225000	      6321	80000808	00000013	addi	x0,x0,0	  x0:0x00000000
       63235000	      6322	8000080c	ff1ff0ef	jal	x1,8000080c	  x1=0x8000080c
       63245000	      6323	00000000	00000013	addi	x0,x0,0	  x0:0x00000000
       63255000	      6324	800007f8	00000013	addi	x0,x0,0	  x0:0x00000000
       63265000	      6325	800007fc	004000ef	jal	x1,800007fc	  x1=0x800007fc
       63275000	      6326	00000000	00000013	addi	x0,x0,0	  x0:0x00000000
       63285000	      6327	800007fc	00000013	addi	x0,x0,0	  x0:0x00000000
       63295000	      6328	80000800	014000ef	jal	x1,80000800	  x1=0x80000800
       63305000	      6329	00000000	00000013	addi	x0,x0,0	  x0:0x00000000
       63315000	      6330	80000810	00000013	addi	x0,x0,0	  x0:0x00000000
       63325000	      6331	80000814	f08b0393	addi	x7,x22,-248	 x22:0x80000784  x7=0x8000068c
       63335000	      6332	80000818	00c00d6f	jal	x26,80000818	 x26=0x80000818
       63345000	      6333	00000000	00000013	addi	x0,x0,0	  x0:0x00000000
       63355000	      6334	80000820	00000013	addi	x0,x0,0	  x0:0x00000000
       63365000	      6335	80000824	ffdff0ef	jal	x1,80000824	  x1=0x80000824
       63375000	      6336	00000000	00000013	addi	x0,x0,0	  x0:0x00000000
       63385000	      6337	8000081c	00000013	addi	x0,x0,0	  x0:0x00000000
       63395000	      6338	80000820	010000ef	jal	x1,80000820	  x1=0x80000820
       63405000	      6339	00000000	00000013	addi	x0,x0,0	  x0:0x00000000
       63415000	      6340	8000082c	00000013	addi	x0,x0,0	  x0:0x00000000
       63425000	      6341	80000830	010000ef	jal	x1,80000830	  x1=0x80000830
       63435000	      6342	00000000	00000013	addi	x0,x0,0	  x0:0x00000000
       63445000	      6343	8000083c	00000013	addi	x0,x0,0	  x0:0x00000000
       63455000	      6344	80000840	ff5ff2ef	jal	x5,80000840	  x5=0x80000840
       63465000	      6345	00000000	00000013	addi	x0,x0,0	  x0:0x00000000
       63475000	      6346	80000830	00000013	addi	x0,x0,0	  x0:0x00000000
       63485000	      6347	80000834	ff5ff0ef	jal	x1,80000834	  x1=0x80000834
       63495000	      6348	00000000	00000013	addi	x0,x0,0	  x0:0x00000000
       63505000	      6349	80000824	00000013	addi	x0,x0,0	  x0:0x00000000
       63515000	      6350	80000828	ff5ffbef	jal	x23,80000828	 x23=0x80000828
       63525000	      6351	00000000	00000013	addi	x0,x0,0	  x0:0x00000000
       63535000	      6352	80000818	00000013	addi	x0,x0,0	  x0:0x00000000
       63545000	      6353	8000081c	028009ef	jal	x19,8000081c	 x19=0x8000081c
       63555000	      6354	00000000	00000013	addi	x0,x0,0	  x0:0x00000000
       63565000	      6355	80000840	00000013	addi	x0,x0,0	  x0:0x00000000
       63575000	      6356	80000844	ff9ff0ef	jal	x1,80000844	  x1=0x80000844
       63585000	      6357	00000000	00000013	addi	x0,x0,0	  x0:0x00000000
       63595000	      6358	80000838	00000013	addi	x0,x0,0	  x0:0x00000000
       63605000	      6359	8000083c	ff1ff0ef	jal	x1,8000083c	  x1=0x8000083c
       63615000	      6360	00000000	00000013	addi	x0,x0,0	  x0:0x00000000
       63625000	      6361	80000828	00000013	addi	x0,x0,0	  x0:0x00000000
       63635000	      6362	8000082c	00c000ef	jal	x1,8000082c	  x1=0x8000082c
       63645000	      6363	00000000	00000013	addi	x0,x0,0	  x0:0x00000000
       63655000	      6364	80000834	00000013	addi	x0,x0,0	  x0:0x00000000
       63665000	      6365	80000838	010000ef	jal	x1,80000838	  x1=0x80000838
       63675000	      6366	00000000	00000013	addi	x0,x0,0	  x0:0x00000000
       63685000	      6367	80000844	00000013	addi	x0,x0,0	  x0:0x00000000
       63695000	      6368	80000848	01260bb3	add	x23,x12,x18	 x12:0x80000594 x18:0x800007d0 x23=0x00000d64
       63705000	      6369	8000084c	05400d6f	jal	x26,8000084c	 x26=0x8000084c
       63715000	      6370	00000000	00000013	addi	x0,x0,0	  x0:0x00000000
       63725000	      6371	8000089c	00000013	addi	x0,x0,0	  x0:0x00000000
       63735000	      6372	800008a0	fd1ff0ef	jal	x1,800008a0	  x1=0x800008a0
       63745000	      6373	00000000	00000013	addi	x0,x0,0	  x0:0x00000000
       63755000	      6374	8000086c	00000013	addi	x0,x0,0	  x0:0x00000000
       63765000	      6375	80000870	048000ef	jal	x1,80000870	  x1=0x80000870
       63775000	      6376	00000000	00000013	addi	x0,x0,0	  x0:0x00000000
       63785000	      6377	800008b4	00000013	addi	x0,x0,0	  x0:0x00000000
       63795000	      6378	800008b8	fd5ff0ef	jal	x1,800008b8	  x1=0x800008b8
       63805000	      6379	00000000	00000013	addi	x0,x0,0	  x0:0x00000000
       63815000	      6380	80000888	00000013	addi	x0,x0,0	  x0:0x00000000
       63825000	      6381	8000088c	fd1ff0ef	jal	x1,8000088c	  x1=0x8000088c
       63835000	      6382	00000000	00000013	addi	x0,x0,0	  x0:0x00000000
       63845000	      6383	80000858	00000013	addi	x0,x0,0	  x0:0x00000000
       63855000	      6384	8000085c	010000ef	jal	x1,8000085c	  x1=0x8000085c
       63865000	      6385	00000000	00000013	addi	x0,x0,0	  x0:0x00000000
       63875000	      6386	80000868	00000013	addi	x0,x0,0	  x0:0x00000000
       63885000	      6387	8000086c	01800cef	jal	x25,8000086c	 x25=0x8000086c
       63895000	      6388	00000000	00000013	addi	x0,x0,0	  x0:0x00000000
       63905000	      6389	80000880	00000013	addi	x0,x0,0	  x0:0x00000000
       63915000	      6390	80000884	03c000ef	jal	x1,80000884	  x1=0x80000884
       63925000	      6391	00000000	00000013	addi	x0,x0,0	  x0:0x00000000
       63935000	      6392	800008bc	00000013	addi	x0,x0,0	  x0:0x00000000
       63945000	      6393	800008c0	fd9ff0ef	jal	x1,800008c0	  x1=0x800008c0
       63955000	      6394	00000000	00000013	addi	x0,x0,0	  x0:0x00000000
       63965000	      6395	80000894	00000013	addi	x0,x0,0	  x0:0x00000000
       63975000	      6396	80000898	fddffbef	jal	x23,80000898	 x23=0x80000898
       63985000	      6397	00000000	00000013	addi	x0,x0,0	  x0:0x00000000
       63995000	      6398	80000870	00000013	addi	x0,x0,0	  x0:0x00000000
       64005000	      6399	80000874	038000ef	jal	x1,80000874	  x1=0x80000874
       64015000	      6400	00000000	00000013	addi	x0,x0,0	  x0:0x00000000
       64025000	      6401	800008a8	00000013	addi	x0,x0,0	  x0:0x00000000
       64035000	      6402	800008ac	008000ef	jal	x1,800008ac	  x1=0x800008ac
       64045000	      6403	00000000	00000013	addi	x0,x0,0	  x0:0x00000000
       64055000	      6404	800008b0	00000013	addi	x0,x0,0	  x0:0x00000000
       64065000	      6405	800008b4	fa1ff0ef	jal	x1,800008b4	  x1=0x800008b4
       64075000	      6406	00000000	00000013	addi	x0,x0,0	  x0:0x00000000
       64085000	      6407	80000850	00000013	addi	x0,x0,0	  x0:0x00000000
       64095000	      6408	80000854	004000ef	jal	x1,80000854	  x1=0x80000854
       64105000	      6409	00000000	00000013	addi	x0,x0,0	  x0:0x00000000
       64115000	      6410	80000854	00000013	addi	x0,x0,0	  x0:0x00000000
       64125000	      6411	80000858	04c000ef	jal	x1,80000858	  x1=0x80000858
       64135000	      6412	00000000	00000013	addi	x0,x0,0	  x0:0x00000000
       64145000	      6413	800008a0	00000013	addi	x0,x0,0	  x0:0x00000000
       64155000	      6414	800008a4	fadff0ef	jal	x1,800008a4	  x1=0x800008a4
       64165000	      6415	00000000	00000013	addi	x0,x0,0	  x0:0x00000000
       64175000	      6416	8000084c	00000013	addi	x0,x0,0	  x0:0x00000000
       64185000	      6417	80000850	044000ef	jal	x1,80000850	  x1=0x80000850
       64195000	      6418	00000000	00000013	addi	x0,x0,0	  x0:0x00000000
       64205000	      6419	80000890	00000013	addi	x0,x0,0	  x0:0x00000000
       64215000	      6420	80000894	fe9ffa6f	jal	x20,80000894	 x20=0x80000894
       64225000	      6421	00000000	00000013	addi	x0,x0,0	  x0:0x00000000
       64235000	      6422	80000878	00000013	addi	x0,x0,0	  x0:0x00000000
       64245000	      6423	8000087c	ffdff0ef	jal	x1,8000087c	  x1=0x8000087c
       64255000	      6424	00000000	00000013	addi	x0,x0,0	  x0:0x00000000
       64265000	      6425	80000874	00000013	addi	x0,x0,0	  x0:0x00000000
       64275000	      6426	80000878	fedff66f	jal	x12,80000878	 x12=0x80000878
       64285000	      6427	00000000	00000013	addi	x0,x0,0	  x0:0x00000000
       64295000	      6428	80000860	00000013	addi	x0,x0,0	  x0:0x00000000
       64305000	      6429	80000864	024000ef	jal	x1,80000864	  x1=0x80000864
       64315000	      6430	00000000	00000013	addi	x0,x0,0	  x0:0x00000000
       64325000	      6431	80000884	00000013	addi	x0,x0,0	  x0:0x00000000
       64335000	      6432	80000888	fe1ff0ef	jal	x1,80000888	  x1=0x80000888
       64345000	      6433	00000000	00000013	addi	x0,x0,0	  x0:0x00000000
       64355000	      6434	80000864	00000013	addi	x0,x0,0	  x0:0x00000000
       64365000	      6435	80000868	0400076f	jal	x14,80000868	 x14=0x80000868
       64375000	      6436	00000000	00000013	addi	x0,x0,0	  x0:0x00000000
       64385000	      6437	800008a4	00000013	addi	x0,x0,0	  x0:0x00000000
       64395000	      6438	800008a8	fd9ff66f	jal	x12,800008a8	 x12=0x800008a8
       64405000	      6439	00000000	00000013	addi	x0,x0,0	  x0:0x00000000
       64415000	      6440	8000087c	00000013	addi	x0,x0,0	  x0:0x00000000
       64425000	      6441	80000880	030000ef	jal	x1,80000880	  x1=0x80000880
       64435000	      6442	00000000	00000013	addi	x0,x0,0	  x0:0x00000000
       64445000	      6443	800008ac	00000013	addi	x0,x0,0	  x0:0x00000000
       64455000	      6444	800008b0	fedff0ef	jal	x1,800008b0	  x1=0x800008b0
       64465000	      6445	00000000	00000013	addi	x0,x0,0	  x0:0x00000000
       64475000	      6446	80000898	00000013	addi	x0,x0,0	  x0:0x00000000
       64485000	      6447	8000089c	ff5ff0ef	jal	x1,8000089c	  x1=0x8000089c
       64495000	      6448	00000000	00000013	addi	x0,x0,0	  x0:0x00000000
       64505000	      6449	8000088c	00000013	addi	x0,x0,0	  x0:0x00000000
       64515000	      6450	80000890	02c000ef	jal	x1,80000890	  x1=0x80000890
       64525000	      6451	00000000	00000013	addi	x0,x0,0	  x0:0x00000000
       64535000	      6452	800008b8	00000013	addi	x0,x0,0	  x0:0x00000000
       64545000	      6453	800008bc	fa5ff26f	jal	x4,800008bc	  x4=0x800008bc
       64555000	      6454	00000000	00000013	addi	x0,x0,0	  x0:0x00000000
       64565000	      6455	8000085c	00000013	addi	x0,x0,0	  x0:0x00000000
       64575000	      6456	80000860	064000ef	jal	x1,80000860	  x1=0x80000860
       64585000	      6457	00000000	00000013	addi	x0,x0,0	  x0:0x00000000
       64595000	      6458	800008c0	00000013	addi	x0,x0,0	  x0:0x00000000
       64605000	      6459	800008c4	41485e33	sra	x28,x16,x20	 x16:0x80000394 x20:0x80000894 x28=0xfffff800
       64615000	      6460	800008c8	02c00d6f	jal	x26,800008c8	 x26=0x800008c8
       64625000	      6461	00000000	00000013	addi	x0,x0,0	  x0:0x00000000
       64635000	      6462	800008f0	00000013	addi	x0,x0,0	  x0:0x00000000
       64645000	      6463	800008f4	ff9ff0ef	jal	x1,800008f4	  x1=0x800008f4
       64655000	      6464	00000000	00000013	addi	x0,x0,0	  x0:0x00000000
       64665000	      6465	800008e8	00000013	addi	x0,x0,0	  x0:0x00000000
       64675000	      6466	800008ec	010000ef	jal	x1,800008ec	  x1=0x800008ec
       64685000	      6467	00000000	00000013	addi	x0,x0,0	  x0:0x00000000
       64695000	      6468	800008f8	00000013	addi	x0,x0,0	  x0:0x00000000
       64705000	      6469	800008fc	fd9ff0ef	jal	x1,800008fc	  x1=0x800008fc
       64715000	      6470	00000000	00000013	addi	x0,x0,0	  x0:0x00000000
       64725000	      6471	800008d0	00000013	addi	x0,x0,0	  x0:0x00000000
       64735000	      6472	800008d4	008000ef	jal	x1,800008d4	  x1=0x800008d4
       64745000	      6473	00000000	00000013	addi	x0,x0,0	  x0:0x00000000
       64755000	      6474	800008d8	00000013	addi	x0,x0,0	  x0:0x00000000
       64765000	      6475	800008dc	00c000ef	jal	x1,800008dc	  x1=0x800008dc
       64775000	      6476	00000000	00000013	addi	x0,x0,0	  x0:0x00000000
       64785000	      6477	800008e4	00000013	addi	x0,x0,0	  x0:0x00000000
       64795000	      6478	800008e8	018000ef	jal	x1,800008e8	  x1=0x800008e8
       64805000	      6479	00000000	00000013	addi	x0,x0,0	  x0:0x00000000
       64815000	      6480	800008fc	00000013	addi	x0,x0,0	  x0:0x00000000
       64825000	      6481	80000900	ff1ff0ef	jal	x1,80000900	  x1=0x80000900
       64835000	      6482	00000000	00000013	addi	x0,x0,0	  x0:0x00000000
       64845000	      6483	800008ec	00000013	addi	x0,x0,0	  x0:0x00000000
       64855000	      6484	800008f0	0280076f	jal	x14,800008f0	 x14=0x800008f0
       64865000	      6485	00000000	00000013	addi	x0,x0,0	  x0:0x00000000
       64875000	      6486	80000914	00000013	addi	x0,x0,0	  x0:0x00000000
       64885000	      6487	80000918	ff1ff0ef	jal	x1,80000918	  x1=0x80000918
       64895000	      6488	00000000	00000013	addi	x0,x0,0	  x0:0x00000000
       64905000	      6489	80000904	00000013	addi	x0,x0,0	  x0:0x00000000
       64915000	      6490	80000908	024004ef	jal	x9,80000908	  x9=0x80000908
       64925000	      6491	00000000	00000013	addi	x0,x0,0	  x0:0x00000000
       64935000	      6492	80000928	00000013	addi	x0,x0,0	  x0:0x00000000
       64945000	      6493	8000092c	fe9ffb6f	jal	x22,8000092c	 x22=0x8000092c
       64955000	      6494	00000000	00000013	addi	x0,x0,0	  x0:0x00000000
       64965000	      6495	80000910	00000013	addi	x0,x0,0	  x0:0x00000000
       64975000	      6496	80000914	fcdff0ef	jal	x1,80000914	  x1=0x80000914
       64985000	      6497	00000000	00000013	addi	x0,x0,0	  x0:0x00000000
       64995000	      6498	800008dc	00000013	addi	x0,x0,0	  x0:0x00000000
       65005000	      6499	800008e0	044000ef	jal	x1,800008e0	  x1=0x800008e0
       65015000	      6500	00000000	00000013	addi	x0,x0,0	  x0:0x00000000
       65025000	      6501	80000920	00000013	addi	x0,x0,0	  x0:0x00000000
       65035000	      6502	80000924	ff9ff0ef	jal	x1,80000924	  x1=0x80000924
       65045000	      6503	00000000	00000013	addi	x0,x0,0	  x0:0x00000000
       65055000	      6504	80000918	00000013	addi	x0,x0,0	  x0:0x00000000
       65065000	      6505	8000091c	fe9ff0ef	jal	x1,8000091c	  x1=0x8000091c
       65075000	      6506	00000000	00000013	addi	x0,x0,0	  x0:0x00000000
       65085000	      6507	80000900	00000013	addi	x0,x0,0	  x0:0x00000000
       65095000	      6508	80000904	01c000ef	jal	x1,80000904	  x1=0x80000904
       65105000	      6509	00000000	00000013	addi	x0,x0,0	  x0:0x00000000
       65115000	      6510	8000091c	00000013	addi	x0,x0,0	  x0:0x00000000
       65125000	      6511	80000920	fb1ff0ef	jal	x1,80000920	  x1=0x80000920
       65135000	      6512	00000000	00000013	addi	x0,x0,0	  x0:0x00000000
       65145000	      6513	800008cc	00000013	addi	x0,x0,0	  x0:0x00000000
       65155000	      6514	800008d0	040000ef	jal	x1,800008d0	  x1=0x800008d0
       65165000	      6515	00000000	00000013	addi	x0,x0,0	  x0:0x00000000
       65175000	      6516	8000090c	00000013	addi	x0,x0,0	  x0:0x00000000
       65185000	      6517	80000910	fbdff8ef	jal	x17,80000910	 x17=0x80000910
       65195000	      6518	00000000	00000013	addi	x0,x0,0	  x0:0x00000000
       65205000	      6519	800008c8	00000013	addi	x0,x0,0	  x0:0x00000000
       65215000	      6520	800008cc	064000ef	jal	x1,800008cc	  x1=0x800008cc
       65225000	      6521	00000000	00000013	addi	x0,x0,0	  x0:0x00000000
       65235000	      6522	8000092c	00000013	addi	x0,x0,0	  x0:0x00000000
       65245000	      6523	80000930	fa9ff0ef	jal	x1,80000930	  x1=0x80000930
       65255000	      6524	00000000	00000013	addi	x0,x0,0	  x0:0x00000000
       65265000	      6525	800008d4	00000013	addi	x0,x0,0	  x0:0x00000000
       65275000	      6526	800008d8	00c000ef	jal	x1,800008d8	  x1=0x800008d8
       65285000	      6527	00000000	00000013	addi	x0,x0,0	  x0:0x00000000
       65295000	      6528	800008e0	00000013	addi	x0,x0,0	  x0:0x00000000
       65305000	      6529	800008e4	028000ef	jal	x1,800008e4	  x1=0x800008e4
       65315000	      6530	00000000	00000013	addi	x0,x0,0	  x0:0x00000000
       65325000	      6531	80000908	00000013	addi	x0,x0,0	  x0:0x00000000
       65335000	      6532	8000090c	fedff0ef	jal	x1,8000090c	  x1=0x8000090c
       65345000	      6533	00000000	00000013	addi	x0,x0,0	  x0:0x00000000
       65355000	      6534	800008f4	00000013	addi	x0,x0,0	  x0:0x00000000
       65365000	      6535	800008f8	03000a6f	jal	x20,800008f8	 x20=0x800008f8
       65375000	      6536	00000000	00000013	addi	x0,x0,0	  x0:0x00000000
       65385000	      6537	80000924	00000013	addi	x0,x0,0	  x0:0x00000000
       65395000	      6538	80000928	00c000ef	jal	x1,80000928	  x1=0x80000928
       65405000	      6539	00000000	00000013	addi	x0,x0,0	  x0:0x00000000
       65415000	      6540	80000930	00000013	addi	x0,x0,0	  x0:0x00000000
       65425000	      6541	80000934	0167f233	and	x4,x15,x22	 x15:0x80000788 x22:0x8000092c  x4=0x80000108
       65435000	      6542	80000938	02c00d6f	jal	x26,80000938	 x26=0x80000938
       65445000	      6543	00000000	00000013	addi	x0,x0,0	  x0:0x00000000
       65455000	      6544	80000960	00000013	addi	x0,x0,0	  x0:0x00000000
       65465000	      6545	80000964	fedff26f	jal	x4,80000964	  x4=0x80000964
       65475000	      6546	00000000	00000013	addi	x0,x0,0	  x0:0x00000000
       65485000	      6547	8000094c	00000013	addi	x0,x0,0	  x0:0x00000000
       65495000	      6548	80000950	030001ef	jal	x3,80000950	  x3=0x80000950
       65505000	      6549	00000000	00000013	addi	x0,x0,0	  x0:0x00000000
       65515000	      6550	8000097c	00000013	addi	x0,x0,0	  x0:0x00000000
       65525000	      6551	80000980	ffdff0ef	jal	x1,80000980	  x1=0x80000980
       65535000	      6552	00000000	00000013	addi	x0,x0,0	  x0:0x00000000
       65545000	      6553	80000978	00000013	addi	x0,x0,0	  x0:0x00000000
       65555000	      6554	8000097c	fc9fffef	jal	x31,8000097c	 x31=0x8000097c
       65565000	      6555	00000000	00000013	addi	x0,x0,0	  x0:0x00000000
       65575000	      6556	80000940	00000013	addi	x0,x0,0	  x0:0x00000000
       65585000	      6557	80000944	ffdff16f	jal	x2,80000944	  x2=0x80000944
       65595000	      6558	00000000	00000013	addi	x0,x0,0	  x0:0x00000000
       65605000	      6559	8000093c	00000013	addi	x0,x0,0	  x0:0x00000000
       65615000	      6560	80000940	020000ef	jal	x1,80000940	  x1=0x80000940
       65625000	      6561	00000000	00000013	addi	x0,x0,0	  x0:0x00000000
       65635000	      6562	8000095c	00000013	addi	x0,x0,0	  x0:0x00000000
       65645000	      6563	80000960	fddff26f	jal	x4,80000960	  x4=0x80000960
       65655000	      6564	00000000	00000013	addi	x0,x0,0	  x0:0x00000000
       65665000	      6565	80000938	00000013	addi	x0,x0,0	  x0:0x00000000
       65675000	      6566	8000093c	038000ef	jal	x1,8000093c	  x1=0x8000093c
       65685000	      6567	00000000	00000013	addi	x0,x0,0	  x0:0x00000000
       65695000	      6568	80000970	00000013	addi	x0,x0,0	  x0:0x00000000
       65705000	      6569	80000974	fe9ff1ef	jal	x3,80000974	  x3=0x80000974
       65715000	      6570	00000000	00000013	addi	x0,x0,0	  x0:0x00000000
       65725000	      6571	80000958	00000013	addi	x0,x0,0	  x0:0x00000000
       65735000	      6572	8000095c	00c000ef	jal	x1,8000095c	  x1=0x8000095c
       65745000	      6573	00000000	00000013	addi	x0,x0,0	  x0:0x00000000
       65755000	      6574	80000964	00000013	addi	x0,x0,0	  x0:0x00000000
       65765000	      6575	80000968	01000c6f	jal	x24,80000968	 x24=0x80000968
       65775000	      6576	00000000	00000013	addi	x0,x0,0	  x0:0x00000000
       65785000	      6577	80000974	00000013	addi	x0,x0,0	  x0:0x00000000
       65795000	      6578	80000978	fd1ffeef	jal	x29,80000978	 x29=0x80000978
       65805000	      6579	00000000	00000013	addi	x0,x0,0	  x0:0x00000000
       65815000	      6580	80000944	00000013	addi	x0,x0,0	  x0:0x00000000
       65825000	      6581	80000948	024000ef	jal	x1,80000948	  x1=0x80000948
       65835000	      6582	00000000	00000013	addi	x0,x0,0	  x0:0x00000000
       65845000	      6583	80000968	00000013	addi	x0,x0,0	  x0:0x00000000
       65855000	      6584	8000096c	fedff0ef	jal	x1,8000096c	  x1=0x8000096c
       65865000	      6585	00000000	00000013	addi	x0,x0,0	  x0:0x00000000
       65875000	      6586	80000954	00000013	addi	x0,x0,0	  x0:0x00000000
       65885000	      6587	80000958	ff5ff66f	jal	x12,80000958	 x12=0x80000958
       65895000	      6588	00000000	00000013	addi	x0,x0,0	  x0:0x00000000
       65905000	      6589	80000948	00000013	addi	x0,x0,0	  x0:0x00000000
       65915000	      6590	8000094c	024000ef	jal	x1,8000094c	  x1=0x8000094c
       65925000	      6591	00000000	00000013	addi	x0,x0,0	  x0:0x00000000
       65935000	      6592	8000096c	00000013	addi	x0,x0,0	  x0:0x00000000
       65945000	      6593	80000970	fe5ff0ef	jal	x1,80000970	  x1=0x80000970
       65955000	      6594	00000000	00000013	addi	x0,x0,0	  x0:0x00000000
       65965000	      6595	80000950	00000013	addi	x0,x0,0	  x0:0x00000000
       65975000	      6596	80000954	030000ef	jal	x1,80000954	  x1=0x80000954
       65985000	      6597	00000000	00000013	addi	x0,x0,0	  x0:0x00000000
       65995000	      6598	80000980	00000013	addi	x0,x0,0	  x0:0x00000000
       66005000	      6599	80000984	01dcc7b3	xor	x15,x25,x29	 x25:0x8000086c x29:0x80000978 x15=0x00000114
       66015000	      6600	80000988	02c00d6f	jal	x26,80000988	 x26=0x80000988
       66025000	      6601	00000000	00000013	addi	x0,x0,0	  x0:0x00000000
       66035000	      6602	800009b0	00000013	addi	x0,x0,0	  x0:0x00000000
       66045000	      6603	800009b4	008000ef	jal	x1,800009b4	  x1=0x800009b4
       66055000	      6604	00000000	00000013	addi	x0,x0,0	  x0:0x00000000
       66065000	      6605	800009b8	00000013	addi	x0,x0,0	  x0:0x00000000
       66075000	      6606	800009bc	fddff0ef	jal	x1,800009bc	  x1=0x800009bc
       66085000	      6607	00000000	00000013	addi	x0,x0,0	  x0:0x00000000
       66095000	      6608	80000994	00000013	addi	x0,x0,0	  x0:0x00000000
       66105000	      6609	80000998	ff5ff0ef	jal	x1,80000998	  x1=0x80000998
       66115000	      6610	00000000	00000013	addi	x0,x0,0	  x0:0x00000000
       66125000	      6611	80000988	00000013	addi	x0,x0,0	  x0:0x00000000
       66135000	      6612	8000098c	01c000ef	jal	x1,8000098c	  x1=0x8000098c
       66145000	      6613	00000000	00000013	addi	x0,x0,0	  x0:0x00000000
       66155000	      6614	800009a4	00000013	addi	x0,x0,0	  x0:0x00000000
       66165000	      6615	800009a8	ff5ff46f	jal	x8,800009a8	  x8=0x800009a8
       66175000	      6616	00000000	00000013	addi	x0,x0,0	  x0:0x00000000
       66185000	      6617	80000998	00000013	addi	x0,x0,0	  x0:0x00000000
       66195000	      6618	8000099c	008002ef	jal	x5,8000099c	  x5=0x8000099c
       66205000	      6619	00000000	00000013	addi	x0,x0,0	  x0:0x00000000
       66215000	      6620	800009a0	00000013	addi	x0,x0,0	  x0:0x00000000
       66225000	      6621	800009a4	00c0066f	jal	x12,800009a4	 x12=0x800009a4
       66235000	      6622	00000000	00000013	addi	x0,x0,0	  x0:0x00000000
       66245000	      6623	800009ac	00000013	addi	x0,x0,0	  x0:0x00000000
       66255000	      6624	800009b0	ffdff0ef	jal	x1,800009b0	  x1=0x800009b0
       66265000	      6625	00000000	00000013	addi	x0,x0,0	  x0:0x00000000
       66275000	      6626	800009a8	00000013	addi	x0,x0,0	  x0:0x00000000
       66285000	      6627	800009ac	fe5ff0ef	jal	x1,800009ac	  x1=0x800009ac
       66295000	      6628	00000000	00000013	addi	x0,x0,0	  x0:0x00000000
       66305000	      6629	8000098c	00000013	addi	x0,x0,0	  x0:0x00000000
       66315000	      6630	80000990	00400cef	jal	x25,80000990	 x25=0x80000990
       66325000	      6631	00000000	00000013	addi	x0,x0,0	  x0:0x00000000
       66335000	      6632	80000990	00000013	addi	x0,x0,0	  x0:0x00000000
       66345000	      6633	80000994	00c000ef	jal	x1,80000994	  x1=0x80000994
       66355000	      6634	00000000	00000013	addi	x0,x0,0	  x0:0x00000000
       66365000	      6635	8000099c	00000013	addi	x0,x0,0	  x0:0x00000000
       66375000	      6636	800009a0	0180096f	jal	x18,800009a0	 x18=0x800009a0
       66385000	      6637	00000000	00000013	addi	x0,x0,0	  x0:0x00000000
       66395000	      6638	800009b4	00000013	addi	x0,x0,0	  x0:0x00000000
       66405000	      6639	800009b8	00800def	jal	x27,800009b8	 x27=0x800009b8
       66415000	      6640	00000000	00000013	addi	x0,x0,0	  x0:0x00000000
       66425000	      6641	800009bc	00000013	addi	x0,x0,0	  x0:0x00000000
       66435000	      6642	800009c0	4c24ba93	sltiu	x21,x9,1218	  x9:0x80000908 x21=0x00000000
       66445000	      6643	800009c4	01000d6f	jal	x26,800009c4	 x26=0x800009c4
       66455000	      6644	00000000	00000013	addi	x0,x0,0	  x0:0x00000000
       66465000	      6645	800009d0	00000013	addi	x0,x0,0	  x0:0x00000000
       66475000	      6646	800009d4	00c00eef	jal	x29,800009d4	 x29=0x800009d4
       66485000	      6647	00000000	00000013	addi	x0,x0,0	  x0:0x00000000
       66495000	      6648	800009dc	00000013	addi	x0,x0,0	  x0:0x00000000
       66505000	      6649	800009e0	014000ef	jal	x1,800009e0	  x1=0x800009e0
       66515000	      6650	00000000	00000013	addi	x0,x0,0	  x0:0x00000000
       66525000	      6651	800009f0	00000013	addi	x0,x0,0	  x0:0x00000000
       66535000	      6652	800009f4	0080086f	jal	x16,800009f4	 x16=0x800009f4
       66545000	      6653	00000000	00000013	addi	x0,x0,0	  x0:0x00000000
       66555000	      6654	800009f8	00000013	addi	x0,x0,0	  x0:0x00000000
       66565000	      6655	800009fc	fe9ff3ef	jal	x7,800009fc	  x7=0x800009fc
       66575000	      6656	00000000	00000013	addi	x0,x0,0	  x0:0x00000000
       66585000	      6657	800009e0	00000013	addi	x0,x0,0	  x0:0x00000000
       66595000	      6658	800009e4	00c0026f	jal	x4,800009e4	  x4=0x800009e4
       66605000	      6659	00000000	00000013	addi	x0,x0,0	  x0:0x00000000
       66615000	      6660	800009ec	00000013	addi	x0,x0,0	  x0:0x00000000
       66625000	      6661	800009f0	ffdff8ef	jal	x17,800009f0	 x17=0x800009f0
       66635000	      6662	00000000	00000013	addi	x0,x0,0	  x0:0x00000000
       66645000	      6663	800009e8	00000013	addi	x0,x0,0	  x0:0x00000000
       66655000	      6664	800009ec	ffdffcef	jal	x25,800009ec	 x25=0x800009ec
       66665000	      6665	00000000	00000013	addi	x0,x0,0	  x0:0x00000000
       66675000	      6666	800009e4	00000013	addi	x0,x0,0	  x0:0x00000000
       66685000	      6667	800009e8	fe1ff0ef	jal	x1,800009e8	  x1=0x800009e8
       66695000	      6668	00000000	00000013	addi	x0,x0,0	  x0:0x00000000
       66705000	      6669	800009c4	00000013	addi	x0,x0,0	  x0:0x00000000
       66715000	      6670	800009c8	014000ef	jal	x1,800009c8	  x1=0x800009c8
       66725000	      6671	00000000	00000013	addi	x0,x0,0	  x0:0x00000000
       66735000	      6672	800009d8	00000013	addi	x0,x0,0	  x0:0x00000000
       66745000	      6673	800009dc	ff1fff6f	jal	x30,800009dc	 x30=0x800009dc
       66755000	      6674	00000000	00000013	addi	x0,x0,0	  x0:0x00000000
       66765000	      6675	800009c8	00000013	addi	x0,x0,0	  x0:0x00000000
       66775000	      6676	800009cc	00c000ef	jal	x1,800009cc	  x1=0x800009cc
       66785000	      6677	00000000	00000013	addi	x0,x0,0	  x0:0x00000000
       66795000	      6678	800009d4	00000013	addi	x0,x0,0	  x0:0x00000000
       66805000	      6679	800009d8	ff9ff0ef	jal	x1,800009d8	  x1=0x800009d8
       66815000	      6680	00000000	00000013	addi	x0,x0,0	  x0:0x00000000
       66825000	      6681	800009cc	00000013	addi	x0,x0,0	  x0:0x00000000
       66835000	      6682	800009d0	028000ef	jal	x1,800009d0	  x1=0x800009d0
       66845000	      6683	00000000	00000013	addi	x0,x0,0	  x0:0x00000000
       66855000	      6684	800009f4	00000013	addi	x0,x0,0	  x0:0x00000000
       66865000	      6685	800009f8	008000ef	jal	x1,800009f8	  x1=0x800009f8
       66875000	      6686	00000000	00000013	addi	x0,x0,0	  x0:0x00000000
       66885000	      6687	800009fc	00000013	addi	x0,x0,0	  x0:0x00000000
       66895000	      6688	80000a00	004000ef	jal	x1,80000a00	  x1=0x80000a00
       66905000	      6689	00000000	00000013	addi	x0,x0,0	  x0:0x00000000
       66915000	      6690	80000a00	00000013	addi	x0,x0,0	  x0:0x00000000
       66925000	      6691	80000a04	00531f13	slli	x30,x6,0x5	  x6:0x80009fc4 x30=0x0013f880
       66935000	      6692	80000a08	06000d6f	jal	x26,80000a08	 x26=0x80000a08
       66945000	      6693	00000000	00000013	addi	x0,x0,0	  x0:0x00000000
       66955000	      6694	80000a64	00000013	addi	x0,x0,0	  x0:0x00000000
       66965000	      6695	80000a68	fc5ff96f	jal	x18,80000a68	 x18=0x80000a68
       66975000	      6696	00000000	00000013	addi	x0,x0,0	  x0:0x00000000
       66985000	      6697	80000a28	00000013	addi	x0,x0,0	  x0:0x00000000
       66995000	      6698	80000a2c	00400c6f	jal	x24,80000a2c	 x24=0x80000a2c
       67005000	      6699	00000000	00000013	addi	x0,x0,0	  x0:0x00000000
       67015000	      6700	80000a2c	00000013	addi	x0,x0,0	  x0:0x00000000
       67025000	      6701	80000a30	024000ef	jal	x1,80000a30	  x1=0x80000a30
       67035000	      6702	00000000	00000013	addi	x0,x0,0	  x0:0x00000000
       67045000	      6703	80000a50	00000013	addi	x0,x0,0	  x0:0x00000000
       67055000	      6704	80000a54	fedff0ef	jal	x1,80000a54	  x1=0x80000a54
       67065000	      6705	00000000	00000013	addi	x0,x0,0	  x0:0x00000000
       67075000	      6706	80000a3c	00000013	addi	x0,x0,0	  x0:0x00000000
       67085000	      6707	80000a40	00c004ef	jal	x9,80000a40	  x9=0x80000a40
       67095000	      6708	00000000	00000013	addi	x0,x0,0	  x0:0x00000000
       67105000	      6709	80000a48	00000013	addi	x0,x0,0	  x0:0x00000000
       67115000	      6710	80000a4c	ff1ff0ef	jal	x1,80000a4c	  x1=0x80000a4c
       67125000	      6711	00000000	00000013	addi	x0,x0,0	  x0:0x00000000
       67135000	      6712	80000a38	00000013	addi	x0,x0,0	  x0:0x00000000
       67145000	      6713	80000a3c	fd1ff0ef	jal	x1,80000a3c	  x1=0x80000a3c
       67155000	      6714	00000000	00000013	addi	x0,x0,0	  x0:0x00000000
       67165000	      6715	80000a08	00000013	addi	x0,x0,0	  x0:0x00000000
       67175000	      6716	80000a0c	02c002ef	jal	x5,80000a0c	  x5=0x80000a0c
       67185000	      6717	00000000	00000013	addi	x0,x0,0	  x0:0x00000000
       67195000	      6718	80000a34	00000013	addi	x0,x0,0	  x0:0x00000000
       67205000	      6719	80000a38	fe9ff0ef	jal	x1,80000a38	  x1=0x80000a38
       67215000	      6720	00000000	00000013	addi	x0,x0,0	  x0:0x00000000
       67225000	      6721	80000a1c	00000013	addi	x0,x0,0	  x0:0x00000000
       67235000	      6722	80000a20	ff9ff1ef	jal	x3,80000a20	  x3=0x80000a20
       67245000	      6723	00000000	00000013	addi	x0,x0,0	  x0:0x00000000
       67255000	      6724	80000a14	00000013	addi	x0,x0,0	  x0:0x00000000
       67265000	      6725	80000a18	060000ef	jal	x1,80000a18	  x1=0x80000a18
       67275000	      6726	00000000	00000013	addi	x0,x0,0	  x0:0x00000000
       67285000	      6727	80000a74	00000013	addi	x0,x0,0	  x0:0x00000000
       67295000	      6728	80000a78	fadff0ef	jal	x1,80000a78	  x1=0x80000a78
       67305000	      6729	00000000	00000013	addi	x0,x0,0	  x0:0x00000000
       67315000	      6730	80000a20	00000013	addi	x0,x0,0	  x0:0x00000000
       67325000	      6731	80000a24	04c0046f	jal	x8,80000a24	  x8=0x80000a24
       67335000	      6732	00000000	00000013	addi	x0,x0,0	  x0:0x00000000
       67345000	      6733	80000a6c	00000013	addi	x0,x0,0	  x0:0x00000000
       67355000	      6734	80000a70	fb9ff0ef	jal	x1,80000a70	  x1=0x80000a70
       67365000	      6735	00000000	00000013	addi	x0,x0,0	  x0:0x00000000
       67375000	      6736	80000a24	00000013	addi	x0,x0,0	  x0:0x00000000
       67385000	      6737	80000a28	0200076f	jal	x14,80000a28	 x14=0x80000a28
       67395000	      6738	00000000	00000013	addi	x0,x0,0	  x0:0x00000000
       67405000	      6739	80000a44	00000013	addi	x0,x0,0	  x0:0x00000000
       67415000	      6740	80000a48	fcdff5ef	jal	x11,80000a48	 x11=0x80000a48
       67425000	      6741	00000000	00000013	addi	x0,x0,0	  x0:0x00000000
       67435000	      6742	80000a10	00000013	addi	x0,x0,0	  x0:0x00000000
       67445000	      6743	80000a14	03c000ef	jal	x1,80000a14	  x1=0x80000a14
       67455000	      6744	00000000	00000013	addi	x0,x0,0	  x0:0x00000000
       67465000	      6745	80000a4c	00000013	addi	x0,x0,0	  x0:0x00000000
       67475000	      6746	80000a50	ff5ff96f	jal	x18,80000a50	 x18=0x80000a50
       67485000	      6747	00000000	00000013	addi	x0,x0,0	  x0:0x00000000
       67495000	      6748	80000a40	00000013	addi	x0,x0,0	  x0:0x00000000
       67505000	      6749	80000a44	01800c6f	jal	x24,80000a44	 x24=0x80000a44
       67515000	      6750	00000000	00000013	addi	x0,x0,0	  x0:0x00000000
       67525000	      6751	80000a58	00000013	addi	x0,x0,0	  x0:0x00000000
       67535000	      6752	80000a5c	ffdff86f	jal	x16,80000a5c	 x16=0x80000a5c
       67545000	      6753	00000000	00000013	addi	x0,x0,0	  x0:0x00000000
       67555000	      6754	80000a54	00000013	addi	x0,x0,0	  x0:0x00000000
       67565000	      6755	80000a58	fddff0ef	jal	x1,80000a58	  x1=0x80000a58
       67575000	      6756	00000000	00000013	addi	x0,x0,0	  x0:0x00000000
       67585000	      6757	80000a30	00000013	addi	x0,x0,0	  x0:0x00000000
       67595000	      6758	80000a34	02c000ef	jal	x1,80000a34	  x1=0x80000a34
       67605000	      6759	00000000	00000013	addi	x0,x0,0	  x0:0x00000000
       67615000	      6760	80000a5c	00000013	addi	x0,x0,0	  x0:0x00000000
       67625000	      6761	80000a60	00c000ef	jal	x1,80000a60	  x1=0x80000a60
       67635000	      6762	00000000	00000013	addi	x0,x0,0	  x0:0x00000000
       67645000	      6763	80000a68	00000013	addi	x0,x0,0	  x0:0x00000000
       67655000	      6764	80000a6c	fa5ff0ef	jal	x1,80000a6c	  x1=0x80000a6c
       67665000	      6765	00000000	00000013	addi	x0,x0,0	  x0:0x00000000
       67675000	      6766	80000a0c	00000013	addi	x0,x0,0	  x0:0x00000000
       67685000	      6767	80000a10	06c000ef	jal	x1,80000a10	  x1=0x80000a10
       67695000	      6768	00000000	00000013	addi	x0,x0,0	  x0:0x00000000
       67705000	      6769	80000a78	00000013	addi	x0,x0,0	  x0:0x00000000
       67715000	      6770	80000a7c	ff9ff66f	jal	x12,80000a7c	 x12=0x80000a7c
       67725000	      6771	00000000	00000013	addi	x0,x0,0	  x0:0x00000000
       67735000	      6772	80000a70	00000013	addi	x0,x0,0	  x0:0x00000000
       67745000	      6773	80000a74	ff1ff0ef	jal	x1,80000a74	  x1=0x80000a74
       67755000	      6774	00000000	00000013	addi	x0,x0,0	  x0:0x00000000
       67765000	      6775	80000a60	00000013	addi	x0,x0,0	  x0:0x00000000
       67775000	      6776	80000a64	fb9ff0ef	jal	x1,80000a64	  x1=0x80000a64
       67785000	      6777	00000000	00000013	addi	x0,x0,0	  x0:0x00000000
       67795000	      6778	80000a18	00000013	addi	x0,x0,0	  x0:0x00000000
       67805000	      6779	80000a1c	064000ef	jal	x1,80000a1c	  x1=0x80000a1c
       67815000	      6780	00000000	00000013	addi	x0,x0,0	  x0:0x00000000
       67825000	      6781	80000a7c	00000013	addi	x0,x0,0	  x0:0x00000000
       67835000	      6782	80000a80	00000013	addi	x0,x0,0	  x0:0x00000000
       67845000	      6783	80000a84	06000d6f	jal	x26,80000a84	 x26=0x80000a84
       67855000	      6784	00000000	00000013	addi	x0,x0,0	  x0:0x00000000
       67865000	      6785	80000ae0	00000013	addi	x0,x0,0	  x0:0x00000000
       67875000	      6786	80000ae4	fbdff66f	jal	x12,80000ae4	 x12=0x80000ae4
       67885000	      6787	00000000	00000013	addi	x0,x0,0	  x0:0x00000000
       67895000	      6788	80000a9c	00000013	addi	x0,x0,0	  x0:0x00000000
       67905000	      6789	80000aa0	ff1ffb6f	jal	x22,80000aa0	 x22=0x80000aa0
       67915000	      6790	00000000	00000013	addi	x0,x0,0	  x0:0x00000000
       67925000	      6791	80000a8c	00000013	addi	x0,x0,0	  x0:0x00000000
       67935000	      6792	80000a90	064000ef	jal	x1,80000a90	  x1=0x80000a90
       67945000	      6793	00000000	00000013	addi	x0,x0,0	  x0:0x00000000
       67955000	      6794	80000af0	00000013	addi	x0,x0,0	  x0:0x00000000
       67965000	      6795	80000af4	fc5ff0ef	jal	x1,80000af4	  x1=0x80000af4
       67975000	      6796	00000000	00000013	addi	x0,x0,0	  x0:0x00000000
       67985000	      6797	80000ab4	00000013	addi	x0,x0,0	  x0:0x00000000
       67995000	      6798	80000ab8	ff9ff1ef	jal	x3,80000ab8	  x3=0x80000ab8
       68005000	      6799	00000000	00000013	addi	x0,x0,0	  x0:0x00000000
       68015000	      6800	80000aac	00000013	addi	x0,x0,0	  x0:0x00000000
       68025000	      6801	80000ab0	018002ef	jal	x5,80000ab0	  x5=0x80000ab0
       68035000	      6802	00000000	00000013	addi	x0,x0,0	  x0:0x00000000
       68045000	      6803	80000ac4	00000013	addi	x0,x0,0	  x0:0x00000000
       68055000	      6804	80000ac8	fd1ff2ef	jal	x5,80000ac8	  x5=0x80000ac8
       68065000	      6805	00000000	00000013	addi	x0,x0,0	  x0:0x00000000
       68075000	      6806	80000a94	00000013	addi	x0,x0,0	  x0:0x00000000
       68085000	      6807	80000a98	01c000ef	jal	x1,80000a98	  x1=0x80000a98
       68095000	      6808	00000000	00000013	addi	x0,x0,0	  x0:0x00000000
       68105000	      6809	80000ab0	00000013	addi	x0,x0,0	  x0:0x00000000
       68115000	      6810	80000ab4	03c000ef	jal	x1,80000ab4	  x1=0x80000ab4
       68125000	      6811	00000000	00000013	addi	x0,x0,0	  x0:0x00000000
       68135000	      6812	80000aec	00000013	addi	x0,x0,0	  x0:0x00000000
       68145000	      6813	80000af0	fe1ff0ef	jal	x1,80000af0	  x1=0x80000af0
       68155000	      6814	00000000	00000013	addi	x0,x0,0	  x0:0x00000000
       68165000	      6815	80000acc	00000013	addi	x0,x0,0	  x0:0x00000000
       68175000	      6816	80000ad0	fc5ff46f	jal	x8,80000ad0	  x8=0x80000ad0
       68185000	      6817	00000000	00000013	addi	x0,x0,0	  x0:0x00000000
       68195000	      6818	80000a90	00000013	addi	x0,x0,0	  x0:0x00000000
       68205000	      6819	80000a94	010000ef	jal	x1,80000a94	  x1=0x80000a94
       68215000	      6820	00000000	00000013	addi	x0,x0,0	  x0:0x00000000
       68225000	      6821	80000aa0	00000013	addi	x0,x0,0	  x0:0x00000000
       68235000	      6822	80000aa4	004000ef	jal	x1,80000aa4	  x1=0x80000aa4
       68245000	      6823	00000000	00000013	addi	x0,x0,0	  x0:0x00000000
       68255000	      6824	80000aa4	00000013	addi	x0,x0,0	  x0:0x00000000
       68265000	      6825	80000aa8	030000ef	jal	x1,80000aa8	  x1=0x80000aa8
       68275000	      6826	00000000	00000013	addi	x0,x0,0	  x0:0x00000000
       68285000	      6827	80000ad4	00000013	addi	x0,x0,0	  x0:0x00000000
       68295000	      6828	80000ad8	fedff0ef	jal	x1,80000ad8	  x1=0x80000ad8
       68305000	      6829	00000000	00000013	addi	x0,x0,0	  x0:0x00000000
       68315000	      6830	80000ac0	00000013	addi	x0,x0,0	  x0:0x00000000
       68325000	      6831	80000ac4	028000ef	jal	x1,80000ac4	  x1=0x80000ac4
       68335000	      6832	00000000	00000013	addi	x0,x0,0	  x0:0x00000000
       68345000	      6833	80000ae8	00000013	addi	x0,x0,0	  x0:0x00000000
       68355000	      6834	80000aec	fd1ff8ef	jal	x17,80000aec	 x17=0x80000aec
       68365000	      6835	00000000	00000013	addi	x0,x0,0	  x0:0x00000000
       68375000	      6836	80000ab8	00000013	addi	x0,x0,0	  x0:0x00000000
       68385000	      6837	80000abc	fd1ff76f	jal	x14,80000abc	 x14=0x80000abc
       68395000	      6838	00000000	00000013	addi	x0,x0,0	  x0:0x00000000
       68405000	      6839	80000a88	00000013	addi	x0,x0,0	  x0:0x00000000
       68415000	      6840	80000a8c	05c000ef	jal	x1,80000a8c	  x1=0x80000a8c
       68425000	      6841	00000000	00000013	addi	x0,x0,0	  x0:0x00000000
       68435000	      6842	80000ae4	00000013	addi	x0,x0,0	  x0:0x00000000
       68445000	      6843	80000ae8	ff5ff0ef	jal	x1,80000ae8	  x1=0x80000ae8
       68455000	      6844	00000000	00000013	addi	x0,x0,0	  x0:0x00000000
       68465000	      6845	80000ad8	00000013	addi	x0,x0,0	  x0:0x00000000
       68475000	      6846	80000adc	fd1ff0ef	jal	x1,80000adc	  x1=0x80000adc
       68485000	      6847	00000000	00000013	addi	x0,x0,0	  x0:0x00000000
       68495000	      6848	80000aa8	00000013	addi	x0,x0,0	  x0:0x00000000
       68505000	      6849	80000aac	ff1ff1ef	jal	x3,80000aac	  x3=0x80000aac
       68515000	      6850	00000000	00000013	addi	x0,x0,0	  x0:0x00000000
       68525000	      6851	80000a98	00000013	addi	x0,x0,0	  x0:0x00000000
       68535000	      6852	80000a9c	fedff0ef	jal	x1,80000a9c	  x1=0x80000a9c
       68545000	      6853	00000000	00000013	addi	x0,x0,0	  x0:0x00000000
       68555000	      6854	80000a84	00000013	addi	x0,x0,0	  x0:0x00000000
       68565000	      6855	80000a88	04c000ef	jal	x1,80000a88	  x1=0x80000a88
       68575000	      6856	00000000	00000013	addi	x0,x0,0	  x0:0x00000000
       68585000	      6857	80000ad0	00000013	addi	x0,x0,0	  x0:0x00000000
       68595000	      6858	80000ad4	fedff0ef	jal	x1,80000ad4	  x1=0x80000ad4
       68605000	      6859	00000000	00000013	addi	x0,x0,0	  x0:0x00000000
       68615000	      6860	80000abc	00000013	addi	x0,x0,0	  x0:0x00000000
       68625000	      6861	80000ac0	02000aef	jal	x21,80000ac0	 x21=0x80000ac0
       68635000	      6862	00000000	00000013	addi	x0,x0,0	  x0:0x00000000
       68645000	      6863	80000adc	00000013	addi	x0,x0,0	  x0:0x00000000
       68655000	      6864	80000ae0	018000ef	jal	x1,80000ae0	  x1=0x80000ae0
       68665000	      6865	00000000	00000013	addi	x0,x0,0	  x0:0x00000000
       68675000	      6866	80000af4	00000013	addi	x0,x0,0	  x0:0x00000000
       68685000	      6867	80000af8	fd5ff0ef	jal	x1,80000af8	  x1=0x80000af8
       68695000	      6868	00000000	00000013	addi	x0,x0,0	  x0:0x00000000
       68705000	      6869	80000ac8	00000013	addi	x0,x0,0	  x0:0x00000000
       68715000	      6870	80000acc	030000ef	jal	x1,80000acc	  x1=0x80000acc
       68725000	      6871	00000000	00000013	addi	x0,x0,0	  x0:0x00000000
       68735000	      6872	80000af8	00000013	addi	x0,x0,0	  x0:0x00000000
       68745000	      6873	80000afc	000bf633	and	x12,x23,x0	 x23:0x80000898  x0:0x00000000 x12=0x00000000
       68755000	      6874	80000b00	02000d6f	jal	x26,80000b00	 x26=0x80000b00
       68765000	      6875	00000000	00000013	addi	x0,x0,0	  x0:0x00000000
       68775000	      6876	80000b1c	00000013	addi	x0,x0,0	  x0:0x00000000
       68785000	      6877	80000b20	ffdff8ef	jal	x17,80000b20	 x17=0x80000b20
       68795000	      6878	00000000	00000013	addi	x0,x0,0	  x0:0x00000000
       68805000	      6879	80000b18	00000013	addi	x0,x0,0	  x0:0x00000000
       68815000	      6880	80000b1c	ff9ff26f	jal	x4,80000b1c	  x4=0x80000b1c
       68825000	      6881	00000000	00000013	addi	x0,x0,0	  x0:0x00000000
       68835000	      6882	80000b10	00000013	addi	x0,x0,0	  x0:0x00000000
       68845000	      6883	80000b14	ff1ff0ef	jal	x1,80000b14	  x1=0x80000b14
       68855000	      6884	00000000	00000013	addi	x0,x0,0	  x0:0x00000000
       68865000	      6885	80000b00	00000013	addi	x0,x0,0	  x0:0x00000000
       68875000	      6886	80000b04	00c000ef	jal	x1,80000b04	  x1=0x80000b04
       68885000	      6887	00000000	00000013	addi	x0,x0,0	  x0:0x00000000
       68895000	      6888	80000b0c	00000013	addi	x0,x0,0	  x0:0x00000000
       68905000	      6889	80000b10	018000ef	jal	x1,80000b10	  x1=0x80000b10
       68915000	      6890	00000000	00000013	addi	x0,x0,0	  x0:0x00000000
       68925000	      6891	80000b24	00000013	addi	x0,x0,0	  x0:0x00000000
       68935000	      6892	80000b28	ffdff1ef	jal	x3,80000b28	  x3=0x80000b28
       68945000	      6893	00000000	00000013	addi	x0,x0,0	  x0:0x00000000
       68955000	      6894	80000b20	00000013	addi	x0,x0,0	  x0:0x00000000
       68965000	      6895	80000b24	0080026f	jal	x4,80000b24	  x4=0x80000b24
       68975000	      6896	00000000	00000013	addi	x0,x0,0	  x0:0x00000000
       68985000	      6897	80000b28	00000013	addi	x0,x0,0	  x0:0x00000000
       68995000	      6898	80000b2c	fedff0ef	jal	x1,80000b2c	  x1=0x80000b2c
       69005000	      6899	00000000	00000013	addi	x0,x0,0	  x0:0x00000000
       69015000	      6900	80000b14	00000013	addi	x0,x0,0	  x0:0x00000000
       69025000	      6901	80000b18	ff1ff8ef	jal	x17,80000b18	 x17=0x80000b18
       69035000	      6902	00000000	00000013	addi	x0,x0,0	  x0:0x00000000
       69045000	      6903	80000b04	00000013	addi	x0,x0,0	  x0:0x00000000
       69055000	      6904	80000b08	0040016f	jal	x2,80000b08	  x2=0x80000b08
       69065000	      6905	00000000	00000013	addi	x0,x0,0	  x0:0x00000000
       69075000	      6906	80000b08	00000013	addi	x0,x0,0	  x0:0x00000000
       69085000	      6907	80000b0c	024000ef	jal	x1,80000b0c	  x1=0x80000b0c
       69095000	      6908	00000000	00000013	addi	x0,x0,0	  x0:0x00000000
       69105000	      6909	80000b2c	00000013	addi	x0,x0,0	  x0:0x00000000
       69115000	      6910	80000b30	404e5a13	srai	x20,x28,0x4	 x28:0xfffff800 x20=0xffffff80
       69125000	      6911	80000b34	04000d6f	jal	x26,80000b34	 x26=0x80000b34
       69135000	      6912	00000000	00000013	addi	x0,x0,0	  x0:0x00000000
       69145000	      6913	80000b70	00000013	addi	x0,x0,0	  x0:0x00000000
       69155000	      6914	80000b74	fedff9ef	jal	x19,80000b74	 x19=0x80000b74
       69165000	      6915	00000000	00000013	addi	x0,x0,0	  x0:0x00000000
       69175000	      6916	80000b5c	00000013	addi	x0,x0,0	  x0:0x00000000
       69185000	      6917	80000b60	ff1ff1ef	jal	x3,80000b60	  x3=0x80000b60
       69195000	      6918	00000000	00000013	addi	x0,x0,0	  x0:0x00000000
       69205000	      6919	80000b4c	00000013	addi	x0,x0,0	  x0:0x00000000
       69215000	      6920	80000b50	ff1ff0ef	jal	x1,80000b50	  x1=0x80000b50
       69225000	      6921	00000000	00000013	addi	x0,x0,0	  x0:0x00000000
       69235000	      6922	80000b3c	00000013	addi	x0,x0,0	  x0:0x00000000
       69245000	      6923	80000b40	004000ef	jal	x1,80000b40	  x1=0x80000b40
       69255000	      6924	00000000	00000013	addi	x0,x0,0	  x0:0x00000000
       69265000	      6925	80000b40	00000013	addi	x0,x0,0	  x0:0x00000000
       69275000	      6926	80000b44	010000ef	jal	x1,80000b44	  x1=0x80000b44
       69285000	      6927	00000000	00000013	addi	x0,x0,0	  x0:0x00000000
       69295000	      6928	80000b50	00000013	addi	x0,x0,0	  x0:0x00000000
       69305000	      6929	80000b54	ff9ff86f	jal	x16,80000b54	 x16=0x80000b54
       69315000	      6930	00000000	00000013	addi	x0,x0,0	  x0:0x00000000
       69325000	      6931	80000b48	00000013	addi	x0,x0,0	  x0:0x00000000
       69335000	      6932	80000b4c	018002ef	jal	x5,80000b4c	  x5=0x80000b4c
       69345000	      6933	00000000	00000013	addi	x0,x0,0	  x0:0x00000000
       69355000	      6934	80000b60	00000013	addi	x0,x0,0	  x0:0x00000000
       69365000	      6935	80000b64	008000ef	jal	x1,80000b64	  x1=0x80000b64
       69375000	      6936	00000000	00000013	addi	x0,x0,0	  x0:0x00000000
       69385000	      6937	80000b68	00000013	addi	x0,x0,0	  x0:0x00000000
       69395000	      6938	80000b6c	fd1ff1ef	jal	x3,80000b6c	  x3=0x80000b6c
       69405000	      6939	00000000	00000013	addi	x0,x0,0	  x0:0x00000000
       69415000	      6940	80000b38	00000013	addi	x0,x0,0	  x0:0x00000000
       69425000	      6941	80000b3c	034005ef	jal	x11,80000b3c	 x11=0x80000b3c
       69435000	      6942	00000000	00000013	addi	x0,x0,0	  x0:0x00000000
       69445000	      6943	80000b6c	00000013	addi	x0,x0,0	  x0:0x00000000
       69455000	      6944	80000b70	fd9ff0ef	jal	x1,80000b70	  x1=0x80000b70
       69465000	      6945	00000000	00000013	addi	x0,x0,0	  x0:0x00000000
       69475000	      6946	80000b44	00000013	addi	x0,x0,0	  x0:0x00000000
       69485000	      6947	80000b48	0200026f	jal	x4,80000b48	  x4=0x80000b48
       69495000	      6948	00000000	00000013	addi	x0,x0,0	  x0:0x00000000
       69505000	      6949	80000b64	00000013	addi	x0,x0,0	  x0:0x00000000
       69515000	      6950	80000b68	ff1ff0ef	jal	x1,80000b68	  x1=0x80000b68
       69525000	      6951	00000000	00000013	addi	x0,x0,0	  x0:0x00000000
       69535000	      6952	80000b54	00000013	addi	x0,x0,0	  x0:0x00000000
       69545000	      6953	80000b58	004000ef	jal	x1,80000b58	  x1=0x80000b58
       69555000	      6954	00000000	00000013	addi	x0,x0,0	  x0:0x00000000
       69565000	      6955	80000b58	00000013	addi	x0,x0,0	  x0:0x00000000
       69575000	      6956	80000b5c	fddff0ef	jal	x1,80000b5c	  x1=0x80000b5c
       69585000	      6957	00000000	00000013	addi	x0,x0,0	  x0:0x00000000
       69595000	      6958	80000b34	00000013	addi	x0,x0,0	  x0:0x00000000
       69605000	      6959	80000b38	040000ef	jal	x1,80000b38	  x1=0x80000b38
       69615000	      6960	00000000	00000013	addi	x0,x0,0	  x0:0x00000000
       69625000	      6961	80000b74	00000013	addi	x0,x0,0	  x0:0x00000000
       69635000	      6962	80000b78	00ee02b3	add	x5,x28,x14	 x28:0xfffff800 x14:0x80000abc  x5=0x800002bc
       69645000	      6963	80000b7c	03c00d6f	jal	x26,80000b7c	 x26=0x80000b7c
       69655000	      6964	00000000	00000013	addi	x0,x0,0	  x0:0x00000000
       69665000	      6965	80000bb4	00000013	addi	x0,x0,0	  x0:0x00000000
       69675000	      6966	80000bb8	ff1ff0ef	jal	x1,80000bb8	  x1=0x80000bb8
       69685000	      6967	00000000	00000013	addi	x0,x0,0	  x0:0x00000000
       69695000	      6968	80000ba4	00000013	addi	x0,x0,0	  x0:0x00000000
       69705000	      6969	80000ba8	0040026f	jal	x4,80000ba8	  x4=0x80000ba8
       69715000	      6970	00000000	00000013	addi	x0,x0,0	  x0:0x00000000
       69725000	      6971	80000ba8	00000013	addi	x0,x0,0	  x0:0x00000000
       69735000	      6972	80000bac	0040016f	jal	x2,80000bac	  x2=0x80000bac
       69745000	      6973	00000000	00000013	addi	x0,x0,0	  x0:0x00000000
       69755000	      6974	80000bac	00000013	addi	x0,x0,0	  x0:0x00000000
       69765000	      6975	80000bb0	ff1ff0ef	jal	x1,80000bb0	  x1=0x80000bb0
       69775000	      6976	00000000	00000013	addi	x0,x0,0	  x0:0x00000000
       69785000	      6977	80000b9c	00000013	addi	x0,x0,0	  x0:0x00000000
       69795000	      6978	80000ba0	fe9ff0ef	jal	x1,80000ba0	  x1=0x80000ba0
       69805000	      6979	00000000	00000013	addi	x0,x0,0	  x0:0x00000000
       69815000	      6980	80000b84	00000013	addi	x0,x0,0	  x0:0x00000000
       69825000	      6981	80000b88	014000ef	jal	x1,80000b88	  x1=0x80000b88
       69835000	      6982	00000000	00000013	addi	x0,x0,0	  x0:0x00000000
       69845000	      6983	80000b98	00000013	addi	x0,x0,0	  x0:0x00000000
       69855000	      6984	80000b9c	020000ef	jal	x1,80000b9c	  x1=0x80000b9c
       69865000	      6985	00000000	00000013	addi	x0,x0,0	  x0:0x00000000
       69875000	      6986	80000bb8	00000013	addi	x0,x0,0	  x0:0x00000000
       69885000	      6987	80000bbc	008000ef	jal	x1,80000bbc	  x1=0x80000bbc
       69895000	      6988	00000000	00000013	addi	x0,x0,0	  x0:0x00000000
       69905000	      6989	80000bc0	00000013	addi	x0,x0,0	  x0:0x00000000
       69915000	      6990	80000bc4	fc9ff0ef	jal	x1,80000bc4	  x1=0x80000bc4
       69925000	      6991	00000000	00000013	addi	x0,x0,0	  x0:0x00000000
       69935000	      6992	80000b88	00000013	addi	x0,x0,0	  x0:0x00000000
       69945000	      6993	80000b8c	0180026f	jal	x4,80000b8c	  x4=0x80000b8c
       69955000	      6994	00000000	00000013	addi	x0,x0,0	  x0:0x00000000
       69965000	      6995	80000ba0	00000013	addi	x0,x0,0	  x0:0x00000000
       69975000	      6996	80000ba4	fedff0ef	jal	x1,80000ba4	  x1=0x80000ba4
       69985000	      6997	00000000	00000013	addi	x0,x0,0	  x0:0x00000000
       69995000	      6998	80000b8c	00000013	addi	x0,x0,0	  x0:0x00000000
       70005000	      6999	80000b90	024000ef	jal	x1,80000b90	  x1=0x80000b90
       70015000	      7000	00000000	00000013	addi	x0,x0,0	  x0:0x00000000
       70025000	      7001	80000bb0	00000013	addi	x0,x0,0	  x0:0x00000000
       70035000	      7002	80000bb4	fd1ff0ef	jal	x1,80000bb4	  x1=0x80000bb4
       70045000	      7003	00000000	00000013	addi	x0,x0,0	  x0:0x00000000
       70055000	      7004	80000b80	00000013	addi	x0,x0,0	  x0:0x00000000
       70065000	      7005	80000b84	014000ef	jal	x1,80000b84	  x1=0x80000b84
       70075000	      7006	00000000	00000013	addi	x0,x0,0	  x0:0x00000000
       70085000	      7007	80000b94	00000013	addi	x0,x0,0	  x0:0x00000000
       70095000	      7008	80000b98	030000ef	jal	x1,80000b98	  x1=0x80000b98
       70105000	      7009	00000000	00000013	addi	x0,x0,0	  x0:0x00000000
       70115000	      7010	80000bc4	00000013	addi	x0,x0,0	  x0:0x00000000
       70125000	      7011	80000bc8	fb9ffdef	jal	x27,80000bc8	 x27=0x80000bc8
       70135000	      7012	00000000	00000013	addi	x0,x0,0	  x0:0x00000000
       70145000	      7013	80000b7c	00000013	addi	x0,x0,0	  x0:0x00000000
       70155000	      7014	80000b80	014000ef	jal	x1,80000b80	  x1=0x80000b80
       70165000	      7015	00000000	00000013	addi	x0,x0,0	  x0:0x00000000
       70175000	      7016	80000b90	00000013	addi	x0,x0,0	  x0:0x00000000
       70185000	      7017	80000b94	02c000ef	jal	x1,80000b94	  x1=0x80000b94
       70195000	      7018	00000000	00000013	addi	x0,x0,0	  x0:0x00000000
       70205000	      7019	80000bbc	00000013	addi	x0,x0,0	  x0:0x00000000
       70215000	      7020	80000bc0	00c0076f	jal	x14,80000bc0	 x14=0x80000bc0
       70225000	      7021	00000000	00000013	addi	x0,x0,0	  x0:0x00000000
       70235000	      7022	80000bc8	00000013	addi	x0,x0,0	  x0:0x00000000
       70245000	      7023	80000bcc	01109b93	slli	x23,x1,0x11	  x1:0x80000b94 x23=0x17280000
       70255000	      7024	80000bd0	03c00d6f	jal	x26,80000bd0	 x26=0x80000bd0
       70265000	      7025	00000000	00000013	addi	x0,x0,0	  x0:0x00000000
       70275000	      7026	80000c08	00000013	addi	x0,x0,0	  x0:0x00000000
       70285000	      7027	80000c0c	fd9ff0ef	jal	x1,80000c0c	  x1=0x80000c0c
       70295000	      7028	00000000	00000013	addi	x0,x0,0	  x0:0x00000000
       70305000	      7029	80000be0	00000013	addi	x0,x0,0	  x0:0x00000000
       70315000	      7030	80000be4	0180026f	jal	x4,80000be4	  x4=0x80000be4
       70325000	      7031	00000000	00000013	addi	x0,x0,0	  x0:0x00000000
       70335000	      7032	80000bf8	00000013	addi	x0,x0,0	  x0:0x00000000
       70345000	      7033	80000bfc	ff9ff4ef	jal	x9,80000bfc	  x9=0x80000bfc
       70355000	      7034	00000000	00000013	addi	x0,x0,0	  x0:0x00000000
       70365000	      7035	80000bf0	00000013	addi	x0,x0,0	  x0:0x00000000
       70375000	      7036	80000bf4	fe1ff16f	jal	x2,80000bf4	  x2=0x80000bf4
       70385000	      7037	00000000	00000013	addi	x0,x0,0	  x0:0x00000000
       70395000	      7038	80000bd0	00000013	addi	x0,x0,0	  x0:0x00000000
       70405000	      7039	80000bd4	00c000ef	jal	x1,80000bd4	  x1=0x80000bd4
       70415000	      7040	00000000	00000013	addi	x0,x0,0	  x0:0x00000000
       70425000	      7041	80000bdc	00000013	addi	x0,x0,0	  x0:0x00000000
       70435000	      7042	80000be0	04000aef	jal	x21,80000be0	 x21=0x80000be0
       70445000	      7043	00000000	00000013	addi	x0,x0,0	  x0:0x00000000
       70455000	      7044	80000c1c	00000013	addi	x0,x0,0	  x0:0x00000000
       70465000	      7045	80000c20	fbdff66f	jal	x12,80000c20	 x12=0x80000c20
       70475000	      7046	00000000	00000013	addi	x0,x0,0	  x0:0x00000000
       70485000	      7047	80000bd8	00000013	addi	x0,x0,0	  x0:0x00000000
       70495000	      7048	80000bdc	03c000ef	jal	x1,80000bdc	  x1=0x80000bdc
       70505000	      7049	00000000	00000013	addi	x0,x0,0	  x0:0x00000000
       70515000	      7050	80000c14	00000013	addi	x0,x0,0	  x0:0x00000000
       70525000	      7051	80000c18	fe9ff0ef	jal	x1,80000c18	  x1=0x80000c18
       70535000	      7052	00000000	00000013	addi	x0,x0,0	  x0:0x00000000
       70545000	      7053	80000bfc	00000013	addi	x0,x0,0	  x0:0x00000000
       70555000	      7054	80000c00	fe9ff0ef	jal	x1,80000c00	  x1=0x80000c00
       70565000	      7055	00000000	00000013	addi	x0,x0,0	  x0:0x00000000
       70575000	      7056	80000be4	00000013	addi	x0,x0,0	  x0:0x00000000
       70585000	      7057	80000be8	02c000ef	jal	x1,80000be8	  x1=0x80000be8
       70595000	      7058	00000000	00000013	addi	x0,x0,0	  x0:0x00000000
       70605000	      7059	80000c10	00000013	addi	x0,x0,0	  x0:0x00000000
       70615000	      7060	80000c14	008000ef	jal	x1,80000c14	  x1=0x80000c14
       70625000	      7061	00000000	00000013	addi	x0,x0,0	  x0:0x00000000
       70635000	      7062	80000c18	00000013	addi	x0,x0,0	  x0:0x00000000
       70645000	      7063	80000c1c	fd5ffdef	jal	x27,80000c1c	 x27=0x80000c1c
       70655000	      7064	00000000	00000013	addi	x0,x0,0	  x0:0x00000000
       70665000	      7065	80000bec	00000013	addi	x0,x0,0	  x0:0x00000000
       70675000	      7066	80000bf0	fe9ff0ef	jal	x1,80000bf0	  x1=0x80000bf0
       70685000	      7067	00000000	00000013	addi	x0,x0,0	  x0:0x00000000
       70695000	      7068	80000bd4	00000013	addi	x0,x0,0	  x0:0x00000000
       70705000	      7069	80000bd8	030000ef	jal	x1,80000bd8	  x1=0x80000bd8
       70715000	      7070	00000000	00000013	addi	x0,x0,0	  x0:0x00000000
       70725000	      7071	80000c04	00000013	addi	x0,x0,0	  x0:0x00000000
       70735000	      7072	80000c08	fe5ff2ef	jal	x5,80000c08	  x5=0x80000c08
       70745000	      7073	00000000	00000013	addi	x0,x0,0	  x0:0x00000000
       70755000	      7074	80000be8	00000013	addi	x0,x0,0	  x0:0x00000000
       70765000	      7075	80000bec	018000ef	jal	x1,80000bec	  x1=0x80000bec
       70775000	      7076	00000000	00000013	addi	x0,x0,0	  x0:0x00000000
       70785000	      7077	80000c00	00000013	addi	x0,x0,0	  x0:0x00000000
       70795000	      7078	80000c04	00c0096f	jal	x18,80000c04	 x18=0x80000c04
       70805000	      7079	00000000	00000013	addi	x0,x0,0	  x0:0x00000000
       70815000	      7080	80000c0c	00000013	addi	x0,x0,0	  x0:0x00000000
       70825000	      7081	80000c10	fe9ffeef	jal	x29,80000c10	 x29=0x80000c10
       70835000	      7082	00000000	00000013	addi	x0,x0,0	  x0:0x00000000
       70845000	      7083	80000bf4	00000013	addi	x0,x0,0	  x0:0x00000000
       70855000	      7084	80000bf8	02c000ef	jal	x1,80000bf8	  x1=0x80000bf8
       70865000	      7085	00000000	00000013	addi	x0,x0,0	  x0:0x00000000
       70875000	      7086	80000c20	00000013	addi	x0,x0,0	  x0:0x00000000
       70885000	      7087	80000c24	01cc0e33	add	x28,x24,x28	 x24:0x80000a44 x28:0xfffff800 x28=0x80000244
       70895000	      7088	80000c28	02400d6f	jal	x26,80000c28	 x26=0x80000c28
       70905000	      7089	00000000	00000013	addi	x0,x0,0	  x0:0x00000000
       70915000	      7090	80000c48	00000013	addi	x0,x0,0	  x0:0x00000000
       70925000	      7091	80000c4c	fe1ff26f	jal	x4,80000c4c	  x4=0x80000c4c
       70935000	      7092	00000000	00000013	addi	x0,x0,0	  x0:0x00000000
       70945000	      7093	80000c28	00000013	addi	x0,x0,0	  x0:0x00000000
       70955000	      7094	80000c2c	01c0016f	jal	x2,80000c2c	  x2=0x80000c2c
       70965000	      7095	00000000	00000013	addi	x0,x0,0	  x0:0x00000000
       70975000	      7096	80000c44	00000013	addi	x0,x0,0	  x0:0x00000000
       70985000	      7097	80000c48	ffdfffef	jal	x31,80000c48	 x31=0x80000c48
       70995000	      7098	00000000	00000013	addi	x0,x0,0	  x0:0x00000000
       71005000	      7099	80000c40	00000013	addi	x0,x0,0	  x0:0x00000000
       71015000	      7100	80000c44	ff5ff1ef	jal	x3,80000c44	  x3=0x80000c44
       71025000	      7101	00000000	00000013	addi	x0,x0,0	  x0:0x00000000
       71035000	      7102	80000c34	00000013	addi	x0,x0,0	  x0:0x00000000
       71045000	      7103	80000c38	01800bef	jal	x23,80000c38	 x23=0x80000c38
       71055000	      7104	00000000	00000013	addi	x0,x0,0	  x0:0x00000000
       71065000	      7105	80000c4c	00000013	addi	x0,x0,0	  x0:0x00000000
       71075000	      7106	80000c50	fe5ff0ef	jal	x1,80000c50	  x1=0x80000c50
       71085000	      7107	00000000	00000013	addi	x0,x0,0	  x0:0x00000000
       71095000	      7108	80000c30	00000013	addi	x0,x0,0	  x0:0x00000000
       71105000	      7109	80000c34	ffdff0ef	jal	x1,80000c34	  x1=0x80000c34
       71115000	      7110	00000000	00000013	addi	x0,x0,0	  x0:0x00000000
       71125000	      7111	80000c2c	00000013	addi	x0,x0,0	  x0:0x00000000
       71135000	      7112	80000c30	00c001ef	jal	x3,80000c30	  x3=0x80000c30
       71145000	      7113	00000000	00000013	addi	x0,x0,0	  x0:0x00000000
       71155000	      7114	80000c38	00000013	addi	x0,x0,0	  x0:0x00000000
       71165000	      7115	80000c3c	004002ef	jal	x5,80000c3c	  x5=0x80000c3c
       71175000	      7116	00000000	00000013	addi	x0,x0,0	  x0:0x00000000
       71185000	      7117	80000c3c	00000013	addi	x0,x0,0	  x0:0x00000000
       71195000	      7118	80000c40	014000ef	jal	x1,80000c40	  x1=0x80000c40
       71205000	      7119	00000000	00000013	addi	x0,x0,0	  x0:0x00000000
       71215000	      7120	80000c50	00000013	addi	x0,x0,0	  x0:0x00000000
       71225000	      7121	80000c54	84e5a597	auipc	x11,0x84e5a	 x11=0x04e5ac50
       71235000	      7122	80000c58	00400d6f	jal	x26,80000c58	 x26=0x80000c58
       71245000	      7123	00000000	00000013	addi	x0,x0,0	  x0:0x00000000
       71255000	      7124	80000c58	00000013	addi	x0,x0,0	  x0:0x00000000
       71265000	      7125	80000c5c	0600026f	jal	x4,80000c5c	  x4=0x80000c5c
       71275000	      7126	00000000	00000013	addi	x0,x0,0	  x0:0x00000000
       71285000	      7127	80000cb8	00000013	addi	x0,x0,0	  x0:0x00000000
       71295000	      7128	80000cbc	fadffc6f	jal	x24,80000cbc	 x24=0x80000cbc
       71305000	      7129	00000000	00000013	addi	x0,x0,0	  x0:0x00000000
       71315000	      7130	80000c64	00000013	addi	x0,x0,0	  x0:0x00000000
       71325000	      7131	80000c68	0380086f	jal	x16,80000c68	 x16=0x80000c68
       71335000	      7132	00000000	00000013	addi	x0,x0,0	  x0:0x00000000
       71345000	      7133	80000c9c	00000013	addi	x0,x0,0	  x0:0x00000000
       71355000	      7134	80000ca0	ff9ff0ef	jal	x1,80000ca0	  x1=0x80000ca0
       71365000	      7135	00000000	00000013	addi	x0,x0,0	  x0:0x00000000
       71375000	      7136	80000c94	00000013	addi	x0,x0,0	  x0:0x00000000
       71385000	      7137	80000c98	ff9ff0ef	jal	x1,80000c98	  x1=0x80000c98
       71395000	      7138	00000000	00000013	addi	x0,x0,0	  x0:0x00000000
       71405000	      7139	80000c8c	00000013	addi	x0,x0,0	  x0:0x00000000
       71415000	      7140	80000c90	fe9ffe6f	jal	x28,80000c90	 x28=0x80000c90
       71425000	      7141	00000000	00000013	addi	x0,x0,0	  x0:0x00000000
       71435000	      7142	80000c74	00000013	addi	x0,x0,0	  x0:0x00000000
       71445000	      7143	80000c78	038000ef	jal	x1,80000c78	  x1=0x80000c78
       71455000	      7144	00000000	00000013	addi	x0,x0,0	  x0:0x00000000
       71465000	      7145	80000cac	00000013	addi	x0,x0,0	  x0:0x00000000
       71475000	      7146	80000cb0	ff9ff0ef	jal	x1,80000cb0	  x1=0x80000cb0
       71485000	      7147	00000000	00000013	addi	x0,x0,0	  x0:0x00000000
       71495000	      7148	80000ca4	00000013	addi	x0,x0,0	  x0:0x00000000
       71505000	      7149	80000ca8	fc5ff0ef	jal	x1,80000ca8	  x1=0x80000ca8
       71515000	      7150	00000000	00000013	addi	x0,x0,0	  x0:0x00000000
       71525000	      7151	80000c68	00000013	addi	x0,x0,0	  x0:0x00000000
       71535000	      7152	80000c6c	008000ef	jal	x1,80000c6c	  x1=0x80000c6c
       71545000	      7153	00000000	00000013	addi	x0,x0,0	  x0:0x00000000
       71555000	      7154	80000c70	00000013	addi	x0,x0,0	  x0:0x00000000
       71565000	      7155	80000c74	030002ef	jal	x5,80000c74	  x5=0x80000c74
       71575000	      7156	00000000	00000013	addi	x0,x0,0	  x0:0x00000000
       71585000	      7157	80000ca0	00000013	addi	x0,x0,0	  x0:0x00000000
       71595000	      7158	80000ca4	01400bef	jal	x23,80000ca4	 x23=0x80000ca4
       71605000	      7159	00000000	00000013	addi	x0,x0,0	  x0:0x00000000
       71615000	      7160	80000cb4	00000013	addi	x0,x0,0	  x0:0x00000000
       71625000	      7161	80000cb8	fddffbef	jal	x23,80000cb8	 x23=0x80000cb8
       71635000	      7162	00000000	00000013	addi	x0,x0,0	  x0:0x00000000
       71645000	      7163	80000c90	00000013	addi	x0,x0,0	  x0:0x00000000
       71655000	      7164	80000c94	ff9ff0ef	jal	x1,80000c94	  x1=0x80000c94
       71665000	      7165	00000000	00000013	addi	x0,x0,0	  x0:0x00000000
       71675000	      7166	80000c88	00000013	addi	x0,x0,0	  x0:0x00000000
       71685000	      7167	80000c8c	028000ef	jal	x1,80000c8c	  x1=0x80000c8c
       71695000	      7168	00000000	00000013	addi	x0,x0,0	  x0:0x00000000
       71705000	      7169	80000cb0	00000013	addi	x0,x0,0	  x0:0x00000000
       71715000	      7170	80000cb4	fd5ff0ef	jal	x1,80000cb4	  x1=0x80000cb4
       71725000	      7171	00000000	00000013	addi	x0,x0,0	  x0:0x00000000
       71735000	      7172	80000c84	00000013	addi	x0,x0,0	  x0:0x00000000
       71745000	      7173	80000c88	fddff0ef	jal	x1,80000c88	  x1=0x80000c88
       71755000	      7174	00000000	00000013	addi	x0,x0,0	  x0:0x00000000
       71765000	      7175	80000c60	00000013	addi	x0,x0,0	  x0:0x00000000
       71775000	      7176	80000c64	ffdffe6f	jal	x28,80000c64	 x28=0x80000c64
       71785000	      7177	00000000	00000013	addi	x0,x0,0	  x0:0x00000000
       71795000	      7178	80000c5c	00000013	addi	x0,x0,0	  x0:0x00000000
       71805000	      7179	80000c60	060000ef	jal	x1,80000c60	  x1=0x80000c60
       71815000	      7180	00000000	00000013	addi	x0,x0,0	  x0:0x00000000
       71825000	      7181	80000cbc	00000013	addi	x0,x0,0	  x0:0x00000000
       71835000	      7182	80000cc0	fedffaef	jal	x21,80000cc0	 x21=0x80000cc0
       71845000	      7183	00000000	00000013	addi	x0,x0,0	  x0:0x00000000
       71855000	      7184	80000ca8	00000013	addi	x0,x0,0	  x0:0x00000000
       71865000	      7185	80000cac	fd5ff86f	jal	x16,80000cac	 x16=0x80000cac
       71875000	      7186	00000000	00000013	addi	x0,x0,0	  x0:0x00000000
       71885000	      7187	80000c7c	00000013	addi	x0,x0,0	  x0:0x00000000
       71895000	      7188	80000c80	01c000ef	jal	x1,80000c80	  x1=0x80000c80
       71905000	      7189	00000000	00000013	addi	x0,x0,0	  x0:0x00000000
       71915000	      7190	80000c98	00000013	addi	x0,x0,0	  x0:0x00000000
       71925000	      7191	80000c9c	fd5fffef	jal	x31,80000c9c	 x31=0x80000c9c
       71935000	      7192	00000000	00000013	addi	x0,x0,0	  x0:0x00000000
       71945000	      7193	80000c6c	00000013	addi	x0,x0,0	  x0:0x00000000
       71955000	      7194	80000c70	014000ef	jal	x1,80000c70	  x1=0x80000c70
       71965000	      7195	00000000	00000013	addi	x0,x0,0	  x0:0x00000000
       71975000	      7196	80000c80	00000013	addi	x0,x0,0	  x0:0x00000000
       71985000	      7197	80000c84	ff9ffaef	jal	x21,80000c84	 x21=0x80000c84
       71995000	      7198	00000000	00000013	addi	x0,x0,0	  x0:0x00000000
       72005000	      7199	80000c78	00000013	addi	x0,x0,0	  x0:0x00000000
       72015000	      7200	80000c7c	048000ef	jal	x1,80000c7c	  x1=0x80000c7c
       72025000	      7201	00000000	00000013	addi	x0,x0,0	  x0:0x00000000
       72035000	      7202	80000cc0	00000013	addi	x0,x0,0	  x0:0x00000000
       72045000	      7203	80000cc4	011add93	srli	x27,x21,0x11	 x21:0x80000c84 x27=0x00004000
       72055000	      7204	80000cc8	03400d6f	jal	x26,80000cc8	 x26=0x80000cc8
       72065000	      7205	00000000	00000013	addi	x0,x0,0	  x0:0x00000000
       72075000	      7206	80000cf8	00000013	addi	x0,x0,0	  x0:0x00000000
       72085000	      7207	80000cfc	fd5ff66f	jal	x12,80000cfc	 x12=0x80000cfc
       72095000	      7208	00000000	00000013	addi	x0,x0,0	  x0:0x00000000
       72105000	      7209	80000ccc	00000013	addi	x0,x0,0	  x0:0x00000000
       72115000	      7210	80000cd0	038000ef	jal	x1,80000cd0	  x1=0x80000cd0
       72125000	      7211	00000000	00000013	addi	x0,x0,0	  x0:0x00000000
       72135000	      7212	80000d04	00000013	addi	x0,x0,0	  x0:0x00000000
       72145000	      7213	80000d08	fd5ff26f	jal	x4,80000d08	  x4=0x80000d08
       72155000	      7214	00000000	00000013	addi	x0,x0,0	  x0:0x00000000
       72165000	      7215	80000cd8	00000013	addi	x0,x0,0	  x0:0x00000000
       72175000	      7216	80000cdc	ffdff0ef	jal	x1,80000cdc	  x1=0x80000cdc
       72185000	      7217	00000000	00000013	addi	x0,x0,0	  x0:0x00000000
       72195000	      7218	80000cd4	00000013	addi	x0,x0,0	  x0:0x00000000
       72205000	      7219	80000cd8	038000ef	jal	x1,80000cd8	  x1=0x80000cd8
       72215000	      7220	00000000	00000013	addi	x0,x0,0	  x0:0x00000000
       72225000	      7221	80000d0c	00000013	addi	x0,x0,0	  x0:0x00000000
       72235000	      7222	80000d10	fbdff0ef	jal	x1,80000d10	  x1=0x80000d10
       72245000	      7223	00000000	00000013	addi	x0,x0,0	  x0:0x00000000
       72255000	      7224	80000cc8	00000013	addi	x0,x0,0	  x0:0x00000000
       72265000	      7225	80000ccc	02c0026f	jal	x4,80000ccc	  x4=0x80000ccc
       72275000	      7226	00000000	00000013	addi	x0,x0,0	  x0:0x00000000
       72285000	      7227	80000cf4	00000013	addi	x0,x0,0	  x0:0x00000000
       72295000	      7228	80000cf8	fedff0ef	jal	x1,80000cf8	  x1=0x80000cf8
       72305000	      7229	00000000	00000013	addi	x0,x0,0	  x0:0x00000000
       72315000	      7230	80000ce0	00000013	addi	x0,x0,0	  x0:0x00000000
       72325000	      7231	80000ce4	020000ef	jal	x1,80000ce4	  x1=0x80000ce4
       72335000	      7232	00000000	00000013	addi	x0,x0,0	  x0:0x00000000
       72345000	      7233	80000d00	00000013	addi	x0,x0,0	  x0:0x00000000
       72355000	      7234	80000d04	ffdff0ef	jal	x1,80000d04	  x1=0x80000d04
       72365000	      7235	00000000	00000013	addi	x0,x0,0	  x0:0x00000000
       72375000	      7236	80000cfc	00000013	addi	x0,x0,0	  x0:0x00000000
       72385000	      7237	80000d00	fe1ff0ef	jal	x1,80000d00	  x1=0x80000d00
       72395000	      7238	00000000	00000013	addi	x0,x0,0	  x0:0x00000000
       72405000	      7239	80000cdc	00000013	addi	x0,x0,0	  x0:0x00000000
       72415000	      7240	80000ce0	0380016f	jal	x2,80000ce0	  x2=0x80000ce0
       72425000	      7241	00000000	00000013	addi	x0,x0,0	  x0:0x00000000
       72435000	      7242	80000d14	00000013	addi	x0,x0,0	  x0:0x00000000
       72445000	      7243	80000d18	ffdffa6f	jal	x20,80000d18	 x20=0x80000d18
       72455000	      7244	00000000	00000013	addi	x0,x0,0	  x0:0x00000000
       72465000	      7245	80000d10	00000013	addi	x0,x0,0	  x0:0x00000000
       72475000	      7246	80000d14	fddff2ef	jal	x5,80000d14	  x5=0x80000d14
       72485000	      7247	00000000	00000013	addi	x0,x0,0	  x0:0x00000000
       72495000	      7248	80000cec	00000013	addi	x0,x0,0	  x0:0x00000000
       72505000	      7249	80000cf0	00400e6f	jal	x28,80000cf0	 x28=0x80000cf0
       72515000	      7250	00000000	00000013	addi	x0,x0,0	  x0:0x00000000
       72525000	      7251	80000cf0	00000013	addi	x0,x0,0	  x0:0x00000000
       72535000	      7252	80000cf4	018000ef	jal	x1,80000cf4	  x1=0x80000cf4
       72545000	      7253	00000000	00000013	addi	x0,x0,0	  x0:0x00000000
       72555000	      7254	80000d08	00000013	addi	x0,x0,0	  x0:0x00000000
       72565000	      7255	80000d0c	010000ef	jal	x1,80000d0c	  x1=0x80000d0c
       72575000	      7256	00000000	00000013	addi	x0,x0,0	  x0:0x00000000
       72585000	      7257	80000d18	00000013	addi	x0,x0,0	  x0:0x00000000
       72595000	      7258	80000d1c	fd1ff0ef	jal	x1,80000d1c	  x1=0x80000d1c
       72605000	      7259	00000000	00000013	addi	x0,x0,0	  x0:0x00000000
       72615000	      7260	80000ce8	00000013	addi	x0,x0,0	  x0:0x00000000
       72625000	      7261	80000cec	fe9ff0ef	jal	x1,80000cec	  x1=0x80000cec
       72635000	      7262	00000000	00000013	addi	x0,x0,0	  x0:0x00000000
       72645000	      7263	80000cd0	00000013	addi	x0,x0,0	  x0:0x00000000
       72655000	      7264	80000cd4	014000ef	jal	x1,80000cd4	  x1=0x80000cd4
       72665000	      7265	00000000	00000013	addi	x0,x0,0	  x0:0x00000000
       72675000	      7266	80000ce4	00000013	addi	x0,x0,0	  x0:0x00000000
       72685000	      7267	80000ce8	038000ef	jal	x1,80000ce8	  x1=0x80000ce8
       72695000	      7268	00000000	00000013	addi	x0,x0,0	  x0:0x00000000
       72705000	      7269	80000d1c	00000013	addi	x0,x0,0	  x0:0x00000000
       72715000	      7270	80000d20	75d58b97	auipc	x23,0x75d58	 x23=0xf5d58d1c
       72725000	      7271	80000d24	02800d6f	jal	x26,80000d24	 x26=0x80000d24
       72735000	      7272	00000000	00000013	addi	x0,x0,0	  x0:0x00000000
       72745000	      7273	80000d48	00000013	addi	x0,x0,0	  x0:0x00000000
       72755000	      7274	80000d4c	03c000ef	jal	x1,80000d4c	  x1=0x80000d4c
       72765000	      7275	00000000	00000013	addi	x0,x0,0	  x0:0x00000000
       72775000	      7276	80000d84	00000013	addi	x0,x0,0	  x0:0x00000000
       72785000	      7277	80000d88	ff1ff0ef	jal	x1,80000d88	  x1=0x80000d88
       72795000	      7278	00000000	00000013	addi	x0,x0,0	  x0:0x00000000
       72805000	      7279	80000d74	00000013	addi	x0,x0,0	  x0:0x00000000
       72815000	      7280	80000d78	014000ef	jal	x1,80000d78	  x1=0x80000d78
       72825000	      7281	00000000	00000013	addi	x0,x0,0	  x0:0x00000000
       72835000	      7282	80000d88	00000013	addi	x0,x0,0	  x0:0x00000000
       72845000	      7283	80000d8c	fe5ff0ef	jal	x1,80000d8c	  x1=0x80000d8c
       72855000	      7284	00000000	00000013	addi	x0,x0,0	  x0:0x00000000
       72865000	      7285	80000d6c	00000013	addi	x0,x0,0	  x0:0x00000000
       72875000	      7286	80000d70	fb9ff26f	jal	x4,80000d70	  x4=0x80000d70
       72885000	      7287	00000000	00000013	addi	x0,x0,0	  x0:0x00000000
       72895000	      7288	80000d24	00000013	addi	x0,x0,0	  x0:0x00000000
       72905000	      7289	80000d28	05400c6f	jal	x24,80000d28	 x24=0x80000d28
       72915000	      7290	00000000	00000013	addi	x0,x0,0	  x0:0x00000000
       72925000	      7291	80000d78	00000013	addi	x0,x0,0	  x0:0x00000000
       72935000	      7292	80000d7c	fd9ff0ef	jal	x1,80000d7c	  x1=0x80000d7c
       72945000	      7293	00000000	00000013	addi	x0,x0,0	  x0:0x00000000
       72955000	      7294	80000d50	00000013	addi	x0,x0,0	  x0:0x00000000
       72965000	      7295	80000d54	fe5ff0ef	jal	x1,80000d54	  x1=0x80000d54
       72975000	      7296	00000000	00000013	addi	x0,x0,0	  x0:0x00000000
       72985000	      7297	80000d34	00000013	addi	x0,x0,0	  x0:0x00000000
       72995000	      7298	80000d38	ff5ff0ef	jal	x1,80000d38	  x1=0x80000d38
       73005000	      7299	00000000	00000013	addi	x0,x0,0	  x0:0x00000000
       73015000	      7300	80000d28	00000013	addi	x0,x0,0	  x0:0x00000000
       73025000	      7301	80000d2c	03c000ef	jal	x1,80000d2c	  x1=0x80000d2c
       73035000	      7302	00000000	00000013	addi	x0,x0,0	  x0:0x00000000
       73045000	      7303	80000d64	00000013	addi	x0,x0,0	  x0:0x00000000
       73055000	      7304	80000d68	fc9ff0ef	jal	x1,80000d68	  x1=0x80000d68
       73065000	      7305	00000000	00000013	addi	x0,x0,0	  x0:0x00000000
       73075000	      7306	80000d2c	00000013	addi	x0,x0,0	  x0:0x00000000
       73085000	      7307	80000d30	02c000ef	jal	x1,80000d30	  x1=0x80000d30
       73095000	      7308	00000000	00000013	addi	x0,x0,0	  x0:0x00000000
       73105000	      7309	80000d58	00000013	addi	x0,x0,0	  x0:0x00000000
       73115000	      7310	80000d5c	ffdff0ef	jal	x1,80000d5c	  x1=0x80000d5c
       73125000	      7311	00000000	00000013	addi	x0,x0,0	  x0:0x00000000
       73135000	      7312	80000d54	00000013	addi	x0,x0,0	  x0:0x00000000
       73145000	      7313	80000d58	ff1ff0ef	jal	x1,80000d58	  x1=0x80000d58
       73155000	      7314	00000000	00000013	addi	x0,x0,0	  x0:0x00000000
       73165000	      7315	80000d44	00000013	addi	x0,x0,0	  x0:0x00000000
       73175000	      7316	80000d48	018000ef	jal	x1,80000d48	  x1=0x80000d48
       73185000	      7317	00000000	00000013	addi	x0,x0,0	  x0:0x00000000
       73195000	      7318	80000d5c	00000013	addi	x0,x0,0	  x0:0x00000000
       73205000	      7319	80000d60	00c000ef	jal	x1,80000d60	  x1=0x80000d60
       73215000	      7320	00000000	00000013	addi	x0,x0,0	  x0:0x00000000
       73225000	      7321	80000d68	00000013	addi	x0,x0,0	  x0:0x00000000
       73235000	      7322	80000d6c	fd1ff0ef	jal	x1,80000d6c	  x1=0x80000d6c
       73245000	      7323	00000000	00000013	addi	x0,x0,0	  x0:0x00000000
       73255000	      7324	80000d38	00000013	addi	x0,x0,0	  x0:0x00000000
       73265000	      7325	80000d3c	044000ef	jal	x1,80000d3c	  x1=0x80000d3c
       73275000	      7326	00000000	00000013	addi	x0,x0,0	  x0:0x00000000
       73285000	      7327	80000d7c	00000013	addi	x0,x0,0	  x0:0x00000000
       73295000	      7328	80000d80	004000ef	jal	x1,80000d80	  x1=0x80000d80
       73305000	      7329	00000000	00000013	addi	x0,x0,0	  x0:0x00000000
       73315000	      7330	80000d80	00000013	addi	x0,x0,0	  x0:0x00000000
       73325000	      7331	80000d84	fbdff1ef	jal	x3,80000d84	  x3=0x80000d84
       73335000	      7332	00000000	00000013	addi	x0,x0,0	  x0:0x00000000
       73345000	      7333	80000d3c	00000013	addi	x0,x0,0	  x0:0x00000000
       73355000	      7334	80000d40	034000ef	jal	x1,80000d40	  x1=0x80000d40
       73365000	      7335	00000000	00000013	addi	x0,x0,0	  x0:0x00000000
       73375000	      7336	80000d70	00000013	addi	x0,x0,0	  x0:0x00000000
       73385000	      7337	80000d74	fc1ff0ef	jal	x1,80000d74	  x1=0x80000d74
       73395000	      7338	00000000	00000013	addi	x0,x0,0	  x0:0x00000000
       73405000	      7339	80000d30	00000013	addi	x0,x0,0	  x0:0x00000000
       73415000	      7340	80000d34	01c000ef	jal	x1,80000d34	  x1=0x80000d34
       73425000	      7341	00000000	00000013	addi	x0,x0,0	  x0:0x00000000
       73435000	      7342	80000d4c	00000013	addi	x0,x0,0	  x0:0x00000000
       73445000	      7343	80000d50	01400eef	jal	x29,80000d50	 x29=0x80000d50
       73455000	      7344	00000000	00000013	addi	x0,x0,0	  x0:0x00000000
       73465000	      7345	80000d60	00000013	addi	x0,x0,0	  x0:0x00000000
       73475000	      7346	80000d64	fe1ff0ef	jal	x1,80000d64	  x1=0x80000d64
       73485000	      7347	00000000	00000013	addi	x0,x0,0	  x0:0x00000000
       73495000	      7348	80000d40	00000013	addi	x0,x0,0	  x0:0x00000000
       73505000	      7349	80000d44	04c000ef	jal	x1,80000d44	  x1=0x80000d44
       73515000	      7350	00000000	00000013	addi	x0,x0,0	  x0:0x00000000
       73525000	      7351	80000d8c	00000013	addi	x0,x0,0	  x0:0x00000000
       73535000	      7352	80000d90	01e9fab3	and	x21,x19,x30	 x19:0x80000b74 x30:0x0013f880 x21=0x00000800
       73545000	      7353	80000d94	03400d6f	jal	x26,80000d94	 x26=0x80000d94
       73555000	      7354	00000000	00000013	addi	x0,x0,0	  x0:0x00000000
       73565000	      7355	80000dc4	00000013	addi	x0,x0,0	  x0:0x00000000
       73575000	      7356	80000dc8	ff1ff0ef	jal	x1,80000dc8	  x1=0x80000dc8
       73585000	      7357	00000000	00000013	addi	x0,x0,0	  x0:0x00000000
       73595000	      7358	80000db4	00000013	addi	x0,x0,0	  x0:0x00000000
       73605000	      7359	80000db8	004000ef	jal	x1,80000db8	  x1=0x80000db8
       73615000	      7360	00000000	00000013	addi	x0,x0,0	  x0:0x00000000
       73625000	      7361	80000db8	00000013	addi	x0,x0,0	  x0:0x00000000
       73635000	      7362	80000dbc	ff5ff0ef	jal	x1,80000dbc	  x1=0x80000dbc
       73645000	      7363	00000000	00000013	addi	x0,x0,0	  x0:0x00000000
       73655000	      7364	80000dac	00000013	addi	x0,x0,0	  x0:0x00000000
       73665000	      7365	80000db0	fe9ff0ef	jal	x1,80000db0	  x1=0x80000db0
       73675000	      7366	00000000	00000013	addi	x0,x0,0	  x0:0x00000000
       73685000	      7367	80000d94	00000013	addi	x0,x0,0	  x0:0x00000000
       73695000	      7368	80000d98	00c000ef	jal	x1,80000d98	  x1=0x80000d98
       73705000	      7369	00000000	00000013	addi	x0,x0,0	  x0:0x00000000
       73715000	      7370	80000da0	00000013	addi	x0,x0,0	  x0:0x00000000
       73725000	      7371	80000da4	00800cef	jal	x25,80000da4	 x25=0x80000da4
       73735000	      7372	00000000	00000013	addi	x0,x0,0	  x0:0x00000000
       73745000	      7373	80000da8	00000013	addi	x0,x0,0	  x0:0x00000000
       73755000	      7374	80000dac	ff5ff0ef	jal	x1,80000dac	  x1=0x80000dac
       73765000	      7375	00000000	00000013	addi	x0,x0,0	  x0:0x00000000
       73775000	      7376	80000d9c	00000013	addi	x0,x0,0	  x0:0x00000000
       73785000	      7377	80000da0	014002ef	jal	x5,80000da0	  x5=0x80000da0
       73795000	      7378	00000000	00000013	addi	x0,x0,0	  x0:0x00000000
       73805000	      7379	80000db0	00000013	addi	x0,x0,0	  x0:0x00000000
       73815000	      7380	80000db4	ff5ff0ef	jal	x1,80000db4	  x1=0x80000db4
       73825000	      7381	00000000	00000013	addi	x0,x0,0	  x0:0x00000000
       73835000	      7382	80000da4	00000013	addi	x0,x0,0	  x0:0x00000000
       73845000	      7383	80000da8	018002ef	jal	x5,80000da8	  x5=0x80000da8
       73855000	      7384	00000000	00000013	addi	x0,x0,0	  x0:0x00000000
       73865000	      7385	80000dbc	00000013	addi	x0,x0,0	  x0:0x00000000
       73875000	      7386	80000dc0	fddff0ef	jal	x1,80000dc0	  x1=0x80000dc0
       73885000	      7387	00000000	00000013	addi	x0,x0,0	  x0:0x00000000
       73895000	      7388	80000d98	00000013	addi	x0,x0,0	  x0:0x00000000
       73905000	      7389	80000d9c	028000ef	jal	x1,80000d9c	  x1=0x80000d9c
       73915000	      7390	00000000	00000013	addi	x0,x0,0	  x0:0x00000000
       73925000	      7391	80000dc0	00000013	addi	x0,x0,0	  x0:0x00000000
       73935000	      7392	80000dc4	008000ef	jal	x1,80000dc4	  x1=0x80000dc4
       73945000	      7393	00000000	00000013	addi	x0,x0,0	  x0:0x00000000
       73955000	      7394	80000dc8	00000013	addi	x0,x0,0	  x0:0x00000000
       73965000	      7395	80000dcc	00c4aeb3	slt	x29,x9,x12	  x9:0x80000bfc x12:0x80000cfc x29=0x00000001
       73975000	      7396	80000dd0	01800d6f	jal	x26,80000dd0	 x26=0x80000dd0
       73985000	      7397	00000000	00000013	addi	x0,x0,0	  x0:0x00000000
       73995000	      7398	80000de4	00000013	addi	x0,x0,0	  x0:0x00000000
       74005000	      7399	80000de8	044000ef	jal	x1,80000de8	  x1=0x80000de8
       74015000	      7400	00000000	00000013	addi	x0,x0,0	  x0:0x00000000
       74025000	      7401	80000e28	00000013	addi	x0,x0,0	  x0:0x00000000
       74035000	      7402	80000e2c	fb5ff0ef	jal	x1,80000e2c	  x1=0x80000e2c
       74045000	      7403	00000000	00000013	addi	x0,x0,0	  x0:0x00000000
       74055000	      7404	80000ddc	00000013	addi	x0,x0,0	  x0:0x00000000
       74065000	      7405	80000de0	01c000ef	jal	x1,80000de0	  x1=0x80000de0
       74075000	      7406	00000000	00000013	addi	x0,x0,0	  x0:0x00000000
       74085000	      7407	80000df8	00000013	addi	x0,x0,0	  x0:0x00000000
       74095000	      7408	80000dfc	0180026f	jal	x4,80000dfc	  x4=0x80000dfc
       74105000	      7409	00000000	00000013	addi	x0,x0,0	  x0:0x00000000
       74115000	      7410	80000e10	00000013	addi	x0,x0,0	  x0:0x00000000
       74125000	      7411	80000e14	fe5ff0ef	jal	x1,80000e14	  x1=0x80000e14
       74135000	      7412	00000000	00000013	addi	x0,x0,0	  x0:0x00000000
       74145000	      7413	80000df4	00000013	addi	x0,x0,0	  x0:0x00000000
       74155000	      7414	80000df8	0200086f	jal	x16,80000df8	 x16=0x80000df8
       74165000	      7415	00000000	00000013	addi	x0,x0,0	  x0:0x00000000
       74175000	      7416	80000e14	00000013	addi	x0,x0,0	  x0:0x00000000
       74185000	      7417	80000e18	004000ef	jal	x1,80000e18	  x1=0x80000e18
       74195000	      7418	00000000	00000013	addi	x0,x0,0	  x0:0x00000000
       74205000	      7419	80000e18	00000013	addi	x0,x0,0	  x0:0x00000000
       74215000	      7420	80000e1c	020000ef	jal	x1,80000e1c	  x1=0x80000e1c
       74225000	      7421	00000000	00000013	addi	x0,x0,0	  x0:0x00000000
       74235000	      7422	80000e38	00000013	addi	x0,x0,0	  x0:0x00000000
       74245000	      7423	80000e3c	fedff16f	jal	x2,80000e3c	  x2=0x80000e3c
       74255000	      7424	00000000	00000013	addi	x0,x0,0	  x0:0x00000000
       74265000	      7425	80000e24	00000013	addi	x0,x0,0	  x0:0x00000000
       74275000	      7426	80000e28	fadff0ef	jal	x1,80000e28	  x1=0x80000e28
       74285000	      7427	00000000	00000013	addi	x0,x0,0	  x0:0x00000000
       74295000	      7428	80000dd0	00000013	addi	x0,x0,0	  x0:0x00000000
       74305000	      7429	80000dd4	064001ef	jal	x3,80000dd4	  x3=0x80000dd4
       74315000	      7430	00000000	00000013	addi	x0,x0,0	  x0:0x00000000
       74325000	      7431	80000e34	00000013	addi	x0,x0,0	  x0:0x00000000
       74335000	      7432	80000e38	fa1ff0ef	jal	x1,80000e38	  x1=0x80000e38
       74345000	      7433	00000000	00000013	addi	x0,x0,0	  x0:0x00000000
       74355000	      7434	80000dd4	00000013	addi	x0,x0,0	  x0:0x00000000
       74365000	      7435	80000dd8	048000ef	jal	x1,80000dd8	  x1=0x80000dd8
       74375000	      7436	00000000	00000013	addi	x0,x0,0	  x0:0x00000000
       74385000	      7437	80000e1c	00000013	addi	x0,x0,0	  x0:0x00000000
       74395000	      7438	80000e20	fbdff3ef	jal	x7,80000e20	  x7=0x80000e20
       74405000	      7439	00000000	00000013	addi	x0,x0,0	  x0:0x00000000
       74415000	      7440	80000dd8	00000013	addi	x0,x0,0	  x0:0x00000000
       74425000	      7441	80000ddc	014003ef	jal	x7,80000ddc	  x7=0x80000ddc
       74435000	      7442	00000000	00000013	addi	x0,x0,0	  x0:0x00000000
       74445000	      7443	80000dec	00000013	addi	x0,x0,0	  x0:0x00000000
       74455000	      7444	80000df0	04000def	jal	x27,80000df0	 x27=0x80000df0
       74465000	      7445	00000000	00000013	addi	x0,x0,0	  x0:0x00000000
       74475000	      7446	80000e2c	00000013	addi	x0,x0,0	  x0:0x00000000
       74485000	      7447	80000e30	fb5ff0ef	jal	x1,80000e30	  x1=0x80000e30
       74495000	      7448	00000000	00000013	addi	x0,x0,0	  x0:0x00000000
       74505000	      7449	80000de0	00000013	addi	x0,x0,0	  x0:0x00000000
       74515000	      7450	80000de4	020000ef	jal	x1,80000de4	  x1=0x80000de4
       74525000	      7451	00000000	00000013	addi	x0,x0,0	  x0:0x00000000
       74535000	      7452	80000e00	00000013	addi	x0,x0,0	  x0:0x00000000
       74545000	      7453	80000e04	030001ef	jal	x3,80000e04	  x3=0x80000e04
       74555000	      7454	00000000	00000013	addi	x0,x0,0	  x0:0x00000000
       74565000	      7455	80000e30	00000013	addi	x0,x0,0	  x0:0x00000000
       74575000	      7456	80000e34	ff1ff0ef	jal	x1,80000e34	  x1=0x80000e34
       74585000	      7457	00000000	00000013	addi	x0,x0,0	  x0:0x00000000
       74595000	      7458	80000e20	00000013	addi	x0,x0,0	  x0:0x00000000
       74605000	      7459	80000e24	fd1ff86f	jal	x16,80000e24	 x16=0x80000e24
       74615000	      7460	00000000	00000013	addi	x0,x0,0	  x0:0x00000000
       74625000	      7461	80000df0	00000013	addi	x0,x0,0	  x0:0x00000000
       74635000	      7462	80000df4	014000ef	jal	x1,80000df4	  x1=0x80000df4
       74645000	      7463	00000000	00000013	addi	x0,x0,0	  x0:0x00000000
       74655000	      7464	80000e04	00000013	addi	x0,x0,0	  x0:0x00000000
       74665000	      7465	80000e08	008000ef	jal	x1,80000e08	  x1=0x80000e08
       74675000	      7466	00000000	00000013	addi	x0,x0,0	  x0:0x00000000
       74685000	      7467	80000e0c	00000013	addi	x0,x0,0	  x0:0x00000000
       74695000	      7468	80000e10	ff1ff0ef	jal	x1,80000e10	  x1=0x80000e10
       74705000	      7469	00000000	00000013	addi	x0,x0,0	  x0:0x00000000
       74715000	      7470	80000dfc	00000013	addi	x0,x0,0	  x0:0x00000000
       74725000	      7471	80000e00	fedff0ef	jal	x1,80000e00	  x1=0x80000e00
       74735000	      7472	00000000	00000013	addi	x0,x0,0	  x0:0x00000000
       74745000	      7473	80000de8	00000013	addi	x0,x0,0	  x0:0x00000000
       74755000	      7474	80000dec	020002ef	jal	x5,80000dec	  x5=0x80000dec
       74765000	      7475	00000000	00000013	addi	x0,x0,0	  x0:0x00000000
       74775000	      7476	80000e08	00000013	addi	x0,x0,0	  x0:0x00000000
       74785000	      7477	80000e0c	034000ef	jal	x1,80000e0c	  x1=0x80000e0c
       74795000	      7478	00000000	00000013	addi	x0,x0,0	  x0:0x00000000
       74805000	      7479	80000e3c	00000013	addi	x0,x0,0	  x0:0x00000000
       74815000	      7480	80000e40	e270bf13	sltiu	x30,x1,-473	  x1:0x80000e0c x30=0x00000001
       74825000	      7481	80000e44	01c00d6f	jal	x26,80000e44	 x26=0x80000e44
       74835000	      7482	00000000	00000013	addi	x0,x0,0	  x0:0x00000000
       74845000	      7483	80000e5c	00000013	addi	x0,x0,0	  x0:0x00000000
       74855000	      7484	80000e60	ff1ff0ef	jal	x1,80000e60	  x1=0x80000e60
       74865000	      7485	00000000	00000013	addi	x0,x0,0	  x0:0x00000000
       74875000	      7486	80000e4c	00000013	addi	x0,x0,0	  x0:0x00000000
       74885000	      7487	80000e50	02400cef	jal	x25,80000e50	 x25=0x80000e50
       74895000	      7488	00000000	00000013	addi	x0,x0,0	  x0:0x00000000
       74905000	      7489	80000e70	00000013	addi	x0,x0,0	  x0:0x00000000
       74915000	      7490	80000e74	014000ef	jal	x1,80000e74	  x1=0x80000e74
       74925000	      7491	00000000	00000013	addi	x0,x0,0	  x0:0x00000000
       74935000	      7492	80000e84	00000013	addi	x0,x0,0	  x0:0x00000000
       74945000	      7493	80000e88	ff1ff0ef	jal	x1,80000e88	  x1=0x80000e88
       74955000	      7494	00000000	00000013	addi	x0,x0,0	  x0:0x00000000
       74965000	      7495	80000e74	00000013	addi	x0,x0,0	  x0:0x00000000
       74975000	      7496	80000e78	ff5ff0ef	jal	x1,80000e78	  x1=0x80000e78
       74985000	      7497	00000000	00000013	addi	x0,x0,0	  x0:0x00000000
       74995000	      7498	80000e68	00000013	addi	x0,x0,0	  x0:0x00000000
       75005000	      7499	80000e6c	004000ef	jal	x1,80000e6c	  x1=0x80000e6c
       75015000	      7500	00000000	00000013	addi	x0,x0,0	  x0:0x00000000
       75025000	      7501	80000e6c	00000013	addi	x0,x0,0	  x0:0x00000000
       75035000	      7502	80000e70	010000ef	jal	x1,80000e70	  x1=0x80000e70
       75045000	      7503	00000000	00000013	addi	x0,x0,0	  x0:0x00000000
       75055000	      7504	80000e7c	00000013	addi	x0,x0,0	  x0:0x00000000
       75065000	      7505	80000e80	fddff0ef	jal	x1,80000e80	  x1=0x80000e80
       75075000	      7506	00000000	00000013	addi	x0,x0,0	  x0:0x00000000
       75085000	      7507	80000e58	00000013	addi	x0,x0,0	  x0:0x00000000
       75095000	      7508	80000e5c	00c002ef	jal	x5,80000e5c	  x5=0x80000e5c
       75105000	      7509	00000000	00000013	addi	x0,x0,0	  x0:0x00000000
       75115000	      7510	80000e64	00000013	addi	x0,x0,0	  x0:0x00000000
       75125000	      7511	80000e68	fe1ff3ef	jal	x7,80000e68	  x7=0x80000e68
       75135000	      7512	00000000	00000013	addi	x0,x0,0	  x0:0x00000000
       75145000	      7513	80000e44	00000013	addi	x0,x0,0	  x0:0x00000000
       75155000	      7514	80000e48	00c000ef	jal	x1,80000e48	  x1=0x80000e48
       75165000	      7515	00000000	00000013	addi	x0,x0,0	  x0:0x00000000
       75175000	      7516	80000e50	00000013	addi	x0,x0,0	  x0:0x00000000
       75185000	      7517	80000e54	ff9ff0ef	jal	x1,80000e54	  x1=0x80000e54
       75195000	      7518	00000000	00000013	addi	x0,x0,0	  x0:0x00000000
       75205000	      7519	80000e48	00000013	addi	x0,x0,0	  x0:0x00000000
       75215000	      7520	80000e4c	0380016f	jal	x2,80000e4c	  x2=0x80000e4c
       75225000	      7521	00000000	00000013	addi	x0,x0,0	  x0:0x00000000
       75235000	      7522	80000e80	00000013	addi	x0,x0,0	  x0:0x00000000
       75245000	      7523	80000e84	fd5ff3ef	jal	x7,80000e84	  x7=0x80000e84
       75255000	      7524	00000000	00000013	addi	x0,x0,0	  x0:0x00000000
       75265000	      7525	80000e54	00000013	addi	x0,x0,0	  x0:0x00000000
       75275000	      7526	80000e58	024000ef	jal	x1,80000e58	  x1=0x80000e58
       75285000	      7527	00000000	00000013	addi	x0,x0,0	  x0:0x00000000
       75295000	      7528	80000e78	00000013	addi	x0,x0,0	  x0:0x00000000
       75305000	      7529	80000e7c	fe9ff0ef	jal	x1,80000e7c	  x1=0x80000e7c
       75315000	      7530	00000000	00000013	addi	x0,x0,0	  x0:0x00000000
       75325000	      7531	80000e60	00000013	addi	x0,x0,0	  x0:0x00000000
       75335000	      7532	80000e64	028000ef	jal	x1,80000e64	  x1=0x80000e64
       75345000	      7533	00000000	00000013	addi	x0,x0,0	  x0:0x00000000
       75355000	      7534	80000e88	00000013	addi	x0,x0,0	  x0:0x00000000
       75365000	      7535	80000e8c	000f3433	sltu	x8,x30,x0	 x30:0x00000001  x0:0x00000000  x8=0x00000000
       75375000	      7536	80000e90	02800d6f	jal	x26,80000e90	 x26=0x80000e90
       75385000	      7537	00000000	00000013	addi	x0,x0,0	  x0:0x00000000
       75395000	      7538	80000eb4	00000013	addi	x0,x0,0	  x0:0x00000000
       75405000	      7539	80000eb8	014000ef	jal	x1,80000eb8	  x1=0x80000eb8
       75415000	      7540	00000000	00000013	addi	x0,x0,0	  x0:0x00000000
       75425000	      7541	80000ec8	00000013	addi	x0,x0,0	  x0:0x00000000
       75435000	      7542	80000ecc	01000c6f	jal	x24,80000ecc	 x24=0x80000ecc
       75445000	      7543	00000000	00000013	addi	x0,x0,0	  x0:0x00000000
       75455000	      7544	80000ed8	00000013	addi	x0,x0,0	  x0:0x00000000
       75465000	      7545	80000edc	fbdff0ef	jal	x1,80000edc	  x1=0x80000edc
       75475000	      7546	00000000	00000013	addi	x0,x0,0	  x0:0x00000000
       75485000	      7547	80000e94	00000013	addi	x0,x0,0	  x0:0x00000000
       75495000	      7548	80000e98	010000ef	jal	x1,80000e98	  x1=0x80000e98
       75505000	      7549	00000000	00000013	addi	x0,x0,0	  x0:0x00000000
       75515000	      7550	80000ea4	00000013	addi	x0,x0,0	  x0:0x00000000
       75525000	      7551	80000ea8	008000ef	jal	x1,80000ea8	  x1=0x80000ea8
       75535000	      7552	00000000	00000013	addi	x0,x0,0	  x0:0x00000000
       75545000	      7553	80000eac	00000013	addi	x0,x0,0	  x0:0x00000000
       75555000	      7554	80000eb0	0380096f	jal	x18,80000eb0	 x18=0x80000eb0
       75565000	      7555	00000000	00000013	addi	x0,x0,0	  x0:0x00000000
       75575000	      7556	80000ee4	00000013	addi	x0,x0,0	  x0:0x00000000
       75585000	      7557	80000ee8	fddff26f	jal	x4,80000ee8	  x4=0x80000ee8
       75595000	      7558	00000000	00000013	addi	x0,x0,0	  x0:0x00000000
       75605000	      7559	80000ec0	00000013	addi	x0,x0,0	  x0:0x00000000
       75615000	      7560	80000ec4	010000ef	jal	x1,80000ec4	  x1=0x80000ec4
       75625000	      7561	00000000	00000013	addi	x0,x0,0	  x0:0x00000000
       75635000	      7562	80000ed0	00000013	addi	x0,x0,0	  x0:0x00000000
       75645000	      7563	80000ed4	fedffbef	jal	x23,80000ed4	 x23=0x80000ed4
       75655000	      7564	00000000	00000013	addi	x0,x0,0	  x0:0x00000000
       75665000	      7565	80000ebc	00000013	addi	x0,x0,0	  x0:0x00000000
       75675000	      7566	80000ec0	fedff0ef	jal	x1,80000ec0	  x1=0x80000ec0
       75685000	      7567	00000000	00000013	addi	x0,x0,0	  x0:0x00000000
       75695000	      7568	80000ea8	00000013	addi	x0,x0,0	  x0:0x00000000
       75705000	      7569	80000eac	ff9ffcef	jal	x25,80000eac	 x25=0x80000eac
       75715000	      7570	00000000	00000013	addi	x0,x0,0	  x0:0x00000000
       75725000	      7571	80000ea0	00000013	addi	x0,x0,0	  x0:0x00000000
       75735000	      7572	80000ea4	024002ef	jal	x5,80000ea4	  x5=0x80000ea4
       75745000	      7573	00000000	00000013	addi	x0,x0,0	  x0:0x00000000
       75755000	      7574	80000ec4	00000013	addi	x0,x0,0	  x0:0x00000000
       75765000	      7575	80000ec8	02800def	jal	x27,80000ec8	 x27=0x80000ec8
       75775000	      7576	00000000	00000013	addi	x0,x0,0	  x0:0x00000000
       75785000	      7577	80000eec	00000013	addi	x0,x0,0	  x0:0x00000000
       75795000	      7578	80000ef0	fadff0ef	jal	x1,80000ef0	  x1=0x80000ef0
       75805000	      7579	00000000	00000013	addi	x0,x0,0	  x0:0x00000000
       75815000	      7580	80000e98	00000013	addi	x0,x0,0	  x0:0x00000000
       75825000	      7581	80000e9c	03400aef	jal	x21,80000e9c	 x21=0x80000e9c
       75835000	      7582	00000000	00000013	addi	x0,x0,0	  x0:0x00000000
       75845000	      7583	80000ecc	00000013	addi	x0,x0,0	  x0:0x00000000
       75855000	      7584	80000ed0	014000ef	jal	x1,80000ed0	  x1=0x80000ed0
       75865000	      7585	00000000	00000013	addi	x0,x0,0	  x0:0x00000000
       75875000	      7586	80000ee0	00000013	addi	x0,x0,0	  x0:0x00000000
       75885000	      7587	80000ee4	ff5ff0ef	jal	x1,80000ee4	  x1=0x80000ee4
       75895000	      7588	00000000	00000013	addi	x0,x0,0	  x0:0x00000000
       75905000	      7589	80000ed4	00000013	addi	x0,x0,0	  x0:0x00000000
       75915000	      7590	80000ed8	fddff9ef	jal	x19,80000ed8	 x19=0x80000ed8
       75925000	      7591	00000000	00000013	addi	x0,x0,0	  x0:0x00000000
       75935000	      7592	80000eb0	00000013	addi	x0,x0,0	  x0:0x00000000
       75945000	      7593	80000eb4	02c000ef	jal	x1,80000eb4	  x1=0x80000eb4
       75955000	      7594	00000000	00000013	addi	x0,x0,0	  x0:0x00000000
       75965000	      7595	80000edc	00000013	addi	x0,x0,0	  x0:0x00000000
       75975000	      7596	80000ee0	fddff26f	jal	x4,80000ee0	  x4=0x80000ee0
       75985000	      7597	00000000	00000013	addi	x0,x0,0	  x0:0x00000000
       75995000	      7598	80000eb8	00000013	addi	x0,x0,0	  x0:0x00000000
       76005000	      7599	80000ebc	fd9ff0ef	jal	x1,80000ebc	  x1=0x80000ebc
       76015000	      7600	00000000	00000013	addi	x0,x0,0	  x0:0x00000000
       76025000	      7601	80000e90	00000013	addi	x0,x0,0	  x0:0x00000000
       76035000	      7602	80000e94	058000ef	jal	x1,80000e94	  x1=0x80000e94
       76045000	      7603	00000000	00000013	addi	x0,x0,0	  x0:0x00000000
       76055000	      7604	80000ee8	00000013	addi	x0,x0,0	  x0:0x00000000
       76065000	      7605	80000eec	fb5ff0ef	jal	x1,80000eec	  x1=0x80000eec
       76075000	      7606	00000000	00000013	addi	x0,x0,0	  x0:0x00000000
       76085000	      7607	80000e9c	00000013	addi	x0,x0,0	  x0:0x00000000
       76095000	      7608	80000ea0	054000ef	jal	x1,80000ea0	  x1=0x80000ea0
       76105000	      7609	00000000	00000013	addi	x0,x0,0	  x0:0x00000000
       76115000	      7610	80000ef0	00000013	addi	x0,x0,0	  x0:0x00000000
       76125000	      7611	80000ef4	41770ab3	sub	x21,x14,x23	 x14:0x80000bc0 x23:0x80000ed4 x21=0xfffffcec
       76135000	      7612	80000ef8	01000d6f	jal	x26,80000ef8	 x26=0x80000ef8
       76145000	      7613	00000000	00000013	addi	x0,x0,0	  x0:0x00000000
       76155000	      7614	80000f04	00000013	addi	x0,x0,0	  x0:0x00000000
       76165000	      7615	80000f08	02000d6f	jal	x26,80000f08	 x26=0x80000f08
       76175000	      7616	00000000	00000013	addi	x0,x0,0	  x0:0x00000000
       76185000	      7617	80000f24	00000013	addi	x0,x0,0	  x0:0x00000000
       76195000	      7618	80000f28	fddff0ef	jal	x1,80000f28	  x1=0x80000f28
       76205000	      7619	00000000	00000013	addi	x0,x0,0	  x0:0x00000000
       76215000	      7620	80000f00	00000013	addi	x0,x0,0	  x0:0x00000000
       76225000	      7621	80000f04	014000ef	jal	x1,80000f04	  x1=0x80000f04
       76235000	      7622	00000000	00000013	addi	x0,x0,0	  x0:0x00000000
       76245000	      7623	80000f14	00000013	addi	x0,x0,0	  x0:0x00000000
       76255000	      7624	80000f18	004002ef	jal	x5,80000f18	  x5=0x80000f18
       76265000	      7625	00000000	00000013	addi	x0,x0,0	  x0:0x00000000
       76275000	      7626	80000f18	00000013	addi	x0,x0,0	  x0:0x00000000
       76285000	      7627	80000f1c	ff1ff0ef	jal	x1,80000f1c	  x1=0x80000f1c
       76295000	      7628	00000000	00000013	addi	x0,x0,0	  x0:0x00000000
       76305000	      7629	80000f08	00000013	addi	x0,x0,0	  x0:0x00000000
       76315000	      7630	80000f0c	0080016f	jal	x2,80000f0c	  x2=0x80000f0c
       76325000	      7631	00000000	00000013	addi	x0,x0,0	  x0:0x00000000
       76335000	      7632	80000f10	00000013	addi	x0,x0,0	  x0:0x00000000
       76345000	      7633	80000f14	fe9ff0ef	jal	x1,80000f14	  x1=0x80000f14
       76355000	      7634	00000000	00000013	addi	x0,x0,0	  x0:0x00000000
       76365000	      7635	80000ef8	00000013	addi	x0,x0,0	  x0:0x00000000
       76375000	      7636	80000efc	004000ef	jal	x1,80000efc	  x1=0x80000efc
       76385000	      7637	00000000	00000013	addi	x0,x0,0	  x0:0x00000000
       76395000	      7638	80000efc	00000013	addi	x0,x0,0	  x0:0x00000000
       76405000	      7639	80000f00	020000ef	jal	x1,80000f00	  x1=0x80000f00
       76415000	      7640	00000000	00000013	addi	x0,x0,0	  x0:0x00000000
       76425000	      7641	80000f1c	00000013	addi	x0,x0,0	  x0:0x00000000
       76435000	      7642	80000f20	ff1ff0ef	jal	x1,80000f20	  x1=0x80000f20
       76445000	      7643	00000000	00000013	addi	x0,x0,0	  x0:0x00000000
       76455000	      7644	80000f0c	00000013	addi	x0,x0,0	  x0:0x00000000
       76465000	      7645	80000f10	014000ef	jal	x1,80000f10	  x1=0x80000f10
       76475000	      7646	00000000	00000013	addi	x0,x0,0	  x0:0x00000000
       76485000	      7647	80000f20	00000013	addi	x0,x0,0	  x0:0x00000000
       76495000	      7648	80000f24	008000ef	jal	x1,80000f24	  x1=0x80000f24
       76505000	      7649	00000000	00000013	addi	x0,x0,0	  x0:0x00000000
       76515000	      7650	80000f28	00000013	addi	x0,x0,0	  x0:0x00000000
       76525000	      7651	80000f2c	410d00b3	sub	x1,x26,x16	 x26:0x80000f08 x16:0x80000e24  x1=0x000000e4
       76535000	      7652	80000f30	01400d6f	jal	x26,80000f30	 x26=0x80000f30
       76545000	      7653	00000000	00000013	addi	x0,x0,0	  x0:0x00000000
       76555000	      7654	80000f40	00000013	addi	x0,x0,0	  x0:0x00000000
       76565000	      7655	80000f44	010000ef	jal	x1,80000f44	  x1=0x80000f44
       76575000	      7656	00000000	00000013	addi	x0,x0,0	  x0:0x00000000
       76585000	      7657	80000f50	00000013	addi	x0,x0,0	  x0:0x00000000
       76595000	      7658	80000f54	ffdff2ef	jal	x5,80000f54	  x5=0x80000f54
       76605000	      7659	00000000	00000013	addi	x0,x0,0	  x0:0x00000000
       76615000	      7660	80000f4c	00000013	addi	x0,x0,0	  x0:0x00000000
       76625000	      7661	80000f50	010007ef	jal	x15,80000f50	 x15=0x80000f50
       76635000	      7662	00000000	00000013	addi	x0,x0,0	  x0:0x00000000
       76645000	      7663	80000f5c	00000013	addi	x0,x0,0	  x0:0x00000000
       76655000	      7664	80000f60	fd5ff1ef	jal	x3,80000f60	  x3=0x80000f60
       76665000	      7665	00000000	00000013	addi	x0,x0,0	  x0:0x00000000
       76675000	      7666	80000f30	00000013	addi	x0,x0,0	  x0:0x00000000
       76685000	      7667	80000f34	014000ef	jal	x1,80000f34	  x1=0x80000f34
       76695000	      7668	00000000	00000013	addi	x0,x0,0	  x0:0x00000000
       76705000	      7669	80000f44	00000013	addi	x0,x0,0	  x0:0x00000000
       76715000	      7670	80000f48	ff5ff3ef	jal	x7,80000f48	  x7=0x80000f48
       76725000	      7671	00000000	00000013	addi	x0,x0,0	  x0:0x00000000
       76735000	      7672	80000f38	00000013	addi	x0,x0,0	  x0:0x00000000
       76745000	      7673	80000f3c	ffdff0ef	jal	x1,80000f3c	  x1=0x80000f3c
       76755000	      7674	00000000	00000013	addi	x0,x0,0	  x0:0x00000000
       76765000	      7675	80000f34	00000013	addi	x0,x0,0	  x0:0x00000000
       76775000	      7676	80000f38	024000ef	jal	x1,80000f38	  x1=0x80000f38
       76785000	      7677	00000000	00000013	addi	x0,x0,0	  x0:0x00000000
       76795000	      7678	80000f58	00000013	addi	x0,x0,0	  x0:0x00000000
       76805000	      7679	80000f5c	fe5ff0ef	jal	x1,80000f5c	  x1=0x80000f5c
       76815000	      7680	00000000	00000013	addi	x0,x0,0	  x0:0x00000000
       76825000	      7681	80000f3c	00000013	addi	x0,x0,0	  x0:0x00000000
       76835000	      7682	80000f40	00c000ef	jal	x1,80000f40	  x1=0x80000f40
       76845000	      7683	00000000	00000013	addi	x0,x0,0	  x0:0x00000000
       76855000	      7684	80000f48	00000013	addi	x0,x0,0	  x0:0x00000000
       76865000	      7685	80000f4c	02000f6f	jal	x30,80000f4c	 x30=0x80000f4c
       76875000	      7686	00000000	00000013	addi	x0,x0,0	  x0:0x00000000
       76885000	      7687	80000f68	00000013	addi	x0,x0,0	  x0:0x00000000
       76895000	      7688	80000f6c	004000ef	jal	x1,80000f6c	  x1=0x80000f6c
       76905000	      7689	00000000	00000013	addi	x0,x0,0	  x0:0x00000000
       76915000	      7690	80000f6c	00000013	addi	x0,x0,0	  x0:0x00000000
       76925000	      7691	80000f70	ff9ff0ef	jal	x1,80000f70	  x1=0x80000f70
       76935000	      7692	00000000	00000013	addi	x0,x0,0	  x0:0x00000000
       76945000	      7693	80000f64	00000013	addi	x0,x0,0	  x0:0x00000000
       76955000	      7694	80000f68	ff1ff0ef	jal	x1,80000f68	  x1=0x80000f68
       76965000	      7695	00000000	00000013	addi	x0,x0,0	  x0:0x00000000
       76975000	      7696	80000f54	00000013	addi	x0,x0,0	  x0:0x00000000
       76985000	      7697	80000f58	00c000ef	jal	x1,80000f58	  x1=0x80000f58
       76995000	      7698	00000000	00000013	addi	x0,x0,0	  x0:0x00000000
       77005000	      7699	80000f60	00000013	addi	x0,x0,0	  x0:0x00000000
       77015000	      7700	80000f64	010000ef	jal	x1,80000f64	  x1=0x80000f64
       77025000	      7701	00000000	00000013	addi	x0,x0,0	  x0:0x00000000
       77035000	      7702	80000f70	00000013	addi	x0,x0,0	  x0:0x00000000
       77045000	      7703	80000f74	404405b3	sub	x11,x8,x4	  x8:0x00000000  x4:0x80000ee0 x11=0x7ffff120
       77055000	      7704	80000f78	01512133	slt	x2,x2,x21	  x2:0x80000f0c x21:0xfffffcec  x2=0x00000001
       77065000	      7705	80000f7c	400b81b3	sub	x3,x23,x0	 x23:0x80000ed4  x0:0x00000000  x3=0x80000ed4
       77075000	      7706	80000f80	9428c793	xori	x15,x17,-1726	 x17:0x80000b18 x15=0x7ffff25a
       77085000	      7707	80000f84	18e36d93	ori	x27,x6,398	  x6:0x80009fc4 x27=0x80009fce
       77095000	      7708	80000f88	01242d33	slt	x26,x8,x18	  x8:0x00000000 x18:0x80000eb0 x26=0x00000000
       77105000	      7709	80000f8c	404282b3	sub	x5,x5,x4	  x5:0x80000f54  x4:0x80000ee0  x5=0x00000074
       77115000	      7710	80000f90	006cdcb3	srl	x25,x25,x6	 x25:0x80000eac  x6:0x80009fc4 x25=0x080000ea
       77125000	      7711	80000f94	6fc90013	addi	x0,x18,1788	 x18:0x80000eb0
       77135000	      7712	80000f98	e30af0b7	lui	x1,0xe30af	  x1=0xe30af000
       77145000	      7713	80000f9c	05f33d13	sltiu	x26,x6,95	  x6:0x80009fc4 x26=0x00000000
       77155000	      7714	80000fa0	03cb8a63	beq	x23,x28,80000fd4	 x23:0x80000ed4 x28:0x80000cf0
       77165000	      7715	80000fa4	40f850b3	sra	x1,x16,x15	 x16:0x80000e24 x15:0x7ffff25a  x1=0xffffffe0
       77175000	      7716	80000fa8	0173b2b3	sltu	x5,x7,x23	  x7:0x80000f48 x23:0x80000ed4  x5=0x00000000
       77185000	      7717	80000fac	d71e4197	auipc	x3,0xd71e4	  x3=0x571e4fa8
       77195000	      7718	80000fb0	7c79aa13	slti	x20,x19,1991	 x19:0x80000ed8 x20=0x00000001
       77205000	      7719	80000fb4	01ba42b3	xor	x5,x20,x27	 x20:0x00000001 x27:0x80009fce  x5=0x80009fcf
       77215000	      7720	80000fb8	00000013	addi	x0,x0,0	  x0:0x00000000
       77225000	      7721	80000fbc	e8b4aa93	slti	x21,x9,-373	  x9:0x80000bfc x21=0x00000001
       77235000	      7722	80000fc0	01d40863	beq	x8,x29,80000fd0	  x8:0x00000000 x29:0x00000001
       77245000	      7723	80000fc4	0019f0b3	and	x1,x19,x1	 x19:0x80000ed8  x1:0xffffffe0  x1=0x80000ec0
       77255000	      7724	80000fc8	00000013	addi	x0,x0,0	  x0:0x00000000
       77265000	      7725	80000fcc	41f0dd93	srai	x27,x1,0x1f	  x1:0x80000ec0 x27=0xffffffff
       77275000	      7726	80000fd0	33aea113	slti	x2,x29,826	 x29:0x00000001  x2=0x00000001
       77285000	      7727	80000fd4	40ca54b3	sra	x9,x20,x12	 x20:0x00000001 x12:0x80000cfc  x9=0x00000000
       77295000	      7728	80000fd8	02ca4063	blt	x20,x12,80000ff8	 x20:0x00000001 x12:0x80000cfc
       77305000	      7729	80000fdc	40988c33	sub	x24,x17,x9	 x17:0x80000b18  x9:0x00000000 x24=0x80000b18
       77315000	      7730	80000fe0	41db5a33	sra	x20,x22,x29	 x22:0x80000aa0 x29:0x00000001 x20=0xc0000550
       77325000	      7731	80000fe4	049e6263	bltu	x28,x9,80001028	 x28:0x80000cf0  x9:0x00000000
       77335000	      7732	80000fe8	ffc67913	andi	x18,x12,-4	 x12:0x80000cfc x18=0x80000cfc
       77345000	      7733	80000fec	01b5eeb3	or	x29,x11,x27	 x11:0x7ffff120 x27:0xffffffff x29=0xffffffff
       77355000	      7734	80000ff0	008b0733	add	x14,x22,x8	 x22:0x80000aa0  x8:0x00000000 x14=0x80000aa0
       77365000	      7735	80000ff4	411955b3	sra	x11,x18,x17	 x18:0x80000cfc x17:0x80000b18 x11=0xffffff80
       77375000	      7736	80000ff8	023b7263	bgeu	x22,x3,8000101c	 x22:0x80000aa0  x3:0x571e4fa8
       77385000	      7737	00000000	00000013	addi	x0,x0,0	  x0:0x00000000
       77395000	      7738	80001018	00000013	addi	x0,x0,0	  x0:0x00000000
       77405000	      7739	8000101c	01418c63	beq	x3,x20,80001034	  x3:0x571e4fa8 x20:0xc0000550
       77415000	      7740	80001020	01f9f463	bgeu	x19,x31,80001028	 x19:0x80000ed8 x31:0x80000c9c
       77425000	      7741	00000000	00000013	addi	x0,x0,0	  x0:0x00000000
       77435000	      7742	80001024	00000013	addi	x0,x0,0	  x0:0x00000000
       77445000	      7743	80001028	6352ce37	lui	x28,0x6352c	 x28=0x6352c000
       77455000	      7744	8000102c	00c41263	bne	x8,x12,80001030	  x8:0x00000000 x12:0x80000cfc
       77465000	      7745	00000000	00000013	addi	x0,x0,0	  x0:0x00000000
       77475000	      7746	8000102c	00000013	addi	x0,x0,0	  x0:0x00000000
       77485000	      7747	80001030	53052993	slti	x19,x10,1328	 x10:0x80009f24 x19=0x00000001
       77495000	      7748	80001034	41a65b93	srai	x23,x12,0x1a	 x12:0x80000cfc x23=0xffffffe0
       77505000	      7749	80001038	0085ce33	xor	x28,x11,x8	 x11:0xffffff80  x8:0x00000000 x28=0xffffff80
       77515000	      7750	8000103c	a4e28593	addi	x11,x5,-1458	  x5:0x80009fcf x11=0x80009a1d
       77525000	      7751	80001040	048d4663	blt	x26,x8,8000108c	 x26:0x00000000  x8:0x00000000
       77535000	      7752	80001044	6a6c4a93	xori	x21,x24,1702	 x24:0x80000b18 x21=0x80000dbe
       77545000	      7753	80001048	0038d033	srl	x0,x17,x3	 x17:0x80000b18  x3:0x571e4fa8
       77555000	      7754	8000104c	419f85b3	sub	x11,x31,x25	 x31:0x80000c9c x25:0x080000ea x11=0x78000bb2
       77565000	      7755	80001050	41df59b3	sra	x19,x30,x29	 x30:0x80000f4c x29:0xffffffff x19=0xffffffff
       77575000	      7756	80001054	40d55db3	sra	x27,x10,x13	 x10:0x80009f24 x13:0x3e6eded7 x27=0xffffff00
       77585000	      7757	80001058	eecf8793	addi	x15,x31,-276	 x31:0x80000c9c x15=0x80000b88
       77595000	      7758	8000105c	0251fe63	bgeu	x3,x5,80001098	  x3:0x571e4fa8  x5:0x80009fcf
       77605000	      7759	80001060	01aa4a63	blt	x20,x26,80001074	 x20:0xc0000550 x26:0x00000000
       77615000	      7760	00000000	00000013	addi	x0,x0,0	  x0:0x00000000
       77625000	      7761	80001070	00000013	addi	x0,x0,0	  x0:0x00000000
       77635000	      7762	80001074	0474e863	bltu	x9,x7,800010c4	  x9:0x00000000  x7:0x80000f48
       77645000	      7763	00000000	00000013	addi	x0,x0,0	  x0:0x00000000
       77655000	      7764	800010c0	00000013	addi	x0,x0,0	  x0:0x00000000
       77665000	      7765	800010c4	02a9d863	bge	x19,x10,800010f4	 x19:0xffffffff x10:0x80009f24
       77675000	      7766	00000000	00000013	addi	x0,x0,0	  x0:0x00000000
       77685000	      7767	800010f0	00000013	addi	x0,x0,0	  x0:0x00000000
       77695000	      7768	800010f4	002663b3	or	x7,x12,x2	 x12:0x80000cfc  x2:0x00000001  x7=0x80000cfd
       77705000	      7769	800010f8	404485b3	sub	x11,x9,x4	  x9:0x00000000  x4:0x80000ee0 x11=0x7ffff120
       77715000	      7770	800010fc	40f55633	sra	x12,x10,x15	 x10:0x80009f24 x15:0x80000b88 x12=0xff80009f
       77725000	      7771	80001100	05de1463	bne	x28,x29,80001148	 x28:0xffffff80 x29:0xffffffff
       77735000	      7772	00000000	00000013	addi	x0,x0,0	  x0:0x00000000
       77745000	      7773	80001144	00000013	addi	x0,x0,0	  x0:0x00000000
       77755000	      7774	80001148	24054c13	xori	x24,x10,576	 x10:0x80009f24 x24=0x80009d64
       77765000	      7775	8000114c	01f7a633	slt	x12,x15,x31	 x15:0x80000b88 x31:0x80000c9c x12=0x00000001
       77775000	      7776	80001150	c83fbc13	sltiu	x24,x31,-893	 x31:0x80000c9c x24=0x00000001
       77785000	      7777	80001154	1b655737	lui	x14,0x1b655	 x14=0x1b655000
       77795000	      7778	80001158	2517b993	sltiu	x19,x15,593	 x15:0x80000b88 x19=0x00000000
       77805000	      7779	8000115c	bbc3b213	sltiu	x4,x7,-1092	  x7:0x80000cfd  x4=0x00000001
       77815000	      7780	80001160	00a2de33	srl	x28,x5,x10	  x5:0x80009fcf x10:0x80009f24 x28=0x080009fc
       77825000	      7781	80001164	01612d33	slt	x26,x2,x22	  x2:0x00000001 x22:0x80000aa0 x26=0x00000000
       77835000	      7782	80001168	03d94063	blt	x18,x29,80001188	 x18:0x80000cfc x29:0xffffffff
       77845000	      7783	00000000	00000013	addi	x0,x0,0	  x0:0x00000000
       77855000	      7784	80001184	00000013	addi	x0,x0,0	  x0:0x00000000
       77865000	      7785	80001188	007bf833	and	x16,x23,x7	 x23:0xffffffe0  x7:0x80000cfd x16=0x80000ce0
       77875000	      7786	8000118c	0e186193	ori	x3,x16,225	 x16:0x80000ce0  x3=0x80000ce1
       77885000	      7787	80001190	92027d13	andi	x26,x4,-1760	  x4:0x00000001 x26=0x00000000
       77895000	      7788	80001194	04a68663	beq	x13,x10,800011e0	 x13:0x3e6eded7 x10:0x80009f24
       77905000	      7789	80001198	00fbd813	srli	x16,x23,0xf	 x23:0xffffffe0 x16=0x0001ffff
       77915000	      7790	8000119c	0077a633	slt	x12,x15,x7	 x15:0x80000b88  x7:0x80000cfd x12=0x00000001
       77925000	      7791	800011a0	00000013	addi	x0,x0,0	  x0:0x00000000
       77935000	      7792	800011a4	0011d263	bge	x3,x1,800011a8	  x3:0x80000ce1  x1:0x80000ec0
       77945000	      7793	800011a8	41145993	srai	x19,x8,0x11	  x8:0x00000000 x19=0x00000000
       77955000	      7794	800011ac	011f0733	add	x14,x30,x17	 x30:0x80000f4c x17:0x80000b18 x14=0x00001a64
       77965000	      7795	800011b0	00f41a93	slli	x21,x8,0xf	  x8:0x00000000 x21=0x00000000
       77975000	      7796	800011b4	a2928a97	auipc	x21,0xa2928	 x21=0x229291b0
       77985000	      7797	800011b8	013034b3	sltu	x9,x0,x19	  x0:0x00000000 x19:0x00000000  x9=0x00000000
       77995000	      7798	800011bc	00205013	srli	x0,x0,0x2	  x0:0x00000000
       78005000	      7799	800011c0	41fb8c33	sub	x24,x23,x31	 x23:0xffffffe0 x31:0x80000c9c x24=0x7ffff344
       78015000	      7800	800011c4	97ef8037	lui	x0,0x97ef8	
       78025000	      7801	800011c8	05bce063	bltu	x25,x27,80001208	 x25:0x080000ea x27:0xffffff00
       78035000	      7802	00000000	00000013	addi	x0,x0,0	  x0:0x00000000
       78045000	      7803	80001204	00000013	addi	x0,x0,0	  x0:0x00000000
       78055000	      7804	80001208	412bd793	srai	x15,x23,0x12	 x23:0xffffffe0 x15=0xffffffff
       78065000	      7805	8000120c	00000013	addi	x0,x0,0	  x0:0x00000000
       78075000	      7806	80001210	017f7433	and	x8,x30,x23	 x30:0x80000f4c x23:0xffffffe0  x8=0x80000f40
       78085000	      7807	80001214	255f7393	andi	x7,x30,597	 x30:0x80000f4c  x7=0x00000244
       78095000	      7808	80001218	41d5de13	srai	x28,x11,0x1d	 x11:0x7ffff120 x28=0x00000003
       78105000	      7809	8000121c	00503933	sltu	x18,x0,x5	  x0:0x00000000  x5:0x80009fcf x18=0x00000001
       78115000	      7810	80001220	c3938a13	addi	x20,x7,-967	  x7:0x00000244 x20=0xfffffe7d
       78125000	      7811	80001224	05a8c863	blt	x17,x26,80001274	 x17:0x80000b18 x26:0x00000000
       78135000	      7812	00000000	00000013	addi	x0,x0,0	  x0:0x00000000
       78145000	      7813	80001270	00000013	addi	x0,x0,0	  x0:0x00000000
       78155000	      7814	80001274	06ab6393	ori	x7,x22,106	 x22:0x80000aa0  x7=0x80000aea
       78165000	      7815	80001278	02cc5c63	bge	x24,x12,800012b0	 x24:0x7ffff344 x12:0x00000001
       78175000	      7816	00000000	00000013	addi	x0,x0,0	  x0:0x00000000
       78185000	      7817	800012ac	00000013	addi	x0,x0,0	  x0:0x00000000
       78195000	      7818	800012b0	05e27463	bgeu	x4,x30,800012f8	  x4:0x00000001 x30:0x80000f4c
       78205000	      7819	800012b4	02cc7a63	bgeu	x24,x12,800012e8	 x24:0x7ffff344 x12:0x00000001
       78215000	      7820	00000000	00000013	addi	x0,x0,0	  x0:0x00000000
       78225000	      7821	800012e4	00000013	addi	x0,x0,0	  x0:0x00000000
       78235000	      7822	800012e8	417fd113	srai	x2,x31,0x17	 x31:0x80000c9c  x2=0xffffff00
       78245000	      7823	800012ec	6f6f3493	sltiu	x9,x30,1782	 x30:0x80000f4c  x9=0x00000000
       78255000	      7824	800012f0	013a9a33	sll	x20,x21,x19	 x21:0x229291b0 x19:0x00000000 x20=0x229291b0
       78265000	      7825	800012f4	03ed0063	beq	x26,x30,80001314	 x26:0x00000000 x30:0x80000f4c
       78275000	      7826	800012f8	9f927093	andi	x1,x4,-1543	  x4:0x00000001  x1=0x00000001
       78285000	      7827	800012fc	013f9613	slli	x12,x31,0x13	 x31:0x80000c9c x12=0x64e00000
       78295000	      7828	80001300	8a524e13	xori	x28,x4,-1883	  x4:0x00000001 x28=0xfffff8a4
       78305000	      7829	80001304	03e59863	bne	x11,x30,80001334	 x11:0x7ffff120 x30:0x80000f4c
       78315000	      7830	00000000	00000013	addi	x0,x0,0	  x0:0x00000000
       78325000	      7831	80001330	00000013	addi	x0,x0,0	  x0:0x00000000
       78335000	      7832	80001334	91c20d13	addi	x26,x4,-1764	  x4:0x00000001 x26=0xfffff91d
       78345000	      7833	80001338	01cb9a63	bne	x23,x28,8000134c	 x23:0xffffffe0 x28:0xfffff8a4
       78355000	      7834	00000000	00000013	addi	x0,x0,0	  x0:0x00000000
       78365000	      7835	80001348	00000013	addi	x0,x0,0	  x0:0x00000000
       78375000	      7836	8000134c	00050fb3	add	x31,x10,x0	 x10:0x80009f24  x0:0x00000000 x31=0x80009f24
       78385000	      7837	80001350	169b6113	ori	x2,x22,361	 x22:0x80000aa0  x2=0x80000be9
       78395000	      7838	80001354	3e48eb13	ori	x22,x17,996	 x17:0x80000b18 x22=0x80000bfc
       78405000	      7839	80001358	402f01b3	sub	x3,x30,x2	 x30:0x80000f4c  x2:0x80000be9  x3=0x00000363
       78415000	      7840	8000135c	3e923a13	sltiu	x20,x4,1001	  x4:0x00000001 x20=0x00000001
       78425000	      7841	80001360	41d781b3	sub	x3,x15,x29	 x15:0xffffffff x29:0xffffffff  x3=0x00000000
       78435000	      7842	80001364	013f04b3	add	x9,x30,x19	 x30:0x80000f4c x19:0x00000000  x9=0x80000f4c
       78445000	      7843	80001368	00000013	addi	x0,x0,0	  x0:0x00000000
       78455000	      7844	8000136c	40a30833	sub	x16,x6,x10	  x6:0x80009fc4 x10:0x80009f24 x16=0x000000a0
       78465000	      7845	80001370	00a20f33	add	x30,x4,x10	  x4:0x00000001 x10:0x80009f24 x30=0x80009f25
       78475000	      7846	80001374	01e15113	srli	x2,x2,0x1e	  x2:0x80000be9  x2=0x00000002
       78485000	      7847	80001378	9ba8af13	slti	x30,x17,-1606	 x17:0x80000b18 x30=0x00000001
       78495000	      7848	8000137c	41858eb3	sub	x29,x11,x24	 x11:0x7ffff120 x24:0x7ffff344 x29=0xfffffddc
       78505000	      7849	80001380	054e7663	bgeu	x28,x20,800013cc	 x28:0xfffff8a4 x20:0x00000001
       78515000	      7850	00000000	00000013	addi	x0,x0,0	  x0:0x00000000
       78525000	      7851	800013c8	00000013	addi	x0,x0,0	  x0:0x00000000
       78535000	      7852	800013cc	d36f4793	xori	x15,x30,-714	 x30:0x00000001 x15=0xfffffd37
       78545000	      7853	800013d0	1496af93	slti	x31,x13,329	 x13:0x3e6eded7 x31=0x00000000
       78555000	      7854	800013d4	02cb6263	bltu	x22,x12,800013f8	 x22:0x80000bfc x12:0x64e00000
       78565000	      7855	800013d8	01c0d733	srl	x14,x1,x28	  x1:0x00000001 x28:0xfffff8a4 x14=0x00000000
       78575000	      7856	800013dc	005dc463	blt	x27,x5,800013e4	 x27:0xffffff00  x5:0x80009fcf
       78585000	      7857	800013e0	ab5ffb13	andi	x22,x31,-1355	 x31:0x00000000 x22=0x00000000
       78595000	      7858	800013e4	00000013	addi	x0,x0,0	  x0:0x00000000
       78605000	      7859	800013e8	40efd893	srai	x17,x31,0xe	 x31:0x00000000 x17=0x00000000
       78615000	      7860	800013ec	001fac33	slt	x24,x31,x1	 x31:0x00000000  x1:0x00000001 x24=0x00000001
       78625000	      7861	800013f0	40e3d633	sra	x12,x7,x14	  x7:0x80000aea x14:0x00000000 x12=0x80000aea
       78635000	      7862	800013f4	fd060a13	addi	x20,x12,-48	 x12:0x80000aea x20=0x80000aba
       78645000	      7863	800013f8	01449813	slli	x16,x9,0x14	  x9:0x80000f4c x16=0xf4c00000
       78655000	      7864	800013fc	400c8db3	sub	x27,x25,x0	 x25:0x080000ea  x0:0x00000000 x27=0x080000ea
       78665000	      7865	80001400	01d20fb3	add	x31,x4,x29	  x4:0x00000001 x29:0xfffffddc x31=0xfffffddd
       78675000	      7866	80001404	4108d733	sra	x14,x17,x16	 x17:0x00000000 x16:0xf4c00000 x14=0x00000000
       78685000	      7867	80001408	018a5c63	bge	x20,x24,80001420	 x20:0x80000aba x24:0x00000001
       78695000	      7868	8000140c	04821063	bne	x4,x8,8000144c	  x4:0x00000001  x8:0x80000f40
       78705000	      7869	00000000	00000013	addi	x0,x0,0	  x0:0x00000000
       78715000	      7870	80001448	00000013	addi	x0,x0,0	  x0:0x00000000
       78725000	      7871	8000144c	030d6263	bltu	x26,x16,80001470	 x26:0xfffff91d x16:0xf4c00000
       78735000	      7872	80001450	0174f9b3	and	x19,x9,x23	  x9:0x80000f4c x23:0xffffffe0 x19=0x80000f40
       78745000	      7873	80001454	01114e33	xor	x28,x2,x17	  x2:0x00000002 x17:0x00000000 x28=0x00000002
       78755000	      7874	80001458	40c68e33	sub	x28,x13,x12	 x13:0x3e6eded7 x12:0x80000aea x28=0xbe6ed3ed
       78765000	      7875	8000145c	c763c593	xori	x11,x7,-906	  x7:0x80000aea x11=0x7ffff69c
       78775000	      7876	80001460	44164d93	xori	x27,x12,1089	 x12:0x80000aea x27=0x80000eab
       78785000	      7877	80001464	011e4eb3	xor	x29,x28,x17	 x28:0xbe6ed3ed x17:0x00000000 x29=0xbe6ed3ed
       78795000	      7878	80001468	03c86e63	bltu	x16,x28,800014a4	 x16:0xf4c00000 x28:0xbe6ed3ed
       78805000	      7879	8000146c	4164d913	srai	x18,x9,0x16	  x9:0x80000f4c x18=0xfffffe00
       78815000	      7880	80001470	0355ea63	bltu	x11,x21,800014a4	 x11:0x7ffff69c x21:0x229291b0
       78825000	      7881	80001474	00d7cfb3	xor	x31,x15,x13	 x15:0xfffffd37 x13:0x3e6eded7 x31=0xc19123e0
       78835000	      7882	80001478	01883c33	sltu	x24,x16,x24	 x16:0xf4c00000 x24:0x00000001 x24=0x00000000
       78845000	      7883	8000147c	00941ab3	sll	x21,x8,x9	  x8:0x80000f40  x9:0x80000f4c x21=0x00f40000
       78855000	      7884	80001480	8eb6b713	sltiu	x14,x13,-1813	 x13:0x3e6eded7 x14=0x00000001
       78865000	      7885	80001484	008d6933	or	x18,x26,x8	 x26:0xfffff91d  x8:0x80000f40 x18=0xffffff5d
       78875000	      7886	80001488	02415e63	bge	x2,x4,800014c4	  x2:0x00000002  x4:0x00000001
       78885000	      7887	00000000	00000013	addi	x0,x0,0	  x0:0x00000000
       78895000	      7888	800014c0	00000013	addi	x0,x0,0	  x0:0x00000000
       78905000	      7889	800014c4	00fabfb3	sltu	x31,x21,x15	 x21:0x00f40000 x15:0xfffffd37 x31=0x00000001
       78915000	      7890	800014c8	9366b497	auipc	x9,0x9366b	  x9=0x1366c4c4
       78925000	      7891	800014cc	40f45493	srai	x9,x8,0xf	  x8:0x80000f40  x9=0xffff0000
       78935000	      7892	800014d0	dfb18837	lui	x16,0xdfb18	 x16=0xdfb18000
       78945000	      7893	800014d4	01149c33	sll	x24,x9,x17	  x9:0xffff0000 x17:0x00000000 x24=0xffff0000
       78955000	      7894	800014d8	047ec263	blt	x29,x7,8000151c	 x29:0xbe6ed3ed  x7:0x80000aea
       78965000	      7895	800014dc	a010b737	lui	x14,0xa010b	 x14=0xa010b000
       78975000	      7896	800014e0	7ecf9237	lui	x4,0x7ecf9	  x4=0x7ecf9000
       78985000	      7897	800014e4	012e1c63	bne	x28,x18,800014fc	 x28:0xbe6ed3ed x18:0xffffff5d
       78995000	      7898	00000000	00000013	addi	x0,x0,0	  x0:0x00000000
       79005000	      7899	800014f8	00000013	addi	x0,x0,0	  x0:0x00000000
       79015000	      7900	800014fc	00000013	addi	x0,x0,0	  x0:0x00000000
       79025000	      7901	80001500	dd5b8713	addi	x14,x23,-555	 x23:0xffffffe0 x14=0xfffffdb5
       79035000	      7902	80001504	0052dfb3	srl	x31,x5,x5	  x5:0x80009fcf  x5:0x80009fcf x31=0x00010001
       79045000	      7903	80001508	04bbe663	bltu	x23,x11,80001554	 x23:0xffffffe0 x11:0x7ffff69c
       79055000	      7904	8000150c	00d0e863	bltu	x1,x13,8000151c	  x1:0x00000001 x13:0x3e6eded7
       79065000	      7905	00000000	00000013	addi	x0,x0,0	  x0:0x00000000
       79075000	      7906	80001518	00000013	addi	x0,x0,0	  x0:0x00000000
       79085000	      7907	8000151c	a72f8a93	addi	x21,x31,-1422	 x31:0x00010001 x21=0x0000fa73
       79095000	      7908	80001520	00a683b3	add	x7,x13,x10	 x13:0x3e6eded7 x10:0x80009f24  x7=0xbe6f7dfb
       79105000	      7909	80001524	01679193	slli	x3,x15,0x16	 x15:0xfffffd37  x3=0x4dc00000
       79115000	      7910	80001528	16273113	sltiu	x2,x14,354	 x14:0xfffffdb5  x2=0x00000000
       79125000	      7911	8000152c	639c0f13	addi	x30,x24,1593	 x24:0xffff0000 x30=0xffff0639
       79135000	      7912	80001530	04dbd663	bge	x23,x13,8000157c	 x23:0xffffffe0 x13:0x3e6eded7
       79145000	      7913	80001534	010a9133	sll	x2,x21,x16	 x21:0x0000fa73 x16:0xdfb18000  x2=0x0000fa73
       79155000	      7914	80001538	00a292b3	sll	x5,x5,x10	  x5:0x80009fcf x10:0x80009f24  x5=0x0009fcf0
       79165000	      7915	8000153c	bd99ae17	auipc	x28,0xbd99a	 x28=0x3d99b538
       79175000	      7916	80001540	000add13	srli	x26,x21,0x0	 x21:0x0000fa73 x26=0x0000fa73
       79185000	      7917	80001544	03bae463	bltu	x21,x27,8000156c	 x21:0x0000fa73 x27:0x80000eab
       79195000	      7918	00000000	00000013	addi	x0,x0,0	  x0:0x00000000
       79205000	      7919	80001568	00000013	addi	x0,x0,0	  x0:0x00000000
       79215000	      7920	8000156c	0052a433	slt	x8,x5,x5	  x5:0x0009fcf0  x5:0x0009fcf0  x8=0x00000000
       79225000	      7921	80001570	40f4df33	sra	x30,x9,x15	  x9:0xffff0000 x15:0xfffffd37 x30=0xffffffff
       79235000	      7922	80001574	4128d193	srai	x3,x17,0x12	 x17:0x00000000  x3=0x00000000
       79245000	      7923	80001578	0242cc63	blt	x5,x4,800015b0	  x5:0x0009fcf0  x4:0x7ecf9000
       79255000	      7924	00000000	00000013	addi	x0,x0,0	  x0:0x00000000
       79265000	      7925	800015ac	00000013	addi	x0,x0,0	  x0:0x00000000
       79275000	      7926	800015b0	01ea9113	slli	x2,x21,0x1e	 x21:0x0000fa73  x2=0xc0000000
       79285000	      7927	800015b4	01c16463	bltu	x2,x28,800015bc	  x2:0xc0000000 x28:0x3d99b538
       79295000	      7928	800015b8	43ffb097	auipc	x1,0x43ffb	  x1=0xc3ffc5b4
       79305000	      7929	800015bc	cbce7b93	andi	x23,x28,-836	 x28:0x3d99b538 x23=0x3d99b438
       79315000	      7930	800015c0	005c3633	sltu	x12,x24,x5	 x24:0xffff0000  x5:0x0009fcf0 x12=0x00000000
       79325000	      7931	800015c4	252b6b13	ori	x22,x22,594	 x22:0x00000000 x22=0x00000252
       79335000	      7932	800015c8	03474263	blt	x14,x20,800015ec	 x14:0xfffffdb5 x20:0x80000aba
       79345000	      7933	800015cc	04a50663	beq	x10,x10,80001618	 x10:0x80009f24 x10:0x80009f24
       79355000	      7934	00000000	00000013	addi	x0,x0,0	  x0:0x00000000
       79365000	      7935	80001614	00000013	addi	x0,x0,0	  x0:0x00000000
       79375000	      7936	80001618	48703b93	sltiu	x23,x0,1159	  x0:0x00000000 x23=0x00000001
       79385000	      7937	8000161c	00a87b33	and	x22,x16,x10	 x16:0xdfb18000 x10:0x80009f24 x22=0x80008000
       79395000	      7938	80001620	00d1e2b3	or	x5,x3,x13	  x3:0x00000000 x13:0x3e6eded7  x5=0x3e6eded7
       79405000	      7939	80001624	015cca33	xor	x20,x25,x21	 x25:0x080000ea x21:0x0000fa73 x20=0x0800fa99
       79415000	      7940	80001628	3e3b9b97	auipc	x23,0x3e3b9	 x23=0xbe3ba624
       79425000	      7941	8000162c	01ef1a63	bne	x30,x30,80001640	 x30:0xffffffff x30:0xffffffff
       79435000	      7942	80001630	01e73c33	sltu	x24,x14,x30	 x14:0xfffffdb5 x30:0xffffffff x24=0x00000001
       79445000	      7943	80001634	00422933	slt	x18,x4,x4	  x4:0x7ecf9000  x4:0x7ecf9000 x18=0x00000000
       79455000	      7944	80001638	41480933	sub	x18,x16,x20	 x16:0xdfb18000 x20:0x0800fa99 x18=0xd7b08567
       79465000	      7945	8000163c	03f50a63	beq	x10,x31,80001670	 x10:0x80009f24 x31:0x00010001
       79475000	      7946	80001640	014ea2b3	slt	x5,x29,x20	 x29:0xbe6ed3ed x20:0x0800fa99  x5=0x00000001
       79485000	      7947	80001644	bef20c93	addi	x25,x4,-1041	  x4:0x7ecf9000 x25=0x7ecf8bef
       79495000	      7948	80001648	c0dc7d93	andi	x27,x24,-1011	 x24:0x00000001 x27=0x00000001
       79505000	      7949	8000164c	3e687993	andi	x19,x16,998	 x16:0xdfb18000 x19=0x00000000
       79515000	      7950	80001650	20a6f813	andi	x16,x13,522	 x13:0x3e6eded7 x16=0x00000202
       79525000	      7951	80001654	8a172093	slti	x1,x14,-1887	 x14:0xfffffdb5  x1=0x00000000
       79535000	      7952	80001658	0278c263	blt	x17,x7,8000167c	 x17:0x00000000  x7:0xbe6f7dfb
       79545000	      7953	8000165c	000b92b3	sll	x5,x23,x0	 x23:0xbe3ba624  x0:0x00000000  x5=0xbe3ba624
       79555000	      7954	80001660	0037f0b3	and	x1,x15,x3	 x15:0xfffffd37  x3:0x00000000  x1=0x00000000
       79565000	      7955	80001664	378e0e93	addi	x29,x28,888	 x28:0x3d99b538 x29=0x3d99b8b0
       79575000	      7956	80001668	01a55813	srli	x16,x10,0x1a	 x10:0x80009f24 x16=0x00000020
       79585000	      7957	8000166c	001c7c63	bgeu	x24,x1,80001684	 x24:0x00000001  x1:0x00000000
       79595000	      7958	00000000	00000013	addi	x0,x0,0	  x0:0x00000000
       79605000	      7959	80001680	00000013	addi	x0,x0,0	  x0:0x00000000
       79615000	      7960	80001684	0129feb3	and	x29,x19,x18	 x19:0x00000000 x18:0xd7b08567 x29=0x00000000
       79625000	      7961	80001688	014d3cb3	sltu	x25,x26,x20	 x26:0x0000fa73 x20:0x0800fa99 x25=0x00000001
       79635000	      7962	8000168c	15d96d93	ori	x27,x18,349	 x18:0xd7b08567 x27=0xd7b0857f
       79645000	      7963	80001690	045ce063	bltu	x25,x5,800016d0	 x25:0x00000001  x5:0xbe3ba624
       79655000	      7964	00000000	00000013	addi	x0,x0,0	  x0:0x00000000
       79665000	      7965	800016cc	00000013	addi	x0,x0,0	  x0:0x00000000
       79675000	      7966	800016d0	bb9e8237	lui	x4,0xbb9e8	  x4=0xbb9e8000
       79685000	      7967	800016d4	01336133	or	x2,x6,x19	  x6:0x80009fc4 x19:0x00000000  x2=0x80009fc4
       79695000	      7968	800016d8	c914ef93	ori	x31,x9,-879	  x9:0xffff0000 x31=0xfffffc91
       79705000	      7969	800016dc	018ff7b3	and	x15,x31,x24	 x31:0xfffffc91 x24:0x00000001 x15=0x00000001
       79715000	      7970	800016e0	41245c13	srai	x24,x8,0x12	  x8:0x00000000 x24=0x00000000
       79725000	      7971	800016e4	4085d793	srai	x15,x11,0x8	 x11:0x7ffff69c x15=0x007ffff6
       79735000	      7972	800016e8	05cf6293	ori	x5,x30,92	 x30:0xffffffff  x5=0xffffffff
       79745000	      7973	800016ec	016d8c33	add	x24,x27,x22	 x27:0xd7b0857f x22:0x80008000 x24=0x57b1057f
       79755000	      7974	800016f0	8f892913	slti	x18,x18,-1800	 x18:0xd7b08567 x18=0x00000001
       79765000	      7975	800016f4	30f8af93	slti	x31,x17,783	 x17:0x00000000 x31=0x00000001
       79775000	      7976	800016f8	013775b3	and	x11,x14,x19	 x14:0xfffffdb5 x19:0x00000000 x11=0x00000000
       79785000	      7977	800016fc	410907b3	sub	x15,x18,x16	 x18:0x00000001 x16:0x00000020 x15=0xffffffe1
       79795000	      7978	80001700	016b34b3	sltu	x9,x22,x22	 x22:0x80008000 x22:0x80008000  x9=0x00000000
       79805000	      7979	80001704	0002a9b3	slt	x19,x5,x0	  x5:0xffffffff  x0:0x00000000 x19=0x00000001
       79815000	      7980	80001708	41f24493	xori	x9,x4,1055	  x4:0xbb9e8000  x9=0xbb9e841f
       79825000	      7981	8000170c	3b31a037	lui	x0,0x3b31a	
       79835000	      7982	80001710	317a8597	auipc	x11,0x317a8	 x11=0xb17a970c
       79845000	      7983	80001714	73d20a93	addi	x21,x4,1853	  x4:0xbb9e8000 x21=0xbb9e873d
       79855000	      7984	80001718	76989037	lui	x0,0x76989	
       79865000	      7985	8000171c	fc3faa93	slti	x21,x31,-61	 x31:0x00000001 x21=0x00000000
       79875000	      7986	80001720	00eaebb3	or	x23,x21,x14	 x21:0x00000000 x14:0xfffffdb5 x23=0xfffffdb5
       79885000	      7987	80001724	b58df413	andi	x8,x27,-1192	 x27:0xd7b0857f  x8=0xd7b08158
       79895000	      7988	80001728	00000013	addi	x0,x0,0	  x0:0x00000000
       79905000	      7989	8000172c	0e174437	lui	x8,0xe174	  x8=0x0e174000
       79915000	      7990	80001730	00dba713	slti	x14,x23,13	 x23:0xfffffdb5 x14=0x00000001
       79925000	      7991	80001734	6c272493	slti	x9,x14,1730	 x14:0x00000001  x9=0x00000001
       79935000	      7992	80001738	001bd293	srli	x5,x23,0x1	 x23:0xfffffdb5  x5=0x7ffffeda
       79945000	      7993	8000173c	03c08063	beq	x1,x28,8000175c	  x1:0x00000000 x28:0x3d99b538
       79955000	      7994	80001740	811c7b97	auipc	x23,0x811c7	 x23=0x011c873c
       79965000	      7995	80001744	01889ab3	sll	x21,x17,x24	 x17:0x00000000 x24:0x57b1057f x21=0x00000000
       79975000	      7996	80001748	023be463	bltu	x23,x3,80001770	 x23:0x011c873c  x3:0x00000000
       79985000	      7997	8000174c	12686d93	ori	x27,x16,294	 x16:0x00000020 x27=0x00000126
       79995000	      7998	80001750	40bd0a33	sub	x20,x26,x11	 x26:0x0000fa73 x11:0xb17a970c x20=0x4e866367
       80005000	      7999	80001754	c3e76e93	ori	x29,x14,-962	 x14:0x00000001 x29=0xfffffc3f
       80015000	      8000	80001758	013d1733	sll	x14,x26,x19	 x26:0x0000fa73 x19:0x00000001 x14=0x0001f4e6
       80025000	      8001	8000175c	0c71f463	bgeu	x3,x7,80001824	  x3:0x00000000  x7:0xbe6f7dfb
       80035000	      8002	80001760	0082e263	bltu	x5,x8,80001764	  x5:0x7ffffeda  x8:0x0e174000
       80045000	      8003	80001764	00df6133	or	x2,x30,x13	 x30:0xffffffff x13:0x3e6eded7  x2=0xffffffff
       80055000	      8004	80001768	00000013	addi	x0,x0,0	  x0:0x00000000
       80065000	      8005	8000176c	41968b33	sub	x22,x13,x25	 x13:0x3e6eded7 x25:0x00000001 x22=0x3e6eded6
       80075000	      8006	80001770	01885193	srli	x3,x16,0x18	 x16:0x00000020  x3=0x00000000
       80085000	      8007	80001774	0c016263	bltu	x2,x0,80001838	  x2:0xffffffff  x0:0x00000000
       80095000	      8008	80001778	01738933	add	x18,x7,x23	  x7:0xbe6f7dfb x23:0x011c873c x18=0xbf8c0537
       80105000	      8009	8000177c	417050b3	sra	x1,x0,x23	  x0:0x00000000 x23:0x011c873c  x1=0x00000000
       80115000	      8010	80001780	00f5df33	srl	x30,x11,x15	 x11:0xb17a970c x15:0xffffffe1 x30=0x58bd4b86
       80125000	      8011	80001784	41cfd433	sra	x8,x31,x28	 x31:0x00000001 x28:0x3d99b538  x8=0x00000000
       80135000	      8012	80001788	40045293	srai	x5,x8,0x0	  x8:0x00000000  x5=0x00000000
       80145000	      8013	8000178c	01a4e933	or	x18,x9,x26	  x9:0x00000001 x26:0x0000fa73 x18=0x0000fa73
       80155000	      8014	80001790	9ccb4b13	xori	x22,x22,-1588	 x22:0x3e6eded6 x22=0xc191271a
       80165000	      8015	80001794	0016a3b3	slt	x7,x13,x1	 x13:0x3e6eded7  x1:0x00000000  x7=0x00000000
       80175000	      8016	80001798	03000d6f	jal	x26,80001798	 x26=0x80001798
       80185000	      8017	00000000	00000013	addi	x0,x0,0	  x0:0x00000000
       80195000	      8018	800017c4	00000013	addi	x0,x0,0	  x0:0x00000000
       80205000	      8019	800017c8	004000ef	jal	x1,800017c8	  x1=0x800017c8
       80215000	      8020	00000000	00000013	addi	x0,x0,0	  x0:0x00000000
       80225000	      8021	800017c8	00000013	addi	x0,x0,0	  x0:0x00000000
       80235000	      8022	800017cc	ff1ff86f	jal	x16,800017cc	 x16=0x800017cc
       80245000	      8023	00000000	00000013	addi	x0,x0,0	  x0:0x00000000
       80255000	      8024	800017b8	00000013	addi	x0,x0,0	  x0:0x00000000
       80265000	      8025	800017bc	038000ef	jal	x1,800017bc	  x1=0x800017bc
       80275000	      8026	00000000	00000013	addi	x0,x0,0	  x0:0x00000000
       80285000	      8027	800017f0	00000013	addi	x0,x0,0	  x0:0x00000000
       80295000	      8028	800017f4	fe9ff0ef	jal	x1,800017f4	  x1=0x800017f4
       80305000	      8029	00000000	00000013	addi	x0,x0,0	  x0:0x00000000
       80315000	      8030	800017d8	00000013	addi	x0,x0,0	  x0:0x00000000
       80325000	      8031	800017dc	00400b6f	jal	x22,800017dc	 x22=0x800017dc
       80335000	      8032	00000000	00000013	addi	x0,x0,0	  x0:0x00000000
       80345000	      8033	800017dc	00000013	addi	x0,x0,0	  x0:0x00000000
       80355000	      8034	800017e0	02c0066f	jal	x12,800017e0	 x12=0x800017e0
       80365000	      8035	00000000	00000013	addi	x0,x0,0	  x0:0x00000000
       80375000	      8036	80001808	00000013	addi	x0,x0,0	  x0:0x00000000
       80385000	      8037	8000180c	fd9ff0ef	jal	x1,8000180c	  x1=0x8000180c
       80395000	      8038	00000000	00000013	addi	x0,x0,0	  x0:0x00000000
       80405000	      8039	800017e0	00000013	addi	x0,x0,0	  x0:0x00000000
       80415000	      8040	800017e4	fc9ff0ef	jal	x1,800017e4	  x1=0x800017e4
       80425000	      8041	00000000	00000013	addi	x0,x0,0	  x0:0x00000000
       80435000	      8042	800017a8	00000013	addi	x0,x0,0	  x0:0x00000000
       80445000	      8043	800017ac	040000ef	jal	x1,800017ac	  x1=0x800017ac
       80455000	      8044	00000000	00000013	addi	x0,x0,0	  x0:0x00000000
       80465000	      8045	800017e8	00000013	addi	x0,x0,0	  x0:0x00000000
       80475000	      8046	800017ec	fb5ff0ef	jal	x1,800017ec	  x1=0x800017ec
       80485000	      8047	00000000	00000013	addi	x0,x0,0	  x0:0x00000000
       80495000	      8048	8000179c	00000013	addi	x0,x0,0	  x0:0x00000000
       80505000	      8049	800017a0	048000ef	jal	x1,800017a0	  x1=0x800017a0
       80515000	      8050	00000000	00000013	addi	x0,x0,0	  x0:0x00000000
       80525000	      8051	800017e4	00000013	addi	x0,x0,0	  x0:0x00000000
       80535000	      8052	800017e8	020000ef	jal	x1,800017e8	  x1=0x800017e8
       80545000	      8053	00000000	00000013	addi	x0,x0,0	  x0:0x00000000
       80555000	      8054	80001804	00000013	addi	x0,x0,0	  x0:0x00000000
       80565000	      8055	80001808	fd1ff5ef	jal	x11,80001808	 x11=0x80001808
       80575000	      8056	00000000	00000013	addi	x0,x0,0	  x0:0x00000000
       80585000	      8057	800017d4	00000013	addi	x0,x0,0	  x0:0x00000000
       80595000	      8058	800017d8	024000ef	jal	x1,800017d8	  x1=0x800017d8
       80605000	      8059	00000000	00000013	addi	x0,x0,0	  x0:0x00000000
       80615000	      8060	800017f8	00000013	addi	x0,x0,0	  x0:0x00000000
       80625000	      8061	800017fc	fd9ff66f	jal	x12,800017fc	 x12=0x800017fc
       80635000	      8062	00000000	00000013	addi	x0,x0,0	  x0:0x00000000
       80645000	      8063	800017d0	00000013	addi	x0,x0,0	  x0:0x00000000
       80655000	      8064	800017d4	024005ef	jal	x11,800017d4	 x11=0x800017d4
       80665000	      8065	00000000	00000013	addi	x0,x0,0	  x0:0x00000000
       80675000	      8066	800017f4	00000013	addi	x0,x0,0	  x0:0x00000000
       80685000	      8067	800017f8	fcdff2ef	jal	x5,800017f8	  x5=0x800017f8
       80695000	      8068	00000000	00000013	addi	x0,x0,0	  x0:0x00000000
       80705000	      8069	800017c0	00000013	addi	x0,x0,0	  x0:0x00000000
       80715000	      8070	800017c4	040000ef	jal	x1,800017c4	  x1=0x800017c4
       80725000	      8071	00000000	00000013	addi	x0,x0,0	  x0:0x00000000
       80735000	      8072	80001800	00000013	addi	x0,x0,0	  x0:0x00000000
       80745000	      8073	80001804	fadff0ef	jal	x1,80001804	  x1=0x80001804
       80755000	      8074	00000000	00000013	addi	x0,x0,0	  x0:0x00000000
       80765000	      8075	800017ac	00000013	addi	x0,x0,0	  x0:0x00000000
       80775000	      8076	800017b0	05000e6f	jal	x28,800017b0	 x28=0x800017b0
       80785000	      8077	00000000	00000013	addi	x0,x0,0	  x0:0x00000000
       80795000	      8078	800017fc	00000013	addi	x0,x0,0	  x0:0x00000000
       80805000	      8079	80001800	fa5ff1ef	jal	x3,80001800	  x3=0x80001800
       80815000	      8080	00000000	00000013	addi	x0,x0,0	  x0:0x00000000
       80825000	      8081	800017a0	00000013	addi	x0,x0,0	  x0:0x00000000
       80835000	      8082	800017a4	014000ef	jal	x1,800017a4	  x1=0x800017a4
       80845000	      8083	00000000	00000013	addi	x0,x0,0	  x0:0x00000000
       80855000	      8084	800017b4	00000013	addi	x0,x0,0	  x0:0x00000000
       80865000	      8085	800017b8	fe5ff2ef	jal	x5,800017b8	  x5=0x800017b8
       80875000	      8086	00000000	00000013	addi	x0,x0,0	  x0:0x00000000
       80885000	      8087	80001798	00000013	addi	x0,x0,0	  x0:0x00000000
       80895000	      8088	8000179c	034000ef	jal	x1,8000179c	  x1=0x8000179c
       80905000	      8089	00000000	00000013	addi	x0,x0,0	  x0:0x00000000
       80915000	      8090	800017cc	00000013	addi	x0,x0,0	  x0:0x00000000
       80925000	      8091	800017d0	ff1ffaef	jal	x21,800017d0	 x21=0x800017d0
       80935000	      8092	00000000	00000013	addi	x0,x0,0	  x0:0x00000000
       80945000	      8093	800017bc	00000013	addi	x0,x0,0	  x0:0x00000000
       80955000	      8094	800017c0	fe9ff0ef	jal	x1,800017c0	  x1=0x800017c0
       80965000	      8095	00000000	00000013	addi	x0,x0,0	  x0:0x00000000
       80975000	      8096	800017a4	00000013	addi	x0,x0,0	  x0:0x00000000
       80985000	      8097	800017a8	00c000ef	jal	x1,800017a8	  x1=0x800017a8
       80995000	      8098	00000000	00000013	addi	x0,x0,0	  x0:0x00000000
       81005000	      8099	800017b0	00000013	addi	x0,x0,0	  x0:0x00000000
       81015000	      8100	800017b4	03c0096f	jal	x18,800017b4	 x18=0x800017b4
       81025000	      8101	00000000	00000013	addi	x0,x0,0	  x0:0x00000000
       81035000	      8102	800017ec	00000013	addi	x0,x0,0	  x0:0x00000000
       81045000	      8103	800017f0	020000ef	jal	x1,800017f0	  x1=0x800017f0
       81055000	      8104	00000000	00000013	addi	x0,x0,0	  x0:0x00000000
       81065000	      8105	8000180c	00000013	addi	x0,x0,0	  x0:0x00000000
       81075000	      8106	80001810	b95cb193	sltiu	x3,x25,-1131	 x25:0x00000001  x3=0x00000001
       81085000	      8107	80001814	ec8fa993	slti	x19,x31,-312	 x31:0x00000001 x19=0x00000000
       81095000	      8108	80001818	000f7863	bgeu	x30,x0,80001828	 x30:0x58bd4b86  x0:0x00000000
       81105000	      8109	00000000	00000013	addi	x0,x0,0	  x0:0x00000000
       81115000	      8110	80001824	00000013	addi	x0,x0,0	  x0:0x00000000
       81125000	      8111	80001828	02714863	blt	x2,x7,80001858	  x2:0xffffffff  x7:0x00000000
       81135000	      8112	00000000	00000013	addi	x0,x0,0	  x0:0x00000000
       81145000	      8113	80001854	00000013	addi	x0,x0,0	  x0:0x00000000
       81155000	      8114	80001858	803d7093	andi	x1,x26,-2045	 x26:0x80001798  x1=0x80001000
       81165000	      8115	8000185c	00c73833	sltu	x16,x14,x12	 x14:0x0001f4e6 x12:0x800017fc x16=0x00000001
       81175000	      8116	80001860	058fe663	bltu	x31,x24,800018ac	 x31:0x00000001 x24:0x57b1057f
       81185000	      8117	00000000	00000013	addi	x0,x0,0	  x0:0x00000000
       81195000	      8118	800018a8	00000013	addi	x0,x0,0	  x0:0x00000000
       81205000	      8119	800018ac	8744e137	lui	x2,0x8744e	  x2=0x8744e000
       81215000	      8120	800018b0	0081ac33	slt	x24,x3,x8	  x3:0x00000001  x8:0x00000000 x24=0x00000000
       81225000	      8121	800018b4	00de0263	beq	x28,x13,800018b8	 x28:0x800017b0 x13:0x3e6eded7
       81235000	      8122	800018b8	00000013	addi	x0,x0,0	  x0:0x00000000
       81245000	      8123	800018bc	00a84d33	xor	x26,x16,x10	 x16:0x00000001 x10:0x80009f24 x26=0x80009f25
       81255000	      8124	800018c0	98027eb7	lui	x29,0x98027	 x29=0x98027000
       81265000	      8125	800018c4	40a0db93	srai	x23,x1,0xa	  x1:0x80001000 x23=0xffe00004
       81275000	      8126	800018c8	01569913	slli	x18,x13,0x15	 x13:0x3e6eded7 x18=0xdae00000
       81285000	      8127	800018cc	036c7463	bgeu	x24,x22,800018f4	 x24:0x00000000 x22:0x800017dc
       81295000	      8128	800018d0	404fdb13	srai	x22,x31,0x4	 x31:0x00000001 x22=0x00000000
       81305000	      8129	800018d4	00221593	slli	x11,x4,0x2	  x4:0xbb9e8000 x11=0xee7a0000
       81315000	      8130	800018d8	005cd8b3	srl	x17,x25,x5	 x25:0x00000001  x5:0x800017b8 x17=0x00000000
       81325000	      8131	800018dc	000088b3	add	x17,x1,x0	  x1:0x80001000  x0:0x00000000 x17=0x80001000
       81335000	      8132	800018e0	0962c263	blt	x5,x22,80001964	  x5:0x800017b8 x22:0x00000000
       81345000	      8133	00000000	00000013	addi	x0,x0,0	  x0:0x00000000
       81355000	      8134	80001960	00000013	addi	x0,x0,0	  x0:0x00000000
       81365000	      8135	80001964	d798ad93	slti	x27,x17,-647	 x17:0x80001000 x27=0x00000001
       81375000	      8136	80001968	94896f93	ori	x31,x18,-1720	 x18:0xdae00000 x31=0xfffff948
       81385000	      8137	8000196c	03b3fc63	bgeu	x7,x27,800019a4	  x7:0x00000000 x27:0x00000001
       81395000	      8138	80001970	c78dbe93	sltiu	x29,x27,-904	 x27:0x00000001 x29=0x00000001
       81405000	      8139	80001974	00860a33	add	x20,x12,x8	 x12:0x800017fc  x8:0x00000000 x20=0x800017fc
       81415000	      8140	80001978	dcbce893	ori	x17,x25,-565	 x25:0x00000001 x17=0xfffffdcb
       81425000	      8141	8000197c	c7f67d93	andi	x27,x12,-897	 x12:0x800017fc x27=0x8000147c
       81435000	      8142	80001980	01451db3	sll	x27,x10,x20	 x10:0x80009f24 x20:0x800017fc x27=0x40000000
       81445000	      8143	80001984	00d26463	bltu	x4,x13,8000198c	  x4:0xbb9e8000 x13:0x3e6eded7
       81455000	      8144	80001988	00de50b3	srl	x1,x28,x13	 x28:0x800017b0 x13:0x3e6eded7  x1=0x00000100
       81465000	      8145	8000198c	5da5a113	slti	x2,x11,1498	 x11:0xee7a0000  x2=0x00000001
       81475000	      8146	80001990	c3e30c13	addi	x24,x6,-962	  x6:0x80009fc4 x24=0x80009c02
       81485000	      8147	80001994	0029db93	srli	x23,x19,0x2	 x19:0x00000000 x23=0x00000000
       81495000	      8148	80001998	00fdf2b3	and	x5,x27,x15	 x27:0x40000000 x15:0xffffffe1  x5=0x40000000
       81505000	      8149	8000199c	413fd933	sra	x18,x31,x19	 x31:0xfffff948 x19:0x00000000 x18=0xfffff948
       81515000	      8150	800019a0	6333eb13	ori	x22,x7,1587	  x7:0x00000000 x22=0x00000633
       81525000	      8151	800019a4	01257e63	bgeu	x10,x18,800019c0	 x10:0x80009f24 x18:0xfffff948
       81535000	      8152	800019a8	01d1f033	and	x0,x3,x29	  x3:0x00000001 x29:0x00000001
       81545000	      8153	800019ac	03a89263	bne	x17,x26,800019d0	 x17:0xfffffdcb x26:0x80009f25
       81555000	      8154	00000000	00000013	addi	x0,x0,0	  x0:0x00000000
       81565000	      8155	800019cc	00000013	addi	x0,x0,0	  x0:0x00000000
       81575000	      8156	800019d0	00218863	beq	x3,x2,800019e0	  x3:0x00000001  x2:0x00000001
       81585000	      8157	00000000	00000013	addi	x0,x0,0	  x0:0x00000000
       81595000	      8158	800019dc	00000013	addi	x0,x0,0	  x0:0x00000000
       81605000	      8159	800019e0	fda66f93	ori	x31,x12,-38	 x12:0x800017fc x31=0xfffffffe
       81615000	      8160	800019e4	00c159b3	srl	x19,x2,x12	  x2:0x00000001 x12:0x800017fc x19=0x00000000
       81625000	      8161	800019e8	a23f3a13	sltiu	x20,x30,-1501	 x30:0x58bd4b86 x20=0x00000001
       81635000	      8162	800019ec	019d19b3	sll	x19,x26,x25	 x26:0x80009f25 x25:0x00000001 x19=0x00013e4a
       81645000	      8163	800019f0	015de433	or	x8,x27,x21	 x27:0x40000000 x21:0x800017d0  x8=0xc00017d0
       81655000	      8164	800019f4	5c2a2293	slti	x5,x20,1474	 x20:0x00000001  x5=0x00000001
       81665000	      8165	800019f8	fcd5bb13	sltiu	x22,x11,-51	 x11:0xee7a0000 x22=0x00000001
       81675000	      8166	800019fc	0ecad863	bge	x21,x12,80001aec	 x21:0x800017d0 x12:0x800017fc
       81685000	      8167	80001a00	03000d6f	jal	x26,80001a00	 x26=0x80001a00
       81695000	      8168	00000000	00000013	addi	x0,x0,0	  x0:0x00000000
       81705000	      8169	80001a2c	00000013	addi	x0,x0,0	  x0:0x00000000
       81715000	      8170	80001a30	ff9ffa6f	jal	x20,80001a30	 x20=0x80001a30
       81725000	      8171	00000000	00000013	addi	x0,x0,0	  x0:0x00000000
       81735000	      8172	80001a24	00000013	addi	x0,x0,0	  x0:0x00000000
       81745000	      8173	80001a28	ff5ff0ef	jal	x1,80001a28	  x1=0x80001a28
       81755000	      8174	00000000	00000013	addi	x0,x0,0	  x0:0x00000000
       81765000	      8175	80001a18	00000013	addi	x0,x0,0	  x0:0x00000000
       81775000	      8176	80001a1c	008002ef	jal	x5,80001a1c	  x5=0x80001a1c
       81785000	      8177	00000000	00000013	addi	x0,x0,0	  x0:0x00000000
       81795000	      8178	80001a20	00000013	addi	x0,x0,0	  x0:0x00000000
       81805000	      8179	80001a24	fe1ff0ef	jal	x1,80001a24	  x1=0x80001a24
       81815000	      8180	00000000	00000013	addi	x0,x0,0	  x0:0x00000000
       81825000	      8181	80001a00	00000013	addi	x0,x0,0	  x0:0x00000000
       81835000	      8182	80001a04	034000ef	jal	x1,80001a04	  x1=0x80001a04
       81845000	      8183	00000000	00000013	addi	x0,x0,0	  x0:0x00000000
       81855000	      8184	80001a34	00000013	addi	x0,x0,0	  x0:0x00000000
       81865000	      8185	80001a38	fd1ff0ef	jal	x1,80001a38	  x1=0x80001a38
       81875000	      8186	00000000	00000013	addi	x0,x0,0	  x0:0x00000000
       81885000	      8187	80001a04	00000013	addi	x0,x0,0	  x0:0x00000000
       81895000	      8188	80001a08	024000ef	jal	x1,80001a08	  x1=0x80001a08
       81905000	      8189	00000000	00000013	addi	x0,x0,0	  x0:0x00000000
       81915000	      8190	80001a28	00000013	addi	x0,x0,0	  x0:0x00000000
       81925000	      8191	80001a2c	008000ef	jal	x1,80001a2c	  x1=0x80001a2c
       81935000	      8192	00000000	00000013	addi	x0,x0,0	  x0:0x00000000
       81945000	      8193	80001a30	00000013	addi	x0,x0,0	  x0:0x00000000
       81955000	      8194	80001a34	fe1ff0ef	jal	x1,80001a34	  x1=0x80001a34
       81965000	      8195	00000000	00000013	addi	x0,x0,0	  x0:0x00000000
       81975000	      8196	80001a10	00000013	addi	x0,x0,0	  x0:0x00000000
       81985000	      8197	80001a14	028000ef	jal	x1,80001a14	  x1=0x80001a14
       81995000	      8198	00000000	00000013	addi	x0,x0,0	  x0:0x00000000
       82005000	      8199	80001a38	00000013	addi	x0,x0,0	  x0:0x00000000
       82015000	      8200	80001a3c	00c000ef	jal	x1,80001a3c	  x1=0x80001a3c
       82025000	      8201	00000000	00000013	addi	x0,x0,0	  x0:0x00000000
       82035000	      8202	80001a44	00000013	addi	x0,x0,0	  x0:0x00000000
       82045000	      8203	80001a48	ffdff2ef	jal	x5,80001a48	  x5=0x80001a48
       82055000	      8204	00000000	00000013	addi	x0,x0,0	  x0:0x00000000
       82065000	      8205	80001a40	00000013	addi	x0,x0,0	  x0:0x00000000
       82075000	      8206	80001a44	fddff0ef	jal	x1,80001a44	  x1=0x80001a44
       82085000	      8207	00000000	00000013	addi	x0,x0,0	  x0:0x00000000
       82095000	      8208	80001a1c	00000013	addi	x0,x0,0	  x0:0x00000000
       82105000	      8209	80001a20	fedff0ef	jal	x1,80001a20	  x1=0x80001a20
       82115000	      8210	00000000	00000013	addi	x0,x0,0	  x0:0x00000000
       82125000	      8211	80001a08	00000013	addi	x0,x0,0	  x0:0x00000000
       82135000	      8212	80001a0c	034000ef	jal	x1,80001a0c	  x1=0x80001a0c
       82145000	      8213	00000000	00000013	addi	x0,x0,0	  x0:0x00000000
       82155000	      8214	80001a3c	00000013	addi	x0,x0,0	  x0:0x00000000
       82165000	      8215	80001a40	fd9ff0ef	jal	x1,80001a40	  x1=0x80001a40
       82175000	      8216	00000000	00000013	addi	x0,x0,0	  x0:0x00000000
       82185000	      8217	80001a14	00000013	addi	x0,x0,0	  x0:0x00000000
       82195000	      8218	80001a18	ff9ff96f	jal	x18,80001a18	 x18=0x80001a18
       82205000	      8219	00000000	00000013	addi	x0,x0,0	  x0:0x00000000
       82215000	      8220	80001a0c	00000013	addi	x0,x0,0	  x0:0x00000000
       82225000	      8221	80001a10	03c000ef	jal	x1,80001a10	  x1=0x80001a10
       82235000	      8222	00000000	00000013	addi	x0,x0,0	  x0:0x00000000
       82245000	      8223	80001a48	00000013	addi	x0,x0,0	  x0:0x00000000
       82255000	      8224	80001a4c	00000013	addi	x0,x0,0	  x0:0x00000000
       82265000	      8225	80001a50	00717d33	and	x26,x2,x7	  x2:0x00000001  x7:0x00000000 x26=0x00000000
       82275000	      8226	80001a54	415b5033	sra	x0,x22,x21	 x22:0x00000001 x21:0x800017d0
       82285000	      8227	80001a58	000ae863	bltu	x21,x0,80001a68	 x21:0x800017d0  x0:0x00000000
       82295000	      8228	80001a5c	419385b3	sub	x11,x7,x25	  x7:0x00000000 x25:0x00000001 x11=0xffffffff
       82305000	      8229	80001a60	700d3e93	sltiu	x29,x26,1792	 x26:0x00000000 x29=0x00000001
       82315000	      8230	80001a64	01a05b93	srli	x23,x0,0x1a	  x0:0x00000000 x23=0x00000000
       82325000	      8231	80001a68	01ddce33	xor	x28,x27,x29	 x27:0x40000000 x29:0x00000001 x28=0x40000001
       82335000	      8232	80001a6c	92c5c8b7	lui	x17,0x92c5c	 x17=0x92c5c000
       82345000	      8233	80001a70	09a11063	bne	x2,x26,80001af0	  x2:0x00000001 x26:0x00000000
       82355000	      8234	00000000	00000013	addi	x0,x0,0	  x0:0x00000000
       82365000	      8235	80001aec	00000013	addi	x0,x0,0	  x0:0x00000000
       82375000	      8236	80001af0	02370263	beq	x14,x3,80001b14	 x14:0x0001f4e6  x3:0x00000001
       82385000	      8237	80001af4	c860cd13	xori	x26,x1,-890	  x1:0x80001a10 x26=0x7fffe696
       82395000	      8238	80001af8	05d2f063	bgeu	x5,x29,80001b38	  x5:0x80001a48 x29:0x00000001
       82405000	      8239	00000000	00000013	addi	x0,x0,0	  x0:0x00000000
       82415000	      8240	80001b34	00000013	addi	x0,x0,0	  x0:0x00000000
       82425000	      8241	80001b38	00000013	addi	x0,x0,0	  x0:0x00000000
       82435000	      8242	80001b3c	00000013	addi	x0,x0,0	  x0:0x00000000
       82445000	      8243	80001b40	001977b3	and	x15,x18,x1	 x18:0x80001a18  x1:0x80001a10 x15=0x80001a10
       82455000	      8244	80001b44	00b99293	slli	x5,x19,0xb	 x19:0x00013e4a  x5=0x09f25000
       82465000	      8245	80001b48	00abd033	srl	x0,x23,x10	 x23:0x00000000 x10:0x80009f24
       82475000	      8246	80001b4c	ad72eb93	ori	x23,x5,-1321	  x5:0x09f25000 x23=0xfffffad7
       82485000	      8247	80001b50	00000013	addi	x0,x0,0	  x0:0x00000000
       82495000	      8248	80001b54	0511bf13	sltiu	x30,x3,81	  x3:0x00000001 x30=0x00000001
       82505000	      8249	80001b58	009cc263	blt	x25,x9,80001b5c	 x25:0x00000001  x9:0x00000001
       82515000	      8250	80001b5c	411f5393	srai	x7,x30,0x11	 x30:0x00000001  x7=0x00000000
       82525000	      8251	80001b60	0408d863	bge	x17,x0,80001bb0	 x17:0x92c5c000  x0:0x00000000
       82535000	      8252	80001b64	0163cf33	xor	x30,x7,x22	  x7:0x00000000 x22:0x00000001 x30=0x00000001
       82545000	      8253	80001b68	009db133	sltu	x2,x27,x9	 x27:0x40000000  x9:0x00000001  x2=0x00000000
       82555000	      8254	80001b6c	daa6ce13	xori	x28,x13,-598	 x13:0x3e6eded7 x28=0xc191237d
       82565000	      8255	80001b70	40f8d433	sra	x8,x17,x15	 x17:0x92c5c000 x15:0x80001a10  x8=0xffff92c5
       82575000	      8256	80001b74	cead7093	andi	x1,x26,-790	 x26:0x7fffe696  x1=0x7fffe482
       82585000	      8257	80001b78	df417093	andi	x1,x2,-524	  x2:0x00000000  x1=0x00000000
       82595000	      8258	80001b7c	7e577b93	andi	x23,x14,2021	 x14:0x0001f4e6 x23=0x000004e4
       82605000	      8259	80001b80	873afc93	andi	x25,x21,-1933	 x21:0x800017d0 x25=0x80001050
       82615000	      8260	80001b84	05fe1663	bne	x28,x31,80001bd0	 x28:0xc191237d x31:0xfffffffe
       82625000	      8261	00000000	00000013	addi	x0,x0,0	  x0:0x00000000
       82635000	      8262	80001bcc	00000013	addi	x0,x0,0	  x0:0x00000000
       82645000	      8263	80001bd0	01173b33	sltu	x22,x14,x17	 x14:0x0001f4e6 x17:0x92c5c000 x22=0x00000001
       82655000	      8264	80001bd4	006218b3	sll	x17,x4,x6	  x4:0xbb9e8000  x6:0x80009fc4 x17=0xb9e80000
       82665000	      8265	80001bd8	03d8d863	bge	x17,x29,80001c08	 x17:0xb9e80000 x29:0x00000001
       82675000	      8266	80001bdc	01fc9993	slli	x19,x25,0x1f	 x25:0x80001050 x19=0x00000000
       82685000	      8267	80001be0	0073e733	or	x14,x7,x7	  x7:0x00000000  x7:0x00000000 x14=0x00000000
       82695000	      8268	80001be4	00115893	srli	x17,x2,0x1	  x2:0x00000000 x17=0x00000000
       82705000	      8269	80001be8	00f69a63	bne	x13,x15,80001bfc	 x13:0x3e6eded7 x15:0x80001a10
       82715000	      8270	00000000	00000013	addi	x0,x0,0	  x0:0x00000000
       82725000	      8271	80001bf8	00000013	addi	x0,x0,0	  x0:0x00000000
       82735000	      8272	80001bfc	022ef063	bgeu	x29,x2,80001c1c	 x29:0x00000001  x2:0x00000000
       82745000	      8273	00000000	00000013	addi	x0,x0,0	  x0:0x00000000
       82755000	      8274	80001c18	00000013	addi	x0,x0,0	  x0:0x00000000
       82765000	      8275	80001c1c	00b54863	blt	x10,x11,80001c2c	 x10:0x80009f24 x11:0xffffffff
       82775000	      8276	00000000	00000013	addi	x0,x0,0	  x0:0x00000000
       82785000	      8277	80001c28	00000013	addi	x0,x0,0	  x0:0x00000000
       82795000	      8278	80001c2c	00000013	addi	x0,x0,0	  x0:0x00000000
       82805000	      8279	80001c30	00232a33	slt	x20,x6,x2	  x6:0x80009fc4  x2:0x00000000 x20=0x00000001
       82815000	      8280	80001c34	b6c9a413	slti	x8,x19,-1172	 x19:0x00000000  x8=0x00000000
       82825000	      8281	80001c38	00379263	bne	x15,x3,80001c3c	 x15:0x80001a10  x3:0x00000001
       82835000	      8282	00000000	00000013	addi	x0,x0,0	  x0:0x00000000
       82845000	      8283	80001c38	00000013	addi	x0,x0,0	  x0:0x00000000
       82855000	      8284	80001c3c	00207233	and	x4,x0,x2	  x0:0x00000000  x2:0x00000000  x4=0x00000000
       82865000	      8285	80001c40	0224ea63	bltu	x9,x2,80001c74	  x9:0x00000001  x2:0x00000000
       82875000	      8286	80001c44	40bf5013	srai	x0,x30,0xb	 x30:0x00000001
       82885000	      8287	80001c48	3778eb93	ori	x23,x17,887	 x17:0x00000000 x23=0x00000377
       82895000	      8288	80001c4c	32acf017	auipc	x0,0x32acf	
       82905000	      8289	80001c50	01f96eb3	or	x29,x18,x31	 x18:0x80001a18 x31:0xfffffffe x29=0xfffffffe
       82915000	      8290	80001c54	00000013	addi	x0,x0,0	  x0:0x00000000
       82925000	      8291	80001c58	00fdd713	srli	x14,x27,0xf	 x27:0x40000000 x14=0x00008000
       82935000	      8292	80001c5c	01dce863	bltu	x25,x29,80001c6c	 x25:0x80001050 x29:0xfffffffe
       82945000	      8293	00000000	00000013	addi	x0,x0,0	  x0:0x00000000
       82955000	      8294	80001c68	00000013	addi	x0,x0,0	  x0:0x00000000
       82965000	      8295	80001c6c	240039b7	lui	x19,0x24003	 x19=0x24003000
       82975000	      8296	80001c70	01dbd613	srli	x12,x23,0x1d	 x23:0x00000377 x12=0x00000000
       82985000	      8297	80001c74	ce3e7b93	andi	x23,x28,-797	 x28:0xc191237d x23=0xc1912061
       82995000	      8298	80001c78	3d1afe93	andi	x29,x21,977	 x21:0x800017d0 x29=0x000003d0
       83005000	      8299	80001c7c	6d8b0f93	addi	x31,x22,1752	 x22:0x00000001 x31=0x000006d9
       83015000	      8300	80001c80	8c224a93	xori	x21,x4,-1854	  x4:0x00000000 x21=0xfffff8c2
       83025000	      8301	80001c84	eb413d13	sltiu	x26,x2,-332	  x2:0x00000000 x26=0x00000001
       83035000	      8302	80001c88	01c55463	bge	x10,x28,80001c90	 x10:0x80009f24 x28:0xc191237d
       83045000	      8303	80001c8c	01d3e1b3	or	x3,x7,x29	  x7:0x00000000 x29:0x000003d0  x3=0x000003d0
       83055000	      8304	80001c90	00af7cb3	and	x25,x30,x10	 x30:0x00000001 x10:0x80009f24 x25=0x00000000
       83065000	      8305	80001c94	54232213	slti	x4,x6,1346	  x6:0x80009fc4  x4=0x00000001
       83075000	      8306	80001c98	00c57c63	bgeu	x10,x12,80001cb0	 x10:0x80009f24 x12:0x00000000
       83085000	      8307	00000000	00000013	addi	x0,x0,0	  x0:0x00000000
       83095000	      8308	80001cac	00000013	addi	x0,x0,0	  x0:0x00000000
       83105000	      8309	80001cb0	402d5b93	srai	x23,x26,0x2	 x26:0x00000001 x23=0x00000000
       83115000	      8310	80001cb4	402cdfb3	sra	x31,x25,x2	 x25:0x00000000  x2:0x00000000 x31=0x00000000
       83125000	      8311	80001cb8	4057de33	sra	x28,x15,x5	 x15:0x80001a10  x5:0x09f25000 x28=0x80001a10
       83135000	      8312	80001cbc	0203f063	bgeu	x7,x0,80001cdc	  x7:0x00000000  x0:0x00000000
       83145000	      8313	00000000	00000013	addi	x0,x0,0	  x0:0x00000000
       83155000	      8314	80001cd8	00000013	addi	x0,x0,0	  x0:0x00000000
       83165000	      8315	80001cdc	0160b433	sltu	x8,x1,x22	  x1:0x00000000 x22:0x00000001  x8=0x00000001
       83175000	      8316	80001ce0	0120abb3	slt	x23,x1,x18	  x1:0x00000000 x18:0x80001a18 x23=0x00000000
       83185000	      8317	80001ce4	01815863	bge	x2,x24,80001cf4	  x2:0x00000000 x24:0x80009c02
       83195000	      8318	00000000	00000013	addi	x0,x0,0	  x0:0x00000000
       83205000	      8319	80001cf0	00000013	addi	x0,x0,0	  x0:0x00000000
       83215000	      8320	80001cf4	54f55f97	auipc	x31,0x54f55	 x31=0xd4f56cf0
       83225000	      8321	80001cf8	05b39463	bne	x7,x27,80001d40	  x7:0x00000000 x27:0x40000000
       83235000	      8322	00000000	00000013	addi	x0,x0,0	  x0:0x00000000
       83245000	      8323	80001d3c	00000013	addi	x0,x0,0	  x0:0x00000000
       83255000	      8324	80001d40	01c3f1b3	and	x3,x7,x28	  x7:0x00000000 x28:0x80001a10  x3=0x00000000
       83265000	      8325	80001d44	417dd013	srai	x0,x27,0x17	 x27:0x40000000
       83275000	      8326	80001d48	dfe17913	andi	x18,x2,-514	  x2:0x00000000 x18=0x00000000
       83285000	      8327	80001d4c	41b9dfb3	sra	x31,x19,x27	 x19:0x24003000 x27:0x40000000 x31=0x24003000
       83295000	      8328	80001d50	001441b3	xor	x3,x8,x1	  x8:0x00000001  x1:0x00000000  x3=0x00000001
       83305000	      8329	80001d54	74908893	addi	x17,x1,1865	  x1:0x00000000 x17=0x00000749
       83315000	      8330	80001d58	00b83133	sltu	x2,x16,x11	 x16:0x00000001 x11:0xffffffff  x2=0x00000001
       83325000	      8331	80001d5c	018c55b3	srl	x11,x24,x24	 x24:0x80009c02 x24:0x80009c02 x11=0x20002700
       83335000	      8332	80001d60	03954893	xori	x17,x10,57	 x10:0x80009f24 x17=0x80009f1d
       83345000	      8333	80001d64	00000013	addi	x0,x0,0	  x0:0x00000000
       83355000	      8334	80001d68	000129b3	slt	x19,x2,x0	  x2:0x00000001  x0:0x00000000 x19=0x00000000
       83365000	      8335	80001d6c	00000013	addi	x0,x0,0	  x0:0x00000000
       83375000	      8336	80001d70	41540f33	sub	x30,x8,x21	  x8:0x00000001 x21:0xfffff8c2 x30=0x0000073f
       83385000	      8337	80001d74	0240f463	bgeu	x1,x4,80001d9c	  x1:0x00000000  x4:0x00000001
       83395000	      8338	80001d78	007728b3	slt	x17,x14,x7	 x14:0x00008000  x7:0x00000000 x17=0x00000000
       83405000	      8339	80001d7c	e1464013	xori	x0,x12,-492	 x12:0x00000000
       83415000	      8340	80001d80	036d8e63	beq	x27,x22,80001dbc	 x27:0x40000000 x22:0x00000001
       83425000	      8341	80001d84	000104b3	add	x9,x2,x0	  x2:0x00000001  x0:0x00000000  x9=0x00000001
       83435000	      8342	80001d88	010edf33	srl	x30,x29,x16	 x29:0x000003d0 x16:0x00000001 x30=0x000001e8
       83445000	      8343	80001d8c	3c90dd97	auipc	x27,0x3c90d	 x27=0xbc90ed88
       83455000	      8344	80001d90	4153d813	srai	x16,x7,0x15	  x7:0x00000000 x16=0x00000000
       83465000	      8345	80001d94	825cc193	xori	x3,x25,-2011	 x25:0x00000000  x3=0xfffff825
       83475000	      8346	80001d98	00647c63	bgeu	x8,x6,80001db0	  x8:0x00000001  x6:0x80009fc4
       83485000	      8347	80001d9c	025f7263	bgeu	x30,x5,80001dc0	 x30:0x000001e8  x5:0x09f25000
       83495000	      8348	80001da0	05906263	bltu	x0,x25,80001de4	  x0:0x00000000 x25:0x00000000
       83505000	      8349	80001da4	41f78c33	sub	x24,x15,x31	 x15:0x80001a10 x31:0x24003000 x24=0x5bffea10
       83515000	      8350	80001da8	00659493	slli	x9,x11,0x6	 x11:0x20002700  x9=0x0009c000
       83525000	      8351	80001dac	7b170493	addi	x9,x14,1969	 x14:0x00008000  x9=0x000087b1
       83535000	      8352	80001db0	00406db3	or	x27,x0,x4	  x0:0x00000000  x4:0x00000001 x27=0x00000001
       83545000	      8353	80001db4	401d0633	sub	x12,x26,x1	 x26:0x00000001  x1:0x00000000 x12=0x00000001
       83555000	      8354	80001db8	00473bb3	sltu	x23,x14,x4	 x14:0x00008000  x4:0x00000001 x23=0x00000000
       83565000	      8355	80001dbc	0010f463	bgeu	x1,x1,80001dc4	  x1:0x00000000  x1:0x00000000
       83575000	      8356	00000000	00000013	addi	x0,x0,0	  x0:0x00000000
       83585000	      8357	80001dc0	00000013	addi	x0,x0,0	  x0:0x00000000
       83595000	      8358	80001dc4	0149afb3	slt	x31,x19,x20	 x19:0x00000000 x20:0x00000001 x31=0x00000001
       83605000	      8359	80001dc8	40205d93	srai	x27,x0,0x2	  x0:0x00000000 x27=0x00000000
       83615000	      8360	80001dcc	03d40863	beq	x8,x29,80001dfc	  x8:0x00000001 x29:0x000003d0
       83625000	      8361	80001dd0	00261fb3	sll	x31,x12,x2	 x12:0x00000001  x2:0x00000001 x31=0x00000002
       83635000	      8362	80001dd4	04bb9663	bne	x23,x11,80001e20	 x23:0x00000000 x11:0x20002700
       83645000	      8363	00000000	00000013	addi	x0,x0,0	  x0:0x00000000
       83655000	      8364	80001e1c	00000013	addi	x0,x0,0	  x0:0x00000000
       83665000	      8365	80001e20	00f68e33	add	x28,x13,x15	 x13:0x3e6eded7 x15:0x80001a10 x28=0xbe6ef8e7
       83675000	      8366	80001e24	9569af13	slti	x30,x19,-1706	 x19:0x00000000 x30=0x00000000
       83685000	      8367	80001e28	00d974b3	and	x9,x18,x13	 x18:0x00000000 x13:0x3e6eded7  x9=0x00000000
       83695000	      8368	80001e2c	04ff7663	bgeu	x30,x15,80001e78	 x30:0x00000000 x15:0x80001a10
       83705000	      8369	80001e30	41d157b3	sra	x15,x2,x29	  x2:0x00000001 x29:0x000003d0 x15=0x00000000
       83715000	      8370	80001e34	41b3d733	sra	x14,x7,x27	  x7:0x00000000 x27:0x00000000 x14=0x00000000
       83725000	      8371	80001e38	033b0e63	beq	x22,x19,80001e74	 x22:0x00000001 x19:0x00000000
       83735000	      8372	80001e3c	01b15b13	srli	x22,x2,0x1b	  x2:0x00000001 x22=0x00000000
       83745000	      8373	80001e40	59df7b13	andi	x22,x30,1437	 x30:0x00000000 x22=0x00000000
       83755000	      8374	80001e44	35068c13	addi	x24,x13,848	 x13:0x3e6eded7 x24=0x3e6ee227
       83765000	      8375	80001e48	8f2cb593	sltiu	x11,x25,-1806	 x25:0x00000000 x11=0x00000001
       83775000	      8376	80001e4c	3d55fe13	andi	x28,x11,981	 x11:0x00000001 x28=0x00000001
       83785000	      8377	80001e50	00418ab3	add	x21,x3,x4	  x3:0xfffff825  x4:0x00000001 x21=0xfffff826
       83795000	      8378	80001e54	26babb13	sltiu	x22,x21,619	 x21:0xfffff826 x22=0x00000000
       83805000	      8379	80001e58	40128733	sub	x14,x5,x1	  x5:0x09f25000  x1:0x00000000 x14=0x09f25000
       83815000	      8380	80001e5c	8d4c80b7	lui	x1,0x8d4c8	  x1=0x8d4c8000
       83825000	      8381	80001e60	01be0863	beq	x28,x27,80001e70	 x28:0x00000001 x27:0x00000000
       83835000	      8382	80001e64	01ff9593	slli	x11,x31,0x1f	 x31:0x00000002 x11=0x00000000
       83845000	      8383	80001e68	ed17b193	sltiu	x3,x15,-303	 x15:0x00000000  x3=0x00000001
       83855000	      8384	80001e6c	1249e893	ori	x17,x19,292	 x19:0x00000000 x17=0x00000124
       83865000	      8385	80001e70	017cf263	bgeu	x25,x23,80001e74	 x25:0x00000000 x23:0x00000000
       83875000	      8386	00000000	00000013	addi	x0,x0,0	  x0:0x00000000
       83885000	      8387	80001e70	00000013	addi	x0,x0,0	  x0:0x00000000
       83895000	      8388	80001e74	4042d5b3	sra	x11,x5,x4	  x5:0x09f25000  x4:0x00000001 x11=0x04f92800
       83905000	      8389	80001e78	01cfdb13	srli	x22,x31,0x1c	 x31:0x00000002 x22=0x00000000
       83915000	      8390	80001e7c	08e80c63	beq	x16,x14,80001f14	 x16:0x00000000 x14:0x09f25000
       83925000	      8391	80001e80	01293033	sltu	x0,x18,x18	 x18:0x00000000 x18:0x00000000
       83935000	      8392	80001e84	06db6a63	bltu	x22,x13,80001ef8	 x22:0x00000000 x13:0x3e6eded7
       83945000	      8393	00000000	00000013	addi	x0,x0,0	  x0:0x00000000
       83955000	      8394	80001ef4	00000013	addi	x0,x0,0	  x0:0x00000000
       83965000	      8395	80001ef8	0155d113	srli	x2,x11,0x15	 x11:0x04f92800  x2=0x00000027
       83975000	      8396	80001efc	40ba81b3	sub	x3,x21,x11	 x21:0xfffff826 x11:0x04f92800  x3=0xfb06d026
       83985000	      8397	80001f00	97986c93	ori	x25,x16,-1671	 x16:0x00000000 x25=0xfffff979
       83995000	      8398	80001f04	005f5733	srl	x14,x30,x5	 x30:0x00000000  x5:0x09f25000 x14=0x00000000
       84005000	      8399	80001f08	00645913	srli	x18,x8,0x6	  x8:0x00000001 x18=0x00000000
       84015000	      8400	80001f0c	dfd93093	sltiu	x1,x18,-515	 x18:0x00000000  x1=0x00000001
       84025000	      8401	80001f10	40618833	sub	x16,x3,x6	  x3:0xfb06d026  x6:0x80009fc4 x16=0x7b063062
       84035000	      8402	80001f14	01428c63	beq	x5,x20,80001f2c	  x5:0x09f25000 x20:0x00000001
       84045000	      8403	80001f18	410c0fb3	sub	x31,x24,x16	 x24:0x3e6ee227 x16:0x7b063062 x31=0xc368b1c5
       84055000	      8404	80001f1c	0067fc63	bgeu	x15,x6,80001f34	 x15:0x00000000  x6:0x80009fc4
       84065000	      8405	80001f20	04bb9263	bne	x23,x11,80001f64	 x23:0x00000000 x11:0x04f92800
       84075000	      8406	00000000	00000013	addi	x0,x0,0	  x0:0x00000000
       84085000	      8407	80001f60	00000013	addi	x0,x0,0	  x0:0x00000000
       84095000	      8408	80001f64	00865413	srli	x8,x12,0x8	 x12:0x00000001  x8=0x00000000
       84105000	      8409	80001f68	b4752713	slti	x14,x10,-1209	 x10:0x80009f24 x14=0x00000001
       84115000	      8410	80001f6c	01291ab3	sll	x21,x18,x18	 x18:0x00000000 x18:0x00000000 x21=0x00000000
       84125000	      8411	80001f70	44f5a813	slti	x16,x11,1103	 x11:0x04f92800 x16=0x00000000
       84135000	      8412	80001f74	00824cb3	xor	x25,x4,x8	  x4:0x00000001  x8:0x00000000 x25=0x00000001
       84145000	      8413	80001f78	411f5c93	srai	x25,x30,0x11	 x30:0x00000000 x25=0x00000000
       84155000	      8414	80001f7c	e7ba1b37	lui	x22,0xe7ba1	 x22=0xe7ba1000
       84165000	      8415	80001f80	02625063	bge	x4,x6,80001fa0	  x4:0x00000001  x6:0x80009fc4
       84175000	      8416	00000000	00000013	addi	x0,x0,0	  x0:0x00000000
       84185000	      8417	80001f9c	00000013	addi	x0,x0,0	  x0:0x00000000
       84195000	      8418	80001fa0	cf99a117	auipc	x2,0xcf99a	  x2=0x4f99bf9c
       84205000	      8419	80001fa4	d8aa0637	lui	x12,0xd8aa0	 x12=0xd8aa0000
       84215000	      8420	80001fa8	d102e413	ori	x8,x5,-752	  x5:0x09f25000  x8=0xfffffd10
       84225000	      8421	80001fac	0073b633	sltu	x12,x7,x7	  x7:0x00000000  x7:0x00000000 x12=0x00000000
       84235000	      8422	80001fb0	05995663	bge	x18,x25,80001ffc	 x18:0x00000000 x25:0x00000000
       84245000	      8423	00000000	00000013	addi	x0,x0,0	  x0:0x00000000
       84255000	      8424	80001ff8	00000013	addi	x0,x0,0	  x0:0x00000000
       84265000	      8425	80001ffc	0306e463	bltu	x13,x16,80002024	 x13:0x3e6eded7 x16:0x00000000
       84275000	      8426	80002000	a3c50913	addi	x18,x10,-1476	 x10:0x80009f24 x18=0x80009960
       84285000	      8427	80002004	00f76863	bltu	x14,x15,80002014	 x14:0x00000001 x15:0x00000000
       84295000	      8428	80002008	00334733	xor	x14,x6,x3	  x6:0x80009fc4  x3:0xfb06d026 x14=0x7b064fe2
       84305000	      8429	8000200c	0496f463	bgeu	x13,x9,80002054	 x13:0x3e6eded7  x9:0x00000000
       84315000	      8430	00000000	00000013	addi	x0,x0,0	  x0:0x00000000
       84325000	      8431	80002050	00000013	addi	x0,x0,0	  x0:0x00000000
       84335000	      8432	80002054	028f1263	bne	x30,x8,80002078	 x30:0x00000000  x8:0xfffffd10
       84345000	      8433	00000000	00000013	addi	x0,x0,0	  x0:0x00000000
       84355000	      8434	80002074	00000013	addi	x0,x0,0	  x0:0x00000000
       84365000	      8435	80002078	018c9593	slli	x11,x25,0x18	 x25:0x00000000 x11=0x00000000
       84375000	      8436	8000207c	0082a3b3	slt	x7,x5,x8	  x5:0x09f25000  x8:0xfffffd10  x7=0x00000000
       84385000	      8437	80002080	c19e6593	ori	x11,x28,-999	 x28:0x00000001 x11=0xfffffc19
       84395000	      8438	80002084	41680bb3	sub	x23,x16,x22	 x16:0x00000000 x22:0xe7ba1000 x23=0x1845f000
       84405000	      8439	80002088	40a25e13	srai	x28,x4,0xa	  x4:0x00000001 x28=0x00000000
       84415000	      8440	8000208c	01eb9633	sll	x12,x23,x30	 x23:0x1845f000 x30:0x00000000 x12=0x1845f000
       84425000	      8441	80002090	27749217	auipc	x4,0x27749	  x4=0xa774b08c
       84435000	      8442	80002094	4009d713	srai	x14,x19,0x0	 x19:0x00000000 x14=0x00000000
       84445000	      8443	80002098	31712993	slti	x19,x2,791	  x2:0x4f99bf9c x19=0x00000000
       84455000	      8444	8000209c	40588133	sub	x2,x17,x5	 x17:0x00000124  x5:0x09f25000  x2=0xf60db124
       84465000	      8445	800020a0	01981293	slli	x5,x16,0x19	 x16:0x00000000  x5=0x00000000
       84475000	      8446	800020a4	e574f113	andi	x2,x9,-425	  x9:0x00000000  x2=0x00000000
       84485000	      8447	800020a8	00c29713	slli	x14,x5,0xc	  x5:0x00000000 x14=0x00000000
       84495000	      8448	800020ac	00113a33	sltu	x20,x2,x1	  x2:0x00000000  x1:0x00000001 x20=0x00000001
       84505000	      8449	800020b0	017bacb3	slt	x25,x23,x23	 x23:0x1845f000 x23:0x1845f000 x25=0x00000000
       84515000	      8450	800020b4	00399c13	slli	x24,x19,0x3	 x19:0x00000000 x24=0x00000000
       84525000	      8451	800020b8	014b4633	xor	x12,x22,x20	 x22:0xe7ba1000 x20:0x00000001 x12=0xe7ba1001
       84535000	      8452	800020bc	00ac4b33	xor	x22,x24,x10	 x24:0x00000000 x10:0x80009f24 x22=0x80009f24
       84545000	      8453	800020c0	6385af17	auipc	x30,0x6385a	 x30=0xe385c0bc
       84555000	      8454	800020c4	02318063	beq	x3,x3,800020e4	  x3:0xfb06d026  x3:0xfb06d026
       84565000	      8455	00000000	00000013	addi	x0,x0,0	  x0:0x00000000
       84575000	      8456	800020e0	00000013	addi	x0,x0,0	  x0:0x00000000
       84585000	      8457	800020e4	01b1da33	srl	x20,x3,x27	  x3:0xfb06d026 x27:0x00000000 x20=0xfb06d026
       84595000	      8458	800020e8	8b299137	lui	x2,0x8b299	  x2=0x8b299000
       84605000	      8459	800020ec	02828a63	beq	x5,x8,80002120	  x5:0x00000000  x8:0xfffffd10
       84615000	      8460	800020f0	00070c63	beq	x14,x0,80002108	 x14:0x00000000  x0:0x00000000
       84625000	      8461	00000000	00000013	addi	x0,x0,0	  x0:0x00000000
       84635000	      8462	80002104	00000013	addi	x0,x0,0	  x0:0x00000000
       84645000	      8463	80002108	001b4863	blt	x22,x1,80002118	 x22:0x80009f24  x1:0x00000001
       84655000	      8464	00000000	00000013	addi	x0,x0,0	  x0:0x00000000
       84665000	      8465	80002114	00000013	addi	x0,x0,0	  x0:0x00000000
       84675000	      8466	80002118	0061d113	srli	x2,x3,0x6	  x3:0xfb06d026  x2=0x03ec1b40
       84685000	      8467	8000211c	00362433	slt	x8,x12,x3	 x12:0xe7ba1001  x3:0xfb06d026  x8=0x00000001
       84695000	      8468	80002120	01925f33	srl	x30,x4,x25	  x4:0xa774b08c x25:0x00000000 x30=0xa774b08c
       84705000	      8469	80002124	0191a633	slt	x12,x3,x25	  x3:0xfb06d026 x25:0x00000000 x12=0x00000001
       84715000	      8470	80002128	01a09933	sll	x18,x1,x26	  x1:0x00000001 x26:0x00000001 x18=0x00000002
       84725000	      8471	8000212c	00b604b3	add	x9,x12,x11	 x12:0x00000001 x11:0xfffffc19  x9=0xfffffc1a
       84735000	      8472	80002130	077d1fb7	lui	x31,0x77d1	 x31=0x077d1000
       84745000	      8473	80002134	007ef933	and	x18,x29,x7	 x29:0x000003d0  x7:0x00000000 x18=0x00000000
       84755000	      8474	80002138	0067ff33	and	x30,x15,x6	 x15:0x00000000  x6:0x80009fc4 x30=0x00000000
       84765000	      8475	8000213c	41f35433	sra	x8,x6,x31	  x6:0x80009fc4 x31:0x077d1000  x8=0x80009fc4
       84775000	      8476	80002140	0580e663	bltu	x1,x24,8000218c	  x1:0x00000001 x24:0x00000000
       84785000	      8477	80002144	00000013	addi	x0,x0,0	  x0:0x00000000
       84795000	      8478	80002148	01179bb3	sll	x23,x15,x17	 x15:0x00000000 x17:0x00000124 x23=0x00000000
       84805000	      8479	8000214c	0145d633	srl	x12,x11,x20	 x11:0xfffffc19 x20:0xfb06d026 x12=0x03fffff0
       84815000	      8480	80002150	01bd8b33	add	x22,x27,x27	 x27:0x00000000 x27:0x00000000 x22=0x00000000
       84825000	      8481	80002154	40775f13	srai	x30,x14,0x7	 x14:0x00000000 x30=0x00000000
       84835000	      8482	80002158	00000013	addi	x0,x0,0	  x0:0x00000000
       84845000	      8483	8000215c	00c99013	slli	x0,x19,0xc	 x19:0x00000000
       84855000	      8484	80002160	3064ab93	slti	x23,x9,774	  x9:0xfffffc1a x23=0x00000001
       84865000	      8485	80002164	9cc26f97	auipc	x31,0x9cc26	 x31=0x1cc28160
       84875000	      8486	80002168	05d0d863	bge	x1,x29,800021b8	  x1:0x00000001 x29:0x000003d0
       84885000	      8487	8000216c	02518c63	beq	x3,x5,800021a4	  x3:0xfb06d026  x5:0x00000000
       84895000	      8488	80002170	f5224413	xori	x8,x4,-174	  x4:0xa774b08c  x8=0x588b4fde
       84905000	      8489	80002174	016fe7b3	or	x15,x31,x22	 x31:0x1cc28160 x22:0x00000000 x15=0x1cc28160
       84915000	      8490	80002178	402dd433	sra	x8,x27,x2	 x27:0x00000000  x2:0x03ec1b40  x8=0x00000000
       84925000	      8491	8000217c	fcc6fd93	andi	x27,x13,-52	 x13:0x3e6eded7 x27=0x3e6edec4
       84935000	      8492	80002180	2a5de193	ori	x3,x27,677	 x27:0x3e6edec4  x3=0x3e6edee5
       84945000	      8493	80002184	00799a63	bne	x19,x7,80002198	 x19:0x00000000  x7:0x00000000
       84955000	      8494	80002188	412ad093	srai	x1,x21,0x12	 x21:0x00000000  x1=0x00000000
       84965000	      8495	8000218c	c33303b7	lui	x7,0xc3330	  x7=0xc3330000
       84975000	      8496	80002190	5e6f94b7	lui	x9,0x5e6f9	  x9=0x5e6f9000
       84985000	      8497	80002194	0164dbb3	srl	x23,x9,x22	  x9:0x5e6f9000 x22:0x00000000 x23=0x5e6f9000
       84995000	      8498	80002198	019502b3	add	x5,x10,x25	 x10:0x80009f24 x25:0x00000000  x5=0x80009f24
       85005000	      8499	8000219c	4111db13	srai	x22,x3,0x11	  x3:0x3e6edee5 x22=0x00001f37
       85015000	      8500	800021a0	40718f33	sub	x30,x3,x7	  x3:0x3e6edee5  x7:0xc3330000 x30=0x7b3bdee5
       85025000	      8501	800021a4	01e35cb3	srl	x25,x6,x30	  x6:0x80009fc4 x30:0x7b3bdee5 x25=0x040004fe
       85035000	      8502	800021a8	bb4df093	andi	x1,x27,-1100	 x27:0x3e6edec4  x1=0x3e6eda84
       85045000	      8503	800021ac	01ccf263	bgeu	x25,x28,800021b0	 x25:0x040004fe x28:0x00000000
       85055000	      8504	00000000	00000013	addi	x0,x0,0	  x0:0x00000000
       85065000	      8505	800021ac	00000013	addi	x0,x0,0	  x0:0x00000000
       85075000	      8506	800021b0	001b5c13	srli	x24,x22,0x1	 x22:0x00001f37 x24=0x00000f9b
       85085000	      8507	800021b4	a73a2893	slti	x17,x20,-1421	 x20:0xfb06d026 x17=0x00000001
       85095000	      8508	800021b8	40815a13	srai	x20,x2,0x8	  x2:0x03ec1b40 x20=0x0003ec1b
       85105000	      8509	800021bc	419bdab3	sra	x21,x23,x25	 x23:0x5e6f9000 x25:0x040004fe x21=0x00000001
       85115000	      8510	800021c0	01d367b3	or	x15,x6,x29	  x6:0x80009fc4 x29:0x000003d0 x15=0x80009fd4
       85125000	      8511	800021c4	40290233	sub	x4,x18,x2	 x18:0x00000000  x2:0x03ec1b40  x4=0xfc13e4c0
       85135000	      8512	800021c8	054bf063	bgeu	x23,x20,80002208	 x23:0x5e6f9000 x20:0x0003ec1b
       85145000	      8513	00000000	00000013	addi	x0,x0,0	  x0:0x00000000
       85155000	      8514	80002204	00000013	addi	x0,x0,0	  x0:0x00000000
       85165000	      8515	80002208	00000013	addi	x0,x0,0	  x0:0x00000000
       85175000	      8516	8000220c	00c09493	slli	x9,x1,0xc	  x1:0x3e6eda84  x9=0xeda84000
       85185000	      8517	80002210	416f5cb3	sra	x25,x30,x22	 x30:0x7b3bdee5 x22:0x00001f37 x25=0x000000f6
       85195000	      8518	80002214	18254d93	xori	x27,x10,386	 x10:0x80009f24 x27=0x80009ea6
       85205000	      8519	80002218	010c5463	bge	x24,x16,80002220	 x24:0x00000f9b x16:0x00000000
       85215000	      8520	00000000	00000013	addi	x0,x0,0	  x0:0x00000000
       85225000	      8521	8000221c	00000013	addi	x0,x0,0	  x0:0x00000000
       85235000	      8522	80002220	01ecee63	bltu	x25,x30,8000223c	 x25:0x000000f6 x30:0x7b3bdee5
       85245000	      8523	00000000	00000013	addi	x0,x0,0	  x0:0x00000000
       85255000	      8524	80002238	00000013	addi	x0,x0,0	  x0:0x00000000
       85265000	      8525	8000223c	22b1f493	andi	x9,x3,555	  x3:0x3e6edee5  x9=0x00000221
       85275000	      8526	80002240	01f704b3	add	x9,x14,x31	 x14:0x00000000 x31:0x1cc28160  x9=0x1cc28160
       85285000	      8527	80002244	019a7863	bgeu	x20,x25,80002254	 x20:0x0003ec1b x25:0x000000f6
       85295000	      8528	00000000	00000013	addi	x0,x0,0	  x0:0x00000000
       85305000	      8529	80002250	00000013	addi	x0,x0,0	  x0:0x00000000
       85315000	      8530	80002254	9fed4137	lui	x2,0x9fed4	  x2=0x9fed4000
       85325000	      8531	80002258	000ddcb3	srl	x25,x27,x0	 x27:0x80009ea6  x0:0x00000000 x25=0x80009ea6
       85335000	      8532	8000225c	008d1113	slli	x2,x26,0x8	 x26:0x00000001  x2=0x00000100
       85345000	      8533	80002260	01795b33	srl	x22,x18,x23	 x18:0x00000000 x23:0x5e6f9000 x22=0x00000000
       85355000	      8534	80002264	01064eb3	xor	x29,x12,x16	 x12:0x03fffff0 x16:0x00000000 x29=0x03fffff0
       85365000	      8535	80002268	a08e11b7	lui	x3,0xa08e1	  x3=0xa08e1000
       85375000	      8536	8000226c	01e31b93	slli	x23,x6,0x1e	  x6:0x80009fc4 x23=0x00000000
       85385000	      8537	80002270	408dd793	srai	x15,x27,0x8	 x27:0x80009ea6 x15=0xff80009e
       85395000	      8538	80002274	53f93c93	sltiu	x25,x18,1343	 x18:0x00000000 x25=0x00000001
       85405000	      8539	80002278	0030d493	srli	x9,x1,0x3	  x1:0x3e6eda84  x9=0x07cddb50
       85415000	      8540	8000227c	0157fab3	and	x21,x15,x21	 x15:0xff80009e x21:0x00000001 x21=0x00000000
       85425000	      8541	80002280	c98b2493	slti	x9,x22,-872	 x22:0x00000000  x9=0x00000000
       85435000	      8542	80002284	00100933	add	x18,x0,x1	  x0:0x00000000  x1:0x3e6eda84 x18=0x3e6eda84
       85445000	      8543	80002288	35e2fd93	andi	x27,x5,862	  x5:0x80009f24 x27=0x00000304
       85455000	      8544	8000228c	015f2eb3	slt	x29,x30,x21	 x30:0x7b3bdee5 x21:0x00000000 x29=0x00000000
       85465000	      8545	80002290	3b538593	addi	x11,x7,949	  x7:0xc3330000 x11=0xc33303b5
       85475000	      8546	80002294	d30bac93	slti	x25,x23,-720	 x23:0x00000000 x25=0x00000000
       85485000	      8547	80002298	8f8d2b93	slti	x23,x26,-1800	 x26:0x00000001 x23=0x00000000
       85495000	      8548	8000229c	0083b033	sltu	x0,x7,x8	  x7:0xc3330000  x8:0x00000000
       85505000	      8549	800022a0	00a09db3	sll	x27,x1,x10	  x1:0x3e6eda84 x10:0x80009f24 x27=0xe6eda840
       85515000	      8550	800022a4	01971833	sll	x16,x14,x25	 x14:0x00000000 x25:0x00000000 x16=0x00000000
       85525000	      8551	800022a8	009b6263	bltu	x22,x9,800022ac	 x22:0x00000000  x9:0x00000000
       85535000	      8552	800022ac	051c5463	bge	x24,x17,800022f4	 x24:0x00000f9b x17:0x00000001
       85545000	      8553	00000000	00000013	addi	x0,x0,0	  x0:0x00000000
       85555000	      8554	800022f0	00000013	addi	x0,x0,0	  x0:0x00000000
       85565000	      8555	800022f4	0182c1b3	xor	x3,x5,x24	  x5:0x80009f24 x24:0x00000f9b  x3=0x800090bf
       85575000	      8556	800022f8	41f38433	sub	x8,x7,x31	  x7:0xc3330000 x31:0x1cc28160  x8=0xa6707ea0
       85585000	      8557	800022fc	0043c263	blt	x7,x4,80002300	  x7:0xc3330000  x4:0xfc13e4c0
       85595000	      8558	00000000	00000013	addi	x0,x0,0	  x0:0x00000000
       85605000	      8559	800022fc	00000013	addi	x0,x0,0	  x0:0x00000000
       85615000	      8560	80002300	00112ab3	slt	x21,x2,x1	  x2:0x00000100  x1:0x3e6eda84 x21=0x00000001
       85625000	      8561	80002304	b3180113	addi	x2,x16,-1231	 x16:0x00000000  x2=0xfffffb31
       85635000	      8562	80002308	942db393	sltiu	x7,x27,-1726	 x27:0xe6eda840  x7=0x00000001
       85645000	      8563	8000230c	00fa7033	and	x0,x20,x15	 x20:0x0003ec1b x15:0xff80009e
       85655000	      8564	80002310	013feeb3	or	x29,x31,x19	 x31:0x1cc28160 x19:0x00000000 x29=0x1cc28160
       85665000	      8565	80002314	01d09733	sll	x14,x1,x29	  x1:0x3e6eda84 x29:0x1cc28160 x14=0x3e6eda84
       85675000	      8566	80002318	03aa5e63	bge	x20,x26,80002354	 x20:0x0003ec1b x26:0x00000001
       85685000	      8567	00000000	00000013	addi	x0,x0,0	  x0:0x00000000
       85695000	      8568	80002350	00000013	addi	x0,x0,0	  x0:0x00000000
       85705000	      8569	80002354	0139ff33	and	x30,x19,x19	 x19:0x00000000 x19:0x00000000 x30=0x00000000
       85715000	      8570	80002358	400cde33	sra	x28,x25,x0	 x25:0x00000000  x0:0x00000000 x28=0x00000000
       85725000	      8571	8000235c	012ed213	srli	x4,x29,0x12	 x29:0x1cc28160  x4=0x00000730
       85735000	      8572	80002360	046c0663	beq	x24,x6,800023ac	 x24:0x00000f9b  x6:0x80009fc4
       85745000	      8573	80002364	03dcf063	bgeu	x25,x29,80002384	 x25:0x00000000 x29:0x1cc28160
       85755000	      8574	80002368	033e8263	beq	x29,x19,8000238c	 x29:0x1cc28160 x19:0x00000000
       85765000	      8575	8000236c	01be7033	and	x0,x28,x27	 x28:0x00000000 x27:0xe6eda840
       85775000	      8576	80002370	031c0063	beq	x24,x17,80002390	 x24:0x00000f9b x17:0x00000001
       85785000	      8577	80002374	0194d233	srl	x4,x9,x25	  x9:0x00000000 x25:0x00000000  x4=0x00000000
       85795000	      8578	80002378	01d65b93	srli	x23,x12,0x1d	 x12:0x03fffff0 x23=0x00000000
       85805000	      8579	8000237c	00037863	bgeu	x6,x0,8000238c	  x6:0x80009fc4  x0:0x00000000
       85815000	      8580	00000000	00000013	addi	x0,x0,0	  x0:0x00000000
       85825000	      8581	80002388	00000013	addi	x0,x0,0	  x0:0x00000000
       85835000	      8582	8000238c	4cfb3013	sltiu	x0,x22,1231	 x22:0x00000000
       85845000	      8583	80002390	02c3ee63	bltu	x7,x12,800023cc	  x7:0x00000001 x12:0x03fffff0
       85855000	      8584	00000000	00000013	addi	x0,x0,0	  x0:0x00000000
       85865000	      8585	800023c8	00000013	addi	x0,x0,0	  x0:0x00000000
       85875000	      8586	800023cc	00fad633	srl	x12,x21,x15	 x21:0x00000001 x15:0xff80009e x12=0x00000000
       85885000	      8587	800023d0	00679113	slli	x2,x15,0x6	 x15:0xff80009e  x2=0xe0002780
       85895000	      8588	800023d4	000f8733	add	x14,x31,x0	 x31:0x1cc28160  x0:0x00000000 x14=0x1cc28160
       85905000	      8589	800023d8	0a7a9663	bne	x21,x7,80002484	 x21:0x00000001  x7:0x00000001
       85915000	      8590	800023dc	40b9dcb3	sra	x25,x19,x11	 x19:0x00000000 x11:0xc33303b5 x25=0x00000000
       85925000	      8591	800023e0	0b641863	bne	x8,x22,80002490	  x8:0xa6707ea0 x22:0x00000000
       85935000	      8592	00000000	00000013	addi	x0,x0,0	  x0:0x00000000
       85945000	      8593	8000248c	00000013	addi	x0,x0,0	  x0:0x00000000
       85955000	      8594	80002490	40930e33	sub	x28,x6,x9	  x6:0x80009fc4  x9:0x00000000 x28=0x80009fc4
       85965000	      8595	80002494	000b1813	slli	x16,x22,0x0	 x22:0x00000000 x16=0x00000000
       85975000	      8596	80002498	007f42b3	xor	x5,x30,x7	 x30:0x00000000  x7:0x00000001  x5=0x00000001
       85985000	      8597	8000249c	01196d33	or	x26,x18,x17	 x18:0x3e6eda84 x17:0x00000001 x26=0x3e6eda85
       85995000	      8598	800024a0	030a0063	beq	x20,x16,800024c0	 x20:0x0003ec1b x16:0x00000000
       86005000	      8599	800024a4	64953413	sltiu	x8,x10,1609	 x10:0x80009f24  x8=0x00000000
       86015000	      8600	800024a8	035cc863	blt	x25,x21,800024d8	 x25:0x00000000 x21:0x00000001
       86025000	      8601	00000000	00000013	addi	x0,x0,0	  x0:0x00000000
       86035000	      8602	800024d4	00000013	addi	x0,x0,0	  x0:0x00000000
       86045000	      8603	800024d8	025edc63	bge	x29,x5,80002510	 x29:0x1cc28160  x5:0x00000001
       86055000	      8604	00000000	00000013	addi	x0,x0,0	  x0:0x00000000
       86065000	      8605	8000250c	00000013	addi	x0,x0,0	  x0:0x00000000
       86075000	      8606	80002510	00134263	blt	x6,x1,80002514	  x6:0x80009fc4  x1:0x3e6eda84
       86085000	      8607	00000000	00000013	addi	x0,x0,0	  x0:0x00000000
       86095000	      8608	80002510	00000013	addi	x0,x0,0	  x0:0x00000000
       86105000	      8609	80002514	001ff463	bgeu	x31,x1,8000251c	 x31:0x1cc28160  x1:0x3e6eda84
       86115000	      8610	80002518	03f6c463	blt	x13,x31,80002540	 x13:0x3e6eded7 x31:0x1cc28160
       86125000	      8611	8000251c	8f297c13	andi	x24,x18,-1806	 x18:0x3e6eda84 x24=0x3e6ed880
       86135000	      8612	80002520	48398613	addi	x12,x19,1155	 x19:0x00000000 x12=0x00000483
       86145000	      8613	80002524	0120ee33	or	x28,x1,x18	  x1:0x3e6eda84 x18:0x3e6eda84 x28=0x3e6eda84
       86155000	      8614	80002528	01f28833	add	x16,x5,x31	  x5:0x00000001 x31:0x1cc28160 x16=0x1cc28161
       86165000	      8615	8000252c	00986fb3	or	x31,x16,x9	 x16:0x1cc28161  x9:0x00000000 x31=0x1cc28161
       86175000	      8616	80002530	01807ab3	and	x21,x0,x24	  x0:0x00000000 x24:0x3e6ed880 x21=0x00000000
       86185000	      8617	80002534	0150e1b3	or	x3,x1,x21	  x1:0x3e6eda84 x21:0x00000000  x3=0x3e6eda84
       86195000	      8618	80002538	04b85463	bge	x16,x11,80002580	 x16:0x1cc28161 x11:0xc33303b5
       86205000	      8619	00000000	00000013	addi	x0,x0,0	  x0:0x00000000
       86215000	      8620	8000257c	00000013	addi	x0,x0,0	  x0:0x00000000
       86225000	      8621	80002580	051b8663	beq	x23,x17,800025cc	 x23:0x00000000 x17:0x00000001
       86235000	      8622	80002584	01e55233	srl	x4,x10,x30	 x10:0x80009f24 x30:0x00000000  x4=0x80009f24
       86245000	      8623	80002588	00000013	addi	x0,x0,0	  x0:0x00000000
       86255000	      8624	8000258c	05a2c663	blt	x5,x26,800025d8	  x5:0x00000001 x26:0x3e6eda85
       86265000	      8625	00000000	00000013	addi	x0,x0,0	  x0:0x00000000
       86275000	      8626	800025d4	00000013	addi	x0,x0,0	  x0:0x00000000
       86285000	      8627	800025d8	00e85f33	srl	x30,x16,x14	 x16:0x1cc28161 x14:0x1cc28160 x30=0x1cc28161
       86295000	      8628	800025dc	5fda7d37	lui	x26,0x5fda7	 x26=0x5fda7000
       86305000	      8629	800025e0	598ee293	ori	x5,x29,1432	 x29:0x1cc28160  x5=0x1cc285f8
       86315000	      8630	800025e4	01005863	bge	x0,x16,800025f4	  x0:0x00000000 x16:0x1cc28161
       86325000	      8631	800025e8	013740b3	xor	x1,x14,x19	 x14:0x1cc28160 x19:0x00000000  x1=0x1cc28160
       86335000	      8632	800025ec	00ca6c63	bltu	x20,x12,80002604	 x20:0x0003ec1b x12:0x00000483
       86345000	      8633	800025f0	411c5c33	sra	x24,x24,x17	 x24:0x3e6ed880 x17:0x00000001 x24=0x1f376c40
       86355000	      8634	800025f4	02394063	blt	x18,x3,80002614	 x18:0x3e6eda84  x3:0x3e6eda84
       86365000	      8635	800025f8	43d9bd13	sltiu	x26,x19,1085	 x19:0x00000000 x26=0x00000001
       86375000	      8636	800025fc	01cfd2b3	srl	x5,x31,x28	 x31:0x1cc28161 x28:0x3e6eda84  x5=0x01cc2816
       86385000	      8637	80002600	00000013	addi	x0,x0,0	  x0:0x00000000
       86395000	      8638	80002604	76d76493	ori	x9,x14,1901	 x14:0x1cc28160  x9=0x1cc2876d
       86405000	      8639	80002608	027c5263	bge	x24,x7,8000262c	 x24:0x1f376c40  x7:0x00000001
       86415000	      8640	00000000	00000013	addi	x0,x0,0	  x0:0x00000000
       86425000	      8641	80002628	00000013	addi	x0,x0,0	  x0:0x00000000
       86435000	      8642	8000262c	004e7863	bgeu	x28,x4,8000263c	 x28:0x3e6eda84  x4:0x80009f24
       86445000	      8643	80002630	000c1393	slli	x7,x24,0x0	 x24:0x1f376c40  x7=0x1f376c40
       86455000	      8644	80002634	5d074013	xori	x0,x14,1488	 x14:0x1cc28160
       86465000	      8645	80002638	04e35263	bge	x6,x14,8000267c	  x6:0x80009fc4 x14:0x1cc28160
       86475000	      8646	8000263c	00776bb3	or	x23,x14,x7	 x14:0x1cc28160  x7:0x1f376c40 x23=0x1ff7ed60
       86485000	      8647	80002640	013cbe33	sltu	x28,x25,x19	 x25:0x00000000 x19:0x00000000 x28=0x00000000
       86495000	      8648	80002644	00ccd263	bge	x25,x12,80002648	 x25:0x00000000 x12:0x00000483
       86505000	      8649	80002648	00f4d5b3	srl	x11,x9,x15	  x9:0x1cc2876d x15:0xff80009e x11=0x00000000
       86515000	      8650	8000264c	00615413	srli	x8,x2,0x6	  x2:0xe0002780  x8=0x0380009e
       86525000	      8651	80002650	019ddf93	srli	x31,x27,0x19	 x27:0xe6eda840 x31=0x00000073
       86535000	      8652	80002654	019fcfb3	xor	x31,x31,x25	 x31:0x00000073 x25:0x00000000 x31=0x00000073
       86545000	      8653	80002658	010108b3	add	x17,x2,x16	  x2:0xe0002780 x16:0x1cc28161 x17=0xfcc2a8e1
       86555000	      8654	8000265c	13dbcf13	xori	x30,x23,317	 x23:0x1ff7ed60 x30=0x1ff7ec5d
       86565000	      8655	80002660	01135e33	srl	x28,x6,x17	  x6:0x80009fc4 x17:0xfcc2a8e1 x28=0x40004fe2
       86575000	      8656	80002664	0017a5b3	slt	x11,x15,x1	 x15:0xff80009e  x1:0x1cc28160 x11=0x00000001
       86585000	      8657	80002668	400e51b3	sra	x3,x28,x0	 x28:0x40004fe2  x0:0x00000000  x3=0x40004fe2
       86595000	      8658	8000266c	bcb82613	slti	x12,x16,-1077	 x16:0x1cc28161 x12=0x00000000
       86605000	      8659	80002670	012e6633	or	x12,x28,x18	 x28:0x40004fe2 x18:0x3e6eda84 x12=0x7e6edfe6
       86615000	      8660	80002674	01f7f263	bgeu	x15,x31,80002678	 x15:0xff80009e x31:0x00000073
       86625000	      8661	00000000	00000013	addi	x0,x0,0	  x0:0x00000000
       86635000	      8662	80002674	00000013	addi	x0,x0,0	  x0:0x00000000
       86645000	      8663	80002678	4197d113	srai	x2,x15,0x19	 x15:0xff80009e  x2=0xffffffff
       86655000	      8664	8000267c	f3526c93	ori	x25,x4,-203	  x4:0x80009f24 x25=0xffffff35
       86665000	      8665	80002680	a5eec213	xori	x4,x29,-1442	 x29:0x1cc28160  x4=0xe33d7b3e
       86675000	      8666	80002684	006b4bb3	xor	x23,x22,x6	 x22:0x00000000  x6:0x80009fc4 x23=0x80009fc4
       86685000	      8667	80002688	0148c5b3	xor	x11,x17,x20	 x17:0xfcc2a8e1 x20:0x0003ec1b x11=0xfcc144fa
       86695000	      8668	8000268c	01409713	slli	x14,x1,0x14	  x1:0x1cc28160 x14=0x16000000
       86705000	      8669	80002690	9c0afc13	andi	x24,x21,-1600	 x21:0x00000000 x24=0x00000000
       86715000	      8670	80002694	04c00d6f	jal	x26,80002694	 x26=0x80002694
       86725000	      8671	00000000	00000013	addi	x0,x0,0	  x0:0x00000000
       86735000	      8672	800026dc	00000013	addi	x0,x0,0	  x0:0x00000000
       86745000	      8673	800026e0	fe1ff86f	jal	x16,800026e0	 x16=0x800026e0
       86755000	      8674	00000000	00000013	addi	x0,x0,0	  x0:0x00000000
       86765000	      8675	800026bc	00000013	addi	x0,x0,0	  x0:0x00000000
       86775000	      8676	800026c0	018000ef	jal	x1,800026c0	  x1=0x800026c0
       86785000	      8677	00000000	00000013	addi	x0,x0,0	  x0:0x00000000
       86795000	      8678	800026d4	00000013	addi	x0,x0,0	  x0:0x00000000
       86805000	      8679	800026d8	fedff0ef	jal	x1,800026d8	  x1=0x800026d8
       86815000	      8680	00000000	00000013	addi	x0,x0,0	  x0:0x00000000
       86825000	      8681	800026c0	00000013	addi	x0,x0,0	  x0:0x00000000
       86835000	      8682	800026c4	ff1ff26f	jal	x4,800026c4	  x4=0x800026c4
       86845000	      8683	00000000	00000013	addi	x0,x0,0	  x0:0x00000000
       86855000	      8684	800026b0	00000013	addi	x0,x0,0	  x0:0x00000000
       86865000	      8685	800026b4	ff9ff0ef	jal	x1,800026b4	  x1=0x800026b4
       86875000	      8686	00000000	00000013	addi	x0,x0,0	  x0:0x00000000
       86885000	      8687	800026a8	00000013	addi	x0,x0,0	  x0:0x00000000
       86895000	      8688	800026ac	0040026f	jal	x4,800026ac	  x4=0x800026ac
       86905000	      8689	00000000	00000013	addi	x0,x0,0	  x0:0x00000000
       86915000	      8690	800026ac	00000013	addi	x0,x0,0	  x0:0x00000000
       86925000	      8691	800026b0	02400bef	jal	x23,800026b0	 x23=0x800026b0
       86935000	      8692	00000000	00000013	addi	x0,x0,0	  x0:0x00000000
       86945000	      8693	800026d0	00000013	addi	x0,x0,0	  x0:0x00000000
       86955000	      8694	800026d4	ff9ff0ef	jal	x1,800026d4	  x1=0x800026d4
       86965000	      8695	00000000	00000013	addi	x0,x0,0	  x0:0x00000000
       86975000	      8696	800026c8	00000013	addi	x0,x0,0	  x0:0x00000000
       86985000	      8697	800026cc	010000ef	jal	x1,800026cc	  x1=0x800026cc
       86995000	      8698	00000000	00000013	addi	x0,x0,0	  x0:0x00000000
       87005000	      8699	800026d8	00000013	addi	x0,x0,0	  x0:0x00000000
       87015000	      8700	800026dc	fc1ff0ef	jal	x1,800026dc	  x1=0x800026dc
       87025000	      8701	00000000	00000013	addi	x0,x0,0	  x0:0x00000000
       87035000	      8702	80002698	00000013	addi	x0,x0,0	  x0:0x00000000
       87045000	      8703	8000269c	004000ef	jal	x1,8000269c	  x1=0x8000269c
       87055000	      8704	00000000	00000013	addi	x0,x0,0	  x0:0x00000000
       87065000	      8705	8000269c	00000013	addi	x0,x0,0	  x0:0x00000000
       87075000	      8706	800026a0	ff9ff0ef	jal	x1,800026a0	  x1=0x800026a0
       87085000	      8707	00000000	00000013	addi	x0,x0,0	  x0:0x00000000
       87095000	      8708	80002694	00000013	addi	x0,x0,0	  x0:0x00000000
       87105000	      8709	80002698	010000ef	jal	x1,80002698	  x1=0x80002698
       87115000	      8710	00000000	00000013	addi	x0,x0,0	  x0:0x00000000
       87125000	      8711	800026a4	00000013	addi	x0,x0,0	  x0:0x00000000
       87135000	      8712	800026a8	028004ef	jal	x9,800026a8	  x9=0x800026a8
       87145000	      8713	00000000	00000013	addi	x0,x0,0	  x0:0x00000000
       87155000	      8714	800026cc	00000013	addi	x0,x0,0	  x0:0x00000000
       87165000	      8715	800026d0	fe9ff0ef	jal	x1,800026d0	  x1=0x800026d0
       87175000	      8716	00000000	00000013	addi	x0,x0,0	  x0:0x00000000
       87185000	      8717	800026b4	00000013	addi	x0,x0,0	  x0:0x00000000
       87195000	      8718	800026b8	010000ef	jal	x1,800026b8	  x1=0x800026b8
       87205000	      8719	00000000	00000013	addi	x0,x0,0	  x0:0x00000000
       87215000	      8720	800026c4	00000013	addi	x0,x0,0	  x0:0x00000000
       87225000	      8721	800026c8	ff5ff0ef	jal	x1,800026c8	  x1=0x800026c8
       87235000	      8722	00000000	00000013	addi	x0,x0,0	  x0:0x00000000
       87245000	      8723	800026b8	00000013	addi	x0,x0,0	  x0:0x00000000
       87255000	      8724	800026bc	fe9ff0ef	jal	x1,800026bc	  x1=0x800026bc
       87265000	      8725	00000000	00000013	addi	x0,x0,0	  x0:0x00000000
       87275000	      8726	800026a0	00000013	addi	x0,x0,0	  x0:0x00000000
       87285000	      8727	800026a4	04000a6f	jal	x20,800026a4	 x20=0x800026a4
       87295000	      8728	00000000	00000013	addi	x0,x0,0	  x0:0x00000000
       87305000	      8729	800026e0	00000013	addi	x0,x0,0	  x0:0x00000000
       87315000	      8730	800026e4	00f53d33	sltu	x26,x10,x15	 x10:0x80009f24 x15:0xff80009e x26=0x00000001
       87325000	      8731	800026e8	015278b3	and	x17,x4,x21	  x4:0x800026ac x21:0x00000000 x17=0x00000000
       87335000	      8732	800026ec	b569bb93	sltiu	x23,x19,-1194	 x19:0x00000000 x23=0x00000001
       87345000	      8733	800026f0	01909713	slli	x14,x1,0x19	  x1:0x800026bc x14=0x78000000
       87355000	      8734	800026f4	00591013	slli	x0,x18,0x5	 x18:0x3e6eda84
       87365000	      8735	800026f8	04cb7863	bgeu	x22,x12,80002748	 x22:0x00000000 x12:0x7e6edfe6
       87375000	      8736	800026fc	6e6bdc97	auipc	x25,0x6e6bd	 x25=0xee6bf6f8
       87385000	      8737	80002700	0385d263	bge	x11,x24,80002724	 x11:0xfcc144fa x24:0x00000000
       87395000	      8738	80002704	40cddb13	srai	x22,x27,0xc	 x27:0xe6eda840 x22=0xfffe6eda
       87405000	      8739	80002708	01259a63	bne	x11,x18,8000271c	 x11:0xfcc144fa x18:0x3e6eda84
       87415000	      8740	00000000	00000013	addi	x0,x0,0	  x0:0x00000000
       87425000	      8741	80002718	00000013	addi	x0,x0,0	  x0:0x00000000
       87435000	      8742	8000271c	05421663	bne	x4,x20,80002768	  x4:0x800026ac x20:0x800026a4
       87445000	      8743	00000000	00000013	addi	x0,x0,0	  x0:0x00000000
       87455000	      8744	80002764	00000013	addi	x0,x0,0	  x0:0x00000000
       87465000	      8745	80002768	012f12b3	sll	x5,x30,x18	 x30:0x1ff7ec5d x18:0x3e6eda84  x5=0xff7ec5d0
       87475000	      8746	8000276c	00328e63	beq	x5,x3,80002788	  x5:0xff7ec5d0  x3:0x40004fe2
       87485000	      8747	80002770	000c0bb3	add	x23,x24,x0	 x24:0x00000000  x0:0x00000000 x23=0x00000000
       87495000	      8748	80002774	00c26fb3	or	x31,x4,x12	  x4:0x800026ac x12:0x7e6edfe6 x31=0xfe6effee
       87505000	      8749	80002778	03ef5c63	bge	x30,x30,800027b0	 x30:0x1ff7ec5d x30:0x1ff7ec5d
       87515000	      8750	00000000	00000013	addi	x0,x0,0	  x0:0x00000000
       87525000	      8751	800027ac	00000013	addi	x0,x0,0	  x0:0x00000000
       87535000	      8752	800027b0	92406113	ori	x2,x0,-1756	  x0:0x00000000  x2=0xfffff924
       87545000	      8753	800027b4	003b6b33	or	x22,x22,x3	 x22:0xfffe6eda  x3:0x40004fe2 x22=0xfffe6ffa
       87555000	      8754	800027b8	e18aba93	sltiu	x21,x21,-488	 x21:0x00000000 x21=0x00000001
       87565000	      8755	800027bc	41ead933	sra	x18,x21,x30	 x21:0x00000001 x30:0x1ff7ec5d x18=0x00000000
       87575000	      8756	800027c0	5e127a13	andi	x20,x4,1505	  x4:0x800026ac x20=0x000004a0
       87585000	      8757	800027c4	411c5f33	sra	x30,x24,x17	 x24:0x00000000 x17:0x00000000 x30=0x00000000
       87595000	      8758	800027c8	39b847b7	lui	x15,0x39b84	 x15=0x39b84000
       87605000	      8759	800027cc	018a2233	slt	x4,x20,x24	 x20:0x000004a0 x24:0x00000000  x4=0x00000000
       87615000	      8760	800027d0	40ad5813	srai	x16,x26,0xa	 x26:0x00000001 x16=0x00000000
       87625000	      8761	800027d4	02171063	bne	x14,x1,800027f4	 x14:0x78000000  x1:0x800026bc
       87635000	      8762	00000000	00000013	addi	x0,x0,0	  x0:0x00000000
       87645000	      8763	800027f0	00000013	addi	x0,x0,0	  x0:0x00000000
       87655000	      8764	800027f4	010c9293	slli	x5,x25,0x10	 x25:0xee6bf6f8  x5=0xf6f80000
       87665000	      8765	800027f8	41ca83b3	sub	x7,x21,x28	 x21:0x00000001 x28:0x40004fe2  x7=0xbfffb01f
       87675000	      8766	800027fc	005fdc93	srli	x25,x31,0x5	 x31:0xfe6effee x25=0x07f377ff
       87685000	      8767	80002800	4127dcb3	sra	x25,x15,x18	 x15:0x39b84000 x18:0x00000000 x25=0x39b84000
       87695000	      8768	80002804	0191d863	bge	x3,x25,80002814	  x3:0x40004fe2 x25:0x39b84000
       87705000	      8769	00000000	00000013	addi	x0,x0,0	  x0:0x00000000
       87715000	      8770	80002810	00000013	addi	x0,x0,0	  x0:0x00000000
       87725000	      8771	80002814	00d9e133	or	x2,x19,x13	 x19:0x00000000 x13:0x3e6eded7  x2=0x3e6eded7
       87735000	      8772	80002818	40035093	srai	x1,x6,0x0	  x6:0x80009fc4  x1=0x80009fc4
       87745000	      8773	8000281c	04f98463	beq	x19,x15,80002864	 x19:0x00000000 x15:0x39b84000
       87755000	      8774	80002820	5e69b413	sltiu	x8,x19,1510	 x19:0x00000000  x8=0x00000001
       87765000	      8775	80002824	53ac4893	xori	x17,x24,1338	 x24:0x00000000 x17=0x0000053a
       87775000	      8776	80002828	40b8d193	srai	x3,x17,0xb	 x17:0x0000053a  x3=0x00000000
       87785000	      8777	8000282c	ceb48193	addi	x3,x9,-789	  x9:0x800026a8  x3=0x80002393
       87795000	      8778	80002830	c9e2a793	slti	x15,x5,-866	  x5:0xf6f80000 x15=0x00000001
       87805000	      8779	80002834	01ae9733	sll	x14,x29,x26	 x29:0x1cc28160 x26:0x00000001 x14=0x398502c0
       87815000	      8780	80002838	02bfc263	blt	x31,x11,8000285c	 x31:0xfe6effee x11:0xfcc144fa
       87825000	      8781	8000283c	00670863	beq	x14,x6,8000284c	 x14:0x398502c0  x6:0x80009fc4
       87835000	      8782	80002840	fc564d13	xori	x26,x12,-59	 x12:0x7e6edfe6 x26=0x81912023
       87845000	      8783	80002844	011c78b3	and	x17,x24,x17	 x24:0x00000000 x17:0x0000053a x17=0x00000000
       87855000	      8784	80002848	00f96bb3	or	x23,x18,x15	 x18:0x00000000 x15:0x00000001 x23=0x00000001
       87865000	      8785	8000284c	01af8c63	beq	x31,x26,80002864	 x31:0xfe6effee x26:0x81912023
       87875000	      8786	80002850	019ac8b3	xor	x17,x21,x25	 x21:0x00000001 x25:0x39b84000 x17=0x39b84001
       87885000	      8787	80002854	f33b8c93	addi	x25,x23,-205	 x23:0x00000001 x25=0xffffff34
       87895000	      8788	80002858	0080de93	srli	x29,x1,0x8	  x1:0x80009fc4 x29=0x0080009f
       87905000	      8789	8000285c	01c86cb3	or	x25,x16,x28	 x16:0x00000000 x28:0x40004fe2 x25=0x40004fe2
       87915000	      8790	80002860	00539e13	slli	x28,x7,0x5	  x7:0xbfffb01f x28=0xfff603e0
       87925000	      8791	80002864	01500c63	beq	x0,x21,8000287c	  x0:0x00000000 x21:0x00000001
       87935000	      8792	80002868	e9c26613	ori	x12,x4,-356	  x4:0x00000000 x12=0xfffffe9c
       87945000	      8793	8000286c	00000013	addi	x0,x0,0	  x0:0x00000000
       87955000	      8794	80002870	c472bc13	sltiu	x24,x5,-953	  x5:0xf6f80000 x24=0x00000001
       87965000	      8795	80002874	00b1a4b3	slt	x9,x3,x11	  x3:0x80002393 x11:0xfcc144fa  x9=0x00000001
       87975000	      8796	80002878	c29d4193	xori	x3,x26,-983	 x26:0x81912023  x3=0x7e6edc0a
       87985000	      8797	8000287c	00d97bb3	and	x23,x18,x13	 x18:0x00000000 x13:0x3e6eded7 x23=0x00000000
       87995000	      8798	80002880	824a0813	addi	x16,x20,-2012	 x20:0x000004a0 x16=0xfffffcc4
       88005000	      8799	80002884	00b18c63	beq	x3,x11,8000289c	  x3:0x7e6edc0a x11:0xfcc144fa
       88015000	      8800	80002888	a19e4613	xori	x12,x28,-1511	 x28:0xfff603e0 x12=0x0009f9f9
       88025000	      8801	8000288c	00000013	addi	x0,x0,0	  x0:0x00000000
       88035000	      8802	80002890	018928b3	slt	x17,x18,x24	 x18:0x00000000 x24:0x00000001 x17=0x00000001
       88045000	      8803	80002894	000d4a33	xor	x20,x26,x0	 x26:0x81912023  x0:0x00000000 x20=0x81912023
       88055000	      8804	80002898	02777c63	bgeu	x14,x7,800028d0	 x14:0x398502c0  x7:0xbfffb01f
       88065000	      8805	8000289c	07fea113	slti	x2,x29,127	 x29:0x0080009f  x2=0x00000000
       88075000	      8806	800028a0	00019413	slli	x8,x3,0x0	  x3:0x7e6edc0a  x8=0x7e6edc0a
       88085000	      8807	800028a4	817077b7	lui	x15,0x81707	 x15=0x81707000
       88095000	      8808	800028a8	41610d33	sub	x26,x2,x22	  x2:0x00000000 x22:0xfffe6ffa x26=0x00019006
       88105000	      8809	800028ac	95988413	addi	x8,x17,-1703	 x17:0x00000001  x8=0xfffff95a
       88115000	      8810	800028b0	8eea0613	addi	x12,x20,-1810	 x20:0x81912023 x12=0x81911911
       88125000	      8811	800028b4	048dd663	bge	x27,x8,80002900	 x27:0xe6eda840  x8:0xfffff95a
       88135000	      8812	800028b8	c9e0d717	auipc	x14,0xc9e0d	 x14=0x49e0f8b4
       88145000	      8813	800028bc	0170af33	slt	x30,x1,x23	  x1:0x80009fc4 x23:0x00000000 x30=0x00000001
       88155000	      8814	800028c0	75f8be93	sltiu	x29,x17,1887	 x17:0x00000001 x29=0x00000001
       88165000	      8815	800028c4	412d81b3	sub	x3,x27,x18	 x27:0xe6eda840 x18:0x00000000  x3=0xe6eda840
       88175000	      8816	800028c8	00994a63	blt	x18,x9,800028dc	 x18:0x00000000  x9:0x00000001
       88185000	      8817	00000000	00000013	addi	x0,x0,0	  x0:0x00000000
       88195000	      8818	800028d8	00000013	addi	x0,x0,0	  x0:0x00000000
       88205000	      8819	800028dc	00a8be33	sltu	x28,x17,x10	 x17:0x00000001 x10:0x80009f24 x28=0x00000001
       88215000	      8820	800028e0	01801193	slli	x3,x0,0x18	  x0:0x00000000  x3=0x00000000
       88225000	      8821	800028e4	48f861b7	lui	x3,0x48f86	  x3=0x48f86000
       88235000	      8822	800028e8	a8b68713	addi	x14,x13,-1397	 x13:0x3e6eded7 x14=0x3e6ed962
       88245000	      8823	800028ec	408d04b3	sub	x9,x26,x8	 x26:0x00019006  x8:0xfffff95a  x9=0x000196ac
       88255000	      8824	800028f0	d62cc993	xori	x19,x25,-670	 x25:0x40004fe2 x19=0xbfffb280
       88265000	      8825	800028f4	00609a33	sll	x20,x1,x6	  x1:0x80009fc4  x6:0x80009fc4 x20=0x0009fc40
       88275000	      8826	800028f8	00686e33	or	x28,x16,x6	 x16:0xfffffcc4  x6:0x80009fc4 x28=0xffffffc4
       88285000	      8827	800028fc	0414e663	bltu	x9,x1,80002948	  x9:0x000196ac  x1:0x80009fc4
       88295000	      8828	00000000	00000013	addi	x0,x0,0	  x0:0x00000000
       88305000	      8829	80002944	00000013	addi	x0,x0,0	  x0:0x00000000
       88315000	      8830	80002948	00596f33	or	x30,x18,x5	 x18:0x00000000  x5:0xf6f80000 x30=0xf6f80000
       88325000	      8831	8000294c	91de0813	addi	x16,x28,-1763	 x28:0xffffffc4 x16=0xfffff8e1
       88335000	      8832	80002950	0090a5b3	slt	x11,x1,x9	  x1:0x80009fc4  x9:0x000196ac x11=0x00000001
       88345000	      8833	80002954	01905c33	srl	x24,x0,x25	  x0:0x00000000 x25:0x40004fe2 x24=0x00000000
       88355000	      8834	80002958	002ab7b3	sltu	x15,x21,x2	 x21:0x00000001  x2:0x00000000 x15=0x00000000
       88365000	      8835	8000295c	01a89493	slli	x9,x17,0x1a	 x17:0x00000001  x9=0x04000000
       88375000	      8836	80002960	6cdae097	auipc	x1,0x6cdae	  x1=0xecdb095c
       88385000	      8837	80002964	3e004e97	auipc	x29,0x3e004	 x29=0xbe006960
       88395000	      8838	80002968	cbe94393	xori	x7,x18,-834	 x18:0x00000000  x7=0xfffffcbe
       88405000	      8839	8000296c	00e27e33	and	x28,x4,x14	  x4:0x00000000 x14:0x3e6ed962 x28=0x00000000
       88415000	      8840	80002970	00942933	slt	x18,x8,x9	  x8:0xfffff95a  x9:0x04000000 x18=0x00000001
       88425000	      8841	80002974	003f6c33	or	x24,x30,x3	 x30:0xf6f80000  x3:0x48f86000 x24=0xfef86000
       88435000	      8842	80002978	0030bab3	sltu	x21,x1,x3	  x1:0xecdb095c  x3:0x48f86000 x21=0x00000000
       88445000	      8843	8000297c	01466fb3	or	x31,x12,x20	 x12:0x81911911 x20:0x0009fc40 x31=0x8199fd51
       88455000	      8844	80002980	adbd2293	slti	x5,x26,-1317	 x26:0x00019006  x5=0x00000000
       88465000	      8845	80002984	0040ebb3	or	x23,x1,x4	  x1:0xecdb095c  x4:0x00000000 x23=0xecdb095c
       88475000	      8846	80002988	04ad0463	beq	x26,x10,800029d0	 x26:0x00019006 x10:0x80009f24
       88485000	      8847	8000298c	008fd863	bge	x31,x8,8000299c	 x31:0x8199fd51  x8:0xfffff95a
       88495000	      8848	80002990	03725463	bge	x4,x23,800029b8	  x4:0x00000000 x23:0xecdb095c
       88505000	      8849	00000000	00000013	addi	x0,x0,0	  x0:0x00000000
       88515000	      8850	800029b4	00000013	addi	x0,x0,0	  x0:0x00000000
       88525000	      8851	800029b8	4d582013	slti	x0,x16,1237	 x16:0xfffff8e1
       88535000	      8852	800029bc	002600b3	add	x1,x12,x2	 x12:0x81911911  x2:0x00000000  x1=0x81911911
       88545000	      8853	800029c0	0144bbb3	sltu	x23,x9,x20	  x9:0x04000000 x20:0x0009fc40 x23=0x00000000
       88555000	      8854	800029c4	03014e63	blt	x2,x16,80002a00	  x2:0x00000000 x16:0xfffff8e1
       88565000	      8855	800029c8	40ba5f93	srai	x31,x20,0xb	 x20:0x0009fc40 x31=0x0000013f
       88575000	      8856	800029cc	01f2d893	srli	x17,x5,0x1f	  x5:0x00000000 x17=0x00000000
       88585000	      8857	800029d0	efdb3db7	lui	x27,0xefdb3	 x27=0xefdb3000
       88595000	      8858	800029d4	041d8663	beq	x27,x1,80002a20	 x27:0xefdb3000  x1:0x81911911
       88605000	      8859	800029d8	6d6cc417	auipc	x8,0x6d6cc	  x8=0xed6ce9d4
       88615000	      8860	800029dc	4072d133	sra	x2,x5,x7	  x5:0x00000000  x7:0xfffffcbe  x2=0x00000000
       88625000	      8861	800029e0	fd217117	auipc	x2,0xfd217	  x2=0x7d2199dc
       88635000	      8862	800029e4	26f59817	auipc	x16,0x26f59	 x16=0xa6f5b9e0
       88645000	      8863	800029e8	41e35a13	srai	x20,x6,0x1e	  x6:0x80009fc4 x20=0xfffffffe
       88655000	      8864	800029ec	0104e993	ori	x19,x9,16	  x9:0x04000000 x19=0x04000010
       88665000	      8865	800029f0	029d8063	beq	x27,x9,80002a10	 x27:0xefdb3000  x9:0x04000000
       88675000	      8866	800029f4	15e03093	sltiu	x1,x0,350	  x0:0x00000000  x1=0x00000001
       88685000	      8867	800029f8	018a9b93	slli	x23,x21,0x18	 x21:0x00000000 x23=0x00000000
       88695000	      8868	800029fc	444fef93	ori	x31,x31,1092	 x31:0x0000013f x31=0x0000057f
       88705000	      8869	80002a00	038fea63	bltu	x31,x24,80002a34	 x31:0x0000057f x24:0xfef86000
       88715000	      8870	00000000	00000013	addi	x0,x0,0	  x0:0x00000000
       88725000	      8871	80002a30	00000013	addi	x0,x0,0	  x0:0x00000000
       88735000	      8872	80002a34	01585013	srli	x0,x16,0x15	 x16:0xa6f5b9e0
       88745000	      8873	80002a38	00ec08b3	add	x17,x24,x14	 x24:0xfef86000 x14:0x3e6ed962 x17=0x3d673962
       88755000	      8874	80002a3c	066dc213	xori	x4,x27,102	 x27:0xefdb3000  x4=0xefdb3066
       88765000	      8875	80002a40	41a451b3	sra	x3,x8,x26	  x8:0xed6ce9d4 x26:0x00019006  x3=0xffb5b3a7
       88775000	      8876	80002a44	023c8863	beq	x25,x3,80002a74	 x25:0x40004fe2  x3:0xffb5b3a7
       88785000	      8877	80002a48	01fb3f33	sltu	x30,x22,x31	 x22:0xfffe6ffa x31:0x0000057f x30=0x00000000
       88795000	      8878	80002a4c	fca50713	addi	x14,x10,-54	 x10:0x80009f24 x14=0x80009eee
       88805000	      8879	80002a50	d3dd3013	sltiu	x0,x26,-707	 x26:0x00019006
       88815000	      8880	80002a54	31b46897	auipc	x17,0x31b46	 x17=0xb1b48a50
       88825000	      8881	80002a58	25d66d93	ori	x27,x12,605	 x12:0x81911911 x27=0x81911b5d
       88835000	      8882	80002a5c	40095eb3	sra	x29,x18,x0	 x18:0x00000001  x0:0x00000000 x29=0x00000001
       88845000	      8883	80002a60	bcd22793	slti	x15,x4,-1075	  x4:0xefdb3066 x15=0x00000001
       88855000	      8884	80002a64	00f7dd93	srli	x27,x15,0xf	 x15:0x00000001 x27=0x00000000
       88865000	      8885	80002a68	89a87a93	andi	x21,x16,-1894	 x16:0xa6f5b9e0 x21=0xa6f5b880
       88875000	      8886	80002a6c	024a0263	beq	x20,x4,80002a90	 x20:0xfffffffe  x4:0xefdb3066
       88885000	      8887	80002a70	2013ab13	slti	x22,x7,513	  x7:0xfffffcbe x22=0x00000001
       88895000	      8888	80002a74	4042d5b3	sra	x11,x5,x4	  x5:0x00000000  x4:0xefdb3066 x11=0x00000000
       88905000	      8889	80002a78	0130c863	blt	x1,x19,80002a88	  x1:0x00000001 x19:0x04000010
       88915000	      8890	00000000	00000013	addi	x0,x0,0	  x0:0x00000000
       88925000	      8891	80002a84	00000013	addi	x0,x0,0	  x0:0x00000000
       88935000	      8892	80002a88	41f1ddb3	sra	x27,x3,x31	  x3:0xffb5b3a7 x31:0x0000057f x27=0xffffffff
       88945000	      8893	80002a8c	6e45e497	auipc	x9,0x6e45e	  x9=0xee460a88
       88955000	      8894	80002a90	046c8863	beq	x25,x6,80002ae0	 x25:0x40004fe2  x6:0x80009fc4
       88965000	      8895	80002a94	01c8f463	bgeu	x17,x28,80002a9c	 x17:0xb1b48a50 x28:0x00000000
       88975000	      8896	00000000	00000013	addi	x0,x0,0	  x0:0x00000000
       88985000	      8897	80002a98	00000013	addi	x0,x0,0	  x0:0x00000000
       88995000	      8898	80002a9c	40a35ab3	sra	x21,x6,x10	  x6:0x80009fc4 x10:0x80009f24 x21=0xf80009fc
       89005000	      8899	80002aa0	00290e63	beq	x18,x2,80002abc	 x18:0x00000001  x2:0x7d2199dc
       89015000	      8900	80002aa4	9ba3a393	slti	x7,x7,-1606	  x7:0xfffffcbe  x7=0x00000000
       89025000	      8901	80002aa8	40e2d393	srai	x7,x5,0xe	  x5:0x00000000  x7=0x00000000
       89035000	      8902	80002aac	01245c63	bge	x8,x18,80002ac4	  x8:0xed6ce9d4 x18:0x00000001
       89045000	      8903	80002ab0	00c6c5b3	xor	x11,x13,x12	 x13:0x3e6eded7 x12:0x81911911 x11=0xbfffc7c6
       89055000	      8904	80002ab4	01d8d4b3	srl	x9,x17,x29	 x17:0xb1b48a50 x29:0x00000001  x9=0x58da4528
       89065000	      8905	80002ab8	01db4633	xor	x12,x22,x29	 x22:0x00000001 x29:0x00000001 x12=0x00000000
       89075000	      8906	80002abc	55459837	lui	x16,0x55459	 x16=0x55459000
       89085000	      8907	80002ac0	01cb75b3	and	x11,x22,x28	 x22:0x00000001 x28:0x00000000 x11=0x00000000
       89095000	      8908	80002ac4	01c35bb3	srl	x23,x6,x28	  x6:0x80009fc4 x28:0x00000000 x23=0x80009fc4
       89105000	      8909	80002ac8	01d38a63	beq	x7,x29,80002adc	  x7:0x00000000 x29:0x00000001
       89115000	      8910	80002acc	013b1463	bne	x22,x19,80002ad4	 x22:0x00000001 x19:0x04000010
       89125000	      8911	00000000	00000013	addi	x0,x0,0	  x0:0x00000000
       89135000	      8912	80002ad0	00000013	addi	x0,x0,0	  x0:0x00000000
       89145000	      8913	80002ad4	01a61493	slli	x9,x12,0x1a	 x12:0x00000000  x9=0x00000000
       89155000	      8914	80002ad8	cbfe1897	auipc	x17,0xcbfe1	 x17=0x4bfe3ad4
       89165000	      8915	80002adc	00000013	addi	x0,x0,0	  x0:0x00000000
       89175000	      8916	80002ae0	03c79c63	bne	x15,x28,80002b18	 x15:0x00000001 x28:0x00000000
       89185000	      8917	00000000	00000013	addi	x0,x0,0	  x0:0x00000000
       89195000	      8918	80002b14	00000013	addi	x0,x0,0	  x0:0x00000000
       89205000	      8919	80002b18	00a79eb3	sll	x29,x15,x10	 x15:0x00000001 x10:0x80009f24 x29=0x00000010
       89215000	      8920	80002b1c	01caf8b3	and	x17,x21,x28	 x21:0xf80009fc x28:0x00000000 x17=0x00000000
       89225000	      8921	80002b20	0b92fc93	andi	x25,x5,185	  x5:0x00000000 x25=0x00000000
       89235000	      8922	80002b24	3859bf93	sltiu	x31,x19,901	 x19:0x04000010 x31=0x00000000
       89245000	      8923	80002b28	5faab897	auipc	x17,0x5faab	 x17=0xdfaadb24
       89255000	      8924	80002b2c	026e5263	bge	x28,x6,80002b50	 x28:0x00000000  x6:0x80009fc4
       89265000	      8925	00000000	00000013	addi	x0,x0,0	  x0:0x00000000
       89275000	      8926	80002b4c	00000013	addi	x0,x0,0	  x0:0x00000000
       89285000	      8927	80002b50	4080d4b3	sra	x9,x1,x8	  x1:0x00000001  x8:0xed6ce9d4  x9=0x00000000
       89295000	      8928	80002b54	011c9033	sll	x0,x25,x17	 x25:0x00000000 x17:0xdfaadb24
       89305000	      8929	80002b58	b2adc093	xori	x1,x27,-1238	 x27:0xffffffff  x1=0x000004d5
       89315000	      8930	80002b5c	05c07663	bgeu	x0,x28,80002ba8	  x0:0x00000000 x28:0x00000000
       89325000	      8931	00000000	00000013	addi	x0,x0,0	  x0:0x00000000
       89335000	      8932	80002ba4	00000013	addi	x0,x0,0	  x0:0x00000000
       89345000	      8933	80002ba8	0264ce63	blt	x9,x6,80002be4	  x9:0x00000000  x6:0x80009fc4
       89355000	      8934	80002bac	5dad6793	ori	x15,x26,1498	 x26:0x00019006 x15=0x000195de
       89365000	      8935	80002bb0	04444263	blt	x8,x4,80002bf4	  x8:0xed6ce9d4  x4:0xefdb3066
       89375000	      8936	00000000	00000013	addi	x0,x0,0	  x0:0x00000000
       89385000	      8937	80002bf0	00000013	addi	x0,x0,0	  x0:0x00000000
       89395000	      8938	80002bf4	03ecce63	blt	x25,x30,80002c30	 x25:0x00000000 x30:0x00000000
       89405000	      8939	80002bf8	c726ba13	sltiu	x20,x13,-910	 x13:0x3e6eded7 x20=0x00000001
       89415000	      8940	80002bfc	0273f063	bgeu	x7,x7,80002c1c	  x7:0x00000000  x7:0x00000000
       89425000	      8941	00000000	00000013	addi	x0,x0,0	  x0:0x00000000
       89435000	      8942	80002c18	00000013	addi	x0,x0,0	  x0:0x00000000
       89445000	      8943	80002c1c	05ed8663	beq	x27,x30,80002c68	 x27:0xffffffff x30:0x00000000
       89455000	      8944	80002c20	00000013	addi	x0,x0,0	  x0:0x00000000
       89465000	      8945	80002c24	9101a793	slti	x15,x3,-1776	  x3:0xffb5b3a7 x15=0x00000001
       89475000	      8946	80002c28	001b7d33	and	x26,x22,x1	 x22:0x00000001  x1:0x000004d5 x26=0x00000001
       89485000	      8947	80002c2c	00b632b3	sltu	x5,x12,x11	 x12:0x00000000 x11:0x00000000  x5=0x00000000
       89495000	      8948	80002c30	00da8c63	beq	x21,x13,80002c48	 x21:0xf80009fc x13:0x3e6eded7
       89505000	      8949	80002c34	403d81b3	sub	x3,x27,x3	 x27:0xffffffff  x3:0xffb5b3a7  x3=0x004a4c58
       89515000	      8950	80002c38	4f01bc93	sltiu	x25,x3,1264	  x3:0x004a4c58 x25=0x00000000
       89525000	      8951	80002c3c	402a5933	sra	x18,x20,x2	 x20:0x00000001  x2:0x7d2199dc x18=0x00000000
       89535000	      8952	80002c40	c4753813	sltiu	x16,x10,-953	 x10:0x80009f24 x16=0x00000001
       89545000	      8953	80002c44	00000013	addi	x0,x0,0	  x0:0x00000000
       89555000	      8954	80002c48	96d7f9b7	lui	x19,0x96d7f	 x19=0x96d7f000
       89565000	      8955	80002c4c	00b1fc63	bgeu	x3,x11,80002c64	  x3:0x004a4c58 x11:0x00000000
       89575000	      8956	00000000	00000013	addi	x0,x0,0	  x0:0x00000000
       89585000	      8957	80002c60	00000013	addi	x0,x0,0	  x0:0x00000000
       89595000	      8958	80002c64	040e7863	bgeu	x28,x0,80002cb4	 x28:0x00000000  x0:0x00000000
       89605000	      8959	00000000	00000013	addi	x0,x0,0	  x0:0x00000000
       89615000	      8960	80002cb0	00000013	addi	x0,x0,0	  x0:0x00000000
       89625000	      8961	80002cb4	012134b3	sltu	x9,x2,x18	  x2:0x7d2199dc x18:0x00000000  x9=0x00000000
       89635000	      8962	80002cb8	40485b13	srai	x22,x16,0x4	 x16:0x00000001 x22=0x00000000
       89645000	      8963	80002cbc	01236fb3	or	x31,x6,x18	  x6:0x80009fc4 x18:0x00000000 x31=0x80009fc4
       89655000	      8964	80002cc0	034b5a63	bge	x22,x20,80002cf4	 x22:0x00000000 x20:0x00000001
       89665000	      8965	80002cc4	ed867837	lui	x16,0xed867	 x16=0xed867000
       89675000	      8966	80002cc8	41550133	sub	x2,x10,x21	 x10:0x80009f24 x21:0xf80009fc  x2=0x88009528
       89685000	      8967	80002ccc	4028db93	srai	x23,x17,0x2	 x17:0xdfaadb24 x23=0xf7eab6c9
       89695000	      8968	80002cd0	014d2db3	slt	x27,x26,x20	 x26:0x00000001 x20:0x00000001 x27=0x00000000
       89705000	      8969	80002cd4	1af20593	addi	x11,x4,431	  x4:0xefdb3066 x11=0xefdb3215
       89715000	      8970	80002cd8	40e787b3	sub	x15,x15,x14	 x15:0x00000001 x14:0x80009eee x15=0x7fff6113
       89725000	      8971	80002cdc	41d25d13	srai	x26,x4,0x1d	  x4:0xefdb3066 x26=0xffffffff
       89735000	      8972	80002ce0	00915e63	bge	x2,x9,80002cfc	  x2:0x88009528  x9:0x00000000
       89745000	      8973	80002ce4	4074dcb3	sra	x25,x9,x7	  x9:0x00000000  x7:0x00000000 x25=0x00000000
       89755000	      8974	80002ce8	c9028913	addi	x18,x5,-880	  x5:0x00000000 x18=0xfffffc90
       89765000	      8975	80002cec	4077d933	sra	x18,x15,x7	 x15:0x7fff6113  x7:0x00000000 x18=0x7fff6113
       89775000	      8976	80002cf0	ef706113	ori	x2,x0,-265	  x0:0x00000000  x2=0xfffffef7
       89785000	      8977	80002cf4	00d85713	srli	x14,x16,0xd	 x16:0xed867000 x14=0x00076c33
       89795000	      8978	80002cf8	90c9fc97	auipc	x25,0x90c9f	 x25=0x10ca1cf4
       89805000	      8979	80002cfc	013e3833	sltu	x16,x28,x19	 x28:0x00000000 x19:0x96d7f000 x16=0x00000001
       89815000	      8980	80002d00	02928863	beq	x5,x9,80002d30	  x5:0x00000000  x9:0x00000000
       89825000	      8981	00000000	00000013	addi	x0,x0,0	  x0:0x00000000
       89835000	      8982	80002d2c	00000013	addi	x0,x0,0	  x0:0x00000000
       89845000	      8983	80002d30	450be213	ori	x4,x23,1104	 x23:0xf7eab6c9  x4=0xf7eab6d9
       89855000	      8984	80002d34	0151aa33	slt	x20,x3,x21	  x3:0x004a4c58 x21:0xf80009fc x20=0x00000000
       89865000	      8985	80002d38	84ad4413	xori	x8,x26,-1974	 x26:0xffffffff  x8=0x000007b5
       89875000	      8986	80002d3c	407bdf93	srai	x31,x23,0x7	 x23:0xf7eab6c9 x31=0xffefd56d
       89885000	      8987	80002d40	40bb84b3	sub	x9,x23,x11	 x23:0xf7eab6c9 x11:0xefdb3215  x9=0x080f84b4
       89895000	      8988	80002d44	0109df33	srl	x30,x19,x16	 x19:0x96d7f000 x16:0x00000001 x30=0x4b6bf800
       89905000	      8989	80002d48	00545f13	srli	x30,x8,0x5	  x8:0x000007b5 x30=0x0000003d
       89915000	      8990	80002d4c	01fad613	srli	x12,x21,0x1f	 x21:0xf80009fc x12=0x00000001
       89925000	      8991	80002d50	004ce0b3	or	x1,x25,x4	 x25:0x10ca1cf4  x4:0xf7eab6d9  x1=0xf7eabefd
       89935000	      8992	80002d54	086a5463	bge	x20,x6,80002ddc	 x20:0x00000000  x6:0x80009fc4
       89945000	      8993	00000000	00000013	addi	x0,x0,0	  x0:0x00000000
       89955000	      8994	80002dd8	00000013	addi	x0,x0,0	  x0:0x00000000
       89965000	      8995	80002ddc	41548e33	sub	x28,x9,x21	  x9:0x080f84b4 x21:0xf80009fc x28=0x100f7ab8
       89975000	      8996	80002de0	005fbeb3	sltu	x29,x31,x5	 x31:0xffefd56d  x5:0x00000000 x29=0x00000000
       89985000	      8997	80002de4	5dd7bb93	sltiu	x23,x15,1501	 x15:0x7fff6113 x23=0x00000000
       89995000	      8998	80002de8	74baca93	xori	x21,x21,1867	 x21:0xf80009fc x21=0xf8000eb7
       90005000	      8999	80002dec	0054bb33	sltu	x22,x9,x5	  x9:0x080f84b4  x5:0x00000000 x22=0x00000000
       90015000	      9000	80002df0	5268a397	auipc	x7,0x5268a	  x7=0xd268cdec
       90025000	      9001	80002df4	c7a845b7	lui	x11,0xc7a84	 x11=0xc7a84000
       90035000	      9002	80002df8	e3e9cb17	auipc	x22,0xe3e9c	 x22=0x63e9edf4
       90045000	      9003	80002dfc	011fa133	slt	x2,x31,x17	 x31:0xffefd56d x17:0xdfaadb24  x2=0x00000000
       90055000	      9004	80002e00	12e1ea13	ori	x20,x3,302	  x3:0x004a4c58 x20=0x004a4d7e
       90065000	      9005	80002e04	04165663	bge	x12,x1,80002e50	 x12:0x00000001  x1:0xf7eabefd
       90075000	      9006	00000000	00000013	addi	x0,x0,0	  x0:0x00000000
       90085000	      9007	80002e4c	00000013	addi	x0,x0,0	  x0:0x00000000
       90095000	      9008	80002e50	040ad663	bge	x21,x0,80002e9c	 x21:0xf8000eb7  x0:0x00000000
       90105000	      9009	80002e54	00d9f433	and	x8,x19,x13	 x19:0x96d7f000 x13:0x3e6eded7  x8=0x1646d000
       90115000	      9010	80002e58	00799c63	bne	x19,x7,80002e70	 x19:0x96d7f000  x7:0xd268cdec
       90125000	      9011	00000000	00000013	addi	x0,x0,0	  x0:0x00000000
       90135000	      9012	80002e6c	00000013	addi	x0,x0,0	  x0:0x00000000
       90145000	      9013	80002e70	0a3c7c63	bgeu	x24,x3,80002f28	 x24:0xfef86000  x3:0x004a4c58
       90155000	      9014	00000000	00000013	addi	x0,x0,0	  x0:0x00000000
       90165000	      9015	80002f24	00000013	addi	x0,x0,0	  x0:0x00000000
       90175000	      9016	80002f28	01ea5863	bge	x20,x30,80002f38	 x20:0x004a4d7e x30:0x0000003d
       90185000	      9017	00000000	00000013	addi	x0,x0,0	  x0:0x00000000
       90195000	      9018	80002f34	00000013	addi	x0,x0,0	  x0:0x00000000
       90205000	      9019	80002f38	00b31e93	slli	x29,x6,0xb	  x6:0x80009fc4 x29=0x04fe2000
       90215000	      9020	80002f3c	019d8033	add	x0,x27,x25	 x27:0x00000000 x25:0x10ca1cf4
       90225000	      9021	80002f40	8b374d93	xori	x27,x14,-1869	 x14:0x00076c33 x27=0xfff89480
       90235000	      9022	80002f44	40fd5293	srai	x5,x26,0xf	 x26:0xffffffff  x5=0xffffffff
       90245000	      9023	80002f48	01312833	slt	x16,x2,x19	  x2:0x00000000 x19:0x96d7f000 x16=0x00000000
       90255000	      9024	80002f4c	0037f933	and	x18,x15,x3	 x15:0x7fff6113  x3:0x004a4c58 x18=0x004a4010
       90265000	      9025	80002f50	02bcfe63	bgeu	x25,x11,80002f8c	 x25:0x10ca1cf4 x11:0xc7a84000
       90275000	      9026	80002f54	2415a613	slti	x12,x11,577	 x11:0xc7a84000 x12=0x00000001
       90285000	      9027	80002f58	400d5a33	sra	x20,x26,x0	 x26:0xffffffff  x0:0x00000000 x20=0xffffffff
       90295000	      9028	80002f5c	00a54e33	xor	x28,x10,x10	 x10:0x80009f24 x10:0x80009f24 x28=0x00000000
       90305000	      9029	80002f60	0582f463	bgeu	x5,x24,80002fa8	  x5:0xffffffff x24:0xfef86000
       90315000	      9030	00000000	00000013	addi	x0,x0,0	  x0:0x00000000
       90325000	      9031	80002fa4	00000013	addi	x0,x0,0	  x0:0x00000000
       90335000	      9032	80002fa8	05e38663	beq	x7,x30,80002ff4	  x7:0xd268cdec x30:0x0000003d
       90345000	      9033	80002fac	400edc93	srai	x25,x29,0x0	 x29:0x04fe2000 x25=0x04fe2000
       90355000	      9034	80002fb0	1fb5fc13	andi	x24,x11,507	 x11:0xc7a84000 x24=0x00000000
       90365000	      9035	80002fb4	004d9233	sll	x4,x27,x4	 x27:0xfff89480  x4:0xf7eab6d9  x4=0x00000000
       90375000	      9036	80002fb8	00a2c7b3	xor	x15,x5,x10	  x5:0xffffffff x10:0x80009f24 x15=0x7fff60db
       90385000	      9037	80002fbc	018a5f93	srli	x31,x20,0x18	 x20:0xffffffff x31=0x000000ff
       90395000	      9038	80002fc0	716dcd93	xori	x27,x27,1814	 x27:0xfff89480 x27=0xfff89396
       90405000	      9039	80002fc4	01499613	slli	x12,x19,0x14	 x19:0x96d7f000 x12=0x00000000
       90415000	      9040	80002fc8	78570f93	addi	x31,x14,1925	 x14:0x00076c33 x31=0x000773b8
       90425000	      9041	80002fcc	a7bc7593	andi	x11,x24,-1413	 x24:0x00000000 x11=0x00000000
       90435000	      9042	80002fd0	00cf9b33	sll	x22,x31,x12	 x31:0x000773b8 x12:0x00000000 x22=0x000773b8
       90445000	      9043	80002fd4	029b8263	beq	x23,x9,80002ff8	 x23:0x00000000  x9:0x080f84b4
       90455000	      9044	80002fd8	006681b3	add	x3,x13,x6	 x13:0x3e6eded7  x6:0x80009fc4  x3=0xbe6f7e9b
       90465000	      9045	80002fdc	01d8e133	or	x2,x17,x29	 x17:0xdfaadb24 x29:0x04fe2000  x2=0xdffefb24
       90475000	      9046	80002fe0	92838217	auipc	x4,0x92838	  x4=0x1283afdc
       90485000	      9047	80002fe4	00790a33	add	x20,x18,x7	 x18:0x004a4010  x7:0xd268cdec x20=0xd2b30dfc
       90495000	      9048	80002fe8	41455293	srai	x5,x10,0x14	 x10:0x80009f24  x5=0xfffff800
       90505000	      9049	80002fec	01afd113	srli	x2,x31,0x1a	 x31:0x000773b8  x2=0x00000000
       90515000	      9050	80002ff0	3b537937	lui	x18,0x3b537	 x18=0x3b537000
       90525000	      9051	80002ff4	0198bc33	sltu	x24,x17,x25	 x17:0xdfaadb24 x25:0x04fe2000 x24=0x00000000
       90535000	      9052	80002ff8	f92e7a93	andi	x21,x28,-110	 x28:0x00000000 x21=0x00000000
       90545000	      9053	80002ffc	97fd4413	xori	x8,x26,-1665	 x26:0xffffffff  x8=0x00000680
       90555000	      9054	80003000	3010b093	sltiu	x1,x1,769	  x1:0xf7eabefd  x1=0x00000000
       90565000	      9055	80003004	4120d113	srai	x2,x1,0x12	  x1:0x00000000  x2=0x00000000
       90575000	      9056	80003008	00667c33	and	x24,x12,x6	 x12:0x00000000  x6:0x80009fc4 x24=0x00000000
       90585000	      9057	8000300c	9f4ce397	auipc	x7,0x9f4ce	  x7=0x1f4d1008
       90595000	      9058	80003010	01354263	blt	x10,x19,80003014	 x10:0x80009f24 x19:0x96d7f000
       90605000	      9059	00000000	00000013	addi	x0,x0,0	  x0:0x00000000
       90615000	      9060	80003010	00000013	addi	x0,x0,0	  x0:0x00000000
       90625000	      9061	80003014	0020bd33	sltu	x26,x1,x2	  x1:0x00000000  x2:0x00000000 x26=0x00000000
       90635000	      9062	80003018	01cd4033	xor	x0,x26,x28	 x26:0x00000000 x28:0x00000000
       90645000	      9063	8000301c	65ed4493	xori	x9,x26,1630	 x26:0x00000000  x9=0x0000065e
       90655000	      9064	80003020	41f9d9b3	sra	x19,x19,x31	 x19:0x96d7f000 x31:0x000773b8 x19=0xffffff96
       90665000	      9065	80003024	088e8663	beq	x29,x8,800030b0	 x29:0x04fe2000  x8:0x00000680
       90675000	      9066	80003028	01e194b3	sll	x9,x3,x30	  x3:0xbe6f7e9b x30:0x0000003d  x9=0x60000000
       90685000	      9067	8000302c	09421463	bne	x4,x20,800030b4	  x4:0x1283afdc x20:0xd2b30dfc
       90695000	      9068	00000000	00000013	addi	x0,x0,0	  x0:0x00000000
       90705000	      9069	800030b0	00000013	addi	x0,x0,0	  x0:0x00000000
       90715000	      9070	800030b4	00777fb3	and	x31,x14,x7	 x14:0x00076c33  x7:0x1f4d1008 x31=0x00050000
       90725000	      9071	800030b8	41b80433	sub	x8,x16,x27	 x16:0x00000000 x27:0xfff89396  x8=0x00076c6a
       90735000	      9072	800030bc	05a46663	bltu	x8,x26,80003108	  x8:0x00076c6a x26:0x00000000
       90745000	      9073	800030c0	001877b3	and	x15,x16,x1	 x16:0x00000000  x1:0x00000000 x15=0x00000000
       90755000	      9074	800030c4	00f56bb3	or	x23,x10,x15	 x10:0x80009f24 x15:0x00000000 x23=0x80009f24
       90765000	      9075	800030c8	011b5b13	srli	x22,x22,0x11	 x22:0x000773b8 x22=0x00000003
       90775000	      9076	800030cc	eeef4d93	xori	x27,x30,-274	 x30:0x0000003d x27=0xfffffed3
       90785000	      9077	800030d0	00c15113	srli	x2,x2,0xc	  x2:0x00000000  x2=0x00000000
       90795000	      9078	800030d4	00000013	addi	x0,x0,0	  x0:0x00000000
       90805000	      9079	800030d8	004ede93	srli	x29,x29,0x4	 x29:0x04fe2000 x29=0x004fe200
       90815000	      9080	800030dc	923f4193	xori	x3,x30,-1757	 x30:0x0000003d  x3=0xfffff91e
       90825000	      9081	800030e0	01baa4b3	slt	x9,x21,x27	 x21:0x00000000 x27:0xfffffed3  x9=0x00000000
       90835000	      9082	800030e4	002adc33	srl	x24,x21,x2	 x21:0x00000000  x2:0x00000000 x24=0x00000000
       90845000	      9083	800030e8	01940133	add	x2,x8,x25	  x8:0x00076c6a x25:0x04fe2000  x2=0x05058c6a
       90855000	      9084	800030ec	00314f33	xor	x30,x2,x3	  x2:0x05058c6a  x3:0xfffff91e x30=0xfafa7574
       90865000	      9085	800030f0	f2493f97	auipc	x31,0xf2493	 x31=0x724960ec
       90875000	      9086	800030f4	392c7737	lui	x14,0x392c7	 x14=0x392c7000
       90885000	      9087	800030f8	b0324f93	xori	x31,x4,-1277	  x4:0x1283afdc x31=0xed7c54df
       90895000	      9088	800030fc	010ec1b3	xor	x3,x29,x16	 x29:0x004fe200 x16:0x00000000  x3=0x004fe200
       90905000	      9089	80003100	011d2d33	slt	x26,x26,x17	 x26:0x00000000 x17:0xdfaadb24 x26=0x00000000
       90915000	      9090	80003104	019a5a63	bge	x20,x25,80003118	 x20:0xd2b30dfc x25:0x04fe2000
       90925000	      9091	80003108	0176a833	slt	x16,x13,x23	 x13:0x3e6eded7 x23:0x80009f24 x16=0x00000000
       90935000	      9092	8000310c	00401cb3	sll	x25,x0,x4	  x0:0x00000000  x4:0x1283afdc x25=0x00000000
       90945000	      9093	80003110	017787b3	add	x15,x15,x23	 x15:0x00000000 x23:0x80009f24 x15=0x80009f24
       90955000	      9094	80003114	a523c713	xori	x14,x7,-1454	  x7:0x1f4d1008 x14=0xe0b2ea5a
       90965000	      9095	80003118	01c99a33	sll	x20,x19,x28	 x19:0xffffff96 x28:0x00000000 x20=0xffffff96
       90975000	      9096	8000311c	0002e433	or	x8,x5,x0	  x5:0xfffff800  x0:0x00000000  x8=0xfffff800
       90985000	      9097	80003120	018e0fb3	add	x31,x28,x24	 x28:0x00000000 x24:0x00000000 x31=0x00000000
       90995000	      9098	80003124	01e05263	bge	x0,x30,80003128	  x0:0x00000000 x30:0xfafa7574
       91005000	      9099	00000000	00000013	addi	x0,x0,0	  x0:0x00000000
       91015000	      9100	80003124	00000013	addi	x0,x0,0	  x0:0x00000000
       91025000	      9101	80003128	c7ce3e13	sltiu	x28,x28,-900	 x28:0x00000000 x28=0x00000001
       91035000	      9102	8000312c	dc659db7	lui	x27,0xdc659	 x27=0xdc659000
       91045000	      9103	80003130	0c010193	addi	x3,x2,192	  x2:0x05058c6a  x3=0x05058d2a
       91055000	      9104	80003134	05a80863	beq	x16,x26,80003184	 x16:0x00000000 x26:0x00000000
       91065000	      9105	00000000	00000013	addi	x0,x0,0	  x0:0x00000000
       91075000	      9106	80003180	00000013	addi	x0,x0,0	  x0:0x00000000
       91085000	      9107	80003184	43713917	auipc	x18,0x43713	 x18=0xc3716180
       91095000	      9108	80003188	01fddf33	srl	x30,x27,x31	 x27:0xdc659000 x31:0x00000000 x30=0xdc659000
       91105000	      9109	8000318c	01550bb3	add	x23,x10,x21	 x10:0x80009f24 x21:0x00000000 x23=0x80009f24
       91115000	      9110	80003190	00000013	addi	x0,x0,0	  x0:0x00000000
       91125000	      9111	80003194	00ffab33	slt	x22,x31,x15	 x31:0x00000000 x15:0x80009f24 x22=0x00000000
       91135000	      9112	80003198	244a3f13	sltiu	x30,x20,580	 x20:0xffffff96 x30=0x00000000
       91145000	      9113	8000319c	5530e093	ori	x1,x1,1363	  x1:0x00000000  x1=0x00000553
       91155000	      9114	800031a0	013bb3b3	sltu	x7,x23,x19	 x23:0x80009f24 x19:0xffffff96  x7=0x00000001
       91165000	      9115	800031a4	02f78a63	beq	x15,x15,800031d8	 x15:0x80009f24 x15:0x80009f24
       91175000	      9116	00000000	00000013	addi	x0,x0,0	  x0:0x00000000
       91185000	      9117	800031d4	00000013	addi	x0,x0,0	  x0:0x00000000
       91195000	      9118	800031d8	ceadaf93	slti	x31,x27,-790	 x27:0xdc659000 x31=0x00000001
       91205000	      9119	800031dc	416a5b93	srai	x23,x20,0x16	 x20:0xffffff96 x23=0xffffffff
       91215000	      9120	800031e0	014470b3	and	x1,x8,x20	  x8:0xfffff800 x20:0xffffff96  x1=0xfffff800
       91225000	      9121	800031e4	01302eb3	slt	x29,x0,x19	  x0:0x00000000 x19:0xffffff96 x29=0x00000000
       91235000	      9122	800031e8	01fc22b3	slt	x5,x24,x31	 x24:0x00000000 x31:0x00000001  x5=0x00000001
       91245000	      9123	800031ec	013a8463	beq	x21,x19,800031f4	 x21:0x00000000 x19:0xffffff96
       91255000	      9124	800031f0	b16abb93	sltiu	x23,x21,-1258	 x21:0x00000000 x23=0x00000001
       91265000	      9125	800031f4	01d747b3	xor	x15,x14,x29	 x14:0xe0b2ea5a x29:0x00000000 x15=0xe0b2ea5a
       91275000	      9126	800031f8	2b2aea93	ori	x21,x21,690	 x21:0x00000000 x21=0x000002b2
       91285000	      9127	800031fc	00ba2bb3	slt	x23,x20,x11	 x20:0xffffff96 x11:0x00000000 x23=0x00000001
       91295000	      9128	80003200	00ef9713	slli	x14,x31,0xe	 x31:0x00000001 x14=0x00004000
       91305000	      9129	80003204	03ae1063	bne	x28,x26,80003224	 x28:0x00000001 x26:0x00000000
       91315000	      9130	00000000	00000013	addi	x0,x0,0	  x0:0x00000000
       91325000	      9131	80003220	00000013	addi	x0,x0,0	  x0:0x00000000
       91335000	      9132	80003224	01b59113	slli	x2,x11,0x1b	 x11:0x00000000  x2=0x00000000
       91345000	      9133	80003228	01f6cb33	xor	x22,x13,x31	 x13:0x3e6eded7 x31:0x00000001 x22=0x3e6eded6
       91355000	      9134	8000322c	f26ff097	auipc	x1,0xf26ff	  x1=0x72702228
       91365000	      9135	80003230	cbd13213	sltiu	x4,x2,-835	  x2:0x00000000  x4=0x00000001
       91375000	      9136	80003234	030a8463	beq	x21,x16,8000325c	 x21:0x000002b2 x16:0x00000000
       91385000	      9137	80003238	00000013	addi	x0,x0,0	  x0:0x00000000
       91395000	      9138	8000323c	00000013	addi	x0,x0,0	  x0:0x00000000
       91405000	      9139	80003240	023b6e63	bltu	x22,x3,8000327c	 x22:0x3e6eded6  x3:0x05058d2a
       91415000	      9140	80003244	00702433	slt	x8,x0,x7	  x0:0x00000000  x7:0x00000001  x8=0x00000001
       91425000	      9141	80003248	409d0633	sub	x12,x26,x9	 x26:0x00000000  x9:0x00000000 x12=0x00000000
       91435000	      9142	8000324c	13873013	sltiu	x0,x14,312	 x14:0x00004000
       91445000	      9143	80003250	01f484b3	add	x9,x9,x31	  x9:0x00000000 x31:0x00000001  x9=0x00000001
       91455000	      9144	80003254	40118033	sub	x0,x3,x1	  x3:0x05058d2a  x1:0x72702228
       91465000	      9145	80003258	453ee293	ori	x5,x29,1107	 x29:0x00000000  x5=0x00000453
       91475000	      9146	8000325c	003a0e63	beq	x20,x3,80003278	 x20:0xffffff96  x3:0x05058d2a
       91485000	      9147	80003260	40bbd093	srai	x1,x23,0xb	 x23:0x00000001  x1=0x00000000
       91495000	      9148	80003264	00bd32b3	sltu	x5,x26,x11	 x26:0x00000000 x11:0x00000000  x5=0x00000000
       91505000	      9149	80003268	322ca293	slti	x5,x25,802	 x25:0x00000000  x5=0x00000001
       91515000	      9150	8000326c	ac7bb793	sltiu	x15,x23,-1337	 x23:0x00000001 x15=0x00000001
       91525000	      9151	80003270	015a35b3	sltu	x11,x20,x21	 x20:0xffffff96 x21:0x000002b2 x11=0x00000000
       91535000	      9152	80003274	40b50ab3	sub	x21,x10,x11	 x10:0x80009f24 x11:0x00000000 x21=0x80009f24
       91545000	      9153	80003278	05b54463	blt	x10,x27,800032c0	 x10:0x80009f24 x27:0xdc659000
       91555000	      9154	00000000	00000013	addi	x0,x0,0	  x0:0x00000000
       91565000	      9155	800032bc	00000013	addi	x0,x0,0	  x0:0x00000000
       91575000	      9156	800032c0	00b10233	add	x4,x2,x11	  x2:0x00000000 x11:0x00000000  x4=0x00000000
       91585000	      9157	800032c4	02bb1c63	bne	x22,x11,800032fc	 x22:0x3e6eded6 x11:0x00000000
       91595000	      9158	00000000	00000013	addi	x0,x0,0	  x0:0x00000000
       91605000	      9159	800032f8	00000013	addi	x0,x0,0	  x0:0x00000000
       91615000	      9160	800032fc	02556463	bltu	x10,x5,80003324	 x10:0x80009f24  x5:0x00000001
       91625000	      9161	80003300	7256c713	xori	x14,x13,1829	 x13:0x3e6eded7 x14=0x3e6ed9f2
       91635000	      9162	80003304	00d0cd33	xor	x26,x1,x13	  x1:0x00000000 x13:0x3e6eded7 x26=0x3e6eded7
       91645000	      9163	80003308	00b5dc63	bge	x11,x11,80003320	 x11:0x00000000 x11:0x00000000
       91655000	      9164	00000000	00000013	addi	x0,x0,0	  x0:0x00000000
       91665000	      9165	8000331c	00000013	addi	x0,x0,0	  x0:0x00000000
       91675000	      9166	80003320	40a78f33	sub	x30,x15,x10	 x15:0x00000001 x10:0x80009f24 x30=0x7fff60dd
       91685000	      9167	80003324	20a1b413	sltiu	x8,x3,522	  x3:0x05058d2a  x8=0x00000000
       91695000	      9168	80003328	01259c63	bne	x11,x18,80003340	 x11:0x00000000 x18:0xc3716180
       91705000	      9169	00000000	00000013	addi	x0,x0,0	  x0:0x00000000
       91715000	      9170	8000333c	00000013	addi	x0,x0,0	  x0:0x00000000
       91725000	      9171	80003340	00696933	or	x18,x18,x6	 x18:0xc3716180  x6:0x80009fc4 x18=0xc371ffc4
       91735000	      9172	80003344	00c7be33	sltu	x28,x15,x12	 x15:0x00000001 x12:0x00000000 x28=0x00000000
       91745000	      9173	80003348	ac3db913	sltiu	x18,x27,-1341	 x27:0xdc659000 x18=0x00000001
       91755000	      9174	8000334c	010d9fb3	sll	x31,x27,x16	 x27:0xdc659000 x16:0x00000000 x31=0xdc659000
       91765000	      9175	80003350	00b81fb3	sll	x31,x16,x11	 x16:0x00000000 x11:0x00000000 x31=0x00000000
       91775000	      9176	80003354	03934a63	blt	x6,x25,80003388	  x6:0x80009fc4 x25:0x00000000
       91785000	      9177	00000000	00000013	addi	x0,x0,0	  x0:0x00000000
       91795000	      9178	80003384	00000013	addi	x0,x0,0	  x0:0x00000000
       91805000	      9179	80003388	5acb8793	addi	x15,x23,1452	 x23:0x00000001 x15=0x000005ad
       91815000	      9180	8000338c	00800d6f	jal	x26,8000338c	 x26=0x8000338c
       91825000	      9181	00000000	00000013	addi	x0,x0,0	  x0:0x00000000
       91835000	      9182	80003390	00000013	addi	x0,x0,0	  x0:0x00000000
       91845000	      9183	80003394	024000ef	jal	x1,80003394	  x1=0x80003394
       91855000	      9184	00000000	00000013	addi	x0,x0,0	  x0:0x00000000
       91865000	      9185	800033b4	00000013	addi	x0,x0,0	  x0:0x00000000
       91875000	      9186	800033b8	0040016f	jal	x2,800033b8	  x2=0x800033b8
       91885000	      9187	00000000	00000013	addi	x0,x0,0	  x0:0x00000000
       91895000	      9188	800033b8	00000013	addi	x0,x0,0	  x0:0x00000000
       91905000	      9189	800033bc	ff1ff0ef	jal	x1,800033bc	  x1=0x800033bc
       91915000	      9190	00000000	00000013	addi	x0,x0,0	  x0:0x00000000
       91925000	      9191	800033a8	00000013	addi	x0,x0,0	  x0:0x00000000
       91935000	      9192	800033ac	ff1fff6f	jal	x30,800033ac	 x30=0x800033ac
       91945000	      9193	00000000	00000013	addi	x0,x0,0	  x0:0x00000000
       91955000	      9194	80003398	00000013	addi	x0,x0,0	  x0:0x00000000
       91965000	      9195	8000339c	024000ef	jal	x1,8000339c	  x1=0x8000339c
       91975000	      9196	00000000	00000013	addi	x0,x0,0	  x0:0x00000000
       91985000	      9197	800033bc	00000013	addi	x0,x0,0	  x0:0x00000000
       91995000	      9198	800033c0	fd9ff0ef	jal	x1,800033c0	  x1=0x800033c0
       92005000	      9199	00000000	00000013	addi	x0,x0,0	  x0:0x00000000
       92015000	      9200	80003394	00000013	addi	x0,x0,0	  x0:0x00000000
       92025000	      9201	80003398	010000ef	jal	x1,80003398	  x1=0x80003398
       92035000	      9202	00000000	00000013	addi	x0,x0,0	  x0:0x00000000
       92045000	      9203	800033a4	00000013	addi	x0,x0,0	  x0:0x00000000
       92055000	      9204	800033a8	00c000ef	jal	x1,800033a8	  x1=0x800033a8
       92065000	      9205	00000000	00000013	addi	x0,x0,0	  x0:0x00000000
       92075000	      9206	800033b0	00000013	addi	x0,x0,0	  x0:0x00000000
       92085000	      9207	800033b4	ff1ffa6f	jal	x20,800033b4	 x20=0x800033b4
       92095000	      9208	00000000	00000013	addi	x0,x0,0	  x0:0x00000000
       92105000	      9209	800033a0	00000013	addi	x0,x0,0	  x0:0x00000000
       92115000	      9210	800033a4	ffdff2ef	jal	x5,800033a4	  x5=0x800033a4
       92125000	      9211	00000000	00000013	addi	x0,x0,0	  x0:0x00000000
       92135000	      9212	8000339c	00000013	addi	x0,x0,0	  x0:0x00000000
       92145000	      9213	800033a0	010000ef	jal	x1,800033a0	  x1=0x800033a0
       92155000	      9214	00000000	00000013	addi	x0,x0,0	  x0:0x00000000
       92165000	      9215	800033ac	00000013	addi	x0,x0,0	  x0:0x00000000
       92175000	      9216	800033b0	fe1ff0ef	jal	x1,800033b0	  x1=0x800033b0
       92185000	      9217	00000000	00000013	addi	x0,x0,0	  x0:0x00000000
       92195000	      9218	8000338c	00000013	addi	x0,x0,0	  x0:0x00000000
       92205000	      9219	80003390	034002ef	jal	x5,80003390	  x5=0x80003390
       92215000	      9220	00000000	00000013	addi	x0,x0,0	  x0:0x00000000
       92225000	      9221	800033c0	00000013	addi	x0,x0,0	  x0:0x00000000
       92235000	      9222	800033c4	01427fb3	and	x31,x4,x20	  x4:0x00000000 x20:0x800033b4 x31=0x00000000
       92245000	      9223	800033c8	285e49b7	lui	x19,0x285e4	 x19=0x285e4000
       92255000	      9224	800033cc	00af54b3	srl	x9,x30,x10	 x30:0x800033ac x10:0x80009f24  x9=0x0800033a
       92265000	      9225	800033d0	f463c413	xori	x8,x7,-186	  x7:0x00000001  x8=0xffffff47
       92275000	      9226	800033d4	01610433	add	x8,x2,x22	  x2:0x800033b8 x22:0x3e6eded6  x8=0xbe6f128e
       92285000	      9227	800033d8	00e460b3	or	x1,x8,x14	  x8:0xbe6f128e x14:0x3e6ed9f2  x1=0xbe6fdbfe
       92295000	      9228	800033dc	5ff98e93	addi	x29,x19,1535	 x19:0x285e4000 x29=0x285e45ff
       92305000	      9229	800033e0	019d7263	bgeu	x26,x25,800033e4	 x26:0x8000338c x25:0x00000000
       92315000	      9230	00000000	00000013	addi	x0,x0,0	  x0:0x00000000
       92325000	      9231	800033e0	00000013	addi	x0,x0,0	  x0:0x00000000
       92335000	      9232	800033e4	005e0a63	beq	x28,x5,800033f8	 x28:0x00000000  x5:0x80003390
       92345000	      9233	800033e8	006ad193	srli	x3,x21,0x6	 x21:0x80009f24  x3=0x0200027c
       92355000	      9234	800033ec	010153b3	srl	x7,x2,x16	  x2:0x800033b8 x16:0x00000000  x7=0x800033b8
       92365000	      9235	800033f0	016f9863	bne	x31,x22,80003400	 x31:0x00000000 x22:0x3e6eded6
       92375000	      9236	00000000	00000013	addi	x0,x0,0	  x0:0x00000000
       92385000	      9237	800033fc	00000013	addi	x0,x0,0	  x0:0x00000000
       92395000	      9238	80003400	41475113	srai	x2,x14,0x14	 x14:0x3e6ed9f2  x2=0x000003e6
       92405000	      9239	80003404	00a2cc63	blt	x5,x10,8000341c	  x5:0x80003390 x10:0x80009f24
       92415000	      9240	00000000	00000013	addi	x0,x0,0	  x0:0x00000000
       92425000	      9241	80003418	00000013	addi	x0,x0,0	  x0:0x00000000
       92435000	      9242	8000341c	034b9863	bne	x23,x20,8000344c	 x23:0x00000001 x20:0x800033b4
       92445000	      9243	00000000	00000013	addi	x0,x0,0	  x0:0x00000000
       92455000	      9244	80003448	00000013	addi	x0,x0,0	  x0:0x00000000
       92465000	      9245	8000344c	9e634f13	xori	x30,x6,-1562	  x6:0x80009fc4 x30=0x7fff6622
       92475000	      9246	80003450	2642c993	xori	x19,x5,612	  x5:0x80003390 x19=0x800031f4
       92485000	      9247	80003454	01d0b2b3	sltu	x5,x1,x29	  x1:0xbe6fdbfe x29:0x285e45ff  x5=0x00000000
       92495000	      9248	80003458	001c5863	bge	x24,x1,80003468	 x24:0x00000000  x1:0xbe6fdbfe
       92505000	      9249	00000000	00000013	addi	x0,x0,0	  x0:0x00000000
       92515000	      9250	80003464	00000013	addi	x0,x0,0	  x0:0x00000000
       92525000	      9251	80003468	03bedc63	bge	x29,x27,800034a0	 x29:0x285e45ff x27:0xdc659000
       92535000	      9252	00000000	00000013	addi	x0,x0,0	  x0:0x00000000
       92545000	      9253	8000349c	00000013	addi	x0,x0,0	  x0:0x00000000
       92555000	      9254	800034a0	014e94b3	sll	x9,x29,x20	 x29:0x285e45ff x20:0x800033b4  x9=0x5ff00000
       92565000	      9255	800034a4	005d6cb3	or	x25,x26,x5	 x26:0x8000338c  x5:0x00000000 x25=0x8000338c
       92575000	      9256	800034a8	532be193	ori	x3,x23,1330	 x23:0x00000001  x3=0x00000533
       92585000	      9257	800034ac	011d5b93	srli	x23,x26,0x11	 x26:0x8000338c x23=0x00004000
       92595000	      9258	800034b0	09ed1063	bne	x26,x30,80003530	 x26:0x8000338c x30:0x7fff6622
       92605000	      9259	00000000	00000013	addi	x0,x0,0	  x0:0x00000000
       92615000	      9260	8000352c	00000013	addi	x0,x0,0	  x0:0x00000000
       92625000	      9261	80003530	4f4dcd93	xori	x27,x27,1268	 x27:0xdc659000 x27=0xdc6594f4
       92635000	      9262	80003534	3d638193	addi	x3,x7,982	  x7:0x800033b8  x3=0x8000378e
       92645000	      9263	80003538	00eac433	xor	x8,x21,x14	 x21:0x80009f24 x14:0x3e6ed9f2  x8=0xbe6e46d6
       92655000	      9264	8000353c	85ff8e13	addi	x28,x31,-1953	 x31:0x00000000 x28=0xfffff85f
       92665000	      9265	80003540	50c17113	andi	x2,x2,1292	  x2:0x000003e6  x2=0x00000104
       92675000	      9266	80003544	c4df3f13	sltiu	x30,x30,-947	 x30:0x7fff6622 x30=0x00000001
       92685000	      9267	80003548	4092d2b3	sra	x5,x5,x9	  x5:0x00000000  x9:0x5ff00000  x5=0x00000000
       92695000	      9268	8000354c	449e6e13	ori	x28,x28,1097	 x28:0xfffff85f x28=0xfffffc5f
       92705000	      9269	80003550	7707f393	andi	x7,x15,1904	 x15:0x000005ad  x7=0x00000520
       92715000	      9270	80003554	01fe1393	slli	x7,x28,0x1f	 x28:0xfffffc5f  x7=0x80000000
       92725000	      9271	80003558	0295f063	bgeu	x11,x9,80003578	 x11:0x00000000  x9:0x5ff00000
       92735000	      9272	8000355c	009e8d33	add	x26,x29,x9	 x29:0x285e45ff  x9:0x5ff00000 x26=0x884e45ff
       92745000	      9273	80003560	0035e0b3	or	x1,x11,x3	 x11:0x00000000  x3:0x8000378e  x1=0x8000378e
       92755000	      9274	80003564	04451063	bne	x10,x4,800035a4	 x10:0x80009f24  x4:0x00000000
       92765000	      9275	00000000	00000013	addi	x0,x0,0	  x0:0x00000000
       92775000	      9276	800035a0	00000013	addi	x0,x0,0	  x0:0x00000000
       92785000	      9277	800035a4	5ac3a093	slti	x1,x7,1452	  x7:0x80000000  x1=0x00000001
       92795000	      9278	800035a8	4131dc93	srai	x25,x3,0x13	  x3:0x8000378e x25=0xfffff000
       92805000	      9279	800035ac	4035da33	sra	x20,x11,x3	 x11:0x00000000  x3:0x8000378e x20=0x00000000
       92815000	      9280	800035b0	2f5c4617	auipc	x12,0x2f5c4	 x12=0xaf5c75ac
       92825000	      9281	800035b4	f4b87893	andi	x17,x16,-181	 x16:0x00000000 x17=0x00000000
       92835000	      9282	800035b8	004fcc63	blt	x31,x4,800035d0	 x31:0x00000000  x4:0x00000000
       92845000	      9283	800035bc	01c86863	bltu	x16,x28,800035cc	 x16:0x00000000 x28:0xfffffc5f
       92855000	      9284	00000000	00000013	addi	x0,x0,0	  x0:0x00000000
       92865000	      9285	800035c8	00000013	addi	x0,x0,0	  x0:0x00000000
       92875000	      9286	800035cc	01c650b3	srl	x1,x12,x28	 x12:0xaf5c75ac x28:0xfffffc5f  x1=0x00000001
       92885000	      9287	800035d0	41370033	sub	x0,x14,x19	 x14:0x3e6ed9f2 x19:0x800031f4
       92895000	      9288	800035d4	41845893	srai	x17,x8,0x18	  x8:0xbe6e46d6 x17=0xffffffbe
       92905000	      9289	800035d8	01abda93	srli	x21,x23,0x1a	 x23:0x00004000 x21=0x00000000
       92915000	      9290	800035dc	8bb10c13	addi	x24,x2,-1861	  x2:0x00000104 x24=0xfffff9bf
       92925000	      9291	800035e0	40f25893	srai	x17,x4,0xf	  x4:0x00000000 x17=0x00000000
       92935000	      9292	800035e4	f1036893	ori	x17,x6,-240	  x6:0x80009fc4 x17=0xffffffd4
       92945000	      9293	800035e8	48794037	lui	x0,0x48794	
       92955000	      9294	800035ec	00b0da63	bge	x1,x11,80003600	  x1:0x00000001 x11:0x00000000
       92965000	      9295	00000000	00000013	addi	x0,x0,0	  x0:0x00000000
       92975000	      9296	800035fc	00000013	addi	x0,x0,0	  x0:0x00000000
       92985000	      9297	80003600	0007c733	xor	x14,x15,x0	 x15:0x000005ad  x0:0x00000000 x14=0x000005ad
       92995000	      9298	80003604	00c7aeb3	slt	x29,x15,x12	 x15:0x000005ad x12:0xaf5c75ac x29=0x00000000
       93005000	      9299	80003608	00a38863	beq	x7,x10,80003618	  x7:0x80000000 x10:0x80009f24
       93015000	      9300	8000360c	01fcb9b3	sltu	x19,x25,x31	 x25:0xfffff000 x31:0x00000000 x19=0x00000000
       93025000	      9301	80003610	f7d27a17	auipc	x20,0xf7d27	 x20=0x77d2a60c
       93035000	      9302	80003614	4196dd93	srai	x27,x13,0x19	 x13:0x3e6eded7 x27=0x0000001f
       93045000	      9303	80003618	00a16c63	bltu	x2,x10,80003630	  x2:0x00000104 x10:0x80009f24
       93055000	      9304	00000000	00000013	addi	x0,x0,0	  x0:0x00000000
       93065000	      9305	8000362c	00000013	addi	x0,x0,0	  x0:0x00000000
       93075000	      9306	80003630	00435e63	bge	x6,x4,8000364c	  x6:0x80009fc4  x4:0x00000000
       93085000	      9307	80003634	013e7b33	and	x22,x28,x19	 x28:0xfffffc5f x19:0x00000000 x22=0x00000000
       93095000	      9308	80003638	056ec663	blt	x29,x22,80003684	 x29:0x00000000 x22:0x00000000
       93105000	      9309	8000363c	0519c663	blt	x19,x17,80003688	 x19:0x00000000 x17:0xffffffd4
       93115000	      9310	80003640	1cd42193	slti	x3,x8,461	  x8:0xbe6e46d6  x3=0x00000001
       93125000	      9311	80003644	01077c63	bgeu	x14,x16,8000365c	 x14:0x000005ad x16:0x00000000
       93135000	      9312	00000000	00000013	addi	x0,x0,0	  x0:0x00000000
       93145000	      9313	80003658	00000013	addi	x0,x0,0	  x0:0x00000000
       93155000	      9314	8000365c	01ea6463	bltu	x20,x30,80003664	 x20:0x77d2a60c x30:0x00000001
       93165000	      9315	80003660	0176e933	or	x18,x13,x23	 x13:0x3e6eded7 x23:0x00004000 x18=0x3e6eded7
       93175000	      9316	80003664	fbc70193	addi	x3,x14,-68	 x14:0x000005ad  x3=0x00000569
       93185000	      9317	80003668	00000013	addi	x0,x0,0	  x0:0x00000000
       93195000	      9318	8000366c	02f94063	blt	x18,x15,8000368c	 x18:0x3e6eded7 x15:0x000005ad
       93205000	      9319	80003670	0147e263	bltu	x15,x20,80003674	 x15:0x000005ad x20:0x77d2a60c
       93215000	      9320	00000000	00000013	addi	x0,x0,0	  x0:0x00000000
       93225000	      9321	80003670	00000013	addi	x0,x0,0	  x0:0x00000000
       93235000	      9322	80003674	01f567b3	or	x15,x10,x31	 x10:0x80009f24 x31:0x00000000 x15=0x80009f24
       93245000	      9323	80003678	412a8733	sub	x14,x21,x18	 x21:0x00000000 x18:0x3e6eded7 x14=0xc1912129
       93255000	      9324	8000367c	011d1593	slli	x11,x26,0x11	 x26:0x884e45ff x11=0x8bfe0000
       93265000	      9325	80003680	01bbac33	slt	x24,x23,x27	 x23:0x00004000 x27:0x0000001f x24=0x00000000
       93275000	      9326	80003684	0119cc63	blt	x19,x17,8000369c	 x19:0x00000000 x17:0xffffffd4
       93285000	      9327	80003688	98f4cd13	xori	x26,x9,-1649	  x9:0x5ff00000 x26=0xa00ff98f
       93295000	      9328	8000368c	41cfd093	srai	x1,x31,0x1c	 x31:0x00000000  x1=0x00000000
       93305000	      9329	80003690	003fb4b3	sltu	x9,x31,x3	 x31:0x00000000  x3:0x00000569  x9=0x00000001
       93315000	      9330	80003694	fc25a193	slti	x3,x11,-62	 x11:0x8bfe0000  x3=0x00000001
       93325000	      9331	80003698	0134dc33	srl	x24,x9,x19	  x9:0x00000001 x19:0x00000000 x24=0x00000001
       93335000	      9332	8000369c	f949bc93	sltiu	x25,x19,-108	 x19:0x00000000 x25=0x00000001
       93345000	      9333	800036a0	016b1d33	sll	x26,x22,x22	 x22:0x00000000 x22:0x00000000 x26=0x00000000
       93355000	      9334	800036a4	01704b93	xori	x23,x0,23	  x0:0x00000000 x23=0x00000017
       93365000	      9335	800036a8	63b66493	ori	x9,x12,1595	 x12:0xaf5c75ac  x9=0xaf5c77bf
       93375000	      9336	800036ac	001e5eb3	srl	x29,x28,x1	 x28:0xfffffc5f  x1:0x00000000 x29=0xfffffc5f
       93385000	      9337	800036b0	002dc3b3	xor	x7,x27,x2	 x27:0x0000001f  x2:0x00000104  x7=0x0000011b
       93395000	      9338	800036b4	01dd4f33	xor	x30,x26,x29	 x26:0x00000000 x29:0xfffffc5f x30=0xfffffc5f
       93405000	      9339	800036b8	00e933b3	sltu	x7,x18,x14	 x18:0x3e6eded7 x14:0xc1912129  x7=0x00000001
       93415000	      9340	800036bc	05178863	beq	x15,x17,8000370c	 x15:0x80009f24 x17:0xffffffd4
       93425000	      9341	800036c0	000b2433	slt	x8,x22,x0	 x22:0x00000000  x0:0x00000000  x8=0x00000000
       93435000	      9342	800036c4	40910cb3	sub	x25,x2,x9	  x2:0x00000104  x9:0xaf5c77bf x25=0x50a38945
       93445000	      9343	800036c8	00a2df33	srl	x30,x5,x10	  x5:0x00000000 x10:0x80009f24 x30=0x00000000
       93455000	      9344	800036cc	01c31d33	sll	x26,x6,x28	  x6:0x80009fc4 x28:0xfffffc5f x26=0x00000000
       93465000	      9345	800036d0	0014b833	sltu	x16,x9,x1	  x9:0xaf5c77bf  x1:0x00000000 x16=0x00000000
       93475000	      9346	800036d4	b605a493	slti	x9,x11,-1184	 x11:0x8bfe0000  x9=0x00000001
       93485000	      9347	800036d8	93627993	andi	x19,x4,-1738	  x4:0x00000000 x19=0x00000000
       93495000	      9348	800036dc	01abe3b3	or	x7,x23,x26	 x23:0x00000017 x26:0x00000000  x7=0x00000017
       93505000	      9349	800036e0	dc46a817	auipc	x16,0xdc46a	 x16=0x5c46d6dc
       93515000	      9350	800036e4	00e6b5b3	sltu	x11,x13,x14	 x13:0x3e6eded7 x14:0xc1912129 x11=0x00000001
       93525000	      9351	800036e8	f4590393	addi	x7,x18,-187	 x18:0x3e6eded7  x7=0x3e6ede1c
       93535000	      9352	800036ec	01f769b3	or	x19,x14,x31	 x14:0xc1912129 x31:0x00000000 x19=0xc1912129
       93545000	      9353	800036f0	000ef9b3	and	x19,x29,x0	 x29:0xfffffc5f  x0:0x00000000 x19=0x00000000
       93555000	      9354	800036f4	83e58b93	addi	x23,x11,-1986	 x11:0x00000001 x23=0xfffff83f
       93565000	      9355	800036f8	013b5613	srli	x12,x22,0x13	 x22:0x00000000 x12=0x00000000
       93575000	      9356	800036fc	006a9b13	slli	x22,x21,0x6	 x21:0x00000000 x22=0x00000000
       93585000	      9357	80003700	00771433	sll	x8,x14,x7	 x14:0xc1912129  x7:0x3e6ede1c  x8=0x90000000
       93595000	      9358	80003704	7b27f713	andi	x14,x15,1970	 x15:0x80009f24 x14=0x00000720
       93605000	      9359	80003708	37eb3a93	sltiu	x21,x22,894	 x22:0x00000000 x21=0x00000001
       93615000	      9360	8000370c	fa783013	sltiu	x0,x16,-89	 x16:0x5c46d6dc
       93625000	      9361	80003710	00000013	addi	x0,x0,0	  x0:0x00000000
       93635000	      9362	80003714	fcdd7713	andi	x14,x26,-51	 x26:0x00000000 x14=0x00000000
       93645000	      9363	80003718	9dec2637	lui	x12,0x9dec2	 x12=0x9dec2000
       93655000	      9364	8000371c	01d61d33	sll	x26,x12,x29	 x12:0x9dec2000 x29:0xfffffc5f x26=0x00000000
       93665000	      9365	80003720	a5987f17	auipc	x30,0xa5987	 x30=0x2598a71c
       93675000	      9366	80003724	00a188b3	add	x17,x3,x10	  x3:0x00000001 x10:0x80009f24 x17=0x80009f25
       93685000	      9367	80003728	01f05c93	srli	x25,x0,0x1f	  x0:0x00000000 x25=0x00000000
       93695000	      9368	8000372c	40250233	sub	x4,x10,x2	 x10:0x80009f24  x2:0x00000104  x4=0x80009e20
       93705000	      9369	80003730	f6a22c93	slti	x25,x4,-150	  x4:0x80009e20 x25=0x00000001
       93715000	      9370	80003734	41520033	sub	x0,x4,x21	  x4:0x80009e20 x21:0x00000001
       93725000	      9371	80003738	822c6013	ori	x0,x24,-2014	 x24:0x00000001
       93735000	      9372	8000373c	003f1db3	sll	x27,x30,x3	 x30:0x2598a71c  x3:0x00000001 x27=0x4b314e38
       93745000	      9373	80003740	007c5933	srl	x18,x24,x7	 x24:0x00000001  x7:0x3e6ede1c x18=0x00000000
       93755000	      9374	80003744	0090a933	slt	x18,x1,x9	  x1:0x00000000  x9:0x00000001 x18=0x00000001
       93765000	      9375	80003748	e5768793	addi	x15,x13,-425	 x13:0x3e6eded7 x15=0x3e6edd2e
       93775000	      9376	8000374c	00724c63	blt	x4,x7,80003764	  x4:0x80009e20  x7:0x3e6ede1c
       93785000	      9377	00000000	00000013	addi	x0,x0,0	  x0:0x00000000
       93795000	      9378	80003760	00000013	addi	x0,x0,0	  x0:0x00000000
       93805000	      9379	80003764	0012eb33	or	x22,x5,x1	  x5:0x00000000  x1:0x00000000 x22=0x00000000
       93815000	      9380	80003768	005097b3	sll	x15,x1,x5	  x1:0x00000000  x5:0x00000000 x15=0x00000000
       93825000	      9381	8000376c	00000013	addi	x0,x0,0	  x0:0x00000000
       93835000	      9382	80003770	00802133	slt	x2,x0,x8	  x0:0x00000000  x8:0x90000000  x2=0x00000000
       93845000	      9383	80003774	0104b133	sltu	x2,x9,x16	  x9:0x00000001 x16:0x5c46d6dc  x2=0x00000001
       93855000	      9384	80003778	76bacd93	xori	x27,x21,1899	 x21:0x00000001 x27=0x0000076a
       93865000	      9385	8000377c	b0890593	addi	x11,x18,-1272	 x18:0x00000001 x11=0xfffffb09
       93875000	      9386	80003780	adf5b093	sltiu	x1,x11,-1313	 x11:0xfffffb09  x1=0x00000000
       93885000	      9387	80003784	01629193	slli	x3,x5,0x16	  x5:0x00000000  x3=0x00000000
       93895000	      9388	80003788	05a44263	blt	x8,x26,800037cc	  x8:0x90000000 x26:0x00000000
       93905000	      9389	00000000	00000013	addi	x0,x0,0	  x0:0x00000000
       93915000	      9390	800037c8	00000013	addi	x0,x0,0	  x0:0x00000000
       93925000	      9391	800037cc	1fc6c613	xori	x12,x13,508	 x13:0x3e6eded7 x12=0x3e6edf2b
       93935000	      9392	800037d0	60442913	slti	x18,x8,1540	  x8:0x90000000 x18=0x00000001
       93945000	      9393	800037d4	00911593	slli	x11,x2,0x9	  x2:0x00000001 x11=0x00000200
       93955000	      9394	800037d8	ee404d13	xori	x26,x0,-284	  x0:0x00000000 x26=0xfffffee4
       93965000	      9395	800037dc	0248fe63	bgeu	x17,x4,80003818	 x17:0x80009f25  x4:0x80009e20
       93975000	      9396	00000000	00000013	addi	x0,x0,0	  x0:0x00000000
       93985000	      9397	80003814	00000013	addi	x0,x0,0	  x0:0x00000000
       93995000	      9398	80003818	09f36237	lui	x4,0x9f36	  x4=0x09f36000
       94005000	      9399	8000381c	0062dc63	bge	x5,x6,80003834	  x5:0x00000000  x6:0x80009fc4
       94015000	      9400	00000000	00000013	addi	x0,x0,0	  x0:0x00000000
       94025000	      9401	80003830	00000013	addi	x0,x0,0	  x0:0x00000000
       94035000	      9402	80003834	04b0f463	bgeu	x1,x11,8000387c	  x1:0x00000000 x11:0x00000200
       94045000	      9403	80003838	81a94197	auipc	x3,0x81a94	  x3=0x01a97834
       94055000	      9404	8000383c	009457b3	srl	x15,x8,x9	  x8:0x90000000  x9:0x00000001 x15=0x48000000
       94065000	      9405	80003840	00ba42b3	xor	x5,x20,x11	 x20:0x77d2a60c x11:0x00000200  x5=0x77d2a40c
       94075000	      9406	80003844	015f1e63	bne	x30,x21,80003860	 x30:0x2598a71c x21:0x00000001
       94085000	      9407	00000000	00000013	addi	x0,x0,0	  x0:0x00000000
       94095000	      9408	8000385c	00000013	addi	x0,x0,0	  x0:0x00000000
       94105000	      9409	80003860	a8686c93	ori	x25,x16,-1402	 x16:0x5c46d6dc x25=0xfffffede
       94115000	      9410	80003864	927de217	auipc	x4,0x927de	  x4=0x127e1860
       94125000	      9411	80003868	002ad213	srli	x4,x21,0x2	 x21:0x00000001  x4=0x00000000
       94135000	      9412	8000386c	01afe1b3	or	x3,x31,x26	 x31:0x00000000 x26:0xfffffee4  x3=0xfffffee4
       94145000	      9413	80003870	0014c633	xor	x12,x9,x1	  x9:0x00000001  x1:0x00000000 x12=0x00000001
       94155000	      9414	80003874	02929263	bne	x5,x9,80003898	  x5:0x77d2a40c  x9:0x00000001
       94165000	      9415	00000000	00000013	addi	x0,x0,0	  x0:0x00000000
       94175000	      9416	80003894	00000013	addi	x0,x0,0	  x0:0x00000000
       94185000	      9417	80003898	01548bb3	add	x23,x9,x21	  x9:0x00000001 x21:0x00000001 x23=0x00000002
       94195000	      9418	8000389c	036b1e63	bne	x22,x22,800038d8	 x22:0x00000000 x22:0x00000000
       94205000	      9419	800038a0	dc613c93	sltiu	x25,x2,-570	  x2:0x00000001 x25=0x00000001
       94215000	      9420	800038a4	00aad863	bge	x21,x10,800038b4	 x21:0x00000001 x10:0x80009f24
       94225000	      9421	00000000	00000013	addi	x0,x0,0	  x0:0x00000000
       94235000	      9422	800038b0	00000013	addi	x0,x0,0	  x0:0x00000000
       94245000	      9423	800038b4	01795593	srli	x11,x18,0x17	 x18:0x00000001 x11=0x00000000
       94255000	      9424	800038b8	41130433	sub	x8,x6,x17	  x6:0x80009fc4 x17:0x80009f25  x8=0x0000009f
       94265000	      9425	800038bc	7cfc9837	lui	x16,0x7cfc9	 x16=0x7cfc9000
       94275000	      9426	800038c0	c6c1f393	andi	x7,x3,-916	  x3:0xfffffee4  x7=0xfffffc64
       94285000	      9427	800038c4	045cc663	blt	x25,x5,80003910	 x25:0x00000001  x5:0x77d2a40c
       94295000	      9428	00000000	00000013	addi	x0,x0,0	  x0:0x00000000
       94305000	      9429	8000390c	00000013	addi	x0,x0,0	  x0:0x00000000
       94315000	      9430	80003910	77280c13	addi	x24,x16,1906	 x16:0x7cfc9000 x24=0x7cfc9772
       94325000	      9431	80003914	09d08063	beq	x1,x29,80003994	  x1:0x00000000 x29:0xfffffc5f
       94335000	      9432	80003918	007cd113	srli	x2,x25,0x7	 x25:0x00000001  x2=0x00000000
       94345000	      9433	8000391c	09d64e63	blt	x12,x29,800039b8	 x12:0x00000001 x29:0xfffffc5f
       94355000	      9434	80003920	891dea93	ori	x21,x27,-1903	 x27:0x0000076a x21=0xfffffffb
       94365000	      9435	80003924	41055033	sra	x0,x10,x16	 x10:0x80009f24 x16:0x7cfc9000
       94375000	      9436	80003928	006999b3	sll	x19,x19,x6	 x19:0x00000000  x6:0x80009fc4 x19=0x00000000
       94385000	      9437	8000392c	001adcb3	srl	x25,x21,x1	 x21:0xfffffffb  x1:0x00000000 x25=0xfffffffb
       94395000	      9438	80003930	01800d6f	jal	x26,80003930	 x26=0x80003930
       94405000	      9439	00000000	00000013	addi	x0,x0,0	  x0:0x00000000
       94415000	      9440	80003944	00000013	addi	x0,x0,0	  x0:0x00000000
       94425000	      9441	80003948	03c000ef	jal	x1,80003948	  x1=0x80003948
       94435000	      9442	00000000	00000013	addi	x0,x0,0	  x0:0x00000000
       94445000	      9443	80003980	00000013	addi	x0,x0,0	  x0:0x00000000
       94455000	      9444	80003984	fe1ff0ef	jal	x1,80003984	  x1=0x80003984
       94465000	      9445	00000000	00000013	addi	x0,x0,0	  x0:0x00000000
       94475000	      9446	80003960	00000013	addi	x0,x0,0	  x0:0x00000000
       94485000	      9447	80003964	ff9ffd6f	jal	x26,80003964	 x26=0x80003964
       94495000	      9448	00000000	00000013	addi	x0,x0,0	  x0:0x00000000
       94505000	      9449	80003958	00000013	addi	x0,x0,0	  x0:0x00000000
       94515000	      9450	8000395c	fe5ff0ef	jal	x1,8000395c	  x1=0x8000395c
       94525000	      9451	00000000	00000013	addi	x0,x0,0	  x0:0x00000000
       94535000	      9452	8000393c	00000013	addi	x0,x0,0	  x0:0x00000000
       94545000	      9453	80003940	034000ef	jal	x1,80003940	  x1=0x80003940
       94555000	      9454	00000000	00000013	addi	x0,x0,0	  x0:0x00000000
       94565000	      9455	80003970	00000013	addi	x0,x0,0	  x0:0x00000000
       94575000	      9456	80003974	ffdff0ef	jal	x1,80003974	  x1=0x80003974
       94585000	      9457	00000000	00000013	addi	x0,x0,0	  x0:0x00000000
       94595000	      9458	8000396c	00000013	addi	x0,x0,0	  x0:0x00000000
       94605000	      9459	80003970	fc5ffa6f	jal	x20,80003970	 x20=0x80003970
       94615000	      9460	00000000	00000013	addi	x0,x0,0	  x0:0x00000000
       94625000	      9461	80003930	00000013	addi	x0,x0,0	  x0:0x00000000
       94635000	      9462	80003934	038000ef	jal	x1,80003934	  x1=0x80003934
       94645000	      9463	00000000	00000013	addi	x0,x0,0	  x0:0x00000000
       94655000	      9464	80003968	00000013	addi	x0,x0,0	  x0:0x00000000
       94665000	      9465	8000396c	fd1ff0ef	jal	x1,8000396c	  x1=0x8000396c
       94675000	      9466	00000000	00000013	addi	x0,x0,0	  x0:0x00000000
       94685000	      9467	80003938	00000013	addi	x0,x0,0	  x0:0x00000000
       94695000	      9468	8000393c	018000ef	jal	x1,8000393c	  x1=0x8000393c
       94705000	      9469	00000000	00000013	addi	x0,x0,0	  x0:0x00000000
       94715000	      9470	80003950	00000013	addi	x0,x0,0	  x0:0x00000000
       94725000	      9471	80003954	014000ef	jal	x1,80003954	  x1=0x80003954
       94735000	      9472	00000000	00000013	addi	x0,x0,0	  x0:0x00000000
       94745000	      9473	80003964	00000013	addi	x0,x0,0	  x0:0x00000000
       94755000	      9474	80003968	018005ef	jal	x11,80003968	 x11=0x80003968
       94765000	      9475	00000000	00000013	addi	x0,x0,0	  x0:0x00000000
       94775000	      9476	8000397c	00000013	addi	x0,x0,0	  x0:0x00000000
       94785000	      9477	80003980	fd9ff0ef	jal	x1,80003980	  x1=0x80003980
       94795000	      9478	00000000	00000013	addi	x0,x0,0	  x0:0x00000000
       94805000	      9479	80003954	00000013	addi	x0,x0,0	  x0:0x00000000
       94815000	      9480	80003958	ff5ff9ef	jal	x19,80003958	 x19=0x80003958
       94825000	      9481	00000000	00000013	addi	x0,x0,0	  x0:0x00000000
       94835000	      9482	80003948	00000013	addi	x0,x0,0	  x0:0x00000000
       94845000	      9483	8000394c	004000ef	jal	x1,8000394c	  x1=0x8000394c
       94855000	      9484	00000000	00000013	addi	x0,x0,0	  x0:0x00000000
       94865000	      9485	8000394c	00000013	addi	x0,x0,0	  x0:0x00000000
       94875000	      9486	80003950	010000ef	jal	x1,80003950	  x1=0x80003950
       94885000	      9487	00000000	00000013	addi	x0,x0,0	  x0:0x00000000
       94895000	      9488	8000395c	00000013	addi	x0,x0,0	  x0:0x00000000
       94905000	      9489	80003960	fe5ff0ef	jal	x1,80003960	  x1=0x80003960
       94915000	      9490	00000000	00000013	addi	x0,x0,0	  x0:0x00000000
       94925000	      9491	80003940	00000013	addi	x0,x0,0	  x0:0x00000000
       94935000	      9492	80003944	034000ef	jal	x1,80003944	  x1=0x80003944
       94945000	      9493	00000000	00000013	addi	x0,x0,0	  x0:0x00000000
       94955000	      9494	80003974	00000013	addi	x0,x0,0	  x0:0x00000000
       94965000	      9495	80003978	fc1ff2ef	jal	x5,80003978	  x5=0x80003978
       94975000	      9496	00000000	00000013	addi	x0,x0,0	  x0:0x00000000
       94985000	      9497	80003934	00000013	addi	x0,x0,0	  x0:0x00000000
       94995000	      9498	80003938	044000ef	jal	x1,80003938	  x1=0x80003938
       95005000	      9499	00000000	00000013	addi	x0,x0,0	  x0:0x00000000
       95015000	      9500	80003978	00000013	addi	x0,x0,0	  x0:0x00000000
       95025000	      9501	8000397c	00c0016f	jal	x2,8000397c	  x2=0x8000397c
       95035000	      9502	00000000	00000013	addi	x0,x0,0	  x0:0x00000000
       95045000	      9503	80003984	00000013	addi	x0,x0,0	  x0:0x00000000
       95055000	      9504	80003988	01e0fc33	and	x24,x1,x30	  x1:0x80003938 x30:0x2598a71c x24=0x00002118
       95065000	      9505	8000398c	019cde33	srl	x28,x25,x25	 x25:0xfffffffb x25:0xfffffffb x28=0x0000001f
       95075000	      9506	80003990	05591663	bne	x18,x21,800039dc	 x18:0x00000001 x21:0xfffffffb
       95085000	      9507	00000000	00000013	addi	x0,x0,0	  x0:0x00000000
       95095000	      9508	800039d8	00000013	addi	x0,x0,0	  x0:0x00000000
       95105000	      9509	800039dc	4925ee37	lui	x28,0x4925e	 x28=0x4925e000
       95115000	      9510	800039e0	057b4263	blt	x22,x23,80003a24	 x22:0x00000000 x23:0x00000002
       95125000	      9511	00000000	00000013	addi	x0,x0,0	  x0:0x00000000
       95135000	      9512	80003a20	00000013	addi	x0,x0,0	  x0:0x00000000
       95145000	      9513	80003a24	01353ab3	sltu	x21,x10,x19	 x10:0x80009f24 x19:0x80003958 x21=0x00000000
       95155000	      9514	80003a28	01b05863	bge	x0,x27,80003a38	  x0:0x00000000 x27:0x0000076a
       95165000	      9515	80003a2c	00da1863	bne	x20,x13,80003a3c	 x20:0x80003970 x13:0x3e6eded7
       95175000	      9516	00000000	00000013	addi	x0,x0,0	  x0:0x00000000
       95185000	      9517	80003a38	00000013	addi	x0,x0,0	  x0:0x00000000
       95195000	      9518	80003a3c	000fcdb3	xor	x27,x31,x0	 x31:0x00000000  x0:0x00000000 x27=0x00000000
       95205000	      9519	80003a40	01f30cb3	add	x25,x6,x31	  x6:0x80009fc4 x31:0x00000000 x25=0x80009fc4
       95215000	      9520	80003a44	41d55633	sra	x12,x10,x29	 x10:0x80009f24 x29:0xfffffc5f x12=0xffffffff
       95225000	      9521	80003a48	000cf263	bgeu	x25,x0,80003a4c	 x25:0x80009fc4  x0:0x00000000
       95235000	      9522	00000000	00000013	addi	x0,x0,0	  x0:0x00000000
       95245000	      9523	80003a48	00000013	addi	x0,x0,0	  x0:0x00000000
       95255000	      9524	80003a4c	445f8e93	addi	x29,x31,1093	 x31:0x00000000 x29=0x00000445
       95265000	      9525	80003a50	402d0db3	sub	x27,x26,x2	 x26:0x80003964  x2:0x8000397c x27=0xffffffe8
       95275000	      9526	80003a54	007d9393	slli	x7,x27,0x7	 x27:0xffffffe8  x7=0xfffff400
       95285000	      9527	80003a58	01e0ec63	bltu	x1,x30,80003a70	  x1:0x80003938 x30:0x2598a71c
       95295000	      9528	80003a5c	9f538d13	addi	x26,x7,-1547	  x7:0xfffff400 x26=0xffffedf5
       95305000	      9529	80003a60	00000013	addi	x0,x0,0	  x0:0x00000000
       95315000	      9530	80003a64	01f6e933	or	x18,x13,x31	 x13:0x3e6eded7 x31:0x00000000 x18=0x3e6eded7
       95325000	      9531	80003a68	5d365d97	auipc	x27,0x5d365	 x27=0xdd368a64
       95335000	      9532	80003a6c	c10a8a93	addi	x21,x21,-1008	 x21:0x00000000 x21=0xfffffc10
       95345000	      9533	80003a70	007e35b3	sltu	x11,x28,x7	 x28:0x4925e000  x7:0xfffff400 x11=0x00000001
       95355000	      9534	80003a74	002bfb33	and	x22,x23,x2	 x23:0x00000002  x2:0x8000397c x22=0x00000000
       95365000	      9535	80003a78	007b8eb3	add	x29,x23,x7	 x23:0x00000002  x7:0xfffff400 x29=0xfffff402
       95375000	      9536	80003a7c	a5432b13	slti	x22,x6,-1452	  x6:0x80009fc4 x22=0x00000001
       95385000	      9537	80003a80	004aeb33	or	x22,x21,x4	 x21:0xfffffc10  x4:0x00000000 x22=0xfffffc10
       95395000	      9538	80003a84	40125ab3	sra	x21,x4,x1	  x4:0x00000000  x1:0x80003938 x21=0x00000000
       95405000	      9539	80003a88	3ab1e413	ori	x8,x3,939	  x3:0xfffffee4  x8=0xffffffef
       95415000	      9540	80003a8c	04da4663	blt	x20,x13,80003ad8	 x20:0x80003970 x13:0x3e6eded7
       95425000	      9541	00000000	00000013	addi	x0,x0,0	  x0:0x00000000
       95435000	      9542	80003ad4	00000013	addi	x0,x0,0	  x0:0x00000000
       95445000	      9543	80003ad8	016a7a63	bgeu	x20,x22,80003aec	 x20:0x80003970 x22:0xfffffc10
       95455000	      9544	80003adc	8ce24b37	lui	x22,0x8ce24	 x22=0x8ce24000
       95465000	      9545	80003ae0	f55cc7b7	lui	x15,0xf55cc	 x15=0xf55cc000
       95475000	      9546	80003ae4	41a3dd93	srai	x27,x7,0x1a	  x7:0xfffff400 x27=0xffffffff
       95485000	      9547	80003ae8	ec81de37	lui	x28,0xec81d	 x28=0xec81d000
       95495000	      9548	80003aec	018e8f33	add	x30,x29,x24	 x29:0xfffff402 x24:0x00002118 x30=0x0000151a
       95505000	      9549	80003af0	03c5e863	bltu	x11,x28,80003b20	 x11:0x00000001 x28:0xec81d000
       95515000	      9550	00000000	00000013	addi	x0,x0,0	  x0:0x00000000
       95525000	      9551	80003b1c	00000013	addi	x0,x0,0	  x0:0x00000000
       95535000	      9552	80003b20	0500f063	bgeu	x1,x16,80003b60	  x1:0x80003938 x16:0x7cfc9000
       95545000	      9553	00000000	00000013	addi	x0,x0,0	  x0:0x00000000
       95555000	      9554	80003b5c	00000013	addi	x0,x0,0	  x0:0x00000000
       95565000	      9555	80003b60	73eb6f13	ori	x30,x22,1854	 x22:0x8ce24000 x30=0x8ce2473e
       95575000	      9556	80003b64	00b91c63	bne	x18,x11,80003b7c	 x18:0x3e6eded7 x11:0x00000001
       95585000	      9557	00000000	00000013	addi	x0,x0,0	  x0:0x00000000
       95595000	      9558	80003b78	00000013	addi	x0,x0,0	  x0:0x00000000
       95605000	      9559	80003b7c	01ce9ab3	sll	x21,x29,x28	 x29:0xfffff402 x28:0xec81d000 x21=0xfffff402
       95615000	      9560	80003b80	01c5fb33	and	x22,x11,x28	 x11:0x00000001 x28:0xec81d000 x22=0x00000000
       95625000	      9561	80003b84	00349e33	sll	x28,x9,x3	  x9:0x00000001  x3:0xfffffee4 x28=0x00000010
       95635000	      9562	80003b88	00cc1133	sll	x2,x24,x12	 x24:0x00002118 x12:0xffffffff  x2=0x00000000
       95645000	      9563	80003b8c	e30ff913	andi	x18,x31,-464	 x31:0x00000000 x18=0x00000000
       95655000	      9564	80003b90	01349793	slli	x15,x9,0x13	  x9:0x00000001 x15=0x00080000
       95665000	      9565	80003b94	00158263	beq	x11,x1,80003b98	 x11:0x00000001  x1:0x80003938
       95675000	      9566	80003b98	0015bf33	sltu	x30,x11,x1	 x11:0x00000001  x1:0x80003938 x30=0x00000001
       95685000	      9567	80003b9c	00b6d733	srl	x14,x13,x11	 x13:0x3e6eded7 x11:0x00000001 x14=0x1f376f6b
       95695000	      9568	80003ba0	05a1e663	bltu	x3,x26,80003bec	  x3:0xfffffee4 x26:0xffffedf5
       95705000	      9569	80003ba4	57167e93	andi	x29,x12,1393	 x12:0xffffffff x29=0x00000571
       95715000	      9570	80003ba8	e7d66f93	ori	x31,x12,-387	 x12:0xffffffff x31=0xffffffff
       95725000	      9571	80003bac	405b0f33	sub	x30,x22,x5	 x22:0x00000000  x5:0x80003978 x30=0x7fffc688
       95735000	      9572	80003bb0	00000013	addi	x0,x0,0	  x0:0x00000000
       95745000	      9573	80003bb4	01aed733	srl	x14,x29,x26	 x29:0x00000571 x26:0xffffedf5 x14=0x00000000
       95755000	      9574	80003bb8	04fdf863	bgeu	x27,x15,80003c08	 x27:0xffffffff x15:0x00080000
       95765000	      9575	00000000	00000013	addi	x0,x0,0	  x0:0x00000000
       95775000	      9576	80003c04	00000013	addi	x0,x0,0	  x0:0x00000000
       95785000	      9577	80003c08	01c548b3	xor	x17,x10,x28	 x10:0x80009f24 x28:0x00000010 x17=0x80009f34
       95795000	      9578	80003c0c	01cdd0b3	srl	x1,x27,x28	 x27:0xffffffff x28:0x00000010  x1=0x0000ffff
       95805000	      9579	80003c10	3fdf2617	auipc	x12,0x3fdf2	 x12=0xbfdf5c0c
       95815000	      9580	80003c14	f8d199b7	lui	x19,0xf8d19	 x19=0xf8d19000
       95825000	      9581	80003c18	06317893	andi	x17,x2,99	  x2:0x00000000 x17=0x00000000
       95835000	      9582	80003c1c	e7750013	addi	x0,x10,-393	 x10:0x80009f24
       95845000	      9583	80003c20	00eafa33	and	x20,x21,x14	 x21:0xfffff402 x14:0x00000000 x20=0x00000000
       95855000	      9584	80003c24	4012dfb3	sra	x31,x5,x1	  x5:0x80003978  x1:0x0000ffff x31=0xffffffff
       95865000	      9585	80003c28	001faab3	slt	x21,x31,x1	 x31:0xffffffff  x1:0x0000ffff x21=0x00000001
       95875000	      9586	80003c2c	03a59063	bne	x11,x26,80003c4c	 x11:0x00000001 x26:0xffffedf5
       95885000	      9587	00000000	00000013	addi	x0,x0,0	  x0:0x00000000
       95895000	      9588	80003c48	00000013	addi	x0,x0,0	  x0:0x00000000
       95905000	      9589	80003c4c	41685f13	srai	x30,x16,0x16	 x16:0x7cfc9000 x30=0x000001f3
       95915000	      9590	80003c50	04210463	beq	x2,x2,80003c98	  x2:0x00000000  x2:0x00000000
       95925000	      9591	00000000	00000013	addi	x0,x0,0	  x0:0x00000000
       95935000	      9592	80003c94	00000013	addi	x0,x0,0	  x0:0x00000000
       95945000	      9593	80003c98	053e4663	blt	x28,x19,80003ce4	 x28:0x00000010 x19:0xf8d19000
       95955000	      9594	80003c9c	41bd8233	sub	x4,x27,x27	 x27:0xffffffff x27:0xffffffff  x4=0x00000000
       95965000	      9595	80003ca0	019a0863	beq	x20,x25,80003cb0	 x20:0x00000000 x25:0x80009fc4
       95975000	      9596	80003ca4	00170ab3	add	x21,x14,x1	 x14:0x00000000  x1:0x0000ffff x21=0x0000ffff
       95985000	      9597	80003ca8	94973d17	auipc	x26,0x94973	 x26=0x14976ca4
       95995000	      9598	80003cac	4004d013	srai	x0,x9,0x0	  x9:0x00000001
       96005000	      9599	80003cb0	00000013	addi	x0,x0,0	  x0:0x00000000
       96015000	      9600	80003cb4	40b1db33	sra	x22,x3,x11	  x3:0xfffffee4 x11:0x00000001 x22=0xffffff72
       96025000	      9601	80003cb8	a7833c13	sltiu	x24,x6,-1416	  x6:0x80009fc4 x24=0x00000001
       96035000	      9602	80003cbc	00ef8cb3	add	x25,x31,x14	 x31:0xffffffff x14:0x00000000 x25=0xffffffff
       96045000	      9603	80003cc0	79ace093	ori	x1,x25,1946	 x25:0xffffffff  x1=0xffffffff
       96055000	      9604	80003cc4	014c8033	add	x0,x25,x20	 x25:0xffffffff x20:0x00000000
       96065000	      9605	80003cc8	00fddc93	srli	x25,x27,0xf	 x27:0xffffffff x25=0x0001ffff
       96075000	      9606	80003ccc	3a290993	addi	x19,x18,930	 x18:0x00000000 x19=0x000003a2
       96085000	      9607	80003cd0	00f87c63	bgeu	x16,x15,80003ce8	 x16:0x7cfc9000 x15:0x00080000
       96095000	      9608	00000000	00000013	addi	x0,x0,0	  x0:0x00000000
       96105000	      9609	80003ce4	00000013	addi	x0,x0,0	  x0:0x00000000
       96115000	      9610	80003ce8	20184593	xori	x11,x16,513	 x16:0x7cfc9000 x11=0x7cfc9201
       96125000	      9611	80003cec	7c488b93	addi	x23,x17,1988	 x17:0x00000000 x23=0x000007c4
       96135000	      9612	80003cf0	0163d613	srli	x12,x7,0x16	  x7:0xfffff400 x12=0x000003ff
       96145000	      9613	80003cf4	00737263	bgeu	x6,x7,80003cf8	  x6:0x80009fc4  x7:0xfffff400
       96155000	      9614	80003cf8	01932bb3	slt	x23,x6,x25	  x6:0x80009fc4 x25:0x0001ffff x23=0x00000001
       96165000	      9615	80003cfc	001f4c63	blt	x30,x1,80003d14	 x30:0x000001f3  x1:0xffffffff
       96175000	      9616	80003d00	00bdf833	and	x16,x27,x11	 x27:0xffffffff x11:0x7cfc9201 x16=0x7cfc9201
       96185000	      9617	80003d04	09231917	auipc	x18,0x9231	 x18=0x89234d00
       96195000	      9618	80003d08	00f394b3	sll	x9,x7,x15	  x7:0xfffff400 x15:0x00080000  x9=0xfffff400
       96205000	      9619	80003d0c	016462b3	or	x5,x8,x22	  x8:0xffffffef x22:0xffffff72  x5=0xffffffff
       96215000	      9620	80003d10	02ec5463	bge	x24,x14,80003d38	 x24:0x00000001 x14:0x00000000
       96225000	      9621	00000000	00000013	addi	x0,x0,0	  x0:0x00000000
       96235000	      9622	80003d34	00000013	addi	x0,x0,0	  x0:0x00000000
       96245000	      9623	80003d38	082fce63	blt	x31,x2,80003dd4	 x31:0xffffffff  x2:0x00000000
       96255000	      9624	00000000	00000013	addi	x0,x0,0	  x0:0x00000000
       96265000	      9625	80003dd0	00000013	addi	x0,x0,0	  x0:0x00000000
       96275000	      9626	80003dd4	0007fcb3	and	x25,x15,x0	 x15:0x00080000  x0:0x00000000 x25=0x00000000
       96285000	      9627	80003dd8	41e98cb3	sub	x25,x19,x30	 x19:0x000003a2 x30:0x000001f3 x25=0x000001af
       96295000	      9628	80003ddc	41a75a13	srai	x20,x14,0x1a	 x14:0x00000000 x20=0x00000000
       96305000	      9629	80003de0	044fd663	bge	x31,x4,80003e2c	 x31:0xffffffff  x4:0x00000000
       96315000	      9630	80003de4	aef5e993	ori	x19,x11,-1297	 x11:0x7cfc9201 x19=0xfffffaef
       96325000	      9631	80003de8	00100fb3	add	x31,x0,x1	  x0:0x00000000  x1:0xffffffff x31=0xffffffff
       96335000	      9632	80003dec	fb8f0717	auipc	x14,0xfb8f0	 x14=0x7b8f3de8
       96345000	      9633	80003df0	41ff0233	sub	x4,x30,x31	 x30:0x000001f3 x31:0xffffffff  x4=0x000001f4
       96355000	      9634	80003df4	f8ca3193	sltiu	x3,x20,-116	 x20:0x00000000  x3=0x00000001
       96365000	      9635	80003df8	00067ab3	and	x21,x12,x0	 x12:0x000003ff  x0:0x00000000 x21=0x00000000
       96375000	      9636	80003dfc	cc03fd13	andi	x26,x7,-832	  x7:0xfffff400 x26=0xfffff400
       96385000	      9637	80003e00	41ecaa17	auipc	x20,0x41eca	 x20=0xc1ecddfc
       96395000	      9638	80003e04	9347b013	sltiu	x0,x15,-1740	 x15:0x00080000
       96405000	      9639	80003e08	47145cb7	lui	x25,0x47145	 x25=0x47145000
       96415000	      9640	80003e0c	012a0c63	beq	x20,x18,80003e24	 x20:0xc1ecddfc x18:0x89234d00
       96425000	      9641	80003e10	01a27463	bgeu	x4,x26,80003e18	  x4:0x000001f4 x26:0xfffff400
       96435000	      9642	80003e14	002ef4b3	and	x9,x29,x2	 x29:0x00000571  x2:0x00000000  x9=0x00000000
       96445000	      9643	80003e18	99c3f813	andi	x16,x7,-1636	  x7:0xfffff400 x16=0xfffff000
       96455000	      9644	80003e1c	00211893	slli	x17,x2,0x2	  x2:0x00000000 x17=0x00000000
       96465000	      9645	80003e20	0014fbb3	and	x23,x9,x1	  x9:0x00000000  x1:0xffffffff x23=0x00000000
       96475000	      9646	80003e24	7f9b4c93	xori	x25,x22,2041	 x22:0xffffff72 x25=0xfffff88b
       96485000	      9647	80003e28	9d2e0817	auipc	x16,0x9d2e0	 x16=0x1d2e3e24
       96495000	      9648	80003e2c	00693133	sltu	x2,x18,x6	 x18:0x89234d00  x6:0x80009fc4  x2=0x00000000
       96505000	      9649	80003e30	4029d433	sra	x8,x19,x2	 x19:0xfffffaef  x2:0x00000000  x8=0xfffffaef
       96515000	      9650	80003e34	01775a63	bge	x14,x23,80003e48	 x14:0x7b8f3de8 x23:0x00000000
       96525000	      9651	00000000	00000013	addi	x0,x0,0	  x0:0x00000000
       96535000	      9652	80003e44	00000013	addi	x0,x0,0	  x0:0x00000000
       96545000	      9653	80003e48	41640933	sub	x18,x8,x22	  x8:0xfffffaef x22:0xffffff72 x18=0xfffffb7d
       96555000	      9654	80003e4c	f5f44113	xori	x2,x8,-161	  x8:0xfffffaef  x2=0x000005b0
       96565000	      9655	80003e50	01f25e33	srl	x28,x4,x31	  x4:0x000001f4 x31:0xffffffff x28=0x00000000
       96575000	      9656	80003e54	99298b93	addi	x23,x19,-1646	 x19:0xfffffaef x23=0xfffff481
       96585000	      9657	80003e58	00666733	or	x14,x12,x6	 x12:0x000003ff  x6:0x80009fc4 x14=0x80009fff
       96595000	      9658	80003e5c	40488bb3	sub	x23,x17,x4	 x17:0x00000000  x4:0x000001f4 x23=0xfffffe0c
       96605000	      9659	80003e60	00452d03	lw	x26,4(x10)	 x10:0x80009f24 x26=0x8000450c PA:0x80009f28
       96615000	      9660	80003e64	01850513	addi	x10,x10,24	 x10:0x80009f24 x10=0x80009f3c
       96625000	      9661	80003e68	013d04b3	add	x9,x26,x19	 x26:0x8000450c x19:0xfffffaef  x9=0x80003ffb
       96635000	      9662	80003e6c	f630e393	ori	x7,x1,-157	  x1:0xffffffff  x7=0xffffffff
       96645000	      9663	80003e70	000d0e93	addi	x29,x26,0	 x26:0x8000450c x29=0x8000450c
       96655000	      9664	80003e74	000e8ee7	jalr	x29,x29,0	 x29:0x8000450c x29=0x80003e74
       96665000	      9665	00000000	00000013	addi	x0,x0,0	  x0:0x00000000
       96675000	      9666	8000450c	00000013	addi	x0,x0,0	  x0:0x00000000
       96685000	      9667	80004510	85b86713	ori	x14,x16,-1957	 x16:0x1d2e3e24 x14=0xfffffe7f
       96695000	      9668	80004514	0e718f97	auipc	x31,0xe718	 x31=0x8e71c510
       96705000	      9669	80004518	01409f93	slli	x31,x1,0x14	  x1:0xffffffff x31=0xfff00000
       96715000	      9670	8000451c	00000197	auipc	x3,0x0	  x3=0x80004518
       96725000	      9671	80004520	95c18193	addi	x3,x3,-1700	  x3:0x80004518  x3=0x80003e74
       96735000	      9672	80004524	29318193	addi	x3,x3,659	  x3:0x80003e74  x3=0x80004107
       96745000	      9673	80004528	e5e96913	ori	x18,x18,-418	 x18:0xfffffb7d x18=0xffffff7f
       96755000	      9674	8000452c	f7aa7b13	andi	x22,x20,-134	 x20:0xc1ecddfc x22=0xc1ecdd78
       96765000	      9675	80004530	e1b52a93	slti	x21,x10,-485	 x10:0x80009f3c x21=0x00000001
       96775000	      9676	80004534	00e4b933	sltu	x18,x9,x14	  x9:0x80003ffb x14:0xfffffe7f x18=0x00000001
       96785000	      9677	80004538	00960863	beq	x12,x9,80004548	 x12:0x000003ff  x9:0x80003ffb
       96795000	      9678	8000453c	00000013	addi	x0,x0,0	  x0:0x00000000
       96805000	      9679	80004540	00d724b3	slt	x9,x14,x13	 x14:0xfffffe7f x13:0x3e6eded7  x9=0x00000001
       96815000	      9680	80004544	d41ab413	sltiu	x8,x21,-703	 x21:0x00000001  x8=0x00000001
       96825000	      9681	80004548	d6e18d67	jalr	x26,x3,-658	  x3:0x80004107 x26=0x80004548
       96835000	      9682	00000000	00000013	addi	x0,x0,0	  x0:0x00000000
       96845000	      9683	80003e74	00000013	addi	x0,x0,0	  x0:0x00000000
       96855000	      9684	80003e78	ff850513	addi	x10,x10,-8	 x10:0x80009f3c x10=0x80009f34
       96865000	      9685	80003e7c	d7304613	xori	x12,x0,-653	  x0:0x00000000 x12=0xfffffd73
       96875000	      9686	80003e80	0048b9b3	sltu	x19,x17,x4	 x17:0x00000000  x4:0x000001f4 x19=0x00000001
       96885000	      9687	80003e84	01a52223	sw	x26,4(x10)	 x10:0x80009f34 x26:0x80004548 PA:0x80009f38
       96895000	      9688	80003e88	01f78db3	add	x27,x15,x31	 x15:0x00080000 x31:0xfff00000 x27=0xfff80000
       96905000	      9689	80003e8c	0057de33	srl	x28,x15,x5	 x15:0x00080000  x5:0xffffffff x28=0x00000000
       96915000	      9690	80003e90	00000013	addi	x0,x0,0	  x0:0x00000000
       96925000	      9691	80003e94	0168b5b3	sltu	x11,x17,x22	 x17:0x00000000 x22:0xc1ecdd78 x11=0x00000001
       96935000	      9692	80003e98	2b4f4293	xori	x5,x30,692	 x30:0x000001f3  x5=0x00000347
       96945000	      9693	80003e9c	012925b3	slt	x11,x18,x18	 x18:0x00000001 x18:0x00000001 x11=0x00000000
       96955000	      9694	80003ea0	01800d6f	jal	x26,80003ea0	 x26=0x80003ea0
       96965000	      9695	00000000	00000013	addi	x0,x0,0	  x0:0x00000000
       96975000	      9696	80003eb4	00000013	addi	x0,x0,0	  x0:0x00000000
       96985000	      9697	80003eb8	008000ef	jal	x1,80003eb8	  x1=0x80003eb8
       96995000	      9698	00000000	00000013	addi	x0,x0,0	  x0:0x00000000
       97005000	      9699	80003ebc	00000013	addi	x0,x0,0	  x0:0x00000000
       97015000	      9700	80003ec0	ff1ff0ef	jal	x1,80003ec0	  x1=0x80003ec0
       97025000	      9701	00000000	00000013	addi	x0,x0,0	  x0:0x00000000
       97035000	      9702	80003eac	00000013	addi	x0,x0,0	  x0:0x00000000
       97045000	      9703	80003eb0	004000ef	jal	x1,80003eb0	  x1=0x80003eb0
       97055000	      9704	00000000	00000013	addi	x0,x0,0	  x0:0x00000000
       97065000	      9705	80003eb0	00000013	addi	x0,x0,0	  x0:0x00000000
       97075000	      9706	80003eb4	01400b6f	jal	x22,80003eb4	 x22=0x80003eb4
       97085000	      9707	00000000	00000013	addi	x0,x0,0	  x0:0x00000000
       97095000	      9708	80003ec4	00000013	addi	x0,x0,0	  x0:0x00000000
       97105000	      9709	80003ec8	fe1ffaef	jal	x21,80003ec8	 x21=0x80003ec8
       97115000	      9710	00000000	00000013	addi	x0,x0,0	  x0:0x00000000
       97125000	      9711	80003ea4	00000013	addi	x0,x0,0	  x0:0x00000000
       97135000	      9712	80003ea8	024002ef	jal	x5,80003ea8	  x5=0x80003ea8
       97145000	      9713	00000000	00000013	addi	x0,x0,0	  x0:0x00000000
       97155000	      9714	80003ec8	00000013	addi	x0,x0,0	  x0:0x00000000
       97165000	      9715	80003ecc	ff1ff0ef	jal	x1,80003ecc	  x1=0x80003ecc
       97175000	      9716	00000000	00000013	addi	x0,x0,0	  x0:0x00000000
       97185000	      9717	80003eb8	00000013	addi	x0,x0,0	  x0:0x00000000
       97195000	      9718	80003ebc	ff1ff0ef	jal	x1,80003ebc	  x1=0x80003ebc
       97205000	      9719	00000000	00000013	addi	x0,x0,0	  x0:0x00000000
       97215000	      9720	80003ea8	00000013	addi	x0,x0,0	  x0:0x00000000
       97225000	      9721	80003eac	024000ef	jal	x1,80003eac	  x1=0x80003eac
       97235000	      9722	00000000	00000013	addi	x0,x0,0	  x0:0x00000000
       97245000	      9723	80003ecc	00000013	addi	x0,x0,0	  x0:0x00000000
       97255000	      9724	80003ed0	fd5ff8ef	jal	x17,80003ed0	 x17=0x80003ed0
       97265000	      9725	00000000	00000013	addi	x0,x0,0	  x0:0x00000000
       97275000	      9726	80003ea0	00000013	addi	x0,x0,0	  x0:0x00000000
       97285000	      9727	80003ea4	020000ef	jal	x1,80003ea4	  x1=0x80003ea4
       97295000	      9728	00000000	00000013	addi	x0,x0,0	  x0:0x00000000
       97305000	      9729	80003ec0	00000013	addi	x0,x0,0	  x0:0x00000000
       97315000	      9730	80003ec4	01000b6f	jal	x22,80003ec4	 x22=0x80003ec4
       97325000	      9731	00000000	00000013	addi	x0,x0,0	  x0:0x00000000
       97335000	      9732	80003ed0	00000013	addi	x0,x0,0	  x0:0x00000000
       97345000	      9733	80003ed4	0040016f	jal	x2,80003ed4	  x2=0x80003ed4
       97355000	      9734	00000000	00000013	addi	x0,x0,0	  x0:0x00000000
       97365000	      9735	80003ed4	00000013	addi	x0,x0,0	  x0:0x00000000
       97375000	      9736	80003ed8	002ecbb3	xor	x23,x29,x2	 x29:0x80003e74  x2:0x80003ed4 x23=0x000000a0
       97385000	      9737	80003edc	2b14e837	lui	x16,0x2b14e	 x16=0x2b14e000
       97395000	      9738	80003ee0	038a7a63	bgeu	x20,x24,80003f14	 x20:0xc1ecddfc x24:0x00000001
       97405000	      9739	00000000	00000013	addi	x0,x0,0	  x0:0x00000000
       97415000	      9740	80003f10	00000013	addi	x0,x0,0	  x0:0x00000000
       97425000	      9741	80003f14	98944117	auipc	x2,0x98944	  x2=0x18947f10
       97435000	      9742	80003f18	0159c033	xor	x0,x19,x21	 x19:0x00000001 x21:0x80003ec8
       97445000	      9743	80003f1c	00c71863	bne	x14,x12,80003f2c	 x14:0xfffffe7f x12:0xfffffd73
       97455000	      9744	00000000	00000013	addi	x0,x0,0	  x0:0x00000000
       97465000	      9745	80003f28	00000013	addi	x0,x0,0	  x0:0x00000000
       97475000	      9746	80003f2c	00dadeb3	srl	x29,x21,x13	 x21:0x80003ec8 x13:0x3e6eded7 x29=0x00000100
       97485000	      9747	80003f30	410b5213	srai	x4,x22,0x10	 x22:0x80003ec4  x4=0xffff8000
       97495000	      9748	80003f34	00000013	addi	x0,x0,0	  x0:0x00000000
       97505000	      9749	80003f38	13284a93	xori	x21,x16,306	 x16:0x2b14e000 x21=0x2b14e132
       97515000	      9750	80003f3c	017c4933	xor	x18,x24,x23	 x24:0x00000001 x23:0x000000a0 x18=0x000000a1
       97525000	      9751	80003f40	00ce54b3	srl	x9,x28,x12	 x28:0x00000000 x12:0xfffffd73  x9=0x00000000
       97535000	      9752	80003f44	00000013	addi	x0,x0,0	  x0:0x00000000
       97545000	      9753	80003f48	02e14463	blt	x2,x14,80003f70	  x2:0x18947f10 x14:0xfffffe7f
       97555000	      9754	80003f4c	0002c933	xor	x18,x5,x0	  x5:0x80003ea8  x0:0x00000000 x18=0x80003ea8
       97565000	      9755	80003f50	00c13bb3	sltu	x23,x2,x12	  x2:0x18947f10 x12:0xfffffd73 x23=0x00000001
       97575000	      9756	80003f54	01609863	bne	x1,x22,80003f64	  x1:0x80003ea4 x22:0x80003ec4
       97585000	      9757	00000000	00000013	addi	x0,x0,0	  x0:0x00000000
       97595000	      9758	80003f60	00000013	addi	x0,x0,0	  x0:0x00000000
       97605000	      9759	80003f64	00a93eb3	sltu	x29,x18,x10	 x18:0x80003ea8 x10:0x80009f34 x29=0x00000001
       97615000	      9760	80003f68	00075f33	srl	x30,x14,x0	 x14:0xfffffe7f  x0:0x00000000 x30=0xfffffe7f
       97625000	      9761	80003f6c	04129063	bne	x5,x1,80003fac	  x5:0x80003ea8  x1:0x80003ea4
       97635000	      9762	00000000	00000013	addi	x0,x0,0	  x0:0x00000000
       97645000	      9763	80003fa8	00000013	addi	x0,x0,0	  x0:0x00000000
       97655000	      9764	80003fac	01ee5ab3	srl	x21,x28,x30	 x28:0x00000000 x30:0xfffffe7f x21=0x00000000
       97665000	      9765	80003fb0	9a05eb93	ori	x23,x11,-1632	 x11:0x00000000 x23=0xfffff9a0
       97675000	      9766	80003fb4	00bfd113	srli	x2,x31,0xb	 x31:0xfff00000  x2=0x001ffe00
       97685000	      9767	80003fb8	00452d03	lw	x26,4(x10)	 x10:0x80009f34 x26=0x80004548 PA:0x80009f38
       97695000	      9768	80003fbc	002100b3	add	x1,x2,x2	  x2:0x001ffe00  x2:0x001ffe00  x1=0x003ffc00
       97705000	      9769	80003fc0	0141c033	xor	x0,x3,x20	  x3:0x80004107 x20:0xc1ecddfc
       97715000	      9770	80003fc4	32408b13	addi	x22,x1,804	  x1:0x003ffc00 x22=0x003fff24
       97725000	      9771	80003fc8	019a8ab3	add	x21,x21,x25	 x21:0x00000000 x25:0xfffff88b x21=0xfffff88b
       97735000	      9772	80003fcc	00850513	addi	x10,x10,8	 x10:0x80009f34 x10=0x80009f3c
       97745000	      9773	80003fd0	0037c5b3	xor	x11,x15,x3	 x15:0x00080000  x3:0x80004107 x11=0x80084107
       97755000	      9774	80003fd4	0072cab3	xor	x21,x5,x7	  x5:0x80003ea8  x7:0xffffffff x21=0x7fffc157
       97765000	      9775	80003fd8	d981e213	ori	x4,x3,-616	  x3:0x80004107  x4=0xfffffd9f
       97775000	      9776	80003fdc	000d0a93	addi	x21,x26,0	 x26:0x80004548 x21=0x80004548
       97785000	      9777	80003fe0	000a8ae7	jalr	x21,x21,0	 x21:0x80004548 x21=0x80003fe0
       97795000	      9778	00000000	00000013	addi	x0,x0,0	  x0:0x00000000
       97805000	      9779	80004548	00000013	addi	x0,x0,0	  x0:0x00000000
       97815000	      9780	8000454c	01960733	add	x14,x12,x25	 x12:0xfffffd73 x25:0xfffff88b x14=0xfffff5fe
       97825000	      9781	80004550	db958893	addi	x17,x11,-583	 x11:0x80084107 x17=0x80083ec0
       97835000	      9782	80004554	01239293	slli	x5,x7,0x12	  x7:0xffffffff  x5=0xfffc0000
       97845000	      9783	80004558	b53b5097	auipc	x1,0xb53b5	  x1=0x353b9554
       97855000	      9784	8000455c	1a147293	andi	x5,x8,417	  x8:0x00000001  x5=0x00000001
       97865000	      9785	80004560	a85ffd6f	jal	x26,80004560	 x26=0x80004560
       97875000	      9786	00000000	00000013	addi	x0,x0,0	  x0:0x00000000
       97885000	      9787	80003fe0	00000013	addi	x0,x0,0	  x0:0x00000000
       97895000	      9788	80003fe4	00185f93	srli	x31,x16,0x1	 x16:0x2b14e000 x31=0x158a7000
       97905000	      9789	80003fe8	fe850513	addi	x10,x10,-24	 x10:0x80009f3c x10=0x80009f24
       97915000	      9790	80003fec	86156c93	ori	x25,x10,-1951	 x10:0x80009f24 x25=0xffffff65
       97925000	      9791	80003ff0	41000b33	sub	x22,x0,x16	  x0:0x00000000 x16:0x2b14e000 x22=0xd4eb2000
       97935000	      9792	80003ff4	2cafe117	auipc	x2,0x2cafe	  x2=0xacb01ff0
       97945000	      9793	80003ff8	01a52223	sw	x26,4(x10)	 x10:0x80009f24 x26:0x80004560 PA:0x80009f28
       97955000	      9794	80003ffc	dd412f93	slti	x31,x2,-556	  x2:0xacb01ff0 x31=0x00000001
       97965000	      9795	80004000	41615193	srai	x3,x2,0x16	  x2:0xacb01ff0  x3=0xfffffeb2
       97975000	      9796	80004004	01341013	slli	x0,x8,0x13	  x8:0x00000001
       97985000	      9797	80004008	0121b033	sltu	x0,x3,x18	  x3:0xfffffeb2 x18:0x80003ea8
       97995000	      9798	8000400c	00800d6f	jal	x26,8000400c	 x26=0x8000400c
       98005000	      9799	00000000	00000013	addi	x0,x0,0	  x0:0x00000000
       98015000	      9800	80004010	00000013	addi	x0,x0,0	  x0:0x00000000
       98025000	      9801	80004014	030000ef	jal	x1,80004014	  x1=0x80004014
       98035000	      9802	00000000	00000013	addi	x0,x0,0	  x0:0x00000000
       98045000	      9803	80004040	00000013	addi	x0,x0,0	  x0:0x00000000
       98055000	      9804	80004044	ff9ff0ef	jal	x1,80004044	  x1=0x80004044
       98065000	      9805	00000000	00000013	addi	x0,x0,0	  x0:0x00000000
       98075000	      9806	80004038	00000013	addi	x0,x0,0	  x0:0x00000000
       98085000	      9807	8000403c	fe5ff0ef	jal	x1,8000403c	  x1=0x8000403c
       98095000	      9808	00000000	00000013	addi	x0,x0,0	  x0:0x00000000
       98105000	      9809	8000401c	00000013	addi	x0,x0,0	  x0:0x00000000
       98115000	      9810	80004020	00c007ef	jal	x15,80004020	 x15=0x80004020
       98125000	      9811	00000000	00000013	addi	x0,x0,0	  x0:0x00000000
       98135000	      9812	80004028	00000013	addi	x0,x0,0	  x0:0x00000000
       98145000	      9813	8000402c	ff1ff0ef	jal	x1,8000402c	  x1=0x8000402c
       98155000	      9814	00000000	00000013	addi	x0,x0,0	  x0:0x00000000
       98165000	      9815	80004018	00000013	addi	x0,x0,0	  x0:0x00000000
       98175000	      9816	8000401c	0240026f	jal	x4,8000401c	  x4=0x8000401c
       98185000	      9817	00000000	00000013	addi	x0,x0,0	  x0:0x00000000
       98195000	      9818	8000403c	00000013	addi	x0,x0,0	  x0:0x00000000
       98205000	      9819	80004040	018000ef	jal	x1,80004040	  x1=0x80004040
       98215000	      9820	00000000	00000013	addi	x0,x0,0	  x0:0x00000000
       98225000	      9821	80004054	00000013	addi	x0,x0,0	  x0:0x00000000
       98235000	      9822	80004058	fe1ffbef	jal	x23,80004058	 x23=0x80004058
       98245000	      9823	00000000	00000013	addi	x0,x0,0	  x0:0x00000000
       98255000	      9824	80004034	00000013	addi	x0,x0,0	  x0:0x00000000
       98265000	      9825	80004038	fedff16f	jal	x2,80004038	  x2=0x80004038
       98275000	      9826	00000000	00000013	addi	x0,x0,0	  x0:0x00000000
       98285000	      9827	80004020	00000013	addi	x0,x0,0	  x0:0x00000000
       98295000	      9828	80004024	fedff0ef	jal	x1,80004024	  x1=0x80004024
       98305000	      9829	00000000	00000013	addi	x0,x0,0	  x0:0x00000000
       98315000	      9830	8000400c	00000013	addi	x0,x0,0	  x0:0x00000000
       98325000	      9831	80004010	044000ef	jal	x1,80004010	  x1=0x80004010
       98335000	      9832	00000000	00000013	addi	x0,x0,0	  x0:0x00000000
       98345000	      9833	80004050	00000013	addi	x0,x0,0	  x0:0x00000000
       98355000	      9834	80004054	ff9ff0ef	jal	x1,80004054	  x1=0x80004054
       98365000	      9835	00000000	00000013	addi	x0,x0,0	  x0:0x00000000
       98375000	      9836	80004048	00000013	addi	x0,x0,0	  x0:0x00000000
       98385000	      9837	8000404c	fe9ff0ef	jal	x1,8000404c	  x1=0x8000404c
       98395000	      9838	00000000	00000013	addi	x0,x0,0	  x0:0x00000000
       98405000	      9839	80004030	00000013	addi	x0,x0,0	  x0:0x00000000
       98415000	      9840	80004034	028000ef	jal	x1,80004034	  x1=0x80004034
       98425000	      9841	00000000	00000013	addi	x0,x0,0	  x0:0x00000000
       98435000	      9842	80004058	00000013	addi	x0,x0,0	  x0:0x00000000
       98445000	      9843	8000405c	fd5ff0ef	jal	x1,8000405c	  x1=0x8000405c
       98455000	      9844	00000000	00000013	addi	x0,x0,0	  x0:0x00000000
       98465000	      9845	8000402c	00000013	addi	x0,x0,0	  x0:0x00000000
       98475000	      9846	80004030	02000e6f	jal	x28,80004030	 x28=0x80004030
       98485000	      9847	00000000	00000013	addi	x0,x0,0	  x0:0x00000000
       98495000	      9848	8000404c	00000013	addi	x0,x0,0	  x0:0x00000000
       98505000	      9849	80004050	fc9ff86f	jal	x16,80004050	 x16=0x80004050
       98515000	      9850	00000000	00000013	addi	x0,x0,0	  x0:0x00000000
       98525000	      9851	80004014	00000013	addi	x0,x0,0	  x0:0x00000000
       98535000	      9852	80004018	0300026f	jal	x4,80004018	  x4=0x80004018
       98545000	      9853	00000000	00000013	addi	x0,x0,0	  x0:0x00000000
       98555000	      9854	80004044	00000013	addi	x0,x0,0	  x0:0x00000000
       98565000	      9855	80004048	0180046f	jal	x8,80004048	  x8=0x80004048
       98575000	      9856	00000000	00000013	addi	x0,x0,0	  x0:0x00000000
       98585000	      9857	8000405c	00000013	addi	x0,x0,0	  x0:0x00000000
       98595000	      9858	80004060	fc9ff0ef	jal	x1,80004060	  x1=0x80004060
       98605000	      9859	00000000	00000013	addi	x0,x0,0	  x0:0x00000000
       98615000	      9860	80004024	00000013	addi	x0,x0,0	  x0:0x00000000
       98625000	      9861	80004028	03c000ef	jal	x1,80004028	  x1=0x80004028
       98635000	      9862	00000000	00000013	addi	x0,x0,0	  x0:0x00000000
       98645000	      9863	80004060	00000013	addi	x0,x0,0	  x0:0x00000000
       98655000	      9864	80004064	94496813	ori	x16,x18,-1724	 x18:0x80003ea8 x16=0xffffffec
       98665000	      9865	80004068	02800d6f	jal	x26,80004068	 x26=0x80004068
       98675000	      9866	00000000	00000013	addi	x0,x0,0	  x0:0x00000000
       98685000	      9867	8000408c	00000013	addi	x0,x0,0	  x0:0x00000000
       98695000	      9868	80004090	fe1ff0ef	jal	x1,80004090	  x1=0x80004090
       98705000	      9869	00000000	00000013	addi	x0,x0,0	  x0:0x00000000
       98715000	      9870	8000406c	00000013	addi	x0,x0,0	  x0:0x00000000
       98725000	      9871	80004070	038000ef	jal	x1,80004070	  x1=0x80004070
       98735000	      9872	00000000	00000013	addi	x0,x0,0	  x0:0x00000000
       98745000	      9873	800040a4	00000013	addi	x0,x0,0	  x0:0x00000000
       98755000	      9874	800040a8	fd1ff2ef	jal	x5,800040a8	  x5=0x800040a8
       98765000	      9875	00000000	00000013	addi	x0,x0,0	  x0:0x00000000
       98775000	      9876	80004074	00000013	addi	x0,x0,0	  x0:0x00000000
       98785000	      9877	80004078	024000ef	jal	x1,80004078	  x1=0x80004078
       98795000	      9878	00000000	00000013	addi	x0,x0,0	  x0:0x00000000
       98805000	      9879	80004098	00000013	addi	x0,x0,0	  x0:0x00000000
       98815000	      9880	8000409c	fe9ff0ef	jal	x1,8000409c	  x1=0x8000409c
       98825000	      9881	00000000	00000013	addi	x0,x0,0	  x0:0x00000000
       98835000	      9882	80004080	00000013	addi	x0,x0,0	  x0:0x00000000
       98845000	      9883	80004084	010000ef	jal	x1,80004084	  x1=0x80004084
       98855000	      9884	00000000	00000013	addi	x0,x0,0	  x0:0x00000000
       98865000	      9885	80004090	00000013	addi	x0,x0,0	  x0:0x00000000
       98875000	      9886	80004094	fe9ff0ef	jal	x1,80004094	  x1=0x80004094
       98885000	      9887	00000000	00000013	addi	x0,x0,0	  x0:0x00000000
       98895000	      9888	80004078	00000013	addi	x0,x0,0	  x0:0x00000000
       98905000	      9889	8000407c	ff1ff0ef	jal	x1,8000407c	  x1=0x8000407c
       98915000	      9890	00000000	00000013	addi	x0,x0,0	  x0:0x00000000
       98925000	      9891	80004068	00000013	addi	x0,x0,0	  x0:0x00000000
       98935000	      9892	8000406c	01c000ef	jal	x1,8000406c	  x1=0x8000406c
       98945000	      9893	00000000	00000013	addi	x0,x0,0	  x0:0x00000000
       98955000	      9894	80004084	00000013	addi	x0,x0,0	  x0:0x00000000
       98965000	      9895	80004088	010000ef	jal	x1,80004088	  x1=0x80004088
       98975000	      9896	00000000	00000013	addi	x0,x0,0	  x0:0x00000000
       98985000	      9897	80004094	00000013	addi	x0,x0,0	  x0:0x00000000
       98995000	      9898	80004098	fe9ff0ef	jal	x1,80004098	  x1=0x80004098
       99005000	      9899	00000000	00000013	addi	x0,x0,0	  x0:0x00000000
       99015000	      9900	8000407c	00000013	addi	x0,x0,0	  x0:0x00000000
       99025000	      9901	80004080	ff5ff0ef	jal	x1,80004080	  x1=0x80004080
       99035000	      9902	00000000	00000013	addi	x0,x0,0	  x0:0x00000000
       99045000	      9903	80004070	00000013	addi	x0,x0,0	  x0:0x00000000
       99055000	      9904	80004074	018000ef	jal	x1,80004074	  x1=0x80004074
       99065000	      9905	00000000	00000013	addi	x0,x0,0	  x0:0x00000000
       99075000	      9906	80004088	00000013	addi	x0,x0,0	  x0:0x00000000
       99085000	      9907	8000408c	018000ef	jal	x1,8000408c	  x1=0x8000408c
       99095000	      9908	00000000	00000013	addi	x0,x0,0	  x0:0x00000000
       99105000	      9909	800040a0	00000013	addi	x0,x0,0	  x0:0x00000000
       99115000	      9910	800040a4	008000ef	jal	x1,800040a4	  x1=0x800040a4
       99125000	      9911	00000000	00000013	addi	x0,x0,0	  x0:0x00000000
       99135000	      9912	800040a8	00000013	addi	x0,x0,0	  x0:0x00000000
       99145000	      9913	800040ac	ff5ff0ef	jal	x1,800040ac	  x1=0x800040ac
       99155000	      9914	00000000	00000013	addi	x0,x0,0	  x0:0x00000000
       99165000	      9915	8000409c	00000013	addi	x0,x0,0	  x0:0x00000000
       99175000	      9916	800040a0	010000ef	jal	x1,800040a0	  x1=0x800040a0
       99185000	      9917	00000000	00000013	addi	x0,x0,0	  x0:0x00000000
       99195000	      9918	800040ac	00000013	addi	x0,x0,0	  x0:0x00000000
       99205000	      9919	800040b0	fbbc8413	addi	x8,x25,-69	 x25:0xffffff65  x8=0xffffff20
       99215000	      9920	800040b4	0387e463	bltu	x15,x24,800040dc	 x15:0x80004020 x24:0x00000001
       99225000	      9921	800040b8	00c81f93	slli	x31,x16,0xc	 x16:0xffffffec x31=0xfffec000
       99235000	      9922	800040bc	be8eb613	sltiu	x12,x29,-1048	 x29:0x00000001 x12=0x00000001
       99245000	      9923	800040c0	03f67463	bgeu	x12,x31,800040e8	 x12:0x00000001 x31:0xfffec000
       99255000	      9924	800040c4	019939b3	sltu	x19,x18,x25	 x18:0x80003ea8 x25:0xffffff65 x19=0x00000001
       99265000	      9925	800040c8	0130d233	srl	x4,x1,x19	  x1:0x800040a0 x19:0x00000001  x4=0x40002050
       99275000	      9926	800040cc	00467833	and	x16,x12,x4	 x12:0x00000001  x4:0x40002050 x16=0x00000000
       99285000	      9927	800040d0	01eed033	srl	x0,x29,x30	 x29:0x00000001 x30:0xfffffe7f
       99295000	      9928	800040d4	040bd063	bge	x23,x0,80004114	 x23:0x80004058  x0:0x00000000
       99305000	      9929	800040d8	01524c33	xor	x24,x4,x21	  x4:0x40002050 x21:0x80003fe0 x24=0xc0001fb0
       99315000	      9930	800040dc	03ed8e63	beq	x27,x30,80004118	 x27:0xfff80000 x30:0xfffffe7f
       99325000	      9931	800040e0	01eb3e33	sltu	x28,x22,x30	 x22:0xd4eb2000 x30:0xfffffe7f x28=0x00000001
       99335000	      9932	800040e4	04260263	beq	x12,x2,80004128	 x12:0x00000001  x2:0x80004038
       99345000	      9933	800040e8	da1d3937	lui	x18,0xda1d3	 x18=0xda1d3000
       99355000	      9934	800040ec	0311f663	bgeu	x3,x17,80004118	  x3:0xfffffeb2 x17:0x80083ec0
       99365000	      9935	00000000	00000013	addi	x0,x0,0	  x0:0x00000000
       99375000	      9936	80004114	00000013	addi	x0,x0,0	  x0:0x00000000
       99385000	      9937	80004118	9abf3b13	sltiu	x22,x30,-1621	 x30:0xfffffe7f x22=0x00000000
       99395000	      9938	8000411c	660fea93	ori	x21,x31,1632	 x31:0xfffec000 x21=0xfffec660
       99405000	      9939	80004120	00092bb3	slt	x23,x18,x0	 x18:0xda1d3000  x0:0x00000000 x23=0x00000001
       99415000	      9940	80004124	00b00d33	add	x26,x0,x11	  x0:0x00000000 x11:0x80084107 x26=0x80084107
       99425000	      9941	80004128	b3e64193	xori	x3,x12,-1218	 x12:0x00000001  x3=0xfffffb3f
       99435000	      9942	8000412c	40b05d13	srai	x26,x0,0xb	  x0:0x00000000 x26=0x00000000
       99445000	      9943	80004130	0186d663	bge	x13,x24,8000413c	 x13:0x3e6eded7 x24:0xc0001fb0
       99455000	      9944	00000000	00000013	addi	x0,x0,0	  x0:0x00000000
       99465000	      9945	80004138	00000013	addi	x0,x0,0	  x0:0x00000000
       99475000	      9946	8000413c	2cb740b7	lui	x1,0x2cb74	  x1=0x2cb74000
       99485000	      9947	80004140	ab19e397	auipc	x7,0xab19e	  x7=0x2b1a213c
       99495000	      9948	80004144	01e3dfb3	srl	x31,x7,x30	  x7:0x2b1a213c x30:0xfffffe7f x31=0x00000000
       99505000	      9949	80004148	00870033	add	x0,x14,x8	 x14:0xfffff5fe  x8:0xffffff20
       99515000	      9950	8000414c	01198d33	add	x26,x19,x17	 x19:0x00000001 x17:0x80083ec0 x26=0x80083ec1
       99525000	      9951	80004150	8ce1f593	andi	x11,x3,-1842	  x3:0xfffffb3f x11=0xfffff80e
       99535000	      9952	80004154	40240833	sub	x16,x8,x2	  x8:0xffffff20  x2:0x80004038 x16=0x7fffbee8
       99545000	      9953	80004158	2fcd4b13	xori	x22,x26,764	 x26:0x80083ec1 x22=0x80083c3d
       99555000	      9954	8000415c	12c40b13	addi	x22,x8,300	  x8:0xffffff20 x22=0x0000004c
       99565000	      9955	80004160	01b20263	beq	x4,x27,80004164	  x4:0x40002050 x27:0xfff80000
       99575000	      9956	80004164	025f7063	bgeu	x30,x5,80004184	 x30:0xfffffe7f  x5:0x800040a8
       99585000	      9957	00000000	00000013	addi	x0,x0,0	  x0:0x00000000
       99595000	      9958	80004180	00000013	addi	x0,x0,0	  x0:0x00000000
       99605000	      9959	80004184	02fd7463	bgeu	x26,x15,800041ac	 x26:0x80083ec1 x15:0x80004020
       99615000	      9960	00000000	00000013	addi	x0,x0,0	  x0:0x00000000
       99625000	      9961	800041a8	00000013	addi	x0,x0,0	  x0:0x00000000
       99635000	      9962	800041ac	0067d633	srl	x12,x15,x6	 x15:0x80004020  x6:0x80009fc4 x12=0x08000402
       99645000	      9963	800041b0	02428263	beq	x5,x4,800041d4	  x5:0x800040a8  x4:0x40002050
       99655000	      9964	800041b4	401d0c33	sub	x24,x26,x1	 x26:0x80083ec1  x1:0x2cb74000 x24=0x5350fec1
       99665000	      9965	800041b8	0022e433	or	x8,x5,x2	  x5:0x800040a8  x2:0x80004038  x8=0x800040b8
       99675000	      9966	800041bc	e0d0ba93	sltiu	x21,x1,-499	  x1:0x2cb74000 x21=0x00000001
       99685000	      9967	800041c0	d49b3913	sltiu	x18,x22,-695	 x22:0x0000004c x18=0x00000001
       99695000	      9968	800041c4	04699263	bne	x19,x6,80004208	 x19:0x00000001  x6:0x80009fc4
       99705000	      9969	00000000	00000013	addi	x0,x0,0	  x0:0x00000000
       99715000	      9970	80004204	00000013	addi	x0,x0,0	  x0:0x00000000
       99725000	      9971	80004208	01a682b3	add	x5,x13,x26	 x13:0x3e6eded7 x26:0x80083ec1  x5=0xbe771d98
       99735000	      9972	8000420c	000b6c63	bltu	x22,x0,80004224	 x22:0x0000004c  x0:0x00000000
       99745000	      9973	80004210	02570263	beq	x14,x5,80004234	 x14:0xfffff5fe  x5:0xbe771d98
       99755000	      9974	80004214	00c39f93	slli	x31,x7,0xc	  x7:0x2b1a213c x31=0xa213c000
       99765000	      9975	80004218	16283813	sltiu	x16,x16,354	 x16:0x7fffbee8 x16=0x00000000
       99775000	      9976	8000421c	4071d713	srai	x14,x3,0x7	  x3:0xfffffb3f x14=0xfffffff6
       99785000	      9977	80004220	0101ca63	blt	x3,x16,80004234	  x3:0xfffffb3f x16:0x00000000
       99795000	      9978	00000000	00000013	addi	x0,x0,0	  x0:0x00000000
       99805000	      9979	80004230	00000013	addi	x0,x0,0	  x0:0x00000000
       99815000	      9980	80004234	be0c7c93	andi	x25,x24,-1056	 x24:0x5350fec1 x25=0x5350fac0
       99825000	      9981	80004238	0194ce63	blt	x9,x25,80004254	  x9:0x00000000 x25:0x5350fac0
       99835000	      9982	00000000	00000013	addi	x0,x0,0	  x0:0x00000000
       99845000	      9983	80004250	00000013	addi	x0,x0,0	  x0:0x00000000
       99855000	      9984	80004254	ed5b0613	addi	x12,x22,-299	 x22:0x0000004c x12=0xffffff21
       99865000	      9985	80004258	1279bcb7	lui	x25,0x1279b	 x25=0x1279b000
       99875000	      9986	8000425c	0020be33	sltu	x28,x1,x2	  x1:0x2cb74000  x2:0x80004038 x28=0x00000001
       99885000	      9987	80004260	00452d03	lw	x26,4(x10)	 x10:0x80009f24 x26=0x80004560 PA:0x80009f28
       99895000	      9988	80004264	6b67d217	auipc	x4,0x6b67d	  x4=0xeb681260
       99905000	      9989	80004268	40975a93	srai	x21,x14,0x9	 x14:0xfffffff6 x21=0xffffffff
       99915000	      9990	8000426c	00867a33	and	x20,x12,x8	 x12:0xffffff21  x8:0x800040b8 x20=0x80004020
       99925000	      9991	80004270	01850513	addi	x10,x10,24	 x10:0x80009f24 x10=0x80009f3c
       99935000	      9992	80004274	8cb22417	auipc	x8,0x8cb22	  x8=0x0cb26270
       99945000	      9993	80004278	01415a93	srli	x21,x2,0x14	  x2:0x80004038 x21=0x00000800
       99955000	      9994	8000427c	00ebd113	srli	x2,x23,0xe	 x23:0x00000001  x2=0x00000000
       99965000	      9995	80004280	6c852393	slti	x7,x10,1736	 x10:0x80009f3c  x7=0x00000001
       99975000	      9996	80004284	0048df13	srli	x30,x17,0x4	 x17:0x80083ec0 x30=0x080083ec
       99985000	      9997	80004288	000d0613	addi	x12,x26,0	 x26:0x80004560 x12=0x80004560
       99995000	      9998	8000428c	00060667	jalr	x12,x12,0	 x12:0x80004560 x12=0x8000428c
      100005000	      9999	00000000	00000013	addi	x0,x0,0	  x0:0x00000000
      100015000	     10000	80004560	00000013	addi	x0,x0,0	  x0:0x00000000
      100025000	     10001	80004564	0130aeb3	slt	x29,x1,x19	  x1:0x2cb74000 x19:0x00000001 x29=0x00000000
      100035000	     10002	80004568	0063d7b3	srl	x15,x7,x6	  x7:0x00000001  x6:0x80009fc4 x15=0x00000000
      100045000	     10003	8000456c	9b47c113	xori	x2,x15,-1612	 x15:0x00000000  x2=0xfffff9b4
      100055000	     10004	80004570	01878e33	add	x28,x15,x24	 x15:0x00000000 x24:0x5350fec1 x28=0x5350fec1
      100065000	     10005	80004574	029cd063	bge	x25,x9,80004594	 x25:0x1279b000  x9:0x00000000
      100075000	     10006	00000000	00000013	addi	x0,x0,0	  x0:0x00000000
      100085000	     10007	80004590	00000013	addi	x0,x0,0	  x0:0x00000000
      100095000	     10008	80004594	05c76063	bltu	x14,x28,800045d4	 x14:0xfffffff6 x28:0x5350fec1
      100105000	     10009	80004598	41fdd7b3	sra	x15,x27,x31	 x27:0xfff80000 x31:0xa213c000 x15=0xfff80000
      100115000	     10010	8000459c	87a5f837	lui	x16,0x87a5f	 x16=0x87a5f000
      100125000	     10011	800045a0	3728f013	andi	x0,x17,882	 x17:0x80083ec0
      100135000	     10012	800045a4	e66c6e93	ori	x29,x24,-410	 x24:0x5350fec1 x29=0xfffffee7
      100145000	     10013	800045a8	01a98033	add	x0,x19,x26	 x19:0x00000001 x26:0x80004560
      100155000	     10014	800045ac	04619063	bne	x3,x6,800045ec	  x3:0xfffffb3f  x6:0x80009fc4
      100165000	     10015	00000000	00000013	addi	x0,x0,0	  x0:0x00000000
      100175000	     10016	800045e8	00000013	addi	x0,x0,0	  x0:0x00000000
      100185000	     10017	800045ec	0156a3b3	slt	x7,x13,x21	 x13:0x3e6eded7 x21:0x00000800  x7=0x00000000
      100195000	     10018	800045f0	00452d03	lw	x26,4(x10)	 x10:0x80009f3c x26=0x800042d8 PA:0x80009f40
      100205000	     10019	00000000	00000013	addi	x0,x0,0	  x0:0x00000000
      100215000	     10020	800045f4	41a80b33	sub	x22,x16,x26	 x16:0x87a5f000 x26:0x800042d8 x22=0x07a5ad28
      100225000	     10021	800045f8	00850513	addi	x10,x10,8	 x10:0x80009f3c x10=0x80009f44
      100235000	     10022	800045fc	fe392093	slti	x1,x18,-29	 x18:0x00000001  x1=0x00000000
      100245000	     10023	80004600	3f42c093	xori	x1,x5,1012	  x5:0xbe771d98  x1=0xbe771e6c
      100255000	     10024	80004604	001d0713	addi	x14,x26,1	 x26:0x800042d8 x14=0x800042d9
      100265000	     10025	80004608	00070767	jalr	x14,x14,0	 x14:0x800042d9 x14=0x80004608
      100275000	     10026	00000000	00000013	addi	x0,x0,0	  x0:0x00000000
      100285000	     10027	800042d8	00000013	addi	x0,x0,0	  x0:0x00000000
      100295000	     10028	800042dc	01400d6f	jal	x26,800042dc	 x26=0x800042dc
      100305000	     10029	00000000	00000013	addi	x0,x0,0	  x0:0x00000000
      100315000	     10030	800042ec	00000013	addi	x0,x0,0	  x0:0x00000000
      100325000	     10031	800042f0	018000ef	jal	x1,800042f0	  x1=0x800042f0
      100335000	     10032	00000000	00000013	addi	x0,x0,0	  x0:0x00000000
      100345000	     10033	80004304	00000013	addi	x0,x0,0	  x0:0x00000000
      100355000	     10034	80004308	fe1ff0ef	jal	x1,80004308	  x1=0x80004308
      100365000	     10035	00000000	00000013	addi	x0,x0,0	  x0:0x00000000
      100375000	     10036	800042e4	00000013	addi	x0,x0,0	  x0:0x00000000
      100385000	     10037	800042e8	010000ef	jal	x1,800042e8	  x1=0x800042e8
      100395000	     10038	00000000	00000013	addi	x0,x0,0	  x0:0x00000000
      100405000	     10039	800042f4	00000013	addi	x0,x0,0	  x0:0x00000000
      100415000	     10040	800042f8	01c000ef	jal	x1,800042f8	  x1=0x800042f8
      100425000	     10041	00000000	00000013	addi	x0,x0,0	  x0:0x00000000
      100435000	     10042	80004310	00000013	addi	x0,x0,0	  x0:0x00000000
      100445000	     10043	80004314	00c005ef	jal	x11,80004314	 x11=0x80004314
      100455000	     10044	00000000	00000013	addi	x0,x0,0	  x0:0x00000000
      100465000	     10045	8000431c	00000013	addi	x0,x0,0	  x0:0x00000000
      100475000	     10046	80004320	fddff86f	jal	x16,80004320	 x16=0x80004320
      100485000	     10047	00000000	00000013	addi	x0,x0,0	  x0:0x00000000
      100495000	     10048	800042f8	00000013	addi	x0,x0,0	  x0:0x00000000
      100505000	     10049	800042fc	01c00bef	jal	x23,800042fc	 x23=0x800042fc
      100515000	     10050	00000000	00000013	addi	x0,x0,0	  x0:0x00000000
      100525000	     10051	80004314	00000013	addi	x0,x0,0	  x0:0x00000000
      100535000	     10052	80004318	fedff0ef	jal	x1,80004318	  x1=0x80004318
      100545000	     10053	00000000	00000013	addi	x0,x0,0	  x0:0x00000000
      100555000	     10054	80004300	00000013	addi	x0,x0,0	  x0:0x00000000
      100565000	     10055	80004304	fddffcef	jal	x25,80004304	 x25=0x80004304
      100575000	     10056	00000000	00000013	addi	x0,x0,0	  x0:0x00000000
      100585000	     10057	800042dc	00000013	addi	x0,x0,0	  x0:0x00000000
      100595000	     10058	800042e0	014000ef	jal	x1,800042e0	  x1=0x800042e0
      100605000	     10059	00000000	00000013	addi	x0,x0,0	  x0:0x00000000
      100615000	     10060	800042f0	00000013	addi	x0,x0,0	  x0:0x00000000
      100625000	     10061	800042f4	01800def	jal	x27,800042f4	 x27=0x800042f4
      100635000	     10062	00000000	00000013	addi	x0,x0,0	  x0:0x00000000
      100645000	     10063	80004308	00000013	addi	x0,x0,0	  x0:0x00000000
      100655000	     10064	8000430c	010000ef	jal	x1,8000430c	  x1=0x8000430c
      100665000	     10065	00000000	00000013	addi	x0,x0,0	  x0:0x00000000
      100675000	     10066	80004318	00000013	addi	x0,x0,0	  x0:0x00000000
      100685000	     10067	8000431c	fd1ff0ef	jal	x1,8000431c	  x1=0x8000431c
      100695000	     10068	00000000	00000013	addi	x0,x0,0	  x0:0x00000000
      100705000	     10069	800042e8	00000013	addi	x0,x0,0	  x0:0x00000000
      100715000	     10070	800042ec	01400f6f	jal	x30,800042ec	 x30=0x800042ec
      100725000	     10071	00000000	00000013	addi	x0,x0,0	  x0:0x00000000
      100735000	     10072	800042fc	00000013	addi	x0,x0,0	  x0:0x00000000
      100745000	     10073	80004300	010000ef	jal	x1,80004300	  x1=0x80004300
      100755000	     10074	00000000	00000013	addi	x0,x0,0	  x0:0x00000000
      100765000	     10075	8000430c	00000013	addi	x0,x0,0	  x0:0x00000000
      100775000	     10076	80004310	fd5ff1ef	jal	x3,80004310	  x3=0x80004310
      100785000	     10077	00000000	00000013	addi	x0,x0,0	  x0:0x00000000
      100795000	     10078	800042e0	00000013	addi	x0,x0,0	  x0:0x00000000
      100805000	     10079	800042e4	040005ef	jal	x11,800042e4	 x11=0x800042e4
      100815000	     10080	00000000	00000013	addi	x0,x0,0	  x0:0x00000000
      100825000	     10081	80004320	00000013	addi	x0,x0,0	  x0:0x00000000
      100835000	     10082	80004324	24b7e893	ori	x17,x15,587	 x15:0xfff80000 x17=0xfff8024b
      100845000	     10083	80004328	013d5c63	bge	x26,x19,80004340	 x26:0x800042dc x19:0x00000001
      100855000	     10084	8000432c	01900d33	add	x26,x0,x25	  x0:0x00000000 x25:0x80004304 x26=0x80004304
      100865000	     10085	80004330	00508463	beq	x1,x5,80004338	  x1:0x80004300  x5:0xbe771d98
      100875000	     10086	80004334	00737eb3	and	x29,x6,x7	  x6:0x80009fc4  x7:0x00000000 x29=0x00000000
      100885000	     10087	80004338	3a758593	addi	x11,x11,935	 x11:0x800042e4 x11=0x8000468b
      100895000	     10088	8000433c	03206e63	bltu	x0,x18,80004378	  x0:0x00000000 x18:0x00000001
      100905000	     10089	00000000	00000013	addi	x0,x0,0	  x0:0x00000000
      100915000	     10090	80004374	00000013	addi	x0,x0,0	  x0:0x00000000
      100925000	     10091	80004378	011d9f13	slli	x30,x27,0x11	 x27:0x800042f4 x30=0x85e80000
      100935000	     10092	8000437c	009a33b3	sltu	x7,x20,x9	 x20:0x80004020  x9:0x00000000  x7=0x00000000
      100945000	     10093	80004380	00000013	addi	x0,x0,0	  x0:0x00000000
      100955000	     10094	80004384	00a3e8b3	or	x17,x7,x10	  x7:0x00000000 x10:0x80009f44 x17=0x80009f44
      100965000	     10095	80004388	00000013	addi	x0,x0,0	  x0:0x00000000
      100975000	     10096	8000438c	22e09017	auipc	x0,0x22e09	
      100985000	     10097	80004390	009d13b3	sll	x7,x26,x9	 x26:0x80004304  x9:0x00000000  x7=0x80004304
      100995000	     10098	80004394	00cd1a33	sll	x20,x26,x12	 x26:0x80004304 x12:0x8000428c x20=0x04304000
      101005000	     10099	80004398	9169b597	auipc	x11,0x9169b	 x11=0x1169f394
      101015000	     10100	8000439c	00000013	addi	x0,x0,0	  x0:0x00000000
      101025000	     10101	800043a0	0515c863	blt	x11,x17,800043f0	 x11:0x1169f394 x17:0x80009f44
      101035000	     10102	800043a4	4fb7d817	auipc	x16,0x4fb7d	 x16=0xcfb813a0
      101045000	     10103	800043a8	013a8d33	add	x26,x21,x19	 x21:0x00000800 x19:0x00000001 x26=0x00000801
      101055000	     10104	800043ac	050bc663	blt	x23,x16,800043f8	 x23:0x800042fc x16:0xcfb813a0
      101065000	     10105	00000000	00000013	addi	x0,x0,0	  x0:0x00000000
      101075000	     10106	800043f4	00000013	addi	x0,x0,0	  x0:0x00000000
      101085000	     10107	800043f8	3bd36913	ori	x18,x6,957	  x6:0x80009fc4 x18=0x80009ffd
      101095000	     10108	800043fc	7f12b413	sltiu	x8,x5,2033	  x5:0xbe771d98  x8=0x00000000
      101105000	     10109	80004400	0115c633	xor	x12,x11,x17	 x11:0x1169f394 x17:0x80009f44 x12=0x91696cd0
      101115000	     10110	80004404	00ca7033	and	x0,x20,x12	 x20:0x04304000 x12:0x91696cd0
      101125000	     10111	80004408	84a597b7	lui	x15,0x84a59	 x15=0x84a59000
      101135000	     10112	8000440c	01f385b3	add	x11,x7,x31	  x7:0x80004304 x31:0xa213c000 x11=0x22140304
      101145000	     10113	80004410	00a0c2b3	xor	x5,x1,x10	  x1:0x80004300 x10:0x80009f44  x5=0x0000dc44
      101155000	     10114	80004414	00000013	addi	x0,x0,0	  x0:0x00000000
      101165000	     10115	80004418	0069d7b3	srl	x15,x19,x6	 x19:0x00000001  x6:0x80009fc4 x15=0x00000000
      101175000	     10116	8000441c	40765b33	sra	x22,x12,x7	 x12:0x91696cd0  x7:0x80004304 x22=0xf91696cd
      101185000	     10117	80004420	01cec1b3	xor	x3,x29,x28	 x29:0x00000000 x28:0x5350fec1  x3=0x5350fec1
      101195000	     10118	80004424	02491463	bne	x18,x4,8000444c	 x18:0x80009ffd  x4:0xeb681260
      101205000	     10119	00000000	00000013	addi	x0,x0,0	  x0:0x00000000
      101215000	     10120	80004448	00000013	addi	x0,x0,0	  x0:0x00000000
      101225000	     10121	8000444c	010af3b3	and	x7,x21,x16	 x21:0x00000800 x16:0xcfb813a0  x7=0x00000000
      101235000	     10122	80004450	01f5d133	srl	x2,x11,x31	 x11:0x22140304 x31:0xa213c000  x2=0x22140304
      101245000	     10123	80004454	d5c78c93	addi	x25,x15,-676	 x15:0x00000000 x25=0xfffffd5c
      101255000	     10124	80004458	88eaf013	andi	x0,x21,-1906	 x21:0x00000800
      101265000	     10125	8000445c	017b5193	srli	x3,x22,0x17	 x22:0xf91696cd  x3=0x000001f2
      101275000	     10126	80004460	005711b3	sll	x3,x14,x5	 x14:0x80004608  x5:0x0000dc44  x3=0x00046080
      101285000	     10127	80004464	600041b7	lui	x3,0x60004	  x3=0x60004000
      101295000	     10128	80004468	4092d1b3	sra	x3,x5,x9	  x5:0x0000dc44  x9:0x00000000  x3=0x0000dc44
      101305000	     10129	8000446c	87faba93	sltiu	x21,x21,-1921	 x21:0x00000800 x21=0x00000001
      101315000	     10130	80004470	01d3c2b3	xor	x5,x7,x29	  x7:0x00000000 x29:0x00000000  x5=0x00000000
      101325000	     10131	80004474	005ff033	and	x0,x31,x5	 x31:0xa213c000  x5:0x00000000
      101335000	     10132	80004478	00c4c263	blt	x9,x12,8000447c	  x9:0x00000000 x12:0x91696cd0
      101345000	     10133	8000447c	00ed84b3	add	x9,x27,x14	 x27:0x800042f4 x14:0x80004608  x9=0x000088fc
      101355000	     10134	80004480	00452d03	lw	x26,4(x10)	 x10:0x80009f44 x26=0x800001a8 PA:0x80009f48
      101365000	     10135	80004484	7efa3293	sltiu	x5,x20,2031	 x20:0x04304000  x5=0x00000000
      101375000	     10136	80004488	bef68413	addi	x8,x13,-1041	 x13:0x3e6eded7  x8=0x3e6edac6
      101385000	     10137	8000448c	9f3d7393	andi	x7,x26,-1549	 x26:0x800001a8  x7=0x800001a0
      101395000	     10138	80004490	48ee3f93	sltiu	x31,x28,1166	 x28:0x5350fec1 x31=0x00000000
      101405000	     10139	80004494	04050513	addi	x10,x10,64	 x10:0x80009f44 x10=0x80009f84
      101415000	     10140	80004498	0075df93	srli	x31,x11,0x7	 x11:0x22140304 x31=0x00442806
      101425000	     10141	8000449c	00000013	addi	x0,x0,0	  x0:0x00000000
      101435000	     10142	800044a0	92c3b993	sltiu	x19,x7,-1748	  x7:0x800001a0 x19=0x00000001
      101445000	     10143	800044a4	01718833	add	x16,x3,x23	  x3:0x0000dc44 x23:0x800042fc x16=0x80011f40
      101455000	     10144	800044a8	0039d1b3	srl	x3,x19,x3	 x19:0x00000001  x3:0x0000dc44  x3=0x00000000
      101465000	     10145	800044ac	000d0d93	addi	x27,x26,0	 x26:0x800001a8 x27=0x800001a8
      101475000	     10146	800044b0	000d8de7	jalr	x27,x27,0	 x27:0x800001a8 x27=0x800044b0
      101485000	     10147	00000000	00000013	addi	x0,x0,0	  x0:0x00000000
      101495000	     10148	800001a8	00000013	addi	x0,x0,0	  x0:0x00000000
      101505000	     10149	800001ac	0103dab3	srl	x21,x7,x16	  x7:0x800001a0 x16:0x80011f40 x21=0x800001a0
      101515000	     10150	800001b0	dc5e8a13	addi	x20,x29,-571	 x29:0x00000000 x20=0xfffffdc5
      101525000	     10151	800001b4	40638bb3	sub	x23,x7,x6	  x7:0x800001a0  x6:0x80009fc4 x23=0xffff61dc
      101535000	     10152	800001b8	00ee2c33	slt	x24,x28,x14	 x28:0x5350fec1 x14:0x80004608 x24=0x00000000
      101545000	     10153	800001bc	afa03f13	sltiu	x30,x0,-1286	  x0:0x00000000 x30=0x00000001
      101555000	     10154	800001c0	0033e033	or	x0,x7,x3	  x7:0x800001a0  x3:0x00000000
      101565000	     10155	800001c4	00ed15b3	sll	x11,x26,x14	 x26:0x800001a8 x14:0x80004608 x11=0x0001a800
      101575000	     10156	800001c8	418a5033	sra	x0,x20,x24	 x20:0xfffffdc5 x24:0x00000000
      101585000	     10157	800001cc	00000697	auipc	x13,0x0	 x13=0x800001c8
      101595000	     10158	800001d0	00c68693	addi	x13,x13,12	 x13:0x800001c8 x13=0x800001d4
      101605000	     10159	800001d4	00068067	jalr	x0,x13,0	 x13:0x800001d4
      101615000	     10160	00000000	00000013	addi	x0,x0,0	  x0:0x00000000
      101625000	     10161	800001d4	00000013	addi	x0,x0,0	  x0:0x00000000
      101635000	     10162	800001d8	00100193	addi	x3,x0,1	  x0:0x00000000  x3=0x00000001
      101645000	     10163	800001dc	00000073	ecall	
      101655000	     10164	800001e0	00695463	bge	x18,x6,800001e8	 x18:0x80009ffd  x6:0x80009fc4
