		Time			Cycle	PC		Insn	Decoded instruction	Register and memory contents
          65000	         5	80000004	00000293	addi	x5,x0,0	  x0:0x00000000  x5=0x00000000
          75000	         6	80000008	00000313	addi	x6,x0,0	  x0:0x00000000  x6=0x00000000
          85000	         7	8000000c	00628263	beq	x5,x6,80000010	  x5:0x00000000  x6:0x00000000
          95000	         8	00000000	00000013	addi	x0,x0,0	  x0:0x00000000
         105000	         9	8000000c	00000013	addi	x0,x0,0	  x0:0x00000000
         115000	        10	80000010	00000c17	auipc	x24,0x0	 x24=0x8000000c
         125000	        11	80000014	00cc0c13	addi	x24,x24,12	 x24:0x8000000c x24=0x80000018
         135000	        12	80000018	000c0067	jalr	x0,x24,0	 x24:0x80000018
         145000	        13	00000000	00000013	addi	x0,x0,0	  x0:0x00000000
         155000	        14	80000018	00000013	addi	x0,x0,0	  x0:0x00000000
         165000	        15	8000001c	400008b7	lui	x17,0x40000	 x17=0x40000000
         175000	        16	80000020	10088893	addi	x17,x17,256	 x17:0x40000000 x17=0x40000100
         185000	        17	80000024	00000013	addi	x0,x0,0	  x0:0x00000000
         195000	        18	80000028	0000ab17	auipc	x22,0xa	 x22=0x8000a024
         205000	        19	8000002c	fa0b0b13	addi	x22,x22,-96	 x22:0x8000a024 x22=0x80009fc4
         215000	        20	80000030	00005897	auipc	x17,0x5	 x17=0x8000502c
         225000	        21	80000034	f1488893	addi	x17,x17,-236	 x17:0x8000502c x17=0x80004f40
         235000	        22	80000038	0018e893	ori	x17,x17,1	 x17:0x80004f40 x17=0x80004f41
         245000	        23	8000003c	00000013	addi	x0,x0,0	  x0:0x00000000
         255000	        24	80000040	00000897	auipc	x17,0x0	 x17=0x8000003c
         265000	        25	80000044	02088893	addi	x17,x17,32	 x17:0x8000003c x17=0x8000005c
         275000	        26	80000048	00000013	addi	x0,x0,0	  x0:0x00000000
         285000	        27	8000004c	00000013	addi	x0,x0,0	  x0:0x00000000
         295000	        28	80000050	000028b7	lui	x17,0x2	 x17=0x00002000
         305000	        29	80000054	80088893	addi	x17,x17,-2048	 x17:0x00002000 x17=0x00001800
         315000	        30	80000058	00000013	addi	x0,x0,0	  x0:0x00000000
         325000	        31	8000005c	00000013	addi	x0,x0,0	  x0:0x00000000
         335000	        32	80000060	f3393037	lui	x0,0xf3393	
         345000	        33	80000064	e0000013	addi	x0,x0,-512	  x0:0x00000000
         355000	        34	80000068	788f50b7	lui	x1,0x788f5	  x1=0x788f5000
         365000	        35	8000006c	1f508093	addi	x1,x1,501	  x1:0x788f5000  x1=0x788f51f5
         375000	        36	80000070	f17fa137	lui	x2,0xf17fa	  x2=0xf17fa000
         385000	        37	80000074	c9310113	addi	x2,x2,-877	  x2:0xf17fa000  x2=0xf17f9c93
         395000	        38	80000078	00f00193	addi	x3,x0,15	  x0:0x00000000  x3=0x0000000f
         405000	        39	8000007c	fadb2237	lui	x4,0xfadb2	  x4=0xfadb2000
         415000	        40	80000080	55720213	addi	x4,x4,1367	  x4:0xfadb2000  x4=0xfadb2557
         425000	        41	80000084	00b00293	addi	x5,x0,11	  x0:0x00000000  x5=0x0000000b
         435000	        42	80000088	80000337	lui	x6,0x80000	  x6=0x80000000
         445000	        43	8000008c	00900393	addi	x7,x0,9	  x0:0x00000000  x7=0x00000009
         455000	        44	80000090	00200413	addi	x8,x0,2	  x0:0x00000000  x8=0x00000002
         465000	        45	80000094	800004b7	lui	x9,0x80000	  x9=0x80000000
         475000	        46	80000098	00000513	addi	x10,x0,0	  x0:0x00000000 x10=0x00000000
         485000	        47	8000009c	800005b7	lui	x11,0x80000	 x11=0x80000000
         495000	        48	800000a0	e27a2637	lui	x12,0xe27a2	 x12=0xe27a2000
         505000	        49	800000a4	a0960613	addi	x12,x12,-1527	 x12:0xe27a2000 x12=0xe27a1a09
         515000	        50	800000a8	569a46b7	lui	x13,0x569a4	 x13=0x569a4000
         525000	        51	800000ac	67668693	addi	x13,x13,1654	 x13:0x569a4000 x13=0x569a4676
         535000	        52	800000b0	80000737	lui	x14,0x80000	 x14=0x80000000
         545000	        53	800000b4	aa15e7b7	lui	x15,0xaa15e	 x15=0xaa15e000
         555000	        54	800000b8	21178793	addi	x15,x15,529	 x15:0xaa15e000 x15=0xaa15e211
         565000	        55	800000bc	00500813	addi	x16,x0,5	  x0:0x00000000 x16=0x00000005
         575000	        56	800000c0	a531e8b7	lui	x17,0xa531e	 x17=0xa531e000
         585000	        57	800000c4	36d88893	addi	x17,x17,877	 x17:0xa531e000 x17=0xa531e36d
         595000	        58	800000c8	fe93b9b7	lui	x19,0xfe93b	 x19=0xfe93b000
         605000	        59	800000cc	fc398993	addi	x19,x19,-61	 x19:0xfe93b000 x19=0xfe93afc3
         615000	        60	800000d0	80000a37	lui	x20,0x80000	 x20=0x80000000
         625000	        61	800000d4	00000a93	addi	x21,x0,0	  x0:0x00000000 x21=0x00000000
         635000	        62	800000d8	fe874bb7	lui	x23,0xfe874	 x23=0xfe874000
         645000	        63	800000dc	395b8b93	addi	x23,x23,917	 x23:0xfe874000 x23=0xfe874395
         655000	        64	800000e0	febf7c37	lui	x24,0xfebf7	 x24=0xfebf7000
         665000	        65	800000e4	031c0c13	addi	x24,x24,49	 x24:0xfebf7000 x24=0xfebf7031
         675000	        66	800000e8	a3800cb7	lui	x25,0xa3800	 x25=0xa3800000
         685000	        67	800000ec	27cc8c93	addi	x25,x25,636	 x25:0xa3800000 x25=0xa380027c
         695000	        68	800000f0	00000d13	addi	x26,x0,0	  x0:0x00000000 x26=0x00000000
         705000	        69	800000f4	00a00d93	addi	x27,x0,10	  x0:0x00000000 x27=0x0000000a
         715000	        70	800000f8	80000e37	lui	x28,0x80000	 x28=0x80000000
         725000	        71	800000fc	00000e93	addi	x29,x0,0	  x0:0x00000000 x29=0x00000000
         735000	        72	80000100	0b9a5f37	lui	x30,0xb9a5	 x30=0x0b9a5000
         745000	        73	80000104	2d0f0f13	addi	x30,x30,720	 x30:0x0b9a5000 x30=0x0b9a52d0
         755000	        74	80000108	80000fb7	lui	x31,0x80000	 x31=0x80000000
         765000	        75	8000010c	0000a917	auipc	x18,0xa	 x18=0x8000a108
         775000	        76	80000110	e7c90913	addi	x18,x18,-388	 x18:0x8000a108 x18=0x80009f84
         785000	        77	80000114	00000013	addi	x0,x0,0	  x0:0x00000000
         795000	        78	80000118	00000013	addi	x0,x0,0	  x0:0x00000000
         805000	        79	8000011c	0067b7b3	sltu	x15,x15,x6	 x15:0xaa15e211  x6:0x80000000 x15=0x00000000
         815000	        80	80000120	00001997	auipc	x19,0x1	 x19=0x8000111c
         825000	        81	80000124	63498993	addi	x19,x19,1588	 x19:0x8000111c x19=0x80001750
         835000	        82	80000128	d8e98993	addi	x19,x19,-626	 x19:0x80001750 x19=0x800014de
         845000	        83	8000012c	00ec14b3	sll	x9,x24,x14	 x24:0xfebf7031 x14:0x80000000  x9=0xfebf7031
         855000	        84	80000130	e1b2fe97	auipc	x29,0xe1b2f	 x29=0x61b2f12c
         865000	        85	80000134	005a3a33	sltu	x20,x20,x5	 x20:0x80000000  x5:0x0000000b x20=0x00000000
         875000	        86	80000138	00000013	addi	x0,x0,0	  x0:0x00000000
         885000	        87	8000013c	27298f67	jalr	x30,x19,626	 x19:0x800014de x30=0x8000013c
         895000	        88	00000000	00000013	addi	x0,x0,0	  x0:0x00000000
         905000	        89	80001750	00000013	addi	x0,x0,0	  x0:0x00000000
         915000	        90	80001754	41000333	sub	x6,x0,x16	  x0:0x00000000 x16:0x00000005  x6=0xfffffffb
         925000	        91	80001758	0125f463	bgeu	x11,x18,80001760	 x11:0x80000000 x18:0x80009f84
         935000	        92	8000175c	8ab78313	addi	x6,x15,-1877	 x15:0x00000000  x6=0xfffff8ab
         945000	        93	80001760	fc090913	addi	x18,x18,-64	 x18:0x80009f84 x18=0x80009f44
         955000	        94	80001764	3571f193	andi	x3,x3,855	  x3:0x0000000f  x3=0x00000007
         965000	        95	80001768	017ee533	or	x10,x29,x23	 x29:0x61b2f12c x23:0xfe874395 x10=0xffb7f3bd
         975000	        96	8000176c	01e92223	sw	x30,4(x18)	 x18:0x80009f44 x30:0x8000013c PA:0x80009f48
         985000	        97	80001770	01365313	srli	x6,x12,0x13	 x12:0xe27a1a09  x6=0x00001c4f
         995000	        98	80001774	41355413	srai	x8,x10,0x13	 x10:0xffb7f3bd  x8=0xfffffff6
        1005000	        99	80001778	7c857f13	andi	x30,x10,1992	 x10:0xffb7f3bd x30=0x00000388
        1015000	       100	8000177c	417a5eb3	sra	x29,x20,x23	 x20:0x00000000 x23:0xfe874395 x29=0x00000000
        1025000	       101	80001780	0337f063	bgeu	x15,x19,800017a0	 x15:0x00000000 x19:0x800014de
        1035000	       102	80001784	01384fb3	xor	x31,x16,x19	 x16:0x00000005 x19:0x800014de x31=0x800014db
        1045000	       103	80001788	0c801597	auipc	x11,0xc801	 x11=0x8c802784
        1055000	       104	8000178c	e015b393	sltiu	x7,x11,-511	 x11:0x8c802784  x7=0x00000001
        1065000	       105	80001790	d9b1bc93	sltiu	x25,x3,-613	  x3:0x00000007 x25=0x00000001
        1075000	       106	80001794	dc3bf713	andi	x14,x23,-573	 x23:0xfe874395 x14=0xfe874181
        1085000	       107	80001798	e75d8a13	addi	x20,x27,-395	 x27:0x0000000a x20=0xfffffe7f
        1095000	       108	8000179c	c2d7f813	andi	x16,x15,-979	 x15:0x00000000 x16=0x00000000
        1105000	       109	800017a0	2f902f6f	jal	x30,800017a0	 x30=0x800017a0
        1115000	       110	00000000	00000013	addi	x0,x0,0	  x0:0x00000000
        1125000	       111	80004294	00000013	addi	x0,x0,0	  x0:0x00000000
        1135000	       112	80004298	0120e663	bltu	x1,x18,800042a4	  x1:0x788f51f5 x18:0x80009f44
        1145000	       113	00000000	00000013	addi	x0,x0,0	  x0:0x00000000
        1155000	       114	800042a0	00000013	addi	x0,x0,0	  x0:0x00000000
        1165000	       115	800042a4	fdc90913	addi	x18,x18,-36	 x18:0x80009f44 x18=0x80009f20
        1175000	       116	800042a8	6ceeae13	slti	x28,x29,1742	 x29:0x00000000 x28=0x00000001
        1185000	       117	800042ac	01e92223	sw	x30,4(x18)	 x18:0x80009f20 x30:0x800017a0 PA:0x80009f24
        1195000	       118	800042b0	01bba597	auipc	x11,0x1bba	 x11=0x81bbe2ac
        1205000	       119	800042b4	cf363213	sltiu	x4,x12,-781	 x12:0xe27a1a09  x4=0x00000001
        1215000	       120	800042b8	34117413	andi	x8,x2,833	  x2:0xf17f9c93  x8=0x00000001
        1225000	       121	800042bc	01e0f133	and	x2,x1,x30	  x1:0x788f51f5 x30:0x800017a0  x2=0x000011a0
        1235000	       122	800042c0	00b2aeb3	slt	x29,x5,x11	  x5:0x0000000b x11:0x81bbe2ac x29=0x00000000
        1245000	       123	800042c4	011344b3	xor	x9,x6,x17	  x6:0x00001c4f x17:0xa531e36d  x9=0xa531ff22
        1255000	       124	800042c8	f89fbf6f	jal	x30,800042c8	 x30=0x800042c8
        1265000	       125	00000000	00000013	addi	x0,x0,0	  x0:0x00000000
        1275000	       126	8000024c	00000013	addi	x0,x0,0	  x0:0x00000000
        1285000	       127	80000250	01249613	slli	x12,x9,0x12	  x9:0xa531ff22 x12=0xfc880000
        1295000	       128	80000254	00ce0463	beq	x28,x12,8000025c	 x28:0x00000001 x12:0xfc880000
        1305000	       129	80000258	0166b433	sltu	x8,x13,x22	 x13:0x569a4676 x22:0x80009fc4  x8=0x00000001
        1315000	       130	8000025c	fc490913	addi	x18,x18,-60	 x18:0x80009f20 x18=0x80009ee4
        1325000	       131	80000260	01e92223	sw	x30,4(x18)	 x18:0x80009ee4 x30:0x800042c8 PA:0x80009ee8
        1335000	       132	80000264	ffe3e813	ori	x16,x7,-2	  x7:0x00000001 x16=0xffffffff
        1345000	       133	80000268	fd368e13	addi	x28,x13,-45	 x13:0x569a4676 x28=0x569a4649
        1355000	       134	8000026c	84c13993	sltiu	x19,x2,-1972	  x2:0x000011a0 x19=0x00000001
        1365000	       135	80000270	03000f6f	jal	x30,80000270	 x30=0x80000270
        1375000	       136	00000000	00000013	addi	x0,x0,0	  x0:0x00000000
        1385000	       137	8000029c	00000013	addi	x0,x0,0	  x0:0x00000000
        1395000	       138	800002a0	0240036f	jal	x6,800002a0	  x6=0x800002a0
        1405000	       139	00000000	00000013	addi	x0,x0,0	  x0:0x00000000
        1415000	       140	800002c0	00000013	addi	x0,x0,0	  x0:0x00000000
        1425000	       141	800002c4	fedff0ef	jal	x1,800002c4	  x1=0x800002c4
        1435000	       142	00000000	00000013	addi	x0,x0,0	  x0:0x00000000
        1445000	       143	800002ac	00000013	addi	x0,x0,0	  x0:0x00000000
        1455000	       144	800002b0	004000ef	jal	x1,800002b0	  x1=0x800002b0
        1465000	       145	00000000	00000013	addi	x0,x0,0	  x0:0x00000000
        1475000	       146	800002b0	00000013	addi	x0,x0,0	  x0:0x00000000
        1485000	       147	800002b4	018002ef	jal	x5,800002b4	  x5=0x800002b4
        1495000	       148	00000000	00000013	addi	x0,x0,0	  x0:0x00000000
        1505000	       149	800002c8	00000013	addi	x0,x0,0	  x0:0x00000000
        1515000	       150	800002cc	fcdff0ef	jal	x1,800002cc	  x1=0x800002cc
        1525000	       151	00000000	00000013	addi	x0,x0,0	  x0:0x00000000
        1535000	       152	80000294	00000013	addi	x0,x0,0	  x0:0x00000000
        1545000	       153	80000298	fedff0ef	jal	x1,80000298	  x1=0x80000298
        1555000	       154	00000000	00000013	addi	x0,x0,0	  x0:0x00000000
        1565000	       155	80000280	00000013	addi	x0,x0,0	  x0:0x00000000
        1575000	       156	80000284	024000ef	jal	x1,80000284	  x1=0x80000284
        1585000	       157	00000000	00000013	addi	x0,x0,0	  x0:0x00000000
        1595000	       158	800002a4	00000013	addi	x0,x0,0	  x0:0x00000000
        1605000	       159	800002a8	fedff0ef	jal	x1,800002a8	  x1=0x800002a8
        1615000	       160	00000000	00000013	addi	x0,x0,0	  x0:0x00000000
        1625000	       161	80000290	00000013	addi	x0,x0,0	  x0:0x00000000
        1635000	       162	80000294	ffdff0ef	jal	x1,80000294	  x1=0x80000294
        1645000	       163	00000000	00000013	addi	x0,x0,0	  x0:0x00000000
        1655000	       164	8000028c	00000013	addi	x0,x0,0	  x0:0x00000000
        1665000	       165	80000290	02c000ef	jal	x1,80000290	  x1=0x80000290
        1675000	       166	00000000	00000013	addi	x0,x0,0	  x0:0x00000000
        1685000	       167	800002b8	00000013	addi	x0,x0,0	  x0:0x00000000
        1695000	       168	800002bc	fc1ff2ef	jal	x5,800002bc	  x5=0x800002bc
        1705000	       169	00000000	00000013	addi	x0,x0,0	  x0:0x00000000
        1715000	       170	80000278	00000013	addi	x0,x0,0	  x0:0x00000000
        1725000	       171	8000027c	03c00cef	jal	x25,8000027c	 x25=0x8000027c
        1735000	       172	00000000	00000013	addi	x0,x0,0	  x0:0x00000000
        1745000	       173	800002b4	00000013	addi	x0,x0,0	  x0:0x00000000
        1755000	       174	800002b8	fc9ff0ef	jal	x1,800002b8	  x1=0x800002b8
        1765000	       175	00000000	00000013	addi	x0,x0,0	  x0:0x00000000
        1775000	       176	8000027c	00000013	addi	x0,x0,0	  x0:0x00000000
        1785000	       177	80000280	00c0036f	jal	x6,80000280	  x6=0x80000280
        1795000	       178	00000000	00000013	addi	x0,x0,0	  x0:0x00000000
        1805000	       179	80000288	00000013	addi	x0,x0,0	  x0:0x00000000
        1815000	       180	8000028c	018000ef	jal	x1,8000028c	  x1=0x8000028c
        1825000	       181	00000000	00000013	addi	x0,x0,0	  x0:0x00000000
        1835000	       182	800002a0	00000013	addi	x0,x0,0	  x0:0x00000000
        1845000	       183	800002a4	ff9ff36f	jal	x6,800002a4	  x6=0x800002a4
        1855000	       184	00000000	00000013	addi	x0,x0,0	  x0:0x00000000
        1865000	       185	80000298	00000013	addi	x0,x0,0	  x0:0x00000000
        1875000	       186	8000029c	fddff36f	jal	x6,8000029c	  x6=0x8000029c
        1885000	       187	00000000	00000013	addi	x0,x0,0	  x0:0x00000000
        1895000	       188	80000274	00000013	addi	x0,x0,0	  x0:0x00000000
        1905000	       189	80000278	048000ef	jal	x1,80000278	  x1=0x80000278
        1915000	       190	00000000	00000013	addi	x0,x0,0	  x0:0x00000000
        1925000	       191	800002bc	00000013	addi	x0,x0,0	  x0:0x00000000
        1935000	       192	800002c0	fc9ff0ef	jal	x1,800002c0	  x1=0x800002c0
        1945000	       193	00000000	00000013	addi	x0,x0,0	  x0:0x00000000
        1955000	       194	80000284	00000013	addi	x0,x0,0	  x0:0x00000000
        1965000	       195	80000288	0400026f	jal	x4,80000288	  x4=0x80000288
        1975000	       196	00000000	00000013	addi	x0,x0,0	  x0:0x00000000
        1985000	       197	800002c4	00000013	addi	x0,x0,0	  x0:0x00000000
        1995000	       198	800002c8	fadff0ef	jal	x1,800002c8	  x1=0x800002c8
        2005000	       199	00000000	00000013	addi	x0,x0,0	  x0:0x00000000
        2015000	       200	80000270	00000013	addi	x0,x0,0	  x0:0x00000000
        2025000	       201	80000274	038001ef	jal	x3,80000274	  x3=0x80000274
        2035000	       202	00000000	00000013	addi	x0,x0,0	  x0:0x00000000
        2045000	       203	800002a8	00000013	addi	x0,x0,0	  x0:0x00000000
        2055000	       204	800002ac	0240076f	jal	x14,800002ac	 x14=0x800002ac
        2065000	       205	00000000	00000013	addi	x0,x0,0	  x0:0x00000000
        2075000	       206	800002cc	00000013	addi	x0,x0,0	  x0:0x00000000
        2085000	       207	800002d0	01729313	slli	x6,x5,0x17	  x5:0x800002bc  x6=0x5e000000
        2095000	       208	800002d4	03400f6f	jal	x30,800002d4	 x30=0x800002d4
        2105000	       209	00000000	00000013	addi	x0,x0,0	  x0:0x00000000
        2115000	       210	80000304	00000013	addi	x0,x0,0	  x0:0x00000000
        2125000	       211	80000308	03c0036f	jal	x6,80000308	  x6=0x80000308
        2135000	       212	00000000	00000013	addi	x0,x0,0	  x0:0x00000000
        2145000	       213	80000340	00000013	addi	x0,x0,0	  x0:0x00000000
        2155000	       214	80000344	fd1ff0ef	jal	x1,80000344	  x1=0x80000344
        2165000	       215	00000000	00000013	addi	x0,x0,0	  x0:0x00000000
        2175000	       216	80000310	00000013	addi	x0,x0,0	  x0:0x00000000
        2185000	       217	80000314	fc5ff26f	jal	x4,80000314	  x4=0x80000314
        2195000	       218	00000000	00000013	addi	x0,x0,0	  x0:0x00000000
        2205000	       219	800002d4	00000013	addi	x0,x0,0	  x0:0x00000000
        2215000	       220	800002d8	064000ef	jal	x1,800002d8	  x1=0x800002d8
        2225000	       221	00000000	00000013	addi	x0,x0,0	  x0:0x00000000
        2235000	       222	80000338	00000013	addi	x0,x0,0	  x0:0x00000000
        2245000	       223	8000033c	fb9ff0ef	jal	x1,8000033c	  x1=0x8000033c
        2255000	       224	00000000	00000013	addi	x0,x0,0	  x0:0x00000000
        2265000	       225	800002f0	00000013	addi	x0,x0,0	  x0:0x00000000
        2275000	       226	800002f4	02c000ef	jal	x1,800002f4	  x1=0x800002f4
        2285000	       227	00000000	00000013	addi	x0,x0,0	  x0:0x00000000
        2295000	       228	8000031c	00000013	addi	x0,x0,0	  x0:0x00000000
        2305000	       229	80000320	0140026f	jal	x4,80000320	  x4=0x80000320
        2315000	       230	00000000	00000013	addi	x0,x0,0	  x0:0x00000000
        2325000	       231	80000330	00000013	addi	x0,x0,0	  x0:0x00000000
        2335000	       232	80000334	ff9ff0ef	jal	x1,80000334	  x1=0x80000334
        2345000	       233	00000000	00000013	addi	x0,x0,0	  x0:0x00000000
        2355000	       234	80000328	00000013	addi	x0,x0,0	  x0:0x00000000
        2365000	       235	8000032c	ffdff0ef	jal	x1,8000032c	  x1=0x8000032c
        2375000	       236	00000000	00000013	addi	x0,x0,0	  x0:0x00000000
        2385000	       237	80000324	00000013	addi	x0,x0,0	  x0:0x00000000
        2395000	       238	80000328	0180046f	jal	x8,80000328	  x8=0x80000328
        2405000	       239	00000000	00000013	addi	x0,x0,0	  x0:0x00000000
        2415000	       240	8000033c	00000013	addi	x0,x0,0	  x0:0x00000000
        2425000	       241	80000340	fe5ff0ef	jal	x1,80000340	  x1=0x80000340
        2435000	       242	00000000	00000013	addi	x0,x0,0	  x0:0x00000000
        2445000	       243	80000320	00000013	addi	x0,x0,0	  x0:0x00000000
        2455000	       244	80000324	fbdff0ef	jal	x1,80000324	  x1=0x80000324
        2465000	       245	00000000	00000013	addi	x0,x0,0	  x0:0x00000000
        2475000	       246	800002dc	00000013	addi	x0,x0,0	  x0:0x00000000
        2485000	       247	800002e0	050000ef	jal	x1,800002e0	  x1=0x800002e0
        2495000	       248	00000000	00000013	addi	x0,x0,0	  x0:0x00000000
        2505000	       249	8000032c	00000013	addi	x0,x0,0	  x0:0x00000000
        2515000	       250	80000330	008000ef	jal	x1,80000330	  x1=0x80000330
        2525000	       251	00000000	00000013	addi	x0,x0,0	  x0:0x00000000
        2535000	       252	80000334	00000013	addi	x0,x0,0	  x0:0x00000000
        2545000	       253	80000338	fb5ff36f	jal	x6,80000338	  x6=0x80000338
        2555000	       254	00000000	00000013	addi	x0,x0,0	  x0:0x00000000
        2565000	       255	800002e8	00000013	addi	x0,x0,0	  x0:0x00000000
        2575000	       256	800002ec	010006ef	jal	x13,800002ec	 x13=0x800002ec
        2585000	       257	00000000	00000013	addi	x0,x0,0	  x0:0x00000000
        2595000	       258	800002f8	00000013	addi	x0,x0,0	  x0:0x00000000
        2605000	       259	800002fc	fedff0ef	jal	x1,800002fc	  x1=0x800002fc
        2615000	       260	00000000	00000013	addi	x0,x0,0	  x0:0x00000000
        2625000	       261	800002e4	00000013	addi	x0,x0,0	  x0:0x00000000
        2635000	       262	800002e8	01c0036f	jal	x6,800002e8	  x6=0x800002e8
        2645000	       263	00000000	00000013	addi	x0,x0,0	  x0:0x00000000
        2655000	       264	80000300	00000013	addi	x0,x0,0	  x0:0x00000000
        2665000	       265	80000304	ff5ff36f	jal	x6,80000304	  x6=0x80000304
        2675000	       266	00000000	00000013	addi	x0,x0,0	  x0:0x00000000
        2685000	       267	800002f4	00000013	addi	x0,x0,0	  x0:0x00000000
        2695000	       268	800002f8	050004ef	jal	x9,800002f8	  x9=0x800002f8
        2705000	       269	00000000	00000013	addi	x0,x0,0	  x0:0x00000000
        2715000	       270	80000344	00000013	addi	x0,x0,0	  x0:0x00000000
        2725000	       271	80000348	f95ff0ef	jal	x1,80000348	  x1=0x80000348
        2735000	       272	00000000	00000013	addi	x0,x0,0	  x0:0x00000000
        2745000	       273	800002d8	00000013	addi	x0,x0,0	  x0:0x00000000
        2755000	       274	800002dc	030000ef	jal	x1,800002dc	  x1=0x800002dc
        2765000	       275	00000000	00000013	addi	x0,x0,0	  x0:0x00000000
        2775000	       276	80000308	00000013	addi	x0,x0,0	  x0:0x00000000
        2785000	       277	8000030c	fd9ff0ef	jal	x1,8000030c	  x1=0x8000030c
        2795000	       278	00000000	00000013	addi	x0,x0,0	  x0:0x00000000
        2805000	       279	800002e0	00000013	addi	x0,x0,0	  x0:0x00000000
        2815000	       280	800002e4	00c0026f	jal	x4,800002e4	  x4=0x800002e4
        2825000	       281	00000000	00000013	addi	x0,x0,0	  x0:0x00000000
        2835000	       282	800002ec	00000013	addi	x0,x0,0	  x0:0x00000000
        2845000	       283	800002f0	010000ef	jal	x1,800002f0	  x1=0x800002f0
        2855000	       284	00000000	00000013	addi	x0,x0,0	  x0:0x00000000
        2865000	       285	800002fc	00000013	addi	x0,x0,0	  x0:0x00000000
        2875000	       286	80000300	01800fef	jal	x31,80000300	 x31=0x80000300
        2885000	       287	00000000	00000013	addi	x0,x0,0	  x0:0x00000000
        2895000	       288	80000314	00000013	addi	x0,x0,0	  x0:0x00000000
        2905000	       289	80000318	ff9ff46f	jal	x8,80000318	  x8=0x80000318
        2915000	       290	00000000	00000013	addi	x0,x0,0	  x0:0x00000000
        2925000	       291	8000030c	00000013	addi	x0,x0,0	  x0:0x00000000
        2935000	       292	80000310	00c000ef	jal	x1,80000310	  x1=0x80000310
        2945000	       293	00000000	00000013	addi	x0,x0,0	  x0:0x00000000
        2955000	       294	80000318	00000013	addi	x0,x0,0	  x0:0x00000000
        2965000	       295	8000031c	03000f6f	jal	x30,8000031c	 x30=0x8000031c
        2975000	       296	00000000	00000013	addi	x0,x0,0	  x0:0x00000000
        2985000	       297	80000348	00000013	addi	x0,x0,0	  x0:0x00000000
        2995000	       298	8000034c	8e552413	slti	x8,x10,-1819	 x10:0xffb7f3bd  x8=0x00000001
        3005000	       299	80000350	01800f6f	jal	x30,80000350	 x30=0x80000350
        3015000	       300	00000000	00000013	addi	x0,x0,0	  x0:0x00000000
        3025000	       301	80000364	00000013	addi	x0,x0,0	  x0:0x00000000
        3035000	       302	80000368	014006ef	jal	x13,80000368	 x13=0x80000368
        3045000	       303	00000000	00000013	addi	x0,x0,0	  x0:0x00000000
        3055000	       304	80000378	00000013	addi	x0,x0,0	  x0:0x00000000
        3065000	       305	8000037c	ff5ff0ef	jal	x1,8000037c	  x1=0x8000037c
        3075000	       306	00000000	00000013	addi	x0,x0,0	  x0:0x00000000
        3085000	       307	8000036c	00000013	addi	x0,x0,0	  x0:0x00000000
        3095000	       308	80000370	024000ef	jal	x1,80000370	  x1=0x80000370
        3105000	       309	00000000	00000013	addi	x0,x0,0	  x0:0x00000000
        3115000	       310	80000390	00000013	addi	x0,x0,0	  x0:0x00000000
        3125000	       311	80000394	fe1ff0ef	jal	x1,80000394	  x1=0x80000394
        3135000	       312	00000000	00000013	addi	x0,x0,0	  x0:0x00000000
        3145000	       313	80000370	00000013	addi	x0,x0,0	  x0:0x00000000
        3155000	       314	80000374	ff9ff36f	jal	x6,80000374	  x6=0x80000374
        3165000	       315	00000000	00000013	addi	x0,x0,0	  x0:0x00000000
        3175000	       316	80000368	00000013	addi	x0,x0,0	  x0:0x00000000
        3185000	       317	8000036c	00c0036f	jal	x6,8000036c	  x6=0x8000036c
        3195000	       318	00000000	00000013	addi	x0,x0,0	  x0:0x00000000
        3205000	       319	80000374	00000013	addi	x0,x0,0	  x0:0x00000000
        3215000	       320	80000378	fe5ff0ef	jal	x1,80000378	  x1=0x80000378
        3225000	       321	00000000	00000013	addi	x0,x0,0	  x0:0x00000000
        3235000	       322	80000358	00000013	addi	x0,x0,0	  x0:0x00000000
        3245000	       323	8000035c	024000ef	jal	x1,8000035c	  x1=0x8000035c
        3255000	       324	00000000	00000013	addi	x0,x0,0	  x0:0x00000000
        3265000	       325	8000037c	00000013	addi	x0,x0,0	  x0:0x00000000
        3275000	       326	80000380	fe5ff9ef	jal	x19,80000380	 x19=0x80000380
        3285000	       327	00000000	00000013	addi	x0,x0,0	  x0:0x00000000
        3295000	       328	80000360	00000013	addi	x0,x0,0	  x0:0x00000000
        3305000	       329	80000364	0340036f	jal	x6,80000364	  x6=0x80000364
        3315000	       330	00000000	00000013	addi	x0,x0,0	  x0:0x00000000
        3325000	       331	80000394	00000013	addi	x0,x0,0	  x0:0x00000000
        3335000	       332	80000398	ff5ff0ef	jal	x1,80000398	  x1=0x80000398
        3345000	       333	00000000	00000013	addi	x0,x0,0	  x0:0x00000000
        3355000	       334	80000388	00000013	addi	x0,x0,0	  x0:0x00000000
        3365000	       335	8000038c	fd5ff36f	jal	x6,8000038c	  x6=0x8000038c
        3375000	       336	00000000	00000013	addi	x0,x0,0	  x0:0x00000000
        3385000	       337	8000035c	00000013	addi	x0,x0,0	  x0:0x00000000
        3395000	       338	80000360	0300016f	jal	x2,80000360	  x2=0x80000360
        3405000	       339	00000000	00000013	addi	x0,x0,0	  x0:0x00000000
        3415000	       340	8000038c	00000013	addi	x0,x0,0	  x0:0x00000000
        3425000	       341	80000390	ff9ff0ef	jal	x1,80000390	  x1=0x80000390
        3435000	       342	00000000	00000013	addi	x0,x0,0	  x0:0x00000000
        3445000	       343	80000384	00000013	addi	x0,x0,0	  x0:0x00000000
        3455000	       344	80000388	ffdff1ef	jal	x3,80000388	  x3=0x80000388
        3465000	       345	00000000	00000013	addi	x0,x0,0	  x0:0x00000000
        3475000	       346	80000380	00000013	addi	x0,x0,0	  x0:0x00000000
        3485000	       347	80000384	fd5ff16f	jal	x2,80000384	  x2=0x80000384
        3495000	       348	00000000	00000013	addi	x0,x0,0	  x0:0x00000000
        3505000	       349	80000354	00000013	addi	x0,x0,0	  x0:0x00000000
        3515000	       350	80000358	ffdff36f	jal	x6,80000358	  x6=0x80000358
        3525000	       351	00000000	00000013	addi	x0,x0,0	  x0:0x00000000
        3535000	       352	80000350	00000013	addi	x0,x0,0	  x0:0x00000000
        3545000	       353	80000354	0480036f	jal	x6,80000354	  x6=0x80000354
        3555000	       354	00000000	00000013	addi	x0,x0,0	  x0:0x00000000
        3565000	       355	80000398	00000013	addi	x0,x0,0	  x0:0x00000000
        3575000	       356	8000039c	6a024a93	xori	x21,x4,1696	  x4:0x800002e4 x21=0x80000444
        3585000	       357	800003a0	03800f6f	jal	x30,800003a0	 x30=0x800003a0
        3595000	       358	00000000	00000013	addi	x0,x0,0	  x0:0x00000000
        3605000	       359	800003d4	00000013	addi	x0,x0,0	  x0:0x00000000
        3615000	       360	800003d8	fcdffdef	jal	x27,800003d8	 x27=0x800003d8
        3625000	       361	00000000	00000013	addi	x0,x0,0	  x0:0x00000000
        3635000	       362	800003a0	00000013	addi	x0,x0,0	  x0:0x00000000
        3645000	       363	800003a4	00c000ef	jal	x1,800003a4	  x1=0x800003a4
        3655000	       364	00000000	00000013	addi	x0,x0,0	  x0:0x00000000
        3665000	       365	800003ac	00000013	addi	x0,x0,0	  x0:0x00000000
        3675000	       366	800003b0	0340046f	jal	x8,800003b0	  x8=0x800003b0
        3685000	       367	00000000	00000013	addi	x0,x0,0	  x0:0x00000000
        3695000	       368	800003e0	00000013	addi	x0,x0,0	  x0:0x00000000
        3705000	       369	800003e4	fe9ff2ef	jal	x5,800003e4	  x5=0x800003e4
        3715000	       370	00000000	00000013	addi	x0,x0,0	  x0:0x00000000
        3725000	       371	800003c8	00000013	addi	x0,x0,0	  x0:0x00000000
        3735000	       372	800003cc	014000ef	jal	x1,800003cc	  x1=0x800003cc
        3745000	       373	00000000	00000013	addi	x0,x0,0	  x0:0x00000000
        3755000	       374	800003dc	00000013	addi	x0,x0,0	  x0:0x00000000
        3765000	       375	800003e0	fcdff0ef	jal	x1,800003e0	  x1=0x800003e0
        3775000	       376	00000000	00000013	addi	x0,x0,0	  x0:0x00000000
        3785000	       377	800003a8	00000013	addi	x0,x0,0	  x0:0x00000000
        3795000	       378	800003ac	028000ef	jal	x1,800003ac	  x1=0x800003ac
        3805000	       379	00000000	00000013	addi	x0,x0,0	  x0:0x00000000
        3815000	       380	800003d0	00000013	addi	x0,x0,0	  x0:0x00000000
        3825000	       381	800003d4	fe1ff0ef	jal	x1,800003d4	  x1=0x800003d4
        3835000	       382	00000000	00000013	addi	x0,x0,0	  x0:0x00000000
        3845000	       383	800003b0	00000013	addi	x0,x0,0	  x0:0x00000000
        3855000	       384	800003b4	010000ef	jal	x1,800003b4	  x1=0x800003b4
        3865000	       385	00000000	00000013	addi	x0,x0,0	  x0:0x00000000
        3875000	       386	800003c0	00000013	addi	x0,x0,0	  x0:0x00000000
        3885000	       387	800003c4	024000ef	jal	x1,800003c4	  x1=0x800003c4
        3895000	       388	00000000	00000013	addi	x0,x0,0	  x0:0x00000000
        3905000	       389	800003e4	00000013	addi	x0,x0,0	  x0:0x00000000
        3915000	       390	800003e8	fe9ff0ef	jal	x1,800003e8	  x1=0x800003e8
        3925000	       391	00000000	00000013	addi	x0,x0,0	  x0:0x00000000
        3935000	       392	800003cc	00000013	addi	x0,x0,0	  x0:0x00000000
        3945000	       393	800003d0	ff9fff6f	jal	x30,800003d0	 x30=0x800003d0
        3955000	       394	00000000	00000013	addi	x0,x0,0	  x0:0x00000000
        3965000	       395	800003c4	00000013	addi	x0,x0,0	  x0:0x00000000
        3975000	       396	800003c8	ff9ff36f	jal	x6,800003c8	  x6=0x800003c8
        3985000	       397	00000000	00000013	addi	x0,x0,0	  x0:0x00000000
        3995000	       398	800003bc	00000013	addi	x0,x0,0	  x0:0x00000000
        4005000	       399	800003c0	ffdff0ef	jal	x1,800003c0	  x1=0x800003c0
        4015000	       400	00000000	00000013	addi	x0,x0,0	  x0:0x00000000
        4025000	       401	800003b8	00000013	addi	x0,x0,0	  x0:0x00000000
        4035000	       402	800003bc	fedff0ef	jal	x1,800003bc	  x1=0x800003bc
        4045000	       403	00000000	00000013	addi	x0,x0,0	  x0:0x00000000
        4055000	       404	800003a4	00000013	addi	x0,x0,0	  x0:0x00000000
        4065000	       405	800003a8	0100036f	jal	x6,800003a8	  x6=0x800003a8
        4075000	       406	00000000	00000013	addi	x0,x0,0	  x0:0x00000000
        4085000	       407	800003b4	00000013	addi	x0,x0,0	  x0:0x00000000
        4095000	       408	800003b8	024002ef	jal	x5,800003b8	  x5=0x800003b8
        4105000	       409	00000000	00000013	addi	x0,x0,0	  x0:0x00000000
        4115000	       410	800003d8	00000013	addi	x0,x0,0	  x0:0x00000000
        4125000	       411	800003dc	010000ef	jal	x1,800003dc	  x1=0x800003dc
        4135000	       412	00000000	00000013	addi	x0,x0,0	  x0:0x00000000
        4145000	       413	800003e8	00000013	addi	x0,x0,0	  x0:0x00000000
        4155000	       414	800003ec	00137633	and	x12,x6,x1	  x6:0x800003a8  x1:0x800003dc x12=0x80000388
        4165000	       415	800003f0	03000f6f	jal	x30,800003f0	 x30=0x800003f0
        4175000	       416	00000000	00000013	addi	x0,x0,0	  x0:0x00000000
        4185000	       417	8000041c	00000013	addi	x0,x0,0	  x0:0x00000000
        4195000	       418	80000420	fe1ff0ef	jal	x1,80000420	  x1=0x80000420
        4205000	       419	00000000	00000013	addi	x0,x0,0	  x0:0x00000000
        4215000	       420	800003fc	00000013	addi	x0,x0,0	  x0:0x00000000
        4225000	       421	80000400	02c000ef	jal	x1,80000400	  x1=0x80000400
        4235000	       422	00000000	00000013	addi	x0,x0,0	  x0:0x00000000
        4245000	       423	80000428	00000013	addi	x0,x0,0	  x0:0x00000000
        4255000	       424	8000042c	fe5ff0ef	jal	x1,8000042c	  x1=0x8000042c
        4265000	       425	00000000	00000013	addi	x0,x0,0	  x0:0x00000000
        4275000	       426	8000040c	00000013	addi	x0,x0,0	  x0:0x00000000
        4285000	       427	80000410	00c0036f	jal	x6,80000410	  x6=0x80000410
        4295000	       428	00000000	00000013	addi	x0,x0,0	  x0:0x00000000
        4305000	       429	80000418	00000013	addi	x0,x0,0	  x0:0x00000000
        4315000	       430	8000041c	0300036f	jal	x6,8000041c	  x6=0x8000041c
        4325000	       431	00000000	00000013	addi	x0,x0,0	  x0:0x00000000
        4335000	       432	80000448	00000013	addi	x0,x0,0	  x0:0x00000000
        4345000	       433	8000044c	ff1ff0ef	jal	x1,8000044c	  x1=0x8000044c
        4355000	       434	00000000	00000013	addi	x0,x0,0	  x0:0x00000000
        4365000	       435	80000438	00000013	addi	x0,x0,0	  x0:0x00000000
        4375000	       436	8000043c	fddff56f	jal	x10,8000043c	 x10=0x8000043c
        4385000	       437	00000000	00000013	addi	x0,x0,0	  x0:0x00000000
        4395000	       438	80000414	00000013	addi	x0,x0,0	  x0:0x00000000
        4405000	       439	80000418	ffdff36f	jal	x6,80000418	  x6=0x80000418
        4415000	       440	00000000	00000013	addi	x0,x0,0	  x0:0x00000000
        4425000	       441	80000410	00000013	addi	x0,x0,0	  x0:0x00000000
        4435000	       442	80000414	01c000ef	jal	x1,80000414	  x1=0x80000414
        4445000	       443	00000000	00000013	addi	x0,x0,0	  x0:0x00000000
        4455000	       444	8000042c	00000013	addi	x0,x0,0	  x0:0x00000000
        4465000	       445	80000430	fd9ff0ef	jal	x1,80000430	  x1=0x80000430
        4475000	       446	00000000	00000013	addi	x0,x0,0	  x0:0x00000000
        4485000	       447	80000404	00000013	addi	x0,x0,0	  x0:0x00000000
        4495000	       448	80000408	03c000ef	jal	x1,80000408	  x1=0x80000408
        4505000	       449	00000000	00000013	addi	x0,x0,0	  x0:0x00000000
        4515000	       450	80000440	00000013	addi	x0,x0,0	  x0:0x00000000
        4525000	       451	80000444	ffdfff6f	jal	x30,80000444	 x30=0x80000444
        4535000	       452	00000000	00000013	addi	x0,x0,0	  x0:0x00000000
        4545000	       453	8000043c	00000013	addi	x0,x0,0	  x0:0x00000000
        4555000	       454	80000440	00800a6f	jal	x20,80000440	 x20=0x80000440
        4565000	       455	00000000	00000013	addi	x0,x0,0	  x0:0x00000000
        4575000	       456	80000444	00000013	addi	x0,x0,0	  x0:0x00000000
        4585000	       457	80000448	fddff0ef	jal	x1,80000448	  x1=0x80000448
        4595000	       458	00000000	00000013	addi	x0,x0,0	  x0:0x00000000
        4605000	       459	80000420	00000013	addi	x0,x0,0	  x0:0x00000000
        4615000	       460	80000424	014000ef	jal	x1,80000424	  x1=0x80000424
        4625000	       461	00000000	00000013	addi	x0,x0,0	  x0:0x00000000
        4635000	       462	80000434	00000013	addi	x0,x0,0	  x0:0x00000000
        4645000	       463	80000438	ff1ff0ef	jal	x1,80000438	  x1=0x80000438
        4655000	       464	00000000	00000013	addi	x0,x0,0	  x0:0x00000000
        4665000	       465	80000424	00000013	addi	x0,x0,0	  x0:0x00000000
        4675000	       466	80000428	fe5ff2ef	jal	x5,80000428	  x5=0x80000428
        4685000	       467	00000000	00000013	addi	x0,x0,0	  x0:0x00000000
        4695000	       468	80000408	00000013	addi	x0,x0,0	  x0:0x00000000
        4705000	       469	8000040c	0280036f	jal	x6,8000040c	  x6=0x8000040c
        4715000	       470	00000000	00000013	addi	x0,x0,0	  x0:0x00000000
        4725000	       471	80000430	00000013	addi	x0,x0,0	  x0:0x00000000
        4735000	       472	80000434	fc1ff36f	jal	x6,80000434	  x6=0x80000434
        4745000	       473	00000000	00000013	addi	x0,x0,0	  x0:0x00000000
        4755000	       474	800003f0	00000013	addi	x0,x0,0	  x0:0x00000000
        4765000	       475	800003f4	0080036f	jal	x6,800003f4	  x6=0x800003f4
        4775000	       476	00000000	00000013	addi	x0,x0,0	  x0:0x00000000
        4785000	       477	800003f8	00000013	addi	x0,x0,0	  x0:0x00000000
        4795000	       478	800003fc	0080086f	jal	x16,800003fc	 x16=0x800003fc
        4805000	       479	00000000	00000013	addi	x0,x0,0	  x0:0x00000000
        4815000	       480	80000400	00000013	addi	x0,x0,0	  x0:0x00000000
        4825000	       481	80000404	ff5ff0ef	jal	x1,80000404	  x1=0x80000404
        4835000	       482	00000000	00000013	addi	x0,x0,0	  x0:0x00000000
        4845000	       483	800003f4	00000013	addi	x0,x0,0	  x0:0x00000000
        4855000	       484	800003f8	058000ef	jal	x1,800003f8	  x1=0x800003f8
        4865000	       485	00000000	00000013	addi	x0,x0,0	  x0:0x00000000
        4875000	       486	8000044c	00000013	addi	x0,x0,0	  x0:0x00000000
        4885000	       487	80000450	410bd9b3	sra	x19,x23,x16	 x23:0xfe874395 x16:0x800003fc x19=0xffffffff
        4895000	       488	80000454	00c00f6f	jal	x30,80000454	 x30=0x80000454
        4905000	       489	00000000	00000013	addi	x0,x0,0	  x0:0x00000000
        4915000	       490	8000045c	00000013	addi	x0,x0,0	  x0:0x00000000
        4925000	       491	80000460	00c00a6f	jal	x20,80000460	 x20=0x80000460
        4935000	       492	00000000	00000013	addi	x0,x0,0	  x0:0x00000000
        4945000	       493	80000468	00000013	addi	x0,x0,0	  x0:0x00000000
        4955000	       494	8000046c	008000ef	jal	x1,8000046c	  x1=0x8000046c
        4965000	       495	00000000	00000013	addi	x0,x0,0	  x0:0x00000000
        4975000	       496	80000470	00000013	addi	x0,x0,0	  x0:0x00000000
        4985000	       497	80000474	ff5ff2ef	jal	x5,80000474	  x5=0x80000474
        4995000	       498	00000000	00000013	addi	x0,x0,0	  x0:0x00000000
        5005000	       499	80000464	00000013	addi	x0,x0,0	  x0:0x00000000
        5015000	       500	80000468	ff1ff0ef	jal	x1,80000468	  x1=0x80000468
        5025000	       501	00000000	00000013	addi	x0,x0,0	  x0:0x00000000
        5035000	       502	80000454	00000013	addi	x0,x0,0	  x0:0x00000000
        5045000	       503	80000458	00c0036f	jal	x6,80000458	  x6=0x80000458
        5055000	       504	00000000	00000013	addi	x0,x0,0	  x0:0x00000000
        5065000	       505	80000460	00000013	addi	x0,x0,0	  x0:0x00000000
        5075000	       506	80000464	034000ef	jal	x1,80000464	  x1=0x80000464
        5085000	       507	00000000	00000013	addi	x0,x0,0	  x0:0x00000000
        5095000	       508	80000494	00000013	addi	x0,x0,0	  x0:0x00000000
        5105000	       509	80000498	ff5ff0ef	jal	x1,80000498	  x1=0x80000498
        5115000	       510	00000000	00000013	addi	x0,x0,0	  x0:0x00000000
        5125000	       511	80000488	00000013	addi	x0,x0,0	  x0:0x00000000
        5135000	       512	8000048c	ff9ff36f	jal	x6,8000048c	  x6=0x8000048c
        5145000	       513	00000000	00000013	addi	x0,x0,0	  x0:0x00000000
        5155000	       514	80000480	00000013	addi	x0,x0,0	  x0:0x00000000
        5165000	       515	80000484	ff9ff86f	jal	x16,80000484	 x16=0x80000484
        5175000	       516	00000000	00000013	addi	x0,x0,0	  x0:0x00000000
        5185000	       517	80000478	00000013	addi	x0,x0,0	  x0:0x00000000
        5195000	       518	8000047c	00c000ef	jal	x1,8000047c	  x1=0x8000047c
        5205000	       519	00000000	00000013	addi	x0,x0,0	  x0:0x00000000
        5215000	       520	80000484	00000013	addi	x0,x0,0	  x0:0x00000000
        5225000	       521	80000488	014000ef	jal	x1,80000488	  x1=0x80000488
        5235000	       522	00000000	00000013	addi	x0,x0,0	  x0:0x00000000
        5245000	       523	80000498	00000013	addi	x0,x0,0	  x0:0x00000000
        5255000	       524	8000049c	fd5ffdef	jal	x27,8000049c	 x27=0x8000049c
        5265000	       525	00000000	00000013	addi	x0,x0,0	  x0:0x00000000
        5275000	       526	8000046c	00000013	addi	x0,x0,0	  x0:0x00000000
        5285000	       527	80000470	008000ef	jal	x1,80000470	  x1=0x80000470
        5295000	       528	00000000	00000013	addi	x0,x0,0	  x0:0x00000000
        5305000	       529	80000474	00000013	addi	x0,x0,0	  x0:0x00000000
        5315000	       530	80000478	01c000ef	jal	x1,80000478	  x1=0x80000478
        5325000	       531	00000000	00000013	addi	x0,x0,0	  x0:0x00000000
        5335000	       532	80000490	00000013	addi	x0,x0,0	  x0:0x00000000
        5345000	       533	80000494	fc9ffdef	jal	x27,80000494	 x27=0x80000494
        5355000	       534	00000000	00000013	addi	x0,x0,0	  x0:0x00000000
        5365000	       535	80000458	00000013	addi	x0,x0,0	  x0:0x00000000
        5375000	       536	8000045c	0340026f	jal	x4,8000045c	  x4=0x8000045c
        5385000	       537	00000000	00000013	addi	x0,x0,0	  x0:0x00000000
        5395000	       538	8000048c	00000013	addi	x0,x0,0	  x0:0x00000000
        5405000	       539	80000490	ff1ff0ef	jal	x1,80000490	  x1=0x80000490
        5415000	       540	00000000	00000013	addi	x0,x0,0	  x0:0x00000000
        5425000	       541	8000047c	00000013	addi	x0,x0,0	  x0:0x00000000
        5435000	       542	80000480	02000d6f	jal	x26,80000480	 x26=0x80000480
        5445000	       543	00000000	00000013	addi	x0,x0,0	  x0:0x00000000
        5455000	       544	8000049c	00000013	addi	x0,x0,0	  x0:0x00000000
        5465000	       545	800004a0	01cce033	or	x0,x25,x28	 x25:0x8000027c x28:0x569a4649
        5475000	       546	800004a4	03c00f6f	jal	x30,800004a4	 x30=0x800004a4
        5485000	       547	00000000	00000013	addi	x0,x0,0	  x0:0x00000000
        5495000	       548	800004dc	00000013	addi	x0,x0,0	  x0:0x00000000
        5505000	       549	800004e0	004001ef	jal	x3,800004e0	  x3=0x800004e0
        5515000	       550	00000000	00000013	addi	x0,x0,0	  x0:0x00000000
        5525000	       551	800004e0	00000013	addi	x0,x0,0	  x0:0x00000000
        5535000	       552	800004e4	030000ef	jal	x1,800004e4	  x1=0x800004e4
        5545000	       553	00000000	00000013	addi	x0,x0,0	  x0:0x00000000
        5555000	       554	80000510	00000013	addi	x0,x0,0	  x0:0x00000000
        5565000	       555	80000514	ff5ff6ef	jal	x13,80000514	 x13=0x80000514
        5575000	       556	00000000	00000013	addi	x0,x0,0	  x0:0x00000000
        5585000	       557	80000504	00000013	addi	x0,x0,0	  x0:0x00000000
        5595000	       558	80000508	fb1ff46f	jal	x8,80000508	  x8=0x80000508
        5605000	       559	00000000	00000013	addi	x0,x0,0	  x0:0x00000000
        5615000	       560	800004b4	00000013	addi	x0,x0,0	  x0:0x00000000
        5625000	       561	800004b8	00400bef	jal	x23,800004b8	 x23=0x800004b8
        5635000	       562	00000000	00000013	addi	x0,x0,0	  x0:0x00000000
        5645000	       563	800004b8	00000013	addi	x0,x0,0	  x0:0x00000000
        5655000	       564	800004bc	048000ef	jal	x1,800004bc	  x1=0x800004bc
        5665000	       565	00000000	00000013	addi	x0,x0,0	  x0:0x00000000
        5675000	       566	80000500	00000013	addi	x0,x0,0	  x0:0x00000000
        5685000	       567	80000504	fa5ff0ef	jal	x1,80000504	  x1=0x80000504
        5695000	       568	00000000	00000013	addi	x0,x0,0	  x0:0x00000000
        5705000	       569	800004a4	00000013	addi	x0,x0,0	  x0:0x00000000
        5715000	       570	800004a8	04c000ef	jal	x1,800004a8	  x1=0x800004a8
        5725000	       571	00000000	00000013	addi	x0,x0,0	  x0:0x00000000
        5735000	       572	800004f0	00000013	addi	x0,x0,0	  x0:0x00000000
        5745000	       573	800004f4	fcdff0ef	jal	x1,800004f4	  x1=0x800004f4
        5755000	       574	00000000	00000013	addi	x0,x0,0	  x0:0x00000000
        5765000	       575	800004bc	00000013	addi	x0,x0,0	  x0:0x00000000
        5775000	       576	800004c0	058000ef	jal	x1,800004c0	  x1=0x800004c0
        5785000	       577	00000000	00000013	addi	x0,x0,0	  x0:0x00000000
        5795000	       578	80000514	00000013	addi	x0,x0,0	  x0:0x00000000
        5805000	       579	80000518	f9dff16f	jal	x2,80000518	  x2=0x80000518
        5815000	       580	00000000	00000013	addi	x0,x0,0	  x0:0x00000000
        5825000	       581	800004b0	00000013	addi	x0,x0,0	  x0:0x00000000
        5835000	       582	800004b4	024000ef	jal	x1,800004b4	  x1=0x800004b4
        5845000	       583	00000000	00000013	addi	x0,x0,0	  x0:0x00000000
        5855000	       584	800004d4	00000013	addi	x0,x0,0	  x0:0x00000000
        5865000	       585	800004d8	0380026f	jal	x4,800004d8	  x4=0x800004d8
        5875000	       586	00000000	00000013	addi	x0,x0,0	  x0:0x00000000
        5885000	       587	8000050c	00000013	addi	x0,x0,0	  x0:0x00000000
        5895000	       588	80000510	fb5ff0ef	jal	x1,80000510	  x1=0x80000510
        5905000	       589	00000000	00000013	addi	x0,x0,0	  x0:0x00000000
        5915000	       590	800004c0	00000013	addi	x0,x0,0	  x0:0x00000000
        5925000	       591	800004c4	0340036f	jal	x6,800004c4	  x6=0x800004c4
        5935000	       592	00000000	00000013	addi	x0,x0,0	  x0:0x00000000
        5945000	       593	800004f4	00000013	addi	x0,x0,0	  x0:0x00000000
        5955000	       594	800004f8	0080036f	jal	x6,800004f8	  x6=0x800004f8
        5965000	       595	00000000	00000013	addi	x0,x0,0	  x0:0x00000000
        5975000	       596	800004fc	00000013	addi	x0,x0,0	  x0:0x00000000
        5985000	       597	80000500	fd1ff0ef	jal	x1,80000500	  x1=0x80000500
        5995000	       598	00000000	00000013	addi	x0,x0,0	  x0:0x00000000
        6005000	       599	800004cc	00000013	addi	x0,x0,0	  x0:0x00000000
        6015000	       600	800004d0	02c0036f	jal	x6,800004d0	  x6=0x800004d0
        6025000	       601	00000000	00000013	addi	x0,x0,0	  x0:0x00000000
        6035000	       602	800004f8	00000013	addi	x0,x0,0	  x0:0x00000000
        6045000	       603	800004fc	ff5ff36f	jal	x6,800004fc	  x6=0x800004fc
        6055000	       604	00000000	00000013	addi	x0,x0,0	  x0:0x00000000
        6065000	       605	800004ec	00000013	addi	x0,x0,0	  x0:0x00000000
        6075000	       606	800004f0	ffdff36f	jal	x6,800004f0	  x6=0x800004f0
        6085000	       607	00000000	00000013	addi	x0,x0,0	  x0:0x00000000
        6095000	       608	800004e8	00000013	addi	x0,x0,0	  x0:0x00000000
        6105000	       609	800004ec	fe9fff6f	jal	x30,800004ec	 x30=0x800004ec
        6115000	       610	00000000	00000013	addi	x0,x0,0	  x0:0x00000000
        6125000	       611	800004d0	00000013	addi	x0,x0,0	  x0:0x00000000
        6135000	       612	800004d4	0080056f	jal	x10,800004d4	 x10=0x800004d4
        6145000	       613	00000000	00000013	addi	x0,x0,0	  x0:0x00000000
        6155000	       614	800004d8	00000013	addi	x0,x0,0	  x0:0x00000000
        6165000	       615	800004dc	fd5ff0ef	jal	x1,800004dc	  x1=0x800004dc
        6175000	       616	00000000	00000013	addi	x0,x0,0	  x0:0x00000000
        6185000	       617	800004ac	00000013	addi	x0,x0,0	  x0:0x00000000
        6195000	       618	800004b0	01800d6f	jal	x26,800004b0	 x26=0x800004b0
        6205000	       619	00000000	00000013	addi	x0,x0,0	  x0:0x00000000
        6215000	       620	800004c4	00000013	addi	x0,x0,0	  x0:0x00000000
        6225000	       621	800004c8	020000ef	jal	x1,800004c8	  x1=0x800004c8
        6235000	       622	00000000	00000013	addi	x0,x0,0	  x0:0x00000000
        6245000	       623	800004e4	00000013	addi	x0,x0,0	  x0:0x00000000
        6255000	       624	800004e8	fe5ff0ef	jal	x1,800004e8	  x1=0x800004e8
        6265000	       625	00000000	00000013	addi	x0,x0,0	  x0:0x00000000
        6275000	       626	800004c8	00000013	addi	x0,x0,0	  x0:0x00000000
        6285000	       627	800004cc	04000cef	jal	x25,800004cc	 x25=0x800004cc
        6295000	       628	00000000	00000013	addi	x0,x0,0	  x0:0x00000000
        6305000	       629	80000508	00000013	addi	x0,x0,0	  x0:0x00000000
        6315000	       630	8000050c	fa1ff36f	jal	x6,8000050c	  x6=0x8000050c
        6325000	       631	00000000	00000013	addi	x0,x0,0	  x0:0x00000000
        6335000	       632	800004a8	00000013	addi	x0,x0,0	  x0:0x00000000
        6345000	       633	800004ac	07000f6f	jal	x30,800004ac	 x30=0x800004ac
        6355000	       634	00000000	00000013	addi	x0,x0,0	  x0:0x00000000
        6365000	       635	80000518	00000013	addi	x0,x0,0	  x0:0x00000000
        6375000	       636	8000051c	001e6ab3	or	x21,x28,x1	 x28:0x569a4649  x1:0x800004e8 x21=0xd69a46e9
        6385000	       637	80000520	00800f6f	jal	x30,80000520	 x30=0x80000520
        6395000	       638	00000000	00000013	addi	x0,x0,0	  x0:0x00000000
        6405000	       639	80000524	00000013	addi	x0,x0,0	  x0:0x00000000
        6415000	       640	80000528	0400036f	jal	x6,80000528	  x6=0x80000528
        6425000	       641	00000000	00000013	addi	x0,x0,0	  x0:0x00000000
        6435000	       642	80000564	00000013	addi	x0,x0,0	  x0:0x00000000
        6445000	       643	80000568	fe1ff2ef	jal	x5,80000568	  x5=0x80000568
        6455000	       644	00000000	00000013	addi	x0,x0,0	  x0:0x00000000
        6465000	       645	80000544	00000013	addi	x0,x0,0	  x0:0x00000000
        6475000	       646	80000548	fe9ff66f	jal	x12,80000548	 x12=0x80000548
        6485000	       647	00000000	00000013	addi	x0,x0,0	  x0:0x00000000
        6495000	       648	8000052c	00000013	addi	x0,x0,0	  x0:0x00000000
        6505000	       649	80000530	030000ef	jal	x1,80000530	  x1=0x80000530
        6515000	       650	00000000	00000013	addi	x0,x0,0	  x0:0x00000000
        6525000	       651	8000055c	00000013	addi	x0,x0,0	  x0:0x00000000
        6535000	       652	80000560	fc5ff0ef	jal	x1,80000560	  x1=0x80000560
        6545000	       653	00000000	00000013	addi	x0,x0,0	  x0:0x00000000
        6555000	       654	80000520	00000013	addi	x0,x0,0	  x0:0x00000000
        6565000	       655	80000524	03400cef	jal	x25,80000524	 x25=0x80000524
        6575000	       656	00000000	00000013	addi	x0,x0,0	  x0:0x00000000
        6585000	       657	80000554	00000013	addi	x0,x0,0	  x0:0x00000000
        6595000	       658	80000558	ffdff36f	jal	x6,80000558	  x6=0x80000558
        6605000	       659	00000000	00000013	addi	x0,x0,0	  x0:0x00000000
        6615000	       660	80000550	00000013	addi	x0,x0,0	  x0:0x00000000
        6625000	       661	80000554	008000ef	jal	x1,80000554	  x1=0x80000554
        6635000	       662	00000000	00000013	addi	x0,x0,0	  x0:0x00000000
        6645000	       663	80000558	00000013	addi	x0,x0,0	  x0:0x00000000
        6655000	       664	8000055c	0080036f	jal	x6,8000055c	  x6=0x8000055c
        6665000	       665	00000000	00000013	addi	x0,x0,0	  x0:0x00000000
        6675000	       666	80000560	00000013	addi	x0,x0,0	  x0:0x00000000
        6685000	       667	80000564	fe1ff26f	jal	x4,80000564	  x4=0x80000564
        6695000	       668	00000000	00000013	addi	x0,x0,0	  x0:0x00000000
        6705000	       669	80000540	00000013	addi	x0,x0,0	  x0:0x00000000
        6715000	       670	80000544	ff5ff0ef	jal	x1,80000544	  x1=0x80000544
        6725000	       671	00000000	00000013	addi	x0,x0,0	  x0:0x00000000
        6735000	       672	80000534	00000013	addi	x0,x0,0	  x0:0x00000000
        6745000	       673	80000538	008000ef	jal	x1,80000538	  x1=0x80000538
        6755000	       674	00000000	00000013	addi	x0,x0,0	  x0:0x00000000
        6765000	       675	8000053c	00000013	addi	x0,x0,0	  x0:0x00000000
        6775000	       676	80000540	fedff5ef	jal	x11,80000540	 x11=0x80000540
        6785000	       677	00000000	00000013	addi	x0,x0,0	  x0:0x00000000
        6795000	       678	80000528	00000013	addi	x0,x0,0	  x0:0x00000000
        6805000	       679	8000052c	024002ef	jal	x5,8000052c	  x5=0x8000052c
        6815000	       680	00000000	00000013	addi	x0,x0,0	  x0:0x00000000
        6825000	       681	8000054c	00000013	addi	x0,x0,0	  x0:0x00000000
        6835000	       682	80000550	ffdffe6f	jal	x28,80000550	 x28=0x80000550
        6845000	       683	00000000	00000013	addi	x0,x0,0	  x0:0x00000000
        6855000	       684	80000548	00000013	addi	x0,x0,0	  x0:0x00000000
        6865000	       685	8000054c	fe9ff36f	jal	x6,8000054c	  x6=0x8000054c
        6875000	       686	00000000	00000013	addi	x0,x0,0	  x0:0x00000000
        6885000	       687	80000530	00000013	addi	x0,x0,0	  x0:0x00000000
        6895000	       688	80000534	008000ef	jal	x1,80000534	  x1=0x80000534
        6905000	       689	00000000	00000013	addi	x0,x0,0	  x0:0x00000000
        6915000	       690	80000538	00000013	addi	x0,x0,0	  x0:0x00000000
        6925000	       691	8000053c	030003ef	jal	x7,8000053c	  x7=0x8000053c
        6935000	       692	00000000	00000013	addi	x0,x0,0	  x0:0x00000000
        6945000	       693	80000568	00000013	addi	x0,x0,0	  x0:0x00000000
        6955000	       694	8000056c	401b8533	sub	x10,x23,x1	 x23:0x800004b8  x1:0x80000534 x10=0xffffff84
        6965000	       695	80000570	00400f6f	jal	x30,80000570	 x30=0x80000570
        6975000	       696	00000000	00000013	addi	x0,x0,0	  x0:0x00000000
        6985000	       697	80000570	00000013	addi	x0,x0,0	  x0:0x00000000
        6995000	       698	80000574	00c000ef	jal	x1,80000574	  x1=0x80000574
        7005000	       699	00000000	00000013	addi	x0,x0,0	  x0:0x00000000
        7015000	       700	8000057c	00000013	addi	x0,x0,0	  x0:0x00000000
        7025000	       701	80000580	ff9ff0ef	jal	x1,80000580	  x1=0x80000580
        7035000	       702	00000000	00000013	addi	x0,x0,0	  x0:0x00000000
        7045000	       703	80000574	00000013	addi	x0,x0,0	  x0:0x00000000
        7055000	       704	80000578	01c000ef	jal	x1,80000578	  x1=0x80000578
        7065000	       705	00000000	00000013	addi	x0,x0,0	  x0:0x00000000
        7075000	       706	80000590	00000013	addi	x0,x0,0	  x0:0x00000000
        7085000	       707	80000594	ffdff36f	jal	x6,80000594	  x6=0x80000594
        7095000	       708	00000000	00000013	addi	x0,x0,0	  x0:0x00000000
        7105000	       709	8000058c	00000013	addi	x0,x0,0	  x0:0x00000000
        7115000	       710	80000590	ff5ff0ef	jal	x1,80000590	  x1=0x80000590
        7125000	       711	00000000	00000013	addi	x0,x0,0	  x0:0x00000000
        7135000	       712	80000580	00000013	addi	x0,x0,0	  x0:0x00000000
        7145000	       713	80000584	ff9ff1ef	jal	x3,80000584	  x3=0x80000584
        7155000	       714	00000000	00000013	addi	x0,x0,0	  x0:0x00000000
        7165000	       715	80000578	00000013	addi	x0,x0,0	  x0:0x00000000
        7175000	       716	8000057c	0200026f	jal	x4,8000057c	  x4=0x8000057c
        7185000	       717	00000000	00000013	addi	x0,x0,0	  x0:0x00000000
        7195000	       718	80000598	00000013	addi	x0,x0,0	  x0:0x00000000
        7205000	       719	8000059c	fedff0ef	jal	x1,8000059c	  x1=0x8000059c
        7215000	       720	00000000	00000013	addi	x0,x0,0	  x0:0x00000000
        7225000	       721	80000584	00000013	addi	x0,x0,0	  x0:0x00000000
        7235000	       722	80000588	004004ef	jal	x9,80000588	  x9=0x80000588
        7245000	       723	00000000	00000013	addi	x0,x0,0	  x0:0x00000000
        7255000	       724	80000588	00000013	addi	x0,x0,0	  x0:0x00000000
        7265000	       725	8000058c	00c001ef	jal	x3,8000058c	  x3=0x8000058c
        7275000	       726	00000000	00000013	addi	x0,x0,0	  x0:0x00000000
        7285000	       727	80000594	00000013	addi	x0,x0,0	  x0:0x00000000
        7295000	       728	80000598	00800f6f	jal	x30,80000598	 x30=0x80000598
        7305000	       729	00000000	00000013	addi	x0,x0,0	  x0:0x00000000
        7315000	       730	8000059c	00000013	addi	x0,x0,0	  x0:0x00000000
        7325000	       731	800005a0	03fcb237	lui	x4,0x3fcb	  x4=0x03fcb000
        7335000	       732	800005a4	01000f6f	jal	x30,800005a4	 x30=0x800005a4
        7345000	       733	00000000	00000013	addi	x0,x0,0	  x0:0x00000000
        7355000	       734	800005b0	00000013	addi	x0,x0,0	  x0:0x00000000
        7365000	       735	800005b4	ffdff36f	jal	x6,800005b4	  x6=0x800005b4
        7375000	       736	00000000	00000013	addi	x0,x0,0	  x0:0x00000000
        7385000	       737	800005ac	00000013	addi	x0,x0,0	  x0:0x00000000
        7395000	       738	800005b0	ff9ff16f	jal	x2,800005b0	  x2=0x800005b0
        7405000	       739	00000000	00000013	addi	x0,x0,0	  x0:0x00000000
        7415000	       740	800005a4	00000013	addi	x0,x0,0	  x0:0x00000000
        7425000	       741	800005a8	03000aef	jal	x21,800005a8	 x21=0x800005a8
        7435000	       742	00000000	00000013	addi	x0,x0,0	  x0:0x00000000
        7445000	       743	800005d4	00000013	addi	x0,x0,0	  x0:0x00000000
        7455000	       744	800005d8	004000ef	jal	x1,800005d8	  x1=0x800005d8
        7465000	       745	00000000	00000013	addi	x0,x0,0	  x0:0x00000000
        7475000	       746	800005d8	00000013	addi	x0,x0,0	  x0:0x00000000
        7485000	       747	800005dc	fe1ff0ef	jal	x1,800005dc	  x1=0x800005dc
        7495000	       748	00000000	00000013	addi	x0,x0,0	  x0:0x00000000
        7505000	       749	800005b8	00000013	addi	x0,x0,0	  x0:0x00000000
        7515000	       750	800005bc	ff1ff0ef	jal	x1,800005bc	  x1=0x800005bc
        7525000	       751	00000000	00000013	addi	x0,x0,0	  x0:0x00000000
        7535000	       752	800005a8	00000013	addi	x0,x0,0	  x0:0x00000000
        7545000	       753	800005ac	01c000ef	jal	x1,800005ac	  x1=0x800005ac
        7555000	       754	00000000	00000013	addi	x0,x0,0	  x0:0x00000000
        7565000	       755	800005c4	00000013	addi	x0,x0,0	  x0:0x00000000
        7575000	       756	800005c8	004000ef	jal	x1,800005c8	  x1=0x800005c8
        7585000	       757	00000000	00000013	addi	x0,x0,0	  x0:0x00000000
        7595000	       758	800005c8	00000013	addi	x0,x0,0	  x0:0x00000000
        7605000	       759	800005cc	ff9ff36f	jal	x6,800005cc	  x6=0x800005cc
        7615000	       760	00000000	00000013	addi	x0,x0,0	  x0:0x00000000
        7625000	       761	800005c0	00000013	addi	x0,x0,0	  x0:0x00000000
        7635000	       762	800005c4	01000cef	jal	x25,800005c4	 x25=0x800005c4
        7645000	       763	00000000	00000013	addi	x0,x0,0	  x0:0x00000000
        7655000	       764	800005d0	00000013	addi	x0,x0,0	  x0:0x00000000
        7665000	       765	800005d4	ffdff0ef	jal	x1,800005d4	  x1=0x800005d4
        7675000	       766	00000000	00000013	addi	x0,x0,0	  x0:0x00000000
        7685000	       767	800005cc	00000013	addi	x0,x0,0	  x0:0x00000000
        7695000	       768	800005d0	ff1ff36f	jal	x6,800005d0	  x6=0x800005d0
        7705000	       769	00000000	00000013	addi	x0,x0,0	  x0:0x00000000
        7715000	       770	800005bc	00000013	addi	x0,x0,0	  x0:0x00000000
        7725000	       771	800005c0	ff9ff0ef	jal	x1,800005c0	  x1=0x800005c0
        7735000	       772	00000000	00000013	addi	x0,x0,0	  x0:0x00000000
        7745000	       773	800005b4	00000013	addi	x0,x0,0	  x0:0x00000000
        7755000	       774	800005b8	028000ef	jal	x1,800005b8	  x1=0x800005b8
        7765000	       775	00000000	00000013	addi	x0,x0,0	  x0:0x00000000
        7775000	       776	800005dc	00000013	addi	x0,x0,0	  x0:0x00000000
        7785000	       777	800005e0	a0b9f097	auipc	x1,0xa0b9f	  x1=0x20b9f5dc
        7795000	       778	800005e4	00c00f6f	jal	x30,800005e4	 x30=0x800005e4
        7805000	       779	00000000	00000013	addi	x0,x0,0	  x0:0x00000000
        7815000	       780	800005ec	00000013	addi	x0,x0,0	  x0:0x00000000
        7825000	       781	800005f0	01c000ef	jal	x1,800005f0	  x1=0x800005f0
        7835000	       782	00000000	00000013	addi	x0,x0,0	  x0:0x00000000
        7845000	       783	80000608	00000013	addi	x0,x0,0	  x0:0x00000000
        7855000	       784	8000060c	028000ef	jal	x1,8000060c	  x1=0x8000060c
        7865000	       785	00000000	00000013	addi	x0,x0,0	  x0:0x00000000
        7875000	       786	80000630	00000013	addi	x0,x0,0	  x0:0x00000000
        7885000	       787	80000634	ff1ff0ef	jal	x1,80000634	  x1=0x80000634
        7895000	       788	00000000	00000013	addi	x0,x0,0	  x0:0x00000000
        7905000	       789	80000620	00000013	addi	x0,x0,0	  x0:0x00000000
        7915000	       790	80000624	fddff0ef	jal	x1,80000624	  x1=0x80000624
        7925000	       791	00000000	00000013	addi	x0,x0,0	  x0:0x00000000
        7935000	       792	800005fc	00000013	addi	x0,x0,0	  x0:0x00000000
        7945000	       793	80000600	fedff36f	jal	x6,80000600	  x6=0x80000600
        7955000	       794	00000000	00000013	addi	x0,x0,0	  x0:0x00000000
        7965000	       795	800005e8	00000013	addi	x0,x0,0	  x0:0x00000000
        7975000	       796	800005ec	008000ef	jal	x1,800005ec	  x1=0x800005ec
        7985000	       797	00000000	00000013	addi	x0,x0,0	  x0:0x00000000
        7995000	       798	800005f0	00000013	addi	x0,x0,0	  x0:0x00000000
        8005000	       799	800005f4	048004ef	jal	x9,800005f4	  x9=0x800005f4
        8015000	       800	00000000	00000013	addi	x0,x0,0	  x0:0x00000000
        8025000	       801	80000638	00000013	addi	x0,x0,0	  x0:0x00000000
        8035000	       802	8000063c	fddff0ef	jal	x1,8000063c	  x1=0x8000063c
        8045000	       803	00000000	00000013	addi	x0,x0,0	  x0:0x00000000
        8055000	       804	80000614	00000013	addi	x0,x0,0	  x0:0x00000000
        8065000	       805	80000618	fedff0ef	jal	x1,80000618	  x1=0x80000618
        8075000	       806	00000000	00000013	addi	x0,x0,0	  x0:0x00000000
        8085000	       807	80000600	00000013	addi	x0,x0,0	  x0:0x00000000
        8095000	       808	80000604	ff9ff0ef	jal	x1,80000604	  x1=0x80000604
        8105000	       809	00000000	00000013	addi	x0,x0,0	  x0:0x00000000
        8115000	       810	800005f8	00000013	addi	x0,x0,0	  x0:0x00000000
        8125000	       811	800005fc	ffdff36f	jal	x6,800005fc	  x6=0x800005fc
        8135000	       812	00000000	00000013	addi	x0,x0,0	  x0:0x00000000
        8145000	       813	800005f4	00000013	addi	x0,x0,0	  x0:0x00000000
        8155000	       814	800005f8	ff1ff0ef	jal	x1,800005f8	  x1=0x800005f8
        8165000	       815	00000000	00000013	addi	x0,x0,0	  x0:0x00000000
        8175000	       816	800005e4	00000013	addi	x0,x0,0	  x0:0x00000000
        8185000	       817	800005e8	028004ef	jal	x9,800005e8	  x9=0x800005e8
        8195000	       818	00000000	00000013	addi	x0,x0,0	  x0:0x00000000
        8205000	       819	8000060c	00000013	addi	x0,x0,0	  x0:0x00000000
        8215000	       820	80000610	0040036f	jal	x6,80000610	  x6=0x80000610
        8225000	       821	00000000	00000013	addi	x0,x0,0	  x0:0x00000000
        8235000	       822	80000610	00000013	addi	x0,x0,0	  x0:0x00000000
        8245000	       823	80000614	018005ef	jal	x11,80000614	 x11=0x80000614
        8255000	       824	00000000	00000013	addi	x0,x0,0	  x0:0x00000000
        8265000	       825	80000628	00000013	addi	x0,x0,0	  x0:0x00000000
        8275000	       826	8000062c	ffdff16f	jal	x2,8000062c	  x2=0x8000062c
        8285000	       827	00000000	00000013	addi	x0,x0,0	  x0:0x00000000
        8295000	       828	80000624	00000013	addi	x0,x0,0	  x0:0x00000000
        8305000	       829	80000628	fe1ff0ef	jal	x1,80000628	  x1=0x80000628
        8315000	       830	00000000	00000013	addi	x0,x0,0	  x0:0x00000000
        8325000	       831	80000604	00000013	addi	x0,x0,0	  x0:0x00000000
        8335000	       832	80000608	018000ef	jal	x1,80000608	  x1=0x80000608
        8345000	       833	00000000	00000013	addi	x0,x0,0	  x0:0x00000000
        8355000	       834	8000061c	00000013	addi	x0,x0,0	  x0:0x00000000
        8365000	       835	80000620	0180036f	jal	x6,80000620	  x6=0x80000620
        8375000	       836	00000000	00000013	addi	x0,x0,0	  x0:0x00000000
        8385000	       837	80000634	00000013	addi	x0,x0,0	  x0:0x00000000
        8395000	       838	80000638	ff9ff36f	jal	x6,80000638	  x6=0x80000638
        8405000	       839	00000000	00000013	addi	x0,x0,0	  x0:0x00000000
        8415000	       840	8000062c	00000013	addi	x0,x0,0	  x0:0x00000000
        8425000	       841	80000630	fedff0ef	jal	x1,80000630	  x1=0x80000630
        8435000	       842	00000000	00000013	addi	x0,x0,0	  x0:0x00000000
        8445000	       843	80000618	00000013	addi	x0,x0,0	  x0:0x00000000
        8455000	       844	8000061c	024000ef	jal	x1,8000061c	  x1=0x8000061c
        8465000	       845	00000000	00000013	addi	x0,x0,0	  x0:0x00000000
        8475000	       846	8000063c	00000013	addi	x0,x0,0	  x0:0x00000000
        8485000	       847	80000640	67c52217	auipc	x4,0x67c52	  x4=0xe7c5263c
        8495000	       848	80000644	04400f6f	jal	x30,80000644	 x30=0x80000644
        8505000	       849	00000000	00000013	addi	x0,x0,0	  x0:0x00000000
        8515000	       850	80000684	00000013	addi	x0,x0,0	  x0:0x00000000
        8525000	       851	80000688	ff5ff46f	jal	x8,80000688	  x8=0x80000688
        8535000	       852	00000000	00000013	addi	x0,x0,0	  x0:0x00000000
        8545000	       853	80000678	00000013	addi	x0,x0,0	  x0:0x00000000
        8555000	       854	8000067c	fd1ff1ef	jal	x3,8000067c	  x3=0x8000067c
        8565000	       855	00000000	00000013	addi	x0,x0,0	  x0:0x00000000
        8575000	       856	80000648	00000013	addi	x0,x0,0	  x0:0x00000000
        8585000	       857	8000064c	018000ef	jal	x1,8000064c	  x1=0x8000064c
        8595000	       858	00000000	00000013	addi	x0,x0,0	  x0:0x00000000
        8605000	       859	80000660	00000013	addi	x0,x0,0	  x0:0x00000000
        8615000	       860	80000664	ffdff0ef	jal	x1,80000664	  x1=0x80000664
        8625000	       861	00000000	00000013	addi	x0,x0,0	  x0:0x00000000
        8635000	       862	8000065c	00000013	addi	x0,x0,0	  x0:0x00000000
        8645000	       863	80000660	ffdff0ef	jal	x1,80000660	  x1=0x80000660
        8655000	       864	00000000	00000013	addi	x0,x0,0	  x0:0x00000000
        8665000	       865	80000658	00000013	addi	x0,x0,0	  x0:0x00000000
        8675000	       866	8000065c	024009ef	jal	x19,8000065c	 x19=0x8000065c
        8685000	       867	00000000	00000013	addi	x0,x0,0	  x0:0x00000000
        8695000	       868	8000067c	00000013	addi	x0,x0,0	  x0:0x00000000
        8705000	       869	80000680	ff5ff36f	jal	x6,80000680	  x6=0x80000680
        8715000	       870	00000000	00000013	addi	x0,x0,0	  x0:0x00000000
        8725000	       871	80000670	00000013	addi	x0,x0,0	  x0:0x00000000
        8735000	       872	80000674	fe5ff0ef	jal	x1,80000674	  x1=0x80000674
        8745000	       873	00000000	00000013	addi	x0,x0,0	  x0:0x00000000
        8755000	       874	80000654	00000013	addi	x0,x0,0	  x0:0x00000000
        8765000	       875	80000658	01000e6f	jal	x28,80000658	 x28=0x80000658
        8775000	       876	00000000	00000013	addi	x0,x0,0	  x0:0x00000000
        8785000	       877	80000664	00000013	addi	x0,x0,0	  x0:0x00000000
        8795000	       878	80000668	fedff36f	jal	x6,80000668	  x6=0x80000668
        8805000	       879	00000000	00000013	addi	x0,x0,0	  x0:0x00000000
        8815000	       880	80000650	00000013	addi	x0,x0,0	  x0:0x00000000
        8825000	       881	80000654	0180046f	jal	x8,80000654	  x8=0x80000654
        8835000	       882	00000000	00000013	addi	x0,x0,0	  x0:0x00000000
        8845000	       883	80000668	00000013	addi	x0,x0,0	  x0:0x00000000
        8855000	       884	8000066c	00c00e6f	jal	x28,8000066c	 x28=0x8000066c
        8865000	       885	00000000	00000013	addi	x0,x0,0	  x0:0x00000000
        8875000	       886	80000674	00000013	addi	x0,x0,0	  x0:0x00000000
        8885000	       887	80000678	0140016f	jal	x2,80000678	  x2=0x80000678
        8895000	       888	00000000	00000013	addi	x0,x0,0	  x0:0x00000000
        8905000	       889	80000688	00000013	addi	x0,x0,0	  x0:0x00000000
        8915000	       890	8000068c	fe5ff66f	jal	x12,8000068c	 x12=0x8000068c
        8925000	       891	00000000	00000013	addi	x0,x0,0	  x0:0x00000000
        8935000	       892	8000066c	00000013	addi	x0,x0,0	  x0:0x00000000
        8945000	       893	80000670	014000ef	jal	x1,80000670	  x1=0x80000670
        8955000	       894	00000000	00000013	addi	x0,x0,0	  x0:0x00000000
        8965000	       895	80000680	00000013	addi	x0,x0,0	  x0:0x00000000
        8975000	       896	80000684	fcdff0ef	jal	x1,80000684	  x1=0x80000684
        8985000	       897	00000000	00000013	addi	x0,x0,0	  x0:0x00000000
        8995000	       898	8000064c	00000013	addi	x0,x0,0	  x0:0x00000000
        9005000	       899	80000650	040000ef	jal	x1,80000650	  x1=0x80000650
        9015000	       900	00000000	00000013	addi	x0,x0,0	  x0:0x00000000
        9025000	       901	8000068c	00000013	addi	x0,x0,0	  x0:0x00000000
        9035000	       902	80000690	fb9ff0ef	jal	x1,80000690	  x1=0x80000690
        9045000	       903	00000000	00000013	addi	x0,x0,0	  x0:0x00000000
        9055000	       904	80000644	00000013	addi	x0,x0,0	  x0:0x00000000
        9065000	       905	80000648	04c0036f	jal	x6,80000648	  x6=0x80000648
        9075000	       906	00000000	00000013	addi	x0,x0,0	  x0:0x00000000
        9085000	       907	80000690	00000013	addi	x0,x0,0	  x0:0x00000000
        9095000	       908	80000694	4050d3b3	sra	x7,x1,x5	  x1:0x80000690  x5:0x8000052c  x7=0xfff80000
        9105000	       909	80000698	03800f6f	jal	x30,80000698	 x30=0x80000698
        9115000	       910	00000000	00000013	addi	x0,x0,0	  x0:0x00000000
        9125000	       911	800006cc	00000013	addi	x0,x0,0	  x0:0x00000000
        9135000	       912	800006d0	fe9ff0ef	jal	x1,800006d0	  x1=0x800006d0
        9145000	       913	00000000	00000013	addi	x0,x0,0	  x0:0x00000000
        9155000	       914	800006b4	00000013	addi	x0,x0,0	  x0:0x00000000
        9165000	       915	800006b8	04c000ef	jal	x1,800006b8	  x1=0x800006b8
        9175000	       916	00000000	00000013	addi	x0,x0,0	  x0:0x00000000
        9185000	       917	80000700	00000013	addi	x0,x0,0	  x0:0x00000000
        9195000	       918	80000704	ff9ff0ef	jal	x1,80000704	  x1=0x80000704
        9205000	       919	00000000	00000013	addi	x0,x0,0	  x0:0x00000000
        9215000	       920	800006f8	00000013	addi	x0,x0,0	  x0:0x00000000
        9225000	       921	800006fc	fd9ff9ef	jal	x19,800006fc	 x19=0x800006fc
        9235000	       922	00000000	00000013	addi	x0,x0,0	  x0:0x00000000
        9245000	       923	800006d0	00000013	addi	x0,x0,0	  x0:0x00000000
        9255000	       924	800006d4	fd5ff36f	jal	x6,800006d4	  x6=0x800006d4
        9265000	       925	00000000	00000013	addi	x0,x0,0	  x0:0x00000000
        9275000	       926	800006a4	00000013	addi	x0,x0,0	  x0:0x00000000
        9285000	       927	800006a8	014000ef	jal	x1,800006a8	  x1=0x800006a8
        9295000	       928	00000000	00000013	addi	x0,x0,0	  x0:0x00000000
        9305000	       929	800006b8	00000013	addi	x0,x0,0	  x0:0x00000000
        9315000	       930	800006bc	038002ef	jal	x5,800006bc	  x5=0x800006bc
        9325000	       931	00000000	00000013	addi	x0,x0,0	  x0:0x00000000
        9335000	       932	800006f0	00000013	addi	x0,x0,0	  x0:0x00000000
        9345000	       933	800006f4	fd5ff0ef	jal	x1,800006f4	  x1=0x800006f4
        9355000	       934	00000000	00000013	addi	x0,x0,0	  x0:0x00000000
        9365000	       935	800006c4	00000013	addi	x0,x0,0	  x0:0x00000000
        9375000	       936	800006c8	018000ef	jal	x1,800006c8	  x1=0x800006c8
        9385000	       937	00000000	00000013	addi	x0,x0,0	  x0:0x00000000
        9395000	       938	800006dc	00000013	addi	x0,x0,0	  x0:0x00000000
        9405000	       939	800006e0	fc5ff16f	jal	x2,800006e0	  x2=0x800006e0
        9415000	       940	00000000	00000013	addi	x0,x0,0	  x0:0x00000000
        9425000	       941	800006a0	00000013	addi	x0,x0,0	  x0:0x00000000
        9435000	       942	800006a4	ff9ff0ef	jal	x1,800006a4	  x1=0x800006a4
        9445000	       943	00000000	00000013	addi	x0,x0,0	  x0:0x00000000
        9455000	       944	80000698	00000013	addi	x0,x0,0	  x0:0x00000000
        9465000	       945	8000069c	05c000ef	jal	x1,8000069c	  x1=0x8000069c
        9475000	       946	00000000	00000013	addi	x0,x0,0	  x0:0x00000000
        9485000	       947	800006f4	00000013	addi	x0,x0,0	  x0:0x00000000
        9495000	       948	800006f8	fcdff0ef	jal	x1,800006f8	  x1=0x800006f8
        9505000	       949	00000000	00000013	addi	x0,x0,0	  x0:0x00000000
        9515000	       950	800006c0	00000013	addi	x0,x0,0	  x0:0x00000000
        9525000	       951	800006c4	020000ef	jal	x1,800006c4	  x1=0x800006c4
        9535000	       952	00000000	00000013	addi	x0,x0,0	  x0:0x00000000
        9545000	       953	800006e0	00000013	addi	x0,x0,0	  x0:0x00000000
        9555000	       954	800006e4	01c000ef	jal	x1,800006e4	  x1=0x800006e4
        9565000	       955	00000000	00000013	addi	x0,x0,0	  x0:0x00000000
        9575000	       956	800006fc	00000013	addi	x0,x0,0	  x0:0x00000000
        9585000	       957	80000700	fa1ff0ef	jal	x1,80000700	  x1=0x80000700
        9595000	       958	00000000	00000013	addi	x0,x0,0	  x0:0x00000000
        9605000	       959	8000069c	00000013	addi	x0,x0,0	  x0:0x00000000
        9615000	       960	800006a0	00c0036f	jal	x6,800006a0	  x6=0x800006a0
        9625000	       961	00000000	00000013	addi	x0,x0,0	  x0:0x00000000
        9635000	       962	800006a8	00000013	addi	x0,x0,0	  x0:0x00000000
        9645000	       963	800006ac	03c0036f	jal	x6,800006ac	  x6=0x800006ac
        9655000	       964	00000000	00000013	addi	x0,x0,0	  x0:0x00000000
        9665000	       965	800006e4	00000013	addi	x0,x0,0	  x0:0x00000000
        9675000	       966	800006e8	fc9ff0ef	jal	x1,800006e8	  x1=0x800006e8
        9685000	       967	00000000	00000013	addi	x0,x0,0	  x0:0x00000000
        9695000	       968	800006ac	00000013	addi	x0,x0,0	  x0:0x00000000
        9705000	       969	800006b0	004000ef	jal	x1,800006b0	  x1=0x800006b0
        9715000	       970	00000000	00000013	addi	x0,x0,0	  x0:0x00000000
        9725000	       971	800006b0	00000013	addi	x0,x0,0	  x0:0x00000000
        9735000	       972	800006b4	00c000ef	jal	x1,800006b4	  x1=0x800006b4
        9745000	       973	00000000	00000013	addi	x0,x0,0	  x0:0x00000000
        9755000	       974	800006bc	00000013	addi	x0,x0,0	  x0:0x00000000
        9765000	       975	800006c0	0480036f	jal	x6,800006c0	  x6=0x800006c0
        9775000	       976	00000000	00000013	addi	x0,x0,0	  x0:0x00000000
        9785000	       977	80000704	00000013	addi	x0,x0,0	  x0:0x00000000
        9795000	       978	80000708	fe5fffef	jal	x31,80000708	 x31=0x80000708
        9805000	       979	00000000	00000013	addi	x0,x0,0	  x0:0x00000000
        9815000	       980	800006e8	00000013	addi	x0,x0,0	  x0:0x00000000
        9825000	       981	800006ec	020000ef	jal	x1,800006ec	  x1=0x800006ec
        9835000	       982	00000000	00000013	addi	x0,x0,0	  x0:0x00000000
        9845000	       983	80000708	00000013	addi	x0,x0,0	  x0:0x00000000
        9855000	       984	8000070c	fcdff0ef	jal	x1,8000070c	  x1=0x8000070c
        9865000	       985	00000000	00000013	addi	x0,x0,0	  x0:0x00000000
        9875000	       986	800006d4	00000013	addi	x0,x0,0	  x0:0x00000000
        9885000	       987	800006d8	018000ef	jal	x1,800006d8	  x1=0x800006d8
        9895000	       988	00000000	00000013	addi	x0,x0,0	  x0:0x00000000
        9905000	       989	800006ec	00000013	addi	x0,x0,0	  x0:0x00000000
        9915000	       990	800006f0	fedff0ef	jal	x1,800006f0	  x1=0x800006f0
        9925000	       991	00000000	00000013	addi	x0,x0,0	  x0:0x00000000
        9935000	       992	800006d8	00000013	addi	x0,x0,0	  x0:0x00000000
        9945000	       993	800006dc	ff1ff0ef	jal	x1,800006dc	  x1=0x800006dc
        9955000	       994	00000000	00000013	addi	x0,x0,0	  x0:0x00000000
        9965000	       995	800006c8	00000013	addi	x0,x0,0	  x0:0x00000000
        9975000	       996	800006cc	044000ef	jal	x1,800006cc	  x1=0x800006cc
        9985000	       997	00000000	00000013	addi	x0,x0,0	  x0:0x00000000
        9995000	       998	8000070c	00000013	addi	x0,x0,0	  x0:0x00000000
       10005000	       999	80000710	0de7e637	lui	x12,0xde7e	 x12=0x0de7e000
       10015000	      1000	80000714	03800f6f	jal	x30,80000714	 x30=0x80000714
       10025000	      1001	00000000	00000013	addi	x0,x0,0	  x0:0x00000000
       10035000	      1002	80000748	00000013	addi	x0,x0,0	  x0:0x00000000
       10045000	      1003	8000074c	fe9ff0ef	jal	x1,8000074c	  x1=0x8000074c
       10055000	      1004	00000000	00000013	addi	x0,x0,0	  x0:0x00000000
       10065000	      1005	80000730	00000013	addi	x0,x0,0	  x0:0x00000000
       10075000	      1006	80000734	fedff0ef	jal	x1,80000734	  x1=0x80000734
       10085000	      1007	00000000	00000013	addi	x0,x0,0	  x0:0x00000000
       10095000	      1008	8000071c	00000013	addi	x0,x0,0	  x0:0x00000000
       10105000	      1009	80000720	06000e6f	jal	x28,80000720	 x28=0x80000720
       10115000	      1010	00000000	00000013	addi	x0,x0,0	  x0:0x00000000
       10125000	      1011	8000077c	00000013	addi	x0,x0,0	  x0:0x00000000
       10135000	      1012	80000780	fd9ffe6f	jal	x28,80000780	 x28=0x80000780
       10145000	      1013	00000000	00000013	addi	x0,x0,0	  x0:0x00000000
       10155000	      1014	80000754	00000013	addi	x0,x0,0	  x0:0x00000000
       10165000	      1015	80000758	024000ef	jal	x1,80000758	  x1=0x80000758
       10175000	      1016	00000000	00000013	addi	x0,x0,0	  x0:0x00000000
       10185000	      1017	80000778	00000013	addi	x0,x0,0	  x0:0x00000000
       10195000	      1018	8000077c	0080036f	jal	x6,8000077c	  x6=0x8000077c
       10205000	      1019	00000000	00000013	addi	x0,x0,0	  x0:0x00000000
       10215000	      1020	80000780	00000013	addi	x0,x0,0	  x0:0x00000000
       10225000	      1021	80000784	ff5ff36f	jal	x6,80000784	  x6=0x80000784
       10235000	      1022	00000000	00000013	addi	x0,x0,0	  x0:0x00000000
       10245000	      1023	80000774	00000013	addi	x0,x0,0	  x0:0x00000000
       10255000	      1024	80000778	fa5ff0ef	jal	x1,80000778	  x1=0x80000778
       10265000	      1025	00000000	00000013	addi	x0,x0,0	  x0:0x00000000
       10275000	      1026	80000718	00000013	addi	x0,x0,0	  x0:0x00000000
       10285000	      1027	8000071c	0100076f	jal	x14,8000071c	 x14=0x8000071c
       10295000	      1028	00000000	00000013	addi	x0,x0,0	  x0:0x00000000
       10305000	      1029	80000728	00000013	addi	x0,x0,0	  x0:0x00000000
       10315000	      1030	8000072c	034000ef	jal	x1,8000072c	  x1=0x8000072c
       10325000	      1031	00000000	00000013	addi	x0,x0,0	  x0:0x00000000
       10335000	      1032	8000075c	00000013	addi	x0,x0,0	  x0:0x00000000
       10345000	      1033	80000760	008000ef	jal	x1,80000760	  x1=0x80000760
       10355000	      1034	00000000	00000013	addi	x0,x0,0	  x0:0x00000000
       10365000	      1035	80000764	00000013	addi	x0,x0,0	  x0:0x00000000
       10375000	      1036	80000768	fb1ff36f	jal	x6,80000768	  x6=0x80000768
       10385000	      1037	00000000	00000013	addi	x0,x0,0	  x0:0x00000000
       10395000	      1038	80000714	00000013	addi	x0,x0,0	  x0:0x00000000
       10405000	      1039	80000718	00c000ef	jal	x1,80000718	  x1=0x80000718
       10415000	      1040	00000000	00000013	addi	x0,x0,0	  x0:0x00000000
       10425000	      1041	80000720	00000013	addi	x0,x0,0	  x0:0x00000000
       10435000	      1042	80000724	01c003ef	jal	x7,80000724	  x7=0x80000724
       10445000	      1043	00000000	00000013	addi	x0,x0,0	  x0:0x00000000
       10455000	      1044	8000073c	00000013	addi	x0,x0,0	  x0:0x00000000
       10465000	      1045	80000740	0140036f	jal	x6,80000740	  x6=0x80000740
       10475000	      1046	00000000	00000013	addi	x0,x0,0	  x0:0x00000000
       10485000	      1047	80000750	00000013	addi	x0,x0,0	  x0:0x00000000
       10495000	      1048	80000754	fe5ff0ef	jal	x1,80000754	  x1=0x80000754
       10505000	      1049	00000000	00000013	addi	x0,x0,0	  x0:0x00000000
       10515000	      1050	80000734	00000013	addi	x0,x0,0	  x0:0x00000000
       10525000	      1051	80000738	03c0036f	jal	x6,80000738	  x6=0x80000738
       10535000	      1052	00000000	00000013	addi	x0,x0,0	  x0:0x00000000
       10545000	      1053	80000770	00000013	addi	x0,x0,0	  x0:0x00000000
       10555000	      1054	80000774	ffdff0ef	jal	x1,80000774	  x1=0x80000774
       10565000	      1055	00000000	00000013	addi	x0,x0,0	  x0:0x00000000
       10575000	      1056	8000076c	00000013	addi	x0,x0,0	  x0:0x00000000
       10585000	      1057	80000770	fcdff0ef	jal	x1,80000770	  x1=0x80000770
       10595000	      1058	00000000	00000013	addi	x0,x0,0	  x0:0x00000000
       10605000	      1059	80000738	00000013	addi	x0,x0,0	  x0:0x00000000
       10615000	      1060	8000073c	00c000ef	jal	x1,8000073c	  x1=0x8000073c
       10625000	      1061	00000000	00000013	addi	x0,x0,0	  x0:0x00000000
       10635000	      1062	80000744	00000013	addi	x0,x0,0	  x0:0x00000000
       10645000	      1063	80000748	fe9ff0ef	jal	x1,80000748	  x1=0x80000748
       10655000	      1064	00000000	00000013	addi	x0,x0,0	  x0:0x00000000
       10665000	      1065	8000072c	00000013	addi	x0,x0,0	  x0:0x00000000
       10675000	      1066	80000730	014000ef	jal	x1,80000730	  x1=0x80000730
       10685000	      1067	00000000	00000013	addi	x0,x0,0	  x0:0x00000000
       10695000	      1068	80000740	00000013	addi	x0,x0,0	  x0:0x00000000
       10705000	      1069	80000744	028000ef	jal	x1,80000744	  x1=0x80000744
       10715000	      1070	00000000	00000013	addi	x0,x0,0	  x0:0x00000000
       10725000	      1071	80000768	00000013	addi	x0,x0,0	  x0:0x00000000
       10735000	      1072	8000076c	fbdff2ef	jal	x5,8000076c	  x5=0x8000076c
       10745000	      1073	00000000	00000013	addi	x0,x0,0	  x0:0x00000000
       10755000	      1074	80000724	00000013	addi	x0,x0,0	  x0:0x00000000
       10765000	      1075	80000728	034000ef	jal	x1,80000728	  x1=0x80000728
       10775000	      1076	00000000	00000013	addi	x0,x0,0	  x0:0x00000000
       10785000	      1077	80000758	00000013	addi	x0,x0,0	  x0:0x00000000
       10795000	      1078	8000075c	02c000ef	jal	x1,8000075c	  x1=0x8000075c
       10805000	      1079	00000000	00000013	addi	x0,x0,0	  x0:0x00000000
       10815000	      1080	80000784	00000013	addi	x0,x0,0	  x0:0x00000000
       10825000	      1081	80000788	fddff0ef	jal	x1,80000788	  x1=0x80000788
       10835000	      1082	00000000	00000013	addi	x0,x0,0	  x0:0x00000000
       10845000	      1083	80000760	00000013	addi	x0,x0,0	  x0:0x00000000
       10855000	      1084	80000764	fedff0ef	jal	x1,80000764	  x1=0x80000764
       10865000	      1085	00000000	00000013	addi	x0,x0,0	  x0:0x00000000
       10875000	      1086	8000074c	00000013	addi	x0,x0,0	  x0:0x00000000
       10885000	      1087	80000750	03c008ef	jal	x17,80000750	 x17=0x80000750
       10895000	      1088	00000000	00000013	addi	x0,x0,0	  x0:0x00000000
       10905000	      1089	80000788	00000013	addi	x0,x0,0	  x0:0x00000000
       10915000	      1090	8000078c	0172c633	xor	x12,x5,x23	  x5:0x8000076c x23:0x800004b8 x12=0x000003d4
       10925000	      1091	80000790	03c00f6f	jal	x30,80000790	 x30=0x80000790
       10935000	      1092	00000000	00000013	addi	x0,x0,0	  x0:0x00000000
       10945000	      1093	800007c8	00000013	addi	x0,x0,0	  x0:0x00000000
       10955000	      1094	800007cc	ff9ff36f	jal	x6,800007cc	  x6=0x800007cc
       10965000	      1095	00000000	00000013	addi	x0,x0,0	  x0:0x00000000
       10975000	      1096	800007c0	00000013	addi	x0,x0,0	  x0:0x00000000
       10985000	      1097	800007c4	0040036f	jal	x6,800007c4	  x6=0x800007c4
       10995000	      1098	00000000	00000013	addi	x0,x0,0	  x0:0x00000000
       11005000	      1099	800007c4	00000013	addi	x0,x0,0	  x0:0x00000000
       11015000	      1100	800007c8	014006ef	jal	x13,800007c8	 x13=0x800007c8
       11025000	      1101	00000000	00000013	addi	x0,x0,0	  x0:0x00000000
       11035000	      1102	800007d8	00000013	addi	x0,x0,0	  x0:0x00000000
       11045000	      1103	800007dc	ff9ff0ef	jal	x1,800007dc	  x1=0x800007dc
       11055000	      1104	00000000	00000013	addi	x0,x0,0	  x0:0x00000000
       11065000	      1105	800007d0	00000013	addi	x0,x0,0	  x0:0x00000000
       11075000	      1106	800007d4	fe1ff0ef	jal	x1,800007d4	  x1=0x800007d4
       11085000	      1107	00000000	00000013	addi	x0,x0,0	  x0:0x00000000
       11095000	      1108	800007b0	00000013	addi	x0,x0,0	  x0:0x00000000
       11105000	      1109	800007b4	fe5ff0ef	jal	x1,800007b4	  x1=0x800007b4
       11115000	      1110	00000000	00000013	addi	x0,x0,0	  x0:0x00000000
       11125000	      1111	80000794	00000013	addi	x0,x0,0	  x0:0x00000000
       11135000	      1112	80000798	0400036f	jal	x6,80000798	  x6=0x80000798
       11145000	      1113	00000000	00000013	addi	x0,x0,0	  x0:0x00000000
       11155000	      1114	800007d4	00000013	addi	x0,x0,0	  x0:0x00000000
       11165000	      1115	800007d8	fc9ff36f	jal	x6,800007d8	  x6=0x800007d8
       11175000	      1116	00000000	00000013	addi	x0,x0,0	  x0:0x00000000
       11185000	      1117	8000079c	00000013	addi	x0,x0,0	  x0:0x00000000
       11195000	      1118	800007a0	0180036f	jal	x6,800007a0	  x6=0x800007a0
       11205000	      1119	00000000	00000013	addi	x0,x0,0	  x0:0x00000000
       11215000	      1120	800007b4	00000013	addi	x0,x0,0	  x0:0x00000000
       11225000	      1121	800007b8	fddff0ef	jal	x1,800007b8	  x1=0x800007b8
       11235000	      1122	00000000	00000013	addi	x0,x0,0	  x0:0x00000000
       11245000	      1123	80000790	00000013	addi	x0,x0,0	  x0:0x00000000
       11255000	      1124	80000794	0100026f	jal	x4,80000794	  x4=0x80000794
       11265000	      1125	00000000	00000013	addi	x0,x0,0	  x0:0x00000000
       11275000	      1126	800007a0	00000013	addi	x0,x0,0	  x0:0x00000000
       11285000	      1127	800007a4	018000ef	jal	x1,800007a4	  x1=0x800007a4
       11295000	      1128	00000000	00000013	addi	x0,x0,0	  x0:0x00000000
       11305000	      1129	800007b8	00000013	addi	x0,x0,0	  x0:0x00000000
       11315000	      1130	800007bc	014000ef	jal	x1,800007bc	  x1=0x800007bc
       11325000	      1131	00000000	00000013	addi	x0,x0,0	  x0:0x00000000
       11335000	      1132	800007cc	00000013	addi	x0,x0,0	  x0:0x00000000
       11345000	      1133	800007d0	ff1ff36f	jal	x6,800007d0	  x6=0x800007d0
       11355000	      1134	00000000	00000013	addi	x0,x0,0	  x0:0x00000000
       11365000	      1135	800007bc	00000013	addi	x0,x0,0	  x0:0x00000000
       11375000	      1136	800007c0	ff1ff0ef	jal	x1,800007c0	  x1=0x800007c0
       11385000	      1137	00000000	00000013	addi	x0,x0,0	  x0:0x00000000
       11395000	      1138	800007ac	00000013	addi	x0,x0,0	  x0:0x00000000
       11405000	      1139	800007b0	ff9ff0ef	jal	x1,800007b0	  x1=0x800007b0
       11415000	      1140	00000000	00000013	addi	x0,x0,0	  x0:0x00000000
       11425000	      1141	800007a4	00000013	addi	x0,x0,0	  x0:0x00000000
       11435000	      1142	800007a8	0040036f	jal	x6,800007a8	  x6=0x800007a8
       11445000	      1143	00000000	00000013	addi	x0,x0,0	  x0:0x00000000
       11455000	      1144	800007a8	00000013	addi	x0,x0,0	  x0:0x00000000
       11465000	      1145	800007ac	ff1ff36f	jal	x6,800007ac	  x6=0x800007ac
       11475000	      1146	00000000	00000013	addi	x0,x0,0	  x0:0x00000000
       11485000	      1147	80000798	00000013	addi	x0,x0,0	  x0:0x00000000
       11495000	      1148	8000079c	04400cef	jal	x25,8000079c	 x25=0x8000079c
       11505000	      1149	00000000	00000013	addi	x0,x0,0	  x0:0x00000000
       11515000	      1150	800007dc	00000013	addi	x0,x0,0	  x0:0x00000000
       11525000	      1151	800007e0	84963d13	sltiu	x26,x12,-1975	 x12:0x000003d4 x26=0x00000001
       11535000	      1152	800007e4	00bf4d33	xor	x26,x30,x11	 x30:0x80000790 x11:0x80000614 x26=0x00000184
       11545000	      1153	800007e8	00c432b3	sltu	x5,x8,x12	  x8:0x80000654 x12:0x000003d4  x5=0x00000000
       11555000	      1154	800007ec	01c38a63	beq	x7,x28,80000800	  x7:0x80000724 x28:0x80000780
       11565000	      1155	800007f0	00000013	addi	x0,x0,0	  x0:0x00000000
       11575000	      1156	800007f4	00665e17	auipc	x28,0x665	 x28=0x806657f0
       11585000	      1157	800007f8	40db5193	srai	x3,x22,0xd	 x22:0x80009fc4  x3=0xfffc0004
       11595000	      1158	800007fc	0103eab3	or	x21,x7,x16	  x7:0x80000724 x16:0x80000484 x21=0x800007a4
       11605000	      1159	80000800	048e6663	bltu	x28,x8,8000084c	 x28:0x806657f0  x8:0x80000654
       11615000	      1160	80000804	000bf7b3	and	x15,x23,x0	 x23:0x800004b8  x0:0x00000000 x15=0x00000000
       11625000	      1161	80000808	00000013	addi	x0,x0,0	  x0:0x00000000
       11635000	      1162	8000080c	dc8b6113	ori	x2,x22,-568	 x22:0x80009fc4  x2=0xffffffcc
       11645000	      1163	80000810	40965233	sra	x4,x12,x9	 x12:0x000003d4  x9:0x800005e8  x4=0x00000003
       11655000	      1164	80000814	a87bc593	xori	x11,x23,-1401	 x23:0x800004b8 x11=0x7ffffe3f
       11665000	      1165	80000818	01aec5b3	xor	x11,x29,x26	 x29:0x00000000 x26:0x00000184 x11=0x00000184
       11675000	      1166	8000081c	01ab2ab3	slt	x21,x22,x26	 x22:0x80009fc4 x26:0x00000184 x21=0x00000001
       11685000	      1167	80000820	00b6d033	srl	x0,x13,x11	 x13:0x800007c8 x11:0x00000184
       11695000	      1168	80000824	869d6793	ori	x15,x26,-1943	 x26:0x00000184 x15=0xfffff9ed
       11705000	      1169	80000828	02fe6463	bltu	x28,x15,80000850	 x28:0x806657f0 x15:0xfffff9ed
       11715000	      1170	00000000	00000013	addi	x0,x0,0	  x0:0x00000000
       11725000	      1171	8000084c	00000013	addi	x0,x0,0	  x0:0x00000000
       11735000	      1172	80000850	1094f793	andi	x15,x9,265	  x9:0x800005e8 x15=0x00000108
       11745000	      1173	80000854	012557b3	srl	x15,x10,x18	 x10:0xffffff84 x18:0x80009ee4 x15=0x0ffffff8
       11755000	      1174	80000858	01ba2a33	slt	x20,x20,x27	 x20:0x80000460 x27:0x80000494 x20=0x00000001
       11765000	      1175	8000085c	83043713	sltiu	x14,x8,-2000	  x8:0x80000654 x14=0x00000001
       11775000	      1176	80000860	04239463	bne	x7,x2,800008a8	  x7:0x80000724  x2:0xffffffcc
       11785000	      1177	00000000	00000013	addi	x0,x0,0	  x0:0x00000000
       11795000	      1178	800008a4	00000013	addi	x0,x0,0	  x0:0x00000000
       11805000	      1179	800008a8	00e81313	slli	x6,x16,0xe	 x16:0x80000484  x6=0x01210000
       11815000	      1180	800008ac	01b26533	or	x10,x4,x27	  x4:0x00000003 x27:0x80000494 x10=0x80000497
       11825000	      1181	800008b0	03adc863	blt	x27,x26,800008e0	 x27:0x80000494 x26:0x00000184
       11835000	      1182	00000000	00000013	addi	x0,x0,0	  x0:0x00000000
       11845000	      1183	800008dc	00000013	addi	x0,x0,0	  x0:0x00000000
       11855000	      1184	800008e0	041a5463	bge	x20,x1,80000928	 x20:0x00000001  x1:0x800007b0
       11865000	      1185	00000000	00000013	addi	x0,x0,0	  x0:0x00000000
       11875000	      1186	80000924	00000013	addi	x0,x0,0	  x0:0x00000000
       11885000	      1187	80000928	01eb6d33	or	x26,x22,x30	 x22:0x80009fc4 x30:0x80000790 x26=0x80009fd4
       11895000	      1188	8000092c	40220833	sub	x16,x4,x2	  x4:0x00000003  x2:0xffffffcc x16=0x00000037
       11905000	      1189	80000930	000bb7b3	sltu	x15,x23,x0	 x23:0x800004b8  x0:0x00000000 x15=0x00000000
       11915000	      1190	80000934	01297c63	bgeu	x18,x18,8000094c	 x18:0x80009ee4 x18:0x80009ee4
       11925000	      1191	00000000	00000013	addi	x0,x0,0	  x0:0x00000000
       11935000	      1192	80000948	00000013	addi	x0,x0,0	  x0:0x00000000
       11945000	      1193	8000094c	af8a2b93	slti	x23,x20,-1288	 x20:0x00000001 x23=0x00000000
       11955000	      1194	80000950	0046feb3	and	x29,x13,x4	 x13:0x800007c8  x4:0x00000003 x29=0x00000000
       11965000	      1195	80000954	402d8633	sub	x12,x27,x2	 x27:0x80000494  x2:0xffffffcc x12=0x800004c8
       11975000	      1196	80000958	010a04b3	add	x9,x20,x16	 x20:0x00000001 x16:0x00000037  x9=0x00000038
       11985000	      1197	8000095c	9f143213	sltiu	x4,x8,-1551	  x8:0x80000654  x4=0x00000001
       11995000	      1198	80000960	015f19b3	sll	x19,x30,x21	 x30:0x80000790 x21:0x00000001 x19=0x00000f20
       12005000	      1199	80000964	4172de93	srai	x29,x5,0x17	  x5:0x00000000 x29=0x00000000
       12015000	      1200	80000968	00a256b3	srl	x13,x4,x10	  x4:0x00000001 x10:0x80000497 x13=0x00000000
       12025000	      1201	8000096c	41955d33	sra	x26,x10,x25	 x10:0x80000497 x25:0x8000079c x26=0xfffffff8
       12035000	      1202	80000970	e2c93213	sltiu	x4,x18,-468	 x18:0x80009ee4  x4=0x00000001
       12045000	      1203	80000974	03381463	bne	x16,x19,8000099c	 x16:0x00000037 x19:0x00000f20
       12055000	      1204	00000000	00000013	addi	x0,x0,0	  x0:0x00000000
       12065000	      1205	80000998	00000013	addi	x0,x0,0	  x0:0x00000000
       12075000	      1206	8000099c	e1b7c213	xori	x4,x15,-485	 x15:0x00000000  x4=0xfffffe1b
       12085000	      1207	800009a0	02a9d663	bge	x19,x10,800009cc	 x19:0x00000f20 x10:0x80000497
       12095000	      1208	00000000	00000013	addi	x0,x0,0	  x0:0x00000000
       12105000	      1209	800009c8	00000013	addi	x0,x0,0	  x0:0x00000000
       12115000	      1210	800009cc	009315b3	sll	x11,x6,x9	  x6:0x01210000  x9:0x00000038 x11=0x00000000
       12125000	      1211	800009d0	0179bf33	sltu	x30,x19,x23	 x19:0x00000f20 x23:0x00000000 x30=0x00000000
       12135000	      1212	800009d4	fce97cb7	lui	x25,0xfce97	 x25=0xfce97000
       12145000	      1213	800009d8	048a7263	bgeu	x20,x8,80000a1c	 x20:0x00000001  x8:0x80000654
       12155000	      1214	800009dc	0049c8b3	xor	x17,x19,x4	 x19:0x00000f20  x4:0xfffffe1b x17=0xfffff13b
       12165000	      1215	800009e0	05806463	bltu	x0,x24,80000a28	  x0:0x00000000 x24:0xfebf7031
       12175000	      1216	00000000	00000013	addi	x0,x0,0	  x0:0x00000000
       12185000	      1217	80000a24	00000013	addi	x0,x0,0	  x0:0x00000000
       12195000	      1218	80000a28	003d0e33	add	x28,x26,x3	 x26:0xfffffff8  x3:0xfffc0004 x28=0xfffbfffc
       12205000	      1219	80000a2c	ad15e713	ori	x14,x11,-1327	 x11:0x00000000 x14=0xfffffad1
       12215000	      1220	80000a30	c7d40213	addi	x4,x8,-899	  x8:0x80000654  x4=0x800002d1
       12225000	      1221	80000a34	40afd0b3	sra	x1,x31,x10	 x31:0x80000708 x10:0x80000497  x1=0xffffff00
       12235000	      1222	80000a38	05526037	lui	x0,0x5526	
       12245000	      1223	80000a3c	00000013	addi	x0,x0,0	  x0:0x00000000
       12255000	      1224	80000a40	0019f3b3	and	x7,x19,x1	 x19:0x00000f20  x1:0xffffff00  x7=0x00000f00
       12265000	      1225	80000a44	78858bb7	lui	x23,0x78858	 x23=0x78858000
       12275000	      1226	80000a48	06d5ae13	slti	x28,x11,109	 x11:0x00000000 x28=0x00000001
       12285000	      1227	80000a4c	01fc2fb3	slt	x31,x24,x31	 x24:0xfebf7031 x31:0x80000708 x31=0x00000000
       12295000	      1228	80000a50	03af6263	bltu	x30,x26,80000a74	 x30:0x00000000 x26:0xfffffff8
       12305000	      1229	00000000	00000013	addi	x0,x0,0	  x0:0x00000000
       12315000	      1230	80000a70	00000013	addi	x0,x0,0	  x0:0x00000000
       12325000	      1231	80000a74	e6022e93	slti	x29,x4,-416	  x4:0x800002d1 x29=0x00000001
       12335000	      1232	80000a78	02beee63	bltu	x29,x11,80000ab4	 x29:0x00000001 x11:0x00000000
       12345000	      1233	80000a7c	37bc7193	andi	x3,x24,891	 x24:0xfebf7031  x3=0x00000031
       12355000	      1234	80000a80	011d5a13	srli	x20,x26,0x11	 x26:0xfffffff8 x20=0x00007fff
       12365000	      1235	80000a84	0149ceb3	xor	x29,x19,x20	 x19:0x00000f20 x20:0x00007fff x29=0x000070df
       12375000	      1236	80000a88	051c0d17	auipc	x26,0x51c0	 x26=0x851c0a84
       12385000	      1237	80000a8c	40945d93	srai	x27,x8,0x9	  x8:0x80000654 x27=0xffc00003
       12395000	      1238	80000a90	41ff0f33	sub	x30,x30,x31	 x30:0x00000000 x31:0x00000000 x30=0x00000000
       12405000	      1239	80000a94	0105e463	bltu	x11,x16,80000a9c	 x11:0x00000000 x16:0x00000037
       12415000	      1240	00000000	00000013	addi	x0,x0,0	  x0:0x00000000
       12425000	      1241	80000a98	00000013	addi	x0,x0,0	  x0:0x00000000
       12435000	      1242	80000a9c	54500493	addi	x9,x0,1349	  x0:0x00000000  x9=0x00000545
       12445000	      1243	80000aa0	00980f33	add	x30,x16,x9	 x16:0x00000037  x9:0x00000545 x30=0x0000057c
       12455000	      1244	80000aa4	02c55463	bge	x10,x12,80000acc	 x10:0x80000497 x12:0x800004c8
       12465000	      1245	80000aa8	f2a4efb7	lui	x31,0xf2a4e	 x31=0xf2a4e000
       12475000	      1246	80000aac	7c3ee137	lui	x2,0x7c3ee	  x2=0x7c3ee000
       12485000	      1247	80000ab0	00022d33	slt	x26,x4,x0	  x4:0x800002d1  x0:0x00000000 x26=0x00000001
       12495000	      1248	80000ab4	04629063	bne	x5,x6,80000af4	  x5:0x00000000  x6:0x01210000
       12505000	      1249	00000000	00000013	addi	x0,x0,0	  x0:0x00000000
       12515000	      1250	80000af0	00000013	addi	x0,x0,0	  x0:0x00000000
       12525000	      1251	80000af4	40b55ab3	sra	x21,x10,x11	 x10:0x80000497 x11:0x00000000 x21=0x80000497
       12535000	      1252	80000af8	406708b3	sub	x17,x14,x6	 x14:0xfffffad1  x6:0x01210000 x17=0xfedefad1
       12545000	      1253	80000afc	419a5733	sra	x14,x20,x25	 x20:0x00007fff x25:0xfce97000 x14=0x00007fff
       12555000	      1254	80000b00	99f46013	ori	x0,x8,-1633	  x8:0x80000654
       12565000	      1255	80000b04	00000013	addi	x0,x0,0	  x0:0x00000000
       12575000	      1256	80000b08	00b7f533	and	x10,x15,x11	 x15:0x00000000 x11:0x00000000 x10=0x00000000
       12585000	      1257	80000b0c	005c30b3	sltu	x1,x24,x5	 x24:0xfebf7031  x5:0x00000000  x1=0x00000000
       12595000	      1258	80000b10	083cab93	slti	x23,x25,131	 x25:0xfce97000 x23=0x00000001
       12605000	      1259	80000b14	015fc233	xor	x4,x31,x21	 x31:0xf2a4e000 x21:0x80000497  x4=0x72a4e497
       12615000	      1260	80000b18	00fa1993	slli	x19,x20,0xf	 x20:0x00007fff x19=0x3fff8000
       12625000	      1261	80000b1c	003fa233	slt	x4,x31,x3	 x31:0xf2a4e000  x3:0x00000031  x4=0x00000001
       12635000	      1262	80000b20	01557a33	and	x20,x10,x21	 x10:0x00000000 x21:0x80000497 x20=0x00000000
       12645000	      1263	80000b24	00000013	addi	x0,x0,0	  x0:0x00000000
       12655000	      1264	80000b28	006a9d33	sll	x26,x21,x6	 x21:0x80000497  x6:0x01210000 x26=0x80000497
       12665000	      1265	80000b2c	001dce63	blt	x27,x1,80000b48	 x27:0xffc00003  x1:0x00000000
       12675000	      1266	00000000	00000013	addi	x0,x0,0	  x0:0x00000000
       12685000	      1267	80000b44	00000013	addi	x0,x0,0	  x0:0x00000000
       12695000	      1268	80000b48	00f45233	srl	x4,x8,x15	  x8:0x80000654 x15:0x00000000  x4=0x80000654
       12705000	      1269	80000b4c	67f1e1b7	lui	x3,0x67f1e	  x3=0x67f1e000
       12715000	      1270	80000b50	01fbd813	srli	x16,x23,0x1f	 x23:0x00000001 x16=0x00000000
       12725000	      1271	80000b54	00cf0233	add	x4,x30,x12	 x30:0x0000057c x12:0x800004c8  x4=0x80000a44
       12735000	      1272	80000b58	f72c6893	ori	x17,x24,-142	 x24:0xfebf7031 x17=0xffffff73
       12745000	      1273	80000b5c	bd8c7f13	andi	x30,x24,-1064	 x24:0xfebf7031 x30=0xfebf7010
       12755000	      1274	80000b60	ddef4393	xori	x7,x30,-546	 x30:0xfebf7010  x7=0x01408dce
       12765000	      1275	80000b64	00c56433	or	x8,x10,x12	 x10:0x00000000 x12:0x800004c8  x8=0x800004c8
       12775000	      1276	80000b68	768e8d13	addi	x26,x29,1896	 x29:0x000070df x26=0x00007847
       12785000	      1277	80000b6c	04349463	bne	x9,x3,80000bb4	  x9:0x00000545  x3:0x67f1e000
       12795000	      1278	00000000	00000013	addi	x0,x0,0	  x0:0x00000000
       12805000	      1279	80000bb0	00000013	addi	x0,x0,0	  x0:0x00000000
       12815000	      1280	80000bb4	02589063	bne	x17,x5,80000bd4	 x17:0xffffff73  x5:0x00000000
       12825000	      1281	00000000	00000013	addi	x0,x0,0	  x0:0x00000000
       12835000	      1282	80000bd0	00000013	addi	x0,x0,0	  x0:0x00000000
       12845000	      1283	80000bd4	007fec63	bltu	x31,x7,80000bec	 x31:0xf2a4e000  x7:0x01408dce
       12855000	      1284	80000bd8	07880437	lui	x8,0x7880	  x8=0x07880000
       12865000	      1285	80000bdc	40058033	sub	x0,x11,x0	 x11:0x00000000  x0:0x00000000
       12875000	      1286	80000be0	0562c463	blt	x5,x22,80000c28	  x5:0x00000000 x22:0x80009fc4
       12885000	      1287	80000be4	9c718713	addi	x14,x3,-1593	  x3:0x67f1e000 x14=0x67f1d9c7
       12895000	      1288	80000be8	01768f33	add	x30,x13,x23	 x13:0x00000000 x23:0x00000001 x30=0x00000001
       12905000	      1289	80000bec	41b9d133	sra	x2,x19,x27	 x19:0x3fff8000 x27:0xffc00003  x2=0x07fff000
       12915000	      1290	80000bf0	01dd9313	slli	x6,x27,0x1d	 x27:0xffc00003  x6=0x60000000
       12925000	      1291	80000bf4	002d54b3	srl	x9,x26,x2	 x26:0x00007847  x2:0x07fff000  x9=0x00007847
       12935000	      1292	80000bf8	01804433	xor	x8,x0,x24	  x0:0x00000000 x24:0xfebf7031  x8=0xfebf7031
       12945000	      1293	80000bfc	00000013	addi	x0,x0,0	  x0:0x00000000
       12955000	      1294	80000c00	4195d3b3	sra	x7,x11,x25	 x11:0x00000000 x25:0xfce97000  x7=0x00000000
       12965000	      1295	80000c04	417bd593	srai	x11,x23,0x17	 x23:0x00000001 x11=0x00000000
       12975000	      1296	80000c08	019b1eb3	sll	x29,x22,x25	 x22:0x80009fc4 x25:0xfce97000 x29=0x80009fc4
       12985000	      1297	80000c0c	405684b3	sub	x9,x13,x5	 x13:0x00000000  x5:0x00000000  x9=0x00000000
       12995000	      1298	80000c10	004aef33	or	x30,x21,x4	 x21:0x80000497  x4:0x80000a44 x30=0x80000ed7
       13005000	      1299	80000c14	40150f33	sub	x30,x10,x1	 x10:0x00000000  x1:0x00000000 x30=0x00000000
       13015000	      1300	80000c18	00000013	addi	x0,x0,0	  x0:0x00000000
       13025000	      1301	80000c1c	00934833	xor	x16,x6,x9	  x6:0x60000000  x9:0x00000000 x16=0x60000000
       13035000	      1302	80000c20	01f90fb3	add	x31,x18,x31	 x18:0x80009ee4 x31:0xf2a4e000 x31=0x72a57ee4
       13045000	      1303	80000c24	01451193	slli	x3,x10,0x14	 x10:0x00000000  x3=0x00000000
       13055000	      1304	80000c28	26f9b293	sltiu	x5,x19,623	 x19:0x3fff8000  x5=0x00000000
       13065000	      1305	80000c2c	02159463	bne	x11,x1,80000c54	 x11:0x00000000  x1:0x00000000
       13075000	      1306	80000c30	307d7b93	andi	x23,x26,775	 x26:0x00007847 x23=0x00000007
       13085000	      1307	80000c34	9e08a093	slti	x1,x17,-1568	 x17:0xffffff73  x1=0x00000000
       13095000	      1308	80000c38	00bcddb3	srl	x27,x25,x11	 x25:0xfce97000 x11:0x00000000 x27=0xfce97000
       13105000	      1309	80000c3c	01b4c9b3	xor	x19,x9,x27	  x9:0x00000000 x27:0xfce97000 x19=0xfce97000
       13115000	      1310	80000c40	0144a233	slt	x4,x9,x20	  x9:0x00000000 x20:0x00000000  x4=0x00000000
       13125000	      1311	80000c44	00000013	addi	x0,x0,0	  x0:0x00000000
       13135000	      1312	80000c48	4f2fb413	sltiu	x8,x31,1266	 x31:0x72a57ee4  x8=0x00000000
       13145000	      1313	80000c4c	f43de313	ori	x6,x27,-189	 x27:0xfce97000  x6=0xffffff43
       13155000	      1314	80000c50	00000013	addi	x0,x0,0	  x0:0x00000000
       13165000	      1315	80000c54	04e29463	bne	x5,x14,80000c9c	  x5:0x00000000 x14:0x67f1d9c7
       13175000	      1316	00000000	00000013	addi	x0,x0,0	  x0:0x00000000
       13185000	      1317	80000c98	00000013	addi	x0,x0,0	  x0:0x00000000
       13195000	      1318	80000c9c	002116b3	sll	x13,x2,x2	  x2:0x07fff000  x2:0x07fff000 x13=0x07fff000
       13205000	      1319	80000ca0	0333d863	bge	x7,x19,80000cd0	  x7:0x00000000 x19:0xfce97000
       13215000	      1320	00000000	00000013	addi	x0,x0,0	  x0:0x00000000
       13225000	      1321	80000ccc	00000013	addi	x0,x0,0	  x0:0x00000000
       13235000	      1322	80000cd0	fde64a93	xori	x21,x12,-34	 x12:0x800004c8 x21=0x7ffffb16
       13245000	      1323	80000cd4	d2990693	addi	x13,x18,-727	 x18:0x80009ee4 x13=0x80009c0d
       13255000	      1324	80000cd8	018fd213	srli	x4,x31,0x18	 x31:0x72a57ee4  x4=0x00000072
       13265000	      1325	80000cdc	58850493	addi	x9,x10,1416	 x10:0x00000000  x9=0x00000588
       13275000	      1326	80000ce0	7d62e513	ori	x10,x5,2006	  x5:0x00000000 x10=0x000007d6
       13285000	      1327	80000ce4	07148693	addi	x13,x9,113	  x9:0x00000588 x13=0x000005f9
       13295000	      1328	80000ce8	9c714793	xori	x15,x2,-1593	  x2:0x07fff000 x15=0xf80009c7
       13305000	      1329	80000cec	0555d863	bge	x11,x21,80000d3c	 x11:0x00000000 x21:0x7ffffb16
       13315000	      1330	80000cf0	aed8e137	lui	x2,0xaed8e	  x2=0xaed8e000
       13325000	      1331	80000cf4	059af063	bgeu	x21,x25,80000d34	 x21:0x7ffffb16 x25:0xfce97000
       13335000	      1332	80000cf8	00e5bd33	sltu	x26,x11,x14	 x11:0x00000000 x14:0x67f1d9c7 x26=0x00000001
       13345000	      1333	80000cfc	0058f3b3	and	x7,x17,x5	 x17:0xffffff73  x5:0x00000000  x7=0x00000000
       13355000	      1334	80000d00	05cb0663	beq	x22,x28,80000d4c	 x22:0x80009fc4 x28:0x00000001
       13365000	      1335	80000d04	000a3a33	sltu	x20,x20,x0	 x20:0x00000000  x0:0x00000000 x20=0x00000000
       13375000	      1336	80000d08	0192d793	srli	x15,x5,0x19	  x5:0x00000000 x15=0x00000000
       13385000	      1337	80000d0c	00000013	addi	x0,x0,0	  x0:0x00000000
       13395000	      1338	80000d10	01dc12b3	sll	x5,x24,x29	 x24:0xfebf7031 x29:0x80009fc4  x5=0xebf70310
       13405000	      1339	80000d14	005c1fb3	sll	x31,x24,x5	 x24:0xfebf7031  x5:0xebf70310 x31=0x70310000
       13415000	      1340	80000d18	00d8fdb3	and	x27,x17,x13	 x17:0xffffff73 x13:0x000005f9 x27=0x00000571
       13425000	      1341	80000d1c	6cbf0513	addi	x10,x30,1739	 x30:0x00000000 x10=0x000006cb
       13435000	      1342	80000d20	419486b3	sub	x13,x9,x25	  x9:0x00000588 x25:0xfce97000 x13=0x03169588
       13445000	      1343	80000d24	005dc0b3	xor	x1,x27,x5	 x27:0x00000571  x5:0xebf70310  x1=0xebf70661
       13455000	      1344	80000d28	01dd49b3	xor	x19,x26,x29	 x26:0x00000001 x29:0x80009fc4 x19=0x80009fc5
       13465000	      1345	80000d2c	054c5463	bge	x24,x20,80000d74	 x24:0xfebf7031 x20:0x00000000
       13475000	      1346	80000d30	013d4633	xor	x12,x26,x19	 x26:0x00000001 x19:0x80009fc5 x12=0x80009fc4
       13485000	      1347	80000d34	007902b3	add	x5,x18,x7	 x18:0x80009ee4  x7:0x00000000  x5=0x80009ee4
       13495000	      1348	80000d38	0151a133	slt	x2,x3,x21	  x3:0x00000000 x21:0x7ffffb16  x2=0x00000001
       13505000	      1349	80000d3c	a3dec593	xori	x11,x29,-1475	 x29:0x80009fc4 x11=0x7fff65f9
       13515000	      1350	80000d40	5305e897	auipc	x17,0x5305e	 x17=0xd305ed3c
       13525000	      1351	80000d44	01a590b3	sll	x1,x11,x26	 x11:0x7fff65f9 x26:0x00000001  x1=0xfffecbf2
       13535000	      1352	80000d48	0065cab3	xor	x21,x11,x6	 x11:0x7fff65f9  x6:0xffffff43 x21=0x80009aba
       13545000	      1353	80000d4c	40f4d293	srai	x5,x9,0xf	  x9:0x00000588  x5=0x00000000
       13555000	      1354	80000d50	04bfc063	blt	x31,x11,80000d90	 x31:0x70310000 x11:0x7fff65f9
       13565000	      1355	00000000	00000013	addi	x0,x0,0	  x0:0x00000000
       13575000	      1356	80000d8c	00000013	addi	x0,x0,0	  x0:0x00000000
       13585000	      1357	80000d90	9f6ee493	ori	x9,x29,-1546	 x29:0x80009fc4  x9=0xfffffff6
       13595000	      1358	80000d94	40f8db93	srai	x23,x17,0xf	 x17:0xd305ed3c x23=0xffffa60b
       13605000	      1359	80000d98	01d4edb3	or	x27,x9,x29	  x9:0xfffffff6 x29:0x80009fc4 x27=0xfffffff6
       13615000	      1360	80000d9c	cc408793	addi	x15,x1,-828	  x1:0xfffecbf2 x15=0xfffec8b6
       13625000	      1361	80000da0	416cd693	srai	x13,x25,0x16	 x25:0xfce97000 x13=0xfffffff3
       13635000	      1362	80000da4	00e59cb3	sll	x25,x11,x14	 x11:0x7fff65f9 x14:0x67f1d9c7 x25=0xffb2fc80
       13645000	      1363	80000da8	0112b133	sltu	x2,x5,x17	  x5:0x00000000 x17:0xd305ed3c  x2=0x00000001
       13655000	      1364	80000dac	411ad733	sra	x14,x21,x17	 x21:0x80009aba x17:0xd305ed3c x14=0xfffffff8
       13665000	      1365	80000db0	01d99a93	slli	x21,x19,0x1d	 x19:0x80009fc5 x21=0xa0000000
       13675000	      1366	80000db4	01671db3	sll	x27,x14,x22	 x14:0xfffffff8 x22:0x80009fc4 x27=0xffffff80
       13685000	      1367	80000db8	05361663	bne	x12,x19,80000e04	 x12:0x80009fc4 x19:0x80009fc5
       13695000	      1368	00000000	00000013	addi	x0,x0,0	  x0:0x00000000
       13705000	      1369	80000e00	00000013	addi	x0,x0,0	  x0:0x00000000
       13715000	      1370	80000e04	a2b33113	sltiu	x2,x6,-1493	  x6:0xffffff43  x2=0x00000000
       13725000	      1371	80000e08	47230713	addi	x14,x6,1138	  x6:0xffffff43 x14=0x000003b5
       13735000	      1372	80000e0c	04e95063	bge	x18,x14,80000e4c	 x18:0x80009ee4 x14:0x000003b5
       13745000	      1373	80000e10	01c62533	slt	x10,x12,x28	 x12:0x80009fc4 x28:0x00000001 x10=0x00000001
       13755000	      1374	80000e14	0205e463	bltu	x11,x0,80000e3c	 x11:0x7fff65f9  x0:0x00000000
       13765000	      1375	80000e18	13d2a297	auipc	x5,0x13d2a	  x5=0x93d2ae14
       13775000	      1376	80000e1c	01c0fe33	and	x28,x1,x28	  x1:0xfffecbf2 x28:0x00000001 x28=0x00000000
       13785000	      1377	80000e20	00be34b3	sltu	x9,x28,x11	 x28:0x00000000 x11:0x7fff65f9  x9=0x00000001
       13795000	      1378	80000e24	508e2b93	slti	x23,x28,1288	 x28:0x00000000 x23=0x00000001
       13805000	      1379	80000e28	01162f33	slt	x30,x12,x17	 x12:0x80009fc4 x17:0xd305ed3c x30=0x00000001
       13815000	      1380	80000e2c	025ffe63	bgeu	x31,x5,80000e68	 x31:0x70310000  x5:0x93d2ae14
       13825000	      1381	80000e30	00875533	srl	x10,x14,x8	 x14:0x000003b5  x8:0x00000000 x10=0x000003b5
       13835000	      1382	80000e34	00da5433	srl	x8,x20,x13	 x20:0x00000000 x13:0xfffffff3  x8=0x00000000
       13845000	      1383	80000e38	01881693	slli	x13,x16,0x18	 x16:0x60000000 x13=0x00000000
       13855000	      1384	80000e3c	40d45293	srai	x5,x8,0xd	  x8:0x00000000  x5=0x00000000
       13865000	      1385	80000e40	2cef0013	addi	x0,x30,718	 x30:0x00000001
       13875000	      1386	80000e44	04327463	bgeu	x4,x3,80000e8c	  x4:0x00000072  x3:0x00000000
       13885000	      1387	00000000	00000013	addi	x0,x0,0	  x0:0x00000000
       13895000	      1388	80000e88	00000013	addi	x0,x0,0	  x0:0x00000000
       13905000	      1389	80000e8c	00db09b3	add	x19,x22,x13	 x22:0x80009fc4 x13:0x00000000 x19=0x80009fc4
       13915000	      1390	80000e90	01e8a2b3	slt	x5,x17,x30	 x17:0xd305ed3c x30:0x00000001  x5=0x00000001
       13925000	      1391	80000e94	00f25733	srl	x14,x4,x15	  x4:0x00000072 x15:0xfffec8b6 x14=0x00000000
       13935000	      1392	80000e98	40c089b3	sub	x19,x1,x12	  x1:0xfffecbf2 x12:0x80009fc4 x19=0x7ffe2c2e
       13945000	      1393	80000e9c	de5c5c97	auipc	x25,0xde5c5	 x25=0x5e5c5e98
       13955000	      1394	80000ea0	0af48263	beq	x9,x15,80000f44	  x9:0x00000001 x15:0xfffec8b6
       13965000	      1395	80000ea4	080c1063	bne	x24,x0,80000f24	 x24:0xfebf7031  x0:0x00000000
       13975000	      1396	00000000	00000013	addi	x0,x0,0	  x0:0x00000000
       13985000	      1397	80000f20	00000013	addi	x0,x0,0	  x0:0x00000000
       13995000	      1398	80000f24	00234f33	xor	x30,x6,x2	  x6:0xffffff43  x2:0x00000000 x30=0xffffff43
       14005000	      1399	80000f28	04e54663	blt	x10,x14,80000f74	 x10:0x000003b5 x14:0x00000000
       14015000	      1400	80000f2c	0064ff33	and	x30,x9,x6	  x9:0x00000001  x6:0xffffff43 x30=0x00000001
       14025000	      1401	80000f30	0407c463	blt	x15,x0,80000f78	 x15:0xfffec8b6  x0:0x00000000
       14035000	      1402	00000000	00000013	addi	x0,x0,0	  x0:0x00000000
       14045000	      1403	80000f74	00000013	addi	x0,x0,0	  x0:0x00000000
       14055000	      1404	80000f78	00a36e63	bltu	x6,x10,80000f94	  x6:0xffffff43 x10:0x000003b5
       14065000	      1405	80000f7c	41bc87b3	sub	x15,x25,x27	 x25:0x5e5c5e98 x27:0xffffff80 x15=0x5e5c5f18
       14075000	      1406	80000f80	004a9f93	slli	x31,x21,0x4	 x21:0xa0000000 x31=0x00000000
       14085000	      1407	80000f84	01959213	slli	x4,x11,0x19	 x11:0x7fff65f9  x4=0xf2000000
       14095000	      1408	80000f88	416a51b3	sra	x3,x20,x22	 x20:0x00000000 x22:0x80009fc4  x3=0x00000000
       14105000	      1409	80000f8c	033eca63	blt	x29,x19,80000fc0	 x29:0x80009fc4 x19:0x7ffe2c2e
       14115000	      1410	00000000	00000013	addi	x0,x0,0	  x0:0x00000000
       14125000	      1411	80000fbc	00000013	addi	x0,x0,0	  x0:0x00000000
       14135000	      1412	80000fc0	018b96b3	sll	x13,x23,x24	 x23:0x00000001 x24:0xfebf7031 x13=0x00020000
       14145000	      1413	80000fc4	0274fc63	bgeu	x9,x7,80000ffc	  x9:0x00000001  x7:0x00000000
       14155000	      1414	00000000	00000013	addi	x0,x0,0	  x0:0x00000000
       14165000	      1415	80000ff8	00000013	addi	x0,x0,0	  x0:0x00000000
       14175000	      1416	80000ffc	014736b3	sltu	x13,x14,x20	 x14:0x00000000 x20:0x00000000 x13=0x00000000
       14185000	      1417	80001000	0042d513	srli	x10,x5,0x4	  x5:0x00000001 x10=0x00000000
       14195000	      1418	80001004	00fd3633	sltu	x12,x26,x15	 x26:0x00000001 x15:0x5e5c5f18 x12=0x00000001
       14205000	      1419	80001008	a1885637	lui	x12,0xa1885	 x12=0xa1885000
       14215000	      1420	8000100c	03140863	beq	x8,x17,8000103c	  x8:0x00000000 x17:0xd305ed3c
       14225000	      1421	80001010	05d17063	bgeu	x2,x29,80001050	  x2:0x00000000 x29:0x80009fc4
       14235000	      1422	80001014	02458e63	beq	x11,x4,80001050	 x11:0x7fff65f9  x4:0xf2000000
       14245000	      1423	80001018	01f0cdb3	xor	x27,x1,x31	  x1:0xfffecbf2 x31:0x00000000 x27=0xfffecbf2
       14255000	      1424	8000101c	40d28833	sub	x16,x5,x13	  x5:0x00000001 x13:0x00000000 x16=0x00000001
       14265000	      1425	80001020	02a6f663	bgeu	x13,x10,8000104c	 x13:0x00000000 x10:0x00000000
       14275000	      1426	00000000	00000013	addi	x0,x0,0	  x0:0x00000000
       14285000	      1427	80001048	00000013	addi	x0,x0,0	  x0:0x00000000
       14295000	      1428	8000104c	014b5a13	srli	x20,x22,0x14	 x22:0x80009fc4 x20=0x00000800
       14305000	      1429	80001050	018db3b3	sltu	x7,x27,x24	 x27:0xfffecbf2 x24:0xfebf7031  x7=0x00000000
       14315000	      1430	80001054	e21cc7b7	lui	x15,0xe21cc	 x15=0xe21cc000
       14325000	      1431	80001058	0193f3b3	and	x7,x7,x25	  x7:0x00000000 x25:0x5e5c5e98  x7=0x00000000
       14335000	      1432	8000105c	e996ddb7	lui	x27,0xe996d	 x27=0xe996d000
       14345000	      1433	80001060	04e4e463	bltu	x9,x14,800010a8	  x9:0x00000001 x14:0x00000000
       14355000	      1434	80001064	017ad5b3	srl	x11,x21,x23	 x21:0xa0000000 x23:0x00000001 x11=0x50000000
       14365000	      1435	80001068	001b16b3	sll	x13,x22,x1	 x22:0x80009fc4  x1:0xfffecbf2 x13=0x7f100000
       14375000	      1436	8000106c	01e314b3	sll	x9,x6,x30	  x6:0xffffff43 x30:0x00000001  x9=0xfffffe86
       14385000	      1437	80001070	004f9a13	slli	x20,x31,0x4	 x31:0x00000000 x20=0x00000000
       14395000	      1438	80001074	0026a9b3	slt	x19,x13,x2	 x13:0x7f100000  x2:0x00000000 x19=0x00000000
       14405000	      1439	80001078	4061d313	srai	x6,x3,0x6	  x3:0x00000000  x6=0x00000000
       14415000	      1440	8000107c	0169fe33	and	x28,x19,x22	 x19:0x00000000 x22:0x80009fc4 x28=0x00000000
       14425000	      1441	80001080	00865013	srli	x0,x12,0x8	 x12:0xa1885000
       14435000	      1442	80001084	03ddc463	blt	x27,x29,800010ac	 x27:0xe996d000 x29:0x80009fc4
       14445000	      1443	80001088	40aed813	srai	x16,x29,0xa	 x29:0x80009fc4 x16=0xffe00027
       14455000	      1444	8000108c	008ddfb3	srl	x31,x27,x8	 x27:0xe996d000  x8:0x00000000 x31=0xe996d000
       14465000	      1445	80001090	41fcd733	sra	x14,x25,x31	 x25:0x5e5c5e98 x31:0xe996d000 x14=0x5e5c5e98
       14475000	      1446	80001094	014c4333	xor	x6,x24,x20	 x24:0xfebf7031 x20:0x00000000  x6=0xfebf7031
       14485000	      1447	80001098	7cc52b93	slti	x23,x10,1996	 x10:0x00000000 x23=0x00000001
       14495000	      1448	8000109c	41e7da13	srai	x20,x15,0x1e	 x15:0xe21cc000 x20=0xffffffff
       14505000	      1449	800010a0	0133a233	slt	x4,x7,x19	  x7:0x00000000 x19:0x00000000  x4=0x00000000
       14515000	      1450	800010a4	c48b4a93	xori	x21,x22,-952	 x22:0x80009fc4 x21=0x7fff638c
       14525000	      1451	800010a8	013fa233	slt	x4,x31,x19	 x31:0xe996d000 x19:0x00000000  x4=0x00000001
       14535000	      1452	800010ac	f8bd6093	ori	x1,x26,-117	 x26:0x00000001  x1=0xffffff8b
       14545000	      1453	800010b0	400652b3	sra	x5,x12,x0	 x12:0xa1885000  x0:0x00000000  x5=0xa1885000
       14555000	      1454	800010b4	00000013	addi	x0,x0,0	  x0:0x00000000
       14565000	      1455	800010b8	871cd5b7	lui	x11,0x871cd	 x11=0x871cd000
       14575000	      1456	800010bc	d6b88b93	addi	x23,x17,-661	 x17:0xd305ed3c x23=0xd305eaa7
       14585000	      1457	800010c0	bb4a7c93	andi	x25,x20,-1100	 x20:0xffffffff x25=0xfffffbb4
       14595000	      1458	800010c4	5d897593	andi	x11,x18,1496	 x18:0x80009ee4 x11=0x000004c0
       14605000	      1459	800010c8	eb476317	auipc	x6,0xeb476	  x6=0x6b4770c4
       14615000	      1460	800010cc	00150cb3	add	x25,x10,x1	 x10:0x00000000  x1:0xffffff8b x25=0xffffff8b
       14625000	      1461	800010d0	02e47463	bgeu	x8,x14,800010f8	  x8:0x00000000 x14:0x5e5c5e98
       14635000	      1462	800010d4	01b5df33	srl	x30,x11,x27	 x11:0x000004c0 x27:0xe996d000 x30=0x000004c0
       14645000	      1463	800010d8	052bf063	bgeu	x23,x18,80001118	 x23:0xd305eaa7 x18:0x80009ee4
       14655000	      1464	00000000	00000013	addi	x0,x0,0	  x0:0x00000000
       14665000	      1465	80001114	00000013	addi	x0,x0,0	  x0:0x00000000
       14675000	      1466	80001118	00e01793	slli	x15,x0,0xe	  x0:0x00000000 x15=0x00000000
       14685000	      1467	8000111c	015936b3	sltu	x13,x18,x21	 x18:0x80009ee4 x21:0x7fff638c x13=0x00000000
       14695000	      1468	80001120	03660863	beq	x12,x22,80001150	 x12:0xa1885000 x22:0x80009fc4
       14705000	      1469	80001124	03cff263	bgeu	x31,x28,80001148	 x31:0xe996d000 x28:0x00000000
       14715000	      1470	00000000	00000013	addi	x0,x0,0	  x0:0x00000000
       14725000	      1471	80001144	00000013	addi	x0,x0,0	  x0:0x00000000
       14735000	      1472	80001148	013c3633	sltu	x12,x24,x19	 x24:0xfebf7031 x19:0x00000000 x12=0x00000000
       14745000	      1473	8000114c	ff62f893	andi	x17,x5,-10	  x5:0xa1885000 x17=0xa1885000
       14755000	      1474	80001150	0097dbb3	srl	x23,x15,x9	 x15:0x00000000  x9:0xfffffe86 x23=0x00000000
       14765000	      1475	80001154	6d19a493	slti	x9,x19,1745	 x19:0x00000000  x9=0x00000001
       14775000	      1476	80001158	8a28f313	andi	x6,x17,-1886	 x17:0xa1885000  x6=0xa1885000
       14785000	      1477	8000115c	010104b3	add	x9,x2,x16	  x2:0x00000000 x16:0xffe00027  x9=0xffe00027
       14795000	      1478	80001160	01fbd213	srli	x4,x23,0x1f	 x23:0x00000000  x4=0x00000000
       14805000	      1479	80001164	0054d233	srl	x4,x9,x5	  x9:0xffe00027  x5:0xa1885000  x4=0xffe00027
       14815000	      1480	80001168	41ee00b3	sub	x1,x28,x30	 x28:0x00000000 x30:0x000004c0  x1=0xfffffb40
       14825000	      1481	8000116c	01e4e6b3	or	x13,x9,x30	  x9:0xffe00027 x30:0x000004c0 x13=0xffe004e7
       14835000	      1482	80001170	007aad33	slt	x26,x21,x7	 x21:0x7fff638c  x7:0x00000000 x26=0x00000000
       14845000	      1483	80001174	05557463	bgeu	x10,x21,800011bc	 x10:0x00000000 x21:0x7fff638c
       14855000	      1484	80001178	d69c7a13	andi	x20,x24,-663	 x24:0xfebf7031 x20=0xfebf7021
       14865000	      1485	8000117c	031ac463	blt	x21,x17,800011a4	 x21:0x7fff638c x17:0xa1885000
       14875000	      1486	80001180	01c6dd13	srli	x26,x13,0x1c	 x13:0xffe004e7 x26=0x0000000f
       14885000	      1487	80001184	0019ae33	slt	x28,x19,x1	 x19:0x00000000  x1:0xfffffb40 x28=0x00000000
       14895000	      1488	80001188	01da0f33	add	x30,x20,x29	 x20:0xfebf7021 x29:0x80009fc4 x30=0x7ec00fe5
       14905000	      1489	8000118c	41ac5633	sra	x12,x24,x26	 x24:0xfebf7031 x26:0x0000000f x12=0xfffffd7e
       14915000	      1490	80001190	9142ff93	andi	x31,x5,-1772	  x5:0xa1885000 x31=0xa1885000
       14925000	      1491	80001194	411b0433	sub	x8,x22,x17	 x22:0x80009fc4 x17:0xa1885000  x8=0xde784fc4
       14935000	      1492	80001198	1ef8c413	xori	x8,x17,495	 x17:0xa1885000  x8=0xa18851ef
       14945000	      1493	8000119c	c1a17993	andi	x19,x2,-998	  x2:0x00000000 x19=0x00000000
       14955000	      1494	800011a0	015b85b3	add	x11,x23,x21	 x23:0x00000000 x21:0x7fff638c x11=0x7fff638c
       14965000	      1495	800011a4	01205e63	bge	x0,x18,800011c0	  x0:0x00000000 x18:0x80009ee4
       14975000	      1496	00000000	00000013	addi	x0,x0,0	  x0:0x00000000
       14985000	      1497	800011bc	00000013	addi	x0,x0,0	  x0:0x00000000
       14995000	      1498	800011c0	034ef663	bgeu	x29,x20,800011ec	 x29:0x80009fc4 x20:0xfebf7021
       15005000	      1499	800011c4	01d58db3	add	x27,x11,x29	 x11:0x7fff638c x29:0x80009fc4 x27=0x00000350
       15015000	      1500	800011c8	00000013	addi	x0,x0,0	  x0:0x00000000
       15025000	      1501	800011cc	fa6cf513	andi	x10,x25,-90	 x25:0xffffff8b x10=0xffffff82
       15035000	      1502	800011d0	05258663	beq	x11,x18,8000121c	 x11:0x7fff638c x18:0x80009ee4
       15045000	      1503	800011d4	00000013	addi	x0,x0,0	  x0:0x00000000
       15055000	      1504	800011d8	01a79a93	slli	x21,x15,0x1a	 x15:0x00000000 x21=0x00000000
       15065000	      1505	800011dc	20f77d17	auipc	x26,0x20f77	 x26=0xa0f781d8
       15075000	      1506	800011e0	41a20cb3	sub	x25,x4,x26	  x4:0xffe00027 x26:0xa0f781d8 x25=0x5ee87e4f
       15085000	      1507	800011e4	40e9d593	srai	x11,x19,0xe	 x19:0x00000000 x11=0x00000000
       15095000	      1508	800011e8	ad592593	slti	x11,x18,-1323	 x18:0x80009ee4 x11=0x00000001
       15105000	      1509	800011ec	00941133	sll	x2,x8,x9	  x8:0xa18851ef  x9:0xffe00027  x2=0xc428f780
       15115000	      1510	800011f0	00fc8c63	beq	x25,x15,80001208	 x25:0x5ee87e4f x15:0x00000000
       15125000	      1511	800011f4	32df7997	auipc	x19,0x32df7	 x19=0xb2df81f0
       15135000	      1512	800011f8	40c10333	sub	x6,x2,x12	  x2:0xc428f780 x12:0xfffffd7e  x6=0xc428fa02
       15145000	      1513	800011fc	007258b3	srl	x17,x4,x7	  x4:0xffe00027  x7:0x00000000 x17=0xffe00027
       15155000	      1514	80001200	000b9ab3	sll	x21,x23,x0	 x23:0x00000000  x0:0x00000000 x21=0x00000000
       15165000	      1515	80001204	a352a313	slti	x6,x5,-1483	  x5:0xa1885000  x6=0x00000001
       15175000	      1516	80001208	01719593	slli	x11,x3,0x17	  x3:0x00000000 x11=0x00000000
       15185000	      1517	8000120c	01a3b533	sltu	x10,x7,x26	  x7:0x00000000 x26:0xa0f781d8 x10=0x00000001
       15195000	      1518	80001210	00ccdf33	srl	x30,x25,x12	 x25:0x5ee87e4f x12:0xfffffd7e x30=0x00000001
       15205000	      1519	80001214	40e98433	sub	x8,x19,x14	 x19:0xb2df81f0 x14:0x5e5c5e98  x8=0x54832358
       15215000	      1520	80001218	01293a33	sltu	x20,x18,x18	 x18:0x80009ee4 x18:0x80009ee4 x20=0x00000000
       15225000	      1521	8000121c	d3eb49b7	lui	x19,0xd3eb4	 x19=0xd3eb4000
       15235000	      1522	80001220	00aa3233	sltu	x4,x20,x10	 x20:0x00000000 x10:0x00000001  x4=0x00000001
       15245000	      1523	80001224	4009dd93	srai	x27,x19,0x0	 x19:0xd3eb4000 x27=0xd3eb4000
       15255000	      1524	80001228	01287463	bgeu	x16,x18,80001230	 x16:0xffe00027 x18:0x80009ee4
       15265000	      1525	00000000	00000013	addi	x0,x0,0	  x0:0x00000000
       15275000	      1526	8000122c	00000013	addi	x0,x0,0	  x0:0x00000000
       15285000	      1527	80001230	054e5463	bge	x28,x20,80001278	 x28:0x00000000 x20:0x00000000
       15295000	      1528	00000000	00000013	addi	x0,x0,0	  x0:0x00000000
       15305000	      1529	80001274	00000013	addi	x0,x0,0	  x0:0x00000000
       15315000	      1530	80001278	41c7dab3	sra	x21,x15,x28	 x15:0x00000000 x28:0x00000000 x21=0x00000000
       15325000	      1531	8000127c	31bc8513	addi	x10,x25,795	 x25:0x5ee87e4f x10=0x5ee8816a
       15335000	      1532	80001280	01311f13	slli	x30,x2,0x13	  x2:0xc428f780 x30=0xbc000000
       15345000	      1533	80001284	0006d393	srli	x7,x13,0x0	 x13:0xffe004e7  x7=0xffe004e7
       15355000	      1534	80001288	0015d733	srl	x14,x11,x1	 x11:0x00000000  x1:0xfffffb40 x14=0x00000000
       15365000	      1535	8000128c	0103b9b3	sltu	x19,x7,x16	  x7:0xffe004e7 x16:0xffe00027 x19=0x00000000
       15375000	      1536	80001290	00000013	addi	x0,x0,0	  x0:0x00000000
       15385000	      1537	80001294	0068d033	srl	x0,x17,x6	 x17:0xffe00027  x6:0x00000001
       15395000	      1538	80001298	c8092093	slti	x1,x18,-896	 x18:0x80009ee4  x1=0x00000001
       15405000	      1539	8000129c	555f8197	auipc	x3,0x555f8	  x3=0xd55f9298
       15415000	      1540	800012a0	04f1e663	bltu	x3,x15,800012ec	  x3:0xd55f9298 x15:0x00000000
       15425000	      1541	800012a4	0379e063	bltu	x19,x23,800012c4	 x19:0x00000000 x23:0x00000000
       15435000	      1542	800012a8	005f8863	beq	x31,x5,800012b8	 x31:0xa1885000  x5:0xa1885000
       15445000	      1543	00000000	00000013	addi	x0,x0,0	  x0:0x00000000
       15455000	      1544	800012b4	00000013	addi	x0,x0,0	  x0:0x00000000
       15465000	      1545	800012b8	01781793	slli	x15,x16,0x17	 x16:0xffe00027 x15=0x13800000
       15475000	      1546	800012bc	c3350313	addi	x6,x10,-973	 x10:0x5ee8816a  x6=0x5ee87d9d
       15485000	      1547	800012c0	003c8a63	beq	x25,x3,800012d4	 x25:0x5ee87e4f  x3:0xd55f9298
       15495000	      1548	800012c4	39b40637	lui	x12,0x39b40	 x12=0x39b40000
       15505000	      1549	800012c8	03bbc463	blt	x23,x27,800012f0	 x23:0x00000000 x27:0xd3eb4000
       15515000	      1550	800012cc	00c123b3	slt	x7,x2,x12	  x2:0xc428f780 x12:0x39b40000  x7=0x00000001
       15525000	      1551	800012d0	86474617	auipc	x12,0x86474	 x12=0x064752cc
       15535000	      1552	800012d4	03201463	bne	x0,x18,800012fc	  x0:0x00000000 x18:0x80009ee4
       15545000	      1553	00000000	00000013	addi	x0,x0,0	  x0:0x00000000
       15555000	      1554	800012f8	00000013	addi	x0,x0,0	  x0:0x00000000
       15565000	      1555	800012fc	e9fd6497	auipc	x9,0xe9fd6	  x9=0x69fd72f8
       15575000	      1556	80001300	d63ba193	slti	x3,x23,-669	 x23:0x00000000  x3=0x00000000
       15585000	      1557	80001304	5ff97593	andi	x11,x18,1535	 x18:0x80009ee4 x11=0x000004e4
       15595000	      1558	80001308	e8c13a13	sltiu	x20,x2,-372	  x2:0xc428f780 x20=0x00000001
       15605000	      1559	8000130c	a323c5b7	lui	x11,0xa323c	 x11=0xa323c000
       15615000	      1560	80001310	02db7463	bgeu	x22,x13,80001338	 x22:0x80009fc4 x13:0xffe004e7
       15625000	      1561	80001314	409e53b3	sra	x7,x28,x9	 x28:0x00000000  x9:0x69fd72f8  x7=0x00000000
       15635000	      1562	80001318	413f0333	sub	x6,x30,x19	 x30:0xbc000000 x19:0x00000000  x6=0xbc000000
       15645000	      1563	8000131c	400a0d33	sub	x26,x20,x0	 x20:0x00000001  x0:0x00000000 x26=0x00000001
       15655000	      1564	80001320	f55de113	ori	x2,x27,-171	 x27:0xd3eb4000  x2=0xffffff55
       15665000	      1565	80001324	00000013	addi	x0,x0,0	  x0:0x00000000
       15675000	      1566	80001328	51bff693	andi	x13,x31,1307	 x31:0xa1885000 x13=0x00000000
       15685000	      1567	8000132c	41aedf13	srai	x30,x29,0x1a	 x29:0x80009fc4 x30=0xffffffe0
       15695000	      1568	80001330	c1c54c93	xori	x25,x10,-996	 x10:0x5ee8816a x25=0xa1177d76
       15705000	      1569	80001334	41858e33	sub	x28,x11,x24	 x11:0xa323c000 x24:0xfebf7031 x28=0xa4644fcf
       15715000	      1570	80001338	4005de93	srai	x29,x11,0x0	 x11:0xa323c000 x29=0xa323c000
       15725000	      1571	8000133c	010cf9b3	and	x19,x25,x16	 x25:0xa1177d76 x16:0xffe00027 x19=0xa1000026
       15735000	      1572	80001340	00882333	slt	x6,x16,x8	 x16:0xffe00027  x8:0x54832358  x6=0x00000001
       15745000	      1573	80001344	0070eeb3	or	x29,x1,x7	  x1:0x00000001  x7:0x00000000 x29=0x00000001
       15755000	      1574	80001348	00000013	addi	x0,x0,0	  x0:0x00000000
       15765000	      1575	8000134c	0444c063	blt	x9,x4,8000138c	  x9:0x69fd72f8  x4:0x00000001
       15775000	      1576	80001350	a7f48e13	addi	x28,x9,-1409	  x9:0x69fd72f8 x28=0x69fd6d77
       15785000	      1577	80001354	005c3d33	sltu	x26,x24,x5	 x24:0xfebf7031  x5:0xa1885000 x26=0x00000000
       15795000	      1578	80001358	003e5ab3	srl	x21,x28,x3	 x28:0x69fd6d77  x3:0x00000000 x21=0x69fd6d77
       15805000	      1579	8000135c	05507463	bgeu	x0,x21,800013a4	  x0:0x00000000 x21:0x69fd6d77
       15815000	      1580	80001360	41060cb3	sub	x25,x12,x16	 x12:0x064752cc x16:0xffe00027 x25=0x066752a5
       15825000	      1581	80001364	40dedf33	sra	x30,x29,x13	 x29:0x00000001 x13:0x00000000 x30=0x00000001
       15835000	      1582	80001368	0173b5b3	sltu	x11,x7,x23	  x7:0x00000000 x23:0x00000000 x11=0x00000000
       15845000	      1583	8000136c	01331cb3	sll	x25,x6,x19	  x6:0x00000001 x19:0xa1000026 x25=0x00000040
       15855000	      1584	80001370	05849263	bne	x9,x24,800013b4	  x9:0x69fd72f8 x24:0xfebf7031
       15865000	      1585	00000000	00000013	addi	x0,x0,0	  x0:0x00000000
       15875000	      1586	800013b0	00000013	addi	x0,x0,0	  x0:0x00000000
       15885000	      1587	800013b4	011aceb3	xor	x29,x21,x17	 x21:0x69fd6d77 x17:0xffe00027 x29=0x961d6d50
       15895000	      1588	800013b8	03406a63	bltu	x0,x20,800013ec	  x0:0x00000000 x20:0x00000001
       15905000	      1589	00000000	00000013	addi	x0,x0,0	  x0:0x00000000
       15915000	      1590	800013e8	00000013	addi	x0,x0,0	  x0:0x00000000
       15925000	      1591	800013ec	006ab6b3	sltu	x13,x21,x6	 x21:0x69fd6d77  x6:0x00000001 x13=0x00000000
       15935000	      1592	800013f0	01b29813	slli	x16,x5,0x1b	  x5:0xa1885000 x16=0x00000000
       15945000	      1593	800013f4	00fc74b3	and	x9,x24,x15	 x24:0xfebf7031 x15:0x13800000  x9=0x12800000
       15955000	      1594	800013f8	0064b4b3	sltu	x9,x9,x6	  x9:0x12800000  x6:0x00000001  x9=0x00000000
       15965000	      1595	800013fc	0149c6b3	xor	x13,x19,x20	 x19:0xa1000026 x20:0x00000001 x13=0xa1000027
       15975000	      1596	80001400	04039463	bne	x7,x0,80001448	  x7:0x00000000  x0:0x00000000
       15985000	      1597	80001404	413181b3	sub	x3,x3,x19	  x3:0x00000000 x19:0xa1000026  x3=0x5effffda
       15995000	      1598	80001408	c6ca6693	ori	x13,x20,-916	 x20:0x00000001 x13=0xfffffc6d
       16005000	      1599	8000140c	019456b3	srl	x13,x8,x25	  x8:0x54832358 x25:0x00000040 x13=0x54832358
       16015000	      1600	80001410	00b054b3	srl	x9,x0,x11	  x0:0x00000000 x11:0x00000000  x9=0x00000000
       16025000	      1601	80001414	6f2f2293	slti	x5,x30,1778	 x30:0x00000001  x5=0x00000001
       16035000	      1602	80001418	32e48cb7	lui	x25,0x32e48	 x25=0x32e48000
       16045000	      1603	8000141c	03769463	bne	x13,x23,80001444	 x13:0x54832358 x23:0x00000000
       16055000	      1604	00000000	00000013	addi	x0,x0,0	  x0:0x00000000
       16065000	      1605	80001440	00000013	addi	x0,x0,0	  x0:0x00000000
       16075000	      1606	80001444	0094e3b3	or	x7,x9,x9	  x9:0x00000000  x9:0x00000000  x7=0x00000000
       16085000	      1607	80001448	011b8e63	beq	x23,x17,80001464	 x23:0x00000000 x17:0xffe00027
       16095000	      1608	8000144c	00e92833	slt	x16,x18,x14	 x18:0x80009ee4 x14:0x00000000 x16=0x00000001
       16105000	      1609	80001450	01f42fb3	slt	x31,x8,x31	  x8:0x54832358 x31:0xa1885000 x31=0x00000000
       16115000	      1610	80001454	bc54b017	auipc	x0,0xbc54b	
       16125000	      1611	80001458	40f30db3	sub	x27,x6,x15	  x6:0x00000001 x15:0x13800000 x27=0xec800001
       16135000	      1612	8000145c	0130c0b3	xor	x1,x1,x19	  x1:0x00000001 x19:0xa1000026  x1=0xa1000027
       16145000	      1613	80001460	00190533	add	x10,x18,x1	 x18:0x80009ee4  x1:0xa1000027 x10=0x21009f0b
       16155000	      1614	80001464	0012b9b3	sltu	x19,x5,x1	  x5:0x00000001  x1:0xa1000027 x19=0x00000001
       16165000	      1615	80001468	05d61663	bne	x12,x29,800014b4	 x12:0x064752cc x29:0x961d6d50
       16175000	      1616	00000000	00000013	addi	x0,x0,0	  x0:0x00000000
       16185000	      1617	800014b0	00000013	addi	x0,x0,0	  x0:0x00000000
       16195000	      1618	800014b4	0070d113	srli	x2,x1,0x7	  x1:0xa1000027  x2=0x01420000
       16205000	      1619	800014b8	978565b7	lui	x11,0x97856	 x11=0x97856000
       16215000	      1620	800014bc	01c150b3	srl	x1,x2,x28	  x2:0x01420000 x28:0x69fd6d77  x1=0x00000002
       16225000	      1621	800014c0	08d89463	bne	x17,x13,80001548	 x17:0xffe00027 x13:0x54832358
       16235000	      1622	00000000	00000013	addi	x0,x0,0	  x0:0x00000000
       16245000	      1623	80001544	00000013	addi	x0,x0,0	  x0:0x00000000
       16255000	      1624	80001548	40f9da33	sra	x20,x19,x15	 x19:0x00000001 x15:0x13800000 x20=0x00000001
       16265000	      1625	8000154c	2030ae13	slti	x28,x1,515	  x1:0x00000002 x28=0x00000001
       16275000	      1626	80001550	de19b413	sltiu	x8,x19,-543	 x19:0x00000001  x8=0x00000001
       16285000	      1627	80001554	00000013	addi	x0,x0,0	  x0:0x00000000
       16295000	      1628	80001558	88b48093	addi	x1,x9,-1909	  x9:0x00000000  x1=0xfffff88b
       16305000	      1629	8000155c	0582e663	bltu	x5,x24,800015a8	  x5:0x00000001 x24:0xfebf7031
       16315000	      1630	00000000	00000013	addi	x0,x0,0	  x0:0x00000000
       16325000	      1631	800015a4	00000013	addi	x0,x0,0	  x0:0x00000000
       16335000	      1632	800015a8	00000013	addi	x0,x0,0	  x0:0x00000000
       16345000	      1633	800015ac	01914d33	xor	x26,x2,x25	  x2:0x01420000 x25:0x32e48000 x26=0x33a68000
       16355000	      1634	800015b0	40ed81b3	sub	x3,x27,x14	 x27:0xec800001 x14:0x00000000  x3=0xec800001
       16365000	      1635	800015b4	644e1137	lui	x2,0x644e1	  x2=0x644e1000
       16375000	      1636	800015b8	01c5d8b3	srl	x17,x11,x28	 x11:0x97856000 x28:0x00000001 x17=0x4bc2b000
       16385000	      1637	800015bc	015c07b3	add	x15,x24,x21	 x24:0xfebf7031 x21:0x69fd6d77 x15=0x68bcdda8
       16395000	      1638	800015c0	00e4ee33	or	x28,x9,x14	  x9:0x00000000 x14:0x00000000 x28=0x00000000
       16405000	      1639	800015c4	9af11397	auipc	x7,0x9af11	  x7=0x1af125c0
       16415000	      1640	800015c8	0163cbb3	xor	x23,x7,x22	  x7:0x1af125c0 x22:0x80009fc4 x23=0x9af1ba04
       16425000	      1641	800015cc	3c937e37	lui	x28,0x3c937	 x28=0x3c937000
       16435000	      1642	800015d0	00000013	addi	x0,x0,0	  x0:0x00000000
       16445000	      1643	800015d4	4e2df413	andi	x8,x27,1250	 x27:0xec800001  x8=0x00000000
       16455000	      1644	800015d8	37bc83b7	lui	x7,0x37bc8	  x7=0x37bc8000
       16465000	      1645	800015dc	00000013	addi	x0,x0,0	  x0:0x00000000
       16475000	      1646	800015e0	707d4813	xori	x16,x26,1799	 x26:0x33a68000 x16=0x33a68707
       16485000	      1647	800015e4	026c4463	blt	x24,x6,8000160c	 x24:0xfebf7031  x6:0x00000001
       16495000	      1648	00000000	00000013	addi	x0,x0,0	  x0:0x00000000
       16505000	      1649	80001608	00000013	addi	x0,x0,0	  x0:0x00000000
       16515000	      1650	8000160c	ae541897	auipc	x17,0xae541	 x17=0x2e542608
       16525000	      1651	80001610	40be8bb3	sub	x23,x29,x11	 x29:0x961d6d50 x11:0x97856000 x23=0xfe980d50
       16535000	      1652	80001614	01a26db3	or	x27,x4,x26	  x4:0x00000001 x26:0x33a68000 x27=0x33a68001
       16545000	      1653	80001618	007e7e63	bgeu	x28,x7,80001634	 x28:0x3c937000  x7:0x37bc8000
       16555000	      1654	00000000	00000013	addi	x0,x0,0	  x0:0x00000000
       16565000	      1655	80001630	00000013	addi	x0,x0,0	  x0:0x00000000
       16575000	      1656	80001634	01066bb3	or	x23,x12,x16	 x12:0x064752cc x16:0x33a68707 x23=0x37e7d7cf
       16585000	      1657	80001638	01fc5813	srli	x16,x24,0x1f	 x24:0xfebf7031 x16=0x00000001
       16595000	      1658	8000163c	005ea333	slt	x6,x29,x5	 x29:0x961d6d50  x5:0x00000001  x6=0x00000001
       16605000	      1659	80001640	4092d513	srai	x10,x5,0x9	  x5:0x00000001 x10=0x00000000
       16615000	      1660	80001644	4100d7b3	sra	x15,x1,x16	  x1:0xfffff88b x16:0x00000001 x15=0xfffffc45
       16625000	      1661	80001648	41200cb3	sub	x25,x0,x18	  x0:0x00000000 x18:0x80009ee4 x25=0x7fff611c
       16635000	      1662	8000164c	4e588317	auipc	x6,0x4e588	  x6=0xce589648
       16645000	      1663	80001650	0aae1a63	bne	x28,x10,80001704	 x28:0x3c937000 x10:0x00000000
       16655000	      1664	00000000	00000013	addi	x0,x0,0	  x0:0x00000000
       16665000	      1665	80001700	00000013	addi	x0,x0,0	  x0:0x00000000
       16675000	      1666	80001704	015e9493	slli	x9,x29,0x15	 x29:0x961d6d50  x9=0xaa000000
       16685000	      1667	80001708	9f492713	slti	x14,x18,-1548	 x18:0x80009ee4 x14=0x00000001
       16695000	      1668	8000170c	eccabfb7	lui	x31,0xeccab	 x31=0xeccab000
       16705000	      1669	80001710	41995bb3	sra	x23,x18,x25	 x18:0x80009ee4 x25:0x7fff611c x23=0xfffffff8
       16715000	      1670	80001714	01443cb3	sltu	x25,x8,x20	  x8:0x00000000 x20:0x00000001 x25=0x00000001
       16725000	      1671	80001718	40445693	srai	x13,x8,0x4	  x8:0x00000000 x13=0x00000000
       16735000	      1672	8000171c	00139463	bne	x7,x1,80001724	  x7:0x37bc8000  x1:0xfffff88b
       16745000	      1673	00000000	00000013	addi	x0,x0,0	  x0:0x00000000
       16755000	      1674	80001720	00000013	addi	x0,x0,0	  x0:0x00000000
       16765000	      1675	80001724	01e91ab3	sll	x21,x18,x30	 x18:0x80009ee4 x30:0x00000001 x21=0x00013dc8
       16775000	      1676	80001728	00492f03	lw	x30,4(x18)	 x18:0x80009ee4 x30=0x800042c8 PA:0x80009ee8
       16785000	      1677	8000172c	014823b3	slt	x7,x16,x20	 x16:0x00000001 x20:0x00000001  x7=0x00000000
       16795000	      1678	80001730	aa817693	andi	x13,x2,-1368	  x2:0x644e1000 x13=0x644e1000
       16805000	      1679	80001734	91c1b813	sltiu	x16,x3,-1764	  x3:0xec800001 x16=0x00000001
       16815000	      1680	80001738	03c90913	addi	x18,x18,60	 x18:0x80009ee4 x18=0x80009f20
       16825000	      1681	8000173c	019a5713	srli	x14,x20,0x19	 x20:0x00000001 x14=0x00000000
       16835000	      1682	80001740	22b36a17	auipc	x20,0x22b36	 x20=0xa2b3773c
       16845000	      1683	80001744	402e88b3	sub	x17,x29,x2	 x29:0x961d6d50  x2:0x644e1000 x17=0x31cf5d50
       16855000	      1684	80001748	5bdc2a93	slti	x21,x24,1469	 x24:0xfebf7031 x21=0x00000001
       16865000	      1685	8000174c	001f0493	addi	x9,x30,1	 x30:0x800042c8  x9=0x800042c9
       16875000	      1686	80001750	000484e7	jalr	x9,x9,0	  x9:0x800042c9  x9=0x80001750
       16885000	      1687	00000000	00000013	addi	x0,x0,0	  x0:0x00000000
       16895000	      1688	800042c8	00000013	addi	x0,x0,0	  x0:0x00000000
       16905000	      1689	800042cc	ffffc317	auipc	x6,0xffffc	  x6=0x800002c8
       16915000	      1690	800042d0	f8430313	addi	x6,x6,-124	  x6:0x800002c8  x6=0x8000024c
       16925000	      1691	800042d4	33432517	auipc	x10,0x33432	 x10=0xb34362d0
       16935000	      1692	800042d8	97bbeb97	auipc	x23,0x97bbe	 x23=0x17bc22d4
       16945000	      1693	800042dc	00d99533	sll	x10,x19,x13	 x19:0x00000001 x13:0x644e1000 x10=0x00000001
       16955000	      1694	800042e0	0086f133	and	x2,x13,x8	 x13:0x644e1000  x8:0x00000000  x2=0x00000000
       16965000	      1695	800042e4	3e830313	addi	x6,x6,1000	  x6:0x8000024c  x6=0x80000634
       16975000	      1696	800042e8	3624fc93	andi	x25,x9,866	  x9:0x80001750 x25=0x00000340
       16985000	      1697	800042ec	01a09513	slli	x10,x1,0x1a	  x1:0xfffff88b x10=0x2c000000
       16995000	      1698	800042f0	e895c3b7	lui	x7,0xe895c	  x7=0xe895c000
       17005000	      1699	800042f4	010d8db3	add	x27,x27,x16	 x27:0x33a68001 x16:0x00000001 x27=0x33a68002
       17015000	      1700	800042f8	c1930f67	jalr	x30,x6,-999	  x6:0x80000634 x30=0x800042f8
       17025000	      1701	00000000	00000013	addi	x0,x0,0	  x0:0x00000000
       17035000	      1702	8000024c	00000013	addi	x0,x0,0	  x0:0x00000000
       17045000	      1703	80000250	01249613	slli	x12,x9,0x12	  x9:0x80001750 x12=0x5d400000
       17055000	      1704	80000254	00ce0463	beq	x28,x12,8000025c	 x28:0x3c937000 x12:0x5d400000
       17065000	      1705	80000258	0166b433	sltu	x8,x13,x22	 x13:0x644e1000 x22:0x80009fc4  x8=0x00000001
       17075000	      1706	8000025c	fc490913	addi	x18,x18,-60	 x18:0x80009f20 x18=0x80009ee4
       17085000	      1707	80000260	01e92223	sw	x30,4(x18)	 x18:0x80009ee4 x30:0x800042f8 PA:0x80009ee8
       17095000	      1708	80000264	ffe3e813	ori	x16,x7,-2	  x7:0xe895c000 x16=0xfffffffe
       17105000	      1709	80000268	fd368e13	addi	x28,x13,-45	 x13:0x644e1000 x28=0x644e0fd3
       17115000	      1710	8000026c	84c13993	sltiu	x19,x2,-1972	  x2:0x00000000 x19=0x00000001
       17125000	      1711	80000270	03000f6f	jal	x30,80000270	 x30=0x80000270
       17135000	      1712	00000000	00000013	addi	x0,x0,0	  x0:0x00000000
       17145000	      1713	8000029c	00000013	addi	x0,x0,0	  x0:0x00000000
       17155000	      1714	800002a0	0240036f	jal	x6,800002a0	  x6=0x800002a0
       17165000	      1715	00000000	00000013	addi	x0,x0,0	  x0:0x00000000
       17175000	      1716	800002c0	00000013	addi	x0,x0,0	  x0:0x00000000
       17185000	      1717	800002c4	fedff0ef	jal	x1,800002c4	  x1=0x800002c4
       17195000	      1718	00000000	00000013	addi	x0,x0,0	  x0:0x00000000
       17205000	      1719	800002ac	00000013	addi	x0,x0,0	  x0:0x00000000
       17215000	      1720	800002b0	004000ef	jal	x1,800002b0	  x1=0x800002b0
       17225000	      1721	00000000	00000013	addi	x0,x0,0	  x0:0x00000000
       17235000	      1722	800002b0	00000013	addi	x0,x0,0	  x0:0x00000000
       17245000	      1723	800002b4	018002ef	jal	x5,800002b4	  x5=0x800002b4
       17255000	      1724	00000000	00000013	addi	x0,x0,0	  x0:0x00000000
       17265000	      1725	800002c8	00000013	addi	x0,x0,0	  x0:0x00000000
       17275000	      1726	800002cc	fcdff0ef	jal	x1,800002cc	  x1=0x800002cc
       17285000	      1727	00000000	00000013	addi	x0,x0,0	  x0:0x00000000
       17295000	      1728	80000294	00000013	addi	x0,x0,0	  x0:0x00000000
       17305000	      1729	80000298	fedff0ef	jal	x1,80000298	  x1=0x80000298
       17315000	      1730	00000000	00000013	addi	x0,x0,0	  x0:0x00000000
       17325000	      1731	80000280	00000013	addi	x0,x0,0	  x0:0x00000000
       17335000	      1732	80000284	024000ef	jal	x1,80000284	  x1=0x80000284
       17345000	      1733	00000000	00000013	addi	x0,x0,0	  x0:0x00000000
       17355000	      1734	800002a4	00000013	addi	x0,x0,0	  x0:0x00000000
       17365000	      1735	800002a8	fedff0ef	jal	x1,800002a8	  x1=0x800002a8
       17375000	      1736	00000000	00000013	addi	x0,x0,0	  x0:0x00000000
       17385000	      1737	80000290	00000013	addi	x0,x0,0	  x0:0x00000000
       17395000	      1738	80000294	ffdff0ef	jal	x1,80000294	  x1=0x80000294
       17405000	      1739	00000000	00000013	addi	x0,x0,0	  x0:0x00000000
       17415000	      1740	8000028c	00000013	addi	x0,x0,0	  x0:0x00000000
       17425000	      1741	80000290	02c000ef	jal	x1,80000290	  x1=0x80000290
       17435000	      1742	00000000	00000013	addi	x0,x0,0	  x0:0x00000000
       17445000	      1743	800002b8	00000013	addi	x0,x0,0	  x0:0x00000000
       17455000	      1744	800002bc	fc1ff2ef	jal	x5,800002bc	  x5=0x800002bc
       17465000	      1745	00000000	00000013	addi	x0,x0,0	  x0:0x00000000
       17475000	      1746	80000278	00000013	addi	x0,x0,0	  x0:0x00000000
       17485000	      1747	8000027c	03c00cef	jal	x25,8000027c	 x25=0x8000027c
       17495000	      1748	00000000	00000013	addi	x0,x0,0	  x0:0x00000000
       17505000	      1749	800002b4	00000013	addi	x0,x0,0	  x0:0x00000000
       17515000	      1750	800002b8	fc9ff0ef	jal	x1,800002b8	  x1=0x800002b8
       17525000	      1751	00000000	00000013	addi	x0,x0,0	  x0:0x00000000
       17535000	      1752	8000027c	00000013	addi	x0,x0,0	  x0:0x00000000
       17545000	      1753	80000280	00c0036f	jal	x6,80000280	  x6=0x80000280
       17555000	      1754	00000000	00000013	addi	x0,x0,0	  x0:0x00000000
       17565000	      1755	80000288	00000013	addi	x0,x0,0	  x0:0x00000000
       17575000	      1756	8000028c	018000ef	jal	x1,8000028c	  x1=0x8000028c
       17585000	      1757	00000000	00000013	addi	x0,x0,0	  x0:0x00000000
       17595000	      1758	800002a0	00000013	addi	x0,x0,0	  x0:0x00000000
       17605000	      1759	800002a4	ff9ff36f	jal	x6,800002a4	  x6=0x800002a4
       17615000	      1760	00000000	00000013	addi	x0,x0,0	  x0:0x00000000
       17625000	      1761	80000298	00000013	addi	x0,x0,0	  x0:0x00000000
       17635000	      1762	8000029c	fddff36f	jal	x6,8000029c	  x6=0x8000029c
       17645000	      1763	00000000	00000013	addi	x0,x0,0	  x0:0x00000000
       17655000	      1764	80000274	00000013	addi	x0,x0,0	  x0:0x00000000
       17665000	      1765	80000278	048000ef	jal	x1,80000278	  x1=0x80000278
       17675000	      1766	00000000	00000013	addi	x0,x0,0	  x0:0x00000000
       17685000	      1767	800002bc	00000013	addi	x0,x0,0	  x0:0x00000000
       17695000	      1768	800002c0	fc9ff0ef	jal	x1,800002c0	  x1=0x800002c0
       17705000	      1769	00000000	00000013	addi	x0,x0,0	  x0:0x00000000
       17715000	      1770	80000284	00000013	addi	x0,x0,0	  x0:0x00000000
       17725000	      1771	80000288	0400026f	jal	x4,80000288	  x4=0x80000288
       17735000	      1772	00000000	00000013	addi	x0,x0,0	  x0:0x00000000
       17745000	      1773	800002c4	00000013	addi	x0,x0,0	  x0:0x00000000
       17755000	      1774	800002c8	fadff0ef	jal	x1,800002c8	  x1=0x800002c8
       17765000	      1775	00000000	00000013	addi	x0,x0,0	  x0:0x00000000
       17775000	      1776	80000270	00000013	addi	x0,x0,0	  x0:0x00000000
       17785000	      1777	80000274	038001ef	jal	x3,80000274	  x3=0x80000274
       17795000	      1778	00000000	00000013	addi	x0,x0,0	  x0:0x00000000
       17805000	      1779	800002a8	00000013	addi	x0,x0,0	  x0:0x00000000
       17815000	      1780	800002ac	0240076f	jal	x14,800002ac	 x14=0x800002ac
       17825000	      1781	00000000	00000013	addi	x0,x0,0	  x0:0x00000000
       17835000	      1782	800002cc	00000013	addi	x0,x0,0	  x0:0x00000000
       17845000	      1783	800002d0	01729313	slli	x6,x5,0x17	  x5:0x800002bc  x6=0x5e000000
       17855000	      1784	800002d4	03400f6f	jal	x30,800002d4	 x30=0x800002d4
       17865000	      1785	00000000	00000013	addi	x0,x0,0	  x0:0x00000000
       17875000	      1786	80000304	00000013	addi	x0,x0,0	  x0:0x00000000
       17885000	      1787	80000308	03c0036f	jal	x6,80000308	  x6=0x80000308
       17895000	      1788	00000000	00000013	addi	x0,x0,0	  x0:0x00000000
       17905000	      1789	80000340	00000013	addi	x0,x0,0	  x0:0x00000000
       17915000	      1790	80000344	fd1ff0ef	jal	x1,80000344	  x1=0x80000344
       17925000	      1791	00000000	00000013	addi	x0,x0,0	  x0:0x00000000
       17935000	      1792	80000310	00000013	addi	x0,x0,0	  x0:0x00000000
       17945000	      1793	80000314	fc5ff26f	jal	x4,80000314	  x4=0x80000314
       17955000	      1794	00000000	00000013	addi	x0,x0,0	  x0:0x00000000
       17965000	      1795	800002d4	00000013	addi	x0,x0,0	  x0:0x00000000
       17975000	      1796	800002d8	064000ef	jal	x1,800002d8	  x1=0x800002d8
       17985000	      1797	00000000	00000013	addi	x0,x0,0	  x0:0x00000000
       17995000	      1798	80000338	00000013	addi	x0,x0,0	  x0:0x00000000
       18005000	      1799	8000033c	fb9ff0ef	jal	x1,8000033c	  x1=0x8000033c
       18015000	      1800	00000000	00000013	addi	x0,x0,0	  x0:0x00000000
       18025000	      1801	800002f0	00000013	addi	x0,x0,0	  x0:0x00000000
       18035000	      1802	800002f4	02c000ef	jal	x1,800002f4	  x1=0x800002f4
       18045000	      1803	00000000	00000013	addi	x0,x0,0	  x0:0x00000000
       18055000	      1804	8000031c	00000013	addi	x0,x0,0	  x0:0x00000000
       18065000	      1805	80000320	0140026f	jal	x4,80000320	  x4=0x80000320
       18075000	      1806	00000000	00000013	addi	x0,x0,0	  x0:0x00000000
       18085000	      1807	80000330	00000013	addi	x0,x0,0	  x0:0x00000000
       18095000	      1808	80000334	ff9ff0ef	jal	x1,80000334	  x1=0x80000334
       18105000	      1809	00000000	00000013	addi	x0,x0,0	  x0:0x00000000
       18115000	      1810	80000328	00000013	addi	x0,x0,0	  x0:0x00000000
       18125000	      1811	8000032c	ffdff0ef	jal	x1,8000032c	  x1=0x8000032c
       18135000	      1812	00000000	00000013	addi	x0,x0,0	  x0:0x00000000
       18145000	      1813	80000324	00000013	addi	x0,x0,0	  x0:0x00000000
       18155000	      1814	80000328	0180046f	jal	x8,80000328	  x8=0x80000328
       18165000	      1815	00000000	00000013	addi	x0,x0,0	  x0:0x00000000
       18175000	      1816	8000033c	00000013	addi	x0,x0,0	  x0:0x00000000
       18185000	      1817	80000340	fe5ff0ef	jal	x1,80000340	  x1=0x80000340
       18195000	      1818	00000000	00000013	addi	x0,x0,0	  x0:0x00000000
       18205000	      1819	80000320	00000013	addi	x0,x0,0	  x0:0x00000000
       18215000	      1820	80000324	fbdff0ef	jal	x1,80000324	  x1=0x80000324
       18225000	      1821	00000000	00000013	addi	x0,x0,0	  x0:0x00000000
       18235000	      1822	800002dc	00000013	addi	x0,x0,0	  x0:0x00000000
       18245000	      1823	800002e0	050000ef	jal	x1,800002e0	  x1=0x800002e0
       18255000	      1824	00000000	00000013	addi	x0,x0,0	  x0:0x00000000
       18265000	      1825	8000032c	00000013	addi	x0,x0,0	  x0:0x00000000
       18275000	      1826	80000330	008000ef	jal	x1,80000330	  x1=0x80000330
       18285000	      1827	00000000	00000013	addi	x0,x0,0	  x0:0x00000000
       18295000	      1828	80000334	00000013	addi	x0,x0,0	  x0:0x00000000
       18305000	      1829	80000338	fb5ff36f	jal	x6,80000338	  x6=0x80000338
       18315000	      1830	00000000	00000013	addi	x0,x0,0	  x0:0x00000000
       18325000	      1831	800002e8	00000013	addi	x0,x0,0	  x0:0x00000000
       18335000	      1832	800002ec	010006ef	jal	x13,800002ec	 x13=0x800002ec
       18345000	      1833	00000000	00000013	addi	x0,x0,0	  x0:0x00000000
       18355000	      1834	800002f8	00000013	addi	x0,x0,0	  x0:0x00000000
       18365000	      1835	800002fc	fedff0ef	jal	x1,800002fc	  x1=0x800002fc
       18375000	      1836	00000000	00000013	addi	x0,x0,0	  x0:0x00000000
       18385000	      1837	800002e4	00000013	addi	x0,x0,0	  x0:0x00000000
       18395000	      1838	800002e8	01c0036f	jal	x6,800002e8	  x6=0x800002e8
       18405000	      1839	00000000	00000013	addi	x0,x0,0	  x0:0x00000000
       18415000	      1840	80000300	00000013	addi	x0,x0,0	  x0:0x00000000
       18425000	      1841	80000304	ff5ff36f	jal	x6,80000304	  x6=0x80000304
       18435000	      1842	00000000	00000013	addi	x0,x0,0	  x0:0x00000000
       18445000	      1843	800002f4	00000013	addi	x0,x0,0	  x0:0x00000000
       18455000	      1844	800002f8	050004ef	jal	x9,800002f8	  x9=0x800002f8
       18465000	      1845	00000000	00000013	addi	x0,x0,0	  x0:0x00000000
       18475000	      1846	80000344	00000013	addi	x0,x0,0	  x0:0x00000000
       18485000	      1847	80000348	f95ff0ef	jal	x1,80000348	  x1=0x80000348
       18495000	      1848	00000000	00000013	addi	x0,x0,0	  x0:0x00000000
       18505000	      1849	800002d8	00000013	addi	x0,x0,0	  x0:0x00000000
       18515000	      1850	800002dc	030000ef	jal	x1,800002dc	  x1=0x800002dc
       18525000	      1851	00000000	00000013	addi	x0,x0,0	  x0:0x00000000
       18535000	      1852	80000308	00000013	addi	x0,x0,0	  x0:0x00000000
       18545000	      1853	8000030c	fd9ff0ef	jal	x1,8000030c	  x1=0x8000030c
       18555000	      1854	00000000	00000013	addi	x0,x0,0	  x0:0x00000000
       18565000	      1855	800002e0	00000013	addi	x0,x0,0	  x0:0x00000000
       18575000	      1856	800002e4	00c0026f	jal	x4,800002e4	  x4=0x800002e4
       18585000	      1857	00000000	00000013	addi	x0,x0,0	  x0:0x00000000
       18595000	      1858	800002ec	00000013	addi	x0,x0,0	  x0:0x00000000
       18605000	      1859	800002f0	010000ef	jal	x1,800002f0	  x1=0x800002f0
       18615000	      1860	00000000	00000013	addi	x0,x0,0	  x0:0x00000000
       18625000	      1861	800002fc	00000013	addi	x0,x0,0	  x0:0x00000000
       18635000	      1862	80000300	01800fef	jal	x31,80000300	 x31=0x80000300
       18645000	      1863	00000000	00000013	addi	x0,x0,0	  x0:0x00000000
       18655000	      1864	80000314	00000013	addi	x0,x0,0	  x0:0x00000000
       18665000	      1865	80000318	ff9ff46f	jal	x8,80000318	  x8=0x80000318
       18675000	      1866	00000000	00000013	addi	x0,x0,0	  x0:0x00000000
       18685000	      1867	8000030c	00000013	addi	x0,x0,0	  x0:0x00000000
       18695000	      1868	80000310	00c000ef	jal	x1,80000310	  x1=0x80000310
       18705000	      1869	00000000	00000013	addi	x0,x0,0	  x0:0x00000000
       18715000	      1870	80000318	00000013	addi	x0,x0,0	  x0:0x00000000
       18725000	      1871	8000031c	03000f6f	jal	x30,8000031c	 x30=0x8000031c
       18735000	      1872	00000000	00000013	addi	x0,x0,0	  x0:0x00000000
       18745000	      1873	80000348	00000013	addi	x0,x0,0	  x0:0x00000000
       18755000	      1874	8000034c	8e552413	slti	x8,x10,-1819	 x10:0x2c000000  x8=0x00000000
       18765000	      1875	80000350	01800f6f	jal	x30,80000350	 x30=0x80000350
       18775000	      1876	00000000	00000013	addi	x0,x0,0	  x0:0x00000000
       18785000	      1877	80000364	00000013	addi	x0,x0,0	  x0:0x00000000
       18795000	      1878	80000368	014006ef	jal	x13,80000368	 x13=0x80000368
       18805000	      1879	00000000	00000013	addi	x0,x0,0	  x0:0x00000000
       18815000	      1880	80000378	00000013	addi	x0,x0,0	  x0:0x00000000
       18825000	      1881	8000037c	ff5ff0ef	jal	x1,8000037c	  x1=0x8000037c
       18835000	      1882	00000000	00000013	addi	x0,x0,0	  x0:0x00000000
       18845000	      1883	8000036c	00000013	addi	x0,x0,0	  x0:0x00000000
       18855000	      1884	80000370	024000ef	jal	x1,80000370	  x1=0x80000370
       18865000	      1885	00000000	00000013	addi	x0,x0,0	  x0:0x00000000
       18875000	      1886	80000390	00000013	addi	x0,x0,0	  x0:0x00000000
       18885000	      1887	80000394	fe1ff0ef	jal	x1,80000394	  x1=0x80000394
       18895000	      1888	00000000	00000013	addi	x0,x0,0	  x0:0x00000000
       18905000	      1889	80000370	00000013	addi	x0,x0,0	  x0:0x00000000
       18915000	      1890	80000374	ff9ff36f	jal	x6,80000374	  x6=0x80000374
       18925000	      1891	00000000	00000013	addi	x0,x0,0	  x0:0x00000000
       18935000	      1892	80000368	00000013	addi	x0,x0,0	  x0:0x00000000
       18945000	      1893	8000036c	00c0036f	jal	x6,8000036c	  x6=0x8000036c
       18955000	      1894	00000000	00000013	addi	x0,x0,0	  x0:0x00000000
       18965000	      1895	80000374	00000013	addi	x0,x0,0	  x0:0x00000000
       18975000	      1896	80000378	fe5ff0ef	jal	x1,80000378	  x1=0x80000378
       18985000	      1897	00000000	00000013	addi	x0,x0,0	  x0:0x00000000
       18995000	      1898	80000358	00000013	addi	x0,x0,0	  x0:0x00000000
       19005000	      1899	8000035c	024000ef	jal	x1,8000035c	  x1=0x8000035c
       19015000	      1900	00000000	00000013	addi	x0,x0,0	  x0:0x00000000
       19025000	      1901	8000037c	00000013	addi	x0,x0,0	  x0:0x00000000
       19035000	      1902	80000380	fe5ff9ef	jal	x19,80000380	 x19=0x80000380
       19045000	      1903	00000000	00000013	addi	x0,x0,0	  x0:0x00000000
       19055000	      1904	80000360	00000013	addi	x0,x0,0	  x0:0x00000000
       19065000	      1905	80000364	0340036f	jal	x6,80000364	  x6=0x80000364
       19075000	      1906	00000000	00000013	addi	x0,x0,0	  x0:0x00000000
       19085000	      1907	80000394	00000013	addi	x0,x0,0	  x0:0x00000000
       19095000	      1908	80000398	ff5ff0ef	jal	x1,80000398	  x1=0x80000398
       19105000	      1909	00000000	00000013	addi	x0,x0,0	  x0:0x00000000
       19115000	      1910	80000388	00000013	addi	x0,x0,0	  x0:0x00000000
       19125000	      1911	8000038c	fd5ff36f	jal	x6,8000038c	  x6=0x8000038c
       19135000	      1912	00000000	00000013	addi	x0,x0,0	  x0:0x00000000
       19145000	      1913	8000035c	00000013	addi	x0,x0,0	  x0:0x00000000
       19155000	      1914	80000360	0300016f	jal	x2,80000360	  x2=0x80000360
       19165000	      1915	00000000	00000013	addi	x0,x0,0	  x0:0x00000000
       19175000	      1916	8000038c	00000013	addi	x0,x0,0	  x0:0x00000000
       19185000	      1917	80000390	ff9ff0ef	jal	x1,80000390	  x1=0x80000390
       19195000	      1918	00000000	00000013	addi	x0,x0,0	  x0:0x00000000
       19205000	      1919	80000384	00000013	addi	x0,x0,0	  x0:0x00000000
       19215000	      1920	80000388	ffdff1ef	jal	x3,80000388	  x3=0x80000388
       19225000	      1921	00000000	00000013	addi	x0,x0,0	  x0:0x00000000
       19235000	      1922	80000380	00000013	addi	x0,x0,0	  x0:0x00000000
       19245000	      1923	80000384	fd5ff16f	jal	x2,80000384	  x2=0x80000384
       19255000	      1924	00000000	00000013	addi	x0,x0,0	  x0:0x00000000
       19265000	      1925	80000354	00000013	addi	x0,x0,0	  x0:0x00000000
       19275000	      1926	80000358	ffdff36f	jal	x6,80000358	  x6=0x80000358
       19285000	      1927	00000000	00000013	addi	x0,x0,0	  x0:0x00000000
       19295000	      1928	80000350	00000013	addi	x0,x0,0	  x0:0x00000000
       19305000	      1929	80000354	0480036f	jal	x6,80000354	  x6=0x80000354
       19315000	      1930	00000000	00000013	addi	x0,x0,0	  x0:0x00000000
       19325000	      1931	80000398	00000013	addi	x0,x0,0	  x0:0x00000000
       19335000	      1932	8000039c	6a024a93	xori	x21,x4,1696	  x4:0x800002e4 x21=0x80000444
       19345000	      1933	800003a0	03800f6f	jal	x30,800003a0	 x30=0x800003a0
       19355000	      1934	00000000	00000013	addi	x0,x0,0	  x0:0x00000000
       19365000	      1935	800003d4	00000013	addi	x0,x0,0	  x0:0x00000000
       19375000	      1936	800003d8	fcdffdef	jal	x27,800003d8	 x27=0x800003d8
       19385000	      1937	00000000	00000013	addi	x0,x0,0	  x0:0x00000000
       19395000	      1938	800003a0	00000013	addi	x0,x0,0	  x0:0x00000000
       19405000	      1939	800003a4	00c000ef	jal	x1,800003a4	  x1=0x800003a4
       19415000	      1940	00000000	00000013	addi	x0,x0,0	  x0:0x00000000
       19425000	      1941	800003ac	00000013	addi	x0,x0,0	  x0:0x00000000
       19435000	      1942	800003b0	0340046f	jal	x8,800003b0	  x8=0x800003b0
       19445000	      1943	00000000	00000013	addi	x0,x0,0	  x0:0x00000000
       19455000	      1944	800003e0	00000013	addi	x0,x0,0	  x0:0x00000000
       19465000	      1945	800003e4	fe9ff2ef	jal	x5,800003e4	  x5=0x800003e4
       19475000	      1946	00000000	00000013	addi	x0,x0,0	  x0:0x00000000
       19485000	      1947	800003c8	00000013	addi	x0,x0,0	  x0:0x00000000
       19495000	      1948	800003cc	014000ef	jal	x1,800003cc	  x1=0x800003cc
       19505000	      1949	00000000	00000013	addi	x0,x0,0	  x0:0x00000000
       19515000	      1950	800003dc	00000013	addi	x0,x0,0	  x0:0x00000000
       19525000	      1951	800003e0	fcdff0ef	jal	x1,800003e0	  x1=0x800003e0
       19535000	      1952	00000000	00000013	addi	x0,x0,0	  x0:0x00000000
       19545000	      1953	800003a8	00000013	addi	x0,x0,0	  x0:0x00000000
       19555000	      1954	800003ac	028000ef	jal	x1,800003ac	  x1=0x800003ac
       19565000	      1955	00000000	00000013	addi	x0,x0,0	  x0:0x00000000
       19575000	      1956	800003d0	00000013	addi	x0,x0,0	  x0:0x00000000
       19585000	      1957	800003d4	fe1ff0ef	jal	x1,800003d4	  x1=0x800003d4
       19595000	      1958	00000000	00000013	addi	x0,x0,0	  x0:0x00000000
       19605000	      1959	800003b0	00000013	addi	x0,x0,0	  x0:0x00000000
       19615000	      1960	800003b4	010000ef	jal	x1,800003b4	  x1=0x800003b4
       19625000	      1961	00000000	00000013	addi	x0,x0,0	  x0:0x00000000
       19635000	      1962	800003c0	00000013	addi	x0,x0,0	  x0:0x00000000
       19645000	      1963	800003c4	024000ef	jal	x1,800003c4	  x1=0x800003c4
       19655000	      1964	00000000	00000013	addi	x0,x0,0	  x0:0x00000000
       19665000	      1965	800003e4	00000013	addi	x0,x0,0	  x0:0x00000000
       19675000	      1966	800003e8	fe9ff0ef	jal	x1,800003e8	  x1=0x800003e8
       19685000	      1967	00000000	00000013	addi	x0,x0,0	  x0:0x00000000
       19695000	      1968	800003cc	00000013	addi	x0,x0,0	  x0:0x00000000
       19705000	      1969	800003d0	ff9fff6f	jal	x30,800003d0	 x30=0x800003d0
       19715000	      1970	00000000	00000013	addi	x0,x0,0	  x0:0x00000000
       19725000	      1971	800003c4	00000013	addi	x0,x0,0	  x0:0x00000000
       19735000	      1972	800003c8	ff9ff36f	jal	x6,800003c8	  x6=0x800003c8
       19745000	      1973	00000000	00000013	addi	x0,x0,0	  x0:0x00000000
       19755000	      1974	800003bc	00000013	addi	x0,x0,0	  x0:0x00000000
       19765000	      1975	800003c0	ffdff0ef	jal	x1,800003c0	  x1=0x800003c0
       19775000	      1976	00000000	00000013	addi	x0,x0,0	  x0:0x00000000
       19785000	      1977	800003b8	00000013	addi	x0,x0,0	  x0:0x00000000
       19795000	      1978	800003bc	fedff0ef	jal	x1,800003bc	  x1=0x800003bc
       19805000	      1979	00000000	00000013	addi	x0,x0,0	  x0:0x00000000
       19815000	      1980	800003a4	00000013	addi	x0,x0,0	  x0:0x00000000
       19825000	      1981	800003a8	0100036f	jal	x6,800003a8	  x6=0x800003a8
       19835000	      1982	00000000	00000013	addi	x0,x0,0	  x0:0x00000000
       19845000	      1983	800003b4	00000013	addi	x0,x0,0	  x0:0x00000000
       19855000	      1984	800003b8	024002ef	jal	x5,800003b8	  x5=0x800003b8
       19865000	      1985	00000000	00000013	addi	x0,x0,0	  x0:0x00000000
       19875000	      1986	800003d8	00000013	addi	x0,x0,0	  x0:0x00000000
       19885000	      1987	800003dc	010000ef	jal	x1,800003dc	  x1=0x800003dc
       19895000	      1988	00000000	00000013	addi	x0,x0,0	  x0:0x00000000
       19905000	      1989	800003e8	00000013	addi	x0,x0,0	  x0:0x00000000
       19915000	      1990	800003ec	00137633	and	x12,x6,x1	  x6:0x800003a8  x1:0x800003dc x12=0x80000388
       19925000	      1991	800003f0	03000f6f	jal	x30,800003f0	 x30=0x800003f0
       19935000	      1992	00000000	00000013	addi	x0,x0,0	  x0:0x00000000
       19945000	      1993	8000041c	00000013	addi	x0,x0,0	  x0:0x00000000
       19955000	      1994	80000420	fe1ff0ef	jal	x1,80000420	  x1=0x80000420
       19965000	      1995	00000000	00000013	addi	x0,x0,0	  x0:0x00000000
       19975000	      1996	800003fc	00000013	addi	x0,x0,0	  x0:0x00000000
       19985000	      1997	80000400	02c000ef	jal	x1,80000400	  x1=0x80000400
       19995000	      1998	00000000	00000013	addi	x0,x0,0	  x0:0x00000000
       20005000	      1999	80000428	00000013	addi	x0,x0,0	  x0:0x00000000
       20015000	      2000	8000042c	fe5ff0ef	jal	x1,8000042c	  x1=0x8000042c
       20025000	      2001	00000000	00000013	addi	x0,x0,0	  x0:0x00000000
       20035000	      2002	8000040c	00000013	addi	x0,x0,0	  x0:0x00000000
       20045000	      2003	80000410	00c0036f	jal	x6,80000410	  x6=0x80000410
       20055000	      2004	00000000	00000013	addi	x0,x0,0	  x0:0x00000000
       20065000	      2005	80000418	00000013	addi	x0,x0,0	  x0:0x00000000
       20075000	      2006	8000041c	0300036f	jal	x6,8000041c	  x6=0x8000041c
       20085000	      2007	00000000	00000013	addi	x0,x0,0	  x0:0x00000000
       20095000	      2008	80000448	00000013	addi	x0,x0,0	  x0:0x00000000
       20105000	      2009	8000044c	ff1ff0ef	jal	x1,8000044c	  x1=0x8000044c
       20115000	      2010	00000000	00000013	addi	x0,x0,0	  x0:0x00000000
       20125000	      2011	80000438	00000013	addi	x0,x0,0	  x0:0x00000000
       20135000	      2012	8000043c	fddff56f	jal	x10,8000043c	 x10=0x8000043c
       20145000	      2013	00000000	00000013	addi	x0,x0,0	  x0:0x00000000
       20155000	      2014	80000414	00000013	addi	x0,x0,0	  x0:0x00000000
       20165000	      2015	80000418	ffdff36f	jal	x6,80000418	  x6=0x80000418
       20175000	      2016	00000000	00000013	addi	x0,x0,0	  x0:0x00000000
       20185000	      2017	80000410	00000013	addi	x0,x0,0	  x0:0x00000000
       20195000	      2018	80000414	01c000ef	jal	x1,80000414	  x1=0x80000414
       20205000	      2019	00000000	00000013	addi	x0,x0,0	  x0:0x00000000
       20215000	      2020	8000042c	00000013	addi	x0,x0,0	  x0:0x00000000
       20225000	      2021	80000430	fd9ff0ef	jal	x1,80000430	  x1=0x80000430
       20235000	      2022	00000000	00000013	addi	x0,x0,0	  x0:0x00000000
       20245000	      2023	80000404	00000013	addi	x0,x0,0	  x0:0x00000000
       20255000	      2024	80000408	03c000ef	jal	x1,80000408	  x1=0x80000408
       20265000	      2025	00000000	00000013	addi	x0,x0,0	  x0:0x00000000
       20275000	      2026	80000440	00000013	addi	x0,x0,0	  x0:0x00000000
       20285000	      2027	80000444	ffdfff6f	jal	x30,80000444	 x30=0x80000444
       20295000	      2028	00000000	00000013	addi	x0,x0,0	  x0:0x00000000
       20305000	      2029	8000043c	00000013	addi	x0,x0,0	  x0:0x00000000
       20315000	      2030	80000440	00800a6f	jal	x20,80000440	 x20=0x80000440
       20325000	      2031	00000000	00000013	addi	x0,x0,0	  x0:0x00000000
       20335000	      2032	80000444	00000013	addi	x0,x0,0	  x0:0x00000000
       20345000	      2033	80000448	fddff0ef	jal	x1,80000448	  x1=0x80000448
       20355000	      2034	00000000	00000013	addi	x0,x0,0	  x0:0x00000000
       20365000	      2035	80000420	00000013	addi	x0,x0,0	  x0:0x00000000
       20375000	      2036	80000424	014000ef	jal	x1,80000424	  x1=0x80000424
       20385000	      2037	00000000	00000013	addi	x0,x0,0	  x0:0x00000000
       20395000	      2038	80000434	00000013	addi	x0,x0,0	  x0:0x00000000
       20405000	      2039	80000438	ff1ff0ef	jal	x1,80000438	  x1=0x80000438
       20415000	      2040	00000000	00000013	addi	x0,x0,0	  x0:0x00000000
       20425000	      2041	80000424	00000013	addi	x0,x0,0	  x0:0x00000000
       20435000	      2042	80000428	fe5ff2ef	jal	x5,80000428	  x5=0x80000428
       20445000	      2043	00000000	00000013	addi	x0,x0,0	  x0:0x00000000
       20455000	      2044	80000408	00000013	addi	x0,x0,0	  x0:0x00000000
       20465000	      2045	8000040c	0280036f	jal	x6,8000040c	  x6=0x8000040c
       20475000	      2046	00000000	00000013	addi	x0,x0,0	  x0:0x00000000
       20485000	      2047	80000430	00000013	addi	x0,x0,0	  x0:0x00000000
       20495000	      2048	80000434	fc1ff36f	jal	x6,80000434	  x6=0x80000434
       20505000	      2049	00000000	00000013	addi	x0,x0,0	  x0:0x00000000
       20515000	      2050	800003f0	00000013	addi	x0,x0,0	  x0:0x00000000
       20525000	      2051	800003f4	0080036f	jal	x6,800003f4	  x6=0x800003f4
       20535000	      2052	00000000	00000013	addi	x0,x0,0	  x0:0x00000000
       20545000	      2053	800003f8	00000013	addi	x0,x0,0	  x0:0x00000000
       20555000	      2054	800003fc	0080086f	jal	x16,800003fc	 x16=0x800003fc
       20565000	      2055	00000000	00000013	addi	x0,x0,0	  x0:0x00000000
       20575000	      2056	80000400	00000013	addi	x0,x0,0	  x0:0x00000000
       20585000	      2057	80000404	ff5ff0ef	jal	x1,80000404	  x1=0x80000404
       20595000	      2058	00000000	00000013	addi	x0,x0,0	  x0:0x00000000
       20605000	      2059	800003f4	00000013	addi	x0,x0,0	  x0:0x00000000
       20615000	      2060	800003f8	058000ef	jal	x1,800003f8	  x1=0x800003f8
       20625000	      2061	00000000	00000013	addi	x0,x0,0	  x0:0x00000000
       20635000	      2062	8000044c	00000013	addi	x0,x0,0	  x0:0x00000000
       20645000	      2063	80000450	410bd9b3	sra	x19,x23,x16	 x23:0x17bc22d4 x16:0x800003fc x19=0x00000001
       20655000	      2064	80000454	00c00f6f	jal	x30,80000454	 x30=0x80000454
       20665000	      2065	00000000	00000013	addi	x0,x0,0	  x0:0x00000000
       20675000	      2066	8000045c	00000013	addi	x0,x0,0	  x0:0x00000000
       20685000	      2067	80000460	00c00a6f	jal	x20,80000460	 x20=0x80000460
       20695000	      2068	00000000	00000013	addi	x0,x0,0	  x0:0x00000000
       20705000	      2069	80000468	00000013	addi	x0,x0,0	  x0:0x00000000
       20715000	      2070	8000046c	008000ef	jal	x1,8000046c	  x1=0x8000046c
       20725000	      2071	00000000	00000013	addi	x0,x0,0	  x0:0x00000000
       20735000	      2072	80000470	00000013	addi	x0,x0,0	  x0:0x00000000
       20745000	      2073	80000474	ff5ff2ef	jal	x5,80000474	  x5=0x80000474
       20755000	      2074	00000000	00000013	addi	x0,x0,0	  x0:0x00000000
       20765000	      2075	80000464	00000013	addi	x0,x0,0	  x0:0x00000000
       20775000	      2076	80000468	ff1ff0ef	jal	x1,80000468	  x1=0x80000468
       20785000	      2077	00000000	00000013	addi	x0,x0,0	  x0:0x00000000
       20795000	      2078	80000454	00000013	addi	x0,x0,0	  x0:0x00000000
       20805000	      2079	80000458	00c0036f	jal	x6,80000458	  x6=0x80000458
       20815000	      2080	00000000	00000013	addi	x0,x0,0	  x0:0x00000000
       20825000	      2081	80000460	00000013	addi	x0,x0,0	  x0:0x00000000
       20835000	      2082	80000464	034000ef	jal	x1,80000464	  x1=0x80000464
       20845000	      2083	00000000	00000013	addi	x0,x0,0	  x0:0x00000000
       20855000	      2084	80000494	00000013	addi	x0,x0,0	  x0:0x00000000
       20865000	      2085	80000498	ff5ff0ef	jal	x1,80000498	  x1=0x80000498
       20875000	      2086	00000000	00000013	addi	x0,x0,0	  x0:0x00000000
       20885000	      2087	80000488	00000013	addi	x0,x0,0	  x0:0x00000000
       20895000	      2088	8000048c	ff9ff36f	jal	x6,8000048c	  x6=0x8000048c
       20905000	      2089	00000000	00000013	addi	x0,x0,0	  x0:0x00000000
       20915000	      2090	80000480	00000013	addi	x0,x0,0	  x0:0x00000000
       20925000	      2091	80000484	ff9ff86f	jal	x16,80000484	 x16=0x80000484
       20935000	      2092	00000000	00000013	addi	x0,x0,0	  x0:0x00000000
       20945000	      2093	80000478	00000013	addi	x0,x0,0	  x0:0x00000000
       20955000	      2094	8000047c	00c000ef	jal	x1,8000047c	  x1=0x8000047c
       20965000	      2095	00000000	00000013	addi	x0,x0,0	  x0:0x00000000
       20975000	      2096	80000484	00000013	addi	x0,x0,0	  x0:0x00000000
       20985000	      2097	80000488	014000ef	jal	x1,80000488	  x1=0x80000488
       20995000	      2098	00000000	00000013	addi	x0,x0,0	  x0:0x00000000
       21005000	      2099	80000498	00000013	addi	x0,x0,0	  x0:0x00000000
       21015000	      2100	8000049c	fd5ffdef	jal	x27,8000049c	 x27=0x8000049c
       21025000	      2101	00000000	00000013	addi	x0,x0,0	  x0:0x00000000
       21035000	      2102	8000046c	00000013	addi	x0,x0,0	  x0:0x00000000
       21045000	      2103	80000470	008000ef	jal	x1,80000470	  x1=0x80000470
       21055000	      2104	00000000	00000013	addi	x0,x0,0	  x0:0x00000000
       21065000	      2105	80000474	00000013	addi	x0,x0,0	  x0:0x00000000
       21075000	      2106	80000478	01c000ef	jal	x1,80000478	  x1=0x80000478
       21085000	      2107	00000000	00000013	addi	x0,x0,0	  x0:0x00000000
       21095000	      2108	80000490	00000013	addi	x0,x0,0	  x0:0x00000000
       21105000	      2109	80000494	fc9ffdef	jal	x27,80000494	 x27=0x80000494
       21115000	      2110	00000000	00000013	addi	x0,x0,0	  x0:0x00000000
       21125000	      2111	80000458	00000013	addi	x0,x0,0	  x0:0x00000000
       21135000	      2112	8000045c	0340026f	jal	x4,8000045c	  x4=0x8000045c
       21145000	      2113	00000000	00000013	addi	x0,x0,0	  x0:0x00000000
       21155000	      2114	8000048c	00000013	addi	x0,x0,0	  x0:0x00000000
       21165000	      2115	80000490	ff1ff0ef	jal	x1,80000490	  x1=0x80000490
       21175000	      2116	00000000	00000013	addi	x0,x0,0	  x0:0x00000000
       21185000	      2117	8000047c	00000013	addi	x0,x0,0	  x0:0x00000000
       21195000	      2118	80000480	02000d6f	jal	x26,80000480	 x26=0x80000480
       21205000	      2119	00000000	00000013	addi	x0,x0,0	  x0:0x00000000
       21215000	      2120	8000049c	00000013	addi	x0,x0,0	  x0:0x00000000
       21225000	      2121	800004a0	01cce033	or	x0,x25,x28	 x25:0x8000027c x28:0x644e0fd3
       21235000	      2122	800004a4	03c00f6f	jal	x30,800004a4	 x30=0x800004a4
       21245000	      2123	00000000	00000013	addi	x0,x0,0	  x0:0x00000000
       21255000	      2124	800004dc	00000013	addi	x0,x0,0	  x0:0x00000000
       21265000	      2125	800004e0	004001ef	jal	x3,800004e0	  x3=0x800004e0
       21275000	      2126	00000000	00000013	addi	x0,x0,0	  x0:0x00000000
       21285000	      2127	800004e0	00000013	addi	x0,x0,0	  x0:0x00000000
       21295000	      2128	800004e4	030000ef	jal	x1,800004e4	  x1=0x800004e4
       21305000	      2129	00000000	00000013	addi	x0,x0,0	  x0:0x00000000
       21315000	      2130	80000510	00000013	addi	x0,x0,0	  x0:0x00000000
       21325000	      2131	80000514	ff5ff6ef	jal	x13,80000514	 x13=0x80000514
       21335000	      2132	00000000	00000013	addi	x0,x0,0	  x0:0x00000000
       21345000	      2133	80000504	00000013	addi	x0,x0,0	  x0:0x00000000
       21355000	      2134	80000508	fb1ff46f	jal	x8,80000508	  x8=0x80000508
       21365000	      2135	00000000	00000013	addi	x0,x0,0	  x0:0x00000000
       21375000	      2136	800004b4	00000013	addi	x0,x0,0	  x0:0x00000000
       21385000	      2137	800004b8	00400bef	jal	x23,800004b8	 x23=0x800004b8
       21395000	      2138	00000000	00000013	addi	x0,x0,0	  x0:0x00000000
       21405000	      2139	800004b8	00000013	addi	x0,x0,0	  x0:0x00000000
       21415000	      2140	800004bc	048000ef	jal	x1,800004bc	  x1=0x800004bc
       21425000	      2141	00000000	00000013	addi	x0,x0,0	  x0:0x00000000
       21435000	      2142	80000500	00000013	addi	x0,x0,0	  x0:0x00000000
       21445000	      2143	80000504	fa5ff0ef	jal	x1,80000504	  x1=0x80000504
       21455000	      2144	00000000	00000013	addi	x0,x0,0	  x0:0x00000000
       21465000	      2145	800004a4	00000013	addi	x0,x0,0	  x0:0x00000000
       21475000	      2146	800004a8	04c000ef	jal	x1,800004a8	  x1=0x800004a8
       21485000	      2147	00000000	00000013	addi	x0,x0,0	  x0:0x00000000
       21495000	      2148	800004f0	00000013	addi	x0,x0,0	  x0:0x00000000
       21505000	      2149	800004f4	fcdff0ef	jal	x1,800004f4	  x1=0x800004f4
       21515000	      2150	00000000	00000013	addi	x0,x0,0	  x0:0x00000000
       21525000	      2151	800004bc	00000013	addi	x0,x0,0	  x0:0x00000000
       21535000	      2152	800004c0	058000ef	jal	x1,800004c0	  x1=0x800004c0
       21545000	      2153	00000000	00000013	addi	x0,x0,0	  x0:0x00000000
       21555000	      2154	80000514	00000013	addi	x0,x0,0	  x0:0x00000000
       21565000	      2155	80000518	f9dff16f	jal	x2,80000518	  x2=0x80000518
       21575000	      2156	00000000	00000013	addi	x0,x0,0	  x0:0x00000000
       21585000	      2157	800004b0	00000013	addi	x0,x0,0	  x0:0x00000000
       21595000	      2158	800004b4	024000ef	jal	x1,800004b4	  x1=0x800004b4
       21605000	      2159	00000000	00000013	addi	x0,x0,0	  x0:0x00000000
       21615000	      2160	800004d4	00000013	addi	x0,x0,0	  x0:0x00000000
       21625000	      2161	800004d8	0380026f	jal	x4,800004d8	  x4=0x800004d8
       21635000	      2162	00000000	00000013	addi	x0,x0,0	  x0:0x00000000
       21645000	      2163	8000050c	00000013	addi	x0,x0,0	  x0:0x00000000
       21655000	      2164	80000510	fb5ff0ef	jal	x1,80000510	  x1=0x80000510
       21665000	      2165	00000000	00000013	addi	x0,x0,0	  x0:0x00000000
       21675000	      2166	800004c0	00000013	addi	x0,x0,0	  x0:0x00000000
       21685000	      2167	800004c4	0340036f	jal	x6,800004c4	  x6=0x800004c4
       21695000	      2168	00000000	00000013	addi	x0,x0,0	  x0:0x00000000
       21705000	      2169	800004f4	00000013	addi	x0,x0,0	  x0:0x00000000
       21715000	      2170	800004f8	0080036f	jal	x6,800004f8	  x6=0x800004f8
       21725000	      2171	00000000	00000013	addi	x0,x0,0	  x0:0x00000000
       21735000	      2172	800004fc	00000013	addi	x0,x0,0	  x0:0x00000000
       21745000	      2173	80000500	fd1ff0ef	jal	x1,80000500	  x1=0x80000500
       21755000	      2174	00000000	00000013	addi	x0,x0,0	  x0:0x00000000
       21765000	      2175	800004cc	00000013	addi	x0,x0,0	  x0:0x00000000
       21775000	      2176	800004d0	02c0036f	jal	x6,800004d0	  x6=0x800004d0
       21785000	      2177	00000000	00000013	addi	x0,x0,0	  x0:0x00000000
       21795000	      2178	800004f8	00000013	addi	x0,x0,0	  x0:0x00000000
       21805000	      2179	800004fc	ff5ff36f	jal	x6,800004fc	  x6=0x800004fc
       21815000	      2180	00000000	00000013	addi	x0,x0,0	  x0:0x00000000
       21825000	      2181	800004ec	00000013	addi	x0,x0,0	  x0:0x00000000
       21835000	      2182	800004f0	ffdff36f	jal	x6,800004f0	  x6=0x800004f0
       21845000	      2183	00000000	00000013	addi	x0,x0,0	  x0:0x00000000
       21855000	      2184	800004e8	00000013	addi	x0,x0,0	  x0:0x00000000
       21865000	      2185	800004ec	fe9fff6f	jal	x30,800004ec	 x30=0x800004ec
       21875000	      2186	00000000	00000013	addi	x0,x0,0	  x0:0x00000000
       21885000	      2187	800004d0	00000013	addi	x0,x0,0	  x0:0x00000000
       21895000	      2188	800004d4	0080056f	jal	x10,800004d4	 x10=0x800004d4
       21905000	      2189	00000000	00000013	addi	x0,x0,0	  x0:0x00000000
       21915000	      2190	800004d8	00000013	addi	x0,x0,0	  x0:0x00000000
       21925000	      2191	800004dc	fd5ff0ef	jal	x1,800004dc	  x1=0x800004dc
       21935000	      2192	00000000	00000013	addi	x0,x0,0	  x0:0x00000000
       21945000	      2193	800004ac	00000013	addi	x0,x0,0	  x0:0x00000000
       21955000	      2194	800004b0	01800d6f	jal	x26,800004b0	 x26=0x800004b0
       21965000	      2195	00000000	00000013	addi	x0,x0,0	  x0:0x00000000
       21975000	      2196	800004c4	00000013	addi	x0,x0,0	  x0:0x00000000
       21985000	      2197	800004c8	020000ef	jal	x1,800004c8	  x1=0x800004c8
       21995000	      2198	00000000	00000013	addi	x0,x0,0	  x0:0x00000000
       22005000	      2199	800004e4	00000013	addi	x0,x0,0	  x0:0x00000000
       22015000	      2200	800004e8	fe5ff0ef	jal	x1,800004e8	  x1=0x800004e8
       22025000	      2201	00000000	00000013	addi	x0,x0,0	  x0:0x00000000
       22035000	      2202	800004c8	00000013	addi	x0,x0,0	  x0:0x00000000
       22045000	      2203	800004cc	04000cef	jal	x25,800004cc	 x25=0x800004cc
       22055000	      2204	00000000	00000013	addi	x0,x0,0	  x0:0x00000000
       22065000	      2205	80000508	00000013	addi	x0,x0,0	  x0:0x00000000
       22075000	      2206	8000050c	fa1ff36f	jal	x6,8000050c	  x6=0x8000050c
       22085000	      2207	00000000	00000013	addi	x0,x0,0	  x0:0x00000000
       22095000	      2208	800004a8	00000013	addi	x0,x0,0	  x0:0x00000000
       22105000	      2209	800004ac	07000f6f	jal	x30,800004ac	 x30=0x800004ac
       22115000	      2210	00000000	00000013	addi	x0,x0,0	  x0:0x00000000
       22125000	      2211	80000518	00000013	addi	x0,x0,0	  x0:0x00000000
       22135000	      2212	8000051c	001e6ab3	or	x21,x28,x1	 x28:0x644e0fd3  x1:0x800004e8 x21=0xe44e0ffb
       22145000	      2213	80000520	00800f6f	jal	x30,80000520	 x30=0x80000520
       22155000	      2214	00000000	00000013	addi	x0,x0,0	  x0:0x00000000
       22165000	      2215	80000524	00000013	addi	x0,x0,0	  x0:0x00000000
       22175000	      2216	80000528	0400036f	jal	x6,80000528	  x6=0x80000528
       22185000	      2217	00000000	00000013	addi	x0,x0,0	  x0:0x00000000
       22195000	      2218	80000564	00000013	addi	x0,x0,0	  x0:0x00000000
       22205000	      2219	80000568	fe1ff2ef	jal	x5,80000568	  x5=0x80000568
       22215000	      2220	00000000	00000013	addi	x0,x0,0	  x0:0x00000000
       22225000	      2221	80000544	00000013	addi	x0,x0,0	  x0:0x00000000
       22235000	      2222	80000548	fe9ff66f	jal	x12,80000548	 x12=0x80000548
       22245000	      2223	00000000	00000013	addi	x0,x0,0	  x0:0x00000000
       22255000	      2224	8000052c	00000013	addi	x0,x0,0	  x0:0x00000000
       22265000	      2225	80000530	030000ef	jal	x1,80000530	  x1=0x80000530
       22275000	      2226	00000000	00000013	addi	x0,x0,0	  x0:0x00000000
       22285000	      2227	8000055c	00000013	addi	x0,x0,0	  x0:0x00000000
       22295000	      2228	80000560	fc5ff0ef	jal	x1,80000560	  x1=0x80000560
       22305000	      2229	00000000	00000013	addi	x0,x0,0	  x0:0x00000000
       22315000	      2230	80000520	00000013	addi	x0,x0,0	  x0:0x00000000
       22325000	      2231	80000524	03400cef	jal	x25,80000524	 x25=0x80000524
       22335000	      2232	00000000	00000013	addi	x0,x0,0	  x0:0x00000000
       22345000	      2233	80000554	00000013	addi	x0,x0,0	  x0:0x00000000
       22355000	      2234	80000558	ffdff36f	jal	x6,80000558	  x6=0x80000558
       22365000	      2235	00000000	00000013	addi	x0,x0,0	  x0:0x00000000
       22375000	      2236	80000550	00000013	addi	x0,x0,0	  x0:0x00000000
       22385000	      2237	80000554	008000ef	jal	x1,80000554	  x1=0x80000554
       22395000	      2238	00000000	00000013	addi	x0,x0,0	  x0:0x00000000
       22405000	      2239	80000558	00000013	addi	x0,x0,0	  x0:0x00000000
       22415000	      2240	8000055c	0080036f	jal	x6,8000055c	  x6=0x8000055c
       22425000	      2241	00000000	00000013	addi	x0,x0,0	  x0:0x00000000
       22435000	      2242	80000560	00000013	addi	x0,x0,0	  x0:0x00000000
       22445000	      2243	80000564	fe1ff26f	jal	x4,80000564	  x4=0x80000564
       22455000	      2244	00000000	00000013	addi	x0,x0,0	  x0:0x00000000
       22465000	      2245	80000540	00000013	addi	x0,x0,0	  x0:0x00000000
       22475000	      2246	80000544	ff5ff0ef	jal	x1,80000544	  x1=0x80000544
       22485000	      2247	00000000	00000013	addi	x0,x0,0	  x0:0x00000000
       22495000	      2248	80000534	00000013	addi	x0,x0,0	  x0:0x00000000
       22505000	      2249	80000538	008000ef	jal	x1,80000538	  x1=0x80000538
       22515000	      2250	00000000	00000013	addi	x0,x0,0	  x0:0x00000000
       22525000	      2251	8000053c	00000013	addi	x0,x0,0	  x0:0x00000000
       22535000	      2252	80000540	fedff5ef	jal	x11,80000540	 x11=0x80000540
       22545000	      2253	00000000	00000013	addi	x0,x0,0	  x0:0x00000000
       22555000	      2254	80000528	00000013	addi	x0,x0,0	  x0:0x00000000
       22565000	      2255	8000052c	024002ef	jal	x5,8000052c	  x5=0x8000052c
       22575000	      2256	00000000	00000013	addi	x0,x0,0	  x0:0x00000000
       22585000	      2257	8000054c	00000013	addi	x0,x0,0	  x0:0x00000000
       22595000	      2258	80000550	ffdffe6f	jal	x28,80000550	 x28=0x80000550
       22605000	      2259	00000000	00000013	addi	x0,x0,0	  x0:0x00000000
       22615000	      2260	80000548	00000013	addi	x0,x0,0	  x0:0x00000000
       22625000	      2261	8000054c	fe9ff36f	jal	x6,8000054c	  x6=0x8000054c
       22635000	      2262	00000000	00000013	addi	x0,x0,0	  x0:0x00000000
       22645000	      2263	80000530	00000013	addi	x0,x0,0	  x0:0x00000000
       22655000	      2264	80000534	008000ef	jal	x1,80000534	  x1=0x80000534
       22665000	      2265	00000000	00000013	addi	x0,x0,0	  x0:0x00000000
       22675000	      2266	80000538	00000013	addi	x0,x0,0	  x0:0x00000000
       22685000	      2267	8000053c	030003ef	jal	x7,8000053c	  x7=0x8000053c
       22695000	      2268	00000000	00000013	addi	x0,x0,0	  x0:0x00000000
       22705000	      2269	80000568	00000013	addi	x0,x0,0	  x0:0x00000000
       22715000	      2270	8000056c	401b8533	sub	x10,x23,x1	 x23:0x800004b8  x1:0x80000534 x10=0xffffff84
       22725000	      2271	80000570	00400f6f	jal	x30,80000570	 x30=0x80000570
       22735000	      2272	00000000	00000013	addi	x0,x0,0	  x0:0x00000000
       22745000	      2273	80000570	00000013	addi	x0,x0,0	  x0:0x00000000
       22755000	      2274	80000574	00c000ef	jal	x1,80000574	  x1=0x80000574
       22765000	      2275	00000000	00000013	addi	x0,x0,0	  x0:0x00000000
       22775000	      2276	8000057c	00000013	addi	x0,x0,0	  x0:0x00000000
       22785000	      2277	80000580	ff9ff0ef	jal	x1,80000580	  x1=0x80000580
       22795000	      2278	00000000	00000013	addi	x0,x0,0	  x0:0x00000000
       22805000	      2279	80000574	00000013	addi	x0,x0,0	  x0:0x00000000
       22815000	      2280	80000578	01c000ef	jal	x1,80000578	  x1=0x80000578
       22825000	      2281	00000000	00000013	addi	x0,x0,0	  x0:0x00000000
       22835000	      2282	80000590	00000013	addi	x0,x0,0	  x0:0x00000000
       22845000	      2283	80000594	ffdff36f	jal	x6,80000594	  x6=0x80000594
       22855000	      2284	00000000	00000013	addi	x0,x0,0	  x0:0x00000000
       22865000	      2285	8000058c	00000013	addi	x0,x0,0	  x0:0x00000000
       22875000	      2286	80000590	ff5ff0ef	jal	x1,80000590	  x1=0x80000590
       22885000	      2287	00000000	00000013	addi	x0,x0,0	  x0:0x00000000
       22895000	      2288	80000580	00000013	addi	x0,x0,0	  x0:0x00000000
       22905000	      2289	80000584	ff9ff1ef	jal	x3,80000584	  x3=0x80000584
       22915000	      2290	00000000	00000013	addi	x0,x0,0	  x0:0x00000000
       22925000	      2291	80000578	00000013	addi	x0,x0,0	  x0:0x00000000
       22935000	      2292	8000057c	0200026f	jal	x4,8000057c	  x4=0x8000057c
       22945000	      2293	00000000	00000013	addi	x0,x0,0	  x0:0x00000000
       22955000	      2294	80000598	00000013	addi	x0,x0,0	  x0:0x00000000
       22965000	      2295	8000059c	fedff0ef	jal	x1,8000059c	  x1=0x8000059c
       22975000	      2296	00000000	00000013	addi	x0,x0,0	  x0:0x00000000
       22985000	      2297	80000584	00000013	addi	x0,x0,0	  x0:0x00000000
       22995000	      2298	80000588	004004ef	jal	x9,80000588	  x9=0x80000588
       23005000	      2299	00000000	00000013	addi	x0,x0,0	  x0:0x00000000
       23015000	      2300	80000588	00000013	addi	x0,x0,0	  x0:0x00000000
       23025000	      2301	8000058c	00c001ef	jal	x3,8000058c	  x3=0x8000058c
       23035000	      2302	00000000	00000013	addi	x0,x0,0	  x0:0x00000000
       23045000	      2303	80000594	00000013	addi	x0,x0,0	  x0:0x00000000
       23055000	      2304	80000598	00800f6f	jal	x30,80000598	 x30=0x80000598
       23065000	      2305	00000000	00000013	addi	x0,x0,0	  x0:0x00000000
       23075000	      2306	8000059c	00000013	addi	x0,x0,0	  x0:0x00000000
       23085000	      2307	800005a0	03fcb237	lui	x4,0x3fcb	  x4=0x03fcb000
       23095000	      2308	800005a4	01000f6f	jal	x30,800005a4	 x30=0x800005a4
       23105000	      2309	00000000	00000013	addi	x0,x0,0	  x0:0x00000000
       23115000	      2310	800005b0	00000013	addi	x0,x0,0	  x0:0x00000000
       23125000	      2311	800005b4	ffdff36f	jal	x6,800005b4	  x6=0x800005b4
       23135000	      2312	00000000	00000013	addi	x0,x0,0	  x0:0x00000000
       23145000	      2313	800005ac	00000013	addi	x0,x0,0	  x0:0x00000000
       23155000	      2314	800005b0	ff9ff16f	jal	x2,800005b0	  x2=0x800005b0
       23165000	      2315	00000000	00000013	addi	x0,x0,0	  x0:0x00000000
       23175000	      2316	800005a4	00000013	addi	x0,x0,0	  x0:0x00000000
       23185000	      2317	800005a8	03000aef	jal	x21,800005a8	 x21=0x800005a8
       23195000	      2318	00000000	00000013	addi	x0,x0,0	  x0:0x00000000
       23205000	      2319	800005d4	00000013	addi	x0,x0,0	  x0:0x00000000
       23215000	      2320	800005d8	004000ef	jal	x1,800005d8	  x1=0x800005d8
       23225000	      2321	00000000	00000013	addi	x0,x0,0	  x0:0x00000000
       23235000	      2322	800005d8	00000013	addi	x0,x0,0	  x0:0x00000000
       23245000	      2323	800005dc	fe1ff0ef	jal	x1,800005dc	  x1=0x800005dc
       23255000	      2324	00000000	00000013	addi	x0,x0,0	  x0:0x00000000
       23265000	      2325	800005b8	00000013	addi	x0,x0,0	  x0:0x00000000
       23275000	      2326	800005bc	ff1ff0ef	jal	x1,800005bc	  x1=0x800005bc
       23285000	      2327	00000000	00000013	addi	x0,x0,0	  x0:0x00000000
       23295000	      2328	800005a8	00000013	addi	x0,x0,0	  x0:0x00000000
       23305000	      2329	800005ac	01c000ef	jal	x1,800005ac	  x1=0x800005ac
       23315000	      2330	00000000	00000013	addi	x0,x0,0	  x0:0x00000000
       23325000	      2331	800005c4	00000013	addi	x0,x0,0	  x0:0x00000000
       23335000	      2332	800005c8	004000ef	jal	x1,800005c8	  x1=0x800005c8
       23345000	      2333	00000000	00000013	addi	x0,x0,0	  x0:0x00000000
       23355000	      2334	800005c8	00000013	addi	x0,x0,0	  x0:0x00000000
       23365000	      2335	800005cc	ff9ff36f	jal	x6,800005cc	  x6=0x800005cc
       23375000	      2336	00000000	00000013	addi	x0,x0,0	  x0:0x00000000
       23385000	      2337	800005c0	00000013	addi	x0,x0,0	  x0:0x00000000
       23395000	      2338	800005c4	01000cef	jal	x25,800005c4	 x25=0x800005c4
       23405000	      2339	00000000	00000013	addi	x0,x0,0	  x0:0x00000000
       23415000	      2340	800005d0	00000013	addi	x0,x0,0	  x0:0x00000000
       23425000	      2341	800005d4	ffdff0ef	jal	x1,800005d4	  x1=0x800005d4
       23435000	      2342	00000000	00000013	addi	x0,x0,0	  x0:0x00000000
       23445000	      2343	800005cc	00000013	addi	x0,x0,0	  x0:0x00000000
       23455000	      2344	800005d0	ff1ff36f	jal	x6,800005d0	  x6=0x800005d0
       23465000	      2345	00000000	00000013	addi	x0,x0,0	  x0:0x00000000
       23475000	      2346	800005bc	00000013	addi	x0,x0,0	  x0:0x00000000
       23485000	      2347	800005c0	ff9ff0ef	jal	x1,800005c0	  x1=0x800005c0
       23495000	      2348	00000000	00000013	addi	x0,x0,0	  x0:0x00000000
       23505000	      2349	800005b4	00000013	addi	x0,x0,0	  x0:0x00000000
       23515000	      2350	800005b8	028000ef	jal	x1,800005b8	  x1=0x800005b8
       23525000	      2351	00000000	00000013	addi	x0,x0,0	  x0:0x00000000
       23535000	      2352	800005dc	00000013	addi	x0,x0,0	  x0:0x00000000
       23545000	      2353	800005e0	a0b9f097	auipc	x1,0xa0b9f	  x1=0x20b9f5dc
       23555000	      2354	800005e4	00c00f6f	jal	x30,800005e4	 x30=0x800005e4
       23565000	      2355	00000000	00000013	addi	x0,x0,0	  x0:0x00000000
       23575000	      2356	800005ec	00000013	addi	x0,x0,0	  x0:0x00000000
       23585000	      2357	800005f0	01c000ef	jal	x1,800005f0	  x1=0x800005f0
       23595000	      2358	00000000	00000013	addi	x0,x0,0	  x0:0x00000000
       23605000	      2359	80000608	00000013	addi	x0,x0,0	  x0:0x00000000
       23615000	      2360	8000060c	028000ef	jal	x1,8000060c	  x1=0x8000060c
       23625000	      2361	00000000	00000013	addi	x0,x0,0	  x0:0x00000000
       23635000	      2362	80000630	00000013	addi	x0,x0,0	  x0:0x00000000
       23645000	      2363	80000634	ff1ff0ef	jal	x1,80000634	  x1=0x80000634
       23655000	      2364	00000000	00000013	addi	x0,x0,0	  x0:0x00000000
       23665000	      2365	80000620	00000013	addi	x0,x0,0	  x0:0x00000000
       23675000	      2366	80000624	fddff0ef	jal	x1,80000624	  x1=0x80000624
       23685000	      2367	00000000	00000013	addi	x0,x0,0	  x0:0x00000000
       23695000	      2368	800005fc	00000013	addi	x0,x0,0	  x0:0x00000000
       23705000	      2369	80000600	fedff36f	jal	x6,80000600	  x6=0x80000600
       23715000	      2370	00000000	00000013	addi	x0,x0,0	  x0:0x00000000
       23725000	      2371	800005e8	00000013	addi	x0,x0,0	  x0:0x00000000
       23735000	      2372	800005ec	008000ef	jal	x1,800005ec	  x1=0x800005ec
       23745000	      2373	00000000	00000013	addi	x0,x0,0	  x0:0x00000000
       23755000	      2374	800005f0	00000013	addi	x0,x0,0	  x0:0x00000000
       23765000	      2375	800005f4	048004ef	jal	x9,800005f4	  x9=0x800005f4
       23775000	      2376	00000000	00000013	addi	x0,x0,0	  x0:0x00000000
       23785000	      2377	80000638	00000013	addi	x0,x0,0	  x0:0x00000000
       23795000	      2378	8000063c	fddff0ef	jal	x1,8000063c	  x1=0x8000063c
       23805000	      2379	00000000	00000013	addi	x0,x0,0	  x0:0x00000000
       23815000	      2380	80000614	00000013	addi	x0,x0,0	  x0:0x00000000
       23825000	      2381	80000618	fedff0ef	jal	x1,80000618	  x1=0x80000618
       23835000	      2382	00000000	00000013	addi	x0,x0,0	  x0:0x00000000
       23845000	      2383	80000600	00000013	addi	x0,x0,0	  x0:0x00000000
       23855000	      2384	80000604	ff9ff0ef	jal	x1,80000604	  x1=0x80000604
       23865000	      2385	00000000	00000013	addi	x0,x0,0	  x0:0x00000000
       23875000	      2386	800005f8	00000013	addi	x0,x0,0	  x0:0x00000000
       23885000	      2387	800005fc	ffdff36f	jal	x6,800005fc	  x6=0x800005fc
       23895000	      2388	00000000	00000013	addi	x0,x0,0	  x0:0x00000000
       23905000	      2389	800005f4	00000013	addi	x0,x0,0	  x0:0x00000000
       23915000	      2390	800005f8	ff1ff0ef	jal	x1,800005f8	  x1=0x800005f8
       23925000	      2391	00000000	00000013	addi	x0,x0,0	  x0:0x00000000
       23935000	      2392	800005e4	00000013	addi	x0,x0,0	  x0:0x00000000
       23945000	      2393	800005e8	028004ef	jal	x9,800005e8	  x9=0x800005e8
       23955000	      2394	00000000	00000013	addi	x0,x0,0	  x0:0x00000000
       23965000	      2395	8000060c	00000013	addi	x0,x0,0	  x0:0x00000000
       23975000	      2396	80000610	0040036f	jal	x6,80000610	  x6=0x80000610
       23985000	      2397	00000000	00000013	addi	x0,x0,0	  x0:0x00000000
       23995000	      2398	80000610	00000013	addi	x0,x0,0	  x0:0x00000000
       24005000	      2399	80000614	018005ef	jal	x11,80000614	 x11=0x80000614
       24015000	      2400	00000000	00000013	addi	x0,x0,0	  x0:0x00000000
       24025000	      2401	80000628	00000013	addi	x0,x0,0	  x0:0x00000000
       24035000	      2402	8000062c	ffdff16f	jal	x2,8000062c	  x2=0x8000062c
       24045000	      2403	00000000	00000013	addi	x0,x0,0	  x0:0x00000000
       24055000	      2404	80000624	00000013	addi	x0,x0,0	  x0:0x00000000
       24065000	      2405	80000628	fe1ff0ef	jal	x1,80000628	  x1=0x80000628
       24075000	      2406	00000000	00000013	addi	x0,x0,0	  x0:0x00000000
       24085000	      2407	80000604	00000013	addi	x0,x0,0	  x0:0x00000000
       24095000	      2408	80000608	018000ef	jal	x1,80000608	  x1=0x80000608
       24105000	      2409	00000000	00000013	addi	x0,x0,0	  x0:0x00000000
       24115000	      2410	8000061c	00000013	addi	x0,x0,0	  x0:0x00000000
       24125000	      2411	80000620	0180036f	jal	x6,80000620	  x6=0x80000620
       24135000	      2412	00000000	00000013	addi	x0,x0,0	  x0:0x00000000
       24145000	      2413	80000634	00000013	addi	x0,x0,0	  x0:0x00000000
       24155000	      2414	80000638	ff9ff36f	jal	x6,80000638	  x6=0x80000638
       24165000	      2415	00000000	00000013	addi	x0,x0,0	  x0:0x00000000
       24175000	      2416	8000062c	00000013	addi	x0,x0,0	  x0:0x00000000
       24185000	      2417	80000630	fedff0ef	jal	x1,80000630	  x1=0x80000630
       24195000	      2418	00000000	00000013	addi	x0,x0,0	  x0:0x00000000
       24205000	      2419	80000618	00000013	addi	x0,x0,0	  x0:0x00000000
       24215000	      2420	8000061c	024000ef	jal	x1,8000061c	  x1=0x8000061c
       24225000	      2421	00000000	00000013	addi	x0,x0,0	  x0:0x00000000
       24235000	      2422	8000063c	00000013	addi	x0,x0,0	  x0:0x00000000
       24245000	      2423	80000640	67c52217	auipc	x4,0x67c52	  x4=0xe7c5263c
       24255000	      2424	80000644	04400f6f	jal	x30,80000644	 x30=0x80000644
       24265000	      2425	00000000	00000013	addi	x0,x0,0	  x0:0x00000000
       24275000	      2426	80000684	00000013	addi	x0,x0,0	  x0:0x00000000
       24285000	      2427	80000688	ff5ff46f	jal	x8,80000688	  x8=0x80000688
       24295000	      2428	00000000	00000013	addi	x0,x0,0	  x0:0x00000000
       24305000	      2429	80000678	00000013	addi	x0,x0,0	  x0:0x00000000
       24315000	      2430	8000067c	fd1ff1ef	jal	x3,8000067c	  x3=0x8000067c
       24325000	      2431	00000000	00000013	addi	x0,x0,0	  x0:0x00000000
       24335000	      2432	80000648	00000013	addi	x0,x0,0	  x0:0x00000000
       24345000	      2433	8000064c	018000ef	jal	x1,8000064c	  x1=0x8000064c
       24355000	      2434	00000000	00000013	addi	x0,x0,0	  x0:0x00000000
       24365000	      2435	80000660	00000013	addi	x0,x0,0	  x0:0x00000000
       24375000	      2436	80000664	ffdff0ef	jal	x1,80000664	  x1=0x80000664
       24385000	      2437	00000000	00000013	addi	x0,x0,0	  x0:0x00000000
       24395000	      2438	8000065c	00000013	addi	x0,x0,0	  x0:0x00000000
       24405000	      2439	80000660	ffdff0ef	jal	x1,80000660	  x1=0x80000660
       24415000	      2440	00000000	00000013	addi	x0,x0,0	  x0:0x00000000
       24425000	      2441	80000658	00000013	addi	x0,x0,0	  x0:0x00000000
       24435000	      2442	8000065c	024009ef	jal	x19,8000065c	 x19=0x8000065c
       24445000	      2443	00000000	00000013	addi	x0,x0,0	  x0:0x00000000
       24455000	      2444	8000067c	00000013	addi	x0,x0,0	  x0:0x00000000
       24465000	      2445	80000680	ff5ff36f	jal	x6,80000680	  x6=0x80000680
       24475000	      2446	00000000	00000013	addi	x0,x0,0	  x0:0x00000000
       24485000	      2447	80000670	00000013	addi	x0,x0,0	  x0:0x00000000
       24495000	      2448	80000674	fe5ff0ef	jal	x1,80000674	  x1=0x80000674
       24505000	      2449	00000000	00000013	addi	x0,x0,0	  x0:0x00000000
       24515000	      2450	80000654	00000013	addi	x0,x0,0	  x0:0x00000000
       24525000	      2451	80000658	01000e6f	jal	x28,80000658	 x28=0x80000658
       24535000	      2452	00000000	00000013	addi	x0,x0,0	  x0:0x00000000
       24545000	      2453	80000664	00000013	addi	x0,x0,0	  x0:0x00000000
       24555000	      2454	80000668	fedff36f	jal	x6,80000668	  x6=0x80000668
       24565000	      2455	00000000	00000013	addi	x0,x0,0	  x0:0x00000000
       24575000	      2456	80000650	00000013	addi	x0,x0,0	  x0:0x00000000
       24585000	      2457	80000654	0180046f	jal	x8,80000654	  x8=0x80000654
       24595000	      2458	00000000	00000013	addi	x0,x0,0	  x0:0x00000000
       24605000	      2459	80000668	00000013	addi	x0,x0,0	  x0:0x00000000
       24615000	      2460	8000066c	00c00e6f	jal	x28,8000066c	 x28=0x8000066c
       24625000	      2461	00000000	00000013	addi	x0,x0,0	  x0:0x00000000
       24635000	      2462	80000674	00000013	addi	x0,x0,0	  x0:0x00000000
       24645000	      2463	80000678	0140016f	jal	x2,80000678	  x2=0x80000678
       24655000	      2464	00000000	00000013	addi	x0,x0,0	  x0:0x00000000
       24665000	      2465	80000688	00000013	addi	x0,x0,0	  x0:0x00000000
       24675000	      2466	8000068c	fe5ff66f	jal	x12,8000068c	 x12=0x8000068c
       24685000	      2467	00000000	00000013	addi	x0,x0,0	  x0:0x00000000
       24695000	      2468	8000066c	00000013	addi	x0,x0,0	  x0:0x00000000
       24705000	      2469	80000670	014000ef	jal	x1,80000670	  x1=0x80000670
       24715000	      2470	00000000	00000013	addi	x0,x0,0	  x0:0x00000000
       24725000	      2471	80000680	00000013	addi	x0,x0,0	  x0:0x00000000
       24735000	      2472	80000684	fcdff0ef	jal	x1,80000684	  x1=0x80000684
       24745000	      2473	00000000	00000013	addi	x0,x0,0	  x0:0x00000000
       24755000	      2474	8000064c	00000013	addi	x0,x0,0	  x0:0x00000000
       24765000	      2475	80000650	040000ef	jal	x1,80000650	  x1=0x80000650
       24775000	      2476	00000000	00000013	addi	x0,x0,0	  x0:0x00000000
       24785000	      2477	8000068c	00000013	addi	x0,x0,0	  x0:0x00000000
       24795000	      2478	80000690	fb9ff0ef	jal	x1,80000690	  x1=0x80000690
       24805000	      2479	00000000	00000013	addi	x0,x0,0	  x0:0x00000000
       24815000	      2480	80000644	00000013	addi	x0,x0,0	  x0:0x00000000
       24825000	      2481	80000648	04c0036f	jal	x6,80000648	  x6=0x80000648
       24835000	      2482	00000000	00000013	addi	x0,x0,0	  x0:0x00000000
       24845000	      2483	80000690	00000013	addi	x0,x0,0	  x0:0x00000000
       24855000	      2484	80000694	4050d3b3	sra	x7,x1,x5	  x1:0x80000690  x5:0x8000052c  x7=0xfff80000
       24865000	      2485	80000698	03800f6f	jal	x30,80000698	 x30=0x80000698
       24875000	      2486	00000000	00000013	addi	x0,x0,0	  x0:0x00000000
       24885000	      2487	800006cc	00000013	addi	x0,x0,0	  x0:0x00000000
       24895000	      2488	800006d0	fe9ff0ef	jal	x1,800006d0	  x1=0x800006d0
       24905000	      2489	00000000	00000013	addi	x0,x0,0	  x0:0x00000000
       24915000	      2490	800006b4	00000013	addi	x0,x0,0	  x0:0x00000000
       24925000	      2491	800006b8	04c000ef	jal	x1,800006b8	  x1=0x800006b8
       24935000	      2492	00000000	00000013	addi	x0,x0,0	  x0:0x00000000
       24945000	      2493	80000700	00000013	addi	x0,x0,0	  x0:0x00000000
       24955000	      2494	80000704	ff9ff0ef	jal	x1,80000704	  x1=0x80000704
       24965000	      2495	00000000	00000013	addi	x0,x0,0	  x0:0x00000000
       24975000	      2496	800006f8	00000013	addi	x0,x0,0	  x0:0x00000000
       24985000	      2497	800006fc	fd9ff9ef	jal	x19,800006fc	 x19=0x800006fc
       24995000	      2498	00000000	00000013	addi	x0,x0,0	  x0:0x00000000
       25005000	      2499	800006d0	00000013	addi	x0,x0,0	  x0:0x00000000
       25015000	      2500	800006d4	fd5ff36f	jal	x6,800006d4	  x6=0x800006d4
       25025000	      2501	00000000	00000013	addi	x0,x0,0	  x0:0x00000000
       25035000	      2502	800006a4	00000013	addi	x0,x0,0	  x0:0x00000000
       25045000	      2503	800006a8	014000ef	jal	x1,800006a8	  x1=0x800006a8
       25055000	      2504	00000000	00000013	addi	x0,x0,0	  x0:0x00000000
       25065000	      2505	800006b8	00000013	addi	x0,x0,0	  x0:0x00000000
       25075000	      2506	800006bc	038002ef	jal	x5,800006bc	  x5=0x800006bc
       25085000	      2507	00000000	00000013	addi	x0,x0,0	  x0:0x00000000
       25095000	      2508	800006f0	00000013	addi	x0,x0,0	  x0:0x00000000
       25105000	      2509	800006f4	fd5ff0ef	jal	x1,800006f4	  x1=0x800006f4
       25115000	      2510	00000000	00000013	addi	x0,x0,0	  x0:0x00000000
       25125000	      2511	800006c4	00000013	addi	x0,x0,0	  x0:0x00000000
       25135000	      2512	800006c8	018000ef	jal	x1,800006c8	  x1=0x800006c8
       25145000	      2513	00000000	00000013	addi	x0,x0,0	  x0:0x00000000
       25155000	      2514	800006dc	00000013	addi	x0,x0,0	  x0:0x00000000
       25165000	      2515	800006e0	fc5ff16f	jal	x2,800006e0	  x2=0x800006e0
       25175000	      2516	00000000	00000013	addi	x0,x0,0	  x0:0x00000000
       25185000	      2517	800006a0	00000013	addi	x0,x0,0	  x0:0x00000000
       25195000	      2518	800006a4	ff9ff0ef	jal	x1,800006a4	  x1=0x800006a4
       25205000	      2519	00000000	00000013	addi	x0,x0,0	  x0:0x00000000
       25215000	      2520	80000698	00000013	addi	x0,x0,0	  x0:0x00000000
       25225000	      2521	8000069c	05c000ef	jal	x1,8000069c	  x1=0x8000069c
       25235000	      2522	00000000	00000013	addi	x0,x0,0	  x0:0x00000000
       25245000	      2523	800006f4	00000013	addi	x0,x0,0	  x0:0x00000000
       25255000	      2524	800006f8	fcdff0ef	jal	x1,800006f8	  x1=0x800006f8
       25265000	      2525	00000000	00000013	addi	x0,x0,0	  x0:0x00000000
       25275000	      2526	800006c0	00000013	addi	x0,x0,0	  x0:0x00000000
       25285000	      2527	800006c4	020000ef	jal	x1,800006c4	  x1=0x800006c4
       25295000	      2528	00000000	00000013	addi	x0,x0,0	  x0:0x00000000
       25305000	      2529	800006e0	00000013	addi	x0,x0,0	  x0:0x00000000
       25315000	      2530	800006e4	01c000ef	jal	x1,800006e4	  x1=0x800006e4
       25325000	      2531	00000000	00000013	addi	x0,x0,0	  x0:0x00000000
       25335000	      2532	800006fc	00000013	addi	x0,x0,0	  x0:0x00000000
       25345000	      2533	80000700	fa1ff0ef	jal	x1,80000700	  x1=0x80000700
       25355000	      2534	00000000	00000013	addi	x0,x0,0	  x0:0x00000000
       25365000	      2535	8000069c	00000013	addi	x0,x0,0	  x0:0x00000000
       25375000	      2536	800006a0	00c0036f	jal	x6,800006a0	  x6=0x800006a0
       25385000	      2537	00000000	00000013	addi	x0,x0,0	  x0:0x00000000
       25395000	      2538	800006a8	00000013	addi	x0,x0,0	  x0:0x00000000
       25405000	      2539	800006ac	03c0036f	jal	x6,800006ac	  x6=0x800006ac
       25415000	      2540	00000000	00000013	addi	x0,x0,0	  x0:0x00000000
       25425000	      2541	800006e4	00000013	addi	x0,x0,0	  x0:0x00000000
       25435000	      2542	800006e8	fc9ff0ef	jal	x1,800006e8	  x1=0x800006e8
       25445000	      2543	00000000	00000013	addi	x0,x0,0	  x0:0x00000000
       25455000	      2544	800006ac	00000013	addi	x0,x0,0	  x0:0x00000000
       25465000	      2545	800006b0	004000ef	jal	x1,800006b0	  x1=0x800006b0
       25475000	      2546	00000000	00000013	addi	x0,x0,0	  x0:0x00000000
       25485000	      2547	800006b0	00000013	addi	x0,x0,0	  x0:0x00000000
       25495000	      2548	800006b4	00c000ef	jal	x1,800006b4	  x1=0x800006b4
       25505000	      2549	00000000	00000013	addi	x0,x0,0	  x0:0x00000000
       25515000	      2550	800006bc	00000013	addi	x0,x0,0	  x0:0x00000000
       25525000	      2551	800006c0	0480036f	jal	x6,800006c0	  x6=0x800006c0
       25535000	      2552	00000000	00000013	addi	x0,x0,0	  x0:0x00000000
       25545000	      2553	80000704	00000013	addi	x0,x0,0	  x0:0x00000000
       25555000	      2554	80000708	fe5fffef	jal	x31,80000708	 x31=0x80000708
       25565000	      2555	00000000	00000013	addi	x0,x0,0	  x0:0x00000000
       25575000	      2556	800006e8	00000013	addi	x0,x0,0	  x0:0x00000000
       25585000	      2557	800006ec	020000ef	jal	x1,800006ec	  x1=0x800006ec
       25595000	      2558	00000000	00000013	addi	x0,x0,0	  x0:0x00000000
       25605000	      2559	80000708	00000013	addi	x0,x0,0	  x0:0x00000000
       25615000	      2560	8000070c	fcdff0ef	jal	x1,8000070c	  x1=0x8000070c
       25625000	      2561	00000000	00000013	addi	x0,x0,0	  x0:0x00000000
       25635000	      2562	800006d4	00000013	addi	x0,x0,0	  x0:0x00000000
       25645000	      2563	800006d8	018000ef	jal	x1,800006d8	  x1=0x800006d8
       25655000	      2564	00000000	00000013	addi	x0,x0,0	  x0:0x00000000
       25665000	      2565	800006ec	00000013	addi	x0,x0,0	  x0:0x00000000
       25675000	      2566	800006f0	fedff0ef	jal	x1,800006f0	  x1=0x800006f0
       25685000	      2567	00000000	00000013	addi	x0,x0,0	  x0:0x00000000
       25695000	      2568	800006d8	00000013	addi	x0,x0,0	  x0:0x00000000
       25705000	      2569	800006dc	ff1ff0ef	jal	x1,800006dc	  x1=0x800006dc
       25715000	      2570	00000000	00000013	addi	x0,x0,0	  x0:0x00000000
       25725000	      2571	800006c8	00000013	addi	x0,x0,0	  x0:0x00000000
       25735000	      2572	800006cc	044000ef	jal	x1,800006cc	  x1=0x800006cc
       25745000	      2573	00000000	00000013	addi	x0,x0,0	  x0:0x00000000
       25755000	      2574	8000070c	00000013	addi	x0,x0,0	  x0:0x00000000
       25765000	      2575	80000710	0de7e637	lui	x12,0xde7e	 x12=0x0de7e000
       25775000	      2576	80000714	03800f6f	jal	x30,80000714	 x30=0x80000714
       25785000	      2577	00000000	00000013	addi	x0,x0,0	  x0:0x00000000
       25795000	      2578	80000748	00000013	addi	x0,x0,0	  x0:0x00000000
       25805000	      2579	8000074c	fe9ff0ef	jal	x1,8000074c	  x1=0x8000074c
       25815000	      2580	00000000	00000013	addi	x0,x0,0	  x0:0x00000000
       25825000	      2581	80000730	00000013	addi	x0,x0,0	  x0:0x00000000
       25835000	      2582	80000734	fedff0ef	jal	x1,80000734	  x1=0x80000734
       25845000	      2583	00000000	00000013	addi	x0,x0,0	  x0:0x00000000
       25855000	      2584	8000071c	00000013	addi	x0,x0,0	  x0:0x00000000
       25865000	      2585	80000720	06000e6f	jal	x28,80000720	 x28=0x80000720
       25875000	      2586	00000000	00000013	addi	x0,x0,0	  x0:0x00000000
       25885000	      2587	8000077c	00000013	addi	x0,x0,0	  x0:0x00000000
       25895000	      2588	80000780	fd9ffe6f	jal	x28,80000780	 x28=0x80000780
       25905000	      2589	00000000	00000013	addi	x0,x0,0	  x0:0x00000000
       25915000	      2590	80000754	00000013	addi	x0,x0,0	  x0:0x00000000
       25925000	      2591	80000758	024000ef	jal	x1,80000758	  x1=0x80000758
       25935000	      2592	00000000	00000013	addi	x0,x0,0	  x0:0x00000000
       25945000	      2593	80000778	00000013	addi	x0,x0,0	  x0:0x00000000
       25955000	      2594	8000077c	0080036f	jal	x6,8000077c	  x6=0x8000077c
       25965000	      2595	00000000	00000013	addi	x0,x0,0	  x0:0x00000000
       25975000	      2596	80000780	00000013	addi	x0,x0,0	  x0:0x00000000
       25985000	      2597	80000784	ff5ff36f	jal	x6,80000784	  x6=0x80000784
       25995000	      2598	00000000	00000013	addi	x0,x0,0	  x0:0x00000000
       26005000	      2599	80000774	00000013	addi	x0,x0,0	  x0:0x00000000
       26015000	      2600	80000778	fa5ff0ef	jal	x1,80000778	  x1=0x80000778
       26025000	      2601	00000000	00000013	addi	x0,x0,0	  x0:0x00000000
       26035000	      2602	80000718	00000013	addi	x0,x0,0	  x0:0x00000000
       26045000	      2603	8000071c	0100076f	jal	x14,8000071c	 x14=0x8000071c
       26055000	      2604	00000000	00000013	addi	x0,x0,0	  x0:0x00000000
       26065000	      2605	80000728	00000013	addi	x0,x0,0	  x0:0x00000000
       26075000	      2606	8000072c	034000ef	jal	x1,8000072c	  x1=0x8000072c
       26085000	      2607	00000000	00000013	addi	x0,x0,0	  x0:0x00000000
       26095000	      2608	8000075c	00000013	addi	x0,x0,0	  x0:0x00000000
       26105000	      2609	80000760	008000ef	jal	x1,80000760	  x1=0x80000760
       26115000	      2610	00000000	00000013	addi	x0,x0,0	  x0:0x00000000
       26125000	      2611	80000764	00000013	addi	x0,x0,0	  x0:0x00000000
       26135000	      2612	80000768	fb1ff36f	jal	x6,80000768	  x6=0x80000768
       26145000	      2613	00000000	00000013	addi	x0,x0,0	  x0:0x00000000
       26155000	      2614	80000714	00000013	addi	x0,x0,0	  x0:0x00000000
       26165000	      2615	80000718	00c000ef	jal	x1,80000718	  x1=0x80000718
       26175000	      2616	00000000	00000013	addi	x0,x0,0	  x0:0x00000000
       26185000	      2617	80000720	00000013	addi	x0,x0,0	  x0:0x00000000
       26195000	      2618	80000724	01c003ef	jal	x7,80000724	  x7=0x80000724
       26205000	      2619	00000000	00000013	addi	x0,x0,0	  x0:0x00000000
       26215000	      2620	8000073c	00000013	addi	x0,x0,0	  x0:0x00000000
       26225000	      2621	80000740	0140036f	jal	x6,80000740	  x6=0x80000740
       26235000	      2622	00000000	00000013	addi	x0,x0,0	  x0:0x00000000
       26245000	      2623	80000750	00000013	addi	x0,x0,0	  x0:0x00000000
       26255000	      2624	80000754	fe5ff0ef	jal	x1,80000754	  x1=0x80000754
       26265000	      2625	00000000	00000013	addi	x0,x0,0	  x0:0x00000000
       26275000	      2626	80000734	00000013	addi	x0,x0,0	  x0:0x00000000
       26285000	      2627	80000738	03c0036f	jal	x6,80000738	  x6=0x80000738
       26295000	      2628	00000000	00000013	addi	x0,x0,0	  x0:0x00000000
       26305000	      2629	80000770	00000013	addi	x0,x0,0	  x0:0x00000000
       26315000	      2630	80000774	ffdff0ef	jal	x1,80000774	  x1=0x80000774
       26325000	      2631	00000000	00000013	addi	x0,x0,0	  x0:0x00000000
       26335000	      2632	8000076c	00000013	addi	x0,x0,0	  x0:0x00000000
       26345000	      2633	80000770	fcdff0ef	jal	x1,80000770	  x1=0x80000770
       26355000	      2634	00000000	00000013	addi	x0,x0,0	  x0:0x00000000
       26365000	      2635	80000738	00000013	addi	x0,x0,0	  x0:0x00000000
       26375000	      2636	8000073c	00c000ef	jal	x1,8000073c	  x1=0x8000073c
       26385000	      2637	00000000	00000013	addi	x0,x0,0	  x0:0x00000000
       26395000	      2638	80000744	00000013	addi	x0,x0,0	  x0:0x00000000
       26405000	      2639	80000748	fe9ff0ef	jal	x1,80000748	  x1=0x80000748
       26415000	      2640	00000000	00000013	addi	x0,x0,0	  x0:0x00000000
       26425000	      2641	8000072c	00000013	addi	x0,x0,0	  x0:0x00000000
       26435000	      2642	80000730	014000ef	jal	x1,80000730	  x1=0x80000730
       26445000	      2643	00000000	00000013	addi	x0,x0,0	  x0:0x00000000
       26455000	      2644	80000740	00000013	addi	x0,x0,0	  x0:0x00000000
       26465000	      2645	80000744	028000ef	jal	x1,80000744	  x1=0x80000744
       26475000	      2646	00000000	00000013	addi	x0,x0,0	  x0:0x00000000
       26485000	      2647	80000768	00000013	addi	x0,x0,0	  x0:0x00000000
       26495000	      2648	8000076c	fbdff2ef	jal	x5,8000076c	  x5=0x8000076c
       26505000	      2649	00000000	00000013	addi	x0,x0,0	  x0:0x00000000
       26515000	      2650	80000724	00000013	addi	x0,x0,0	  x0:0x00000000
       26525000	      2651	80000728	034000ef	jal	x1,80000728	  x1=0x80000728
       26535000	      2652	00000000	00000013	addi	x0,x0,0	  x0:0x00000000
       26545000	      2653	80000758	00000013	addi	x0,x0,0	  x0:0x00000000
       26555000	      2654	8000075c	02c000ef	jal	x1,8000075c	  x1=0x8000075c
       26565000	      2655	00000000	00000013	addi	x0,x0,0	  x0:0x00000000
       26575000	      2656	80000784	00000013	addi	x0,x0,0	  x0:0x00000000
       26585000	      2657	80000788	fddff0ef	jal	x1,80000788	  x1=0x80000788
       26595000	      2658	00000000	00000013	addi	x0,x0,0	  x0:0x00000000
       26605000	      2659	80000760	00000013	addi	x0,x0,0	  x0:0x00000000
       26615000	      2660	80000764	fedff0ef	jal	x1,80000764	  x1=0x80000764
       26625000	      2661	00000000	00000013	addi	x0,x0,0	  x0:0x00000000
       26635000	      2662	8000074c	00000013	addi	x0,x0,0	  x0:0x00000000
       26645000	      2663	80000750	03c008ef	jal	x17,80000750	 x17=0x80000750
       26655000	      2664	00000000	00000013	addi	x0,x0,0	  x0:0x00000000
       26665000	      2665	80000788	00000013	addi	x0,x0,0	  x0:0x00000000
       26675000	      2666	8000078c	0172c633	xor	x12,x5,x23	  x5:0x8000076c x23:0x800004b8 x12=0x000003d4
       26685000	      2667	80000790	03c00f6f	jal	x30,80000790	 x30=0x80000790
       26695000	      2668	00000000	00000013	addi	x0,x0,0	  x0:0x00000000
       26705000	      2669	800007c8	00000013	addi	x0,x0,0	  x0:0x00000000
       26715000	      2670	800007cc	ff9ff36f	jal	x6,800007cc	  x6=0x800007cc
       26725000	      2671	00000000	00000013	addi	x0,x0,0	  x0:0x00000000
       26735000	      2672	800007c0	00000013	addi	x0,x0,0	  x0:0x00000000
       26745000	      2673	800007c4	0040036f	jal	x6,800007c4	  x6=0x800007c4
       26755000	      2674	00000000	00000013	addi	x0,x0,0	  x0:0x00000000
       26765000	      2675	800007c4	00000013	addi	x0,x0,0	  x0:0x00000000
       26775000	      2676	800007c8	014006ef	jal	x13,800007c8	 x13=0x800007c8
       26785000	      2677	00000000	00000013	addi	x0,x0,0	  x0:0x00000000
       26795000	      2678	800007d8	00000013	addi	x0,x0,0	  x0:0x00000000
       26805000	      2679	800007dc	ff9ff0ef	jal	x1,800007dc	  x1=0x800007dc
       26815000	      2680	00000000	00000013	addi	x0,x0,0	  x0:0x00000000
       26825000	      2681	800007d0	00000013	addi	x0,x0,0	  x0:0x00000000
       26835000	      2682	800007d4	fe1ff0ef	jal	x1,800007d4	  x1=0x800007d4
       26845000	      2683	00000000	00000013	addi	x0,x0,0	  x0:0x00000000
       26855000	      2684	800007b0	00000013	addi	x0,x0,0	  x0:0x00000000
       26865000	      2685	800007b4	fe5ff0ef	jal	x1,800007b4	  x1=0x800007b4
       26875000	      2686	00000000	00000013	addi	x0,x0,0	  x0:0x00000000
       26885000	      2687	80000794	00000013	addi	x0,x0,0	  x0:0x00000000
       26895000	      2688	80000798	0400036f	jal	x6,80000798	  x6=0x80000798
       26905000	      2689	00000000	00000013	addi	x0,x0,0	  x0:0x00000000
       26915000	      2690	800007d4	00000013	addi	x0,x0,0	  x0:0x00000000
       26925000	      2691	800007d8	fc9ff36f	jal	x6,800007d8	  x6=0x800007d8
       26935000	      2692	00000000	00000013	addi	x0,x0,0	  x0:0x00000000
       26945000	      2693	8000079c	00000013	addi	x0,x0,0	  x0:0x00000000
       26955000	      2694	800007a0	0180036f	jal	x6,800007a0	  x6=0x800007a0
       26965000	      2695	00000000	00000013	addi	x0,x0,0	  x0:0x00000000
       26975000	      2696	800007b4	00000013	addi	x0,x0,0	  x0:0x00000000
       26985000	      2697	800007b8	fddff0ef	jal	x1,800007b8	  x1=0x800007b8
       26995000	      2698	00000000	00000013	addi	x0,x0,0	  x0:0x00000000
       27005000	      2699	80000790	00000013	addi	x0,x0,0	  x0:0x00000000
       27015000	      2700	80000794	0100026f	jal	x4,80000794	  x4=0x80000794
       27025000	      2701	00000000	00000013	addi	x0,x0,0	  x0:0x00000000
       27035000	      2702	800007a0	00000013	addi	x0,x0,0	  x0:0x00000000
       27045000	      2703	800007a4	018000ef	jal	x1,800007a4	  x1=0x800007a4
       27055000	      2704	00000000	00000013	addi	x0,x0,0	  x0:0x00000000
       27065000	      2705	800007b8	00000013	addi	x0,x0,0	  x0:0x00000000
       27075000	      2706	800007bc	014000ef	jal	x1,800007bc	  x1=0x800007bc
       27085000	      2707	00000000	00000013	addi	x0,x0,0	  x0:0x00000000
       27095000	      2708	800007cc	00000013	addi	x0,x0,0	  x0:0x00000000
       27105000	      2709	800007d0	ff1ff36f	jal	x6,800007d0	  x6=0x800007d0
       27115000	      2710	00000000	00000013	addi	x0,x0,0	  x0:0x00000000
       27125000	      2711	800007bc	00000013	addi	x0,x0,0	  x0:0x00000000
       27135000	      2712	800007c0	ff1ff0ef	jal	x1,800007c0	  x1=0x800007c0
       27145000	      2713	00000000	00000013	addi	x0,x0,0	  x0:0x00000000
       27155000	      2714	800007ac	00000013	addi	x0,x0,0	  x0:0x00000000
       27165000	      2715	800007b0	ff9ff0ef	jal	x1,800007b0	  x1=0x800007b0
       27175000	      2716	00000000	00000013	addi	x0,x0,0	  x0:0x00000000
       27185000	      2717	800007a4	00000013	addi	x0,x0,0	  x0:0x00000000
       27195000	      2718	800007a8	0040036f	jal	x6,800007a8	  x6=0x800007a8
       27205000	      2719	00000000	00000013	addi	x0,x0,0	  x0:0x00000000
       27215000	      2720	800007a8	00000013	addi	x0,x0,0	  x0:0x00000000
       27225000	      2721	800007ac	ff1ff36f	jal	x6,800007ac	  x6=0x800007ac
       27235000	      2722	00000000	00000013	addi	x0,x0,0	  x0:0x00000000
       27245000	      2723	80000798	00000013	addi	x0,x0,0	  x0:0x00000000
       27255000	      2724	8000079c	04400cef	jal	x25,8000079c	 x25=0x8000079c
       27265000	      2725	00000000	00000013	addi	x0,x0,0	  x0:0x00000000
       27275000	      2726	800007dc	00000013	addi	x0,x0,0	  x0:0x00000000
       27285000	      2727	800007e0	84963d13	sltiu	x26,x12,-1975	 x12:0x000003d4 x26=0x00000001
       27295000	      2728	800007e4	00bf4d33	xor	x26,x30,x11	 x30:0x80000790 x11:0x80000614 x26=0x00000184
       27305000	      2729	800007e8	00c432b3	sltu	x5,x8,x12	  x8:0x80000654 x12:0x000003d4  x5=0x00000000
       27315000	      2730	800007ec	01c38a63	beq	x7,x28,80000800	  x7:0x80000724 x28:0x80000780
       27325000	      2731	800007f0	00000013	addi	x0,x0,0	  x0:0x00000000
       27335000	      2732	800007f4	00665e17	auipc	x28,0x665	 x28=0x806657f0
       27345000	      2733	800007f8	40db5193	srai	x3,x22,0xd	 x22:0x80009fc4  x3=0xfffc0004
       27355000	      2734	800007fc	0103eab3	or	x21,x7,x16	  x7:0x80000724 x16:0x80000484 x21=0x800007a4
       27365000	      2735	80000800	048e6663	bltu	x28,x8,8000084c	 x28:0x806657f0  x8:0x80000654
       27375000	      2736	80000804	000bf7b3	and	x15,x23,x0	 x23:0x800004b8  x0:0x00000000 x15=0x00000000
       27385000	      2737	80000808	00000013	addi	x0,x0,0	  x0:0x00000000
       27395000	      2738	8000080c	dc8b6113	ori	x2,x22,-568	 x22:0x80009fc4  x2=0xffffffcc
       27405000	      2739	80000810	40965233	sra	x4,x12,x9	 x12:0x000003d4  x9:0x800005e8  x4=0x00000003
       27415000	      2740	80000814	a87bc593	xori	x11,x23,-1401	 x23:0x800004b8 x11=0x7ffffe3f
       27425000	      2741	80000818	01aec5b3	xor	x11,x29,x26	 x29:0x961d6d50 x26:0x00000184 x11=0x961d6cd4
       27435000	      2742	8000081c	01ab2ab3	slt	x21,x22,x26	 x22:0x80009fc4 x26:0x00000184 x21=0x00000001
       27445000	      2743	80000820	00b6d033	srl	x0,x13,x11	 x13:0x800007c8 x11:0x961d6cd4
       27455000	      2744	80000824	869d6793	ori	x15,x26,-1943	 x26:0x00000184 x15=0xfffff9ed
       27465000	      2745	80000828	02fe6463	bltu	x28,x15,80000850	 x28:0x806657f0 x15:0xfffff9ed
       27475000	      2746	00000000	00000013	addi	x0,x0,0	  x0:0x00000000
       27485000	      2747	8000084c	00000013	addi	x0,x0,0	  x0:0x00000000
       27495000	      2748	80000850	1094f793	andi	x15,x9,265	  x9:0x800005e8 x15=0x00000108
       27505000	      2749	80000854	012557b3	srl	x15,x10,x18	 x10:0xffffff84 x18:0x80009ee4 x15=0x0ffffff8
       27515000	      2750	80000858	01ba2a33	slt	x20,x20,x27	 x20:0x80000460 x27:0x80000494 x20=0x00000001
       27525000	      2751	8000085c	83043713	sltiu	x14,x8,-2000	  x8:0x80000654 x14=0x00000001
       27535000	      2752	80000860	04239463	bne	x7,x2,800008a8	  x7:0x80000724  x2:0xffffffcc
       27545000	      2753	00000000	00000013	addi	x0,x0,0	  x0:0x00000000
       27555000	      2754	800008a4	00000013	addi	x0,x0,0	  x0:0x00000000
       27565000	      2755	800008a8	00e81313	slli	x6,x16,0xe	 x16:0x80000484  x6=0x01210000
       27575000	      2756	800008ac	01b26533	or	x10,x4,x27	  x4:0x00000003 x27:0x80000494 x10=0x80000497
       27585000	      2757	800008b0	03adc863	blt	x27,x26,800008e0	 x27:0x80000494 x26:0x00000184
       27595000	      2758	00000000	00000013	addi	x0,x0,0	  x0:0x00000000
       27605000	      2759	800008dc	00000013	addi	x0,x0,0	  x0:0x00000000
       27615000	      2760	800008e0	041a5463	bge	x20,x1,80000928	 x20:0x00000001  x1:0x800007b0
       27625000	      2761	00000000	00000013	addi	x0,x0,0	  x0:0x00000000
       27635000	      2762	80000924	00000013	addi	x0,x0,0	  x0:0x00000000
       27645000	      2763	80000928	01eb6d33	or	x26,x22,x30	 x22:0x80009fc4 x30:0x80000790 x26=0x80009fd4
       27655000	      2764	8000092c	40220833	sub	x16,x4,x2	  x4:0x00000003  x2:0xffffffcc x16=0x00000037
       27665000	      2765	80000930	000bb7b3	sltu	x15,x23,x0	 x23:0x800004b8  x0:0x00000000 x15=0x00000000
       27675000	      2766	80000934	01297c63	bgeu	x18,x18,8000094c	 x18:0x80009ee4 x18:0x80009ee4
       27685000	      2767	00000000	00000013	addi	x0,x0,0	  x0:0x00000000
       27695000	      2768	80000948	00000013	addi	x0,x0,0	  x0:0x00000000
       27705000	      2769	8000094c	af8a2b93	slti	x23,x20,-1288	 x20:0x00000001 x23=0x00000000
       27715000	      2770	80000950	0046feb3	and	x29,x13,x4	 x13:0x800007c8  x4:0x00000003 x29=0x00000000
       27725000	      2771	80000954	402d8633	sub	x12,x27,x2	 x27:0x80000494  x2:0xffffffcc x12=0x800004c8
       27735000	      2772	80000958	010a04b3	add	x9,x20,x16	 x20:0x00000001 x16:0x00000037  x9=0x00000038
       27745000	      2773	8000095c	9f143213	sltiu	x4,x8,-1551	  x8:0x80000654  x4=0x00000001
       27755000	      2774	80000960	015f19b3	sll	x19,x30,x21	 x30:0x80000790 x21:0x00000001 x19=0x00000f20
       27765000	      2775	80000964	4172de93	srai	x29,x5,0x17	  x5:0x00000000 x29=0x00000000
       27775000	      2776	80000968	00a256b3	srl	x13,x4,x10	  x4:0x00000001 x10:0x80000497 x13=0x00000000
       27785000	      2777	8000096c	41955d33	sra	x26,x10,x25	 x10:0x80000497 x25:0x8000079c x26=0xfffffff8
       27795000	      2778	80000970	e2c93213	sltiu	x4,x18,-468	 x18:0x80009ee4  x4=0x00000001
       27805000	      2779	80000974	03381463	bne	x16,x19,8000099c	 x16:0x00000037 x19:0x00000f20
       27815000	      2780	00000000	00000013	addi	x0,x0,0	  x0:0x00000000
       27825000	      2781	80000998	00000013	addi	x0,x0,0	  x0:0x00000000
       27835000	      2782	8000099c	e1b7c213	xori	x4,x15,-485	 x15:0x00000000  x4=0xfffffe1b
       27845000	      2783	800009a0	02a9d663	bge	x19,x10,800009cc	 x19:0x00000f20 x10:0x80000497
       27855000	      2784	00000000	00000013	addi	x0,x0,0	  x0:0x00000000
       27865000	      2785	800009c8	00000013	addi	x0,x0,0	  x0:0x00000000
       27875000	      2786	800009cc	009315b3	sll	x11,x6,x9	  x6:0x01210000  x9:0x00000038 x11=0x00000000
       27885000	      2787	800009d0	0179bf33	sltu	x30,x19,x23	 x19:0x00000f20 x23:0x00000000 x30=0x00000000
       27895000	      2788	800009d4	fce97cb7	lui	x25,0xfce97	 x25=0xfce97000
       27905000	      2789	800009d8	048a7263	bgeu	x20,x8,80000a1c	 x20:0x00000001  x8:0x80000654
       27915000	      2790	800009dc	0049c8b3	xor	x17,x19,x4	 x19:0x00000f20  x4:0xfffffe1b x17=0xfffff13b
       27925000	      2791	800009e0	05806463	bltu	x0,x24,80000a28	  x0:0x00000000 x24:0xfebf7031
       27935000	      2792	00000000	00000013	addi	x0,x0,0	  x0:0x00000000
       27945000	      2793	80000a24	00000013	addi	x0,x0,0	  x0:0x00000000
       27955000	      2794	80000a28	003d0e33	add	x28,x26,x3	 x26:0xfffffff8  x3:0xfffc0004 x28=0xfffbfffc
       27965000	      2795	80000a2c	ad15e713	ori	x14,x11,-1327	 x11:0x00000000 x14=0xfffffad1
       27975000	      2796	80000a30	c7d40213	addi	x4,x8,-899	  x8:0x80000654  x4=0x800002d1
       27985000	      2797	80000a34	40afd0b3	sra	x1,x31,x10	 x31:0x80000708 x10:0x80000497  x1=0xffffff00
       27995000	      2798	80000a38	05526037	lui	x0,0x5526	
       28005000	      2799	80000a3c	00000013	addi	x0,x0,0	  x0:0x00000000
       28015000	      2800	80000a40	0019f3b3	and	x7,x19,x1	 x19:0x00000f20  x1:0xffffff00  x7=0x00000f00
       28025000	      2801	80000a44	78858bb7	lui	x23,0x78858	 x23=0x78858000
       28035000	      2802	80000a48	06d5ae13	slti	x28,x11,109	 x11:0x00000000 x28=0x00000001
       28045000	      2803	80000a4c	01fc2fb3	slt	x31,x24,x31	 x24:0xfebf7031 x31:0x80000708 x31=0x00000000
       28055000	      2804	80000a50	03af6263	bltu	x30,x26,80000a74	 x30:0x00000000 x26:0xfffffff8
       28065000	      2805	00000000	00000013	addi	x0,x0,0	  x0:0x00000000
       28075000	      2806	80000a70	00000013	addi	x0,x0,0	  x0:0x00000000
       28085000	      2807	80000a74	e6022e93	slti	x29,x4,-416	  x4:0x800002d1 x29=0x00000001
       28095000	      2808	80000a78	02beee63	bltu	x29,x11,80000ab4	 x29:0x00000001 x11:0x00000000
       28105000	      2809	80000a7c	37bc7193	andi	x3,x24,891	 x24:0xfebf7031  x3=0x00000031
       28115000	      2810	80000a80	011d5a13	srli	x20,x26,0x11	 x26:0xfffffff8 x20=0x00007fff
       28125000	      2811	80000a84	0149ceb3	xor	x29,x19,x20	 x19:0x00000f20 x20:0x00007fff x29=0x000070df
       28135000	      2812	80000a88	051c0d17	auipc	x26,0x51c0	 x26=0x851c0a84
       28145000	      2813	80000a8c	40945d93	srai	x27,x8,0x9	  x8:0x80000654 x27=0xffc00003
       28155000	      2814	80000a90	41ff0f33	sub	x30,x30,x31	 x30:0x00000000 x31:0x00000000 x30=0x00000000
       28165000	      2815	80000a94	0105e463	bltu	x11,x16,80000a9c	 x11:0x00000000 x16:0x00000037
       28175000	      2816	00000000	00000013	addi	x0,x0,0	  x0:0x00000000
       28185000	      2817	80000a98	00000013	addi	x0,x0,0	  x0:0x00000000
       28195000	      2818	80000a9c	54500493	addi	x9,x0,1349	  x0:0x00000000  x9=0x00000545
       28205000	      2819	80000aa0	00980f33	add	x30,x16,x9	 x16:0x00000037  x9:0x00000545 x30=0x0000057c
       28215000	      2820	80000aa4	02c55463	bge	x10,x12,80000acc	 x10:0x80000497 x12:0x800004c8
       28225000	      2821	80000aa8	f2a4efb7	lui	x31,0xf2a4e	 x31=0xf2a4e000
       28235000	      2822	80000aac	7c3ee137	lui	x2,0x7c3ee	  x2=0x7c3ee000
       28245000	      2823	80000ab0	00022d33	slt	x26,x4,x0	  x4:0x800002d1  x0:0x00000000 x26=0x00000001
       28255000	      2824	80000ab4	04629063	bne	x5,x6,80000af4	  x5:0x00000000  x6:0x01210000
       28265000	      2825	00000000	00000013	addi	x0,x0,0	  x0:0x00000000
       28275000	      2826	80000af0	00000013	addi	x0,x0,0	  x0:0x00000000
       28285000	      2827	80000af4	40b55ab3	sra	x21,x10,x11	 x10:0x80000497 x11:0x00000000 x21=0x80000497
       28295000	      2828	80000af8	406708b3	sub	x17,x14,x6	 x14:0xfffffad1  x6:0x01210000 x17=0xfedefad1
       28305000	      2829	80000afc	419a5733	sra	x14,x20,x25	 x20:0x00007fff x25:0xfce97000 x14=0x00007fff
       28315000	      2830	80000b00	99f46013	ori	x0,x8,-1633	  x8:0x80000654
       28325000	      2831	80000b04	00000013	addi	x0,x0,0	  x0:0x00000000
       28335000	      2832	80000b08	00b7f533	and	x10,x15,x11	 x15:0x00000000 x11:0x00000000 x10=0x00000000
       28345000	      2833	80000b0c	005c30b3	sltu	x1,x24,x5	 x24:0xfebf7031  x5:0x00000000  x1=0x00000000
       28355000	      2834	80000b10	083cab93	slti	x23,x25,131	 x25:0xfce97000 x23=0x00000001
       28365000	      2835	80000b14	015fc233	xor	x4,x31,x21	 x31:0xf2a4e000 x21:0x80000497  x4=0x72a4e497
       28375000	      2836	80000b18	00fa1993	slli	x19,x20,0xf	 x20:0x00007fff x19=0x3fff8000
       28385000	      2837	80000b1c	003fa233	slt	x4,x31,x3	 x31:0xf2a4e000  x3:0x00000031  x4=0x00000001
       28395000	      2838	80000b20	01557a33	and	x20,x10,x21	 x10:0x00000000 x21:0x80000497 x20=0x00000000
       28405000	      2839	80000b24	00000013	addi	x0,x0,0	  x0:0x00000000
       28415000	      2840	80000b28	006a9d33	sll	x26,x21,x6	 x21:0x80000497  x6:0x01210000 x26=0x80000497
       28425000	      2841	80000b2c	001dce63	blt	x27,x1,80000b48	 x27:0xffc00003  x1:0x00000000
       28435000	      2842	00000000	00000013	addi	x0,x0,0	  x0:0x00000000
       28445000	      2843	80000b44	00000013	addi	x0,x0,0	  x0:0x00000000
       28455000	      2844	80000b48	00f45233	srl	x4,x8,x15	  x8:0x80000654 x15:0x00000000  x4=0x80000654
       28465000	      2845	80000b4c	67f1e1b7	lui	x3,0x67f1e	  x3=0x67f1e000
       28475000	      2846	80000b50	01fbd813	srli	x16,x23,0x1f	 x23:0x00000001 x16=0x00000000
       28485000	      2847	80000b54	00cf0233	add	x4,x30,x12	 x30:0x0000057c x12:0x800004c8  x4=0x80000a44
       28495000	      2848	80000b58	f72c6893	ori	x17,x24,-142	 x24:0xfebf7031 x17=0xffffff73
       28505000	      2849	80000b5c	bd8c7f13	andi	x30,x24,-1064	 x24:0xfebf7031 x30=0xfebf7010
       28515000	      2850	80000b60	ddef4393	xori	x7,x30,-546	 x30:0xfebf7010  x7=0x01408dce
       28525000	      2851	80000b64	00c56433	or	x8,x10,x12	 x10:0x00000000 x12:0x800004c8  x8=0x800004c8
       28535000	      2852	80000b68	768e8d13	addi	x26,x29,1896	 x29:0x000070df x26=0x00007847
       28545000	      2853	80000b6c	04349463	bne	x9,x3,80000bb4	  x9:0x00000545  x3:0x67f1e000
       28555000	      2854	00000000	00000013	addi	x0,x0,0	  x0:0x00000000
       28565000	      2855	80000bb0	00000013	addi	x0,x0,0	  x0:0x00000000
       28575000	      2856	80000bb4	02589063	bne	x17,x5,80000bd4	 x17:0xffffff73  x5:0x00000000
       28585000	      2857	00000000	00000013	addi	x0,x0,0	  x0:0x00000000
       28595000	      2858	80000bd0	00000013	addi	x0,x0,0	  x0:0x00000000
       28605000	      2859	80000bd4	007fec63	bltu	x31,x7,80000bec	 x31:0xf2a4e000  x7:0x01408dce
       28615000	      2860	80000bd8	07880437	lui	x8,0x7880	  x8=0x07880000
       28625000	      2861	80000bdc	40058033	sub	x0,x11,x0	 x11:0x00000000  x0:0x00000000
       28635000	      2862	80000be0	0562c463	blt	x5,x22,80000c28	  x5:0x00000000 x22:0x80009fc4
       28645000	      2863	80000be4	9c718713	addi	x14,x3,-1593	  x3:0x67f1e000 x14=0x67f1d9c7
       28655000	      2864	80000be8	01768f33	add	x30,x13,x23	 x13:0x00000000 x23:0x00000001 x30=0x00000001
       28665000	      2865	80000bec	41b9d133	sra	x2,x19,x27	 x19:0x3fff8000 x27:0xffc00003  x2=0x07fff000
       28675000	      2866	80000bf0	01dd9313	slli	x6,x27,0x1d	 x27:0xffc00003  x6=0x60000000
       28685000	      2867	80000bf4	002d54b3	srl	x9,x26,x2	 x26:0x00007847  x2:0x07fff000  x9=0x00007847
       28695000	      2868	80000bf8	01804433	xor	x8,x0,x24	  x0:0x00000000 x24:0xfebf7031  x8=0xfebf7031
       28705000	      2869	80000bfc	00000013	addi	x0,x0,0	  x0:0x00000000
       28715000	      2870	80000c00	4195d3b3	sra	x7,x11,x25	 x11:0x00000000 x25:0xfce97000  x7=0x00000000
       28725000	      2871	80000c04	417bd593	srai	x11,x23,0x17	 x23:0x00000001 x11=0x00000000
       28735000	      2872	80000c08	019b1eb3	sll	x29,x22,x25	 x22:0x80009fc4 x25:0xfce97000 x29=0x80009fc4
       28745000	      2873	80000c0c	405684b3	sub	x9,x13,x5	 x13:0x00000000  x5:0x00000000  x9=0x00000000
       28755000	      2874	80000c10	004aef33	or	x30,x21,x4	 x21:0x80000497  x4:0x80000a44 x30=0x80000ed7
       28765000	      2875	80000c14	40150f33	sub	x30,x10,x1	 x10:0x00000000  x1:0x00000000 x30=0x00000000
       28775000	      2876	80000c18	00000013	addi	x0,x0,0	  x0:0x00000000
       28785000	      2877	80000c1c	00934833	xor	x16,x6,x9	  x6:0x60000000  x9:0x00000000 x16=0x60000000
       28795000	      2878	80000c20	01f90fb3	add	x31,x18,x31	 x18:0x80009ee4 x31:0xf2a4e000 x31=0x72a57ee4
       28805000	      2879	80000c24	01451193	slli	x3,x10,0x14	 x10:0x00000000  x3=0x00000000
       28815000	      2880	80000c28	26f9b293	sltiu	x5,x19,623	 x19:0x3fff8000  x5=0x00000000
       28825000	      2881	80000c2c	02159463	bne	x11,x1,80000c54	 x11:0x00000000  x1:0x00000000
       28835000	      2882	80000c30	307d7b93	andi	x23,x26,775	 x26:0x00007847 x23=0x00000007
       28845000	      2883	80000c34	9e08a093	slti	x1,x17,-1568	 x17:0xffffff73  x1=0x00000000
       28855000	      2884	80000c38	00bcddb3	srl	x27,x25,x11	 x25:0xfce97000 x11:0x00000000 x27=0xfce97000
       28865000	      2885	80000c3c	01b4c9b3	xor	x19,x9,x27	  x9:0x00000000 x27:0xfce97000 x19=0xfce97000
       28875000	      2886	80000c40	0144a233	slt	x4,x9,x20	  x9:0x00000000 x20:0x00000000  x4=0x00000000
       28885000	      2887	80000c44	00000013	addi	x0,x0,0	  x0:0x00000000
       28895000	      2888	80000c48	4f2fb413	sltiu	x8,x31,1266	 x31:0x72a57ee4  x8=0x00000000
       28905000	      2889	80000c4c	f43de313	ori	x6,x27,-189	 x27:0xfce97000  x6=0xffffff43
       28915000	      2890	80000c50	00000013	addi	x0,x0,0	  x0:0x00000000
       28925000	      2891	80000c54	04e29463	bne	x5,x14,80000c9c	  x5:0x00000000 x14:0x67f1d9c7
       28935000	      2892	00000000	00000013	addi	x0,x0,0	  x0:0x00000000
       28945000	      2893	80000c98	00000013	addi	x0,x0,0	  x0:0x00000000
       28955000	      2894	80000c9c	002116b3	sll	x13,x2,x2	  x2:0x07fff000  x2:0x07fff000 x13=0x07fff000
       28965000	      2895	80000ca0	0333d863	bge	x7,x19,80000cd0	  x7:0x00000000 x19:0xfce97000
       28975000	      2896	00000000	00000013	addi	x0,x0,0	  x0:0x00000000
       28985000	      2897	80000ccc	00000013	addi	x0,x0,0	  x0:0x00000000
       28995000	      2898	80000cd0	fde64a93	xori	x21,x12,-34	 x12:0x800004c8 x21=0x7ffffb16
       29005000	      2899	80000cd4	d2990693	addi	x13,x18,-727	 x18:0x80009ee4 x13=0x80009c0d
       29015000	      2900	80000cd8	018fd213	srli	x4,x31,0x18	 x31:0x72a57ee4  x4=0x00000072
       29025000	      2901	80000cdc	58850493	addi	x9,x10,1416	 x10:0x00000000  x9=0x00000588
       29035000	      2902	80000ce0	7d62e513	ori	x10,x5,2006	  x5:0x00000000 x10=0x000007d6
       29045000	      2903	80000ce4	07148693	addi	x13,x9,113	  x9:0x00000588 x13=0x000005f9
       29055000	      2904	80000ce8	9c714793	xori	x15,x2,-1593	  x2:0x07fff000 x15=0xf80009c7
       29065000	      2905	80000cec	0555d863	bge	x11,x21,80000d3c	 x11:0x00000000 x21:0x7ffffb16
       29075000	      2906	80000cf0	aed8e137	lui	x2,0xaed8e	  x2=0xaed8e000
       29085000	      2907	80000cf4	059af063	bgeu	x21,x25,80000d34	 x21:0x7ffffb16 x25:0xfce97000
       29095000	      2908	80000cf8	00e5bd33	sltu	x26,x11,x14	 x11:0x00000000 x14:0x67f1d9c7 x26=0x00000001
       29105000	      2909	80000cfc	0058f3b3	and	x7,x17,x5	 x17:0xffffff73  x5:0x00000000  x7=0x00000000
       29115000	      2910	80000d00	05cb0663	beq	x22,x28,80000d4c	 x22:0x80009fc4 x28:0x00000001
       29125000	      2911	80000d04	000a3a33	sltu	x20,x20,x0	 x20:0x00000000  x0:0x00000000 x20=0x00000000
       29135000	      2912	80000d08	0192d793	srli	x15,x5,0x19	  x5:0x00000000 x15=0x00000000
       29145000	      2913	80000d0c	00000013	addi	x0,x0,0	  x0:0x00000000
       29155000	      2914	80000d10	01dc12b3	sll	x5,x24,x29	 x24:0xfebf7031 x29:0x80009fc4  x5=0xebf70310
       29165000	      2915	80000d14	005c1fb3	sll	x31,x24,x5	 x24:0xfebf7031  x5:0xebf70310 x31=0x70310000
       29175000	      2916	80000d18	00d8fdb3	and	x27,x17,x13	 x17:0xffffff73 x13:0x000005f9 x27=0x00000571
       29185000	      2917	80000d1c	6cbf0513	addi	x10,x30,1739	 x30:0x00000000 x10=0x000006cb
       29195000	      2918	80000d20	419486b3	sub	x13,x9,x25	  x9:0x00000588 x25:0xfce97000 x13=0x03169588
       29205000	      2919	80000d24	005dc0b3	xor	x1,x27,x5	 x27:0x00000571  x5:0xebf70310  x1=0xebf70661
       29215000	      2920	80000d28	01dd49b3	xor	x19,x26,x29	 x26:0x00000001 x29:0x80009fc4 x19=0x80009fc5
       29225000	      2921	80000d2c	054c5463	bge	x24,x20,80000d74	 x24:0xfebf7031 x20:0x00000000
       29235000	      2922	80000d30	013d4633	xor	x12,x26,x19	 x26:0x00000001 x19:0x80009fc5 x12=0x80009fc4
       29245000	      2923	80000d34	007902b3	add	x5,x18,x7	 x18:0x80009ee4  x7:0x00000000  x5=0x80009ee4
       29255000	      2924	80000d38	0151a133	slt	x2,x3,x21	  x3:0x00000000 x21:0x7ffffb16  x2=0x00000001
       29265000	      2925	80000d3c	a3dec593	xori	x11,x29,-1475	 x29:0x80009fc4 x11=0x7fff65f9
       29275000	      2926	80000d40	5305e897	auipc	x17,0x5305e	 x17=0xd305ed3c
       29285000	      2927	80000d44	01a590b3	sll	x1,x11,x26	 x11:0x7fff65f9 x26:0x00000001  x1=0xfffecbf2
       29295000	      2928	80000d48	0065cab3	xor	x21,x11,x6	 x11:0x7fff65f9  x6:0xffffff43 x21=0x80009aba
       29305000	      2929	80000d4c	40f4d293	srai	x5,x9,0xf	  x9:0x00000588  x5=0x00000000
       29315000	      2930	80000d50	04bfc063	blt	x31,x11,80000d90	 x31:0x70310000 x11:0x7fff65f9
       29325000	      2931	00000000	00000013	addi	x0,x0,0	  x0:0x00000000
       29335000	      2932	80000d8c	00000013	addi	x0,x0,0	  x0:0x00000000
       29345000	      2933	80000d90	9f6ee493	ori	x9,x29,-1546	 x29:0x80009fc4  x9=0xfffffff6
       29355000	      2934	80000d94	40f8db93	srai	x23,x17,0xf	 x17:0xd305ed3c x23=0xffffa60b
       29365000	      2935	80000d98	01d4edb3	or	x27,x9,x29	  x9:0xfffffff6 x29:0x80009fc4 x27=0xfffffff6
       29375000	      2936	80000d9c	cc408793	addi	x15,x1,-828	  x1:0xfffecbf2 x15=0xfffec8b6
       29385000	      2937	80000da0	416cd693	srai	x13,x25,0x16	 x25:0xfce97000 x13=0xfffffff3
       29395000	      2938	80000da4	00e59cb3	sll	x25,x11,x14	 x11:0x7fff65f9 x14:0x67f1d9c7 x25=0xffb2fc80
       29405000	      2939	80000da8	0112b133	sltu	x2,x5,x17	  x5:0x00000000 x17:0xd305ed3c  x2=0x00000001
       29415000	      2940	80000dac	411ad733	sra	x14,x21,x17	 x21:0x80009aba x17:0xd305ed3c x14=0xfffffff8
       29425000	      2941	80000db0	01d99a93	slli	x21,x19,0x1d	 x19:0x80009fc5 x21=0xa0000000
       29435000	      2942	80000db4	01671db3	sll	x27,x14,x22	 x14:0xfffffff8 x22:0x80009fc4 x27=0xffffff80
       29445000	      2943	80000db8	05361663	bne	x12,x19,80000e04	 x12:0x80009fc4 x19:0x80009fc5
       29455000	      2944	00000000	00000013	addi	x0,x0,0	  x0:0x00000000
       29465000	      2945	80000e00	00000013	addi	x0,x0,0	  x0:0x00000000
       29475000	      2946	80000e04	a2b33113	sltiu	x2,x6,-1493	  x6:0xffffff43  x2=0x00000000
       29485000	      2947	80000e08	47230713	addi	x14,x6,1138	  x6:0xffffff43 x14=0x000003b5
       29495000	      2948	80000e0c	04e95063	bge	x18,x14,80000e4c	 x18:0x80009ee4 x14:0x000003b5
       29505000	      2949	80000e10	01c62533	slt	x10,x12,x28	 x12:0x80009fc4 x28:0x00000001 x10=0x00000001
       29515000	      2950	80000e14	0205e463	bltu	x11,x0,80000e3c	 x11:0x7fff65f9  x0:0x00000000
       29525000	      2951	80000e18	13d2a297	auipc	x5,0x13d2a	  x5=0x93d2ae14
       29535000	      2952	80000e1c	01c0fe33	and	x28,x1,x28	  x1:0xfffecbf2 x28:0x00000001 x28=0x00000000
       29545000	      2953	80000e20	00be34b3	sltu	x9,x28,x11	 x28:0x00000000 x11:0x7fff65f9  x9=0x00000001
       29555000	      2954	80000e24	508e2b93	slti	x23,x28,1288	 x28:0x00000000 x23=0x00000001
       29565000	      2955	80000e28	01162f33	slt	x30,x12,x17	 x12:0x80009fc4 x17:0xd305ed3c x30=0x00000001
       29575000	      2956	80000e2c	025ffe63	bgeu	x31,x5,80000e68	 x31:0x70310000  x5:0x93d2ae14
       29585000	      2957	80000e30	00875533	srl	x10,x14,x8	 x14:0x000003b5  x8:0x00000000 x10=0x000003b5
       29595000	      2958	80000e34	00da5433	srl	x8,x20,x13	 x20:0x00000000 x13:0xfffffff3  x8=0x00000000
       29605000	      2959	80000e38	01881693	slli	x13,x16,0x18	 x16:0x60000000 x13=0x00000000
       29615000	      2960	80000e3c	40d45293	srai	x5,x8,0xd	  x8:0x00000000  x5=0x00000000
       29625000	      2961	80000e40	2cef0013	addi	x0,x30,718	 x30:0x00000001
       29635000	      2962	80000e44	04327463	bgeu	x4,x3,80000e8c	  x4:0x00000072  x3:0x00000000
       29645000	      2963	00000000	00000013	addi	x0,x0,0	  x0:0x00000000
       29655000	      2964	80000e88	00000013	addi	x0,x0,0	  x0:0x00000000
       29665000	      2965	80000e8c	00db09b3	add	x19,x22,x13	 x22:0x80009fc4 x13:0x00000000 x19=0x80009fc4
       29675000	      2966	80000e90	01e8a2b3	slt	x5,x17,x30	 x17:0xd305ed3c x30:0x00000001  x5=0x00000001
       29685000	      2967	80000e94	00f25733	srl	x14,x4,x15	  x4:0x00000072 x15:0xfffec8b6 x14=0x00000000
       29695000	      2968	80000e98	40c089b3	sub	x19,x1,x12	  x1:0xfffecbf2 x12:0x80009fc4 x19=0x7ffe2c2e
       29705000	      2969	80000e9c	de5c5c97	auipc	x25,0xde5c5	 x25=0x5e5c5e98
       29715000	      2970	80000ea0	0af48263	beq	x9,x15,80000f44	  x9:0x00000001 x15:0xfffec8b6
       29725000	      2971	80000ea4	080c1063	bne	x24,x0,80000f24	 x24:0xfebf7031  x0:0x00000000
       29735000	      2972	00000000	00000013	addi	x0,x0,0	  x0:0x00000000
       29745000	      2973	80000f20	00000013	addi	x0,x0,0	  x0:0x00000000
       29755000	      2974	80000f24	00234f33	xor	x30,x6,x2	  x6:0xffffff43  x2:0x00000000 x30=0xffffff43
       29765000	      2975	80000f28	04e54663	blt	x10,x14,80000f74	 x10:0x000003b5 x14:0x00000000
       29775000	      2976	80000f2c	0064ff33	and	x30,x9,x6	  x9:0x00000001  x6:0xffffff43 x30=0x00000001
       29785000	      2977	80000f30	0407c463	blt	x15,x0,80000f78	 x15:0xfffec8b6  x0:0x00000000
       29795000	      2978	00000000	00000013	addi	x0,x0,0	  x0:0x00000000
       29805000	      2979	80000f74	00000013	addi	x0,x0,0	  x0:0x00000000
       29815000	      2980	80000f78	00a36e63	bltu	x6,x10,80000f94	  x6:0xffffff43 x10:0x000003b5
       29825000	      2981	80000f7c	41bc87b3	sub	x15,x25,x27	 x25:0x5e5c5e98 x27:0xffffff80 x15=0x5e5c5f18
       29835000	      2982	80000f80	004a9f93	slli	x31,x21,0x4	 x21:0xa0000000 x31=0x00000000
       29845000	      2983	80000f84	01959213	slli	x4,x11,0x19	 x11:0x7fff65f9  x4=0xf2000000
       29855000	      2984	80000f88	416a51b3	sra	x3,x20,x22	 x20:0x00000000 x22:0x80009fc4  x3=0x00000000
       29865000	      2985	80000f8c	033eca63	blt	x29,x19,80000fc0	 x29:0x80009fc4 x19:0x7ffe2c2e
       29875000	      2986	00000000	00000013	addi	x0,x0,0	  x0:0x00000000
       29885000	      2987	80000fbc	00000013	addi	x0,x0,0	  x0:0x00000000
       29895000	      2988	80000fc0	018b96b3	sll	x13,x23,x24	 x23:0x00000001 x24:0xfebf7031 x13=0x00020000
       29905000	      2989	80000fc4	0274fc63	bgeu	x9,x7,80000ffc	  x9:0x00000001  x7:0x00000000
       29915000	      2990	00000000	00000013	addi	x0,x0,0	  x0:0x00000000
       29925000	      2991	80000ff8	00000013	addi	x0,x0,0	  x0:0x00000000
       29935000	      2992	80000ffc	014736b3	sltu	x13,x14,x20	 x14:0x00000000 x20:0x00000000 x13=0x00000000
       29945000	      2993	80001000	0042d513	srli	x10,x5,0x4	  x5:0x00000001 x10=0x00000000
       29955000	      2994	80001004	00fd3633	sltu	x12,x26,x15	 x26:0x00000001 x15:0x5e5c5f18 x12=0x00000001
       29965000	      2995	80001008	a1885637	lui	x12,0xa1885	 x12=0xa1885000
       29975000	      2996	8000100c	03140863	beq	x8,x17,8000103c	  x8:0x00000000 x17:0xd305ed3c
       29985000	      2997	80001010	05d17063	bgeu	x2,x29,80001050	  x2:0x00000000 x29:0x80009fc4
       29995000	      2998	80001014	02458e63	beq	x11,x4,80001050	 x11:0x7fff65f9  x4:0xf2000000
       30005000	      2999	80001018	01f0cdb3	xor	x27,x1,x31	  x1:0xfffecbf2 x31:0x00000000 x27=0xfffecbf2
       30015000	      3000	8000101c	40d28833	sub	x16,x5,x13	  x5:0x00000001 x13:0x00000000 x16=0x00000001
       30025000	      3001	80001020	02a6f663	bgeu	x13,x10,8000104c	 x13:0x00000000 x10:0x00000000
       30035000	      3002	00000000	00000013	addi	x0,x0,0	  x0:0x00000000
       30045000	      3003	80001048	00000013	addi	x0,x0,0	  x0:0x00000000
       30055000	      3004	8000104c	014b5a13	srli	x20,x22,0x14	 x22:0x80009fc4 x20=0x00000800
       30065000	      3005	80001050	018db3b3	sltu	x7,x27,x24	 x27:0xfffecbf2 x24:0xfebf7031  x7=0x00000000
       30075000	      3006	80001054	e21cc7b7	lui	x15,0xe21cc	 x15=0xe21cc000
       30085000	      3007	80001058	0193f3b3	and	x7,x7,x25	  x7:0x00000000 x25:0x5e5c5e98  x7=0x00000000
       30095000	      3008	8000105c	e996ddb7	lui	x27,0xe996d	 x27=0xe996d000
       30105000	      3009	80001060	04e4e463	bltu	x9,x14,800010a8	  x9:0x00000001 x14:0x00000000
       30115000	      3010	80001064	017ad5b3	srl	x11,x21,x23	 x21:0xa0000000 x23:0x00000001 x11=0x50000000
       30125000	      3011	80001068	001b16b3	sll	x13,x22,x1	 x22:0x80009fc4  x1:0xfffecbf2 x13=0x7f100000
       30135000	      3012	8000106c	01e314b3	sll	x9,x6,x30	  x6:0xffffff43 x30:0x00000001  x9=0xfffffe86
       30145000	      3013	80001070	004f9a13	slli	x20,x31,0x4	 x31:0x00000000 x20=0x00000000
       30155000	      3014	80001074	0026a9b3	slt	x19,x13,x2	 x13:0x7f100000  x2:0x00000000 x19=0x00000000
       30165000	      3015	80001078	4061d313	srai	x6,x3,0x6	  x3:0x00000000  x6=0x00000000
       30175000	      3016	8000107c	0169fe33	and	x28,x19,x22	 x19:0x00000000 x22:0x80009fc4 x28=0x00000000
       30185000	      3017	80001080	00865013	srli	x0,x12,0x8	 x12:0xa1885000
       30195000	      3018	80001084	03ddc463	blt	x27,x29,800010ac	 x27:0xe996d000 x29:0x80009fc4
       30205000	      3019	80001088	40aed813	srai	x16,x29,0xa	 x29:0x80009fc4 x16=0xffe00027
       30215000	      3020	8000108c	008ddfb3	srl	x31,x27,x8	 x27:0xe996d000  x8:0x00000000 x31=0xe996d000
       30225000	      3021	80001090	41fcd733	sra	x14,x25,x31	 x25:0x5e5c5e98 x31:0xe996d000 x14=0x5e5c5e98
       30235000	      3022	80001094	014c4333	xor	x6,x24,x20	 x24:0xfebf7031 x20:0x00000000  x6=0xfebf7031
       30245000	      3023	80001098	7cc52b93	slti	x23,x10,1996	 x10:0x00000000 x23=0x00000001
       30255000	      3024	8000109c	41e7da13	srai	x20,x15,0x1e	 x15:0xe21cc000 x20=0xffffffff
       30265000	      3025	800010a0	0133a233	slt	x4,x7,x19	  x7:0x00000000 x19:0x00000000  x4=0x00000000
       30275000	      3026	800010a4	c48b4a93	xori	x21,x22,-952	 x22:0x80009fc4 x21=0x7fff638c
       30285000	      3027	800010a8	013fa233	slt	x4,x31,x19	 x31:0xe996d000 x19:0x00000000  x4=0x00000001
       30295000	      3028	800010ac	f8bd6093	ori	x1,x26,-117	 x26:0x00000001  x1=0xffffff8b
       30305000	      3029	800010b0	400652b3	sra	x5,x12,x0	 x12:0xa1885000  x0:0x00000000  x5=0xa1885000
       30315000	      3030	800010b4	00000013	addi	x0,x0,0	  x0:0x00000000
       30325000	      3031	800010b8	871cd5b7	lui	x11,0x871cd	 x11=0x871cd000
       30335000	      3032	800010bc	d6b88b93	addi	x23,x17,-661	 x17:0xd305ed3c x23=0xd305eaa7
       30345000	      3033	800010c0	bb4a7c93	andi	x25,x20,-1100	 x20:0xffffffff x25=0xfffffbb4
       30355000	      3034	800010c4	5d897593	andi	x11,x18,1496	 x18:0x80009ee4 x11=0x000004c0
       30365000	      3035	800010c8	eb476317	auipc	x6,0xeb476	  x6=0x6b4770c4
       30375000	      3036	800010cc	00150cb3	add	x25,x10,x1	 x10:0x00000000  x1:0xffffff8b x25=0xffffff8b
       30385000	      3037	800010d0	02e47463	bgeu	x8,x14,800010f8	  x8:0x00000000 x14:0x5e5c5e98
       30395000	      3038	800010d4	01b5df33	srl	x30,x11,x27	 x11:0x000004c0 x27:0xe996d000 x30=0x000004c0
       30405000	      3039	800010d8	052bf063	bgeu	x23,x18,80001118	 x23:0xd305eaa7 x18:0x80009ee4
       30415000	      3040	00000000	00000013	addi	x0,x0,0	  x0:0x00000000
       30425000	      3041	80001114	00000013	addi	x0,x0,0	  x0:0x00000000
       30435000	      3042	80001118	00e01793	slli	x15,x0,0xe	  x0:0x00000000 x15=0x00000000
       30445000	      3043	8000111c	015936b3	sltu	x13,x18,x21	 x18:0x80009ee4 x21:0x7fff638c x13=0x00000000
       30455000	      3044	80001120	03660863	beq	x12,x22,80001150	 x12:0xa1885000 x22:0x80009fc4
       30465000	      3045	80001124	03cff263	bgeu	x31,x28,80001148	 x31:0xe996d000 x28:0x00000000
       30475000	      3046	00000000	00000013	addi	x0,x0,0	  x0:0x00000000
       30485000	      3047	80001144	00000013	addi	x0,x0,0	  x0:0x00000000
       30495000	      3048	80001148	013c3633	sltu	x12,x24,x19	 x24:0xfebf7031 x19:0x00000000 x12=0x00000000
       30505000	      3049	8000114c	ff62f893	andi	x17,x5,-10	  x5:0xa1885000 x17=0xa1885000
       30515000	      3050	80001150	0097dbb3	srl	x23,x15,x9	 x15:0x00000000  x9:0xfffffe86 x23=0x00000000
       30525000	      3051	80001154	6d19a493	slti	x9,x19,1745	 x19:0x00000000  x9=0x00000001
       30535000	      3052	80001158	8a28f313	andi	x6,x17,-1886	 x17:0xa1885000  x6=0xa1885000
       30545000	      3053	8000115c	010104b3	add	x9,x2,x16	  x2:0x00000000 x16:0xffe00027  x9=0xffe00027
       30555000	      3054	80001160	01fbd213	srli	x4,x23,0x1f	 x23:0x00000000  x4=0x00000000
       30565000	      3055	80001164	0054d233	srl	x4,x9,x5	  x9:0xffe00027  x5:0xa1885000  x4=0xffe00027
       30575000	      3056	80001168	41ee00b3	sub	x1,x28,x30	 x28:0x00000000 x30:0x000004c0  x1=0xfffffb40
       30585000	      3057	8000116c	01e4e6b3	or	x13,x9,x30	  x9:0xffe00027 x30:0x000004c0 x13=0xffe004e7
       30595000	      3058	80001170	007aad33	slt	x26,x21,x7	 x21:0x7fff638c  x7:0x00000000 x26=0x00000000
       30605000	      3059	80001174	05557463	bgeu	x10,x21,800011bc	 x10:0x00000000 x21:0x7fff638c
       30615000	      3060	80001178	d69c7a13	andi	x20,x24,-663	 x24:0xfebf7031 x20=0xfebf7021
       30625000	      3061	8000117c	031ac463	blt	x21,x17,800011a4	 x21:0x7fff638c x17:0xa1885000
       30635000	      3062	80001180	01c6dd13	srli	x26,x13,0x1c	 x13:0xffe004e7 x26=0x0000000f
       30645000	      3063	80001184	0019ae33	slt	x28,x19,x1	 x19:0x00000000  x1:0xfffffb40 x28=0x00000000
       30655000	      3064	80001188	01da0f33	add	x30,x20,x29	 x20:0xfebf7021 x29:0x80009fc4 x30=0x7ec00fe5
       30665000	      3065	8000118c	41ac5633	sra	x12,x24,x26	 x24:0xfebf7031 x26:0x0000000f x12=0xfffffd7e
       30675000	      3066	80001190	9142ff93	andi	x31,x5,-1772	  x5:0xa1885000 x31=0xa1885000
       30685000	      3067	80001194	411b0433	sub	x8,x22,x17	 x22:0x80009fc4 x17:0xa1885000  x8=0xde784fc4
       30695000	      3068	80001198	1ef8c413	xori	x8,x17,495	 x17:0xa1885000  x8=0xa18851ef
       30705000	      3069	8000119c	c1a17993	andi	x19,x2,-998	  x2:0x00000000 x19=0x00000000
       30715000	      3070	800011a0	015b85b3	add	x11,x23,x21	 x23:0x00000000 x21:0x7fff638c x11=0x7fff638c
       30725000	      3071	800011a4	01205e63	bge	x0,x18,800011c0	  x0:0x00000000 x18:0x80009ee4
       30735000	      3072	00000000	00000013	addi	x0,x0,0	  x0:0x00000000
       30745000	      3073	800011bc	00000013	addi	x0,x0,0	  x0:0x00000000
       30755000	      3074	800011c0	034ef663	bgeu	x29,x20,800011ec	 x29:0x80009fc4 x20:0xfebf7021
       30765000	      3075	800011c4	01d58db3	add	x27,x11,x29	 x11:0x7fff638c x29:0x80009fc4 x27=0x00000350
       30775000	      3076	800011c8	00000013	addi	x0,x0,0	  x0:0x00000000
       30785000	      3077	800011cc	fa6cf513	andi	x10,x25,-90	 x25:0xffffff8b x10=0xffffff82
       30795000	      3078	800011d0	05258663	beq	x11,x18,8000121c	 x11:0x7fff638c x18:0x80009ee4
       30805000	      3079	800011d4	00000013	addi	x0,x0,0	  x0:0x00000000
       30815000	      3080	800011d8	01a79a93	slli	x21,x15,0x1a	 x15:0x00000000 x21=0x00000000
       30825000	      3081	800011dc	20f77d17	auipc	x26,0x20f77	 x26=0xa0f781d8
       30835000	      3082	800011e0	41a20cb3	sub	x25,x4,x26	  x4:0xffe00027 x26:0xa0f781d8 x25=0x5ee87e4f
       30845000	      3083	800011e4	40e9d593	srai	x11,x19,0xe	 x19:0x00000000 x11=0x00000000
       30855000	      3084	800011e8	ad592593	slti	x11,x18,-1323	 x18:0x80009ee4 x11=0x00000001
       30865000	      3085	800011ec	00941133	sll	x2,x8,x9	  x8:0xa18851ef  x9:0xffe00027  x2=0xc428f780
       30875000	      3086	800011f0	00fc8c63	beq	x25,x15,80001208	 x25:0x5ee87e4f x15:0x00000000
       30885000	      3087	800011f4	32df7997	auipc	x19,0x32df7	 x19=0xb2df81f0
       30895000	      3088	800011f8	40c10333	sub	x6,x2,x12	  x2:0xc428f780 x12:0xfffffd7e  x6=0xc428fa02
       30905000	      3089	800011fc	007258b3	srl	x17,x4,x7	  x4:0xffe00027  x7:0x00000000 x17=0xffe00027
       30915000	      3090	80001200	000b9ab3	sll	x21,x23,x0	 x23:0x00000000  x0:0x00000000 x21=0x00000000
       30925000	      3091	80001204	a352a313	slti	x6,x5,-1483	  x5:0xa1885000  x6=0x00000001
       30935000	      3092	80001208	01719593	slli	x11,x3,0x17	  x3:0x00000000 x11=0x00000000
       30945000	      3093	8000120c	01a3b533	sltu	x10,x7,x26	  x7:0x00000000 x26:0xa0f781d8 x10=0x00000001
       30955000	      3094	80001210	00ccdf33	srl	x30,x25,x12	 x25:0x5ee87e4f x12:0xfffffd7e x30=0x00000001
       30965000	      3095	80001214	40e98433	sub	x8,x19,x14	 x19:0xb2df81f0 x14:0x5e5c5e98  x8=0x54832358
       30975000	      3096	80001218	01293a33	sltu	x20,x18,x18	 x18:0x80009ee4 x18:0x80009ee4 x20=0x00000000
       30985000	      3097	8000121c	d3eb49b7	lui	x19,0xd3eb4	 x19=0xd3eb4000
       30995000	      3098	80001220	00aa3233	sltu	x4,x20,x10	 x20:0x00000000 x10:0x00000001  x4=0x00000001
       31005000	      3099	80001224	4009dd93	srai	x27,x19,0x0	 x19:0xd3eb4000 x27=0xd3eb4000
       31015000	      3100	80001228	01287463	bgeu	x16,x18,80001230	 x16:0xffe00027 x18:0x80009ee4
       31025000	      3101	00000000	00000013	addi	x0,x0,0	  x0:0x00000000
       31035000	      3102	8000122c	00000013	addi	x0,x0,0	  x0:0x00000000
       31045000	      3103	80001230	054e5463	bge	x28,x20,80001278	 x28:0x00000000 x20:0x00000000
       31055000	      3104	00000000	00000013	addi	x0,x0,0	  x0:0x00000000
       31065000	      3105	80001274	00000013	addi	x0,x0,0	  x0:0x00000000
       31075000	      3106	80001278	41c7dab3	sra	x21,x15,x28	 x15:0x00000000 x28:0x00000000 x21=0x00000000
       31085000	      3107	8000127c	31bc8513	addi	x10,x25,795	 x25:0x5ee87e4f x10=0x5ee8816a
       31095000	      3108	80001280	01311f13	slli	x30,x2,0x13	  x2:0xc428f780 x30=0xbc000000
       31105000	      3109	80001284	0006d393	srli	x7,x13,0x0	 x13:0xffe004e7  x7=0xffe004e7
       31115000	      3110	80001288	0015d733	srl	x14,x11,x1	 x11:0x00000000  x1:0xfffffb40 x14=0x00000000
       31125000	      3111	8000128c	0103b9b3	sltu	x19,x7,x16	  x7:0xffe004e7 x16:0xffe00027 x19=0x00000000
       31135000	      3112	80001290	00000013	addi	x0,x0,0	  x0:0x00000000
       31145000	      3113	80001294	0068d033	srl	x0,x17,x6	 x17:0xffe00027  x6:0x00000001
       31155000	      3114	80001298	c8092093	slti	x1,x18,-896	 x18:0x80009ee4  x1=0x00000001
       31165000	      3115	8000129c	555f8197	auipc	x3,0x555f8	  x3=0xd55f9298
       31175000	      3116	800012a0	04f1e663	bltu	x3,x15,800012ec	  x3:0xd55f9298 x15:0x00000000
       31185000	      3117	800012a4	0379e063	bltu	x19,x23,800012c4	 x19:0x00000000 x23:0x00000000
       31195000	      3118	800012a8	005f8863	beq	x31,x5,800012b8	 x31:0xa1885000  x5:0xa1885000
       31205000	      3119	00000000	00000013	addi	x0,x0,0	  x0:0x00000000
       31215000	      3120	800012b4	00000013	addi	x0,x0,0	  x0:0x00000000
       31225000	      3121	800012b8	01781793	slli	x15,x16,0x17	 x16:0xffe00027 x15=0x13800000
       31235000	      3122	800012bc	c3350313	addi	x6,x10,-973	 x10:0x5ee8816a  x6=0x5ee87d9d
       31245000	      3123	800012c0	003c8a63	beq	x25,x3,800012d4	 x25:0x5ee87e4f  x3:0xd55f9298
       31255000	      3124	800012c4	39b40637	lui	x12,0x39b40	 x12=0x39b40000
       31265000	      3125	800012c8	03bbc463	blt	x23,x27,800012f0	 x23:0x00000000 x27:0xd3eb4000
       31275000	      3126	800012cc	00c123b3	slt	x7,x2,x12	  x2:0xc428f780 x12:0x39b40000  x7=0x00000001
       31285000	      3127	800012d0	86474617	auipc	x12,0x86474	 x12=0x064752cc
       31295000	      3128	800012d4	03201463	bne	x0,x18,800012fc	  x0:0x00000000 x18:0x80009ee4
       31305000	      3129	00000000	00000013	addi	x0,x0,0	  x0:0x00000000
       31315000	      3130	800012f8	00000013	addi	x0,x0,0	  x0:0x00000000
       31325000	      3131	800012fc	e9fd6497	auipc	x9,0xe9fd6	  x9=0x69fd72f8
       31335000	      3132	80001300	d63ba193	slti	x3,x23,-669	 x23:0x00000000  x3=0x00000000
       31345000	      3133	80001304	5ff97593	andi	x11,x18,1535	 x18:0x80009ee4 x11=0x000004e4
       31355000	      3134	80001308	e8c13a13	sltiu	x20,x2,-372	  x2:0xc428f780 x20=0x00000001
       31365000	      3135	8000130c	a323c5b7	lui	x11,0xa323c	 x11=0xa323c000
       31375000	      3136	80001310	02db7463	bgeu	x22,x13,80001338	 x22:0x80009fc4 x13:0xffe004e7
       31385000	      3137	80001314	409e53b3	sra	x7,x28,x9	 x28:0x00000000  x9:0x69fd72f8  x7=0x00000000
       31395000	      3138	80001318	413f0333	sub	x6,x30,x19	 x30:0xbc000000 x19:0x00000000  x6=0xbc000000
       31405000	      3139	8000131c	400a0d33	sub	x26,x20,x0	 x20:0x00000001  x0:0x00000000 x26=0x00000001
       31415000	      3140	80001320	f55de113	ori	x2,x27,-171	 x27:0xd3eb4000  x2=0xffffff55
       31425000	      3141	80001324	00000013	addi	x0,x0,0	  x0:0x00000000
       31435000	      3142	80001328	51bff693	andi	x13,x31,1307	 x31:0xa1885000 x13=0x00000000
       31445000	      3143	8000132c	41aedf13	srai	x30,x29,0x1a	 x29:0x80009fc4 x30=0xffffffe0
       31455000	      3144	80001330	c1c54c93	xori	x25,x10,-996	 x10:0x5ee8816a x25=0xa1177d76
       31465000	      3145	80001334	41858e33	sub	x28,x11,x24	 x11:0xa323c000 x24:0xfebf7031 x28=0xa4644fcf
       31475000	      3146	80001338	4005de93	srai	x29,x11,0x0	 x11:0xa323c000 x29=0xa323c000
       31485000	      3147	8000133c	010cf9b3	and	x19,x25,x16	 x25:0xa1177d76 x16:0xffe00027 x19=0xa1000026
       31495000	      3148	80001340	00882333	slt	x6,x16,x8	 x16:0xffe00027  x8:0x54832358  x6=0x00000001
       31505000	      3149	80001344	0070eeb3	or	x29,x1,x7	  x1:0x00000001  x7:0x00000000 x29=0x00000001
       31515000	      3150	80001348	00000013	addi	x0,x0,0	  x0:0x00000000
       31525000	      3151	8000134c	0444c063	blt	x9,x4,8000138c	  x9:0x69fd72f8  x4:0x00000001
       31535000	      3152	80001350	a7f48e13	addi	x28,x9,-1409	  x9:0x69fd72f8 x28=0x69fd6d77
       31545000	      3153	80001354	005c3d33	sltu	x26,x24,x5	 x24:0xfebf7031  x5:0xa1885000 x26=0x00000000
       31555000	      3154	80001358	003e5ab3	srl	x21,x28,x3	 x28:0x69fd6d77  x3:0x00000000 x21=0x69fd6d77
       31565000	      3155	8000135c	05507463	bgeu	x0,x21,800013a4	  x0:0x00000000 x21:0x69fd6d77
       31575000	      3156	80001360	41060cb3	sub	x25,x12,x16	 x12:0x064752cc x16:0xffe00027 x25=0x066752a5
       31585000	      3157	80001364	40dedf33	sra	x30,x29,x13	 x29:0x00000001 x13:0x00000000 x30=0x00000001
       31595000	      3158	80001368	0173b5b3	sltu	x11,x7,x23	  x7:0x00000000 x23:0x00000000 x11=0x00000000
       31605000	      3159	8000136c	01331cb3	sll	x25,x6,x19	  x6:0x00000001 x19:0xa1000026 x25=0x00000040
       31615000	      3160	80001370	05849263	bne	x9,x24,800013b4	  x9:0x69fd72f8 x24:0xfebf7031
       31625000	      3161	00000000	00000013	addi	x0,x0,0	  x0:0x00000000
       31635000	      3162	800013b0	00000013	addi	x0,x0,0	  x0:0x00000000
       31645000	      3163	800013b4	011aceb3	xor	x29,x21,x17	 x21:0x69fd6d77 x17:0xffe00027 x29=0x961d6d50
       31655000	      3164	800013b8	03406a63	bltu	x0,x20,800013ec	  x0:0x00000000 x20:0x00000001
       31665000	      3165	00000000	00000013	addi	x0,x0,0	  x0:0x00000000
       31675000	      3166	800013e8	00000013	addi	x0,x0,0	  x0:0x00000000
       31685000	      3167	800013ec	006ab6b3	sltu	x13,x21,x6	 x21:0x69fd6d77  x6:0x00000001 x13=0x00000000
       31695000	      3168	800013f0	01b29813	slli	x16,x5,0x1b	  x5:0xa1885000 x16=0x00000000
       31705000	      3169	800013f4	00fc74b3	and	x9,x24,x15	 x24:0xfebf7031 x15:0x13800000  x9=0x12800000
       31715000	      3170	800013f8	0064b4b3	sltu	x9,x9,x6	  x9:0x12800000  x6:0x00000001  x9=0x00000000
       31725000	      3171	800013fc	0149c6b3	xor	x13,x19,x20	 x19:0xa1000026 x20:0x00000001 x13=0xa1000027
       31735000	      3172	80001400	04039463	bne	x7,x0,80001448	  x7:0x00000000  x0:0x00000000
       31745000	      3173	80001404	413181b3	sub	x3,x3,x19	  x3:0x00000000 x19:0xa1000026  x3=0x5effffda
       31755000	      3174	80001408	c6ca6693	ori	x13,x20,-916	 x20:0x00000001 x13=0xfffffc6d
       31765000	      3175	8000140c	019456b3	srl	x13,x8,x25	  x8:0x54832358 x25:0x00000040 x13=0x54832358
       31775000	      3176	80001410	00b054b3	srl	x9,x0,x11	  x0:0x00000000 x11:0x00000000  x9=0x00000000
       31785000	      3177	80001414	6f2f2293	slti	x5,x30,1778	 x30:0x00000001  x5=0x00000001
       31795000	      3178	80001418	32e48cb7	lui	x25,0x32e48	 x25=0x32e48000
       31805000	      3179	8000141c	03769463	bne	x13,x23,80001444	 x13:0x54832358 x23:0x00000000
       31815000	      3180	00000000	00000013	addi	x0,x0,0	  x0:0x00000000
       31825000	      3181	80001440	00000013	addi	x0,x0,0	  x0:0x00000000
       31835000	      3182	80001444	0094e3b3	or	x7,x9,x9	  x9:0x00000000  x9:0x00000000  x7=0x00000000
       31845000	      3183	80001448	011b8e63	beq	x23,x17,80001464	 x23:0x00000000 x17:0xffe00027
       31855000	      3184	8000144c	00e92833	slt	x16,x18,x14	 x18:0x80009ee4 x14:0x00000000 x16=0x00000001
       31865000	      3185	80001450	01f42fb3	slt	x31,x8,x31	  x8:0x54832358 x31:0xa1885000 x31=0x00000000
       31875000	      3186	80001454	bc54b017	auipc	x0,0xbc54b	
       31885000	      3187	80001458	40f30db3	sub	x27,x6,x15	  x6:0x00000001 x15:0x13800000 x27=0xec800001
       31895000	      3188	8000145c	0130c0b3	xor	x1,x1,x19	  x1:0x00000001 x19:0xa1000026  x1=0xa1000027
       31905000	      3189	80001460	00190533	add	x10,x18,x1	 x18:0x80009ee4  x1:0xa1000027 x10=0x21009f0b
       31915000	      3190	80001464	0012b9b3	sltu	x19,x5,x1	  x5:0x00000001  x1:0xa1000027 x19=0x00000001
       31925000	      3191	80001468	05d61663	bne	x12,x29,800014b4	 x12:0x064752cc x29:0x961d6d50
       31935000	      3192	00000000	00000013	addi	x0,x0,0	  x0:0x00000000
       31945000	      3193	800014b0	00000013	addi	x0,x0,0	  x0:0x00000000
       31955000	      3194	800014b4	0070d113	srli	x2,x1,0x7	  x1:0xa1000027  x2=0x01420000
       31965000	      3195	800014b8	978565b7	lui	x11,0x97856	 x11=0x97856000
       31975000	      3196	800014bc	01c150b3	srl	x1,x2,x28	  x2:0x01420000 x28:0x69fd6d77  x1=0x00000002
       31985000	      3197	800014c0	08d89463	bne	x17,x13,80001548	 x17:0xffe00027 x13:0x54832358
       31995000	      3198	00000000	00000013	addi	x0,x0,0	  x0:0x00000000
       32005000	      3199	80001544	00000013	addi	x0,x0,0	  x0:0x00000000
       32015000	      3200	80001548	40f9da33	sra	x20,x19,x15	 x19:0x00000001 x15:0x13800000 x20=0x00000001
       32025000	      3201	8000154c	2030ae13	slti	x28,x1,515	  x1:0x00000002 x28=0x00000001
       32035000	      3202	80001550	de19b413	sltiu	x8,x19,-543	 x19:0x00000001  x8=0x00000001
       32045000	      3203	80001554	00000013	addi	x0,x0,0	  x0:0x00000000
       32055000	      3204	80001558	88b48093	addi	x1,x9,-1909	  x9:0x00000000  x1=0xfffff88b
       32065000	      3205	8000155c	0582e663	bltu	x5,x24,800015a8	  x5:0x00000001 x24:0xfebf7031
       32075000	      3206	00000000	00000013	addi	x0,x0,0	  x0:0x00000000
       32085000	      3207	800015a4	00000013	addi	x0,x0,0	  x0:0x00000000
       32095000	      3208	800015a8	00000013	addi	x0,x0,0	  x0:0x00000000
       32105000	      3209	800015ac	01914d33	xor	x26,x2,x25	  x2:0x01420000 x25:0x32e48000 x26=0x33a68000
       32115000	      3210	800015b0	40ed81b3	sub	x3,x27,x14	 x27:0xec800001 x14:0x00000000  x3=0xec800001
       32125000	      3211	800015b4	644e1137	lui	x2,0x644e1	  x2=0x644e1000
       32135000	      3212	800015b8	01c5d8b3	srl	x17,x11,x28	 x11:0x97856000 x28:0x00000001 x17=0x4bc2b000
       32145000	      3213	800015bc	015c07b3	add	x15,x24,x21	 x24:0xfebf7031 x21:0x69fd6d77 x15=0x68bcdda8
       32155000	      3214	800015c0	00e4ee33	or	x28,x9,x14	  x9:0x00000000 x14:0x00000000 x28=0x00000000
       32165000	      3215	800015c4	9af11397	auipc	x7,0x9af11	  x7=0x1af125c0
       32175000	      3216	800015c8	0163cbb3	xor	x23,x7,x22	  x7:0x1af125c0 x22:0x80009fc4 x23=0x9af1ba04
       32185000	      3217	800015cc	3c937e37	lui	x28,0x3c937	 x28=0x3c937000
       32195000	      3218	800015d0	00000013	addi	x0,x0,0	  x0:0x00000000
       32205000	      3219	800015d4	4e2df413	andi	x8,x27,1250	 x27:0xec800001  x8=0x00000000
       32215000	      3220	800015d8	37bc83b7	lui	x7,0x37bc8	  x7=0x37bc8000
       32225000	      3221	800015dc	00000013	addi	x0,x0,0	  x0:0x00000000
       32235000	      3222	800015e0	707d4813	xori	x16,x26,1799	 x26:0x33a68000 x16=0x33a68707
       32245000	      3223	800015e4	026c4463	blt	x24,x6,8000160c	 x24:0xfebf7031  x6:0x00000001
       32255000	      3224	00000000	00000013	addi	x0,x0,0	  x0:0x00000000
       32265000	      3225	80001608	00000013	addi	x0,x0,0	  x0:0x00000000
       32275000	      3226	8000160c	ae541897	auipc	x17,0xae541	 x17=0x2e542608
       32285000	      3227	80001610	40be8bb3	sub	x23,x29,x11	 x29:0x961d6d50 x11:0x97856000 x23=0xfe980d50
       32295000	      3228	80001614	01a26db3	or	x27,x4,x26	  x4:0x00000001 x26:0x33a68000 x27=0x33a68001
       32305000	      3229	80001618	007e7e63	bgeu	x28,x7,80001634	 x28:0x3c937000  x7:0x37bc8000
       32315000	      3230	00000000	00000013	addi	x0,x0,0	  x0:0x00000000
       32325000	      3231	80001630	00000013	addi	x0,x0,0	  x0:0x00000000
       32335000	      3232	80001634	01066bb3	or	x23,x12,x16	 x12:0x064752cc x16:0x33a68707 x23=0x37e7d7cf
       32345000	      3233	80001638	01fc5813	srli	x16,x24,0x1f	 x24:0xfebf7031 x16=0x00000001
       32355000	      3234	8000163c	005ea333	slt	x6,x29,x5	 x29:0x961d6d50  x5:0x00000001  x6=0x00000001
       32365000	      3235	80001640	4092d513	srai	x10,x5,0x9	  x5:0x00000001 x10=0x00000000
       32375000	      3236	80001644	4100d7b3	sra	x15,x1,x16	  x1:0xfffff88b x16:0x00000001 x15=0xfffffc45
       32385000	      3237	80001648	41200cb3	sub	x25,x0,x18	  x0:0x00000000 x18:0x80009ee4 x25=0x7fff611c
       32395000	      3238	8000164c	4e588317	auipc	x6,0x4e588	  x6=0xce589648
       32405000	      3239	80001650	0aae1a63	bne	x28,x10,80001704	 x28:0x3c937000 x10:0x00000000
       32415000	      3240	00000000	00000013	addi	x0,x0,0	  x0:0x00000000
       32425000	      3241	80001700	00000013	addi	x0,x0,0	  x0:0x00000000
       32435000	      3242	80001704	015e9493	slli	x9,x29,0x15	 x29:0x961d6d50  x9=0xaa000000
       32445000	      3243	80001708	9f492713	slti	x14,x18,-1548	 x18:0x80009ee4 x14=0x00000001
       32455000	      3244	8000170c	eccabfb7	lui	x31,0xeccab	 x31=0xeccab000
       32465000	      3245	80001710	41995bb3	sra	x23,x18,x25	 x18:0x80009ee4 x25:0x7fff611c x23=0xfffffff8
       32475000	      3246	80001714	01443cb3	sltu	x25,x8,x20	  x8:0x00000000 x20:0x00000001 x25=0x00000001
       32485000	      3247	80001718	40445693	srai	x13,x8,0x4	  x8:0x00000000 x13=0x00000000
       32495000	      3248	8000171c	00139463	bne	x7,x1,80001724	  x7:0x37bc8000  x1:0xfffff88b
       32505000	      3249	00000000	00000013	addi	x0,x0,0	  x0:0x00000000
       32515000	      3250	80001720	00000013	addi	x0,x0,0	  x0:0x00000000
       32525000	      3251	80001724	01e91ab3	sll	x21,x18,x30	 x18:0x80009ee4 x30:0x00000001 x21=0x00013dc8
       32535000	      3252	80001728	00492f03	lw	x30,4(x18)	 x18:0x80009ee4 x30=0x800042f8 PA:0x80009ee8
       32545000	      3253	8000172c	014823b3	slt	x7,x16,x20	 x16:0x00000001 x20:0x00000001  x7=0x00000000
       32555000	      3254	80001730	aa817693	andi	x13,x2,-1368	  x2:0x644e1000 x13=0x644e1000
       32565000	      3255	80001734	91c1b813	sltiu	x16,x3,-1764	  x3:0xec800001 x16=0x00000001
       32575000	      3256	80001738	03c90913	addi	x18,x18,60	 x18:0x80009ee4 x18=0x80009f20
       32585000	      3257	8000173c	019a5713	srli	x14,x20,0x19	 x20:0x00000001 x14=0x00000000
       32595000	      3258	80001740	22b36a17	auipc	x20,0x22b36	 x20=0xa2b3773c
       32605000	      3259	80001744	402e88b3	sub	x17,x29,x2	 x29:0x961d6d50  x2:0x644e1000 x17=0x31cf5d50
       32615000	      3260	80001748	5bdc2a93	slti	x21,x24,1469	 x24:0xfebf7031 x21=0x00000001
       32625000	      3261	8000174c	001f0493	addi	x9,x30,1	 x30:0x800042f8  x9=0x800042f9
       32635000	      3262	80001750	000484e7	jalr	x9,x9,0	  x9:0x800042f9  x9=0x80001750
       32645000	      3263	00000000	00000013	addi	x0,x0,0	  x0:0x00000000
       32655000	      3264	800042f8	00000013	addi	x0,x0,0	  x0:0x00000000
       32665000	      3265	800042fc	ffffe897	auipc	x17,0xffffe	 x17=0x800022f8
       32675000	      3266	80004300	f0888893	addi	x17,x17,-248	 x17:0x800022f8 x17=0x80002200
       32685000	      3267	80004304	01673133	sltu	x2,x14,x22	 x14:0x00000000 x22:0x80009fc4  x2=0x00000001
       32695000	      3268	80004308	416e8533	sub	x10,x29,x22	 x29:0x961d6d50 x22:0x80009fc4 x10=0x161ccd8c
       32705000	      3269	8000430c	01cb4433	xor	x8,x22,x28	 x22:0x80009fc4 x28:0x3c937000  x8=0xbc93efc4
       32715000	      3270	80004310	eee88893	addi	x17,x17,-274	 x17:0x80002200 x17=0x800020ee
       32725000	      3271	80004314	1c14e293	ori	x5,x9,449	  x9:0x80001750  x5=0x800017d1
       32735000	      3272	80004318	2b174513	xori	x10,x14,689	 x14:0x00000000 x10=0x000002b1
       32745000	      3273	8000431c	007b6233	or	x4,x22,x7	 x22:0x80009fc4  x7:0x00000000  x4=0x80009fc4
       32755000	      3274	80004320	11288f67	jalr	x30,x17,274	 x17:0x800020ee x30=0x80004320
       32765000	      3275	00000000	00000013	addi	x0,x0,0	  x0:0x00000000
       32775000	      3276	80002200	00000013	addi	x0,x0,0	  x0:0x00000000
       32785000	      3277	80002204	40485433	sra	x8,x16,x4	 x16:0x00000001  x4:0x80009fc4  x8=0x00000000
       32795000	      3278	80002208	fdc90913	addi	x18,x18,-36	 x18:0x80009f20 x18=0x80009efc
       32805000	      3279	8000220c	7946a613	slti	x12,x13,1940	 x13:0x644e1000 x12=0x00000000
       32815000	      3280	80002210	40e804b3	sub	x9,x16,x14	 x16:0x00000001 x14:0x00000000  x9=0x00000001
       32825000	      3281	80002214	01e92223	sw	x30,4(x18)	 x18:0x80009efc x30:0x80004320 PA:0x80009f00
       32835000	      3282	80002218	5ae2c013	xori	x0,x5,1454	  x5:0x800017d1
       32845000	      3283	8000221c	0085fab3	and	x21,x11,x8	 x11:0x97856000  x8:0x00000000 x21=0x00000000
       32855000	      3284	80002220	04c00f6f	jal	x30,80002220	 x30=0x80002220
       32865000	      3285	00000000	00000013	addi	x0,x0,0	  x0:0x00000000
       32875000	      3286	80002268	00000013	addi	x0,x0,0	  x0:0x00000000
       32885000	      3287	8000226c	fb9ff36f	jal	x6,8000226c	  x6=0x8000226c
       32895000	      3288	00000000	00000013	addi	x0,x0,0	  x0:0x00000000
       32905000	      3289	80002220	00000013	addi	x0,x0,0	  x0:0x00000000
       32915000	      3290	80002224	0380026f	jal	x4,80002224	  x4=0x80002224
       32925000	      3291	00000000	00000013	addi	x0,x0,0	  x0:0x00000000
       32935000	      3292	80002258	00000013	addi	x0,x0,0	  x0:0x00000000
       32945000	      3293	8000225c	fe1fff6f	jal	x30,8000225c	 x30=0x8000225c
       32955000	      3294	00000000	00000013	addi	x0,x0,0	  x0:0x00000000
       32965000	      3295	80002238	00000013	addi	x0,x0,0	  x0:0x00000000
       32975000	      3296	8000223c	010002ef	jal	x5,8000223c	  x5=0x8000223c
       32985000	      3297	00000000	00000013	addi	x0,x0,0	  x0:0x00000000
       32995000	      3298	80002248	00000013	addi	x0,x0,0	  x0:0x00000000
       33005000	      3299	8000224c	01c000ef	jal	x1,8000224c	  x1=0x8000224c
       33015000	      3300	00000000	00000013	addi	x0,x0,0	  x0:0x00000000
       33025000	      3301	80002264	00000013	addi	x0,x0,0	  x0:0x00000000
       33035000	      3302	80002268	01400aef	jal	x21,80002268	 x21=0x80002268
       33045000	      3303	00000000	00000013	addi	x0,x0,0	  x0:0x00000000
       33055000	      3304	80002278	00000013	addi	x0,x0,0	  x0:0x00000000
       33065000	      3305	8000227c	fb1ff0ef	jal	x1,8000227c	  x1=0x8000227c
       33075000	      3306	00000000	00000013	addi	x0,x0,0	  x0:0x00000000
       33085000	      3307	80002228	00000013	addi	x0,x0,0	  x0:0x00000000
       33095000	      3308	8000222c	00c000ef	jal	x1,8000222c	  x1=0x8000222c
       33105000	      3309	00000000	00000013	addi	x0,x0,0	  x0:0x00000000
       33115000	      3310	80002234	00000013	addi	x0,x0,0	  x0:0x00000000
       33125000	      3311	80002238	0280036f	jal	x6,80002238	  x6=0x80002238
       33135000	      3312	00000000	00000013	addi	x0,x0,0	  x0:0x00000000
       33145000	      3313	8000225c	00000013	addi	x0,x0,0	  x0:0x00000000
       33155000	      3314	80002260	fe9ff1ef	jal	x3,80002260	  x3=0x80002260
       33165000	      3315	00000000	00000013	addi	x0,x0,0	  x0:0x00000000
       33175000	      3316	80002244	00000013	addi	x0,x0,0	  x0:0x00000000
       33185000	      3317	80002248	fe1ff0ef	jal	x1,80002248	  x1=0x80002248
       33195000	      3318	00000000	00000013	addi	x0,x0,0	  x0:0x00000000
       33205000	      3319	80002224	00000013	addi	x0,x0,0	  x0:0x00000000
       33215000	      3320	80002228	028000ef	jal	x1,80002228	  x1=0x80002228
       33225000	      3321	00000000	00000013	addi	x0,x0,0	  x0:0x00000000
       33235000	      3322	8000224c	00000013	addi	x0,x0,0	  x0:0x00000000
       33245000	      3323	80002250	fe1ff8ef	jal	x17,80002250	 x17=0x80002250
       33255000	      3324	00000000	00000013	addi	x0,x0,0	  x0:0x00000000
       33265000	      3325	8000222c	00000013	addi	x0,x0,0	  x0:0x00000000
       33275000	      3326	80002230	034009ef	jal	x19,80002230	 x19=0x80002230
       33285000	      3327	00000000	00000013	addi	x0,x0,0	  x0:0x00000000
       33295000	      3328	80002260	00000013	addi	x0,x0,0	  x0:0x00000000
       33305000	      3329	80002264	ff5ff0ef	jal	x1,80002264	  x1=0x80002264
       33315000	      3330	00000000	00000013	addi	x0,x0,0	  x0:0x00000000
       33325000	      3331	80002254	00000013	addi	x0,x0,0	  x0:0x00000000
       33335000	      3332	80002258	ffdff16f	jal	x2,80002258	  x2=0x80002258
       33345000	      3333	00000000	00000013	addi	x0,x0,0	  x0:0x00000000
       33355000	      3334	80002250	00000013	addi	x0,x0,0	  x0:0x00000000
       33365000	      3335	80002254	01c000ef	jal	x1,80002254	  x1=0x80002254
       33375000	      3336	00000000	00000013	addi	x0,x0,0	  x0:0x00000000
       33385000	      3337	8000226c	00000013	addi	x0,x0,0	  x0:0x00000000
       33395000	      3338	80002270	fc5ffcef	jal	x25,80002270	 x25=0x80002270
       33405000	      3339	00000000	00000013	addi	x0,x0,0	  x0:0x00000000
       33415000	      3340	80002230	00000013	addi	x0,x0,0	  x0:0x00000000
       33425000	      3341	80002234	010000ef	jal	x1,80002234	  x1=0x80002234
       33435000	      3342	00000000	00000013	addi	x0,x0,0	  x0:0x00000000
       33445000	      3343	80002240	00000013	addi	x0,x0,0	  x0:0x00000000
       33455000	      3344	80002244	0340036f	jal	x6,80002244	  x6=0x80002244
       33465000	      3345	00000000	00000013	addi	x0,x0,0	  x0:0x00000000
       33475000	      3346	80002274	00000013	addi	x0,x0,0	  x0:0x00000000
       33485000	      3347	80002278	fc9ff1ef	jal	x3,80002278	  x3=0x80002278
       33495000	      3348	00000000	00000013	addi	x0,x0,0	  x0:0x00000000
       33505000	      3349	8000223c	00000013	addi	x0,x0,0	  x0:0x00000000
       33515000	      3350	80002240	034000ef	jal	x1,80002240	  x1=0x80002240
       33525000	      3351	00000000	00000013	addi	x0,x0,0	  x0:0x00000000
       33535000	      3352	80002270	00000013	addi	x0,x0,0	  x0:0x00000000
       33545000	      3353	80002274	00c0036f	jal	x6,80002274	  x6=0x80002274
       33555000	      3354	00000000	00000013	addi	x0,x0,0	  x0:0x00000000
       33565000	      3355	8000227c	00000013	addi	x0,x0,0	  x0:0x00000000
       33575000	      3356	80002280	bd80e813	ori	x16,x1,-1064	  x1:0x80002240 x16=0xfffffbd8
       33585000	      3357	80002284	00c00f6f	jal	x30,80002284	 x30=0x80002284
       33595000	      3358	00000000	00000013	addi	x0,x0,0	  x0:0x00000000
       33605000	      3359	8000228c	00000013	addi	x0,x0,0	  x0:0x00000000
       33615000	      3360	80002290	ff9ff36f	jal	x6,80002290	  x6=0x80002290
       33625000	      3361	00000000	00000013	addi	x0,x0,0	  x0:0x00000000
       33635000	      3362	80002284	00000013	addi	x0,x0,0	  x0:0x00000000
       33645000	      3363	80002288	038001ef	jal	x3,80002288	  x3=0x80002288
       33655000	      3364	00000000	00000013	addi	x0,x0,0	  x0:0x00000000
       33665000	      3365	800022bc	00000013	addi	x0,x0,0	  x0:0x00000000
       33675000	      3366	800022c0	fd9ff0ef	jal	x1,800022c0	  x1=0x800022c0
       33685000	      3367	00000000	00000013	addi	x0,x0,0	  x0:0x00000000
       33695000	      3368	80002294	00000013	addi	x0,x0,0	  x0:0x00000000
       33705000	      3369	80002298	ffdffdef	jal	x27,80002298	 x27=0x80002298
       33715000	      3370	00000000	00000013	addi	x0,x0,0	  x0:0x00000000
       33725000	      3371	80002290	00000013	addi	x0,x0,0	  x0:0x00000000
       33735000	      3372	80002294	0280036f	jal	x6,80002294	  x6=0x80002294
       33745000	      3373	00000000	00000013	addi	x0,x0,0	  x0:0x00000000
       33755000	      3374	800022b8	00000013	addi	x0,x0,0	  x0:0x00000000
       33765000	      3375	800022bc	ffdffaef	jal	x21,800022bc	 x21=0x800022bc
       33775000	      3376	00000000	00000013	addi	x0,x0,0	  x0:0x00000000
       33785000	      3377	800022b4	00000013	addi	x0,x0,0	  x0:0x00000000
       33795000	      3378	800022b8	ff1ff9ef	jal	x19,800022b8	 x19=0x800022b8
       33805000	      3379	00000000	00000013	addi	x0,x0,0	  x0:0x00000000
       33815000	      3380	800022a4	00000013	addi	x0,x0,0	  x0:0x00000000
       33825000	      3381	800022a8	ffdff3ef	jal	x7,800022a8	  x7=0x800022a8
       33835000	      3382	00000000	00000013	addi	x0,x0,0	  x0:0x00000000
       33845000	      3383	800022a0	00000013	addi	x0,x0,0	  x0:0x00000000
       33855000	      3384	800022a4	00c000ef	jal	x1,800022a4	  x1=0x800022a4
       33865000	      3385	00000000	00000013	addi	x0,x0,0	  x0:0x00000000
       33875000	      3386	800022ac	00000013	addi	x0,x0,0	  x0:0x00000000
       33885000	      3387	800022b0	fedff0ef	jal	x1,800022b0	  x1=0x800022b0
       33895000	      3388	00000000	00000013	addi	x0,x0,0	  x0:0x00000000
       33905000	      3389	80002298	00000013	addi	x0,x0,0	  x0:0x00000000
       33915000	      3390	8000229c	010000ef	jal	x1,8000229c	  x1=0x8000229c
       33925000	      3391	00000000	00000013	addi	x0,x0,0	  x0:0x00000000
       33935000	      3392	800022a8	00000013	addi	x0,x0,0	  x0:0x00000000
       33945000	      3393	800022ac	ff5ff0ef	jal	x1,800022ac	  x1=0x800022ac
       33955000	      3394	00000000	00000013	addi	x0,x0,0	  x0:0x00000000
       33965000	      3395	8000229c	00000013	addi	x0,x0,0	  x0:0x00000000
       33975000	      3396	800022a0	014003ef	jal	x7,800022a0	  x7=0x800022a0
       33985000	      3397	00000000	00000013	addi	x0,x0,0	  x0:0x00000000
       33995000	      3398	800022b0	00000013	addi	x0,x0,0	  x0:0x00000000
       34005000	      3399	800022b4	fd9ff0ef	jal	x1,800022b4	  x1=0x800022b4
       34015000	      3400	00000000	00000013	addi	x0,x0,0	  x0:0x00000000
       34025000	      3401	80002288	00000013	addi	x0,x0,0	  x0:0x00000000
       34035000	      3402	8000228c	038000ef	jal	x1,8000228c	  x1=0x8000228c
       34045000	      3403	00000000	00000013	addi	x0,x0,0	  x0:0x00000000
       34055000	      3404	800022c0	00000013	addi	x0,x0,0	  x0:0x00000000
       34065000	      3405	800022c4	00877033	and	x0,x14,x8	 x14:0x00000000  x8:0x00000000
       34075000	      3406	800022c8	01400f6f	jal	x30,800022c8	 x30=0x800022c8
       34085000	      3407	00000000	00000013	addi	x0,x0,0	  x0:0x00000000
       34095000	      3408	800022d8	00000013	addi	x0,x0,0	  x0:0x00000000
       34105000	      3409	800022dc	00c000ef	jal	x1,800022dc	  x1=0x800022dc
       34115000	      3410	00000000	00000013	addi	x0,x0,0	  x0:0x00000000
       34125000	      3411	800022e4	00000013	addi	x0,x0,0	  x0:0x00000000
       34135000	      3412	800022e8	fe5ff0ef	jal	x1,800022e8	  x1=0x800022e8
       34145000	      3413	00000000	00000013	addi	x0,x0,0	  x0:0x00000000
       34155000	      3414	800022c8	00000013	addi	x0,x0,0	  x0:0x00000000
       34165000	      3415	800022cc	014000ef	jal	x1,800022cc	  x1=0x800022cc
       34175000	      3416	00000000	00000013	addi	x0,x0,0	  x0:0x00000000
       34185000	      3417	800022dc	00000013	addi	x0,x0,0	  x0:0x00000000
       34195000	      3418	800022e0	004000ef	jal	x1,800022e0	  x1=0x800022e0
       34205000	      3419	00000000	00000013	addi	x0,x0,0	  x0:0x00000000
       34215000	      3420	800022e0	00000013	addi	x0,x0,0	  x0:0x00000000
       34225000	      3421	800022e4	ff1ff0ef	jal	x1,800022e4	  x1=0x800022e4
       34235000	      3422	00000000	00000013	addi	x0,x0,0	  x0:0x00000000
       34245000	      3423	800022d0	00000013	addi	x0,x0,0	  x0:0x00000000
       34255000	      3424	800022d4	004001ef	jal	x3,800022d4	  x3=0x800022d4
       34265000	      3425	00000000	00000013	addi	x0,x0,0	  x0:0x00000000
       34275000	      3426	800022d4	00000013	addi	x0,x0,0	  x0:0x00000000
       34285000	      3427	800022d8	0140056f	jal	x10,800022d8	 x10=0x800022d8
       34295000	      3428	00000000	00000013	addi	x0,x0,0	  x0:0x00000000
       34305000	      3429	800022e8	00000013	addi	x0,x0,0	  x0:0x00000000
       34315000	      3430	800022ec	fe5ff0ef	jal	x1,800022ec	  x1=0x800022ec
       34325000	      3431	00000000	00000013	addi	x0,x0,0	  x0:0x00000000
       34335000	      3432	800022cc	00000013	addi	x0,x0,0	  x0:0x00000000
       34345000	      3433	800022d0	02000a6f	jal	x20,800022d0	 x20=0x800022d0
       34355000	      3434	00000000	00000013	addi	x0,x0,0	  x0:0x00000000
       34365000	      3435	800022ec	00000013	addi	x0,x0,0	  x0:0x00000000
       34375000	      3436	800022f0	004000ef	jal	x1,800022f0	  x1=0x800022f0
       34385000	      3437	00000000	00000013	addi	x0,x0,0	  x0:0x00000000
       34395000	      3438	800022f0	00000013	addi	x0,x0,0	  x0:0x00000000
       34405000	      3439	800022f4	405902b3	sub	x5,x18,x5	 x18:0x80009efc  x5:0x8000223c  x5=0x00007cc0
       34415000	      3440	800022f8	02400f6f	jal	x30,800022f8	 x30=0x800022f8
       34425000	      3441	00000000	00000013	addi	x0,x0,0	  x0:0x00000000
       34435000	      3442	80002318	00000013	addi	x0,x0,0	  x0:0x00000000
       34445000	      3443	8000231c	ff9ff8ef	jal	x17,8000231c	 x17=0x8000231c
       34455000	      3444	00000000	00000013	addi	x0,x0,0	  x0:0x00000000
       34465000	      3445	80002310	00000013	addi	x0,x0,0	  x0:0x00000000
       34475000	      3446	80002314	ff9ff0ef	jal	x1,80002314	  x1=0x80002314
       34485000	      3447	00000000	00000013	addi	x0,x0,0	  x0:0x00000000
       34495000	      3448	80002308	00000013	addi	x0,x0,0	  x0:0x00000000
       34505000	      3449	8000230c	01c000ef	jal	x1,8000230c	  x1=0x8000230c
       34515000	      3450	00000000	00000013	addi	x0,x0,0	  x0:0x00000000
       34525000	      3451	80002324	00000013	addi	x0,x0,0	  x0:0x00000000
       34535000	      3452	80002328	0080036f	jal	x6,80002328	  x6=0x80002328
       34545000	      3453	00000000	00000013	addi	x0,x0,0	  x0:0x00000000
       34555000	      3454	8000232c	00000013	addi	x0,x0,0	  x0:0x00000000
       34565000	      3455	80002330	02c0036f	jal	x6,80002330	  x6=0x80002330
       34575000	      3456	00000000	00000013	addi	x0,x0,0	  x0:0x00000000
       34585000	      3457	80002358	00000013	addi	x0,x0,0	  x0:0x00000000
       34595000	      3458	8000235c	fe1ff0ef	jal	x1,8000235c	  x1=0x8000235c
       34605000	      3459	00000000	00000013	addi	x0,x0,0	  x0:0x00000000
       34615000	      3460	80002338	00000013	addi	x0,x0,0	  x0:0x00000000
       34625000	      3461	8000233c	ff9ff0ef	jal	x1,8000233c	  x1=0x8000233c
       34635000	      3462	00000000	00000013	addi	x0,x0,0	  x0:0x00000000
       34645000	      3463	80002330	00000013	addi	x0,x0,0	  x0:0x00000000
       34655000	      3464	80002334	00c0036f	jal	x6,80002334	  x6=0x80002334
       34665000	      3465	00000000	00000013	addi	x0,x0,0	  x0:0x00000000
       34675000	      3466	8000233c	00000013	addi	x0,x0,0	  x0:0x00000000
       34685000	      3467	80002340	00c000ef	jal	x1,80002340	  x1=0x80002340
       34695000	      3468	00000000	00000013	addi	x0,x0,0	  x0:0x00000000
       34705000	      3469	80002348	00000013	addi	x0,x0,0	  x0:0x00000000
       34715000	      3470	8000234c	fb5ff0ef	jal	x1,8000234c	  x1=0x8000234c
       34725000	      3471	00000000	00000013	addi	x0,x0,0	  x0:0x00000000
       34735000	      3472	800022fc	00000013	addi	x0,x0,0	  x0:0x00000000
       34745000	      3473	80002300	050000ef	jal	x1,80002300	  x1=0x80002300
       34755000	      3474	00000000	00000013	addi	x0,x0,0	  x0:0x00000000
       34765000	      3475	8000234c	00000013	addi	x0,x0,0	  x0:0x00000000
       34775000	      3476	80002350	fb9ff36f	jal	x6,80002350	  x6=0x80002350
       34785000	      3477	00000000	00000013	addi	x0,x0,0	  x0:0x00000000
       34795000	      3478	80002304	00000013	addi	x0,x0,0	  x0:0x00000000
       34805000	      3479	80002308	018000ef	jal	x1,80002308	  x1=0x80002308
       34815000	      3480	00000000	00000013	addi	x0,x0,0	  x0:0x00000000
       34825000	      3481	8000231c	00000013	addi	x0,x0,0	  x0:0x00000000
       34835000	      3482	80002320	0040036f	jal	x6,80002320	  x6=0x80002320
       34845000	      3483	00000000	00000013	addi	x0,x0,0	  x0:0x00000000
       34855000	      3484	80002320	00000013	addi	x0,x0,0	  x0:0x00000000
       34865000	      3485	80002324	fd9ff0ef	jal	x1,80002324	  x1=0x80002324
       34875000	      3486	00000000	00000013	addi	x0,x0,0	  x0:0x00000000
       34885000	      3487	800022f8	00000013	addi	x0,x0,0	  x0:0x00000000
       34895000	      3488	800022fc	008000ef	jal	x1,800022fc	  x1=0x800022fc
       34905000	      3489	00000000	00000013	addi	x0,x0,0	  x0:0x00000000
       34915000	      3490	80002300	00000013	addi	x0,x0,0	  x0:0x00000000
       34925000	      3491	80002304	040000ef	jal	x1,80002304	  x1=0x80002304
       34935000	      3492	00000000	00000013	addi	x0,x0,0	  x0:0x00000000
       34945000	      3493	80002340	00000013	addi	x0,x0,0	  x0:0x00000000
       34955000	      3494	80002344	ff5ff36f	jal	x6,80002344	  x6=0x80002344
       34965000	      3495	00000000	00000013	addi	x0,x0,0	  x0:0x00000000
       34975000	      3496	80002334	00000013	addi	x0,x0,0	  x0:0x00000000
       34985000	      3497	80002338	020000ef	jal	x1,80002338	  x1=0x80002338
       34995000	      3498	00000000	00000013	addi	x0,x0,0	  x0:0x00000000
       35005000	      3499	80002354	00000013	addi	x0,x0,0	  x0:0x00000000
       35015000	      3500	80002358	fc1ff0ef	jal	x1,80002358	  x1=0x80002358
       35025000	      3501	00000000	00000013	addi	x0,x0,0	  x0:0x00000000
       35035000	      3502	80002314	00000013	addi	x0,x0,0	  x0:0x00000000
       35045000	      3503	80002318	ff9ff0ef	jal	x1,80002318	  x1=0x80002318
       35055000	      3504	00000000	00000013	addi	x0,x0,0	  x0:0x00000000
       35065000	      3505	8000230c	00000013	addi	x0,x0,0	  x0:0x00000000
       35075000	      3506	80002310	038000ef	jal	x1,80002310	  x1=0x80002310
       35085000	      3507	00000000	00000013	addi	x0,x0,0	  x0:0x00000000
       35095000	      3508	80002344	00000013	addi	x0,x0,0	  x0:0x00000000
       35105000	      3509	80002348	fe5ff0ef	jal	x1,80002348	  x1=0x80002348
       35115000	      3510	00000000	00000013	addi	x0,x0,0	  x0:0x00000000
       35125000	      3511	80002328	00000013	addi	x0,x0,0	  x0:0x00000000
       35135000	      3512	8000232c	028000ef	jal	x1,8000232c	  x1=0x8000232c
       35145000	      3513	00000000	00000013	addi	x0,x0,0	  x0:0x00000000
       35155000	      3514	80002350	00000013	addi	x0,x0,0	  x0:0x00000000
       35165000	      3515	80002354	00c0036f	jal	x6,80002354	  x6=0x80002354
       35175000	      3516	00000000	00000013	addi	x0,x0,0	  x0:0x00000000
       35185000	      3517	8000235c	00000013	addi	x0,x0,0	  x0:0x00000000
       35195000	      3518	80002360	d8cc7d93	andi	x27,x24,-628	 x24:0xfebf7031 x27=0xfebf7000
       35205000	      3519	80002364	02000f6f	jal	x30,80002364	 x30=0x80002364
       35215000	      3520	00000000	00000013	addi	x0,x0,0	  x0:0x00000000
       35225000	      3521	80002380	00000013	addi	x0,x0,0	  x0:0x00000000
       35235000	      3522	80002384	ff9ff16f	jal	x2,80002384	  x2=0x80002384
       35245000	      3523	00000000	00000013	addi	x0,x0,0	  x0:0x00000000
       35255000	      3524	80002378	00000013	addi	x0,x0,0	  x0:0x00000000
       35265000	      3525	8000237c	03c0036f	jal	x6,8000237c	  x6=0x8000237c
       35275000	      3526	00000000	00000013	addi	x0,x0,0	  x0:0x00000000
       35285000	      3527	800023b4	00000013	addi	x0,x0,0	  x0:0x00000000
       35295000	      3528	800023b8	fc9ffa6f	jal	x20,800023b8	 x20=0x800023b8
       35305000	      3529	00000000	00000013	addi	x0,x0,0	  x0:0x00000000
       35315000	      3530	8000237c	00000013	addi	x0,x0,0	  x0:0x00000000
       35325000	      3531	80002380	02c000ef	jal	x1,80002380	  x1=0x80002380
       35335000	      3532	00000000	00000013	addi	x0,x0,0	  x0:0x00000000
       35345000	      3533	800023a8	00000013	addi	x0,x0,0	  x0:0x00000000
       35355000	      3534	800023ac	0040046f	jal	x8,800023ac	  x8=0x800023ac
       35365000	      3535	00000000	00000013	addi	x0,x0,0	  x0:0x00000000
       35375000	      3536	800023ac	00000013	addi	x0,x0,0	  x0:0x00000000
       35385000	      3537	800023b0	004005ef	jal	x11,800023b0	 x11=0x800023b0
       35395000	      3538	00000000	00000013	addi	x0,x0,0	  x0:0x00000000
       35405000	      3539	800023b0	00000013	addi	x0,x0,0	  x0:0x00000000
       35415000	      3540	800023b4	fb9ff0ef	jal	x1,800023b4	  x1=0x800023b4
       35425000	      3541	00000000	00000013	addi	x0,x0,0	  x0:0x00000000
       35435000	      3542	80002368	00000013	addi	x0,x0,0	  x0:0x00000000
       35445000	      3543	8000236c	00c000ef	jal	x1,8000236c	  x1=0x8000236c
       35455000	      3544	00000000	00000013	addi	x0,x0,0	  x0:0x00000000
       35465000	      3545	80002374	00000013	addi	x0,x0,0	  x0:0x00000000
       35475000	      3546	80002378	028000ef	jal	x1,80002378	  x1=0x80002378
       35485000	      3547	00000000	00000013	addi	x0,x0,0	  x0:0x00000000
       35495000	      3548	8000239c	00000013	addi	x0,x0,0	  x0:0x00000000
       35505000	      3549	800023a0	fd5ff0ef	jal	x1,800023a0	  x1=0x800023a0
       35515000	      3550	00000000	00000013	addi	x0,x0,0	  x0:0x00000000
       35525000	      3551	80002370	00000013	addi	x0,x0,0	  x0:0x00000000
       35535000	      3552	80002374	0340016f	jal	x2,80002374	  x2=0x80002374
       35545000	      3553	00000000	00000013	addi	x0,x0,0	  x0:0x00000000
       35555000	      3554	800023a4	00000013	addi	x0,x0,0	  x0:0x00000000
       35565000	      3555	800023a8	fc1ff36f	jal	x6,800023a8	  x6=0x800023a8
       35575000	      3556	00000000	00000013	addi	x0,x0,0	  x0:0x00000000
       35585000	      3557	80002364	00000013	addi	x0,x0,0	  x0:0x00000000
       35595000	      3558	80002368	020000ef	jal	x1,80002368	  x1=0x80002368
       35605000	      3559	00000000	00000013	addi	x0,x0,0	  x0:0x00000000
       35615000	      3560	80002384	00000013	addi	x0,x0,0	  x0:0x00000000
       35625000	      3561	80002388	034000ef	jal	x1,80002388	  x1=0x80002388
       35635000	      3562	00000000	00000013	addi	x0,x0,0	  x0:0x00000000
       35645000	      3563	800023b8	00000013	addi	x0,x0,0	  x0:0x00000000
       35655000	      3564	800023bc	0040036f	jal	x6,800023bc	  x6=0x800023bc
       35665000	      3565	00000000	00000013	addi	x0,x0,0	  x0:0x00000000
       35675000	      3566	800023bc	00000013	addi	x0,x0,0	  x0:0x00000000
       35685000	      3567	800023c0	fb1ff9ef	jal	x19,800023c0	 x19=0x800023c0
       35695000	      3568	00000000	00000013	addi	x0,x0,0	  x0:0x00000000
       35705000	      3569	8000236c	00000013	addi	x0,x0,0	  x0:0x00000000
       35715000	      3570	80002370	01c000ef	jal	x1,80002370	  x1=0x80002370
       35725000	      3571	00000000	00000013	addi	x0,x0,0	  x0:0x00000000
       35735000	      3572	80002388	00000013	addi	x0,x0,0	  x0:0x00000000
       35745000	      3573	8000238c	01800f6f	jal	x30,8000238c	 x30=0x8000238c
       35755000	      3574	00000000	00000013	addi	x0,x0,0	  x0:0x00000000
       35765000	      3575	800023a0	00000013	addi	x0,x0,0	  x0:0x00000000
       35775000	      3576	800023a4	fedff5ef	jal	x11,800023a4	 x11=0x800023a4
       35785000	      3577	00000000	00000013	addi	x0,x0,0	  x0:0x00000000
       35795000	      3578	8000238c	00000013	addi	x0,x0,0	  x0:0x00000000
       35805000	      3579	80002390	00c0036f	jal	x6,80002390	  x6=0x80002390
       35815000	      3580	00000000	00000013	addi	x0,x0,0	  x0:0x00000000
       35825000	      3581	80002398	00000013	addi	x0,x0,0	  x0:0x00000000
       35835000	      3582	8000239c	ff9ff0ef	jal	x1,8000239c	  x1=0x8000239c
       35845000	      3583	00000000	00000013	addi	x0,x0,0	  x0:0x00000000
       35855000	      3584	80002390	00000013	addi	x0,x0,0	  x0:0x00000000
       35865000	      3585	80002394	0040016f	jal	x2,80002394	  x2=0x80002394
       35875000	      3586	00000000	00000013	addi	x0,x0,0	  x0:0x00000000
       35885000	      3587	80002394	00000013	addi	x0,x0,0	  x0:0x00000000
       35895000	      3588	80002398	02c000ef	jal	x1,80002398	  x1=0x80002398
       35905000	      3589	00000000	00000013	addi	x0,x0,0	  x0:0x00000000
       35915000	      3590	800023c0	00000013	addi	x0,x0,0	  x0:0x00000000
       35925000	      3591	800023c4	00c49f93	slli	x31,x9,0xc	  x9:0x00000001 x31=0x00001000
       35935000	      3592	800023c8	02400f6f	jal	x30,800023c8	 x30=0x800023c8
       35945000	      3593	00000000	00000013	addi	x0,x0,0	  x0:0x00000000
       35955000	      3594	800023e8	00000013	addi	x0,x0,0	  x0:0x00000000
       35965000	      3595	800023ec	ffdff0ef	jal	x1,800023ec	  x1=0x800023ec
       35975000	      3596	00000000	00000013	addi	x0,x0,0	  x0:0x00000000
       35985000	      3597	800023e4	00000013	addi	x0,x0,0	  x0:0x00000000
       35995000	      3598	800023e8	0340036f	jal	x6,800023e8	  x6=0x800023e8
       36005000	      3599	00000000	00000013	addi	x0,x0,0	  x0:0x00000000
       36015000	      3600	80002418	00000013	addi	x0,x0,0	  x0:0x00000000
       36025000	      3601	8000241c	fe1ff1ef	jal	x3,8000241c	  x3=0x8000241c
       36035000	      3602	00000000	00000013	addi	x0,x0,0	  x0:0x00000000
       36045000	      3603	800023f8	00000013	addi	x0,x0,0	  x0:0x00000000
       36055000	      3604	800023fc	008000ef	jal	x1,800023fc	  x1=0x800023fc
       36065000	      3605	00000000	00000013	addi	x0,x0,0	  x0:0x00000000
       36075000	      3606	80002400	00000013	addi	x0,x0,0	  x0:0x00000000
       36085000	      3607	80002404	ffdff0ef	jal	x1,80002404	  x1=0x80002404
       36095000	      3608	00000000	00000013	addi	x0,x0,0	  x0:0x00000000
       36105000	      3609	800023fc	00000013	addi	x0,x0,0	  x0:0x00000000
       36115000	      3610	80002400	ff1ff0ef	jal	x1,80002400	  x1=0x80002400
       36125000	      3611	00000000	00000013	addi	x0,x0,0	  x0:0x00000000
       36135000	      3612	800023ec	00000013	addi	x0,x0,0	  x0:0x00000000
       36145000	      3613	800023f0	0300036f	jal	x6,800023f0	  x6=0x800023f0
       36155000	      3614	00000000	00000013	addi	x0,x0,0	  x0:0x00000000
       36165000	      3615	8000241c	00000013	addi	x0,x0,0	  x0:0x00000000
       36175000	      3616	80002420	fb1ff0ef	jal	x1,80002420	  x1=0x80002420
       36185000	      3617	00000000	00000013	addi	x0,x0,0	  x0:0x00000000
       36195000	      3618	800023cc	00000013	addi	x0,x0,0	  x0:0x00000000
       36205000	      3619	800023d0	0080036f	jal	x6,800023d0	  x6=0x800023d0
       36215000	      3620	00000000	00000013	addi	x0,x0,0	  x0:0x00000000
       36225000	      3621	800023d4	00000013	addi	x0,x0,0	  x0:0x00000000
       36235000	      3622	800023d8	034000ef	jal	x1,800023d8	  x1=0x800023d8
       36245000	      3623	00000000	00000013	addi	x0,x0,0	  x0:0x00000000
       36255000	      3624	80002408	00000013	addi	x0,x0,0	  x0:0x00000000
       36265000	      3625	8000240c	fe9ff0ef	jal	x1,8000240c	  x1=0x8000240c
       36275000	      3626	00000000	00000013	addi	x0,x0,0	  x0:0x00000000
       36285000	      3627	800023f0	00000013	addi	x0,x0,0	  x0:0x00000000
       36295000	      3628	800023f4	034000ef	jal	x1,800023f4	  x1=0x800023f4
       36305000	      3629	00000000	00000013	addi	x0,x0,0	  x0:0x00000000
       36315000	      3630	80002424	00000013	addi	x0,x0,0	  x0:0x00000000
       36325000	      3631	80002428	ffdff0ef	jal	x1,80002428	  x1=0x80002428
       36335000	      3632	00000000	00000013	addi	x0,x0,0	  x0:0x00000000
       36345000	      3633	80002420	00000013	addi	x0,x0,0	  x0:0x00000000
       36355000	      3634	80002424	fedff26f	jal	x4,80002424	  x4=0x80002424
       36365000	      3635	00000000	00000013	addi	x0,x0,0	  x0:0x00000000
       36375000	      3636	8000240c	00000013	addi	x0,x0,0	  x0:0x00000000
       36385000	      3637	80002410	fc5ff16f	jal	x2,80002410	  x2=0x80002410
       36395000	      3638	00000000	00000013	addi	x0,x0,0	  x0:0x00000000
       36405000	      3639	800023d0	00000013	addi	x0,x0,0	  x0:0x00000000
       36415000	      3640	800023d4	01000aef	jal	x21,800023d4	 x21=0x800023d4
       36425000	      3641	00000000	00000013	addi	x0,x0,0	  x0:0x00000000
       36435000	      3642	800023e0	00000013	addi	x0,x0,0	  x0:0x00000000
       36445000	      3643	800023e4	034000ef	jal	x1,800023e4	  x1=0x800023e4
       36455000	      3644	00000000	00000013	addi	x0,x0,0	  x0:0x00000000
       36465000	      3645	80002414	00000013	addi	x0,x0,0	  x0:0x00000000
       36475000	      3646	80002418	ffdff36f	jal	x6,80002418	  x6=0x80002418
       36485000	      3647	00000000	00000013	addi	x0,x0,0	  x0:0x00000000
       36495000	      3648	80002410	00000013	addi	x0,x0,0	  x0:0x00000000
       36505000	      3649	80002414	01c000ef	jal	x1,80002414	  x1=0x80002414
       36515000	      3650	00000000	00000013	addi	x0,x0,0	  x0:0x00000000
       36525000	      3651	8000242c	00000013	addi	x0,x0,0	  x0:0x00000000
       36535000	      3652	80002430	fb1ff5ef	jal	x11,80002430	 x11=0x80002430
       36545000	      3653	00000000	00000013	addi	x0,x0,0	  x0:0x00000000
       36555000	      3654	800023dc	00000013	addi	x0,x0,0	  x0:0x00000000
       36565000	      3655	800023e0	01800fef	jal	x31,800023e0	 x31=0x800023e0
       36575000	      3656	00000000	00000013	addi	x0,x0,0	  x0:0x00000000
       36585000	      3657	800023f4	00000013	addi	x0,x0,0	  x0:0x00000000
       36595000	      3658	800023f8	0340036f	jal	x6,800023f8	  x6=0x800023f8
       36605000	      3659	00000000	00000013	addi	x0,x0,0	  x0:0x00000000
       36615000	      3660	80002428	00000013	addi	x0,x0,0	  x0:0x00000000
       36625000	      3661	8000242c	fa1ff36f	jal	x6,8000242c	  x6=0x8000242c
       36635000	      3662	00000000	00000013	addi	x0,x0,0	  x0:0x00000000
       36645000	      3663	800023c8	00000013	addi	x0,x0,0	  x0:0x00000000
       36655000	      3664	800023cc	03c000ef	jal	x1,800023cc	  x1=0x800023cc
       36665000	      3665	00000000	00000013	addi	x0,x0,0	  x0:0x00000000
       36675000	      3666	80002404	00000013	addi	x0,x0,0	  x0:0x00000000
       36685000	      3667	80002408	fd5ff8ef	jal	x17,80002408	 x17=0x80002408
       36695000	      3668	00000000	00000013	addi	x0,x0,0	  x0:0x00000000
       36705000	      3669	800023d8	00000013	addi	x0,x0,0	  x0:0x00000000
       36715000	      3670	800023dc	058005ef	jal	x11,800023dc	 x11=0x800023dc
       36725000	      3671	00000000	00000013	addi	x0,x0,0	  x0:0x00000000
       36735000	      3672	80002430	00000013	addi	x0,x0,0	  x0:0x00000000
       36745000	      3673	80002434	01d63133	sltu	x2,x12,x29	 x12:0x00000000 x29:0x961d6d50  x2=0x00000001
       36755000	      3674	80002438	03400f6f	jal	x30,80002438	 x30=0x80002438
       36765000	      3675	00000000	00000013	addi	x0,x0,0	  x0:0x00000000
       36775000	      3676	80002468	00000013	addi	x0,x0,0	  x0:0x00000000
       36785000	      3677	8000246c	fe9ff36f	jal	x6,8000246c	  x6=0x8000246c
       36795000	      3678	00000000	00000013	addi	x0,x0,0	  x0:0x00000000
       36805000	      3679	80002450	00000013	addi	x0,x0,0	  x0:0x00000000
       36815000	      3680	80002454	014000ef	jal	x1,80002454	  x1=0x80002454
       36825000	      3681	00000000	00000013	addi	x0,x0,0	  x0:0x00000000
       36835000	      3682	80002464	00000013	addi	x0,x0,0	  x0:0x00000000
       36845000	      3683	80002468	fd9ffeef	jal	x29,80002468	 x29=0x80002468
       36855000	      3684	00000000	00000013	addi	x0,x0,0	  x0:0x00000000
       36865000	      3685	8000243c	00000013	addi	x0,x0,0	  x0:0x00000000
       36875000	      3686	80002440	018009ef	jal	x19,80002440	 x19=0x80002440
       36885000	      3687	00000000	00000013	addi	x0,x0,0	  x0:0x00000000
       36895000	      3688	80002454	00000013	addi	x0,x0,0	  x0:0x00000000
       36905000	      3689	80002458	008006ef	jal	x13,80002458	 x13=0x80002458
       36915000	      3690	00000000	00000013	addi	x0,x0,0	  x0:0x00000000
       36925000	      3691	8000245c	00000013	addi	x0,x0,0	  x0:0x00000000
       36935000	      3692	80002460	004002ef	jal	x5,80002460	  x5=0x80002460
       36945000	      3693	00000000	00000013	addi	x0,x0,0	  x0:0x00000000
       36955000	      3694	80002460	00000013	addi	x0,x0,0	  x0:0x00000000
       36965000	      3695	80002464	01000e6f	jal	x28,80002464	 x28=0x80002464
       36975000	      3696	00000000	00000013	addi	x0,x0,0	  x0:0x00000000
       36985000	      3697	80002470	00000013	addi	x0,x0,0	  x0:0x00000000
       36995000	      3698	80002474	ffdff16f	jal	x2,80002474	  x2=0x80002474
       37005000	      3699	00000000	00000013	addi	x0,x0,0	  x0:0x00000000
       37015000	      3700	8000246c	00000013	addi	x0,x0,0	  x0:0x00000000
       37025000	      3701	80002470	008000ef	jal	x1,80002470	  x1=0x80002470
       37035000	      3702	00000000	00000013	addi	x0,x0,0	  x0:0x00000000
       37045000	      3703	80002474	00000013	addi	x0,x0,0	  x0:0x00000000
       37055000	      3704	80002478	008000ef	jal	x1,80002478	  x1=0x80002478
       37065000	      3705	00000000	00000013	addi	x0,x0,0	  x0:0x00000000
       37075000	      3706	8000247c	00000013	addi	x0,x0,0	  x0:0x00000000
       37085000	      3707	80002480	ffdff0ef	jal	x1,80002480	  x1=0x80002480
       37095000	      3708	00000000	00000013	addi	x0,x0,0	  x0:0x00000000
       37105000	      3709	80002478	00000013	addi	x0,x0,0	  x0:0x00000000
       37115000	      3710	8000247c	fcdffdef	jal	x27,8000247c	 x27=0x8000247c
       37125000	      3711	00000000	00000013	addi	x0,x0,0	  x0:0x00000000
       37135000	      3712	80002444	00000013	addi	x0,x0,0	  x0:0x00000000
       37145000	      3713	80002448	ff5ff0ef	jal	x1,80002448	  x1=0x80002448
       37155000	      3714	00000000	00000013	addi	x0,x0,0	  x0:0x00000000
       37165000	      3715	80002438	00000013	addi	x0,x0,0	  x0:0x00000000
       37175000	      3716	8000243c	048000ef	jal	x1,8000243c	  x1=0x8000243c
       37185000	      3717	00000000	00000013	addi	x0,x0,0	  x0:0x00000000
       37195000	      3718	80002480	00000013	addi	x0,x0,0	  x0:0x00000000
       37205000	      3719	80002484	fc1ff2ef	jal	x5,80002484	  x5=0x80002484
       37215000	      3720	00000000	00000013	addi	x0,x0,0	  x0:0x00000000
       37225000	      3721	80002440	00000013	addi	x0,x0,0	  x0:0x00000000
       37235000	      3722	80002444	0080056f	jal	x10,80002444	 x10=0x80002444
       37245000	      3723	00000000	00000013	addi	x0,x0,0	  x0:0x00000000
       37255000	      3724	80002448	00000013	addi	x0,x0,0	  x0:0x00000000
       37265000	      3725	8000244c	0100036f	jal	x6,8000244c	  x6=0x8000244c
       37275000	      3726	00000000	00000013	addi	x0,x0,0	  x0:0x00000000
       37285000	      3727	80002458	00000013	addi	x0,x0,0	  x0:0x00000000
       37295000	      3728	8000245c	ff5ff36f	jal	x6,8000245c	  x6=0x8000245c
       37305000	      3729	00000000	00000013	addi	x0,x0,0	  x0:0x00000000
       37315000	      3730	8000244c	00000013	addi	x0,x0,0	  x0:0x00000000
       37325000	      3731	80002450	03800bef	jal	x23,80002450	 x23=0x80002450
       37335000	      3732	00000000	00000013	addi	x0,x0,0	  x0:0x00000000
       37345000	      3733	80002484	00000013	addi	x0,x0,0	  x0:0x00000000
       37355000	      3734	80002488	cb05fd13	andi	x26,x11,-848	 x11:0x800023dc x26=0x80002090
       37365000	      3735	8000248c	04000f6f	jal	x30,8000248c	 x30=0x8000248c
       37375000	      3736	00000000	00000013	addi	x0,x0,0	  x0:0x00000000
       37385000	      3737	800024c8	00000013	addi	x0,x0,0	  x0:0x00000000
       37395000	      3738	800024cc	ff9ff0ef	jal	x1,800024cc	  x1=0x800024cc
       37405000	      3739	00000000	00000013	addi	x0,x0,0	  x0:0x00000000
       37415000	      3740	800024c0	00000013	addi	x0,x0,0	  x0:0x00000000
       37425000	      3741	800024c4	010000ef	jal	x1,800024c4	  x1=0x800024c4
       37435000	      3742	00000000	00000013	addi	x0,x0,0	  x0:0x00000000
       37445000	      3743	800024d0	00000013	addi	x0,x0,0	  x0:0x00000000
       37455000	      3744	800024d4	fcdff0ef	jal	x1,800024d4	  x1=0x800024d4
       37465000	      3745	00000000	00000013	addi	x0,x0,0	  x0:0x00000000
       37475000	      3746	8000249c	00000013	addi	x0,x0,0	  x0:0x00000000
       37485000	      3747	800024a0	030000ef	jal	x1,800024a0	  x1=0x800024a0
       37495000	      3748	00000000	00000013	addi	x0,x0,0	  x0:0x00000000
       37505000	      3749	800024cc	00000013	addi	x0,x0,0	  x0:0x00000000
       37515000	      3750	800024d0	fedff0ef	jal	x1,800024d0	  x1=0x800024d0
       37525000	      3751	00000000	00000013	addi	x0,x0,0	  x0:0x00000000
       37535000	      3752	800024b8	00000013	addi	x0,x0,0	  x0:0x00000000
       37545000	      3753	800024bc	fedff0ef	jal	x1,800024bc	  x1=0x800024bc
       37555000	      3754	00000000	00000013	addi	x0,x0,0	  x0:0x00000000
       37565000	      3755	800024a4	00000013	addi	x0,x0,0	  x0:0x00000000
       37575000	      3756	800024a8	fe9ff0ef	jal	x1,800024a8	  x1=0x800024a8
       37585000	      3757	00000000	00000013	addi	x0,x0,0	  x0:0x00000000
       37595000	      3758	8000248c	00000013	addi	x0,x0,0	  x0:0x00000000
       37605000	      3759	80002490	020000ef	jal	x1,80002490	  x1=0x80002490
       37615000	      3760	00000000	00000013	addi	x0,x0,0	  x0:0x00000000
       37625000	      3761	800024ac	00000013	addi	x0,x0,0	  x0:0x00000000
       37635000	      3762	800024b0	02c000ef	jal	x1,800024b0	  x1=0x800024b0
       37645000	      3763	00000000	00000013	addi	x0,x0,0	  x0:0x00000000
       37655000	      3764	800024d8	00000013	addi	x0,x0,0	  x0:0x00000000
       37665000	      3765	800024dc	ffdff0ef	jal	x1,800024dc	  x1=0x800024dc
       37675000	      3766	00000000	00000013	addi	x0,x0,0	  x0:0x00000000
       37685000	      3767	800024d4	00000013	addi	x0,x0,0	  x0:0x00000000
       37695000	      3768	800024d8	ff1ff0ef	jal	x1,800024d8	  x1=0x800024d8
       37705000	      3769	00000000	00000013	addi	x0,x0,0	  x0:0x00000000
       37715000	      3770	800024c4	00000013	addi	x0,x0,0	  x0:0x00000000
       37725000	      3771	800024c8	ff1ff0ef	jal	x1,800024c8	  x1=0x800024c8
       37735000	      3772	00000000	00000013	addi	x0,x0,0	  x0:0x00000000
       37745000	      3773	800024b4	00000013	addi	x0,x0,0	  x0:0x00000000
       37755000	      3774	800024b8	fddff0ef	jal	x1,800024b8	  x1=0x800024b8
       37765000	      3775	00000000	00000013	addi	x0,x0,0	  x0:0x00000000
       37775000	      3776	80002490	00000013	addi	x0,x0,0	  x0:0x00000000
       37785000	      3777	80002494	0100036f	jal	x6,80002494	  x6=0x80002494
       37795000	      3778	00000000	00000013	addi	x0,x0,0	  x0:0x00000000
       37805000	      3779	800024a0	00000013	addi	x0,x0,0	  x0:0x00000000
       37815000	      3780	800024a4	ff9ff0ef	jal	x1,800024a4	  x1=0x800024a4
       37825000	      3781	00000000	00000013	addi	x0,x0,0	  x0:0x00000000
       37835000	      3782	80002498	00000013	addi	x0,x0,0	  x0:0x00000000
       37845000	      3783	8000249c	02400def	jal	x27,8000249c	 x27=0x8000249c
       37855000	      3784	00000000	00000013	addi	x0,x0,0	  x0:0x00000000
       37865000	      3785	800024bc	00000013	addi	x0,x0,0	  x0:0x00000000
       37875000	      3786	800024c0	030000ef	jal	x1,800024c0	  x1=0x800024c0
       37885000	      3787	00000000	00000013	addi	x0,x0,0	  x0:0x00000000
       37895000	      3788	800024ec	00000013	addi	x0,x0,0	  x0:0x00000000
       37905000	      3789	800024f0	ff1ff0ef	jal	x1,800024f0	  x1=0x800024f0
       37915000	      3790	00000000	00000013	addi	x0,x0,0	  x0:0x00000000
       37925000	      3791	800024dc	00000013	addi	x0,x0,0	  x0:0x00000000
       37935000	      3792	800024e0	0140016f	jal	x2,800024e0	  x2=0x800024e0
       37945000	      3793	00000000	00000013	addi	x0,x0,0	  x0:0x00000000
       37955000	      3794	800024f0	00000013	addi	x0,x0,0	  x0:0x00000000
       37965000	      3795	800024f4	ff5ff36f	jal	x6,800024f4	  x6=0x800024f4
       37975000	      3796	00000000	00000013	addi	x0,x0,0	  x0:0x00000000
       37985000	      3797	800024e4	00000013	addi	x0,x0,0	  x0:0x00000000
       37995000	      3798	800024e8	004000ef	jal	x1,800024e8	  x1=0x800024e8
       38005000	      3799	00000000	00000013	addi	x0,x0,0	  x0:0x00000000
       38015000	      3800	800024e8	00000013	addi	x0,x0,0	  x0:0x00000000
       38025000	      3801	800024ec	fadff6ef	jal	x13,800024ec	 x13=0x800024ec
       38035000	      3802	00000000	00000013	addi	x0,x0,0	  x0:0x00000000
       38045000	      3803	80002494	00000013	addi	x0,x0,0	  x0:0x00000000
       38055000	      3804	80002498	0140016f	jal	x2,80002498	  x2=0x80002498
       38065000	      3805	00000000	00000013	addi	x0,x0,0	  x0:0x00000000
       38075000	      3806	800024a8	00000013	addi	x0,x0,0	  x0:0x00000000
       38085000	      3807	800024ac	0080036f	jal	x6,800024ac	  x6=0x800024ac
       38095000	      3808	00000000	00000013	addi	x0,x0,0	  x0:0x00000000
       38105000	      3809	800024b0	00000013	addi	x0,x0,0	  x0:0x00000000
       38115000	      3810	800024b4	030000ef	jal	x1,800024b4	  x1=0x800024b4
       38125000	      3811	00000000	00000013	addi	x0,x0,0	  x0:0x00000000
       38135000	      3812	800024e0	00000013	addi	x0,x0,0	  x0:0x00000000
       38145000	      3813	800024e4	0140036f	jal	x6,800024e4	  x6=0x800024e4
       38155000	      3814	00000000	00000013	addi	x0,x0,0	  x0:0x00000000
       38165000	      3815	800024f4	00000013	addi	x0,x0,0	  x0:0x00000000
       38175000	      3816	800024f8	41a68d33	sub	x26,x13,x26	 x13:0x800024ec x26:0x80002090 x26=0x0000045c
       38185000	      3817	800024fc	00c00f6f	jal	x30,800024fc	 x30=0x800024fc
       38195000	      3818	00000000	00000013	addi	x0,x0,0	  x0:0x00000000
       38205000	      3819	80002504	00000013	addi	x0,x0,0	  x0:0x00000000
       38215000	      3820	80002508	ff9ff0ef	jal	x1,80002508	  x1=0x80002508
       38225000	      3821	00000000	00000013	addi	x0,x0,0	  x0:0x00000000
       38235000	      3822	800024fc	00000013	addi	x0,x0,0	  x0:0x00000000
       38245000	      3823	80002500	0500016f	jal	x2,80002500	  x2=0x80002500
       38255000	      3824	00000000	00000013	addi	x0,x0,0	  x0:0x00000000
       38265000	      3825	8000254c	00000013	addi	x0,x0,0	  x0:0x00000000
       38275000	      3826	80002550	fb5ff0ef	jal	x1,80002550	  x1=0x80002550
       38285000	      3827	00000000	00000013	addi	x0,x0,0	  x0:0x00000000
       38295000	      3828	80002500	00000013	addi	x0,x0,0	  x0:0x00000000
       38305000	      3829	80002504	0280036f	jal	x6,80002504	  x6=0x80002504
       38315000	      3830	00000000	00000013	addi	x0,x0,0	  x0:0x00000000
       38325000	      3831	80002528	00000013	addi	x0,x0,0	  x0:0x00000000
       38335000	      3832	8000252c	0140036f	jal	x6,8000252c	  x6=0x8000252c
       38345000	      3833	00000000	00000013	addi	x0,x0,0	  x0:0x00000000
       38355000	      3834	8000253c	00000013	addi	x0,x0,0	  x0:0x00000000
       38365000	      3835	80002540	ff9ff0ef	jal	x1,80002540	  x1=0x80002540
       38375000	      3836	00000000	00000013	addi	x0,x0,0	  x0:0x00000000
       38385000	      3837	80002534	00000013	addi	x0,x0,0	  x0:0x00000000
       38395000	      3838	80002538	fe9ff36f	jal	x6,80002538	  x6=0x80002538
       38405000	      3839	00000000	00000013	addi	x0,x0,0	  x0:0x00000000
       38415000	      3840	8000251c	00000013	addi	x0,x0,0	  x0:0x00000000
       38425000	      3841	80002520	ffdff0ef	jal	x1,80002520	  x1=0x80002520
       38435000	      3842	00000000	00000013	addi	x0,x0,0	  x0:0x00000000
       38445000	      3843	80002518	00000013	addi	x0,x0,0	  x0:0x00000000
       38455000	      3844	8000251c	ffdff4ef	jal	x9,8000251c	  x9=0x8000251c
       38465000	      3845	00000000	00000013	addi	x0,x0,0	  x0:0x00000000
       38475000	      3846	80002514	00000013	addi	x0,x0,0	  x0:0x00000000
       38485000	      3847	80002518	02c000ef	jal	x1,80002518	  x1=0x80002518
       38495000	      3848	00000000	00000013	addi	x0,x0,0	  x0:0x00000000
       38505000	      3849	80002540	00000013	addi	x0,x0,0	  x0:0x00000000
       38515000	      3850	80002544	018000ef	jal	x1,80002544	  x1=0x80002544
       38525000	      3851	00000000	00000013	addi	x0,x0,0	  x0:0x00000000
       38535000	      3852	80002558	00000013	addi	x0,x0,0	  x0:0x00000000
       38545000	      3853	8000255c	fb1ff0ef	jal	x1,8000255c	  x1=0x8000255c
       38555000	      3854	00000000	00000013	addi	x0,x0,0	  x0:0x00000000
       38565000	      3855	80002508	00000013	addi	x0,x0,0	  x0:0x00000000
       38575000	      3856	8000250c	040004ef	jal	x9,8000250c	  x9=0x8000250c
       38585000	      3857	00000000	00000013	addi	x0,x0,0	  x0:0x00000000
       38595000	      3858	80002548	00000013	addi	x0,x0,0	  x0:0x00000000
       38605000	      3859	8000254c	ffdff0ef	jal	x1,8000254c	  x1=0x8000254c
       38615000	      3860	00000000	00000013	addi	x0,x0,0	  x0:0x00000000
       38625000	      3861	80002544	00000013	addi	x0,x0,0	  x0:0x00000000
       38635000	      3862	80002548	fe1ff0ef	jal	x1,80002548	  x1=0x80002548
       38645000	      3863	00000000	00000013	addi	x0,x0,0	  x0:0x00000000
       38655000	      3864	80002524	00000013	addi	x0,x0,0	  x0:0x00000000
       38665000	      3865	80002528	fedff0ef	jal	x1,80002528	  x1=0x80002528
       38675000	      3866	00000000	00000013	addi	x0,x0,0	  x0:0x00000000
       38685000	      3867	80002510	00000013	addi	x0,x0,0	  x0:0x00000000
       38695000	      3868	80002514	04c000ef	jal	x1,80002514	  x1=0x80002514
       38705000	      3869	00000000	00000013	addi	x0,x0,0	  x0:0x00000000
       38715000	      3870	8000255c	00000013	addi	x0,x0,0	  x0:0x00000000
       38725000	      3871	80002560	fb1ffd6f	jal	x26,80002560	 x26=0x80002560
       38735000	      3872	00000000	00000013	addi	x0,x0,0	  x0:0x00000000
       38745000	      3873	8000250c	00000013	addi	x0,x0,0	  x0:0x00000000
       38755000	      3874	80002510	020007ef	jal	x15,80002510	 x15=0x80002510
       38765000	      3875	00000000	00000013	addi	x0,x0,0	  x0:0x00000000
       38775000	      3876	8000252c	00000013	addi	x0,x0,0	  x0:0x00000000
       38785000	      3877	80002530	02400f6f	jal	x30,80002530	 x30=0x80002530
       38795000	      3878	00000000	00000013	addi	x0,x0,0	  x0:0x00000000
       38805000	      3879	80002550	00000013	addi	x0,x0,0	  x0:0x00000000
       38815000	      3880	80002554	fe1ff36f	jal	x6,80002554	  x6=0x80002554
       38825000	      3881	00000000	00000013	addi	x0,x0,0	  x0:0x00000000
       38835000	      3882	80002530	00000013	addi	x0,x0,0	  x0:0x00000000
       38845000	      3883	80002534	02400a6f	jal	x20,80002534	 x20=0x80002534
       38855000	      3884	00000000	00000013	addi	x0,x0,0	  x0:0x00000000
       38865000	      3885	80002554	00000013	addi	x0,x0,0	  x0:0x00000000
       38875000	      3886	80002558	fe5ff0ef	jal	x1,80002558	  x1=0x80002558
       38885000	      3887	00000000	00000013	addi	x0,x0,0	  x0:0x00000000
       38895000	      3888	80002538	00000013	addi	x0,x0,0	  x0:0x00000000
       38905000	      3889	8000253c	fe9ff36f	jal	x6,8000253c	  x6=0x8000253c
       38915000	      3890	00000000	00000013	addi	x0,x0,0	  x0:0x00000000
       38925000	      3891	80002520	00000013	addi	x0,x0,0	  x0:0x00000000
       38935000	      3892	80002524	040000ef	jal	x1,80002524	  x1=0x80002524
       38945000	      3893	00000000	00000013	addi	x0,x0,0	  x0:0x00000000
       38955000	      3894	80002560	00000013	addi	x0,x0,0	  x0:0x00000000
       38965000	      3895	80002564	01a401b3	add	x3,x8,x26	  x8:0x800023ac x26:0x80002560  x3=0x0000490c
       38975000	      3896	80002568	04c00f6f	jal	x30,80002568	 x30=0x80002568
       38985000	      3897	00000000	00000013	addi	x0,x0,0	  x0:0x00000000
       38995000	      3898	800025b0	00000013	addi	x0,x0,0	  x0:0x00000000
       39005000	      3899	800025b4	fe1ff0ef	jal	x1,800025b4	  x1=0x800025b4
       39015000	      3900	00000000	00000013	addi	x0,x0,0	  x0:0x00000000
       39025000	      3901	80002590	00000013	addi	x0,x0,0	  x0:0x00000000
       39035000	      3902	80002594	ffdffd6f	jal	x26,80002594	 x26=0x80002594
       39045000	      3903	00000000	00000013	addi	x0,x0,0	  x0:0x00000000
       39055000	      3904	8000258c	00000013	addi	x0,x0,0	  x0:0x00000000
       39065000	      3905	80002590	0100036f	jal	x6,80002590	  x6=0x80002590
       39075000	      3906	00000000	00000013	addi	x0,x0,0	  x0:0x00000000
       39085000	      3907	8000259c	00000013	addi	x0,x0,0	  x0:0x00000000
       39095000	      3908	800025a0	fd9ffcef	jal	x25,800025a0	 x25=0x800025a0
       39105000	      3909	00000000	00000013	addi	x0,x0,0	  x0:0x00000000
       39115000	      3910	80002574	00000013	addi	x0,x0,0	  x0:0x00000000
       39125000	      3911	80002578	00400d6f	jal	x26,80002578	 x26=0x80002578
       39135000	      3912	00000000	00000013	addi	x0,x0,0	  x0:0x00000000
       39145000	      3913	80002578	00000013	addi	x0,x0,0	  x0:0x00000000
       39155000	      3914	8000257c	ff1ff0ef	jal	x1,8000257c	  x1=0x8000257c
       39165000	      3915	00000000	00000013	addi	x0,x0,0	  x0:0x00000000
       39175000	      3916	80002568	00000013	addi	x0,x0,0	  x0:0x00000000
       39185000	      3917	8000256c	03c000ef	jal	x1,8000256c	  x1=0x8000256c
       39195000	      3918	00000000	00000013	addi	x0,x0,0	  x0:0x00000000
       39205000	      3919	800025a4	00000013	addi	x0,x0,0	  x0:0x00000000
       39215000	      3920	800025a8	fddff0ef	jal	x1,800025a8	  x1=0x800025a8
       39225000	      3921	00000000	00000013	addi	x0,x0,0	  x0:0x00000000
       39235000	      3922	80002580	00000013	addi	x0,x0,0	  x0:0x00000000
       39245000	      3923	80002584	014000ef	jal	x1,80002584	  x1=0x80002584
       39255000	      3924	00000000	00000013	addi	x0,x0,0	  x0:0x00000000
       39265000	      3925	80002594	00000013	addi	x0,x0,0	  x0:0x00000000
       39275000	      3926	80002598	028000ef	jal	x1,80002598	  x1=0x80002598
       39285000	      3927	00000000	00000013	addi	x0,x0,0	  x0:0x00000000
       39295000	      3928	800025bc	00000013	addi	x0,x0,0	  x0:0x00000000
       39305000	      3929	800025c0	fddff8ef	jal	x17,800025c0	 x17=0x800025c0
       39315000	      3930	00000000	00000013	addi	x0,x0,0	  x0:0x00000000
       39325000	      3931	80002598	00000013	addi	x0,x0,0	  x0:0x00000000
       39335000	      3932	8000259c	fd9ff0ef	jal	x1,8000259c	  x1=0x8000259c
       39345000	      3933	00000000	00000013	addi	x0,x0,0	  x0:0x00000000
       39355000	      3934	80002570	00000013	addi	x0,x0,0	  x0:0x00000000
       39365000	      3935	80002574	00c0036f	jal	x6,80002574	  x6=0x80002574
       39375000	      3936	00000000	00000013	addi	x0,x0,0	  x0:0x00000000
       39385000	      3937	8000257c	00000013	addi	x0,x0,0	  x0:0x00000000
       39395000	      3938	80002580	ff1ff26f	jal	x4,80002580	  x4=0x80002580
       39405000	      3939	00000000	00000013	addi	x0,x0,0	  x0:0x00000000
       39415000	      3940	8000256c	00000013	addi	x0,x0,0	  x0:0x00000000
       39425000	      3941	80002570	03c0026f	jal	x4,80002570	  x4=0x80002570
       39435000	      3942	00000000	00000013	addi	x0,x0,0	  x0:0x00000000
       39445000	      3943	800025a8	00000013	addi	x0,x0,0	  x0:0x00000000
       39455000	      3944	800025ac	fe1ff0ef	jal	x1,800025ac	  x1=0x800025ac
       39465000	      3945	00000000	00000013	addi	x0,x0,0	  x0:0x00000000
       39475000	      3946	80002588	00000013	addi	x0,x0,0	  x0:0x00000000
       39485000	      3947	8000258c	030000ef	jal	x1,8000258c	  x1=0x8000258c
       39495000	      3948	00000000	00000013	addi	x0,x0,0	  x0:0x00000000
       39505000	      3949	800025b8	00000013	addi	x0,x0,0	  x0:0x00000000
       39515000	      3950	800025bc	fcdff56f	jal	x10,800025bc	 x10=0x800025bc
       39525000	      3951	00000000	00000013	addi	x0,x0,0	  x0:0x00000000
       39535000	      3952	80002584	00000013	addi	x0,x0,0	  x0:0x00000000
       39545000	      3953	80002588	030000ef	jal	x1,80002588	  x1=0x80002588
       39555000	      3954	00000000	00000013	addi	x0,x0,0	  x0:0x00000000
       39565000	      3955	800025b4	00000013	addi	x0,x0,0	  x0:0x00000000
       39575000	      3956	800025b8	ff9ff0ef	jal	x1,800025b8	  x1=0x800025b8
       39585000	      3957	00000000	00000013	addi	x0,x0,0	  x0:0x00000000
       39595000	      3958	800025ac	00000013	addi	x0,x0,0	  x0:0x00000000
       39605000	      3959	800025b0	ff5ff0ef	jal	x1,800025b0	  x1=0x800025b0
       39615000	      3960	00000000	00000013	addi	x0,x0,0	  x0:0x00000000
       39625000	      3961	800025a0	00000013	addi	x0,x0,0	  x0:0x00000000
       39635000	      3962	800025a4	02000def	jal	x27,800025a4	 x27=0x800025a4
       39645000	      3963	00000000	00000013	addi	x0,x0,0	  x0:0x00000000
       39655000	      3964	800025c0	00000013	addi	x0,x0,0	  x0:0x00000000
       39665000	      3965	800025c4	8d497513	andi	x10,x18,-1836	 x18:0x80009efc x10=0x800098d4
       39675000	      3966	800025c8	00400f6f	jal	x30,800025c8	 x30=0x800025c8
       39685000	      3967	00000000	00000013	addi	x0,x0,0	  x0:0x00000000
       39695000	      3968	800025c8	00000013	addi	x0,x0,0	  x0:0x00000000
       39705000	      3969	800025cc	01c00d6f	jal	x26,800025cc	 x26=0x800025cc
       39715000	      3970	00000000	00000013	addi	x0,x0,0	  x0:0x00000000
       39725000	      3971	800025e4	00000013	addi	x0,x0,0	  x0:0x00000000
       39735000	      3972	800025e8	008008ef	jal	x17,800025e8	 x17=0x800025e8
       39745000	      3973	00000000	00000013	addi	x0,x0,0	  x0:0x00000000
       39755000	      3974	800025ec	00000013	addi	x0,x0,0	  x0:0x00000000
       39765000	      3975	800025f0	0040036f	jal	x6,800025f0	  x6=0x800025f0
       39775000	      3976	00000000	00000013	addi	x0,x0,0	  x0:0x00000000
       39785000	      3977	800025f0	00000013	addi	x0,x0,0	  x0:0x00000000
       39795000	      3978	800025f4	fe5ff0ef	jal	x1,800025f4	  x1=0x800025f4
       39805000	      3979	00000000	00000013	addi	x0,x0,0	  x0:0x00000000
       39815000	      3980	800025d4	00000013	addi	x0,x0,0	  x0:0x00000000
       39825000	      3981	800025d8	014000ef	jal	x1,800025d8	  x1=0x800025d8
       39835000	      3982	00000000	00000013	addi	x0,x0,0	  x0:0x00000000
       39845000	      3983	800025e8	00000013	addi	x0,x0,0	  x0:0x00000000
       39855000	      3984	800025ec	0200026f	jal	x4,800025ec	  x4=0x800025ec
       39865000	      3985	00000000	00000013	addi	x0,x0,0	  x0:0x00000000
       39875000	      3986	80002608	00000013	addi	x0,x0,0	  x0:0x00000000
       39885000	      3987	8000260c	fd1fff6f	jal	x30,8000260c	 x30=0x8000260c
       39895000	      3988	00000000	00000013	addi	x0,x0,0	  x0:0x00000000
       39905000	      3989	800025d8	00000013	addi	x0,x0,0	  x0:0x00000000
       39915000	      3990	800025dc	004000ef	jal	x1,800025dc	  x1=0x800025dc
       39925000	      3991	00000000	00000013	addi	x0,x0,0	  x0:0x00000000
       39935000	      3992	800025dc	00000013	addi	x0,x0,0	  x0:0x00000000
       39945000	      3993	800025e0	024000ef	jal	x1,800025e0	  x1=0x800025e0
       39955000	      3994	00000000	00000013	addi	x0,x0,0	  x0:0x00000000
       39965000	      3995	80002600	00000013	addi	x0,x0,0	  x0:0x00000000
       39975000	      3996	80002604	fd1ff0ef	jal	x1,80002604	  x1=0x80002604
       39985000	      3997	00000000	00000013	addi	x0,x0,0	  x0:0x00000000
       39995000	      3998	800025d0	00000013	addi	x0,x0,0	  x0:0x00000000
       40005000	      3999	800025d4	024000ef	jal	x1,800025d4	  x1=0x800025d4
       40015000	      4000	00000000	00000013	addi	x0,x0,0	  x0:0x00000000
       40025000	      4001	800025f4	00000013	addi	x0,x0,0	  x0:0x00000000
       40035000	      4002	800025f8	008000ef	jal	x1,800025f8	  x1=0x800025f8
       40045000	      4003	00000000	00000013	addi	x0,x0,0	  x0:0x00000000
       40055000	      4004	800025fc	00000013	addi	x0,x0,0	  x0:0x00000000
       40065000	      4005	80002600	00800a6f	jal	x20,80002600	 x20=0x80002600
       40075000	      4006	00000000	00000013	addi	x0,x0,0	  x0:0x00000000
       40085000	      4007	80002604	00000013	addi	x0,x0,0	  x0:0x00000000
       40095000	      4008	80002608	fc9ff2ef	jal	x5,80002608	  x5=0x80002608
       40105000	      4009	00000000	00000013	addi	x0,x0,0	  x0:0x00000000
       40115000	      4010	800025cc	00000013	addi	x0,x0,0	  x0:0x00000000
       40125000	      4011	800025d0	014000ef	jal	x1,800025d0	  x1=0x800025d0
       40135000	      4012	00000000	00000013	addi	x0,x0,0	  x0:0x00000000
       40145000	      4013	800025e0	00000013	addi	x0,x0,0	  x0:0x00000000
       40155000	      4014	800025e4	0180036f	jal	x6,800025e4	  x6=0x800025e4
       40165000	      4015	00000000	00000013	addi	x0,x0,0	  x0:0x00000000
       40175000	      4016	800025f8	00000013	addi	x0,x0,0	  x0:0x00000000
       40185000	      4017	800025fc	014000ef	jal	x1,800025fc	  x1=0x800025fc
       40195000	      4018	00000000	00000013	addi	x0,x0,0	  x0:0x00000000
       40205000	      4019	8000260c	00000013	addi	x0,x0,0	  x0:0x00000000
       40215000	      4020	80002610	00fa67b3	or	x15,x20,x15	 x20:0x80002600 x15:0x80002510 x15=0x80002710
       40225000	      4021	80002614	00800f6f	jal	x30,80002614	 x30=0x80002614
       40235000	      4022	00000000	00000013	addi	x0,x0,0	  x0:0x00000000
       40245000	      4023	80002618	00000013	addi	x0,x0,0	  x0:0x00000000
       40255000	      4024	8000261c	ffdff0ef	jal	x1,8000261c	  x1=0x8000261c
       40265000	      4025	00000000	00000013	addi	x0,x0,0	  x0:0x00000000
       40275000	      4026	80002614	00000013	addi	x0,x0,0	  x0:0x00000000
       40285000	      4027	80002618	02c000ef	jal	x1,80002618	  x1=0x80002618
       40295000	      4028	00000000	00000013	addi	x0,x0,0	  x0:0x00000000
       40305000	      4029	80002640	00000013	addi	x0,x0,0	  x0:0x00000000
       40315000	      4030	80002644	0040026f	jal	x4,80002644	  x4=0x80002644
       40325000	      4031	00000000	00000013	addi	x0,x0,0	  x0:0x00000000
       40335000	      4032	80002644	00000013	addi	x0,x0,0	  x0:0x00000000
       40345000	      4033	80002648	ff5ff0ef	jal	x1,80002648	  x1=0x80002648
       40355000	      4034	00000000	00000013	addi	x0,x0,0	  x0:0x00000000
       40365000	      4035	80002638	00000013	addi	x0,x0,0	  x0:0x00000000
       40375000	      4036	8000263c	ff1ff16f	jal	x2,8000263c	  x2=0x8000263c
       40385000	      4037	00000000	00000013	addi	x0,x0,0	  x0:0x00000000
       40395000	      4038	80002628	00000013	addi	x0,x0,0	  x0:0x00000000
       40405000	      4039	8000262c	ff5ff0ef	jal	x1,8000262c	  x1=0x8000262c
       40415000	      4040	00000000	00000013	addi	x0,x0,0	  x0:0x00000000
       40425000	      4041	8000261c	00000013	addi	x0,x0,0	  x0:0x00000000
       40435000	      4042	80002620	014000ef	jal	x1,80002620	  x1=0x80002620
       40445000	      4043	00000000	00000013	addi	x0,x0,0	  x0:0x00000000
       40455000	      4044	80002630	00000013	addi	x0,x0,0	  x0:0x00000000
       40465000	      4045	80002634	ff1ff0ef	jal	x1,80002634	  x1=0x80002634
       40475000	      4046	00000000	00000013	addi	x0,x0,0	  x0:0x00000000
       40485000	      4047	80002620	00000013	addi	x0,x0,0	  x0:0x00000000
       40495000	      4048	80002624	01c00a6f	jal	x20,80002624	 x20=0x80002624
       40505000	      4049	00000000	00000013	addi	x0,x0,0	  x0:0x00000000
       40515000	      4050	8000263c	00000013	addi	x0,x0,0	  x0:0x00000000
       40525000	      4051	80002640	ff1ff3ef	jal	x7,80002640	  x7=0x80002640
       40535000	      4052	00000000	00000013	addi	x0,x0,0	  x0:0x00000000
       40545000	      4053	8000262c	00000013	addi	x0,x0,0	  x0:0x00000000
       40555000	      4054	80002630	ff9ff8ef	jal	x17,80002630	 x17=0x80002630
       40565000	      4055	00000000	00000013	addi	x0,x0,0	  x0:0x00000000
       40575000	      4056	80002624	00000013	addi	x0,x0,0	  x0:0x00000000
       40585000	      4057	80002628	024000ef	jal	x1,80002628	  x1=0x80002628
       40595000	      4058	00000000	00000013	addi	x0,x0,0	  x0:0x00000000
       40605000	      4059	80002648	00000013	addi	x0,x0,0	  x0:0x00000000
       40615000	      4060	8000264c	fedff0ef	jal	x1,8000264c	  x1=0x8000264c
       40625000	      4061	00000000	00000013	addi	x0,x0,0	  x0:0x00000000
       40635000	      4062	80002634	00000013	addi	x0,x0,0	  x0:0x00000000
       40645000	      4063	80002638	01800e6f	jal	x28,80002638	 x28=0x80002638
       40655000	      4064	00000000	00000013	addi	x0,x0,0	  x0:0x00000000
       40665000	      4065	8000264c	00000013	addi	x0,x0,0	  x0:0x00000000
       40675000	      4066	80002650	01ca9733	sll	x14,x21,x28	 x21:0x800023d4 x28:0x80002638 x14=0xd4000000
       40685000	      4067	80002654	02800f6f	jal	x30,80002654	 x30=0x80002654
       40695000	      4068	00000000	00000013	addi	x0,x0,0	  x0:0x00000000
       40705000	      4069	80002678	00000013	addi	x0,x0,0	  x0:0x00000000
       40715000	      4070	8000267c	0200026f	jal	x4,8000267c	  x4=0x8000267c
       40725000	      4071	00000000	00000013	addi	x0,x0,0	  x0:0x00000000
       40735000	      4072	80002698	00000013	addi	x0,x0,0	  x0:0x00000000
       40745000	      4073	8000269c	ff9ff0ef	jal	x1,8000269c	  x1=0x8000269c
       40755000	      4074	00000000	00000013	addi	x0,x0,0	  x0:0x00000000
       40765000	      4075	80002690	00000013	addi	x0,x0,0	  x0:0x00000000
       40775000	      4076	80002694	ffdff0ef	jal	x1,80002694	  x1=0x80002694
       40785000	      4077	00000000	00000013	addi	x0,x0,0	  x0:0x00000000
       40795000	      4078	8000268c	00000013	addi	x0,x0,0	  x0:0x00000000
       40805000	      4079	80002690	014000ef	jal	x1,80002690	  x1=0x80002690
       40815000	      4080	00000000	00000013	addi	x0,x0,0	  x0:0x00000000
       40825000	      4081	800026a0	00000013	addi	x0,x0,0	  x0:0x00000000
       40835000	      4082	800026a4	fb5ff0ef	jal	x1,800026a4	  x1=0x800026a4
       40845000	      4083	00000000	00000013	addi	x0,x0,0	  x0:0x00000000
       40855000	      4084	80002654	00000013	addi	x0,x0,0	  x0:0x00000000
       40865000	      4085	80002658	00800d6f	jal	x26,80002658	 x26=0x80002658
       40875000	      4086	00000000	00000013	addi	x0,x0,0	  x0:0x00000000
       40885000	      4087	8000265c	00000013	addi	x0,x0,0	  x0:0x00000000
       40895000	      4088	80002660	024000ef	jal	x1,80002660	  x1=0x80002660
       40905000	      4089	00000000	00000013	addi	x0,x0,0	  x0:0x00000000
       40915000	      4090	80002680	00000013	addi	x0,x0,0	  x0:0x00000000
       40925000	      4091	80002684	fe5ff36f	jal	x6,80002684	  x6=0x80002684
       40935000	      4092	00000000	00000013	addi	x0,x0,0	  x0:0x00000000
       40945000	      4093	80002664	00000013	addi	x0,x0,0	  x0:0x00000000
       40955000	      4094	80002668	0180066f	jal	x12,80002668	 x12=0x80002668
       40965000	      4095	00000000	00000013	addi	x0,x0,0	  x0:0x00000000
       40975000	      4096	8000267c	00000013	addi	x0,x0,0	  x0:0x00000000
       40985000	      4097	80002680	0080036f	jal	x6,80002680	  x6=0x80002680
       40995000	      4098	00000000	00000013	addi	x0,x0,0	  x0:0x00000000
       41005000	      4099	80002684	00000013	addi	x0,x0,0	  x0:0x00000000
       41015000	      4100	80002688	fddff36f	jal	x6,80002688	  x6=0x80002688
       41025000	      4101	00000000	00000013	addi	x0,x0,0	  x0:0x00000000
       41035000	      4102	80002660	00000013	addi	x0,x0,0	  x0:0x00000000
       41045000	      4103	80002664	0140036f	jal	x6,80002664	  x6=0x80002664
       41055000	      4104	00000000	00000013	addi	x0,x0,0	  x0:0x00000000
       41065000	      4105	80002674	00000013	addi	x0,x0,0	  x0:0x00000000
       41075000	      4106	80002678	0200036f	jal	x6,80002678	  x6=0x80002678
       41085000	      4107	00000000	00000013	addi	x0,x0,0	  x0:0x00000000
       41095000	      4108	80002694	00000013	addi	x0,x0,0	  x0:0x00000000
       41105000	      4109	80002698	fddff0ef	jal	x1,80002698	  x1=0x80002698
       41115000	      4110	00000000	00000013	addi	x0,x0,0	  x0:0x00000000
       41125000	      4111	80002670	00000013	addi	x0,x0,0	  x0:0x00000000
       41135000	      4112	80002674	034000ef	jal	x1,80002674	  x1=0x80002674
       41145000	      4113	00000000	00000013	addi	x0,x0,0	  x0:0x00000000
       41155000	      4114	800026a4	00000013	addi	x0,x0,0	  x0:0x00000000
       41165000	      4115	800026a8	fb5ff36f	jal	x6,800026a8	  x6=0x800026a8
       41175000	      4116	00000000	00000013	addi	x0,x0,0	  x0:0x00000000
       41185000	      4117	80002658	00000013	addi	x0,x0,0	  x0:0x00000000
       41195000	      4118	8000265c	0140036f	jal	x6,8000265c	  x6=0x8000265c
       41205000	      4119	00000000	00000013	addi	x0,x0,0	  x0:0x00000000
       41215000	      4120	8000266c	00000013	addi	x0,x0,0	  x0:0x00000000
       41225000	      4121	80002670	0300016f	jal	x2,80002670	  x2=0x80002670
       41235000	      4122	00000000	00000013	addi	x0,x0,0	  x0:0x00000000
       41245000	      4123	8000269c	00000013	addi	x0,x0,0	  x0:0x00000000
       41255000	      4124	800026a0	fcdff0ef	jal	x1,800026a0	  x1=0x800026a0
       41265000	      4125	00000000	00000013	addi	x0,x0,0	  x0:0x00000000
       41275000	      4126	80002668	00000013	addi	x0,x0,0	  x0:0x00000000
       41285000	      4127	8000266c	0200036f	jal	x6,8000266c	  x6=0x8000266c
       41295000	      4128	00000000	00000013	addi	x0,x0,0	  x0:0x00000000
       41305000	      4129	80002688	00000013	addi	x0,x0,0	  x0:0x00000000
       41315000	      4130	8000268c	020002ef	jal	x5,8000268c	  x5=0x8000268c
       41325000	      4131	00000000	00000013	addi	x0,x0,0	  x0:0x00000000
       41335000	      4132	800026a8	00000013	addi	x0,x0,0	  x0:0x00000000
       41345000	      4133	800026ac	40f45533	sra	x10,x8,x15	  x8:0x800023ac x15:0x80002710 x10=0xffff8000
       41355000	      4134	800026b0	00400f6f	jal	x30,800026b0	 x30=0x800026b0
       41365000	      4135	00000000	00000013	addi	x0,x0,0	  x0:0x00000000
       41375000	      4136	800026b0	00000013	addi	x0,x0,0	  x0:0x00000000
       41385000	      4137	800026b4	024000ef	jal	x1,800026b4	  x1=0x800026b4
       41395000	      4138	00000000	00000013	addi	x0,x0,0	  x0:0x00000000
       41405000	      4139	800026d4	00000013	addi	x0,x0,0	  x0:0x00000000
       41415000	      4140	800026d8	ff9ff9ef	jal	x19,800026d8	 x19=0x800026d8
       41425000	      4141	00000000	00000013	addi	x0,x0,0	  x0:0x00000000
       41435000	      4142	800026cc	00000013	addi	x0,x0,0	  x0:0x00000000
       41445000	      4143	800026d0	ff5ff0ef	jal	x1,800026d0	  x1=0x800026d0
       41455000	      4144	00000000	00000013	addi	x0,x0,0	  x0:0x00000000
       41465000	      4145	800026c0	00000013	addi	x0,x0,0	  x0:0x00000000
       41475000	      4146	800026c4	ff5ff0ef	jal	x1,800026c4	  x1=0x800026c4
       41485000	      4147	00000000	00000013	addi	x0,x0,0	  x0:0x00000000
       41495000	      4148	800026b4	00000013	addi	x0,x0,0	  x0:0x00000000
       41505000	      4149	800026b8	01c000ef	jal	x1,800026b8	  x1=0x800026b8
       41515000	      4150	00000000	00000013	addi	x0,x0,0	  x0:0x00000000
       41525000	      4151	800026d0	00000013	addi	x0,x0,0	  x0:0x00000000
       41535000	      4152	800026d4	ff5ff0ef	jal	x1,800026d4	  x1=0x800026d4
       41545000	      4153	00000000	00000013	addi	x0,x0,0	  x0:0x00000000
       41555000	      4154	800026c4	00000013	addi	x0,x0,0	  x0:0x00000000
       41565000	      4155	800026c8	ff5ff0ef	jal	x1,800026c8	  x1=0x800026c8
       41575000	      4156	00000000	00000013	addi	x0,x0,0	  x0:0x00000000
       41585000	      4157	800026b8	00000013	addi	x0,x0,0	  x0:0x00000000
       41595000	      4158	800026bc	010000ef	jal	x1,800026bc	  x1=0x800026bc
       41605000	      4159	00000000	00000013	addi	x0,x0,0	  x0:0x00000000
       41615000	      4160	800026c8	00000013	addi	x0,x0,0	  x0:0x00000000
       41625000	      4161	800026cc	ff5ff36f	jal	x6,800026cc	  x6=0x800026cc
       41635000	      4162	00000000	00000013	addi	x0,x0,0	  x0:0x00000000
       41645000	      4163	800026bc	00000013	addi	x0,x0,0	  x0:0x00000000
       41655000	      4164	800026c0	01c0016f	jal	x2,800026c0	  x2=0x800026c0
       41665000	      4165	00000000	00000013	addi	x0,x0,0	  x0:0x00000000
       41675000	      4166	800026d8	00000013	addi	x0,x0,0	  x0:0x00000000
       41685000	      4167	800026dc	00d73233	sltu	x4,x14,x13	 x14:0xd4000000 x13:0x800024ec  x4=0x00000000
       41695000	      4168	800026e0	03400f6f	jal	x30,800026e0	 x30=0x800026e0
       41705000	      4169	00000000	00000013	addi	x0,x0,0	  x0:0x00000000
       41715000	      4170	80002710	00000013	addi	x0,x0,0	  x0:0x00000000
       41725000	      4171	80002714	0180036f	jal	x6,80002714	  x6=0x80002714
       41735000	      4172	00000000	00000013	addi	x0,x0,0	  x0:0x00000000
       41745000	      4173	80002728	00000013	addi	x0,x0,0	  x0:0x00000000
       41755000	      4174	8000272c	0140036f	jal	x6,8000272c	  x6=0x8000272c
       41765000	      4175	00000000	00000013	addi	x0,x0,0	  x0:0x00000000
       41775000	      4176	8000273c	00000013	addi	x0,x0,0	  x0:0x00000000
       41785000	      4177	80002740	fa9ff0ef	jal	x1,80002740	  x1=0x80002740
       41795000	      4178	00000000	00000013	addi	x0,x0,0	  x0:0x00000000
       41805000	      4179	800026e4	00000013	addi	x0,x0,0	  x0:0x00000000
       41815000	      4180	800026e8	060000ef	jal	x1,800026e8	  x1=0x800026e8
       41825000	      4181	00000000	00000013	addi	x0,x0,0	  x0:0x00000000
       41835000	      4182	80002744	00000013	addi	x0,x0,0	  x0:0x00000000
       41845000	      4183	80002748	fb9ff26f	jal	x4,80002748	  x4=0x80002748
       41855000	      4184	00000000	00000013	addi	x0,x0,0	  x0:0x00000000
       41865000	      4185	800026fc	00000013	addi	x0,x0,0	  x0:0x00000000
       41875000	      4186	80002700	010000ef	jal	x1,80002700	  x1=0x80002700
       41885000	      4187	00000000	00000013	addi	x0,x0,0	  x0:0x00000000
       41895000	      4188	8000270c	00000013	addi	x0,x0,0	  x0:0x00000000
       41905000	      4189	80002710	ffdff16f	jal	x2,80002710	  x2=0x80002710
       41915000	      4190	00000000	00000013	addi	x0,x0,0	  x0:0x00000000
       41925000	      4191	80002708	00000013	addi	x0,x0,0	  x0:0x00000000
       41935000	      4192	8000270c	014000ef	jal	x1,8000270c	  x1=0x8000270c
       41945000	      4193	00000000	00000013	addi	x0,x0,0	  x0:0x00000000
       41955000	      4194	8000271c	00000013	addi	x0,x0,0	  x0:0x00000000
       41965000	      4195	80002720	fc5ff36f	jal	x6,80002720	  x6=0x80002720
       41975000	      4196	00000000	00000013	addi	x0,x0,0	  x0:0x00000000
       41985000	      4197	800026e0	00000013	addi	x0,x0,0	  x0:0x00000000
       41995000	      4198	800026e4	034000ef	jal	x1,800026e4	  x1=0x800026e4
       42005000	      4199	00000000	00000013	addi	x0,x0,0	  x0:0x00000000
       42015000	      4200	80002714	00000013	addi	x0,x0,0	  x0:0x00000000
       42025000	      4201	80002718	fd5ff16f	jal	x2,80002718	  x2=0x80002718
       42035000	      4202	00000000	00000013	addi	x0,x0,0	  x0:0x00000000
       42045000	      4203	800026e8	00000013	addi	x0,x0,0	  x0:0x00000000
       42055000	      4204	800026ec	030003ef	jal	x7,800026ec	  x7=0x800026ec
       42065000	      4205	00000000	00000013	addi	x0,x0,0	  x0:0x00000000
       42075000	      4206	80002718	00000013	addi	x0,x0,0	  x0:0x00000000
       42085000	      4207	8000271c	0140036f	jal	x6,8000271c	  x6=0x8000271c
       42095000	      4208	00000000	00000013	addi	x0,x0,0	  x0:0x00000000
       42105000	      4209	8000272c	00000013	addi	x0,x0,0	  x0:0x00000000
       42115000	      4210	80002730	008000ef	jal	x1,80002730	  x1=0x80002730
       42125000	      4211	00000000	00000013	addi	x0,x0,0	  x0:0x00000000
       42135000	      4212	80002734	00000013	addi	x0,x0,0	  x0:0x00000000
       42145000	      4213	80002738	ff1fffef	jal	x31,80002738	 x31=0x80002738
       42155000	      4214	00000000	00000013	addi	x0,x0,0	  x0:0x00000000
       42165000	      4215	80002724	00000013	addi	x0,x0,0	  x0:0x00000000
       42175000	      4216	80002728	014000ef	jal	x1,80002728	  x1=0x80002728
       42185000	      4217	00000000	00000013	addi	x0,x0,0	  x0:0x00000000
       42195000	      4218	80002738	00000013	addi	x0,x0,0	  x0:0x00000000
       42205000	      4219	8000273c	fb5ff0ef	jal	x1,8000273c	  x1=0x8000273c
       42215000	      4220	00000000	00000013	addi	x0,x0,0	  x0:0x00000000
       42225000	      4221	800026ec	00000013	addi	x0,x0,0	  x0:0x00000000
       42235000	      4222	800026f0	0040076f	jal	x14,800026f0	 x14=0x800026f0
       42245000	      4223	00000000	00000013	addi	x0,x0,0	  x0:0x00000000
       42255000	      4224	800026f0	00000013	addi	x0,x0,0	  x0:0x00000000
       42265000	      4225	800026f4	00800d6f	jal	x26,800026f4	 x26=0x800026f4
       42275000	      4226	00000000	00000013	addi	x0,x0,0	  x0:0x00000000
       42285000	      4227	800026f8	00000013	addi	x0,x0,0	  x0:0x00000000
       42295000	      4228	800026fc	008003ef	jal	x7,800026fc	  x7=0x800026fc
       42305000	      4229	00000000	00000013	addi	x0,x0,0	  x0:0x00000000
       42315000	      4230	80002700	00000013	addi	x0,x0,0	  x0:0x00000000
       42325000	      4231	80002704	040000ef	jal	x1,80002704	  x1=0x80002704
       42335000	      4232	00000000	00000013	addi	x0,x0,0	  x0:0x00000000
       42345000	      4233	80002740	00000013	addi	x0,x0,0	  x0:0x00000000
       42355000	      4234	80002744	fb5ff0ef	jal	x1,80002744	  x1=0x80002744
       42365000	      4235	00000000	00000013	addi	x0,x0,0	  x0:0x00000000
       42375000	      4236	800026f4	00000013	addi	x0,x0,0	  x0:0x00000000
       42385000	      4237	800026f8	02c000ef	jal	x1,800026f8	  x1=0x800026f8
       42395000	      4238	00000000	00000013	addi	x0,x0,0	  x0:0x00000000
       42405000	      4239	80002720	00000013	addi	x0,x0,0	  x0:0x00000000
       42415000	      4240	80002724	fe5ff36f	jal	x6,80002724	  x6=0x80002724
       42425000	      4241	00000000	00000013	addi	x0,x0,0	  x0:0x00000000
       42435000	      4242	80002704	00000013	addi	x0,x0,0	  x0:0x00000000
       42445000	      4243	80002708	02c000ef	jal	x1,80002708	  x1=0x80002708
       42455000	      4244	00000000	00000013	addi	x0,x0,0	  x0:0x00000000
       42465000	      4245	80002730	00000013	addi	x0,x0,0	  x0:0x00000000
       42475000	      4246	80002734	01800cef	jal	x25,80002734	 x25=0x80002734
       42485000	      4247	00000000	00000013	addi	x0,x0,0	  x0:0x00000000
       42495000	      4248	80002748	00000013	addi	x0,x0,0	  x0:0x00000000
       42505000	      4249	8000274c	0167ed33	or	x26,x15,x22	 x15:0x80002710 x22:0x80009fc4 x26=0x8000bfd4
       42515000	      4250	80002750	00c00f6f	jal	x30,80002750	 x30=0x80002750
       42525000	      4251	00000000	00000013	addi	x0,x0,0	  x0:0x00000000
       42535000	      4252	80002758	00000013	addi	x0,x0,0	  x0:0x00000000
       42545000	      4253	8000275c	ff9ff0ef	jal	x1,8000275c	  x1=0x8000275c
       42555000	      4254	00000000	00000013	addi	x0,x0,0	  x0:0x00000000
       42565000	      4255	80002750	00000013	addi	x0,x0,0	  x0:0x00000000
       42575000	      4256	80002754	0240036f	jal	x6,80002754	  x6=0x80002754
       42585000	      4257	00000000	00000013	addi	x0,x0,0	  x0:0x00000000
       42595000	      4258	80002774	00000013	addi	x0,x0,0	  x0:0x00000000
       42605000	      4259	80002778	fe9ff0ef	jal	x1,80002778	  x1=0x80002778
       42615000	      4260	00000000	00000013	addi	x0,x0,0	  x0:0x00000000
       42625000	      4261	8000275c	00000013	addi	x0,x0,0	  x0:0x00000000
       42635000	      4262	80002760	010000ef	jal	x1,80002760	  x1=0x80002760
       42645000	      4263	00000000	00000013	addi	x0,x0,0	  x0:0x00000000
       42655000	      4264	8000276c	00000013	addi	x0,x0,0	  x0:0x00000000
       42665000	      4265	80002770	fe9ff0ef	jal	x1,80002770	  x1=0x80002770
       42675000	      4266	00000000	00000013	addi	x0,x0,0	  x0:0x00000000
       42685000	      4267	80002754	00000013	addi	x0,x0,0	  x0:0x00000000
       42695000	      4268	80002758	00c000ef	jal	x1,80002758	  x1=0x80002758
       42705000	      4269	00000000	00000013	addi	x0,x0,0	  x0:0x00000000
       42715000	      4270	80002760	00000013	addi	x0,x0,0	  x0:0x00000000
       42725000	      4271	80002764	0180026f	jal	x4,80002764	  x4=0x80002764
       42735000	      4272	00000000	00000013	addi	x0,x0,0	  x0:0x00000000
       42745000	      4273	80002778	00000013	addi	x0,x0,0	  x0:0x00000000
       42755000	      4274	8000277c	fedff76f	jal	x14,8000277c	 x14=0x8000277c
       42765000	      4275	00000000	00000013	addi	x0,x0,0	  x0:0x00000000
       42775000	      4276	80002764	00000013	addi	x0,x0,0	  x0:0x00000000
       42785000	      4277	80002768	004004ef	jal	x9,80002768	  x9=0x80002768
       42795000	      4278	00000000	00000013	addi	x0,x0,0	  x0:0x00000000
       42805000	      4279	80002768	00000013	addi	x0,x0,0	  x0:0x00000000
       42815000	      4280	8000276c	00800e6f	jal	x28,8000276c	 x28=0x8000276c
       42825000	      4281	00000000	00000013	addi	x0,x0,0	  x0:0x00000000
       42835000	      4282	80002770	00000013	addi	x0,x0,0	  x0:0x00000000
       42845000	      4283	80002774	00c0036f	jal	x6,80002774	  x6=0x80002774
       42855000	      4284	00000000	00000013	addi	x0,x0,0	  x0:0x00000000
       42865000	      4285	8000277c	00000013	addi	x0,x0,0	  x0:0x00000000
       42875000	      4286	80002780	01c21e33	sll	x28,x4,x28	  x4:0x80002764 x28:0x8000276c x28=0x02764000
       42885000	      4287	80002784	03c00f6f	jal	x30,80002784	 x30=0x80002784
       42895000	      4288	00000000	00000013	addi	x0,x0,0	  x0:0x00000000
       42905000	      4289	800027bc	00000013	addi	x0,x0,0	  x0:0x00000000
       42915000	      4290	800027c0	00800def	jal	x27,800027c0	 x27=0x800027c0
       42925000	      4291	00000000	00000013	addi	x0,x0,0	  x0:0x00000000
       42935000	      4292	800027c4	00000013	addi	x0,x0,0	  x0:0x00000000
       42945000	      4293	800027c8	ff5ff0ef	jal	x1,800027c8	  x1=0x800027c8
       42955000	      4294	00000000	00000013	addi	x0,x0,0	  x0:0x00000000
       42965000	      4295	800027b8	00000013	addi	x0,x0,0	  x0:0x00000000
       42975000	      4296	800027bc	ff5ff0ef	jal	x1,800027bc	  x1=0x800027bc
       42985000	      4297	00000000	00000013	addi	x0,x0,0	  x0:0x00000000
       42995000	      4298	800027ac	00000013	addi	x0,x0,0	  x0:0x00000000
       43005000	      4299	800027b0	01c000ef	jal	x1,800027b0	  x1=0x800027b0
       43015000	      4300	00000000	00000013	addi	x0,x0,0	  x0:0x00000000
       43025000	      4301	800027c8	00000013	addi	x0,x0,0	  x0:0x00000000
       43035000	      4302	800027cc	fd9ff36f	jal	x6,800027cc	  x6=0x800027cc
       43045000	      4303	00000000	00000013	addi	x0,x0,0	  x0:0x00000000
       43055000	      4304	800027a0	00000013	addi	x0,x0,0	  x0:0x00000000
       43065000	      4305	800027a4	01000f6f	jal	x30,800027a4	 x30=0x800027a4
       43075000	      4306	00000000	00000013	addi	x0,x0,0	  x0:0x00000000
       43085000	      4307	800027b0	00000013	addi	x0,x0,0	  x0:0x00000000
       43095000	      4308	800027b4	ff9ff1ef	jal	x3,800027b4	  x3=0x800027b4
       43105000	      4309	00000000	00000013	addi	x0,x0,0	  x0:0x00000000
       43115000	      4310	800027a8	00000013	addi	x0,x0,0	  x0:0x00000000
       43125000	      4311	800027ac	02800d6f	jal	x26,800027ac	 x26=0x800027ac
       43135000	      4312	00000000	00000013	addi	x0,x0,0	  x0:0x00000000
       43145000	      4313	800027d0	00000013	addi	x0,x0,0	  x0:0x00000000
       43155000	      4314	800027d4	0040036f	jal	x6,800027d4	  x6=0x800027d4
       43165000	      4315	00000000	00000013	addi	x0,x0,0	  x0:0x00000000
       43175000	      4316	800027d4	00000013	addi	x0,x0,0	  x0:0x00000000
       43185000	      4317	800027d8	fe1ff0ef	jal	x1,800027d8	  x1=0x800027d8
       43195000	      4318	00000000	00000013	addi	x0,x0,0	  x0:0x00000000
       43205000	      4319	800027b4	00000013	addi	x0,x0,0	  x0:0x00000000
       43215000	      4320	800027b8	fe1ff36f	jal	x6,800027b8	  x6=0x800027b8
       43225000	      4321	00000000	00000013	addi	x0,x0,0	  x0:0x00000000
       43235000	      4322	80002794	00000013	addi	x0,x0,0	  x0:0x00000000
       43245000	      4323	80002798	03800e6f	jal	x28,80002798	 x28=0x80002798
       43255000	      4324	00000000	00000013	addi	x0,x0,0	  x0:0x00000000
       43265000	      4325	800027cc	00000013	addi	x0,x0,0	  x0:0x00000000
       43275000	      4326	800027d0	fd1ff1ef	jal	x3,800027d0	  x3=0x800027d0
       43285000	      4327	00000000	00000013	addi	x0,x0,0	  x0:0x00000000
       43295000	      4328	8000279c	00000013	addi	x0,x0,0	  x0:0x00000000
       43305000	      4329	800027a0	ffdff0ef	jal	x1,800027a0	  x1=0x800027a0
       43315000	      4330	00000000	00000013	addi	x0,x0,0	  x0:0x00000000
       43325000	      4331	80002798	00000013	addi	x0,x0,0	  x0:0x00000000
       43335000	      4332	8000279c	ff1ff76f	jal	x14,8000279c	 x14=0x8000279c
       43345000	      4333	00000000	00000013	addi	x0,x0,0	  x0:0x00000000
       43355000	      4334	80002788	00000013	addi	x0,x0,0	  x0:0x00000000
       43365000	      4335	8000278c	008000ef	jal	x1,8000278c	  x1=0x8000278c
       43375000	      4336	00000000	00000013	addi	x0,x0,0	  x0:0x00000000
       43385000	      4337	80002790	00000013	addi	x0,x0,0	  x0:0x00000000
       43395000	      4338	80002794	ff5ff36f	jal	x6,80002794	  x6=0x80002794
       43405000	      4339	00000000	00000013	addi	x0,x0,0	  x0:0x00000000
       43415000	      4340	80002784	00000013	addi	x0,x0,0	  x0:0x00000000
       43425000	      4341	80002788	008000ef	jal	x1,80002788	  x1=0x80002788
       43435000	      4342	00000000	00000013	addi	x0,x0,0	  x0:0x00000000
       43445000	      4343	8000278c	00000013	addi	x0,x0,0	  x0:0x00000000
       43455000	      4344	80002790	034000ef	jal	x1,80002790	  x1=0x80002790
       43465000	      4345	00000000	00000013	addi	x0,x0,0	  x0:0x00000000
       43475000	      4346	800027c0	00000013	addi	x0,x0,0	  x0:0x00000000
       43485000	      4347	800027c4	fe5ffe6f	jal	x28,800027c4	 x28=0x800027c4
       43495000	      4348	00000000	00000013	addi	x0,x0,0	  x0:0x00000000
       43505000	      4349	800027a4	00000013	addi	x0,x0,0	  x0:0x00000000
       43515000	      4350	800027a8	03400cef	jal	x25,800027a8	 x25=0x800027a8
       43525000	      4351	00000000	00000013	addi	x0,x0,0	  x0:0x00000000
       43535000	      4352	800027d8	00000013	addi	x0,x0,0	  x0:0x00000000
       43545000	      4353	800027dc	00612033	slt	x0,x2,x6	  x2:0x80002718  x6:0x80002794
       43555000	      4354	800027e0	01400f6f	jal	x30,800027e0	 x30=0x800027e0
       43565000	      4355	00000000	00000013	addi	x0,x0,0	  x0:0x00000000
       43575000	      4356	800027f0	00000013	addi	x0,x0,0	  x0:0x00000000
       43585000	      4357	800027f4	0200016f	jal	x2,800027f4	  x2=0x800027f4
       43595000	      4358	00000000	00000013	addi	x0,x0,0	  x0:0x00000000
       43605000	      4359	80002810	00000013	addi	x0,x0,0	  x0:0x00000000
       43615000	      4360	80002814	fe5ff0ef	jal	x1,80002814	  x1=0x80002814
       43625000	      4361	00000000	00000013	addi	x0,x0,0	  x0:0x00000000
       43635000	      4362	800027f4	00000013	addi	x0,x0,0	  x0:0x00000000
       43645000	      4363	800027f8	03c008ef	jal	x17,800027f8	 x17=0x800027f8
       43655000	      4364	00000000	00000013	addi	x0,x0,0	  x0:0x00000000
       43665000	      4365	80002830	00000013	addi	x0,x0,0	  x0:0x00000000
       43675000	      4366	80002834	fedff0ef	jal	x1,80002834	  x1=0x80002834
       43685000	      4367	00000000	00000013	addi	x0,x0,0	  x0:0x00000000
       43695000	      4368	8000281c	00000013	addi	x0,x0,0	  x0:0x00000000
       43705000	      4369	80002820	01c0086f	jal	x16,80002820	 x16=0x80002820
       43715000	      4370	00000000	00000013	addi	x0,x0,0	  x0:0x00000000
       43725000	      4371	80002838	00000013	addi	x0,x0,0	  x0:0x00000000
       43735000	      4372	8000283c	ff5ff36f	jal	x6,8000283c	  x6=0x8000283c
       43745000	      4373	00000000	00000013	addi	x0,x0,0	  x0:0x00000000
       43755000	      4374	8000282c	00000013	addi	x0,x0,0	  x0:0x00000000
       43765000	      4375	80002830	014000ef	jal	x1,80002830	  x1=0x80002830
       43775000	      4376	00000000	00000013	addi	x0,x0,0	  x0:0x00000000
       43785000	      4377	80002840	00000013	addi	x0,x0,0	  x0:0x00000000
       43795000	      4378	80002844	fc1ff0ef	jal	x1,80002844	  x1=0x80002844
       43805000	      4379	00000000	00000013	addi	x0,x0,0	  x0:0x00000000
       43815000	      4380	80002800	00000013	addi	x0,x0,0	  x0:0x00000000
       43825000	      4381	80002804	024000ef	jal	x1,80002804	  x1=0x80002804
       43835000	      4382	00000000	00000013	addi	x0,x0,0	  x0:0x00000000
       43845000	      4383	80002824	00000013	addi	x0,x0,0	  x0:0x00000000
       43855000	      4384	80002828	ff5ff3ef	jal	x7,80002828	  x7=0x80002828
       43865000	      4385	00000000	00000013	addi	x0,x0,0	  x0:0x00000000
       43875000	      4386	80002818	00000013	addi	x0,x0,0	  x0:0x00000000
       43885000	      4387	8000281c	010004ef	jal	x9,8000281c	  x9=0x8000281c
       43895000	      4388	00000000	00000013	addi	x0,x0,0	  x0:0x00000000
       43905000	      4389	80002828	00000013	addi	x0,x0,0	  x0:0x00000000
       43915000	      4390	8000282c	fbdff36f	jal	x6,8000282c	  x6=0x8000282c
       43925000	      4391	00000000	00000013	addi	x0,x0,0	  x0:0x00000000
       43935000	      4392	800027e4	00000013	addi	x0,x0,0	  x0:0x00000000
       43945000	      4393	800027e8	020000ef	jal	x1,800027e8	  x1=0x800027e8
       43955000	      4394	00000000	00000013	addi	x0,x0,0	  x0:0x00000000
       43965000	      4395	80002804	00000013	addi	x0,x0,0	  x0:0x00000000
       43975000	      4396	80002808	ff5ff0ef	jal	x1,80002808	  x1=0x80002808
       43985000	      4397	00000000	00000013	addi	x0,x0,0	  x0:0x00000000
       43995000	      4398	800027f8	00000013	addi	x0,x0,0	  x0:0x00000000
       44005000	      4399	800027fc	03c000ef	jal	x1,800027fc	  x1=0x800027fc
       44015000	      4400	00000000	00000013	addi	x0,x0,0	  x0:0x00000000
       44025000	      4401	80002834	00000013	addi	x0,x0,0	  x0:0x00000000
       44035000	      4402	80002838	008000ef	jal	x1,80002838	  x1=0x80002838
       44045000	      4403	00000000	00000013	addi	x0,x0,0	  x0:0x00000000
       44055000	      4404	8000283c	00000013	addi	x0,x0,0	  x0:0x00000000
       44065000	      4405	80002840	fb1ff0ef	jal	x1,80002840	  x1=0x80002840
       44075000	      4406	00000000	00000013	addi	x0,x0,0	  x0:0x00000000
       44085000	      4407	800027ec	00000013	addi	x0,x0,0	  x0:0x00000000
       44095000	      4408	800027f0	034000ef	jal	x1,800027f0	  x1=0x800027f0
       44105000	      4409	00000000	00000013	addi	x0,x0,0	  x0:0x00000000
       44115000	      4410	80002820	00000013	addi	x0,x0,0	  x0:0x00000000
       44125000	      4411	80002824	fc1ff0ef	jal	x1,80002824	  x1=0x80002824
       44135000	      4412	00000000	00000013	addi	x0,x0,0	  x0:0x00000000
       44145000	      4413	800027e0	00000013	addi	x0,x0,0	  x0:0x00000000
       44155000	      4414	800027e4	034000ef	jal	x1,800027e4	  x1=0x800027e4
       44165000	      4415	00000000	00000013	addi	x0,x0,0	  x0:0x00000000
       44175000	      4416	80002814	00000013	addi	x0,x0,0	  x0:0x00000000
       44185000	      4417	80002818	fe9ff0ef	jal	x1,80002818	  x1=0x80002818
       44195000	      4418	00000000	00000013	addi	x0,x0,0	  x0:0x00000000
       44205000	      4419	800027fc	00000013	addi	x0,x0,0	  x0:0x00000000
       44215000	      4420	80002800	010004ef	jal	x9,80002800	  x9=0x80002800
       44225000	      4421	00000000	00000013	addi	x0,x0,0	  x0:0x00000000
       44235000	      4422	8000280c	00000013	addi	x0,x0,0	  x0:0x00000000
       44245000	      4423	80002810	ffdff36f	jal	x6,80002810	  x6=0x80002810
       44255000	      4424	00000000	00000013	addi	x0,x0,0	  x0:0x00000000
       44265000	      4425	80002808	00000013	addi	x0,x0,0	  x0:0x00000000
       44275000	      4426	8000280c	fe1ff66f	jal	x12,8000280c	 x12=0x8000280c
       44285000	      4427	00000000	00000013	addi	x0,x0,0	  x0:0x00000000
       44295000	      4428	800027e8	00000013	addi	x0,x0,0	  x0:0x00000000
       44305000	      4429	800027ec	05c00cef	jal	x25,800027ec	 x25=0x800027ec
       44315000	      4430	00000000	00000013	addi	x0,x0,0	  x0:0x00000000
       44325000	      4431	80002844	00000013	addi	x0,x0,0	  x0:0x00000000
       44335000	      4432	80002848	005720b3	slt	x1,x14,x5	 x14:0x8000279c  x5:0x8000268c  x1=0x00000000
       44345000	      4433	8000284c	03400f6f	jal	x30,8000284c	 x30=0x8000284c
       44355000	      4434	00000000	00000013	addi	x0,x0,0	  x0:0x00000000
       44365000	      4435	8000287c	00000013	addi	x0,x0,0	  x0:0x00000000
       44375000	      4436	80002880	fd1ff0ef	jal	x1,80002880	  x1=0x80002880
       44385000	      4437	00000000	00000013	addi	x0,x0,0	  x0:0x00000000
       44395000	      4438	8000284c	00000013	addi	x0,x0,0	  x0:0x00000000
       44405000	      4439	80002850	01c000ef	jal	x1,80002850	  x1=0x80002850
       44415000	      4440	00000000	00000013	addi	x0,x0,0	  x0:0x00000000
       44425000	      4441	80002868	00000013	addi	x0,x0,0	  x0:0x00000000
       44435000	      4442	8000286c	fedff6ef	jal	x13,8000286c	 x13=0x8000286c
       44445000	      4443	00000000	00000013	addi	x0,x0,0	  x0:0x00000000
       44455000	      4444	80002854	00000013	addi	x0,x0,0	  x0:0x00000000
       44465000	      4445	80002858	0100016f	jal	x2,80002858	  x2=0x80002858
       44475000	      4446	00000000	00000013	addi	x0,x0,0	  x0:0x00000000
       44485000	      4447	80002864	00000013	addi	x0,x0,0	  x0:0x00000000
       44495000	      4448	80002868	fedff36f	jal	x6,80002868	  x6=0x80002868
       44505000	      4449	00000000	00000013	addi	x0,x0,0	  x0:0x00000000
       44515000	      4450	80002850	00000013	addi	x0,x0,0	  x0:0x00000000
       44525000	      4451	80002854	024000ef	jal	x1,80002854	  x1=0x80002854
       44535000	      4452	00000000	00000013	addi	x0,x0,0	  x0:0x00000000
       44545000	      4453	80002874	00000013	addi	x0,x0,0	  x0:0x00000000
       44555000	      4454	80002878	00400eef	jal	x29,80002878	 x29=0x80002878
       44565000	      4455	00000000	00000013	addi	x0,x0,0	  x0:0x00000000
       44575000	      4456	80002878	00000013	addi	x0,x0,0	  x0:0x00000000
       44585000	      4457	8000287c	fe5ff0ef	jal	x1,8000287c	  x1=0x8000287c
       44595000	      4458	00000000	00000013	addi	x0,x0,0	  x0:0x00000000
       44605000	      4459	8000285c	00000013	addi	x0,x0,0	  x0:0x00000000
       44615000	      4460	80002860	010006ef	jal	x13,80002860	 x13=0x80002860
       44625000	      4461	00000000	00000013	addi	x0,x0,0	  x0:0x00000000
       44635000	      4462	8000286c	00000013	addi	x0,x0,0	  x0:0x00000000
       44645000	      4463	80002870	fedff0ef	jal	x1,80002870	  x1=0x80002870
       44655000	      4464	00000000	00000013	addi	x0,x0,0	  x0:0x00000000
       44665000	      4465	80002858	00000013	addi	x0,x0,0	  x0:0x00000000
       44675000	      4466	8000285c	0080036f	jal	x6,8000285c	  x6=0x8000285c
       44685000	      4467	00000000	00000013	addi	x0,x0,0	  x0:0x00000000
       44695000	      4468	80002860	00000013	addi	x0,x0,0	  x0:0x00000000
       44705000	      4469	80002864	010000ef	jal	x1,80002864	  x1=0x80002864
       44715000	      4470	00000000	00000013	addi	x0,x0,0	  x0:0x00000000
       44725000	      4471	80002870	00000013	addi	x0,x0,0	  x0:0x00000000
       44735000	      4472	80002874	010000ef	jal	x1,80002874	  x1=0x80002874
       44745000	      4473	00000000	00000013	addi	x0,x0,0	  x0:0x00000000
       44755000	      4474	80002880	00000013	addi	x0,x0,0	  x0:0x00000000
       44765000	      4475	80002884	004000ef	jal	x1,80002884	  x1=0x80002884
       44775000	      4476	00000000	00000013	addi	x0,x0,0	  x0:0x00000000
       44785000	      4477	80002884	00000013	addi	x0,x0,0	  x0:0x00000000
       44795000	      4478	80002888	01e3b433	sltu	x8,x7,x30	  x7:0x80002828 x30:0x8000284c  x8=0x00000001
       44805000	      4479	8000288c	01800f6f	jal	x30,8000288c	 x30=0x8000288c
       44815000	      4480	00000000	00000013	addi	x0,x0,0	  x0:0x00000000
       44825000	      4481	800028a0	00000013	addi	x0,x0,0	  x0:0x00000000
       44835000	      4482	800028a4	038000ef	jal	x1,800028a4	  x1=0x800028a4
       44845000	      4483	00000000	00000013	addi	x0,x0,0	  x0:0x00000000
       44855000	      4484	800028d8	00000013	addi	x0,x0,0	  x0:0x00000000
       44865000	      4485	800028dc	fe9ff0ef	jal	x1,800028dc	  x1=0x800028dc
       44875000	      4486	00000000	00000013	addi	x0,x0,0	  x0:0x00000000
       44885000	      4487	800028c0	00000013	addi	x0,x0,0	  x0:0x00000000
       44895000	      4488	800028c4	028000ef	jal	x1,800028c4	  x1=0x800028c4
       44905000	      4489	00000000	00000013	addi	x0,x0,0	  x0:0x00000000
       44915000	      4490	800028e8	00000013	addi	x0,x0,0	  x0:0x00000000
       44925000	      4491	800028ec	fddff0ef	jal	x1,800028ec	  x1=0x800028ec
       44935000	      4492	00000000	00000013	addi	x0,x0,0	  x0:0x00000000
       44945000	      4493	800028c4	00000013	addi	x0,x0,0	  x0:0x00000000
       44955000	      4494	800028c8	fd1ff0ef	jal	x1,800028c8	  x1=0x800028c8
       44965000	      4495	00000000	00000013	addi	x0,x0,0	  x0:0x00000000
       44975000	      4496	80002894	00000013	addi	x0,x0,0	  x0:0x00000000
       44985000	      4497	80002898	0100036f	jal	x6,80002898	  x6=0x80002898
       44995000	      4498	00000000	00000013	addi	x0,x0,0	  x0:0x00000000
       45005000	      4499	800028a4	00000013	addi	x0,x0,0	  x0:0x00000000
       45015000	      4500	800028a8	ff5ff0ef	jal	x1,800028a8	  x1=0x800028a8
       45025000	      4501	00000000	00000013	addi	x0,x0,0	  x0:0x00000000
       45035000	      4502	80002898	00000013	addi	x0,x0,0	  x0:0x00000000
       45045000	      4503	8000289c	024000ef	jal	x1,8000289c	  x1=0x8000289c
       45055000	      4504	00000000	00000013	addi	x0,x0,0	  x0:0x00000000
       45065000	      4505	800028bc	00000013	addi	x0,x0,0	  x0:0x00000000
       45075000	      4506	800028c0	00c0066f	jal	x12,800028c0	 x12=0x800028c0
       45085000	      4507	00000000	00000013	addi	x0,x0,0	  x0:0x00000000
       45095000	      4508	800028c8	00000013	addi	x0,x0,0	  x0:0x00000000
       45105000	      4509	800028cc	ff1ff36f	jal	x6,800028cc	  x6=0x800028cc
       45115000	      4510	00000000	00000013	addi	x0,x0,0	  x0:0x00000000
       45125000	      4511	800028b8	00000013	addi	x0,x0,0	  x0:0x00000000
       45135000	      4512	800028bc	fd9ff0ef	jal	x1,800028bc	  x1=0x800028bc
       45145000	      4513	00000000	00000013	addi	x0,x0,0	  x0:0x00000000
       45155000	      4514	80002890	00000013	addi	x0,x0,0	  x0:0x00000000
       45165000	      4515	80002894	00c005ef	jal	x11,80002894	 x11=0x80002894
       45175000	      4516	00000000	00000013	addi	x0,x0,0	  x0:0x00000000
       45185000	      4517	8000289c	00000013	addi	x0,x0,0	  x0:0x00000000
       45195000	      4518	800028a0	05400f6f	jal	x30,800028a0	 x30=0x800028a0
       45205000	      4519	00000000	00000013	addi	x0,x0,0	  x0:0x00000000
       45215000	      4520	800028f0	00000013	addi	x0,x0,0	  x0:0x00000000
       45225000	      4521	800028f4	fc5ff0ef	jal	x1,800028f4	  x1=0x800028f4
       45235000	      4522	00000000	00000013	addi	x0,x0,0	  x0:0x00000000
       45245000	      4523	800028b4	00000013	addi	x0,x0,0	  x0:0x00000000
       45255000	      4524	800028b8	ff5ff0ef	jal	x1,800028b8	  x1=0x800028b8
       45265000	      4525	00000000	00000013	addi	x0,x0,0	  x0:0x00000000
       45275000	      4526	800028a8	00000013	addi	x0,x0,0	  x0:0x00000000
       45285000	      4527	800028ac	03c008ef	jal	x17,800028ac	 x17=0x800028ac
       45295000	      4528	00000000	00000013	addi	x0,x0,0	  x0:0x00000000
       45305000	      4529	800028e4	00000013	addi	x0,x0,0	  x0:0x00000000
       45315000	      4530	800028e8	01000a6f	jal	x20,800028e8	 x20=0x800028e8
       45325000	      4531	00000000	00000013	addi	x0,x0,0	  x0:0x00000000
       45335000	      4532	800028f4	00000013	addi	x0,x0,0	  x0:0x00000000
       45345000	      4533	800028f8	fe9ffd6f	jal	x26,800028f8	 x26=0x800028f8
       45355000	      4534	00000000	00000013	addi	x0,x0,0	  x0:0x00000000
       45365000	      4535	800028dc	00000013	addi	x0,x0,0	  x0:0x00000000
       45375000	      4536	800028e0	ff1ff0ef	jal	x1,800028e0	  x1=0x800028e0
       45385000	      4537	00000000	00000013	addi	x0,x0,0	  x0:0x00000000
       45395000	      4538	800028cc	00000013	addi	x0,x0,0	  x0:0x00000000
       45405000	      4539	800028d0	008000ef	jal	x1,800028d0	  x1=0x800028d0
       45415000	      4540	00000000	00000013	addi	x0,x0,0	  x0:0x00000000
       45425000	      4541	800028d4	00000013	addi	x0,x0,0	  x0:0x00000000
       45435000	      4542	800028d8	fddff66f	jal	x12,800028d8	 x12=0x800028d8
       45445000	      4543	00000000	00000013	addi	x0,x0,0	  x0:0x00000000
       45455000	      4544	800028b0	00000013	addi	x0,x0,0	  x0:0x00000000
       45465000	      4545	800028b4	030000ef	jal	x1,800028b4	  x1=0x800028b4
       45475000	      4546	00000000	00000013	addi	x0,x0,0	  x0:0x00000000
       45485000	      4547	800028e0	00000013	addi	x0,x0,0	  x0:0x00000000
       45495000	      4548	800028e4	fadff0ef	jal	x1,800028e4	  x1=0x800028e4
       45505000	      4549	00000000	00000013	addi	x0,x0,0	  x0:0x00000000
       45515000	      4550	8000288c	00000013	addi	x0,x0,0	  x0:0x00000000
       45525000	      4551	80002890	020000ef	jal	x1,80002890	  x1=0x80002890
       45535000	      4552	00000000	00000013	addi	x0,x0,0	  x0:0x00000000
       45545000	      4553	800028ac	00000013	addi	x0,x0,0	  x0:0x00000000
       45555000	      4554	800028b0	040003ef	jal	x7,800028b0	  x7=0x800028b0
       45565000	      4555	00000000	00000013	addi	x0,x0,0	  x0:0x00000000
       45575000	      4556	800028ec	00000013	addi	x0,x0,0	  x0:0x00000000
       45585000	      4557	800028f0	fe5ff0ef	jal	x1,800028f0	  x1=0x800028f0
       45595000	      4558	00000000	00000013	addi	x0,x0,0	  x0:0x00000000
       45605000	      4559	800028d0	00000013	addi	x0,x0,0	  x0:0x00000000
       45615000	      4560	800028d4	028000ef	jal	x1,800028d4	  x1=0x800028d4
       45625000	      4561	00000000	00000013	addi	x0,x0,0	  x0:0x00000000
       45635000	      4562	800028f8	00000013	addi	x0,x0,0	  x0:0x00000000
       45645000	      4563	800028fc	40c05893	srai	x17,x0,0xc	  x0:0x00000000 x17=0x00000000
       45655000	      4564	80002900	02800f6f	jal	x30,80002900	 x30=0x80002900
       45665000	      4565	00000000	00000013	addi	x0,x0,0	  x0:0x00000000
       45675000	      4566	80002924	00000013	addi	x0,x0,0	  x0:0x00000000
       45685000	      4567	80002928	fe5ff0ef	jal	x1,80002928	  x1=0x80002928
       45695000	      4568	00000000	00000013	addi	x0,x0,0	  x0:0x00000000
       45705000	      4569	80002908	00000013	addi	x0,x0,0	  x0:0x00000000
       45715000	      4570	8000290c	ffdff0ef	jal	x1,8000290c	  x1=0x8000290c
       45725000	      4571	00000000	00000013	addi	x0,x0,0	  x0:0x00000000
       45735000	      4572	80002904	00000013	addi	x0,x0,0	  x0:0x00000000
       45745000	      4573	80002908	008000ef	jal	x1,80002908	  x1=0x80002908
       45755000	      4574	00000000	00000013	addi	x0,x0,0	  x0:0x00000000
       45765000	      4575	8000290c	00000013	addi	x0,x0,0	  x0:0x00000000
       45775000	      4576	80002910	01400def	jal	x27,80002910	 x27=0x80002910
       45785000	      4577	00000000	00000013	addi	x0,x0,0	  x0:0x00000000
       45795000	      4578	80002920	00000013	addi	x0,x0,0	  x0:0x00000000
       45805000	      4579	80002924	0080036f	jal	x6,80002924	  x6=0x80002924
       45815000	      4580	00000000	00000013	addi	x0,x0,0	  x0:0x00000000
       45825000	      4581	80002928	00000013	addi	x0,x0,0	  x0:0x00000000
       45835000	      4582	8000292c	ff1ff36f	jal	x6,8000292c	  x6=0x8000292c
       45845000	      4583	00000000	00000013	addi	x0,x0,0	  x0:0x00000000
       45855000	      4584	80002918	00000013	addi	x0,x0,0	  x0:0x00000000
       45865000	      4585	8000291c	014000ef	jal	x1,8000291c	  x1=0x8000291c
       45875000	      4586	00000000	00000013	addi	x0,x0,0	  x0:0x00000000
       45885000	      4587	8000292c	00000013	addi	x0,x0,0	  x0:0x00000000
       45895000	      4588	80002930	0040016f	jal	x2,80002930	  x2=0x80002930
       45905000	      4589	00000000	00000013	addi	x0,x0,0	  x0:0x00000000
       45915000	      4590	80002930	00000013	addi	x0,x0,0	  x0:0x00000000
       45925000	      4591	80002934	fd1ff36f	jal	x6,80002934	  x6=0x80002934
       45935000	      4592	00000000	00000013	addi	x0,x0,0	  x0:0x00000000
       45945000	      4593	80002900	00000013	addi	x0,x0,0	  x0:0x00000000
       45955000	      4594	80002904	01000a6f	jal	x20,80002904	 x20=0x80002904
       45965000	      4595	00000000	00000013	addi	x0,x0,0	  x0:0x00000000
       45975000	      4596	80002910	00000013	addi	x0,x0,0	  x0:0x00000000
       45985000	      4597	80002914	004000ef	jal	x1,80002914	  x1=0x80002914
       45995000	      4598	00000000	00000013	addi	x0,x0,0	  x0:0x00000000
       46005000	      4599	80002914	00000013	addi	x0,x0,0	  x0:0x00000000
       46015000	      4600	80002918	008000ef	jal	x1,80002918	  x1=0x80002918
       46025000	      4601	00000000	00000013	addi	x0,x0,0	  x0:0x00000000
       46035000	      4602	8000291c	00000013	addi	x0,x0,0	  x0:0x00000000
       46045000	      4603	80002920	018000ef	jal	x1,80002920	  x1=0x80002920
       46055000	      4604	00000000	00000013	addi	x0,x0,0	  x0:0x00000000
       46065000	      4605	80002934	00000013	addi	x0,x0,0	  x0:0x00000000
       46075000	      4606	80002938	0174d2b3	srl	x5,x9,x23	  x9:0x80002800 x23:0x80002450  x5=0x00008000
       46085000	      4607	8000293c	00800f6f	jal	x30,8000293c	 x30=0x8000293c
       46095000	      4608	00000000	00000013	addi	x0,x0,0	  x0:0x00000000
       46105000	      4609	80002940	00000013	addi	x0,x0,0	  x0:0x00000000
       46115000	      4610	80002944	008000ef	jal	x1,80002944	  x1=0x80002944
       46125000	      4611	00000000	00000013	addi	x0,x0,0	  x0:0x00000000
       46135000	      4612	80002948	00000013	addi	x0,x0,0	  x0:0x00000000
       46145000	      4613	8000294c	00400fef	jal	x31,8000294c	 x31=0x8000294c
       46155000	      4614	00000000	00000013	addi	x0,x0,0	  x0:0x00000000
       46165000	      4615	8000294c	00000013	addi	x0,x0,0	  x0:0x00000000
       46175000	      4616	80002950	004002ef	jal	x5,80002950	  x5=0x80002950
       46185000	      4617	00000000	00000013	addi	x0,x0,0	  x0:0x00000000
       46195000	      4618	80002950	00000013	addi	x0,x0,0	  x0:0x00000000
       46205000	      4619	80002954	02400f6f	jal	x30,80002954	 x30=0x80002954
       46215000	      4620	00000000	00000013	addi	x0,x0,0	  x0:0x00000000
       46225000	      4621	80002974	00000013	addi	x0,x0,0	  x0:0x00000000
       46235000	      4622	80002978	fc9ff26f	jal	x4,80002978	  x4=0x80002978
       46245000	      4623	00000000	00000013	addi	x0,x0,0	  x0:0x00000000
       46255000	      4624	8000293c	00000013	addi	x0,x0,0	  x0:0x00000000
       46265000	      4625	80002940	040000ef	jal	x1,80002940	  x1=0x80002940
       46275000	      4626	00000000	00000013	addi	x0,x0,0	  x0:0x00000000
       46285000	      4627	8000297c	00000013	addi	x0,x0,0	  x0:0x00000000
       46295000	      4628	80002980	fddff0ef	jal	x1,80002980	  x1=0x80002980
       46305000	      4629	00000000	00000013	addi	x0,x0,0	  x0:0x00000000
       46315000	      4630	80002958	00000013	addi	x0,x0,0	  x0:0x00000000
       46325000	      4631	8000295c	018008ef	jal	x17,8000295c	 x17=0x8000295c
       46335000	      4632	00000000	00000013	addi	x0,x0,0	  x0:0x00000000
       46345000	      4633	80002970	00000013	addi	x0,x0,0	  x0:0x00000000
       46355000	      4634	80002974	0100036f	jal	x6,80002974	  x6=0x80002974
       46365000	      4635	00000000	00000013	addi	x0,x0,0	  x0:0x00000000
       46375000	      4636	80002980	00000013	addi	x0,x0,0	  x0:0x00000000
       46385000	      4637	80002984	fe5ff0ef	jal	x1,80002984	  x1=0x80002984
       46395000	      4638	00000000	00000013	addi	x0,x0,0	  x0:0x00000000
       46405000	      4639	80002964	00000013	addi	x0,x0,0	  x0:0x00000000
       46415000	      4640	80002968	ff1ff5ef	jal	x11,80002968	 x11=0x80002968
       46425000	      4641	00000000	00000013	addi	x0,x0,0	  x0:0x00000000
       46435000	      4642	80002954	00000013	addi	x0,x0,0	  x0:0x00000000
       46445000	      4643	80002958	00c000ef	jal	x1,80002958	  x1=0x80002958
       46455000	      4644	00000000	00000013	addi	x0,x0,0	  x0:0x00000000
       46465000	      4645	80002960	00000013	addi	x0,x0,0	  x0:0x00000000
       46475000	      4646	80002964	008000ef	jal	x1,80002964	  x1=0x80002964
       46485000	      4647	00000000	00000013	addi	x0,x0,0	  x0:0x00000000
       46495000	      4648	80002968	00000013	addi	x0,x0,0	  x0:0x00000000
       46505000	      4649	8000296c	004000ef	jal	x1,8000296c	  x1=0x8000296c
       46515000	      4650	00000000	00000013	addi	x0,x0,0	  x0:0x00000000
       46525000	      4651	8000296c	00000013	addi	x0,x0,0	  x0:0x00000000
       46535000	      4652	80002970	fd9ff36f	jal	x6,80002970	  x6=0x80002970
       46545000	      4653	00000000	00000013	addi	x0,x0,0	  x0:0x00000000
       46555000	      4654	80002944	00000013	addi	x0,x0,0	  x0:0x00000000
       46565000	      4655	80002948	034002ef	jal	x5,80002948	  x5=0x80002948
       46575000	      4656	00000000	00000013	addi	x0,x0,0	  x0:0x00000000
       46585000	      4657	80002978	00000013	addi	x0,x0,0	  x0:0x00000000
       46595000	      4658	8000297c	fe5ff66f	jal	x12,8000297c	 x12=0x8000297c
       46605000	      4659	00000000	00000013	addi	x0,x0,0	  x0:0x00000000
       46615000	      4660	8000295c	00000013	addi	x0,x0,0	  x0:0x00000000
       46625000	      4661	80002960	028000ef	jal	x1,80002960	  x1=0x80002960
       46635000	      4662	00000000	00000013	addi	x0,x0,0	  x0:0x00000000
       46645000	      4663	80002984	00000013	addi	x0,x0,0	  x0:0x00000000
       46655000	      4664	80002988	77f3f413	andi	x8,x7,1919	  x7:0x800028b0  x8=0x00000030
       46665000	      4665	8000298c	05000f6f	jal	x30,8000298c	 x30=0x8000298c
       46675000	      4666	00000000	00000013	addi	x0,x0,0	  x0:0x00000000
       46685000	      4667	800029d8	00000013	addi	x0,x0,0	  x0:0x00000000
       46695000	      4668	800029dc	fb5ff36f	jal	x6,800029dc	  x6=0x800029dc
       46705000	      4669	00000000	00000013	addi	x0,x0,0	  x0:0x00000000
       46715000	      4670	8000298c	00000013	addi	x0,x0,0	  x0:0x00000000
       46725000	      4671	80002990	0440086f	jal	x16,80002990	 x16=0x80002990
       46735000	      4672	00000000	00000013	addi	x0,x0,0	  x0:0x00000000
       46745000	      4673	800029d0	00000013	addi	x0,x0,0	  x0:0x00000000
       46755000	      4674	800029d4	fc1ff1ef	jal	x3,800029d4	  x3=0x800029d4
       46765000	      4675	00000000	00000013	addi	x0,x0,0	  x0:0x00000000
       46775000	      4676	80002990	00000013	addi	x0,x0,0	  x0:0x00000000
       46785000	      4677	80002994	00c007ef	jal	x15,80002994	 x15=0x80002994
       46795000	      4678	00000000	00000013	addi	x0,x0,0	  x0:0x00000000
       46805000	      4679	8000299c	00000013	addi	x0,x0,0	  x0:0x00000000
       46815000	      4680	800029a0	024000ef	jal	x1,800029a0	  x1=0x800029a0
       46825000	      4681	00000000	00000013	addi	x0,x0,0	  x0:0x00000000
       46835000	      4682	800029c0	00000013	addi	x0,x0,0	  x0:0x00000000
       46845000	      4683	800029c4	0040036f	jal	x6,800029c4	  x6=0x800029c4
       46855000	      4684	00000000	00000013	addi	x0,x0,0	  x0:0x00000000
       46865000	      4685	800029c4	00000013	addi	x0,x0,0	  x0:0x00000000
       46875000	      4686	800029c8	ff1ff36f	jal	x6,800029c8	  x6=0x800029c8
       46885000	      4687	00000000	00000013	addi	x0,x0,0	  x0:0x00000000
       46895000	      4688	800029b4	00000013	addi	x0,x0,0	  x0:0x00000000
       46905000	      4689	800029b8	0180036f	jal	x6,800029b8	  x6=0x800029b8
       46915000	      4690	00000000	00000013	addi	x0,x0,0	  x0:0x00000000
       46925000	      4691	800029cc	00000013	addi	x0,x0,0	  x0:0x00000000
       46935000	      4692	800029d0	fedff36f	jal	x6,800029d0	  x6=0x800029d0
       46945000	      4693	00000000	00000013	addi	x0,x0,0	  x0:0x00000000
       46955000	      4694	800029b8	00000013	addi	x0,x0,0	  x0:0x00000000
       46965000	      4695	800029bc	00400bef	jal	x23,800029bc	 x23=0x800029bc
       46975000	      4696	00000000	00000013	addi	x0,x0,0	  x0:0x00000000
       46985000	      4697	800029bc	00000013	addi	x0,x0,0	  x0:0x00000000
       46995000	      4698	800029c0	fe9ff26f	jal	x4,800029c0	  x4=0x800029c0
       47005000	      4699	00000000	00000013	addi	x0,x0,0	  x0:0x00000000
       47015000	      4700	800029a4	00000013	addi	x0,x0,0	  x0:0x00000000
       47025000	      4701	800029a8	ff5ff0ef	jal	x1,800029a8	  x1=0x800029a8
       47035000	      4702	00000000	00000013	addi	x0,x0,0	  x0:0x00000000
       47045000	      4703	80002998	00000013	addi	x0,x0,0	  x0:0x00000000
       47055000	      4704	8000299c	030000ef	jal	x1,8000299c	  x1=0x8000299c
       47065000	      4705	00000000	00000013	addi	x0,x0,0	  x0:0x00000000
       47075000	      4706	800029c8	00000013	addi	x0,x0,0	  x0:0x00000000
       47085000	      4707	800029cc	fe9ff3ef	jal	x7,800029cc	  x7=0x800029cc
       47095000	      4708	00000000	00000013	addi	x0,x0,0	  x0:0x00000000
       47105000	      4709	800029b0	00000013	addi	x0,x0,0	  x0:0x00000000
       47115000	      4710	800029b4	ff1ffbef	jal	x23,800029b4	 x23=0x800029b4
       47125000	      4711	00000000	00000013	addi	x0,x0,0	  x0:0x00000000
       47135000	      4712	800029a0	00000013	addi	x0,x0,0	  x0:0x00000000
       47145000	      4713	800029a4	ff5ff36f	jal	x6,800029a4	  x6=0x800029a4
       47155000	      4714	00000000	00000013	addi	x0,x0,0	  x0:0x00000000
       47165000	      4715	80002994	00000013	addi	x0,x0,0	  x0:0x00000000
       47175000	      4716	80002998	018000ef	jal	x1,80002998	  x1=0x80002998
       47185000	      4717	00000000	00000013	addi	x0,x0,0	  x0:0x00000000
       47195000	      4718	800029ac	00000013	addi	x0,x0,0	  x0:0x00000000
       47205000	      4719	800029b0	ffdff0ef	jal	x1,800029b0	  x1=0x800029b0
       47215000	      4720	00000000	00000013	addi	x0,x0,0	  x0:0x00000000
       47225000	      4721	800029a8	00000013	addi	x0,x0,0	  x0:0x00000000
       47235000	      4722	800029ac	02c000ef	jal	x1,800029ac	  x1=0x800029ac
       47245000	      4723	00000000	00000013	addi	x0,x0,0	  x0:0x00000000
       47255000	      4724	800029d4	00000013	addi	x0,x0,0	  x0:0x00000000
       47265000	      4725	800029d8	008000ef	jal	x1,800029d8	  x1=0x800029d8
       47275000	      4726	00000000	00000013	addi	x0,x0,0	  x0:0x00000000
       47285000	      4727	800029dc	00000013	addi	x0,x0,0	  x0:0x00000000
       47295000	      4728	800029e0	00000013	addi	x0,x0,0	  x0:0x00000000
       47305000	      4729	800029e4	0004d863	bge	x9,x0,800029f4	  x9:0x80002800  x0:0x00000000
       47315000	      4730	800029e8	0fd73a13	sltiu	x20,x14,253	 x14:0x8000279c x20=0x00000000
       47325000	      4731	800029ec	5c174813	xori	x16,x14,1473	 x14:0x8000279c x16=0x8000225d
       47335000	      4732	800029f0	42733093	sltiu	x1,x6,1063	  x6:0x800029a4  x1=0x00000000
       47345000	      4733	800029f4	00e5e7b3	or	x15,x11,x14	 x11:0x80002968 x14:0x8000279c x15=0x80002ffc
       47355000	      4734	800029f8	029f7a63	bgeu	x30,x9,80002a2c	 x30:0x8000298c  x9:0x80002800
       47365000	      4735	00000000	00000013	addi	x0,x0,0	  x0:0x00000000
       47375000	      4736	80002a28	00000013	addi	x0,x0,0	  x0:0x00000000
       47385000	      4737	80002a2c	4b7c4f17	auipc	x30,0x4b7c4	 x30=0xcb7c6a28
       47395000	      4738	80002a30	01f59b93	slli	x23,x11,0x1f	 x11:0x80002968 x23=0x00000000
       47405000	      4739	80002a34	c2ae3e13	sltiu	x28,x28,-982	 x28:0x800027c4 x28=0x00000001
       47415000	      4740	80002a38	00be7133	and	x2,x28,x11	 x28:0x00000001 x11:0x80002968  x2=0x00000000
       47425000	      4741	80002a3c	00f0a333	slt	x6,x1,x15	  x1:0x00000000 x15:0x80002ffc  x6=0x00000000
       47435000	      4742	80002a40	404e0db3	sub	x27,x28,x4	 x28:0x00000001  x4:0x800029c0 x27=0x7fffd641
       47445000	      4743	80002a44	02f45a63	bge	x8,x15,80002a78	  x8:0x00000030 x15:0x80002ffc
       47455000	      4744	00000000	00000013	addi	x0,x0,0	  x0:0x00000000
       47465000	      4745	80002a74	00000013	addi	x0,x0,0	  x0:0x00000000
       47475000	      4746	80002a78	fb460393	addi	x7,x12,-76	 x12:0x8000297c  x7=0x80002930
       47485000	      4747	80002a7c	6e3e8a13	addi	x20,x29,1763	 x29:0x80002878 x20=0x80002f5b
       47495000	      4748	80002a80	0312e263	bltu	x5,x17,80002aa4	  x5:0x80002948 x17:0x8000295c
       47505000	      4749	00000000	00000013	addi	x0,x0,0	  x0:0x00000000
       47515000	      4750	80002aa0	00000013	addi	x0,x0,0	  x0:0x00000000
       47525000	      4751	80002aa4	418edf13	srai	x30,x29,0x18	 x29:0x80002878 x30=0xffffff80
       47535000	      4752	80002aa8	01327463	bgeu	x4,x19,80002ab0	  x4:0x800029c0 x19:0x800026d8
       47545000	      4753	00000000	00000013	addi	x0,x0,0	  x0:0x00000000
       47555000	      4754	80002aac	00000013	addi	x0,x0,0	  x0:0x00000000
       47565000	      4755	80002ab0	03c80e63	beq	x16,x28,80002aec	 x16:0x8000225d x28:0x00000001
       47575000	      4756	80002ab4	41bf5fb3	sra	x31,x30,x27	 x30:0xffffff80 x27:0x7fffd641 x31=0xffffffc0
       47585000	      4757	80002ab8	88b8e497	auipc	x9,0x88b8e	  x9=0x08b90ab4
       47595000	      4758	80002abc	019b79b3	and	x19,x22,x25	 x22:0x80009fc4 x25:0x800027ec x19=0x800007c4
       47605000	      4759	80002ac0	00000013	addi	x0,x0,0	  x0:0x00000000
       47615000	      4760	80002ac4	406fd433	sra	x8,x31,x6	 x31:0xffffffc0  x6:0x00000000  x8=0xffffffc0
       47625000	      4761	80002ac8	00000013	addi	x0,x0,0	  x0:0x00000000
       47635000	      4762	80002acc	01d97cb3	and	x25,x18,x29	 x18:0x80009efc x29:0x80002878 x25=0x80000878
       47645000	      4763	80002ad0	00799463	bne	x19,x7,80002ad8	 x19:0x800007c4  x7:0x80002930
       47655000	      4764	00000000	00000013	addi	x0,x0,0	  x0:0x00000000
       47665000	      4765	80002ad4	00000013	addi	x0,x0,0	  x0:0x00000000
       47675000	      4766	80002ad8	f9bd0a93	addi	x21,x26,-101	 x26:0x800028f8 x21=0x80002893
       47685000	      4767	80002adc	01d21393	slli	x7,x4,0x1d	  x4:0x800029c0  x7=0x00000000
       47695000	      4768	80002ae0	03911e63	bne	x2,x25,80002b1c	  x2:0x00000000 x25:0x80000878
       47705000	      4769	00000000	00000013	addi	x0,x0,0	  x0:0x00000000
       47715000	      4770	80002b18	00000013	addi	x0,x0,0	  x0:0x00000000
       47725000	      4771	80002b1c	05e25063	bge	x4,x30,80002b5c	  x4:0x800029c0 x30:0xffffff80
       47735000	      4772	80002b20	00d1da33	srl	x20,x3,x13	  x3:0x800029d4 x13:0x80002860 x20=0x800029d4
       47745000	      4773	80002b24	01134e33	xor	x28,x6,x17	  x6:0x00000000 x17:0x8000295c x28=0x8000295c
       47755000	      4774	80002b28	01a01993	slli	x19,x0,0x1a	  x0:0x00000000 x19=0x00000000
       47765000	      4775	80002b2c	278dcc93	xori	x25,x27,632	 x27:0x7fffd641 x25=0x7fffd439
       47775000	      4776	80002b30	023d0663	beq	x26,x3,80002b5c	 x26:0x800028f8  x3:0x800029d4
       47785000	      4777	80002b34	003075b3	and	x11,x0,x3	  x0:0x00000000  x3:0x800029d4 x11=0x00000000
       47795000	      4778	80002b38	0b9e3113	sltiu	x2,x28,185	 x28:0x8000295c  x2=0x00000000
       47805000	      4779	80002b3c	007eb233	sltu	x4,x29,x7	 x29:0x80002878  x7:0x00000000  x4=0x00000000
       47815000	      4780	80002b40	418a5493	srai	x9,x20,0x18	 x20:0x800029d4  x9=0xffffff80
       47825000	      4781	80002b44	00e9ec63	bltu	x19,x14,80002b5c	 x19:0x00000000 x14:0x8000279c
       47835000	      4782	00000000	00000013	addi	x0,x0,0	  x0:0x00000000
       47845000	      4783	80002b58	00000013	addi	x0,x0,0	  x0:0x00000000
       47855000	      4784	80002b5c	01236e63	bltu	x6,x18,80002b78	  x6:0x00000000 x18:0x80009efc
       47865000	      4785	00000000	00000013	addi	x0,x0,0	  x0:0x00000000
       47875000	      4786	80002b74	00000013	addi	x0,x0,0	  x0:0x00000000
       47885000	      4787	80002b78	6d388413	addi	x8,x17,1747	 x17:0x8000295c  x8=0x8000302f
       47895000	      4788	80002b7c	01de43b3	xor	x7,x28,x29	 x28:0x8000295c x29:0x80002878  x7=0x00000124
       47905000	      4789	80002b80	00d48e63	beq	x9,x13,80002b9c	  x9:0xffffff80 x13:0x80002860
       47915000	      4790	80002b84	8e032f93	slti	x31,x6,-1824	  x6:0x00000000 x31=0x00000000
       47925000	      4791	80002b88	0154c5b3	xor	x11,x9,x21	  x9:0xffffff80 x21:0x80002893 x11=0x7fffd713
       47935000	      4792	80002b8c	5c0eb713	sltiu	x14,x29,1472	 x29:0x80002878 x14=0x00000000
       47945000	      4793	80002b90	00a5d193	srli	x3,x11,0xa	 x11:0x7fffd713  x3=0x001ffff5
       47955000	      4794	80002b94	005f75b3	and	x11,x30,x5	 x30:0xffffff80  x5:0x80002948 x11=0x80002900
       47965000	      4795	80002b98	e1964513	xori	x10,x12,-487	 x12:0x8000297c x10=0x7fffd765
       47975000	      4796	80002b9c	631de293	ori	x5,x27,1585	 x27:0x7fffd641  x5=0x7fffd671
       47985000	      4797	80002ba0	408f80b3	sub	x1,x31,x8	 x31:0x00000000  x8:0x8000302f  x1=0x7fffcfd1
       47995000	      4798	80002ba4	c6568a13	addi	x20,x13,-923	 x13:0x80002860 x20=0x800024c5
       48005000	      4799	80002ba8	01bcd3b3	srl	x7,x25,x27	 x25:0x7fffd439 x27:0x7fffd641  x7=0x3fffea1c
       48015000	      4800	80002bac	00cc9793	slli	x15,x25,0xc	 x25:0x7fffd439 x15=0xfd439000
       48025000	      4801	80002bb0	012c3533	sltu	x10,x24,x18	 x24:0xfebf7031 x18:0x80009efc x10=0x00000000
       48035000	      4802	80002bb4	39d06493	ori	x9,x0,925	  x0:0x00000000  x9=0x0000039d
       48045000	      4803	80002bb8	03871663	bne	x14,x24,80002be4	 x14:0x00000000 x24:0xfebf7031
       48055000	      4804	00000000	00000013	addi	x0,x0,0	  x0:0x00000000
       48065000	      4805	80002be0	00000013	addi	x0,x0,0	  x0:0x00000000
       48075000	      4806	80002be4	00337333	and	x6,x6,x3	  x6:0x00000000  x3:0x001ffff5  x6=0x00000000
       48085000	      4807	80002be8	411808b3	sub	x17,x16,x17	 x16:0x8000225d x17:0x8000295c x17=0xfffff901
       48095000	      4808	80002bec	013d2ab3	slt	x21,x26,x19	 x26:0x800028f8 x19:0x00000000 x21=0x00000001
       48105000	      4809	80002bf0	046e6663	bltu	x28,x6,80002c3c	 x28:0x8000295c  x6:0x00000000
       48115000	      4810	80002bf4	01bd1e93	slli	x29,x26,0x1b	 x26:0x800028f8 x29=0xc0000000
       48125000	      4811	80002bf8	d062f093	andi	x1,x5,-762	  x5:0x7fffd671  x1=0x7fffd400
       48135000	      4812	80002bfc	0083b533	sltu	x10,x7,x8	  x7:0x3fffea1c  x8:0x8000302f x10=0x00000001
       48145000	      4813	80002c00	9086ae97	auipc	x29,0x9086a	 x29=0x1086cbfc
       48155000	      4814	80002c04	01881493	slli	x9,x16,0x18	 x16:0x8000225d  x9=0x5d000000
       48165000	      4815	80002c08	01725b93	srli	x23,x4,0x17	  x4:0x00000000 x23=0x00000000
       48175000	      4816	80002c0c	40bed213	srai	x4,x29,0xb	 x29:0x1086cbfc  x4=0x000210d9
       48185000	      4817	80002c10	f65e3a93	sltiu	x21,x28,-155	 x28:0x8000295c x21=0x00000001
       48195000	      4818	80002c14	41d65cb3	sra	x25,x12,x29	 x12:0x8000297c x29:0x1086cbfc x25=0xfffffff8
       48205000	      4819	80002c18	40e65833	sra	x16,x12,x14	 x12:0x8000297c x14:0x00000000 x16=0x8000297c
       48215000	      4820	80002c1c	b7588193	addi	x3,x17,-1163	 x17:0xfffff901  x3=0xfffff476
       48225000	      4821	80002c20	00605833	srl	x16,x0,x6	  x0:0x00000000  x6:0x00000000 x16=0x00000000
       48235000	      4822	80002c24	13029b97	auipc	x23,0x13029	 x23=0x9302bc20
       48245000	      4823	80002c28	58139f97	auipc	x31,0x58139	 x31=0xd813bc24
       48255000	      4824	80002c2c	40055f33	sra	x30,x10,x0	 x10:0x00000001  x0:0x00000000 x30=0x00000001
       48265000	      4825	80002c30	08664c63	blt	x12,x6,80002cc8	 x12:0x8000297c  x6:0x00000000
       48275000	      4826	00000000	00000013	addi	x0,x0,0	  x0:0x00000000
       48285000	      4827	80002cc4	00000013	addi	x0,x0,0	  x0:0x00000000
       48295000	      4828	80002cc8	00c91433	sll	x8,x18,x12	 x18:0x80009efc x12:0x8000297c  x8=0xc0000000
       48305000	      4829	80002ccc	00000013	addi	x0,x0,0	  x0:0x00000000
       48315000	      4830	80002cd0	02dc0e63	beq	x24,x13,80002d0c	 x24:0xfebf7031 x13:0x80002860
       48325000	      4831	80002cd4	b3ef7293	andi	x5,x30,-1218	 x30:0x00000001  x5=0x00000000
       48335000	      4832	80002cd8	10322d37	lui	x26,0x10322	 x26=0x10322000
       48345000	      4833	80002cdc	02626e63	bltu	x4,x6,80002d18	  x4:0x000210d9  x6:0x00000000
       48355000	      4834	80002ce0	2a496493	ori	x9,x18,676	 x18:0x80009efc  x9=0x80009efc
       48365000	      4835	80002ce4	015b9463	bne	x23,x21,80002cec	 x23:0x9302bc20 x21:0x00000001
       48375000	      4836	00000000	00000013	addi	x0,x0,0	  x0:0x00000000
       48385000	      4837	80002ce8	00000013	addi	x0,x0,0	  x0:0x00000000
       48395000	      4838	80002cec	00db17b3	sll	x15,x22,x13	 x22:0x80009fc4 x13:0x80002860 x15=0x80009fc4
       48405000	      4839	80002cf0	014c47b3	xor	x15,x24,x20	 x24:0xfebf7031 x20:0x800024c5 x15=0x7ebf54f4
       48415000	      4840	80002cf4	686eed13	ori	x26,x29,1670	 x29:0x1086cbfc x26=0x1086cffe
       48425000	      4841	80002cf8	02041463	bne	x8,x0,80002d20	  x8:0xc0000000  x0:0x00000000
       48435000	      4842	00000000	00000013	addi	x0,x0,0	  x0:0x00000000
       48445000	      4843	80002d1c	00000013	addi	x0,x0,0	  x0:0x00000000
       48455000	      4844	80002d20	dbeb4d93	xori	x27,x22,-578	 x22:0x80009fc4 x27=0x7fff627a
       48465000	      4845	80002d24	00be50b3	srl	x1,x28,x11	 x28:0x8000295c x11:0x80002900  x1=0x8000295c
       48475000	      4846	80002d28	017834b3	sltu	x9,x16,x23	 x16:0x00000000 x23:0x9302bc20  x9=0x00000001
       48485000	      4847	80002d2c	64936893	ori	x17,x6,1609	  x6:0x00000000 x17=0x00000649
       48495000	      4848	80002d30	00fe2333	slt	x6,x28,x15	 x28:0x8000295c x15:0x7ebf54f4  x6=0x00000001
       48505000	      4849	80002d34	012c1db3	sll	x27,x24,x18	 x24:0xfebf7031 x18:0x80009efc x27=0x10000000
       48515000	      4850	80002d38	b5808b97	auipc	x23,0xb5808	 x23=0x3580ad34
       48525000	      4851	80002d3c	0073fa63	bgeu	x7,x7,80002d50	  x7:0x3fffea1c  x7:0x3fffea1c
       48535000	      4852	00000000	00000013	addi	x0,x0,0	  x0:0x00000000
       48545000	      4853	80002d4c	00000013	addi	x0,x0,0	  x0:0x00000000
       48555000	      4854	80002d50	6cdc4793	xori	x15,x24,1741	 x24:0xfebf7031 x15=0xfebf76fc
       48565000	      4855	80002d54	f9796193	ori	x3,x18,-105	 x18:0x80009efc  x3=0xffffffff
       48575000	      4856	80002d58	01c00f6f	jal	x30,80002d58	 x30=0x80002d58
       48585000	      4857	00000000	00000013	addi	x0,x0,0	  x0:0x00000000
       48595000	      4858	80002d70	00000013	addi	x0,x0,0	  x0:0x00000000
       48605000	      4859	80002d74	ffdff0ef	jal	x1,80002d74	  x1=0x80002d74
       48615000	      4860	00000000	00000013	addi	x0,x0,0	  x0:0x00000000
       48625000	      4861	80002d6c	00000013	addi	x0,x0,0	  x0:0x00000000
       48635000	      4862	80002d70	008000ef	jal	x1,80002d70	  x1=0x80002d70
       48645000	      4863	00000000	00000013	addi	x0,x0,0	  x0:0x00000000
       48655000	      4864	80002d74	00000013	addi	x0,x0,0	  x0:0x00000000
       48665000	      4865	80002d78	ff1ff0ef	jal	x1,80002d78	  x1=0x80002d78
       48675000	      4866	00000000	00000013	addi	x0,x0,0	  x0:0x00000000
       48685000	      4867	80002d64	00000013	addi	x0,x0,0	  x0:0x00000000
       48695000	      4868	80002d68	ff5ff36f	jal	x6,80002d68	  x6=0x80002d68
       48705000	      4869	00000000	00000013	addi	x0,x0,0	  x0:0x00000000
       48715000	      4870	80002d58	00000013	addi	x0,x0,0	  x0:0x00000000
       48725000	      4871	80002d5c	0100036f	jal	x6,80002d5c	  x6=0x80002d5c
       48735000	      4872	00000000	00000013	addi	x0,x0,0	  x0:0x00000000
       48745000	      4873	80002d68	00000013	addi	x0,x0,0	  x0:0x00000000
       48755000	      4874	80002d6c	ff9ff8ef	jal	x17,80002d6c	 x17=0x80002d6c
       48765000	      4875	00000000	00000013	addi	x0,x0,0	  x0:0x00000000
       48775000	      4876	80002d60	00000013	addi	x0,x0,0	  x0:0x00000000
       48785000	      4877	80002d64	ffdff0ef	jal	x1,80002d64	  x1=0x80002d64
       48795000	      4878	00000000	00000013	addi	x0,x0,0	  x0:0x00000000
       48805000	      4879	80002d5c	00000013	addi	x0,x0,0	  x0:0x00000000
       48815000	      4880	80002d60	01c0076f	jal	x14,80002d60	 x14=0x80002d60
       48825000	      4881	00000000	00000013	addi	x0,x0,0	  x0:0x00000000
       48835000	      4882	80002d78	00000013	addi	x0,x0,0	  x0:0x00000000
       48845000	      4883	80002d7c	00400def	jal	x27,80002d7c	 x27=0x80002d7c
       48855000	      4884	00000000	00000013	addi	x0,x0,0	  x0:0x00000000
       48865000	      4885	80002d7c	00000013	addi	x0,x0,0	  x0:0x00000000
       48875000	      4886	80002d80	004000ef	jal	x1,80002d80	  x1=0x80002d80
       48885000	      4887	00000000	00000013	addi	x0,x0,0	  x0:0x00000000
       48895000	      4888	80002d80	00000013	addi	x0,x0,0	  x0:0x00000000
       48905000	      4889	80002d84	596173b7	lui	x7,0x59617	  x7=0x59617000
       48915000	      4890	80002d88	4480b493	sltiu	x9,x1,1096	  x1:0x80002d80  x9=0x00000000
       48925000	      4891	80002d8c	05d09463	bne	x1,x29,80002dd4	  x1:0x80002d80 x29:0x1086cbfc
       48935000	      4892	00000000	00000013	addi	x0,x0,0	  x0:0x00000000
       48945000	      4893	80002dd0	00000013	addi	x0,x0,0	  x0:0x00000000
       48955000	      4894	80002dd4	01c88333	add	x6,x17,x28	 x17:0x80002d6c x28:0x8000295c  x6=0x000056c8
       48965000	      4895	80002dd8	2964ea97	auipc	x21,0x2964e	 x21=0xa9650dd4
       48975000	      4896	80002ddc	00e54233	xor	x4,x10,x14	 x10:0x00000001 x14:0x80002d60  x4=0x80002d61
       48985000	      4897	80002de0	f938c293	xori	x5,x17,-109	 x17:0x80002d6c  x5=0x7fffd2ff
       48995000	      4898	80002de4	75430fb7	lui	x31,0x75430	 x31=0x75430000
       49005000	      4899	80002de8	fef3e393	ori	x7,x7,-17	  x7:0x59617000  x7=0xffffffef
       49015000	      4900	80002dec	04bc8063	beq	x25,x11,80002e2c	 x25:0xfffffff8 x11:0x80002900
       49025000	      4901	80002df0	90064f13	xori	x30,x12,-1792	 x12:0x8000297c x30=0x7fffd07c
       49035000	      4902	80002df4	04dd8063	beq	x27,x13,80002e34	 x27:0x80002d7c x13:0x80002860
       49045000	      4903	80002df8	01e6c233	xor	x4,x13,x30	 x13:0x80002860 x30:0x7fffd07c  x4=0xfffff81c
       49055000	      4904	80002dfc	41238833	sub	x16,x7,x18	  x7:0xffffffef x18:0x80009efc x16=0x7fff60f3
       49065000	      4905	80002e00	41ddd793	srai	x15,x27,0x1d	 x27:0x80002d7c x15=0xfffffffc
       49075000	      4906	80002e04	00c58bb3	add	x23,x11,x12	 x11:0x80002900 x12:0x8000297c x23=0x0000527c
       49085000	      4907	80002e08	00e27463	bgeu	x4,x14,80002e10	  x4:0xfffff81c x14:0x80002d60
       49095000	      4908	00000000	00000013	addi	x0,x0,0	  x0:0x00000000
       49105000	      4909	80002e0c	00000013	addi	x0,x0,0	  x0:0x00000000
       49115000	      4910	80002e10	137b2097	auipc	x1,0x137b2	  x1=0x937b4e0c
       49125000	      4911	80002e14	00839663	bne	x7,x8,80002e20	  x7:0xffffffef  x8:0xc0000000
       49135000	      4912	00000000	00000013	addi	x0,x0,0	  x0:0x00000000
       49145000	      4913	80002e1c	00000013	addi	x0,x0,0	  x0:0x00000000
       49155000	      4914	80002e20	0a0055b7	lui	x11,0xa005	 x11=0x0a005000
       49165000	      4915	80002e24	e4ffc993	xori	x19,x31,-433	 x31:0x75430000 x19=0x8abcfe4f
       49175000	      4916	80002e28	0120c733	xor	x14,x1,x18	  x1:0x937b4e0c x18:0x80009efc x14=0x137bd0f0
       49185000	      4917	80002e2c	18311f37	lui	x30,0x18311	 x30=0x18311000
       49195000	      4918	80002e30	014adc63	bge	x21,x20,80002e48	 x21:0xa9650dd4 x20:0x800024c5
       49205000	      4919	00000000	00000013	addi	x0,x0,0	  x0:0x00000000
       49215000	      4920	80002e44	00000013	addi	x0,x0,0	  x0:0x00000000
       49225000	      4921	80002e48	01dc9d13	slli	x26,x25,0x1d	 x25:0xfffffff8 x26=0x00000000
       49235000	      4922	80002e4c	00ed7eb3	and	x29,x26,x14	 x26:0x00000000 x14:0x137bd0f0 x29=0x00000000
       49245000	      4923	80002e50	017ada63	bge	x21,x23,80002e64	 x21:0xa9650dd4 x23:0x0000527c
       49255000	      4924	80002e54	00131e63	bne	x6,x1,80002e70	  x6:0x000056c8  x1:0x937b4e0c
       49265000	      4925	00000000	00000013	addi	x0,x0,0	  x0:0x00000000
       49275000	      4926	80002e6c	00000013	addi	x0,x0,0	  x0:0x00000000
       49285000	      4927	80002e70	f393e593	ori	x11,x7,-199	  x7:0xffffffef x11=0xffffffff
       49295000	      4928	80002e74	4167d333	sra	x6,x15,x22	 x15:0xfffffffc x22:0x80009fc4  x6=0xffffffff
       49305000	      4929	80002e78	5d162993	slti	x19,x12,1489	 x12:0x8000297c x19=0x00000001
       49315000	      4930	80002e7c	0074a433	slt	x8,x9,x7	  x9:0x00000000  x7:0xffffffef  x8=0x00000000
       49325000	      4931	80002e80	01bd4db3	xor	x27,x26,x27	 x26:0x00000000 x27:0x80002d7c x27=0x80002d7c
       49335000	      4932	80002e84	00fdf9b3	and	x19,x27,x15	 x27:0x80002d7c x15:0xfffffffc x19=0x80002d7c
       49345000	      4933	80002e88	63b92193	slti	x3,x18,1595	 x18:0x80009efc  x3=0x00000001
       49355000	      4934	80002e8c	01892033	slt	x0,x18,x24	 x18:0x80009efc x24:0xfebf7031
       49365000	      4935	80002e90	01bb7333	and	x6,x22,x27	 x22:0x80009fc4 x27:0x80002d7c  x6=0x80000d44
       49375000	      4936	80002e94	038eca63	blt	x29,x24,80002ec8	 x29:0x00000000 x24:0xfebf7031
       49385000	      4937	80002e98	012834b3	sltu	x9,x16,x18	 x16:0x7fff60f3 x18:0x80009efc  x9=0x00000001
       49395000	      4938	80002e9c	010f9f93	slli	x31,x31,0x10	 x31:0x75430000 x31=0x00000000
       49405000	      4939	80002ea0	08729063	bne	x5,x7,80002f20	  x5:0x7fffd2ff  x7:0xffffffef
       49415000	      4940	00000000	00000013	addi	x0,x0,0	  x0:0x00000000
       49425000	      4941	80002f1c	00000013	addi	x0,x0,0	  x0:0x00000000
       49435000	      4942	80002f20	009e57b3	srl	x15,x28,x9	 x28:0x8000295c  x9:0x00000001 x15=0x400014ae
       49445000	      4943	80002f24	010bea63	bltu	x23,x16,80002f38	 x23:0x0000527c x16:0x7fff60f3
       49455000	      4944	00000000	00000013	addi	x0,x0,0	  x0:0x00000000
       49465000	      4945	80002f34	00000013	addi	x0,x0,0	  x0:0x00000000
       49475000	      4946	80002f38	01c397b3	sll	x15,x7,x28	  x7:0xffffffef x28:0x8000295c x15=0xf0000000
       49485000	      4947	80002f3c	42f90213	addi	x4,x18,1071	 x18:0x80009efc  x4=0x8000a32b
       49495000	      4948	80002f40	bafa2593	slti	x11,x20,-1105	 x20:0x800024c5 x11=0x00000001
       49505000	      4949	80002f44	41a88eb3	sub	x29,x17,x26	 x17:0x80002d6c x26:0x00000000 x29=0x80002d6c
       49515000	      4950	80002f48	401fd993	srai	x19,x31,0x1	 x31:0x00000000 x19=0x00000000
       49525000	      4951	80002f4c	3df70e93	addi	x29,x14,991	 x14:0x137bd0f0 x29=0x137bd4cf
       49535000	      4952	80002f50	058d0663	beq	x26,x24,80002f9c	 x26:0x00000000 x24:0xfebf7031
       49545000	      4953	80002f54	015b5213	srli	x4,x22,0x15	 x22:0x80009fc4  x4=0x00000400
       49555000	      4954	80002f58	008a5663	bge	x20,x8,80002f64	 x20:0x800024c5  x8:0x00000000
       49565000	      4955	80002f5c	00dbe8b3	or	x17,x23,x13	 x23:0x0000527c x13:0x80002860 x17=0x80007a7c
       49575000	      4956	80002f60	7cc00d93	addi	x27,x0,1996	  x0:0x00000000 x27=0x000007cc
       49585000	      4957	80002f64	41f68cb3	sub	x25,x13,x31	 x13:0x80002860 x31:0x00000000 x25=0x80002860
       49595000	      4958	80002f68	0475c063	blt	x11,x7,80002fa8	 x11:0x00000001  x7:0xffffffef
       49605000	      4959	80002f6c	406c0fb3	sub	x31,x24,x6	 x24:0xfebf7031  x6:0x80000d44 x31=0x7ebf62ed
       49615000	      4960	80002f70	da5cee93	ori	x29,x25,-603	 x25:0x80002860 x29=0xfffffde5
       49625000	      4961	80002f74	e1b26813	ori	x16,x4,-485	  x4:0x00000400 x16=0xfffffe1b
       49635000	      4962	80002f78	4c442f97	auipc	x31,0x4c442	 x31=0xcc444f74
       49645000	      4963	80002f7c	018e1233	sll	x4,x28,x24	 x28:0x8000295c x24:0xfebf7031  x4=0x52b80000
       49655000	      4964	80002f80	0090d3b3	srl	x7,x1,x9	  x1:0x937b4e0c  x9:0x00000001  x7=0x49bda706
       49665000	      4965	80002f84	0150e633	or	x12,x1,x21	  x1:0x937b4e0c x21:0xa9650dd4 x12=0xbb7f4fdc
       49675000	      4966	80002f88	00eae233	or	x4,x21,x14	 x21:0xa9650dd4 x14:0x137bd0f0  x4=0xbb7fddf4
       49685000	      4967	80002f8c	00e49a33	sll	x20,x9,x14	  x9:0x00000001 x14:0x137bd0f0 x20=0x00010000
       49695000	      4968	80002f90	00000013	addi	x0,x0,0	  x0:0x00000000
       49705000	      4969	80002f94	402ad0b3	sra	x1,x21,x2	 x21:0xa9650dd4  x2:0x00000000  x1=0xa9650dd4
       49715000	      4970	80002f98	00725713	srli	x14,x4,0x7	  x4:0xbb7fddf4 x14=0x0176ffbb
       49725000	      4971	80002f9c	00000013	addi	x0,x0,0	  x0:0x00000000
       49735000	      4972	80002fa0	01dfd863	bge	x31,x29,80002fb0	 x31:0xcc444f74 x29:0xfffffde5
       49745000	      4973	80002fa4	d1d14093	xori	x1,x2,-739	  x2:0x00000000  x1=0xfffffd1d
       49755000	      4974	80002fa8	01795f13	srli	x30,x18,0x17	 x18:0x80009efc x30=0x00000100
       49765000	      4975	80002fac	0000e3b3	or	x7,x1,x0	  x1:0xfffffd1d  x0:0x00000000  x7=0xfffffd1d
       49775000	      4976	80002fb0	02b0fa63	bgeu	x1,x11,80002fe4	  x1:0xfffffd1d x11:0x00000001
       49785000	      4977	00000000	00000013	addi	x0,x0,0	  x0:0x00000000
       49795000	      4978	80002fe0	00000013	addi	x0,x0,0	  x0:0x00000000
       49805000	      4979	80002fe4	4189d4b3	sra	x9,x19,x24	 x19:0x00000000 x24:0xfebf7031  x9=0x00000000
       49815000	      4980	80002fe8	61d37c93	andi	x25,x6,1565	  x6:0x80000d44 x25=0x00000404
       49825000	      4981	80002fec	417a82b3	sub	x5,x21,x23	 x21:0xa9650dd4 x23:0x0000527c  x5=0xa964bb58
       49835000	      4982	80002ff0	27504e13	xori	x28,x0,629	  x0:0x00000000 x28=0x00000275
       49845000	      4983	80002ff4	bbb70a93	addi	x21,x14,-1093	 x14:0x0176ffbb x21=0x0176fb76
       49855000	      4984	80002ff8	ae5a8137	lui	x2,0xae5a8	  x2=0xae5a8000
       49865000	      4985	80002ffc	00221633	sll	x12,x4,x2	  x4:0xbb7fddf4  x2:0xae5a8000 x12=0xbb7fddf4
       49875000	      4986	80003000	01bc4a33	xor	x20,x24,x27	 x24:0xfebf7031 x27:0x000007cc x20=0xfebf77fd
       49885000	      4987	80003004	415c5433	sra	x8,x24,x21	 x24:0xfebf7031 x21:0x0176fb76  x8=0xfffffffa
       49895000	      4988	80003008	40785033	sra	x0,x16,x7	 x16:0xfffffe1b  x7:0xfffffd1d
       49905000	      4989	8000300c	03c38663	beq	x7,x28,80003038	  x7:0xfffffd1d x28:0x00000275
       49915000	      4990	80003010	40d785b3	sub	x11,x15,x13	 x15:0xf0000000 x13:0x80002860 x11=0x6fffd7a0
       49925000	      4991	80003014	dcae6893	ori	x17,x28,-566	 x28:0x00000275 x17=0xffffffff
       49935000	      4992	80003018	0347f263	bgeu	x15,x20,8000303c	 x15:0xf0000000 x20:0xfebf77fd
       49945000	      4993	8000301c	0150f5b3	and	x11,x1,x21	  x1:0xfffffd1d x21:0x0176fb76 x11=0x0176f914
       49955000	      4994	80003020	00b9a7b3	slt	x15,x19,x11	 x19:0x00000000 x11:0x0176f914 x15=0x00000001
       49965000	      4995	80003024	5408deb7	lui	x29,0x5408d	 x29=0x5408d000
       49975000	      4996	80003028	009a9633	sll	x12,x21,x9	 x21:0x0176fb76  x9:0x00000000 x12=0x0176fb76
       49985000	      4997	8000302c	401282b3	sub	x5,x5,x1	  x5:0xa964bb58  x1:0xfffffd1d  x5=0xa964be3b
       49995000	      4998	80003030	00b30db3	add	x27,x6,x11	  x6:0x80000d44 x11:0x0176f914 x27=0x81770658
       50005000	      4999	80003034	3f9ee213	ori	x4,x29,1017	 x29:0x5408d000  x4=0x5408d3f9
       50015000	      5000	80003038	b3e30813	addi	x16,x6,-1218	  x6:0x80000d44 x16=0x80000882
       50025000	      5001	8000303c	00124433	xor	x8,x4,x1	  x4:0x5408d3f9  x1:0xfffffd1d  x8=0xabf72ee4
       50035000	      5002	80003040	00435f93	srli	x31,x6,0x4	  x6:0x80000d44 x31=0x080000d4
       50045000	      5003	80003044	00edb833	sltu	x16,x27,x14	 x27:0x81770658 x14:0x0176ffbb x16=0x00000000
       50055000	      5004	80003048	34c66993	ori	x19,x12,844	 x12:0x0176fb76 x19=0x0176fb7e
       50065000	      5005	8000304c	01959c63	bne	x11,x25,80003064	 x11:0x0176f914 x25:0x00000404
       50075000	      5006	00000000	00000013	addi	x0,x0,0	  x0:0x00000000
       50085000	      5007	80003060	00000013	addi	x0,x0,0	  x0:0x00000000
       50095000	      5008	80003064	f55f85b7	lui	x11,0xf55f8	 x11=0xf55f8000
       50105000	      5009	80003068	d95d2113	slti	x2,x26,-619	 x26:0x00000000  x2=0x00000000
       50115000	      5010	8000306c	9d18c193	xori	x3,x17,-1583	 x17:0xffffffff  x3=0x0000062e
       50125000	      5011	80003070	bb666837	lui	x16,0xbb666	 x16=0xbb666000
       50135000	      5012	80003074	405dd893	srai	x17,x27,0x5	 x27:0x81770658 x17=0xfc0bb832
       50145000	      5013	80003078	59ce0093	addi	x1,x28,1436	 x28:0x00000275  x1=0x00000811
       50155000	      5014	8000307c	003d43b3	xor	x7,x26,x3	 x26:0x00000000  x3:0x0000062e  x7=0x0000062e
       50165000	      5015	80003080	d53a8497	auipc	x9,0xd53a8	  x9=0x553ab07c
       50175000	      5016	80003084	01f04c63	blt	x0,x31,8000309c	  x0:0x00000000 x31:0x080000d4
       50185000	      5017	00000000	00000013	addi	x0,x0,0	  x0:0x00000000
       50195000	      5018	80003098	00000013	addi	x0,x0,0	  x0:0x00000000
       50205000	      5019	8000309c	006cd8b3	srl	x17,x25,x6	 x25:0x00000404  x6:0x80000d44 x17=0x00000040
       50215000	      5020	800030a0	00ce3433	sltu	x8,x28,x12	 x28:0x00000275 x12:0x0176fb76  x8=0x00000001
       50225000	      5021	800030a4	00fd6633	or	x12,x26,x15	 x26:0x00000000 x15:0x00000001 x12=0x00000001
       50235000	      5022	800030a8	01ede533	or	x10,x27,x30	 x27:0x81770658 x30:0x00000100 x10=0x81770758
       50245000	      5023	800030ac	409b5193	srai	x3,x22,0x9	 x22:0x80009fc4  x3=0xffc0004f
       50255000	      5024	800030b0	dd8d7413	andi	x8,x26,-552	 x26:0x00000000  x8=0x00000000
       50265000	      5025	800030b4	01961eb3	sll	x29,x12,x25	 x12:0x00000001 x25:0x00000404 x29=0x00000010
       50275000	      5026	800030b8	1add7793	andi	x15,x26,429	 x26:0x00000000 x15=0x00000000
       50285000	      5027	800030bc	00000013	addi	x0,x0,0	  x0:0x00000000
       50295000	      5028	800030c0	03709a63	bne	x1,x23,800030f4	  x1:0x00000811 x23:0x0000527c
       50305000	      5029	00000000	00000013	addi	x0,x0,0	  x0:0x00000000
       50315000	      5030	800030f0	00000013	addi	x0,x0,0	  x0:0x00000000
       50325000	      5031	800030f4	01cdea63	bltu	x27,x28,80003108	 x27:0x81770658 x28:0x00000275
       50335000	      5032	800030f8	00a98663	beq	x19,x10,80003104	 x19:0x0176fb7e x10:0x81770758
       50345000	      5033	800030fc	7ec18393	addi	x7,x3,2028	  x3:0xffc0004f  x7=0xffc0083b
       50355000	      5034	80003100	00a45613	srli	x12,x8,0xa	  x8:0x00000000 x12=0x00000000
       50365000	      5035	80003104	00000013	addi	x0,x0,0	  x0:0x00000000
       50375000	      5036	80003108	01c48bb3	add	x23,x9,x28	  x9:0x553ab07c x28:0x00000275 x23=0x553ab2f1
       50385000	      5037	8000310c	40c95013	srai	x0,x18,0xc	 x18:0x80009efc
       50395000	      5038	80003110	003c0833	add	x16,x24,x3	 x24:0xfebf7031  x3:0xffc0004f x16=0xfe7f7080
       50405000	      5039	80003114	00bd0c63	beq	x26,x11,8000312c	 x26:0x00000000 x11:0xf55f8000
       50415000	      5040	80003118	0118d113	srli	x2,x17,0x11	 x17:0x00000040  x2=0x00000000
       50425000	      5041	8000311c	00000013	addi	x0,x0,0	  x0:0x00000000
       50435000	      5042	80003120	c77a4613	xori	x12,x20,-905	 x20:0xfebf77fd x12=0x01408b8a
       50445000	      5043	80003124	b6d1ba93	sltiu	x21,x3,-1171	  x3:0xffc0004f x21=0x00000001
       50455000	      5044	80003128	5a70b6b7	lui	x13,0x5a70b	 x13=0x5a70b000
       50465000	      5045	8000312c	01cae9b3	or	x19,x21,x28	 x21:0x00000001 x28:0x00000275 x19=0x00000275
       50475000	      5046	80003130	01a2ef33	or	x30,x5,x26	  x5:0xa964be3b x26:0x00000000 x30=0xa964be3b
       50485000	      5047	80003134	fd76c513	xori	x10,x13,-41	 x13:0x5a70b000 x10=0xa58f4fd7
       50495000	      5048	80003138	007276b3	and	x13,x4,x7	  x4:0x5408d3f9  x7:0xffc0083b x13=0x54000039
       50505000	      5049	8000313c	02d6fe63	bgeu	x13,x13,80003178	 x13:0x54000039 x13:0x54000039
       50515000	      5050	00000000	00000013	addi	x0,x0,0	  x0:0x00000000
       50525000	      5051	80003174	00000013	addi	x0,x0,0	  x0:0x00000000
       50535000	      5052	80003178	00c60d33	add	x26,x12,x12	 x12:0x01408b8a x12:0x01408b8a x26=0x02811714
       50545000	      5053	8000317c	7ae00213	addi	x4,x0,1966	  x0:0x00000000  x4=0x000007ae
       50555000	      5054	80003180	01e4ec63	bltu	x9,x30,80003198	  x9:0x553ab07c x30:0xa964be3b
       50565000	      5055	00000000	00000013	addi	x0,x0,0	  x0:0x00000000
       50575000	      5056	80003194	00000013	addi	x0,x0,0	  x0:0x00000000
       50585000	      5057	80003198	8d154e93	xori	x29,x10,-1839	 x10:0xa58f4fd7 x29=0x5a70b706
       50595000	      5058	8000319c	40408e33	sub	x28,x1,x4	  x1:0x00000811  x4:0x000007ae x28=0x00000063
       50605000	      5059	800031a0	02b10463	beq	x2,x11,800031c8	  x2:0x00000000 x11:0xf55f8000
       50615000	      5060	800031a4	e077ff13	andi	x30,x15,-505	 x15:0x00000000 x30=0x00000000
       50625000	      5061	800031a8	040c0063	beq	x24,x0,800031e8	 x24:0xfebf7031  x0:0x00000000
       50635000	      5062	800031ac	006ad993	srli	x19,x21,0x6	 x21:0x00000001 x19=0x00000000
       50645000	      5063	800031b0	00bb5c63	bge	x22,x11,800031c8	 x22:0x80009fc4 x11:0xf55f8000
       50655000	      5064	800031b4	017d5e33	srl	x28,x26,x23	 x26:0x02811714 x23:0x553ab2f1 x28=0x00000140
       50665000	      5065	800031b8	9cb60493	addi	x9,x12,-1589	 x12:0x01408b8a  x9=0x01408555
       50675000	      5066	800031bc	9d71f513	andi	x10,x3,-1577	  x3:0xffc0004f x10=0xffc00047
       50685000	      5067	800031c0	04e8d663	bge	x17,x14,8000320c	 x17:0x00000040 x14:0x0176ffbb
       50695000	      5068	800031c4	015789b3	add	x19,x15,x21	 x15:0x00000000 x21:0x00000001 x19=0x00000001
       50705000	      5069	800031c8	005ed693	srli	x13,x29,0x5	 x29:0x5a70b706 x13=0x02d385b8
       50715000	      5070	800031cc	013f6cb3	or	x25,x30,x19	 x30:0x00000000 x19:0x00000001 x25=0x00000001
       50725000	      5071	800031d0	41dedb93	srai	x23,x29,0x1d	 x29:0x5a70b706 x23=0x00000002
       50735000	      5072	800031d4	d327bd97	auipc	x27,0xd327b	 x27=0x5327e1d0
       50745000	      5073	800031d8	016604b3	add	x9,x12,x22	 x12:0x01408b8a x22:0x80009fc4  x9=0x81412b4e
       50755000	      5074	800031dc	a90d0e17	auipc	x28,0xa90d0	 x28=0x290d31d8
       50765000	      5075	800031e0	8d4b7513	andi	x10,x22,-1836	 x22:0x80009fc4 x10=0x800098c4
       50775000	      5076	800031e4	00000013	addi	x0,x0,0	  x0:0x00000000
       50785000	      5077	800031e8	f2d36593	ori	x11,x6,-211	  x6:0x80000d44 x11=0xffffff6d
       50795000	      5078	800031ec	c67d2097	auipc	x1,0xc67d2	  x1=0x467d51e8
       50805000	      5079	800031f0	00a4d193	srli	x3,x9,0xa	  x9:0x81412b4e  x3=0x0020504a
       50815000	      5080	800031f4	0267e663	bltu	x15,x6,80003220	 x15:0x00000000  x6:0x80000d44
       50825000	      5081	00000000	00000013	addi	x0,x0,0	  x0:0x00000000
       50835000	      5082	8000321c	00000013	addi	x0,x0,0	  x0:0x00000000
       50845000	      5083	80003220	00477633	and	x12,x14,x4	 x14:0x0176ffbb  x4:0x000007ae x12=0x000007aa
       50855000	      5084	80003224	00c10a33	add	x20,x2,x12	  x2:0x00000000 x12:0x000007aa x20=0x000007aa
       50865000	      5085	80003228	01978e33	add	x28,x15,x25	 x15:0x00000000 x25:0x00000001 x28=0x00000001
       50875000	      5086	8000322c	00833f33	sltu	x30,x6,x8	  x6:0x80000d44  x8:0x00000000 x30=0x00000000
       50885000	      5087	80003230	02c00f6f	jal	x30,80003230	 x30=0x80003230
       50895000	      5088	00000000	00000013	addi	x0,x0,0	  x0:0x00000000
       50905000	      5089	80003258	00000013	addi	x0,x0,0	  x0:0x00000000
       50915000	      5090	8000325c	fe9ff5ef	jal	x11,8000325c	 x11=0x8000325c
       50925000	      5091	00000000	00000013	addi	x0,x0,0	  x0:0x00000000
       50935000	      5092	80003240	00000013	addi	x0,x0,0	  x0:0x00000000
       50945000	      5093	80003244	ff5ffdef	jal	x27,80003244	 x27=0x80003244
       50955000	      5094	00000000	00000013	addi	x0,x0,0	  x0:0x00000000
       50965000	      5095	80003234	00000013	addi	x0,x0,0	  x0:0x00000000
       50975000	      5096	80003238	0280036f	jal	x6,80003238	  x6=0x80003238
       50985000	      5097	00000000	00000013	addi	x0,x0,0	  x0:0x00000000
       50995000	      5098	8000325c	00000013	addi	x0,x0,0	  x0:0x00000000
       51005000	      5099	80003260	ff1ff0ef	jal	x1,80003260	  x1=0x80003260
       51015000	      5100	00000000	00000013	addi	x0,x0,0	  x0:0x00000000
       51025000	      5101	8000324c	00000013	addi	x0,x0,0	  x0:0x00000000
       51035000	      5102	80003250	fe5ff2ef	jal	x5,80003250	  x5=0x80003250
       51045000	      5103	00000000	00000013	addi	x0,x0,0	  x0:0x00000000
       51055000	      5104	80003230	00000013	addi	x0,x0,0	  x0:0x00000000
       51065000	      5105	80003234	0300076f	jal	x14,80003234	 x14=0x80003234
       51075000	      5106	00000000	00000013	addi	x0,x0,0	  x0:0x00000000
       51085000	      5107	80003260	00000013	addi	x0,x0,0	  x0:0x00000000
       51095000	      5108	80003264	fe9ff36f	jal	x6,80003264	  x6=0x80003264
       51105000	      5109	00000000	00000013	addi	x0,x0,0	  x0:0x00000000
       51115000	      5110	80003248	00000013	addi	x0,x0,0	  x0:0x00000000
       51125000	      5111	8000324c	ff1ff0ef	jal	x1,8000324c	  x1=0x8000324c
       51135000	      5112	00000000	00000013	addi	x0,x0,0	  x0:0x00000000
       51145000	      5113	80003238	00000013	addi	x0,x0,0	  x0:0x00000000
       51155000	      5114	8000323c	038000ef	jal	x1,8000323c	  x1=0x8000323c
       51165000	      5115	00000000	00000013	addi	x0,x0,0	  x0:0x00000000
       51175000	      5116	80003270	00000013	addi	x0,x0,0	  x0:0x00000000
       51185000	      5117	80003274	ff5ff0ef	jal	x1,80003274	  x1=0x80003274
       51195000	      5118	00000000	00000013	addi	x0,x0,0	  x0:0x00000000
       51205000	      5119	80003264	00000013	addi	x0,x0,0	  x0:0x00000000
       51215000	      5120	80003268	008009ef	jal	x19,80003268	 x19=0x80003268
       51225000	      5121	00000000	00000013	addi	x0,x0,0	  x0:0x00000000
       51235000	      5122	8000326c	00000013	addi	x0,x0,0	  x0:0x00000000
       51245000	      5123	80003270	fe5ff0ef	jal	x1,80003270	  x1=0x80003270
       51255000	      5124	00000000	00000013	addi	x0,x0,0	  x0:0x00000000
       51265000	      5125	80003250	00000013	addi	x0,x0,0	  x0:0x00000000
       51275000	      5126	80003254	fedff0ef	jal	x1,80003254	  x1=0x80003254
       51285000	      5127	00000000	00000013	addi	x0,x0,0	  x0:0x00000000
       51295000	      5128	8000323c	00000013	addi	x0,x0,0	  x0:0x00000000
       51305000	      5129	80003240	038000ef	jal	x1,80003240	  x1=0x80003240
       51315000	      5130	00000000	00000013	addi	x0,x0,0	  x0:0x00000000
       51325000	      5131	80003274	00000013	addi	x0,x0,0	  x0:0x00000000
       51335000	      5132	80003278	ff5fffef	jal	x31,80003278	 x31=0x80003278
       51345000	      5133	00000000	00000013	addi	x0,x0,0	  x0:0x00000000
       51355000	      5134	80003268	00000013	addi	x0,x0,0	  x0:0x00000000
       51365000	      5135	8000326c	fedff5ef	jal	x11,8000326c	 x11=0x8000326c
       51375000	      5136	00000000	00000013	addi	x0,x0,0	  x0:0x00000000
       51385000	      5137	80003254	00000013	addi	x0,x0,0	  x0:0x00000000
       51395000	      5138	80003258	ff1ff36f	jal	x6,80003258	  x6=0x80003258
       51405000	      5139	00000000	00000013	addi	x0,x0,0	  x0:0x00000000
       51415000	      5140	80003244	00000013	addi	x0,x0,0	  x0:0x00000000
       51425000	      5141	80003248	0340036f	jal	x6,80003248	  x6=0x80003248
       51435000	      5142	00000000	00000013	addi	x0,x0,0	  x0:0x00000000
       51445000	      5143	80003278	00000013	addi	x0,x0,0	  x0:0x00000000
       51455000	      5144	8000327c	9ab88f93	addi	x31,x17,-1621	 x17:0x00000040 x31=0xfffff9eb
       51465000	      5145	80003280	01ff9ab3	sll	x21,x31,x31	 x31:0xfffff9eb x31:0xfffff9eb x21=0xffcf5800
       51475000	      5146	80003284	433f3393	sltiu	x7,x30,1075	 x30:0x80003230  x7=0x00000000
       51485000	      5147	80003288	89590a13	addi	x20,x18,-1899	 x18:0x80009efc x20=0x80009791
       51495000	      5148	8000328c	00bd9113	slli	x2,x27,0xb	 x27:0x80003244  x2=0x01922000
       51505000	      5149	80003290	013c7e33	and	x28,x24,x19	 x24:0xfebf7031 x19:0x80003268 x28=0x80003020
       51515000	      5150	80003294	00b35993	srli	x19,x6,0xb	  x6:0x80003248 x19=0x00100006
       51525000	      5151	80003298	97cf1f97	auipc	x31,0x97cf1	 x31=0x17cf4294
       51535000	      5152	8000329c	ccc6f093	andi	x1,x13,-820	 x13:0x02d385b8  x1=0x02d38488
       51545000	      5153	800032a0	40b18fb3	sub	x31,x3,x11	  x3:0x0020504a x11:0x8000326c x31=0x80201dde
       51555000	      5154	800032a4	00a9cbb3	xor	x23,x19,x10	 x19:0x00100006 x10:0x800098c4 x23=0x801098c2
       51565000	      5155	800032a8	0022e663	bltu	x5,x2,800032b4	  x5:0x80003250  x2:0x01922000
       51575000	      5156	800032ac	01c1f033	and	x0,x3,x28	  x3:0x0020504a x28:0x80003020
       51585000	      5157	800032b0	005bd233	srl	x4,x23,x5	 x23:0x801098c2  x5:0x80003250  x4=0x00008010
       51595000	      5158	800032b4	043d5663	bge	x26,x3,80003300	 x26:0x02811714  x3:0x0020504a
       51605000	      5159	00000000	00000013	addi	x0,x0,0	  x0:0x00000000
       51615000	      5160	800032fc	00000013	addi	x0,x0,0	  x0:0x00000000
       51625000	      5161	80003300	a600f813	andi	x16,x1,-1440	  x1:0x02d38488 x16=0x02d38000
       51635000	      5162	80003304	0040bdb3	sltu	x27,x1,x4	  x1:0x02d38488  x4:0x00008010 x27=0x00000000
       51645000	      5163	80003308	03411263	bne	x2,x20,8000332c	  x2:0x01922000 x20:0x80009791
       51655000	      5164	00000000	00000013	addi	x0,x0,0	  x0:0x00000000
       51665000	      5165	80003328	00000013	addi	x0,x0,0	  x0:0x00000000
       51675000	      5166	8000332c	016e5113	srli	x2,x28,0x16	 x28:0x80003020  x2=0x00000200
       51685000	      5167	80003330	2adf4413	xori	x8,x30,685	 x30:0x80003230  x8=0x8000309d
       51695000	      5168	80003334	41fd58b3	sra	x17,x26,x31	 x26:0x02811714 x31:0x80201dde x17=0x00000000
       51705000	      5169	80003338	b34a2013	slti	x0,x20,-1228	 x20:0x80009791
       51715000	      5170	8000333c	01a6f133	and	x2,x13,x26	 x13:0x02d385b8 x26:0x02811714  x2=0x02810510
       51725000	      5171	80003340	40ba0433	sub	x8,x20,x11	 x20:0x80009791 x11:0x8000326c  x8=0x00006525
       51735000	      5172	80003344	6cac6893	ori	x17,x24,1738	 x24:0xfebf7031 x17=0xfebf76fb
       51745000	      5173	80003348	aff98f13	addi	x30,x19,-1281	 x19:0x00100006 x30=0x000ffb05
       51755000	      5174	8000334c	458ed897	auipc	x17,0x458ed	 x17=0xc58f0348
       51765000	      5175	80003350	00f4de63	bge	x9,x15,8000336c	  x9:0x81412b4e x15:0x00000000
       51775000	      5176	80003354	00a7acb3	slt	x25,x15,x10	 x15:0x00000000 x10:0x800098c4 x25=0x00000000
       51785000	      5177	80003358	02744e63	blt	x8,x7,80003394	  x8:0x00006525  x7:0x00000000
       51795000	      5178	8000335c	01816a63	bltu	x2,x24,80003370	  x2:0x02810510 x24:0xfebf7031
       51805000	      5179	00000000	00000013	addi	x0,x0,0	  x0:0x00000000
       51815000	      5180	8000336c	00000013	addi	x0,x0,0	  x0:0x00000000
       51825000	      5181	80003370	01218333	add	x6,x3,x18	  x3:0x0020504a x18:0x80009efc  x6=0x8020ef46
       51835000	      5182	80003374	00f6ee33	or	x28,x13,x15	 x13:0x02d385b8 x15:0x00000000 x28=0x02d385b8
       51845000	      5183	80003378	a7293893	sltiu	x17,x18,-1422	 x18:0x80009efc x17=0x00000001
       51855000	      5184	8000337c	00467eb3	and	x29,x12,x4	 x12:0x000007aa  x4:0x00008010 x29=0x00000000
       51865000	      5185	80003380	411a0133	sub	x2,x20,x17	 x20:0x80009791 x17:0x00000001  x2=0x80009790
       51875000	      5186	80003384	811f0293	addi	x5,x30,-2031	 x30:0x000ffb05  x5=0x000ff316
       51885000	      5187	80003388	01df1463	bne	x30,x29,80003390	 x30:0x000ffb05 x29:0x00000000
       51895000	      5188	00000000	00000013	addi	x0,x0,0	  x0:0x00000000
       51905000	      5189	8000338c	00000013	addi	x0,x0,0	  x0:0x00000000
       51915000	      5190	80003390	014eb333	sltu	x6,x29,x20	 x29:0x00000000 x20:0x80009791  x6=0x00000001
       51925000	      5191	80003394	f7b26693	ori	x13,x4,-133	  x4:0x00008010 x13=0xffffff7b
       51935000	      5192	80003398	00216a33	or	x20,x2,x2	  x2:0x80009790  x2:0x80009790 x20=0x80009790
       51945000	      5193	8000339c	23da3993	sltiu	x19,x20,573	 x20:0x80009790 x19=0x00000000
       51955000	      5194	800033a0	576f0d13	addi	x26,x30,1398	 x30:0x000ffb05 x26=0x0010007b
       51965000	      5195	800033a4	0048fc63	bgeu	x17,x4,800033bc	 x17:0x00000001  x4:0x00008010
       51975000	      5196	800033a8	b356cb93	xori	x23,x13,-1227	 x13:0xffffff7b x23=0x0000044e
       51985000	      5197	800033ac	0164d213	srli	x4,x9,0x16	  x9:0x81412b4e  x4=0x00000205
       51995000	      5198	800033b0	00618a63	beq	x3,x6,800033c4	  x3:0x0020504a  x6:0x00000001
       52005000	      5199	800033b4	41af0333	sub	x6,x30,x26	 x30:0x000ffb05 x26:0x0010007b  x6=0xfffffa8a
       52015000	      5200	800033b8	f8d3a693	slti	x13,x7,-115	  x7:0x00000000 x13=0x00000000
       52025000	      5201	800033bc	82ecc313	xori	x6,x25,-2002	 x25:0x00000000  x6=0xfffff82e
       52035000	      5202	800033c0	002799b3	sll	x19,x15,x2	 x15:0x00000000  x2:0x80009790 x19=0x00000000
       52045000	      5203	800033c4	0003f7b3	and	x15,x7,x0	  x7:0x00000000  x0:0x00000000 x15=0x00000000
       52055000	      5204	800033c8	41a35b93	srai	x23,x6,0x1a	  x6:0xfffff82e x23=0xffffffff
       52065000	      5205	800033cc	f7393d13	sltiu	x26,x18,-141	 x18:0x80009efc x26=0x00000001
       52075000	      5206	800033d0	03a9fa63	bgeu	x19,x26,80003404	 x19:0x00000000 x26:0x00000001
       52085000	      5207	800033d4	15a80b93	addi	x23,x16,346	 x16:0x02d38000 x23=0x02d3815a
       52095000	      5208	800033d8	41245633	sra	x12,x8,x18	  x8:0x00006525 x18:0x80009efc x12=0x00000000
       52105000	      5209	800033dc	00cfe733	or	x14,x31,x12	 x31:0x80201dde x12:0x00000000 x14=0x80201dde
       52115000	      5210	800033e0	87637f13	andi	x30,x6,-1930	  x6:0xfffff82e x30=0xfffff826
       52125000	      5211	800033e4	40fd5813	srai	x16,x26,0xf	 x26:0x00000001 x16=0x00000000
       52135000	      5212	800033e8	30472113	slti	x2,x14,772	 x14:0x80201dde  x2=0x00000001
       52145000	      5213	800033ec	010cde63	bge	x25,x16,80003408	 x25:0x00000000 x16:0x00000000
       52155000	      5214	00000000	00000013	addi	x0,x0,0	  x0:0x00000000
       52165000	      5215	80003404	00000013	addi	x0,x0,0	  x0:0x00000000
       52175000	      5216	80003408	72bab017	auipc	x0,0x72bab	
       52185000	      5217	8000340c	0063e833	or	x16,x7,x6	  x7:0x00000000  x6:0xfffff82e x16=0xfffff82e
       52195000	      5218	80003410	006c6cb3	or	x25,x24,x6	 x24:0xfebf7031  x6:0xfffff82e x25=0xfffff83f
       52205000	      5219	80003414	05051663	bne	x10,x16,80003460	 x10:0x800098c4 x16:0xfffff82e
       52215000	      5220	00000000	00000013	addi	x0,x0,0	  x0:0x00000000
       52225000	      5221	8000345c	00000013	addi	x0,x0,0	  x0:0x00000000
       52235000	      5222	80003460	a18b4d93	xori	x27,x22,-1512	 x22:0x80009fc4 x27=0x7fff65dc
       52245000	      5223	80003464	0010d0b3	srl	x1,x1,x1	  x1:0x02d38488  x1:0x02d38488  x1=0x0002d384
       52255000	      5224	80003468	01c91a63	bne	x18,x28,8000347c	 x18:0x80009efc x28:0x02d385b8
       52265000	      5225	00000000	00000013	addi	x0,x0,0	  x0:0x00000000
       52275000	      5226	80003478	00000013	addi	x0,x0,0	  x0:0x00000000
       52285000	      5227	8000347c	00c69333	sll	x6,x13,x12	 x13:0x00000000 x12:0x00000000  x6=0x00000000
       52295000	      5228	80003480	f472ee93	ori	x29,x5,-185	  x5:0x000ff316 x29=0xffffff57
       52305000	      5229	80003484	0152aa33	slt	x20,x5,x21	  x5:0x000ff316 x21:0xffcf5800 x20=0x00000000
       52315000	      5230	80003488	00000013	addi	x0,x0,0	  x0:0x00000000
       52325000	      5231	8000348c	01f6c333	xor	x6,x13,x31	 x13:0x00000000 x31:0x80201dde  x6=0x80201dde
       52335000	      5232	80003490	02410663	beq	x2,x4,800034bc	  x2:0x00000001  x4:0x00000205
       52345000	      5233	80003494	fd86b413	sltiu	x8,x13,-40	 x13:0x00000000  x8=0x00000001
       52355000	      5234	80003498	01c679b3	and	x19,x12,x28	 x12:0x00000000 x28:0x02d385b8 x19=0x00000000
       52365000	      5235	8000349c	00df7433	and	x8,x30,x13	 x30:0xfffff826 x13:0x00000000  x8=0x00000000
       52375000	      5236	800034a0	9701b237	lui	x4,0x9701b	  x4=0x9701b000
       52385000	      5237	800034a4	ba6fed13	ori	x26,x31,-1114	 x31:0x80201dde x26=0xfffffffe
       52395000	      5238	800034a8	e3122493	slti	x9,x4,-463	  x4:0x9701b000  x9=0x00000001
       52405000	      5239	800034ac	0261c263	blt	x3,x6,800034d0	  x3:0x0020504a  x6:0x80201dde
       52415000	      5240	800034b0	b99e1697	auipc	x13,0xb99e1	 x13=0x399e44ac
       52425000	      5241	800034b4	d74a4313	xori	x6,x20,-652	 x20:0x00000000  x6=0xfffffd74
       52435000	      5242	800034b8	03c04e63	blt	x0,x28,800034f4	  x0:0x00000000 x28:0x02d385b8
       52445000	      5243	00000000	00000013	addi	x0,x0,0	  x0:0x00000000
       52455000	      5244	800034f0	00000013	addi	x0,x0,0	  x0:0x00000000
       52465000	      5245	800034f4	016bb4b3	sltu	x9,x23,x22	 x23:0x02d3815a x22:0x80009fc4  x9=0x00000001
       52475000	      5246	800034f8	41d45f13	srai	x30,x8,0x1d	  x8:0x00000000 x30=0x00000000
       52485000	      5247	800034fc	7f43c017	auipc	x0,0x7f43c	
       52495000	      5248	80003500	21814593	xori	x11,x2,536	  x2:0x00000001 x11=0x00000219
       52505000	      5249	80003504	0124a033	slt	x0,x9,x18	  x9:0x00000001 x18:0x80009efc
       52515000	      5250	80003508	00000013	addi	x0,x0,0	  x0:0x00000000
       52525000	      5251	8000350c	00e6da93	srli	x21,x13,0xe	 x13:0x399e44ac x21=0x0000e679
       52535000	      5252	80003510	009d4433	xor	x8,x26,x9	 x26:0xfffffffe  x9:0x00000001  x8=0xffffffff
       52545000	      5253	80003514	04c00f6f	jal	x30,80003514	 x30=0x80003514
       52555000	      5254	00000000	00000013	addi	x0,x0,0	  x0:0x00000000
       52565000	      5255	8000355c	00000013	addi	x0,x0,0	  x0:0x00000000
       52575000	      5256	80003560	fedff36f	jal	x6,80003560	  x6=0x80003560
       52585000	      5257	00000000	00000013	addi	x0,x0,0	  x0:0x00000000
       52595000	      5258	80003548	00000013	addi	x0,x0,0	  x0:0x00000000
       52605000	      5259	8000354c	018000ef	jal	x1,8000354c	  x1=0x8000354c
       52615000	      5260	00000000	00000013	addi	x0,x0,0	  x0:0x00000000
       52625000	      5261	80003560	00000013	addi	x0,x0,0	  x0:0x00000000
       52635000	      5262	80003564	fd9ffd6f	jal	x26,80003564	 x26=0x80003564
       52645000	      5263	00000000	00000013	addi	x0,x0,0	  x0:0x00000000
       52655000	      5264	80003538	00000013	addi	x0,x0,0	  x0:0x00000000
       52665000	      5265	8000353c	01c000ef	jal	x1,8000353c	  x1=0x8000353c
       52675000	      5266	00000000	00000013	addi	x0,x0,0	  x0:0x00000000
       52685000	      5267	80003554	00000013	addi	x0,x0,0	  x0:0x00000000
       52695000	      5268	80003558	ffdff0ef	jal	x1,80003558	  x1=0x80003558
       52705000	      5269	00000000	00000013	addi	x0,x0,0	  x0:0x00000000
       52715000	      5270	80003550	00000013	addi	x0,x0,0	  x0:0x00000000
       52725000	      5271	80003554	fe1ff0ef	jal	x1,80003554	  x1=0x80003554
       52735000	      5272	00000000	00000013	addi	x0,x0,0	  x0:0x00000000
       52745000	      5273	80003530	00000013	addi	x0,x0,0	  x0:0x00000000
       52755000	      5274	80003534	0340036f	jal	x6,80003534	  x6=0x80003534
       52765000	      5275	00000000	00000013	addi	x0,x0,0	  x0:0x00000000
       52775000	      5276	80003564	00000013	addi	x0,x0,0	  x0:0x00000000
       52785000	      5277	80003568	fe1ff16f	jal	x2,80003568	  x2=0x80003568
       52795000	      5278	00000000	00000013	addi	x0,x0,0	  x0:0x00000000
       52805000	      5279	80003544	00000013	addi	x0,x0,0	  x0:0x00000000
       52815000	      5280	80003548	ff1ff16f	jal	x2,80003548	  x2=0x80003548
       52825000	      5281	00000000	00000013	addi	x0,x0,0	  x0:0x00000000
       52835000	      5282	80003534	00000013	addi	x0,x0,0	  x0:0x00000000
       52845000	      5283	80003538	fe5ff1ef	jal	x3,80003538	  x3=0x80003538
       52855000	      5284	00000000	00000013	addi	x0,x0,0	  x0:0x00000000
       52865000	      5285	80003518	00000013	addi	x0,x0,0	  x0:0x00000000
       52875000	      5286	8000351c	02400def	jal	x27,8000351c	 x27=0x8000351c
       52885000	      5287	00000000	00000013	addi	x0,x0,0	  x0:0x00000000
       52895000	      5288	8000353c	00000013	addi	x0,x0,0	  x0:0x00000000
       52905000	      5289	80003540	fe9ff0ef	jal	x1,80003540	  x1=0x80003540
       52915000	      5290	00000000	00000013	addi	x0,x0,0	  x0:0x00000000
       52925000	      5291	80003524	00000013	addi	x0,x0,0	  x0:0x00000000
       52935000	      5292	80003528	008000ef	jal	x1,80003528	  x1=0x80003528
       52945000	      5293	00000000	00000013	addi	x0,x0,0	  x0:0x00000000
       52955000	      5294	8000352c	00000013	addi	x0,x0,0	  x0:0x00000000
       52965000	      5295	80003530	ffdff1ef	jal	x3,80003530	  x3=0x80003530
       52975000	      5296	00000000	00000013	addi	x0,x0,0	  x0:0x00000000
       52985000	      5297	80003528	00000013	addi	x0,x0,0	  x0:0x00000000
       52995000	      5298	8000352c	0240036f	jal	x6,8000352c	  x6=0x8000352c
       53005000	      5299	00000000	00000013	addi	x0,x0,0	  x0:0x00000000
       53015000	      5300	8000354c	00000013	addi	x0,x0,0	  x0:0x00000000
       53025000	      5301	80003550	fd1ff76f	jal	x14,80003550	 x14=0x80003550
       53035000	      5302	00000000	00000013	addi	x0,x0,0	  x0:0x00000000
       53045000	      5303	8000351c	00000013	addi	x0,x0,0	  x0:0x00000000
       53055000	      5304	80003520	0240046f	jal	x8,80003520	  x8=0x80003520
       53065000	      5305	00000000	00000013	addi	x0,x0,0	  x0:0x00000000
       53075000	      5306	80003540	00000013	addi	x0,x0,0	  x0:0x00000000
       53085000	      5307	80003544	fd5ff0ef	jal	x1,80003544	  x1=0x80003544
       53095000	      5308	00000000	00000013	addi	x0,x0,0	  x0:0x00000000
       53105000	      5309	80003514	00000013	addi	x0,x0,0	  x0:0x00000000
       53115000	      5310	80003518	00c000ef	jal	x1,80003518	  x1=0x80003518
       53125000	      5311	00000000	00000013	addi	x0,x0,0	  x0:0x00000000
       53135000	      5312	80003520	00000013	addi	x0,x0,0	  x0:0x00000000
       53145000	      5313	80003524	0380036f	jal	x6,80003524	  x6=0x80003524
       53155000	      5314	00000000	00000013	addi	x0,x0,0	  x0:0x00000000
       53165000	      5315	80003558	00000013	addi	x0,x0,0	  x0:0x00000000
       53175000	      5316	8000355c	0100036f	jal	x6,8000355c	  x6=0x8000355c
       53185000	      5317	00000000	00000013	addi	x0,x0,0	  x0:0x00000000
       53195000	      5318	80003568	00000013	addi	x0,x0,0	  x0:0x00000000
       53205000	      5319	8000356c	00000013	addi	x0,x0,0	  x0:0x00000000
       53215000	      5320	80003570	01dadab3	srl	x21,x21,x29	 x21:0x0000e679 x29:0xffffff57 x21=0x00000000
       53225000	      5321	80003574	01674663	blt	x14,x22,80003580	 x14:0x80003550 x22:0x80009fc4
       53235000	      5322	00000000	00000013	addi	x0,x0,0	  x0:0x00000000
       53245000	      5323	8000357c	00000013	addi	x0,x0,0	  x0:0x00000000
       53255000	      5324	80003580	0038a0b3	slt	x1,x17,x3	 x17:0x00000001  x3:0x80003530  x1=0x00000000
       53265000	      5325	80003584	4f68e993	ori	x19,x17,1270	 x17:0x00000001 x19=0x000004f7
       53275000	      5326	80003588	009acc63	blt	x21,x9,800035a0	 x21:0x00000000  x9:0x00000001
       53285000	      5327	00000000	00000013	addi	x0,x0,0	  x0:0x00000000
       53295000	      5328	8000359c	00000013	addi	x0,x0,0	  x0:0x00000000
       53305000	      5329	800035a0	72b3f513	andi	x10,x7,1835	  x7:0x00000000 x10=0x00000000
       53315000	      5330	800035a4	014ed313	srli	x6,x29,0x14	 x29:0xffffff57  x6=0x00000fff
       53325000	      5331	800035a8	04746063	bltu	x8,x7,800035e8	  x8:0x80003520  x7:0x00000000
       53335000	      5332	800035ac	01c472b3	and	x5,x8,x28	  x8:0x80003520 x28:0x02d385b8  x5=0x00000520
       53345000	      5333	800035b0	00000013	addi	x0,x0,0	  x0:0x00000000
       53355000	      5334	800035b4	41cbd093	srai	x1,x23,0x1c	 x23:0x02d3815a  x1=0x00000000
       53365000	      5335	800035b8	030c9663	bne	x25,x16,800035e4	 x25:0xfffff83f x16:0xfffff82e
       53375000	      5336	00000000	00000013	addi	x0,x0,0	  x0:0x00000000
       53385000	      5337	800035e0	00000013	addi	x0,x0,0	  x0:0x00000000
       53395000	      5338	800035e4	01113bb3	sltu	x23,x2,x17	  x2:0x80003548 x17:0x00000001 x23=0x00000000
       53405000	      5339	800035e8	fe9db413	sltiu	x8,x27,-23	 x27:0x8000351c  x8=0x00000001
       53415000	      5340	800035ec	03d05663	bge	x0,x29,80003618	  x0:0x00000000 x29:0xffffff57
       53425000	      5341	00000000	00000013	addi	x0,x0,0	  x0:0x00000000
       53435000	      5342	80003614	00000013	addi	x0,x0,0	  x0:0x00000000
       53445000	      5343	80003618	00e459b3	srl	x19,x8,x14	  x8:0x00000001 x14:0x80003550 x19=0x00000000
       53455000	      5344	8000361c	413c5013	srai	x0,x24,0x13	 x24:0xfebf7031
       53465000	      5345	80003620	01c88bb3	add	x23,x17,x28	 x17:0x00000001 x28:0x02d385b8 x23=0x02d385b9
       53475000	      5346	80003624	afdc7e13	andi	x28,x24,-1283	 x24:0xfebf7031 x28=0xfebf7031
       53485000	      5347	80003628	b16b3693	sltiu	x13,x22,-1258	 x22:0x80009fc4 x13=0x00000001
       53495000	      5348	8000362c	002208b3	add	x17,x4,x2	  x4:0x9701b000  x2:0x80003548 x17=0x1701e548
       53505000	      5349	80003630	0189b8b3	sltu	x17,x19,x24	 x19:0x00000000 x24:0xfebf7031 x17=0x00000001
       53515000	      5350	80003634	0109f5b3	and	x11,x19,x16	 x19:0x00000000 x16:0xfffff82e x11=0x00000000
       53525000	      5351	80003638	0148fe33	and	x28,x17,x20	 x17:0x00000001 x20:0x00000000 x28=0x00000000
       53535000	      5352	8000363c	41a75bb3	sra	x23,x14,x26	 x14:0x80003550 x26:0x80003564 x23=0xf8000355
       53545000	      5353	80003640	40045fb3	sra	x31,x8,x0	  x8:0x00000001  x0:0x00000000 x31=0x00000001
       53555000	      5354	80003644	006c1c63	bne	x24,x6,8000365c	 x24:0xfebf7031  x6:0x00000fff
       53565000	      5355	00000000	00000013	addi	x0,x0,0	  x0:0x00000000
       53575000	      5356	80003658	00000013	addi	x0,x0,0	  x0:0x00000000
       53585000	      5357	8000365c	0018d513	srli	x10,x17,0x1	 x17:0x00000001 x10=0x00000000
       53595000	      5358	80003660	00737c63	bgeu	x6,x7,80003678	  x6:0x00000fff  x7:0x00000000
       53605000	      5359	00000000	00000013	addi	x0,x0,0	  x0:0x00000000
       53615000	      5360	80003674	00000013	addi	x0,x0,0	  x0:0x00000000
       53625000	      5361	80003678	0029d863	bge	x19,x2,80003688	 x19:0x00000000  x2:0x80003548
       53635000	      5362	00000000	00000013	addi	x0,x0,0	  x0:0x00000000
       53645000	      5363	80003684	00000013	addi	x0,x0,0	  x0:0x00000000
       53655000	      5364	80003688	0346fe63	bgeu	x13,x20,800036c4	 x13:0x00000001 x20:0x00000000
       53665000	      5365	00000000	00000013	addi	x0,x0,0	  x0:0x00000000
       53675000	      5366	800036c0	00000013	addi	x0,x0,0	  x0:0x00000000
       53685000	      5367	800036c4	a22b2213	slti	x4,x22,-1502	 x22:0x80009fc4  x4=0x00000001
       53695000	      5368	800036c8	0074bd33	sltu	x26,x9,x7	  x9:0x00000001  x7:0x00000000 x26=0x00000000
       53705000	      5369	800036cc	01caf3b3	and	x7,x21,x28	 x21:0x00000000 x28:0x00000000  x7=0x00000000
       53715000	      5370	800036d0	01a07a33	and	x20,x0,x26	  x0:0x00000000 x26:0x00000000 x20=0x00000000
       53725000	      5371	800036d4	408d5193	srai	x3,x26,0x8	 x26:0x00000000  x3=0x00000000
       53735000	      5372	800036d8	0073fab3	and	x21,x7,x7	  x7:0x00000000  x7:0x00000000 x21=0x00000000
       53745000	      5373	800036dc	01216c63	bltu	x2,x18,800036f4	  x2:0x80003548 x18:0x80009efc
       53755000	      5374	00000000	00000013	addi	x0,x0,0	  x0:0x00000000
       53765000	      5375	800036f0	00000013	addi	x0,x0,0	  x0:0x00000000
       53775000	      5376	800036f4	29fee1b7	lui	x3,0x29fee	  x3=0x29fee000
       53785000	      5377	800036f8	01845a33	srl	x20,x8,x24	  x8:0x00000001 x24:0xfebf7031 x20=0x00000000
       53795000	      5378	800036fc	7e8aa893	slti	x17,x21,2024	 x21:0x00000000 x17=0x00000001
       53805000	      5379	80003700	0012e7b3	or	x15,x5,x1	  x5:0x00000520  x1:0x00000000 x15=0x00000520
       53815000	      5380	80003704	016bed33	or	x26,x23,x22	 x23:0xf8000355 x22:0x80009fc4 x26=0xf8009fd5
       53825000	      5381	80003708	00aa9793	slli	x15,x21,0xa	 x21:0x00000000 x15=0x00000000
       53835000	      5382	8000370c	023ed663	bge	x29,x3,80003738	 x29:0xffffff57  x3:0x29fee000
       53845000	      5383	80003710	4021de33	sra	x28,x3,x2	  x3:0x29fee000  x2:0x80003548 x28=0x0029fee0
       53855000	      5384	80003714	f5014093	xori	x1,x2,-176	  x2:0x80003548  x1=0x7fffca18
       53865000	      5385	80003718	418680b3	sub	x1,x13,x24	 x13:0x00000001 x24:0xfebf7031  x1=0x01408fd0
       53875000	      5386	8000371c	41228a33	sub	x20,x5,x18	  x5:0x00000520 x18:0x80009efc x20=0x7fff6624
       53885000	      5387	80003720	a92dc713	xori	x14,x27,-1390	 x27:0x8000351c x14=0x7fffcf8e
       53895000	      5388	80003724	02308e63	beq	x1,x3,80003760	  x1:0x01408fd0  x3:0x29fee000
       53905000	      5389	80003728	00909413	slli	x8,x1,0x9	  x1:0x01408fd0  x8=0x811fa000
       53915000	      5390	8000372c	01d847b3	xor	x15,x16,x29	 x16:0xfffff82e x29:0xffffff57 x15=0x00000779
       53925000	      5391	80003730	4098dd93	srai	x27,x17,0x9	 x17:0x00000001 x27=0x00000000
       53935000	      5392	80003734	1df1a513	slti	x10,x3,479	  x3:0x29fee000 x10=0x00000000
       53945000	      5393	80003738	86710193	addi	x3,x2,-1945	  x2:0x80003548  x3=0x80002daf
       53955000	      5394	8000373c	0163ed33	or	x26,x7,x22	  x7:0x00000000 x22:0x80009fc4 x26=0x80009fc4
       53965000	      5395	80003740	00928e63	beq	x5,x9,8000375c	  x5:0x00000520  x9:0x00000001
       53975000	      5396	80003744	1defbf97	auipc	x31,0x1defb	 x31=0x9defe740
       53985000	      5397	80003748	00469e13	slli	x28,x13,0x4	 x13:0x00000001 x28=0x00000010
       53995000	      5398	8000374c	057ec663	blt	x29,x23,80003798	 x29:0xffffff57 x23:0xf8000355
       54005000	      5399	80003750	018bdf13	srli	x30,x23,0x18	 x23:0xf8000355 x30=0x000000f8
       54015000	      5400	80003754	24352693	slti	x13,x10,579	 x10:0x00000000 x13=0x00000001
       54025000	      5401	80003758	0554f663	bgeu	x9,x21,800037a4	  x9:0x00000001 x21:0x00000000
       54035000	      5402	00000000	00000013	addi	x0,x0,0	  x0:0x00000000
       54045000	      5403	800037a0	00000013	addi	x0,x0,0	  x0:0x00000000
       54055000	      5404	800037a4	4b967713	andi	x14,x12,1209	 x12:0x00000000 x14=0x00000000
       54065000	      5405	800037a8	07db4663	blt	x22,x29,80003814	 x22:0x80009fc4 x29:0xffffff57
       54075000	      5406	00000000	00000013	addi	x0,x0,0	  x0:0x00000000
       54085000	      5407	80003810	00000013	addi	x0,x0,0	  x0:0x00000000
       54095000	      5408	80003814	00b92433	slt	x8,x18,x11	 x18:0x80009efc x11:0x00000000  x8=0x00000001
       54105000	      5409	80003818	5c1b24b7	lui	x9,0x5c1b2	  x9=0x5c1b2000
       54115000	      5410	8000381c	0061de63	bge	x3,x6,80003838	  x3:0x80002daf  x6:0x00000fff
       54125000	      5411	80003820	0107cbb3	xor	x23,x15,x16	 x15:0x00000779 x16:0xfffff82e x23=0xffffff57
       54135000	      5412	80003824	00019533	sll	x10,x3,x0	  x3:0x80002daf  x0:0x00000000 x10=0x80002daf
       54145000	      5413	80003828	0064ad33	slt	x26,x9,x6	  x9:0x5c1b2000  x6:0x00000fff x26=0x00000000
       54155000	      5414	8000382c	00bfecb3	or	x25,x31,x11	 x31:0x9defe740 x11:0x00000000 x25=0x9defe740
       54165000	      5415	80003830	00b46033	or	x0,x8,x11	  x8:0x00000001 x11:0x00000000
       54175000	      5416	80003834	003b64b3	or	x9,x22,x3	 x22:0x80009fc4  x3:0x80002daf  x9=0x8000bfef
       54185000	      5417	80003838	0288ea63	bltu	x17,x8,8000386c	 x17:0x00000001  x8:0x00000001
       54195000	      5418	8000383c	0090fc63	bgeu	x1,x9,80003854	  x1:0x01408fd0  x9:0x8000bfef
       54205000	      5419	80003840	029c1263	bne	x24,x9,80003864	 x24:0xfebf7031  x9:0x8000bfef
       54215000	      5420	00000000	00000013	addi	x0,x0,0	  x0:0x00000000
       54225000	      5421	80003860	00000013	addi	x0,x0,0	  x0:0x00000000
       54235000	      5422	80003864	97f42b93	slti	x23,x8,-1665	  x8:0x00000001 x23=0x00000000
       54245000	      5423	80003868	03b77663	bgeu	x14,x27,80003894	 x14:0x00000000 x27:0x00000000
       54255000	      5424	00000000	00000013	addi	x0,x0,0	  x0:0x00000000
       54265000	      5425	80003890	00000013	addi	x0,x0,0	  x0:0x00000000
       54275000	      5426	80003894	62358c93	addi	x25,x11,1571	 x11:0x00000000 x25=0x00000623
       54285000	      5427	80003898	0169c863	blt	x19,x22,800038a8	 x19:0x00000000 x22:0x80009fc4
       54295000	      5428	8000389c	6f4060b7	lui	x1,0x6f406	  x1=0x6f406000
       54305000	      5429	800038a0	0003f9b3	and	x19,x7,x0	  x7:0x00000000  x0:0x00000000 x19=0x00000000
       54315000	      5430	800038a4	40f251b3	sra	x3,x4,x15	  x4:0x00000001 x15:0x00000779  x3=0x00000000
       54325000	      5431	800038a8	012a9013	slli	x0,x21,0x12	 x21:0x00000000
       54335000	      5432	800038ac	32dc2713	slti	x14,x24,813	 x24:0xfebf7031 x14=0x00000001
       54345000	      5433	800038b0	41595393	srai	x7,x18,0x15	 x18:0x80009efc  x7=0xfffffc00
       54355000	      5434	800038b4	04d61063	bne	x12,x13,800038f4	 x12:0x00000000 x13:0x00000001
       54365000	      5435	00000000	00000013	addi	x0,x0,0	  x0:0x00000000
       54375000	      5436	800038f0	00000013	addi	x0,x0,0	  x0:0x00000000
       54385000	      5437	800038f4	0dc73613	sltiu	x12,x14,220	 x14:0x00000001 x12=0x00000001
       54395000	      5438	800038f8	006ddc63	bge	x27,x6,80003910	 x27:0x00000000  x6:0x00000fff
       54405000	      5439	800038fc	41dd5993	srai	x19,x26,0x1d	 x26:0x00000000 x19=0x00000000
       54415000	      5440	80003900	407c5a93	srai	x21,x24,0x7	 x24:0xfebf7031 x21=0xfffd7ee0
       54425000	      5441	80003904	41eb5cb3	sra	x25,x22,x30	 x22:0x80009fc4 x30:0x000000f8 x25=0xffffff80
       54435000	      5442	80003908	0078d663	bge	x17,x7,80003914	 x17:0x00000001  x7:0xfffffc00
       54445000	      5443	00000000	00000013	addi	x0,x0,0	  x0:0x00000000
       54455000	      5444	80003910	00000013	addi	x0,x0,0	  x0:0x00000000
       54465000	      5445	80003914	401f08b3	sub	x17,x30,x1	 x30:0x000000f8  x1:0x6f406000 x17=0x90bfa0f8
       54475000	      5446	80003918	c843ff93	andi	x31,x7,-892	  x7:0xfffffc00 x31=0xfffffc00
       54485000	      5447	8000391c	0121fc63	bgeu	x3,x18,80003934	  x3:0x00000000 x18:0x80009efc
       54495000	      5448	80003920	01272233	slt	x4,x14,x18	 x14:0x00000001 x18:0x80009efc  x4=0x00000000
       54505000	      5449	80003924	cf392eb7	lui	x29,0xcf392	 x29=0xcf392000
       54515000	      5450	80003928	41db8233	sub	x4,x23,x29	 x23:0x00000000 x29:0xcf392000  x4=0x30c6e000
       54525000	      5451	8000392c	03438a63	beq	x7,x20,80003960	  x7:0xfffffc00 x20:0x7fff6624
       54535000	      5452	80003930	00d9d313	srli	x6,x19,0xd	 x19:0x00000000  x6=0x00000000
       54545000	      5453	80003934	40cc8133	sub	x2,x25,x12	 x25:0xffffff80 x12:0x00000001  x2=0xffffff7f
       54555000	      5454	80003938	02615663	bge	x2,x6,80003964	  x2:0xffffff7f  x6:0x00000000
       54565000	      5455	8000393c	00874e63	blt	x14,x8,80003958	 x14:0x00000001  x8:0x00000001
       54575000	      5456	80003940	9d626a93	ori	x21,x4,-1578	  x4:0x30c6e000 x21=0xfffff9d6
       54585000	      5457	80003944	6039abb7	lui	x23,0x6039a	 x23=0x6039a000
       54595000	      5458	80003948	5bbbc397	auipc	x7,0x5bbbc	  x7=0xdbbbf944
       54605000	      5459	8000394c	272d0093	addi	x1,x26,626	 x26:0x00000000  x1=0x00000272
       54615000	      5460	80003950	411855b3	sra	x11,x16,x17	 x16:0xfffff82e x17:0x90bfa0f8 x11=0xffffffff
       54625000	      5461	80003954	40f7d033	sra	x0,x15,x15	 x15:0x00000779 x15:0x00000779
       54635000	      5462	80003958	405c0333	sub	x6,x24,x5	 x24:0xfebf7031  x5:0x00000520  x6=0xfebf6b11
       54645000	      5463	8000395c	410c81b3	sub	x3,x25,x16	 x25:0xffffff80 x16:0xfffff82e  x3=0x00000752
       54655000	      5464	80003960	00000013	addi	x0,x0,0	  x0:0x00000000
       54665000	      5465	80003964	013e16b3	sll	x13,x28,x19	 x28:0x00000010 x19:0x00000000 x13=0x00000010
       54675000	      5466	80003968	00000013	addi	x0,x0,0	  x0:0x00000000
       54685000	      5467	8000396c	2bf63113	sltiu	x2,x12,703	 x12:0x00000001  x2=0x00000001
       54695000	      5468	80003970	017e72b3	and	x5,x28,x23	 x28:0x00000010 x23:0x6039a000  x5=0x00000000
       54705000	      5469	80003974	6f386a93	ori	x21,x16,1779	 x16:0xfffff82e x21=0xfffffeff
       54715000	      5470	80003978	a1ecb413	sltiu	x8,x25,-1506	 x25:0xffffff80  x8=0x00000000
       54725000	      5471	8000397c	c87baa13	slti	x20,x23,-889	 x23:0x6039a000 x20=0x00000000
       54735000	      5472	80003980	43278193	addi	x3,x15,1074	 x15:0x00000779  x3=0x00000bab
       54745000	      5473	80003984	00000013	addi	x0,x0,0	  x0:0x00000000
       54755000	      5474	80003988	4db6ed93	ori	x27,x13,1243	 x13:0x00000010 x27=0x000004db
       54765000	      5475	8000398c	40aad6b3	sra	x13,x21,x10	 x21:0xfffffeff x10:0x80002daf x13=0xffffffff
       54775000	      5476	80003990	d74b0313	addi	x6,x22,-652	 x22:0x80009fc4  x6=0x80009d38
       54785000	      5477	80003994	ee9c0f93	addi	x31,x24,-279	 x24:0xfebf7031 x31=0xfebf6f1a
       54795000	      5478	80003998	00431ab3	sll	x21,x6,x4	  x6:0x80009d38  x4:0x30c6e000 x21=0x80009d38
       54805000	      5479	8000399c	6b9d2993	slti	x19,x26,1721	 x26:0x00000000 x19=0x00000001
       54815000	      5480	800039a0	00000013	addi	x0,x0,0	  x0:0x00000000
       54825000	      5481	800039a4	00405a63	bge	x0,x4,800039b8	  x0:0x00000000  x4:0x30c6e000
       54835000	      5482	800039a8	29aea613	slti	x12,x29,666	 x29:0xcf392000 x12=0x00000001
       54845000	      5483	800039ac	01f07e63	bgeu	x0,x31,800039c8	  x0:0x00000000 x31:0xfebf6f1a
       54855000	      5484	800039b0	017f8433	add	x8,x31,x23	 x31:0xfebf6f1a x23:0x6039a000  x8=0x5ef90f1a
       54865000	      5485	800039b4	01b228b3	slt	x17,x4,x27	  x4:0x30c6e000 x27:0x000004db x17=0x00000000
       54875000	      5486	800039b8	00c61bb3	sll	x23,x12,x12	 x12:0x00000001 x12:0x00000001 x23=0x00000002
       54885000	      5487	800039bc	03ce7663	bgeu	x28,x28,800039e8	 x28:0x00000010 x28:0x00000010
       54895000	      5488	00000000	00000013	addi	x0,x0,0	  x0:0x00000000
       54905000	      5489	800039e4	00000013	addi	x0,x0,0	  x0:0x00000000
       54915000	      5490	800039e8	e185cc93	xori	x25,x11,-488	 x11:0xffffffff x25=0x000001e7
       54925000	      5491	800039ec	419cde13	srai	x28,x25,0x19	 x25:0x000001e7 x28=0x00000000
       54935000	      5492	800039f0	2141c813	xori	x16,x3,532	  x3:0x00000bab x16=0x000009bf
       54945000	      5493	800039f4	0253c263	blt	x7,x5,80003a18	  x7:0xdbbbf944  x5:0x00000000
       54955000	      5494	00000000	00000013	addi	x0,x0,0	  x0:0x00000000
       54965000	      5495	80003a14	00000013	addi	x0,x0,0	  x0:0x00000000
       54975000	      5496	80003a18	879aef13	ori	x30,x21,-1927	 x21:0x80009d38 x30=0xfffffd79
       54985000	      5497	80003a1c	d9c94693	xori	x13,x18,-612	 x18:0x80009efc x13=0x7fff6360
       54995000	      5498	80003a20	98154497	auipc	x9,0x98154	  x9=0x18157a1c
       55005000	      5499	80003a24	05036063	bltu	x6,x16,80003a64	  x6:0x80009d38 x16:0x000009bf
       55015000	      5500	80003a28	01e41eb3	sll	x29,x8,x30	  x8:0x5ef90f1a x30:0xfffffd79 x29=0x34000000
       55025000	      5501	80003a2c	505bf693	andi	x13,x23,1285	 x23:0x00000002 x13=0x00000000
       55035000	      5502	80003a30	01cf11b3	sll	x3,x30,x28	 x30:0xfffffd79 x28:0x00000000  x3=0xfffffd79
       55045000	      5503	80003a34	40bf5d33	sra	x26,x30,x11	 x30:0xfffffd79 x11:0xffffffff x26=0xffffffff
       55055000	      5504	80003a38	00000013	addi	x0,x0,0	  x0:0x00000000
       55065000	      5505	80003a3c	8208cd93	xori	x27,x17,-2016	 x17:0x00000000 x27=0xfffff820
       55075000	      5506	80003a40	003b9d93	slli	x27,x23,0x3	 x23:0x00000002 x27=0x00000010
       55085000	      5507	80003a44	0113eeb3	or	x29,x7,x17	  x7:0xdbbbf944 x17:0x00000000 x29=0xdbbbf944
       55095000	      5508	80003a48	007a8d33	add	x26,x21,x7	 x21:0x80009d38  x7:0xdbbbf944 x26=0x5bbc967c
       55105000	      5509	80003a4c	00000013	addi	x0,x0,0	  x0:0x00000000
       55115000	      5510	80003a50	755a3093	sltiu	x1,x20,1877	 x20:0x00000000  x1=0x00000001
       55125000	      5511	80003a54	00315113	srli	x2,x2,0x3	  x2:0x00000001  x2=0x00000000
       55135000	      5512	80003a58	015a41b3	xor	x3,x20,x21	 x20:0x00000000 x21:0x80009d38  x3=0x80009d38
       55145000	      5513	80003a5c	c6767793	andi	x15,x12,-921	 x12:0x00000001 x15=0x00000001
       55155000	      5514	80003a60	03af6a63	bltu	x30,x26,80003a94	 x30:0xfffffd79 x26:0x5bbc967c
       55165000	      5515	80003a64	00681c63	bne	x16,x6,80003a7c	 x16:0x000009bf  x6:0x80009d38
       55175000	      5516	00000000	00000013	addi	x0,x0,0	  x0:0x00000000
       55185000	      5517	80003a78	00000013	addi	x0,x0,0	  x0:0x00000000
       55195000	      5518	80003a7c	011aeeb3	or	x29,x21,x17	 x21:0x80009d38 x17:0x00000000 x29=0x80009d38
       55205000	      5519	80003a80	00b344b3	xor	x9,x6,x11	  x6:0x80009d38 x11:0xffffffff  x9=0x7fff62c7
       55215000	      5520	80003a84	8b026d93	ori	x27,x4,-1872	  x4:0x30c6e000 x27=0xfffff8b0
       55225000	      5521	80003a88	b50dc693	xori	x13,x27,-1200	 x27:0xfffff8b0 x13=0x000003e0
       55235000	      5522	80003a8c	044e8063	beq	x29,x4,80003acc	 x29:0x80009d38  x4:0x30c6e000
       55245000	      5523	80003a90	45e5ef93	ori	x31,x11,1118	 x11:0xffffffff x31=0xffffffff
       55255000	      5524	80003a94	35f46d13	ori	x26,x8,863	  x8:0x5ef90f1a x26=0x5ef90f5f
       55265000	      5525	80003a98	0054c633	xor	x12,x9,x5	  x9:0x7fff62c7  x5:0x00000000 x12=0x7fff62c7
       55275000	      5526	80003a9c	a1ba7c93	andi	x25,x20,-1509	 x20:0x00000000 x25=0x00000000
       55285000	      5527	80003aa0	85980117	auipc	x2,0x85980	  x2=0x05983a9c
       55295000	      5528	80003aa4	01b36f33	or	x30,x6,x27	  x6:0x80009d38 x27:0xfffff8b0 x30=0xfffffdb8
       55305000	      5529	80003aa8	03c47e63	bgeu	x8,x28,80003ae4	  x8:0x5ef90f1a x28:0x00000000
       55315000	      5530	00000000	00000013	addi	x0,x0,0	  x0:0x00000000
       55325000	      5531	80003ae0	00000013	addi	x0,x0,0	  x0:0x00000000
       55335000	      5532	80003ae4	01464fb3	xor	x31,x12,x20	 x12:0x7fff62c7 x20:0x00000000 x31=0x7fff62c7
       55345000	      5533	80003ae8	0075bab3	sltu	x21,x11,x7	 x11:0xffffffff  x7:0xdbbbf944 x21=0x00000000
       55355000	      5534	80003aec	00aba4b3	slt	x9,x23,x10	 x23:0x00000002 x10:0x80002daf  x9=0x00000000
       55365000	      5535	80003af0	00000013	addi	x0,x0,0	  x0:0x00000000
       55375000	      5536	80003af4	03d46e63	bltu	x8,x29,80003b30	  x8:0x5ef90f1a x29:0x80009d38
       55385000	      5537	00000000	00000013	addi	x0,x0,0	  x0:0x00000000
       55395000	      5538	80003b2c	00000013	addi	x0,x0,0	  x0:0x00000000
       55405000	      5539	80003b30	03177a63	bgeu	x14,x17,80003b64	 x14:0x00000001 x17:0x00000000
       55415000	      5540	00000000	00000013	addi	x0,x0,0	  x0:0x00000000
       55425000	      5541	80003b60	00000013	addi	x0,x0,0	  x0:0x00000000
       55435000	      5542	80003b64	0062ddb3	srl	x27,x5,x6	  x5:0x00000000  x6:0x80009d38 x27=0x00000000
       55445000	      5543	80003b68	01ebb833	sltu	x16,x23,x30	 x23:0x00000002 x30:0xfffffdb8 x16=0x00000001
       55455000	      5544	80003b6c	9aefb737	lui	x14,0x9aefb	 x14=0x9aefb000
       55465000	      5545	80003b70	4116d313	srai	x6,x13,0x11	 x13:0x000003e0  x6=0x00000000
       55475000	      5546	80003b74	02499a63	bne	x19,x4,80003ba8	 x19:0x00000001  x4:0x30c6e000
       55485000	      5547	00000000	00000013	addi	x0,x0,0	  x0:0x00000000
       55495000	      5548	80003ba4	00000013	addi	x0,x0,0	  x0:0x00000000
       55505000	      5549	80003ba8	20cf4393	xori	x7,x30,524	 x30:0xfffffdb8  x7=0xffffffb4
       55515000	      5550	80003bac	0495d663	bge	x11,x9,80003bf8	 x11:0xffffffff  x9:0x00000000
       55525000	      5551	80003bb0	410f0d33	sub	x26,x30,x16	 x30:0xfffffdb8 x16:0x00000001 x26=0xfffffdb7
       55535000	      5552	80003bb4	01fbe533	or	x10,x23,x31	 x23:0x00000002 x31:0x7fff62c7 x10=0x7fff62c7
       55545000	      5553	80003bb8	001fd2b3	srl	x5,x31,x1	 x31:0x7fff62c7  x1:0x00000001  x5=0x3fffb163
       55555000	      5554	80003bbc	01b1d033	srl	x0,x3,x27	  x3:0x80009d38 x27:0x00000000
       55565000	      5555	80003bc0	3ca99337	lui	x6,0x3ca99	  x6=0x3ca99000
       55575000	      5556	80003bc4	3e32e313	ori	x6,x5,995	  x5:0x3fffb163  x6=0x3fffb3e3
       55585000	      5557	80003bc8	014e3333	sltu	x6,x28,x20	 x28:0x00000000 x20:0x00000000  x6=0x00000000
       55595000	      5558	80003bcc	03eeee63	bltu	x29,x30,80003c08	 x29:0x80009d38 x30:0xfffffdb8
       55605000	      5559	00000000	00000013	addi	x0,x0,0	  x0:0x00000000
       55615000	      5560	80003c04	00000013	addi	x0,x0,0	  x0:0x00000000
       55625000	      5561	80003c08	407b8033	sub	x0,x23,x7	 x23:0x00000002  x7:0xffffffb4
       55635000	      5562	80003c0c	01780663	beq	x16,x23,80003c18	 x16:0x00000001 x23:0x00000002
       55645000	      5563	80003c10	01771e93	slli	x29,x14,0x17	 x14:0x9aefb000 x29=0x00000000
       55655000	      5564	80003c14	ff59e297	auipc	x5,0xff59e	  x5=0x7f5a1c10
       55665000	      5565	80003c18	00c79d93	slli	x27,x15,0xc	 x15:0x00000001 x27=0x00001000
       55675000	      5566	80003c1c	0156f533	and	x10,x13,x21	 x13:0x000003e0 x21:0x00000000 x10=0x00000000
       55685000	      5567	80003c20	0322e663	bltu	x5,x18,80003c4c	  x5:0x7f5a1c10 x18:0x80009efc
       55695000	      5568	00000000	00000013	addi	x0,x0,0	  x0:0x00000000
       55705000	      5569	80003c48	00000013	addi	x0,x0,0	  x0:0x00000000
       55715000	      5570	80003c4c	00790633	add	x12,x18,x7	 x18:0x80009efc  x7:0xffffffb4 x12=0x80009eb0
       55725000	      5571	80003c50	01751f13	slli	x30,x10,0x17	 x10:0x00000000 x30=0x00000000
       55735000	      5572	80003c54	41098fb3	sub	x31,x19,x16	 x19:0x00000001 x16:0x00000001 x31=0x00000000
       55745000	      5573	80003c58	009e4633	xor	x12,x28,x9	 x28:0x00000000  x9:0x00000000 x12=0x00000000
       55755000	      5574	80003c5c	40b28ab3	sub	x21,x5,x11	  x5:0x7f5a1c10 x11:0xffffffff x21=0x7f5a1c11
       55765000	      5575	80003c60	004606b3	add	x13,x12,x4	 x12:0x00000000  x4:0x30c6e000 x13=0x30c6e000
       55775000	      5576	80003c64	469ac193	xori	x3,x21,1129	 x21:0x7f5a1c11  x3=0x7f5a1878
       55785000	      5577	80003c68	01f3a033	slt	x0,x7,x31	  x7:0xffffffb4 x31:0x00000000
       55795000	      5578	80003c6c	238ee3b7	lui	x7,0x238ee	  x7=0x238ee000
       55805000	      5579	80003c70	3afbb493	sltiu	x9,x23,943	 x23:0x00000002  x9=0x00000001
       55815000	      5580	80003c74	416ddeb3	sra	x29,x27,x22	 x27:0x00001000 x22:0x80009fc4 x29=0x00000100
       55825000	      5581	80003c78	00a19e63	bne	x3,x10,80003c94	  x3:0x7f5a1878 x10:0x00000000
       55835000	      5582	00000000	00000013	addi	x0,x0,0	  x0:0x00000000
       55845000	      5583	80003c90	00000013	addi	x0,x0,0	  x0:0x00000000
       55855000	      5584	80003c94	039f0a63	beq	x30,x25,80003cc8	 x30:0x00000000 x25:0x00000000
       55865000	      5585	00000000	00000013	addi	x0,x0,0	  x0:0x00000000
       55875000	      5586	80003cc4	00000013	addi	x0,x0,0	  x0:0x00000000
       55885000	      5587	80003cc8	0565fd13	andi	x26,x11,86	 x11:0xffffffff x26=0x00000056
       55895000	      5588	80003ccc	00f05e63	bge	x0,x15,80003ce8	  x0:0x00000000 x15:0x00000001
       55905000	      5589	80003cd0	00b68663	beq	x13,x11,80003cdc	 x13:0x30c6e000 x11:0xffffffff
       55915000	      5590	80003cd4	00b4f433	and	x8,x9,x11	  x9:0x00000001 x11:0xffffffff  x8=0x00000001
       55925000	      5591	80003cd8	00000013	addi	x0,x0,0	  x0:0x00000000
       55935000	      5592	80003cdc	c56fb093	sltiu	x1,x31,-938	 x31:0x00000000  x1=0x00000001
       55945000	      5593	80003ce0	9ffe8a13	addi	x20,x29,-1537	 x29:0x00000100 x20=0xfffffaff
       55955000	      5594	80003ce4	0bd24313	xori	x6,x4,189	  x4:0x30c6e000  x6=0x30c6e0bd
       55965000	      5595	80003ce8	e81d13b7	lui	x7,0xe81d1	  x7=0xe81d1000
       55975000	      5596	80003cec	5ef04d93	xori	x27,x0,1519	  x0:0x00000000 x27=0x000005ef
       55985000	      5597	80003cf0	e39ca317	auipc	x6,0xe39ca	  x6=0x639cdcec
       55995000	      5598	80003cf4	014b9433	sll	x8,x23,x20	 x23:0x00000002 x20:0xfffffaff  x8=0x00000000
       56005000	      5599	80003cf8	0537d663	bge	x15,x19,80003d44	 x15:0x00000001 x19:0x00000001
       56015000	      5600	00000000	00000013	addi	x0,x0,0	  x0:0x00000000
       56025000	      5601	80003d40	00000013	addi	x0,x0,0	  x0:0x00000000
       56035000	      5602	80003d44	0128dcb3	srl	x25,x17,x18	 x17:0x00000000 x18:0x80009efc x25=0x00000000
       56045000	      5603	80003d48	1b1d3513	sltiu	x10,x26,433	 x26:0x00000056 x10=0x00000001
       56055000	      5604	80003d4c	019a71b3	and	x3,x20,x25	 x20:0xfffffaff x25:0x00000000  x3=0x00000000
       56065000	      5605	80003d50	01ea2bb3	slt	x23,x20,x30	 x20:0xfffffaff x30:0x00000000 x23=0x00000001
       56075000	      5606	80003d54	a84731b7	lui	x3,0xa8473	  x3=0xa8473000
       56085000	      5607	80003d58	00000013	addi	x0,x0,0	  x0:0x00000000
       56095000	      5608	80003d5c	403a8433	sub	x8,x21,x3	 x21:0x7f5a1c11  x3:0xa8473000  x8=0xd712ec11
       56105000	      5609	80003d60	4ff4a713	slti	x14,x9,1279	  x9:0x00000001 x14=0x00000001
       56115000	      5610	80003d64	01df8ab3	add	x21,x31,x29	 x31:0x00000000 x29:0x00000100 x21=0x00000100
       56125000	      5611	80003d68	e4613d13	sltiu	x26,x2,-442	  x2:0x05983a9c x26=0x00000001
       56135000	      5612	80003d6c	bdacc413	xori	x8,x25,-1062	 x25:0x00000000  x8=0xfffffbda
       56145000	      5613	80003d70	0134c133	xor	x2,x9,x19	  x9:0x00000001 x19:0x00000001  x2=0x00000000
       56155000	      5614	80003d74	01e08f33	add	x30,x1,x30	  x1:0x00000001 x30:0x00000000 x30=0x00000001
       56165000	      5615	80003d78	4ec88493	addi	x9,x17,1260	 x17:0x00000000  x9=0x000004ec
       56175000	      5616	80003d7c	01768d33	add	x26,x13,x23	 x13:0x30c6e000 x23:0x00000001 x26=0x30c6e001
       56185000	      5617	80003d80	03b7e663	bltu	x15,x27,80003dac	 x15:0x00000001 x27:0x000005ef
       56195000	      5618	00000000	00000013	addi	x0,x0,0	  x0:0x00000000
       56205000	      5619	80003da8	00000013	addi	x0,x0,0	  x0:0x00000000
       56215000	      5620	80003dac	05c71063	bne	x14,x28,80003dec	 x14:0x00000001 x28:0x00000000
       56225000	      5621	00000000	00000013	addi	x0,x0,0	  x0:0x00000000
       56235000	      5622	80003de8	00000013	addi	x0,x0,0	  x0:0x00000000
       56245000	      5623	80003dec	01881fb3	sll	x31,x16,x24	 x16:0x00000001 x24:0xfebf7031 x31=0x00020000
       56255000	      5624	80003df0	0149eeb3	or	x29,x19,x20	 x19:0x00000001 x20:0xfffffaff x29=0xfffffaff
       56265000	      5625	80003df4	0341c663	blt	x3,x20,80003e20	  x3:0xa8473000 x20:0xfffffaff
       56275000	      5626	00000000	00000013	addi	x0,x0,0	  x0:0x00000000
       56285000	      5627	80003e1c	00000013	addi	x0,x0,0	  x0:0x00000000
       56295000	      5628	80003e20	40ec59b3	sra	x19,x24,x14	 x24:0xfebf7031 x14:0x00000001 x19=0xff5fb818
       56305000	      5629	80003e24	03235e63	bge	x6,x18,80003e60	  x6:0x639cdcec x18:0x80009efc
       56315000	      5630	00000000	00000013	addi	x0,x0,0	  x0:0x00000000
       56325000	      5631	80003e5c	00000013	addi	x0,x0,0	  x0:0x00000000
       56335000	      5632	80003e60	e5460813	addi	x16,x12,-428	 x12:0x00000000 x16=0xfffffe54
       56345000	      5633	80003e64	0059c333	xor	x6,x19,x5	 x19:0xff5fb818  x5:0x7f5a1c10  x6=0x8005a408
       56355000	      5634	80003e68	01c84533	xor	x10,x16,x28	 x16:0xfffffe54 x28:0x00000000 x10=0xfffffe54
       56365000	      5635	80003e6c	0052bcb3	sltu	x25,x5,x5	  x5:0x7f5a1c10  x5:0x7f5a1c10 x25=0x00000000
       56375000	      5636	80003e70	01ecc6b3	xor	x13,x25,x30	 x25:0x00000000 x30:0x00000001 x13=0x00000001
       56385000	      5637	80003e74	a48e9e37	lui	x28,0xa48e9	 x28=0xa48e9000
       56395000	      5638	80003e78	03597e63	bgeu	x18,x21,80003eb4	 x18:0x80009efc x21:0x00000100
       56405000	      5639	00000000	00000013	addi	x0,x0,0	  x0:0x00000000
       56415000	      5640	80003eb0	00000013	addi	x0,x0,0	  x0:0x00000000
       56425000	      5641	80003eb4	01639e93	slli	x29,x7,0x16	  x7:0xe81d1000 x29=0x00000000
       56435000	      5642	80003eb8	406c50b3	sra	x1,x24,x6	 x24:0xfebf7031  x6:0x8005a408  x1=0xfffebf70
       56445000	      5643	80003ebc	e1059317	auipc	x6,0xe1059	  x6=0x6105ceb8
       56455000	      5644	80003ec0	00000013	addi	x0,x0,0	  x0:0x00000000
       56465000	      5645	80003ec4	003653b3	srl	x7,x12,x3	 x12:0x00000000  x3:0xa8473000  x7=0x00000000
       56475000	      5646	80003ec8	00e251b3	srl	x3,x4,x14	  x4:0x30c6e000 x14:0x00000001  x3=0x18637000
       56485000	      5647	80003ecc	6154c393	xori	x7,x9,1557	  x9:0x000004ec  x7=0x000002f9
       56495000	      5648	80003ed0	00f6cc63	blt	x13,x15,80003ee8	 x13:0x00000001 x15:0x00000001
       56505000	      5649	80003ed4	01964333	xor	x6,x12,x25	 x12:0x00000000 x25:0x00000000  x6=0x00000000
       56515000	      5650	80003ed8	0045c333	xor	x6,x11,x4	 x11:0xffffffff  x4:0x30c6e000  x6=0xcf391fff
       56525000	      5651	80003edc	018d5313	srli	x6,x26,0x18	 x26:0x30c6e001  x6=0x00000030
       56535000	      5652	80003ee0	0155f233	and	x4,x11,x21	 x11:0xffffffff x21:0x00000100  x4=0x00000100
       56545000	      5653	80003ee4	73487413	andi	x8,x16,1844	 x16:0xfffffe54  x8=0x00000614
       56555000	      5654	80003ee8	3bbac593	xori	x11,x21,955	 x21:0x00000100 x11=0x000002bb
       56565000	      5655	80003eec	014939b3	sltu	x19,x18,x20	 x18:0x80009efc x20:0xfffffaff x19=0x00000001
       56575000	      5656	80003ef0	3310aa93	slti	x21,x1,817	  x1:0xfffebf70 x21=0x00000001
       56585000	      5657	80003ef4	40a05a93	srai	x21,x0,0xa	  x0:0x00000000 x21=0x00000000
       56595000	      5658	80003ef8	76780313	addi	x6,x16,1895	 x16:0xfffffe54  x6=0x000005bb
       56605000	      5659	80003efc	410fdfb3	sra	x31,x31,x16	 x31:0x00020000 x16:0xfffffe54 x31=0x00000000
       56615000	      5660	80003f00	7a594113	xori	x2,x18,1957	 x18:0x80009efc  x2=0x80009959
       56625000	      5661	80003f04	03410663	beq	x2,x20,80003f30	  x2:0x80009959 x20:0xfffffaff
       56635000	      5662	80003f08	000128b3	slt	x17,x2,x0	  x2:0x80009959  x0:0x00000000 x17=0x00000001
       56645000	      5663	80003f0c	41b05a13	srai	x20,x0,0x1b	  x0:0x00000000 x20=0x00000000
       56655000	      5664	80003f10	02024e63	blt	x4,x0,80003f4c	  x4:0x00000100  x0:0x00000000
       56665000	      5665	80003f14	00000013	addi	x0,x0,0	  x0:0x00000000
       56675000	      5666	80003f18	01563333	sltu	x6,x12,x21	 x12:0x00000000 x21:0x00000000  x6=0x00000000
       56685000	      5667	80003f1c	01346133	or	x2,x8,x19	  x8:0x00000614 x19:0x00000001  x2=0x00000615
       56695000	      5668	80003f20	00e1d413	srli	x8,x3,0xe	  x3:0x18637000  x8=0x0000618d
       56705000	      5669	80003f24	01439293	slli	x5,x7,0x14	  x7:0x000002f9  x5=0x2f900000
       56715000	      5670	80003f28	01fa2f33	slt	x30,x20,x31	 x20:0x00000000 x31:0x00000000 x30=0x00000000
       56725000	      5671	80003f2c	92902d93	slti	x27,x0,-1751	  x0:0x00000000 x27=0x00000000
       56735000	      5672	80003f30	93ef6e37	lui	x28,0x93ef6	 x28=0x93ef6000
       56745000	      5673	80003f34	024ef663	bgeu	x29,x4,80003f60	 x29:0x00000000  x4:0x00000100
       56755000	      5674	80003f38	01769393	slli	x7,x13,0x17	 x13:0x00000001  x7=0x00800000
       56765000	      5675	80003f3c	e0decf93	xori	x31,x29,-499	 x29:0x00000000 x31=0xfffffe0d
       56775000	      5676	80003f40	18f28513	addi	x10,x5,399	  x5:0x2f900000 x10=0x2f90018f
       56785000	      5677	80003f44	01ba7463	bgeu	x20,x27,80003f4c	 x20:0x00000000 x27:0x00000000
       56795000	      5678	00000000	00000013	addi	x0,x0,0	  x0:0x00000000
       56805000	      5679	80003f48	00000013	addi	x0,x0,0	  x0:0x00000000
       56815000	      5680	80003f4c	402d03b3	sub	x7,x26,x2	 x26:0x30c6e001  x2:0x00000615  x7=0x30c6d9ec
       56825000	      5681	80003f50	045ef063	bgeu	x29,x5,80003f90	 x29:0x00000000  x5:0x2f900000
       56835000	      5682	80003f54	004b8cb3	add	x25,x23,x4	 x23:0x00000001  x4:0x00000100 x25=0x00000101
       56845000	      5683	80003f58	40b88db3	sub	x27,x17,x11	 x17:0x00000001 x11:0x000002bb x27=0xfffffd46
       56855000	      5684	80003f5c	01c34433	xor	x8,x6,x28	  x6:0x00000000 x28:0x93ef6000  x8=0x93ef6000
       56865000	      5685	80003f60	41f55513	srai	x10,x10,0x1f	 x10:0x2f90018f x10=0x00000000
       56875000	      5686	80003f64	79736813	ori	x16,x6,1943	  x6:0x00000000 x16=0x00000797
       56885000	      5687	80003f68	4055df13	srai	x30,x11,0x5	 x11:0x000002bb x30=0x00000015
       56895000	      5688	80003f6c	00c5c5b3	xor	x11,x11,x12	 x11:0x000002bb x12:0x00000000 x11=0x000002bb
       56905000	      5689	80003f70	d8c2ca13	xori	x20,x5,-628	  x5:0x2f900000 x20=0xd06ffd8c
       56915000	      5690	80003f74	00000013	addi	x0,x0,0	  x0:0x00000000
       56925000	      5691	80003f78	003e9d33	sll	x26,x29,x3	 x29:0x00000000  x3:0x18637000 x26=0x00000000
       56935000	      5692	80003f7c	611c9097	auipc	x1,0x611c9	  x1=0xe11ccf78
       56945000	      5693	80003f80	025e8663	beq	x29,x5,80003fac	 x29:0x00000000  x5:0x2f900000
       56955000	      5694	80003f84	00ade8b3	or	x17,x27,x10	 x27:0xfffffd46 x10:0x00000000 x17=0xfffffd46
       56965000	      5695	80003f88	00ed4233	xor	x4,x26,x14	 x26:0x00000000 x14:0x00000001  x4=0x00000001
       56975000	      5696	80003f8c	40d65f93	srai	x31,x12,0xd	 x12:0x00000000 x31=0x00000000
       56985000	      5697	80003f90	464d7597	auipc	x11,0x464d7	 x11=0xc64daf8c
       56995000	      5698	80003f94	956d9037	lui	x0,0x956d9	
       57005000	      5699	80003f98	0047c863	blt	x15,x4,80003fa8	 x15:0x00000001  x4:0x00000001
       57015000	      5700	80003f9c	0023e5b3	or	x11,x7,x2	  x7:0x30c6d9ec  x2:0x00000615 x11=0x30c6dffd
       57025000	      5701	80003fa0	01185db3	srl	x27,x16,x17	 x16:0x00000797 x17:0xfffffd46 x27=0x0000001e
       57035000	      5702	80003fa4	02b71463	bne	x14,x11,80003fcc	 x14:0x00000001 x11:0x30c6dffd
       57045000	      5703	00000000	00000013	addi	x0,x0,0	  x0:0x00000000
       57055000	      5704	80003fc8	00000013	addi	x0,x0,0	  x0:0x00000000
       57065000	      5705	80003fcc	3527a413	slti	x8,x15,850	 x15:0x00000001  x8=0x00000001
       57075000	      5706	80003fd0	009df9b3	and	x19,x27,x9	 x27:0x0000001e  x9:0x000004ec x19=0x0000000c
       57085000	      5707	80003fd4	4067da13	srai	x20,x15,0x6	 x15:0x00000001 x20=0x00000000
       57095000	      5708	80003fd8	019bf133	and	x2,x23,x25	 x23:0x00000001 x25:0x00000101  x2=0x00000001
       57105000	      5709	80003fdc	5cc7ee93	ori	x29,x15,1484	 x15:0x00000001 x29=0x000005cd
       57115000	      5710	80003fe0	026d2993	slti	x19,x26,38	 x26:0x00000000 x19=0x00000001
       57125000	      5711	80003fe4	41b005b3	sub	x11,x0,x27	  x0:0x00000000 x27:0x0000001e x11=0xffffffe2
       57135000	      5712	80003fe8	40225f93	srai	x31,x4,0x2	  x4:0x00000001 x31=0x00000000
       57145000	      5713	80003fec	04394463	blt	x18,x3,80004034	 x18:0x80009efc  x3:0x18637000
       57155000	      5714	00000000	00000013	addi	x0,x0,0	  x0:0x00000000
       57165000	      5715	80004030	00000013	addi	x0,x0,0	  x0:0x00000000
       57175000	      5716	80004034	08024b93	xori	x23,x4,128	  x4:0x00000001 x23=0x00000081
       57185000	      5717	80004038	012db6b3	sltu	x13,x27,x18	 x27:0x0000001e x18:0x80009efc x13=0x00000001
       57195000	      5718	8000403c	00269a63	bne	x13,x2,80004050	 x13:0x00000001  x2:0x00000001
       57205000	      5719	80004040	00da27b3	slt	x15,x20,x13	 x20:0x00000000 x13:0x00000001 x15=0x00000001
       57215000	      5720	80004044	000d3533	sltu	x10,x26,x0	 x26:0x00000000  x0:0x00000000 x10=0x00000000
       57225000	      5721	80004048	02028a63	beq	x5,x0,8000407c	  x5:0x2f900000  x0:0x00000000
       57235000	      5722	8000404c	01661613	slli	x12,x12,0x16	 x12:0x00000000 x12=0x00000000
       57245000	      5723	80004050	02224a63	blt	x4,x2,80004084	  x4:0x00000001  x2:0x00000001
       57255000	      5724	80004054	01962f33	slt	x30,x12,x25	 x12:0x00000000 x25:0x00000101 x30=0x00000001
       57265000	      5725	80004058	a69e3f93	sltiu	x31,x28,-1431	 x28:0x93ef6000 x31=0x00000001
       57275000	      5726	8000405c	00e5e433	or	x8,x11,x14	 x11:0xffffffe2 x14:0x00000001  x8=0xffffffe3
       57285000	      5727	80004060	169a9317	auipc	x6,0x169a9	  x6=0x969ad05c
       57295000	      5728	80004064	78b67413	andi	x8,x12,1931	 x12:0x00000000  x8=0x00000000
       57305000	      5729	80004068	408f08b3	sub	x17,x30,x8	 x30:0x00000001  x8:0x00000000 x17=0x00000001
       57315000	      5730	8000406c	40368433	sub	x8,x13,x3	 x13:0x00000001  x3:0x18637000  x8=0xe79c9001
       57325000	      5731	80004070	0029a7b3	slt	x15,x19,x2	 x19:0x00000001  x2:0x00000001 x15=0x00000000
       57335000	      5732	80004074	41df04b3	sub	x9,x30,x29	 x30:0x00000001 x29:0x000005cd  x9=0xfffffa34
       57345000	      5733	80004078	03aa7a63	bgeu	x20,x26,800040ac	 x20:0x00000000 x26:0x00000000
       57355000	      5734	00000000	00000013	addi	x0,x0,0	  x0:0x00000000
       57365000	      5735	800040a8	00000013	addi	x0,x0,0	  x0:0x00000000
       57375000	      5736	800040ac	dc717517	auipc	x10,0xdc717	 x10=0x5c71b0a8
       57385000	      5737	800040b0	01ca5a13	srli	x20,x20,0x1c	 x20:0x00000000 x20=0x00000000
       57395000	      5738	800040b4	dde4f793	andi	x15,x9,-546	  x9:0xfffffa34 x15=0xfffff814
       57405000	      5739	800040b8	05594063	blt	x18,x21,800040f8	 x18:0x80009efc x21:0x00000000
       57415000	      5740	00000000	00000013	addi	x0,x0,0	  x0:0x00000000
       57425000	      5741	800040f4	00000013	addi	x0,x0,0	  x0:0x00000000
       57435000	      5742	800040f8	006c03b3	add	x7,x24,x6	 x24:0xfebf7031  x6:0x969ad05c  x7=0x955a408d
       57445000	      5743	800040fc	01d97e63	bgeu	x18,x29,80004118	 x18:0x80009efc x29:0x000005cd
       57455000	      5744	00000000	00000013	addi	x0,x0,0	  x0:0x00000000
       57465000	      5745	80004114	00000013	addi	x0,x0,0	  x0:0x00000000
       57475000	      5746	80004118	019bfab3	and	x21,x23,x25	 x23:0x00000081 x25:0x00000101 x21=0x00000001
       57485000	      5747	8000411c	18c34513	xori	x10,x6,396	  x6:0x969ad05c x10=0x969ad1d0
       57495000	      5748	80004120	004c9e63	bne	x25,x4,8000413c	 x25:0x00000101  x4:0x00000001
       57505000	      5749	00000000	00000013	addi	x0,x0,0	  x0:0x00000000
       57515000	      5750	80004138	00000013	addi	x0,x0,0	  x0:0x00000000
       57525000	      5751	8000413c	01b38463	beq	x7,x27,80004144	  x7:0x955a408d x27:0x0000001e
       57535000	      5752	80004140	1080b793	sltiu	x15,x1,264	  x1:0xe11ccf78 x15=0x00000000
       57545000	      5753	80004144	02ed8263	beq	x27,x14,80004168	 x27:0x0000001e x14:0x00000001
       57555000	      5754	80004148	0118ec63	bltu	x17,x17,80004160	 x17:0x00000001 x17:0x00000001
       57565000	      5755	8000414c	0030fa63	bgeu	x1,x3,80004160	  x1:0xe11ccf78  x3:0x18637000
       57575000	      5756	00000000	00000013	addi	x0,x0,0	  x0:0x00000000
       57585000	      5757	8000415c	00000013	addi	x0,x0,0	  x0:0x00000000
       57595000	      5758	80004160	01312633	slt	x12,x2,x19	  x2:0x00000001 x19:0x00000001 x12=0x00000000
       57605000	      5759	80004164	013edd13	srli	x26,x29,0x13	 x29:0x000005cd x26=0x00000000
       57615000	      5760	80004168	005d9f33	sll	x30,x27,x5	 x27:0x0000001e  x5:0x2f900000 x30=0x0000001e
       57625000	      5761	8000416c	00a90233	add	x4,x18,x10	 x18:0x80009efc x10:0x969ad1d0  x4=0x169b70cc
       57635000	      5762	80004170	015f08b3	add	x17,x30,x21	 x30:0x0000001e x21:0x00000001 x17=0x0000001f
       57645000	      5763	80004174	92a7ef97	auipc	x31,0x92a7e	 x31=0x12a82170
       57655000	      5764	80004178	3d350b93	addi	x23,x10,979	 x10:0x969ad1d0 x23=0x969ad5a3
       57665000	      5765	8000417c	01d31533	sll	x10,x6,x29	  x6:0x969ad05c x29:0x000005cd x10=0x5a0b8000
       57675000	      5766	80004180	2c9a8013	addi	x0,x21,713	 x21:0x00000001
       57685000	      5767	80004184	41d90433	sub	x8,x18,x29	 x18:0x80009efc x29:0x000005cd  x8=0x8000992f
       57695000	      5768	80004188	017b1613	slli	x12,x22,0x17	 x22:0x80009fc4 x12=0xe2000000
       57705000	      5769	8000418c	00e5deb3	srl	x29,x11,x14	 x11:0xffffffe2 x14:0x00000001 x29=0x7ffffff1
       57715000	      5770	80004190	6c596213	ori	x4,x18,1733	 x18:0x80009efc  x4=0x80009efd
       57725000	      5771	80004194	03865e63	bge	x12,x24,800041d0	 x12:0xe2000000 x24:0xfebf7031
       57735000	      5772	80004198	00a43e33	sltu	x28,x8,x10	  x8:0x8000992f x10:0x5a0b8000 x28=0x00000000
       57745000	      5773	8000419c	00000013	addi	x0,x0,0	  x0:0x00000000
       57755000	      5774	800041a0	02abea63	bltu	x23,x10,800041d4	 x23:0x969ad5a3 x10:0x5a0b8000
       57765000	      5775	800041a4	40d380b3	sub	x1,x7,x13	  x7:0x955a408d x13:0x00000001  x1=0x955a408c
       57775000	      5776	800041a8	00bfbfb3	sltu	x31,x31,x11	 x31:0x12a82170 x11:0xffffffe2 x31=0x00000001
       57785000	      5777	800041ac	003a4633	xor	x12,x20,x3	 x20:0x00000000  x3:0x18637000 x12=0x18637000
       57795000	      5778	800041b0	0131fc63	bgeu	x3,x19,800041c8	  x3:0x18637000 x19:0x00000001
       57805000	      5779	00000000	00000013	addi	x0,x0,0	  x0:0x00000000
       57815000	      5780	800041c4	00000013	addi	x0,x0,0	  x0:0x00000000
       57825000	      5781	800041c8	798caf93	slti	x31,x25,1944	 x25:0x00000101 x31=0x00000001
       57835000	      5782	800041cc	03606e63	bltu	x0,x22,80004208	  x0:0x00000000 x22:0x80009fc4
       57845000	      5783	00000000	00000013	addi	x0,x0,0	  x0:0x00000000
       57855000	      5784	80004204	00000013	addi	x0,x0,0	  x0:0x00000000
       57865000	      5785	80004208	00000013	addi	x0,x0,0	  x0:0x00000000
       57875000	      5786	8000420c	0066b9b3	sltu	x19,x13,x6	 x13:0x00000001  x6:0x969ad05c x19=0x00000001
       57885000	      5787	80004210	01e4d633	srl	x12,x9,x30	  x9:0xfffffa34 x30:0x0000001e x12=0x00000003
       57895000	      5788	80004214	05d39663	bne	x7,x29,80004260	  x7:0x955a408d x29:0x7ffffff1
       57905000	      5789	00000000	00000013	addi	x0,x0,0	  x0:0x00000000
       57915000	      5790	8000425c	00000013	addi	x0,x0,0	  x0:0x00000000
       57925000	      5791	80004260	014d59b3	srl	x19,x26,x20	 x26:0x00000000 x20:0x00000000 x19=0x00000000
       57935000	      5792	80004264	01cd1c93	slli	x25,x26,0x1c	 x26:0x00000000 x25=0x00000000
       57945000	      5793	80004268	01718263	beq	x3,x23,8000426c	  x3:0x18637000 x23:0x969ad5a3
       57955000	      5794	8000426c	9b5d3293	sltiu	x5,x26,-1611	 x26:0x00000000  x5=0x00000001
       57965000	      5795	80004270	00492f03	lw	x30,4(x18)	 x18:0x80009efc x30=0x80004320 PA:0x80009f00
       57975000	      5796	80004274	014f8433	add	x8,x31,x20	 x31:0x00000001 x20:0x00000000  x8=0x00000001
       57985000	      5797	80004278	c8b3e613	ori	x12,x7,-885	  x7:0x955a408d x12=0xfffffc8f
       57995000	      5798	8000427c	02490913	addi	x18,x18,36	 x18:0x80009efc x18=0x80009f20
       58005000	      5799	80004280	c3733893	sltiu	x17,x6,-969	  x6:0x969ad05c x17=0x00000001
       58015000	      5800	80004284	00000013	addi	x0,x0,0	  x0:0x00000000
       58025000	      5801	80004288	004fd313	srli	x6,x31,0x4	 x31:0x00000001  x6=0x00000000
       58035000	      5802	8000428c	00000013	addi	x0,x0,0	  x0:0x00000000
       58045000	      5803	80004290	000f0413	addi	x8,x30,0	 x30:0x80004320  x8=0x80004320
       58055000	      5804	80004294	00040467	jalr	x8,x8,0	  x8:0x80004320  x8=0x80004294
       58065000	      5805	00000000	00000013	addi	x0,x0,0	  x0:0x00000000
       58075000	      5806	80004320	00000013	addi	x0,x0,0	  x0:0x00000000
       58085000	      5807	80004324	01000f6f	jal	x30,80004324	 x30=0x80004324
       58095000	      5808	00000000	00000013	addi	x0,x0,0	  x0:0x00000000
       58105000	      5809	80004330	00000013	addi	x0,x0,0	  x0:0x00000000
       58115000	      5810	80004334	00c00def	jal	x27,80004334	 x27=0x80004334
       58125000	      5811	00000000	00000013	addi	x0,x0,0	  x0:0x00000000
       58135000	      5812	8000433c	00000013	addi	x0,x0,0	  x0:0x00000000
       58145000	      5813	80004340	fe9ff2ef	jal	x5,80004340	  x5=0x80004340
       58155000	      5814	00000000	00000013	addi	x0,x0,0	  x0:0x00000000
       58165000	      5815	80004324	00000013	addi	x0,x0,0	  x0:0x00000000
       58175000	      5816	80004328	01c000ef	jal	x1,80004328	  x1=0x80004328
       58185000	      5817	00000000	00000013	addi	x0,x0,0	  x0:0x00000000
       58195000	      5818	80004340	00000013	addi	x0,x0,0	  x0:0x00000000
       58205000	      5819	80004344	fedff0ef	jal	x1,80004344	  x1=0x80004344
       58215000	      5820	00000000	00000013	addi	x0,x0,0	  x0:0x00000000
       58225000	      5821	8000432c	00000013	addi	x0,x0,0	  x0:0x00000000
       58235000	      5822	80004330	02000d6f	jal	x26,80004330	 x26=0x80004330
       58245000	      5823	00000000	00000013	addi	x0,x0,0	  x0:0x00000000
       58255000	      5824	8000434c	00000013	addi	x0,x0,0	  x0:0x00000000
       58265000	      5825	80004350	ff9ff0ef	jal	x1,80004350	  x1=0x80004350
       58275000	      5826	00000000	00000013	addi	x0,x0,0	  x0:0x00000000
       58285000	      5827	80004344	00000013	addi	x0,x0,0	  x0:0x00000000
       58295000	      5828	80004348	ff5ff0ef	jal	x1,80004348	  x1=0x80004348
       58305000	      5829	00000000	00000013	addi	x0,x0,0	  x0:0x00000000
       58315000	      5830	80004338	00000013	addi	x0,x0,0	  x0:0x00000000
       58325000	      5831	8000433c	ffdff0ef	jal	x1,8000433c	  x1=0x8000433c
       58335000	      5832	00000000	00000013	addi	x0,x0,0	  x0:0x00000000
       58345000	      5833	80004334	00000013	addi	x0,x0,0	  x0:0x00000000
       58355000	      5834	80004338	ff5ff4ef	jal	x9,80004338	  x9=0x80004338
       58365000	      5835	00000000	00000013	addi	x0,x0,0	  x0:0x00000000
       58375000	      5836	80004328	00000013	addi	x0,x0,0	  x0:0x00000000
       58385000	      5837	8000432c	020000ef	jal	x1,8000432c	  x1=0x8000432c
       58395000	      5838	00000000	00000013	addi	x0,x0,0	  x0:0x00000000
       58405000	      5839	80004348	00000013	addi	x0,x0,0	  x0:0x00000000
       58415000	      5840	8000434c	008000ef	jal	x1,8000434c	  x1=0x8000434c
       58425000	      5841	00000000	00000013	addi	x0,x0,0	  x0:0x00000000
       58435000	      5842	80004350	00000013	addi	x0,x0,0	  x0:0x00000000
       58445000	      5843	80004354	01fa9e13	slli	x28,x21,0x1f	 x21:0x00000001 x28=0x80000000
       58455000	      5844	80004358	02000f6f	jal	x30,80004358	 x30=0x80004358
       58465000	      5845	00000000	00000013	addi	x0,x0,0	  x0:0x00000000
       58475000	      5846	80004374	00000013	addi	x0,x0,0	  x0:0x00000000
       58485000	      5847	80004378	044000ef	jal	x1,80004378	  x1=0x80004378
       58495000	      5848	00000000	00000013	addi	x0,x0,0	  x0:0x00000000
       58505000	      5849	800043b8	00000013	addi	x0,x0,0	  x0:0x00000000
       58515000	      5850	800043bc	fd5ff0ef	jal	x1,800043bc	  x1=0x800043bc
       58525000	      5851	00000000	00000013	addi	x0,x0,0	  x0:0x00000000
       58535000	      5852	8000438c	00000013	addi	x0,x0,0	  x0:0x00000000
       58545000	      5853	80004390	ff1ff36f	jal	x6,80004390	  x6=0x80004390
       58555000	      5854	00000000	00000013	addi	x0,x0,0	  x0:0x00000000
       58565000	      5855	8000437c	00000013	addi	x0,x0,0	  x0:0x00000000
       58575000	      5856	80004380	ff1ff0ef	jal	x1,80004380	  x1=0x80004380
       58585000	      5857	00000000	00000013	addi	x0,x0,0	  x0:0x00000000
       58595000	      5858	8000436c	00000013	addi	x0,x0,0	  x0:0x00000000
       58605000	      5859	80004370	ffdff0ef	jal	x1,80004370	  x1=0x80004370
       58615000	      5860	00000000	00000013	addi	x0,x0,0	  x0:0x00000000
       58625000	      5861	80004368	00000013	addi	x0,x0,0	  x0:0x00000000
       58635000	      5862	8000436c	04c00eef	jal	x29,8000436c	 x29=0x8000436c
       58645000	      5863	00000000	00000013	addi	x0,x0,0	  x0:0x00000000
       58655000	      5864	800043b4	00000013	addi	x0,x0,0	  x0:0x00000000
       58665000	      5865	800043b8	fadff0ef	jal	x1,800043b8	  x1=0x800043b8
       58675000	      5866	00000000	00000013	addi	x0,x0,0	  x0:0x00000000
       58685000	      5867	80004360	00000013	addi	x0,x0,0	  x0:0x00000000
       58695000	      5868	80004364	040000ef	jal	x1,80004364	  x1=0x80004364
       58705000	      5869	00000000	00000013	addi	x0,x0,0	  x0:0x00000000
       58715000	      5870	800043a0	00000013	addi	x0,x0,0	  x0:0x00000000
       58725000	      5871	800043a4	020000ef	jal	x1,800043a4	  x1=0x800043a4
       58735000	      5872	00000000	00000013	addi	x0,x0,0	  x0:0x00000000
       58745000	      5873	800043c0	00000013	addi	x0,x0,0	  x0:0x00000000
       58755000	      5874	800043c4	fd1ff0ef	jal	x1,800043c4	  x1=0x800043c4
       58765000	      5875	00000000	00000013	addi	x0,x0,0	  x0:0x00000000
       58775000	      5876	80004390	00000013	addi	x0,x0,0	  x0:0x00000000
       58785000	      5877	80004394	00400aef	jal	x21,80004394	 x21=0x80004394
       58795000	      5878	00000000	00000013	addi	x0,x0,0	  x0:0x00000000
       58805000	      5879	80004394	00000013	addi	x0,x0,0	  x0:0x00000000
       58815000	      5880	80004398	030000ef	jal	x1,80004398	  x1=0x80004398
       58825000	      5881	00000000	00000013	addi	x0,x0,0	  x0:0x00000000
       58835000	      5882	800043c4	00000013	addi	x0,x0,0	  x0:0x00000000
       58845000	      5883	800043c8	fadff2ef	jal	x5,800043c8	  x5=0x800043c8
       58855000	      5884	00000000	00000013	addi	x0,x0,0	  x0:0x00000000
       58865000	      5885	80004370	00000013	addi	x0,x0,0	  x0:0x00000000
       58875000	      5886	80004374	fedff0ef	jal	x1,80004374	  x1=0x80004374
       58885000	      5887	00000000	00000013	addi	x0,x0,0	  x0:0x00000000
       58895000	      5888	8000435c	00000013	addi	x0,x0,0	  x0:0x00000000
       58905000	      5889	80004360	060000ef	jal	x1,80004360	  x1=0x80004360
       58915000	      5890	00000000	00000013	addi	x0,x0,0	  x0:0x00000000
       58925000	      5891	800043bc	00000013	addi	x0,x0,0	  x0:0x00000000
       58935000	      5892	800043c0	fe9ff0ef	jal	x1,800043c0	  x1=0x800043c0
       58945000	      5893	00000000	00000013	addi	x0,x0,0	  x0:0x00000000
       58955000	      5894	800043a4	00000013	addi	x0,x0,0	  x0:0x00000000
       58965000	      5895	800043a8	fd5ff36f	jal	x6,800043a8	  x6=0x800043a8
       58975000	      5896	00000000	00000013	addi	x0,x0,0	  x0:0x00000000
       58985000	      5897	80004378	00000013	addi	x0,x0,0	  x0:0x00000000
       58995000	      5898	8000437c	fe1ff0ef	jal	x1,8000437c	  x1=0x8000437c
       59005000	      5899	00000000	00000013	addi	x0,x0,0	  x0:0x00000000
       59015000	      5900	80004358	00000013	addi	x0,x0,0	  x0:0x00000000
       59025000	      5901	8000435c	050000ef	jal	x1,8000435c	  x1=0x8000435c
       59035000	      5902	00000000	00000013	addi	x0,x0,0	  x0:0x00000000
       59045000	      5903	800043a8	00000013	addi	x0,x0,0	  x0:0x00000000
       59055000	      5904	800043ac	0040046f	jal	x8,800043ac	  x8=0x800043ac
       59065000	      5905	00000000	00000013	addi	x0,x0,0	  x0:0x00000000
       59075000	      5906	800043ac	00000013	addi	x0,x0,0	  x0:0x00000000
       59085000	      5907	800043b0	fd9ff2ef	jal	x5,800043b0	  x5=0x800043b0
       59095000	      5908	00000000	00000013	addi	x0,x0,0	  x0:0x00000000
       59105000	      5909	80004384	00000013	addi	x0,x0,0	  x0:0x00000000
       59115000	      5910	80004388	02c000ef	jal	x1,80004388	  x1=0x80004388
       59125000	      5911	00000000	00000013	addi	x0,x0,0	  x0:0x00000000
       59135000	      5912	800043b0	00000013	addi	x0,x0,0	  x0:0x00000000
       59145000	      5913	800043b4	fe9ff76f	jal	x14,800043b4	 x14=0x800043b4
       59155000	      5914	00000000	00000013	addi	x0,x0,0	  x0:0x00000000
       59165000	      5915	80004398	00000013	addi	x0,x0,0	  x0:0x00000000
       59175000	      5916	8000439c	fcdff36f	jal	x6,8000439c	  x6=0x8000439c
       59185000	      5917	00000000	00000013	addi	x0,x0,0	  x0:0x00000000
       59195000	      5918	80004364	00000013	addi	x0,x0,0	  x0:0x00000000
       59205000	      5919	80004368	01c000ef	jal	x1,80004368	  x1=0x80004368
       59215000	      5920	00000000	00000013	addi	x0,x0,0	  x0:0x00000000
       59225000	      5921	80004380	00000013	addi	x0,x0,0	  x0:0x00000000
       59235000	      5922	80004384	01c0036f	jal	x6,80004384	  x6=0x80004384
       59245000	      5923	00000000	00000013	addi	x0,x0,0	  x0:0x00000000
       59255000	      5924	8000439c	00000013	addi	x0,x0,0	  x0:0x00000000
       59265000	      5925	800043a0	fedffaef	jal	x21,800043a0	 x21=0x800043a0
       59275000	      5926	00000000	00000013	addi	x0,x0,0	  x0:0x00000000
       59285000	      5927	80004388	00000013	addi	x0,x0,0	  x0:0x00000000
       59295000	      5928	8000438c	040000ef	jal	x1,8000438c	  x1=0x8000438c
       59305000	      5929	00000000	00000013	addi	x0,x0,0	  x0:0x00000000
       59315000	      5930	800043c8	00000013	addi	x0,x0,0	  x0:0x00000000
       59325000	      5931	800043cc	62113593	sltiu	x11,x2,1569	  x2:0x00000001 x11=0x00000001
       59335000	      5932	800043d0	0114e5b3	or	x11,x9,x17	  x9:0x80004338 x17:0x00000001 x11=0x80004339
       59345000	      5933	800043d4	01bf9eb3	sll	x29,x31,x27	 x31:0x00000001 x27:0x80004334 x29=0x00100000
       59355000	      5934	800043d8	02586463	bltu	x16,x5,80004400	 x16:0x00000797  x5:0x800043b0
       59365000	      5935	00000000	00000013	addi	x0,x0,0	  x0:0x00000000
       59375000	      5936	800043fc	00000013	addi	x0,x0,0	  x0:0x00000000
       59385000	      5937	80004400	08f28e13	addi	x28,x5,143	  x5:0x800043b0 x28=0x8000443f
       59395000	      5938	80004404	36e92093	slti	x1,x18,878	 x18:0x80009f20  x1=0x00000001
       59405000	      5939	80004408	4118de93	srai	x29,x17,0x11	 x17:0x00000001 x29=0x00000000
       59415000	      5940	8000440c	a35e0a13	addi	x20,x28,-1483	 x28:0x8000443f x20=0x80003e74
       59425000	      5941	80004410	22850c93	addi	x25,x10,552	 x10:0x5a0b8000 x25=0x5a0b8228
       59435000	      5942	80004414	02ad1663	bne	x26,x10,80004440	 x26:0x80004330 x10:0x5a0b8000
       59445000	      5943	00000000	00000013	addi	x0,x0,0	  x0:0x00000000
       59455000	      5944	8000443c	00000013	addi	x0,x0,0	  x0:0x00000000
       59465000	      5945	80004440	02ec1463	bne	x24,x14,80004468	 x24:0xfebf7031 x14:0x800043b4
       59475000	      5946	00000000	00000013	addi	x0,x0,0	  x0:0x00000000
       59485000	      5947	80004464	00000013	addi	x0,x0,0	  x0:0x00000000
       59495000	      5948	80004468	017b0e63	beq	x22,x23,80004484	 x22:0x80009fc4 x23:0x969ad5a3
       59505000	      5949	8000446c	032d8863	beq	x27,x18,8000449c	 x27:0x80004334 x18:0x80009f20
       59515000	      5950	80004470	40bcde13	srai	x28,x25,0xb	 x25:0x5a0b8228 x28=0x000b4170
       59525000	      5951	80004474	01b9c863	blt	x19,x27,80004484	 x19:0x00000000 x27:0x80004334
       59535000	      5952	80004478	002e8bb3	add	x23,x29,x2	 x29:0x00000000  x2:0x00000001 x23=0x00000001
       59545000	      5953	8000447c	01ef1e93	slli	x29,x30,0x1e	 x30:0x80004358 x29=0x00000000
       59555000	      5954	80004480	01c432b3	sltu	x5,x8,x28	  x8:0x800043ac x28:0x000b4170  x5=0x00000000
       59565000	      5955	80004484	ba0c2113	slti	x2,x24,-1120	 x24:0xfebf7031  x2=0x00000001
       59575000	      5956	80004488	03f89c63	bne	x17,x31,800044c0	 x17:0x00000001 x31:0x00000001
       59585000	      5957	8000448c	de29bf93	sltiu	x31,x19,-542	 x19:0x00000000 x31=0x00000001
       59595000	      5958	80004490	41e5d213	srai	x4,x11,0x1e	 x11:0x80004339  x4=0xfffffffe
       59605000	      5959	80004494	00fb27b3	slt	x15,x22,x15	 x22:0x80009fc4 x15:0x00000000 x15=0x00000001
       59615000	      5960	80004498	41c75533	sra	x10,x14,x28	 x14:0x800043b4 x28:0x000b4170 x10=0xffff8000
       59625000	      5961	8000449c	039d7863	bgeu	x26,x25,800044cc	 x26:0x80004330 x25:0x5a0b8228
       59635000	      5962	00000000	00000013	addi	x0,x0,0	  x0:0x00000000
       59645000	      5963	800044c8	00000013	addi	x0,x0,0	  x0:0x00000000
       59655000	      5964	800044cc	006d94b3	sll	x9,x27,x6	 x27:0x80004334  x6:0x80004384  x9=0x00043340
       59665000	      5965	800044d0	00c96033	or	x0,x18,x12	 x18:0x80009f20 x12:0xfffffc8f
       59675000	      5966	800044d4	0e23a313	slti	x6,x7,226	  x7:0x955a408d  x6=0x00000001
       59685000	      5967	800044d8	01ca5113	srli	x2,x20,0x1c	 x20:0x80003e74  x2=0x00000008
       59695000	      5968	800044dc	00000013	addi	x0,x0,0	  x0:0x00000000
       59705000	      5969	800044e0	8173d837	lui	x16,0x8173d	 x16=0x8173d000
       59715000	      5970	800044e4	400b5333	sra	x6,x22,x0	 x22:0x80009fc4  x0:0x00000000  x6=0x80009fc4
       59725000	      5971	800044e8	01478663	beq	x15,x20,800044f4	 x15:0x00000001 x20:0x80003e74
       59735000	      5972	800044ec	00617a63	bgeu	x2,x6,80004500	  x2:0x00000008  x6:0x80009fc4
       59745000	      5973	800044f0	696b0113	addi	x2,x22,1686	 x22:0x80009fc4  x2=0x8000a65a
       59755000	      5974	800044f4	03040063	beq	x8,x16,80004514	  x8:0x800043ac x16:0x8173d000
       59765000	      5975	800044f8	5a57cb93	xori	x23,x15,1445	 x15:0x00000001 x23=0x000005a4
       59775000	      5976	800044fc	00841713	slli	x14,x8,0x8	  x8:0x800043ac x14=0x0043ac00
       59785000	      5977	80004500	00b0a7b3	slt	x15,x1,x11	  x1:0x00000001 x11:0x80004339 x15=0x00000000
       59795000	      5978	80004504	397faf13	slti	x30,x31,919	 x31:0x00000001 x30=0x00000001
       59805000	      5979	80004508	410fd213	srai	x4,x31,0x10	 x31:0x00000001  x4=0x00000000
       59815000	      5980	8000450c	0352ca63	blt	x5,x21,80004540	  x5:0x00000000 x21:0x800043a0
       59825000	      5981	80004510	4d718493	addi	x9,x3,1239	  x3:0x18637000  x9=0x186374d7
       59835000	      5982	80004514	02125463	bge	x4,x1,8000453c	  x4:0x00000000  x1:0x00000001
       59845000	      5983	80004518	40d65fb3	sra	x31,x12,x13	 x12:0xfffffc8f x13:0x00000001 x31=0xfffffe47
       59855000	      5984	8000451c	1c484ab7	lui	x21,0x1c484	 x21=0x1c484000
       59865000	      5985	80004520	03bed863	bge	x29,x27,80004550	 x29:0x00000000 x27:0x80004334
       59875000	      5986	00000000	00000013	addi	x0,x0,0	  x0:0x00000000
       59885000	      5987	8000454c	00000013	addi	x0,x0,0	  x0:0x00000000
       59895000	      5988	80004550	019e16b3	sll	x13,x28,x25	 x28:0x000b4170 x25:0x5a0b8228 x13=0x0b417000
       59905000	      5989	80004554	31356293	ori	x5,x10,787	 x10:0xffff8000  x5=0xffff8313
       59915000	      5990	80004558	40e35a13	srai	x20,x6,0xe	  x6:0x80009fc4 x20=0xfffe0002
       59925000	      5991	8000455c	00f389b3	add	x19,x7,x15	  x7:0x955a408d x15:0x00000000 x19=0x955a408d
       59935000	      5992	80004560	149dbd13	sltiu	x26,x27,329	 x27:0x80004334 x26=0x00000000
       59945000	      5993	80004564	00f19293	slli	x5,x3,0xf	  x3:0x18637000  x5=0xb8000000
       59955000	      5994	80004568	3a9afa93	andi	x21,x21,937	 x21:0x1c484000 x21=0x00000000
       59965000	      5995	8000456c	c2592993	slti	x19,x18,-987	 x18:0x80009f20 x19=0x00000001
       59975000	      5996	80004570	3d49e693	ori	x13,x19,980	 x19:0x00000001 x13=0x000003d5
       59985000	      5997	80004574	03e98263	beq	x19,x30,80004598	 x19:0x00000001 x30:0x00000001
       59995000	      5998	00000000	00000013	addi	x0,x0,0	  x0:0x00000000
       60005000	      5999	80004594	00000013	addi	x0,x0,0	  x0:0x00000000
       60015000	      6000	80004598	40ed54b3	sra	x9,x26,x14	 x26:0x00000000 x14:0x0043ac00  x9=0x00000000
       60025000	      6001	8000459c	00492f03	lw	x30,4(x18)	 x18:0x80009f20 x30=0x800017a0 PA:0x80009f24
       60035000	      6002	800045a0	a4a206b7	lui	x13,0xa4a20	 x13=0xa4a20000
       60045000	      6003	800045a4	ca177a37	lui	x20,0xca177	 x20=0xca177000
       60055000	      6004	800045a8	01a5a6b3	slt	x13,x11,x26	 x11:0x80004339 x26:0x00000000 x13=0x00000001
       60065000	      6005	800045ac	000da3b3	slt	x7,x27,x0	 x27:0x80004334  x0:0x00000000  x7=0x00000001
       60075000	      6006	800045b0	3939ed13	ori	x26,x19,915	 x19:0x00000001 x26=0x00000393
       60085000	      6007	800045b4	d58df513	andi	x10,x27,-680	 x27:0x80004334 x10=0x80004110
       60095000	      6008	800045b8	00c65733	srl	x14,x12,x12	 x12:0xfffffc8f x12:0xfffffc8f x14=0x0001ffff
       60105000	      6009	800045bc	02490913	addi	x18,x18,36	 x18:0x80009f20 x18=0x80009f44
       60115000	      6010	800045c0	eb80bc93	sltiu	x25,x1,-328	  x1:0x00000001 x25=0x00000001
       60125000	      6011	800045c4	6b50ee17	auipc	x28,0x6b50e	 x28=0xeb5125c0
       60135000	      6012	800045c8	000f0793	addi	x15,x30,0	 x30:0x800017a0 x15=0x800017a0
       60145000	      6013	800045cc	000787e7	jalr	x15,x15,0	 x15:0x800017a0 x15=0x800045cc
       60155000	      6014	00000000	00000013	addi	x0,x0,0	  x0:0x00000000
       60165000	      6015	800017a0	00000013	addi	x0,x0,0	  x0:0x00000000
       60175000	      6016	800017a4	03000f6f	jal	x30,800017a4	 x30=0x800017a4
       60185000	      6017	00000000	00000013	addi	x0,x0,0	  x0:0x00000000
       60195000	      6018	800017d0	00000013	addi	x0,x0,0	  x0:0x00000000
       60205000	      6019	800017d4	ff5ff0ef	jal	x1,800017d4	  x1=0x800017d4
       60215000	      6020	00000000	00000013	addi	x0,x0,0	  x0:0x00000000
       60225000	      6021	800017c4	00000013	addi	x0,x0,0	  x0:0x00000000
       60235000	      6022	800017c8	ff9ff0ef	jal	x1,800017c8	  x1=0x800017c8
       60245000	      6023	00000000	00000013	addi	x0,x0,0	  x0:0x00000000
       60255000	      6024	800017bc	00000013	addi	x0,x0,0	  x0:0x00000000
       60265000	      6025	800017c0	01c0016f	jal	x2,800017c0	  x2=0x800017c0
       60275000	      6026	00000000	00000013	addi	x0,x0,0	  x0:0x00000000
       60285000	      6027	800017d8	00000013	addi	x0,x0,0	  x0:0x00000000
       60295000	      6028	800017dc	fd5ff0ef	jal	x1,800017dc	  x1=0x800017dc
       60305000	      6029	00000000	00000013	addi	x0,x0,0	  x0:0x00000000
       60315000	      6030	800017ac	00000013	addi	x0,x0,0	  x0:0x00000000
       60325000	      6031	800017b0	030000ef	jal	x1,800017b0	  x1=0x800017b0
       60335000	      6032	00000000	00000013	addi	x0,x0,0	  x0:0x00000000
       60345000	      6033	800017dc	00000013	addi	x0,x0,0	  x0:0x00000000
       60355000	      6034	800017e0	ff9ff0ef	jal	x1,800017e0	  x1=0x800017e0
       60365000	      6035	00000000	00000013	addi	x0,x0,0	  x0:0x00000000
       60375000	      6036	800017d4	00000013	addi	x0,x0,0	  x0:0x00000000
       60385000	      6037	800017d8	fedff36f	jal	x6,800017d8	  x6=0x800017d8
       60395000	      6038	00000000	00000013	addi	x0,x0,0	  x0:0x00000000
       60405000	      6039	800017c0	00000013	addi	x0,x0,0	  x0:0x00000000
       60415000	      6040	800017c4	ff1ff36f	jal	x6,800017c4	  x6=0x800017c4
       60425000	      6041	00000000	00000013	addi	x0,x0,0	  x0:0x00000000
       60435000	      6042	800017b0	00000013	addi	x0,x0,0	  x0:0x00000000
       60445000	      6043	800017b4	01c000ef	jal	x1,800017b4	  x1=0x800017b4
       60455000	      6044	00000000	00000013	addi	x0,x0,0	  x0:0x00000000
       60465000	      6045	800017cc	00000013	addi	x0,x0,0	  x0:0x00000000
       60475000	      6046	800017d0	fe9ff0ef	jal	x1,800017d0	  x1=0x800017d0
       60485000	      6047	00000000	00000013	addi	x0,x0,0	  x0:0x00000000
       60495000	      6048	800017b4	00000013	addi	x0,x0,0	  x0:0x00000000
       60505000	      6049	800017b8	ff5ff36f	jal	x6,800017b8	  x6=0x800017b8
       60515000	      6050	00000000	00000013	addi	x0,x0,0	  x0:0x00000000
       60525000	      6051	800017a8	00000013	addi	x0,x0,0	  x0:0x00000000
       60535000	      6052	800017ac	03800d6f	jal	x26,800017ac	 x26=0x800017ac
       60545000	      6053	00000000	00000013	addi	x0,x0,0	  x0:0x00000000
       60555000	      6054	800017e0	00000013	addi	x0,x0,0	  x0:0x00000000
       60565000	      6055	800017e4	fc5ff2ef	jal	x5,800017e4	  x5=0x800017e4
       60575000	      6056	00000000	00000013	addi	x0,x0,0	  x0:0x00000000
       60585000	      6057	800017a4	00000013	addi	x0,x0,0	  x0:0x00000000
       60595000	      6058	800017a8	024000ef	jal	x1,800017a8	  x1=0x800017a8
       60605000	      6059	00000000	00000013	addi	x0,x0,0	  x0:0x00000000
       60615000	      6060	800017c8	00000013	addi	x0,x0,0	  x0:0x00000000
       60625000	      6061	800017cc	020000ef	jal	x1,800017cc	  x1=0x800017cc
       60635000	      6062	00000000	00000013	addi	x0,x0,0	  x0:0x00000000
       60645000	      6063	800017e8	00000013	addi	x0,x0,0	  x0:0x00000000
       60655000	      6064	800017ec	fd1ff0ef	jal	x1,800017ec	  x1=0x800017ec
       60665000	      6065	00000000	00000013	addi	x0,x0,0	  x0:0x00000000
       60675000	      6066	800017b8	00000013	addi	x0,x0,0	  x0:0x00000000
       60685000	      6067	800017bc	02c0036f	jal	x6,800017bc	  x6=0x800017bc
       60695000	      6068	00000000	00000013	addi	x0,x0,0	  x0:0x00000000
       60705000	      6069	800017e4	00000013	addi	x0,x0,0	  x0:0x00000000
       60715000	      6070	800017e8	008000ef	jal	x1,800017e8	  x1=0x800017e8
       60725000	      6071	00000000	00000013	addi	x0,x0,0	  x0:0x00000000
       60735000	      6072	800017ec	00000013	addi	x0,x0,0	  x0:0x00000000
       60745000	      6073	800017f0	422efa13	andi	x20,x29,1058	 x29:0x00000000 x20=0x00000000
       60755000	      6074	800017f4	00c00f6f	jal	x30,800017f4	 x30=0x800017f4
       60765000	      6075	00000000	00000013	addi	x0,x0,0	  x0:0x00000000
       60775000	      6076	800017fc	00000013	addi	x0,x0,0	  x0:0x00000000
       60785000	      6077	80001800	00c000ef	jal	x1,80001800	  x1=0x80001800
       60795000	      6078	00000000	00000013	addi	x0,x0,0	  x0:0x00000000
       60805000	      6079	80001808	00000013	addi	x0,x0,0	  x0:0x00000000
       60815000	      6080	8000180c	014000ef	jal	x1,8000180c	  x1=0x8000180c
       60825000	      6081	00000000	00000013	addi	x0,x0,0	  x0:0x00000000
       60835000	      6082	8000181c	00000013	addi	x0,x0,0	  x0:0x00000000
       60845000	      6083	80001820	ff5ff0ef	jal	x1,80001820	  x1=0x80001820
       60855000	      6084	00000000	00000013	addi	x0,x0,0	  x0:0x00000000
       60865000	      6085	80001810	00000013	addi	x0,x0,0	  x0:0x00000000
       60875000	      6086	80001814	ffdff36f	jal	x6,80001814	  x6=0x80001814
       60885000	      6087	00000000	00000013	addi	x0,x0,0	  x0:0x00000000
       60895000	      6088	8000180c	00000013	addi	x0,x0,0	  x0:0x00000000
       60905000	      6089	80001810	008000ef	jal	x1,80001810	  x1=0x80001810
       60915000	      6090	00000000	00000013	addi	x0,x0,0	  x0:0x00000000
       60925000	      6091	80001814	00000013	addi	x0,x0,0	  x0:0x00000000
       60935000	      6092	80001818	fe1ff6ef	jal	x13,80001818	 x13=0x80001818
       60945000	      6093	00000000	00000013	addi	x0,x0,0	  x0:0x00000000
       60955000	      6094	800017f4	00000013	addi	x0,x0,0	  x0:0x00000000
       60965000	      6095	800017f8	0040036f	jal	x6,800017f8	  x6=0x800017f8
       60975000	      6096	00000000	00000013	addi	x0,x0,0	  x0:0x00000000
       60985000	      6097	800017f8	00000013	addi	x0,x0,0	  x0:0x00000000
       60995000	      6098	800017fc	008000ef	jal	x1,800017fc	  x1=0x800017fc
       61005000	      6099	00000000	00000013	addi	x0,x0,0	  x0:0x00000000
       61015000	      6100	80001800	00000013	addi	x0,x0,0	  x0:0x00000000
       61025000	      6101	80001804	0180036f	jal	x6,80001804	  x6=0x80001804
       61035000	      6102	00000000	00000013	addi	x0,x0,0	  x0:0x00000000
       61045000	      6103	80001818	00000013	addi	x0,x0,0	  x0:0x00000000
       61055000	      6104	8000181c	fedffeef	jal	x29,8000181c	 x29=0x8000181c
       61065000	      6105	00000000	00000013	addi	x0,x0,0	  x0:0x00000000
       61075000	      6106	80001804	00000013	addi	x0,x0,0	  x0:0x00000000
       61085000	      6107	80001808	01c000ef	jal	x1,80001808	  x1=0x80001808
       61095000	      6108	00000000	00000013	addi	x0,x0,0	  x0:0x00000000
       61105000	      6109	80001820	00000013	addi	x0,x0,0	  x0:0x00000000
       61115000	      6110	80001824	413b5713	srai	x14,x22,0x13	 x22:0x80009fc4 x14=0xfffff000
       61125000	      6111	80001828	0166f0b3	and	x1,x13,x22	 x13:0x80001818 x22:0x80009fc4  x1=0x80001800
       61135000	      6112	8000182c	00391e63	bne	x18,x3,80001848	 x18:0x80009f44  x3:0x18637000
       61145000	      6113	00000000	00000013	addi	x0,x0,0	  x0:0x00000000
       61155000	      6114	80001844	00000013	addi	x0,x0,0	  x0:0x00000000
       61165000	      6115	80001848	001ddcb3	srl	x25,x27,x1	 x27:0x80004334  x1:0x80001800 x25=0x80004334
       61175000	      6116	8000184c	00311993	slli	x19,x2,0x3	  x2:0x800017c0 x19=0x0000be00
       61185000	      6117	80001850	01a4e8b3	or	x17,x9,x26	  x9:0x00000000 x26:0x800017ac x17=0x800017ac
       61195000	      6118	80001854	01f35e63	bge	x6,x31,80001870	  x6:0x80001804 x31:0xfffffe47
       61205000	      6119	80001858	714f4493	xori	x9,x30,1812	 x30:0x800017f4  x9=0x800010e0
       61215000	      6120	8000185c	4001d893	srai	x17,x3,0x0	  x3:0x18637000 x17=0x18637000
       61225000	      6121	80001860	00000013	addi	x0,x0,0	  x0:0x00000000
       61235000	      6122	80001864	004dec63	bltu	x27,x4,8000187c	 x27:0x80004334  x4:0x00000000
       61245000	      6123	80001868	056fd463	bge	x31,x22,800018b0	 x31:0xfffffe47 x22:0x80009fc4
       61255000	      6124	00000000	00000013	addi	x0,x0,0	  x0:0x00000000
       61265000	      6125	800018ac	00000013	addi	x0,x0,0	  x0:0x00000000
       61275000	      6126	800018b0	00399c93	slli	x25,x19,0x3	 x19:0x0000be00 x25=0x0005f000
       61285000	      6127	800018b4	01fa1333	sll	x6,x20,x31	 x20:0x00000000 x31:0xfffffe47  x6=0x00000000
       61295000	      6128	800018b8	63d34393	xori	x7,x6,1597	  x6:0x00000000  x7=0x0000063d
       61305000	      6129	800018bc	001e8663	beq	x29,x1,800018c8	 x29:0x8000181c  x1:0x80001800
       61315000	      6130	800018c0	055d1463	bne	x26,x21,80001908	 x26:0x800017ac x21:0x00000000
       61325000	      6131	00000000	00000013	addi	x0,x0,0	  x0:0x00000000
       61335000	      6132	80001904	00000013	addi	x0,x0,0	  x0:0x00000000
       61345000	      6133	80001908	0144b533	sltu	x10,x9,x20	  x9:0x800010e0 x20:0x00000000 x10=0x00000000
       61355000	      6134	8000190c	00a12db3	slt	x27,x2,x10	  x2:0x800017c0 x10:0x00000000 x27=0x00000001
       61365000	      6135	80001910	410887b3	sub	x15,x17,x16	 x17:0x18637000 x16:0x8173d000 x15=0x96efa000
       61375000	      6136	80001914	479a6993	ori	x19,x20,1145	 x20:0x00000000 x19=0x00000479
       61385000	      6137	80001918	00000013	addi	x0,x0,0	  x0:0x00000000
       61395000	      6138	8000191c	05c4f063	bgeu	x9,x28,8000195c	  x9:0x800010e0 x28:0xeb5125c0
       61405000	      6139	80001920	05ac0663	beq	x24,x26,8000196c	 x24:0xfebf7031 x26:0x800017ac
       61415000	      6140	80001924	00d6f4b3	and	x9,x13,x13	 x13:0x80001818 x13:0x80001818  x9=0x80001818
       61425000	      6141	80001928	403f0233	sub	x4,x30,x3	 x30:0x800017f4  x3:0x18637000  x4=0x679ca7f4
       61435000	      6142	8000192c	00c37133	and	x2,x6,x12	  x6:0x00000000 x12:0xfffffc8f  x2=0x00000000
       61445000	      6143	80001930	48f1c693	xori	x13,x3,1167	  x3:0x18637000 x13=0x1863748f
       61455000	      6144	80001934	10f34f93	xori	x31,x6,271	  x6:0x00000000 x31=0x0000010f
       61465000	      6145	80001938	00bdef33	or	x30,x27,x11	 x27:0x00000001 x11:0x80004339 x30=0x80004339
       61475000	      6146	8000193c	cdae6697	auipc	x13,0xcdae6	 x13=0x4dae7938
       61485000	      6147	80001940	013bc833	xor	x16,x23,x19	 x23:0x000005a4 x19:0x00000479 x16=0x000001dd
       61495000	      6148	80001944	41205413	srai	x8,x0,0x12	  x0:0x00000000  x8=0x00000000
       61505000	      6149	80001948	01797e63	bgeu	x18,x23,80001964	 x18:0x80009f44 x23:0x000005a4
       61515000	      6150	00000000	00000013	addi	x0,x0,0	  x0:0x00000000
       61525000	      6151	80001960	00000013	addi	x0,x0,0	  x0:0x00000000
       61535000	      6152	80001964	01003fb3	sltu	x31,x0,x16	  x0:0x00000000 x16:0x000001dd x31=0x00000001
       61545000	      6153	80001968	00dbaf33	slt	x30,x23,x13	 x23:0x000005a4 x13:0x4dae7938 x30=0x00000001
       61555000	      6154	8000196c	414b80b3	sub	x1,x23,x20	 x23:0x000005a4 x20:0x00000000  x1=0x000005a4
       61565000	      6155	80001970	d028c493	xori	x9,x17,-766	 x17:0x18637000  x9=0xe79c8d02
       61575000	      6156	80001974	04730463	beq	x6,x7,800019bc	  x6:0x00000000  x7:0x0000063d
       61585000	      6157	80001978	05259063	bne	x11,x18,800019b8	 x11:0x80004339 x18:0x80009f44
       61595000	      6158	00000000	00000013	addi	x0,x0,0	  x0:0x00000000
       61605000	      6159	800019b4	00000013	addi	x0,x0,0	  x0:0x00000000
       61615000	      6160	800019b8	61550593	addi	x11,x10,1557	 x10:0x00000000 x11=0x00000615
       61625000	      6161	800019bc	df55c613	xori	x12,x11,-523	 x11:0x00000615 x12=0xfffffbe0
       61635000	      6162	800019c0	0549d063	bge	x19,x20,80001a00	 x19:0x00000479 x20:0x00000000
       61645000	      6163	00000000	00000013	addi	x0,x0,0	  x0:0x00000000
       61655000	      6164	800019fc	00000013	addi	x0,x0,0	  x0:0x00000000
       61665000	      6165	80001a00	00000013	addi	x0,x0,0	  x0:0x00000000
       61675000	      6166	80001a04	4104d6b3	sra	x13,x9,x16	  x9:0xe79c8d02 x16:0x000001dd x13=0xffffffff
       61685000	      6167	80001a08	007d9663	bne	x27,x7,80001a14	 x27:0x00000001  x7:0x0000063d
       61695000	      6168	00000000	00000013	addi	x0,x0,0	  x0:0x00000000
       61705000	      6169	80001a10	00000013	addi	x0,x0,0	  x0:0x00000000
       61715000	      6170	80001a14	409fde13	srai	x28,x31,0x9	 x31:0x00000001 x28=0x00000000
       61725000	      6171	80001a18	ca522737	lui	x14,0xca522	 x14=0xca522000
       61735000	      6172	80001a1c	00e46a33	or	x20,x8,x14	  x8:0x00000000 x14:0xca522000 x20=0xca522000
       61745000	      6173	80001a20	00939d33	sll	x26,x7,x9	  x7:0x0000063d  x9:0xe79c8d02 x26=0x000018f4
       61755000	      6174	80001a24	01af4833	xor	x16,x30,x26	 x30:0x00000001 x26:0x000018f4 x16=0x000018f5
       61765000	      6175	80001a28	6569e717	auipc	x14,0x6569e	 x14=0xe569fa24
       61775000	      6176	80001a2c	012395b3	sll	x11,x7,x18	  x7:0x0000063d x18:0x80009f44 x11=0x000063d0
       61785000	      6177	80001a30	02017863	bgeu	x2,x0,80001a60	  x2:0x00000000  x0:0x00000000
       61795000	      6178	00000000	00000013	addi	x0,x0,0	  x0:0x00000000
       61805000	      6179	80001a5c	00000013	addi	x0,x0,0	  x0:0x00000000
       61815000	      6180	80001a60	3f0e8d13	addi	x26,x29,1008	 x29:0x8000181c x26=0x80001c0c
       61825000	      6181	80001a64	2e2f8393	addi	x7,x31,738	 x31:0x00000001  x7=0x000002e3
       61835000	      6182	80001a68	412ad593	srai	x11,x21,0x12	 x21:0x00000000 x11=0x00000000
       61845000	      6183	80001a6c	00325663	bge	x4,x3,80001a78	  x4:0x679ca7f4  x3:0x18637000
       61855000	      6184	00000000	00000013	addi	x0,x0,0	  x0:0x00000000
       61865000	      6185	80001a74	00000013	addi	x0,x0,0	  x0:0x00000000
       61875000	      6186	80001a78	00000013	addi	x0,x0,0	  x0:0x00000000
       61885000	      6187	80001a7c	80b70a13	addi	x20,x14,-2037	 x14:0xe569fa24 x20=0xe569f22f
       61895000	      6188	80001a80	00fe42b3	xor	x5,x28,x15	 x28:0x00000000 x15:0x96efa000  x5=0x96efa000
       61905000	      6189	80001a84	00492f03	lw	x30,4(x18)	 x18:0x80009f44 x30=0x8000013c PA:0x80009f48
       61915000	      6190	80001a88	4889ed17	auipc	x26,0x4889e	 x26=0xc889fa84
       61925000	      6191	80001a8c	04090913	addi	x18,x18,64	 x18:0x80009f44 x18=0x80009f84
       61935000	      6192	80001a90	01d45ab3	srl	x21,x8,x29	  x8:0x00000000 x29:0x8000181c x21=0x00000000
       61945000	      6193	80001a94	0a944d93	xori	x27,x8,169	  x8:0x00000000 x27=0x000000a9
       61955000	      6194	80001a98	abf9c617	auipc	x12,0xabf9c	 x12=0x2bf9da94
       61965000	      6195	80001a9c	001f0793	addi	x15,x30,1	 x30:0x8000013c x15=0x8000013d
       61975000	      6196	80001aa0	000787e7	jalr	x15,x15,0	 x15:0x8000013d x15=0x80001aa0
       61985000	      6197	00000000	00000013	addi	x0,x0,0	  x0:0x00000000
       61995000	      6198	8000013c	00000013	addi	x0,x0,0	  x0:0x00000000
       62005000	      6199	80000140	03000f6f	jal	x30,80000140	 x30=0x80000140
       62015000	      6200	00000000	00000013	addi	x0,x0,0	  x0:0x00000000
       62025000	      6201	8000016c	00000013	addi	x0,x0,0	  x0:0x00000000
       62035000	      6202	80000170	ff9ff66f	jal	x12,80000170	 x12=0x80000170
       62045000	      6203	00000000	00000013	addi	x0,x0,0	  x0:0x00000000
       62055000	      6204	80000164	00000013	addi	x0,x0,0	  x0:0x00000000
       62065000	      6205	80000168	ffdff0ef	jal	x1,80000168	  x1=0x80000168
       62075000	      6206	00000000	00000013	addi	x0,x0,0	  x0:0x00000000
       62085000	      6207	80000160	00000013	addi	x0,x0,0	  x0:0x00000000
       62095000	      6208	80000164	024000ef	jal	x1,80000164	  x1=0x80000164
       62105000	      6209	00000000	00000013	addi	x0,x0,0	  x0:0x00000000
       62115000	      6210	80000184	00000013	addi	x0,x0,0	  x0:0x00000000
       62125000	      6211	80000188	fd9ff0ef	jal	x1,80000188	  x1=0x80000188
       62135000	      6212	00000000	00000013	addi	x0,x0,0	  x0:0x00000000
       62145000	      6213	8000015c	00000013	addi	x0,x0,0	  x0:0x00000000
       62155000	      6214	80000160	024000ef	jal	x1,80000160	  x1=0x80000160
       62165000	      6215	00000000	00000013	addi	x0,x0,0	  x0:0x00000000
       62175000	      6216	80000180	00000013	addi	x0,x0,0	  x0:0x00000000
       62185000	      6217	80000184	ff9ff0ef	jal	x1,80000184	  x1=0x80000184
       62195000	      6218	00000000	00000013	addi	x0,x0,0	  x0:0x00000000
       62205000	      6219	80000178	00000013	addi	x0,x0,0	  x0:0x00000000
       62215000	      6220	8000017c	fc9ff0ef	jal	x1,8000017c	  x1=0x8000017c
       62225000	      6221	00000000	00000013	addi	x0,x0,0	  x0:0x00000000
       62235000	      6222	80000140	00000013	addi	x0,x0,0	  x0:0x00000000
       62245000	      6223	80000144	00c000ef	jal	x1,80000144	  x1=0x80000144
       62255000	      6224	00000000	00000013	addi	x0,x0,0	  x0:0x00000000
       62265000	      6225	8000014c	00000013	addi	x0,x0,0	  x0:0x00000000
       62275000	      6226	80000150	024000ef	jal	x1,80000150	  x1=0x80000150
       62285000	      6227	00000000	00000013	addi	x0,x0,0	  x0:0x00000000
       62295000	      6228	80000170	00000013	addi	x0,x0,0	  x0:0x00000000
       62305000	      6229	80000174	018000ef	jal	x1,80000174	  x1=0x80000174
       62315000	      6230	00000000	00000013	addi	x0,x0,0	  x0:0x00000000
       62325000	      6231	80000188	00000013	addi	x0,x0,0	  x0:0x00000000
       62335000	      6232	8000018c	fedff0ef	jal	x1,8000018c	  x1=0x8000018c
       62345000	      6233	00000000	00000013	addi	x0,x0,0	  x0:0x00000000
       62355000	      6234	80000174	00000013	addi	x0,x0,0	  x0:0x00000000
       62365000	      6235	80000178	fddff16f	jal	x2,80000178	  x2=0x80000178
       62375000	      6236	00000000	00000013	addi	x0,x0,0	  x0:0x00000000
       62385000	      6237	80000150	00000013	addi	x0,x0,0	  x0:0x00000000
       62395000	      6238	80000154	ff5ff0ef	jal	x1,80000154	  x1=0x80000154
       62405000	      6239	00000000	00000013	addi	x0,x0,0	  x0:0x00000000
       62415000	      6240	80000144	00000013	addi	x0,x0,0	  x0:0x00000000
       62425000	      6241	80000148	038000ef	jal	x1,80000148	  x1=0x80000148
       62435000	      6242	00000000	00000013	addi	x0,x0,0	  x0:0x00000000
       62445000	      6243	8000017c	00000013	addi	x0,x0,0	  x0:0x00000000
       62455000	      6244	80000180	fcdff0ef	jal	x1,80000180	  x1=0x80000180
       62465000	      6245	00000000	00000013	addi	x0,x0,0	  x0:0x00000000
       62475000	      6246	80000148	00000013	addi	x0,x0,0	  x0:0x00000000
       62485000	      6247	8000014c	010000ef	jal	x1,8000014c	  x1=0x8000014c
       62495000	      6248	00000000	00000013	addi	x0,x0,0	  x0:0x00000000
       62505000	      6249	80000158	00000013	addi	x0,x0,0	  x0:0x00000000
       62515000	      6250	8000015c	010000ef	jal	x1,8000015c	  x1=0x8000015c
       62525000	      6251	00000000	00000013	addi	x0,x0,0	  x0:0x00000000
       62535000	      6252	80000168	00000013	addi	x0,x0,0	  x0:0x00000000
       62545000	      6253	8000016c	fedff1ef	jal	x3,8000016c	  x3=0x8000016c
       62555000	      6254	00000000	00000013	addi	x0,x0,0	  x0:0x00000000
       62565000	      6255	80000154	00000013	addi	x0,x0,0	  x0:0x00000000
       62575000	      6256	80000158	0380026f	jal	x4,80000158	  x4=0x80000158
       62585000	      6257	00000000	00000013	addi	x0,x0,0	  x0:0x00000000
       62595000	      6258	8000018c	00000013	addi	x0,x0,0	  x0:0x00000000
       62605000	      6259	80000190	001c71b3	and	x3,x24,x1	 x24:0xfebf7031  x1:0x8000015c  x3=0x80000010
       62615000	      6260	80000194	001fb1b3	sltu	x3,x31,x1	 x31:0x00000001  x1:0x8000015c  x3=0x00000001
       62625000	      6261	80000198	26800c93	addi	x25,x0,616	  x0:0x00000000 x25=0x00000268
       62635000	      6262	8000019c	00b4a133	slt	x2,x9,x11	  x9:0xe79c8d02 x11:0x00000000  x2=0x00000001
       62645000	      6263	800001a0	975dc537	lui	x10,0x975dc	 x10=0x975dc000
       62655000	      6264	800001a4	00ce3533	sltu	x10,x28,x12	 x28:0x00000000 x12:0x80000170 x10=0x00000001
       62665000	      6265	800001a8	008076b3	and	x13,x0,x8	  x0:0x00000000  x8:0x00000000 x13=0x00000000
       62675000	      6266	800001ac	4008d633	sra	x12,x17,x0	 x17:0x18637000  x0:0x00000000 x12=0x18637000
       62685000	      6267	800001b0	01cef233	and	x4,x29,x28	 x29:0x8000181c x28:0x00000000  x4=0x00000000
       62695000	      6268	800001b4	01150cb3	add	x25,x10,x17	 x10:0x00000001 x17:0x18637000 x25=0x18637001
       62705000	      6269	800001b8	00002c97	auipc	x25,0x2	 x25=0x800021b4
       62715000	      6270	800001bc	8ecc8c93	addi	x25,x25,-1812	 x25:0x800021b4 x25=0x80001aa0
       62725000	      6271	800001c0	6beb0997	auipc	x19,0x6beb0	 x19=0xebeb01bc
       62735000	      6272	800001c4	216aca93	xori	x21,x21,534	 x21:0x00000000 x21=0x00000216
       62745000	      6273	800001c8	417d5d33	sra	x26,x26,x23	 x26:0xc889fa84 x23:0x000005a4 x26=0xfc889fa8
       62755000	      6274	800001cc	fd533237	lui	x4,0xfd533	  x4=0xfd533000
       62765000	      6275	800001d0	00365993	srli	x19,x12,0x3	 x12:0x18637000 x19=0x030c6e00
       62775000	      6276	800001d4	0bbab713	sltiu	x14,x21,187	 x21:0x00000216 x14=0x00000000
       62785000	      6277	800001d8	00000013	addi	x0,x0,0	  x0:0x00000000
       62795000	      6278	800001dc	003612b3	sll	x5,x12,x3	 x12:0x18637000  x3:0x00000001  x5=0x30c6e000
       62805000	      6279	800001e0	18592793	slti	x15,x18,389	 x18:0x80009f84 x15=0x00000001
       62815000	      6280	800001e4	dfac8c93	addi	x25,x25,-518	 x25:0x80001aa0 x25=0x8000189a
       62825000	      6281	800001e8	e612c213	xori	x4,x5,-415	  x5:0x30c6e000  x4=0xcf391e61
       62835000	      6282	800001ec	207c8f67	jalr	x30,x25,519	 x25:0x8000189a x30=0x800001ec
       62845000	      6283	00000000	00000013	addi	x0,x0,0	  x0:0x00000000
       62855000	      6284	80001aa0	00000013	addi	x0,x0,0	  x0:0x00000000
       62865000	      6285	80001aa4	00410ab3	add	x21,x2,x4	  x2:0x00000001  x4:0xcf391e61 x21=0xcf391e62
       62875000	      6286	80001aa8	00339013	slli	x0,x7,0x3	  x7:0x000002e3
       62885000	      6287	80001aac	ff890913	addi	x18,x18,-8	 x18:0x80009f84 x18=0x80009f7c
       62895000	      6288	80001ab0	01e92223	sw	x30,4(x18)	 x18:0x80009f7c x30:0x800001ec PA:0x80009f80
       62905000	      6289	80001ab4	f89f7997	auipc	x19,0xf89f7	 x19=0x789f8ab0
       62915000	      6290	80001ab8	003d5317	auipc	x6,0x3d5	  x6=0x803d6ab4
       62925000	      6291	80001abc	034dae13	slti	x28,x27,52	 x27:0x000000a9 x28=0x00000000
       62935000	      6292	80001ac0	00858e33	add	x28,x11,x8	 x11:0x00000000  x8:0x00000000 x28=0x00000000
       62945000	      6293	80001ac4	0165d8b3	srl	x17,x11,x22	 x11:0x00000000 x22:0x80009fc4 x17=0x00000000
       62955000	      6294	80001ac8	00800f6f	jal	x30,80001ac8	 x30=0x80001ac8
       62965000	      6295	00000000	00000013	addi	x0,x0,0	  x0:0x00000000
       62975000	      6296	80001acc	00000013	addi	x0,x0,0	  x0:0x00000000
       62985000	      6297	80001ad0	02c000ef	jal	x1,80001ad0	  x1=0x80001ad0
       62995000	      6298	00000000	00000013	addi	x0,x0,0	  x0:0x00000000
       63005000	      6299	80001af8	00000013	addi	x0,x0,0	  x0:0x00000000
       63015000	      6300	80001afc	fe1ff36f	jal	x6,80001afc	  x6=0x80001afc
       63025000	      6301	00000000	00000013	addi	x0,x0,0	  x0:0x00000000
       63035000	      6302	80001ad8	00000013	addi	x0,x0,0	  x0:0x00000000
       63045000	      6303	80001adc	010000ef	jal	x1,80001adc	  x1=0x80001adc
       63055000	      6304	00000000	00000013	addi	x0,x0,0	  x0:0x00000000
       63065000	      6305	80001ae8	00000013	addi	x0,x0,0	  x0:0x00000000
       63075000	      6306	80001aec	00400aef	jal	x21,80001aec	 x21=0x80001aec
       63085000	      6307	00000000	00000013	addi	x0,x0,0	  x0:0x00000000
       63095000	      6308	80001aec	00000013	addi	x0,x0,0	  x0:0x00000000
       63105000	      6309	80001af0	fe5ff16f	jal	x2,80001af0	  x2=0x80001af0
       63115000	      6310	00000000	00000013	addi	x0,x0,0	  x0:0x00000000
       63125000	      6311	80001ad0	00000013	addi	x0,x0,0	  x0:0x00000000
       63135000	      6312	80001ad4	ff9ffa6f	jal	x20,80001ad4	 x20=0x80001ad4
       63145000	      6313	00000000	00000013	addi	x0,x0,0	  x0:0x00000000
       63155000	      6314	80001ac8	00000013	addi	x0,x0,0	  x0:0x00000000
       63165000	      6315	80001acc	01c000ef	jal	x1,80001acc	  x1=0x80001acc
       63175000	      6316	00000000	00000013	addi	x0,x0,0	  x0:0x00000000
       63185000	      6317	80001ae4	00000013	addi	x0,x0,0	  x0:0x00000000
       63195000	      6318	80001ae8	0100036f	jal	x6,80001ae8	  x6=0x80001ae8
       63205000	      6319	00000000	00000013	addi	x0,x0,0	  x0:0x00000000
       63215000	      6320	80001af4	00000013	addi	x0,x0,0	  x0:0x00000000
       63225000	      6321	80001af8	fe9ff2ef	jal	x5,80001af8	  x5=0x80001af8
       63235000	      6322	00000000	00000013	addi	x0,x0,0	  x0:0x00000000
       63245000	      6323	80001adc	00000013	addi	x0,x0,0	  x0:0x00000000
       63255000	      6324	80001ae0	ff9ff0ef	jal	x1,80001ae0	  x1=0x80001ae0
       63265000	      6325	00000000	00000013	addi	x0,x0,0	  x0:0x00000000
       63275000	      6326	80001ad4	00000013	addi	x0,x0,0	  x0:0x00000000
       63285000	      6327	80001ad8	0280036f	jal	x6,80001ad8	  x6=0x80001ad8
       63295000	      6328	00000000	00000013	addi	x0,x0,0	  x0:0x00000000
       63305000	      6329	80001afc	00000013	addi	x0,x0,0	  x0:0x00000000
       63315000	      6330	80001b00	ff5ff0ef	jal	x1,80001b00	  x1=0x80001b00
       63325000	      6331	00000000	00000013	addi	x0,x0,0	  x0:0x00000000
       63335000	      6332	80001af0	00000013	addi	x0,x0,0	  x0:0x00000000
       63345000	      6333	80001af4	ff1ff0ef	jal	x1,80001af4	  x1=0x80001af4
       63355000	      6334	00000000	00000013	addi	x0,x0,0	  x0:0x00000000
       63365000	      6335	80001ae0	00000013	addi	x0,x0,0	  x0:0x00000000
       63375000	      6336	80001ae4	020000ef	jal	x1,80001ae4	  x1=0x80001ae4
       63385000	      6337	00000000	00000013	addi	x0,x0,0	  x0:0x00000000
       63395000	      6338	80001b00	00000013	addi	x0,x0,0	  x0:0x00000000
       63405000	      6339	80001b04	00218433	add	x8,x3,x2	  x3:0x00000001  x2:0x80001af0  x8=0x80001af1
       63415000	      6340	80001b08	01800f6f	jal	x30,80001b08	 x30=0x80001b08
       63425000	      6341	00000000	00000013	addi	x0,x0,0	  x0:0x00000000
       63435000	      6342	80001b1c	00000013	addi	x0,x0,0	  x0:0x00000000
       63445000	      6343	80001b20	020009ef	jal	x19,80001b20	 x19=0x80001b20
       63455000	      6344	00000000	00000013	addi	x0,x0,0	  x0:0x00000000
       63465000	      6345	80001b3c	00000013	addi	x0,x0,0	  x0:0x00000000
       63475000	      6346	80001b40	ffdffeef	jal	x29,80001b40	 x29=0x80001b40
       63485000	      6347	00000000	00000013	addi	x0,x0,0	  x0:0x00000000
       63495000	      6348	80001b38	00000013	addi	x0,x0,0	  x0:0x00000000
       63505000	      6349	80001b3c	fd1ff36f	jal	x6,80001b3c	  x6=0x80001b3c
       63515000	      6350	00000000	00000013	addi	x0,x0,0	  x0:0x00000000
       63525000	      6351	80001b08	00000013	addi	x0,x0,0	  x0:0x00000000
       63535000	      6352	80001b0c	0180036f	jal	x6,80001b0c	  x6=0x80001b0c
       63545000	      6353	00000000	00000013	addi	x0,x0,0	  x0:0x00000000
       63555000	      6354	80001b20	00000013	addi	x0,x0,0	  x0:0x00000000
       63565000	      6355	80001b24	014006ef	jal	x13,80001b24	 x13=0x80001b24
       63575000	      6356	00000000	00000013	addi	x0,x0,0	  x0:0x00000000
       63585000	      6357	80001b34	00000013	addi	x0,x0,0	  x0:0x00000000
       63595000	      6358	80001b38	fe5ff0ef	jal	x1,80001b38	  x1=0x80001b38
       63605000	      6359	00000000	00000013	addi	x0,x0,0	  x0:0x00000000
       63615000	      6360	80001b18	00000013	addi	x0,x0,0	  x0:0x00000000
       63625000	      6361	80001b1c	010000ef	jal	x1,80001b1c	  x1=0x80001b1c
       63635000	      6362	00000000	00000013	addi	x0,x0,0	  x0:0x00000000
       63645000	      6363	80001b28	00000013	addi	x0,x0,0	  x0:0x00000000
       63655000	      6364	80001b2c	00800f6f	jal	x30,80001b2c	 x30=0x80001b2c
       63665000	      6365	00000000	00000013	addi	x0,x0,0	  x0:0x00000000
       63675000	      6366	80001b30	00000013	addi	x0,x0,0	  x0:0x00000000
       63685000	      6367	80001b34	fe1ff76f	jal	x14,80001b34	 x14=0x80001b34
       63695000	      6368	00000000	00000013	addi	x0,x0,0	  x0:0x00000000
       63705000	      6369	80001b10	00000013	addi	x0,x0,0	  x0:0x00000000
       63715000	      6370	80001b14	0140036f	jal	x6,80001b14	  x6=0x80001b14
       63725000	      6371	00000000	00000013	addi	x0,x0,0	  x0:0x00000000
       63735000	      6372	80001b24	00000013	addi	x0,x0,0	  x0:0x00000000
       63745000	      6373	80001b28	fe9ff56f	jal	x10,80001b28	 x10=0x80001b28
       63755000	      6374	00000000	00000013	addi	x0,x0,0	  x0:0x00000000
       63765000	      6375	80001b0c	00000013	addi	x0,x0,0	  x0:0x00000000
       63775000	      6376	80001b10	020000ef	jal	x1,80001b10	  x1=0x80001b10
       63785000	      6377	00000000	00000013	addi	x0,x0,0	  x0:0x00000000
       63795000	      6378	80001b2c	00000013	addi	x0,x0,0	  x0:0x00000000
       63805000	      6379	80001b30	fe9ff0ef	jal	x1,80001b30	  x1=0x80001b30
       63815000	      6380	00000000	00000013	addi	x0,x0,0	  x0:0x00000000
       63825000	      6381	80001b14	00000013	addi	x0,x0,0	  x0:0x00000000
       63835000	      6382	80001b18	02c002ef	jal	x5,80001b18	  x5=0x80001b18
       63845000	      6383	00000000	00000013	addi	x0,x0,0	  x0:0x00000000
       63855000	      6384	80001b40	00000013	addi	x0,x0,0	  x0:0x00000000
       63865000	      6385	80001b44	cafead93	slti	x27,x29,-849	 x29:0x80001b40 x27=0x00000001
       63875000	      6386	80001b48	01000f6f	jal	x30,80001b48	 x30=0x80001b48
       63885000	      6387	00000000	00000013	addi	x0,x0,0	  x0:0x00000000
       63895000	      6388	80001b54	00000013	addi	x0,x0,0	  x0:0x00000000
       63905000	      6389	80001b58	028000ef	jal	x1,80001b58	  x1=0x80001b58
       63915000	      6390	00000000	00000013	addi	x0,x0,0	  x0:0x00000000
       63925000	      6391	80001b7c	00000013	addi	x0,x0,0	  x0:0x00000000
       63935000	      6392	80001b80	ff9ff3ef	jal	x7,80001b80	  x7=0x80001b80
       63945000	      6393	00000000	00000013	addi	x0,x0,0	  x0:0x00000000
       63955000	      6394	80001b74	00000013	addi	x0,x0,0	  x0:0x00000000
       63965000	      6395	80001b78	fedff16f	jal	x2,80001b78	  x2=0x80001b78
       63975000	      6396	00000000	00000013	addi	x0,x0,0	  x0:0x00000000
       63985000	      6397	80001b60	00000013	addi	x0,x0,0	  x0:0x00000000
       63995000	      6398	80001b64	ffdff0ef	jal	x1,80001b64	  x1=0x80001b64
       64005000	      6399	00000000	00000013	addi	x0,x0,0	  x0:0x00000000
       64015000	      6400	80001b5c	00000013	addi	x0,x0,0	  x0:0x00000000
       64025000	      6401	80001b60	008000ef	jal	x1,80001b60	  x1=0x80001b60
       64035000	      6402	00000000	00000013	addi	x0,x0,0	  x0:0x00000000
       64045000	      6403	80001b64	00000013	addi	x0,x0,0	  x0:0x00000000
       64055000	      6404	80001b68	008000ef	jal	x1,80001b68	  x1=0x80001b68
       64065000	      6405	00000000	00000013	addi	x0,x0,0	  x0:0x00000000
       64075000	      6406	80001b6c	00000013	addi	x0,x0,0	  x0:0x00000000
       64085000	      6407	80001b70	ffdff36f	jal	x6,80001b70	  x6=0x80001b70
       64095000	      6408	00000000	00000013	addi	x0,x0,0	  x0:0x00000000
       64105000	      6409	80001b68	00000013	addi	x0,x0,0	  x0:0x00000000
       64115000	      6410	80001b6c	0080076f	jal	x14,80001b6c	 x14=0x80001b6c
       64125000	      6411	00000000	00000013	addi	x0,x0,0	  x0:0x00000000
       64135000	      6412	80001b70	00000013	addi	x0,x0,0	  x0:0x00000000
       64145000	      6413	80001b74	fd9ff0ef	jal	x1,80001b74	  x1=0x80001b74
       64155000	      6414	00000000	00000013	addi	x0,x0,0	  x0:0x00000000
       64165000	      6415	80001b48	00000013	addi	x0,x0,0	  x0:0x00000000
       64175000	      6416	80001b4c	010000ef	jal	x1,80001b4c	  x1=0x80001b4c
       64185000	      6417	00000000	00000013	addi	x0,x0,0	  x0:0x00000000
       64195000	      6418	80001b58	00000013	addi	x0,x0,0	  x0:0x00000000
       64205000	      6419	80001b5c	ff5ff0ef	jal	x1,80001b5c	  x1=0x80001b5c
       64215000	      6420	00000000	00000013	addi	x0,x0,0	  x0:0x00000000
       64225000	      6421	80001b4c	00000013	addi	x0,x0,0	  x0:0x00000000
       64235000	      6422	80001b50	00400aef	jal	x21,80001b50	 x21=0x80001b50
       64245000	      6423	00000000	00000013	addi	x0,x0,0	  x0:0x00000000
       64255000	      6424	80001b50	00000013	addi	x0,x0,0	  x0:0x00000000
       64265000	      6425	80001b54	0280036f	jal	x6,80001b54	  x6=0x80001b54
       64275000	      6426	00000000	00000013	addi	x0,x0,0	  x0:0x00000000
       64285000	      6427	80001b78	00000013	addi	x0,x0,0	  x0:0x00000000
       64295000	      6428	80001b7c	0080016f	jal	x2,80001b7c	  x2=0x80001b7c
       64305000	      6429	00000000	00000013	addi	x0,x0,0	  x0:0x00000000
       64315000	      6430	80001b80	00000013	addi	x0,x0,0	  x0:0x00000000
       64325000	      6431	80001b84	0033c1b3	xor	x3,x7,x3	  x7:0x80001b80  x3:0x00000001  x3=0x80001b81
       64335000	      6432	80001b88	02800f6f	jal	x30,80001b88	 x30=0x80001b88
       64345000	      6433	00000000	00000013	addi	x0,x0,0	  x0:0x00000000
       64355000	      6434	80001bac	00000013	addi	x0,x0,0	  x0:0x00000000
       64365000	      6435	80001bb0	004000ef	jal	x1,80001bb0	  x1=0x80001bb0
       64375000	      6436	00000000	00000013	addi	x0,x0,0	  x0:0x00000000
       64385000	      6437	80001bb0	00000013	addi	x0,x0,0	  x0:0x00000000
       64395000	      6438	80001bb4	fe1ffcef	jal	x25,80001bb4	 x25=0x80001bb4
       64405000	      6439	00000000	00000013	addi	x0,x0,0	  x0:0x00000000
       64415000	      6440	80001b90	00000013	addi	x0,x0,0	  x0:0x00000000
       64425000	      6441	80001b94	ffdff0ef	jal	x1,80001b94	  x1=0x80001b94
       64435000	      6442	00000000	00000013	addi	x0,x0,0	  x0:0x00000000
       64445000	      6443	80001b8c	00000013	addi	x0,x0,0	  x0:0x00000000
       64455000	      6444	80001b90	0080036f	jal	x6,80001b90	  x6=0x80001b90
       64465000	      6445	00000000	00000013	addi	x0,x0,0	  x0:0x00000000
       64475000	      6446	80001b94	00000013	addi	x0,x0,0	  x0:0x00000000
       64485000	      6447	80001b98	020000ef	jal	x1,80001b98	  x1=0x80001b98
       64495000	      6448	00000000	00000013	addi	x0,x0,0	  x0:0x00000000
       64505000	      6449	80001bb4	00000013	addi	x0,x0,0	  x0:0x00000000
       64515000	      6450	80001bb8	004000ef	jal	x1,80001bb8	  x1=0x80001bb8
       64525000	      6451	00000000	00000013	addi	x0,x0,0	  x0:0x00000000
       64535000	      6452	80001bb8	00000013	addi	x0,x0,0	  x0:0x00000000
       64545000	      6453	80001bbc	fedff0ef	jal	x1,80001bbc	  x1=0x80001bbc
       64555000	      6454	00000000	00000013	addi	x0,x0,0	  x0:0x00000000
       64565000	      6455	80001ba4	00000013	addi	x0,x0,0	  x0:0x00000000
       64575000	      6456	80001ba8	fe5ff0ef	jal	x1,80001ba8	  x1=0x80001ba8
       64585000	      6457	00000000	00000013	addi	x0,x0,0	  x0:0x00000000
       64595000	      6458	80001b88	00000013	addi	x0,x0,0	  x0:0x00000000
       64605000	      6459	80001b8c	014000ef	jal	x1,80001b8c	  x1=0x80001b8c
       64615000	      6460	00000000	00000013	addi	x0,x0,0	  x0:0x00000000
       64625000	      6461	80001b9c	00000013	addi	x0,x0,0	  x0:0x00000000
       64635000	      6462	80001ba0	00400fef	jal	x31,80001ba0	 x31=0x80001ba0
       64645000	      6463	00000000	00000013	addi	x0,x0,0	  x0:0x00000000
       64655000	      6464	80001ba0	00000013	addi	x0,x0,0	  x0:0x00000000
       64665000	      6465	80001ba4	008000ef	jal	x1,80001ba4	  x1=0x80001ba4
       64675000	      6466	00000000	00000013	addi	x0,x0,0	  x0:0x00000000
       64685000	      6467	80001ba8	00000013	addi	x0,x0,0	  x0:0x00000000
       64695000	      6468	80001bac	ff1ff0ef	jal	x1,80001bac	  x1=0x80001bac
       64705000	      6469	00000000	00000013	addi	x0,x0,0	  x0:0x00000000
       64715000	      6470	80001b98	00000013	addi	x0,x0,0	  x0:0x00000000
       64725000	      6471	80001b9c	024000ef	jal	x1,80001b9c	  x1=0x80001b9c
       64735000	      6472	00000000	00000013	addi	x0,x0,0	  x0:0x00000000
       64745000	      6473	80001bbc	00000013	addi	x0,x0,0	  x0:0x00000000
       64755000	      6474	80001bc0	01b94a33	xor	x20,x18,x27	 x18:0x80009f7c x27:0x00000001 x20=0x80009f7d
       64765000	      6475	80001bc4	02800f6f	jal	x30,80001bc4	 x30=0x80001bc4
       64775000	      6476	00000000	00000013	addi	x0,x0,0	  x0:0x00000000
       64785000	      6477	80001be8	00000013	addi	x0,x0,0	  x0:0x00000000
       64795000	      6478	80001bec	018000ef	jal	x1,80001bec	  x1=0x80001bec
       64805000	      6479	00000000	00000013	addi	x0,x0,0	  x0:0x00000000
       64815000	      6480	80001c00	00000013	addi	x0,x0,0	  x0:0x00000000
       64825000	      6481	80001c04	fddff1ef	jal	x3,80001c04	  x3=0x80001c04
       64835000	      6482	00000000	00000013	addi	x0,x0,0	  x0:0x00000000
       64845000	      6483	80001bdc	00000013	addi	x0,x0,0	  x0:0x00000000
       64855000	      6484	80001be0	0380036f	jal	x6,80001be0	  x6=0x80001be0
       64865000	      6485	00000000	00000013	addi	x0,x0,0	  x0:0x00000000
       64875000	      6486	80001c14	00000013	addi	x0,x0,0	  x0:0x00000000
       64885000	      6487	80001c18	fddff0ef	jal	x1,80001c18	  x1=0x80001c18
       64895000	      6488	00000000	00000013	addi	x0,x0,0	  x0:0x00000000
       64905000	      6489	80001bf0	00000013	addi	x0,x0,0	  x0:0x00000000
       64915000	      6490	80001bf4	ff5ff46f	jal	x8,80001bf4	  x8=0x80001bf4
       64925000	      6491	00000000	00000013	addi	x0,x0,0	  x0:0x00000000
       64935000	      6492	80001be4	00000013	addi	x0,x0,0	  x0:0x00000000
       64945000	      6493	80001be8	02c00a6f	jal	x20,80001be8	 x20=0x80001be8
       64955000	      6494	00000000	00000013	addi	x0,x0,0	  x0:0x00000000
       64965000	      6495	80001c10	00000013	addi	x0,x0,0	  x0:0x00000000
       64975000	      6496	80001c14	fc1ff36f	jal	x6,80001c14	  x6=0x80001c14
       64985000	      6497	00000000	00000013	addi	x0,x0,0	  x0:0x00000000
       64995000	      6498	80001bd0	00000013	addi	x0,x0,0	  x0:0x00000000
       65005000	      6499	80001bd4	0100036f	jal	x6,80001bd4	  x6=0x80001bd4
       65015000	      6500	00000000	00000013	addi	x0,x0,0	  x0:0x00000000
       65025000	      6501	80001be0	00000013	addi	x0,x0,0	  x0:0x00000000
       65035000	      6502	80001be4	02c000ef	jal	x1,80001be4	  x1=0x80001be4
       65045000	      6503	00000000	00000013	addi	x0,x0,0	  x0:0x00000000
       65055000	      6504	80001c0c	00000013	addi	x0,x0,0	  x0:0x00000000
       65065000	      6505	80001c10	ff9ff0ef	jal	x1,80001c10	  x1=0x80001c10
       65075000	      6506	00000000	00000013	addi	x0,x0,0	  x0:0x00000000
       65085000	      6507	80001c04	00000013	addi	x0,x0,0	  x0:0x00000000
       65095000	      6508	80001c08	ff9ff36f	jal	x6,80001c08	  x6=0x80001c08
       65105000	      6509	00000000	00000013	addi	x0,x0,0	  x0:0x00000000
       65115000	      6510	80001bfc	00000013	addi	x0,x0,0	  x0:0x00000000
       65125000	      6511	80001c00	fddff36f	jal	x6,80001c00	  x6=0x80001c00
       65135000	      6512	00000000	00000013	addi	x0,x0,0	  x0:0x00000000
       65145000	      6513	80001bd8	00000013	addi	x0,x0,0	  x0:0x00000000
       65155000	      6514	80001bdc	0400036f	jal	x6,80001bdc	  x6=0x80001bdc
       65165000	      6515	00000000	00000013	addi	x0,x0,0	  x0:0x00000000
       65175000	      6516	80001c18	00000013	addi	x0,x0,0	  x0:0x00000000
       65185000	      6517	80001c1c	fb1ff36f	jal	x6,80001c1c	  x6=0x80001c1c
       65195000	      6518	00000000	00000013	addi	x0,x0,0	  x0:0x00000000
       65205000	      6519	80001bc8	00000013	addi	x0,x0,0	  x0:0x00000000
       65215000	      6520	80001bcc	024000ef	jal	x1,80001bcc	  x1=0x80001bcc
       65225000	      6521	00000000	00000013	addi	x0,x0,0	  x0:0x00000000
       65235000	      6522	80001bec	00000013	addi	x0,x0,0	  x0:0x00000000
       65245000	      6523	80001bf0	01c0026f	jal	x4,80001bf0	  x4=0x80001bf0
       65255000	      6524	00000000	00000013	addi	x0,x0,0	  x0:0x00000000
       65265000	      6525	80001c08	00000013	addi	x0,x0,0	  x0:0x00000000
       65275000	      6526	80001c0c	fc5ff0ef	jal	x1,80001c0c	  x1=0x80001c0c
       65285000	      6527	00000000	00000013	addi	x0,x0,0	  x0:0x00000000
       65295000	      6528	80001bcc	00000013	addi	x0,x0,0	  x0:0x00000000
       65305000	      6529	80001bd0	028007ef	jal	x15,80001bd0	 x15=0x80001bd0
       65315000	      6530	00000000	00000013	addi	x0,x0,0	  x0:0x00000000
       65325000	      6531	80001bf4	00000013	addi	x0,x0,0	  x0:0x00000000
       65335000	      6532	80001bf8	fe1ff0ef	jal	x1,80001bf8	  x1=0x80001bf8
       65345000	      6533	00000000	00000013	addi	x0,x0,0	  x0:0x00000000
       65355000	      6534	80001bd4	00000013	addi	x0,x0,0	  x0:0x00000000
       65365000	      6535	80001bd8	0240036f	jal	x6,80001bd8	  x6=0x80001bd8
       65375000	      6536	00000000	00000013	addi	x0,x0,0	  x0:0x00000000
       65385000	      6537	80001bf8	00000013	addi	x0,x0,0	  x0:0x00000000
       65395000	      6538	80001bfc	fcdff36f	jal	x6,80001bfc	  x6=0x80001bfc
       65405000	      6539	00000000	00000013	addi	x0,x0,0	  x0:0x00000000
       65415000	      6540	80001bc4	00000013	addi	x0,x0,0	  x0:0x00000000
       65425000	      6541	80001bc8	0580036f	jal	x6,80001bc8	  x6=0x80001bc8
       65435000	      6542	00000000	00000013	addi	x0,x0,0	  x0:0x00000000
       65445000	      6543	80001c1c	00000013	addi	x0,x0,0	  x0:0x00000000
       65455000	      6544	80001c20	01d35d93	srli	x27,x6,0x1d	  x6:0x80001bc8 x27=0x00000004
       65465000	      6545	80001c24	4f6bad97	auipc	x27,0x4f6ba	 x27=0xcf6bbc20
       65475000	      6546	80001c28	fa6de6b7	lui	x13,0xfa6de	 x13=0xfa6de000
       65485000	      6547	80001c2c	fb7acf13	xori	x30,x21,-73	 x21:0x80001b50 x30=0x7fffe4e7
       65495000	      6548	80001c30	0171e133	or	x2,x3,x23	  x3:0x80001c04 x23:0x000005a4  x2=0x80001da4
       65505000	      6549	80001c34	407bd993	srai	x19,x23,0x7	 x23:0x000005a4 x19=0x0000000b
       65515000	      6550	80001c38	3f6fa613	slti	x12,x31,1014	 x31:0x80001ba0 x12=0x00000001
       65525000	      6551	80001c3c	01906fb3	or	x31,x0,x25	  x0:0x00000000 x25:0x80001bb4 x31=0x80001bb4
       65535000	      6552	80001c40	01559093	slli	x1,x11,0x15	 x11:0x00000000  x1=0x00000000
       65545000	      6553	80001c44	01c8d833	srl	x16,x17,x28	 x17:0x00000000 x28:0x00000000 x16=0x00000000
       65555000	      6554	80001c48	03fa9a63	bne	x21,x31,80001c7c	 x21:0x80001b50 x31:0x80001bb4
       65565000	      6555	00000000	00000013	addi	x0,x0,0	  x0:0x00000000
       65575000	      6556	80001c78	00000013	addi	x0,x0,0	  x0:0x00000000
       65585000	      6557	80001c7c	41e5dd33	sra	x26,x11,x30	 x11:0x00000000 x30:0x7fffe4e7 x26=0x00000000
       65595000	      6558	80001c80	03ee0463	beq	x28,x30,80001ca8	 x28:0x00000000 x30:0x7fffe4e7
       65605000	      6559	80001c84	044e4263	blt	x28,x4,80001cc8	 x28:0x00000000  x4:0x80001bf0
       65615000	      6560	80001c88	0038c033	xor	x0,x17,x3	 x17:0x00000000  x3:0x80001c04
       65625000	      6561	80001c8c	00f96cb3	or	x25,x18,x15	 x18:0x80009f7c x15:0x80001bd0 x25=0x80009ffc
       65635000	      6562	80001c90	01629663	bne	x5,x22,80001c9c	  x5:0x80001b18 x22:0x80009fc4
       65645000	      6563	00000000	00000013	addi	x0,x0,0	  x0:0x00000000
       65655000	      6564	80001c98	00000013	addi	x0,x0,0	  x0:0x00000000
       65665000	      6565	80001c9c	01875263	bge	x14,x24,80001ca0	 x14:0x80001b6c x24:0xfebf7031
       65675000	      6566	80001ca0	008c7a33	and	x20,x24,x8	 x24:0xfebf7031  x8:0x80001bf4 x20=0x80001030
       65685000	      6567	80001ca4	01d2f833	and	x16,x5,x29	  x5:0x80001b18 x29:0x80001b40 x16=0x80001b00
       65695000	      6568	80001ca8	d047b313	sltiu	x6,x15,-764	 x15:0x80001bd0  x6=0x00000001
       65705000	      6569	80001cac	419488b3	sub	x17,x9,x25	  x9:0xe79c8d02 x25:0x80009ffc x17=0x679bed06
       65715000	      6570	80001cb0	9a05c013	xori	x0,x11,-1632	 x11:0x00000000
       65725000	      6571	80001cb4	03b05263	bge	x0,x27,80001cd8	  x0:0x00000000 x27:0xcf6bbc20
       65735000	      6572	00000000	00000013	addi	x0,x0,0	  x0:0x00000000
       65745000	      6573	80001cd4	00000013	addi	x0,x0,0	  x0:0x00000000
       65755000	      6574	80001cd8	00aa5cb3	srl	x25,x20,x10	 x20:0x80001030 x10:0x80001b28 x25=0x00800010
       65765000	      6575	80001cdc	0181fe63	bgeu	x3,x24,80001cf8	  x3:0x80001c04 x24:0xfebf7031
       65775000	      6576	80001ce0	00e841b3	xor	x3,x16,x14	 x16:0x80001b00 x14:0x80001b6c  x3=0x0000006c
       65785000	      6577	80001ce4	41d65193	srai	x3,x12,0x1d	 x12:0x00000001  x3=0x00000000
       65795000	      6578	80001ce8	00998bb3	add	x23,x19,x9	 x19:0x0000000b  x9:0xe79c8d02 x23=0xe79c8d0d
       65805000	      6579	80001cec	41440fb3	sub	x31,x8,x20	  x8:0x80001bf4 x20:0x80001030 x31=0x00000bc4
       65815000	      6580	80001cf0	00db4433	xor	x8,x22,x13	 x22:0x80009fc4 x13:0xfa6de000  x8=0x7a6d7fc4
       65825000	      6581	80001cf4	01d7f833	and	x16,x15,x29	 x15:0x80001bd0 x29:0x80001b40 x16=0x80001b40
       65835000	      6582	80001cf8	3637f413	andi	x8,x15,867	 x15:0x80001bd0  x8=0x00000340
       65845000	      6583	80001cfc	0017b4b3	sltu	x9,x15,x1	 x15:0x80001bd0  x1:0x00000000  x9=0x00000000
       65855000	      6584	80001d00	004d6263	bltu	x26,x4,80001d04	 x26:0x00000000  x4:0x80001bf0
       65865000	      6585	00000000	00000013	addi	x0,x0,0	  x0:0x00000000
       65875000	      6586	80001d00	00000013	addi	x0,x0,0	  x0:0x00000000
       65885000	      6587	80001d04	4cf96213	ori	x4,x18,1231	 x18:0x80009f7c  x4=0x80009fff
       65895000	      6588	80001d08	00000013	addi	x0,x0,0	  x0:0x00000000
       65905000	      6589	80001d0c	00920033	add	x0,x4,x9	  x4:0x80009fff  x9:0x00000000
       65915000	      6590	80001d10	549c8b93	addi	x23,x25,1353	 x25:0x00800010 x23=0x00800559
       65925000	      6591	80001d14	01b11713	slli	x14,x2,0x1b	  x2:0x80001da4 x14=0x20000000
       65935000	      6592	80001d18	6848b113	sltiu	x2,x17,1668	 x17:0x679bed06  x2=0x00000000
       65945000	      6593	80001d1c	baa9b493	sltiu	x9,x19,-1110	 x19:0x0000000b  x9=0x00000001
       65955000	      6594	80001d20	064ecc63	blt	x29,x4,80001d98	 x29:0x80001b40  x4:0x80009fff
       65965000	      6595	00000000	00000013	addi	x0,x0,0	  x0:0x00000000
       65975000	      6596	80001d94	00000013	addi	x0,x0,0	  x0:0x00000000
       65985000	      6597	80001d98	00b9d6b3	srl	x13,x19,x11	 x19:0x0000000b x11:0x00000000 x13=0x0000000b
       65995000	      6598	80001d9c	05a8c663	blt	x17,x26,80001de8	 x17:0x679bed06 x26:0x00000000
       66005000	      6599	80001da0	00000013	addi	x0,x0,0	  x0:0x00000000
       66015000	      6600	80001da4	01a87eb3	and	x29,x16,x26	 x16:0x80001b40 x26:0x00000000 x29=0x00000000
       66025000	      6601	80001da8	019a9db3	sll	x27,x21,x25	 x21:0x80001b50 x25:0x00800010 x27=0x1b500000
       66035000	      6602	80001dac	008858b3	srl	x17,x16,x8	 x16:0x80001b40  x8:0x00000340 x17=0x80001b40
       66045000	      6603	80001db0	03c24463	blt	x4,x28,80001dd8	  x4:0x80009fff x28:0x00000000
       66055000	      6604	00000000	00000013	addi	x0,x0,0	  x0:0x00000000
       66065000	      6605	80001dd4	00000013	addi	x0,x0,0	  x0:0x00000000
       66075000	      6606	80001dd8	6ffde593	ori	x11,x27,1791	 x27:0x1b500000 x11=0x1b5006ff
       66085000	      6607	80001ddc	01c014b3	sll	x9,x0,x28	  x0:0x00000000 x28:0x00000000  x9=0x00000000
       66095000	      6608	80001de0	15c0c737	lui	x14,0x15c0c	 x14=0x15c0c000
       66105000	      6609	80001de4	04474663	blt	x14,x4,80001e30	 x14:0x15c0c000  x4:0x80009fff
       66115000	      6610	80001de8	01022033	slt	x0,x4,x16	  x4:0x80009fff x16:0x80001b40
       66125000	      6611	80001dec	00f91db3	sll	x27,x18,x15	 x18:0x80009f7c x15:0x80001bd0 x27=0x9f7c0000
       66135000	      6612	80001df0	05bf6263	bltu	x30,x27,80001e34	 x30:0x7fffe4e7 x27:0x9f7c0000
       66145000	      6613	00000000	00000013	addi	x0,x0,0	  x0:0x00000000
       66155000	      6614	80001e30	00000013	addi	x0,x0,0	  x0:0x00000000
       66165000	      6615	80001e34	00491133	sll	x2,x18,x4	 x18:0x80009f7c  x4:0x80009fff  x2=0x00000000
       66175000	      6616	80001e38	4b2b2f93	slti	x31,x22,1202	 x22:0x80009fc4 x31=0x00000001
       66185000	      6617	80001e3c	001fb233	sltu	x4,x31,x1	 x31:0x00000001  x1:0x00000000  x4=0x00000000
       66195000	      6618	80001e40	025c4e63	blt	x24,x5,80001e7c	 x24:0xfebf7031  x5:0x80001b18
       66205000	      6619	80001e44	93f97713	andi	x14,x18,-1729	 x18:0x80009f7c x14=0x8000993c
       66215000	      6620	80001e48	b8720597	auipc	x11,0xb8720	 x11=0x38721e44
       66225000	      6621	80001e4c	402ad9b3	sra	x19,x21,x2	 x21:0x80001b50  x2:0x00000000 x19=0x80001b50
       66235000	      6622	80001e50	0104e863	bltu	x9,x16,80001e60	  x9:0x00000000 x16:0x80001b40
       66245000	      6623	00000000	00000013	addi	x0,x0,0	  x0:0x00000000
       66255000	      6624	80001e5c	00000013	addi	x0,x0,0	  x0:0x00000000
       66265000	      6625	80001e60	ff522313	slti	x6,x4,-11	  x4:0x00000000  x6=0x00000000
       66275000	      6626	80001e64	01aae8b3	or	x17,x21,x26	 x21:0x80001b50 x26:0x00000000 x17=0x80001b50
       66285000	      6627	80001e68	8b676697	auipc	x13,0x8b676	 x13=0x0b677e64
       66295000	      6628	80001e6c	01ba5c63	bge	x20,x27,80001e84	 x20:0x80001030 x27:0x9f7c0000
       66305000	      6629	80001e70	0594f263	bgeu	x9,x25,80001eb4	  x9:0x00000000 x25:0x00800010
       66315000	      6630	80001e74	01ebdfb3	srl	x31,x23,x30	 x23:0x00800559 x30:0x7fffe4e7 x31=0x0001000a
       66325000	      6631	80001e78	02385463	bge	x16,x3,80001ea0	 x16:0x80001b40  x3:0x00000000
       66335000	      6632	80001e7c	28dd8a37	lui	x20,0x28dd8	 x20=0x28dd8000
       66345000	      6633	80001e80	0667f713	andi	x14,x15,102	 x15:0x80001bd0 x14=0x00000040
       66355000	      6634	80001e84	011c8263	beq	x25,x17,80001e88	 x25:0x00800010 x17:0x80001b50
       66365000	      6635	80001e88	059bd263	bge	x23,x25,80001ecc	 x23:0x00800559 x25:0x00800010
       66375000	      6636	00000000	00000013	addi	x0,x0,0	  x0:0x00000000
       66385000	      6637	80001ec8	00000013	addi	x0,x0,0	  x0:0x00000000
       66395000	      6638	80001ecc	e32be993	ori	x19,x23,-462	 x23:0x00800559 x19=0xffffff7b
       66405000	      6639	80001ed0	e96ae713	ori	x14,x21,-362	 x21:0x80001b50 x14=0xffffffd6
       66415000	      6640	80001ed4	00e42633	slt	x12,x8,x14	  x8:0x00000340 x14:0xffffffd6 x12=0x00000000
       66425000	      6641	80001ed8	0ac9e393	ori	x7,x19,172	 x19:0xffffff7b  x7=0xffffffff
       66435000	      6642	80001edc	01565593	srli	x11,x12,0x15	 x12:0x00000000 x11=0x00000000
       66445000	      6643	80001ee0	007a5733	srl	x14,x20,x7	 x20:0x28dd8000  x7:0xffffffff x14=0x00000000
       66455000	      6644	80001ee4	cc5d7693	andi	x13,x26,-827	 x26:0x00000000 x13=0x00000000
       66465000	      6645	80001ee8	a6403213	sltiu	x4,x0,-1436	  x0:0x00000000  x4=0x00000001
       66475000	      6646	80001eec	0255f463	bgeu	x11,x5,80001f14	 x11:0x00000000  x5:0x80001b18
       66485000	      6647	80001ef0	0021d713	srli	x14,x3,0x2	  x3:0x00000000 x14=0x00000000
       66495000	      6648	80001ef4	c9b9b693	sltiu	x13,x19,-869	 x19:0xffffff7b x13=0x00000000
       66505000	      6649	80001ef8	7cf1ea13	ori	x20,x3,1999	  x3:0x00000000 x20=0x000007cf
       66515000	      6650	80001efc	01a11393	slli	x7,x2,0x1a	  x2:0x00000000  x7=0x00000000
       66525000	      6651	80001f00	5fdafb93	andi	x23,x21,1533	 x21:0x80001b50 x23=0x00000150
       66535000	      6652	80001f04	41b88f33	sub	x30,x17,x27	 x17:0x80001b50 x27:0x9f7c0000 x30=0xe0841b50
       66545000	      6653	80001f08	04b86663	bltu	x16,x11,80001f54	 x16:0x80001b40 x11:0x00000000
       66555000	      6654	80001f0c	40510eb3	sub	x29,x2,x5	  x2:0x00000000  x5:0x80001b18 x29=0x7fffe4e8
       66565000	      6655	80001f10	99528693	addi	x13,x5,-1643	  x5:0x80001b18 x13=0x800014ad
       66575000	      6656	80001f14	01ad5513	srli	x10,x26,0x1a	 x26:0x00000000 x10=0x00000000
       66585000	      6657	80001f18	ba49e1b7	lui	x3,0xba49e	  x3=0xba49e000
       66595000	      6658	80001f1c	fba9f393	andi	x7,x19,-70	 x19:0xffffff7b  x7=0xffffff3a
       66605000	      6659	80001f20	007ddfb3	srl	x31,x27,x7	 x27:0x9f7c0000  x7:0xffffff3a x31=0x00000027
       66615000	      6660	80001f24	89066313	ori	x6,x12,-1904	 x12:0x00000000  x6=0xfffff890
       66625000	      6661	80001f28	00000013	addi	x0,x0,0	  x0:0x00000000
       66635000	      6662	80001f2c	b442b713	sltiu	x14,x5,-1212	  x5:0x80001b18 x14=0x00000001
       66645000	      6663	80001f30	00ee58b3	srl	x17,x28,x14	 x28:0x00000000 x14:0x00000001 x17=0x00000000
       66655000	      6664	80001f34	41c5deb3	sra	x29,x11,x28	 x11:0x00000000 x28:0x00000000 x29=0x00000000
       66665000	      6665	80001f38	03b99263	bne	x19,x27,80001f5c	 x19:0xffffff7b x27:0x9f7c0000
       66675000	      6666	00000000	00000013	addi	x0,x0,0	  x0:0x00000000
       66685000	      6667	80001f58	00000013	addi	x0,x0,0	  x0:0x00000000
       66695000	      6668	80001f5c	af4b3b93	sltiu	x23,x22,-1292	 x22:0x80009fc4 x23=0x00000001
       66705000	      6669	80001f60	058c4863	blt	x24,x24,80001fb0	 x24:0xfebf7031 x24:0xfebf7031
       66715000	      6670	80001f64	95c8d417	auipc	x8,0x95c8d	  x8=0x15c8ef60
       66725000	      6671	80001f68	00a01e33	sll	x28,x0,x10	  x0:0x00000000 x10:0x00000000 x28=0x00000000
       66735000	      6672	80001f6c	010f49b3	xor	x19,x30,x16	 x30:0xe0841b50 x16:0x80001b40 x19=0x60840010
       66745000	      6673	80001f70	00000013	addi	x0,x0,0	  x0:0x00000000
       66755000	      6674	80001f74	00ab9993	slli	x19,x23,0xa	 x23:0x00000001 x19=0x00000400
       66765000	      6675	80001f78	40f68533	sub	x10,x13,x15	 x13:0x800014ad x15:0x80001bd0 x10=0xfffff8dd
       66775000	      6676	80001f7c	01f1dc93	srli	x25,x3,0x1f	  x3:0xba49e000 x25=0x00000001
       66785000	      6677	80001f80	004f7533	and	x10,x30,x4	 x30:0xe0841b50  x4:0x00000001 x10=0x00000000
       66795000	      6678	80001f84	012b1663	bne	x22,x18,80001f90	 x22:0x80009fc4 x18:0x80009f7c
       66805000	      6679	00000000	00000013	addi	x0,x0,0	  x0:0x00000000
       66815000	      6680	80001f8c	00000013	addi	x0,x0,0	  x0:0x00000000
       66825000	      6681	80001f90	01049413	slli	x8,x9,0x10	  x9:0x00000000  x8=0x00000000
       66835000	      6682	80001f94	04ac7063	bgeu	x24,x10,80001fd4	 x24:0xfebf7031 x10:0x00000000
       66845000	      6683	00000000	00000013	addi	x0,x0,0	  x0:0x00000000
       66855000	      6684	80001fd0	00000013	addi	x0,x0,0	  x0:0x00000000
       66865000	      6685	80001fd4	40775513	srai	x10,x14,0x7	 x14:0x00000001 x10=0x00000000
       66875000	      6686	80001fd8	04504263	blt	x0,x5,8000201c	  x0:0x00000000  x5:0x80001b18
       66885000	      6687	80001fdc	01ba89b3	add	x19,x21,x27	 x21:0x80001b50 x27:0x9f7c0000 x19=0x1f7c1b50
       66895000	      6688	80001fe0	15c10c93	addi	x25,x2,348	  x2:0x00000000 x25=0x0000015c
       66905000	      6689	80001fe4	49f3d4b7	lui	x9,0x49f3d	  x9=0x49f3d000
       66915000	      6690	80001fe8	4301c293	xori	x5,x3,1072	  x3:0xba49e000  x5=0xba49e430
       66925000	      6691	80001fec	011398b3	sll	x17,x7,x17	  x7:0xffffff3a x17:0x00000000 x17=0xffffff3a
       66935000	      6692	80001ff0	017d8263	beq	x27,x23,80001ff4	 x27:0x9f7c0000 x23:0x00000001
       66945000	      6693	80001ff4	c7786e93	ori	x29,x16,-905	 x16:0x80001b40 x29=0xffffff77
       66955000	      6694	80001ff8	00000013	addi	x0,x0,0	  x0:0x00000000
       66965000	      6695	80001ffc	0462c663	blt	x5,x6,80002048	  x5:0xba49e430  x6:0xfffff890
       66975000	      6696	00000000	00000013	addi	x0,x0,0	  x0:0x00000000
       66985000	      6697	80002044	00000013	addi	x0,x0,0	  x0:0x00000000
       66995000	      6698	80002048	02cce263	bltu	x25,x12,8000206c	 x25:0x0000015c x12:0x00000000
       67005000	      6699	8000204c	0369de63	bge	x19,x22,80002088	 x19:0x1f7c1b50 x22:0x80009fc4
       67015000	      6700	00000000	00000013	addi	x0,x0,0	  x0:0x00000000
       67025000	      6701	80002084	00000013	addi	x0,x0,0	  x0:0x00000000
       67035000	      6702	80002088	4001d693	srai	x13,x3,0x0	  x3:0xba49e000 x13=0xba49e000
       67045000	      6703	8000208c	17551eb7	lui	x29,0x17551	 x29=0x17551000
       67055000	      6704	80002090	00b49e13	slli	x28,x9,0xb	  x9:0x49f3d000 x28=0x9e800000
       67065000	      6705	80002094	5dfac4b7	lui	x9,0x5dfac	  x9=0x5dfac000
       67075000	      6706	80002098	2a046f93	ori	x31,x8,672	  x8:0x00000000 x31=0x000002a0
       67085000	      6707	8000209c	89e37a93	andi	x21,x6,-1890	  x6:0xfffff890 x21=0xfffff890
       67095000	      6708	800020a0	41485d33	sra	x26,x16,x20	 x16:0x80001b40 x20:0x000007cf x26=0xffff0000
       67105000	      6709	800020a4	03761c63	bne	x12,x23,800020dc	 x12:0x00000000 x23:0x00000001
       67115000	      6710	00000000	00000013	addi	x0,x0,0	  x0:0x00000000
       67125000	      6711	800020d8	00000013	addi	x0,x0,0	  x0:0x00000000
       67135000	      6712	800020dc	41688433	sub	x8,x17,x22	 x17:0xffffff3a x22:0x80009fc4  x8=0x7fff5f76
       67145000	      6713	800020e0	dcd23e13	sltiu	x28,x4,-563	  x4:0x00000001 x28=0x00000001
       67155000	      6714	800020e4	02189463	bne	x17,x1,8000210c	 x17:0xffffff3a  x1:0x00000000
       67165000	      6715	00000000	00000013	addi	x0,x0,0	  x0:0x00000000
       67175000	      6716	80002108	00000013	addi	x0,x0,0	  x0:0x00000000
       67185000	      6717	8000210c	2ecb4f93	xori	x31,x22,748	 x22:0x80009fc4 x31=0x80009d28
       67195000	      6718	80002110	02754863	blt	x10,x7,80002140	 x10:0x00000000  x7:0xffffff3a
       67205000	      6719	80002114	0b7b33b7	lui	x7,0xb7b3	  x7=0x0b7b3000
       67215000	      6720	80002118	04275263	bge	x14,x2,8000215c	 x14:0x00000001  x2:0x00000000
       67225000	      6721	00000000	00000013	addi	x0,x0,0	  x0:0x00000000
       67235000	      6722	80002158	00000013	addi	x0,x0,0	  x0:0x00000000
       67245000	      6723	8000215c	01a1bd33	sltu	x26,x3,x26	  x3:0xba49e000 x26:0xffff0000 x26=0x00000001
       67255000	      6724	80002160	01e94263	blt	x18,x30,80002164	 x18:0x80009f7c x30:0xe0841b50
       67265000	      6725	00000000	00000013	addi	x0,x0,0	  x0:0x00000000
       67275000	      6726	80002160	00000013	addi	x0,x0,0	  x0:0x00000000
       67285000	      6727	80002164	afa9eb93	ori	x23,x19,-1286	 x19:0x1f7c1b50 x23=0xfffffbfa
       67295000	      6728	80002168	a6ca6a93	ori	x21,x20,-1428	 x20:0x000007cf x21=0xffffffef
       67305000	      6729	8000216c	007044b3	xor	x9,x0,x7	  x0:0x00000000  x7:0x0b7b3000  x9=0x0b7b3000
       67315000	      6730	80002170	078ed863	bge	x29,x24,800021e0	 x29:0x17551000 x24:0xfebf7031
       67325000	      6731	00000000	00000013	addi	x0,x0,0	  x0:0x00000000
       67335000	      6732	800021dc	00000013	addi	x0,x0,0	  x0:0x00000000
       67345000	      6733	800021e0	c3945217	auipc	x4,0xc3945	  x4=0x439471dc
       67355000	      6734	800021e4	00492f03	lw	x30,4(x18)	 x18:0x80009f7c x30=0x800001ec PA:0x80009f80
       67365000	      6735	800021e8	01f3b333	sltu	x6,x7,x31	  x7:0x0b7b3000 x31:0x80009d28  x6=0x00000001
       67375000	      6736	800021ec	00000013	addi	x0,x0,0	  x0:0x00000000
       67385000	      6737	800021f0	85c9ad13	slti	x26,x19,-1956	 x19:0x1f7c1b50 x26=0x00000000
       67395000	      6738	800021f4	00890913	addi	x18,x18,8	 x18:0x80009f7c x18=0x80009f84
       67405000	      6739	800021f8	40625113	srai	x2,x4,0x6	  x4:0x439471dc  x2=0x010e51c7
       67415000	      6740	800021fc	001f0693	addi	x13,x30,1	 x30:0x800001ec x13=0x800001ed
       67425000	      6741	80002200	000686e7	jalr	x13,x13,0	 x13:0x800001ed x13=0x80002200
       67435000	      6742	00000000	00000013	addi	x0,x0,0	  x0:0x00000000
       67445000	      6743	800001ec	00000013	addi	x0,x0,0	  x0:0x00000000
       67455000	      6744	800001f0	a9da6e37	lui	x28,0xa9da6	 x28=0xa9da6000
       67465000	      6745	800001f4	17672593	slti	x11,x14,374	 x14:0x00000001 x11=0x00000001
       67475000	      6746	800001f8	01000263	beq	x0,x16,800001fc	  x0:0x00000000 x16:0x80001b40
       67485000	      6747	800001fc	005b7d33	and	x26,x22,x5	 x22:0x80009fc4  x5:0xba49e430 x26=0x80008400
       67495000	      6748	80000200	ff3a2313	slti	x6,x20,-13	 x20:0x000007cf  x6=0x00000000
       67505000	      6749	80000204	01c655b3	srl	x11,x12,x28	 x12:0x00000000 x28:0xa9da6000 x11=0x00000000
       67515000	      6750	80000208	c479a813	slti	x16,x19,-953	 x19:0x1f7c1b50 x16=0x00000000
       67525000	      6751	8000020c	023c8663	beq	x25,x3,80000238	 x25:0x0000015c  x3:0xba49e000
       67535000	      6752	80000210	03486463	bltu	x16,x20,80000238	 x16:0x00000000 x20:0x000007cf
       67545000	      6753	00000000	00000013	addi	x0,x0,0	  x0:0x00000000
       67555000	      6754	80000234	00000013	addi	x0,x0,0	  x0:0x00000000
       67565000	      6755	80000238	0184a2b3	slt	x5,x9,x24	  x9:0x0b7b3000 x24:0xfebf7031  x5=0x00000000
       67575000	      6756	8000023c	00000c17	auipc	x24,0x0	 x24=0x80000238
       67585000	      6757	80000240	00cc0c13	addi	x24,x24,12	 x24:0x80000238 x24=0x80000244
       67595000	      6758	80000244	000c0067	jalr	x0,x24,0	 x24:0x80000244
       67605000	      6759	00000000	00000013	addi	x0,x0,0	  x0:0x00000000
       67615000	      6760	80000244	00000013	addi	x0,x0,0	  x0:0x00000000
       67625000	      6761	80000248	00100193	addi	x3,x0,1	  x0:0x00000000  x3=0x00000001
       67635000	      6762	8000024c	00000073	ecall	
       67645000	      6763	80000250	01249613	slli	x12,x9,0x12	  x9:0x0b7b3000 x12=0xc0000000
