		Time			Cycle	PC		Insn	Decoded instruction	Register and memory contents
          65000	         5	80000004	00000293	addi	x5,x0,0	  x0:0x00000000  x5=0x00000000
          75000	         6	80000008	00000313	addi	x6,x0,0	  x0:0x00000000  x6=0x00000000
          85000	         7	8000000c	00628263	beq	x5,x6,80000010	  x5:0x00000000  x6:0x00000000
          95000	         8	00000000	00000013	addi	x0,x0,0	  x0:0x00000000
         105000	         9	8000000c	00000013	addi	x0,x0,0	  x0:0x00000000
         115000	        10	80000010	00000117	auipc	x2,0x0	  x2=0x8000000c
         125000	        11	80000014	00c10113	addi	x2,x2,12	  x2:0x8000000c  x2=0x80000018
         135000	        12	80000018	00010067	jalr	x0,x2,0	  x2:0x80000018
         145000	        13	00000000	00000013	addi	x0,x0,0	  x0:0x00000000
         155000	        14	80000018	00000013	addi	x0,x0,0	  x0:0x00000000
         165000	        15	8000001c	40000e37	lui	x28,0x40000	 x28=0x40000000
         175000	        16	80000020	100e0e13	addi	x28,x28,256	 x28:0x40000000 x28=0x40000100
         185000	        17	80000024	00000013	addi	x0,x0,0	  x0:0x00000000
         195000	        18	80000028	0000a797	auipc	x15,0xa	 x15=0x8000a024
         205000	        19	8000002c	fa078793	addi	x15,x15,-96	 x15:0x8000a024 x15=0x80009fc4
         215000	        20	80000030	00004e17	auipc	x28,0x4	 x28=0x8000402c
         225000	        21	80000034	55ce0e13	addi	x28,x28,1372	 x28:0x8000402c x28=0x80004588
         235000	        22	80000038	000e6e13	ori	x28,x28,0	 x28:0x80004588 x28=0x80004588
         245000	        23	8000003c	00000013	addi	x0,x0,0	  x0:0x00000000
         255000	        24	80000040	00000e17	auipc	x28,0x0	 x28=0x8000003c
         265000	        25	80000044	020e0e13	addi	x28,x28,32	 x28:0x8000003c x28=0x8000005c
         275000	        26	80000048	00000013	addi	x0,x0,0	  x0:0x00000000
         285000	        27	8000004c	00000013	addi	x0,x0,0	  x0:0x00000000
         295000	        28	80000050	00002e37	lui	x28,0x2	 x28=0x00002000
         305000	        29	80000054	800e0e13	addi	x28,x28,-2048	 x28:0x00002000 x28=0x00001800
         315000	        30	80000058	00000013	addi	x0,x0,0	  x0:0x00000000
         325000	        31	8000005c	00000013	addi	x0,x0,0	  x0:0x00000000
         335000	        32	80000060	00500013	addi	x0,x0,5	  x0:0x00000000
         345000	        33	80000064	6f5980b7	lui	x1,0x6f598	  x1=0x6f598000
         355000	        34	80000068	00c08093	addi	x1,x1,12	  x1:0x6f598000  x1=0x6f59800c
         365000	        35	8000006c	bd233137	lui	x2,0xbd233	  x2=0xbd233000
         375000	        36	80000070	e4710113	addi	x2,x2,-441	  x2:0xbd233000  x2=0xbd232e47
         385000	        37	80000074	fb4591b7	lui	x3,0xfb459	  x3=0xfb459000
         395000	        38	80000078	5dc18193	addi	x3,x3,1500	  x3:0xfb459000  x3=0xfb4595dc
         405000	        39	8000007c	00000213	addi	x4,x0,0	  x0:0x00000000  x4=0x00000000
         415000	        40	80000080	00e00293	addi	x5,x0,14	  x0:0x00000000  x5=0x0000000e
         425000	        41	80000084	4cec6337	lui	x6,0x4cec6	  x6=0x4cec6000
         435000	        42	80000088	64230313	addi	x6,x6,1602	  x6:0x4cec6000  x6=0x4cec6642
         445000	        43	8000008c	800003b7	lui	x7,0x80000	  x7=0x80000000
         455000	        44	80000090	80000437	lui	x8,0x80000	  x8=0x80000000
         465000	        45	80000094	800004b7	lui	x9,0x80000	  x9=0x80000000
         475000	        46	80000098	f9b62537	lui	x10,0xf9b62	 x10=0xf9b62000
         485000	        47	8000009c	10850513	addi	x10,x10,264	 x10:0xf9b62000 x10=0xf9b62108
         495000	        48	800000a0	024b75b7	lui	x11,0x24b7	 x11=0x024b7000
         505000	        49	800000a4	5cc58593	addi	x11,x11,1484	 x11:0x024b7000 x11=0x024b75cc
         515000	        50	800000a8	fe68f637	lui	x12,0xfe68f	 x12=0xfe68f000
         525000	        51	800000ac	edd60613	addi	x12,x12,-291	 x12:0xfe68f000 x12=0xfe68eedd
         535000	        52	800000b0	f89406b7	lui	x13,0xf8940	 x13=0xf8940000
         545000	        53	800000b4	51b68693	addi	x13,x13,1307	 x13:0xf8940000 x13=0xf894051b
         555000	        54	800000b8	80000737	lui	x14,0x80000	 x14=0x80000000
         565000	        55	800000bc	fc3b1837	lui	x16,0xfc3b1	 x16=0xfc3b1000
         575000	        56	800000c0	76b80813	addi	x16,x16,1899	 x16:0xfc3b1000 x16=0xfc3b176b
         585000	        57	800000c4	fe72b8b7	lui	x17,0xfe72b	 x17=0xfe72b000
         595000	        58	800000c8	2e788893	addi	x17,x17,743	 x17:0xfe72b000 x17=0xfe72b2e7
         605000	        59	800000cc	80000937	lui	x18,0x80000	 x18=0x80000000
         615000	        60	800000d0	027579b7	lui	x19,0x2757	 x19=0x02757000
         625000	        61	800000d4	5e398993	addi	x19,x19,1507	 x19:0x02757000 x19=0x027575e3
         635000	        62	800000d8	f0dbaa37	lui	x20,0xf0dba	 x20=0xf0dba000
         645000	        63	800000dc	27ca0a13	addi	x20,x20,636	 x20:0xf0dba000 x20=0xf0dba27c
         655000	        64	800000e0	00c00a93	addi	x21,x0,12	  x0:0x00000000 x21=0x0000000c
         665000	        65	800000e4	a0f0ab37	lui	x22,0xa0f0a	 x22=0xa0f0a000
         675000	        66	800000e8	b88b0b13	addi	x22,x22,-1144	 x22:0xa0f0a000 x22=0xa0f09b88
         685000	        67	800000ec	00000b93	addi	x23,x0,0	  x0:0x00000000 x23=0x00000000
         695000	        68	800000f0	253a8c37	lui	x24,0x253a8	 x24=0x253a8000
         705000	        69	800000f4	ca6c0c13	addi	x24,x24,-858	 x24:0x253a8000 x24=0x253a7ca6
         715000	        70	800000f8	9711acb7	lui	x25,0x9711a	 x25=0x9711a000
         725000	        71	800000fc	1e8c8c93	addi	x25,x25,488	 x25:0x9711a000 x25=0x9711a1e8
         735000	        72	80000100	00200d13	addi	x26,x0,2	  x0:0x00000000 x26=0x00000002
         745000	        73	80000104	fc04fdb7	lui	x27,0xfc04f	 x27=0xfc04f000
         755000	        74	80000108	31fd8d93	addi	x27,x27,799	 x27:0xfc04f000 x27=0xfc04f31f
         765000	        75	8000010c	00100e13	addi	x28,x0,1	  x0:0x00000000 x28=0x00000001
         775000	        76	80000110	00000e93	addi	x29,x0,0	  x0:0x00000000 x29=0x00000000
         785000	        77	80000114	fc75bf37	lui	x30,0xfc75b	 x30=0xfc75b000
         795000	        78	80000118	752f0f13	addi	x30,x30,1874	 x30:0xfc75b000 x30=0xfc75b752
         805000	        79	8000011c	0000af97	auipc	x31,0xa	 x31=0x8000a118
         815000	        80	80000120	e6cf8f93	addi	x31,x31,-404	 x31:0x8000a118 x31=0x80009f84
         825000	        81	80000124	00002917	auipc	x18,0x2	 x18=0x80002120
         835000	        82	80000128	9d090913	addi	x18,x18,-1584	 x18:0x80002120 x18=0x80001af0
         845000	        83	8000012c	01de24b3	slt	x9,x28,x29	 x28:0x00000001 x29:0x00000000  x9=0x00000000
         855000	        84	80000130	01d3d013	srli	x0,x7,0x1d	  x7:0x80000000
         865000	        85	80000134	d7290913	addi	x18,x18,-654	 x18:0x80001af0 x18=0x80001862
         875000	        86	80000138	0114a533	slt	x10,x9,x17	  x9:0x00000000 x17:0xfe72b2e7 x10=0x00000000
         885000	        87	8000013c	00e64333	xor	x6,x12,x14	 x12:0xfe68eedd x14:0x80000000  x6=0x7e68eedd
         895000	        88	80000140	00bd38b3	sltu	x17,x26,x11	 x26:0x00000002 x11:0x024b75cc x17=0x00000001
         905000	        89	80000144	410cd813	srai	x16,x25,0x10	 x25:0x9711a1e8 x16=0xffff9711
         915000	        90	80000148	411458b3	sra	x17,x8,x17	  x8:0x80000000 x17:0x00000001 x17=0xc0000000
         925000	        91	8000014c	41b35333	sra	x6,x6,x27	  x6:0x7e68eedd x27:0xfc04f31f  x6=0x00000000
         935000	        92	80000150	8318a713	slti	x14,x17,-1999	 x17:0xc0000000 x14=0x00000001
         945000	        93	80000154	28f908e7	jalr	x17,x18,655	 x18:0x80001862 x17=0x80000154
         955000	        94	00000000	00000013	addi	x0,x0,0	  x0:0x00000000
         965000	        95	80001af0	00000013	addi	x0,x0,0	  x0:0x00000000
         975000	        96	80001af4	fe0f8f93	addi	x31,x31,-32	 x31:0x80009f84 x31=0x80009f64
         985000	        97	80001af8	00aa0b33	add	x22,x20,x10	 x20:0xf0dba27c x10:0x00000000 x22=0xf0dba27c
         995000	        98	80001afc	001b52b3	srl	x5,x22,x1	 x22:0xf0dba27c  x1:0x6f59800c  x5=0x000f0dba
        1005000	        99	80001b00	e6270c13	addi	x24,x14,-414	 x14:0x00000001 x24=0xfffffe63
        1015000	       100	80001b04	00000013	addi	x0,x0,0	  x0:0x00000000
        1025000	       101	80001b08	011fa223	sw	x17,4(x31)	 x31:0x80009f64 x17:0x80000154 PA:0x80009f68
        1035000	       102	80001b0c	6179c293	xori	x5,x19,1559	 x19:0x027575e3  x5=0x027573f4
        1045000	       103	80001b10	05c008ef	jal	x17,80001b10	 x17=0x80001b10
        1055000	       104	00000000	00000013	addi	x0,x0,0	  x0:0x00000000
        1065000	       105	80001b68	00000013	addi	x0,x0,0	  x0:0x00000000
        1075000	       106	80001b6c	fe1ff36f	jal	x6,80001b6c	  x6=0x80001b6c
        1085000	       107	00000000	00000013	addi	x0,x0,0	  x0:0x00000000
        1095000	       108	80001b48	00000013	addi	x0,x0,0	  x0:0x00000000
        1105000	       109	80001b4c	fd9ff0ef	jal	x1,80001b4c	  x1=0x80001b4c
        1115000	       110	00000000	00000013	addi	x0,x0,0	  x0:0x00000000
        1125000	       111	80001b20	00000013	addi	x0,x0,0	  x0:0x00000000
        1135000	       112	80001b24	00400bef	jal	x23,80001b24	 x23=0x80001b24
        1145000	       113	00000000	00000013	addi	x0,x0,0	  x0:0x00000000
        1155000	       114	80001b24	00000013	addi	x0,x0,0	  x0:0x00000000
        1165000	       115	80001b28	00c002ef	jal	x5,80001b28	  x5=0x80001b28
        1175000	       116	00000000	00000013	addi	x0,x0,0	  x0:0x00000000
        1185000	       117	80001b30	00000013	addi	x0,x0,0	  x0:0x00000000
        1195000	       118	80001b34	ffdff1ef	jal	x3,80001b34	  x3=0x80001b34
        1205000	       119	00000000	00000013	addi	x0,x0,0	  x0:0x00000000
        1215000	       120	80001b2c	00000013	addi	x0,x0,0	  x0:0x00000000
        1225000	       121	80001b30	02c000ef	jal	x1,80001b30	  x1=0x80001b30
        1235000	       122	00000000	00000013	addi	x0,x0,0	  x0:0x00000000
        1245000	       123	80001b58	00000013	addi	x0,x0,0	  x0:0x00000000
        1255000	       124	80001b5c	fc5ff0ef	jal	x1,80001b5c	  x1=0x80001b5c
        1265000	       125	00000000	00000013	addi	x0,x0,0	  x0:0x00000000
        1275000	       126	80001b1c	00000013	addi	x0,x0,0	  x0:0x00000000
        1285000	       127	80001b20	044000ef	jal	x1,80001b20	  x1=0x80001b20
        1295000	       128	00000000	00000013	addi	x0,x0,0	  x0:0x00000000
        1305000	       129	80001b60	00000013	addi	x0,x0,0	  x0:0x00000000
        1315000	       130	80001b64	00c0036f	jal	x6,80001b64	  x6=0x80001b64
        1325000	       131	00000000	00000013	addi	x0,x0,0	  x0:0x00000000
        1335000	       132	80001b6c	00000013	addi	x0,x0,0	  x0:0x00000000
        1345000	       133	80001b70	fc9ff0ef	jal	x1,80001b70	  x1=0x80001b70
        1355000	       134	00000000	00000013	addi	x0,x0,0	  x0:0x00000000
        1365000	       135	80001b34	00000013	addi	x0,x0,0	  x0:0x00000000
        1375000	       136	80001b38	040000ef	jal	x1,80001b38	  x1=0x80001b38
        1385000	       137	00000000	00000013	addi	x0,x0,0	  x0:0x00000000
        1395000	       138	80001b74	00000013	addi	x0,x0,0	  x0:0x00000000
        1405000	       139	80001b78	fe1ff0ef	jal	x1,80001b78	  x1=0x80001b78
        1415000	       140	00000000	00000013	addi	x0,x0,0	  x0:0x00000000
        1425000	       141	80001b54	00000013	addi	x0,x0,0	  x0:0x00000000
        1435000	       142	80001b58	fedff0ef	jal	x1,80001b58	  x1=0x80001b58
        1445000	       143	00000000	00000013	addi	x0,x0,0	  x0:0x00000000
        1455000	       144	80001b40	00000013	addi	x0,x0,0	  x0:0x00000000
        1465000	       145	80001b44	fd1ff0ef	jal	x1,80001b44	  x1=0x80001b44
        1475000	       146	00000000	00000013	addi	x0,x0,0	  x0:0x00000000
        1485000	       147	80001b10	00000013	addi	x0,x0,0	  x0:0x00000000
        1495000	       148	80001b14	008000ef	jal	x1,80001b14	  x1=0x80001b14
        1505000	       149	00000000	00000013	addi	x0,x0,0	  x0:0x00000000
        1515000	       150	80001b18	00000013	addi	x0,x0,0	  x0:0x00000000
        1525000	       151	80001b1c	ffdff36f	jal	x6,80001b1c	  x6=0x80001b1c
        1535000	       152	00000000	00000013	addi	x0,x0,0	  x0:0x00000000
        1545000	       153	80001b14	00000013	addi	x0,x0,0	  x0:0x00000000
        1555000	       154	80001b18	05c002ef	jal	x5,80001b18	  x5=0x80001b18
        1565000	       155	00000000	00000013	addi	x0,x0,0	  x0:0x00000000
        1575000	       156	80001b70	00000013	addi	x0,x0,0	  x0:0x00000000
        1585000	       157	80001b74	fcdff36f	jal	x6,80001b74	  x6=0x80001b74
        1595000	       158	00000000	00000013	addi	x0,x0,0	  x0:0x00000000
        1605000	       159	80001b3c	00000013	addi	x0,x0,0	  x0:0x00000000
        1615000	       160	80001b40	014001ef	jal	x3,80001b40	  x3=0x80001b40
        1625000	       161	00000000	00000013	addi	x0,x0,0	  x0:0x00000000
        1635000	       162	80001b50	00000013	addi	x0,x0,0	  x0:0x00000000
        1645000	       163	80001b54	fd9ff56f	jal	x10,80001b54	 x10=0x80001b54
        1655000	       164	00000000	00000013	addi	x0,x0,0	  x0:0x00000000
        1665000	       165	80001b28	00000013	addi	x0,x0,0	  x0:0x00000000
        1675000	       166	80001b2c	01c000ef	jal	x1,80001b2c	  x1=0x80001b2c
        1685000	       167	00000000	00000013	addi	x0,x0,0	  x0:0x00000000
        1695000	       168	80001b44	00000013	addi	x0,x0,0	  x0:0x00000000
        1705000	       169	80001b48	008002ef	jal	x5,80001b48	  x5=0x80001b48
        1715000	       170	00000000	00000013	addi	x0,x0,0	  x0:0x00000000
        1725000	       171	80001b4c	00000013	addi	x0,x0,0	  x0:0x00000000
        1735000	       172	80001b50	010000ef	jal	x1,80001b50	  x1=0x80001b50
        1745000	       173	00000000	00000013	addi	x0,x0,0	  x0:0x00000000
        1755000	       174	80001b5c	00000013	addi	x0,x0,0	  x0:0x00000000
        1765000	       175	80001b60	fddff26f	jal	x4,80001b60	  x4=0x80001b60
        1775000	       176	00000000	00000013	addi	x0,x0,0	  x0:0x00000000
        1785000	       177	80001b38	00000013	addi	x0,x0,0	  x0:0x00000000
        1795000	       178	80001b3c	02c000ef	jal	x1,80001b3c	  x1=0x80001b3c
        1805000	       179	00000000	00000013	addi	x0,x0,0	  x0:0x00000000
        1815000	       180	80001b64	00000013	addi	x0,x0,0	  x0:0x00000000
        1825000	       181	80001b68	014000ef	jal	x1,80001b68	  x1=0x80001b68
        1835000	       182	00000000	00000013	addi	x0,x0,0	  x0:0x00000000
        1845000	       183	80001b78	00000013	addi	x0,x0,0	  x0:0x00000000
        1855000	       184	80001b7c	f022c393	xori	x7,x5,-254	  x5:0x80001b48  x7=0x7fffe44a
        1865000	       185	80001b80	038008ef	jal	x17,80001b80	 x17=0x80001b80
        1875000	       186	00000000	00000013	addi	x0,x0,0	  x0:0x00000000
        1885000	       187	80001bb4	00000013	addi	x0,x0,0	  x0:0x00000000
        1895000	       188	80001bb8	ff9ff0ef	jal	x1,80001bb8	  x1=0x80001bb8
        1905000	       189	00000000	00000013	addi	x0,x0,0	  x0:0x00000000
        1915000	       190	80001bac	00000013	addi	x0,x0,0	  x0:0x00000000
        1925000	       191	80001bb0	0140086f	jal	x16,80001bb0	 x16=0x80001bb0
        1935000	       192	00000000	00000013	addi	x0,x0,0	  x0:0x00000000
        1945000	       193	80001bc0	00000013	addi	x0,x0,0	  x0:0x00000000
        1955000	       194	80001bc4	fc9ff0ef	jal	x1,80001bc4	  x1=0x80001bc4
        1965000	       195	00000000	00000013	addi	x0,x0,0	  x0:0x00000000
        1975000	       196	80001b88	00000013	addi	x0,x0,0	  x0:0x00000000
        1985000	       197	80001b8c	020000ef	jal	x1,80001b8c	  x1=0x80001b8c
        1995000	       198	00000000	00000013	addi	x0,x0,0	  x0:0x00000000
        2005000	       199	80001ba8	00000013	addi	x0,x0,0	  x0:0x00000000
        2015000	       200	80001bac	ff9ff0ef	jal	x1,80001bac	  x1=0x80001bac
        2025000	       201	00000000	00000013	addi	x0,x0,0	  x0:0x00000000
        2035000	       202	80001ba0	00000013	addi	x0,x0,0	  x0:0x00000000
        2045000	       203	80001ba4	ffdff0ef	jal	x1,80001ba4	  x1=0x80001ba4
        2055000	       204	00000000	00000013	addi	x0,x0,0	  x0:0x00000000
        2065000	       205	80001b9c	00000013	addi	x0,x0,0	  x0:0x00000000
        2075000	       206	80001ba0	ff5ff36f	jal	x6,80001ba0	  x6=0x80001ba0
        2085000	       207	00000000	00000013	addi	x0,x0,0	  x0:0x00000000
        2095000	       208	80001b90	00000013	addi	x0,x0,0	  x0:0x00000000
        2105000	       209	80001b94	ff5ff2ef	jal	x5,80001b94	  x5=0x80001b94
        2115000	       210	00000000	00000013	addi	x0,x0,0	  x0:0x00000000
        2125000	       211	80001b84	00000013	addi	x0,x0,0	  x0:0x00000000
        2135000	       212	80001b88	0140036f	jal	x6,80001b88	  x6=0x80001b88
        2145000	       213	00000000	00000013	addi	x0,x0,0	  x0:0x00000000
        2155000	       214	80001b98	00000013	addi	x0,x0,0	  x0:0x00000000
        2165000	       215	80001b9c	02c0036f	jal	x6,80001b9c	  x6=0x80001b9c
        2175000	       216	00000000	00000013	addi	x0,x0,0	  x0:0x00000000
        2185000	       217	80001bc4	00000013	addi	x0,x0,0	  x0:0x00000000
        2195000	       218	80001bc8	fd1ff0ef	jal	x1,80001bc8	  x1=0x80001bc8
        2205000	       219	00000000	00000013	addi	x0,x0,0	  x0:0x00000000
        2215000	       220	80001b94	00000013	addi	x0,x0,0	  x0:0x00000000
        2225000	       221	80001b98	01c000ef	jal	x1,80001b98	  x1=0x80001b98
        2235000	       222	00000000	00000013	addi	x0,x0,0	  x0:0x00000000
        2245000	       223	80001bb0	00000013	addi	x0,x0,0	  x0:0x00000000
        2255000	       224	80001bb4	008000ef	jal	x1,80001bb4	  x1=0x80001bb4
        2265000	       225	00000000	00000013	addi	x0,x0,0	  x0:0x00000000
        2275000	       226	80001bb8	00000013	addi	x0,x0,0	  x0:0x00000000
        2285000	       227	80001bbc	fd5ff0ef	jal	x1,80001bbc	  x1=0x80001bbc
        2295000	       228	00000000	00000013	addi	x0,x0,0	  x0:0x00000000
        2305000	       229	80001b8c	00000013	addi	x0,x0,0	  x0:0x00000000
        2315000	       230	80001b90	018000ef	jal	x1,80001b90	  x1=0x80001b90
        2325000	       231	00000000	00000013	addi	x0,x0,0	  x0:0x00000000
        2335000	       232	80001ba4	00000013	addi	x0,x0,0	  x0:0x00000000
        2345000	       233	80001ba8	0180036f	jal	x6,80001ba8	  x6=0x80001ba8
        2355000	       234	00000000	00000013	addi	x0,x0,0	  x0:0x00000000
        2365000	       235	80001bbc	00000013	addi	x0,x0,0	  x0:0x00000000
        2375000	       236	80001bc0	fc5ff56f	jal	x10,80001bc0	 x10=0x80001bc0
        2385000	       237	00000000	00000013	addi	x0,x0,0	  x0:0x00000000
        2395000	       238	80001b80	00000013	addi	x0,x0,0	  x0:0x00000000
        2405000	       239	80001b84	0480036f	jal	x6,80001b84	  x6=0x80001b84
        2415000	       240	00000000	00000013	addi	x0,x0,0	  x0:0x00000000
        2425000	       241	80001bc8	00000013	addi	x0,x0,0	  x0:0x00000000
        2435000	       242	80001bcc	0108a4b3	slt	x9,x17,x16	 x17:0x80001b80 x16:0x80001bb0  x9=0x00000001
        2445000	       243	80001bd0	02c008ef	jal	x17,80001bd0	 x17=0x80001bd0
        2455000	       244	00000000	00000013	addi	x0,x0,0	  x0:0x00000000
        2465000	       245	80001bf8	00000013	addi	x0,x0,0	  x0:0x00000000
        2475000	       246	80001bfc	ff5ff0ef	jal	x1,80001bfc	  x1=0x80001bfc
        2485000	       247	00000000	00000013	addi	x0,x0,0	  x0:0x00000000
        2495000	       248	80001bec	00000013	addi	x0,x0,0	  x0:0x00000000
        2505000	       249	80001bf0	0040096f	jal	x18,80001bf0	 x18=0x80001bf0
        2515000	       250	00000000	00000013	addi	x0,x0,0	  x0:0x00000000
        2525000	       251	80001bf0	00000013	addi	x0,x0,0	  x0:0x00000000
        2535000	       252	80001bf4	014000ef	jal	x1,80001bf4	  x1=0x80001bf4
        2545000	       253	00000000	00000013	addi	x0,x0,0	  x0:0x00000000
        2555000	       254	80001c04	00000013	addi	x0,x0,0	  x0:0x00000000
        2565000	       255	80001c08	fcdff0ef	jal	x1,80001c08	  x1=0x80001c08
        2575000	       256	00000000	00000013	addi	x0,x0,0	  x0:0x00000000
        2585000	       257	80001bd0	00000013	addi	x0,x0,0	  x0:0x00000000
        2595000	       258	80001bd4	0440036f	jal	x6,80001bd4	  x6=0x80001bd4
        2605000	       259	00000000	00000013	addi	x0,x0,0	  x0:0x00000000
        2615000	       260	80001c14	00000013	addi	x0,x0,0	  x0:0x00000000
        2625000	       261	80001c18	fedff0ef	jal	x1,80001c18	  x1=0x80001c18
        2635000	       262	00000000	00000013	addi	x0,x0,0	  x0:0x00000000
        2645000	       263	80001c00	00000013	addi	x0,x0,0	  x0:0x00000000
        2655000	       264	80001c04	fd5ff0ef	jal	x1,80001c04	  x1=0x80001c04
        2665000	       265	00000000	00000013	addi	x0,x0,0	  x0:0x00000000
        2675000	       266	80001bd4	00000013	addi	x0,x0,0	  x0:0x00000000
        2685000	       267	80001bd8	00c000ef	jal	x1,80001bd8	  x1=0x80001bd8
        2695000	       268	00000000	00000013	addi	x0,x0,0	  x0:0x00000000
        2705000	       269	80001be0	00000013	addi	x0,x0,0	  x0:0x00000000
        2715000	       270	80001be4	014000ef	jal	x1,80001be4	  x1=0x80001be4
        2725000	       271	00000000	00000013	addi	x0,x0,0	  x0:0x00000000
        2735000	       272	80001bf4	00000013	addi	x0,x0,0	  x0:0x00000000
        2745000	       273	80001bf8	fe9ff0ef	jal	x1,80001bf8	  x1=0x80001bf8
        2755000	       274	00000000	00000013	addi	x0,x0,0	  x0:0x00000000
        2765000	       275	80001bdc	00000013	addi	x0,x0,0	  x0:0x00000000
        2775000	       276	80001be0	030000ef	jal	x1,80001be0	  x1=0x80001be0
        2785000	       277	00000000	00000013	addi	x0,x0,0	  x0:0x00000000
        2795000	       278	80001c0c	00000013	addi	x0,x0,0	  x0:0x00000000
        2805000	       279	80001c10	ff1ff0ef	jal	x1,80001c10	  x1=0x80001c10
        2815000	       280	00000000	00000013	addi	x0,x0,0	  x0:0x00000000
        2825000	       281	80001bfc	00000013	addi	x0,x0,0	  x0:0x00000000
        2835000	       282	80001c00	01c000ef	jal	x1,80001c00	  x1=0x80001c00
        2845000	       283	00000000	00000013	addi	x0,x0,0	  x0:0x00000000
        2855000	       284	80001c18	00000013	addi	x0,x0,0	  x0:0x00000000
        2865000	       285	80001c1c	fc1ff0ef	jal	x1,80001c1c	  x1=0x80001c1c
        2875000	       286	00000000	00000013	addi	x0,x0,0	  x0:0x00000000
        2885000	       287	80001bd8	00000013	addi	x0,x0,0	  x0:0x00000000
        2895000	       288	80001bdc	010000ef	jal	x1,80001bdc	  x1=0x80001bdc
        2905000	       289	00000000	00000013	addi	x0,x0,0	  x0:0x00000000
        2915000	       290	80001be8	00000013	addi	x0,x0,0	  x0:0x00000000
        2925000	       291	80001bec	028000ef	jal	x1,80001bec	  x1=0x80001bec
        2935000	       292	00000000	00000013	addi	x0,x0,0	  x0:0x00000000
        2945000	       293	80001c10	00000013	addi	x0,x0,0	  x0:0x00000000
        2955000	       294	80001c14	fd5ff0ef	jal	x1,80001c14	  x1=0x80001c14
        2965000	       295	00000000	00000013	addi	x0,x0,0	  x0:0x00000000
        2975000	       296	80001be4	00000013	addi	x0,x0,0	  x0:0x00000000
        2985000	       297	80001be8	0240036f	jal	x6,80001be8	  x6=0x80001be8
        2995000	       298	00000000	00000013	addi	x0,x0,0	  x0:0x00000000
        3005000	       299	80001c08	00000013	addi	x0,x0,0	  x0:0x00000000
        3015000	       300	80001c0c	014008ef	jal	x17,80001c0c	 x17=0x80001c0c
        3025000	       301	00000000	00000013	addi	x0,x0,0	  x0:0x00000000
        3035000	       302	80001c1c	00000013	addi	x0,x0,0	  x0:0x00000000
        3045000	       303	80001c20	0081da13	srli	x20,x3,0x8	  x3:0x80001b40 x20=0x0080001b
        3055000	       304	80001c24	01c008ef	jal	x17,80001c24	 x17=0x80001c24
        3065000	       305	00000000	00000013	addi	x0,x0,0	  x0:0x00000000
        3075000	       306	80001c3c	00000013	addi	x0,x0,0	  x0:0x00000000
        3085000	       307	80001c40	ffdff0ef	jal	x1,80001c40	  x1=0x80001c40
        3095000	       308	00000000	00000013	addi	x0,x0,0	  x0:0x00000000
        3105000	       309	80001c38	00000013	addi	x0,x0,0	  x0:0x00000000
        3115000	       310	80001c3c	ffdff46f	jal	x8,80001c3c	  x8=0x80001c3c
        3125000	       311	00000000	00000013	addi	x0,x0,0	  x0:0x00000000
        3135000	       312	80001c34	00000013	addi	x0,x0,0	  x0:0x00000000
        3145000	       313	80001c38	010000ef	jal	x1,80001c38	  x1=0x80001c38
        3155000	       314	00000000	00000013	addi	x0,x0,0	  x0:0x00000000
        3165000	       315	80001c44	00000013	addi	x0,x0,0	  x0:0x00000000
        3175000	       316	80001c48	ffdff6ef	jal	x13,80001c48	 x13=0x80001c48
        3185000	       317	00000000	00000013	addi	x0,x0,0	  x0:0x00000000
        3195000	       318	80001c40	00000013	addi	x0,x0,0	  x0:0x00000000
        3205000	       319	80001c44	008000ef	jal	x1,80001c44	  x1=0x80001c44
        3215000	       320	00000000	00000013	addi	x0,x0,0	  x0:0x00000000
        3225000	       321	80001c48	00000013	addi	x0,x0,0	  x0:0x00000000
        3235000	       322	80001c4c	fe1ff2ef	jal	x5,80001c4c	  x5=0x80001c4c
        3245000	       323	00000000	00000013	addi	x0,x0,0	  x0:0x00000000
        3255000	       324	80001c28	00000013	addi	x0,x0,0	  x0:0x00000000
        3265000	       325	80001c2c	ffdff0ef	jal	x1,80001c2c	  x1=0x80001c2c
        3275000	       326	00000000	00000013	addi	x0,x0,0	  x0:0x00000000
        3285000	       327	80001c24	00000013	addi	x0,x0,0	  x0:0x00000000
        3295000	       328	80001c28	008000ef	jal	x1,80001c28	  x1=0x80001c28
        3305000	       329	00000000	00000013	addi	x0,x0,0	  x0:0x00000000
        3315000	       330	80001c2c	00000013	addi	x0,x0,0	  x0:0x00000000
        3325000	       331	80001c30	024000ef	jal	x1,80001c30	  x1=0x80001c30
        3335000	       332	00000000	00000013	addi	x0,x0,0	  x0:0x00000000
        3345000	       333	80001c50	00000013	addi	x0,x0,0	  x0:0x00000000
        3355000	       334	80001c54	fe1ff0ef	jal	x1,80001c54	  x1=0x80001c54
        3365000	       335	00000000	00000013	addi	x0,x0,0	  x0:0x00000000
        3375000	       336	80001c30	00000013	addi	x0,x0,0	  x0:0x00000000
        3385000	       337	80001c34	01c000ef	jal	x1,80001c34	  x1=0x80001c34
        3395000	       338	00000000	00000013	addi	x0,x0,0	  x0:0x00000000
        3405000	       339	80001c4c	00000013	addi	x0,x0,0	  x0:0x00000000
        3415000	       340	80001c50	00800e6f	jal	x28,80001c50	 x28=0x80001c50
        3425000	       341	00000000	00000013	addi	x0,x0,0	  x0:0x00000000
        3435000	       342	80001c54	00000013	addi	x0,x0,0	  x0:0x00000000
        3445000	       343	80001c58	01f59593	slli	x11,x11,0x1f	 x11:0x024b75cc x11=0x00000000
        3455000	       344	80001c5c	014008ef	jal	x17,80001c5c	 x17=0x80001c5c
        3465000	       345	00000000	00000013	addi	x0,x0,0	  x0:0x00000000
        3475000	       346	80001c6c	00000013	addi	x0,x0,0	  x0:0x00000000
        3485000	       347	80001c70	ff9ff2ef	jal	x5,80001c70	  x5=0x80001c70
        3495000	       348	00000000	00000013	addi	x0,x0,0	  x0:0x00000000
        3505000	       349	80001c64	00000013	addi	x0,x0,0	  x0:0x00000000
        3515000	       350	80001c68	040001ef	jal	x3,80001c68	  x3=0x80001c68
        3525000	       351	00000000	00000013	addi	x0,x0,0	  x0:0x00000000
        3535000	       352	80001ca4	00000013	addi	x0,x0,0	  x0:0x00000000
        3545000	       353	80001ca8	ff9ffbef	jal	x23,80001ca8	 x23=0x80001ca8
        3555000	       354	00000000	00000013	addi	x0,x0,0	  x0:0x00000000
        3565000	       355	80001c9c	00000013	addi	x0,x0,0	  x0:0x00000000
        3575000	       356	80001ca0	0040026f	jal	x4,80001ca0	  x4=0x80001ca0
        3585000	       357	00000000	00000013	addi	x0,x0,0	  x0:0x00000000
        3595000	       358	80001ca0	00000013	addi	x0,x0,0	  x0:0x00000000
        3605000	       359	80001ca4	fddff36f	jal	x6,80001ca4	  x6=0x80001ca4
        3615000	       360	00000000	00000013	addi	x0,x0,0	  x0:0x00000000
        3625000	       361	80001c7c	00000013	addi	x0,x0,0	  x0:0x00000000
        3635000	       362	80001c80	02c0036f	jal	x6,80001c80	  x6=0x80001c80
        3645000	       363	00000000	00000013	addi	x0,x0,0	  x0:0x00000000
        3655000	       364	80001ca8	00000013	addi	x0,x0,0	  x0:0x00000000
        3665000	       365	80001cac	fb9ff0ef	jal	x1,80001cac	  x1=0x80001cac
        3675000	       366	00000000	00000013	addi	x0,x0,0	  x0:0x00000000
        3685000	       367	80001c60	00000013	addi	x0,x0,0	  x0:0x00000000
        3695000	       368	80001c64	010004ef	jal	x9,80001c64	  x9=0x80001c64
        3705000	       369	00000000	00000013	addi	x0,x0,0	  x0:0x00000000
        3715000	       370	80001c70	00000013	addi	x0,x0,0	  x0:0x00000000
        3725000	       371	80001c74	010000ef	jal	x1,80001c74	  x1=0x80001c74
        3735000	       372	00000000	00000013	addi	x0,x0,0	  x0:0x00000000
        3745000	       373	80001c80	00000013	addi	x0,x0,0	  x0:0x00000000
        3755000	       374	80001c84	fe9ffbef	jal	x23,80001c84	 x23=0x80001c84
        3765000	       375	00000000	00000013	addi	x0,x0,0	  x0:0x00000000
        3775000	       376	80001c68	00000013	addi	x0,x0,0	  x0:0x00000000
        3785000	       377	80001c6c	010000ef	jal	x1,80001c6c	  x1=0x80001c6c
        3795000	       378	00000000	00000013	addi	x0,x0,0	  x0:0x00000000
        3805000	       379	80001c78	00000013	addi	x0,x0,0	  x0:0x00000000
        3815000	       380	80001c7c	01c000ef	jal	x1,80001c7c	  x1=0x80001c7c
        3825000	       381	00000000	00000013	addi	x0,x0,0	  x0:0x00000000
        3835000	       382	80001c94	00000013	addi	x0,x0,0	  x0:0x00000000
        3845000	       383	80001c98	ffdff36f	jal	x6,80001c98	  x6=0x80001c98
        3855000	       384	00000000	00000013	addi	x0,x0,0	  x0:0x00000000
        3865000	       385	80001c90	00000013	addi	x0,x0,0	  x0:0x00000000
        3875000	       386	80001c94	ffdff0ef	jal	x1,80001c94	  x1=0x80001c94
        3885000	       387	00000000	00000013	addi	x0,x0,0	  x0:0x00000000
        3895000	       388	80001c8c	00000013	addi	x0,x0,0	  x0:0x00000000
        3905000	       389	80001c90	ffdff0ef	jal	x1,80001c90	  x1=0x80001c90
        3915000	       390	00000000	00000013	addi	x0,x0,0	  x0:0x00000000
        3925000	       391	80001c88	00000013	addi	x0,x0,0	  x0:0x00000000
        3935000	       392	80001c8c	010000ef	jal	x1,80001c8c	  x1=0x80001c8c
        3945000	       393	00000000	00000013	addi	x0,x0,0	  x0:0x00000000
        3955000	       394	80001c98	00000013	addi	x0,x0,0	  x0:0x00000000
        3965000	       395	80001c9c	fedff0ef	jal	x1,80001c9c	  x1=0x80001c9c
        3975000	       396	00000000	00000013	addi	x0,x0,0	  x0:0x00000000
        3985000	       397	80001c84	00000013	addi	x0,x0,0	  x0:0x00000000
        3995000	       398	80001c88	ff1ff0ef	jal	x1,80001c88	  x1=0x80001c88
        4005000	       399	00000000	00000013	addi	x0,x0,0	  x0:0x00000000
        4015000	       400	80001c74	00000013	addi	x0,x0,0	  x0:0x00000000
        4025000	       401	80001c78	fe9ffeef	jal	x29,80001c78	 x29=0x80001c78
        4035000	       402	00000000	00000013	addi	x0,x0,0	  x0:0x00000000
        4045000	       403	80001c5c	00000013	addi	x0,x0,0	  x0:0x00000000
        4055000	       404	80001c60	0500036f	jal	x6,80001c60	  x6=0x80001c60
        4065000	       405	00000000	00000013	addi	x0,x0,0	  x0:0x00000000
        4075000	       406	80001cac	00000013	addi	x0,x0,0	  x0:0x00000000
        4085000	       407	80001cb0	e85fb813	sltiu	x16,x31,-379	 x31:0x80009f64 x16=0x00000001
        4095000	       408	80001cb4	02c008ef	jal	x17,80001cb4	 x17=0x80001cb4
        4105000	       409	00000000	00000013	addi	x0,x0,0	  x0:0x00000000
        4115000	       410	80001cdc	00000013	addi	x0,x0,0	  x0:0x00000000
        4125000	       411	80001ce0	020000ef	jal	x1,80001ce0	  x1=0x80001ce0
        4135000	       412	00000000	00000013	addi	x0,x0,0	  x0:0x00000000
        4145000	       413	80001cfc	00000013	addi	x0,x0,0	  x0:0x00000000
        4155000	       414	80001d00	ff5ff0ef	jal	x1,80001d00	  x1=0x80001d00
        4165000	       415	00000000	00000013	addi	x0,x0,0	  x0:0x00000000
        4175000	       416	80001cf0	00000013	addi	x0,x0,0	  x0:0x00000000
        4185000	       417	80001cf4	fddff2ef	jal	x5,80001cf4	  x5=0x80001cf4
        4195000	       418	00000000	00000013	addi	x0,x0,0	  x0:0x00000000
        4205000	       419	80001ccc	00000013	addi	x0,x0,0	  x0:0x00000000
        4215000	       420	80001cd0	004002ef	jal	x5,80001cd0	  x5=0x80001cd0
        4225000	       421	00000000	00000013	addi	x0,x0,0	  x0:0x00000000
        4235000	       422	80001cd0	00000013	addi	x0,x0,0	  x0:0x00000000
        4245000	       423	80001cd4	01c000ef	jal	x1,80001cd4	  x1=0x80001cd4
        4255000	       424	00000000	00000013	addi	x0,x0,0	  x0:0x00000000
        4265000	       425	80001cec	00000013	addi	x0,x0,0	  x0:0x00000000
        4275000	       426	80001cf0	fd9ff6ef	jal	x13,80001cf0	 x13=0x80001cf0
        4285000	       427	00000000	00000013	addi	x0,x0,0	  x0:0x00000000
        4295000	       428	80001cc4	00000013	addi	x0,x0,0	  x0:0x00000000
        4305000	       429	80001cc8	03c00a6f	jal	x20,80001cc8	 x20=0x80001cc8
        4315000	       430	00000000	00000013	addi	x0,x0,0	  x0:0x00000000
        4325000	       431	80001d00	00000013	addi	x0,x0,0	  x0:0x00000000
        4335000	       432	80001d04	fe1ff0ef	jal	x1,80001d04	  x1=0x80001d04
        4345000	       433	00000000	00000013	addi	x0,x0,0	  x0:0x00000000
        4355000	       434	80001ce0	00000013	addi	x0,x0,0	  x0:0x00000000
        4365000	       435	80001ce4	fd5ff36f	jal	x6,80001ce4	  x6=0x80001ce4
        4375000	       436	00000000	00000013	addi	x0,x0,0	  x0:0x00000000
        4385000	       437	80001cb4	00000013	addi	x0,x0,0	  x0:0x00000000
        4395000	       438	80001cb8	0240036f	jal	x6,80001cb8	  x6=0x80001cb8
        4405000	       439	00000000	00000013	addi	x0,x0,0	  x0:0x00000000
        4415000	       440	80001cd8	00000013	addi	x0,x0,0	  x0:0x00000000
        4425000	       441	80001cdc	010000ef	jal	x1,80001cdc	  x1=0x80001cdc
        4435000	       442	00000000	00000013	addi	x0,x0,0	  x0:0x00000000
        4445000	       443	80001ce8	00000013	addi	x0,x0,0	  x0:0x00000000
        4455000	       444	80001cec	01c0036f	jal	x6,80001cec	  x6=0x80001cec
        4465000	       445	00000000	00000013	addi	x0,x0,0	  x0:0x00000000
        4475000	       446	80001d04	00000013	addi	x0,x0,0	  x0:0x00000000
        4485000	       447	80001d08	fc5ff0ef	jal	x1,80001d08	  x1=0x80001d08
        4495000	       448	00000000	00000013	addi	x0,x0,0	  x0:0x00000000
        4505000	       449	80001cc8	00000013	addi	x0,x0,0	  x0:0x00000000
        4515000	       450	80001ccc	01c003ef	jal	x7,80001ccc	  x7=0x80001ccc
        4525000	       451	00000000	00000013	addi	x0,x0,0	  x0:0x00000000
        4535000	       452	80001ce4	00000013	addi	x0,x0,0	  x0:0x00000000
        4545000	       453	80001ce8	010000ef	jal	x1,80001ce8	  x1=0x80001ce8
        4555000	       454	00000000	00000013	addi	x0,x0,0	  x0:0x00000000
        4565000	       455	80001cf4	00000013	addi	x0,x0,0	  x0:0x00000000
        4575000	       456	80001cf8	fc9ff0ef	jal	x1,80001cf8	  x1=0x80001cf8
        4585000	       457	00000000	00000013	addi	x0,x0,0	  x0:0x00000000
        4595000	       458	80001cbc	00000013	addi	x0,x0,0	  x0:0x00000000
        4605000	       459	80001cc0	018000ef	jal	x1,80001cc0	  x1=0x80001cc0
        4615000	       460	00000000	00000013	addi	x0,x0,0	  x0:0x00000000
        4625000	       461	80001cd4	00000013	addi	x0,x0,0	  x0:0x00000000
        4635000	       462	80001cd8	0240036f	jal	x6,80001cd8	  x6=0x80001cd8
        4645000	       463	00000000	00000013	addi	x0,x0,0	  x0:0x00000000
        4655000	       464	80001cf8	00000013	addi	x0,x0,0	  x0:0x00000000
        4665000	       465	80001cfc	fc1ff0ef	jal	x1,80001cfc	  x1=0x80001cfc
        4675000	       466	00000000	00000013	addi	x0,x0,0	  x0:0x00000000
        4685000	       467	80001cb8	00000013	addi	x0,x0,0	  x0:0x00000000
        4695000	       468	80001cbc	0080036f	jal	x6,80001cbc	  x6=0x80001cbc
        4705000	       469	00000000	00000013	addi	x0,x0,0	  x0:0x00000000
        4715000	       470	80001cc0	00000013	addi	x0,x0,0	  x0:0x00000000
        4725000	       471	80001cc4	0480036f	jal	x6,80001cc4	  x6=0x80001cc4
        4735000	       472	00000000	00000013	addi	x0,x0,0	  x0:0x00000000
        4745000	       473	80001d08	00000013	addi	x0,x0,0	  x0:0x00000000
        4755000	       474	80001d0c	f4aa7417	auipc	x8,0xf4aa7	  x8=0x74aa8d08
        4765000	       475	80001d10	034008ef	jal	x17,80001d10	 x17=0x80001d10
        4775000	       476	00000000	00000013	addi	x0,x0,0	  x0:0x00000000
        4785000	       477	80001d40	00000013	addi	x0,x0,0	  x0:0x00000000
        4795000	       478	80001d44	fe5ff0ef	jal	x1,80001d44	  x1=0x80001d44
        4805000	       479	00000000	00000013	addi	x0,x0,0	  x0:0x00000000
        4815000	       480	80001d24	00000013	addi	x0,x0,0	  x0:0x00000000
        4825000	       481	80001d28	030000ef	jal	x1,80001d28	  x1=0x80001d28
        4835000	       482	00000000	00000013	addi	x0,x0,0	  x0:0x00000000
        4845000	       483	80001d54	00000013	addi	x0,x0,0	  x0:0x00000000
        4855000	       484	80001d58	fc1ff6ef	jal	x13,80001d58	 x13=0x80001d58
        4865000	       485	00000000	00000013	addi	x0,x0,0	  x0:0x00000000
        4875000	       486	80001d14	00000013	addi	x0,x0,0	  x0:0x00000000
        4885000	       487	80001d18	0340076f	jal	x14,80001d18	 x14=0x80001d18
        4895000	       488	00000000	00000013	addi	x0,x0,0	  x0:0x00000000
        4905000	       489	80001d48	00000013	addi	x0,x0,0	  x0:0x00000000
        4915000	       490	80001d4c	fe9ffc6f	jal	x24,80001d4c	 x24=0x80001d4c
        4925000	       491	00000000	00000013	addi	x0,x0,0	  x0:0x00000000
        4935000	       492	80001d30	00000013	addi	x0,x0,0	  x0:0x00000000
        4945000	       493	80001d34	ff9ff0ef	jal	x1,80001d34	  x1=0x80001d34
        4955000	       494	00000000	00000013	addi	x0,x0,0	  x0:0x00000000
        4965000	       495	80001d28	00000013	addi	x0,x0,0	  x0:0x00000000
        4975000	       496	80001d2c	ff9ff0ef	jal	x1,80001d2c	  x1=0x80001d2c
        4985000	       497	00000000	00000013	addi	x0,x0,0	  x0:0x00000000
        4995000	       498	80001d20	00000013	addi	x0,x0,0	  x0:0x00000000
        5005000	       499	80001d24	ffdff0ef	jal	x1,80001d24	  x1=0x80001d24
        5015000	       500	00000000	00000013	addi	x0,x0,0	  x0:0x00000000
        5025000	       501	80001d1c	00000013	addi	x0,x0,0	  x0:0x00000000
        5035000	       502	80001d20	ffdff0ef	jal	x1,80001d20	  x1=0x80001d20
        5045000	       503	00000000	00000013	addi	x0,x0,0	  x0:0x00000000
        5055000	       504	80001d18	00000013	addi	x0,x0,0	  x0:0x00000000
        5065000	       505	80001d1c	01c000ef	jal	x1,80001d1c	  x1=0x80001d1c
        5075000	       506	00000000	00000013	addi	x0,x0,0	  x0:0x00000000
        5085000	       507	80001d34	00000013	addi	x0,x0,0	  x0:0x00000000
        5095000	       508	80001d38	01c000ef	jal	x1,80001d38	  x1=0x80001d38
        5105000	       509	00000000	00000013	addi	x0,x0,0	  x0:0x00000000
        5115000	       510	80001d50	00000013	addi	x0,x0,0	  x0:0x00000000
        5125000	       511	80001d54	ff5ffaef	jal	x21,80001d54	 x21=0x80001d54
        5135000	       512	00000000	00000013	addi	x0,x0,0	  x0:0x00000000
        5145000	       513	80001d44	00000013	addi	x0,x0,0	  x0:0x00000000
        5155000	       514	80001d48	fcdff8ef	jal	x17,80001d48	 x17=0x80001d48
        5165000	       515	00000000	00000013	addi	x0,x0,0	  x0:0x00000000
        5175000	       516	80001d10	00000013	addi	x0,x0,0	  x0:0x00000000
        5185000	       517	80001d14	028000ef	jal	x1,80001d14	  x1=0x80001d14
        5195000	       518	00000000	00000013	addi	x0,x0,0	  x0:0x00000000
        5205000	       519	80001d38	00000013	addi	x0,x0,0	  x0:0x00000000
        5215000	       520	80001d3c	ff5ff36f	jal	x6,80001d3c	  x6=0x80001d3c
        5225000	       521	00000000	00000013	addi	x0,x0,0	  x0:0x00000000
        5235000	       522	80001d2c	00000013	addi	x0,x0,0	  x0:0x00000000
        5245000	       523	80001d30	02c000ef	jal	x1,80001d30	  x1=0x80001d30
        5255000	       524	00000000	00000013	addi	x0,x0,0	  x0:0x00000000
        5265000	       525	80001d58	00000013	addi	x0,x0,0	  x0:0x00000000
        5275000	       526	80001d5c	ff5ff0ef	jal	x1,80001d5c	  x1=0x80001d5c
        5285000	       527	00000000	00000013	addi	x0,x0,0	  x0:0x00000000
        5295000	       528	80001d4c	00000013	addi	x0,x0,0	  x0:0x00000000
        5305000	       529	80001d50	ff1ff0ef	jal	x1,80001d50	  x1=0x80001d50
        5315000	       530	00000000	00000013	addi	x0,x0,0	  x0:0x00000000
        5325000	       531	80001d3c	00000013	addi	x0,x0,0	  x0:0x00000000
        5335000	       532	80001d40	0200036f	jal	x6,80001d40	  x6=0x80001d40
        5345000	       533	00000000	00000013	addi	x0,x0,0	  x0:0x00000000
        5355000	       534	80001d5c	00000013	addi	x0,x0,0	  x0:0x00000000
        5365000	       535	80001d60	e224ee13	ori	x28,x9,-478	  x9:0x80001c64 x28=0xfffffe66
        5375000	       536	80001d64	028008ef	jal	x17,80001d64	 x17=0x80001d64
        5385000	       537	00000000	00000013	addi	x0,x0,0	  x0:0x00000000
        5395000	       538	80001d88	00000013	addi	x0,x0,0	  x0:0x00000000
        5405000	       539	80001d8c	ff9ff0ef	jal	x1,80001d8c	  x1=0x80001d8c
        5415000	       540	00000000	00000013	addi	x0,x0,0	  x0:0x00000000
        5425000	       541	80001d80	00000013	addi	x0,x0,0	  x0:0x00000000
        5435000	       542	80001d84	010009ef	jal	x19,80001d84	 x19=0x80001d84
        5445000	       543	00000000	00000013	addi	x0,x0,0	  x0:0x00000000
        5455000	       544	80001d90	00000013	addi	x0,x0,0	  x0:0x00000000
        5465000	       545	80001d94	fd5ff0ef	jal	x1,80001d94	  x1=0x80001d94
        5475000	       546	00000000	00000013	addi	x0,x0,0	  x0:0x00000000
        5485000	       547	80001d64	00000013	addi	x0,x0,0	  x0:0x00000000
        5495000	       548	80001d68	030000ef	jal	x1,80001d68	  x1=0x80001d68
        5505000	       549	00000000	00000013	addi	x0,x0,0	  x0:0x00000000
        5515000	       550	80001d94	00000013	addi	x0,x0,0	  x0:0x00000000
        5525000	       551	80001d98	ff9ff36f	jal	x6,80001d98	  x6=0x80001d98
        5535000	       552	00000000	00000013	addi	x0,x0,0	  x0:0x00000000
        5545000	       553	80001d8c	00000013	addi	x0,x0,0	  x0:0x00000000
        5555000	       554	80001d90	fe5ff0ef	jal	x1,80001d90	  x1=0x80001d90
        5565000	       555	00000000	00000013	addi	x0,x0,0	  x0:0x00000000
        5575000	       556	80001d70	00000013	addi	x0,x0,0	  x0:0x00000000
        5585000	       557	80001d74	014000ef	jal	x1,80001d74	  x1=0x80001d74
        5595000	       558	00000000	00000013	addi	x0,x0,0	  x0:0x00000000
        5605000	       559	80001d84	00000013	addi	x0,x0,0	  x0:0x00000000
        5615000	       560	80001d88	fe5ff36f	jal	x6,80001d88	  x6=0x80001d88
        5625000	       561	00000000	00000013	addi	x0,x0,0	  x0:0x00000000
        5635000	       562	80001d68	00000013	addi	x0,x0,0	  x0:0x00000000
        5645000	       563	80001d6c	014000ef	jal	x1,80001d6c	  x1=0x80001d6c
        5655000	       564	00000000	00000013	addi	x0,x0,0	  x0:0x00000000
        5665000	       565	80001d7c	00000013	addi	x0,x0,0	  x0:0x00000000
        5675000	       566	80001d80	ff1ff76f	jal	x14,80001d80	 x14=0x80001d80
        5685000	       567	00000000	00000013	addi	x0,x0,0	  x0:0x00000000
        5695000	       568	80001d6c	00000013	addi	x0,x0,0	  x0:0x00000000
        5705000	       569	80001d70	00c0036f	jal	x6,80001d70	  x6=0x80001d70
        5715000	       570	00000000	00000013	addi	x0,x0,0	  x0:0x00000000
        5725000	       571	80001d78	00000013	addi	x0,x0,0	  x0:0x00000000
        5735000	       572	80001d7c	ffdff36f	jal	x6,80001d7c	  x6=0x80001d7c
        5745000	       573	00000000	00000013	addi	x0,x0,0	  x0:0x00000000
        5755000	       574	80001d74	00000013	addi	x0,x0,0	  x0:0x00000000
        5765000	       575	80001d78	0240076f	jal	x14,80001d78	 x14=0x80001d78
        5775000	       576	00000000	00000013	addi	x0,x0,0	  x0:0x00000000
        5785000	       577	80001d98	00000013	addi	x0,x0,0	  x0:0x00000000
        5795000	       578	80001d9c	00e40f33	add	x30,x8,x14	  x8:0x74aa8d08 x14:0x80001d78 x30=0xf4aaaa80
        5805000	       579	80001da0	040008ef	jal	x17,80001da0	 x17=0x80001da0
        5815000	       580	00000000	00000013	addi	x0,x0,0	  x0:0x00000000
        5825000	       581	80001ddc	00000013	addi	x0,x0,0	  x0:0x00000000
        5835000	       582	80001de0	008000ef	jal	x1,80001de0	  x1=0x80001de0
        5845000	       583	00000000	00000013	addi	x0,x0,0	  x0:0x00000000
        5855000	       584	80001de4	00000013	addi	x0,x0,0	  x0:0x00000000
        5865000	       585	80001de8	fbdff0ef	jal	x1,80001de8	  x1=0x80001de8
        5875000	       586	00000000	00000013	addi	x0,x0,0	  x0:0x00000000
        5885000	       587	80001da0	00000013	addi	x0,x0,0	  x0:0x00000000
        5895000	       588	80001da4	0400036f	jal	x6,80001da4	  x6=0x80001da4
        5905000	       589	00000000	00000013	addi	x0,x0,0	  x0:0x00000000
        5915000	       590	80001de0	00000013	addi	x0,x0,0	  x0:0x00000000
        5925000	       591	80001de4	ff5ff0ef	jal	x1,80001de4	  x1=0x80001de4
        5935000	       592	00000000	00000013	addi	x0,x0,0	  x0:0x00000000
        5945000	       593	80001dd4	00000013	addi	x0,x0,0	  x0:0x00000000
        5955000	       594	80001dd8	ff5ff0ef	jal	x1,80001dd8	  x1=0x80001dd8
        5965000	       595	00000000	00000013	addi	x0,x0,0	  x0:0x00000000
        5975000	       596	80001dc8	00000013	addi	x0,x0,0	  x0:0x00000000
        5985000	       597	80001dcc	008001ef	jal	x3,80001dcc	  x3=0x80001dcc
        5995000	       598	00000000	00000013	addi	x0,x0,0	  x0:0x00000000
        6005000	       599	80001dd0	00000013	addi	x0,x0,0	  x0:0x00000000
        6015000	       600	80001dd4	ff1ff26f	jal	x4,80001dd4	  x4=0x80001dd4
        6025000	       601	00000000	00000013	addi	x0,x0,0	  x0:0x00000000
        6035000	       602	80001dc0	00000013	addi	x0,x0,0	  x0:0x00000000
        6045000	       603	80001dc4	00400bef	jal	x23,80001dc4	 x23=0x80001dc4
        6055000	       604	00000000	00000013	addi	x0,x0,0	  x0:0x00000000
        6065000	       605	80001dc4	00000013	addi	x0,x0,0	  x0:0x00000000
        6075000	       606	80001dc8	ff5ff1ef	jal	x3,80001dc8	  x3=0x80001dc8
        6085000	       607	00000000	00000013	addi	x0,x0,0	  x0:0x00000000
        6095000	       608	80001db8	00000013	addi	x0,x0,0	  x0:0x00000000
        6105000	       609	80001dbc	034000ef	jal	x1,80001dbc	  x1=0x80001dbc
        6115000	       610	00000000	00000013	addi	x0,x0,0	  x0:0x00000000
        6125000	       611	80001dec	00000013	addi	x0,x0,0	  x0:0x00000000
        6135000	       612	80001df0	fb9ff2ef	jal	x5,80001df0	  x5=0x80001df0
        6145000	       613	00000000	00000013	addi	x0,x0,0	  x0:0x00000000
        6155000	       614	80001da4	00000013	addi	x0,x0,0	  x0:0x00000000
        6165000	       615	80001da8	044000ef	jal	x1,80001da8	  x1=0x80001da8
        6175000	       616	00000000	00000013	addi	x0,x0,0	  x0:0x00000000
        6185000	       617	80001de8	00000013	addi	x0,x0,0	  x0:0x00000000
        6195000	       618	80001dec	fcdffaef	jal	x21,80001dec	 x21=0x80001dec
        6205000	       619	00000000	00000013	addi	x0,x0,0	  x0:0x00000000
        6215000	       620	80001db4	00000013	addi	x0,x0,0	  x0:0x00000000
        6225000	       621	80001db8	024001ef	jal	x3,80001db8	  x3=0x80001db8
        6235000	       622	00000000	00000013	addi	x0,x0,0	  x0:0x00000000
        6245000	       623	80001dd8	00000013	addi	x0,x0,0	  x0:0x00000000
        6255000	       624	80001ddc	fd5ff0ef	jal	x1,80001ddc	  x1=0x80001ddc
        6265000	       625	00000000	00000013	addi	x0,x0,0	  x0:0x00000000
        6275000	       626	80001dac	00000013	addi	x0,x0,0	  x0:0x00000000
        6285000	       627	80001db0	0200036f	jal	x6,80001db0	  x6=0x80001db0
        6295000	       628	00000000	00000013	addi	x0,x0,0	  x0:0x00000000
        6305000	       629	80001dcc	00000013	addi	x0,x0,0	  x0:0x00000000
        6315000	       630	80001dd0	fe5ff0ef	jal	x1,80001dd0	  x1=0x80001dd0
        6325000	       631	00000000	00000013	addi	x0,x0,0	  x0:0x00000000
        6335000	       632	80001db0	00000013	addi	x0,x0,0	  x0:0x00000000
        6345000	       633	80001db4	00c000ef	jal	x1,80001db4	  x1=0x80001db4
        6355000	       634	00000000	00000013	addi	x0,x0,0	  x0:0x00000000
        6365000	       635	80001dbc	00000013	addi	x0,x0,0	  x0:0x00000000
        6375000	       636	80001dc0	fedff56f	jal	x10,80001dc0	 x10=0x80001dc0
        6385000	       637	00000000	00000013	addi	x0,x0,0	  x0:0x00000000
        6395000	       638	80001da8	00000013	addi	x0,x0,0	  x0:0x00000000
        6405000	       639	80001dac	048000ef	jal	x1,80001dac	  x1=0x80001dac
        6415000	       640	00000000	00000013	addi	x0,x0,0	  x0:0x00000000
        6425000	       641	80001df0	00000013	addi	x0,x0,0	  x0:0x00000000
        6435000	       642	80001df4	c8d76993	ori	x19,x14,-883	 x14:0x80001d78 x19=0xfffffdfd
        6445000	       643	80001df8	03c008ef	jal	x17,80001df8	 x17=0x80001df8
        6455000	       644	00000000	00000013	addi	x0,x0,0	  x0:0x00000000
        6465000	       645	80001e30	00000013	addi	x0,x0,0	  x0:0x00000000
        6475000	       646	80001e34	fd9ff76f	jal	x14,80001e34	 x14=0x80001e34
        6485000	       647	00000000	00000013	addi	x0,x0,0	  x0:0x00000000
        6495000	       648	80001e08	00000013	addi	x0,x0,0	  x0:0x00000000
        6505000	       649	80001e0c	ffdff36f	jal	x6,80001e0c	  x6=0x80001e0c
        6515000	       650	00000000	00000013	addi	x0,x0,0	  x0:0x00000000
        6525000	       651	80001e04	00000013	addi	x0,x0,0	  x0:0x00000000
        6535000	       652	80001e08	0100036f	jal	x6,80001e08	  x6=0x80001e08
        6545000	       653	00000000	00000013	addi	x0,x0,0	  x0:0x00000000
        6555000	       654	80001e14	00000013	addi	x0,x0,0	  x0:0x00000000
        6565000	       655	80001e18	00400aef	jal	x21,80001e18	 x21=0x80001e18
        6575000	       656	00000000	00000013	addi	x0,x0,0	  x0:0x00000000
        6585000	       657	80001e18	00000013	addi	x0,x0,0	  x0:0x00000000
        6595000	       658	80001e1c	004000ef	jal	x1,80001e1c	  x1=0x80001e1c
        6605000	       659	00000000	00000013	addi	x0,x0,0	  x0:0x00000000
        6615000	       660	80001e1c	00000013	addi	x0,x0,0	  x0:0x00000000
        6625000	       661	80001e20	020000ef	jal	x1,80001e20	  x1=0x80001e20
        6635000	       662	00000000	00000013	addi	x0,x0,0	  x0:0x00000000
        6645000	       663	80001e3c	00000013	addi	x0,x0,0	  x0:0x00000000
        6655000	       664	80001e40	fc5ff36f	jal	x6,80001e40	  x6=0x80001e40
        6665000	       665	00000000	00000013	addi	x0,x0,0	  x0:0x00000000
        6675000	       666	80001e00	00000013	addi	x0,x0,0	  x0:0x00000000
        6685000	       667	80001e04	028006ef	jal	x13,80001e04	 x13=0x80001e04
        6695000	       668	00000000	00000013	addi	x0,x0,0	  x0:0x00000000
        6705000	       669	80001e28	00000013	addi	x0,x0,0	  x0:0x00000000
        6715000	       670	80001e2c	ffdff26f	jal	x4,80001e2c	  x4=0x80001e2c
        6725000	       671	00000000	00000013	addi	x0,x0,0	  x0:0x00000000
        6735000	       672	80001e24	00000013	addi	x0,x0,0	  x0:0x00000000
        6745000	       673	80001e28	ffdff36f	jal	x6,80001e28	  x6=0x80001e28
        6755000	       674	00000000	00000013	addi	x0,x0,0	  x0:0x00000000
        6765000	       675	80001e20	00000013	addi	x0,x0,0	  x0:0x00000000
        6775000	       676	80001e24	fd9ffcef	jal	x25,80001e24	 x25=0x80001e24
        6785000	       677	00000000	00000013	addi	x0,x0,0	  x0:0x00000000
        6795000	       678	80001df8	00000013	addi	x0,x0,0	  x0:0x00000000
        6805000	       679	80001dfc	014006ef	jal	x13,80001dfc	 x13=0x80001dfc
        6815000	       680	00000000	00000013	addi	x0,x0,0	  x0:0x00000000
        6825000	       681	80001e0c	00000013	addi	x0,x0,0	  x0:0x00000000
        6835000	       682	80001e10	02c00f6f	jal	x30,80001e10	 x30=0x80001e10
        6845000	       683	00000000	00000013	addi	x0,x0,0	  x0:0x00000000
        6855000	       684	80001e38	00000013	addi	x0,x0,0	  x0:0x00000000
        6865000	       685	80001e3c	ff5ff0ef	jal	x1,80001e3c	  x1=0x80001e3c
        6875000	       686	00000000	00000013	addi	x0,x0,0	  x0:0x00000000
        6885000	       687	80001e2c	00000013	addi	x0,x0,0	  x0:0x00000000
        6895000	       688	80001e30	fe5ffb6f	jal	x22,80001e30	 x22=0x80001e30
        6905000	       689	00000000	00000013	addi	x0,x0,0	  x0:0x00000000
        6915000	       690	80001e10	00000013	addi	x0,x0,0	  x0:0x00000000
        6925000	       691	80001e14	02400e6f	jal	x28,80001e14	 x28=0x80001e14
        6935000	       692	00000000	00000013	addi	x0,x0,0	  x0:0x00000000
        6945000	       693	80001e34	00000013	addi	x0,x0,0	  x0:0x00000000
        6955000	       694	80001e38	fc9ff0ef	jal	x1,80001e38	  x1=0x80001e38
        6965000	       695	00000000	00000013	addi	x0,x0,0	  x0:0x00000000
        6975000	       696	80001dfc	00000013	addi	x0,x0,0	  x0:0x00000000
        6985000	       697	80001e00	044000ef	jal	x1,80001e00	  x1=0x80001e00
        6995000	       698	00000000	00000013	addi	x0,x0,0	  x0:0x00000000
        7005000	       699	80001e40	00000013	addi	x0,x0,0	  x0:0x00000000
        7015000	       700	80001e44	01b653b3	srl	x7,x12,x27	 x12:0xfe68eedd x27:0xfc04f31f  x7=0x00000001
        7025000	       701	80001e48	040008ef	jal	x17,80001e48	 x17=0x80001e48
        7035000	       702	00000000	00000013	addi	x0,x0,0	  x0:0x00000000
        7045000	       703	80001e84	00000013	addi	x0,x0,0	  x0:0x00000000
        7055000	       704	80001e88	fddff36f	jal	x6,80001e88	  x6=0x80001e88
        7065000	       705	00000000	00000013	addi	x0,x0,0	  x0:0x00000000
        7075000	       706	80001e60	00000013	addi	x0,x0,0	  x0:0x00000000
        7085000	       707	80001e64	010000ef	jal	x1,80001e64	  x1=0x80001e64
        7095000	       708	00000000	00000013	addi	x0,x0,0	  x0:0x00000000
        7105000	       709	80001e70	00000013	addi	x0,x0,0	  x0:0x00000000
        7115000	       710	80001e74	fedff0ef	jal	x1,80001e74	  x1=0x80001e74
        7125000	       711	00000000	00000013	addi	x0,x0,0	  x0:0x00000000
        7135000	       712	80001e5c	00000013	addi	x0,x0,0	  x0:0x00000000
        7145000	       713	80001e60	ffdff0ef	jal	x1,80001e60	  x1=0x80001e60
        7155000	       714	00000000	00000013	addi	x0,x0,0	  x0:0x00000000
        7165000	       715	80001e58	00000013	addi	x0,x0,0	  x0:0x00000000
        7175000	       716	80001e5c	00c000ef	jal	x1,80001e5c	  x1=0x80001e5c
        7185000	       717	00000000	00000013	addi	x0,x0,0	  x0:0x00000000
        7195000	       718	80001e64	00000013	addi	x0,x0,0	  x0:0x00000000
        7205000	       719	80001e68	018000ef	jal	x1,80001e68	  x1=0x80001e68
        7215000	       720	00000000	00000013	addi	x0,x0,0	  x0:0x00000000
        7225000	       721	80001e7c	00000013	addi	x0,x0,0	  x0:0x00000000
        7235000	       722	80001e80	0040036f	jal	x6,80001e80	  x6=0x80001e80
        7245000	       723	00000000	00000013	addi	x0,x0,0	  x0:0x00000000
        7255000	       724	80001e80	00000013	addi	x0,x0,0	  x0:0x00000000
        7265000	       725	80001e84	ff9ff0ef	jal	x1,80001e84	  x1=0x80001e84
        7275000	       726	00000000	00000013	addi	x0,x0,0	  x0:0x00000000
        7285000	       727	80001e78	00000013	addi	x0,x0,0	  x0:0x00000000
        7295000	       728	80001e7c	ff5ff0ef	jal	x1,80001e7c	  x1=0x80001e7c
        7305000	       729	00000000	00000013	addi	x0,x0,0	  x0:0x00000000
        7315000	       730	80001e6c	00000013	addi	x0,x0,0	  x0:0x00000000
        7325000	       731	80001e70	008001ef	jal	x3,80001e70	  x3=0x80001e70
        7335000	       732	00000000	00000013	addi	x0,x0,0	  x0:0x00000000
        7345000	       733	80001e74	00000013	addi	x0,x0,0	  x0:0x00000000
        7355000	       734	80001e78	0140086f	jal	x16,80001e78	 x16=0x80001e78
        7365000	       735	00000000	00000013	addi	x0,x0,0	  x0:0x00000000
        7375000	       736	80001e88	00000013	addi	x0,x0,0	  x0:0x00000000
        7385000	       737	80001e8c	004000ef	jal	x1,80001e8c	  x1=0x80001e8c
        7395000	       738	00000000	00000013	addi	x0,x0,0	  x0:0x00000000
        7405000	       739	80001e8c	00000013	addi	x0,x0,0	  x0:0x00000000
        7415000	       740	80001e90	fddffaef	jal	x21,80001e90	 x21=0x80001e90
        7425000	       741	00000000	00000013	addi	x0,x0,0	  x0:0x00000000
        7435000	       742	80001e68	00000013	addi	x0,x0,0	  x0:0x00000000
        7445000	       743	80001e6c	fe1ff36f	jal	x6,80001e6c	  x6=0x80001e6c
        7455000	       744	00000000	00000013	addi	x0,x0,0	  x0:0x00000000
        7465000	       745	80001e48	00000013	addi	x0,x0,0	  x0:0x00000000
        7475000	       746	80001e4c	00c000ef	jal	x1,80001e4c	  x1=0x80001e4c
        7485000	       747	00000000	00000013	addi	x0,x0,0	  x0:0x00000000
        7495000	       748	80001e54	00000013	addi	x0,x0,0	  x0:0x00000000
        7505000	       749	80001e58	ff9ff0ef	jal	x1,80001e58	  x1=0x80001e58
        7515000	       750	00000000	00000013	addi	x0,x0,0	  x0:0x00000000
        7525000	       751	80001e4c	00000013	addi	x0,x0,0	  x0:0x00000000
        7535000	       752	80001e50	0040036f	jal	x6,80001e50	  x6=0x80001e50
        7545000	       753	00000000	00000013	addi	x0,x0,0	  x0:0x00000000
        7555000	       754	80001e50	00000013	addi	x0,x0,0	  x0:0x00000000
        7565000	       755	80001e54	04000a6f	jal	x20,80001e54	 x20=0x80001e54
        7575000	       756	00000000	00000013	addi	x0,x0,0	  x0:0x00000000
        7585000	       757	80001e90	00000013	addi	x0,x0,0	  x0:0x00000000
        7595000	       758	80001e94	0022ccb3	xor	x25,x5,x2	  x5:0x80001df0  x2:0xbd232e47 x25=0x3d2333b7
        7605000	       759	80001e98	014008ef	jal	x17,80001e98	 x17=0x80001e98
        7615000	       760	00000000	00000013	addi	x0,x0,0	  x0:0x00000000
        7625000	       761	80001ea8	00000013	addi	x0,x0,0	  x0:0x00000000
        7635000	       762	80001eac	010000ef	jal	x1,80001eac	  x1=0x80001eac
        7645000	       763	00000000	00000013	addi	x0,x0,0	  x0:0x00000000
        7655000	       764	80001eb8	00000013	addi	x0,x0,0	  x0:0x00000000
        7665000	       765	80001ebc	fedff0ef	jal	x1,80001ebc	  x1=0x80001ebc
        7675000	       766	00000000	00000013	addi	x0,x0,0	  x0:0x00000000
        7685000	       767	80001ea4	00000013	addi	x0,x0,0	  x0:0x00000000
        7695000	       768	80001ea8	008000ef	jal	x1,80001ea8	  x1=0x80001ea8
        7705000	       769	00000000	00000013	addi	x0,x0,0	  x0:0x00000000
        7715000	       770	80001eac	00000013	addi	x0,x0,0	  x0:0x00000000
        7725000	       771	80001eb0	008002ef	jal	x5,80001eb0	  x5=0x80001eb0
        7735000	       772	00000000	00000013	addi	x0,x0,0	  x0:0x00000000
        7745000	       773	80001eb4	00000013	addi	x0,x0,0	  x0:0x00000000
        7755000	       774	80001eb8	fe5ff0ef	jal	x1,80001eb8	  x1=0x80001eb8
        7765000	       775	00000000	00000013	addi	x0,x0,0	  x0:0x00000000
        7775000	       776	80001e98	00000013	addi	x0,x0,0	  x0:0x00000000
        7785000	       777	80001e9c	02400a6f	jal	x20,80001e9c	 x20=0x80001e9c
        7795000	       778	00000000	00000013	addi	x0,x0,0	  x0:0x00000000
        7805000	       779	80001ebc	00000013	addi	x0,x0,0	  x0:0x00000000
        7815000	       780	80001ec0	00c000ef	jal	x1,80001ec0	  x1=0x80001ec0
        7825000	       781	00000000	00000013	addi	x0,x0,0	  x0:0x00000000
        7835000	       782	80001ec8	00000013	addi	x0,x0,0	  x0:0x00000000
        7845000	       783	80001ecc	fd5ff0ef	jal	x1,80001ecc	  x1=0x80001ecc
        7855000	       784	00000000	00000013	addi	x0,x0,0	  x0:0x00000000
        7865000	       785	80001e9c	00000013	addi	x0,x0,0	  x0:0x00000000
        7875000	       786	80001ea0	028000ef	jal	x1,80001ea0	  x1=0x80001ea0
        7885000	       787	00000000	00000013	addi	x0,x0,0	  x0:0x00000000
        7895000	       788	80001ec4	00000013	addi	x0,x0,0	  x0:0x00000000
        7905000	       789	80001ec8	fddff0ef	jal	x1,80001ec8	  x1=0x80001ec8
        7915000	       790	00000000	00000013	addi	x0,x0,0	  x0:0x00000000
        7925000	       791	80001ea0	00000013	addi	x0,x0,0	  x0:0x00000000
        7935000	       792	80001ea4	02c000ef	jal	x1,80001ea4	  x1=0x80001ea4
        7945000	       793	00000000	00000013	addi	x0,x0,0	  x0:0x00000000
        7955000	       794	80001ecc	00000013	addi	x0,x0,0	  x0:0x00000000
        7965000	       795	80001ed0	004001ef	jal	x3,80001ed0	  x3=0x80001ed0
        7975000	       796	00000000	00000013	addi	x0,x0,0	  x0:0x00000000
        7985000	       797	80001ed0	00000013	addi	x0,x0,0	  x0:0x00000000
        7995000	       798	80001ed4	fe1ff0ef	jal	x1,80001ed4	  x1=0x80001ed4
        8005000	       799	00000000	00000013	addi	x0,x0,0	  x0:0x00000000
        8015000	       800	80001eb0	00000013	addi	x0,x0,0	  x0:0x00000000
        8025000	       801	80001eb4	010000ef	jal	x1,80001eb4	  x1=0x80001eb4
        8035000	       802	00000000	00000013	addi	x0,x0,0	  x0:0x00000000
        8045000	       803	80001ec0	00000013	addi	x0,x0,0	  x0:0x00000000
        8055000	       804	80001ec4	014000ef	jal	x1,80001ec4	  x1=0x80001ec4
        8065000	       805	00000000	00000013	addi	x0,x0,0	  x0:0x00000000
        8075000	       806	80001ed4	00000013	addi	x0,x0,0	  x0:0x00000000
        8085000	       807	80001ed8	419b85b3	sub	x11,x23,x25	 x23:0x80001dc4 x25:0x3d2333b7 x11=0x42dcea0d
        8095000	       808	80001edc	010008ef	jal	x17,80001edc	 x17=0x80001edc
        8105000	       809	00000000	00000013	addi	x0,x0,0	  x0:0x00000000
        8115000	       810	80001ee8	00000013	addi	x0,x0,0	  x0:0x00000000
        8125000	       811	80001eec	0340036f	jal	x6,80001eec	  x6=0x80001eec
        8135000	       812	00000000	00000013	addi	x0,x0,0	  x0:0x00000000
        8145000	       813	80001f1c	00000013	addi	x0,x0,0	  x0:0x00000000
        8155000	       814	80001f20	ff5ff0ef	jal	x1,80001f20	  x1=0x80001f20
        8165000	       815	00000000	00000013	addi	x0,x0,0	  x0:0x00000000
        8175000	       816	80001f10	00000013	addi	x0,x0,0	  x0:0x00000000
        8185000	       817	80001f14	ff1ff0ef	jal	x1,80001f14	  x1=0x80001f14
        8195000	       818	00000000	00000013	addi	x0,x0,0	  x0:0x00000000
        8205000	       819	80001f00	00000013	addi	x0,x0,0	  x0:0x00000000
        8215000	       820	80001f04	004000ef	jal	x1,80001f04	  x1=0x80001f04
        8225000	       821	00000000	00000013	addi	x0,x0,0	  x0:0x00000000
        8235000	       822	80001f04	00000013	addi	x0,x0,0	  x0:0x00000000
        8245000	       823	80001f08	ff9ff0ef	jal	x1,80001f08	  x1=0x80001f08
        8255000	       824	00000000	00000013	addi	x0,x0,0	  x0:0x00000000
        8265000	       825	80001efc	00000013	addi	x0,x0,0	  x0:0x00000000
        8275000	       826	80001f00	024000ef	jal	x1,80001f00	  x1=0x80001f00
        8285000	       827	00000000	00000013	addi	x0,x0,0	  x0:0x00000000
        8295000	       828	80001f20	00000013	addi	x0,x0,0	  x0:0x00000000
        8305000	       829	80001f24	fe9ff0ef	jal	x1,80001f24	  x1=0x80001f24
        8315000	       830	00000000	00000013	addi	x0,x0,0	  x0:0x00000000
        8325000	       831	80001f08	00000013	addi	x0,x0,0	  x0:0x00000000
        8335000	       832	80001f0c	fe5ff2ef	jal	x5,80001f0c	  x5=0x80001f0c
        8345000	       833	00000000	00000013	addi	x0,x0,0	  x0:0x00000000
        8355000	       834	80001eec	00000013	addi	x0,x0,0	  x0:0x00000000
        8365000	       835	80001ef0	0280036f	jal	x6,80001ef0	  x6=0x80001ef0
        8375000	       836	00000000	00000013	addi	x0,x0,0	  x0:0x00000000
        8385000	       837	80001f14	00000013	addi	x0,x0,0	  x0:0x00000000
        8395000	       838	80001f18	fc9ff0ef	jal	x1,80001f18	  x1=0x80001f18
        8405000	       839	00000000	00000013	addi	x0,x0,0	  x0:0x00000000
        8415000	       840	80001edc	00000013	addi	x0,x0,0	  x0:0x00000000
        8425000	       841	80001ee0	01c000ef	jal	x1,80001ee0	  x1=0x80001ee0
        8435000	       842	00000000	00000013	addi	x0,x0,0	  x0:0x00000000
        8445000	       843	80001ef8	00000013	addi	x0,x0,0	  x0:0x00000000
        8455000	       844	80001efc	fe9ff2ef	jal	x5,80001efc	  x5=0x80001efc
        8465000	       845	00000000	00000013	addi	x0,x0,0	  x0:0x00000000
        8475000	       846	80001ee0	00000013	addi	x0,x0,0	  x0:0x00000000
        8485000	       847	80001ee4	004000ef	jal	x1,80001ee4	  x1=0x80001ee4
        8495000	       848	00000000	00000013	addi	x0,x0,0	  x0:0x00000000
        8505000	       849	80001ee4	00000013	addi	x0,x0,0	  x0:0x00000000
        8515000	       850	80001ee8	034000ef	jal	x1,80001ee8	  x1=0x80001ee8
        8525000	       851	00000000	00000013	addi	x0,x0,0	  x0:0x00000000
        8535000	       852	80001f18	00000013	addi	x0,x0,0	  x0:0x00000000
        8545000	       853	80001f1c	fddff0ef	jal	x1,80001f1c	  x1=0x80001f1c
        8555000	       854	00000000	00000013	addi	x0,x0,0	  x0:0x00000000
        8565000	       855	80001ef4	00000013	addi	x0,x0,0	  x0:0x00000000
        8575000	       856	80001ef8	ffdffc6f	jal	x24,80001ef8	 x24=0x80001ef8
        8585000	       857	00000000	00000013	addi	x0,x0,0	  x0:0x00000000
        8595000	       858	80001ef0	00000013	addi	x0,x0,0	  x0:0x00000000
        8605000	       859	80001ef4	01c00bef	jal	x23,80001ef4	 x23=0x80001ef4
        8615000	       860	00000000	00000013	addi	x0,x0,0	  x0:0x00000000
        8625000	       861	80001f0c	00000013	addi	x0,x0,0	  x0:0x00000000
        8635000	       862	80001f10	0180036f	jal	x6,80001f10	  x6=0x80001f10
        8645000	       863	00000000	00000013	addi	x0,x0,0	  x0:0x00000000
        8655000	       864	80001f24	00000013	addi	x0,x0,0	  x0:0x00000000
        8665000	       865	80001f28	5176e813	ori	x16,x13,1303	 x13:0x80001dfc x16=0x80001dff
        8675000	       866	80001f2c	034008ef	jal	x17,80001f2c	 x17=0x80001f2c
        8685000	       867	00000000	00000013	addi	x0,x0,0	  x0:0x00000000
        8695000	       868	80001f5c	00000013	addi	x0,x0,0	  x0:0x00000000
        8705000	       869	80001f60	fe9ff0ef	jal	x1,80001f60	  x1=0x80001f60
        8715000	       870	00000000	00000013	addi	x0,x0,0	  x0:0x00000000
        8725000	       871	80001f44	00000013	addi	x0,x0,0	  x0:0x00000000
        8735000	       872	80001f48	ff1ff0ef	jal	x1,80001f48	  x1=0x80001f48
        8745000	       873	00000000	00000013	addi	x0,x0,0	  x0:0x00000000
        8755000	       874	80001f34	00000013	addi	x0,x0,0	  x0:0x00000000
        8765000	       875	80001f38	018000ef	jal	x1,80001f38	  x1=0x80001f38
        8775000	       876	00000000	00000013	addi	x0,x0,0	  x0:0x00000000
        8785000	       877	80001f4c	00000013	addi	x0,x0,0	  x0:0x00000000
        8795000	       878	80001f50	ffdff0ef	jal	x1,80001f50	  x1=0x80001f50
        8805000	       879	00000000	00000013	addi	x0,x0,0	  x0:0x00000000
        8815000	       880	80001f48	00000013	addi	x0,x0,0	  x0:0x00000000
        8825000	       881	80001f4c	ff5ff36f	jal	x6,80001f4c	  x6=0x80001f4c
        8835000	       882	00000000	00000013	addi	x0,x0,0	  x0:0x00000000
        8845000	       883	80001f3c	00000013	addi	x0,x0,0	  x0:0x00000000
        8855000	       884	80001f40	ff5ff0ef	jal	x1,80001f40	  x1=0x80001f40
        8865000	       885	00000000	00000013	addi	x0,x0,0	  x0:0x00000000
        8875000	       886	80001f30	00000013	addi	x0,x0,0	  x0:0x00000000
        8885000	       887	80001f34	010006ef	jal	x13,80001f34	 x13=0x80001f34
        8895000	       888	00000000	00000013	addi	x0,x0,0	  x0:0x00000000
        8905000	       889	80001f40	00000013	addi	x0,x0,0	  x0:0x00000000
        8915000	       890	80001f44	010000ef	jal	x1,80001f44	  x1=0x80001f44
        8925000	       891	00000000	00000013	addi	x0,x0,0	  x0:0x00000000
        8935000	       892	80001f50	00000013	addi	x0,x0,0	  x0:0x00000000
        8945000	       893	80001f54	fddff0ef	jal	x1,80001f54	  x1=0x80001f54
        8955000	       894	00000000	00000013	addi	x0,x0,0	  x0:0x00000000
        8965000	       895	80001f2c	00000013	addi	x0,x0,0	  x0:0x00000000
        8975000	       896	80001f30	028000ef	jal	x1,80001f30	  x1=0x80001f30
        8985000	       897	00000000	00000013	addi	x0,x0,0	  x0:0x00000000
        8995000	       898	80001f54	00000013	addi	x0,x0,0	  x0:0x00000000
        9005000	       899	80001f58	0040096f	jal	x18,80001f58	 x18=0x80001f58
        9015000	       900	00000000	00000013	addi	x0,x0,0	  x0:0x00000000
        9025000	       901	80001f58	00000013	addi	x0,x0,0	  x0:0x00000000
        9035000	       902	80001f5c	0080086f	jal	x16,80001f5c	 x16=0x80001f5c
        9045000	       903	00000000	00000013	addi	x0,x0,0	  x0:0x00000000
        9055000	       904	80001f60	00000013	addi	x0,x0,0	  x0:0x00000000
        9065000	       905	80001f64	fd9ff36f	jal	x6,80001f64	  x6=0x80001f64
        9075000	       906	00000000	00000013	addi	x0,x0,0	  x0:0x00000000
        9085000	       907	80001f38	00000013	addi	x0,x0,0	  x0:0x00000000
        9095000	       908	80001f3c	02c00f6f	jal	x30,80001f3c	 x30=0x80001f3c
        9105000	       909	00000000	00000013	addi	x0,x0,0	  x0:0x00000000
        9115000	       910	80001f64	00000013	addi	x0,x0,0	  x0:0x00000000
        9125000	       911	80001f68	119a7593	andi	x11,x20,281	 x20:0x80001e9c x11=0x00000018
        9135000	       912	80001f6c	014008ef	jal	x17,80001f6c	 x17=0x80001f6c
        9145000	       913	00000000	00000013	addi	x0,x0,0	  x0:0x00000000
        9155000	       914	80001f7c	00000013	addi	x0,x0,0	  x0:0x00000000
        9165000	       915	80001f80	034002ef	jal	x5,80001f80	  x5=0x80001f80
        9175000	       916	00000000	00000013	addi	x0,x0,0	  x0:0x00000000
        9185000	       917	80001fb0	00000013	addi	x0,x0,0	  x0:0x00000000
        9195000	       918	80001fb4	0100066f	jal	x12,80001fb4	 x12=0x80001fb4
        9205000	       919	00000000	00000013	addi	x0,x0,0	  x0:0x00000000
        9215000	       920	80001fc0	00000013	addi	x0,x0,0	  x0:0x00000000
        9225000	       921	80001fc4	ff5ff6ef	jal	x13,80001fc4	 x13=0x80001fc4
        9235000	       922	00000000	00000013	addi	x0,x0,0	  x0:0x00000000
        9245000	       923	80001fb4	00000013	addi	x0,x0,0	  x0:0x00000000
        9255000	       924	80001fb8	fb9ff0ef	jal	x1,80001fb8	  x1=0x80001fb8
        9265000	       925	00000000	00000013	addi	x0,x0,0	  x0:0x00000000
        9275000	       926	80001f6c	00000013	addi	x0,x0,0	  x0:0x00000000
        9285000	       927	80001f70	06c0056f	jal	x10,80001f70	 x10=0x80001f70
        9295000	       928	00000000	00000013	addi	x0,x0,0	  x0:0x00000000
        9305000	       929	80001fd8	00000013	addi	x0,x0,0	  x0:0x00000000
        9315000	       930	80001fdc	fa1ff8ef	jal	x17,80001fdc	 x17=0x80001fdc
        9325000	       931	00000000	00000013	addi	x0,x0,0	  x0:0x00000000
        9335000	       932	80001f78	00000013	addi	x0,x0,0	  x0:0x00000000
        9345000	       933	80001f7c	034005ef	jal	x11,80001f7c	 x11=0x80001f7c
        9355000	       934	00000000	00000013	addi	x0,x0,0	  x0:0x00000000
        9365000	       935	80001fac	00000013	addi	x0,x0,0	  x0:0x00000000
        9375000	       936	80001fb0	03400c6f	jal	x24,80001fb0	 x24=0x80001fb0
        9385000	       937	00000000	00000013	addi	x0,x0,0	  x0:0x00000000
        9395000	       938	80001fe0	00000013	addi	x0,x0,0	  x0:0x00000000
        9405000	       939	80001fe4	fb5ff36f	jal	x6,80001fe4	  x6=0x80001fe4
        9415000	       940	00000000	00000013	addi	x0,x0,0	  x0:0x00000000
        9425000	       941	80001f94	00000013	addi	x0,x0,0	  x0:0x00000000
        9435000	       942	80001f98	0280026f	jal	x4,80001f98	  x4=0x80001f98
        9445000	       943	00000000	00000013	addi	x0,x0,0	  x0:0x00000000
        9455000	       944	80001fbc	00000013	addi	x0,x0,0	  x0:0x00000000
        9465000	       945	80001fc0	ffdff36f	jal	x6,80001fc0	  x6=0x80001fc0
        9475000	       946	00000000	00000013	addi	x0,x0,0	  x0:0x00000000
        9485000	       947	80001fb8	00000013	addi	x0,x0,0	  x0:0x00000000
        9495000	       948	80001fbc	01800f6f	jal	x30,80001fbc	 x30=0x80001fbc
        9505000	       949	00000000	00000013	addi	x0,x0,0	  x0:0x00000000
        9515000	       950	80001fd0	00000013	addi	x0,x0,0	  x0:0x00000000
        9525000	       951	80001fd4	fb1ff0ef	jal	x1,80001fd4	  x1=0x80001fd4
        9535000	       952	00000000	00000013	addi	x0,x0,0	  x0:0x00000000
        9545000	       953	80001f80	00000013	addi	x0,x0,0	  x0:0x00000000
        9555000	       954	80001f84	01c0036f	jal	x6,80001f84	  x6=0x80001f84
        9565000	       955	00000000	00000013	addi	x0,x0,0	  x0:0x00000000
        9575000	       956	80001f9c	00000013	addi	x0,x0,0	  x0:0x00000000
        9585000	       957	80001fa0	fd5ff36f	jal	x6,80001fa0	  x6=0x80001fa0
        9595000	       958	00000000	00000013	addi	x0,x0,0	  x0:0x00000000
        9605000	       959	80001f70	00000013	addi	x0,x0,0	  x0:0x00000000
        9615000	       960	80001f74	030000ef	jal	x1,80001f74	  x1=0x80001f74
        9625000	       961	00000000	00000013	addi	x0,x0,0	  x0:0x00000000
        9635000	       962	80001fa0	00000013	addi	x0,x0,0	  x0:0x00000000
        9645000	       963	80001fa4	fd5ff0ef	jal	x1,80001fa4	  x1=0x80001fa4
        9655000	       964	00000000	00000013	addi	x0,x0,0	  x0:0x00000000
        9665000	       965	80001f74	00000013	addi	x0,x0,0	  x0:0x00000000
        9675000	       966	80001f78	034000ef	jal	x1,80001f78	  x1=0x80001f78
        9685000	       967	00000000	00000013	addi	x0,x0,0	  x0:0x00000000
        9695000	       968	80001fa8	00000013	addi	x0,x0,0	  x0:0x00000000
        9705000	       969	80001fac	024000ef	jal	x1,80001fac	  x1=0x80001fac
        9715000	       970	00000000	00000013	addi	x0,x0,0	  x0:0x00000000
        9725000	       971	80001fcc	00000013	addi	x0,x0,0	  x0:0x00000000
        9735000	       972	80001fd0	ffdff36f	jal	x6,80001fd0	  x6=0x80001fd0
        9745000	       973	00000000	00000013	addi	x0,x0,0	  x0:0x00000000
        9755000	       974	80001fc8	00000013	addi	x0,x0,0	  x0:0x00000000
        9765000	       975	80001fcc	fc9ff0ef	jal	x1,80001fcc	  x1=0x80001fcc
        9775000	       976	00000000	00000013	addi	x0,x0,0	  x0:0x00000000
        9785000	       977	80001f90	00000013	addi	x0,x0,0	  x0:0x00000000
        9795000	       978	80001f94	0440056f	jal	x10,80001f94	 x10=0x80001f94
        9805000	       979	00000000	00000013	addi	x0,x0,0	  x0:0x00000000
        9815000	       980	80001fd4	00000013	addi	x0,x0,0	  x0:0x00000000
        9825000	       981	80001fd8	fb5ff1ef	jal	x3,80001fd8	  x3=0x80001fd8
        9835000	       982	00000000	00000013	addi	x0,x0,0	  x0:0x00000000
        9845000	       983	80001f88	00000013	addi	x0,x0,0	  x0:0x00000000
        9855000	       984	80001f8c	010001ef	jal	x3,80001f8c	  x3=0x80001f8c
        9865000	       985	00000000	00000013	addi	x0,x0,0	  x0:0x00000000
        9875000	       986	80001f98	00000013	addi	x0,x0,0	  x0:0x00000000
        9885000	       987	80001f9c	02c000ef	jal	x1,80001f9c	  x1=0x80001f9c
        9895000	       988	00000000	00000013	addi	x0,x0,0	  x0:0x00000000
        9905000	       989	80001fc4	00000013	addi	x0,x0,0	  x0:0x00000000
        9915000	       990	80001fc8	0180036f	jal	x6,80001fc8	  x6=0x80001fc8
        9925000	       991	00000000	00000013	addi	x0,x0,0	  x0:0x00000000
        9935000	       992	80001fdc	00000013	addi	x0,x0,0	  x0:0x00000000
        9945000	       993	80001fe0	fb1ff6ef	jal	x13,80001fe0	 x13=0x80001fe0
        9955000	       994	00000000	00000013	addi	x0,x0,0	  x0:0x00000000
        9965000	       995	80001f8c	00000013	addi	x0,x0,0	  x0:0x00000000
        9975000	       996	80001f90	ff9ff9ef	jal	x19,80001f90	 x19=0x80001f90
        9985000	       997	00000000	00000013	addi	x0,x0,0	  x0:0x00000000
        9995000	       998	80001f84	00000013	addi	x0,x0,0	  x0:0x00000000
       10005000	       999	80001f88	020000ef	jal	x1,80001f88	  x1=0x80001f88
       10015000	      1000	00000000	00000013	addi	x0,x0,0	  x0:0x00000000
       10025000	      1001	80001fa4	00000013	addi	x0,x0,0	  x0:0x00000000
       10035000	      1002	80001fa8	040005ef	jal	x11,80001fa8	 x11=0x80001fa8
       10045000	      1003	00000000	00000013	addi	x0,x0,0	  x0:0x00000000
       10055000	      1004	80001fe4	00000013	addi	x0,x0,0	  x0:0x00000000
       10065000	      1005	80001fe8	41cd0bb3	sub	x23,x26,x28	 x26:0x00000002 x28:0x80001e14 x23=0x7fffe1ee
       10075000	      1006	80001fec	03c008ef	jal	x17,80001fec	 x17=0x80001fec
       10085000	      1007	00000000	00000013	addi	x0,x0,0	  x0:0x00000000
       10095000	      1008	80002024	00000013	addi	x0,x0,0	  x0:0x00000000
       10105000	      1009	80002028	ff1ff36f	jal	x6,80002028	  x6=0x80002028
       10115000	      1010	00000000	00000013	addi	x0,x0,0	  x0:0x00000000
       10125000	      1011	80002014	00000013	addi	x0,x0,0	  x0:0x00000000
       10135000	      1012	80002018	fddff36f	jal	x6,80002018	  x6=0x80002018
       10145000	      1013	00000000	00000013	addi	x0,x0,0	  x0:0x00000000
       10155000	      1014	80001ff0	00000013	addi	x0,x0,0	  x0:0x00000000
       10165000	      1015	80001ff4	028000ef	jal	x1,80001ff4	  x1=0x80001ff4
       10175000	      1016	00000000	00000013	addi	x0,x0,0	  x0:0x00000000
       10185000	      1017	80002018	00000013	addi	x0,x0,0	  x0:0x00000000
       10195000	      1018	8000201c	ff9ff3ef	jal	x7,8000201c	  x7=0x8000201c
       10205000	      1019	00000000	00000013	addi	x0,x0,0	  x0:0x00000000
       10215000	      1020	80002010	00000013	addi	x0,x0,0	  x0:0x00000000
       10225000	      1021	80002014	010000ef	jal	x1,80002014	  x1=0x80002014
       10235000	      1022	00000000	00000013	addi	x0,x0,0	  x0:0x00000000
       10245000	      1023	80002020	00000013	addi	x0,x0,0	  x0:0x00000000
       10255000	      1024	80002024	fe5ff0ef	jal	x1,80002024	  x1=0x80002024
       10265000	      1025	00000000	00000013	addi	x0,x0,0	  x0:0x00000000
       10275000	      1026	80002004	00000013	addi	x0,x0,0	  x0:0x00000000
       10285000	      1027	80002008	fe9ff1ef	jal	x3,80002008	  x3=0x80002008
       10295000	      1028	00000000	00000013	addi	x0,x0,0	  x0:0x00000000
       10305000	      1029	80001fec	00000013	addi	x0,x0,0	  x0:0x00000000
       10315000	      1030	80001ff0	01c0026f	jal	x4,80001ff0	  x4=0x80001ff0
       10325000	      1031	00000000	00000013	addi	x0,x0,0	  x0:0x00000000
       10335000	      1032	80002008	00000013	addi	x0,x0,0	  x0:0x00000000
       10345000	      1033	8000200c	004000ef	jal	x1,8000200c	  x1=0x8000200c
       10355000	      1034	00000000	00000013	addi	x0,x0,0	  x0:0x00000000
       10365000	      1035	8000200c	00000013	addi	x0,x0,0	  x0:0x00000000
       10375000	      1036	80002010	fedff0ef	jal	x1,80002010	  x1=0x80002010
       10385000	      1037	00000000	00000013	addi	x0,x0,0	  x0:0x00000000
       10395000	      1038	80001ff8	00000013	addi	x0,x0,0	  x0:0x00000000
       10405000	      1039	80001ffc	004000ef	jal	x1,80001ffc	  x1=0x80001ffc
       10415000	      1040	00000000	00000013	addi	x0,x0,0	  x0:0x00000000
       10425000	      1041	80001ffc	00000013	addi	x0,x0,0	  x0:0x00000000
       10435000	      1042	80002000	004000ef	jal	x1,80002000	  x1=0x80002000
       10445000	      1043	00000000	00000013	addi	x0,x0,0	  x0:0x00000000
       10455000	      1044	80002000	00000013	addi	x0,x0,0	  x0:0x00000000
       10465000	      1045	80002004	01c0036f	jal	x6,80002004	  x6=0x80002004
       10475000	      1046	00000000	00000013	addi	x0,x0,0	  x0:0x00000000
       10485000	      1047	8000201c	00000013	addi	x0,x0,0	  x0:0x00000000
       10495000	      1048	80002020	fd9ff0ef	jal	x1,80002020	  x1=0x80002020
       10505000	      1049	00000000	00000013	addi	x0,x0,0	  x0:0x00000000
       10515000	      1050	80001ff4	00000013	addi	x0,x0,0	  x0:0x00000000
       10525000	      1051	80001ff8	0340036f	jal	x6,80001ff8	  x6=0x80001ff8
       10535000	      1052	00000000	00000013	addi	x0,x0,0	  x0:0x00000000
       10545000	      1053	80002028	00000013	addi	x0,x0,0	  x0:0x00000000
       10555000	      1054	8000202c	7eccbc93	sltiu	x25,x25,2028	 x25:0x3d2333b7 x25=0x00000000
       10565000	      1055	80002030	00c008ef	jal	x17,80002030	 x17=0x80002030
       10575000	      1056	00000000	00000013	addi	x0,x0,0	  x0:0x00000000
       10585000	      1057	80002038	00000013	addi	x0,x0,0	  x0:0x00000000
       10595000	      1058	8000203c	00c000ef	jal	x1,8000203c	  x1=0x8000203c
       10605000	      1059	00000000	00000013	addi	x0,x0,0	  x0:0x00000000
       10615000	      1060	80002044	00000013	addi	x0,x0,0	  x0:0x00000000
       10625000	      1061	80002048	ff1ff9ef	jal	x19,80002048	 x19=0x80002048
       10635000	      1062	00000000	00000013	addi	x0,x0,0	  x0:0x00000000
       10645000	      1063	80002034	00000013	addi	x0,x0,0	  x0:0x00000000
       10655000	      1064	80002038	030000ef	jal	x1,80002038	  x1=0x80002038
       10665000	      1065	00000000	00000013	addi	x0,x0,0	  x0:0x00000000
       10675000	      1066	80002064	00000013	addi	x0,x0,0	  x0:0x00000000
       10685000	      1067	80002068	ffdff2ef	jal	x5,80002068	  x5=0x80002068
       10695000	      1068	00000000	00000013	addi	x0,x0,0	  x0:0x00000000
       10705000	      1069	80002060	00000013	addi	x0,x0,0	  x0:0x00000000
       10715000	      1070	80002064	fd1ff26f	jal	x4,80002064	  x4=0x80002064
       10725000	      1071	00000000	00000013	addi	x0,x0,0	  x0:0x00000000
       10735000	      1072	80002030	00000013	addi	x0,x0,0	  x0:0x00000000
       10745000	      1073	80002034	01c0036f	jal	x6,80002034	  x6=0x80002034
       10755000	      1074	00000000	00000013	addi	x0,x0,0	  x0:0x00000000
       10765000	      1075	8000204c	00000013	addi	x0,x0,0	  x0:0x00000000
       10775000	      1076	80002050	ff5ffdef	jal	x27,80002050	 x27=0x80002050
       10785000	      1077	00000000	00000013	addi	x0,x0,0	  x0:0x00000000
       10795000	      1078	80002040	00000013	addi	x0,x0,0	  x0:0x00000000
       10805000	      1079	80002044	0080036f	jal	x6,80002044	  x6=0x80002044
       10815000	      1080	00000000	00000013	addi	x0,x0,0	  x0:0x00000000
       10825000	      1081	80002048	00000013	addi	x0,x0,0	  x0:0x00000000
       10835000	      1082	8000204c	00c00cef	jal	x25,8000204c	 x25=0x8000204c
       10845000	      1083	00000000	00000013	addi	x0,x0,0	  x0:0x00000000
       10855000	      1084	80002054	00000013	addi	x0,x0,0	  x0:0x00000000
       10865000	      1085	80002058	fe9ff36f	jal	x6,80002058	  x6=0x80002058
       10875000	      1086	00000000	00000013	addi	x0,x0,0	  x0:0x00000000
       10885000	      1087	8000203c	00000013	addi	x0,x0,0	  x0:0x00000000
       10895000	      1088	80002040	0140036f	jal	x6,80002040	  x6=0x80002040
       10905000	      1089	00000000	00000013	addi	x0,x0,0	  x0:0x00000000
       10915000	      1090	80002050	00000013	addi	x0,x0,0	  x0:0x00000000
       10925000	      1091	80002054	00c000ef	jal	x1,80002054	  x1=0x80002054
       10935000	      1092	00000000	00000013	addi	x0,x0,0	  x0:0x00000000
       10945000	      1093	8000205c	00000013	addi	x0,x0,0	  x0:0x00000000
       10955000	      1094	80002060	ffdff0ef	jal	x1,80002060	  x1=0x80002060
       10965000	      1095	00000000	00000013	addi	x0,x0,0	  x0:0x00000000
       10975000	      1096	80002058	00000013	addi	x0,x0,0	  x0:0x00000000
       10985000	      1097	8000205c	010000ef	jal	x1,8000205c	  x1=0x8000205c
       10995000	      1098	00000000	00000013	addi	x0,x0,0	  x0:0x00000000
       11005000	      1099	80002068	00000013	addi	x0,x0,0	  x0:0x00000000
       11015000	      1100	8000206c	004000ef	jal	x1,8000206c	  x1=0x8000206c
       11025000	      1101	00000000	00000013	addi	x0,x0,0	  x0:0x00000000
       11035000	      1102	8000206c	00000013	addi	x0,x0,0	  x0:0x00000000
       11045000	      1103	80002070	00b2ae33	slt	x28,x5,x11	  x5:0x80002068 x11:0x80001fa8 x28=0x00000000
       11055000	      1104	80002074	048008ef	jal	x17,80002074	 x17=0x80002074
       11065000	      1105	00000000	00000013	addi	x0,x0,0	  x0:0x00000000
       11075000	      1106	800020b8	00000013	addi	x0,x0,0	  x0:0x00000000
       11085000	      1107	800020bc	fc5ff0ef	jal	x1,800020bc	  x1=0x800020bc
       11095000	      1108	00000000	00000013	addi	x0,x0,0	  x0:0x00000000
       11105000	      1109	8000207c	00000013	addi	x0,x0,0	  x0:0x00000000
       11115000	      1110	80002080	0300066f	jal	x12,80002080	 x12=0x80002080
       11125000	      1111	00000000	00000013	addi	x0,x0,0	  x0:0x00000000
       11135000	      1112	800020ac	00000013	addi	x0,x0,0	  x0:0x00000000
       11145000	      1113	800020b0	ffdff36f	jal	x6,800020b0	  x6=0x800020b0
       11155000	      1114	00000000	00000013	addi	x0,x0,0	  x0:0x00000000
       11165000	      1115	800020a8	00000013	addi	x0,x0,0	  x0:0x00000000
       11175000	      1116	800020ac	018000ef	jal	x1,800020ac	  x1=0x800020ac
       11185000	      1117	00000000	00000013	addi	x0,x0,0	  x0:0x00000000
       11195000	      1118	800020c0	00000013	addi	x0,x0,0	  x0:0x00000000
       11205000	      1119	800020c4	0200076f	jal	x14,800020c4	 x14=0x800020c4
       11215000	      1120	00000000	00000013	addi	x0,x0,0	  x0:0x00000000
       11225000	      1121	800020e0	00000013	addi	x0,x0,0	  x0:0x00000000
       11235000	      1122	800020e4	f95ff0ef	jal	x1,800020e4	  x1=0x800020e4
       11245000	      1123	00000000	00000013	addi	x0,x0,0	  x0:0x00000000
       11255000	      1124	80002074	00000013	addi	x0,x0,0	  x0:0x00000000
       11265000	      1125	80002078	050008ef	jal	x17,80002078	 x17=0x80002078
       11275000	      1126	00000000	00000013	addi	x0,x0,0	  x0:0x00000000
       11285000	      1127	800020c4	00000013	addi	x0,x0,0	  x0:0x00000000
       11295000	      1128	800020c8	fd5ff26f	jal	x4,800020c8	  x4=0x800020c8
       11305000	      1129	00000000	00000013	addi	x0,x0,0	  x0:0x00000000
       11315000	      1130	80002098	00000013	addi	x0,x0,0	  x0:0x00000000
       11325000	      1131	8000209c	004000ef	jal	x1,8000209c	  x1=0x8000209c
       11335000	      1132	00000000	00000013	addi	x0,x0,0	  x0:0x00000000
       11345000	      1133	8000209c	00000013	addi	x0,x0,0	  x0:0x00000000
       11355000	      1134	800020a0	02000b6f	jal	x22,800020a0	 x22=0x800020a0
       11365000	      1135	00000000	00000013	addi	x0,x0,0	  x0:0x00000000
       11375000	      1136	800020bc	00000013	addi	x0,x0,0	  x0:0x00000000
       11385000	      1137	800020c0	fe9ff4ef	jal	x9,800020c0	  x9=0x800020c0
       11395000	      1138	00000000	00000013	addi	x0,x0,0	  x0:0x00000000
       11405000	      1139	800020a4	00000013	addi	x0,x0,0	  x0:0x00000000
       11415000	      1140	800020a8	030000ef	jal	x1,800020a8	  x1=0x800020a8
       11425000	      1141	00000000	00000013	addi	x0,x0,0	  x0:0x00000000
       11435000	      1142	800020d4	00000013	addi	x0,x0,0	  x0:0x00000000
       11445000	      1143	800020d8	fb1ff1ef	jal	x3,800020d8	  x3=0x800020d8
       11455000	      1144	00000000	00000013	addi	x0,x0,0	  x0:0x00000000
       11465000	      1145	80002084	00000013	addi	x0,x0,0	  x0:0x00000000
       11475000	      1146	80002088	058008ef	jal	x17,80002088	 x17=0x80002088
       11485000	      1147	00000000	00000013	addi	x0,x0,0	  x0:0x00000000
       11495000	      1148	800020dc	00000013	addi	x0,x0,0	  x0:0x00000000
       11505000	      1149	800020e0	fd9ffc6f	jal	x24,800020e0	 x24=0x800020e0
       11515000	      1150	00000000	00000013	addi	x0,x0,0	  x0:0x00000000
       11525000	      1151	800020b4	00000013	addi	x0,x0,0	  x0:0x00000000
       11535000	      1152	800020b8	fcdff0ef	jal	x1,800020b8	  x1=0x800020b8
       11545000	      1153	00000000	00000013	addi	x0,x0,0	  x0:0x00000000
       11555000	      1154	80002080	00000013	addi	x0,x0,0	  x0:0x00000000
       11565000	      1155	80002084	0580036f	jal	x6,80002084	  x6=0x80002084
       11575000	      1156	00000000	00000013	addi	x0,x0,0	  x0:0x00000000
       11585000	      1157	800020d8	00000013	addi	x0,x0,0	  x0:0x00000000
       11595000	      1158	800020dc	fa1ff2ef	jal	x5,800020dc	  x5=0x800020dc
       11605000	      1159	00000000	00000013	addi	x0,x0,0	  x0:0x00000000
       11615000	      1160	80002078	00000013	addi	x0,x0,0	  x0:0x00000000
       11625000	      1161	8000207c	014000ef	jal	x1,8000207c	  x1=0x8000207c
       11635000	      1162	00000000	00000013	addi	x0,x0,0	  x0:0x00000000
       11645000	      1163	8000208c	00000013	addi	x0,x0,0	  x0:0x00000000
       11655000	      1164	80002090	ffdff0ef	jal	x1,80002090	  x1=0x80002090
       11665000	      1165	00000000	00000013	addi	x0,x0,0	  x0:0x00000000
       11675000	      1166	80002088	00000013	addi	x0,x0,0	  x0:0x00000000
       11685000	      1167	8000208c	028000ef	jal	x1,8000208c	  x1=0x8000208c
       11695000	      1168	00000000	00000013	addi	x0,x0,0	  x0:0x00000000
       11705000	      1169	800020b0	00000013	addi	x0,x0,0	  x0:0x00000000
       11715000	      1170	800020b4	018000ef	jal	x1,800020b4	  x1=0x800020b4
       11725000	      1171	00000000	00000013	addi	x0,x0,0	  x0:0x00000000
       11735000	      1172	800020c8	00000013	addi	x0,x0,0	  x0:0x00000000
       11745000	      1173	800020cc	fd9ff76f	jal	x14,800020cc	 x14=0x800020cc
       11755000	      1174	00000000	00000013	addi	x0,x0,0	  x0:0x00000000
       11765000	      1175	800020a0	00000013	addi	x0,x0,0	  x0:0x00000000
       11775000	      1176	800020a4	02c0046f	jal	x8,800020a4	  x8=0x800020a4
       11785000	      1177	00000000	00000013	addi	x0,x0,0	  x0:0x00000000
       11795000	      1178	800020cc	00000013	addi	x0,x0,0	  x0:0x00000000
       11805000	      1179	800020d0	fc9ff1ef	jal	x3,800020d0	  x3=0x800020d0
       11815000	      1180	00000000	00000013	addi	x0,x0,0	  x0:0x00000000
       11825000	      1181	80002094	00000013	addi	x0,x0,0	  x0:0x00000000
       11835000	      1182	80002098	03c000ef	jal	x1,80002098	  x1=0x80002098
       11845000	      1183	00000000	00000013	addi	x0,x0,0	  x0:0x00000000
       11855000	      1184	800020d0	00000013	addi	x0,x0,0	  x0:0x00000000
       11865000	      1185	800020d4	fc1ff0ef	jal	x1,800020d4	  x1=0x800020d4
       11875000	      1186	00000000	00000013	addi	x0,x0,0	  x0:0x00000000
       11885000	      1187	80002090	00000013	addi	x0,x0,0	  x0:0x00000000
       11895000	      1188	80002094	0540026f	jal	x4,80002094	  x4=0x80002094
       11905000	      1189	00000000	00000013	addi	x0,x0,0	  x0:0x00000000
       11915000	      1190	800020e4	00000013	addi	x0,x0,0	  x0:0x00000000
       11925000	      1191	800020e8	007928b3	slt	x17,x18,x7	 x18:0x80001f58  x7:0x8000201c x17=0x00000001
       11935000	      1192	800020ec	024008ef	jal	x17,800020ec	 x17=0x800020ec
       11945000	      1193	00000000	00000013	addi	x0,x0,0	  x0:0x00000000
       11955000	      1194	8000210c	00000013	addi	x0,x0,0	  x0:0x00000000
       11965000	      1195	80002110	00c000ef	jal	x1,80002110	  x1=0x80002110
       11975000	      1196	00000000	00000013	addi	x0,x0,0	  x0:0x00000000
       11985000	      1197	80002118	00000013	addi	x0,x0,0	  x0:0x00000000
       11995000	      1198	8000211c	fedff0ef	jal	x1,8000211c	  x1=0x8000211c
       12005000	      1199	00000000	00000013	addi	x0,x0,0	  x0:0x00000000
       12015000	      1200	80002104	00000013	addi	x0,x0,0	  x0:0x00000000
       12025000	      1201	80002108	ff5ff0ef	jal	x1,80002108	  x1=0x80002108
       12035000	      1202	00000000	00000013	addi	x0,x0,0	  x0:0x00000000
       12045000	      1203	800020f8	00000013	addi	x0,x0,0	  x0:0x00000000
       12055000	      1204	800020fc	02c000ef	jal	x1,800020fc	  x1=0x800020fc
       12065000	      1205	00000000	00000013	addi	x0,x0,0	  x0:0x00000000
       12075000	      1206	80002124	00000013	addi	x0,x0,0	  x0:0x00000000
       12085000	      1207	80002128	004000ef	jal	x1,80002128	  x1=0x80002128
       12095000	      1208	00000000	00000013	addi	x0,x0,0	  x0:0x00000000
       12105000	      1209	80002128	00000013	addi	x0,x0,0	  x0:0x00000000
       12115000	      1210	8000212c	fcdff66f	jal	x12,8000212c	 x12=0x8000212c
       12125000	      1211	00000000	00000013	addi	x0,x0,0	  x0:0x00000000
       12135000	      1212	800020f4	00000013	addi	x0,x0,0	  x0:0x00000000
       12145000	      1213	800020f8	04000aef	jal	x21,800020f8	 x21=0x800020f8
       12155000	      1214	00000000	00000013	addi	x0,x0,0	  x0:0x00000000
       12165000	      1215	80002134	00000013	addi	x0,x0,0	  x0:0x00000000
       12175000	      1216	80002138	ffdff0ef	jal	x1,80002138	  x1=0x80002138
       12185000	      1217	00000000	00000013	addi	x0,x0,0	  x0:0x00000000
       12195000	      1218	80002130	00000013	addi	x0,x0,0	  x0:0x00000000
       12205000	      1219	80002134	ff1ff0ef	jal	x1,80002134	  x1=0x80002134
       12215000	      1220	00000000	00000013	addi	x0,x0,0	  x0:0x00000000
       12225000	      1221	80002120	00000013	addi	x0,x0,0	  x0:0x00000000
       12235000	      1222	80002124	ff5ff0ef	jal	x1,80002124	  x1=0x80002124
       12245000	      1223	00000000	00000013	addi	x0,x0,0	  x0:0x00000000
       12255000	      1224	80002114	00000013	addi	x0,x0,0	  x0:0x00000000
       12265000	      1225	80002118	024000ef	jal	x1,80002118	  x1=0x80002118
       12275000	      1226	00000000	00000013	addi	x0,x0,0	  x0:0x00000000
       12285000	      1227	80002138	00000013	addi	x0,x0,0	  x0:0x00000000
       12295000	      1228	8000213c	fe5ff0ef	jal	x1,8000213c	  x1=0x8000213c
       12305000	      1229	00000000	00000013	addi	x0,x0,0	  x0:0x00000000
       12315000	      1230	8000211c	00000013	addi	x0,x0,0	  x0:0x00000000
       12325000	      1231	80002120	ff5ff0ef	jal	x1,80002120	  x1=0x80002120
       12335000	      1232	00000000	00000013	addi	x0,x0,0	  x0:0x00000000
       12345000	      1233	80002110	00000013	addi	x0,x0,0	  x0:0x00000000
       12355000	      1234	80002114	ff1ff26f	jal	x4,80002114	  x4=0x80002114
       12365000	      1235	00000000	00000013	addi	x0,x0,0	  x0:0x00000000
       12375000	      1236	80002100	00000013	addi	x0,x0,0	  x0:0x00000000
       12385000	      1237	80002104	02c000ef	jal	x1,80002104	  x1=0x80002104
       12395000	      1238	00000000	00000013	addi	x0,x0,0	  x0:0x00000000
       12405000	      1239	8000212c	00000013	addi	x0,x0,0	  x0:0x00000000
       12415000	      1240	80002130	fc1ff0ef	jal	x1,80002130	  x1=0x80002130
       12425000	      1241	00000000	00000013	addi	x0,x0,0	  x0:0x00000000
       12435000	      1242	800020ec	00000013	addi	x0,x0,0	  x0:0x00000000
       12445000	      1243	800020f0	01c0036f	jal	x6,800020f0	  x6=0x800020f0
       12455000	      1244	00000000	00000013	addi	x0,x0,0	  x0:0x00000000
       12465000	      1245	80002108	00000013	addi	x0,x0,0	  x0:0x00000000
       12475000	      1246	8000210c	ff5ff0ef	jal	x1,8000210c	  x1=0x8000210c
       12485000	      1247	00000000	00000013	addi	x0,x0,0	  x0:0x00000000
       12495000	      1248	800020fc	00000013	addi	x0,x0,0	  x0:0x00000000
       12505000	      1249	80002100	ff5ff0ef	jal	x1,80002100	  x1=0x80002100
       12515000	      1250	00000000	00000013	addi	x0,x0,0	  x0:0x00000000
       12525000	      1251	800020f0	00000013	addi	x0,x0,0	  x0:0x00000000
       12535000	      1252	800020f4	04c000ef	jal	x1,800020f4	  x1=0x800020f4
       12545000	      1253	00000000	00000013	addi	x0,x0,0	  x0:0x00000000
       12555000	      1254	8000213c	00000013	addi	x0,x0,0	  x0:0x00000000
       12565000	      1255	80002140	40b0e293	ori	x5,x1,1035	  x1:0x800020f4  x5=0x800024ff
       12575000	      1256	80002144	020008ef	jal	x17,80002144	 x17=0x80002144
       12585000	      1257	00000000	00000013	addi	x0,x0,0	  x0:0x00000000
       12595000	      1258	80002160	00000013	addi	x0,x0,0	  x0:0x00000000
       12605000	      1259	80002164	0180036f	jal	x6,80002164	  x6=0x80002164
       12615000	      1260	00000000	00000013	addi	x0,x0,0	  x0:0x00000000
       12625000	      1261	80002178	00000013	addi	x0,x0,0	  x0:0x00000000
       12635000	      1262	8000217c	fd9ff0ef	jal	x1,8000217c	  x1=0x8000217c
       12645000	      1263	00000000	00000013	addi	x0,x0,0	  x0:0x00000000
       12655000	      1264	80002150	00000013	addi	x0,x0,0	  x0:0x00000000
       12665000	      1265	80002154	0340036f	jal	x6,80002154	  x6=0x80002154
       12675000	      1266	00000000	00000013	addi	x0,x0,0	  x0:0x00000000
       12685000	      1267	80002184	00000013	addi	x0,x0,0	  x0:0x00000000
       12695000	      1268	80002188	fc5ff0ef	jal	x1,80002188	  x1=0x80002188
       12705000	      1269	00000000	00000013	addi	x0,x0,0	  x0:0x00000000
       12715000	      1270	80002148	00000013	addi	x0,x0,0	  x0:0x00000000
       12725000	      1271	8000214c	0400036f	jal	x6,8000214c	  x6=0x8000214c
       12735000	      1272	00000000	00000013	addi	x0,x0,0	  x0:0x00000000
       12745000	      1273	80002188	00000013	addi	x0,x0,0	  x0:0x00000000
       12755000	      1274	8000218c	ff9ff26f	jal	x4,8000218c	  x4=0x8000218c
       12765000	      1275	00000000	00000013	addi	x0,x0,0	  x0:0x00000000
       12775000	      1276	80002180	00000013	addi	x0,x0,0	  x0:0x00000000
       12785000	      1277	80002184	fedff0ef	jal	x1,80002184	  x1=0x80002184
       12795000	      1278	00000000	00000013	addi	x0,x0,0	  x0:0x00000000
       12805000	      1279	8000216c	00000013	addi	x0,x0,0	  x0:0x00000000
       12815000	      1280	80002170	fe1ff0ef	jal	x1,80002170	  x1=0x80002170
       12825000	      1281	00000000	00000013	addi	x0,x0,0	  x0:0x00000000
       12835000	      1282	8000214c	00000013	addi	x0,x0,0	  x0:0x00000000
       12845000	      1283	80002150	030000ef	jal	x1,80002150	  x1=0x80002150
       12855000	      1284	00000000	00000013	addi	x0,x0,0	  x0:0x00000000
       12865000	      1285	8000217c	00000013	addi	x0,x0,0	  x0:0x00000000
       12875000	      1286	80002180	fd9ff3ef	jal	x7,80002180	  x7=0x80002180
       12885000	      1287	00000000	00000013	addi	x0,x0,0	  x0:0x00000000
       12895000	      1288	80002154	00000013	addi	x0,x0,0	  x0:0x00000000
       12905000	      1289	80002158	ff1ff0ef	jal	x1,80002158	  x1=0x80002158
       12915000	      1290	00000000	00000013	addi	x0,x0,0	  x0:0x00000000
       12925000	      1291	80002144	00000013	addi	x0,x0,0	  x0:0x00000000
       12935000	      1292	80002148	018004ef	jal	x9,80002148	  x9=0x80002148
       12945000	      1293	00000000	00000013	addi	x0,x0,0	  x0:0x00000000
       12955000	      1294	8000215c	00000013	addi	x0,x0,0	  x0:0x00000000
       12965000	      1295	80002160	00c0036f	jal	x6,80002160	  x6=0x80002160
       12975000	      1296	00000000	00000013	addi	x0,x0,0	  x0:0x00000000
       12985000	      1297	80002168	00000013	addi	x0,x0,0	  x0:0x00000000
       12995000	      1298	8000216c	00c006ef	jal	x13,8000216c	 x13=0x8000216c
       13005000	      1299	00000000	00000013	addi	x0,x0,0	  x0:0x00000000
       13015000	      1300	80002174	00000013	addi	x0,x0,0	  x0:0x00000000
       13025000	      1301	80002178	ff1ff0ef	jal	x1,80002178	  x1=0x80002178
       13035000	      1302	00000000	00000013	addi	x0,x0,0	  x0:0x00000000
       13045000	      1303	80002164	00000013	addi	x0,x0,0	  x0:0x00000000
       13055000	      1304	80002168	ff5ffdef	jal	x27,80002168	 x27=0x80002168
       13065000	      1305	00000000	00000013	addi	x0,x0,0	  x0:0x00000000
       13075000	      1306	80002158	00000013	addi	x0,x0,0	  x0:0x00000000
       13085000	      1307	8000215c	03400c6f	jal	x24,8000215c	 x24=0x8000215c
       13095000	      1308	00000000	00000013	addi	x0,x0,0	  x0:0x00000000
       13105000	      1309	8000218c	00000013	addi	x0,x0,0	  x0:0x00000000
       13115000	      1310	80002190	fe5ff0ef	jal	x1,80002190	  x1=0x80002190
       13125000	      1311	00000000	00000013	addi	x0,x0,0	  x0:0x00000000
       13135000	      1312	80002170	00000013	addi	x0,x0,0	  x0:0x00000000
       13145000	      1313	80002174	0200036f	jal	x6,80002174	  x6=0x80002174
       13155000	      1314	00000000	00000013	addi	x0,x0,0	  x0:0x00000000
       13165000	      1315	80002190	00000013	addi	x0,x0,0	  x0:0x00000000
       13175000	      1316	80002194	00e97a33	and	x20,x18,x14	 x18:0x80001f58 x14:0x800020cc x20=0x80000048
       13185000	      1317	80002198	014008ef	jal	x17,80002198	 x17=0x80002198
       13195000	      1318	00000000	00000013	addi	x0,x0,0	  x0:0x00000000
       13205000	      1319	800021a8	00000013	addi	x0,x0,0	  x0:0x00000000
       13215000	      1320	800021ac	ff5ff36f	jal	x6,800021ac	  x6=0x800021ac
       13225000	      1321	00000000	00000013	addi	x0,x0,0	  x0:0x00000000
       13235000	      1322	8000219c	00000013	addi	x0,x0,0	  x0:0x00000000
       13245000	      1323	800021a0	ffdff0ef	jal	x1,800021a0	  x1=0x800021a0
       13255000	      1324	00000000	00000013	addi	x0,x0,0	  x0:0x00000000
       13265000	      1325	80002198	00000013	addi	x0,x0,0	  x0:0x00000000
       13275000	      1326	8000219c	008008ef	jal	x17,8000219c	 x17=0x8000219c
       13285000	      1327	00000000	00000013	addi	x0,x0,0	  x0:0x00000000
       13295000	      1328	800021a0	00000013	addi	x0,x0,0	  x0:0x00000000
       13305000	      1329	800021a4	0040026f	jal	x4,800021a4	  x4=0x800021a4
       13315000	      1330	00000000	00000013	addi	x0,x0,0	  x0:0x00000000
       13325000	      1331	800021a4	00000013	addi	x0,x0,0	  x0:0x00000000
       13335000	      1332	800021a8	010000ef	jal	x1,800021a8	  x1=0x800021a8
       13345000	      1333	00000000	00000013	addi	x0,x0,0	  x0:0x00000000
       13355000	      1334	800021b4	00000013	addi	x0,x0,0	  x0:0x00000000
       13365000	      1335	800021b8	ff9ff0ef	jal	x1,800021b8	  x1=0x800021b8
       13375000	      1336	00000000	00000013	addi	x0,x0,0	  x0:0x00000000
       13385000	      1337	800021ac	00000013	addi	x0,x0,0	  x0:0x00000000
       13395000	      1338	800021b0	004000ef	jal	x1,800021b0	  x1=0x800021b0
       13405000	      1339	00000000	00000013	addi	x0,x0,0	  x0:0x00000000
       13415000	      1340	800021b0	00000013	addi	x0,x0,0	  x0:0x00000000
       13425000	      1341	800021b4	0080036f	jal	x6,800021b4	  x6=0x800021b4
       13435000	      1342	00000000	00000013	addi	x0,x0,0	  x0:0x00000000
       13445000	      1343	800021b8	00000013	addi	x0,x0,0	  x0:0x00000000
       13455000	      1344	800021bc	00c004ef	jal	x9,800021bc	  x9=0x800021bc
       13465000	      1345	00000000	00000013	addi	x0,x0,0	  x0:0x00000000
       13475000	      1346	800021c4	00000013	addi	x0,x0,0	  x0:0x00000000
       13485000	      1347	800021c8	ffdff96f	jal	x18,800021c8	 x18=0x800021c8
       13495000	      1348	00000000	00000013	addi	x0,x0,0	  x0:0x00000000
       13505000	      1349	800021c0	00000013	addi	x0,x0,0	  x0:0x00000000
       13515000	      1350	800021c4	ffdff0ef	jal	x1,800021c4	  x1=0x800021c4
       13525000	      1351	00000000	00000013	addi	x0,x0,0	  x0:0x00000000
       13535000	      1352	800021bc	00000013	addi	x0,x0,0	  x0:0x00000000
       13545000	      1353	800021c0	00c001ef	jal	x3,800021c0	  x3=0x800021c0
       13555000	      1354	00000000	00000013	addi	x0,x0,0	  x0:0x00000000
       13565000	      1355	800021c8	00000013	addi	x0,x0,0	  x0:0x00000000
       13575000	      1356	800021cc	591908b7	lui	x17,0x59190	 x17=0x59190000
       13585000	      1357	800021d0	040008ef	jal	x17,800021d0	 x17=0x800021d0
       13595000	      1358	00000000	00000013	addi	x0,x0,0	  x0:0x00000000
       13605000	      1359	8000220c	00000013	addi	x0,x0,0	  x0:0x00000000
       13615000	      1360	80002210	0040036f	jal	x6,80002210	  x6=0x80002210
       13625000	      1361	00000000	00000013	addi	x0,x0,0	  x0:0x00000000
       13635000	      1362	80002210	00000013	addi	x0,x0,0	  x0:0x00000000
       13645000	      1363	80002214	fc5ff0ef	jal	x1,80002214	  x1=0x80002214
       13655000	      1364	00000000	00000013	addi	x0,x0,0	  x0:0x00000000
       13665000	      1365	800021d4	00000013	addi	x0,x0,0	  x0:0x00000000
       13675000	      1366	800021d8	ffdff2ef	jal	x5,800021d8	  x5=0x800021d8
       13685000	      1367	00000000	00000013	addi	x0,x0,0	  x0:0x00000000
       13695000	      1368	800021d0	00000013	addi	x0,x0,0	  x0:0x00000000
       13705000	      1369	800021d4	02c0036f	jal	x6,800021d4	  x6=0x800021d4
       13715000	      1370	00000000	00000013	addi	x0,x0,0	  x0:0x00000000
       13725000	      1371	800021fc	00000013	addi	x0,x0,0	  x0:0x00000000
       13735000	      1372	80002200	008000ef	jal	x1,80002200	  x1=0x80002200
       13745000	      1373	00000000	00000013	addi	x0,x0,0	  x0:0x00000000
       13755000	      1374	80002204	00000013	addi	x0,x0,0	  x0:0x00000000
       13765000	      1375	80002208	fe5ff36f	jal	x6,80002208	  x6=0x80002208
       13775000	      1376	00000000	00000013	addi	x0,x0,0	  x0:0x00000000
       13785000	      1377	800021e8	00000013	addi	x0,x0,0	  x0:0x00000000
       13795000	      1378	800021ec	ff1ff36f	jal	x6,800021ec	  x6=0x800021ec
       13805000	      1379	00000000	00000013	addi	x0,x0,0	  x0:0x00000000
       13815000	      1380	800021d8	00000013	addi	x0,x0,0	  x0:0x00000000
       13825000	      1381	800021dc	004004ef	jal	x9,800021dc	  x9=0x800021dc
       13835000	      1382	00000000	00000013	addi	x0,x0,0	  x0:0x00000000
       13845000	      1383	800021dc	00000013	addi	x0,x0,0	  x0:0x00000000
       13855000	      1384	800021e0	02c000ef	jal	x1,800021e0	  x1=0x800021e0
       13865000	      1385	00000000	00000013	addi	x0,x0,0	  x0:0x00000000
       13875000	      1386	80002208	00000013	addi	x0,x0,0	  x0:0x00000000
       13885000	      1387	8000220c	fedff0ef	jal	x1,8000220c	  x1=0x8000220c
       13895000	      1388	00000000	00000013	addi	x0,x0,0	  x0:0x00000000
       13905000	      1389	800021f4	00000013	addi	x0,x0,0	  x0:0x00000000
       13915000	      1390	800021f8	ff1ff0ef	jal	x1,800021f8	  x1=0x800021f8
       13925000	      1391	00000000	00000013	addi	x0,x0,0	  x0:0x00000000
       13935000	      1392	800021e4	00000013	addi	x0,x0,0	  x0:0x00000000
       13945000	      1393	800021e8	0140036f	jal	x6,800021e8	  x6=0x800021e8
       13955000	      1394	00000000	00000013	addi	x0,x0,0	  x0:0x00000000
       13965000	      1395	800021f8	00000013	addi	x0,x0,0	  x0:0x00000000
       13975000	      1396	800021fc	008000ef	jal	x1,800021fc	  x1=0x800021fc
       13985000	      1397	00000000	00000013	addi	x0,x0,0	  x0:0x00000000
       13995000	      1398	80002200	00000013	addi	x0,x0,0	  x0:0x00000000
       14005000	      1399	80002204	fedff0ef	jal	x1,80002204	  x1=0x80002204
       14015000	      1400	00000000	00000013	addi	x0,x0,0	  x0:0x00000000
       14025000	      1401	800021ec	00000013	addi	x0,x0,0	  x0:0x00000000
       14035000	      1402	800021f0	ff5ff36f	jal	x6,800021f0	  x6=0x800021f0
       14045000	      1403	00000000	00000013	addi	x0,x0,0	  x0:0x00000000
       14055000	      1404	800021e0	00000013	addi	x0,x0,0	  x0:0x00000000
       14065000	      1405	800021e4	034000ef	jal	x1,800021e4	  x1=0x800021e4
       14075000	      1406	00000000	00000013	addi	x0,x0,0	  x0:0x00000000
       14085000	      1407	80002214	00000013	addi	x0,x0,0	  x0:0x00000000
       14095000	      1408	80002218	fddff0ef	jal	x1,80002218	  x1=0x80002218
       14105000	      1409	00000000	00000013	addi	x0,x0,0	  x0:0x00000000
       14115000	      1410	800021f0	00000013	addi	x0,x0,0	  x0:0x00000000
       14125000	      1411	800021f4	028000ef	jal	x1,800021f4	  x1=0x800021f4
       14135000	      1412	00000000	00000013	addi	x0,x0,0	  x0:0x00000000
       14145000	      1413	80002218	00000013	addi	x0,x0,0	  x0:0x00000000
       14155000	      1414	8000221c	75026717	auipc	x14,0x75026	 x14=0xf5028218
       14165000	      1415	80002220	028008ef	jal	x17,80002220	 x17=0x80002220
       14175000	      1416	00000000	00000013	addi	x0,x0,0	  x0:0x00000000
       14185000	      1417	80002244	00000013	addi	x0,x0,0	  x0:0x00000000
       14195000	      1418	80002248	018001ef	jal	x3,80002248	  x3=0x80002248
       14205000	      1419	00000000	00000013	addi	x0,x0,0	  x0:0x00000000
       14215000	      1420	8000225c	00000013	addi	x0,x0,0	  x0:0x00000000
       14225000	      1421	80002260	ff5ff0ef	jal	x1,80002260	  x1=0x80002260
       14235000	      1422	00000000	00000013	addi	x0,x0,0	  x0:0x00000000
       14245000	      1423	80002250	00000013	addi	x0,x0,0	  x0:0x00000000
       14255000	      1424	80002254	fe1ff4ef	jal	x9,80002254	  x9=0x80002254
       14265000	      1425	00000000	00000013	addi	x0,x0,0	  x0:0x00000000
       14275000	      1426	80002230	00000013	addi	x0,x0,0	  x0:0x00000000
       14285000	      1427	80002234	00c0056f	jal	x10,80002234	 x10=0x80002234
       14295000	      1428	00000000	00000013	addi	x0,x0,0	  x0:0x00000000
       14305000	      1429	8000223c	00000013	addi	x0,x0,0	  x0:0x00000000
       14315000	      1430	80002240	ff1fff6f	jal	x30,80002240	 x30=0x80002240
       14325000	      1431	00000000	00000013	addi	x0,x0,0	  x0:0x00000000
       14335000	      1432	8000222c	00000013	addi	x0,x0,0	  x0:0x00000000
       14345000	      1433	80002230	ff9ff0ef	jal	x1,80002230	  x1=0x80002230
       14355000	      1434	00000000	00000013	addi	x0,x0,0	  x0:0x00000000
       14365000	      1435	80002224	00000013	addi	x0,x0,0	  x0:0x00000000
       14375000	      1436	80002228	0100036f	jal	x6,80002228	  x6=0x80002228
       14385000	      1437	00000000	00000013	addi	x0,x0,0	  x0:0x00000000
       14395000	      1438	80002234	00000013	addi	x0,x0,0	  x0:0x00000000
       14405000	      1439	80002238	fedffcef	jal	x25,80002238	 x25=0x80002238
       14415000	      1440	00000000	00000013	addi	x0,x0,0	  x0:0x00000000
       14425000	      1441	80002220	00000013	addi	x0,x0,0	  x0:0x00000000
       14435000	      1442	80002224	0380036f	jal	x6,80002224	  x6=0x80002224
       14445000	      1443	00000000	00000013	addi	x0,x0,0	  x0:0x00000000
       14455000	      1444	80002258	00000013	addi	x0,x0,0	  x0:0x00000000
       14465000	      1445	8000225c	008000ef	jal	x1,8000225c	  x1=0x8000225c
       14475000	      1446	00000000	00000013	addi	x0,x0,0	  x0:0x00000000
       14485000	      1447	80002260	00000013	addi	x0,x0,0	  x0:0x00000000
       14495000	      1448	80002264	fedff0ef	jal	x1,80002264	  x1=0x80002264
       14505000	      1449	00000000	00000013	addi	x0,x0,0	  x0:0x00000000
       14515000	      1450	8000224c	00000013	addi	x0,x0,0	  x0:0x00000000
       14525000	      1451	80002250	fedff2ef	jal	x5,80002250	  x5=0x80002250
       14535000	      1452	00000000	00000013	addi	x0,x0,0	  x0:0x00000000
       14545000	      1453	80002238	00000013	addi	x0,x0,0	  x0:0x00000000
       14555000	      1454	8000223c	008000ef	jal	x1,8000223c	  x1=0x8000223c
       14565000	      1455	00000000	00000013	addi	x0,x0,0	  x0:0x00000000
       14575000	      1456	80002240	00000013	addi	x0,x0,0	  x0:0x00000000
       14585000	      1457	80002244	fe9ff3ef	jal	x7,80002244	  x7=0x80002244
       14595000	      1458	00000000	00000013	addi	x0,x0,0	  x0:0x00000000
       14605000	      1459	80002228	00000013	addi	x0,x0,0	  x0:0x00000000
       14615000	      1460	8000222c	02c00c6f	jal	x24,8000222c	 x24=0x8000222c
       14625000	      1461	00000000	00000013	addi	x0,x0,0	  x0:0x00000000
       14635000	      1462	80002254	00000013	addi	x0,x0,0	  x0:0x00000000
       14645000	      1463	80002258	ff5ff0ef	jal	x1,80002258	  x1=0x80002258
       14655000	      1464	00000000	00000013	addi	x0,x0,0	  x0:0x00000000
       14665000	      1465	80002248	00000013	addi	x0,x0,0	  x0:0x00000000
       14675000	      1466	8000224c	01c0036f	jal	x6,8000224c	  x6=0x8000224c
       14685000	      1467	00000000	00000013	addi	x0,x0,0	  x0:0x00000000
       14695000	      1468	80002264	00000013	addi	x0,x0,0	  x0:0x00000000
       14705000	      1469	80002268	0040036f	jal	x6,80002268	  x6=0x80002268
       14715000	      1470	00000000	00000013	addi	x0,x0,0	  x0:0x00000000
       14725000	      1471	80002268	00000013	addi	x0,x0,0	  x0:0x00000000
       14735000	      1472	8000226c	3b898513	addi	x10,x19,952	 x19:0x80002048 x10=0x80002400
       14745000	      1473	80002270	058008ef	jal	x17,80002270	 x17=0x80002270
       14755000	      1474	00000000	00000013	addi	x0,x0,0	  x0:0x00000000
       14765000	      1475	800022c4	00000013	addi	x0,x0,0	  x0:0x00000000
       14775000	      1476	800022c8	fb5ff56f	jal	x10,800022c8	 x10=0x800022c8
       14785000	      1477	00000000	00000013	addi	x0,x0,0	  x0:0x00000000
       14795000	      1478	80002278	00000013	addi	x0,x0,0	  x0:0x00000000
       14805000	      1479	8000227c	0540036f	jal	x6,8000227c	  x6=0x8000227c
       14815000	      1480	00000000	00000013	addi	x0,x0,0	  x0:0x00000000
       14825000	      1481	800022cc	00000013	addi	x0,x0,0	  x0:0x00000000
       14835000	      1482	800022d0	fc5ff36f	jal	x6,800022d0	  x6=0x800022d0
       14845000	      1483	00000000	00000013	addi	x0,x0,0	  x0:0x00000000
       14855000	      1484	80002290	00000013	addi	x0,x0,0	  x0:0x00000000
       14865000	      1485	80002294	038002ef	jal	x5,80002294	  x5=0x80002294
       14875000	      1486	00000000	00000013	addi	x0,x0,0	  x0:0x00000000
       14885000	      1487	800022c8	00000013	addi	x0,x0,0	  x0:0x00000000
       14895000	      1488	800022cc	fb5ff36f	jal	x6,800022cc	  x6=0x800022cc
       14905000	      1489	00000000	00000013	addi	x0,x0,0	  x0:0x00000000
       14915000	      1490	8000227c	00000013	addi	x0,x0,0	  x0:0x00000000
       14925000	      1491	80002280	024000ef	jal	x1,80002280	  x1=0x80002280
       14935000	      1492	00000000	00000013	addi	x0,x0,0	  x0:0x00000000
       14945000	      1493	800022a0	00000013	addi	x0,x0,0	  x0:0x00000000
       14955000	      1494	800022a4	fd5ffeef	jal	x29,800022a4	 x29=0x800022a4
       14965000	      1495	00000000	00000013	addi	x0,x0,0	  x0:0x00000000
       14975000	      1496	80002274	00000013	addi	x0,x0,0	  x0:0x00000000
       14985000	      1497	80002278	068000ef	jal	x1,80002278	  x1=0x80002278
       14995000	      1498	00000000	00000013	addi	x0,x0,0	  x0:0x00000000
       15005000	      1499	800022dc	00000013	addi	x0,x0,0	  x0:0x00000000
       15015000	      1500	800022e0	fbdff0ef	jal	x1,800022e0	  x1=0x800022e0
       15025000	      1501	00000000	00000013	addi	x0,x0,0	  x0:0x00000000
       15035000	      1502	80002298	00000013	addi	x0,x0,0	  x0:0x00000000
       15045000	      1503	8000229c	ff5ffaef	jal	x21,8000229c	 x21=0x8000229c
       15055000	      1504	00000000	00000013	addi	x0,x0,0	  x0:0x00000000
       15065000	      1505	8000228c	00000013	addi	x0,x0,0	  x0:0x00000000
       15075000	      1506	80002290	0440076f	jal	x14,80002290	 x14=0x80002290
       15085000	      1507	00000000	00000013	addi	x0,x0,0	  x0:0x00000000
       15095000	      1508	800022d0	00000013	addi	x0,x0,0	  x0:0x00000000
       15105000	      1509	800022d4	008000ef	jal	x1,800022d4	  x1=0x800022d4
       15115000	      1510	00000000	00000013	addi	x0,x0,0	  x0:0x00000000
       15125000	      1511	800022d8	00000013	addi	x0,x0,0	  x0:0x00000000
       15135000	      1512	800022dc	fcdff0ef	jal	x1,800022dc	  x1=0x800022dc
       15145000	      1513	00000000	00000013	addi	x0,x0,0	  x0:0x00000000
       15155000	      1514	800022a4	00000013	addi	x0,x0,0	  x0:0x00000000
       15165000	      1515	800022a8	fe5ff0ef	jal	x1,800022a8	  x1=0x800022a8
       15175000	      1516	00000000	00000013	addi	x0,x0,0	  x0:0x00000000
       15185000	      1517	80002288	00000013	addi	x0,x0,0	  x0:0x00000000
       15195000	      1518	8000228c	038000ef	jal	x1,8000228c	  x1=0x8000228c
       15205000	      1519	00000000	00000013	addi	x0,x0,0	  x0:0x00000000
       15215000	      1520	800022c0	00000013	addi	x0,x0,0	  x0:0x00000000
       15225000	      1521	800022c4	014001ef	jal	x3,800022c4	  x3=0x800022c4
       15235000	      1522	00000000	00000013	addi	x0,x0,0	  x0:0x00000000
       15245000	      1523	800022d4	00000013	addi	x0,x0,0	  x0:0x00000000
       15255000	      1524	800022d8	fd5ffaef	jal	x21,800022d8	 x21=0x800022d8
       15265000	      1525	00000000	00000013	addi	x0,x0,0	  x0:0x00000000
       15275000	      1526	800022a8	00000013	addi	x0,x0,0	  x0:0x00000000
       15285000	      1527	800022ac	fddff3ef	jal	x7,800022ac	  x7=0x800022ac
       15295000	      1528	00000000	00000013	addi	x0,x0,0	  x0:0x00000000
       15305000	      1529	80002284	00000013	addi	x0,x0,0	  x0:0x00000000
       15315000	      1530	80002288	0340046f	jal	x8,80002288	  x8=0x80002288
       15325000	      1531	00000000	00000013	addi	x0,x0,0	  x0:0x00000000
       15335000	      1532	800022b8	00000013	addi	x0,x0,0	  x0:0x00000000
       15345000	      1533	800022bc	ffdff4ef	jal	x9,800022bc	  x9=0x800022bc
       15355000	      1534	00000000	00000013	addi	x0,x0,0	  x0:0x00000000
       15365000	      1535	800022b4	00000013	addi	x0,x0,0	  x0:0x00000000
       15375000	      1536	800022b8	ffdff86f	jal	x16,800022b8	 x16=0x800022b8
       15385000	      1537	00000000	00000013	addi	x0,x0,0	  x0:0x00000000
       15395000	      1538	800022b0	00000013	addi	x0,x0,0	  x0:0x00000000
       15405000	      1539	800022b4	fe5ffaef	jal	x21,800022b4	 x21=0x800022b4
       15415000	      1540	00000000	00000013	addi	x0,x0,0	  x0:0x00000000
       15425000	      1541	80002294	00000013	addi	x0,x0,0	  x0:0x00000000
       15435000	      1542	80002298	fedfff6f	jal	x30,80002298	 x30=0x80002298
       15445000	      1543	00000000	00000013	addi	x0,x0,0	  x0:0x00000000
       15455000	      1544	80002280	00000013	addi	x0,x0,0	  x0:0x00000000
       15465000	      1545	80002284	02c0036f	jal	x6,80002284	  x6=0x80002284
       15475000	      1546	00000000	00000013	addi	x0,x0,0	  x0:0x00000000
       15485000	      1547	800022ac	00000013	addi	x0,x0,0	  x0:0x00000000
       15495000	      1548	800022b0	fc5ff36f	jal	x6,800022b0	  x6=0x800022b0
       15505000	      1549	00000000	00000013	addi	x0,x0,0	  x0:0x00000000
       15515000	      1550	80002270	00000013	addi	x0,x0,0	  x0:0x00000000
       15525000	      1551	80002274	02c0036f	jal	x6,80002274	  x6=0x80002274
       15535000	      1552	00000000	00000013	addi	x0,x0,0	  x0:0x00000000
       15545000	      1553	8000229c	00000013	addi	x0,x0,0	  x0:0x00000000
       15555000	      1554	800022a0	020000ef	jal	x1,800022a0	  x1=0x800022a0
       15565000	      1555	00000000	00000013	addi	x0,x0,0	  x0:0x00000000
       15575000	      1556	800022bc	00000013	addi	x0,x0,0	  x0:0x00000000
       15585000	      1557	800022c0	024000ef	jal	x1,800022c0	  x1=0x800022c0
       15595000	      1558	00000000	00000013	addi	x0,x0,0	  x0:0x00000000
       15605000	      1559	800022e0	00000013	addi	x0,x0,0	  x0:0x00000000
       15615000	      1560	800022e4	db954413	xori	x8,x10,-583	 x10:0x800022c8  x8=0x7fffdf71
       15625000	      1561	800022e8	060008ef	jal	x17,800022e8	 x17=0x800022e8
       15635000	      1562	00000000	00000013	addi	x0,x0,0	  x0:0x00000000
       15645000	      1563	80002344	00000013	addi	x0,x0,0	  x0:0x00000000
       15655000	      1564	80002348	fedffcef	jal	x25,80002348	 x25=0x80002348
       15665000	      1565	00000000	00000013	addi	x0,x0,0	  x0:0x00000000
       15675000	      1566	80002330	00000013	addi	x0,x0,0	  x0:0x00000000
       15685000	      1567	80002334	00c009ef	jal	x19,80002334	 x19=0x80002334
       15695000	      1568	00000000	00000013	addi	x0,x0,0	  x0:0x00000000
       15705000	      1569	8000233c	00000013	addi	x0,x0,0	  x0:0x00000000
       15715000	      1570	80002340	ff9ff0ef	jal	x1,80002340	  x1=0x80002340
       15725000	      1571	00000000	00000013	addi	x0,x0,0	  x0:0x00000000
       15735000	      1572	80002334	00000013	addi	x0,x0,0	  x0:0x00000000
       15745000	      1573	80002338	014000ef	jal	x1,80002338	  x1=0x80002338
       15755000	      1574	00000000	00000013	addi	x0,x0,0	  x0:0x00000000
       15765000	      1575	80002348	00000013	addi	x0,x0,0	  x0:0x00000000
       15775000	      1576	8000234c	fbdff0ef	jal	x1,8000234c	  x1=0x8000234c
       15785000	      1577	00000000	00000013	addi	x0,x0,0	  x0:0x00000000
       15795000	      1578	80002304	00000013	addi	x0,x0,0	  x0:0x00000000
       15805000	      1579	80002308	fe9ff0ef	jal	x1,80002308	  x1=0x80002308
       15815000	      1580	00000000	00000013	addi	x0,x0,0	  x0:0x00000000
       15825000	      1581	800022ec	00000013	addi	x0,x0,0	  x0:0x00000000
       15835000	      1582	800022f0	024000ef	jal	x1,800022f0	  x1=0x800022f0
       15845000	      1583	00000000	00000013	addi	x0,x0,0	  x0:0x00000000
       15855000	      1584	80002310	00000013	addi	x0,x0,0	  x0:0x00000000
       15865000	      1585	80002314	fe9ff1ef	jal	x3,80002314	  x3=0x80002314
       15875000	      1586	00000000	00000013	addi	x0,x0,0	  x0:0x00000000
       15885000	      1587	800022f8	00000013	addi	x0,x0,0	  x0:0x00000000
       15895000	      1588	800022fc	030000ef	jal	x1,800022fc	  x1=0x800022fc
       15905000	      1589	00000000	00000013	addi	x0,x0,0	  x0:0x00000000
       15915000	      1590	80002328	00000013	addi	x0,x0,0	  x0:0x00000000
       15925000	      1591	8000232c	010000ef	jal	x1,8000232c	  x1=0x8000232c
       15935000	      1592	00000000	00000013	addi	x0,x0,0	  x0:0x00000000
       15945000	      1593	80002338	00000013	addi	x0,x0,0	  x0:0x00000000
       15955000	      1594	8000233c	ff5ff0ef	jal	x1,8000233c	  x1=0x8000233c
       15965000	      1595	00000000	00000013	addi	x0,x0,0	  x0:0x00000000
       15975000	      1596	8000232c	00000013	addi	x0,x0,0	  x0:0x00000000
       15985000	      1597	80002330	fc5ff0ef	jal	x1,80002330	  x1=0x80002330
       15995000	      1598	00000000	00000013	addi	x0,x0,0	  x0:0x00000000
       16005000	      1599	800022f0	00000013	addi	x0,x0,0	  x0:0x00000000
       16015000	      1600	800022f4	05c009ef	jal	x19,800022f4	 x19=0x800022f4
       16025000	      1601	00000000	00000013	addi	x0,x0,0	  x0:0x00000000
       16035000	      1602	8000234c	00000013	addi	x0,x0,0	  x0:0x00000000
       16045000	      1603	80002350	0040036f	jal	x6,80002350	  x6=0x80002350
       16055000	      1604	00000000	00000013	addi	x0,x0,0	  x0:0x00000000
       16065000	      1605	80002350	00000013	addi	x0,x0,0	  x0:0x00000000
       16075000	      1606	80002354	fd1ff0ef	jal	x1,80002354	  x1=0x80002354
       16085000	      1607	00000000	00000013	addi	x0,x0,0	  x0:0x00000000
       16095000	      1608	80002320	00000013	addi	x0,x0,0	  x0:0x00000000
       16105000	      1609	80002324	020000ef	jal	x1,80002324	  x1=0x80002324
       16115000	      1610	00000000	00000013	addi	x0,x0,0	  x0:0x00000000
       16125000	      1611	80002340	00000013	addi	x0,x0,0	  x0:0x00000000
       16135000	      1612	80002344	fddff0ef	jal	x1,80002344	  x1=0x80002344
       16145000	      1613	00000000	00000013	addi	x0,x0,0	  x0:0x00000000
       16155000	      1614	8000231c	00000013	addi	x0,x0,0	  x0:0x00000000
       16165000	      1615	80002320	fd9ff1ef	jal	x3,80002320	  x3=0x80002320
       16175000	      1616	00000000	00000013	addi	x0,x0,0	  x0:0x00000000
       16185000	      1617	800022f4	00000013	addi	x0,x0,0	  x0:0x00000000
       16195000	      1618	800022f8	0300036f	jal	x6,800022f8	  x6=0x800022f8
       16205000	      1619	00000000	00000013	addi	x0,x0,0	  x0:0x00000000
       16215000	      1620	80002324	00000013	addi	x0,x0,0	  x0:0x00000000
       16225000	      1621	80002328	fd9ff5ef	jal	x11,80002328	 x11=0x80002328
       16235000	      1622	00000000	00000013	addi	x0,x0,0	  x0:0x00000000
       16245000	      1623	800022fc	00000013	addi	x0,x0,0	  x0:0x00000000
       16255000	      1624	80002300	004000ef	jal	x1,80002300	  x1=0x80002300
       16265000	      1625	00000000	00000013	addi	x0,x0,0	  x0:0x00000000
       16275000	      1626	80002300	00000013	addi	x0,x0,0	  x0:0x00000000
       16285000	      1627	80002304	0180036f	jal	x6,80002304	  x6=0x80002304
       16295000	      1628	00000000	00000013	addi	x0,x0,0	  x0:0x00000000
       16305000	      1629	80002318	00000013	addi	x0,x0,0	  x0:0x00000000
       16315000	      1630	8000231c	ffdff36f	jal	x6,8000231c	  x6=0x8000231c
       16325000	      1631	00000000	00000013	addi	x0,x0,0	  x0:0x00000000
       16335000	      1632	80002314	00000013	addi	x0,x0,0	  x0:0x00000000
       16345000	      1633	80002318	0400066f	jal	x12,80002318	 x12=0x80002318
       16355000	      1634	00000000	00000013	addi	x0,x0,0	  x0:0x00000000
       16365000	      1635	80002354	00000013	addi	x0,x0,0	  x0:0x00000000
       16375000	      1636	80002358	fb9ff8ef	jal	x17,80002358	 x17=0x80002358
       16385000	      1637	00000000	00000013	addi	x0,x0,0	  x0:0x00000000
       16395000	      1638	8000230c	00000013	addi	x0,x0,0	  x0:0x00000000
       16405000	      1639	80002310	fddff0ef	jal	x1,80002310	  x1=0x80002310
       16415000	      1640	00000000	00000013	addi	x0,x0,0	  x0:0x00000000
       16425000	      1641	800022e8	00000013	addi	x0,x0,0	  x0:0x00000000
       16435000	      1642	800022ec	0200036f	jal	x6,800022ec	  x6=0x800022ec
       16445000	      1643	00000000	00000013	addi	x0,x0,0	  x0:0x00000000
       16455000	      1644	80002308	00000013	addi	x0,x0,0	  x0:0x00000000
       16465000	      1645	8000230c	050000ef	jal	x1,8000230c	  x1=0x8000230c
       16475000	      1646	00000000	00000013	addi	x0,x0,0	  x0:0x00000000
       16485000	      1647	80002358	00000013	addi	x0,x0,0	  x0:0x00000000
       16495000	      1648	8000235c	414fd5b3	sra	x11,x31,x20	 x31:0x80009f64 x20:0x80000048 x11=0xff80009f
       16505000	      1649	80002360	038008ef	jal	x17,80002360	 x17=0x80002360
       16515000	      1650	00000000	00000013	addi	x0,x0,0	  x0:0x00000000
       16525000	      1651	80002394	00000013	addi	x0,x0,0	  x0:0x00000000
       16535000	      1652	80002398	fcdff26f	jal	x4,80002398	  x4=0x80002398
       16545000	      1653	00000000	00000013	addi	x0,x0,0	  x0:0x00000000
       16555000	      1654	80002360	00000013	addi	x0,x0,0	  x0:0x00000000
       16565000	      1655	80002364	040000ef	jal	x1,80002364	  x1=0x80002364
       16575000	      1656	00000000	00000013	addi	x0,x0,0	  x0:0x00000000
       16585000	      1657	800023a0	00000013	addi	x0,x0,0	  x0:0x00000000
       16595000	      1658	800023a4	008000ef	jal	x1,800023a4	  x1=0x800023a4
       16605000	      1659	00000000	00000013	addi	x0,x0,0	  x0:0x00000000
       16615000	      1660	800023a8	00000013	addi	x0,x0,0	  x0:0x00000000
       16625000	      1661	800023ac	fddffe6f	jal	x28,800023ac	 x28=0x800023ac
       16635000	      1662	00000000	00000013	addi	x0,x0,0	  x0:0x00000000
       16645000	      1663	80002384	00000013	addi	x0,x0,0	  x0:0x00000000
       16655000	      1664	80002388	fe1ff0ef	jal	x1,80002388	  x1=0x80002388
       16665000	      1665	00000000	00000013	addi	x0,x0,0	  x0:0x00000000
       16675000	      1666	80002364	00000013	addi	x0,x0,0	  x0:0x00000000
       16685000	      1667	80002368	050000ef	jal	x1,80002368	  x1=0x80002368
       16695000	      1668	00000000	00000013	addi	x0,x0,0	  x0:0x00000000
       16705000	      1669	800023b4	00000013	addi	x0,x0,0	  x0:0x00000000
       16715000	      1670	800023b8	ff9fff6f	jal	x30,800023b8	 x30=0x800023b8
       16725000	      1671	00000000	00000013	addi	x0,x0,0	  x0:0x00000000
       16735000	      1672	800023ac	00000013	addi	x0,x0,0	  x0:0x00000000
       16745000	      1673	800023b0	fe1ff0ef	jal	x1,800023b0	  x1=0x800023b0
       16755000	      1674	00000000	00000013	addi	x0,x0,0	  x0:0x00000000
       16765000	      1675	8000238c	00000013	addi	x0,x0,0	  x0:0x00000000
       16775000	      1676	80002390	ffdff36f	jal	x6,80002390	  x6=0x80002390
       16785000	      1677	00000000	00000013	addi	x0,x0,0	  x0:0x00000000
       16795000	      1678	80002388	00000013	addi	x0,x0,0	  x0:0x00000000
       16805000	      1679	8000238c	ff9ff36f	jal	x6,8000238c	  x6=0x8000238c
       16815000	      1680	00000000	00000013	addi	x0,x0,0	  x0:0x00000000
       16825000	      1681	80002380	00000013	addi	x0,x0,0	  x0:0x00000000
       16835000	      1682	80002384	fe9ff56f	jal	x10,80002384	 x10=0x80002384
       16845000	      1683	00000000	00000013	addi	x0,x0,0	  x0:0x00000000
       16855000	      1684	80002368	00000013	addi	x0,x0,0	  x0:0x00000000
       16865000	      1685	8000236c	008000ef	jal	x1,8000236c	  x1=0x8000236c
       16875000	      1686	00000000	00000013	addi	x0,x0,0	  x0:0x00000000
       16885000	      1687	80002370	00000013	addi	x0,x0,0	  x0:0x00000000
       16895000	      1688	80002374	0040046f	jal	x8,80002374	  x8=0x80002374
       16905000	      1689	00000000	00000013	addi	x0,x0,0	  x0:0x00000000
       16915000	      1690	80002374	00000013	addi	x0,x0,0	  x0:0x00000000
       16925000	      1691	80002378	048001ef	jal	x3,80002378	  x3=0x80002378
       16935000	      1692	00000000	00000013	addi	x0,x0,0	  x0:0x00000000
       16945000	      1693	800023bc	00000013	addi	x0,x0,0	  x0:0x00000000
       16955000	      1694	800023c0	ff5ff0ef	jal	x1,800023c0	  x1=0x800023c0
       16965000	      1695	00000000	00000013	addi	x0,x0,0	  x0:0x00000000
       16975000	      1696	800023b0	00000013	addi	x0,x0,0	  x0:0x00000000
       16985000	      1697	800023b4	0180036f	jal	x6,800023b4	  x6=0x800023b4
       16995000	      1698	00000000	00000013	addi	x0,x0,0	  x0:0x00000000
       17005000	      1699	800023c8	00000013	addi	x0,x0,0	  x0:0x00000000
       17015000	      1700	800023cc	fb5ff0ef	jal	x1,800023cc	  x1=0x800023cc
       17025000	      1701	00000000	00000013	addi	x0,x0,0	  x0:0x00000000
       17035000	      1702	8000237c	00000013	addi	x0,x0,0	  x0:0x00000000
       17045000	      1703	80002380	020000ef	jal	x1,80002380	  x1=0x80002380
       17055000	      1704	00000000	00000013	addi	x0,x0,0	  x0:0x00000000
       17065000	      1705	8000239c	00000013	addi	x0,x0,0	  x0:0x00000000
       17075000	      1706	800023a0	024000ef	jal	x1,800023a0	  x1=0x800023a0
       17085000	      1707	00000000	00000013	addi	x0,x0,0	  x0:0x00000000
       17095000	      1708	800023c0	00000013	addi	x0,x0,0	  x0:0x00000000
       17105000	      1709	800023c4	fe5ff0ef	jal	x1,800023c4	  x1=0x800023c4
       17115000	      1710	00000000	00000013	addi	x0,x0,0	  x0:0x00000000
       17125000	      1711	800023a4	00000013	addi	x0,x0,0	  x0:0x00000000
       17135000	      1712	800023a8	fedff36f	jal	x6,800023a8	  x6=0x800023a8
       17145000	      1713	00000000	00000013	addi	x0,x0,0	  x0:0x00000000
       17155000	      1714	80002390	00000013	addi	x0,x0,0	  x0:0x00000000
       17165000	      1715	80002394	028000ef	jal	x1,80002394	  x1=0x80002394
       17175000	      1716	00000000	00000013	addi	x0,x0,0	  x0:0x00000000
       17185000	      1717	800023b8	00000013	addi	x0,x0,0	  x0:0x00000000
       17195000	      1718	800023bc	fb5ff0ef	jal	x1,800023bc	  x1=0x800023bc
       17205000	      1719	00000000	00000013	addi	x0,x0,0	  x0:0x00000000
       17215000	      1720	8000236c	00000013	addi	x0,x0,0	  x0:0x00000000
       17225000	      1721	80002370	05800d6f	jal	x26,80002370	 x26=0x80002370
       17235000	      1722	00000000	00000013	addi	x0,x0,0	  x0:0x00000000
       17245000	      1723	800023c4	00000013	addi	x0,x0,0	  x0:0x00000000
       17255000	      1724	800023c8	fb5ff0ef	jal	x1,800023c8	  x1=0x800023c8
       17265000	      1725	00000000	00000013	addi	x0,x0,0	  x0:0x00000000
       17275000	      1726	80002378	00000013	addi	x0,x0,0	  x0:0x00000000
       17285000	      1727	8000237c	0200056f	jal	x10,8000237c	 x10=0x8000237c
       17295000	      1728	00000000	00000013	addi	x0,x0,0	  x0:0x00000000
       17305000	      1729	80002398	00000013	addi	x0,x0,0	  x0:0x00000000
       17315000	      1730	8000239c	034000ef	jal	x1,8000239c	  x1=0x8000239c
       17325000	      1731	00000000	00000013	addi	x0,x0,0	  x0:0x00000000
       17335000	      1732	800023cc	00000013	addi	x0,x0,0	  x0:0x00000000
       17345000	      1733	800023d0	007824b3	slt	x9,x16,x7	 x16:0x800022b8  x7:0x800022ac  x9=0x00000000
       17355000	      1734	800023d4	018008ef	jal	x17,800023d4	 x17=0x800023d4
       17365000	      1735	00000000	00000013	addi	x0,x0,0	  x0:0x00000000
       17375000	      1736	800023e8	00000013	addi	x0,x0,0	  x0:0x00000000
       17385000	      1737	800023ec	00c000ef	jal	x1,800023ec	  x1=0x800023ec
       17395000	      1738	00000000	00000013	addi	x0,x0,0	  x0:0x00000000
       17405000	      1739	800023f4	00000013	addi	x0,x0,0	  x0:0x00000000
       17415000	      1740	800023f8	fe1ff0ef	jal	x1,800023f8	  x1=0x800023f8
       17425000	      1741	00000000	00000013	addi	x0,x0,0	  x0:0x00000000
       17435000	      1742	800023d4	00000013	addi	x0,x0,0	  x0:0x00000000
       17445000	      1743	800023d8	02c001ef	jal	x3,800023d8	  x3=0x800023d8
       17455000	      1744	00000000	00000013	addi	x0,x0,0	  x0:0x00000000
       17465000	      1745	80002400	00000013	addi	x0,x0,0	  x0:0x00000000
       17475000	      1746	80002404	fddff2ef	jal	x5,80002404	  x5=0x80002404
       17485000	      1747	00000000	00000013	addi	x0,x0,0	  x0:0x00000000
       17495000	      1748	800023dc	00000013	addi	x0,x0,0	  x0:0x00000000
       17505000	      1749	800023e0	04c002ef	jal	x5,800023e0	  x5=0x800023e0
       17515000	      1750	00000000	00000013	addi	x0,x0,0	  x0:0x00000000
       17525000	      1751	80002428	00000013	addi	x0,x0,0	  x0:0x00000000
       17535000	      1752	8000242c	fe1ff96f	jal	x18,8000242c	 x18=0x8000242c
       17545000	      1753	00000000	00000013	addi	x0,x0,0	  x0:0x00000000
       17555000	      1754	80002408	00000013	addi	x0,x0,0	  x0:0x00000000
       17565000	      1755	8000240c	fd9ff36f	jal	x6,8000240c	  x6=0x8000240c
       17575000	      1756	00000000	00000013	addi	x0,x0,0	  x0:0x00000000
       17585000	      1757	800023e0	00000013	addi	x0,x0,0	  x0:0x00000000
       17595000	      1758	800023e4	010000ef	jal	x1,800023e4	  x1=0x800023e4
       17605000	      1759	00000000	00000013	addi	x0,x0,0	  x0:0x00000000
       17615000	      1760	800023f0	00000013	addi	x0,x0,0	  x0:0x00000000
       17625000	      1761	800023f4	ffdffe6f	jal	x28,800023f4	 x28=0x800023f4
       17635000	      1762	00000000	00000013	addi	x0,x0,0	  x0:0x00000000
       17645000	      1763	800023ec	00000013	addi	x0,x0,0	  x0:0x00000000
       17655000	      1764	800023f0	ff9ffb6f	jal	x22,800023f0	 x22=0x800023f0
       17665000	      1765	00000000	00000013	addi	x0,x0,0	  x0:0x00000000
       17675000	      1766	800023e4	00000013	addi	x0,x0,0	  x0:0x00000000
       17685000	      1767	800023e8	038000ef	jal	x1,800023e8	  x1=0x800023e8
       17695000	      1768	00000000	00000013	addi	x0,x0,0	  x0:0x00000000
       17705000	      1769	8000241c	00000013	addi	x0,x0,0	  x0:0x00000000
       17715000	      1770	80002420	0040026f	jal	x4,80002420	  x4=0x80002420
       17725000	      1771	00000000	00000013	addi	x0,x0,0	  x0:0x00000000
       17735000	      1772	80002420	00000013	addi	x0,x0,0	  x0:0x00000000
       17745000	      1773	80002424	ff5ff3ef	jal	x7,80002424	  x7=0x80002424
       17755000	      1774	00000000	00000013	addi	x0,x0,0	  x0:0x00000000
       17765000	      1775	80002414	00000013	addi	x0,x0,0	  x0:0x00000000
       17775000	      1776	80002418	ff1ff0ef	jal	x1,80002418	  x1=0x80002418
       17785000	      1777	00000000	00000013	addi	x0,x0,0	  x0:0x00000000
       17795000	      1778	80002404	00000013	addi	x0,x0,0	  x0:0x00000000
       17805000	      1779	80002408	00c0036f	jal	x6,80002408	  x6=0x80002408
       17815000	      1780	00000000	00000013	addi	x0,x0,0	  x0:0x00000000
       17825000	      1781	80002410	00000013	addi	x0,x0,0	  x0:0x00000000
       17835000	      1782	80002414	fe9ff0ef	jal	x1,80002414	  x1=0x80002414
       17845000	      1783	00000000	00000013	addi	x0,x0,0	  x0:0x00000000
       17855000	      1784	800023f8	00000013	addi	x0,x0,0	  x0:0x00000000
       17865000	      1785	800023fc	fe1ff1ef	jal	x3,800023fc	  x3=0x800023fc
       17875000	      1786	00000000	00000013	addi	x0,x0,0	  x0:0x00000000
       17885000	      1787	800023d8	00000013	addi	x0,x0,0	  x0:0x00000000
       17895000	      1788	800023dc	024000ef	jal	x1,800023dc	  x1=0x800023dc
       17905000	      1789	00000000	00000013	addi	x0,x0,0	  x0:0x00000000
       17915000	      1790	800023fc	00000013	addi	x0,x0,0	  x0:0x00000000
       17925000	      1791	80002400	01c000ef	jal	x1,80002400	  x1=0x80002400
       17935000	      1792	00000000	00000013	addi	x0,x0,0	  x0:0x00000000
       17945000	      1793	80002418	00000013	addi	x0,x0,0	  x0:0x00000000
       17955000	      1794	8000241c	00c000ef	jal	x1,8000241c	  x1=0x8000241c
       17965000	      1795	00000000	00000013	addi	x0,x0,0	  x0:0x00000000
       17975000	      1796	80002424	00000013	addi	x0,x0,0	  x0:0x00000000
       17985000	      1797	80002428	fe9ff36f	jal	x6,80002428	  x6=0x80002428
       17995000	      1798	00000000	00000013	addi	x0,x0,0	  x0:0x00000000
       18005000	      1799	8000240c	00000013	addi	x0,x0,0	  x0:0x00000000
       18015000	      1800	80002410	020000ef	jal	x1,80002410	  x1=0x80002410
       18025000	      1801	00000000	00000013	addi	x0,x0,0	  x0:0x00000000
       18035000	      1802	8000242c	00000013	addi	x0,x0,0	  x0:0x00000000
       18045000	      1803	80002430	4177d293	srai	x5,x15,0x17	 x15:0x80009fc4  x5=0xffffff00
       18055000	      1804	80002434	030008ef	jal	x17,80002434	 x17=0x80002434
       18065000	      1805	00000000	00000013	addi	x0,x0,0	  x0:0x00000000
       18075000	      1806	80002460	00000013	addi	x0,x0,0	  x0:0x00000000
       18085000	      1807	80002464	ff1ff0ef	jal	x1,80002464	  x1=0x80002464
       18095000	      1808	00000000	00000013	addi	x0,x0,0	  x0:0x00000000
       18105000	      1809	80002450	00000013	addi	x0,x0,0	  x0:0x00000000
       18115000	      1810	80002454	00400e6f	jal	x28,80002454	 x28=0x80002454
       18125000	      1811	00000000	00000013	addi	x0,x0,0	  x0:0x00000000
       18135000	      1812	80002454	00000013	addi	x0,x0,0	  x0:0x00000000
       18145000	      1813	80002458	010000ef	jal	x1,80002458	  x1=0x80002458
       18155000	      1814	00000000	00000013	addi	x0,x0,0	  x0:0x00000000
       18165000	      1815	80002464	00000013	addi	x0,x0,0	  x0:0x00000000
       18175000	      1816	80002468	ff5ff0ef	jal	x1,80002468	  x1=0x80002468
       18185000	      1817	00000000	00000013	addi	x0,x0,0	  x0:0x00000000
       18195000	      1818	80002458	00000013	addi	x0,x0,0	  x0:0x00000000
       18205000	      1819	8000245c	fedff8ef	jal	x17,8000245c	 x17=0x8000245c
       18215000	      1820	00000000	00000013	addi	x0,x0,0	  x0:0x00000000
       18225000	      1821	80002444	00000013	addi	x0,x0,0	  x0:0x00000000
       18235000	      1822	80002448	ff1ff46f	jal	x8,80002448	  x8=0x80002448
       18245000	      1823	00000000	00000013	addi	x0,x0,0	  x0:0x00000000
       18255000	      1824	80002434	00000013	addi	x0,x0,0	  x0:0x00000000
       18265000	      1825	80002438	00c00eef	jal	x29,80002438	 x29=0x80002438
       18275000	      1826	00000000	00000013	addi	x0,x0,0	  x0:0x00000000
       18285000	      1827	80002440	00000013	addi	x0,x0,0	  x0:0x00000000
       18295000	      1828	80002444	00c000ef	jal	x1,80002444	  x1=0x80002444
       18305000	      1829	00000000	00000013	addi	x0,x0,0	  x0:0x00000000
       18315000	      1830	8000244c	00000013	addi	x0,x0,0	  x0:0x00000000
       18325000	      1831	80002450	fedff0ef	jal	x1,80002450	  x1=0x80002450
       18335000	      1832	00000000	00000013	addi	x0,x0,0	  x0:0x00000000
       18345000	      1833	80002438	00000013	addi	x0,x0,0	  x0:0x00000000
       18355000	      1834	8000243c	004002ef	jal	x5,8000243c	  x5=0x8000243c
       18365000	      1835	00000000	00000013	addi	x0,x0,0	  x0:0x00000000
       18375000	      1836	8000243c	00000013	addi	x0,x0,0	  x0:0x00000000
       18385000	      1837	80002440	00c002ef	jal	x5,80002440	  x5=0x80002440
       18395000	      1838	00000000	00000013	addi	x0,x0,0	  x0:0x00000000
       18405000	      1839	80002448	00000013	addi	x0,x0,0	  x0:0x00000000
       18415000	      1840	8000244c	0140036f	jal	x6,8000244c	  x6=0x8000244c
       18425000	      1841	00000000	00000013	addi	x0,x0,0	  x0:0x00000000
       18435000	      1842	8000245c	00000013	addi	x0,x0,0	  x0:0x00000000
       18445000	      1843	80002460	00c000ef	jal	x1,80002460	  x1=0x80002460
       18455000	      1844	00000000	00000013	addi	x0,x0,0	  x0:0x00000000
       18465000	      1845	80002468	00000013	addi	x0,x0,0	  x0:0x00000000
       18475000	      1846	8000246c	0199e933	or	x18,x19,x25	 x19:0x800022f4 x25:0x80002348 x18=0x800023fc
       18485000	      1847	80002470	034008ef	jal	x17,80002470	 x17=0x80002470
       18495000	      1848	00000000	00000013	addi	x0,x0,0	  x0:0x00000000
       18505000	      1849	800024a0	00000013	addi	x0,x0,0	  x0:0x00000000
       18515000	      1850	800024a4	ff5ff0ef	jal	x1,800024a4	  x1=0x800024a4
       18525000	      1851	00000000	00000013	addi	x0,x0,0	  x0:0x00000000
       18535000	      1852	80002494	00000013	addi	x0,x0,0	  x0:0x00000000
       18545000	      1853	80002498	ffdff0ef	jal	x1,80002498	  x1=0x80002498
       18555000	      1854	00000000	00000013	addi	x0,x0,0	  x0:0x00000000
       18565000	      1855	80002490	00000013	addi	x0,x0,0	  x0:0x00000000
       18575000	      1856	80002494	fe5ff36f	jal	x6,80002494	  x6=0x80002494
       18585000	      1857	00000000	00000013	addi	x0,x0,0	  x0:0x00000000
       18595000	      1858	80002474	00000013	addi	x0,x0,0	  x0:0x00000000
       18605000	      1859	80002478	ffdff0ef	jal	x1,80002478	  x1=0x80002478
       18615000	      1860	00000000	00000013	addi	x0,x0,0	  x0:0x00000000
       18625000	      1861	80002470	00000013	addi	x0,x0,0	  x0:0x00000000
       18635000	      1862	80002474	01800b6f	jal	x22,80002474	 x22=0x80002474
       18645000	      1863	00000000	00000013	addi	x0,x0,0	  x0:0x00000000
       18655000	      1864	80002488	00000013	addi	x0,x0,0	  x0:0x00000000
       18665000	      1865	8000248c	01c0036f	jal	x6,8000248c	  x6=0x8000248c
       18675000	      1866	00000000	00000013	addi	x0,x0,0	  x0:0x00000000
       18685000	      1867	800024a4	00000013	addi	x0,x0,0	  x0:0x00000000
       18695000	      1868	800024a8	fe9ff36f	jal	x6,800024a8	  x6=0x800024a8
       18705000	      1869	00000000	00000013	addi	x0,x0,0	  x0:0x00000000
       18715000	      1870	8000248c	00000013	addi	x0,x0,0	  x0:0x00000000
       18725000	      1871	80002490	ff9ff36f	jal	x6,80002490	  x6=0x80002490
       18735000	      1872	00000000	00000013	addi	x0,x0,0	  x0:0x00000000
       18745000	      1873	80002484	00000013	addi	x0,x0,0	  x0:0x00000000
       18755000	      1874	80002488	ffdff86f	jal	x16,80002488	 x16=0x80002488
       18765000	      1875	00000000	00000013	addi	x0,x0,0	  x0:0x00000000
       18775000	      1876	80002480	00000013	addi	x0,x0,0	  x0:0x00000000
       18785000	      1877	80002484	ff9ffb6f	jal	x22,80002484	 x22=0x80002484
       18795000	      1878	00000000	00000013	addi	x0,x0,0	  x0:0x00000000
       18805000	      1879	80002478	00000013	addi	x0,x0,0	  x0:0x00000000
       18815000	      1880	8000247c	004000ef	jal	x1,8000247c	  x1=0x8000247c
       18825000	      1881	00000000	00000013	addi	x0,x0,0	  x0:0x00000000
       18835000	      1882	8000247c	00000013	addi	x0,x0,0	  x0:0x00000000
       18845000	      1883	80002480	01c0036f	jal	x6,80002480	  x6=0x80002480
       18855000	      1884	00000000	00000013	addi	x0,x0,0	  x0:0x00000000
       18865000	      1885	80002498	00000013	addi	x0,x0,0	  x0:0x00000000
       18875000	      1886	8000249c	01400def	jal	x27,8000249c	 x27=0x8000249c
       18885000	      1887	00000000	00000013	addi	x0,x0,0	  x0:0x00000000
       18895000	      1888	800024ac	00000013	addi	x0,x0,0	  x0:0x00000000
       18905000	      1889	800024b0	ffdff36f	jal	x6,800024b0	  x6=0x800024b0
       18915000	      1890	00000000	00000013	addi	x0,x0,0	  x0:0x00000000
       18925000	      1891	800024a8	00000013	addi	x0,x0,0	  x0:0x00000000
       18935000	      1892	800024ac	ff5fff6f	jal	x30,800024ac	 x30=0x800024ac
       18945000	      1893	00000000	00000013	addi	x0,x0,0	  x0:0x00000000
       18955000	      1894	8000249c	00000013	addi	x0,x0,0	  x0:0x00000000
       18965000	      1895	800024a0	014000ef	jal	x1,800024a0	  x1=0x800024a0
       18975000	      1896	00000000	00000013	addi	x0,x0,0	  x0:0x00000000
       18985000	      1897	800024b0	00000013	addi	x0,x0,0	  x0:0x00000000
       18995000	      1898	800024b4	40805013	srai	x0,x0,0x8	  x0:0x00000000
       19005000	      1899	800024b8	40b48833	sub	x16,x9,x11	  x9:0x00000000 x11:0xff80009f x16=0x007fff61
       19015000	      1900	800024bc	ebb7f493	andi	x9,x15,-325	 x15:0x80009fc4  x9=0x80009e80
       19025000	      1901	800024c0	00a93933	sltu	x18,x18,x10	 x18:0x800023fc x10:0x8000237c x18=0x00000000
       19035000	      1902	800024c4	5eabf517	auipc	x10,0x5eabf	 x10=0xdeac14c0
       19045000	      1903	800024c8	023e7263	bgeu	x28,x3,800024ec	 x28:0x80002454  x3:0x800023fc
       19055000	      1904	00000000	00000013	addi	x0,x0,0	  x0:0x00000000
       19065000	      1905	800024e8	00000013	addi	x0,x0,0	  x0:0x00000000
       19075000	      1906	800024ec	079fc463	blt	x31,x25,80002554	 x31:0x80009f64 x25:0x80002348
       19085000	      1907	800024f0	40908cb3	sub	x25,x1,x9	  x1:0x800024a0  x9:0x80009e80 x25=0xffff8620
       19095000	      1908	800024f4	f99d6213	ori	x4,x26,-103	 x26:0x80002370  x4=0xfffffff9
       19105000	      1909	800024f8	cbf2ab97	auipc	x23,0xcbf2a	 x23=0x4bf2c4f4
       19115000	      1910	800024fc	dab60413	addi	x8,x12,-597	 x12:0x80002318  x8=0x800020c3
       19125000	      1911	80002500	07fde663	bltu	x27,x31,8000256c	 x27:0x8000249c x31:0x80009f64
       19135000	      1912	00000000	00000013	addi	x0,x0,0	  x0:0x00000000
       19145000	      1913	80002568	00000013	addi	x0,x0,0	  x0:0x00000000
       19155000	      1914	8000256c	004ac463	blt	x21,x4,80002574	 x21:0x800022b4  x4:0xfffffff9
       19165000	      1915	00000000	00000013	addi	x0,x0,0	  x0:0x00000000
       19175000	      1916	80002570	00000013	addi	x0,x0,0	  x0:0x00000000
       19185000	      1917	80002574	47728193	addi	x3,x5,1143	  x5:0x80002440  x3=0x800028b7
       19195000	      1918	80002578	00bc4a63	blt	x24,x11,8000258c	 x24:0x8000222c x11:0xff80009f
       19205000	      1919	00000000	00000013	addi	x0,x0,0	  x0:0x00000000
       19215000	      1920	80002588	00000013	addi	x0,x0,0	  x0:0x00000000
       19225000	      1921	8000258c	f7e4aa93	slti	x21,x9,-130	  x9:0x80009e80 x21=0x00000001
       19235000	      1922	80002590	01eba033	slt	x0,x23,x30	 x23:0x4bf2c4f4 x30:0x800024ac
       19245000	      1923	80002594	000003b3	add	x7,x0,x0	  x0:0x00000000  x0:0x00000000  x7=0x00000000
       19255000	      1924	80002598	02d29a63	bne	x5,x13,800025cc	  x5:0x80002440 x13:0x8000216c
       19265000	      1925	00000000	00000013	addi	x0,x0,0	  x0:0x00000000
       19275000	      1926	800025c8	00000013	addi	x0,x0,0	  x0:0x00000000
       19285000	      1927	800025cc	009b9f13	slli	x30,x23,0x9	 x23:0x4bf2c4f4 x30=0xe589e800
       19295000	      1928	800025d0	00925db3	srl	x27,x4,x9	  x4:0xfffffff9  x9:0x80009e80 x27=0xfffffff9
       19305000	      1929	800025d4	00734eb3	xor	x29,x6,x7	  x6:0x800024b0  x7:0x00000000 x29=0x800024b0
       19315000	      1930	800025d8	0657ea13	ori	x20,x15,101	 x15:0x80009fc4 x20=0x80009fe5
       19325000	      1931	800025dc	00eb6eb3	or	x29,x22,x14	 x22:0x80002484 x14:0x80002290 x29=0x80002694
       19335000	      1932	800025e0	0034de63	bge	x9,x3,800025fc	  x9:0x80009e80  x3:0x800028b7
       19345000	      1933	00000000	00000013	addi	x0,x0,0	  x0:0x00000000
       19355000	      1934	800025f8	00000013	addi	x0,x0,0	  x0:0x00000000
       19365000	      1935	800025fc	016fea33	or	x20,x31,x22	 x31:0x80009f64 x22:0x80002484 x20=0x8000bfe4
       19375000	      1936	80002600	01526db3	or	x27,x4,x21	  x4:0xfffffff9 x21:0x00000001 x27=0xfffffff9
       19385000	      1937	80002604	01961993	slli	x19,x12,0x19	 x12:0x80002318 x19=0x30000000
       19395000	      1938	80002608	01a93bb3	sltu	x23,x18,x26	 x18:0x00000000 x26:0x80002370 x23=0x00000001
       19405000	      1939	8000260c	ac970593	addi	x11,x14,-1335	 x14:0x80002290 x11=0x80001d59
       19415000	      1940	80002610	01968733	add	x14,x13,x25	 x13:0x8000216c x25:0xffff8620 x14=0x7fffa78c
       19425000	      1941	80002614	014c9013	slli	x0,x25,0x14	 x25:0xffff8620
       19435000	      1942	80002618	017e8c63	beq	x29,x23,80002630	 x29:0x80002694 x23:0x00000001
       19445000	      1943	8000261c	bada4637	lui	x12,0xbada4	 x12=0xbada4000
       19455000	      1944	80002620	01521913	slli	x18,x4,0x15	  x4:0xfffffff9 x18=0xff200000
       19465000	      1945	80002624	40a605b3	sub	x11,x12,x10	 x12:0xbada4000 x10:0xdeac14c0 x11=0xdc2e2b40
       19475000	      1946	80002628	00f34eb3	xor	x29,x6,x15	  x6:0x800024b0 x15:0x80009fc4 x29=0x0000bb74
       19485000	      1947	8000262c	01416d33	or	x26,x2,x20	  x2:0xbd232e47 x20:0x8000bfe4 x26=0xbd23bfe7
       19495000	      1948	80002630	4120d5b3	sra	x11,x1,x18	  x1:0x800024a0 x18:0xff200000 x11=0x800024a0
       19505000	      1949	80002634	3277ec13	ori	x24,x15,807	 x15:0x80009fc4 x24=0x80009fe7
       19515000	      1950	80002638	00000013	addi	x0,x0,0	  x0:0x00000000
       19525000	      1951	8000263c	0028fcb3	and	x25,x17,x2	 x17:0x80002470  x2:0xbd232e47 x25=0x80002440
       19535000	      1952	80002640	000464b3	or	x9,x8,x0	  x8:0x800020c3  x0:0x00000000  x9=0x800020c3
       19545000	      1953	80002644	0023f033	and	x0,x7,x2	  x7:0x00000000  x2:0xbd232e47
       19555000	      1954	80002648	01b950b3	srl	x1,x18,x27	 x18:0xff200000 x27:0xfffffff9  x1=0x0000007f
       19565000	      1955	8000264c	01e098b3	sll	x17,x1,x30	  x1:0x0000007f x30:0xe589e800 x17=0x0000007f
       19575000	      1956	80002650	842220b7	lui	x1,0x84222	  x1=0x84222000
       19585000	      1957	80002654	79fde013	ori	x0,x27,1951	 x27:0xfffffff9
       19595000	      1958	80002658	03c80a63	beq	x16,x28,8000268c	 x16:0x007fff61 x28:0x80002454
       19605000	      1959	8000265c	4e968013	addi	x0,x13,1257	 x13:0x8000216c
       19615000	      1960	80002660	02b56863	bltu	x10,x11,80002690	 x10:0xdeac14c0 x11:0x800024a0
       19625000	      1961	80002664	b1a08413	addi	x8,x1,-1254	  x1:0x84222000  x8=0x84221b1a
       19635000	      1962	80002668	d277ef13	ori	x30,x15,-729	 x15:0x80009fc4 x30=0xffffffe7
       19645000	      1963	8000266c	413f0833	sub	x16,x30,x19	 x30:0xffffffe7 x19:0x30000000 x16=0xcfffffe7
       19655000	      1964	80002670	41d5d633	sra	x12,x11,x29	 x11:0x800024a0 x29:0x0000bb74 x12=0xfffff800
       19665000	      1965	80002674	0344c463	blt	x9,x20,8000269c	  x9:0x800020c3 x20:0x8000bfe4
       19675000	      1966	00000000	00000013	addi	x0,x0,0	  x0:0x00000000
       19685000	      1967	80002698	00000013	addi	x0,x0,0	  x0:0x00000000
       19695000	      1968	8000269c	01e04663	blt	x0,x30,800026a8	  x0:0x00000000 x30:0xffffffe7
       19705000	      1969	800026a0	019e8b33	add	x22,x29,x25	 x29:0x0000bb74 x25:0x80002440 x22=0x8000dfb4
       19715000	      1970	800026a4	01a012b3	sll	x5,x0,x26	  x0:0x00000000 x26:0xbd23bfe7  x5=0x00000000
       19725000	      1971	800026a8	408482b3	sub	x5,x9,x8	  x9:0x800020c3  x8:0x84221b1a  x5=0xfbde05a9
       19735000	      1972	800026ac	03561e63	bne	x12,x21,800026e8	 x12:0xfffff800 x21:0x00000001
       19745000	      1973	00000000	00000013	addi	x0,x0,0	  x0:0x00000000
       19755000	      1974	800026e4	00000013	addi	x0,x0,0	  x0:0x00000000
       19765000	      1975	800026e8	00d9f833	and	x16,x19,x13	 x19:0x30000000 x13:0x8000216c x16=0x00000000
       19775000	      1976	800026ec	18fdce13	xori	x28,x27,399	 x27:0xfffffff9 x28=0xfffffe76
       19785000	      1977	800026f0	01ef5a93	srli	x21,x30,0x1e	 x30:0xffffffe7 x21=0x00000003
       19795000	      1978	800026f4	00cd36b3	sltu	x13,x26,x12	 x26:0xbd23bfe7 x12:0xfffff800 x13=0x00000001
       19805000	      1979	800026f8	0026a033	slt	x0,x13,x2	 x13:0x00000001  x2:0xbd232e47
       19815000	      1980	800026fc	027cfe63	bgeu	x25,x7,80002738	 x25:0x80002440  x7:0x00000000
       19825000	      1981	00000000	00000013	addi	x0,x0,0	  x0:0x00000000
       19835000	      1982	80002734	00000013	addi	x0,x0,0	  x0:0x00000000
       19845000	      1983	80002738	00c70f33	add	x30,x14,x12	 x14:0x7fffa78c x12:0xfffff800 x30=0x7fff9f8c
       19855000	      1984	8000273c	5bf2d8b7	lui	x17,0x5bf2d	 x17=0x5bf2d000
       19865000	      1985	80002740	05180863	beq	x16,x17,80002790	 x16:0x00000000 x17:0x5bf2d000
       19875000	      1986	80002744	00b76633	or	x12,x14,x11	 x14:0x7fffa78c x11:0x800024a0 x12=0xffffa7ac
       19885000	      1987	80002748	00fdc1b3	xor	x3,x27,x15	 x27:0xfffffff9 x15:0x80009fc4  x3=0x7fff603d
       19895000	      1988	8000274c	003b92b3	sll	x5,x23,x3	 x23:0x00000001  x3:0x7fff603d  x5=0x20000000
       19905000	      1989	80002750	01915633	srl	x12,x2,x25	  x2:0xbd232e47 x25:0x80002440 x12=0xbd232e47
       19915000	      1990	80002754	00ecde63	bge	x25,x14,80002770	 x25:0x80002440 x14:0x7fffa78c
       19925000	      1991	80002758	00000013	addi	x0,x0,0	  x0:0x00000000
       19935000	      1992	8000275c	c2f6a493	slti	x9,x13,-977	 x13:0x00000001  x9=0x00000000
       19945000	      1993	80002760	01d65a63	bge	x12,x29,80002774	 x12:0xbd232e47 x29:0x0000bb74
       19955000	      1994	80002764	012b1413	slli	x8,x22,0x12	 x22:0x8000dfb4  x8=0x7ed00000
       19965000	      1995	80002768	95648493	addi	x9,x9,-1706	  x9:0x00000000  x9=0xfffff956
       19975000	      1996	8000276c	0059e733	or	x14,x19,x5	 x19:0x30000000  x5:0x20000000 x14=0x30000000
       19985000	      1997	80002770	03385063	bge	x16,x19,80002790	 x16:0x00000000 x19:0x30000000
       19995000	      1998	80002774	76e24b93	xori	x23,x4,1902	  x4:0xfffffff9 x23=0xfffff897
       20005000	      1999	80002778	6d817d93	andi	x27,x2,1752	  x2:0xbd232e47 x27=0x00000640
       20015000	      2000	8000277c	002cee63	bltu	x25,x2,80002798	 x25:0x80002440  x2:0xbd232e47
       20025000	      2001	00000000	00000013	addi	x0,x0,0	  x0:0x00000000
       20035000	      2002	80002794	00000013	addi	x0,x0,0	  x0:0x00000000
       20045000	      2003	80002798	0119dd33	srl	x26,x19,x17	 x19:0x30000000 x17:0x5bf2d000 x26=0x30000000
       20055000	      2004	8000279c	a103ea93	ori	x21,x7,-1520	  x7:0x00000000 x21=0xfffffa10
       20065000	      2005	800027a0	013bec33	or	x24,x23,x19	 x23:0xfffff897 x19:0x30000000 x24=0xfffff897
       20075000	      2006	800027a4	00660733	add	x14,x12,x6	 x12:0xbd232e47  x6:0x800024b0 x14=0x3d2352f7
       20085000	      2007	800027a8	417780b3	sub	x1,x15,x23	 x15:0x80009fc4 x23:0xfffff897  x1=0x8000a72d
       20095000	      2008	800027ac	d7602513	slti	x10,x0,-650	  x0:0x00000000 x10=0x00000000
       20105000	      2009	800027b0	02478863	beq	x15,x4,800027e0	 x15:0x80009fc4  x4:0xfffffff9
       20115000	      2010	800027b4	03d56263	bltu	x10,x29,800027d8	 x10:0x00000000 x29:0x0000bb74
       20125000	      2011	00000000	00000013	addi	x0,x0,0	  x0:0x00000000
       20135000	      2012	800027d4	00000013	addi	x0,x0,0	  x0:0x00000000
       20145000	      2013	800027d8	01239713	slli	x14,x7,0x12	  x7:0x00000000 x14=0x00000000
       20155000	      2014	800027dc	a363f913	andi	x18,x7,-1482	  x7:0x00000000 x18=0x00000000
       20165000	      2015	800027e0	419dd633	sra	x12,x27,x25	 x27:0x00000640 x25:0x80002440 x12=0x00000640
       20175000	      2016	800027e4	41868733	sub	x14,x13,x24	 x13:0x00000001 x24:0xfffff897 x14=0x0000076a
       20185000	      2017	800027e8	41a65313	srai	x6,x12,0x1a	 x12:0x00000640  x6=0x00000000
       20195000	      2018	800027ec	030008ef	jal	x17,800027ec	 x17=0x800027ec
       20205000	      2019	00000000	00000013	addi	x0,x0,0	  x0:0x00000000
       20215000	      2020	80002818	00000013	addi	x0,x0,0	  x0:0x00000000
       20225000	      2021	8000281c	0100096f	jal	x18,8000281c	 x18=0x8000281c
       20235000	      2022	00000000	00000013	addi	x0,x0,0	  x0:0x00000000
       20245000	      2023	80002828	00000013	addi	x0,x0,0	  x0:0x00000000
       20255000	      2024	8000282c	fc9ff0ef	jal	x1,8000282c	  x1=0x8000282c
       20265000	      2025	00000000	00000013	addi	x0,x0,0	  x0:0x00000000
       20275000	      2026	800027f0	00000013	addi	x0,x0,0	  x0:0x00000000
       20285000	      2027	800027f4	0140036f	jal	x6,800027f4	  x6=0x800027f4
       20295000	      2028	00000000	00000013	addi	x0,x0,0	  x0:0x00000000
       20305000	      2029	80002804	00000013	addi	x0,x0,0	  x0:0x00000000
       20315000	      2030	80002808	010000ef	jal	x1,80002808	  x1=0x80002808
       20325000	      2031	00000000	00000013	addi	x0,x0,0	  x0:0x00000000
       20335000	      2032	80002814	00000013	addi	x0,x0,0	  x0:0x00000000
       20345000	      2033	80002818	fe1ff36f	jal	x6,80002818	  x6=0x80002818
       20355000	      2034	00000000	00000013	addi	x0,x0,0	  x0:0x00000000
       20365000	      2035	800027f4	00000013	addi	x0,x0,0	  x0:0x00000000
       20375000	      2036	800027f8	028000ef	jal	x1,800027f8	  x1=0x800027f8
       20385000	      2037	00000000	00000013	addi	x0,x0,0	  x0:0x00000000
       20395000	      2038	8000281c	00000013	addi	x0,x0,0	  x0:0x00000000
       20405000	      2039	80002820	ff1ff0ef	jal	x1,80002820	  x1=0x80002820
       20415000	      2040	00000000	00000013	addi	x0,x0,0	  x0:0x00000000
       20425000	      2041	8000280c	00000013	addi	x0,x0,0	  x0:0x00000000
       20435000	      2042	80002810	018000ef	jal	x1,80002810	  x1=0x80002810
       20445000	      2043	00000000	00000013	addi	x0,x0,0	  x0:0x00000000
       20455000	      2044	80002824	00000013	addi	x0,x0,0	  x0:0x00000000
       20465000	      2045	80002828	ffdff0ef	jal	x1,80002828	  x1=0x80002828
       20475000	      2046	00000000	00000013	addi	x0,x0,0	  x0:0x00000000
       20485000	      2047	80002820	00000013	addi	x0,x0,0	  x0:0x00000000
       20495000	      2048	80002824	fd9fff6f	jal	x30,80002824	 x30=0x80002824
       20505000	      2049	00000000	00000013	addi	x0,x0,0	  x0:0x00000000
       20515000	      2050	800027f8	00000013	addi	x0,x0,0	  x0:0x00000000
       20525000	      2051	800027fc	0100036f	jal	x6,800027fc	  x6=0x800027fc
       20535000	      2052	00000000	00000013	addi	x0,x0,0	  x0:0x00000000
       20545000	      2053	80002808	00000013	addi	x0,x0,0	  x0:0x00000000
       20555000	      2054	8000280c	008000ef	jal	x1,8000280c	  x1=0x8000280c
       20565000	      2055	00000000	00000013	addi	x0,x0,0	  x0:0x00000000
       20575000	      2056	80002810	00000013	addi	x0,x0,0	  x0:0x00000000
       20585000	      2057	80002814	01c005ef	jal	x11,80002814	 x11=0x80002814
       20595000	      2058	00000000	00000013	addi	x0,x0,0	  x0:0x00000000
       20605000	      2059	8000282c	00000013	addi	x0,x0,0	  x0:0x00000000
       20615000	      2060	80002830	fd1ff1ef	jal	x3,80002830	  x3=0x80002830
       20625000	      2061	00000000	00000013	addi	x0,x0,0	  x0:0x00000000
       20635000	      2062	800027fc	00000013	addi	x0,x0,0	  x0:0x00000000
       20645000	      2063	80002800	034000ef	jal	x1,80002800	  x1=0x80002800
       20655000	      2064	00000000	00000013	addi	x0,x0,0	  x0:0x00000000
       20665000	      2065	80002830	00000013	addi	x0,x0,0	  x0:0x00000000
       20675000	      2066	80002834	fd1ff0ef	jal	x1,80002834	  x1=0x80002834
       20685000	      2067	00000000	00000013	addi	x0,x0,0	  x0:0x00000000
       20695000	      2068	80002800	00000013	addi	x0,x0,0	  x0:0x00000000
       20705000	      2069	80002804	03c000ef	jal	x1,80002804	  x1=0x80002804
       20715000	      2070	00000000	00000013	addi	x0,x0,0	  x0:0x00000000
       20725000	      2071	8000283c	00000013	addi	x0,x0,0	  x0:0x00000000
       20735000	      2072	80002840	ffdffcef	jal	x25,80002840	 x25=0x80002840
       20745000	      2073	00000000	00000013	addi	x0,x0,0	  x0:0x00000000
       20755000	      2074	80002838	00000013	addi	x0,x0,0	  x0:0x00000000
       20765000	      2075	8000283c	ffdff2ef	jal	x5,8000283c	  x5=0x8000283c
       20775000	      2076	00000000	00000013	addi	x0,x0,0	  x0:0x00000000
       20785000	      2077	80002834	00000013	addi	x0,x0,0	  x0:0x00000000
       20795000	      2078	80002838	fb9ff0ef	jal	x1,80002838	  x1=0x80002838
       20805000	      2079	00000000	00000013	addi	x0,x0,0	  x0:0x00000000
       20815000	      2080	800027ec	00000013	addi	x0,x0,0	  x0:0x00000000
       20825000	      2081	800027f0	0540036f	jal	x6,800027f0	  x6=0x800027f0
       20835000	      2082	00000000	00000013	addi	x0,x0,0	  x0:0x00000000
       20845000	      2083	80002840	00000013	addi	x0,x0,0	  x0:0x00000000
       20855000	      2084	80002844	008ed293	srli	x5,x29,0x8	 x29:0x0000bb74  x5=0x000000bb
       20865000	      2085	80002848	be6f0497	auipc	x9,0xbe6f0	  x9=0x3e6f2844
       20875000	      2086	8000284c	41cc01b3	sub	x3,x24,x28	 x24:0xfffff897 x28:0xfffffe76  x3=0xfffffa21
       20885000	      2087	80002850	aab7e293	ori	x5,x15,-1365	 x15:0x80009fc4  x5=0xffffffef
       20895000	      2088	80002854	401d5733	sra	x14,x26,x1	 x26:0x30000000  x1:0x80002838 x14=0x00000030
       20905000	      2089	80002858	0357dc63	bge	x15,x21,80002890	 x15:0x80009fc4 x21:0xfffffa10
       20915000	      2090	8000285c	40ca0f33	sub	x30,x20,x12	 x20:0x8000bfe4 x12:0x00000640 x30=0x8000b9a4
       20925000	      2091	80002860	41428633	sub	x12,x5,x20	  x5:0xffffffef x20:0x8000bfe4 x12=0x7fff400b
       20935000	      2092	80002864	00f00e63	beq	x0,x15,80002880	  x0:0x00000000 x15:0x80009fc4
       20945000	      2093	80002868	914eed13	ori	x26,x29,-1772	 x29:0x0000bb74 x26=0xfffffb74
       20955000	      2094	8000286c	4889aa93	slti	x21,x19,1160	 x19:0x30000000 x21=0x00000000
       20965000	      2095	80002870	003d5a63	bge	x26,x3,80002884	 x26:0xfffffb74  x3:0xfffffa21
       20975000	      2096	00000000	00000013	addi	x0,x0,0	  x0:0x00000000
       20985000	      2097	80002880	00000013	addi	x0,x0,0	  x0:0x00000000
       20995000	      2098	80002884	00a203b3	add	x7,x4,x10	  x4:0xfffffff9 x10:0x00000000  x7=0xfffffff9
       21005000	      2099	80002888	00375993	srli	x19,x14,0x3	 x14:0x00000030 x19=0x00000006
       21015000	      2100	8000288c	dd696913	ori	x18,x18,-554	 x18:0x8000281c x18=0xfffffdde
       21025000	      2101	80002890	00b11b13	slli	x22,x2,0xb	  x2:0xbd232e47 x22=0x19723800
       21035000	      2102	80002894	01255263	bge	x10,x18,80002898	 x10:0x00000000 x18:0xfffffdde
       21045000	      2103	00000000	00000013	addi	x0,x0,0	  x0:0x00000000
       21055000	      2104	80002894	00000013	addi	x0,x0,0	  x0:0x00000000
       21065000	      2105	80002898	67f7c993	xori	x19,x15,1663	 x15:0x80009fc4 x19=0x800099bb
       21075000	      2106	8000289c	f514f293	andi	x5,x9,-175	  x9:0x3e6f2844  x5=0x3e6f2840
       21085000	      2107	800028a0	41128033	sub	x0,x5,x17	  x5:0x3e6f2840 x17:0x800027ec
       21095000	      2108	800028a4	fc604f37	lui	x30,0xfc604	 x30=0xfc604000
       21105000	      2109	800028a8	00000013	addi	x0,x0,0	  x0:0x00000000
       21115000	      2110	800028ac	0187db33	srl	x22,x15,x24	 x15:0x80009fc4 x24:0xfffff897 x22=0x00000100
       21125000	      2111	800028b0	019c3a33	sltu	x20,x24,x25	 x24:0xfffff897 x25:0x80002840 x20=0x00000000
       21135000	      2112	800028b4	c9d14193	xori	x3,x2,-867	  x2:0xbd232e47  x3=0x42dcd2da
       21145000	      2113	800028b8	0142ba33	sltu	x20,x5,x20	  x5:0x3e6f2840 x20:0x00000000 x20=0x00000000
       21155000	      2114	800028bc	01d91a13	slli	x20,x18,0x1d	 x18:0xfffffdde x20=0xc0000000
       21165000	      2115	800028c0	f0c8b0b7	lui	x1,0xf0c8b	  x1=0xf0c8b000
       21175000	      2116	800028c4	e28f8a93	addi	x21,x31,-472	 x31:0x80009f64 x21=0x80009d8c
       21185000	      2117	800028c8	1a873a93	sltiu	x21,x14,424	 x14:0x00000030 x21=0x00000001
       21195000	      2118	800028cc	0127e663	bltu	x15,x18,800028d8	 x15:0x80009fc4 x18:0xfffffdde
       21205000	      2119	00000000	00000013	addi	x0,x0,0	  x0:0x00000000
       21215000	      2120	800028d4	00000013	addi	x0,x0,0	  x0:0x00000000
       21225000	      2121	800028d8	04d3c863	blt	x7,x13,80002928	  x7:0xfffffff9 x13:0x00000001
       21235000	      2122	00000000	00000013	addi	x0,x0,0	  x0:0x00000000
       21245000	      2123	80002924	00000013	addi	x0,x0,0	  x0:0x00000000
       21255000	      2124	80002928	01721413	slli	x8,x4,0x17	  x4:0xfffffff9  x8=0xfc800000
       21265000	      2125	8000292c	edfce813	ori	x16,x25,-289	 x25:0x80002840 x16=0xfffffedf
       21275000	      2126	80002930	41075bb3	sra	x23,x14,x16	 x14:0x00000030 x16:0xfffffedf x23=0x00000000
       21285000	      2127	80002934	004f7e63	bgeu	x30,x4,80002950	 x30:0xfc604000  x4:0xfffffff9
       21295000	      2128	80002938	02ea0e63	beq	x20,x14,80002974	 x20:0xc0000000 x14:0x00000030
       21305000	      2129	8000293c	41a58733	sub	x14,x11,x26	 x11:0x80002814 x26:0xfffffb74 x14=0x80002ca0
       21315000	      2130	80002940	00cfbeb3	sltu	x29,x31,x12	 x31:0x80009f64 x12:0x7fff400b x29=0x00000000
       21325000	      2131	80002944	01b21033	sll	x0,x4,x27	  x4:0xfffffff9 x27:0x00000640
       21335000	      2132	80002948	a6653e13	sltiu	x28,x10,-1434	 x10:0x00000000 x28=0x00000001
       21345000	      2133	8000294c	00000013	addi	x0,x0,0	  x0:0x00000000
       21355000	      2134	80002950	40d655b3	sra	x11,x12,x13	 x12:0x7fff400b x13:0x00000001 x11=0x3fffa005
       21365000	      2135	80002954	0052abb3	slt	x23,x5,x5	  x5:0x3e6f2840  x5:0x3e6f2840 x23=0x00000000
       21375000	      2136	80002958	00c55313	srli	x6,x10,0xc	 x10:0x00000000  x6=0x00000000
       21385000	      2137	8000295c	0155a433	slt	x8,x11,x21	 x11:0x3fffa005 x21:0x00000001  x8=0x00000000
       21395000	      2138	80002960	33a46eb7	lui	x29,0x33a46	 x29=0x33a46000
       21405000	      2139	80002964	41998f33	sub	x30,x19,x25	 x19:0x800099bb x25:0x80002840 x30=0x0000717b
       21415000	      2140	80002968	2e246f13	ori	x30,x8,738	  x8:0x00000000 x30=0x000002e2
       21425000	      2141	8000296c	02d28c63	beq	x5,x13,800029a4	  x5:0x3e6f2840 x13:0x00000001
       21435000	      2142	80002970	0157c4b3	xor	x9,x15,x21	 x15:0x80009fc4 x21:0x00000001  x9=0x80009fc5
       21445000	      2143	80002974	00817633	and	x12,x2,x8	  x2:0xbd232e47  x8:0x00000000 x12=0x00000000
       21455000	      2144	80002978	00e63733	sltu	x14,x12,x14	 x12:0x00000000 x14:0x80002ca0 x14=0x00000001
       21465000	      2145	8000297c	01b540b3	xor	x1,x10,x27	 x10:0x00000000 x27:0x00000640  x1=0x00000640
       21475000	      2146	80002980	024d4463	blt	x26,x4,800029a8	 x26:0xfffffb74  x4:0xfffffff9
       21485000	      2147	00000000	00000013	addi	x0,x0,0	  x0:0x00000000
       21495000	      2148	800029a4	00000013	addi	x0,x0,0	  x0:0x00000000
       21505000	      2149	800029a8	065efe63	bgeu	x29,x5,80002a24	 x29:0x33a46000  x5:0x3e6f2840
       21515000	      2150	800029ac	076a1663	bne	x20,x22,80002a18	 x20:0xc0000000 x22:0x00000100
       21525000	      2151	00000000	00000013	addi	x0,x0,0	  x0:0x00000000
       21535000	      2152	80002a14	00000013	addi	x0,x0,0	  x0:0x00000000
       21545000	      2153	80002a18	0057e463	bltu	x15,x5,80002a20	 x15:0x80009fc4  x5:0x3e6f2840
       21555000	      2154	80002a1c	020d9863	bne	x27,x0,80002a4c	 x27:0x00000640  x0:0x00000000
       21565000	      2155	00000000	00000013	addi	x0,x0,0	  x0:0x00000000
       21575000	      2156	80002a48	00000013	addi	x0,x0,0	  x0:0x00000000
       21585000	      2157	80002a4c	13242013	slti	x0,x8,306	  x8:0x00000000
       21595000	      2158	80002a50	02418e63	beq	x3,x4,80002a8c	  x3:0x42dcd2da  x4:0xfffffff9
       21605000	      2159	80002a54	0100da33	srl	x20,x1,x16	  x1:0x00000640 x16:0xfffffedf x20=0x00000000
       21615000	      2160	80002a58	19de06b7	lui	x13,0x19de0	 x13=0x19de0000
       21625000	      2161	80002a5c	c5340513	addi	x10,x8,-941	  x8:0x00000000 x10=0xfffffc53
       21635000	      2162	80002a60	5a11aa93	slti	x21,x3,1441	  x3:0x42dcd2da x21=0x00000000
       21645000	      2163	80002a64	01a09433	sll	x8,x1,x26	  x1:0x00000640 x26:0xfffffb74  x8=0x64000000
       21655000	      2164	80002a68	4db76213	ori	x4,x14,1243	 x14:0x00000001  x4=0x000004db
       21665000	      2165	80002a6c	016b9bb3	sll	x23,x23,x22	 x23:0x00000000 x22:0x00000100 x23=0x00000000
       21675000	      2166	80002a70	01a612b3	sll	x5,x12,x26	 x12:0x00000000 x26:0xfffffb74  x5=0x00000000
       21685000	      2167	80002a74	023c1e63	bne	x24,x3,80002ab0	 x24:0xfffff897  x3:0x42dcd2da
       21695000	      2168	00000000	00000013	addi	x0,x0,0	  x0:0x00000000
       21705000	      2169	80002aac	00000013	addi	x0,x0,0	  x0:0x00000000
       21715000	      2170	80002ab0	400a02b3	sub	x5,x20,x0	 x20:0x00000000  x0:0x00000000  x5=0x00000000
       21725000	      2171	80002ab4	0d24cc93	xori	x25,x9,210	  x9:0x80009fc5 x25=0x80009f17
       21735000	      2172	80002ab8	41290eb3	sub	x29,x18,x18	 x18:0xfffffdde x18:0xfffffdde x29=0x00000000
       21745000	      2173	80002abc	03646063	bltu	x8,x22,80002adc	  x8:0x64000000 x22:0x00000100
       21755000	      2174	80002ac0	03d2e463	bltu	x5,x29,80002ae8	  x5:0x00000000 x29:0x00000000
       21765000	      2175	80002ac4	00cf31b3	sltu	x3,x30,x12	 x30:0x000002e2 x12:0x00000000  x3=0x00000000
       21775000	      2176	80002ac8	8a1f0a13	addi	x20,x30,-1887	 x30:0x000002e2 x20=0xfffffb83
       21785000	      2177	80002acc	00925093	srli	x1,x4,0x9	  x4:0x000004db  x1=0x00000002
       21795000	      2178	80002ad0	016fe463	bltu	x31,x22,80002ad8	 x31:0x80009f64 x22:0x00000100
       21805000	      2179	80002ad4	fc5552b7	lui	x5,0xfc555	  x5=0xfc555000
       21815000	      2180	80002ad8	f68c81b7	lui	x3,0xf68c8	  x3=0xf68c8000
       21825000	      2181	80002adc	02908263	beq	x1,x9,80002b00	  x1:0x00000002  x9:0x80009fc5
       21835000	      2182	80002ae0	238dedb7	lui	x27,0x238de	 x27=0x238de000
       21845000	      2183	80002ae4	017b7db3	and	x27,x22,x23	 x22:0x00000100 x23:0x00000000 x27=0x00000000
       21855000	      2184	80002ae8	3df14293	xori	x5,x2,991	  x2:0xbd232e47  x5=0xbd232d98
       21865000	      2185	80002aec	01aed513	srli	x10,x29,0x1a	 x29:0x00000000 x10=0x00000000
       21875000	      2186	80002af0	00e0d993	srli	x19,x1,0xe	  x1:0x00000002 x19=0x00000000
       21885000	      2187	80002af4	66486bb7	lui	x23,0x66486	 x23=0x66486000
       21895000	      2188	80002af8	013c1463	bne	x24,x19,80002b00	 x24:0xfffff897 x19:0x00000000
       21905000	      2189	00000000	00000013	addi	x0,x0,0	  x0:0x00000000
       21915000	      2190	80002afc	00000013	addi	x0,x0,0	  x0:0x00000000
       21925000	      2191	80002b00	003c4c63	blt	x24,x3,80002b18	 x24:0xfffff897  x3:0xf68c8000
       21935000	      2192	80002b04	01f74333	xor	x6,x14,x31	 x14:0x00000001 x31:0x80009f64  x6=0x80009f65
       21945000	      2193	80002b08	03e27e63	bgeu	x4,x30,80002b44	  x4:0x000004db x30:0x000002e2
       21955000	      2194	00000000	00000013	addi	x0,x0,0	  x0:0x00000000
       21965000	      2195	80002b40	00000013	addi	x0,x0,0	  x0:0x00000000
       21975000	      2196	80002b44	00800a33	add	x20,x0,x8	  x0:0x00000000  x8:0x64000000 x20=0x64000000
       21985000	      2197	80002b48	01326f33	or	x30,x4,x19	  x4:0x000004db x19:0x00000000 x30=0x000004db
       21995000	      2198	80002b4c	030008ef	jal	x17,80002b4c	 x17=0x80002b4c
       22005000	      2199	00000000	00000013	addi	x0,x0,0	  x0:0x00000000
       22015000	      2200	80002b78	00000013	addi	x0,x0,0	  x0:0x00000000
       22025000	      2201	80002b7c	fd5ff26f	jal	x4,80002b7c	  x4=0x80002b7c
       22035000	      2202	00000000	00000013	addi	x0,x0,0	  x0:0x00000000
       22045000	      2203	80002b4c	00000013	addi	x0,x0,0	  x0:0x00000000
       22055000	      2204	80002b50	018000ef	jal	x1,80002b50	  x1=0x80002b50
       22065000	      2205	00000000	00000013	addi	x0,x0,0	  x0:0x00000000
       22075000	      2206	80002b64	00000013	addi	x0,x0,0	  x0:0x00000000
       22085000	      2207	80002b68	01c00bef	jal	x23,80002b68	 x23=0x80002b68
       22095000	      2208	00000000	00000013	addi	x0,x0,0	  x0:0x00000000
       22105000	      2209	80002b80	00000013	addi	x0,x0,0	  x0:0x00000000
       22115000	      2210	80002b84	fd1ff0ef	jal	x1,80002b84	  x1=0x80002b84
       22125000	      2211	00000000	00000013	addi	x0,x0,0	  x0:0x00000000
       22135000	      2212	80002b50	00000013	addi	x0,x0,0	  x0:0x00000000
       22145000	      2213	80002b54	018008ef	jal	x17,80002b54	 x17=0x80002b54
       22155000	      2214	00000000	00000013	addi	x0,x0,0	  x0:0x00000000
       22165000	      2215	80002b68	00000013	addi	x0,x0,0	  x0:0x00000000
       22175000	      2216	80002b6c	ff5ffd6f	jal	x26,80002b6c	 x26=0x80002b6c
       22185000	      2217	00000000	00000013	addi	x0,x0,0	  x0:0x00000000
       22195000	      2218	80002b5c	00000013	addi	x0,x0,0	  x0:0x00000000
       22205000	      2219	80002b60	014008ef	jal	x17,80002b60	 x17=0x80002b60
       22215000	      2220	00000000	00000013	addi	x0,x0,0	  x0:0x00000000
       22225000	      2221	80002b70	00000013	addi	x0,x0,0	  x0:0x00000000
       22235000	      2222	80002b74	00c000ef	jal	x1,80002b74	  x1=0x80002b74
       22245000	      2223	00000000	00000013	addi	x0,x0,0	  x0:0x00000000
       22255000	      2224	80002b7c	00000013	addi	x0,x0,0	  x0:0x00000000
       22265000	      2225	80002b80	ff9ff0ef	jal	x1,80002b80	  x1=0x80002b80
       22275000	      2226	00000000	00000013	addi	x0,x0,0	  x0:0x00000000
       22285000	      2227	80002b74	00000013	addi	x0,x0,0	  x0:0x00000000
       22295000	      2228	80002b78	fedff36f	jal	x6,80002b78	  x6=0x80002b78
       22305000	      2229	00000000	00000013	addi	x0,x0,0	  x0:0x00000000
       22315000	      2230	80002b60	00000013	addi	x0,x0,0	  x0:0x00000000
       22325000	      2231	80002b64	00c0036f	jal	x6,80002b64	  x6=0x80002b64
       22335000	      2232	00000000	00000013	addi	x0,x0,0	  x0:0x00000000
       22345000	      2233	80002b6c	00000013	addi	x0,x0,0	  x0:0x00000000
       22355000	      2234	80002b70	fe9ff1ef	jal	x3,80002b70	  x3=0x80002b70
       22365000	      2235	00000000	00000013	addi	x0,x0,0	  x0:0x00000000
       22375000	      2236	80002b54	00000013	addi	x0,x0,0	  x0:0x00000000
       22385000	      2237	80002b58	0040036f	jal	x6,80002b58	  x6=0x80002b58
       22395000	      2238	00000000	00000013	addi	x0,x0,0	  x0:0x00000000
       22405000	      2239	80002b58	00000013	addi	x0,x0,0	  x0:0x00000000
       22415000	      2240	80002b5c	02c000ef	jal	x1,80002b5c	  x1=0x80002b5c
       22425000	      2241	00000000	00000013	addi	x0,x0,0	  x0:0x00000000
       22435000	      2242	80002b84	00000013	addi	x0,x0,0	  x0:0x00000000
       22445000	      2243	80002b88	3150c293	xori	x5,x1,789	  x1:0x80002b5c  x5=0x80002849
       22455000	      2244	80002b8c	01be1a63	bne	x28,x27,80002ba0	 x28:0x00000001 x27:0x00000000
       22465000	      2245	00000000	00000013	addi	x0,x0,0	  x0:0x00000000
       22475000	      2246	80002b9c	00000013	addi	x0,x0,0	  x0:0x00000000
       22485000	      2247	80002ba0	005d08b3	add	x17,x26,x5	 x26:0x80002b6c  x5:0x80002849 x17=0x000053b5
       22495000	      2248	80002ba4	46c50593	addi	x11,x10,1132	 x10:0x00000000 x11=0x0000046c
       22505000	      2249	80002ba8	01be9513	slli	x10,x29,0x1b	 x29:0x00000000 x10=0x00000000
       22515000	      2250	80002bac	00c9c933	xor	x18,x19,x12	 x19:0x00000000 x12:0x00000000 x18=0x00000000
       22525000	      2251	80002bb0	00c31cb3	sll	x25,x6,x12	  x6:0x80002b58 x12:0x00000000 x25=0x80002b58
       22535000	      2252	80002bb4	677b0b93	addi	x23,x22,1655	 x22:0x00000100 x23=0x00000777
       22545000	      2253	80002bb8	41bf55b3	sra	x11,x30,x27	 x30:0x000004db x27:0x00000000 x11=0x000004db
       22555000	      2254	80002bbc	0156f6b3	and	x13,x13,x21	 x13:0x19de0000 x21:0x00000000 x13=0x00000000
       22565000	      2255	80002bc0	0180d533	srl	x10,x1,x24	  x1:0x80002b5c x24:0xfffff897 x10=0x00000100
       22575000	      2256	80002bc4	8eac7993	andi	x19,x24,-1814	 x24:0xfffff897 x19=0xfffff882
       22585000	      2257	80002bc8	487e3993	sltiu	x19,x28,1159	 x28:0x00000001 x19=0x00000001
       22595000	      2258	80002bcc	31ce7893	andi	x17,x28,796	 x28:0x00000001 x17=0x00000000
       22605000	      2259	80002bd0	eac34d93	xori	x27,x6,-340	  x6:0x80002b58 x27=0x7fffd5f4
       22615000	      2260	80002bd4	5642a6b7	lui	x13,0x5642a	 x13=0x5642a000
       22625000	      2261	80002bd8	02380863	beq	x16,x3,80002c08	 x16:0xfffffedf  x3:0x80002b70
       22635000	      2262	80002bdc	03669663	bne	x13,x22,80002c08	 x13:0x5642a000 x22:0x00000100
       22645000	      2263	00000000	00000013	addi	x0,x0,0	  x0:0x00000000
       22655000	      2264	80002c04	00000013	addi	x0,x0,0	  x0:0x00000000
       22665000	      2265	80002c08	03c04e63	blt	x0,x28,80002c44	  x0:0x00000000 x28:0x00000001
       22675000	      2266	00000000	00000013	addi	x0,x0,0	  x0:0x00000000
       22685000	      2267	80002c40	00000013	addi	x0,x0,0	  x0:0x00000000
       22695000	      2268	80002c44	40c15533	sra	x10,x2,x12	  x2:0xbd232e47 x12:0x00000000 x10=0xbd232e47
       22705000	      2269	80002c48	65efee37	lui	x28,0x65efe	 x28=0x65efe000
       22715000	      2270	80002c4c	7a970213	addi	x4,x14,1961	 x14:0x00000001  x4=0x000007aa
       22725000	      2271	80002c50	19175f37	lui	x30,0x19175	 x30=0x19175000
       22735000	      2272	80002c54	000a1e63	bne	x20,x0,80002c70	 x20:0x64000000  x0:0x00000000
       22745000	      2273	00000000	00000013	addi	x0,x0,0	  x0:0x00000000
       22755000	      2274	80002c6c	00000013	addi	x0,x0,0	  x0:0x00000000
       22765000	      2275	80002c70	ed59e993	ori	x19,x19,-299	 x19:0x00000001 x19=0xfffffed5
       22775000	      2276	80002c74	00000013	addi	x0,x0,0	  x0:0x00000000
       22785000	      2277	80002c78	00a2b4b3	sltu	x9,x5,x10	  x5:0x80002849 x10:0xbd232e47  x9=0x00000001
       22795000	      2278	80002c7c	069e1a63	bne	x28,x9,80002cf0	 x28:0x65efe000  x9:0x00000001
       22805000	      2279	00000000	00000013	addi	x0,x0,0	  x0:0x00000000
       22815000	      2280	80002cec	00000013	addi	x0,x0,0	  x0:0x00000000
       22825000	      2281	80002cf0	00dd1913	slli	x18,x26,0xd	 x26:0x80002b6c x18=0x056d8000
       22835000	      2282	80002cf4	01069463	bne	x13,x16,80002cfc	 x13:0x5642a000 x16:0xfffffedf
       22845000	      2283	00000000	00000013	addi	x0,x0,0	  x0:0x00000000
       22855000	      2284	80002cf8	00000013	addi	x0,x0,0	  x0:0x00000000
       22865000	      2285	80002cfc	00a78e63	beq	x15,x10,80002d18	 x15:0x80009fc4 x10:0xbd232e47
       22875000	      2286	80002d00	413fd193	srai	x3,x31,0x13	 x31:0x80009f64  x3=0xfffff000
       22885000	      2287	80002d04	00000013	addi	x0,x0,0	  x0:0x00000000
       22895000	      2288	80002d08	0298ce63	blt	x17,x9,80002d44	 x17:0x00000000  x9:0x00000001
       22905000	      2289	00000000	00000013	addi	x0,x0,0	  x0:0x00000000
       22915000	      2290	80002d40	00000013	addi	x0,x0,0	  x0:0x00000000
       22925000	      2291	80002d44	01dd4db3	xor	x27,x26,x29	 x26:0x80002b6c x29:0x00000000 x27=0x80002b6c
       22935000	      2292	80002d48	f2a18e93	addi	x29,x3,-214	  x3:0xfffff000 x29=0xffffef2a
       22945000	      2293	80002d4c	00491733	sll	x14,x18,x4	 x18:0x056d8000  x4:0x000007aa x14=0xb6000000
       22955000	      2294	80002d50	038c7863	bgeu	x24,x24,80002d80	 x24:0xfffff897 x24:0xfffff897
       22965000	      2295	00000000	00000013	addi	x0,x0,0	  x0:0x00000000
       22975000	      2296	80002d7c	00000013	addi	x0,x0,0	  x0:0x00000000
       22985000	      2297	80002d80	400e88b3	sub	x17,x29,x0	 x29:0xffffef2a  x0:0x00000000 x17=0xffffef2a
       22995000	      2298	80002d84	01dc9db3	sll	x27,x25,x29	 x25:0x80002b58 x29:0xffffef2a x27=0x00ad6000
       23005000	      2299	80002d88	36673093	sltiu	x1,x14,870	 x14:0xb6000000  x1=0x00000000
       23015000	      2300	80002d8c	00aa8e63	beq	x21,x10,80002da8	 x21:0x00000000 x10:0xbd232e47
       23025000	      2301	80002d90	01064463	blt	x12,x16,80002d98	 x12:0x00000000 x16:0xfffffedf
       23035000	      2302	80002d94	0042ff33	and	x30,x5,x4	  x5:0x80002849  x4:0x000007aa x30=0x00000008
       23045000	      2303	80002d98	58d7e493	ori	x9,x15,1421	 x15:0x80009fc4  x9=0x80009fcd
       23055000	      2304	80002d9c	018d0e33	add	x28,x26,x24	 x26:0x80002b6c x24:0xfffff897 x28=0x80002403
       23065000	      2305	80002da0	03f44463	blt	x8,x31,80002dc8	  x8:0x64000000 x31:0x80009f64
       23075000	      2306	80002da4	00471263	bne	x14,x4,80002da8	 x14:0xb6000000  x4:0x000007aa
       23085000	      2307	00000000	00000013	addi	x0,x0,0	  x0:0x00000000
       23095000	      2308	80002da4	00000013	addi	x0,x0,0	  x0:0x00000000
       23105000	      2309	80002da8	5c017937	lui	x18,0x5c017	 x18=0x5c017000
       23115000	      2310	80002dac	24020317	auipc	x6,0x24020	  x6=0xa4022da8
       23125000	      2311	80002db0	0172b9b3	sltu	x19,x5,x23	  x5:0x80002849 x23:0x00000777 x19=0x00000000
       23135000	      2312	80002db4	00f139b3	sltu	x19,x2,x15	  x2:0xbd232e47 x15:0x80009fc4 x19=0x00000000
       23145000	      2313	80002db8	01172d33	slt	x26,x14,x17	 x14:0xb6000000 x17:0xffffef2a x26=0x00000001
       23155000	      2314	80002dbc	5bcafa97	auipc	x21,0x5bcaf	 x21=0xdbcb1db8
       23165000	      2315	80002dc0	00492333	slt	x6,x18,x4	 x18:0x5c017000  x4:0x000007aa  x6=0x00000000
       23175000	      2316	80002dc4	00726463	bltu	x4,x7,80002dcc	  x4:0x000007aa  x7:0xfffffff9
       23185000	      2317	00000000	00000013	addi	x0,x0,0	  x0:0x00000000
       23195000	      2318	80002dc8	00000013	addi	x0,x0,0	  x0:0x00000000
       23205000	      2319	80002dcc	008fc633	xor	x12,x31,x8	 x31:0x80009f64  x8:0x64000000 x12=0xe4009f64
       23215000	      2320	80002dd0	3aa4f593	andi	x11,x9,938	  x9:0x80009fcd x11=0x00000388
       23225000	      2321	80002dd4	01900833	add	x16,x0,x25	  x0:0x00000000 x25:0x80002b58 x16=0x80002b58
       23235000	      2322	80002dd8	40df89b3	sub	x19,x31,x13	 x31:0x80009f64 x13:0x5642a000 x19=0x29bdff64
       23245000	      2323	80002ddc	00a71a33	sll	x20,x14,x10	 x14:0xb6000000 x10:0xbd232e47 x20=0x00000000
       23255000	      2324	80002de0	003588b3	add	x17,x11,x3	 x11:0x00000388  x3:0xfffff000 x17=0xfffff388
       23265000	      2325	80002de4	05f94863	blt	x18,x31,80002e34	 x18:0x5c017000 x31:0x80009f64
       23275000	      2326	80002de8	01f4d463	bge	x9,x31,80002df0	  x9:0x80009fcd x31:0x80009f64
       23285000	      2327	00000000	00000013	addi	x0,x0,0	  x0:0x00000000
       23295000	      2328	80002dec	00000013	addi	x0,x0,0	  x0:0x00000000
       23305000	      2329	80002df0	03777063	bgeu	x14,x23,80002e10	 x14:0xb6000000 x23:0x00000777
       23315000	      2330	00000000	00000013	addi	x0,x0,0	  x0:0x00000000
       23325000	      2331	80002e0c	00000013	addi	x0,x0,0	  x0:0x00000000
       23335000	      2332	80002e10	00a49b93	slli	x23,x9,0xa	  x9:0x80009fcd x23=0x027f3400
       23345000	      2333	80002e14	01535c63	bge	x6,x21,80002e2c	  x6:0x00000000 x21:0xdbcb1db8
       23355000	      2334	00000000	00000013	addi	x0,x0,0	  x0:0x00000000
       23365000	      2335	80002e28	00000013	addi	x0,x0,0	  x0:0x00000000
       23375000	      2336	80002e2c	d2b34b37	lui	x22,0xd2b34	 x22=0xd2b34000
       23385000	      2337	80002e30	400b0833	sub	x16,x22,x0	 x22:0xd2b34000  x0:0x00000000 x16=0xd2b34000
       23395000	      2338	80002e34	446dad13	slti	x26,x27,1094	 x27:0x00ad6000 x26=0x00000000
       23405000	      2339	80002e38	00d26b33	or	x22,x4,x13	  x4:0x000007aa x13:0x5642a000 x22=0x5642a7aa
       23415000	      2340	80002e3c	3284ea93	ori	x21,x9,808	  x9:0x80009fcd x21=0x80009fed
       23425000	      2341	80002e40	f03dad13	slti	x26,x27,-253	 x27:0x00ad6000 x26=0x00000000
       23435000	      2342	80002e44	41bb8f33	sub	x30,x23,x27	 x23:0x027f3400 x27:0x00ad6000 x30=0x01d1d400
       23445000	      2343	80002e48	40db8a33	sub	x20,x23,x13	 x23:0x027f3400 x13:0x5642a000 x20=0xac3c9400
       23455000	      2344	80002e4c	00000013	addi	x0,x0,0	  x0:0x00000000
       23465000	      2345	80002e50	e947e517	auipc	x10,0xe947e	 x10=0x69480e4c
       23475000	      2346	80002e54	01bb1933	sll	x18,x22,x27	 x22:0x5642a7aa x27:0x00ad6000 x18=0x5642a7aa
       23485000	      2347	80002e58	41378733	sub	x14,x15,x19	 x15:0x80009fc4 x19:0x29bdff64 x14=0x5642a060
       23495000	      2348	80002e5c	017ac663	blt	x21,x23,80002e68	 x21:0x80009fed x23:0x027f3400
       23505000	      2349	00000000	00000013	addi	x0,x0,0	  x0:0x00000000
       23515000	      2350	80002e64	00000013	addi	x0,x0,0	  x0:0x00000000
       23525000	      2351	80002e68	01254a63	blt	x10,x18,80002e7c	 x10:0x69480e4c x18:0x5642a7aa
       23535000	      2352	80002e6c	00750933	add	x18,x10,x7	 x10:0x69480e4c  x7:0xfffffff9 x18=0x69480e45
       23545000	      2353	80002e70	221afc93	andi	x25,x21,545	 x21:0x80009fed x25=0x00000221
       23555000	      2354	80002e74	4157da93	srai	x21,x15,0x15	 x15:0x80009fc4 x21=0xfffffc00
       23565000	      2355	80002e78	03f14c63	blt	x2,x31,80002eb0	  x2:0xbd232e47 x31:0x80009f64
       23575000	      2356	80002e7c	0091fa63	bgeu	x3,x9,80002e90	  x3:0xfffff000  x9:0x80009fcd
       23585000	      2357	00000000	00000013	addi	x0,x0,0	  x0:0x00000000
       23595000	      2358	80002e8c	00000013	addi	x0,x0,0	  x0:0x00000000
       23605000	      2359	80002e90	01472333	slt	x6,x14,x20	 x14:0x5642a060 x20:0xac3c9400  x6=0x00000000
       23615000	      2360	80002e94	ec9d8c37	lui	x24,0xec9d8	 x24=0xec9d8000
       23625000	      2361	80002e98	02e15263	bge	x2,x14,80002ebc	  x2:0xbd232e47 x14:0x5642a060
       23635000	      2362	80002e9c	15783993	sltiu	x19,x16,343	 x16:0xd2b34000 x19=0x00000000
       23645000	      2363	80002ea0	748aeb93	ori	x23,x21,1864	 x21:0xfffffc00 x23=0xffffff48
       23655000	      2364	80002ea4	2b42f737	lui	x14,0x2b42f	 x14=0x2b42f000
       23665000	      2365	80002ea8	00000013	addi	x0,x0,0	  x0:0x00000000
       23675000	      2366	80002eac	00157c63	bgeu	x10,x1,80002ec4	 x10:0x69480e4c  x1:0x00000000
       23685000	      2367	00000000	00000013	addi	x0,x0,0	  x0:0x00000000
       23695000	      2368	80002ec0	00000013	addi	x0,x0,0	  x0:0x00000000
       23705000	      2369	80002ec4	003a9033	sll	x0,x21,x3	 x21:0xfffffc00  x3:0xfffff000
       23715000	      2370	80002ec8	7c6b8b13	addi	x22,x23,1990	 x23:0xffffff48 x22=0x0000070e
       23725000	      2371	80002ecc	4108d313	srai	x6,x17,0x10	 x17:0xfffff388  x6=0xffffffff
       23735000	      2372	80002ed0	00000013	addi	x0,x0,0	  x0:0x00000000
       23745000	      2373	80002ed4	03d36e63	bltu	x6,x29,80002f10	  x6:0xffffffff x29:0xffffef2a
       23755000	      2374	80002ed8	00040c33	add	x24,x8,x0	  x8:0x64000000  x0:0x00000000 x24=0x64000000
       23765000	      2375	80002edc	5b0dc213	xori	x4,x27,1456	 x27:0x00ad6000  x4=0x00ad65b0
       23775000	      2376	80002ee0	0154a9b3	slt	x19,x9,x21	  x9:0x80009fcd x21:0xfffffc00 x19=0x00000001
       23785000	      2377	80002ee4	d8d26293	ori	x5,x4,-627	  x4:0x00ad65b0  x5=0xfffffdbd
       23795000	      2378	80002ee8	47114d93	xori	x27,x2,1137	  x2:0xbd232e47 x27=0xbd232a36
       23805000	      2379	80002eec	d8e67193	andi	x3,x12,-626	 x12:0xe4009f64  x3=0xe4009d04
       23815000	      2380	80002ef0	da172b93	slti	x23,x14,-607	 x14:0x2b42f000 x23=0x00000000
       23825000	      2381	80002ef4	18774b93	xori	x23,x14,391	 x14:0x2b42f000 x23=0x2b42f187
       23835000	      2382	80002ef8	e5f0e913	ori	x18,x1,-417	  x1:0x00000000 x18=0xfffffe5f
       23845000	      2383	80002efc	028e7e63	bgeu	x28,x8,80002f38	 x28:0x80002403  x8:0x64000000
       23855000	      2384	00000000	00000013	addi	x0,x0,0	  x0:0x00000000
       23865000	      2385	80002f34	00000013	addi	x0,x0,0	  x0:0x00000000
       23875000	      2386	80002f38	018e6f33	or	x30,x28,x24	 x28:0x80002403 x24:0x64000000 x30=0xe4002403
       23885000	      2387	80002f3c	017f4e63	blt	x30,x23,80002f58	 x30:0xe4002403 x23:0x2b42f187
       23895000	      2388	00000000	00000013	addi	x0,x0,0	  x0:0x00000000
       23905000	      2389	80002f54	00000013	addi	x0,x0,0	  x0:0x00000000
       23915000	      2390	80002f58	00ee34b3	sltu	x9,x28,x14	 x28:0x80002403 x14:0x2b42f000  x9=0x00000000
       23925000	      2391	80002f5c	02395063	bge	x18,x3,80002f7c	 x18:0xfffffe5f  x3:0xe4009d04
       23935000	      2392	00000000	00000013	addi	x0,x0,0	  x0:0x00000000
       23945000	      2393	80002f78	00000013	addi	x0,x0,0	  x0:0x00000000
       23955000	      2394	80002f7c	4016d313	srai	x6,x13,0x1	 x13:0x5642a000  x6=0x2b215000
       23965000	      2395	80002f80	01020833	add	x16,x4,x16	  x4:0x00ad65b0 x16:0xd2b34000 x16=0xd360a5b0
       23975000	      2396	80002f84	01e53533	sltu	x10,x10,x30	 x10:0x69480e4c x30:0xe4002403 x10=0x00000001
       23985000	      2397	80002f88	0185e1b3	or	x3,x11,x24	 x11:0x00000388 x24:0x64000000  x3=0x64000388
       23995000	      2398	80002f8c	01af8b13	addi	x22,x31,26	 x31:0x80009f64 x22=0x80009f7e
       24005000	      2399	80002f90	015b9b13	slli	x22,x23,0x15	 x23:0x2b42f187 x22=0x30e00000
       24015000	      2400	80002f94	01621193	slli	x3,x4,0x16	  x4:0x00ad65b0  x3=0x6c000000
       24025000	      2401	80002f98	0720ce97	auipc	x29,0x720c	 x29=0x8720ef94
       24035000	      2402	80002f9c	a9f36c13	ori	x24,x6,-1377	  x6:0x2b215000 x24=0xfffffa9f
       24045000	      2403	80002fa0	bda90b93	addi	x23,x18,-1062	 x18:0xfffffe5f x23=0xfffffa39
       24055000	      2404	80002fa4	00711f33	sll	x30,x2,x7	  x2:0xbd232e47  x7:0xfffffff9 x30=0x8e000000
       24065000	      2405	80002fa8	03b58863	beq	x11,x27,80002fd8	 x11:0x00000388 x27:0xbd232a36
       24075000	      2406	80002fac	00fc8463	beq	x25,x15,80002fb4	 x25:0x00000221 x15:0x80009fc4
       24085000	      2407	80002fb0	0013f463	bgeu	x7,x1,80002fb8	  x7:0xfffffff9  x1:0x00000000
       24095000	      2408	00000000	00000013	addi	x0,x0,0	  x0:0x00000000
       24105000	      2409	80002fb4	00000013	addi	x0,x0,0	  x0:0x00000000
       24115000	      2410	80002fb8	01d8d893	srli	x17,x17,0x1d	 x17:0xfffff388 x17=0x00000007
       24125000	      2411	80002fbc	a6cefe13	andi	x28,x29,-1428	 x29:0x8720ef94 x28=0x8720ea04
       24135000	      2412	80002fc0	0190c663	blt	x1,x25,80002fcc	  x1:0x00000000 x25:0x00000221
       24145000	      2413	00000000	00000013	addi	x0,x0,0	  x0:0x00000000
       24155000	      2414	80002fc8	00000013	addi	x0,x0,0	  x0:0x00000000
       24165000	      2415	80002fcc	024d7863	bgeu	x26,x4,80002ffc	 x26:0x00000000  x4:0x00ad65b0
       24175000	      2416	80002fd0	007e5513	srli	x10,x28,0x7	 x28:0x8720ea04 x10=0x010e41d4
       24185000	      2417	80002fd4	7b45a237	lui	x4,0x7b45a	  x4=0x7b45a000
       24195000	      2418	80002fd8	01e48e63	beq	x9,x30,80002ff4	  x9:0x00000000 x30:0x8e000000
       24205000	      2419	80002fdc	015624b3	slt	x9,x12,x21	 x12:0xe4009f64 x21:0xfffffc00  x9=0x00000001
       24215000	      2420	80002fe0	01184663	blt	x16,x17,80002fec	 x16:0xd360a5b0 x17:0x00000007
       24225000	      2421	00000000	00000013	addi	x0,x0,0	  x0:0x00000000
       24235000	      2422	80002fe8	00000013	addi	x0,x0,0	  x0:0x00000000
       24245000	      2423	80002fec	0358de63	bge	x17,x21,80003028	 x17:0x00000007 x21:0xfffffc00
       24255000	      2424	00000000	00000013	addi	x0,x0,0	  x0:0x00000000
       24265000	      2425	80003024	00000013	addi	x0,x0,0	  x0:0x00000000
       24275000	      2426	80003028	041f8863	beq	x31,x1,80003078	 x31:0x80009f64  x1:0x00000000
       24285000	      2427	8000302c	f783b713	sltiu	x14,x7,-136	  x7:0xfffffff9 x14=0x00000000
       24295000	      2428	80003030	00cebeb3	sltu	x29,x29,x12	 x29:0x8720ef94 x12:0xe4009f64 x29=0x00000001
       24305000	      2429	80003034	8bfb8393	addi	x7,x23,-1857	 x23:0xfffffa39  x7=0xfffff2f8
       24315000	      2430	80003038	0157d033	srl	x0,x15,x21	 x15:0x80009fc4 x21:0xfffffc00
       24325000	      2431	8000303c	0303ce63	blt	x7,x16,80003078	  x7:0xfffff2f8 x16:0xd360a5b0
       24335000	      2432	80003040	0247f463	bgeu	x15,x4,80003068	 x15:0x80009fc4  x4:0x7b45a000
       24345000	      2433	00000000	00000013	addi	x0,x0,0	  x0:0x00000000
       24355000	      2434	80003064	00000013	addi	x0,x0,0	  x0:0x00000000
       24365000	      2435	80003068	00cfbcb3	sltu	x25,x31,x12	 x31:0x80009f64 x12:0xe4009f64 x25=0x00000001
       24375000	      2436	8000306c	0023aeb3	slt	x29,x7,x2	  x7:0xfffff2f8  x2:0xbd232e47 x29=0x00000000
       24385000	      2437	80003070	015b6c63	bltu	x22,x21,80003088	 x22:0x30e00000 x21:0xfffffc00
       24395000	      2438	00000000	00000013	addi	x0,x0,0	  x0:0x00000000
       24405000	      2439	80003084	00000013	addi	x0,x0,0	  x0:0x00000000
       24415000	      2440	80003088	033d9c63	bne	x27,x19,800030c0	 x27:0xbd232a36 x19:0x00000001
       24425000	      2441	00000000	00000013	addi	x0,x0,0	  x0:0x00000000
       24435000	      2442	800030bc	00000013	addi	x0,x0,0	  x0:0x00000000
       24445000	      2443	800030c0	327bee17	auipc	x28,0x327be	 x28=0xb27c10bc
       24455000	      2444	800030c4	0089df13	srli	x30,x19,0x8	 x19:0x00000001 x30=0x00000000
       24465000	      2445	800030c8	93d77e17	auipc	x28,0x93d77	 x28=0x13d7a0c4
       24475000	      2446	800030cc	02b9d663	bge	x19,x11,800030f8	 x19:0x00000001 x11:0x00000388
       24485000	      2447	800030d0	32fe3c13	sltiu	x24,x28,815	 x28:0x13d7a0c4 x24=0x00000000
       24495000	      2448	800030d4	0a93a293	slti	x5,x7,169	  x7:0xfffff2f8  x5=0x00000001
       24505000	      2449	800030d8	005c21b3	slt	x3,x24,x5	 x24:0x00000000  x5:0x00000001  x3=0x00000001
       24515000	      2450	800030dc	8f163013	sltiu	x0,x12,-1807	 x12:0xe4009f64
       24525000	      2451	800030e0	41d886b3	sub	x13,x17,x29	 x17:0x00000007 x29:0x00000000 x13=0x00000007
       24535000	      2452	800030e4	01286f33	or	x30,x16,x18	 x16:0xd360a5b0 x18:0xfffffe5f x30=0xffffffff
       24545000	      2453	800030e8	00180ab3	add	x21,x16,x1	 x16:0xd360a5b0  x1:0x00000000 x21=0xd360a5b0
       24555000	      2454	800030ec	8ac114b7	lui	x9,0x8ac11	  x9=0x8ac11000
       24565000	      2455	800030f0	59ddaf13	slti	x30,x27,1437	 x27:0xbd232a36 x30=0x00000001
       24575000	      2456	800030f4	68e5ee13	ori	x28,x11,1678	 x11:0x00000388 x28=0x0000078e
       24585000	      2457	800030f8	d182cb13	xori	x22,x5,-744	  x5:0x00000001 x22=0xfffffd19
       24595000	      2458	800030fc	01320e33	add	x28,x4,x19	  x4:0x7b45a000 x19:0x00000001 x28=0x7b45a001
       24605000	      2459	80003100	006c9e33	sll	x28,x25,x6	 x25:0x00000001  x6:0x2b215000 x28=0x00000001
       24615000	      2460	80003104	01d59f33	sll	x30,x11,x29	 x11:0x00000388 x29:0x00000000 x30=0x00000388
       24625000	      2461	80003108	01c08733	add	x14,x1,x28	  x1:0x00000000 x28:0x00000001 x14=0x00000001
       24635000	      2462	8000310c	00000013	addi	x0,x0,0	  x0:0x00000000
       24645000	      2463	80003110	01ffc033	xor	x0,x31,x31	 x31:0x80009f64 x31:0x80009f64
       24655000	      2464	80003114	6df32b93	slti	x23,x6,1759	  x6:0x2b215000 x23=0x00000000
       24665000	      2465	80003118	00129cb3	sll	x25,x5,x1	  x5:0x00000001  x1:0x00000000 x25=0x00000001
       24675000	      2466	8000311c	00859cb3	sll	x25,x11,x8	 x11:0x00000388  x8:0x64000000 x25=0x00000388
       24685000	      2467	80003120	bd8858b7	lui	x17,0xbd885	 x17=0xbd885000
       24695000	      2468	80003124	00000013	addi	x0,x0,0	  x0:0x00000000
       24705000	      2469	80003128	01465313	srli	x6,x12,0x14	 x12:0xe4009f64  x6=0x00000e40
       24715000	      2470	8000312c	012cd263	bge	x25,x18,80003130	 x25:0x00000388 x18:0xfffffe5f
       24725000	      2471	00000000	00000013	addi	x0,x0,0	  x0:0x00000000
       24735000	      2472	8000312c	00000013	addi	x0,x0,0	  x0:0x00000000
       24745000	      2473	80003130	92c8a313	slti	x6,x17,-1748	 x17:0xbd885000  x6=0x00000001
       24755000	      2474	80003134	00e8abb3	slt	x23,x17,x14	 x17:0xbd885000 x14:0x00000001 x23=0x00000001
       24765000	      2475	80003138	01e37433	and	x8,x6,x30	  x6:0x00000001 x30:0x00000388  x8=0x00000000
       24775000	      2476	8000313c	03a88063	beq	x17,x26,8000315c	 x17:0xbd885000 x26:0x00000000
       24785000	      2477	80003140	0a9cf513	andi	x10,x25,169	 x25:0x00000388 x10=0x00000088
       24795000	      2478	80003144	5f46a597	auipc	x11,0x5f46a	 x11=0xdf46d140
       24805000	      2479	80003148	a158cf13	xori	x30,x17,-1515	 x17:0xbd885000 x30=0x4277aa15
       24815000	      2480	8000314c	605beb13	ori	x22,x23,1541	 x23:0x00000001 x22=0x00000605
       24825000	      2481	80003150	95537313	andi	x6,x6,-1707	  x6:0x00000001  x6=0x00000001
       24835000	      2482	80003154	01bed093	srli	x1,x29,0x1b	 x29:0x00000000  x1=0x00000000
       24845000	      2483	80003158	4104d5b3	sra	x11,x9,x16	  x9:0x8ac11000 x16:0xd360a5b0 x11=0xffff8ac1
       24855000	      2484	8000315c	22356597	auipc	x11,0x22356	 x11=0xa2359158
       24865000	      2485	80003160	00605333	srl	x6,x0,x6	  x0:0x00000000  x6:0x00000001  x6=0x00000000
       24875000	      2486	80003164	0265fc63	bgeu	x11,x6,8000319c	 x11:0xa2359158  x6:0x00000000
       24885000	      2487	00000000	00000013	addi	x0,x0,0	  x0:0x00000000
       24895000	      2488	80003198	00000013	addi	x0,x0,0	  x0:0x00000000
       24905000	      2489	8000319c	40b5a293	slti	x5,x11,1035	 x11:0xa2359158  x5=0x00000001
       24915000	      2490	800031a0	004f1db3	sll	x27,x30,x4	 x30:0x4277aa15  x4:0x7b45a000 x27=0x4277aa15
       24925000	      2491	800031a4	00151593	slli	x11,x10,0x1	 x10:0x00000088 x11=0x00000110
       24935000	      2492	800031a8	0020a933	slt	x18,x1,x2	  x1:0x00000000  x2:0xbd232e47 x18=0x00000000
       24945000	      2493	800031ac	be3d4f13	xori	x30,x26,-1053	 x26:0x00000000 x30=0xfffffbe3
       24955000	      2494	800031b0	011e88b3	add	x17,x29,x17	 x29:0x00000000 x17:0xbd885000 x17=0xbd885000
       24965000	      2495	800031b4	03fece63	blt	x29,x31,800031f0	 x29:0x00000000 x31:0x80009f64
       24975000	      2496	800031b8	02527863	bgeu	x4,x5,800031e8	  x4:0x7b45a000  x5:0x00000001
       24985000	      2497	00000000	00000013	addi	x0,x0,0	  x0:0x00000000
       24995000	      2498	800031e4	00000013	addi	x0,x0,0	  x0:0x00000000
       25005000	      2499	800031e8	016244b3	xor	x9,x4,x22	  x4:0x7b45a000 x22:0x00000605  x9=0x7b45a605
       25015000	      2500	800031ec	014f2c33	slt	x24,x30,x20	 x30:0xfffffbe3 x20:0xac3c9400 x24=0x00000000
       25025000	      2501	800031f0	00912933	slt	x18,x2,x9	  x2:0xbd232e47  x9:0x7b45a605 x18=0x00000001
       25035000	      2502	800031f4	c2f87e13	andi	x28,x16,-977	 x16:0xd360a5b0 x28=0xd360a420
       25045000	      2503	800031f8	03d8c663	blt	x17,x29,80003224	 x17:0xbd885000 x29:0x00000000
       25055000	      2504	00000000	00000013	addi	x0,x0,0	  x0:0x00000000
       25065000	      2505	80003220	00000013	addi	x0,x0,0	  x0:0x00000000
       25075000	      2506	80003224	57852393	slti	x7,x10,1400	 x10:0x00000088  x7=0x00000001
       25085000	      2507	80003228	01d5f8b3	and	x17,x11,x29	 x11:0x00000110 x29:0x00000000 x17=0x00000000
       25095000	      2508	8000322c	41728a33	sub	x20,x5,x23	  x5:0x00000001 x23:0x00000001 x20=0x00000000
       25105000	      2509	80003230	007a9493	slli	x9,x21,0x7	 x21:0xd360a5b0  x9=0xb052d800
       25115000	      2510	80003234	0024fdb3	and	x27,x9,x2	  x9:0xb052d800  x2:0xbd232e47 x27=0xb0020800
       25125000	      2511	80003238	00000013	addi	x0,x0,0	  x0:0x00000000
       25135000	      2512	8000323c	41f3d333	sra	x6,x7,x31	  x7:0x00000001 x31:0x80009f64  x6=0x00000000
       25145000	      2513	80003240	73b33893	sltiu	x17,x6,1851	  x6:0x00000000 x17=0x00000001
       25155000	      2514	80003244	00e6d3b3	srl	x7,x13,x14	 x13:0x00000007 x14:0x00000001  x7=0x00000003
       25165000	      2515	80003248	01add0b3	srl	x1,x27,x26	 x27:0xb0020800 x26:0x00000000  x1=0xb0020800
       25175000	      2516	8000324c	e2edfe93	andi	x29,x27,-466	 x27:0xb0020800 x29=0xb0020800
       25185000	      2517	80003250	018b5433	srl	x8,x22,x24	 x22:0x00000605 x24:0x00000000  x8=0x00000605
       25195000	      2518	80003254	00356663	bltu	x10,x3,80003260	 x10:0x00000088  x3:0x00000001
       25205000	      2519	80003258	35401097	auipc	x1,0x35401	  x1=0xb5404254
       25215000	      2520	8000325c	b404f413	andi	x8,x9,-1216	  x9:0xb052d800  x8=0xb052d800
       25225000	      2521	80003260	4046d5b3	sra	x11,x13,x4	 x13:0x00000007  x4:0x7b45a000 x11=0x00000007
       25235000	      2522	80003264	01b99263	bne	x19,x27,80003268	 x19:0x00000001 x27:0xb0020800
       25245000	      2523	00000000	00000013	addi	x0,x0,0	  x0:0x00000000
       25255000	      2524	80003264	00000013	addi	x0,x0,0	  x0:0x00000000
       25265000	      2525	80003268	0288c463	blt	x17,x8,80003290	 x17:0x00000001  x8:0xb052d800
       25275000	      2526	8000326c	0197ec33	or	x24,x15,x25	 x15:0x80009fc4 x25:0x00000388 x24=0x80009fcc
       25285000	      2527	80003270	014c5e63	bge	x24,x20,8000328c	 x24:0x80009fcc x20:0x00000000
       25295000	      2528	80003274	01dc8ab3	add	x21,x25,x29	 x25:0x00000388 x29:0xb0020800 x21=0xb0020b88
       25305000	      2529	80003278	0001ebb3	or	x23,x3,x0	  x3:0x00000001  x0:0x00000000 x23=0x00000001
       25315000	      2530	8000327c	005d3d33	sltu	x26,x26,x5	 x26:0x00000000  x5:0x00000001 x26=0x00000001
       25325000	      2531	80003280	00e2a3b3	slt	x7,x5,x14	  x5:0x00000001 x14:0x00000001  x7=0x00000000
       25335000	      2532	80003284	35758417	auipc	x8,0x35758	  x8=0xb575b280
       25345000	      2533	80003288	af25a413	slti	x8,x11,-1294	 x11:0x00000007  x8=0x00000000
       25355000	      2534	8000328c	00cfe333	or	x6,x31,x12	 x31:0x80009f64 x12:0xe4009f64  x6=0xe4009f64
       25365000	      2535	80003290	00251a63	bne	x10,x2,800032a4	 x10:0x00000088  x2:0xbd232e47
       25375000	      2536	00000000	00000013	addi	x0,x0,0	  x0:0x00000000
       25385000	      2537	800032a0	00000013	addi	x0,x0,0	  x0:0x00000000
       25395000	      2538	800032a4	40005c13	srai	x24,x0,0x0	  x0:0x00000000 x24=0x00000000
       25405000	      2539	800032a8	001aa9b3	slt	x19,x21,x1	 x21:0xb0020b88  x1:0xb5404254 x19=0x00000001
       25415000	      2540	800032ac	01b49693	slli	x13,x9,0x1b	  x9:0xb052d800 x13=0x00000000
       25425000	      2541	800032b0	0283ea63	bltu	x7,x8,800032e4	  x7:0x00000000  x8:0x00000000
       25435000	      2542	800032b4	03d89a63	bne	x17,x29,800032e8	 x17:0x00000001 x29:0xb0020800
       25445000	      2543	00000000	00000013	addi	x0,x0,0	  x0:0x00000000
       25455000	      2544	800032e4	00000013	addi	x0,x0,0	  x0:0x00000000
       25465000	      2545	800032e8	94ffa217	auipc	x4,0x94ffa	  x4=0x14ffd2e4
       25475000	      2546	800032ec	01735c93	srli	x25,x6,0x17	  x6:0xe4009f64 x25=0x000001c8
       25485000	      2547	800032f0	01f29bb3	sll	x23,x5,x31	  x5:0x00000001 x31:0x80009f64 x23=0x00000010
       25495000	      2548	800032f4	0014dd93	srli	x27,x9,0x1	  x9:0xb052d800 x27=0x58296c00
       25505000	      2549	800032f8	00fad233	srl	x4,x21,x15	 x21:0xb0020b88 x15:0x80009fc4  x4=0x0b0020b8
       25515000	      2550	800032fc	047cb917	auipc	x18,0x47cb	 x18=0x847ce2f8
       25525000	      2551	80003300	29857617	auipc	x12,0x29857	 x12=0xa985a2fc
       25535000	      2552	80003304	0324cc63	blt	x9,x18,8000333c	  x9:0xb052d800 x18:0x847ce2f8
       25545000	      2553	80003308	33e56893	ori	x17,x10,830	 x10:0x00000088 x17=0x000003be
       25555000	      2554	8000330c	0006f2b3	and	x5,x13,x0	 x13:0x00000000  x0:0x00000000  x5=0x00000000
       25565000	      2555	80003310	ce362513	slti	x10,x12,-797	 x12:0xa985a2fc x10=0x00000001
       25575000	      2556	80003314	bce69837	lui	x16,0xbce69	 x16=0xbce69000
       25585000	      2557	80003318	40abdc13	srai	x24,x23,0xa	 x23:0x00000010 x24=0x00000000
       25595000	      2558	8000331c	74fe8013	addi	x0,x29,1871	 x29:0xb0020800
       25605000	      2559	80003320	011f6233	or	x4,x30,x17	 x30:0xfffffbe3 x17:0x000003be  x4=0xfffffbff
       25615000	      2560	80003324	01429a63	bne	x5,x20,80003338	  x5:0x00000000 x20:0x00000000
       25625000	      2561	80003328	01570e63	beq	x14,x21,80003344	 x14:0x00000001 x21:0xb0020b88
       25635000	      2562	8000332c	008be233	or	x4,x23,x8	 x23:0x00000010  x8:0x00000000  x4=0x00000010
       25645000	      2563	80003330	01ca55b3	srl	x11,x20,x28	 x20:0x00000000 x28:0xd360a420 x11=0x00000000
       25655000	      2564	80003334	00836bb3	or	x23,x6,x8	  x6:0xe4009f64  x8:0x00000000 x23=0xe4009f64
       25665000	      2565	80003338	01ec5713	srli	x14,x24,0x1e	 x24:0x00000000 x14=0x00000000
       25675000	      2566	8000333c	4007d333	sra	x6,x15,x0	 x15:0x80009fc4  x0:0x00000000  x6=0x80009fc4
       25685000	      2567	80003340	007c28b3	slt	x17,x24,x7	 x24:0x00000000  x7:0x00000000 x17=0x00000000
       25695000	      2568	80003344	b9bd0293	addi	x5,x26,-1125	 x26:0x00000001  x5=0xfffffb9c
       25705000	      2569	80003348	000ccf33	xor	x30,x25,x0	 x25:0x000001c8  x0:0x00000000 x30=0x000001c8
       25715000	      2570	8000334c	04bd9863	bne	x27,x11,8000339c	 x27:0x58296c00 x11:0x00000000
       25725000	      2571	00000000	00000013	addi	x0,x0,0	  x0:0x00000000
       25735000	      2572	80003398	00000013	addi	x0,x0,0	  x0:0x00000000
       25745000	      2573	8000339c	e1fcdd97	auipc	x27,0xe1fcd	 x27=0x61fd0398
       25755000	      2574	800033a0	019afbb3	and	x23,x21,x25	 x21:0xb0020b88 x25:0x000001c8 x23=0x00000188
       25765000	      2575	800033a4	01f3d093	srli	x1,x7,0x1f	  x7:0x00000000  x1=0x00000000
       25775000	      2576	800033a8	abbde913	ori	x18,x27,-1349	 x27:0x61fd0398 x18=0xfffffbbb
       25785000	      2577	800033ac	05307863	bgeu	x0,x19,800033fc	  x0:0x00000000 x19:0x00000001
       25795000	      2578	800033b0	022c1a63	bne	x24,x2,800033e4	 x24:0x00000000  x2:0xbd232e47
       25805000	      2579	00000000	00000013	addi	x0,x0,0	  x0:0x00000000
       25815000	      2580	800033e0	00000013	addi	x0,x0,0	  x0:0x00000000
       25825000	      2581	800033e4	4f55c593	xori	x11,x11,1269	 x11:0x00000000 x11=0x000004f5
       25835000	      2582	800033e8	82e63a13	sltiu	x20,x12,-2002	 x12:0xa985a2fc x20=0x00000001
       25845000	      2583	800033ec	00267e63	bgeu	x12,x2,80003408	 x12:0xa985a2fc  x2:0xbd232e47
       25855000	      2584	800033f0	01f38db3	add	x27,x7,x31	  x7:0x00000000 x31:0x80009f64 x27=0x80009f64
       25865000	      2585	800033f4	00000013	addi	x0,x0,0	  x0:0x00000000
       25875000	      2586	800033f8	002be5b3	or	x11,x23,x2	 x23:0x00000188  x2:0xbd232e47 x11=0xbd232fcf
       25885000	      2587	800033fc	023d6c63	bltu	x26,x3,80003434	 x26:0x00000001  x3:0x00000001
       25895000	      2588	80003400	d8327d13	andi	x26,x4,-637	  x4:0x00000010 x26=0x00000000
       25905000	      2589	80003404	01933c33	sltu	x24,x6,x25	  x6:0x80009fc4 x25:0x000001c8 x24=0x00000000
       25915000	      2590	80003408	01e68e33	add	x28,x13,x30	 x13:0x00000000 x30:0x000001c8 x28=0x000001c8
       25925000	      2591	8000340c	28f02d13	slti	x26,x0,655	  x0:0x00000000 x26=0x00000001
       25935000	      2592	80003410	22875817	auipc	x16,0x22875	 x16=0xa287840c
       25945000	      2593	80003414	00580ab3	add	x21,x16,x5	 x16:0xa287840c  x5:0xfffffb9c x21=0xa2877fa8
       25955000	      2594	80003418	1557f493	andi	x9,x15,341	 x15:0x80009fc4  x9=0x00000144
       25965000	      2595	8000341c	7e0a4d93	xori	x27,x20,2016	 x20:0x00000001 x27=0x000007e1
       25975000	      2596	80003420	01d32d33	slt	x26,x6,x29	  x6:0x80009fc4 x29:0xb0020800 x26=0x00000001
       25985000	      2597	80003424	02a10e63	beq	x2,x10,80003460	  x2:0xbd232e47 x10:0x00000001
       25995000	      2598	80003428	33023693	sltiu	x13,x4,816	  x4:0x00000010 x13=0x00000001
       26005000	      2599	8000342c	02166063	bltu	x12,x1,8000344c	 x12:0xa985a2fc  x1:0x00000000
       26015000	      2600	80003430	52416813	ori	x16,x2,1316	  x2:0xbd232e47 x16=0xbd232f67
       26025000	      2601	80003434	00aa60b3	or	x1,x20,x10	 x20:0x00000001 x10:0x00000001  x1=0x00000001
       26035000	      2602	80003438	f6346f13	ori	x30,x8,-157	  x8:0x00000000 x30=0xffffff63
       26045000	      2603	8000343c	a9c9f213	andi	x4,x19,-1380	 x19:0x00000001  x4=0x00000000
       26055000	      2604	80003440	013e2733	slt	x14,x28,x19	 x28:0x000001c8 x19:0x00000001 x14=0x00000000
       26065000	      2605	80003444	017e9313	slli	x6,x29,0x17	 x29:0xb0020800  x6=0x00000000
       26075000	      2606	80003448	00387663	bgeu	x16,x3,80003454	 x16:0xbd232f67  x3:0x00000001
       26085000	      2607	00000000	00000013	addi	x0,x0,0	  x0:0x00000000
       26095000	      2608	80003450	00000013	addi	x0,x0,0	  x0:0x00000000
       26105000	      2609	80003454	02315e63	bge	x2,x3,80003490	  x2:0xbd232e47  x3:0x00000001
       26115000	      2610	80003458	010eacb3	slt	x25,x29,x16	 x29:0xb0020800 x16:0xbd232f67 x25=0x00000001
       26125000	      2611	8000345c	007b4663	blt	x22,x7,80003468	 x22:0x00000605  x7:0x00000000
       26135000	      2612	80003460	004dfab3	and	x21,x27,x4	 x27:0x000007e1  x4:0x00000000 x21=0x00000000
       26145000	      2613	80003464	01179913	slli	x18,x15,0x11	 x15:0x80009fc4 x18=0x3f880000
       26155000	      2614	80003468	40985b13	srai	x22,x16,0x9	 x16:0xbd232f67 x22=0xffde9197
       26165000	      2615	8000346c	6a186193	ori	x3,x16,1697	 x16:0xbd232f67  x3=0xbd232fe7
       26175000	      2616	80003470	ff31cf13	xori	x30,x3,-13	  x3:0xbd232fe7 x30=0x42dcd014
       26185000	      2617	80003474	010541b3	xor	x3,x10,x16	 x10:0x00000001 x16:0xbd232f67  x3=0xbd232f66
       26195000	      2618	80003478	07636663	bltu	x6,x22,800034e4	  x6:0x00000000 x22:0xffde9197
       26205000	      2619	00000000	00000013	addi	x0,x0,0	  x0:0x00000000
       26215000	      2620	800034e0	00000013	addi	x0,x0,0	  x0:0x00000000
       26225000	      2621	800034e4	40230db3	sub	x27,x6,x2	  x6:0x00000000  x2:0xbd232e47 x27=0x42dcd1b9
       26235000	      2622	800034e8	7c71ca93	xori	x21,x3,1991	  x3:0xbd232f66 x21=0xbd2328a1
       26245000	      2623	800034ec	0db8eb13	ori	x22,x17,219	 x17:0x00000000 x22=0x000000db
       26255000	      2624	800034f0	00000013	addi	x0,x0,0	  x0:0x00000000
       26265000	      2625	800034f4	01b45533	srl	x10,x8,x27	  x8:0x00000000 x27:0x42dcd1b9 x10=0x00000000
       26275000	      2626	800034f8	d4037893	andi	x17,x6,-704	  x6:0x00000000 x17=0x00000000
       26285000	      2627	800034fc	00c6f233	and	x4,x13,x12	 x13:0x00000001 x12:0xa985a2fc  x4=0x00000000
       26295000	      2628	80003500	031d8a63	beq	x27,x17,80003534	 x27:0x42dcd1b9 x17:0x00000000
       26305000	      2629	80003504	9928c713	xori	x14,x17,-1646	 x17:0x00000000 x14=0xfffff992
       26315000	      2630	80003508	02061463	bne	x12,x0,80003530	 x12:0xa985a2fc  x0:0x00000000
       26325000	      2631	00000000	00000013	addi	x0,x0,0	  x0:0x00000000
       26335000	      2632	8000352c	00000013	addi	x0,x0,0	  x0:0x00000000
       26345000	      2633	80003530	03801263	bne	x0,x24,80003554	  x0:0x00000000 x24:0x00000000
       26355000	      2634	80003534	80ecaa93	slti	x21,x25,-2034	 x25:0x00000001 x21=0x00000000
       26365000	      2635	80003538	018722b3	slt	x5,x14,x24	 x14:0xfffff992 x24:0x00000000  x5=0x00000001
       26375000	      2636	8000353c	004dbf33	sltu	x30,x27,x4	 x27:0x42dcd1b9  x4:0x00000000 x30=0x00000000
       26385000	      2637	80003540	e1996993	ori	x19,x18,-487	 x18:0x3f880000 x19=0xfffffe19
       26395000	      2638	80003544	00e2d033	srl	x0,x5,x14	  x5:0x00000001 x14:0xfffff992
       26405000	      2639	80003548	b2ca6593	ori	x11,x20,-1236	 x20:0x00000001 x11=0xfffffb2d
       26415000	      2640	8000354c	dff6eb93	ori	x23,x13,-513	 x13:0x00000001 x23=0xfffffdff
       26425000	      2641	80003550	e72ecc37	lui	x24,0xe72ec	 x24=0xe72ec000
       26435000	      2642	80003554	007d1463	bne	x26,x7,8000355c	 x26:0x00000001  x7:0x00000000
       26445000	      2643	00000000	00000013	addi	x0,x0,0	  x0:0x00000000
       26455000	      2644	80003558	00000013	addi	x0,x0,0	  x0:0x00000000
       26465000	      2645	8000355c	01b4dc63	bge	x9,x27,80003574	  x9:0x00000144 x27:0x42dcd1b9
       26475000	      2646	80003560	00e82333	slt	x6,x16,x14	 x16:0xbd232f67 x14:0xfffff992  x6=0x00000001
       26485000	      2647	80003564	00d3d593	srli	x11,x7,0xd	  x7:0x00000000 x11=0x00000000
       26495000	      2648	80003568	02130463	beq	x6,x1,80003590	  x6:0x00000001  x1:0x00000001
       26505000	      2649	00000000	00000013	addi	x0,x0,0	  x0:0x00000000
       26515000	      2650	8000358c	00000013	addi	x0,x0,0	  x0:0x00000000
       26525000	      2651	80003590	8c1c2813	slti	x16,x24,-1855	 x24:0xe72ec000 x16=0x00000001
       26535000	      2652	80003594	01bb4a63	blt	x22,x27,800035a8	 x22:0x000000db x27:0x42dcd1b9
       26545000	      2653	00000000	00000013	addi	x0,x0,0	  x0:0x00000000
       26555000	      2654	800035a4	00000013	addi	x0,x0,0	  x0:0x00000000
       26565000	      2655	800035a8	0091fab3	and	x21,x3,x9	  x3:0xbd232f66  x9:0x00000144 x21=0x00000144
       26575000	      2656	800035ac	417908b3	sub	x17,x18,x23	 x18:0x3f880000 x23:0xfffffdff x17=0x3f880201
       26585000	      2657	800035b0	016c6893	ori	x17,x24,22	 x24:0xe72ec000 x17=0xe72ec016
       26595000	      2658	800035b4	00000013	addi	x0,x0,0	  x0:0x00000000
       26605000	      2659	800035b8	011dcd33	xor	x26,x27,x17	 x27:0x42dcd1b9 x17:0xe72ec016 x26=0xa5f211af
       26615000	      2660	800035bc	13880913	addi	x18,x16,312	 x16:0x00000001 x18=0x00000139
       26625000	      2661	800035c0	03789863	bne	x17,x23,800035f0	 x17:0xe72ec016 x23:0xfffffdff
       26635000	      2662	00000000	00000013	addi	x0,x0,0	  x0:0x00000000
       26645000	      2663	800035ec	00000013	addi	x0,x0,0	  x0:0x00000000
       26655000	      2664	800035f0	020b0663	beq	x22,x0,8000361c	 x22:0x000000db  x0:0x00000000
       26665000	      2665	800035f4	000885b3	add	x11,x17,x0	 x17:0xe72ec016  x0:0x00000000 x11=0xe72ec016
       26675000	      2666	800035f8	adbac513	xori	x10,x21,-1317	 x21:0x00000144 x10=0xfffffb9f
       26685000	      2667	800035fc	41ba8c33	sub	x24,x21,x27	 x21:0x00000144 x27:0x42dcd1b9 x24=0xbd232f8b
       26695000	      2668	80003600	0188de63	bge	x17,x24,8000361c	 x17:0xe72ec016 x24:0xbd232f8b
       26705000	      2669	00000000	00000013	addi	x0,x0,0	  x0:0x00000000
       26715000	      2670	80003618	00000013	addi	x0,x0,0	  x0:0x00000000
       26725000	      2671	8000361c	01b32bb3	slt	x23,x6,x27	  x6:0x00000001 x27:0x42dcd1b9 x23=0x00000001
       26735000	      2672	80003620	4f97a693	slti	x13,x15,1273	 x15:0x80009fc4 x13=0x00000001
       26745000	      2673	80003624	405688b3	sub	x17,x13,x5	 x13:0x00000001  x5:0x00000001 x17=0x00000000
       26755000	      2674	80003628	0fd93413	sltiu	x8,x18,253	 x18:0x00000139  x8=0x00000000
       26765000	      2675	8000362c	00dc6733	or	x14,x24,x13	 x24:0xbd232f8b x13:0x00000001 x14=0xbd232f8b
       26775000	      2676	80003630	009b9d13	slli	x26,x23,0x9	 x23:0x00000001 x26=0x00000200
       26785000	      2677	80003634	df083893	sltiu	x17,x16,-528	 x16:0x00000001 x17=0x00000001
       26795000	      2678	80003638	02cdee63	bltu	x27,x12,80003674	 x27:0x42dcd1b9 x12:0xa985a2fc
       26805000	      2679	00000000	00000013	addi	x0,x0,0	  x0:0x00000000
       26815000	      2680	80003670	00000013	addi	x0,x0,0	  x0:0x00000000
       26825000	      2681	80003674	fdc83c13	sltiu	x24,x16,-36	 x16:0x00000001 x24=0x00000001
       26835000	      2682	80003678	0248de63	bge	x17,x4,800036b4	 x17:0x00000001  x4:0x00000000
       26845000	      2683	00000000	00000013	addi	x0,x0,0	  x0:0x00000000
       26855000	      2684	800036b0	00000013	addi	x0,x0,0	  x0:0x00000000
       26865000	      2685	800036b4	00c905b3	add	x11,x18,x12	 x18:0x00000139 x12:0xa985a2fc x11=0xa985a435
       26875000	      2686	800036b8	003b6bb3	or	x23,x22,x3	 x22:0x000000db  x3:0xbd232f66 x23=0xbd232fff
       26885000	      2687	800036bc	01be0463	beq	x28,x27,800036c4	 x28:0x000001c8 x27:0x42dcd1b9
       26895000	      2688	800036c0	01405533	srl	x10,x0,x20	  x0:0x00000000 x20:0x00000001 x10=0x00000000
       26905000	      2689	800036c4	41418733	sub	x14,x3,x20	  x3:0xbd232f66 x20:0x00000001 x14=0xbd232f65
       26915000	      2690	800036c8	86c60ab7	lui	x21,0x86c60	 x21=0x86c60000
       26925000	      2691	800036cc	40ce8f33	sub	x30,x29,x12	 x29:0xb0020800 x12:0xa985a2fc x30=0x067c6504
       26935000	      2692	800036d0	407ad693	srai	x13,x21,0x7	 x21:0x86c60000 x13=0xff0d8c00
       26945000	      2693	800036d4	02384063	blt	x16,x3,800036f4	 x16:0x00000001  x3:0xbd232f66
       26955000	      2694	800036d8	2d7db993	sltiu	x19,x27,727	 x27:0x42dcd1b9 x19=0x00000000
       26965000	      2695	800036dc	dcea0d93	addi	x27,x20,-562	 x20:0x00000001 x27=0xfffffdcf
       26975000	      2696	800036e0	bd884993	xori	x19,x16,-1064	 x16:0x00000001 x19=0xfffffbd9
       26985000	      2697	800036e4	8b4ea293	slti	x5,x29,-1868	 x29:0xb0020800  x5=0x00000001
       26995000	      2698	800036e8	d9f98c13	addi	x24,x19,-609	 x19:0xfffffbd9 x24=0xfffff978
       27005000	      2699	800036ec	00057ab3	and	x21,x10,x0	 x10:0x00000000  x0:0x00000000 x21=0x00000000
       27015000	      2700	800036f0	de7f7893	andi	x17,x30,-537	 x30:0x067c6504 x17=0x067c6504
       27025000	      2701	800036f4	01d1dd93	srli	x27,x3,0x1d	  x3:0xbd232f66 x27=0x00000005
       27035000	      2702	800036f8	004b4a63	blt	x22,x4,8000370c	 x22:0x000000db  x4:0x00000000
       27045000	      2703	800036fc	1e42f613	andi	x12,x5,484	  x5:0x00000001 x12=0x00000000
       27055000	      2704	80003700	415b5513	srai	x10,x22,0x15	 x22:0x000000db x10=0x00000000
       27065000	      2705	80003704	27beb713	sltiu	x14,x29,635	 x29:0xb0020800 x14=0x00000000
       27075000	      2706	80003708	eb7f6b13	ori	x22,x30,-329	 x30:0x067c6504 x22=0xffffffb7
       27085000	      2707	8000370c	dca16c93	ori	x25,x2,-566	  x2:0xbd232e47 x25=0xffffffcf
       27095000	      2708	80003710	09ce3093	sltiu	x1,x28,156	 x28:0x000001c8  x1=0x00000000
       27105000	      2709	80003714	41518733	sub	x14,x3,x21	  x3:0xbd232f66 x21:0x00000000 x14=0xbd232f66
       27115000	      2710	80003718	01333633	sltu	x12,x6,x19	  x6:0x00000001 x19:0xfffffbd9 x12=0x00000001
       27125000	      2711	8000371c	0054ec33	or	x24,x9,x5	  x9:0x00000144  x5:0x00000001 x24=0x00000145
       27135000	      2712	80003720	015d6c63	bltu	x26,x21,80003738	 x26:0x00000200 x21:0x00000000
       27145000	      2713	80003724	04483993	sltiu	x19,x16,68	 x16:0x00000001 x19=0x00000001
       27155000	      2714	80003728	017aee63	bltu	x21,x23,80003744	 x21:0x00000000 x23:0xbd232fff
       27165000	      2715	00000000	00000013	addi	x0,x0,0	  x0:0x00000000
       27175000	      2716	80003740	00000013	addi	x0,x0,0	  x0:0x00000000
       27185000	      2717	80003744	41e55c13	srai	x24,x10,0x1e	 x10:0x00000000 x24=0x00000000
       27195000	      2718	80003748	9ff7f413	andi	x8,x15,-1537	 x15:0x80009fc4  x8=0x800099c4
       27205000	      2719	8000374c	00c49663	bne	x9,x12,80003758	  x9:0x00000144 x12:0x00000001
       27215000	      2720	00000000	00000013	addi	x0,x0,0	  x0:0x00000000
       27225000	      2721	80003754	00000013	addi	x0,x0,0	  x0:0x00000000
       27235000	      2722	80003758	0151de63	bge	x3,x21,80003774	  x3:0xbd232f66 x21:0x00000000
       27245000	      2723	8000375c	01f77db3	and	x27,x14,x31	 x14:0xbd232f66 x31:0x80009f64 x27=0x80000f64
       27255000	      2724	80003760	405dd833	sra	x16,x27,x5	 x27:0x80000f64  x5:0x00000001 x16=0xc00007b2
       27265000	      2725	80003764	41075313	srai	x6,x14,0x10	 x14:0xbd232f66  x6=0xffffbd23
       27275000	      2726	80003768	006694b3	sll	x9,x13,x6	 x13:0xff0d8c00  x6:0xffffbd23  x9=0xf86c6000
       27285000	      2727	8000376c	53756d13	ori	x26,x10,1335	 x10:0x00000000 x26=0x00000537
       27295000	      2728	80003770	02117663	bgeu	x2,x1,8000379c	  x2:0xbd232e47  x1:0x00000000
       27305000	      2729	00000000	00000013	addi	x0,x0,0	  x0:0x00000000
       27315000	      2730	80003798	00000013	addi	x0,x0,0	  x0:0x00000000
       27325000	      2731	8000379c	3ee39537	lui	x10,0x3ee39	 x10=0x3ee39000
       27335000	      2732	800037a0	00000013	addi	x0,x0,0	  x0:0x00000000
       27345000	      2733	800037a4	0118ad33	slt	x26,x17,x17	 x17:0x067c6504 x17:0x067c6504 x26=0x00000000
       27355000	      2734	800037a8	40245893	srai	x17,x8,0x2	  x8:0x800099c4 x17=0xe0002671
       27365000	      2735	800037ac	34292637	lui	x12,0x34292	 x12=0x34292000
       27375000	      2736	800037b0	65290d37	lui	x26,0x65290	 x26=0x65290000
       27385000	      2737	800037b4	001225b3	slt	x11,x4,x1	  x4:0x00000000  x1:0x00000000 x11=0x00000000
       27395000	      2738	800037b8	001778b3	and	x17,x14,x1	 x14:0xbd232f66  x1:0x00000000 x17=0x00000000
       27405000	      2739	800037bc	f38230b7	lui	x1,0xf3823	  x1=0xf3823000
       27415000	      2740	800037c0	8669b393	sltiu	x7,x19,-1946	 x19:0x00000001  x7=0x00000001
       27425000	      2741	800037c4	01b5d493	srli	x9,x11,0x1b	 x11:0x00000000  x9=0x00000000
       27435000	      2742	800037c8	011ed593	srli	x11,x29,0x11	 x29:0xb0020800 x11=0x00005801
       27445000	      2743	800037cc	002dea33	or	x20,x27,x2	 x27:0x80000f64  x2:0xbd232e47 x20=0xbd232f67
       27455000	      2744	800037d0	010599b3	sll	x19,x11,x16	 x11:0x00005801 x16:0xc00007b2 x19=0x60040000
       27465000	      2745	800037d4	01c20463	beq	x4,x28,800037dc	  x4:0x00000000 x28:0x000001c8
       27475000	      2746	800037d8	032c9463	bne	x25,x18,80003800	 x25:0xffffffcf x18:0x00000139
       27485000	      2747	00000000	00000013	addi	x0,x0,0	  x0:0x00000000
       27495000	      2748	800037fc	00000013	addi	x0,x0,0	  x0:0x00000000
       27505000	      2749	80003800	409189b3	sub	x19,x3,x9	  x3:0xbd232f66  x9:0x00000000 x19=0xbd232f66
       27515000	      2750	80003804	40c54a13	xori	x20,x10,1036	 x10:0x3ee39000 x20=0x3ee3940c
       27525000	      2751	80003808	000cb2b3	sltu	x5,x25,x0	 x25:0xffffffcf  x0:0x00000000  x5=0x00000000
       27535000	      2752	8000380c	03951c63	bne	x10,x25,80003844	 x10:0x3ee39000 x25:0xffffffcf
       27545000	      2753	00000000	00000013	addi	x0,x0,0	  x0:0x00000000
       27555000	      2754	80003840	00000013	addi	x0,x0,0	  x0:0x00000000
       27565000	      2755	80003844	6ef3ba13	sltiu	x20,x7,1775	  x7:0x00000001 x20=0x00000001
       27575000	      2756	80003848	01984c63	blt	x16,x25,80003860	 x16:0xc00007b2 x25:0xffffffcf
       27585000	      2757	00000000	00000013	addi	x0,x0,0	  x0:0x00000000
       27595000	      2758	8000385c	00000013	addi	x0,x0,0	  x0:0x00000000
       27605000	      2759	80003860	037b9a63	bne	x23,x23,80003894	 x23:0xbd232fff x23:0xbd232fff
       27615000	      2760	80003864	ff092a93	slti	x21,x18,-16	 x18:0x00000139 x21=0x00000000
       27625000	      2761	80003868	a230ad13	slti	x26,x1,-1501	  x1:0xf3823000 x26=0x00000001
       27635000	      2762	8000386c	23017013	andi	x0,x2,560	  x2:0xbd232e47
       27645000	      2763	80003870	006f6933	or	x18,x30,x6	 x30:0x067c6504  x6:0xffffbd23 x18=0xfffffd27
       27655000	      2764	80003874	01698f33	add	x30,x19,x22	 x19:0xbd232f66 x22:0xffffffb7 x30=0xbd232f1d
       27665000	      2765	80003878	0309d263	bge	x19,x16,8000389c	 x19:0xbd232f66 x16:0xc00007b2
       27675000	      2766	8000387c	013671b3	and	x3,x12,x19	 x12:0x34292000 x19:0xbd232f66  x3=0x34212000
       27685000	      2767	80003880	99ed3013	sltiu	x0,x26,-1634	 x26:0x00000001
       27695000	      2768	80003884	6becf813	andi	x16,x25,1726	 x25:0xffffffcf x16=0x0000068e
       27705000	      2769	80003888	43063593	sltiu	x11,x12,1072	 x12:0x34292000 x11=0x00000000
       27715000	      2770	8000388c	41045ab3	sra	x21,x8,x16	  x8:0x800099c4 x16:0x0000068e x21=0xfffe0002
       27725000	      2771	80003890	0498d863	bge	x17,x9,800038e0	 x17:0x00000000  x9:0x00000000
       27735000	      2772	00000000	00000013	addi	x0,x0,0	  x0:0x00000000
       27745000	      2773	800038dc	00000013	addi	x0,x0,0	  x0:0x00000000
       27755000	      2774	800038e0	01c81413	slli	x8,x16,0x1c	 x16:0x0000068e  x8=0xe0000000
       27765000	      2775	800038e4	01218663	beq	x3,x18,800038f0	  x3:0x34212000 x18:0xfffffd27
       27775000	      2776	800038e8	019e6d33	or	x26,x28,x25	 x28:0x000001c8 x25:0xffffffcf x26=0xffffffcf
       27785000	      2777	800038ec	0b634993	xori	x19,x6,182	  x6:0xffffbd23 x19=0xffffbd95
       27795000	      2778	800038f0	4095da13	srai	x20,x11,0x9	 x11:0x00000000 x20=0x00000000
       27805000	      2779	800038f4	00000013	addi	x0,x0,0	  x0:0x00000000
       27815000	      2780	800038f8	780afab7	lui	x21,0x780af	 x21=0x780af000
       27825000	      2781	800038fc	012c9a93	slli	x21,x25,0x12	 x25:0xffffffcf x21=0xff3c0000
       27835000	      2782	80003900	012600b3	add	x1,x12,x18	 x12:0x34292000 x18:0xfffffd27  x1=0x34291d27
       27845000	      2783	80003904	cf0b92b7	lui	x5,0xcf0b9	  x5=0xcf0b9000
       27855000	      2784	80003908	62292513	slti	x10,x18,1570	 x18:0xfffffd27 x10=0x00000001
       27865000	      2785	8000390c	d471f617	auipc	x12,0xd471f	 x12=0x54722908
       27875000	      2786	80003910	2f10f9b7	lui	x19,0x2f10f	 x19=0x2f10f000
       27885000	      2787	80003914	0052ebb3	or	x23,x5,x5	  x5:0xcf0b9000  x5:0xcf0b9000 x23=0xcf0b9000
       27895000	      2788	80003918	ad629617	auipc	x12,0xad629	 x12=0x2d62c914
       27905000	      2789	8000391c	d1e5b413	sltiu	x8,x11,-738	 x11:0x00000000  x8=0x00000001
       27915000	      2790	80003920	f7dd4313	xori	x6,x26,-131	 x26:0xffffffcf  x6=0x000000b2
       27925000	      2791	80003924	00000013	addi	x0,x0,0	  x0:0x00000000
       27935000	      2792	80003928	76f32e17	auipc	x28,0x76f32	 x28=0xf6f35924
       27945000	      2793	8000392c	00000013	addi	x0,x0,0	  x0:0x00000000
       27955000	      2794	80003930	00b81893	slli	x17,x16,0xb	 x16:0x0000068e x17=0x00347000
       27965000	      2795	80003934	d958b813	sltiu	x16,x17,-619	 x17:0x00347000 x16=0x00000001
       27975000	      2796	80003938	01302eb3	slt	x29,x0,x19	  x0:0x00000000 x19:0x2f10f000 x29=0x00000001
       27985000	      2797	8000393c	01f90ab3	add	x21,x18,x31	 x18:0xfffffd27 x31:0x80009f64 x21=0x80009c8b
       27995000	      2798	80003940	00000013	addi	x0,x0,0	  x0:0x00000000
       28005000	      2799	80003944	6c930393	addi	x7,x6,1737	  x6:0x000000b2  x7=0x0000077b
       28015000	      2800	80003948	02b0de63	bge	x1,x11,80003984	  x1:0x34291d27 x11:0x00000000
       28025000	      2801	00000000	00000013	addi	x0,x0,0	  x0:0x00000000
       28035000	      2802	80003980	00000013	addi	x0,x0,0	  x0:0x00000000
       28045000	      2803	80003984	00ea9663	bne	x21,x14,80003990	 x21:0x80009c8b x14:0xbd232f66
       28055000	      2804	00000000	00000013	addi	x0,x0,0	  x0:0x00000000
       28065000	      2805	8000398c	00000013	addi	x0,x0,0	  x0:0x00000000
       28075000	      2806	80003990	0084c463	blt	x9,x8,80003998	  x9:0x00000000  x8:0x00000001
       28085000	      2807	00000000	00000013	addi	x0,x0,0	  x0:0x00000000
       28095000	      2808	80003994	00000013	addi	x0,x0,0	  x0:0x00000000
       28105000	      2809	80003998	e22f4f13	xori	x30,x30,-478	 x30:0xbd232f1d x30=0x42dcd13f
       28115000	      2810	8000399c	02609a63	bne	x1,x6,800039d0	  x1:0x34291d27  x6:0x000000b2
       28125000	      2811	00000000	00000013	addi	x0,x0,0	  x0:0x00000000
       28135000	      2812	800039cc	00000013	addi	x0,x0,0	  x0:0x00000000
       28145000	      2813	800039d0	00000013	addi	x0,x0,0	  x0:0x00000000
       28155000	      2814	800039d4	012769b3	or	x19,x14,x18	 x14:0xbd232f66 x18:0xfffffd27 x19=0xffffff67
       28165000	      2815	800039d8	02f75e63	bge	x14,x15,80003a14	 x14:0xbd232f66 x15:0x80009fc4
       28175000	      2816	00000000	00000013	addi	x0,x0,0	  x0:0x00000000
       28185000	      2817	80003a10	00000013	addi	x0,x0,0	  x0:0x00000000
       28195000	      2818	80003a14	09756a63	bltu	x10,x23,80003aa8	 x10:0x00000001 x23:0xcf0b9000
       28205000	      2819	00000000	00000013	addi	x0,x0,0	  x0:0x00000000
       28215000	      2820	80003aa4	00000013	addi	x0,x0,0	  x0:0x00000000
       28225000	      2821	80003aa8	01e82733	slt	x14,x16,x30	 x16:0x00000001 x30:0x42dcd13f x14=0x00000001
       28235000	      2822	80003aac	41eed033	sra	x0,x29,x30	 x29:0x00000001 x30:0x42dcd13f
       28245000	      2823	80003ab0	010aae33	slt	x28,x21,x16	 x21:0x80009c8b x16:0x00000001 x28=0x00000001
       28255000	      2824	80003ab4	df982f13	slti	x30,x16,-519	 x16:0x00000001 x30=0x00000000
       28265000	      2825	80003ab8	014ee433	or	x8,x29,x20	 x29:0x00000001 x20:0x00000000  x8=0x00000001
       28275000	      2826	80003abc	40c180b3	sub	x1,x3,x12	  x3:0x34212000 x12:0x2d62c914  x1=0x06be56ec
       28285000	      2827	80003ac0	40e05633	sra	x12,x0,x14	  x0:0x00000000 x14:0x00000001 x12=0x00000000
       28295000	      2828	80003ac4	be7af893	andi	x17,x21,-1049	 x21:0x80009c8b x17=0x80009883
       28305000	      2829	80003ac8	00f65e63	bge	x12,x15,80003ae4	 x12:0x00000000 x15:0x80009fc4
       28315000	      2830	00000000	00000013	addi	x0,x0,0	  x0:0x00000000
       28325000	      2831	80003ae0	00000013	addi	x0,x0,0	  x0:0x00000000
       28335000	      2832	80003ae4	0016be33	sltu	x28,x13,x1	 x13:0xff0d8c00  x1:0x06be56ec x28=0x00000000
       28345000	      2833	80003ae8	e8bf8e13	addi	x28,x31,-373	 x31:0x80009f64 x28=0x80009def
       28355000	      2834	80003aec	f688fa37	lui	x20,0xf688f	 x20=0xf688f000
       28365000	      2835	80003af0	404f5e93	srai	x29,x30,0x4	 x30:0x00000000 x29=0x00000000
       28375000	      2836	80003af4	0185a233	slt	x4,x11,x24	 x11:0x00000000 x24:0x00000000  x4=0x00000000
       28385000	      2837	80003af8	74f19b97	auipc	x23,0x74f19	 x23=0xf4f1caf4
       28395000	      2838	80003afc	cd5de813	ori	x16,x27,-811	 x27:0x80000f64 x16=0xfffffff5
       28405000	      2839	80003b00	01b0f233	and	x4,x1,x27	  x1:0x06be56ec x27:0x80000f64  x4=0x00000664
       28415000	      2840	80003b04	2db10c93	addi	x25,x2,731	  x2:0xbd232e47 x25=0xbd233122
       28425000	      2841	80003b08	9fe0b913	sltiu	x18,x1,-1538	  x1:0x06be56ec x18=0x00000001
       28435000	      2842	80003b0c	03d31e63	bne	x6,x29,80003b48	  x6:0x000000b2 x29:0x00000000
       28445000	      2843	00000000	00000013	addi	x0,x0,0	  x0:0x00000000
       28455000	      2844	80003b44	00000013	addi	x0,x0,0	  x0:0x00000000
       28465000	      2845	80003b48	0026acb3	slt	x25,x13,x2	 x13:0xff0d8c00  x2:0xbd232e47 x25=0x00000000
       28475000	      2846	80003b4c	00b32ab3	slt	x21,x6,x11	  x6:0x000000b2 x11:0x00000000 x21=0x00000000
       28485000	      2847	80003b50	a9024e93	xori	x29,x4,-1392	  x4:0x00000664 x29=0xfffffcf4
       28495000	      2848	80003b54	01e85193	srli	x3,x16,0x1e	 x16:0xfffffff5  x3=0x00000003
       28505000	      2849	80003b58	f1b70e93	addi	x29,x14,-229	 x14:0x00000001 x29=0xffffff1c
       28515000	      2850	80003b5c	60ea4d93	xori	x27,x20,1550	 x20:0xf688f000 x27=0xf688f60e
       28525000	      2851	80003b60	02b18663	beq	x3,x11,80003b8c	  x3:0x00000003 x11:0x00000000
       28535000	      2852	80003b64	03c0c463	blt	x1,x28,80003b8c	  x1:0x06be56ec x28:0x80009def
       28545000	      2853	80003b68	7e422b13	slti	x22,x4,2020	  x4:0x00000664 x22=0x00000001
       28555000	      2854	80003b6c	011ddc93	srli	x25,x27,0x11	 x27:0xf688f60e x25=0x00007b44
       28565000	      2855	80003b70	0000f833	and	x16,x1,x0	  x1:0x06be56ec  x0:0x00000000 x16=0x00000000
       28575000	      2856	80003b74	02518e63	beq	x3,x5,80003bb0	  x3:0x00000003  x5:0xcf0b9000
       28585000	      2857	80003b78	01169993	slli	x19,x13,0x11	 x13:0xff0d8c00 x19=0x18000000
       28595000	      2858	80003b7c	49472e93	slti	x29,x14,1172	 x14:0x00000001 x29=0x00000001
       28605000	      2859	80003b80	019f7a33	and	x20,x30,x25	 x30:0x00000000 x25:0x00007b44 x20=0x00000000
       28615000	      2860	80003b84	410401b3	sub	x3,x8,x16	  x8:0x00000001 x16:0x00000000  x3=0x00000001
       28625000	      2861	80003b88	00d6eb33	or	x22,x13,x13	 x13:0xff0d8c00 x13:0xff0d8c00 x22=0xff0d8c00
       28635000	      2862	80003b8c	0e58af13	slti	x30,x17,229	 x17:0x80009883 x30=0x00000001
       28645000	      2863	80003b90	00812933	slt	x18,x2,x8	  x2:0xbd232e47  x8:0x00000001 x18=0x00000001
       28655000	      2864	80003b94	00ecea33	or	x20,x25,x14	 x25:0x00007b44 x14:0x00000001 x20=0x00007b45
       28665000	      2865	80003b98	00000013	addi	x0,x0,0	  x0:0x00000000
       28675000	      2866	80003b9c	08ebde63	bge	x23,x14,80003c38	 x23:0xf4f1caf4 x14:0x00000001
       28685000	      2867	80003ba0	7e477813	andi	x16,x14,2020	 x14:0x00000001 x16=0x00000000
       28695000	      2868	80003ba4	83cf2a97	auipc	x21,0x83cf2	 x21=0x03cf5ba0
       28705000	      2869	80003ba8	010b7733	and	x14,x22,x16	 x22:0xff0d8c00 x16:0x00000000 x14=0x00000000
       28715000	      2870	80003bac	01abe933	or	x18,x23,x26	 x23:0xf4f1caf4 x26:0xffffffcf x18=0xffffffff
       28725000	      2871	80003bb0	3e123693	sltiu	x13,x4,993	  x4:0x00000664 x13=0x00000000
       28735000	      2872	80003bb4	3cc73093	sltiu	x1,x14,972	 x14:0x00000000  x1=0x00000001
       28745000	      2873	80003bb8	00000013	addi	x0,x0,0	  x0:0x00000000
       28755000	      2874	80003bbc	00000013	addi	x0,x0,0	  x0:0x00000000
       28765000	      2875	80003bc0	019f9233	sll	x4,x31,x25	 x31:0x80009f64 x25:0x00007b44  x4=0x0009f640
       28775000	      2876	80003bc4	07c7ea63	bltu	x15,x28,80003c38	 x15:0x80009fc4 x28:0x80009def
       28785000	      2877	80003bc8	4033dc13	srai	x24,x7,0x3	  x7:0x0000077b x24=0x000000ef
       28795000	      2878	80003bcc	002c9993	slli	x19,x25,0x2	 x25:0x00007b44 x19=0x0001ed10
       28805000	      2879	80003bd0	41925d93	srai	x27,x4,0x19	  x4:0x0009f640 x27=0x00000000
       28815000	      2880	80003bd4	0182e263	bltu	x5,x24,80003bd8	  x5:0xcf0b9000 x24:0x000000ef
       28825000	      2881	80003bd8	cf432393	slti	x7,x6,-780	  x6:0x000000b2  x7=0x00000000
       28835000	      2882	80003bdc	08775463	bge	x14,x7,80003c64	 x14:0x00000000  x7:0x00000000
       28845000	      2883	00000000	00000013	addi	x0,x0,0	  x0:0x00000000
       28855000	      2884	80003c60	00000013	addi	x0,x0,0	  x0:0x00000000
       28865000	      2885	80003c64	019eec63	bltu	x29,x25,80003c7c	 x29:0x00000001 x25:0x00007b44
       28875000	      2886	00000000	00000013	addi	x0,x0,0	  x0:0x00000000
       28885000	      2887	80003c78	00000013	addi	x0,x0,0	  x0:0x00000000
       28895000	      2888	80003c7c	017d9ab3	sll	x21,x27,x23	 x27:0x00000000 x23:0xf4f1caf4 x21=0x00000000
       28905000	      2889	80003c80	7bff3713	sltiu	x14,x30,1983	 x30:0x00000001 x14=0x00000001
       28915000	      2890	80003c84	03747063	bgeu	x8,x23,80003ca4	  x8:0x00000001 x23:0xf4f1caf4
       28925000	      2891	80003c88	002296b3	sll	x13,x5,x2	  x5:0xcf0b9000  x2:0xbd232e47 x13=0x85c80000
       28935000	      2892	80003c8c	e5101bb7	lui	x23,0xe5101	 x23=0xe5101000
       28945000	      2893	80003c90	01aec463	blt	x29,x26,80003c98	 x29:0x00000001 x26:0xffffffcf
       28955000	      2894	80003c94	43f1f493	andi	x9,x3,1087	  x3:0x00000001  x9=0x00000001
       28965000	      2895	80003c98	02e55e63	bge	x10,x14,80003cd4	 x10:0x00000001 x14:0x00000001
       28975000	      2896	00000000	00000013	addi	x0,x0,0	  x0:0x00000000
       28985000	      2897	80003cd0	00000013	addi	x0,x0,0	  x0:0x00000000
       28995000	      2898	80003cd4	01496463	bltu	x18,x20,80003cdc	 x18:0xffffffff x20:0x00007b45
       29005000	      2899	80003cd8	015e8433	add	x8,x29,x21	 x29:0x00000001 x21:0x00000000  x8=0x00000001
       29015000	      2900	80003cdc	01957bb3	and	x23,x10,x25	 x10:0x00000001 x25:0x00007b44 x23=0x00000000
       29025000	      2901	80003ce0	02a10e63	beq	x2,x10,80003d1c	  x2:0xbd232e47 x10:0x00000001
       29035000	      2902	80003ce4	015b7b33	and	x22,x22,x21	 x22:0xff0d8c00 x21:0x00000000 x22=0x00000000
       29045000	      2903	80003ce8	020f8263	beq	x31,x0,80003d0c	 x31:0x80009f64  x0:0x00000000
       29055000	      2904	80003cec	017d7b33	and	x22,x26,x23	 x26:0xffffffcf x23:0x00000000 x22=0x00000000
       29065000	      2905	80003cf0	009b5013	srli	x0,x22,0x9	 x22:0x00000000
       29075000	      2906	80003cf4	e3cc3913	sltiu	x18,x24,-452	 x24:0x000000ef x18=0x00000001
       29085000	      2907	80003cf8	00000013	addi	x0,x0,0	  x0:0x00000000
       29095000	      2908	80003cfc	40e1d033	sra	x0,x3,x14	  x3:0x00000001 x14:0x00000001
       29105000	      2909	80003d00	40e65493	srai	x9,x12,0xe	 x12:0x00000000  x9=0x00000000
       29115000	      2910	80003d04	00ca1db3	sll	x27,x20,x12	 x20:0x00007b45 x12:0x00000000 x27=0x00007b45
       29125000	      2911	80003d08	01675a13	srli	x20,x14,0x16	 x14:0x00000001 x20=0x00000000
       29135000	      2912	80003d0c	a9961437	lui	x8,0xa9961	  x8=0xa9961000
       29145000	      2913	80003d10	d684ec13	ori	x24,x9,-664	  x9:0x00000000 x24=0xfffffd68
       29155000	      2914	80003d14	47d6e593	ori	x11,x13,1149	 x13:0x85c80000 x11=0x85c8047d
       29165000	      2915	80003d18	00fc82b3	add	x5,x25,x15	 x25:0x00007b44 x15:0x80009fc4  x5=0x80011b08
       29175000	      2916	80003d1c	03939863	bne	x7,x25,80003d4c	  x7:0x00000000 x25:0x00007b44
       29185000	      2917	00000000	00000013	addi	x0,x0,0	  x0:0x00000000
       29195000	      2918	80003d48	00000013	addi	x0,x0,0	  x0:0x00000000
       29205000	      2919	80003d4c	014ad493	srli	x9,x21,0x14	 x21:0x00000000  x9=0x00000000
       29215000	      2920	80003d50	71880493	addi	x9,x16,1816	 x16:0x00000000  x9=0x00000718
       29225000	      2921	80003d54	007f6033	or	x0,x30,x7	 x30:0x00000001  x7:0x00000000
       29235000	      2922	80003d58	ddcc6e17	auipc	x28,0xddcc6	 x28=0x5dcc9d54
       29245000	      2923	80003d5c	013d0433	add	x8,x26,x19	 x26:0xffffffcf x19:0x0001ed10  x8=0x0001ecdf
       29255000	      2924	80003d60	6ac98913	addi	x18,x19,1708	 x19:0x0001ed10 x18=0x0001f3bc
       29265000	      2925	80003d64	00000013	addi	x0,x0,0	  x0:0x00000000
       29275000	      2926	80003d68	001e7463	bgeu	x28,x1,80003d70	 x28:0x5dcc9d54  x1:0x00000001
       29285000	      2927	00000000	00000013	addi	x0,x0,0	  x0:0x00000000
       29295000	      2928	80003d6c	00000013	addi	x0,x0,0	  x0:0x00000000
       29305000	      2929	80003d70	8eb87f13	andi	x30,x16,-1813	 x16:0x00000000 x30=0x00000000
       29315000	      2930	80003d74	c51a3013	sltiu	x0,x20,-943	 x20:0x00000000
       29325000	      2931	80003d78	003bc533	xor	x10,x23,x3	 x23:0x00000000  x3:0x00000001 x10=0x00000001
       29335000	      2932	80003d7c	019fadb3	slt	x27,x31,x25	 x31:0x80009f64 x25:0x00007b44 x27=0x00000001
       29345000	      2933	80003d80	88928b97	auipc	x23,0x88928	 x23=0x0892bd7c
       29355000	      2934	80003d84	00fb1a93	slli	x21,x22,0xf	 x22:0x00000000 x21=0x00000000
       29365000	      2935	80003d88	00ea92b3	sll	x5,x21,x14	 x21:0x00000000 x14:0x00000001  x5=0x00000000
       29375000	      2936	80003d8c	006df3b3	and	x7,x27,x6	 x27:0x00000001  x6:0x000000b2  x7=0x00000000
       29385000	      2937	80003d90	01101433	sll	x8,x0,x17	  x0:0x00000000 x17:0x80009883  x8=0x00000000
       29395000	      2938	80003d94	02481663	bne	x16,x4,80003dc0	 x16:0x00000000  x4:0x0009f640
       29405000	      2939	00000000	00000013	addi	x0,x0,0	  x0:0x00000000
       29415000	      2940	80003dbc	00000013	addi	x0,x0,0	  x0:0x00000000
       29425000	      2941	80003dc0	021d6c63	bltu	x26,x1,80003df8	 x26:0xffffffcf  x1:0x00000001
       29435000	      2942	80003dc4	01739593	slli	x11,x7,0x17	  x7:0x00000000 x11=0x00000000
       29445000	      2943	80003dc8	416bdd13	srai	x26,x23,0x16	 x23:0x0892bd7c x26=0x00000022
       29455000	      2944	80003dcc	026bd863	bge	x23,x6,80003dfc	 x23:0x0892bd7c  x6:0x000000b2
       29465000	      2945	00000000	00000013	addi	x0,x0,0	  x0:0x00000000
       29475000	      2946	80003df8	00000013	addi	x0,x0,0	  x0:0x00000000
       29485000	      2947	80003dfc	0193bcb3	sltu	x25,x7,x25	  x7:0x00000000 x25:0x00007b44 x25=0x00000001
       29495000	      2948	80003e00	419a0e33	sub	x28,x20,x25	 x20:0x00000000 x25:0x00000001 x28=0xffffffff
       29505000	      2949	80003e04	0076aa33	slt	x20,x13,x7	 x13:0x85c80000  x7:0x00000000 x20=0x00000001
       29515000	      2950	80003e08	03eb8a63	beq	x23,x30,80003e3c	 x23:0x0892bd7c x30:0x00000000
       29525000	      2951	80003e0c	c82ccb13	xori	x22,x25,-894	 x25:0x00000001 x22=0xfffffc83
       29535000	      2952	80003e10	41465913	srai	x18,x12,0x14	 x12:0x00000000 x18=0x00000000
       29545000	      2953	80003e14	fc532317	auipc	x6,0xfc532	  x6=0x7c535e10
       29555000	      2954	80003e18	403f0ab3	sub	x21,x30,x3	 x30:0x00000000  x3:0x00000001 x21=0xffffffff
       29565000	      2955	80003e1c	0008b633	sltu	x12,x17,x0	 x17:0x80009883  x0:0x00000000 x12=0x00000000
       29575000	      2956	80003e20	015c1233	sll	x4,x24,x21	 x24:0xfffffd68 x21:0xffffffff  x4=0x00000000
       29585000	      2957	80003e24	9ba53413	sltiu	x8,x10,-1606	 x10:0x00000001  x8=0x00000001
       29595000	      2958	80003e28	1096cb37	lui	x22,0x1096c	 x22=0x1096c000
       29605000	      2959	80003e2c	d1fb3713	sltiu	x14,x22,-737	 x22:0x1096c000 x14=0x00000001
       29615000	      2960	80003e30	a5d0bc13	sltiu	x24,x1,-1443	  x1:0x00000001 x24=0x00000001
       29625000	      2961	80003e34	40cd5a93	srai	x21,x26,0xc	 x26:0x00000022 x21=0x00000000
       29635000	      2962	80003e38	01e2b533	sltu	x10,x5,x30	  x5:0x00000000 x30:0x00000000 x10=0x00000000
       29645000	      2963	80003e3c	7cbd7f13	andi	x30,x26,1995	 x26:0x00000022 x30=0x00000002
       29655000	      2964	80003e40	006f9393	slli	x7,x31,0x6	 x31:0x80009f64  x7=0x0027d900
       29665000	      2965	80003e44	013a9a63	bne	x21,x19,80003e58	 x21:0x00000000 x19:0x0001ed10
       29675000	      2966	00000000	00000013	addi	x0,x0,0	  x0:0x00000000
       29685000	      2967	80003e54	00000013	addi	x0,x0,0	  x0:0x00000000
       29695000	      2968	80003e58	017475b3	and	x11,x8,x23	  x8:0x00000001 x23:0x0892bd7c x11=0x00000000
       29705000	      2969	80003e5c	40805e13	srai	x28,x0,0x8	  x0:0x00000000 x28=0x00000000
       29715000	      2970	80003e60	00a61db3	sll	x27,x12,x10	 x12:0x00000000 x10:0x00000000 x27=0x00000000
       29725000	      2971	80003e64	c9debeb7	lui	x29,0xc9deb	 x29=0xc9deb000
       29735000	      2972	80003e68	00e4de93	srli	x29,x9,0xe	  x9:0x00000718 x29=0x00000000
       29745000	      2973	80003e6c	81e05d97	auipc	x27,0x81e05	 x27=0x01e08e68
       29755000	      2974	80003e70	47ad2293	slti	x5,x26,1146	 x26:0x00000022  x5=0x00000001
       29765000	      2975	80003e74	013a1493	slli	x9,x20,0x13	 x20:0x00000001  x9=0x00080000
       29775000	      2976	80003e78	0002d0b3	srl	x1,x5,x0	  x5:0x00000001  x0:0x00000000  x1=0x00000001
       29785000	      2977	80003e7c	e5583697	auipc	x13,0xe5583	 x13=0x65586e78
       29795000	      2978	80003e80	5984e293	ori	x5,x9,1432	  x9:0x00080000  x5=0x00080598
       29805000	      2979	80003e84	03cf7463	bgeu	x30,x28,80003eac	 x30:0x00000002 x28:0x00000000
       29815000	      2980	00000000	00000013	addi	x0,x0,0	  x0:0x00000000
       29825000	      2981	80003ea8	00000013	addi	x0,x0,0	  x0:0x00000000
       29835000	      2982	80003eac	017f2f33	slt	x30,x30,x23	 x30:0x00000002 x23:0x0892bd7c x30=0x00000001
       29845000	      2983	80003eb0	0106fc63	bgeu	x13,x16,80003ec8	 x13:0x65586e78 x16:0x00000000
       29855000	      2984	00000000	00000013	addi	x0,x0,0	  x0:0x00000000
       29865000	      2985	80003ec4	00000013	addi	x0,x0,0	  x0:0x00000000
       29875000	      2986	80003ec8	00eb26b3	slt	x13,x22,x14	 x22:0x1096c000 x14:0x00000001 x13=0x00000000
       29885000	      2987	80003ecc	00288263	beq	x17,x2,80003ed0	 x17:0x80009883  x2:0xbd232e47
       29895000	      2988	80003ed0	194918b7	lui	x17,0x19491	 x17=0x19491000
       29905000	      2989	80003ed4	01ba0eb3	add	x29,x20,x27	 x20:0x00000001 x27:0x01e08e68 x29=0x01e08e69
       29915000	      2990	80003ed8	008e1463	bne	x28,x8,80003ee0	 x28:0x00000000  x8:0x00000001
       29925000	      2991	00000000	00000013	addi	x0,x0,0	  x0:0x00000000
       29935000	      2992	80003edc	00000013	addi	x0,x0,0	  x0:0x00000000
       29945000	      2993	80003ee0	16edf717	auipc	x14,0x16edf	 x14=0x96ee2edc
       29955000	      2994	80003ee4	0036c333	xor	x6,x13,x3	 x13:0x00000000  x3:0x00000001  x6=0x00000001
       29965000	      2995	80003ee8	00df5a33	srl	x20,x30,x13	 x30:0x00000001 x13:0x00000000 x20=0x00000001
       29975000	      2996	80003eec	012d35b3	sltu	x11,x26,x18	 x26:0x00000022 x18:0x00000000 x11=0x00000000
       29985000	      2997	80003ef0	00dd11b3	sll	x3,x26,x13	 x26:0x00000022 x13:0x00000000  x3=0x00000022
       29995000	      2998	80003ef4	047a7863	bgeu	x20,x7,80003f44	 x20:0x00000001  x7:0x0027d900
       30005000	      2999	80003ef8	d9959417	auipc	x8,0xd9959	  x8=0x5995cef4
       30015000	      3000	80003efc	fbe0f413	andi	x8,x1,-66	  x1:0x00000001  x8=0x00000000
       30025000	      3001	80003f00	63464293	xori	x5,x12,1588	 x12:0x00000000  x5=0x00000634
       30035000	      3002	80003f04	00b36663	bltu	x6,x11,80003f10	  x6:0x00000001 x11:0x00000000
       30045000	      3003	80003f08	03468863	beq	x13,x20,80003f38	 x13:0x00000000 x20:0x00000001
       30055000	      3004	80003f0c	00b70733	add	x14,x14,x11	 x14:0x96ee2edc x11:0x00000000 x14=0x96ee2edc
       30065000	      3005	80003f10	19703b93	sltiu	x23,x0,407	  x0:0x00000000 x23=0x00000001
       30075000	      3006	80003f14	03a9de63	bge	x19,x26,80003f50	 x19:0x0001ed10 x26:0x00000022
       30085000	      3007	00000000	00000013	addi	x0,x0,0	  x0:0x00000000
       30095000	      3008	80003f4c	00000013	addi	x0,x0,0	  x0:0x00000000
       30105000	      3009	80003f50	01295393	srli	x7,x18,0x12	 x18:0x00000000  x7=0x00000000
       30115000	      3010	80003f54	00379463	bne	x15,x3,80003f5c	 x15:0x80009fc4  x3:0x00000022
       30125000	      3011	00000000	00000013	addi	x0,x0,0	  x0:0x00000000
       30135000	      3012	80003f58	00000013	addi	x0,x0,0	  x0:0x00000000
       30145000	      3013	80003f5c	01f4de93	srli	x29,x9,0x1f	  x9:0x00080000 x29=0x00000000
       30155000	      3014	80003f60	699bf393	andi	x7,x23,1689	 x23:0x00000001  x7=0x00000001
       30165000	      3015	80003f64	00000013	addi	x0,x0,0	  x0:0x00000000
       30175000	      3016	80003f68	01888a63	beq	x17,x24,80003f7c	 x17:0x19491000 x24:0x00000001
       30185000	      3017	80003f6c	feda0613	addi	x12,x20,-19	 x20:0x00000001 x12=0xffffffee
       30195000	      3018	80003f70	00465813	srli	x16,x12,0x4	 x12:0xffffffee x16=0x0ffffffe
       30205000	      3019	80003f74	00d0df33	srl	x30,x1,x13	  x1:0x00000001 x13:0x00000000 x30=0x00000001
       30215000	      3020	80003f78	0156b033	sltu	x0,x13,x21	 x13:0x00000000 x21:0x00000000
       30225000	      3021	80003f7c	41418033	sub	x0,x3,x20	  x3:0x00000022 x20:0x00000001
       30235000	      3022	80003f80	018fa333	slt	x6,x31,x24	 x31:0x80009f64 x24:0x00000001  x6=0x00000001
       30245000	      3023	80003f84	01895693	srli	x13,x18,0x18	 x18:0x00000000 x13=0x00000000
       30255000	      3024	80003f88	51202817	auipc	x16,0x51202	 x16=0xd1205f84
       30265000	      3025	80003f8c	00f96bb3	or	x23,x18,x15	 x18:0x00000000 x15:0x80009fc4 x23=0x80009fc4
       30275000	      3026	80003f90	a0673a13	sltiu	x20,x14,-1530	 x14:0x96ee2edc x20=0x00000001
       30285000	      3027	80003f94	00999013	slli	x0,x19,0x9	 x19:0x0001ed10
       30295000	      3028	80003f98	0055ccb3	xor	x25,x11,x5	 x11:0x00000000  x5:0x00000634 x25=0x00000634
       30305000	      3029	80003f9c	7484c613	xori	x12,x9,1864	  x9:0x00080000 x12=0x00080748
       30315000	      3030	80003fa0	40b55e33	sra	x28,x10,x11	 x10:0x00000000 x11:0x00000000 x28=0x00000000
       30325000	      3031	80003fa4	90ab8c13	addi	x24,x23,-1782	 x23:0x80009fc4 x24=0x800098ce
       30335000	      3032	80003fa8	01accab3	xor	x21,x25,x26	 x25:0x00000634 x26:0x00000022 x21=0x00000616
       30345000	      3033	80003fac	00c938b3	sltu	x17,x18,x12	 x18:0x00000000 x12:0x00080748 x17=0x00000001
       30355000	      3034	80003fb0	01a73d33	sltu	x26,x14,x26	 x14:0x96ee2edc x26:0x00000022 x26=0x00000000
       30365000	      3035	80003fb4	41af0bb3	sub	x23,x30,x26	 x30:0x00000001 x26:0x00000000 x23=0x00000001
       30375000	      3036	80003fb8	41fa5f33	sra	x30,x20,x31	 x20:0x00000001 x31:0x80009f64 x30=0x00000000
       30385000	      3037	80003fbc	03a64e63	blt	x12,x26,80003ff8	 x12:0x00080748 x26:0x00000000
       30395000	      3038	80003fc0	40fb0733	sub	x14,x22,x15	 x22:0x1096c000 x15:0x80009fc4 x14=0x9096203c
       30405000	      3039	80003fc4	01a91b33	sll	x22,x18,x26	 x18:0x00000000 x26:0x00000000 x22=0x00000000
       30415000	      3040	80003fc8	02888c63	beq	x17,x8,80004000	 x17:0x00000001  x8:0x00000000
       30425000	      3041	80003fcc	02a64663	blt	x12,x10,80003ff8	 x12:0x00080748 x10:0x00000000
       30435000	      3042	80003fd0	004be0b3	or	x1,x23,x4	 x23:0x00000001  x4:0x00000000  x1=0x00000001
       30445000	      3043	80003fd4	003861b3	or	x3,x16,x3	 x16:0xd1205f84  x3:0x00000022  x3=0xd1205fa6
       30455000	      3044	80003fd8	01295eb3	srl	x29,x18,x18	 x18:0x00000000 x18:0x00000000 x29=0x00000000
       30465000	      3045	80003fdc	40405293	srai	x5,x0,0x4	  x0:0x00000000  x5=0x00000000
       30475000	      3046	80003fe0	01836463	bltu	x6,x24,80003fe8	  x6:0x00000001 x24:0x800098ce
       30485000	      3047	00000000	00000013	addi	x0,x0,0	  x0:0x00000000
       30495000	      3048	80003fe4	00000013	addi	x0,x0,0	  x0:0x00000000
       30505000	      3049	80003fe8	00015463	bge	x2,x0,80003ff0	  x2:0xbd232e47  x0:0x00000000
       30515000	      3050	80003fec	0265f863	bgeu	x11,x6,8000401c	 x11:0x00000000  x6:0x00000001
       30525000	      3051	80003ff0	00352f33	slt	x30,x10,x3	 x10:0x00000000  x3:0xd1205fa6 x30=0x00000000
       30535000	      3052	80003ff4	01d8c2b3	xor	x5,x17,x29	 x17:0x00000001 x29:0x00000000  x5=0x00000001
       30545000	      3053	80003ff8	7aff2c93	slti	x25,x30,1967	 x30:0x00000000 x25=0x00000001
       30555000	      3054	80003ffc	03b0fe63	bgeu	x1,x27,80004038	  x1:0x00000001 x27:0x01e08e68
       30565000	      3055	80004000	05f3ea93	ori	x21,x7,95	  x7:0x00000001 x21=0x0000005f
       30575000	      3056	80004004	d5130a13	addi	x20,x6,-687	  x6:0x00000001 x20=0xfffffd52
       30585000	      3057	80004008	029d8063	beq	x27,x9,80004028	 x27:0x01e08e68  x9:0x00080000
       30595000	      3058	8000400c	402d0bb3	sub	x23,x26,x2	 x26:0x00000000  x2:0xbd232e47 x23=0x42dcd1b9
       30605000	      3059	80004010	010fe533	or	x10,x31,x16	 x31:0x80009f64 x16:0xd1205f84 x10=0xd120dfe4
       30615000	      3060	80004014	6fd3ee93	ori	x29,x7,1789	  x7:0x00000001 x29=0x000006fd
       30625000	      3061	80004018	8ac5d517	auipc	x10,0x8ac5d	 x10=0x0ac61014
       30635000	      3062	8000401c	0371c463	blt	x3,x23,80004044	  x3:0xd1205fa6 x23:0x42dcd1b9
       30645000	      3063	00000000	00000013	addi	x0,x0,0	  x0:0x00000000
       30655000	      3064	80004040	00000013	addi	x0,x0,0	  x0:0x00000000
       30665000	      3065	80004044	7c0fa513	slti	x10,x31,1984	 x31:0x80009f64 x10=0x00000001
       30675000	      3066	80004048	012c7733	and	x14,x24,x18	 x24:0x800098ce x18:0x00000000 x14=0x00000000
       30685000	      3067	8000404c	011fdd93	srli	x27,x31,0x11	 x31:0x80009f64 x27=0x00004000
       30695000	      3068	80004050	06848513	addi	x10,x9,104	  x9:0x00080000 x10=0x00080068
       30705000	      3069	80004054	54dd0413	addi	x8,x26,1357	 x26:0x00000000  x8=0x0000054d
       30715000	      3070	80004058	01ff2ab3	slt	x21,x30,x31	 x30:0x00000000 x31:0x80009f64 x21=0x00000000
       30725000	      3071	8000405c	9e14c893	xori	x17,x9,-1567	  x9:0x00080000 x17=0xfff7f9e1
       30735000	      3072	80004060	01567263	bgeu	x12,x21,80004064	 x12:0x00080748 x21:0x00000000
       30745000	      3073	00000000	00000013	addi	x0,x0,0	  x0:0x00000000
       30755000	      3074	80004060	00000013	addi	x0,x0,0	  x0:0x00000000
       30765000	      3075	80004064	01424a63	blt	x4,x20,80004078	  x4:0x00000000 x20:0xfffffd52
       30775000	      3076	80004068	41e2d2b3	sra	x5,x5,x30	  x5:0x00000001 x30:0x00000000  x5=0x00000001
       30785000	      3077	8000406c	40ce8eb3	sub	x29,x29,x12	 x29:0x000006fd x12:0x00080748 x29=0xfff7ffb5
       30795000	      3078	80004070	0109de63	bge	x19,x16,8000408c	 x19:0x0001ed10 x16:0xd1205f84
       30805000	      3079	00000000	00000013	addi	x0,x0,0	  x0:0x00000000
       30815000	      3080	80004088	00000013	addi	x0,x0,0	  x0:0x00000000
       30825000	      3081	8000408c	03984c63	blt	x16,x25,800040c4	 x16:0xd1205f84 x25:0x00000001
       30835000	      3082	00000000	00000013	addi	x0,x0,0	  x0:0x00000000
       30845000	      3083	800040c0	00000013	addi	x0,x0,0	  x0:0x00000000
       30855000	      3084	800040c4	fe26aab7	lui	x21,0xfe26a	 x21=0xfe26a000
       30865000	      3085	800040c8	01f95d93	srli	x27,x18,0x1f	 x18:0x00000000 x27=0x00000000
       30875000	      3086	800040cc	1237b813	sltiu	x16,x15,291	 x15:0x80009fc4 x16=0x00000000
       30885000	      3087	800040d0	013dd593	srli	x11,x27,0x13	 x27:0x00000000 x11=0x00000000
       30895000	      3088	800040d4	418c0733	sub	x14,x24,x24	 x24:0x800098ce x24:0x800098ce x14=0x00000000
       30905000	      3089	800040d8	01b45993	srli	x19,x8,0x1b	  x8:0x0000054d x19=0x00000000
       30915000	      3090	800040dc	95724413	xori	x8,x4,-1705	  x4:0x00000000  x8=0xfffff957
       30925000	      3091	800040e0	59a2c513	xori	x10,x5,1434	  x5:0x00000001 x10=0x0000059b
       30935000	      3092	800040e4	4091dc33	sra	x24,x3,x9	  x3:0xd1205fa6  x9:0x00080000 x24=0xd1205fa6
       30945000	      3093	800040e8	eff18713	addi	x14,x3,-257	  x3:0xd1205fa6 x14=0xd1205ea5
       30955000	      3094	800040ec	00945e63	bge	x8,x9,80004108	  x8:0xfffff957  x9:0x00080000
       30965000	      3095	800040f0	0222ea63	bltu	x5,x2,80004124	  x5:0x00000001  x2:0xbd232e47
       30975000	      3096	00000000	00000013	addi	x0,x0,0	  x0:0x00000000
       30985000	      3097	80004120	00000013	addi	x0,x0,0	  x0:0x00000000
       30995000	      3098	80004124	e083c913	xori	x18,x7,-504	  x7:0x00000001 x18=0xfffffe09
       31005000	      3099	80004128	009be533	or	x10,x23,x9	 x23:0x42dcd1b9  x9:0x00080000 x10=0x42dcd1b9
       31015000	      3100	8000412c	41f35713	srai	x14,x6,0x1f	  x6:0x00000001 x14=0x00000000
       31025000	      3101	80004130	00000013	addi	x0,x0,0	  x0:0x00000000
       31035000	      3102	80004134	014421b3	slt	x3,x8,x20	  x8:0xfffff957 x20:0xfffffd52  x3=0x00000001
       31045000	      3103	80004138	02d00e63	beq	x0,x13,80004174	  x0:0x00000000 x13:0x00000000
       31055000	      3104	00000000	00000013	addi	x0,x0,0	  x0:0x00000000
       31065000	      3105	80004170	00000013	addi	x0,x0,0	  x0:0x00000000
       31075000	      3106	80004174	00f6cf33	xor	x30,x13,x15	 x13:0x00000000 x15:0x80009fc4 x30=0x80009fc4
       31085000	      3107	80004178	00000013	addi	x0,x0,0	  x0:0x00000000
       31095000	      3108	8000417c	01f19b13	slli	x22,x3,0x1f	  x3:0x00000001 x22=0x80000000
       31105000	      3109	80004180	1e9ac297	auipc	x5,0x1e9ac	  x5=0x9e9b017c
       31115000	      3110	80004184	01493433	sltu	x8,x18,x20	 x18:0xfffffe09 x20:0xfffffd52  x8=0x00000000
       31125000	      3111	80004188	01e7dc63	bge	x15,x30,800041a0	 x15:0x80009fc4 x30:0x80009fc4
       31135000	      3112	00000000	00000013	addi	x0,x0,0	  x0:0x00000000
       31145000	      3113	8000419c	00000013	addi	x0,x0,0	  x0:0x00000000
       31155000	      3114	800041a0	02778863	beq	x15,x7,800041d0	 x15:0x80009fc4  x7:0x00000001
       31165000	      3115	800041a4	01b69413	slli	x8,x13,0x1b	 x13:0x00000000  x8=0x00000000
       31175000	      3116	800041a8	416488b3	sub	x17,x9,x22	  x9:0x00080000 x22:0x80000000 x17=0x80080000
       31185000	      3117	800041ac	7231e913	ori	x18,x3,1827	  x3:0x00000001 x18=0x00000723
       31195000	      3118	800041b0	02b84663	blt	x16,x11,800041dc	 x16:0x00000000 x11:0x00000000
       31205000	      3119	800041b4	f8f7cc13	xori	x24,x15,-113	 x15:0x80009fc4 x24=0x7fff604b
       31215000	      3120	800041b8	77dba993	slti	x19,x23,1917	 x23:0x42dcd1b9 x19=0x00000000
       31225000	      3121	800041bc	01c40463	beq	x8,x28,800041c4	  x8:0x00000000 x28:0x00000000
       31235000	      3122	00000000	00000013	addi	x0,x0,0	  x0:0x00000000
       31245000	      3123	800041c0	00000013	addi	x0,x0,0	  x0:0x00000000
       31255000	      3124	800041c4	41625e13	srai	x28,x4,0x16	  x4:0x00000000 x28=0x00000000
       31265000	      3125	800041c8	00095933	srl	x18,x18,x0	 x18:0x00000723  x0:0x00000000 x18=0x00000723
       31275000	      3126	800041cc	950afd93	andi	x27,x21,-1712	 x21:0xfe26a000 x27=0xfe26a000
       31285000	      3127	800041d0	0000de13	srli	x28,x1,0x0	  x1:0x00000001 x28=0x00000001
       31295000	      3128	800041d4	9109acb7	lui	x25,0x9109a	 x25=0x9109a000
       31305000	      3129	800041d8	1e702993	slti	x19,x0,487	  x0:0x00000000 x19=0x00000001
       31315000	      3130	800041dc	41e4d5b3	sra	x11,x9,x30	  x9:0x00080000 x30:0x80009fc4 x11=0x00008000
       31325000	      3131	800041e0	41bc5833	sra	x16,x24,x27	 x24:0x7fff604b x27:0xfe26a000 x16=0x7fff604b
       31335000	      3132	800041e4	73176993	ori	x19,x14,1841	 x14:0x00000000 x19=0x00000731
       31345000	      3133	800041e8	02a1fe63	bgeu	x3,x10,80004224	  x3:0x00000001 x10:0x42dcd1b9
       31355000	      3134	800041ec	01c9e463	bltu	x19,x28,800041f4	 x19:0x00000731 x28:0x00000001
       31365000	      3135	800041f0	03326663	bltu	x4,x19,8000421c	  x4:0x00000000 x19:0x00000731
       31375000	      3136	00000000	00000013	addi	x0,x0,0	  x0:0x00000000
       31385000	      3137	80004218	00000013	addi	x0,x0,0	  x0:0x00000000
       31395000	      3138	8000421c	00000013	addi	x0,x0,0	  x0:0x00000000
       31405000	      3139	80004220	00af9433	sll	x8,x31,x10	 x31:0x80009f64 x10:0x42dcd1b9  x8=0xc8000000
       31415000	      3140	80004224	029a9c63	bne	x21,x9,8000425c	 x21:0xfe26a000  x9:0x00080000
       31425000	      3141	00000000	00000013	addi	x0,x0,0	  x0:0x00000000
       31435000	      3142	80004258	00000013	addi	x0,x0,0	  x0:0x00000000
       31445000	      3143	8000425c	01cbd493	srli	x9,x23,0x1c	 x23:0x42dcd1b9  x9=0x00000004
       31455000	      3144	80004260	00000013	addi	x0,x0,0	  x0:0x00000000
       31465000	      3145	80004264	f757f893	andi	x17,x15,-139	 x15:0x80009fc4 x17=0x80009f44
       31475000	      3146	80004268	01ab4a33	xor	x20,x22,x26	 x22:0x80000000 x26:0x00000000 x20=0x80000000
       31485000	      3147	8000426c	01d98a33	add	x20,x19,x29	 x19:0x00000731 x29:0xfff7ffb5 x20=0xfff806e6
       31495000	      3148	80004270	41245b93	srai	x23,x8,0x12	  x8:0xc8000000 x23=0xfffff200
       31505000	      3149	80004274	01b2a633	slt	x12,x5,x27	  x5:0x9e9b017c x27:0xfe26a000 x12=0x00000001
       31515000	      3150	80004278	00762333	slt	x6,x12,x7	 x12:0x00000001  x7:0x00000001  x6=0x00000000
       31525000	      3151	8000427c	03e48263	beq	x9,x30,800042a0	  x9:0x00000004 x30:0x80009fc4
       31535000	      3152	80004280	e1086693	ori	x13,x16,-496	 x16:0x7fff604b x13=0xfffffe5b
       31545000	      3153	80004284	015f8e63	beq	x31,x21,800042a0	 x31:0x80009f64 x21:0xfe26a000
       31555000	      3154	80004288	460d6393	ori	x7,x26,1120	 x26:0x00000000  x7=0x00000460
       31565000	      3155	8000428c	408251b3	sra	x3,x4,x8	  x4:0x00000000  x8:0xc8000000  x3=0x00000000
       31575000	      3156	80004290	408ed493	srai	x9,x29,0x8	 x29:0xfff7ffb5  x9=0xfffff7ff
       31585000	      3157	80004294	c2866493	ori	x9,x12,-984	 x12:0x00000001  x9=0xfffffc29
       31595000	      3158	80004298	0354ca63	blt	x9,x21,800042cc	  x9:0xfffffc29 x21:0xfe26a000
       31605000	      3159	8000429c	fe043e93	sltiu	x29,x8,-32	  x8:0xc8000000 x29=0x00000001
       31615000	      3160	800042a0	02861863	bne	x12,x8,800042d0	 x12:0x00000001  x8:0xc8000000
       31625000	      3161	00000000	00000013	addi	x0,x0,0	  x0:0x00000000
       31635000	      3162	800042cc	00000013	addi	x0,x0,0	  x0:0x00000000
       31645000	      3163	800042d0	0029d513	srli	x10,x19,0x2	 x19:0x00000731 x10=0x000001cc
       31655000	      3164	800042d4	1b93c413	xori	x8,x7,441	  x7:0x00000460  x8=0x000005d9
       31665000	      3165	800042d8	587a3093	sltiu	x1,x20,1415	 x20:0xfff806e6  x1=0x00000000
       31675000	      3166	800042dc	02c008ef	jal	x17,800042dc	 x17=0x800042dc
       31685000	      3167	00000000	00000013	addi	x0,x0,0	  x0:0x00000000
       31695000	      3168	80004304	00000013	addi	x0,x0,0	  x0:0x00000000
       31705000	      3169	80004308	ffdff0ef	jal	x1,80004308	  x1=0x80004308
       31715000	      3170	00000000	00000013	addi	x0,x0,0	  x0:0x00000000
       31725000	      3171	80004300	00000013	addi	x0,x0,0	  x0:0x00000000
       31735000	      3172	80004304	fe1ff36f	jal	x6,80004304	  x6=0x80004304
       31745000	      3173	00000000	00000013	addi	x0,x0,0	  x0:0x00000000
       31755000	      3174	800042e0	00000013	addi	x0,x0,0	  x0:0x00000000
       31765000	      3175	800042e4	0300036f	jal	x6,800042e4	  x6=0x800042e4
       31775000	      3176	00000000	00000013	addi	x0,x0,0	  x0:0x00000000
       31785000	      3177	80004310	00000013	addi	x0,x0,0	  x0:0x00000000
       31795000	      3178	80004314	004000ef	jal	x1,80004314	  x1=0x80004314
       31805000	      3179	00000000	00000013	addi	x0,x0,0	  x0:0x00000000
       31815000	      3180	80004314	00000013	addi	x0,x0,0	  x0:0x00000000
       31825000	      3181	80004318	fddff36f	jal	x6,80004318	  x6=0x80004318
       31835000	      3182	00000000	00000013	addi	x0,x0,0	  x0:0x00000000
       31845000	      3183	800042f0	00000013	addi	x0,x0,0	  x0:0x00000000
       31855000	      3184	800042f4	ff9ff2ef	jal	x5,800042f4	  x5=0x800042f4
       31865000	      3185	00000000	00000013	addi	x0,x0,0	  x0:0x00000000
       31875000	      3186	800042e8	00000013	addi	x0,x0,0	  x0:0x00000000
       31885000	      3187	800042ec	014000ef	jal	x1,800042ec	  x1=0x800042ec
       31895000	      3188	00000000	00000013	addi	x0,x0,0	  x0:0x00000000
       31905000	      3189	800042fc	00000013	addi	x0,x0,0	  x0:0x00000000
       31915000	      3190	80004300	fe1ff0ef	jal	x1,80004300	  x1=0x80004300
       31925000	      3191	00000000	00000013	addi	x0,x0,0	  x0:0x00000000
       31935000	      3192	800042dc	00000013	addi	x0,x0,0	  x0:0x00000000
       31945000	      3193	800042e0	01c000ef	jal	x1,800042e0	  x1=0x800042e0
       31955000	      3194	00000000	00000013	addi	x0,x0,0	  x0:0x00000000
       31965000	      3195	800042f8	00000013	addi	x0,x0,0	  x0:0x00000000
       31975000	      3196	800042fc	01000e6f	jal	x28,800042fc	 x28=0x800042fc
       31985000	      3197	00000000	00000013	addi	x0,x0,0	  x0:0x00000000
       31995000	      3198	80004308	00000013	addi	x0,x0,0	  x0:0x00000000
       32005000	      3199	8000430c	004000ef	jal	x1,8000430c	  x1=0x8000430c
       32015000	      3200	00000000	00000013	addi	x0,x0,0	  x0:0x00000000
       32025000	      3201	8000430c	00000013	addi	x0,x0,0	  x0:0x00000000
       32035000	      3202	80004310	010000ef	jal	x1,80004310	  x1=0x80004310
       32045000	      3203	00000000	00000013	addi	x0,x0,0	  x0:0x00000000
       32055000	      3204	8000431c	00000013	addi	x0,x0,0	  x0:0x00000000
       32065000	      3205	80004320	ffdff0ef	jal	x1,80004320	  x1=0x80004320
       32075000	      3206	00000000	00000013	addi	x0,x0,0	  x0:0x00000000
       32085000	      3207	80004318	00000013	addi	x0,x0,0	  x0:0x00000000
       32095000	      3208	8000431c	fddff0ef	jal	x1,8000431c	  x1=0x8000431c
       32105000	      3209	00000000	00000013	addi	x0,x0,0	  x0:0x00000000
       32115000	      3210	800042f4	00000013	addi	x0,x0,0	  x0:0x00000000
       32125000	      3211	800042f8	ff1ff0ef	jal	x1,800042f8	  x1=0x800042f8
       32135000	      3212	00000000	00000013	addi	x0,x0,0	  x0:0x00000000
       32145000	      3213	800042e4	00000013	addi	x0,x0,0	  x0:0x00000000
       32155000	      3214	800042e8	008000ef	jal	x1,800042e8	  x1=0x800042e8
       32165000	      3215	00000000	00000013	addi	x0,x0,0	  x0:0x00000000
       32175000	      3216	800042ec	00000013	addi	x0,x0,0	  x0:0x00000000
       32185000	      3217	800042f0	034002ef	jal	x5,800042f0	  x5=0x800042f0
       32195000	      3218	00000000	00000013	addi	x0,x0,0	  x0:0x00000000
       32205000	      3219	80004320	00000013	addi	x0,x0,0	  x0:0x00000000
       32215000	      3220	80004324	0069b5b3	sltu	x11,x19,x6	 x19:0x00000731  x6:0x80004318 x11=0x00000001
       32225000	      3221	80004328	011e31b3	sltu	x3,x28,x17	 x28:0x800042fc x17:0x800042dc  x3=0x00000000
       32235000	      3222	8000432c	01168e63	beq	x13,x17,80004348	 x13:0xfffffe5b x17:0x800042dc
       32245000	      3223	80004330	00442a33	slt	x20,x8,x4	  x8:0x000005d9  x4:0x00000000 x20=0x00000000
       32255000	      3224	80004334	cb753893	sltiu	x17,x10,-841	 x10:0x000001cc x17=0x00000001
       32265000	      3225	80004338	f970a537	lui	x10,0xf970a	 x10=0xf970a000
       32275000	      3226	8000433c	56327d13	andi	x26,x4,1379	  x4:0x00000000 x26=0x00000000
       32285000	      3227	80004340	01ab1c63	bne	x22,x26,80004358	 x22:0x80000000 x26:0x00000000
       32295000	      3228	00000000	00000013	addi	x0,x0,0	  x0:0x00000000
       32305000	      3229	80004354	00000013	addi	x0,x0,0	  x0:0x00000000
       32315000	      3230	80004358	016ab033	sltu	x0,x21,x22	 x21:0xfe26a000 x22:0x80000000
       32325000	      3231	8000435c	00af1463	bne	x30,x10,80004364	 x30:0x80009fc4 x10:0xf970a000
       32335000	      3232	00000000	00000013	addi	x0,x0,0	  x0:0x00000000
       32345000	      3233	80004360	00000013	addi	x0,x0,0	  x0:0x00000000
       32355000	      3234	80004364	0208dc63	bge	x17,x0,8000439c	 x17:0x00000001  x0:0x00000000
       32365000	      3235	00000000	00000013	addi	x0,x0,0	  x0:0x00000000
       32375000	      3236	80004398	00000013	addi	x0,x0,0	  x0:0x00000000
       32385000	      3237	8000439c	b9947613	andi	x12,x8,-1127	  x8:0x000005d9 x12=0x00000199
       32395000	      3238	800043a0	5ae32593	slti	x11,x6,1454	  x6:0x80004318 x11=0x00000001
       32405000	      3239	800043a4	321ba237	lui	x4,0x321ba	  x4=0x321ba000
       32415000	      3240	800043a8	c331a037	lui	x0,0xc331a	
       32425000	      3241	800043ac	41fcd1b3	sra	x3,x25,x31	 x25:0x9109a000 x31:0x80009f64  x3=0xf9109a00
       32435000	      3242	800043b0	3854c513	xori	x10,x9,901	  x9:0xfffffc29 x10=0xffffffac
       32445000	      3243	800043b4	c867c217	auipc	x4,0xc867c	  x4=0x486803b0
       32455000	      3244	800043b8	a8952293	slti	x5,x10,-1399	 x10:0xffffffac  x5=0x00000000
       32465000	      3245	800043bc	4041d993	srai	x19,x3,0x4	  x3:0xf9109a00 x19=0xff9109a0
       32475000	      3246	800043c0	3b2a7713	andi	x14,x20,946	 x20:0x00000000 x14=0x00000000
       32485000	      3247	800043c4	01669933	sll	x18,x13,x22	 x13:0xfffffe5b x22:0x80000000 x18=0xfffffe5b
       32495000	      3248	800043c8	00000013	addi	x0,x0,0	  x0:0x00000000
       32505000	      3249	800043cc	01b8d413	srli	x8,x17,0x1b	 x17:0x00000001  x8=0x00000000
       32515000	      3250	800043d0	518dcf13	xori	x30,x27,1304	 x27:0xfe26a000 x30=0xfe26a518
       32525000	      3251	800043d4	000bb2b3	sltu	x5,x23,x0	 x23:0xfffff200  x0:0x00000000  x5=0x00000000
       32535000	      3252	800043d8	01c9c8b3	xor	x17,x19,x28	 x19:0xff9109a0 x28:0x800042fc x17=0x7f914b5c
       32545000	      3253	800043dc	02f46e63	bltu	x8,x15,80004418	  x8:0x00000000 x15:0x80009fc4
       32555000	      3254	00000000	00000013	addi	x0,x0,0	  x0:0x00000000
       32565000	      3255	80004414	00000013	addi	x0,x0,0	  x0:0x00000000
       32575000	      3256	80004418	00d142b3	xor	x5,x2,x13	  x2:0xbd232e47 x13:0xfffffe5b  x5=0x42dcd01c
       32585000	      3257	8000441c	039f5463	bge	x30,x25,80004444	 x30:0xfe26a518 x25:0x9109a000
       32595000	      3258	00000000	00000013	addi	x0,x0,0	  x0:0x00000000
       32605000	      3259	80004440	00000013	addi	x0,x0,0	  x0:0x00000000
       32615000	      3260	80004444	c94fed37	lui	x26,0xc94fe	 x26=0xc94fe000
       32625000	      3261	80004448	02401463	bne	x0,x4,80004470	  x0:0x00000000  x4:0x486803b0
       32635000	      3262	00000000	00000013	addi	x0,x0,0	  x0:0x00000000
       32645000	      3263	8000446c	00000013	addi	x0,x0,0	  x0:0x00000000
       32655000	      3264	80004470	4040da93	srai	x21,x1,0x4	  x1:0x800042e8 x21=0xf800042e
       32665000	      3265	80004474	00f5a433	slt	x8,x11,x15	 x11:0x00000001 x15:0x80009fc4  x8=0x00000000
       32675000	      3266	80004478	01ff65b3	or	x11,x30,x31	 x30:0xfe26a518 x31:0x80009f64 x11=0xfe26bf7c
       32685000	      3267	8000447c	0197a633	slt	x12,x15,x25	 x15:0x80009fc4 x25:0x9109a000 x12=0x00000001
       32695000	      3268	80004480	9399b613	sltiu	x12,x19,-1735	 x19:0xff9109a0 x12=0x00000001
       32705000	      3269	80004484	008afd33	and	x26,x21,x8	 x21:0xf800042e  x8:0x00000000 x26=0x00000000
       32715000	      3270	80004488	0b8271b7	lui	x3,0xb827	  x3=0x0b827000
       32725000	      3271	8000448c	002a01b3	add	x3,x20,x2	 x20:0x00000000  x2:0xbd232e47  x3=0xbd232e47
       32735000	      3272	80004490	0144f5b3	and	x11,x9,x20	  x9:0xfffffc29 x20:0x00000000 x11=0x00000000
       32745000	      3273	80004494	67c8f213	andi	x4,x17,1660	 x17:0x7f914b5c  x4=0x0000025c
       32755000	      3274	80004498	0022a9b3	slt	x19,x5,x2	  x5:0x42dcd01c  x2:0xbd232e47 x19=0x00000000
       32765000	      3275	8000449c	006945b3	xor	x11,x18,x6	 x18:0xfffffe5b  x6:0x80004318 x11=0x7fffbd43
       32775000	      3276	800044a0	e5fcb617	auipc	x12,0xe5fcb	 x12=0x65fcf49c
       32785000	      3277	800044a4	7947ba97	auipc	x21,0x7947b	 x21=0xf947f4a0
       32795000	      3278	800044a8	40e55613	srai	x12,x10,0xe	 x10:0xffffffac x12=0xffffffff
       32805000	      3279	800044ac	2e97ac13	slti	x24,x15,745	 x15:0x80009fc4 x24=0x00000001
       32815000	      3280	800044b0	0137b5b3	sltu	x11,x15,x19	 x15:0x80009fc4 x19:0x00000000 x11=0x00000000
       32825000	      3281	800044b4	00bed833	srl	x16,x29,x11	 x29:0x00000001 x11:0x00000000 x16=0x00000001
       32835000	      3282	800044b8	87e8a193	slti	x3,x17,-1922	 x17:0x7f914b5c  x3=0x00000000
       32845000	      3283	800044bc	00e7b9b3	sltu	x19,x15,x14	 x15:0x80009fc4 x14:0x00000000 x19=0x00000000
       32855000	      3284	800044c0	0008b733	sltu	x14,x17,x0	 x17:0x7f914b5c  x0:0x00000000 x14=0x00000000
       32865000	      3285	800044c4	263fea13	ori	x20,x31,611	 x31:0x80009f64 x20=0x80009f67
       32875000	      3286	800044c8	03c21463	bne	x4,x28,800044f0	  x4:0x0000025c x28:0x800042fc
       32885000	      3287	00000000	00000013	addi	x0,x0,0	  x0:0x00000000
       32895000	      3288	800044ec	00000013	addi	x0,x0,0	  x0:0x00000000
       32905000	      3289	800044f0	40cb0833	sub	x16,x22,x12	 x22:0x80000000 x12:0xffffffff x16=0x80000001
       32915000	      3290	800044f4	0196deb3	srl	x29,x13,x25	 x13:0xfffffe5b x25:0x9109a000 x29=0xfffffe5b
       32925000	      3291	800044f8	66c1f213	andi	x4,x3,1644	  x3:0x00000000  x4=0x00000000
       32935000	      3292	800044fc	03dd5e63	bge	x26,x29,80004538	 x26:0x00000000 x29:0xfffffe5b
       32945000	      3293	00000000	00000013	addi	x0,x0,0	  x0:0x00000000
       32955000	      3294	80004534	00000013	addi	x0,x0,0	  x0:0x00000000
       32965000	      3295	80004538	00da19b3	sll	x19,x20,x13	 x20:0x80009f67 x13:0xfffffe5b x19=0x38000000
       32975000	      3296	8000453c	015f13b3	sll	x7,x30,x21	 x30:0xfe26a518 x21:0xf947f4a0  x7=0xfe26a518
       32985000	      3297	80004540	36424c93	xori	x25,x4,868	  x4:0x00000000 x25=0x00000364
       32995000	      3298	80004544	462dec17	auipc	x24,0x462de	 x24=0xc62e2540
       33005000	      3299	80004548	7d46e917	auipc	x18,0x7d46e	 x18=0xfd472544
       33015000	      3300	8000454c	00dafcb3	and	x25,x21,x13	 x21:0xf947f4a0 x13:0xfffffe5b x25=0xf947f400
       33025000	      3301	80004550	402bd913	srai	x18,x23,0x2	 x23:0xfffff200 x18=0xfffffc80
       33035000	      3302	80004554	cb51f193	andi	x3,x3,-843	  x3:0x00000000  x3=0x00000000
       33045000	      3303	80004558	a65bae93	slti	x29,x23,-1435	 x23:0xfffff200 x29=0x00000001
       33055000	      3304	8000455c	004fa883	lw	x17,4(x31)	 x31:0x80009f64 x17=0x80000154 PA:0x80009f68
       33065000	      3305	80004560	c3f48613	addi	x12,x9,-961	  x9:0xfffffc29 x12=0xfffff868
       33075000	      3306	80004564	020f8f93	addi	x31,x31,32	 x31:0x80009f64 x31=0x80009f84
       33085000	      3307	80004568	00d66933	or	x18,x12,x13	 x12:0xfffff868 x13:0xfffffe5b x18=0xfffffe7b
       33095000	      3308	8000456c	00485ab3	srl	x21,x16,x4	 x16:0x80000001  x4:0x00000000 x21=0x80000001
       33105000	      3309	80004570	00111d33	sll	x26,x2,x1	  x2:0xbd232e47  x1:0x800042e8 x26=0x232e4700
       33115000	      3310	80004574	00088813	addi	x16,x17,0	 x17:0x80000154 x16=0x80000154
       33125000	      3311	80004578	00080867	jalr	x16,x16,0	 x16:0x80000154 x16=0x80004578
       33135000	      3312	00000000	00000013	addi	x0,x0,0	  x0:0x00000000
       33145000	      3313	80000154	00000013	addi	x0,x0,0	  x0:0x00000000
       33155000	      3314	80000158	044008ef	jal	x17,80000158	 x17=0x80000158
       33165000	      3315	00000000	00000013	addi	x0,x0,0	  x0:0x00000000
       33175000	      3316	80000198	00000013	addi	x0,x0,0	  x0:0x00000000
       33185000	      3317	8000019c	02000f6f	jal	x30,8000019c	 x30=0x8000019c
       33195000	      3318	00000000	00000013	addi	x0,x0,0	  x0:0x00000000
       33205000	      3319	800001b8	00000013	addi	x0,x0,0	  x0:0x00000000
       33215000	      3320	800001bc	ff9ff0ef	jal	x1,800001bc	  x1=0x800001bc
       33225000	      3321	00000000	00000013	addi	x0,x0,0	  x0:0x00000000
       33235000	      3322	800001b0	00000013	addi	x0,x0,0	  x0:0x00000000
       33245000	      3323	800001b4	0040036f	jal	x6,800001b4	  x6=0x800001b4
       33255000	      3324	00000000	00000013	addi	x0,x0,0	  x0:0x00000000
       33265000	      3325	800001b4	00000013	addi	x0,x0,0	  x0:0x00000000
       33275000	      3326	800001b8	ff5ff0ef	jal	x1,800001b8	  x1=0x800001b8
       33285000	      3327	00000000	00000013	addi	x0,x0,0	  x0:0x00000000
       33295000	      3328	800001a8	00000013	addi	x0,x0,0	  x0:0x00000000
       33305000	      3329	800001ac	fc9ff0ef	jal	x1,800001ac	  x1=0x800001ac
       33315000	      3330	00000000	00000013	addi	x0,x0,0	  x0:0x00000000
       33325000	      3331	80000170	00000013	addi	x0,x0,0	  x0:0x00000000
       33335000	      3332	80000174	fedff0ef	jal	x1,80000174	  x1=0x80000174
       33345000	      3333	00000000	00000013	addi	x0,x0,0	  x0:0x00000000
       33355000	      3334	8000015c	00000013	addi	x0,x0,0	  x0:0x00000000
       33365000	      3335	80000160	024000ef	jal	x1,80000160	  x1=0x80000160
       33375000	      3336	00000000	00000013	addi	x0,x0,0	  x0:0x00000000
       33385000	      3337	80000180	00000013	addi	x0,x0,0	  x0:0x00000000
       33395000	      3338	80000184	fe9ff26f	jal	x4,80000184	  x4=0x80000184
       33405000	      3339	00000000	00000013	addi	x0,x0,0	  x0:0x00000000
       33415000	      3340	80000168	00000013	addi	x0,x0,0	  x0:0x00000000
       33425000	      3341	8000016c	00c000ef	jal	x1,8000016c	  x1=0x8000016c
       33435000	      3342	00000000	00000013	addi	x0,x0,0	  x0:0x00000000
       33445000	      3343	80000174	00000013	addi	x0,x0,0	  x0:0x00000000
       33455000	      3344	80000178	0200086f	jal	x16,80000178	 x16=0x80000178
       33465000	      3345	00000000	00000013	addi	x0,x0,0	  x0:0x00000000
       33475000	      3346	80000194	00000013	addi	x0,x0,0	  x0:0x00000000
       33485000	      3347	80000198	018000ef	jal	x1,80000198	  x1=0x80000198
       33495000	      3348	00000000	00000013	addi	x0,x0,0	  x0:0x00000000
       33505000	      3349	800001ac	00000013	addi	x0,x0,0	  x0:0x00000000
       33515000	      3350	800001b0	fcdff9ef	jal	x19,800001b0	 x19=0x800001b0
       33525000	      3351	00000000	00000013	addi	x0,x0,0	  x0:0x00000000
       33535000	      3352	80000178	00000013	addi	x0,x0,0	  x0:0x00000000
       33545000	      3353	8000017c	028000ef	jal	x1,8000017c	  x1=0x8000017c
       33555000	      3354	00000000	00000013	addi	x0,x0,0	  x0:0x00000000
       33565000	      3355	800001a0	00000013	addi	x0,x0,0	  x0:0x00000000
       33575000	      3356	800001a4	0040036f	jal	x6,800001a4	  x6=0x800001a4
       33585000	      3357	00000000	00000013	addi	x0,x0,0	  x0:0x00000000
       33595000	      3358	800001a4	00000013	addi	x0,x0,0	  x0:0x00000000
       33605000	      3359	800001a8	fbdff0ef	jal	x1,800001a8	  x1=0x800001a8
       33615000	      3360	00000000	00000013	addi	x0,x0,0	  x0:0x00000000
       33625000	      3361	80000160	00000013	addi	x0,x0,0	  x0:0x00000000
       33635000	      3362	80000164	02400c6f	jal	x24,80000164	 x24=0x80000164
       33645000	      3363	00000000	00000013	addi	x0,x0,0	  x0:0x00000000
       33655000	      3364	80000184	00000013	addi	x0,x0,0	  x0:0x00000000
       33665000	      3365	80000188	fe9ff0ef	jal	x1,80000188	  x1=0x80000188
       33675000	      3366	00000000	00000013	addi	x0,x0,0	  x0:0x00000000
       33685000	      3367	8000016c	00000013	addi	x0,x0,0	  x0:0x00000000
       33695000	      3368	80000170	030000ef	jal	x1,80000170	  x1=0x80000170
       33705000	      3369	00000000	00000013	addi	x0,x0,0	  x0:0x00000000
       33715000	      3370	8000019c	00000013	addi	x0,x0,0	  x0:0x00000000
       33725000	      3371	800001a0	fe1ff0ef	jal	x1,800001a0	  x1=0x800001a0
       33735000	      3372	00000000	00000013	addi	x0,x0,0	  x0:0x00000000
       33745000	      3373	8000017c	00000013	addi	x0,x0,0	  x0:0x00000000
       33755000	      3374	80000180	fddff26f	jal	x4,80000180	  x4=0x80000180
       33765000	      3375	00000000	00000013	addi	x0,x0,0	  x0:0x00000000
       33775000	      3376	80000158	00000013	addi	x0,x0,0	  x0:0x00000000
       33785000	      3377	8000015c	0340036f	jal	x6,8000015c	  x6=0x8000015c
       33795000	      3378	00000000	00000013	addi	x0,x0,0	  x0:0x00000000
       33805000	      3379	8000018c	00000013	addi	x0,x0,0	  x0:0x00000000
       33815000	      3380	80000190	030000ef	jal	x1,80000190	  x1=0x80000190
       33825000	      3381	00000000	00000013	addi	x0,x0,0	  x0:0x00000000
       33835000	      3382	800001bc	00000013	addi	x0,x0,0	  x0:0x00000000
       33845000	      3383	800001c0	fcdff2ef	jal	x5,800001c0	  x5=0x800001c0
       33855000	      3384	00000000	00000013	addi	x0,x0,0	  x0:0x00000000
       33865000	      3385	80000188	00000013	addi	x0,x0,0	  x0:0x00000000
       33875000	      3386	8000018c	fddff36f	jal	x6,8000018c	  x6=0x8000018c
       33885000	      3387	00000000	00000013	addi	x0,x0,0	  x0:0x00000000
       33895000	      3388	80000164	00000013	addi	x0,x0,0	  x0:0x00000000
       33905000	      3389	80000168	02c000ef	jal	x1,80000168	  x1=0x80000168
       33915000	      3390	00000000	00000013	addi	x0,x0,0	  x0:0x00000000
       33925000	      3391	80000190	00000013	addi	x0,x0,0	  x0:0x00000000
       33935000	      3392	80000194	0300036f	jal	x6,80000194	  x6=0x80000194
       33945000	      3393	00000000	00000013	addi	x0,x0,0	  x0:0x00000000
       33955000	      3394	800001c0	00000013	addi	x0,x0,0	  x0:0x00000000
       33965000	      3395	800001c4	008082b3	add	x5,x1,x8	  x1:0x80000168  x8:0x00000000  x5=0x80000168
       33975000	      3396	800001c8	001503b3	add	x7,x10,x1	 x10:0xffffffac  x1:0x80000168  x7=0x80000114
       33985000	      3397	800001cc	a4086813	ori	x16,x16,-1472	 x16:0x80000178 x16=0xfffffb78
       33995000	      3398	800001d0	01927b33	and	x22,x4,x25	  x4:0x80000180 x25:0xf947f400 x22=0x80000000
       34005000	      3399	800001d4	018a6a33	or	x20,x20,x24	 x20:0x80009f67 x24:0x80000164 x20=0x80009f67
       34015000	      3400	800001d8	563f3993	sltiu	x19,x30,1379	 x30:0x8000019c x19=0x00000000
       34025000	      3401	800001dc	011171b3	and	x3,x2,x17	  x2:0xbd232e47 x17:0x80000158  x3=0x80000040
       34035000	      3402	800001e0	01f91d13	slli	x26,x18,0x1f	 x18:0xfffffe7b x26=0x80000000
       34045000	      3403	800001e4	00e76c33	or	x24,x14,x14	 x14:0x00000000 x14:0x00000000 x24=0x00000000
       34055000	      3404	800001e8	00000317	auipc	x6,0x0	  x6=0x800001e4
       34065000	      3405	800001ec	13830313	addi	x6,x6,312	  x6:0x800001e4  x6=0x8000031c
       34075000	      3406	800001f0	2ae30313	addi	x6,x6,686	  x6:0x8000031c  x6=0x800005ca
       34085000	      3407	800001f4	007c8033	add	x0,x25,x7	 x25:0xf947f400  x7:0x80000114
       34095000	      3408	800001f8	009d7833	and	x16,x26,x9	 x26:0x80000000  x9:0xfffffc29 x16=0x80000000
       34105000	      3409	800001fc	0047e863	bltu	x15,x4,8000020c	 x15:0x80009fc4  x4:0x80000180
       34115000	      3410	80000200	7a34e197	auipc	x3,0x7a34e	  x3=0xfa34e1fc
       34125000	      3411	80000204	00c6d893	srli	x17,x13,0xc	 x13:0xfffffe5b x17=0x000fffff
       34135000	      3412	80000208	c92d33b7	lui	x7,0xc92d3	  x7=0xc92d3000
       34145000	      3413	8000020c	d52308e7	jalr	x17,x6,-686	  x6:0x800005ca x17=0x8000020c
       34155000	      3414	00000000	00000013	addi	x0,x0,0	  x0:0x00000000
       34165000	      3415	8000031c	00000013	addi	x0,x0,0	  x0:0x00000000
       34175000	      3416	80000320	f9eaf613	andi	x12,x21,-98	 x21:0x80000001 x12=0x80000000
       34185000	      3417	80000324	fc0f8f93	addi	x31,x31,-64	 x31:0x80009f84 x31=0x80009f44
       34195000	      3418	80000328	a6a4ab97	auipc	x23,0xa6a4a	 x23=0x26a4a324
       34205000	      3419	8000032c	00ebccb3	xor	x25,x23,x14	 x23:0x26a4a324 x14:0x00000000 x25=0x26a4a324
       34215000	      3420	80000330	011fa223	sw	x17,4(x31)	 x31:0x80009f44 x17:0x8000020c PA:0x80009f48
       34225000	      3421	80000334	7b852613	slti	x12,x10,1976	 x10:0xffffffac x12=0x00000001
       34235000	      3422	80000338	00000013	addi	x0,x0,0	  x0:0x00000000
       34245000	      3423	8000033c	009a1593	slli	x11,x20,0x9	 x20:0x80009f67 x11=0x013ece00
       34255000	      3424	80000340	00bd9013	slli	x0,x27,0xb	 x27:0xfe26a000
       34265000	      3425	80000344	019cecb3	or	x25,x25,x25	 x25:0x26a4a324 x25:0x26a4a324 x25=0x26a4a324
       34275000	      3426	80000348	0163c9b3	xor	x19,x7,x22	  x7:0xc92d3000 x22:0x80000000 x19=0x492d3000
       34285000	      3427	8000034c	040008ef	jal	x17,8000034c	 x17=0x8000034c
       34295000	      3428	00000000	00000013	addi	x0,x0,0	  x0:0x00000000
       34305000	      3429	80000388	00000013	addi	x0,x0,0	  x0:0x00000000
       34315000	      3430	8000038c	028000ef	jal	x1,8000038c	  x1=0x8000038c
       34325000	      3431	00000000	00000013	addi	x0,x0,0	  x0:0x00000000
       34335000	      3432	800003b0	00000013	addi	x0,x0,0	  x0:0x00000000
       34345000	      3433	800003b4	fadff0ef	jal	x1,800003b4	  x1=0x800003b4
       34355000	      3434	00000000	00000013	addi	x0,x0,0	  x0:0x00000000
       34365000	      3435	8000035c	00000013	addi	x0,x0,0	  x0:0x00000000
       34375000	      3436	80000360	0140036f	jal	x6,80000360	  x6=0x80000360
       34385000	      3437	00000000	00000013	addi	x0,x0,0	  x0:0x00000000
       34395000	      3438	80000370	00000013	addi	x0,x0,0	  x0:0x00000000
       34405000	      3439	80000374	0080026f	jal	x4,80000374	  x4=0x80000374
       34415000	      3440	00000000	00000013	addi	x0,x0,0	  x0:0x00000000
       34425000	      3441	80000378	00000013	addi	x0,x0,0	  x0:0x00000000
       34435000	      3442	8000037c	01c000ef	jal	x1,8000037c	  x1=0x8000037c
       34445000	      3443	00000000	00000013	addi	x0,x0,0	  x0:0x00000000
       34455000	      3444	80000394	00000013	addi	x0,x0,0	  x0:0x00000000
       34465000	      3445	80000398	018000ef	jal	x1,80000398	  x1=0x80000398
       34475000	      3446	00000000	00000013	addi	x0,x0,0	  x0:0x00000000
       34485000	      3447	800003ac	00000013	addi	x0,x0,0	  x0:0x00000000
       34495000	      3448	800003b0	fadff0ef	jal	x1,800003b0	  x1=0x800003b0
       34505000	      3449	00000000	00000013	addi	x0,x0,0	  x0:0x00000000
       34515000	      3450	80000358	00000013	addi	x0,x0,0	  x0:0x00000000
       34525000	      3451	8000035c	040000ef	jal	x1,8000035c	  x1=0x8000035c
       34535000	      3452	00000000	00000013	addi	x0,x0,0	  x0:0x00000000
       34545000	      3453	80000398	00000013	addi	x0,x0,0	  x0:0x00000000
       34555000	      3454	8000039c	ff9ff36f	jal	x6,8000039c	  x6=0x8000039c
       34565000	      3455	00000000	00000013	addi	x0,x0,0	  x0:0x00000000
       34575000	      3456	80000390	00000013	addi	x0,x0,0	  x0:0x00000000
       34585000	      3457	80000394	ff5ff9ef	jal	x19,80000394	 x19=0x80000394
       34595000	      3458	00000000	00000013	addi	x0,x0,0	  x0:0x00000000
       34605000	      3459	80000384	00000013	addi	x0,x0,0	  x0:0x00000000
       34615000	      3460	80000388	0080036f	jal	x6,80000388	  x6=0x80000388
       34625000	      3461	00000000	00000013	addi	x0,x0,0	  x0:0x00000000
       34635000	      3462	8000038c	00000013	addi	x0,x0,0	  x0:0x00000000
       34645000	      3463	80000390	fe9ff36f	jal	x6,80000390	  x6=0x80000390
       34655000	      3464	00000000	00000013	addi	x0,x0,0	  x0:0x00000000
       34665000	      3465	80000374	00000013	addi	x0,x0,0	  x0:0x00000000
       34675000	      3466	80000378	ff1ff0ef	jal	x1,80000378	  x1=0x80000378
       34685000	      3467	00000000	00000013	addi	x0,x0,0	  x0:0x00000000
       34695000	      3468	80000364	00000013	addi	x0,x0,0	  x0:0x00000000
       34705000	      3469	80000368	03800f6f	jal	x30,80000368	 x30=0x80000368
       34715000	      3470	00000000	00000013	addi	x0,x0,0	  x0:0x00000000
       34725000	      3471	8000039c	00000013	addi	x0,x0,0	  x0:0x00000000
       34735000	      3472	800003a0	fb9ff0ef	jal	x1,800003a0	  x1=0x800003a0
       34745000	      3473	00000000	00000013	addi	x0,x0,0	  x0:0x00000000
       34755000	      3474	80000354	00000013	addi	x0,x0,0	  x0:0x00000000
       34765000	      3475	80000358	054000ef	jal	x1,80000358	  x1=0x80000358
       34775000	      3476	00000000	00000013	addi	x0,x0,0	  x0:0x00000000
       34785000	      3477	800003a8	00000013	addi	x0,x0,0	  x0:0x00000000
       34795000	      3478	800003ac	fa9ff36f	jal	x6,800003ac	  x6=0x800003ac
       34805000	      3479	00000000	00000013	addi	x0,x0,0	  x0:0x00000000
       34815000	      3480	80000350	00000013	addi	x0,x0,0	  x0:0x00000000
       34825000	      3481	80000354	050000ef	jal	x1,80000354	  x1=0x80000354
       34835000	      3482	00000000	00000013	addi	x0,x0,0	  x0:0x00000000
       34845000	      3483	800003a0	00000013	addi	x0,x0,0	  x0:0x00000000
       34855000	      3484	800003a4	fcdff1ef	jal	x3,800003a4	  x3=0x800003a4
       34865000	      3485	00000000	00000013	addi	x0,x0,0	  x0:0x00000000
       34875000	      3486	8000036c	00000013	addi	x0,x0,0	  x0:0x00000000
       34885000	      3487	80000370	038000ef	jal	x1,80000370	  x1=0x80000370
       34895000	      3488	00000000	00000013	addi	x0,x0,0	  x0:0x00000000
       34905000	      3489	800003a4	00000013	addi	x0,x0,0	  x0:0x00000000
       34915000	      3490	800003a8	fc5ff0ef	jal	x1,800003a8	  x1=0x800003a8
       34925000	      3491	00000000	00000013	addi	x0,x0,0	  x0:0x00000000
       34935000	      3492	80000368	00000013	addi	x0,x0,0	  x0:0x00000000
       34945000	      3493	8000036c	fe5ff1ef	jal	x3,8000036c	  x3=0x8000036c
       34955000	      3494	00000000	00000013	addi	x0,x0,0	  x0:0x00000000
       34965000	      3495	8000034c	00000013	addi	x0,x0,0	  x0:0x00000000
       34975000	      3496	80000350	03400c6f	jal	x24,80000350	 x24=0x80000350
       34985000	      3497	00000000	00000013	addi	x0,x0,0	  x0:0x00000000
       34995000	      3498	80000380	00000013	addi	x0,x0,0	  x0:0x00000000
       35005000	      3499	80000384	fe1ffe6f	jal	x28,80000384	 x28=0x80000384
       35015000	      3500	00000000	00000013	addi	x0,x0,0	  x0:0x00000000
       35025000	      3501	80000360	00000013	addi	x0,x0,0	  x0:0x00000000
       35035000	      3502	80000364	01c000ef	jal	x1,80000364	  x1=0x80000364
       35045000	      3503	00000000	00000013	addi	x0,x0,0	  x0:0x00000000
       35055000	      3504	8000037c	00000013	addi	x0,x0,0	  x0:0x00000000
       35065000	      3505	80000380	03800e6f	jal	x28,80000380	 x28=0x80000380
       35075000	      3506	00000000	00000013	addi	x0,x0,0	  x0:0x00000000
       35085000	      3507	800003b4	00000013	addi	x0,x0,0	  x0:0x00000000
       35095000	      3508	800003b8	2045fc93	andi	x25,x11,516	 x11:0x013ece00 x25=0x00000200
       35105000	      3509	800003bc	00c008ef	jal	x17,800003bc	 x17=0x800003bc
       35115000	      3510	00000000	00000013	addi	x0,x0,0	  x0:0x00000000
       35125000	      3511	800003c4	00000013	addi	x0,x0,0	  x0:0x00000000
       35135000	      3512	800003c8	ffdff26f	jal	x4,800003c8	  x4=0x800003c8
       35145000	      3513	00000000	00000013	addi	x0,x0,0	  x0:0x00000000
       35155000	      3514	800003c0	00000013	addi	x0,x0,0	  x0:0x00000000
       35165000	      3515	800003c4	0180036f	jal	x6,800003c4	  x6=0x800003c4
       35175000	      3516	00000000	00000013	addi	x0,x0,0	  x0:0x00000000
       35185000	      3517	800003d8	00000013	addi	x0,x0,0	  x0:0x00000000
       35195000	      3518	800003dc	00c00aef	jal	x21,800003dc	 x21=0x800003dc
       35205000	      3519	00000000	00000013	addi	x0,x0,0	  x0:0x00000000
       35215000	      3520	800003e4	00000013	addi	x0,x0,0	  x0:0x00000000
       35225000	      3521	800003e8	008001ef	jal	x3,800003e8	  x3=0x800003e8
       35235000	      3522	00000000	00000013	addi	x0,x0,0	  x0:0x00000000
       35245000	      3523	800003ec	00000013	addi	x0,x0,0	  x0:0x00000000
       35255000	      3524	800003f0	fe9ff36f	jal	x6,800003f0	  x6=0x800003f0
       35265000	      3525	00000000	00000013	addi	x0,x0,0	  x0:0x00000000
       35275000	      3526	800003d4	00000013	addi	x0,x0,0	  x0:0x00000000
       35285000	      3527	800003d8	0240076f	jal	x14,800003d8	 x14=0x800003d8
       35295000	      3528	00000000	00000013	addi	x0,x0,0	  x0:0x00000000
       35305000	      3529	800003f8	00000013	addi	x0,x0,0	  x0:0x00000000
       35315000	      3530	800003fc	ffdff36f	jal	x6,800003fc	  x6=0x800003fc
       35325000	      3531	00000000	00000013	addi	x0,x0,0	  x0:0x00000000
       35335000	      3532	800003f4	00000013	addi	x0,x0,0	  x0:0x00000000
       35345000	      3533	800003f8	00c000ef	jal	x1,800003f8	  x1=0x800003f8
       35355000	      3534	00000000	00000013	addi	x0,x0,0	  x0:0x00000000
       35365000	      3535	80000400	00000013	addi	x0,x0,0	  x0:0x00000000
       35375000	      3536	80000404	ffdff0ef	jal	x1,80000404	  x1=0x80000404
       35385000	      3537	00000000	00000013	addi	x0,x0,0	  x0:0x00000000
       35395000	      3538	800003fc	00000013	addi	x0,x0,0	  x0:0x00000000
       35405000	      3539	80000400	fe1ff0ef	jal	x1,80000400	  x1=0x80000400
       35415000	      3540	00000000	00000013	addi	x0,x0,0	  x0:0x00000000
       35425000	      3541	800003dc	00000013	addi	x0,x0,0	  x0:0x00000000
       35435000	      3542	800003e0	ff5ff36f	jal	x6,800003e0	  x6=0x800003e0
       35445000	      3543	00000000	00000013	addi	x0,x0,0	  x0:0x00000000
       35455000	      3544	800003d0	00000013	addi	x0,x0,0	  x0:0x00000000
       35465000	      3545	800003d4	010000ef	jal	x1,800003d4	  x1=0x800003d4
       35475000	      3546	00000000	00000013	addi	x0,x0,0	  x0:0x00000000
       35485000	      3547	800003e0	00000013	addi	x0,x0,0	  x0:0x00000000
       35495000	      3548	800003e4	fddff0ef	jal	x1,800003e4	  x1=0x800003e4
       35505000	      3549	00000000	00000013	addi	x0,x0,0	  x0:0x00000000
       35515000	      3550	800003bc	00000013	addi	x0,x0,0	  x0:0x00000000
       35525000	      3551	800003c0	00c00bef	jal	x23,800003c0	 x23=0x800003c0
       35535000	      3552	00000000	00000013	addi	x0,x0,0	  x0:0x00000000
       35545000	      3553	800003c8	00000013	addi	x0,x0,0	  x0:0x00000000
       35555000	      3554	800003cc	02800def	jal	x27,800003cc	 x27=0x800003cc
       35565000	      3555	00000000	00000013	addi	x0,x0,0	  x0:0x00000000
       35575000	      3556	800003f0	00000013	addi	x0,x0,0	  x0:0x00000000
       35585000	      3557	800003f4	ff9ff2ef	jal	x5,800003f4	  x5=0x800003f4
       35595000	      3558	00000000	00000013	addi	x0,x0,0	  x0:0x00000000
       35605000	      3559	800003e8	00000013	addi	x0,x0,0	  x0:0x00000000
       35615000	      3560	800003ec	fe5ff0ef	jal	x1,800003ec	  x1=0x800003ec
       35625000	      3561	00000000	00000013	addi	x0,x0,0	  x0:0x00000000
       35635000	      3562	800003cc	00000013	addi	x0,x0,0	  x0:0x00000000
       35645000	      3563	800003d0	038000ef	jal	x1,800003d0	  x1=0x800003d0
       35655000	      3564	00000000	00000013	addi	x0,x0,0	  x0:0x00000000
       35665000	      3565	80000404	00000013	addi	x0,x0,0	  x0:0x00000000
       35675000	      3566	80000408	402d8733	sub	x14,x27,x2	 x27:0x800003cc  x2:0xbd232e47 x14=0xc2dcd585
       35685000	      3567	8000040c	054008ef	jal	x17,8000040c	 x17=0x8000040c
       35695000	      3568	00000000	00000013	addi	x0,x0,0	  x0:0x00000000
       35705000	      3569	8000045c	00000013	addi	x0,x0,0	  x0:0x00000000
       35715000	      3570	80000460	014000ef	jal	x1,80000460	  x1=0x80000460
       35725000	      3571	00000000	00000013	addi	x0,x0,0	  x0:0x00000000
       35735000	      3572	80000470	00000013	addi	x0,x0,0	  x0:0x00000000
       35745000	      3573	80000474	fc1ff0ef	jal	x1,80000474	  x1=0x80000474
       35755000	      3574	00000000	00000013	addi	x0,x0,0	  x0:0x00000000
       35765000	      3575	80000430	00000013	addi	x0,x0,0	  x0:0x00000000
       35775000	      3576	80000434	0040036f	jal	x6,80000434	  x6=0x80000434
       35785000	      3577	00000000	00000013	addi	x0,x0,0	  x0:0x00000000
       35795000	      3578	80000434	00000013	addi	x0,x0,0	  x0:0x00000000
       35805000	      3579	80000438	0340036f	jal	x6,80000438	  x6=0x80000438
       35815000	      3580	00000000	00000013	addi	x0,x0,0	  x0:0x00000000
       35825000	      3581	80000468	00000013	addi	x0,x0,0	  x0:0x00000000
       35835000	      3582	8000046c	fe1ff8ef	jal	x17,8000046c	 x17=0x8000046c
       35845000	      3583	00000000	00000013	addi	x0,x0,0	  x0:0x00000000
       35855000	      3584	80000448	00000013	addi	x0,x0,0	  x0:0x00000000
       35865000	      3585	8000044c	ff9ff36f	jal	x6,8000044c	  x6=0x8000044c
       35875000	      3586	00000000	00000013	addi	x0,x0,0	  x0:0x00000000
       35885000	      3587	80000440	00000013	addi	x0,x0,0	  x0:0x00000000
       35895000	      3588	80000444	fe9ffdef	jal	x27,80000444	 x27=0x80000444
       35905000	      3589	00000000	00000013	addi	x0,x0,0	  x0:0x00000000
       35915000	      3590	80000428	00000013	addi	x0,x0,0	  x0:0x00000000
       35925000	      3591	8000042c	024001ef	jal	x3,8000042c	  x3=0x8000042c
       35935000	      3592	00000000	00000013	addi	x0,x0,0	  x0:0x00000000
       35945000	      3593	8000044c	00000013	addi	x0,x0,0	  x0:0x00000000
       35955000	      3594	80000450	fe1ff0ef	jal	x1,80000450	  x1=0x80000450
       35965000	      3595	00000000	00000013	addi	x0,x0,0	  x0:0x00000000
       35975000	      3596	8000042c	00000013	addi	x0,x0,0	  x0:0x00000000
       35985000	      3597	80000430	fe5ff6ef	jal	x13,80000430	 x13=0x80000430
       35995000	      3598	00000000	00000013	addi	x0,x0,0	  x0:0x00000000
       36005000	      3599	80000410	00000013	addi	x0,x0,0	  x0:0x00000000
       36015000	      3600	80000414	034000ef	jal	x1,80000414	  x1=0x80000414
       36025000	      3601	00000000	00000013	addi	x0,x0,0	  x0:0x00000000
       36035000	      3602	80000444	00000013	addi	x0,x0,0	  x0:0x00000000
       36045000	      3603	80000448	fe1ffb6f	jal	x22,80000448	 x22=0x80000448
       36055000	      3604	00000000	00000013	addi	x0,x0,0	  x0:0x00000000
       36065000	      3605	80000424	00000013	addi	x0,x0,0	  x0:0x00000000
       36075000	      3606	80000428	02c000ef	jal	x1,80000428	  x1=0x80000428
       36085000	      3607	00000000	00000013	addi	x0,x0,0	  x0:0x00000000
       36095000	      3608	80000450	00000013	addi	x0,x0,0	  x0:0x00000000
       36105000	      3609	80000454	01c0036f	jal	x6,80000454	  x6=0x80000454
       36115000	      3610	00000000	00000013	addi	x0,x0,0	  x0:0x00000000
       36125000	      3611	8000046c	00000013	addi	x0,x0,0	  x0:0x00000000
       36135000	      3612	80000470	fb1ff36f	jal	x6,80000470	  x6=0x80000470
       36145000	      3613	00000000	00000013	addi	x0,x0,0	  x0:0x00000000
       36155000	      3614	8000041c	00000013	addi	x0,x0,0	  x0:0x00000000
       36165000	      3615	80000420	048000ef	jal	x1,80000420	  x1=0x80000420
       36175000	      3616	00000000	00000013	addi	x0,x0,0	  x0:0x00000000
       36185000	      3617	80000464	00000013	addi	x0,x0,0	  x0:0x00000000
       36195000	      3618	80000468	ff5ff0ef	jal	x1,80000468	  x1=0x80000468
       36205000	      3619	00000000	00000013	addi	x0,x0,0	  x0:0x00000000
       36215000	      3620	80000458	00000013	addi	x0,x0,0	  x0:0x00000000
       36225000	      3621	8000045c	fb5ff0ef	jal	x1,8000045c	  x1=0x8000045c
       36235000	      3622	00000000	00000013	addi	x0,x0,0	  x0:0x00000000
       36245000	      3623	8000040c	00000013	addi	x0,x0,0	  x0:0x00000000
       36255000	      3624	80000410	014000ef	jal	x1,80000410	  x1=0x80000410
       36265000	      3625	00000000	00000013	addi	x0,x0,0	  x0:0x00000000
       36275000	      3626	80000420	00000013	addi	x0,x0,0	  x0:0x00000000
       36285000	      3627	80000424	ff9ff36f	jal	x6,80000424	  x6=0x80000424
       36295000	      3628	00000000	00000013	addi	x0,x0,0	  x0:0x00000000
       36305000	      3629	80000418	00000013	addi	x0,x0,0	  x0:0x00000000
       36315000	      3630	8000041c	024000ef	jal	x1,8000041c	  x1=0x8000041c
       36325000	      3631	00000000	00000013	addi	x0,x0,0	  x0:0x00000000
       36335000	      3632	8000043c	00000013	addi	x0,x0,0	  x0:0x00000000
       36345000	      3633	80000440	ffdff36f	jal	x6,80000440	  x6=0x80000440
       36355000	      3634	00000000	00000013	addi	x0,x0,0	  x0:0x00000000
       36365000	      3635	80000438	00000013	addi	x0,x0,0	  x0:0x00000000
       36375000	      3636	8000043c	0280036f	jal	x6,8000043c	  x6=0x8000043c
       36385000	      3637	00000000	00000013	addi	x0,x0,0	  x0:0x00000000
       36395000	      3638	80000460	00000013	addi	x0,x0,0	  x0:0x00000000
       36405000	      3639	80000464	fb5ff36f	jal	x6,80000464	  x6=0x80000464
       36415000	      3640	00000000	00000013	addi	x0,x0,0	  x0:0x00000000
       36425000	      3641	80000414	00000013	addi	x0,x0,0	  x0:0x00000000
       36435000	      3642	80000418	040000ef	jal	x1,80000418	  x1=0x80000418
       36445000	      3643	00000000	00000013	addi	x0,x0,0	  x0:0x00000000
       36455000	      3644	80000454	00000013	addi	x0,x0,0	  x0:0x00000000
       36465000	      3645	80000458	020008ef	jal	x17,80000458	 x17=0x80000458
       36475000	      3646	00000000	00000013	addi	x0,x0,0	  x0:0x00000000
       36485000	      3647	80000474	00000013	addi	x0,x0,0	  x0:0x00000000
       36495000	      3648	80000478	b25c8e93	addi	x29,x25,-1243	 x25:0x00000200 x29=0xfffffd25
       36505000	      3649	8000047c	014008ef	jal	x17,8000047c	 x17=0x8000047c
       36515000	      3650	00000000	00000013	addi	x0,x0,0	  x0:0x00000000
       36525000	      3651	8000048c	00000013	addi	x0,x0,0	  x0:0x00000000
       36535000	      3652	80000490	004000ef	jal	x1,80000490	  x1=0x80000490
       36545000	      3653	00000000	00000013	addi	x0,x0,0	  x0:0x00000000
       36555000	      3654	80000490	00000013	addi	x0,x0,0	  x0:0x00000000
       36565000	      3655	80000494	0100036f	jal	x6,80000494	  x6=0x80000494
       36575000	      3656	00000000	00000013	addi	x0,x0,0	  x0:0x00000000
       36585000	      3657	800004a0	00000013	addi	x0,x0,0	  x0:0x00000000
       36595000	      3658	800004a4	008001ef	jal	x3,800004a4	  x3=0x800004a4
       36605000	      3659	00000000	00000013	addi	x0,x0,0	  x0:0x00000000
       36615000	      3660	800004a8	00000013	addi	x0,x0,0	  x0:0x00000000
       36625000	      3661	800004ac	0100036f	jal	x6,800004ac	  x6=0x800004ac
       36635000	      3662	00000000	00000013	addi	x0,x0,0	  x0:0x00000000
       36645000	      3663	800004b8	00000013	addi	x0,x0,0	  x0:0x00000000
       36655000	      3664	800004bc	ff9ff0ef	jal	x1,800004bc	  x1=0x800004bc
       36665000	      3665	00000000	00000013	addi	x0,x0,0	  x0:0x00000000
       36675000	      3666	800004b0	00000013	addi	x0,x0,0	  x0:0x00000000
       36685000	      3667	800004b4	fe5ff36f	jal	x6,800004b4	  x6=0x800004b4
       36695000	      3668	00000000	00000013	addi	x0,x0,0	  x0:0x00000000
       36705000	      3669	80000494	00000013	addi	x0,x0,0	  x0:0x00000000
       36715000	      3670	80000498	ff1ff0ef	jal	x1,80000498	  x1=0x80000498
       36725000	      3671	00000000	00000013	addi	x0,x0,0	  x0:0x00000000
       36735000	      3672	80000484	00000013	addi	x0,x0,0	  x0:0x00000000
       36745000	      3673	80000488	028000ef	jal	x1,80000488	  x1=0x80000488
       36755000	      3674	00000000	00000013	addi	x0,x0,0	  x0:0x00000000
       36765000	      3675	800004ac	00000013	addi	x0,x0,0	  x0:0x00000000
       36775000	      3676	800004b0	fd1ff0ef	jal	x1,800004b0	  x1=0x800004b0
       36785000	      3677	00000000	00000013	addi	x0,x0,0	  x0:0x00000000
       36795000	      3678	8000047c	00000013	addi	x0,x0,0	  x0:0x00000000
       36805000	      3679	80000480	020000ef	jal	x1,80000480	  x1=0x80000480
       36815000	      3680	00000000	00000013	addi	x0,x0,0	  x0:0x00000000
       36825000	      3681	8000049c	00000013	addi	x0,x0,0	  x0:0x00000000
       36835000	      3682	800004a0	0080036f	jal	x6,800004a0	  x6=0x800004a0
       36845000	      3683	00000000	00000013	addi	x0,x0,0	  x0:0x00000000
       36855000	      3684	800004a4	00000013	addi	x0,x0,0	  x0:0x00000000
       36865000	      3685	800004a8	0100066f	jal	x12,800004a8	 x12=0x800004a8
       36875000	      3686	00000000	00000013	addi	x0,x0,0	  x0:0x00000000
       36885000	      3687	800004b4	00000013	addi	x0,x0,0	  x0:0x00000000
       36895000	      3688	800004b8	fe5ffaef	jal	x21,800004b8	 x21=0x800004b8
       36905000	      3689	00000000	00000013	addi	x0,x0,0	  x0:0x00000000
       36915000	      3690	80000498	00000013	addi	x0,x0,0	  x0:0x00000000
       36925000	      3691	8000049c	fe9ff26f	jal	x4,8000049c	  x4=0x8000049c
       36935000	      3692	00000000	00000013	addi	x0,x0,0	  x0:0x00000000
       36945000	      3693	80000480	00000013	addi	x0,x0,0	  x0:0x00000000
       36955000	      3694	80000484	008000ef	jal	x1,80000484	  x1=0x80000484
       36965000	      3695	00000000	00000013	addi	x0,x0,0	  x0:0x00000000
       36975000	      3696	80000488	00000013	addi	x0,x0,0	  x0:0x00000000
       36985000	      3697	8000048c	034000ef	jal	x1,8000048c	  x1=0x8000048c
       36995000	      3698	00000000	00000013	addi	x0,x0,0	  x0:0x00000000
       37005000	      3699	800004bc	00000013	addi	x0,x0,0	  x0:0x00000000
       37015000	      3700	800004c0	08893d13	sltiu	x26,x18,136	 x18:0xfffffe7b x26=0x00000000
       37025000	      3701	800004c4	020008ef	jal	x17,800004c4	 x17=0x800004c4
       37035000	      3702	00000000	00000013	addi	x0,x0,0	  x0:0x00000000
       37045000	      3703	800004e0	00000013	addi	x0,x0,0	  x0:0x00000000
       37055000	      3704	800004e4	fe9ff1ef	jal	x3,800004e4	  x3=0x800004e4
       37065000	      3705	00000000	00000013	addi	x0,x0,0	  x0:0x00000000
       37075000	      3706	800004c8	00000013	addi	x0,x0,0	  x0:0x00000000
       37085000	      3707	800004cc	00c000ef	jal	x1,800004cc	  x1=0x800004cc
       37095000	      3708	00000000	00000013	addi	x0,x0,0	  x0:0x00000000
       37105000	      3709	800004d4	00000013	addi	x0,x0,0	  x0:0x00000000
       37115000	      3710	800004d8	ffdffaef	jal	x21,800004d8	 x21=0x800004d8
       37125000	      3711	00000000	00000013	addi	x0,x0,0	  x0:0x00000000
       37135000	      3712	800004d0	00000013	addi	x0,x0,0	  x0:0x00000000
       37145000	      3713	800004d4	0140036f	jal	x6,800004d4	  x6=0x800004d4
       37155000	      3714	00000000	00000013	addi	x0,x0,0	  x0:0x00000000
       37165000	      3715	800004e4	00000013	addi	x0,x0,0	  x0:0x00000000
       37175000	      3716	800004e8	ff5ff36f	jal	x6,800004e8	  x6=0x800004e8
       37185000	      3717	00000000	00000013	addi	x0,x0,0	  x0:0x00000000
       37195000	      3718	800004d8	00000013	addi	x0,x0,0	  x0:0x00000000
       37205000	      3719	800004dc	ff5ff56f	jal	x10,800004dc	 x10=0x800004dc
       37215000	      3720	00000000	00000013	addi	x0,x0,0	  x0:0x00000000
       37225000	      3721	800004cc	00000013	addi	x0,x0,0	  x0:0x00000000
       37235000	      3722	800004d0	ff9ff86f	jal	x16,800004d0	 x16=0x800004d0
       37245000	      3723	00000000	00000013	addi	x0,x0,0	  x0:0x00000000
       37255000	      3724	800004c4	00000013	addi	x0,x0,0	  x0:0x00000000
       37265000	      3725	800004c8	024000ef	jal	x1,800004c8	  x1=0x800004c8
       37275000	      3726	00000000	00000013	addi	x0,x0,0	  x0:0x00000000
       37285000	      3727	800004e8	00000013	addi	x0,x0,0	  x0:0x00000000
       37295000	      3728	800004ec	ff5ff0ef	jal	x1,800004ec	  x1=0x800004ec
       37305000	      3729	00000000	00000013	addi	x0,x0,0	  x0:0x00000000
       37315000	      3730	800004dc	00000013	addi	x0,x0,0	  x0:0x00000000
       37325000	      3731	800004e0	010000ef	jal	x1,800004e0	  x1=0x800004e0
       37335000	      3732	00000000	00000013	addi	x0,x0,0	  x0:0x00000000
       37345000	      3733	800004ec	00000013	addi	x0,x0,0	  x0:0x00000000
       37355000	      3734	800004f0	e6d5a713	slti	x14,x11,-403	 x11:0x013ece00 x14=0x00000000
       37365000	      3735	800004f4	069a6a93	ori	x21,x20,105	 x20:0x80009f67 x21=0x80009f6f
       37375000	      3736	800004f8	56b20513	addi	x10,x4,1387	  x4:0x8000049c x10=0x80000a07
       37385000	      3737	800004fc	036cea63	bltu	x25,x22,80000530	 x25:0x00000200 x22:0x80000448
       37395000	      3738	00000000	00000013	addi	x0,x0,0	  x0:0x00000000
       37405000	      3739	8000052c	00000013	addi	x0,x0,0	  x0:0x00000000
       37415000	      3740	80000530	daf2f097	auipc	x1,0xdaf2f	  x1=0x5af2f52c
       37425000	      3741	80000534	03386063	bltu	x16,x19,80000554	 x16:0x800004d0 x19:0x80000394
       37435000	      3742	80000538	01d028b3	slt	x17,x0,x29	  x0:0x00000000 x29:0xfffffd25 x17=0x00000000
       37445000	      3743	8000053c	03254663	blt	x10,x18,80000568	 x10:0x80000a07 x18:0xfffffe7b
       37455000	      3744	00000000	00000013	addi	x0,x0,0	  x0:0x00000000
       37465000	      3745	80000564	00000013	addi	x0,x0,0	  x0:0x00000000
       37475000	      3746	80000568	913af213	andi	x4,x21,-1773	 x21:0x80009f6f  x4=0x80009903
       37485000	      3747	8000056c	00fd74b3	and	x9,x26,x15	 x26:0x00000000 x15:0x80009fc4  x9=0x00000000
       37495000	      3748	80000570	01595d33	srl	x26,x18,x21	 x18:0xfffffe7b x21:0x80009f6f x26=0x0001ffff
       37505000	      3749	80000574	0b6cf693	andi	x13,x25,182	 x25:0x00000200 x13=0x00000000
       37515000	      3750	80000578	00000497	auipc	x9,0x0	  x9=0x80000574
       37525000	      3751	8000057c	cc848493	addi	x9,x9,-824	  x9:0x80000574  x9=0x8000023c
       37535000	      3752	80000580	001959b3	srl	x19,x18,x1	 x18:0xfffffe7b  x1:0x5af2f52c x19=0x000fffff
       37545000	      3753	80000584	958e2a97	auipc	x21,0x958e2	 x21=0x158e2580
       37555000	      3754	80000588	3a648493	addi	x9,x9,934	  x9:0x8000023c  x9=0x800005e2
       37565000	      3755	8000058c	00ea5013	srli	x0,x20,0xe	 x20:0x80009f67
       37575000	      3756	80000590	40288b33	sub	x22,x17,x2	 x17:0x00000000  x2:0xbd232e47 x22=0x42dcd1b9
       37585000	      3757	80000594	dd13fc13	andi	x24,x7,-559	  x7:0xc92d3000 x24=0xc92d3000
       37595000	      3758	80000598	c7c1e713	ori	x14,x3,-900	  x3:0x800004e4 x14=0xfffffcfc
       37605000	      3759	8000059c	c5b488e7	jalr	x17,x9,-933	  x9:0x800005e2 x17=0x8000059c
       37615000	      3760	00000000	00000013	addi	x0,x0,0	  x0:0x00000000
       37625000	      3761	8000023c	00000013	addi	x0,x0,0	  x0:0x00000000
       37635000	      3762	80000240	5f455e97	auipc	x29,0x5f455	 x29=0xdf45523c
       37645000	      3763	80000244	00000013	addi	x0,x0,0	  x0:0x00000000
       37655000	      3764	80000248	58af2613	slti	x12,x30,1418	 x30:0x80000368 x12=0x00000001
       37665000	      3765	8000024c	fe0f8f93	addi	x31,x31,-32	 x31:0x80009f44 x31=0x80009f24
       37675000	      3766	80000250	e5c56e17	auipc	x28,0xe5c56	 x28=0x65c5624c
       37685000	      3767	80000254	011fa223	sw	x17,4(x31)	 x31:0x80009f24 x17:0x8000059c PA:0x80009f28
       37695000	      3768	80000258	03ae0f13	addi	x30,x28,58	 x28:0x65c5624c x30=0x65c56286
       37705000	      3769	8000025c	00e7f733	and	x14,x15,x14	 x15:0x80009fc4 x14:0xfffffcfc x14=0x80009cc4
       37715000	      3770	80000260	0096df33	srl	x30,x13,x9	 x13:0x00000000  x9:0x800005e2 x30=0x00000000
       37725000	      3771	80000264	00000013	addi	x0,x0,0	  x0:0x00000000
       37735000	      3772	80000268	fed48293	addi	x5,x9,-19	  x9:0x800005e2  x5=0x800005cf
       37745000	      3773	8000026c	0020ea33	or	x20,x1,x2	  x1:0x5af2f52c  x2:0xbd232e47 x20=0xfff3ff6f
       37755000	      3774	80000270	58eb2817	auipc	x16,0x58eb2	 x16=0xd8eb226c
       37765000	      3775	80000274	011bf633	and	x12,x23,x17	 x23:0x800003c0 x17:0x8000059c x12=0x80000180
       37775000	      3776	80000278	01618433	add	x8,x3,x22	  x3:0x800004e4 x22:0x42dcd1b9  x8=0xc2dcd69d
       37785000	      3777	8000027c	01707e33	and	x28,x0,x23	  x0:0x00000000 x23:0x800003c0 x28=0x00000000
       37795000	      3778	80000280	1197f593	andi	x11,x15,281	 x15:0x80009fc4 x11=0x00000100
       37805000	      3779	80000284	149008ef	jal	x17,80000284	 x17=0x80000284
       37815000	      3780	00000000	00000013	addi	x0,x0,0	  x0:0x00000000
       37825000	      3781	80000bc8	00000013	addi	x0,x0,0	  x0:0x00000000
       37835000	      3782	80000bcc	004913b3	sll	x7,x18,x4	 x18:0xfffffe7b  x4:0x80009903  x7=0xfffff3d8
       37845000	      3783	80000bd0	0121fb33	and	x22,x3,x18	  x3:0x800004e4 x18:0xfffffe7b x22=0x80000460
       37855000	      3784	80000bd4	41545c93	srai	x25,x8,0x15	  x8:0xc2dcd69d x25=0xfffffe16
       37865000	      3785	80000bd8	01e0f663	bgeu	x1,x30,80000be4	  x1:0x5af2f52c x30:0x00000000
       37875000	      3786	00000000	00000013	addi	x0,x0,0	  x0:0x00000000
       37885000	      3787	80000be0	00000013	addi	x0,x0,0	  x0:0x00000000
       37895000	      3788	80000be4	fd0f8f93	addi	x31,x31,-48	 x31:0x80009f24 x31=0x80009ef4
       37905000	      3789	80000be8	011fa223	sw	x17,4(x31)	 x31:0x80009ef4 x17:0x80000284 PA:0x80009ef8
       37915000	      3790	80000bec	3b870493	addi	x9,x14,952	 x14:0x80009cc4  x9=0x8000a07c
       37925000	      3791	80000bf0	40d65913	srai	x18,x12,0xd	 x12:0x80000180 x18=0xfffc0000
       37935000	      3792	80000bf4	41525013	srai	x0,x4,0x15	  x4:0x80009903
       37945000	      3793	80000bf8	fde9e613	ori	x12,x19,-34	 x19:0x000fffff x12=0xffffffff
       37955000	      3794	80000bfc	777e6913	ori	x18,x28,1911	 x28:0x00000000 x18=0x00000777
       37965000	      3795	80000c00	202e7693	andi	x13,x28,514	 x28:0x00000000 x13=0x00000000
       37975000	      3796	80000c04	469fea13	ori	x20,x31,1129	 x31:0x80009ef4 x20=0x80009efd
       37985000	      3797	80000c08	30fead13	slti	x26,x29,783	 x29:0xdf45523c x26=0x00000001
       37995000	      3798	80000c0c	01aeab33	slt	x22,x29,x26	 x29:0xdf45523c x26:0x00000001 x22=0x00000001
       38005000	      3799	80000c10	484008ef	jal	x17,80000c10	 x17=0x80000c10
       38015000	      3800	00000000	00000013	addi	x0,x0,0	  x0:0x00000000
       38025000	      3801	80001090	00000013	addi	x0,x0,0	  x0:0x00000000
       38035000	      3802	80001094	00b484b3	add	x9,x9,x11	  x9:0x8000a07c x11:0x00000100  x9=0x8000a17c
       38045000	      3803	80001098	000615b3	sll	x11,x12,x0	 x12:0xffffffff  x0:0x00000000 x11=0xffffffff
       38055000	      3804	8000109c	ff8f8f93	addi	x31,x31,-8	 x31:0x80009ef4 x31=0x80009eec
       38065000	      3805	800010a0	011fa223	sw	x17,4(x31)	 x31:0x80009eec x17:0x80000c10 PA:0x80009ef0
       38075000	      3806	800010a4	00e05e33	srl	x28,x0,x14	  x0:0x00000000 x14:0x80009cc4 x28=0x00000000
       38085000	      3807	800010a8	00a45833	srl	x16,x8,x10	  x8:0xc2dcd69d x10:0x80000a07 x16=0x0185b9ad
       38095000	      3808	800010ac	01401233	sll	x4,x0,x20	  x0:0x00000000 x20:0x80009efd  x4=0x00000000
       38105000	      3809	800010b0	00000013	addi	x0,x0,0	  x0:0x00000000
       38115000	      3810	800010b4	014008ef	jal	x17,800010b4	 x17=0x800010b4
       38125000	      3811	00000000	00000013	addi	x0,x0,0	  x0:0x00000000
       38135000	      3812	800010c4	00000013	addi	x0,x0,0	  x0:0x00000000
       38145000	      3813	800010c8	014000ef	jal	x1,800010c8	  x1=0x800010c8
       38155000	      3814	00000000	00000013	addi	x0,x0,0	  x0:0x00000000
       38165000	      3815	800010d8	00000013	addi	x0,x0,0	  x0:0x00000000
       38175000	      3816	800010dc	ff9ff0ef	jal	x1,800010dc	  x1=0x800010dc
       38185000	      3817	00000000	00000013	addi	x0,x0,0	  x0:0x00000000
       38195000	      3818	800010d0	00000013	addi	x0,x0,0	  x0:0x00000000
       38205000	      3819	800010d4	ff9ff0ef	jal	x1,800010d4	  x1=0x800010d4
       38215000	      3820	00000000	00000013	addi	x0,x0,0	  x0:0x00000000
       38225000	      3821	800010c8	00000013	addi	x0,x0,0	  x0:0x00000000
       38235000	      3822	800010cc	ff5ff0ef	jal	x1,800010cc	  x1=0x800010cc
       38245000	      3823	00000000	00000013	addi	x0,x0,0	  x0:0x00000000
       38255000	      3824	800010bc	00000013	addi	x0,x0,0	  x0:0x00000000
       38265000	      3825	800010c0	ff9ff0ef	jal	x1,800010c0	  x1=0x800010c0
       38275000	      3826	00000000	00000013	addi	x0,x0,0	  x0:0x00000000
       38285000	      3827	800010b4	00000013	addi	x0,x0,0	  x0:0x00000000
       38295000	      3828	800010b8	020000ef	jal	x1,800010b8	  x1=0x800010b8
       38305000	      3829	00000000	00000013	addi	x0,x0,0	  x0:0x00000000
       38315000	      3830	800010d4	00000013	addi	x0,x0,0	  x0:0x00000000
       38325000	      3831	800010d8	fedff0ef	jal	x1,800010d8	  x1=0x800010d8
       38335000	      3832	00000000	00000013	addi	x0,x0,0	  x0:0x00000000
       38345000	      3833	800010c0	00000013	addi	x0,x0,0	  x0:0x00000000
       38355000	      3834	800010c4	00c00c6f	jal	x24,800010c4	 x24=0x800010c4
       38365000	      3835	00000000	00000013	addi	x0,x0,0	  x0:0x00000000
       38375000	      3836	800010cc	00000013	addi	x0,x0,0	  x0:0x00000000
       38385000	      3837	800010d0	fedff3ef	jal	x7,800010d0	  x7=0x800010d0
       38395000	      3838	00000000	00000013	addi	x0,x0,0	  x0:0x00000000
       38405000	      3839	800010b8	00000013	addi	x0,x0,0	  x0:0x00000000
       38415000	      3840	800010bc	024000ef	jal	x1,800010bc	  x1=0x800010bc
       38425000	      3841	00000000	00000013	addi	x0,x0,0	  x0:0x00000000
       38435000	      3842	800010dc	00000013	addi	x0,x0,0	  x0:0x00000000
       38445000	      3843	800010e0	00d90933	add	x18,x18,x13	 x18:0x00000777 x13:0x00000000 x18=0x00000777
       38455000	      3844	800010e4	034008ef	jal	x17,800010e4	 x17=0x800010e4
       38465000	      3845	00000000	00000013	addi	x0,x0,0	  x0:0x00000000
       38475000	      3846	80001114	00000013	addi	x0,x0,0	  x0:0x00000000
       38485000	      3847	80001118	fe9ff1ef	jal	x3,80001118	  x3=0x80001118
       38495000	      3848	00000000	00000013	addi	x0,x0,0	  x0:0x00000000
       38505000	      3849	800010fc	00000013	addi	x0,x0,0	  x0:0x00000000
       38515000	      3850	80001100	0140036f	jal	x6,80001100	  x6=0x80001100
       38525000	      3851	00000000	00000013	addi	x0,x0,0	  x0:0x00000000
       38535000	      3852	80001110	00000013	addi	x0,x0,0	  x0:0x00000000
       38545000	      3853	80001114	ff1ff0ef	jal	x1,80001114	  x1=0x80001114
       38555000	      3854	00000000	00000013	addi	x0,x0,0	  x0:0x00000000
       38565000	      3855	80001100	00000013	addi	x0,x0,0	  x0:0x00000000
       38575000	      3856	80001104	fe5ff0ef	jal	x1,80001104	  x1=0x80001104
       38585000	      3857	00000000	00000013	addi	x0,x0,0	  x0:0x00000000
       38595000	      3858	800010e4	00000013	addi	x0,x0,0	  x0:0x00000000
       38605000	      3859	800010e8	0240036f	jal	x6,800010e8	  x6=0x800010e8
       38615000	      3860	00000000	00000013	addi	x0,x0,0	  x0:0x00000000
       38625000	      3861	80001108	00000013	addi	x0,x0,0	  x0:0x00000000
       38635000	      3862	8000110c	fe9ff0ef	jal	x1,8000110c	  x1=0x8000110c
       38645000	      3863	00000000	00000013	addi	x0,x0,0	  x0:0x00000000
       38655000	      3864	800010f0	00000013	addi	x0,x0,0	  x0:0x00000000
       38665000	      3865	800010f4	01c0036f	jal	x6,800010f4	  x6=0x800010f4
       38675000	      3866	00000000	00000013	addi	x0,x0,0	  x0:0x00000000
       38685000	      3867	8000110c	00000013	addi	x0,x0,0	  x0:0x00000000
       38695000	      3868	80001110	fe1ff0ef	jal	x1,80001110	  x1=0x80001110
       38705000	      3869	00000000	00000013	addi	x0,x0,0	  x0:0x00000000
       38715000	      3870	800010ec	00000013	addi	x0,x0,0	  x0:0x00000000
       38725000	      3871	800010f0	008004ef	jal	x9,800010f0	  x9=0x800010f0
       38735000	      3872	00000000	00000013	addi	x0,x0,0	  x0:0x00000000
       38745000	      3873	800010f4	00000013	addi	x0,x0,0	  x0:0x00000000
       38755000	      3874	800010f8	024000ef	jal	x1,800010f8	  x1=0x800010f8
       38765000	      3875	00000000	00000013	addi	x0,x0,0	  x0:0x00000000
       38775000	      3876	80001118	00000013	addi	x0,x0,0	  x0:0x00000000
       38785000	      3877	8000111c	fe1ff0ef	jal	x1,8000111c	  x1=0x8000111c
       38795000	      3878	00000000	00000013	addi	x0,x0,0	  x0:0x00000000
       38805000	      3879	800010f8	00000013	addi	x0,x0,0	  x0:0x00000000
       38815000	      3880	800010fc	00c00eef	jal	x29,800010fc	 x29=0x800010fc
       38825000	      3881	00000000	00000013	addi	x0,x0,0	  x0:0x00000000
       38835000	      3882	80001104	00000013	addi	x0,x0,0	  x0:0x00000000
       38845000	      3883	80001108	fe5ff0ef	jal	x1,80001108	  x1=0x80001108
       38855000	      3884	00000000	00000013	addi	x0,x0,0	  x0:0x00000000
       38865000	      3885	800010e8	00000013	addi	x0,x0,0	  x0:0x00000000
       38875000	      3886	800010ec	0340086f	jal	x16,800010ec	 x16=0x800010ec
       38885000	      3887	00000000	00000013	addi	x0,x0,0	  x0:0x00000000
       38895000	      3888	8000111c	00000013	addi	x0,x0,0	  x0:0x00000000
       38905000	      3889	80001120	44798d93	addi	x27,x19,1095	 x19:0x000fffff x27=0x00100446
       38915000	      3890	80001124	04c008ef	jal	x17,80001124	 x17=0x80001124
       38925000	      3891	00000000	00000013	addi	x0,x0,0	  x0:0x00000000
       38935000	      3892	8000116c	00000013	addi	x0,x0,0	  x0:0x00000000
       38945000	      3893	80001170	fe1ff1ef	jal	x3,80001170	  x3=0x80001170
       38955000	      3894	00000000	00000013	addi	x0,x0,0	  x0:0x00000000
       38965000	      3895	8000114c	00000013	addi	x0,x0,0	  x0:0x00000000
       38975000	      3896	80001150	034000ef	jal	x1,80001150	  x1=0x80001150
       38985000	      3897	00000000	00000013	addi	x0,x0,0	  x0:0x00000000
       38995000	      3898	80001180	00000013	addi	x0,x0,0	  x0:0x00000000
       39005000	      3899	80001184	ff5ff0ef	jal	x1,80001184	  x1=0x80001184
       39015000	      3900	00000000	00000013	addi	x0,x0,0	  x0:0x00000000
       39025000	      3901	80001174	00000013	addi	x0,x0,0	  x0:0x00000000
       39035000	      3902	80001178	fc1ff36f	jal	x6,80001178	  x6=0x80001178
       39045000	      3903	00000000	00000013	addi	x0,x0,0	  x0:0x00000000
       39055000	      3904	80001134	00000013	addi	x0,x0,0	  x0:0x00000000
       39065000	      3905	80001138	00c000ef	jal	x1,80001138	  x1=0x80001138
       39075000	      3906	00000000	00000013	addi	x0,x0,0	  x0:0x00000000
       39085000	      3907	80001140	00000013	addi	x0,x0,0	  x0:0x00000000
       39095000	      3908	80001144	ff9ff66f	jal	x12,80001144	 x12=0x80001144
       39105000	      3909	00000000	00000013	addi	x0,x0,0	  x0:0x00000000
       39115000	      3910	80001138	00000013	addi	x0,x0,0	  x0:0x00000000
       39125000	      3911	8000113c	01000def	jal	x27,8000113c	 x27=0x8000113c
       39135000	      3912	00000000	00000013	addi	x0,x0,0	  x0:0x00000000
       39145000	      3913	80001148	00000013	addi	x0,x0,0	  x0:0x00000000
       39155000	      3914	8000114c	03c0086f	jal	x16,8000114c	 x16=0x8000114c
       39165000	      3915	00000000	00000013	addi	x0,x0,0	  x0:0x00000000
       39175000	      3916	80001184	00000013	addi	x0,x0,0	  x0:0x00000000
       39185000	      3917	80001188	fe5ff36f	jal	x6,80001188	  x6=0x80001188
       39195000	      3918	00000000	00000013	addi	x0,x0,0	  x0:0x00000000
       39205000	      3919	80001168	00000013	addi	x0,x0,0	  x0:0x00000000
       39215000	      3920	8000116c	fc1ff36f	jal	x6,8000116c	  x6=0x8000116c
       39225000	      3921	00000000	00000013	addi	x0,x0,0	  x0:0x00000000
       39235000	      3922	80001128	00000013	addi	x0,x0,0	  x0:0x00000000
       39245000	      3923	8000112c	0080086f	jal	x16,8000112c	 x16=0x8000112c
       39255000	      3924	00000000	00000013	addi	x0,x0,0	  x0:0x00000000
       39265000	      3925	80001130	00000013	addi	x0,x0,0	  x0:0x00000000
       39275000	      3926	80001134	028000ef	jal	x1,80001134	  x1=0x80001134
       39285000	      3927	00000000	00000013	addi	x0,x0,0	  x0:0x00000000
       39295000	      3928	80001158	00000013	addi	x0,x0,0	  x0:0x00000000
       39305000	      3929	8000115c	fedff0ef	jal	x1,8000115c	  x1=0x8000115c
       39315000	      3930	00000000	00000013	addi	x0,x0,0	  x0:0x00000000
       39325000	      3931	80001144	00000013	addi	x0,x0,0	  x0:0x00000000
       39335000	      3932	80001148	048000ef	jal	x1,80001148	  x1=0x80001148
       39345000	      3933	00000000	00000013	addi	x0,x0,0	  x0:0x00000000
       39355000	      3934	8000118c	00000013	addi	x0,x0,0	  x0:0x00000000
       39365000	      3935	80001190	fc9ff86f	jal	x16,80001190	 x16=0x80001190
       39375000	      3936	00000000	00000013	addi	x0,x0,0	  x0:0x00000000
       39385000	      3937	80001154	00000013	addi	x0,x0,0	  x0:0x00000000
       39395000	      3938	80001158	02800def	jal	x27,80001158	 x27=0x80001158
       39405000	      3939	00000000	00000013	addi	x0,x0,0	  x0:0x00000000
       39415000	      3940	8000117c	00000013	addi	x0,x0,0	  x0:0x00000000
       39425000	      3941	80001180	fe1ff0ef	jal	x1,80001180	  x1=0x80001180
       39435000	      3942	00000000	00000013	addi	x0,x0,0	  x0:0x00000000
       39445000	      3943	8000115c	00000013	addi	x0,x0,0	  x0:0x00000000
       39455000	      3944	80001160	01c00d6f	jal	x26,80001160	 x26=0x80001160
       39465000	      3945	00000000	00000013	addi	x0,x0,0	  x0:0x00000000
       39475000	      3946	80001178	00000013	addi	x0,x0,0	  x0:0x00000000
       39485000	      3947	8000117c	fe9ff0ef	jal	x1,8000117c	  x1=0x8000117c
       39495000	      3948	00000000	00000013	addi	x0,x0,0	  x0:0x00000000
       39505000	      3949	80001160	00000013	addi	x0,x0,0	  x0:0x00000000
       39515000	      3950	80001164	fddff0ef	jal	x1,80001164	  x1=0x80001164
       39525000	      3951	00000000	00000013	addi	x0,x0,0	  x0:0x00000000
       39535000	      3952	8000113c	00000013	addi	x0,x0,0	  x0:0x00000000
       39545000	      3953	80001140	04c002ef	jal	x5,80001140	  x5=0x80001140
       39555000	      3954	00000000	00000013	addi	x0,x0,0	  x0:0x00000000
       39565000	      3955	80001188	00000013	addi	x0,x0,0	  x0:0x00000000
       39575000	      3956	8000118c	fe9ff0ef	jal	x1,8000118c	  x1=0x8000118c
       39585000	      3957	00000000	00000013	addi	x0,x0,0	  x0:0x00000000
       39595000	      3958	80001170	00000013	addi	x0,x0,0	  x0:0x00000000
       39605000	      3959	80001174	fbdff0ef	jal	x1,80001174	  x1=0x80001174
       39615000	      3960	00000000	00000013	addi	x0,x0,0	  x0:0x00000000
       39625000	      3961	8000112c	00000013	addi	x0,x0,0	  x0:0x00000000
       39635000	      3962	80001130	ff9ff0ef	jal	x1,80001130	  x1=0x80001130
       39645000	      3963	00000000	00000013	addi	x0,x0,0	  x0:0x00000000
       39655000	      3964	80001124	00000013	addi	x0,x0,0	  x0:0x00000000
       39665000	      3965	80001128	0400036f	jal	x6,80001128	  x6=0x80001128
       39675000	      3966	00000000	00000013	addi	x0,x0,0	  x0:0x00000000
       39685000	      3967	80001164	00000013	addi	x0,x0,0	  x0:0x00000000
       39695000	      3968	80001168	fedff86f	jal	x16,80001168	 x16=0x80001168
       39705000	      3969	00000000	00000013	addi	x0,x0,0	  x0:0x00000000
       39715000	      3970	80001150	00000013	addi	x0,x0,0	  x0:0x00000000
       39725000	      3971	80001154	040000ef	jal	x1,80001154	  x1=0x80001154
       39735000	      3972	00000000	00000013	addi	x0,x0,0	  x0:0x00000000
       39745000	      3973	80001190	00000013	addi	x0,x0,0	  x0:0x00000000
       39755000	      3974	80001194	01a054b3	srl	x9,x0,x26	  x0:0x00000000 x26:0x80001160  x9=0x00000000
       39765000	      3975	80001198	004008ef	jal	x17,80001198	 x17=0x80001198
       39775000	      3976	00000000	00000013	addi	x0,x0,0	  x0:0x00000000
       39785000	      3977	80001198	00000013	addi	x0,x0,0	  x0:0x00000000
       39795000	      3978	8000119c	028000ef	jal	x1,8000119c	  x1=0x8000119c
       39805000	      3979	00000000	00000013	addi	x0,x0,0	  x0:0x00000000
       39815000	      3980	800011c0	00000013	addi	x0,x0,0	  x0:0x00000000
       39825000	      3981	800011c4	fe1ff3ef	jal	x7,800011c4	  x7=0x800011c4
       39835000	      3982	00000000	00000013	addi	x0,x0,0	  x0:0x00000000
       39845000	      3983	800011a0	00000013	addi	x0,x0,0	  x0:0x00000000
       39855000	      3984	800011a4	00c0036f	jal	x6,800011a4	  x6=0x800011a4
       39865000	      3985	00000000	00000013	addi	x0,x0,0	  x0:0x00000000
       39875000	      3986	800011ac	00000013	addi	x0,x0,0	  x0:0x00000000
       39885000	      3987	800011b0	00c0076f	jal	x14,800011b0	 x14=0x800011b0
       39895000	      3988	00000000	00000013	addi	x0,x0,0	  x0:0x00000000
       39905000	      3989	800011b8	00000013	addi	x0,x0,0	  x0:0x00000000
       39915000	      3990	800011bc	fe5ff36f	jal	x6,800011bc	  x6=0x800011bc
       39925000	      3991	00000000	00000013	addi	x0,x0,0	  x0:0x00000000
       39935000	      3992	8000119c	00000013	addi	x0,x0,0	  x0:0x00000000
       39945000	      3993	800011a0	008001ef	jal	x3,800011a0	  x3=0x800011a0
       39955000	      3994	00000000	00000013	addi	x0,x0,0	  x0:0x00000000
       39965000	      3995	800011a4	00000013	addi	x0,x0,0	  x0:0x00000000
       39975000	      3996	800011a8	0100036f	jal	x6,800011a8	  x6=0x800011a8
       39985000	      3997	00000000	00000013	addi	x0,x0,0	  x0:0x00000000
       39995000	      3998	800011b4	00000013	addi	x0,x0,0	  x0:0x00000000
       40005000	      3999	800011b8	008000ef	jal	x1,800011b8	  x1=0x800011b8
       40015000	      4000	00000000	00000013	addi	x0,x0,0	  x0:0x00000000
       40025000	      4001	800011bc	00000013	addi	x0,x0,0	  x0:0x00000000
       40035000	      4002	800011c0	fedffb6f	jal	x22,800011c0	 x22=0x800011c0
       40045000	      4003	00000000	00000013	addi	x0,x0,0	  x0:0x00000000
       40055000	      4004	800011a8	00000013	addi	x0,x0,0	  x0:0x00000000
       40065000	      4005	800011ac	008000ef	jal	x1,800011ac	  x1=0x800011ac
       40075000	      4006	00000000	00000013	addi	x0,x0,0	  x0:0x00000000
       40085000	      4007	800011b0	00000013	addi	x0,x0,0	  x0:0x00000000
       40095000	      4008	800011b4	014000ef	jal	x1,800011b4	  x1=0x800011b4
       40105000	      4009	00000000	00000013	addi	x0,x0,0	  x0:0x00000000
       40115000	      4010	800011c4	00000013	addi	x0,x0,0	  x0:0x00000000
       40125000	      4011	800011c8	99b60513	addi	x10,x12,-1637	 x12:0x80001144 x10=0x80000adf
       40135000	      4012	800011cc	018008ef	jal	x17,800011cc	 x17=0x800011cc
       40145000	      4013	00000000	00000013	addi	x0,x0,0	  x0:0x00000000
       40155000	      4014	800011e0	00000013	addi	x0,x0,0	  x0:0x00000000
       40165000	      4015	800011e4	030000ef	jal	x1,800011e4	  x1=0x800011e4
       40175000	      4016	00000000	00000013	addi	x0,x0,0	  x0:0x00000000
       40185000	      4017	80001210	00000013	addi	x0,x0,0	  x0:0x00000000
       40195000	      4018	80001214	fc9ff0ef	jal	x1,80001214	  x1=0x80001214
       40205000	      4019	00000000	00000013	addi	x0,x0,0	  x0:0x00000000
       40215000	      4020	800011d8	00000013	addi	x0,x0,0	  x0:0x00000000
       40225000	      4021	800011dc	03c00def	jal	x27,800011dc	 x27=0x800011dc
       40235000	      4022	00000000	00000013	addi	x0,x0,0	  x0:0x00000000
       40245000	      4023	80001214	00000013	addi	x0,x0,0	  x0:0x00000000
       40255000	      4024	80001218	fe9ff2ef	jal	x5,80001218	  x5=0x80001218
       40265000	      4025	00000000	00000013	addi	x0,x0,0	  x0:0x00000000
       40275000	      4026	800011fc	00000013	addi	x0,x0,0	  x0:0x00000000
       40285000	      4027	80001200	008000ef	jal	x1,80001200	  x1=0x80001200
       40295000	      4028	00000000	00000013	addi	x0,x0,0	  x0:0x00000000
       40305000	      4029	80001204	00000013	addi	x0,x0,0	  x0:0x00000000
       40315000	      4030	80001208	0280036f	jal	x6,80001208	  x6=0x80001208
       40325000	      4031	00000000	00000013	addi	x0,x0,0	  x0:0x00000000
       40335000	      4032	8000122c	00000013	addi	x0,x0,0	  x0:0x00000000
       40345000	      4033	80001230	fa5ff36f	jal	x6,80001230	  x6=0x80001230
       40355000	      4034	00000000	00000013	addi	x0,x0,0	  x0:0x00000000
       40365000	      4035	800011d0	00000013	addi	x0,x0,0	  x0:0x00000000
       40375000	      4036	800011d4	014000ef	jal	x1,800011d4	  x1=0x800011d4
       40385000	      4037	00000000	00000013	addi	x0,x0,0	  x0:0x00000000
       40395000	      4038	800011e4	00000013	addi	x0,x0,0	  x0:0x00000000
       40405000	      4039	800011e8	fe9ff0ef	jal	x1,800011e8	  x1=0x800011e8
       40415000	      4040	00000000	00000013	addi	x0,x0,0	  x0:0x00000000
       40425000	      4041	800011cc	00000013	addi	x0,x0,0	  x0:0x00000000
       40435000	      4042	800011d0	04c000ef	jal	x1,800011d0	  x1=0x800011d0
       40445000	      4043	00000000	00000013	addi	x0,x0,0	  x0:0x00000000
       40455000	      4044	80001218	00000013	addi	x0,x0,0	  x0:0x00000000
       40465000	      4045	8000121c	010000ef	jal	x1,8000121c	  x1=0x8000121c
       40475000	      4046	00000000	00000013	addi	x0,x0,0	  x0:0x00000000
       40485000	      4047	80001228	00000013	addi	x0,x0,0	  x0:0x00000000
       40495000	      4048	8000122c	fc5ff0ef	jal	x1,8000122c	  x1=0x8000122c
       40505000	      4049	00000000	00000013	addi	x0,x0,0	  x0:0x00000000
       40515000	      4050	800011ec	00000013	addi	x0,x0,0	  x0:0x00000000
       40525000	      4051	800011f0	0300096f	jal	x18,800011f0	 x18=0x800011f0
       40535000	      4052	00000000	00000013	addi	x0,x0,0	  x0:0x00000000
       40545000	      4053	8000121c	00000013	addi	x0,x0,0	  x0:0x00000000
       40555000	      4054	80001220	008000ef	jal	x1,80001220	  x1=0x80001220
       40565000	      4055	00000000	00000013	addi	x0,x0,0	  x0:0x00000000
       40575000	      4056	80001224	00000013	addi	x0,x0,0	  x0:0x00000000
       40585000	      4057	80001228	fe5ff0ef	jal	x1,80001228	  x1=0x80001228
       40595000	      4058	00000000	00000013	addi	x0,x0,0	  x0:0x00000000
       40605000	      4059	80001208	00000013	addi	x0,x0,0	  x0:0x00000000
       40615000	      4060	8000120c	fcdff0ef	jal	x1,8000120c	  x1=0x8000120c
       40625000	      4061	00000000	00000013	addi	x0,x0,0	  x0:0x00000000
       40635000	      4062	800011d4	00000013	addi	x0,x0,0	  x0:0x00000000
       40645000	      4063	800011d8	014000ef	jal	x1,800011d8	  x1=0x800011d8
       40655000	      4064	00000000	00000013	addi	x0,x0,0	  x0:0x00000000
       40665000	      4065	800011e8	00000013	addi	x0,x0,0	  x0:0x00000000
       40675000	      4066	800011ec	02400eef	jal	x29,800011ec	 x29=0x800011ec
       40685000	      4067	00000000	00000013	addi	x0,x0,0	  x0:0x00000000
       40695000	      4068	8000120c	00000013	addi	x0,x0,0	  x0:0x00000000
       40705000	      4069	80001210	024001ef	jal	x3,80001210	  x3=0x80001210
       40715000	      4070	00000000	00000013	addi	x0,x0,0	  x0:0x00000000
       40725000	      4071	80001230	00000013	addi	x0,x0,0	  x0:0x00000000
       40735000	      4072	80001234	fc9ff0ef	jal	x1,80001234	  x1=0x80001234
       40745000	      4073	00000000	00000013	addi	x0,x0,0	  x0:0x00000000
       40755000	      4074	800011f8	00000013	addi	x0,x0,0	  x0:0x00000000
       40765000	      4075	800011fc	0080036f	jal	x6,800011fc	  x6=0x800011fc
       40775000	      4076	00000000	00000013	addi	x0,x0,0	  x0:0x00000000
       40785000	      4077	80001200	00000013	addi	x0,x0,0	  x0:0x00000000
       40795000	      4078	80001204	020000ef	jal	x1,80001204	  x1=0x80001204
       40805000	      4079	00000000	00000013	addi	x0,x0,0	  x0:0x00000000
       40815000	      4080	80001220	00000013	addi	x0,x0,0	  x0:0x00000000
       40825000	      4081	80001224	fd1ff0ef	jal	x1,80001224	  x1=0x80001224
       40835000	      4082	00000000	00000013	addi	x0,x0,0	  x0:0x00000000
       40845000	      4083	800011f0	00000013	addi	x0,x0,0	  x0:0x00000000
       40855000	      4084	800011f4	fedff0ef	jal	x1,800011f4	  x1=0x800011f4
       40865000	      4085	00000000	00000013	addi	x0,x0,0	  x0:0x00000000
       40875000	      4086	800011dc	00000013	addi	x0,x0,0	  x0:0x00000000
       40885000	      4087	800011e0	018000ef	jal	x1,800011e0	  x1=0x800011e0
       40895000	      4088	00000000	00000013	addi	x0,x0,0	  x0:0x00000000
       40905000	      4089	800011f4	00000013	addi	x0,x0,0	  x0:0x00000000
       40915000	      4090	800011f8	0400076f	jal	x14,800011f8	 x14=0x800011f8
       40925000	      4091	00000000	00000013	addi	x0,x0,0	  x0:0x00000000
       40935000	      4092	80001234	00000013	addi	x0,x0,0	  x0:0x00000000
       40945000	      4093	80001238	00000013	addi	x0,x0,0	  x0:0x00000000
       40955000	      4094	8000123c	020008ef	jal	x17,8000123c	 x17=0x8000123c
       40965000	      4095	00000000	00000013	addi	x0,x0,0	  x0:0x00000000
       40975000	      4096	80001258	00000013	addi	x0,x0,0	  x0:0x00000000
       40985000	      4097	8000125c	014000ef	jal	x1,8000125c	  x1=0x8000125c
       40995000	      4098	00000000	00000013	addi	x0,x0,0	  x0:0x00000000
       41005000	      4099	8000126c	00000013	addi	x0,x0,0	  x0:0x00000000
       41015000	      4100	80001270	fe9ff0ef	jal	x1,80001270	  x1=0x80001270
       41025000	      4101	00000000	00000013	addi	x0,x0,0	  x0:0x00000000
       41035000	      4102	80001254	00000013	addi	x0,x0,0	  x0:0x00000000
       41045000	      4103	80001258	ff9ff36f	jal	x6,80001258	  x6=0x80001258
       41055000	      4104	00000000	00000013	addi	x0,x0,0	  x0:0x00000000
       41065000	      4105	8000124c	00000013	addi	x0,x0,0	  x0:0x00000000
       41075000	      4106	80001250	ffdff66f	jal	x12,80001250	 x12=0x80001250
       41085000	      4107	00000000	00000013	addi	x0,x0,0	  x0:0x00000000
       41095000	      4108	80001248	00000013	addi	x0,x0,0	  x0:0x00000000
       41105000	      4109	8000124c	00800a6f	jal	x20,8000124c	 x20=0x8000124c
       41115000	      4110	00000000	00000013	addi	x0,x0,0	  x0:0x00000000
       41125000	      4111	80001250	00000013	addi	x0,x0,0	  x0:0x00000000
       41135000	      4112	80001254	02c000ef	jal	x1,80001254	  x1=0x80001254
       41145000	      4113	00000000	00000013	addi	x0,x0,0	  x0:0x00000000
       41155000	      4114	8000127c	00000013	addi	x0,x0,0	  x0:0x00000000
       41165000	      4115	80001280	fe1ff0ef	jal	x1,80001280	  x1=0x80001280
       41175000	      4116	00000000	00000013	addi	x0,x0,0	  x0:0x00000000
       41185000	      4117	8000125c	00000013	addi	x0,x0,0	  x0:0x00000000
       41195000	      4118	80001260	0080066f	jal	x12,80001260	 x12=0x80001260
       41205000	      4119	00000000	00000013	addi	x0,x0,0	  x0:0x00000000
       41215000	      4120	80001264	00000013	addi	x0,x0,0	  x0:0x00000000
       41225000	      4121	80001268	fd9ff36f	jal	x6,80001268	  x6=0x80001268
       41235000	      4122	00000000	00000013	addi	x0,x0,0	  x0:0x00000000
       41245000	      4123	8000123c	00000013	addi	x0,x0,0	  x0:0x00000000
       41255000	      4124	80001240	024000ef	jal	x1,80001240	  x1=0x80001240
       41265000	      4125	00000000	00000013	addi	x0,x0,0	  x0:0x00000000
       41275000	      4126	80001260	00000013	addi	x0,x0,0	  x0:0x00000000
       41285000	      4127	80001264	018008ef	jal	x17,80001264	 x17=0x80001264
       41295000	      4128	00000000	00000013	addi	x0,x0,0	  x0:0x00000000
       41305000	      4129	80001278	00000013	addi	x0,x0,0	  x0:0x00000000
       41315000	      4130	8000127c	fc9ff2ef	jal	x5,8000127c	  x5=0x8000127c
       41325000	      4131	00000000	00000013	addi	x0,x0,0	  x0:0x00000000
       41335000	      4132	80001240	00000013	addi	x0,x0,0	  x0:0x00000000
       41345000	      4133	80001244	0280036f	jal	x6,80001244	  x6=0x80001244
       41355000	      4134	00000000	00000013	addi	x0,x0,0	  x0:0x00000000
       41365000	      4135	80001268	00000013	addi	x0,x0,0	  x0:0x00000000
       41375000	      4136	8000126c	00c000ef	jal	x1,8000126c	  x1=0x8000126c
       41385000	      4137	00000000	00000013	addi	x0,x0,0	  x0:0x00000000
       41395000	      4138	80001274	00000013	addi	x0,x0,0	  x0:0x00000000
       41405000	      4139	80001278	fd1ff8ef	jal	x17,80001278	 x17=0x80001278
       41415000	      4140	00000000	00000013	addi	x0,x0,0	  x0:0x00000000
       41425000	      4141	80001244	00000013	addi	x0,x0,0	  x0:0x00000000
       41435000	      4142	80001248	02c0046f	jal	x8,80001248	  x8=0x80001248
       41445000	      4143	00000000	00000013	addi	x0,x0,0	  x0:0x00000000
       41455000	      4144	80001270	00000013	addi	x0,x0,0	  x0:0x00000000
       41465000	      4145	80001274	0100076f	jal	x14,80001274	 x14=0x80001274
       41475000	      4146	00000000	00000013	addi	x0,x0,0	  x0:0x00000000
       41485000	      4147	80001280	00000013	addi	x0,x0,0	  x0:0x00000000
       41495000	      4148	80001284	41550833	sub	x16,x10,x21	 x10:0x80000adf x21:0x158e2580 x16=0x6a71e55f
       41505000	      4149	80001288	010008ef	jal	x17,80001288	 x17=0x80001288
       41515000	      4150	00000000	00000013	addi	x0,x0,0	  x0:0x00000000
       41525000	      4151	80001294	00000013	addi	x0,x0,0	  x0:0x00000000
       41535000	      4152	80001298	020006ef	jal	x13,80001298	 x13=0x80001298
       41545000	      4153	00000000	00000013	addi	x0,x0,0	  x0:0x00000000
       41555000	      4154	800012b4	00000013	addi	x0,x0,0	  x0:0x00000000
       41565000	      4155	800012b8	010000ef	jal	x1,800012b8	  x1=0x800012b8
       41575000	      4156	00000000	00000013	addi	x0,x0,0	  x0:0x00000000
       41585000	      4157	800012c4	00000013	addi	x0,x0,0	  x0:0x00000000
       41595000	      4158	800012c8	ff9ff0ef	jal	x1,800012c8	  x1=0x800012c8
       41605000	      4159	00000000	00000013	addi	x0,x0,0	  x0:0x00000000
       41615000	      4160	800012bc	00000013	addi	x0,x0,0	  x0:0x00000000
       41625000	      4161	800012c0	ff5ff2ef	jal	x5,800012c0	  x5=0x800012c0
       41635000	      4162	00000000	00000013	addi	x0,x0,0	  x0:0x00000000
       41645000	      4163	800012b0	00000013	addi	x0,x0,0	  x0:0x00000000
       41655000	      4164	800012b4	018000ef	jal	x1,800012b4	  x1=0x800012b4
       41665000	      4165	00000000	00000013	addi	x0,x0,0	  x0:0x00000000
       41675000	      4166	800012c8	00000013	addi	x0,x0,0	  x0:0x00000000
       41685000	      4167	800012cc	fc5ffaef	jal	x21,800012cc	 x21=0x800012cc
       41695000	      4168	00000000	00000013	addi	x0,x0,0	  x0:0x00000000
       41705000	      4169	8000128c	00000013	addi	x0,x0,0	  x0:0x00000000
       41715000	      4170	80001290	004000ef	jal	x1,80001290	  x1=0x80001290
       41725000	      4171	00000000	00000013	addi	x0,x0,0	  x0:0x00000000
       41735000	      4172	80001290	00000013	addi	x0,x0,0	  x0:0x00000000
       41745000	      4173	80001294	014000ef	jal	x1,80001294	  x1=0x80001294
       41755000	      4174	00000000	00000013	addi	x0,x0,0	  x0:0x00000000
       41765000	      4175	800012a4	00000013	addi	x0,x0,0	  x0:0x00000000
       41775000	      4176	800012a8	fe5ff0ef	jal	x1,800012a8	  x1=0x800012a8
       41785000	      4177	00000000	00000013	addi	x0,x0,0	  x0:0x00000000
       41795000	      4178	80001288	00000013	addi	x0,x0,0	  x0:0x00000000
       41805000	      4179	8000128c	058000ef	jal	x1,8000128c	  x1=0x8000128c
       41815000	      4180	00000000	00000013	addi	x0,x0,0	  x0:0x00000000
       41825000	      4181	800012e0	00000013	addi	x0,x0,0	  x0:0x00000000
       41835000	      4182	800012e4	fc1ff0ef	jal	x1,800012e4	  x1=0x800012e4
       41845000	      4183	00000000	00000013	addi	x0,x0,0	  x0:0x00000000
       41855000	      4184	800012a0	00000013	addi	x0,x0,0	  x0:0x00000000
       41865000	      4185	800012a4	02c000ef	jal	x1,800012a4	  x1=0x800012a4
       41875000	      4186	00000000	00000013	addi	x0,x0,0	  x0:0x00000000
       41885000	      4187	800012cc	00000013	addi	x0,x0,0	  x0:0x00000000
       41895000	      4188	800012d0	0080036f	jal	x6,800012d0	  x6=0x800012d0
       41905000	      4189	00000000	00000013	addi	x0,x0,0	  x0:0x00000000
       41915000	      4190	800012d4	00000013	addi	x0,x0,0	  x0:0x00000000
       41925000	      4191	800012d8	fe5ffaef	jal	x21,800012d8	 x21=0x800012d8
       41935000	      4192	00000000	00000013	addi	x0,x0,0	  x0:0x00000000
       41945000	      4193	800012b8	00000013	addi	x0,x0,0	  x0:0x00000000
       41955000	      4194	800012bc	fe1ff36f	jal	x6,800012bc	  x6=0x800012bc
       41965000	      4195	00000000	00000013	addi	x0,x0,0	  x0:0x00000000
       41975000	      4196	80001298	00000013	addi	x0,x0,0	  x0:0x00000000
       41985000	      4197	8000129c	038000ef	jal	x1,8000129c	  x1=0x8000129c
       41995000	      4198	00000000	00000013	addi	x0,x0,0	  x0:0x00000000
       42005000	      4199	800012d0	00000013	addi	x0,x0,0	  x0:0x00000000
       42015000	      4200	800012d4	fd9ff0ef	jal	x1,800012d4	  x1=0x800012d4
       42025000	      4201	00000000	00000013	addi	x0,x0,0	  x0:0x00000000
       42035000	      4202	800012a8	00000013	addi	x0,x0,0	  x0:0x00000000
       42045000	      4203	800012ac	034000ef	jal	x1,800012ac	  x1=0x800012ac
       42055000	      4204	00000000	00000013	addi	x0,x0,0	  x0:0x00000000
       42065000	      4205	800012dc	00000013	addi	x0,x0,0	  x0:0x00000000
       42075000	      4206	800012e0	ffdff0ef	jal	x1,800012e0	  x1=0x800012e0
       42085000	      4207	00000000	00000013	addi	x0,x0,0	  x0:0x00000000
       42095000	      4208	800012d8	00000013	addi	x0,x0,0	  x0:0x00000000
       42105000	      4209	800012dc	fd5ff26f	jal	x4,800012dc	  x4=0x800012dc
       42115000	      4210	00000000	00000013	addi	x0,x0,0	  x0:0x00000000
       42125000	      4211	800012ac	00000013	addi	x0,x0,0	  x0:0x00000000
       42135000	      4212	800012b0	03c002ef	jal	x5,800012b0	  x5=0x800012b0
       42145000	      4213	00000000	00000013	addi	x0,x0,0	  x0:0x00000000
       42155000	      4214	800012e8	00000013	addi	x0,x0,0	  x0:0x00000000
       42165000	      4215	800012ec	ffdffcef	jal	x25,800012ec	 x25=0x800012ec
       42175000	      4216	00000000	00000013	addi	x0,x0,0	  x0:0x00000000
       42185000	      4217	800012e4	00000013	addi	x0,x0,0	  x0:0x00000000
       42195000	      4218	800012e8	fddff0ef	jal	x1,800012e8	  x1=0x800012e8
       42205000	      4219	00000000	00000013	addi	x0,x0,0	  x0:0x00000000
       42215000	      4220	800012c0	00000013	addi	x0,x0,0	  x0:0x00000000
       42225000	      4221	800012c4	fddffd6f	jal	x26,800012c4	 x26=0x800012c4
       42235000	      4222	00000000	00000013	addi	x0,x0,0	  x0:0x00000000
       42245000	      4223	8000129c	00000013	addi	x0,x0,0	  x0:0x00000000
       42255000	      4224	800012a0	05000c6f	jal	x24,800012a0	 x24=0x800012a0
       42265000	      4225	00000000	00000013	addi	x0,x0,0	  x0:0x00000000
       42275000	      4226	800012ec	00000013	addi	x0,x0,0	  x0:0x00000000
       42285000	      4227	800012f0	4170bd93	sltiu	x27,x1,1047	  x1:0x800012e8 x27=0x00000000
       42295000	      4228	800012f4	00de7d33	and	x26,x28,x13	 x28:0x00000000 x13:0x80001298 x26=0x00000000
       42305000	      4229	800012f8	aede6313	ori	x6,x28,-1299	 x28:0x00000000  x6=0xfffffaed
       42315000	      4230	800012fc	003e76b3	and	x13,x28,x3	 x28:0x00000000  x3:0x80001210 x13=0x00000000
       42325000	      4231	80001300	019a85b3	add	x11,x21,x25	 x21:0x800012d8 x25:0x800012ec x11=0x000025c4
       42335000	      4232	80001304	d0cdba17	auipc	x20,0xd0cdb	 x20=0x50cdc300
       42345000	      4233	80001308	010ee533	or	x10,x29,x16	 x29:0x800011ec x16:0x6a71e55f x10=0xea71f5ff
       42355000	      4234	8000130c	02cdd263	bge	x27,x12,80001330	 x27:0x00000000 x12:0x80001260
       42365000	      4235	00000000	00000013	addi	x0,x0,0	  x0:0x00000000
       42375000	      4236	8000132c	00000013	addi	x0,x0,0	  x0:0x00000000
       42385000	      4237	80001330	6223cf13	xori	x30,x7,1570	  x7:0x800011c4 x30=0x800017e6
       42395000	      4238	80001334	21c08513	addi	x10,x1,540	  x1:0x800012e8 x10=0x80001504
       42405000	      4239	80001338	76d7b993	sltiu	x19,x15,1901	 x15:0x80009fc4 x19=0x00000000
       42415000	      4240	8000133c	057f1063	bne	x30,x23,8000137c	 x30:0x800017e6 x23:0x800003c0
       42425000	      4241	00000000	00000013	addi	x0,x0,0	  x0:0x00000000
       42435000	      4242	80001378	00000013	addi	x0,x0,0	  x0:0x00000000
       42445000	      4243	8000137c	0189ee33	or	x28,x19,x24	 x19:0x00000000 x24:0x800012a0 x28=0x800012a0
       42455000	      4244	80001380	0737ea63	bltu	x15,x19,800013f4	 x15:0x80009fc4 x19:0x00000000
       42465000	      4245	80001384	9f70f193	andi	x3,x1,-1545	  x1:0x800012e8  x3=0x800010e0
       42475000	      4246	80001388	040a9263	bne	x21,x0,800013cc	 x21:0x800012d8  x0:0x00000000
       42485000	      4247	00000000	00000013	addi	x0,x0,0	  x0:0x00000000
       42495000	      4248	800013c8	00000013	addi	x0,x0,0	  x0:0x00000000
       42505000	      4249	800013cc	019af863	bgeu	x21,x25,800013dc	 x21:0x800012d8 x25:0x800012ec
       42515000	      4250	800013d0	e1ad4013	xori	x0,x26,-486	 x26:0x00000000
       42525000	      4251	800013d4	10c6f693	andi	x13,x13,268	 x13:0x00000000 x13=0x00000000
       42535000	      4252	800013d8	8b98a593	slti	x11,x17,-1863	 x17:0x80001288 x11=0x00000001
       42545000	      4253	800013dc	058d0663	beq	x26,x24,80001428	 x26:0x00000000 x24:0x800012a0
       42555000	      4254	800013e0	91103613	sltiu	x12,x0,-1775	  x0:0x00000000 x12=0x00000001
       42565000	      4255	800013e4	0150d5b3	srl	x11,x1,x21	  x1:0x800012e8 x21:0x800012d8 x11=0x00000080
       42575000	      4256	800013e8	037f9c63	bne	x31,x23,80001420	 x31:0x80009eec x23:0x800003c0
       42585000	      4257	00000000	00000013	addi	x0,x0,0	  x0:0x00000000
       42595000	      4258	8000141c	00000013	addi	x0,x0,0	  x0:0x00000000
       42605000	      4259	80001420	00000013	addi	x0,x0,0	  x0:0x00000000
       42615000	      4260	80001424	00071c13	slli	x24,x14,0x0	 x14:0x80001274 x24=0x80001274
       42625000	      4261	80001428	00dd5533	srl	x10,x26,x13	 x26:0x00000000 x13:0x00000000 x10=0x00000000
       42635000	      4262	8000142c	00135393	srli	x7,x6,0x1	  x6:0xfffffaed  x7=0x7ffffd76
       42645000	      4263	80001430	003b05b3	add	x11,x22,x3	 x22:0x800011c0  x3:0x800010e0 x11=0x000022a0
       42655000	      4264	80001434	40cad993	srai	x19,x21,0xc	 x21:0x800012d8 x19=0xfff80001
       42665000	      4265	80001438	038f7e63	bgeu	x30,x24,80001474	 x30:0x800017e6 x24:0x80001274
       42675000	      4266	00000000	00000013	addi	x0,x0,0	  x0:0x00000000
       42685000	      4267	80001470	00000013	addi	x0,x0,0	  x0:0x00000000
       42695000	      4268	80001474	03ab1263	bne	x22,x26,80001498	 x22:0x800011c0 x26:0x00000000
       42705000	      4269	00000000	00000013	addi	x0,x0,0	  x0:0x00000000
       42715000	      4270	80001494	00000013	addi	x0,x0,0	  x0:0x00000000
       42725000	      4271	80001498	01a8dcb3	srl	x25,x17,x26	 x17:0x80001288 x26:0x00000000 x25=0x80001288
       42735000	      4272	8000149c	04274863	blt	x14,x2,800014ec	 x14:0x80001274  x2:0xbd232e47
       42745000	      4273	00000000	00000013	addi	x0,x0,0	  x0:0x00000000
       42755000	      4274	800014e8	00000013	addi	x0,x0,0	  x0:0x00000000
       42765000	      4275	800014ec	03300663	beq	x0,x19,80001518	  x0:0x00000000 x19:0xfff80001
       42775000	      4276	800014f0	405102b3	sub	x5,x2,x5	  x2:0xbd232e47  x5:0x800012b0  x5=0x3d231b97
       42785000	      4277	800014f4	40bed533	sra	x10,x29,x11	 x29:0x800011ec x11:0x000022a0 x10=0x800011ec
       42795000	      4278	800014f8	03261863	bne	x12,x18,80001528	 x12:0x00000001 x18:0x800011f0
       42805000	      4279	00000000	00000013	addi	x0,x0,0	  x0:0x00000000
       42815000	      4280	80001524	00000013	addi	x0,x0,0	  x0:0x00000000
       42825000	      4281	80001528	0158fdb3	and	x27,x17,x21	 x17:0x80001288 x21:0x800012d8 x27=0x80001288
       42835000	      4282	8000152c	01571663	bne	x14,x21,80001538	 x14:0x80001274 x21:0x800012d8
       42845000	      4283	00000000	00000013	addi	x0,x0,0	  x0:0x00000000
       42855000	      4284	80001534	00000013	addi	x0,x0,0	  x0:0x00000000
       42865000	      4285	80001538	41b98f33	sub	x30,x19,x27	 x19:0xfff80001 x27:0x80001288 x30=0x7ff7ed79
       42875000	      4286	8000153c	02a65a63	bge	x12,x10,80001570	 x12:0x00000001 x10:0x800011ec
       42885000	      4287	00000000	00000013	addi	x0,x0,0	  x0:0x00000000
       42895000	      4288	8000156c	00000013	addi	x0,x0,0	  x0:0x00000000
       42905000	      4289	80001570	00000013	addi	x0,x0,0	  x0:0x00000000
       42915000	      4290	80001574	cb5dc613	xori	x12,x27,-843	 x27:0x80001288 x12=0x7fffee3d
       42925000	      4291	80001578	41885ab3	sra	x21,x16,x24	 x16:0x6a71e55f x24:0x80001274 x21=0x000006a7
       42935000	      4292	8000157c	e49abf13	sltiu	x30,x21,-439	 x21:0x000006a7 x30=0x00000001
       42945000	      4293	80001580	00290c63	beq	x18,x2,80001598	 x18:0x800011f0  x2:0xbd232e47
       42955000	      4294	80001584	02efee63	bltu	x31,x14,800015c0	 x31:0x80009eec x14:0x80001274
       42965000	      4295	80001588	41c104b3	sub	x9,x2,x28	  x2:0xbd232e47 x28:0x800012a0  x9=0x3d231ba7
       42975000	      4296	8000158c	0083ad33	slt	x26,x7,x8	  x7:0x7ffffd76  x8:0x80001248 x26=0x00000000
       42985000	      4297	80001590	db994493	xori	x9,x18,-583	 x18:0x800011f0  x9=0x7fffec49
       42995000	      4298	80001594	02d97863	bgeu	x18,x13,800015c4	 x18:0x800011f0 x13:0x00000000
       43005000	      4299	00000000	00000013	addi	x0,x0,0	  x0:0x00000000
       43015000	      4300	800015c0	00000013	addi	x0,x0,0	  x0:0x00000000
       43025000	      4301	800015c4	014f1e93	slli	x29,x30,0x14	 x30:0x00000001 x29=0x00100000
       43035000	      4302	800015c8	7b42e713	ori	x14,x5,1972	  x5:0x3d231b97 x14=0x3d231fb7
       43045000	      4303	800015cc	01086233	or	x4,x16,x16	 x16:0x6a71e55f x16:0x6a71e55f  x4=0x6a71e55f
       43055000	      4304	800015d0	01845d13	srli	x26,x8,0x18	  x8:0x80001248 x26=0x00000080
       43065000	      4305	800015d4	00b3cb33	xor	x22,x7,x11	  x7:0x7ffffd76 x11:0x000022a0 x22=0x7fffdfd6
       43075000	      4306	800015d8	013266b3	or	x13,x4,x19	  x4:0x6a71e55f x19:0xfff80001 x13=0xfff9e55f
       43085000	      4307	800015dc	01611193	slli	x3,x2,0x16	  x2:0xbd232e47  x3=0x91c00000
       43095000	      4308	800015e0	01dac9b3	xor	x19,x21,x29	 x21:0x000006a7 x29:0x00100000 x19=0x001006a7
       43105000	      4309	800015e4	00201b33	sll	x22,x0,x2	  x0:0x00000000  x2:0xbd232e47 x22=0x00000000
       43115000	      4310	800015e8	00ea0663	beq	x20,x14,800015f4	 x20:0x50cdc300 x14:0x3d231fb7
       43125000	      4311	800015ec	02b7c263	blt	x15,x11,80001610	 x15:0x80009fc4 x11:0x000022a0
       43135000	      4312	00000000	00000013	addi	x0,x0,0	  x0:0x00000000
       43145000	      4313	8000160c	00000013	addi	x0,x0,0	  x0:0x00000000
       43155000	      4314	80001610	01010863	beq	x2,x16,80001620	  x2:0xbd232e47 x16:0x6a71e55f
       43165000	      4315	80001614	0030abb3	slt	x23,x1,x3	  x1:0x800012e8  x3:0x91c00000 x23=0x00000001
       43175000	      4316	80001618	01c29013	slli	x0,x5,0x1c	  x5:0x3d231b97
       43185000	      4317	8000161c	00b9b8b3	sltu	x17,x19,x11	 x19:0x001006a7 x11:0x000022a0 x17=0x00000000
       43195000	      4318	80001620	40fd8d33	sub	x26,x27,x15	 x27:0x80001288 x15:0x80009fc4 x26=0xffff72c4
       43205000	      4319	80001624	40100e33	sub	x28,x0,x1	  x0:0x00000000  x1:0x800012e8 x28=0x7fffed18
       43215000	      4320	80001628	00628ab3	add	x21,x5,x6	  x5:0x3d231b97  x6:0xfffffaed x21=0x3d231684
       43225000	      4321	8000162c	40fd55b3	sra	x11,x26,x15	 x26:0xffff72c4 x15:0x80009fc4 x11=0xfffff72c
       43235000	      4322	80001630	04734863	blt	x6,x7,80001680	  x6:0xfffffaed  x7:0x7ffffd76
       43245000	      4323	00000000	00000013	addi	x0,x0,0	  x0:0x00000000
       43255000	      4324	8000167c	00000013	addi	x0,x0,0	  x0:0x00000000
       43265000	      4325	80001680	005b52b3	srl	x5,x22,x5	 x22:0x00000000  x5:0x3d231b97  x5=0x00000000
       43275000	      4326	80001684	41350ab3	sub	x21,x10,x19	 x10:0x800011ec x19:0x001006a7 x21=0x7ff00b45
       43285000	      4327	80001688	7089a893	slti	x17,x19,1800	 x19:0x001006a7 x17=0x00000000
       43295000	      4328	8000168c	00358663	beq	x11,x3,80001698	 x11:0xfffff72c  x3:0x91c00000
       43305000	      4329	80001690	0022c433	xor	x8,x5,x2	  x5:0x00000000  x2:0xbd232e47  x8=0xbd232e47
       43315000	      4330	80001694	1f5f4213	xori	x4,x30,501	 x30:0x00000001  x4=0x000001f4
       43325000	      4331	80001698	aad4bf17	auipc	x30,0xaad4b	 x30=0x2ad4c694
       43335000	      4332	8000169c	4a6f9eb7	lui	x29,0x4a6f9	 x29=0x4a6f9000
       43345000	      4333	800016a0	014a0533	add	x10,x20,x20	 x20:0x50cdc300 x20:0x50cdc300 x10=0xa19b8600
       43355000	      4334	800016a4	001a49b3	xor	x19,x20,x1	 x20:0x50cdc300  x1:0x800012e8 x19=0xd0cdd1e8
       43365000	      4335	800016a8	19af2d93	slti	x27,x30,410	 x30:0x2ad4c694 x27=0x00000000
       43375000	      4336	800016ac	0a588493	addi	x9,x17,165	 x17:0x00000000  x9=0x000000a5
       43385000	      4337	800016b0	007b6933	or	x18,x22,x7	 x22:0x00000000  x7:0x7ffffd76 x18=0x7ffffd76
       43395000	      4338	800016b4	00000013	addi	x0,x0,0	  x0:0x00000000
       43405000	      4339	800016b8	053b1863	bne	x22,x19,80001708	 x22:0x00000000 x19:0xd0cdd1e8
       43415000	      4340	00000000	00000013	addi	x0,x0,0	  x0:0x00000000
       43425000	      4341	80001704	00000013	addi	x0,x0,0	  x0:0x00000000
       43435000	      4342	80001708	01868533	add	x10,x13,x24	 x13:0xfff9e55f x24:0x80001274 x10=0x7ff9f7d3
       43445000	      4343	8000170c	1af2fe93	andi	x29,x5,431	  x5:0x00000000 x29=0x00000000
       43455000	      4344	80001710	013212b3	sll	x5,x4,x19	  x4:0x000001f4 x19:0xd0cdd1e8  x5=0x0001f400
       43465000	      4345	80001714	417fd1b3	sra	x3,x31,x23	 x31:0x80009eec x23:0x00000001  x3=0xc0004f76
       43475000	      4346	80001718	02f10663	beq	x2,x15,80001744	  x2:0xbd232e47 x15:0x80009fc4
       43485000	      4347	8000171c	002c02b3	add	x5,x24,x2	 x24:0x80001274  x2:0xbd232e47  x5=0x3d2340bb
       43495000	      4348	80001720	018b7f33	and	x30,x22,x24	 x22:0x00000000 x24:0x80001274 x30=0x00000000
       43505000	      4349	80001724	0016b933	sltu	x18,x13,x1	 x13:0xfff9e55f  x1:0x800012e8 x18=0x00000000
       43515000	      4350	80001728	008a6f33	or	x30,x20,x8	 x20:0x50cdc300  x8:0xbd232e47 x30=0xfdefef47
       43525000	      4351	8000172c	00000013	addi	x0,x0,0	  x0:0x00000000
       43535000	      4352	80001730	001e83b3	add	x7,x29,x1	 x29:0x00000000  x1:0x800012e8  x7=0x800012e8
       43545000	      4353	80001734	01069f33	sll	x30,x13,x16	 x13:0xfff9e55f x16:0x6a71e55f x30=0x80000000
       43555000	      4354	80001738	00000013	addi	x0,x0,0	  x0:0x00000000
       43565000	      4355	8000173c	00037c33	and	x24,x6,x0	  x6:0xfffffaed  x0:0x00000000 x24=0x00000000
       43575000	      4356	80001740	01da9333	sll	x6,x21,x29	 x21:0x7ff00b45 x29:0x00000000  x6=0x7ff00b45
       43585000	      4357	80001744	40565913	srai	x18,x12,0x5	 x12:0x7fffee3d x18=0x03ffff71
       43595000	      4358	80001748	01d9dcb3	srl	x25,x19,x29	 x19:0xd0cdd1e8 x29:0x00000000 x25=0xd0cdd1e8
       43605000	      4359	8000174c	028f4463	blt	x30,x8,80001774	 x30:0x80000000  x8:0xbd232e47
       43615000	      4360	00000000	00000013	addi	x0,x0,0	  x0:0x00000000
       43625000	      4361	80001770	00000013	addi	x0,x0,0	  x0:0x00000000
       43635000	      4362	80001774	c71c3993	sltiu	x19,x24,-911	 x24:0x00000000 x19=0x00000001
       43645000	      4363	80001778	73391897	auipc	x17,0x73391	 x17=0xf3392774
       43655000	      4364	8000177c	0981dc63	bge	x3,x24,80001814	  x3:0xc0004f76 x24:0x00000000
       43665000	      4365	80001780	01f35b93	srli	x23,x6,0x1f	  x6:0x7ff00b45 x23=0x00000000
       43675000	      4366	80001784	08eacc63	blt	x21,x14,8000181c	 x21:0x7ff00b45 x14:0x3d231fb7
       43685000	      4367	80001788	ad171db7	lui	x27,0xad171	 x27=0xad171000
       43695000	      4368	8000178c	40575313	srai	x6,x14,0x5	 x14:0x3d231fb7  x6=0x01e918fd
       43705000	      4369	80001790	03e6d863	bge	x13,x30,800017c0	 x13:0xfff9e55f x30:0x80000000
       43715000	      4370	00000000	00000013	addi	x0,x0,0	  x0:0x00000000
       43725000	      4371	800017bc	00000013	addi	x0,x0,0	  x0:0x00000000
       43735000	      4372	800017c0	05600c63	beq	x0,x22,80001818	  x0:0x00000000 x22:0x00000000
       43745000	      4373	00000000	00000013	addi	x0,x0,0	  x0:0x00000000
       43755000	      4374	80001814	00000013	addi	x0,x0,0	  x0:0x00000000
       43765000	      4375	80001818	018c63b3	or	x7,x24,x24	 x24:0x00000000 x24:0x00000000  x7=0x00000000
       43775000	      4376	8000181c	01229933	sll	x18,x5,x18	  x5:0x3d2340bb x18:0x03ffff71 x18=0x81760000
       43785000	      4377	80001820	006d8bb3	add	x23,x27,x6	 x27:0xad171000  x6:0x01e918fd x23=0xaf0028fd
       43795000	      4378	80001824	a3367e13	andi	x28,x12,-1485	 x12:0x7fffee3d x28=0x7fffea31
       43805000	      4379	80001828	018f7033	and	x0,x30,x24	 x30:0x80000000 x24:0x00000000
       43815000	      4380	8000182c	4008d413	srai	x8,x17,0x0	 x17:0xf3392774  x8=0xf3392774
       43825000	      4381	80001830	41d38433	sub	x8,x7,x29	  x7:0x00000000 x29:0x00000000  x8=0x00000000
       43835000	      4382	80001834	000b9a63	bne	x23,x0,80001848	 x23:0xaf0028fd  x0:0x00000000
       43845000	      4383	00000000	00000013	addi	x0,x0,0	  x0:0x00000000
       43855000	      4384	80001844	00000013	addi	x0,x0,0	  x0:0x00000000
       43865000	      4385	80001848	a6860693	addi	x13,x12,-1432	 x12:0x7fffee3d x13=0x7fffe8a5
       43875000	      4386	8000184c	418553b3	sra	x7,x10,x24	 x10:0x7ff9f7d3 x24:0x00000000  x7=0x7ff9f7d3
       43885000	      4387	80001850	82886b13	ori	x22,x16,-2008	 x16:0x6a71e55f x22=0xfffffd7f
       43895000	      4388	80001854	01db0233	add	x4,x22,x29	 x22:0xfffffd7f x29:0x00000000  x4=0xfffffd7f
       43905000	      4389	80001858	00437cb3	and	x25,x6,x4	  x6:0x01e918fd  x4:0xfffffd7f x25=0x01e9187d
       43915000	      4390	8000185c	04e61663	bne	x12,x14,800018a8	 x12:0x7fffee3d x14:0x3d231fb7
       43925000	      4391	00000000	00000013	addi	x0,x0,0	  x0:0x00000000
       43935000	      4392	800018a4	00000013	addi	x0,x0,0	  x0:0x00000000
       43945000	      4393	800018a8	4419ef13	ori	x30,x19,1089	 x19:0x00000001 x30=0x00000441
       43955000	      4394	800018ac	0054ed33	or	x26,x9,x5	  x9:0x000000a5  x5:0x3d2340bb x26=0x3d2340bf
       43965000	      4395	800018b0	40d3dc13	srai	x24,x7,0xd	  x7:0x7ff9f7d3 x24=0x0003ffcf
       43975000	      4396	800018b4	1f422493	slti	x9,x4,500	  x4:0xfffffd7f  x9=0x00000001
       43985000	      4397	800018b8	03e49663	bne	x9,x30,800018e4	  x9:0x00000001 x30:0x00000441
       43995000	      4398	00000000	00000013	addi	x0,x0,0	  x0:0x00000000
       44005000	      4399	800018e0	00000013	addi	x0,x0,0	  x0:0x00000000
       44015000	      4400	800018e4	007e70b3	and	x1,x28,x7	 x28:0x7fffea31  x7:0x7ff9f7d3  x1=0x7ff9e211
       44025000	      4401	800018e8	0ed2e293	ori	x5,x5,237	  x5:0x3d2340bb  x5=0x3d2340ff
       44035000	      4402	800018ec	ca733b97	auipc	x23,0xca733	 x23=0x4a7348e8
       44045000	      4403	800018f0	a8d7c317	auipc	x6,0xa8d7c	  x6=0x28d7d8ec
       44055000	      4404	800018f4	a8243d13	sltiu	x26,x8,-1406	  x8:0x00000000 x26=0x00000001
       44065000	      4405	800018f8	402adab3	sra	x21,x21,x2	 x21:0x7ff00b45  x2:0xbd232e47 x21=0x00ffe016
       44075000	      4406	800018fc	01fae663	bltu	x21,x31,80001908	 x21:0x00ffe016 x31:0x80009eec
       44085000	      4407	00000000	00000013	addi	x0,x0,0	  x0:0x00000000
       44095000	      4408	80001904	00000013	addi	x0,x0,0	  x0:0x00000000
       44105000	      4409	80001908	413fdbb3	sra	x23,x31,x19	 x31:0x80009eec x19:0x00000001 x23=0xc0004f76
       44115000	      4410	8000190c	8b59b493	sltiu	x9,x19,-1867	 x19:0x00000001  x9=0x00000001
       44125000	      4411	80001910	e79cb713	sltiu	x14,x25,-391	 x25:0x01e9187d x14=0x00000001
       44135000	      4412	80001914	39ad6d97	auipc	x27,0x39ad6	 x27=0xb9ad7910
       44145000	      4413	80001918	025dde63	bge	x27,x5,80001954	 x27:0xb9ad7910  x5:0x3d2340ff
       44155000	      4414	8000191c	0123fbb3	and	x23,x7,x18	  x7:0x7ff9f7d3 x18:0x81760000 x23=0x01700000
       44165000	      4415	80001920	40825813	srai	x16,x4,0x8	  x4:0xfffffd7f x16=0xfffffffd
       44175000	      4416	80001924	02727c63	bgeu	x4,x7,8000195c	  x4:0xfffffd7f  x7:0x7ff9f7d3
       44185000	      4417	00000000	00000013	addi	x0,x0,0	  x0:0x00000000
       44195000	      4418	80001958	00000013	addi	x0,x0,0	  x0:0x00000000
       44205000	      4419	8000195c	022f4a63	blt	x30,x2,80001990	 x30:0x00000441  x2:0xbd232e47
       44215000	      4420	80001960	40b35613	srai	x12,x6,0xb	  x6:0x28d7d8ec x12=0x00051afb
       44225000	      4421	80001964	6fa83f37	lui	x30,0x6fa83	 x30=0x6fa83000
       44235000	      4422	80001968	b204bc37	lui	x24,0xb204b	 x24=0xb204b000
       44245000	      4423	8000196c	409786b3	sub	x13,x15,x9	 x15:0x80009fc4  x9:0x00000001 x13=0x80009fc3
       44255000	      4424	80001970	acaa4e93	xori	x29,x20,-1334	 x20:0x50cdc300 x29=0xaf3239ca
       44265000	      4425	80001974	00d8f2b3	and	x5,x17,x13	 x17:0xf3392774 x13:0x80009fc3  x5=0x80000740
       44275000	      4426	80001978	01db44b3	xor	x9,x22,x29	 x22:0xfffffd7f x29:0xaf3239ca  x9=0x50cdc4b5
       44285000	      4427	8000197c	4087d4b3	sra	x9,x15,x8	 x15:0x80009fc4  x8:0x00000000  x9=0x80009fc4
       44295000	      4428	80001980	00afc5b3	xor	x11,x31,x10	 x31:0x80009eec x10:0x7ff9f7d3 x11=0xfff9693f
       44305000	      4429	80001984	18338393	addi	x7,x7,387	  x7:0x7ff9f7d3  x7=0x7ff9f956
       44315000	      4430	80001988	40f05313	srai	x6,x0,0xf	  x0:0x00000000  x6=0x00000000
       44325000	      4431	8000198c	d7f77d13	andi	x26,x14,-641	 x14:0x00000001 x26=0x00000001
       44335000	      4432	80001990	01a17033	and	x0,x2,x26	  x2:0xbd232e47 x26:0x00000001
       44345000	      4433	80001994	01c29a63	bne	x5,x28,800019a8	  x5:0x80000740 x28:0x7fffea31
       44355000	      4434	00000000	00000013	addi	x0,x0,0	  x0:0x00000000
       44365000	      4435	800019a4	00000013	addi	x0,x0,0	  x0:0x00000000
       44375000	      4436	800019a8	00c31b93	slli	x23,x6,0xc	  x6:0x00000000 x23=0x00000000
       44385000	      4437	800019ac	200d4737	lui	x14,0x200d4	 x14=0x200d4000
       44395000	      4438	800019b0	402b5233	sra	x4,x22,x2	 x22:0xfffffd7f  x2:0xbd232e47  x4=0xfffffffa
       44405000	      4439	800019b4	0085fc63	bgeu	x11,x8,800019cc	 x11:0xfff9693f  x8:0x00000000
       44415000	      4440	00000000	00000013	addi	x0,x0,0	  x0:0x00000000
       44425000	      4441	800019c8	00000013	addi	x0,x0,0	  x0:0x00000000
       44435000	      4442	800019cc	00df2ab3	slt	x21,x30,x13	 x30:0x6fa83000 x13:0x80009fc3 x21=0x00000000
       44445000	      4443	800019d0	f0202813	slti	x16,x0,-254	  x0:0x00000000 x16=0x00000000
       44455000	      4444	800019d4	0133f863	bgeu	x7,x19,800019e4	  x7:0x7ff9f956 x19:0x00000001
       44465000	      4445	00000000	00000013	addi	x0,x0,0	  x0:0x00000000
       44475000	      4446	800019e0	00000013	addi	x0,x0,0	  x0:0x00000000
       44485000	      4447	800019e4	01ad16b3	sll	x13,x26,x26	 x26:0x00000001 x26:0x00000001 x13=0x00000002
       44495000	      4448	800019e8	00b22ab3	slt	x21,x4,x11	  x4:0xfffffffa x11:0xfff9693f x21=0x00000000
       44505000	      4449	800019ec	3d217c37	lui	x24,0x3d217	 x24=0x3d217000
       44515000	      4450	800019f0	9b7aca93	xori	x21,x21,-1609	 x21:0x00000000 x21=0xfffff9b7
       44525000	      4451	800019f4	01a70c63	beq	x14,x26,80001a0c	 x14:0x200d4000 x26:0x00000001
       44535000	      4452	800019f8	01166863	bltu	x12,x17,80001a08	 x12:0x00051afb x17:0xf3392774
       44545000	      4453	00000000	00000013	addi	x0,x0,0	  x0:0x00000000
       44555000	      4454	80001a04	00000013	addi	x0,x0,0	  x0:0x00000000
       44565000	      4455	80001a08	00fdb5b3	sltu	x11,x27,x15	 x27:0xb9ad7910 x15:0x80009fc4 x11=0x00000000
       44575000	      4456	80001a0c	0045a433	slt	x8,x11,x4	 x11:0x00000000  x4:0xfffffffa  x8=0x00000000
       44585000	      4457	80001a10	dff68b17	auipc	x22,0xdff68	 x22=0x5ff69a0c
       44595000	      4458	80001a14	03361c63	bne	x12,x19,80001a4c	 x12:0x00051afb x19:0x00000001
       44605000	      4459	00000000	00000013	addi	x0,x0,0	  x0:0x00000000
       44615000	      4460	80001a48	00000013	addi	x0,x0,0	  x0:0x00000000
       44625000	      4461	80001a4c	01a01613	slli	x12,x0,0x1a	  x0:0x00000000 x12=0x00000000
       44635000	      4462	80001a50	00210663	beq	x2,x2,80001a5c	  x2:0xbd232e47  x2:0xbd232e47
       44645000	      4463	00000000	00000013	addi	x0,x0,0	  x0:0x00000000
       44655000	      4464	80001a58	00000013	addi	x0,x0,0	  x0:0x00000000
       44665000	      4465	80001a5c	003d82b3	add	x5,x27,x3	 x27:0xb9ad7910  x3:0xc0004f76  x5=0x79adc886
       44675000	      4466	80001a60	514075b7	lui	x11,0x51407	 x11=0x51407000
       44685000	      4467	80001a64	380a6193	ori	x3,x20,896	 x20:0x50cdc300  x3=0x50cdc380
       44695000	      4468	80001a68	4065dd13	srai	x26,x11,0x6	 x11:0x51407000 x26=0x014501c0
       44705000	      4469	80001a6c	00d20663	beq	x4,x13,80001a78	  x4:0xfffffffa x13:0x00000002
       44715000	      4470	80001a70	01b89863	bne	x17,x27,80001a80	 x17:0xf3392774 x27:0xb9ad7910
       44725000	      4471	00000000	00000013	addi	x0,x0,0	  x0:0x00000000
       44735000	      4472	80001a7c	00000013	addi	x0,x0,0	  x0:0x00000000
       44745000	      4473	80001a80	40e75d93	srai	x27,x14,0xe	 x14:0x200d4000 x27=0x00008035
       44755000	      4474	80001a84	01a9e663	bltu	x19,x26,80001a90	 x19:0x00000001 x26:0x014501c0
       44765000	      4475	00000000	00000013	addi	x0,x0,0	  x0:0x00000000
       44775000	      4476	80001a8c	00000013	addi	x0,x0,0	  x0:0x00000000
       44785000	      4477	80001a90	00b706b3	add	x13,x14,x11	 x14:0x200d4000 x11:0x51407000 x13=0x714db000
       44795000	      4478	80001a94	01e25b93	srli	x23,x4,0x1e	  x4:0xfffffffa x23=0x00000003
       44805000	      4479	80001a98	004b1c33	sll	x24,x22,x4	 x22:0x5ff69a0c  x4:0xfffffffa x24=0x30000000
       44815000	      4480	80001a9c	032c0863	beq	x24,x18,80001acc	 x24:0x30000000 x18:0x81760000
       44825000	      4481	80001aa0	02399663	bne	x19,x3,80001acc	 x19:0x00000001  x3:0x50cdc380
       44835000	      4482	00000000	00000013	addi	x0,x0,0	  x0:0x00000000
       44845000	      4483	80001ac8	00000013	addi	x0,x0,0	  x0:0x00000000
       44855000	      4484	80001acc	e4792217	auipc	x4,0xe4792	  x4=0x64793ac8
       44865000	      4485	80001ad0	9c114a93	xori	x21,x2,-1599	  x2:0xbd232e47 x21=0x42dcd786
       44875000	      4486	80001ad4	004fa883	lw	x17,4(x31)	 x31:0x80009eec x17=0x80000c10 PA:0x80009ef0
       44885000	      4487	80001ad8	252b4c17	auipc	x24,0x252b4	 x24=0xa52b5ad4
       44895000	      4488	80001adc	f0c13013	sltiu	x0,x2,-244	  x2:0xbd232e47
       44905000	      4489	80001ae0	00000013	addi	x0,x0,0	  x0:0x00000000
       44915000	      4490	80001ae4	008f8f93	addi	x31,x31,8	 x31:0x80009eec x31=0x80009ef4
       44925000	      4491	80001ae8	4f782813	slti	x16,x16,1271	 x16:0x00000000 x16=0x00000001
       44935000	      4492	80001aec	00188913	addi	x18,x17,1	 x17:0x80000c10 x18=0x80000c11
       44945000	      4493	80001af0	00090967	jalr	x18,x18,0	 x18:0x80000c11 x18=0x80001af0
       44955000	      4494	00000000	00000013	addi	x0,x0,0	  x0:0x00000000
       44965000	      4495	80000c10	00000013	addi	x0,x0,0	  x0:0x00000000
       44975000	      4496	80000c14	024008ef	jal	x17,80000c14	 x17=0x80000c14
       44985000	      4497	00000000	00000013	addi	x0,x0,0	  x0:0x00000000
       44995000	      4498	80000c34	00000013	addi	x0,x0,0	  x0:0x00000000
       45005000	      4499	80000c38	ff5ff0ef	jal	x1,80000c38	  x1=0x80000c38
       45015000	      4500	00000000	00000013	addi	x0,x0,0	  x0:0x00000000
       45025000	      4501	80000c28	00000013	addi	x0,x0,0	  x0:0x00000000
       45035000	      4502	80000c2c	008000ef	jal	x1,80000c2c	  x1=0x80000c2c
       45045000	      4503	00000000	00000013	addi	x0,x0,0	  x0:0x00000000
       45055000	      4504	80000c30	00000013	addi	x0,x0,0	  x0:0x00000000
       45065000	      4505	80000c34	010001ef	jal	x3,80000c34	  x3=0x80000c34
       45075000	      4506	00000000	00000013	addi	x0,x0,0	  x0:0x00000000
       45085000	      4507	80000c40	00000013	addi	x0,x0,0	  x0:0x00000000
       45095000	      4508	80000c44	fddffeef	jal	x29,80000c44	 x29=0x80000c44
       45105000	      4509	00000000	00000013	addi	x0,x0,0	  x0:0x00000000
       45115000	      4510	80000c1c	00000013	addi	x0,x0,0	  x0:0x00000000
       45125000	      4511	80000c20	0280036f	jal	x6,80000c20	  x6=0x80000c20
       45135000	      4512	00000000	00000013	addi	x0,x0,0	  x0:0x00000000
       45145000	      4513	80000c44	00000013	addi	x0,x0,0	  x0:0x00000000
       45155000	      4514	80000c48	fd1ff0ef	jal	x1,80000c48	  x1=0x80000c48
       45165000	      4515	00000000	00000013	addi	x0,x0,0	  x0:0x00000000
       45175000	      4516	80000c14	00000013	addi	x0,x0,0	  x0:0x00000000
       45185000	      4517	80000c18	024000ef	jal	x1,80000c18	  x1=0x80000c18
       45195000	      4518	00000000	00000013	addi	x0,x0,0	  x0:0x00000000
       45205000	      4519	80000c38	00000013	addi	x0,x0,0	  x0:0x00000000
       45215000	      4520	80000c3c	0140036f	jal	x6,80000c3c	  x6=0x80000c3c
       45225000	      4521	00000000	00000013	addi	x0,x0,0	  x0:0x00000000
       45235000	      4522	80000c4c	00000013	addi	x0,x0,0	  x0:0x00000000
       45245000	      4523	80000c50	004000ef	jal	x1,80000c50	  x1=0x80000c50
       45255000	      4524	00000000	00000013	addi	x0,x0,0	  x0:0x00000000
       45265000	      4525	80000c50	00000013	addi	x0,x0,0	  x0:0x00000000
       45275000	      4526	80000c54	fedff2ef	jal	x5,80000c54	  x5=0x80000c54
       45285000	      4527	00000000	00000013	addi	x0,x0,0	  x0:0x00000000
       45295000	      4528	80000c3c	00000013	addi	x0,x0,0	  x0:0x00000000
       45305000	      4529	80000c40	018000ef	jal	x1,80000c40	  x1=0x80000c40
       45315000	      4530	00000000	00000013	addi	x0,x0,0	  x0:0x00000000
       45325000	      4531	80000c54	00000013	addi	x0,x0,0	  x0:0x00000000
       45335000	      4532	80000c58	fcdffaef	jal	x21,80000c58	 x21=0x80000c58
       45345000	      4533	00000000	00000013	addi	x0,x0,0	  x0:0x00000000
       45355000	      4534	80000c20	00000013	addi	x0,x0,0	  x0:0x00000000
       45365000	      4535	80000c24	ff9ff36f	jal	x6,80000c24	  x6=0x80000c24
       45375000	      4536	00000000	00000013	addi	x0,x0,0	  x0:0x00000000
       45385000	      4537	80000c18	00000013	addi	x0,x0,0	  x0:0x00000000
       45395000	      4538	80000c1c	014003ef	jal	x7,80000c1c	  x7=0x80000c1c
       45405000	      4539	00000000	00000013	addi	x0,x0,0	  x0:0x00000000
       45415000	      4540	80000c2c	00000013	addi	x0,x0,0	  x0:0x00000000
       45425000	      4541	80000c30	01c00f6f	jal	x30,80000c30	 x30=0x80000c30
       45435000	      4542	00000000	00000013	addi	x0,x0,0	  x0:0x00000000
       45445000	      4543	80000c48	00000013	addi	x0,x0,0	  x0:0x00000000
       45455000	      4544	80000c4c	fddff1ef	jal	x3,80000c4c	  x3=0x80000c4c
       45465000	      4545	00000000	00000013	addi	x0,x0,0	  x0:0x00000000
       45475000	      4546	80000c24	00000013	addi	x0,x0,0	  x0:0x00000000
       45485000	      4547	80000c28	034000ef	jal	x1,80000c28	  x1=0x80000c28
       45495000	      4548	00000000	00000013	addi	x0,x0,0	  x0:0x00000000
       45505000	      4549	80000c58	00000013	addi	x0,x0,0	  x0:0x00000000
       45515000	      4550	80000c5c	4a715497	auipc	x9,0x4a715	  x9=0xca715c58
       45525000	      4551	80000c60	048008ef	jal	x17,80000c60	 x17=0x80000c60
       45535000	      4552	00000000	00000013	addi	x0,x0,0	  x0:0x00000000
       45545000	      4553	80000ca4	00000013	addi	x0,x0,0	  x0:0x00000000
       45555000	      4554	80000ca8	fd1ff0ef	jal	x1,80000ca8	  x1=0x80000ca8
       45565000	      4555	00000000	00000013	addi	x0,x0,0	  x0:0x00000000
       45575000	      4556	80000c74	00000013	addi	x0,x0,0	  x0:0x00000000
       45585000	      4557	80000c78	0140036f	jal	x6,80000c78	  x6=0x80000c78
       45595000	      4558	00000000	00000013	addi	x0,x0,0	  x0:0x00000000
       45605000	      4559	80000c88	00000013	addi	x0,x0,0	  x0:0x00000000
       45615000	      4560	80000c8c	044000ef	jal	x1,80000c8c	  x1=0x80000c8c
       45625000	      4561	00000000	00000013	addi	x0,x0,0	  x0:0x00000000
       45635000	      4562	80000ccc	00000013	addi	x0,x0,0	  x0:0x00000000
       45645000	      4563	80000cd0	fe5ff36f	jal	x6,80000cd0	  x6=0x80000cd0
       45655000	      4564	00000000	00000013	addi	x0,x0,0	  x0:0x00000000
       45665000	      4565	80000cb0	00000013	addi	x0,x0,0	  x0:0x00000000
       45675000	      4566	80000cb4	00c001ef	jal	x3,80000cb4	  x3=0x80000cb4
       45685000	      4567	00000000	00000013	addi	x0,x0,0	  x0:0x00000000
       45695000	      4568	80000cbc	00000013	addi	x0,x0,0	  x0:0x00000000
       45705000	      4569	80000cc0	fa9ff5ef	jal	x11,80000cc0	 x11=0x80000cc0
       45715000	      4570	00000000	00000013	addi	x0,x0,0	  x0:0x00000000
       45725000	      4571	80000c64	00000013	addi	x0,x0,0	  x0:0x00000000
       45735000	      4572	80000c68	06c000ef	jal	x1,80000c68	  x1=0x80000c68
       45745000	      4573	00000000	00000013	addi	x0,x0,0	  x0:0x00000000
       45755000	      4574	80000cd0	00000013	addi	x0,x0,0	  x0:0x00000000
       45765000	      4575	80000cd4	fd9ff0ef	jal	x1,80000cd4	  x1=0x80000cd4
       45775000	      4576	00000000	00000013	addi	x0,x0,0	  x0:0x00000000
       45785000	      4577	80000ca8	00000013	addi	x0,x0,0	  x0:0x00000000
       45795000	      4578	80000cac	fc1ffeef	jal	x29,80000cac	 x29=0x80000cac
       45805000	      4579	00000000	00000013	addi	x0,x0,0	  x0:0x00000000
       45815000	      4580	80000c68	00000013	addi	x0,x0,0	  x0:0x00000000
       45825000	      4581	80000c6c	02c0036f	jal	x6,80000c6c	  x6=0x80000c6c
       45835000	      4582	00000000	00000013	addi	x0,x0,0	  x0:0x00000000
       45845000	      4583	80000c94	00000013	addi	x0,x0,0	  x0:0x00000000
       45855000	      4584	80000c98	00800f6f	jal	x30,80000c98	 x30=0x80000c98
       45865000	      4585	00000000	00000013	addi	x0,x0,0	  x0:0x00000000
       45875000	      4586	80000c9c	00000013	addi	x0,x0,0	  x0:0x00000000
       45885000	      4587	80000ca0	018000ef	jal	x1,80000ca0	  x1=0x80000ca0
       45895000	      4588	00000000	00000013	addi	x0,x0,0	  x0:0x00000000
       45905000	      4589	80000cb4	00000013	addi	x0,x0,0	  x0:0x00000000
       45915000	      4590	80000cb8	ff9ff66f	jal	x12,80000cb8	 x12=0x80000cb8
       45925000	      4591	00000000	00000013	addi	x0,x0,0	  x0:0x00000000
       45935000	      4592	80000cac	00000013	addi	x0,x0,0	  x0:0x00000000
       45945000	      4593	80000cb0	018000ef	jal	x1,80000cb0	  x1=0x80000cb0
       45955000	      4594	00000000	00000013	addi	x0,x0,0	  x0:0x00000000
       45965000	      4595	80000cc4	00000013	addi	x0,x0,0	  x0:0x00000000
       45975000	      4596	80000cc8	fc9ff0ef	jal	x1,80000cc8	  x1=0x80000cc8
       45985000	      4597	00000000	00000013	addi	x0,x0,0	  x0:0x00000000
       45995000	      4598	80000c8c	00000013	addi	x0,x0,0	  x0:0x00000000
       46005000	      4599	80000c90	0140096f	jal	x18,80000c90	 x18=0x80000c90
       46015000	      4600	00000000	00000013	addi	x0,x0,0	  x0:0x00000000
       46025000	      4601	80000ca0	00000013	addi	x0,x0,0	  x0:0x00000000
       46035000	      4602	80000ca4	0280036f	jal	x6,80000ca4	  x6=0x80000ca4
       46045000	      4603	00000000	00000013	addi	x0,x0,0	  x0:0x00000000
       46055000	      4604	80000cc8	00000013	addi	x0,x0,0	  x0:0x00000000
       46065000	      4605	80000ccc	ff9ff0ef	jal	x1,80000ccc	  x1=0x80000ccc
       46075000	      4606	00000000	00000013	addi	x0,x0,0	  x0:0x00000000
       46085000	      4607	80000cc0	00000013	addi	x0,x0,0	  x0:0x00000000
       46095000	      4608	80000cc4	fc5ff36f	jal	x6,80000cc4	  x6=0x80000cc4
       46105000	      4609	00000000	00000013	addi	x0,x0,0	  x0:0x00000000
       46115000	      4610	80000c84	00000013	addi	x0,x0,0	  x0:0x00000000
       46125000	      4611	80000c88	ff5ff36f	jal	x6,80000c88	  x6=0x80000c88
       46135000	      4612	00000000	00000013	addi	x0,x0,0	  x0:0x00000000
       46145000	      4613	80000c78	00000013	addi	x0,x0,0	  x0:0x00000000
       46155000	      4614	80000c7c	0040036f	jal	x6,80000c7c	  x6=0x80000c7c
       46165000	      4615	00000000	00000013	addi	x0,x0,0	  x0:0x00000000
       46175000	      4616	80000c7c	00000013	addi	x0,x0,0	  x0:0x00000000
       46185000	      4617	80000c80	fe5ff0ef	jal	x1,80000c80	  x1=0x80000c80
       46195000	      4618	00000000	00000013	addi	x0,x0,0	  x0:0x00000000
       46205000	      4619	80000c60	00000013	addi	x0,x0,0	  x0:0x00000000
       46215000	      4620	80000c64	058000ef	jal	x1,80000c64	  x1=0x80000c64
       46225000	      4621	00000000	00000013	addi	x0,x0,0	  x0:0x00000000
       46235000	      4622	80000cb8	00000013	addi	x0,x0,0	  x0:0x00000000
       46245000	      4623	80000cbc	fe1ff0ef	jal	x1,80000cbc	  x1=0x80000cbc
       46255000	      4624	00000000	00000013	addi	x0,x0,0	  x0:0x00000000
       46265000	      4625	80000c98	00000013	addi	x0,x0,0	  x0:0x00000000
       46275000	      4626	80000c9c	fd5ff36f	jal	x6,80000c9c	  x6=0x80000c9c
       46285000	      4627	00000000	00000013	addi	x0,x0,0	  x0:0x00000000
       46295000	      4628	80000c6c	00000013	addi	x0,x0,0	  x0:0x00000000
       46305000	      4629	80000c70	004000ef	jal	x1,80000c70	  x1=0x80000c70
       46315000	      4630	00000000	00000013	addi	x0,x0,0	  x0:0x00000000
       46325000	      4631	80000c70	00000013	addi	x0,x0,0	  x0:0x00000000
       46335000	      4632	80000c74	0100056f	jal	x10,80000c74	 x10=0x80000c74
       46345000	      4633	00000000	00000013	addi	x0,x0,0	  x0:0x00000000
       46355000	      4634	80000c80	00000013	addi	x0,x0,0	  x0:0x00000000
       46365000	      4635	80000c84	010000ef	jal	x1,80000c84	  x1=0x80000c84
       46375000	      4636	00000000	00000013	addi	x0,x0,0	  x0:0x00000000
       46385000	      4637	80000c90	00000013	addi	x0,x0,0	  x0:0x00000000
       46395000	      4638	80000c94	044001ef	jal	x3,80000c94	  x3=0x80000c94
       46405000	      4639	00000000	00000013	addi	x0,x0,0	  x0:0x00000000
       46415000	      4640	80000cd4	00000013	addi	x0,x0,0	  x0:0x00000000
       46425000	      4641	80000cd8	38d4a913	slti	x18,x9,909	  x9:0xca715c58 x18=0x00000001
       46435000	      4642	80000cdc	01974233	xor	x4,x14,x25	 x14:0x200d4000 x25:0x01e9187d  x4=0x21e4587d
       46445000	      4643	80000ce0	01569233	sll	x4,x13,x21	 x13:0x714db000 x21:0x80000c58  x4=0x00000000
       46455000	      4644	80000ce4	11618e13	addi	x28,x3,278	  x3:0x80000c94 x28=0x80000daa
       46465000	      4645	80000ce8	00c29633	sll	x12,x5,x12	  x5:0x80000c54 x12:0x80000cb8 x12=0x54000000
       46475000	      4646	80000cec	586acc17	auipc	x24,0x586ac	 x24=0xd86acce8
       46485000	      4647	80000cf0	4121da93	srai	x21,x3,0x12	  x3:0x80000c94 x21=0xffffe000
       46495000	      4648	80000cf4	4c2efb13	andi	x22,x29,1218	 x29:0x80000cac x22=0x00000480
       46505000	      4649	80000cf8	1ef58693	addi	x13,x11,495	 x11:0x80000cc0 x13=0x80000eaf
       46515000	      4650	80000cfc	21e6b537	lui	x10,0x21e6b	 x10=0x21e6b000
       46525000	      4651	80000d00	01c69e13	slli	x28,x13,0x1c	 x13:0x80000eaf x28=0xf0000000
       46535000	      4652	80000d04	7cbefc93	andi	x25,x29,1995	 x29:0x80000cac x25=0x00000488
       46545000	      4653	80000d08	0285fc63	bgeu	x11,x8,80000d40	 x11:0x80000cc0  x8:0x00000000
       46555000	      4654	00000000	00000013	addi	x0,x0,0	  x0:0x00000000
       46565000	      4655	80000d3c	00000013	addi	x0,x0,0	  x0:0x00000000
       46575000	      4656	80000d40	8efbf513	andi	x10,x23,-1809	 x23:0x00000003 x10=0x00000003
       46585000	      4657	80000d44	a87f0d37	lui	x26,0xa87f0	 x26=0xa87f0000
       46595000	      4658	80000d48	0d1f8663	beq	x31,x17,80000e14	 x31:0x80009ef4 x17:0x80000c60
       46605000	      4659	80000d4c	030dfc63	bgeu	x27,x16,80000d84	 x27:0x00008035 x16:0x00000001
       46615000	      4660	00000000	00000013	addi	x0,x0,0	  x0:0x00000000
       46625000	      4661	80000d80	00000013	addi	x0,x0,0	  x0:0x00000000
       46635000	      4662	80000d84	c8d53493	sltiu	x9,x10,-883	 x10:0x00000003  x9=0x00000001
       46645000	      4663	80000d88	015b5533	srl	x10,x22,x21	 x22:0x00000480 x21:0xffffe000 x10=0x00000480
       46655000	      4664	80000d8c	09fb4063	blt	x22,x31,80000e0c	 x22:0x00000480 x31:0x80009ef4
       46665000	      4665	80000d90	03c008ef	jal	x17,80000d90	 x17=0x80000d90
       46675000	      4666	00000000	00000013	addi	x0,x0,0	  x0:0x00000000
       46685000	      4667	80000dc8	00000013	addi	x0,x0,0	  x0:0x00000000
       46695000	      4668	80000dcc	ff1ff86f	jal	x16,80000dcc	 x16=0x80000dcc
       46705000	      4669	00000000	00000013	addi	x0,x0,0	  x0:0x00000000
       46715000	      4670	80000db8	00000013	addi	x0,x0,0	  x0:0x00000000
       46725000	      4671	80000dbc	020000ef	jal	x1,80000dbc	  x1=0x80000dbc
       46735000	      4672	00000000	00000013	addi	x0,x0,0	  x0:0x00000000
       46745000	      4673	80000dd8	00000013	addi	x0,x0,0	  x0:0x00000000
       46755000	      4674	80000ddc	fd1ffeef	jal	x29,80000ddc	 x29=0x80000ddc
       46765000	      4675	00000000	00000013	addi	x0,x0,0	  x0:0x00000000
       46775000	      4676	80000da8	00000013	addi	x0,x0,0	  x0:0x00000000
       46785000	      4677	80000dac	fe9ff26f	jal	x4,80000dac	  x4=0x80000dac
       46795000	      4678	00000000	00000013	addi	x0,x0,0	  x0:0x00000000
       46805000	      4679	80000d90	00000013	addi	x0,x0,0	  x0:0x00000000
       46815000	      4680	80000d94	004009ef	jal	x19,80000d94	 x19=0x80000d94
       46825000	      4681	00000000	00000013	addi	x0,x0,0	  x0:0x00000000
       46835000	      4682	80000d94	00000013	addi	x0,x0,0	  x0:0x00000000
       46845000	      4683	80000d98	064000ef	jal	x1,80000d98	  x1=0x80000d98
       46855000	      4684	00000000	00000013	addi	x0,x0,0	  x0:0x00000000
       46865000	      4685	80000df8	00000013	addi	x0,x0,0	  x0:0x00000000
       46875000	      4686	80000dfc	fedff0ef	jal	x1,80000dfc	  x1=0x80000dfc
       46885000	      4687	00000000	00000013	addi	x0,x0,0	  x0:0x00000000
       46895000	      4688	80000de4	00000013	addi	x0,x0,0	  x0:0x00000000
       46905000	      4689	80000de8	fb5ff0ef	jal	x1,80000de8	  x1=0x80000de8
       46915000	      4690	00000000	00000013	addi	x0,x0,0	  x0:0x00000000
       46925000	      4691	80000d98	00000013	addi	x0,x0,0	  x0:0x00000000
       46935000	      4692	80000d9c	00c000ef	jal	x1,80000d9c	  x1=0x80000d9c
       46945000	      4693	00000000	00000013	addi	x0,x0,0	  x0:0x00000000
       46955000	      4694	80000da4	00000013	addi	x0,x0,0	  x0:0x00000000
       46965000	      4695	80000da8	044000ef	jal	x1,80000da8	  x1=0x80000da8
       46975000	      4696	00000000	00000013	addi	x0,x0,0	  x0:0x00000000
       46985000	      4697	80000de8	00000013	addi	x0,x0,0	  x0:0x00000000
       46995000	      4698	80000dec	ff9ff0ef	jal	x1,80000dec	  x1=0x80000dec
       47005000	      4699	00000000	00000013	addi	x0,x0,0	  x0:0x00000000
       47015000	      4700	80000de0	00000013	addi	x0,x0,0	  x0:0x00000000
       47025000	      4701	80000de4	ff5ff0ef	jal	x1,80000de4	  x1=0x80000de4
       47035000	      4702	00000000	00000013	addi	x0,x0,0	  x0:0x00000000
       47045000	      4703	80000dd4	00000013	addi	x0,x0,0	  x0:0x00000000
       47055000	      4704	80000dd8	02c000ef	jal	x1,80000dd8	  x1=0x80000dd8
       47065000	      4705	00000000	00000013	addi	x0,x0,0	  x0:0x00000000
       47075000	      4706	80000e00	00000013	addi	x0,x0,0	  x0:0x00000000
       47085000	      4707	80000e04	ff5ff0ef	jal	x1,80000e04	  x1=0x80000e04
       47095000	      4708	00000000	00000013	addi	x0,x0,0	  x0:0x00000000
       47105000	      4709	80000df4	00000013	addi	x0,x0,0	  x0:0x00000000
       47115000	      4710	80000df8	fbdff0ef	jal	x1,80000df8	  x1=0x80000df8
       47125000	      4711	00000000	00000013	addi	x0,x0,0	  x0:0x00000000
       47135000	      4712	80000db0	00000013	addi	x0,x0,0	  x0:0x00000000
       47145000	      4713	80000db4	03c000ef	jal	x1,80000db4	  x1=0x80000db4
       47155000	      4714	00000000	00000013	addi	x0,x0,0	  x0:0x00000000
       47165000	      4715	80000dec	00000013	addi	x0,x0,0	  x0:0x00000000
       47175000	      4716	80000df0	01000e6f	jal	x28,80000df0	 x28=0x80000df0
       47185000	      4717	00000000	00000013	addi	x0,x0,0	  x0:0x00000000
       47195000	      4718	80000dfc	00000013	addi	x0,x0,0	  x0:0x00000000
       47205000	      4719	80000e00	fa5ff8ef	jal	x17,80000e00	 x17=0x80000e00
       47215000	      4720	00000000	00000013	addi	x0,x0,0	  x0:0x00000000
       47225000	      4721	80000da0	00000013	addi	x0,x0,0	  x0:0x00000000
       47235000	      4722	80000da4	024009ef	jal	x19,80000da4	 x19=0x80000da4
       47245000	      4723	00000000	00000013	addi	x0,x0,0	  x0:0x00000000
       47255000	      4724	80000dc4	00000013	addi	x0,x0,0	  x0:0x00000000
       47265000	      4725	80000dc8	fe9ff0ef	jal	x1,80000dc8	  x1=0x80000dc8
       47275000	      4726	00000000	00000013	addi	x0,x0,0	  x0:0x00000000
       47285000	      4727	80000dac	00000013	addi	x0,x0,0	  x0:0x00000000
       47295000	      4728	80000db0	030000ef	jal	x1,80000db0	  x1=0x80000db0
       47305000	      4729	00000000	00000013	addi	x0,x0,0	  x0:0x00000000
       47315000	      4730	80000ddc	00000013	addi	x0,x0,0	  x0:0x00000000
       47325000	      4731	80000de0	fe5ff56f	jal	x10,80000de0	 x10=0x80000de0
       47335000	      4732	00000000	00000013	addi	x0,x0,0	  x0:0x00000000
       47345000	      4733	80000dc0	00000013	addi	x0,x0,0	  x0:0x00000000
       47355000	      4734	80000dc4	01000cef	jal	x25,80000dc4	 x25=0x80000dc4
       47365000	      4735	00000000	00000013	addi	x0,x0,0	  x0:0x00000000
       47375000	      4736	80000dd0	00000013	addi	x0,x0,0	  x0:0x00000000
       47385000	      4737	80000dd4	fedff36f	jal	x6,80000dd4	  x6=0x80000dd4
       47395000	      4738	00000000	00000013	addi	x0,x0,0	  x0:0x00000000
       47405000	      4739	80000dbc	00000013	addi	x0,x0,0	  x0:0x00000000
       47415000	      4740	80000dc0	010002ef	jal	x5,80000dc0	  x5=0x80000dc0
       47425000	      4741	00000000	00000013	addi	x0,x0,0	  x0:0x00000000
       47435000	      4742	80000dcc	00000013	addi	x0,x0,0	  x0:0x00000000
       47445000	      4743	80000dd0	fd1ffdef	jal	x27,80000dd0	 x27=0x80000dd0
       47455000	      4744	00000000	00000013	addi	x0,x0,0	  x0:0x00000000
       47465000	      4745	80000d9c	00000013	addi	x0,x0,0	  x0:0x00000000
       47475000	      4746	80000da0	054000ef	jal	x1,80000da0	  x1=0x80000da0
       47485000	      4747	00000000	00000013	addi	x0,x0,0	  x0:0x00000000
       47495000	      4748	80000df0	00000013	addi	x0,x0,0	  x0:0x00000000
       47505000	      4749	80000df4	fc5ffbef	jal	x23,80000df4	 x23=0x80000df4
       47515000	      4750	00000000	00000013	addi	x0,x0,0	  x0:0x00000000
       47525000	      4751	80000db4	00000013	addi	x0,x0,0	  x0:0x00000000
       47535000	      4752	80000db8	050000ef	jal	x1,80000db8	  x1=0x80000db8
       47545000	      4753	00000000	00000013	addi	x0,x0,0	  x0:0x00000000
       47555000	      4754	80000e04	00000013	addi	x0,x0,0	  x0:0x00000000
       47565000	      4755	80000e08	00a6ebb3	or	x23,x13,x10	 x13:0x80000eaf x10:0x80000de0 x23=0x80000fef
       47575000	      4756	80000e0c	00d78db3	add	x27,x15,x13	 x15:0x80009fc4 x13:0x80000eaf x27=0x0000ae73
       47585000	      4757	80000e10	01dd7e63	bgeu	x26,x29,80000e2c	 x26:0xa87f0000 x29:0x80000ddc
       47595000	      4758	00000000	00000013	addi	x0,x0,0	  x0:0x00000000
       47605000	      4759	80000e28	00000013	addi	x0,x0,0	  x0:0x00000000
       47615000	      4760	80000e2c	ee64c037	lui	x0,0xee64c	
       47625000	      4761	80000e30	af0fa713	slti	x14,x31,-1296	 x31:0x80009ef4 x14=0x00000001
       47635000	      4762	80000e34	4195d393	srai	x7,x11,0x19	 x11:0x80000cc0  x7=0xffffffc0
       47645000	      4763	80000e38	0100e233	or	x4,x1,x16	  x1:0x80000db8 x16:0x80000dcc  x4=0x80000dfc
       47655000	      4764	80000e3c	008198b3	sll	x17,x3,x8	  x3:0x80000c94  x8:0x00000000 x17=0x80000c94
       47665000	      4765	80000e40	01fd2333	slt	x6,x26,x31	 x26:0xa87f0000 x31:0x80009ef4  x6=0x00000000
       47675000	      4766	80000e44	03c37a63	bgeu	x6,x28,80000e78	  x6:0x00000000 x28:0x80000df0
       47685000	      4767	80000e48	00413f33	sltu	x30,x2,x4	  x2:0xbd232e47  x4:0x80000dfc x30=0x00000000
       47695000	      4768	80000e4c	01e98263	beq	x19,x30,80000e50	 x19:0x80000da4 x30:0x00000000
       47705000	      4769	80000e50	f51ce993	ori	x19,x25,-175	 x25:0x80000dc4 x19=0xffffffd5
       47715000	      4770	80000e54	0188cb33	xor	x22,x17,x24	 x17:0x80000c94 x24:0xd86acce8 x22=0x586ac07c
       47725000	      4771	80000e58	002c6a63	bltu	x24,x2,80000e6c	 x24:0xd86acce8  x2:0xbd232e47
       47735000	      4772	80000e5c	02f81e63	bne	x16,x15,80000e98	 x16:0x80000dcc x15:0x80009fc4
       47745000	      4773	00000000	00000013	addi	x0,x0,0	  x0:0x00000000
       47755000	      4774	80000e94	00000013	addi	x0,x0,0	  x0:0x00000000
       47765000	      4775	80000e98	f92ec493	xori	x9,x29,-110	 x29:0x80000ddc  x9=0x7ffff24e
       47775000	      4776	80000e9c	4172d613	srai	x12,x5,0x17	  x5:0x80000dc0 x12=0xffffff00
       47785000	      4777	80000ea0	0019a0b3	slt	x1,x19,x1	 x19:0xffffffd5  x1:0x80000db8  x1=0x00000000
       47795000	      4778	80000ea4	025ed063	bge	x29,x5,80000ec4	 x29:0x80000ddc  x5:0x80000dc0
       47805000	      4779	00000000	00000013	addi	x0,x0,0	  x0:0x00000000
       47815000	      4780	80000ec0	00000013	addi	x0,x0,0	  x0:0x00000000
       47825000	      4781	80000ec4	016a5f13	srli	x30,x20,0x16	 x20:0x50cdc300 x30=0x00000143
       47835000	      4782	80000ec8	906de213	ori	x4,x27,-1786	 x27:0x0000ae73  x4=0xffffff77
       47845000	      4783	80000ecc	e7d80493	addi	x9,x16,-387	 x16:0x80000dcc  x9=0x80000c49
       47855000	      4784	80000ed0	040b4863	blt	x22,x0,80000f20	 x22:0x586ac07c  x0:0x00000000
       47865000	      4785	80000ed4	28483a13	sltiu	x20,x16,644	 x16:0x80000dcc x20=0x00000000
       47875000	      4786	80000ed8	89c20093	addi	x1,x4,-1892	  x4:0xffffff77  x1=0xfffff813
       47885000	      4787	80000edc	40f00a33	sub	x20,x0,x15	  x0:0x00000000 x15:0x80009fc4 x20=0x7fff603c
       47895000	      4788	80000ee0	2c78d4b7	lui	x9,0x2c78d	  x9=0x2c78d000
       47905000	      4789	80000ee4	0047ea63	bltu	x15,x4,80000ef8	 x15:0x80009fc4  x4:0xffffff77
       47915000	      4790	00000000	00000013	addi	x0,x0,0	  x0:0x00000000
       47925000	      4791	80000ef4	00000013	addi	x0,x0,0	  x0:0x00000000
       47935000	      4792	80000ef8	043b5463	bge	x22,x3,80000f40	 x22:0x586ac07c  x3:0x80000c94
       47945000	      4793	00000000	00000013	addi	x0,x0,0	  x0:0x00000000
       47955000	      4794	80000f3c	00000013	addi	x0,x0,0	  x0:0x00000000
       47965000	      4795	80000f40	00e302b3	add	x5,x6,x14	  x6:0x00000000 x14:0x00000001  x5=0x00000001
       47975000	      4796	80000f44	41268433	sub	x8,x13,x18	 x13:0x80000eaf x18:0x00000001  x8=0x80000eae
       47985000	      4797	80000f48	48890813	addi	x16,x18,1160	 x18:0x00000001 x16=0x00000489
       47995000	      4798	80000f4c	00721a63	bne	x4,x7,80000f60	  x4:0xffffff77  x7:0xffffffc0
       48005000	      4799	00000000	00000013	addi	x0,x0,0	  x0:0x00000000
       48015000	      4800	80000f5c	00000013	addi	x0,x0,0	  x0:0x00000000
       48025000	      4801	80000f60	00815233	srl	x4,x2,x8	  x2:0xbd232e47  x8:0x80000eae  x4=0x0002f48c
       48035000	      4802	80000f64	01b7fd33	and	x26,x15,x27	 x15:0x80009fc4 x27:0x0000ae73 x26=0x00008e40
       48045000	      4803	80000f68	8a1b7693	andi	x13,x22,-1887	 x22:0x586ac07c x13=0x586ac020
       48055000	      4804	80000f6c	89738493	addi	x9,x7,-1897	  x7:0xffffffc0  x9=0xfffff857
       48065000	      4805	80000f70	01d0fa33	and	x20,x1,x29	  x1:0xfffff813 x29:0x80000ddc x20=0x80000810
       48075000	      4806	80000f74	00d3df13	srli	x30,x7,0xd	  x7:0xffffffc0 x30=0x0007ffff
       48085000	      4807	80000f78	0265dc63	bge	x11,x6,80000fb0	 x11:0x80000cc0  x6:0x00000000
       48095000	      4808	80000f7c	01764a63	blt	x12,x23,80000f90	 x12:0xffffff00 x23:0x80000fef
       48105000	      4809	80000f80	00d9be33	sltu	x28,x19,x13	 x19:0xffffffd5 x13:0x586ac020 x28=0x00000000
       48115000	      4810	80000f84	04199463	bne	x19,x1,80000fcc	 x19:0xffffffd5  x1:0xfffff813
       48125000	      4811	00000000	00000013	addi	x0,x0,0	  x0:0x00000000
       48135000	      4812	80000fc8	00000013	addi	x0,x0,0	  x0:0x00000000
       48145000	      4813	80000fcc	4b7520b7	lui	x1,0x4b752	  x1=0x4b752000
       48155000	      4814	80000fd0	75109697	auipc	x13,0x75109	 x13=0xf5109fcc
       48165000	      4815	80000fd4	40845693	srai	x13,x8,0x8	  x8:0x80000eae x13=0xff80000e
       48175000	      4816	80000fd8	0f2b0697	auipc	x13,0xf2b0	 x13=0x8f2b0fd4
       48185000	      4817	80000fdc	e4720993	addi	x19,x4,-441	  x4:0x0002f48c x19=0x0002f2d3
       48195000	      4818	80000fe0	05ae0463	beq	x28,x26,80001028	 x28:0x00000000 x26:0x00008e40
       48205000	      4819	80000fe4	03bfd063	bge	x31,x27,80001004	 x31:0x80009ef4 x27:0x0000ae73
       48215000	      4820	80000fe8	01e049b3	xor	x19,x0,x30	  x0:0x00000000 x30:0x0007ffff x19=0x0007ffff
       48225000	      4821	80000fec	01faf433	and	x8,x21,x31	 x21:0xffffe000 x31:0x80009ef4  x8=0x80008000
       48235000	      4822	80000ff0	00000013	addi	x0,x0,0	  x0:0x00000000
       48245000	      4823	80000ff4	84c68c13	addi	x24,x13,-1972	 x13:0x8f2b0fd4 x24=0x8f2b0820
       48255000	      4824	80000ff8	5a3e1017	auipc	x0,0x5a3e1	
       48265000	      4825	80000ffc	fe5fe713	ori	x14,x31,-27	 x31:0x80009ef4 x14=0xfffffff5
       48275000	      4826	80001000	12dd2413	slti	x8,x26,301	 x26:0x00008e40  x8=0x00000000
       48285000	      4827	80001004	006c4433	xor	x8,x24,x6	 x24:0x8f2b0820  x6:0x00000000  x8=0x8f2b0820
       48295000	      4828	80001008	01e63a33	sltu	x20,x12,x30	 x12:0xffffff00 x30:0x0007ffff x20=0x00000000
       48305000	      4829	8000100c	00d6fdb3	and	x27,x13,x13	 x13:0x8f2b0fd4 x13:0x8f2b0fd4 x27=0x8f2b0fd4
       48315000	      4830	80001010	012dbbb3	sltu	x23,x27,x18	 x27:0x8f2b0fd4 x18:0x00000001 x23=0x00000000
       48325000	      4831	80001014	049b0663	beq	x22,x9,80001060	 x22:0x586ac07c  x9:0xfffff857
       48335000	      4832	80001018	00881833	sll	x16,x16,x8	 x16:0x00000489  x8:0x8f2b0820 x16=0x00000489
       48345000	      4833	8000101c	8fe59097	auipc	x1,0x8fe59	  x1=0x0fe5a018
       48355000	      4834	80001020	01139233	sll	x4,x7,x17	  x7:0xffffffc0 x17:0x80000c94  x4=0xfc000000
       48365000	      4835	80001024	0562f437	lui	x8,0x562f	  x8=0x0562f000
       48375000	      4836	80001028	01b7f6b3	and	x13,x15,x27	 x15:0x80009fc4 x27:0x8f2b0fd4 x13=0x80000fc4
       48385000	      4837	8000102c	00b77833	and	x16,x14,x11	 x14:0xfffffff5 x11:0x80000cc0 x16=0x80000cc0
       48395000	      4838	80001030	02797863	bgeu	x18,x7,80001060	 x18:0x00000001  x7:0xffffffc0
       48405000	      4839	80001034	01843bb3	sltu	x23,x8,x24	  x8:0x0562f000 x24:0x8f2b0820 x23=0x00000001
       48415000	      4840	80001038	00000013	addi	x0,x0,0	  x0:0x00000000
       48425000	      4841	8000103c	00060e33	add	x28,x12,x0	 x12:0xffffff00  x0:0x00000000 x28=0xffffff00
       48435000	      4842	80001040	4012ac93	slti	x25,x5,1025	  x5:0x00000001 x25=0x00000001
       48445000	      4843	80001044	01dc0e63	beq	x24,x29,80001060	 x24:0x8f2b0820 x29:0x80000ddc
       48455000	      4844	80001048	414b83b3	sub	x7,x23,x20	 x23:0x00000001 x20:0x00000000  x7=0x00000001
       48465000	      4845	8000104c	00aa7a63	bgeu	x20,x10,80001060	 x20:0x00000000 x10:0x80000de0
       48475000	      4846	80001050	018df863	bgeu	x27,x24,80001060	 x27:0x8f2b0fd4 x24:0x8f2b0820
       48485000	      4847	00000000	00000013	addi	x0,x0,0	  x0:0x00000000
       48495000	      4848	8000105c	00000013	addi	x0,x0,0	  x0:0x00000000
       48505000	      4849	80001060	007e8d33	add	x26,x29,x7	 x29:0x80000ddc  x7:0x00000001 x26=0x80000ddd
       48515000	      4850	80001064	16c5ec13	ori	x24,x11,364	 x11:0x80000cc0 x24=0x80000dec
       48525000	      4851	80001068	004fa883	lw	x17,4(x31)	 x31:0x80009ef4 x17=0x80000284 PA:0x80009ef8
       48535000	      4852	8000106c	1d73fa13	andi	x20,x7,471	  x7:0x00000001 x20=0x00000001
       48545000	      4853	80001070	ad694813	xori	x16,x18,-1322	 x18:0x00000001 x16=0xfffffad7
       48555000	      4854	80001074	030f8f93	addi	x31,x31,48	 x31:0x80009ef4 x31=0x80009f24
       48565000	      4855	80001078	308e5017	auipc	x0,0x308e5	
       48575000	      4856	8000107c	41775213	srai	x4,x14,0x17	 x14:0xfffffff5  x4=0xffffffff
       48585000	      4857	80001080	01c7c033	xor	x0,x15,x28	 x15:0x80009fc4 x28:0xffffff00
       48595000	      4858	80001084	ca612693	slti	x13,x2,-858	  x2:0xbd232e47 x13=0x00000001
       48605000	      4859	80001088	40658f33	sub	x30,x11,x6	 x11:0x80000cc0  x6:0x00000000 x30=0x80000cc0
       48615000	      4860	8000108c	00188293	addi	x5,x17,1	 x17:0x80000284  x5=0x80000285
       48625000	      4861	80001090	000282e7	jalr	x5,x5,0	  x5:0x80000285  x5=0x80001090
       48635000	      4862	00000000	00000013	addi	x0,x0,0	  x0:0x00000000
       48645000	      4863	80000284	00000013	addi	x0,x0,0	  x0:0x00000000
       48655000	      4864	80000288	84533413	sltiu	x8,x6,-1979	  x6:0x00000000  x8=0x00000001
       48665000	      4865	8000028c	00000013	addi	x0,x0,0	  x0:0x00000000
       48675000	      4866	80000290	fc73b013	sltiu	x0,x7,-57	  x7:0x00000001
       48685000	      4867	80000294	00000013	addi	x0,x0,0	  x0:0x00000000
       48695000	      4868	80000298	4d532e13	slti	x28,x6,1237	  x6:0x00000000 x28=0x00000001
       48705000	      4869	8000029c	00000013	addi	x0,x0,0	  x0:0x00000000
       48715000	      4870	800002a0	374f8c13	addi	x24,x31,884	 x31:0x80009f24 x24=0x8000a298
       48725000	      4871	800002a4	01364833	xor	x16,x12,x19	 x12:0xffffff00 x19:0x0007ffff x16=0xfff800ff
       48735000	      4872	800002a8	01e65c13	srli	x24,x12,0x1e	 x12:0xffffff00 x24=0x00000003
       48745000	      4873	800002ac	121008ef	jal	x17,800002ac	 x17=0x800002ac
       48755000	      4874	00000000	00000013	addi	x0,x0,0	  x0:0x00000000
       48765000	      4875	80000bc8	00000013	addi	x0,x0,0	  x0:0x00000000
       48775000	      4876	80000bcc	004913b3	sll	x7,x18,x4	 x18:0x00000001  x4:0xffffffff  x7=0x80000000
       48785000	      4877	80000bd0	0121fb33	and	x22,x3,x18	  x3:0x80000c94 x18:0x00000001 x22=0x00000000
       48795000	      4878	80000bd4	41545c93	srai	x25,x8,0x15	  x8:0x00000001 x25=0x00000000
       48805000	      4879	80000bd8	01e0f663	bgeu	x1,x30,80000be4	  x1:0x0fe5a018 x30:0x80000cc0
       48815000	      4880	80000bdc	2fce0c13	addi	x24,x28,764	 x28:0x00000001 x24=0x000002fd
       48825000	      4881	80000be0	00000013	addi	x0,x0,0	  x0:0x00000000
       48835000	      4882	80000be4	fd0f8f93	addi	x31,x31,-48	 x31:0x80009f24 x31=0x80009ef4
       48845000	      4883	80000be8	011fa223	sw	x17,4(x31)	 x31:0x80009ef4 x17:0x800002ac PA:0x80009ef8
       48855000	      4884	80000bec	3b870493	addi	x9,x14,952	 x14:0xfffffff5  x9=0x000003ad
       48865000	      4885	80000bf0	40d65913	srai	x18,x12,0xd	 x12:0xffffff00 x18=0xffffffff
       48875000	      4886	80000bf4	41525013	srai	x0,x4,0x15	  x4:0xffffffff
       48885000	      4887	80000bf8	fde9e613	ori	x12,x19,-34	 x19:0x0007ffff x12=0xffffffff
       48895000	      4888	80000bfc	777e6913	ori	x18,x28,1911	 x28:0x00000001 x18=0x00000777
       48905000	      4889	80000c00	202e7693	andi	x13,x28,514	 x28:0x00000001 x13=0x00000000
       48915000	      4890	80000c04	469fea13	ori	x20,x31,1129	 x31:0x80009ef4 x20=0x80009efd
       48925000	      4891	80000c08	30fead13	slti	x26,x29,783	 x29:0x80000ddc x26=0x00000001
       48935000	      4892	80000c0c	01aeab33	slt	x22,x29,x26	 x29:0x80000ddc x26:0x00000001 x22=0x00000001
       48945000	      4893	80000c10	484008ef	jal	x17,80000c10	 x17=0x80000c10
       48955000	      4894	00000000	00000013	addi	x0,x0,0	  x0:0x00000000
       48965000	      4895	80001090	00000013	addi	x0,x0,0	  x0:0x00000000
       48975000	      4896	80001094	00b484b3	add	x9,x9,x11	  x9:0x000003ad x11:0x80000cc0  x9=0x8000106d
       48985000	      4897	80001098	000615b3	sll	x11,x12,x0	 x12:0xffffffff  x0:0x00000000 x11=0xffffffff
       48995000	      4898	8000109c	ff8f8f93	addi	x31,x31,-8	 x31:0x80009ef4 x31=0x80009eec
       49005000	      4899	800010a0	011fa223	sw	x17,4(x31)	 x31:0x80009eec x17:0x80000c10 PA:0x80009ef0
       49015000	      4900	800010a4	00e05e33	srl	x28,x0,x14	  x0:0x00000000 x14:0xfffffff5 x28=0x00000000
       49025000	      4901	800010a8	00a45833	srl	x16,x8,x10	  x8:0x00000001 x10:0x80000de0 x16=0x00000001
       49035000	      4902	800010ac	01401233	sll	x4,x0,x20	  x0:0x00000000 x20:0x80009efd  x4=0x00000000
       49045000	      4903	800010b0	00000013	addi	x0,x0,0	  x0:0x00000000
       49055000	      4904	800010b4	014008ef	jal	x17,800010b4	 x17=0x800010b4
       49065000	      4905	00000000	00000013	addi	x0,x0,0	  x0:0x00000000
       49075000	      4906	800010c4	00000013	addi	x0,x0,0	  x0:0x00000000
       49085000	      4907	800010c8	014000ef	jal	x1,800010c8	  x1=0x800010c8
       49095000	      4908	00000000	00000013	addi	x0,x0,0	  x0:0x00000000
       49105000	      4909	800010d8	00000013	addi	x0,x0,0	  x0:0x00000000
       49115000	      4910	800010dc	ff9ff0ef	jal	x1,800010dc	  x1=0x800010dc
       49125000	      4911	00000000	00000013	addi	x0,x0,0	  x0:0x00000000
       49135000	      4912	800010d0	00000013	addi	x0,x0,0	  x0:0x00000000
       49145000	      4913	800010d4	ff9ff0ef	jal	x1,800010d4	  x1=0x800010d4
       49155000	      4914	00000000	00000013	addi	x0,x0,0	  x0:0x00000000
       49165000	      4915	800010c8	00000013	addi	x0,x0,0	  x0:0x00000000
       49175000	      4916	800010cc	ff5ff0ef	jal	x1,800010cc	  x1=0x800010cc
       49185000	      4917	00000000	00000013	addi	x0,x0,0	  x0:0x00000000
       49195000	      4918	800010bc	00000013	addi	x0,x0,0	  x0:0x00000000
       49205000	      4919	800010c0	ff9ff0ef	jal	x1,800010c0	  x1=0x800010c0
       49215000	      4920	00000000	00000013	addi	x0,x0,0	  x0:0x00000000
       49225000	      4921	800010b4	00000013	addi	x0,x0,0	  x0:0x00000000
       49235000	      4922	800010b8	020000ef	jal	x1,800010b8	  x1=0x800010b8
       49245000	      4923	00000000	00000013	addi	x0,x0,0	  x0:0x00000000
       49255000	      4924	800010d4	00000013	addi	x0,x0,0	  x0:0x00000000
       49265000	      4925	800010d8	fedff0ef	jal	x1,800010d8	  x1=0x800010d8
       49275000	      4926	00000000	00000013	addi	x0,x0,0	  x0:0x00000000
       49285000	      4927	800010c0	00000013	addi	x0,x0,0	  x0:0x00000000
       49295000	      4928	800010c4	00c00c6f	jal	x24,800010c4	 x24=0x800010c4
       49305000	      4929	00000000	00000013	addi	x0,x0,0	  x0:0x00000000
       49315000	      4930	800010cc	00000013	addi	x0,x0,0	  x0:0x00000000
       49325000	      4931	800010d0	fedff3ef	jal	x7,800010d0	  x7=0x800010d0
       49335000	      4932	00000000	00000013	addi	x0,x0,0	  x0:0x00000000
       49345000	      4933	800010b8	00000013	addi	x0,x0,0	  x0:0x00000000
       49355000	      4934	800010bc	024000ef	jal	x1,800010bc	  x1=0x800010bc
       49365000	      4935	00000000	00000013	addi	x0,x0,0	  x0:0x00000000
       49375000	      4936	800010dc	00000013	addi	x0,x0,0	  x0:0x00000000
       49385000	      4937	800010e0	00d90933	add	x18,x18,x13	 x18:0x00000777 x13:0x00000000 x18=0x00000777
       49395000	      4938	800010e4	034008ef	jal	x17,800010e4	 x17=0x800010e4
       49405000	      4939	00000000	00000013	addi	x0,x0,0	  x0:0x00000000
       49415000	      4940	80001114	00000013	addi	x0,x0,0	  x0:0x00000000
       49425000	      4941	80001118	fe9ff1ef	jal	x3,80001118	  x3=0x80001118
       49435000	      4942	00000000	00000013	addi	x0,x0,0	  x0:0x00000000
       49445000	      4943	800010fc	00000013	addi	x0,x0,0	  x0:0x00000000
       49455000	      4944	80001100	0140036f	jal	x6,80001100	  x6=0x80001100
       49465000	      4945	00000000	00000013	addi	x0,x0,0	  x0:0x00000000
       49475000	      4946	80001110	00000013	addi	x0,x0,0	  x0:0x00000000
       49485000	      4947	80001114	ff1ff0ef	jal	x1,80001114	  x1=0x80001114
       49495000	      4948	00000000	00000013	addi	x0,x0,0	  x0:0x00000000
       49505000	      4949	80001100	00000013	addi	x0,x0,0	  x0:0x00000000
       49515000	      4950	80001104	fe5ff0ef	jal	x1,80001104	  x1=0x80001104
       49525000	      4951	00000000	00000013	addi	x0,x0,0	  x0:0x00000000
       49535000	      4952	800010e4	00000013	addi	x0,x0,0	  x0:0x00000000
       49545000	      4953	800010e8	0240036f	jal	x6,800010e8	  x6=0x800010e8
       49555000	      4954	00000000	00000013	addi	x0,x0,0	  x0:0x00000000
       49565000	      4955	80001108	00000013	addi	x0,x0,0	  x0:0x00000000
       49575000	      4956	8000110c	fe9ff0ef	jal	x1,8000110c	  x1=0x8000110c
       49585000	      4957	00000000	00000013	addi	x0,x0,0	  x0:0x00000000
       49595000	      4958	800010f0	00000013	addi	x0,x0,0	  x0:0x00000000
       49605000	      4959	800010f4	01c0036f	jal	x6,800010f4	  x6=0x800010f4
       49615000	      4960	00000000	00000013	addi	x0,x0,0	  x0:0x00000000
       49625000	      4961	8000110c	00000013	addi	x0,x0,0	  x0:0x00000000
       49635000	      4962	80001110	fe1ff0ef	jal	x1,80001110	  x1=0x80001110
       49645000	      4963	00000000	00000013	addi	x0,x0,0	  x0:0x00000000
       49655000	      4964	800010ec	00000013	addi	x0,x0,0	  x0:0x00000000
       49665000	      4965	800010f0	008004ef	jal	x9,800010f0	  x9=0x800010f0
       49675000	      4966	00000000	00000013	addi	x0,x0,0	  x0:0x00000000
       49685000	      4967	800010f4	00000013	addi	x0,x0,0	  x0:0x00000000
       49695000	      4968	800010f8	024000ef	jal	x1,800010f8	  x1=0x800010f8
       49705000	      4969	00000000	00000013	addi	x0,x0,0	  x0:0x00000000
       49715000	      4970	80001118	00000013	addi	x0,x0,0	  x0:0x00000000
       49725000	      4971	8000111c	fe1ff0ef	jal	x1,8000111c	  x1=0x8000111c
       49735000	      4972	00000000	00000013	addi	x0,x0,0	  x0:0x00000000
       49745000	      4973	800010f8	00000013	addi	x0,x0,0	  x0:0x00000000
       49755000	      4974	800010fc	00c00eef	jal	x29,800010fc	 x29=0x800010fc
       49765000	      4975	00000000	00000013	addi	x0,x0,0	  x0:0x00000000
       49775000	      4976	80001104	00000013	addi	x0,x0,0	  x0:0x00000000
       49785000	      4977	80001108	fe5ff0ef	jal	x1,80001108	  x1=0x80001108
       49795000	      4978	00000000	00000013	addi	x0,x0,0	  x0:0x00000000
       49805000	      4979	800010e8	00000013	addi	x0,x0,0	  x0:0x00000000
       49815000	      4980	800010ec	0340086f	jal	x16,800010ec	 x16=0x800010ec
       49825000	      4981	00000000	00000013	addi	x0,x0,0	  x0:0x00000000
       49835000	      4982	8000111c	00000013	addi	x0,x0,0	  x0:0x00000000
       49845000	      4983	80001120	44798d93	addi	x27,x19,1095	 x19:0x0007ffff x27=0x00080446
       49855000	      4984	80001124	04c008ef	jal	x17,80001124	 x17=0x80001124
       49865000	      4985	00000000	00000013	addi	x0,x0,0	  x0:0x00000000
       49875000	      4986	8000116c	00000013	addi	x0,x0,0	  x0:0x00000000
       49885000	      4987	80001170	fe1ff1ef	jal	x3,80001170	  x3=0x80001170
       49895000	      4988	00000000	00000013	addi	x0,x0,0	  x0:0x00000000
       49905000	      4989	8000114c	00000013	addi	x0,x0,0	  x0:0x00000000
       49915000	      4990	80001150	034000ef	jal	x1,80001150	  x1=0x80001150
       49925000	      4991	00000000	00000013	addi	x0,x0,0	  x0:0x00000000
       49935000	      4992	80001180	00000013	addi	x0,x0,0	  x0:0x00000000
       49945000	      4993	80001184	ff5ff0ef	jal	x1,80001184	  x1=0x80001184
       49955000	      4994	00000000	00000013	addi	x0,x0,0	  x0:0x00000000
       49965000	      4995	80001174	00000013	addi	x0,x0,0	  x0:0x00000000
       49975000	      4996	80001178	fc1ff36f	jal	x6,80001178	  x6=0x80001178
       49985000	      4997	00000000	00000013	addi	x0,x0,0	  x0:0x00000000
       49995000	      4998	80001134	00000013	addi	x0,x0,0	  x0:0x00000000
       50005000	      4999	80001138	00c000ef	jal	x1,80001138	  x1=0x80001138
       50015000	      5000	00000000	00000013	addi	x0,x0,0	  x0:0x00000000
       50025000	      5001	80001140	00000013	addi	x0,x0,0	  x0:0x00000000
       50035000	      5002	80001144	ff9ff66f	jal	x12,80001144	 x12=0x80001144
       50045000	      5003	00000000	00000013	addi	x0,x0,0	  x0:0x00000000
       50055000	      5004	80001138	00000013	addi	x0,x0,0	  x0:0x00000000
       50065000	      5005	8000113c	01000def	jal	x27,8000113c	 x27=0x8000113c
       50075000	      5006	00000000	00000013	addi	x0,x0,0	  x0:0x00000000
       50085000	      5007	80001148	00000013	addi	x0,x0,0	  x0:0x00000000
       50095000	      5008	8000114c	03c0086f	jal	x16,8000114c	 x16=0x8000114c
       50105000	      5009	00000000	00000013	addi	x0,x0,0	  x0:0x00000000
       50115000	      5010	80001184	00000013	addi	x0,x0,0	  x0:0x00000000
       50125000	      5011	80001188	fe5ff36f	jal	x6,80001188	  x6=0x80001188
       50135000	      5012	00000000	00000013	addi	x0,x0,0	  x0:0x00000000
       50145000	      5013	80001168	00000013	addi	x0,x0,0	  x0:0x00000000
       50155000	      5014	8000116c	fc1ff36f	jal	x6,8000116c	  x6=0x8000116c
       50165000	      5015	00000000	00000013	addi	x0,x0,0	  x0:0x00000000
       50175000	      5016	80001128	00000013	addi	x0,x0,0	  x0:0x00000000
       50185000	      5017	8000112c	0080086f	jal	x16,8000112c	 x16=0x8000112c
       50195000	      5018	00000000	00000013	addi	x0,x0,0	  x0:0x00000000
       50205000	      5019	80001130	00000013	addi	x0,x0,0	  x0:0x00000000
       50215000	      5020	80001134	028000ef	jal	x1,80001134	  x1=0x80001134
       50225000	      5021	00000000	00000013	addi	x0,x0,0	  x0:0x00000000
       50235000	      5022	80001158	00000013	addi	x0,x0,0	  x0:0x00000000
       50245000	      5023	8000115c	fedff0ef	jal	x1,8000115c	  x1=0x8000115c
       50255000	      5024	00000000	00000013	addi	x0,x0,0	  x0:0x00000000
       50265000	      5025	80001144	00000013	addi	x0,x0,0	  x0:0x00000000
       50275000	      5026	80001148	048000ef	jal	x1,80001148	  x1=0x80001148
       50285000	      5027	00000000	00000013	addi	x0,x0,0	  x0:0x00000000
       50295000	      5028	8000118c	00000013	addi	x0,x0,0	  x0:0x00000000
       50305000	      5029	80001190	fc9ff86f	jal	x16,80001190	 x16=0x80001190
       50315000	      5030	00000000	00000013	addi	x0,x0,0	  x0:0x00000000
       50325000	      5031	80001154	00000013	addi	x0,x0,0	  x0:0x00000000
       50335000	      5032	80001158	02800def	jal	x27,80001158	 x27=0x80001158
       50345000	      5033	00000000	00000013	addi	x0,x0,0	  x0:0x00000000
       50355000	      5034	8000117c	00000013	addi	x0,x0,0	  x0:0x00000000
       50365000	      5035	80001180	fe1ff0ef	jal	x1,80001180	  x1=0x80001180
       50375000	      5036	00000000	00000013	addi	x0,x0,0	  x0:0x00000000
       50385000	      5037	8000115c	00000013	addi	x0,x0,0	  x0:0x00000000
       50395000	      5038	80001160	01c00d6f	jal	x26,80001160	 x26=0x80001160
       50405000	      5039	00000000	00000013	addi	x0,x0,0	  x0:0x00000000
       50415000	      5040	80001178	00000013	addi	x0,x0,0	  x0:0x00000000
       50425000	      5041	8000117c	fe9ff0ef	jal	x1,8000117c	  x1=0x8000117c
       50435000	      5042	00000000	00000013	addi	x0,x0,0	  x0:0x00000000
       50445000	      5043	80001160	00000013	addi	x0,x0,0	  x0:0x00000000
       50455000	      5044	80001164	fddff0ef	jal	x1,80001164	  x1=0x80001164
       50465000	      5045	00000000	00000013	addi	x0,x0,0	  x0:0x00000000
       50475000	      5046	8000113c	00000013	addi	x0,x0,0	  x0:0x00000000
       50485000	      5047	80001140	04c002ef	jal	x5,80001140	  x5=0x80001140
       50495000	      5048	00000000	00000013	addi	x0,x0,0	  x0:0x00000000
       50505000	      5049	80001188	00000013	addi	x0,x0,0	  x0:0x00000000
       50515000	      5050	8000118c	fe9ff0ef	jal	x1,8000118c	  x1=0x8000118c
       50525000	      5051	00000000	00000013	addi	x0,x0,0	  x0:0x00000000
       50535000	      5052	80001170	00000013	addi	x0,x0,0	  x0:0x00000000
       50545000	      5053	80001174	fbdff0ef	jal	x1,80001174	  x1=0x80001174
       50555000	      5054	00000000	00000013	addi	x0,x0,0	  x0:0x00000000
       50565000	      5055	8000112c	00000013	addi	x0,x0,0	  x0:0x00000000
       50575000	      5056	80001130	ff9ff0ef	jal	x1,80001130	  x1=0x80001130
       50585000	      5057	00000000	00000013	addi	x0,x0,0	  x0:0x00000000
       50595000	      5058	80001124	00000013	addi	x0,x0,0	  x0:0x00000000
       50605000	      5059	80001128	0400036f	jal	x6,80001128	  x6=0x80001128
       50615000	      5060	00000000	00000013	addi	x0,x0,0	  x0:0x00000000
       50625000	      5061	80001164	00000013	addi	x0,x0,0	  x0:0x00000000
       50635000	      5062	80001168	fedff86f	jal	x16,80001168	 x16=0x80001168
       50645000	      5063	00000000	00000013	addi	x0,x0,0	  x0:0x00000000
       50655000	      5064	80001150	00000013	addi	x0,x0,0	  x0:0x00000000
       50665000	      5065	80001154	040000ef	jal	x1,80001154	  x1=0x80001154
       50675000	      5066	00000000	00000013	addi	x0,x0,0	  x0:0x00000000
       50685000	      5067	80001190	00000013	addi	x0,x0,0	  x0:0x00000000
       50695000	      5068	80001194	01a054b3	srl	x9,x0,x26	  x0:0x00000000 x26:0x80001160  x9=0x00000000
       50705000	      5069	80001198	004008ef	jal	x17,80001198	 x17=0x80001198
       50715000	      5070	00000000	00000013	addi	x0,x0,0	  x0:0x00000000
       50725000	      5071	80001198	00000013	addi	x0,x0,0	  x0:0x00000000
       50735000	      5072	8000119c	028000ef	jal	x1,8000119c	  x1=0x8000119c
       50745000	      5073	00000000	00000013	addi	x0,x0,0	  x0:0x00000000
       50755000	      5074	800011c0	00000013	addi	x0,x0,0	  x0:0x00000000
       50765000	      5075	800011c4	fe1ff3ef	jal	x7,800011c4	  x7=0x800011c4
       50775000	      5076	00000000	00000013	addi	x0,x0,0	  x0:0x00000000
       50785000	      5077	800011a0	00000013	addi	x0,x0,0	  x0:0x00000000
       50795000	      5078	800011a4	00c0036f	jal	x6,800011a4	  x6=0x800011a4
       50805000	      5079	00000000	00000013	addi	x0,x0,0	  x0:0x00000000
       50815000	      5080	800011ac	00000013	addi	x0,x0,0	  x0:0x00000000
       50825000	      5081	800011b0	00c0076f	jal	x14,800011b0	 x14=0x800011b0
       50835000	      5082	00000000	00000013	addi	x0,x0,0	  x0:0x00000000
       50845000	      5083	800011b8	00000013	addi	x0,x0,0	  x0:0x00000000
       50855000	      5084	800011bc	fe5ff36f	jal	x6,800011bc	  x6=0x800011bc
       50865000	      5085	00000000	00000013	addi	x0,x0,0	  x0:0x00000000
       50875000	      5086	8000119c	00000013	addi	x0,x0,0	  x0:0x00000000
       50885000	      5087	800011a0	008001ef	jal	x3,800011a0	  x3=0x800011a0
       50895000	      5088	00000000	00000013	addi	x0,x0,0	  x0:0x00000000
       50905000	      5089	800011a4	00000013	addi	x0,x0,0	  x0:0x00000000
       50915000	      5090	800011a8	0100036f	jal	x6,800011a8	  x6=0x800011a8
       50925000	      5091	00000000	00000013	addi	x0,x0,0	  x0:0x00000000
       50935000	      5092	800011b4	00000013	addi	x0,x0,0	  x0:0x00000000
       50945000	      5093	800011b8	008000ef	jal	x1,800011b8	  x1=0x800011b8
       50955000	      5094	00000000	00000013	addi	x0,x0,0	  x0:0x00000000
       50965000	      5095	800011bc	00000013	addi	x0,x0,0	  x0:0x00000000
       50975000	      5096	800011c0	fedffb6f	jal	x22,800011c0	 x22=0x800011c0
       50985000	      5097	00000000	00000013	addi	x0,x0,0	  x0:0x00000000
       50995000	      5098	800011a8	00000013	addi	x0,x0,0	  x0:0x00000000
       51005000	      5099	800011ac	008000ef	jal	x1,800011ac	  x1=0x800011ac
       51015000	      5100	00000000	00000013	addi	x0,x0,0	  x0:0x00000000
       51025000	      5101	800011b0	00000013	addi	x0,x0,0	  x0:0x00000000
       51035000	      5102	800011b4	014000ef	jal	x1,800011b4	  x1=0x800011b4
       51045000	      5103	00000000	00000013	addi	x0,x0,0	  x0:0x00000000
       51055000	      5104	800011c4	00000013	addi	x0,x0,0	  x0:0x00000000
       51065000	      5105	800011c8	99b60513	addi	x10,x12,-1637	 x12:0x80001144 x10=0x80000adf
       51075000	      5106	800011cc	018008ef	jal	x17,800011cc	 x17=0x800011cc
       51085000	      5107	00000000	00000013	addi	x0,x0,0	  x0:0x00000000
       51095000	      5108	800011e0	00000013	addi	x0,x0,0	  x0:0x00000000
       51105000	      5109	800011e4	030000ef	jal	x1,800011e4	  x1=0x800011e4
       51115000	      5110	00000000	00000013	addi	x0,x0,0	  x0:0x00000000
       51125000	      5111	80001210	00000013	addi	x0,x0,0	  x0:0x00000000
       51135000	      5112	80001214	fc9ff0ef	jal	x1,80001214	  x1=0x80001214
       51145000	      5113	00000000	00000013	addi	x0,x0,0	  x0:0x00000000
       51155000	      5114	800011d8	00000013	addi	x0,x0,0	  x0:0x00000000
       51165000	      5115	800011dc	03c00def	jal	x27,800011dc	 x27=0x800011dc
       51175000	      5116	00000000	00000013	addi	x0,x0,0	  x0:0x00000000
       51185000	      5117	80001214	00000013	addi	x0,x0,0	  x0:0x00000000
       51195000	      5118	80001218	fe9ff2ef	jal	x5,80001218	  x5=0x80001218
       51205000	      5119	00000000	00000013	addi	x0,x0,0	  x0:0x00000000
       51215000	      5120	800011fc	00000013	addi	x0,x0,0	  x0:0x00000000
       51225000	      5121	80001200	008000ef	jal	x1,80001200	  x1=0x80001200
       51235000	      5122	00000000	00000013	addi	x0,x0,0	  x0:0x00000000
       51245000	      5123	80001204	00000013	addi	x0,x0,0	  x0:0x00000000
       51255000	      5124	80001208	0280036f	jal	x6,80001208	  x6=0x80001208
       51265000	      5125	00000000	00000013	addi	x0,x0,0	  x0:0x00000000
       51275000	      5126	8000122c	00000013	addi	x0,x0,0	  x0:0x00000000
       51285000	      5127	80001230	fa5ff36f	jal	x6,80001230	  x6=0x80001230
       51295000	      5128	00000000	00000013	addi	x0,x0,0	  x0:0x00000000
       51305000	      5129	800011d0	00000013	addi	x0,x0,0	  x0:0x00000000
       51315000	      5130	800011d4	014000ef	jal	x1,800011d4	  x1=0x800011d4
       51325000	      5131	00000000	00000013	addi	x0,x0,0	  x0:0x00000000
       51335000	      5132	800011e4	00000013	addi	x0,x0,0	  x0:0x00000000
       51345000	      5133	800011e8	fe9ff0ef	jal	x1,800011e8	  x1=0x800011e8
       51355000	      5134	00000000	00000013	addi	x0,x0,0	  x0:0x00000000
       51365000	      5135	800011cc	00000013	addi	x0,x0,0	  x0:0x00000000
       51375000	      5136	800011d0	04c000ef	jal	x1,800011d0	  x1=0x800011d0
       51385000	      5137	00000000	00000013	addi	x0,x0,0	  x0:0x00000000
       51395000	      5138	80001218	00000013	addi	x0,x0,0	  x0:0x00000000
       51405000	      5139	8000121c	010000ef	jal	x1,8000121c	  x1=0x8000121c
       51415000	      5140	00000000	00000013	addi	x0,x0,0	  x0:0x00000000
       51425000	      5141	80001228	00000013	addi	x0,x0,0	  x0:0x00000000
       51435000	      5142	8000122c	fc5ff0ef	jal	x1,8000122c	  x1=0x8000122c
       51445000	      5143	00000000	00000013	addi	x0,x0,0	  x0:0x00000000
       51455000	      5144	800011ec	00000013	addi	x0,x0,0	  x0:0x00000000
       51465000	      5145	800011f0	0300096f	jal	x18,800011f0	 x18=0x800011f0
       51475000	      5146	00000000	00000013	addi	x0,x0,0	  x0:0x00000000
       51485000	      5147	8000121c	00000013	addi	x0,x0,0	  x0:0x00000000
       51495000	      5148	80001220	008000ef	jal	x1,80001220	  x1=0x80001220
       51505000	      5149	00000000	00000013	addi	x0,x0,0	  x0:0x00000000
       51515000	      5150	80001224	00000013	addi	x0,x0,0	  x0:0x00000000
       51525000	      5151	80001228	fe5ff0ef	jal	x1,80001228	  x1=0x80001228
       51535000	      5152	00000000	00000013	addi	x0,x0,0	  x0:0x00000000
       51545000	      5153	80001208	00000013	addi	x0,x0,0	  x0:0x00000000
       51555000	      5154	8000120c	fcdff0ef	jal	x1,8000120c	  x1=0x8000120c
       51565000	      5155	00000000	00000013	addi	x0,x0,0	  x0:0x00000000
       51575000	      5156	800011d4	00000013	addi	x0,x0,0	  x0:0x00000000
       51585000	      5157	800011d8	014000ef	jal	x1,800011d8	  x1=0x800011d8
       51595000	      5158	00000000	00000013	addi	x0,x0,0	  x0:0x00000000
       51605000	      5159	800011e8	00000013	addi	x0,x0,0	  x0:0x00000000
       51615000	      5160	800011ec	02400eef	jal	x29,800011ec	 x29=0x800011ec
       51625000	      5161	00000000	00000013	addi	x0,x0,0	  x0:0x00000000
       51635000	      5162	8000120c	00000013	addi	x0,x0,0	  x0:0x00000000
       51645000	      5163	80001210	024001ef	jal	x3,80001210	  x3=0x80001210
       51655000	      5164	00000000	00000013	addi	x0,x0,0	  x0:0x00000000
       51665000	      5165	80001230	00000013	addi	x0,x0,0	  x0:0x00000000
       51675000	      5166	80001234	fc9ff0ef	jal	x1,80001234	  x1=0x80001234
       51685000	      5167	00000000	00000013	addi	x0,x0,0	  x0:0x00000000
       51695000	      5168	800011f8	00000013	addi	x0,x0,0	  x0:0x00000000
       51705000	      5169	800011fc	0080036f	jal	x6,800011fc	  x6=0x800011fc
       51715000	      5170	00000000	00000013	addi	x0,x0,0	  x0:0x00000000
       51725000	      5171	80001200	00000013	addi	x0,x0,0	  x0:0x00000000
       51735000	      5172	80001204	020000ef	jal	x1,80001204	  x1=0x80001204
       51745000	      5173	00000000	00000013	addi	x0,x0,0	  x0:0x00000000
       51755000	      5174	80001220	00000013	addi	x0,x0,0	  x0:0x00000000
       51765000	      5175	80001224	fd1ff0ef	jal	x1,80001224	  x1=0x80001224
       51775000	      5176	00000000	00000013	addi	x0,x0,0	  x0:0x00000000
       51785000	      5177	800011f0	00000013	addi	x0,x0,0	  x0:0x00000000
       51795000	      5178	800011f4	fedff0ef	jal	x1,800011f4	  x1=0x800011f4
       51805000	      5179	00000000	00000013	addi	x0,x0,0	  x0:0x00000000
       51815000	      5180	800011dc	00000013	addi	x0,x0,0	  x0:0x00000000
       51825000	      5181	800011e0	018000ef	jal	x1,800011e0	  x1=0x800011e0
       51835000	      5182	00000000	00000013	addi	x0,x0,0	  x0:0x00000000
       51845000	      5183	800011f4	00000013	addi	x0,x0,0	  x0:0x00000000
       51855000	      5184	800011f8	0400076f	jal	x14,800011f8	 x14=0x800011f8
       51865000	      5185	00000000	00000013	addi	x0,x0,0	  x0:0x00000000
       51875000	      5186	80001234	00000013	addi	x0,x0,0	  x0:0x00000000
       51885000	      5187	80001238	00000013	addi	x0,x0,0	  x0:0x00000000
       51895000	      5188	8000123c	020008ef	jal	x17,8000123c	 x17=0x8000123c
       51905000	      5189	00000000	00000013	addi	x0,x0,0	  x0:0x00000000
       51915000	      5190	80001258	00000013	addi	x0,x0,0	  x0:0x00000000
       51925000	      5191	8000125c	014000ef	jal	x1,8000125c	  x1=0x8000125c
       51935000	      5192	00000000	00000013	addi	x0,x0,0	  x0:0x00000000
       51945000	      5193	8000126c	00000013	addi	x0,x0,0	  x0:0x00000000
       51955000	      5194	80001270	fe9ff0ef	jal	x1,80001270	  x1=0x80001270
       51965000	      5195	00000000	00000013	addi	x0,x0,0	  x0:0x00000000
       51975000	      5196	80001254	00000013	addi	x0,x0,0	  x0:0x00000000
       51985000	      5197	80001258	ff9ff36f	jal	x6,80001258	  x6=0x80001258
       51995000	      5198	00000000	00000013	addi	x0,x0,0	  x0:0x00000000
       52005000	      5199	8000124c	00000013	addi	x0,x0,0	  x0:0x00000000
       52015000	      5200	80001250	ffdff66f	jal	x12,80001250	 x12=0x80001250
       52025000	      5201	00000000	00000013	addi	x0,x0,0	  x0:0x00000000
       52035000	      5202	80001248	00000013	addi	x0,x0,0	  x0:0x00000000
       52045000	      5203	8000124c	00800a6f	jal	x20,8000124c	 x20=0x8000124c
       52055000	      5204	00000000	00000013	addi	x0,x0,0	  x0:0x00000000
       52065000	      5205	80001250	00000013	addi	x0,x0,0	  x0:0x00000000
       52075000	      5206	80001254	02c000ef	jal	x1,80001254	  x1=0x80001254
       52085000	      5207	00000000	00000013	addi	x0,x0,0	  x0:0x00000000
       52095000	      5208	8000127c	00000013	addi	x0,x0,0	  x0:0x00000000
       52105000	      5209	80001280	fe1ff0ef	jal	x1,80001280	  x1=0x80001280
       52115000	      5210	00000000	00000013	addi	x0,x0,0	  x0:0x00000000
       52125000	      5211	8000125c	00000013	addi	x0,x0,0	  x0:0x00000000
       52135000	      5212	80001260	0080066f	jal	x12,80001260	 x12=0x80001260
       52145000	      5213	00000000	00000013	addi	x0,x0,0	  x0:0x00000000
       52155000	      5214	80001264	00000013	addi	x0,x0,0	  x0:0x00000000
       52165000	      5215	80001268	fd9ff36f	jal	x6,80001268	  x6=0x80001268
       52175000	      5216	00000000	00000013	addi	x0,x0,0	  x0:0x00000000
       52185000	      5217	8000123c	00000013	addi	x0,x0,0	  x0:0x00000000
       52195000	      5218	80001240	024000ef	jal	x1,80001240	  x1=0x80001240
       52205000	      5219	00000000	00000013	addi	x0,x0,0	  x0:0x00000000
       52215000	      5220	80001260	00000013	addi	x0,x0,0	  x0:0x00000000
       52225000	      5221	80001264	018008ef	jal	x17,80001264	 x17=0x80001264
       52235000	      5222	00000000	00000013	addi	x0,x0,0	  x0:0x00000000
       52245000	      5223	80001278	00000013	addi	x0,x0,0	  x0:0x00000000
       52255000	      5224	8000127c	fc9ff2ef	jal	x5,8000127c	  x5=0x8000127c
       52265000	      5225	00000000	00000013	addi	x0,x0,0	  x0:0x00000000
       52275000	      5226	80001240	00000013	addi	x0,x0,0	  x0:0x00000000
       52285000	      5227	80001244	0280036f	jal	x6,80001244	  x6=0x80001244
       52295000	      5228	00000000	00000013	addi	x0,x0,0	  x0:0x00000000
       52305000	      5229	80001268	00000013	addi	x0,x0,0	  x0:0x00000000
       52315000	      5230	8000126c	00c000ef	jal	x1,8000126c	  x1=0x8000126c
       52325000	      5231	00000000	00000013	addi	x0,x0,0	  x0:0x00000000
       52335000	      5232	80001274	00000013	addi	x0,x0,0	  x0:0x00000000
       52345000	      5233	80001278	fd1ff8ef	jal	x17,80001278	 x17=0x80001278
       52355000	      5234	00000000	00000013	addi	x0,x0,0	  x0:0x00000000
       52365000	      5235	80001244	00000013	addi	x0,x0,0	  x0:0x00000000
       52375000	      5236	80001248	02c0046f	jal	x8,80001248	  x8=0x80001248
       52385000	      5237	00000000	00000013	addi	x0,x0,0	  x0:0x00000000
       52395000	      5238	80001270	00000013	addi	x0,x0,0	  x0:0x00000000
       52405000	      5239	80001274	0100076f	jal	x14,80001274	 x14=0x80001274
       52415000	      5240	00000000	00000013	addi	x0,x0,0	  x0:0x00000000
       52425000	      5241	80001280	00000013	addi	x0,x0,0	  x0:0x00000000
       52435000	      5242	80001284	41550833	sub	x16,x10,x21	 x10:0x80000adf x21:0xffffe000 x16=0x80002adf
       52445000	      5243	80001288	010008ef	jal	x17,80001288	 x17=0x80001288
       52455000	      5244	00000000	00000013	addi	x0,x0,0	  x0:0x00000000
       52465000	      5245	80001294	00000013	addi	x0,x0,0	  x0:0x00000000
       52475000	      5246	80001298	020006ef	jal	x13,80001298	 x13=0x80001298
       52485000	      5247	00000000	00000013	addi	x0,x0,0	  x0:0x00000000
       52495000	      5248	800012b4	00000013	addi	x0,x0,0	  x0:0x00000000
       52505000	      5249	800012b8	010000ef	jal	x1,800012b8	  x1=0x800012b8
       52515000	      5250	00000000	00000013	addi	x0,x0,0	  x0:0x00000000
       52525000	      5251	800012c4	00000013	addi	x0,x0,0	  x0:0x00000000
       52535000	      5252	800012c8	ff9ff0ef	jal	x1,800012c8	  x1=0x800012c8
       52545000	      5253	00000000	00000013	addi	x0,x0,0	  x0:0x00000000
       52555000	      5254	800012bc	00000013	addi	x0,x0,0	  x0:0x00000000
       52565000	      5255	800012c0	ff5ff2ef	jal	x5,800012c0	  x5=0x800012c0
       52575000	      5256	00000000	00000013	addi	x0,x0,0	  x0:0x00000000
       52585000	      5257	800012b0	00000013	addi	x0,x0,0	  x0:0x00000000
       52595000	      5258	800012b4	018000ef	jal	x1,800012b4	  x1=0x800012b4
       52605000	      5259	00000000	00000013	addi	x0,x0,0	  x0:0x00000000
       52615000	      5260	800012c8	00000013	addi	x0,x0,0	  x0:0x00000000
       52625000	      5261	800012cc	fc5ffaef	jal	x21,800012cc	 x21=0x800012cc
       52635000	      5262	00000000	00000013	addi	x0,x0,0	  x0:0x00000000
       52645000	      5263	8000128c	00000013	addi	x0,x0,0	  x0:0x00000000
       52655000	      5264	80001290	004000ef	jal	x1,80001290	  x1=0x80001290
       52665000	      5265	00000000	00000013	addi	x0,x0,0	  x0:0x00000000
       52675000	      5266	80001290	00000013	addi	x0,x0,0	  x0:0x00000000
       52685000	      5267	80001294	014000ef	jal	x1,80001294	  x1=0x80001294
       52695000	      5268	00000000	00000013	addi	x0,x0,0	  x0:0x00000000
       52705000	      5269	800012a4	00000013	addi	x0,x0,0	  x0:0x00000000
       52715000	      5270	800012a8	fe5ff0ef	jal	x1,800012a8	  x1=0x800012a8
       52725000	      5271	00000000	00000013	addi	x0,x0,0	  x0:0x00000000
       52735000	      5272	80001288	00000013	addi	x0,x0,0	  x0:0x00000000
       52745000	      5273	8000128c	058000ef	jal	x1,8000128c	  x1=0x8000128c
       52755000	      5274	00000000	00000013	addi	x0,x0,0	  x0:0x00000000
       52765000	      5275	800012e0	00000013	addi	x0,x0,0	  x0:0x00000000
       52775000	      5276	800012e4	fc1ff0ef	jal	x1,800012e4	  x1=0x800012e4
       52785000	      5277	00000000	00000013	addi	x0,x0,0	  x0:0x00000000
       52795000	      5278	800012a0	00000013	addi	x0,x0,0	  x0:0x00000000
       52805000	      5279	800012a4	02c000ef	jal	x1,800012a4	  x1=0x800012a4
       52815000	      5280	00000000	00000013	addi	x0,x0,0	  x0:0x00000000
       52825000	      5281	800012cc	00000013	addi	x0,x0,0	  x0:0x00000000
       52835000	      5282	800012d0	0080036f	jal	x6,800012d0	  x6=0x800012d0
       52845000	      5283	00000000	00000013	addi	x0,x0,0	  x0:0x00000000
       52855000	      5284	800012d4	00000013	addi	x0,x0,0	  x0:0x00000000
       52865000	      5285	800012d8	fe5ffaef	jal	x21,800012d8	 x21=0x800012d8
       52875000	      5286	00000000	00000013	addi	x0,x0,0	  x0:0x00000000
       52885000	      5287	800012b8	00000013	addi	x0,x0,0	  x0:0x00000000
       52895000	      5288	800012bc	fe1ff36f	jal	x6,800012bc	  x6=0x800012bc
       52905000	      5289	00000000	00000013	addi	x0,x0,0	  x0:0x00000000
       52915000	      5290	80001298	00000013	addi	x0,x0,0	  x0:0x00000000
       52925000	      5291	8000129c	038000ef	jal	x1,8000129c	  x1=0x8000129c
       52935000	      5292	00000000	00000013	addi	x0,x0,0	  x0:0x00000000
       52945000	      5293	800012d0	00000013	addi	x0,x0,0	  x0:0x00000000
       52955000	      5294	800012d4	fd9ff0ef	jal	x1,800012d4	  x1=0x800012d4
       52965000	      5295	00000000	00000013	addi	x0,x0,0	  x0:0x00000000
       52975000	      5296	800012a8	00000013	addi	x0,x0,0	  x0:0x00000000
       52985000	      5297	800012ac	034000ef	jal	x1,800012ac	  x1=0x800012ac
       52995000	      5298	00000000	00000013	addi	x0,x0,0	  x0:0x00000000
       53005000	      5299	800012dc	00000013	addi	x0,x0,0	  x0:0x00000000
       53015000	      5300	800012e0	ffdff0ef	jal	x1,800012e0	  x1=0x800012e0
       53025000	      5301	00000000	00000013	addi	x0,x0,0	  x0:0x00000000
       53035000	      5302	800012d8	00000013	addi	x0,x0,0	  x0:0x00000000
       53045000	      5303	800012dc	fd5ff26f	jal	x4,800012dc	  x4=0x800012dc
       53055000	      5304	00000000	00000013	addi	x0,x0,0	  x0:0x00000000
       53065000	      5305	800012ac	00000013	addi	x0,x0,0	  x0:0x00000000
       53075000	      5306	800012b0	03c002ef	jal	x5,800012b0	  x5=0x800012b0
       53085000	      5307	00000000	00000013	addi	x0,x0,0	  x0:0x00000000
       53095000	      5308	800012e8	00000013	addi	x0,x0,0	  x0:0x00000000
       53105000	      5309	800012ec	ffdffcef	jal	x25,800012ec	 x25=0x800012ec
       53115000	      5310	00000000	00000013	addi	x0,x0,0	  x0:0x00000000
       53125000	      5311	800012e4	00000013	addi	x0,x0,0	  x0:0x00000000
       53135000	      5312	800012e8	fddff0ef	jal	x1,800012e8	  x1=0x800012e8
       53145000	      5313	00000000	00000013	addi	x0,x0,0	  x0:0x00000000
       53155000	      5314	800012c0	00000013	addi	x0,x0,0	  x0:0x00000000
       53165000	      5315	800012c4	fddffd6f	jal	x26,800012c4	 x26=0x800012c4
       53175000	      5316	00000000	00000013	addi	x0,x0,0	  x0:0x00000000
       53185000	      5317	8000129c	00000013	addi	x0,x0,0	  x0:0x00000000
       53195000	      5318	800012a0	05000c6f	jal	x24,800012a0	 x24=0x800012a0
       53205000	      5319	00000000	00000013	addi	x0,x0,0	  x0:0x00000000
       53215000	      5320	800012ec	00000013	addi	x0,x0,0	  x0:0x00000000
       53225000	      5321	800012f0	4170bd93	sltiu	x27,x1,1047	  x1:0x800012e8 x27=0x00000000
       53235000	      5322	800012f4	00de7d33	and	x26,x28,x13	 x28:0x00000000 x13:0x80001298 x26=0x00000000
       53245000	      5323	800012f8	aede6313	ori	x6,x28,-1299	 x28:0x00000000  x6=0xfffffaed
       53255000	      5324	800012fc	003e76b3	and	x13,x28,x3	 x28:0x00000000  x3:0x80001210 x13=0x00000000
       53265000	      5325	80001300	019a85b3	add	x11,x21,x25	 x21:0x800012d8 x25:0x800012ec x11=0x000025c4
       53275000	      5326	80001304	d0cdba17	auipc	x20,0xd0cdb	 x20=0x50cdc300
       53285000	      5327	80001308	010ee533	or	x10,x29,x16	 x29:0x800011ec x16:0x80002adf x10=0x80003bff
       53295000	      5328	8000130c	02cdd263	bge	x27,x12,80001330	 x27:0x00000000 x12:0x80001260
       53305000	      5329	00000000	00000013	addi	x0,x0,0	  x0:0x00000000
       53315000	      5330	8000132c	00000013	addi	x0,x0,0	  x0:0x00000000
       53325000	      5331	80001330	6223cf13	xori	x30,x7,1570	  x7:0x800011c4 x30=0x800017e6
       53335000	      5332	80001334	21c08513	addi	x10,x1,540	  x1:0x800012e8 x10=0x80001504
       53345000	      5333	80001338	76d7b993	sltiu	x19,x15,1901	 x15:0x80009fc4 x19=0x00000000
       53355000	      5334	8000133c	057f1063	bne	x30,x23,8000137c	 x30:0x800017e6 x23:0x00000001
       53365000	      5335	00000000	00000013	addi	x0,x0,0	  x0:0x00000000
       53375000	      5336	80001378	00000013	addi	x0,x0,0	  x0:0x00000000
       53385000	      5337	8000137c	0189ee33	or	x28,x19,x24	 x19:0x00000000 x24:0x800012a0 x28=0x800012a0
       53395000	      5338	80001380	0737ea63	bltu	x15,x19,800013f4	 x15:0x80009fc4 x19:0x00000000
       53405000	      5339	80001384	9f70f193	andi	x3,x1,-1545	  x1:0x800012e8  x3=0x800010e0
       53415000	      5340	80001388	040a9263	bne	x21,x0,800013cc	 x21:0x800012d8  x0:0x00000000
       53425000	      5341	00000000	00000013	addi	x0,x0,0	  x0:0x00000000
       53435000	      5342	800013c8	00000013	addi	x0,x0,0	  x0:0x00000000
       53445000	      5343	800013cc	019af863	bgeu	x21,x25,800013dc	 x21:0x800012d8 x25:0x800012ec
       53455000	      5344	800013d0	e1ad4013	xori	x0,x26,-486	 x26:0x00000000
       53465000	      5345	800013d4	10c6f693	andi	x13,x13,268	 x13:0x00000000 x13=0x00000000
       53475000	      5346	800013d8	8b98a593	slti	x11,x17,-1863	 x17:0x80001288 x11=0x00000001
       53485000	      5347	800013dc	058d0663	beq	x26,x24,80001428	 x26:0x00000000 x24:0x800012a0
       53495000	      5348	800013e0	91103613	sltiu	x12,x0,-1775	  x0:0x00000000 x12=0x00000001
       53505000	      5349	800013e4	0150d5b3	srl	x11,x1,x21	  x1:0x800012e8 x21:0x800012d8 x11=0x00000080
       53515000	      5350	800013e8	037f9c63	bne	x31,x23,80001420	 x31:0x80009eec x23:0x00000001
       53525000	      5351	00000000	00000013	addi	x0,x0,0	  x0:0x00000000
       53535000	      5352	8000141c	00000013	addi	x0,x0,0	  x0:0x00000000
       53545000	      5353	80001420	00000013	addi	x0,x0,0	  x0:0x00000000
       53555000	      5354	80001424	00071c13	slli	x24,x14,0x0	 x14:0x80001274 x24=0x80001274
       53565000	      5355	80001428	00dd5533	srl	x10,x26,x13	 x26:0x00000000 x13:0x00000000 x10=0x00000000
       53575000	      5356	8000142c	00135393	srli	x7,x6,0x1	  x6:0xfffffaed  x7=0x7ffffd76
       53585000	      5357	80001430	003b05b3	add	x11,x22,x3	 x22:0x800011c0  x3:0x800010e0 x11=0x000022a0
       53595000	      5358	80001434	40cad993	srai	x19,x21,0xc	 x21:0x800012d8 x19=0xfff80001
       53605000	      5359	80001438	038f7e63	bgeu	x30,x24,80001474	 x30:0x800017e6 x24:0x80001274
       53615000	      5360	00000000	00000013	addi	x0,x0,0	  x0:0x00000000
       53625000	      5361	80001470	00000013	addi	x0,x0,0	  x0:0x00000000
       53635000	      5362	80001474	03ab1263	bne	x22,x26,80001498	 x22:0x800011c0 x26:0x00000000
       53645000	      5363	00000000	00000013	addi	x0,x0,0	  x0:0x00000000
       53655000	      5364	80001494	00000013	addi	x0,x0,0	  x0:0x00000000
       53665000	      5365	80001498	01a8dcb3	srl	x25,x17,x26	 x17:0x80001288 x26:0x00000000 x25=0x80001288
       53675000	      5366	8000149c	04274863	blt	x14,x2,800014ec	 x14:0x80001274  x2:0xbd232e47
       53685000	      5367	00000000	00000013	addi	x0,x0,0	  x0:0x00000000
       53695000	      5368	800014e8	00000013	addi	x0,x0,0	  x0:0x00000000
       53705000	      5369	800014ec	03300663	beq	x0,x19,80001518	  x0:0x00000000 x19:0xfff80001
       53715000	      5370	800014f0	405102b3	sub	x5,x2,x5	  x2:0xbd232e47  x5:0x800012b0  x5=0x3d231b97
       53725000	      5371	800014f4	40bed533	sra	x10,x29,x11	 x29:0x800011ec x11:0x000022a0 x10=0x800011ec
       53735000	      5372	800014f8	03261863	bne	x12,x18,80001528	 x12:0x00000001 x18:0x800011f0
       53745000	      5373	00000000	00000013	addi	x0,x0,0	  x0:0x00000000
       53755000	      5374	80001524	00000013	addi	x0,x0,0	  x0:0x00000000
       53765000	      5375	80001528	0158fdb3	and	x27,x17,x21	 x17:0x80001288 x21:0x800012d8 x27=0x80001288
       53775000	      5376	8000152c	01571663	bne	x14,x21,80001538	 x14:0x80001274 x21:0x800012d8
       53785000	      5377	00000000	00000013	addi	x0,x0,0	  x0:0x00000000
       53795000	      5378	80001534	00000013	addi	x0,x0,0	  x0:0x00000000
       53805000	      5379	80001538	41b98f33	sub	x30,x19,x27	 x19:0xfff80001 x27:0x80001288 x30=0x7ff7ed79
       53815000	      5380	8000153c	02a65a63	bge	x12,x10,80001570	 x12:0x00000001 x10:0x800011ec
       53825000	      5381	00000000	00000013	addi	x0,x0,0	  x0:0x00000000
       53835000	      5382	8000156c	00000013	addi	x0,x0,0	  x0:0x00000000
       53845000	      5383	80001570	00000013	addi	x0,x0,0	  x0:0x00000000
       53855000	      5384	80001574	cb5dc613	xori	x12,x27,-843	 x27:0x80001288 x12=0x7fffee3d
       53865000	      5385	80001578	41885ab3	sra	x21,x16,x24	 x16:0x80002adf x24:0x80001274 x21=0xfffff800
       53875000	      5386	8000157c	e49abf13	sltiu	x30,x21,-439	 x21:0xfffff800 x30=0x00000001
       53885000	      5387	80001580	00290c63	beq	x18,x2,80001598	 x18:0x800011f0  x2:0xbd232e47
       53895000	      5388	80001584	02efee63	bltu	x31,x14,800015c0	 x31:0x80009eec x14:0x80001274
       53905000	      5389	80001588	41c104b3	sub	x9,x2,x28	  x2:0xbd232e47 x28:0x800012a0  x9=0x3d231ba7
       53915000	      5390	8000158c	0083ad33	slt	x26,x7,x8	  x7:0x7ffffd76  x8:0x80001248 x26=0x00000000
       53925000	      5391	80001590	db994493	xori	x9,x18,-583	 x18:0x800011f0  x9=0x7fffec49
       53935000	      5392	80001594	02d97863	bgeu	x18,x13,800015c4	 x18:0x800011f0 x13:0x00000000
       53945000	      5393	00000000	00000013	addi	x0,x0,0	  x0:0x00000000
       53955000	      5394	800015c0	00000013	addi	x0,x0,0	  x0:0x00000000
       53965000	      5395	800015c4	014f1e93	slli	x29,x30,0x14	 x30:0x00000001 x29=0x00100000
       53975000	      5396	800015c8	7b42e713	ori	x14,x5,1972	  x5:0x3d231b97 x14=0x3d231fb7
       53985000	      5397	800015cc	01086233	or	x4,x16,x16	 x16:0x80002adf x16:0x80002adf  x4=0x80002adf
       53995000	      5398	800015d0	01845d13	srli	x26,x8,0x18	  x8:0x80001248 x26=0x00000080
       54005000	      5399	800015d4	00b3cb33	xor	x22,x7,x11	  x7:0x7ffffd76 x11:0x000022a0 x22=0x7fffdfd6
       54015000	      5400	800015d8	013266b3	or	x13,x4,x19	  x4:0x80002adf x19:0xfff80001 x13=0xfff82adf
       54025000	      5401	800015dc	01611193	slli	x3,x2,0x16	  x2:0xbd232e47  x3=0x91c00000
       54035000	      5402	800015e0	01dac9b3	xor	x19,x21,x29	 x21:0xfffff800 x29:0x00100000 x19=0xffeff800
       54045000	      5403	800015e4	00201b33	sll	x22,x0,x2	  x0:0x00000000  x2:0xbd232e47 x22=0x00000000
       54055000	      5404	800015e8	00ea0663	beq	x20,x14,800015f4	 x20:0x50cdc300 x14:0x3d231fb7
       54065000	      5405	800015ec	02b7c263	blt	x15,x11,80001610	 x15:0x80009fc4 x11:0x000022a0
       54075000	      5406	00000000	00000013	addi	x0,x0,0	  x0:0x00000000
       54085000	      5407	8000160c	00000013	addi	x0,x0,0	  x0:0x00000000
       54095000	      5408	80001610	01010863	beq	x2,x16,80001620	  x2:0xbd232e47 x16:0x80002adf
       54105000	      5409	80001614	0030abb3	slt	x23,x1,x3	  x1:0x800012e8  x3:0x91c00000 x23=0x00000001
       54115000	      5410	80001618	01c29013	slli	x0,x5,0x1c	  x5:0x3d231b97
       54125000	      5411	8000161c	00b9b8b3	sltu	x17,x19,x11	 x19:0xffeff800 x11:0x000022a0 x17=0x00000000
       54135000	      5412	80001620	40fd8d33	sub	x26,x27,x15	 x27:0x80001288 x15:0x80009fc4 x26=0xffff72c4
       54145000	      5413	80001624	40100e33	sub	x28,x0,x1	  x0:0x00000000  x1:0x800012e8 x28=0x7fffed18
       54155000	      5414	80001628	00628ab3	add	x21,x5,x6	  x5:0x3d231b97  x6:0xfffffaed x21=0x3d231684
       54165000	      5415	8000162c	40fd55b3	sra	x11,x26,x15	 x26:0xffff72c4 x15:0x80009fc4 x11=0xfffff72c
       54175000	      5416	80001630	04734863	blt	x6,x7,80001680	  x6:0xfffffaed  x7:0x7ffffd76
       54185000	      5417	00000000	00000013	addi	x0,x0,0	  x0:0x00000000
       54195000	      5418	8000167c	00000013	addi	x0,x0,0	  x0:0x00000000
       54205000	      5419	80001680	005b52b3	srl	x5,x22,x5	 x22:0x00000000  x5:0x3d231b97  x5=0x00000000
       54215000	      5420	80001684	41350ab3	sub	x21,x10,x19	 x10:0x800011ec x19:0xffeff800 x21=0x801019ec
       54225000	      5421	80001688	7089a893	slti	x17,x19,1800	 x19:0xffeff800 x17=0x00000001
       54235000	      5422	8000168c	00358663	beq	x11,x3,80001698	 x11:0xfffff72c  x3:0x91c00000
       54245000	      5423	80001690	0022c433	xor	x8,x5,x2	  x5:0x00000000  x2:0xbd232e47  x8=0xbd232e47
       54255000	      5424	80001694	1f5f4213	xori	x4,x30,501	 x30:0x00000001  x4=0x000001f4
       54265000	      5425	80001698	aad4bf17	auipc	x30,0xaad4b	 x30=0x2ad4c694
       54275000	      5426	8000169c	4a6f9eb7	lui	x29,0x4a6f9	 x29=0x4a6f9000
       54285000	      5427	800016a0	014a0533	add	x10,x20,x20	 x20:0x50cdc300 x20:0x50cdc300 x10=0xa19b8600
       54295000	      5428	800016a4	001a49b3	xor	x19,x20,x1	 x20:0x50cdc300  x1:0x800012e8 x19=0xd0cdd1e8
       54305000	      5429	800016a8	19af2d93	slti	x27,x30,410	 x30:0x2ad4c694 x27=0x00000000
       54315000	      5430	800016ac	0a588493	addi	x9,x17,165	 x17:0x00000001  x9=0x000000a6
       54325000	      5431	800016b0	007b6933	or	x18,x22,x7	 x22:0x00000000  x7:0x7ffffd76 x18=0x7ffffd76
       54335000	      5432	800016b4	00000013	addi	x0,x0,0	  x0:0x00000000
       54345000	      5433	800016b8	053b1863	bne	x22,x19,80001708	 x22:0x00000000 x19:0xd0cdd1e8
       54355000	      5434	00000000	00000013	addi	x0,x0,0	  x0:0x00000000
       54365000	      5435	80001704	00000013	addi	x0,x0,0	  x0:0x00000000
       54375000	      5436	80001708	01868533	add	x10,x13,x24	 x13:0xfff82adf x24:0x80001274 x10=0x7ff83d53
       54385000	      5437	8000170c	1af2fe93	andi	x29,x5,431	  x5:0x00000000 x29=0x00000000
       54395000	      5438	80001710	013212b3	sll	x5,x4,x19	  x4:0x000001f4 x19:0xd0cdd1e8  x5=0x0001f400
       54405000	      5439	80001714	417fd1b3	sra	x3,x31,x23	 x31:0x80009eec x23:0x00000001  x3=0xc0004f76
       54415000	      5440	80001718	02f10663	beq	x2,x15,80001744	  x2:0xbd232e47 x15:0x80009fc4
       54425000	      5441	8000171c	002c02b3	add	x5,x24,x2	 x24:0x80001274  x2:0xbd232e47  x5=0x3d2340bb
       54435000	      5442	80001720	018b7f33	and	x30,x22,x24	 x22:0x00000000 x24:0x80001274 x30=0x00000000
       54445000	      5443	80001724	0016b933	sltu	x18,x13,x1	 x13:0xfff82adf  x1:0x800012e8 x18=0x00000000
       54455000	      5444	80001728	008a6f33	or	x30,x20,x8	 x20:0x50cdc300  x8:0xbd232e47 x30=0xfdefef47
       54465000	      5445	8000172c	00000013	addi	x0,x0,0	  x0:0x00000000
       54475000	      5446	80001730	001e83b3	add	x7,x29,x1	 x29:0x00000000  x1:0x800012e8  x7=0x800012e8
       54485000	      5447	80001734	01069f33	sll	x30,x13,x16	 x13:0xfff82adf x16:0x80002adf x30=0x80000000
       54495000	      5448	80001738	00000013	addi	x0,x0,0	  x0:0x00000000
       54505000	      5449	8000173c	00037c33	and	x24,x6,x0	  x6:0xfffffaed  x0:0x00000000 x24=0x00000000
       54515000	      5450	80001740	01da9333	sll	x6,x21,x29	 x21:0x801019ec x29:0x00000000  x6=0x801019ec
       54525000	      5451	80001744	40565913	srai	x18,x12,0x5	 x12:0x7fffee3d x18=0x03ffff71
       54535000	      5452	80001748	01d9dcb3	srl	x25,x19,x29	 x19:0xd0cdd1e8 x29:0x00000000 x25=0xd0cdd1e8
       54545000	      5453	8000174c	028f4463	blt	x30,x8,80001774	 x30:0x80000000  x8:0xbd232e47
       54555000	      5454	00000000	00000013	addi	x0,x0,0	  x0:0x00000000
       54565000	      5455	80001770	00000013	addi	x0,x0,0	  x0:0x00000000
       54575000	      5456	80001774	c71c3993	sltiu	x19,x24,-911	 x24:0x00000000 x19=0x00000001
       54585000	      5457	80001778	73391897	auipc	x17,0x73391	 x17=0xf3392774
       54595000	      5458	8000177c	0981dc63	bge	x3,x24,80001814	  x3:0xc0004f76 x24:0x00000000
       54605000	      5459	80001780	01f35b93	srli	x23,x6,0x1f	  x6:0x801019ec x23=0x00000001
       54615000	      5460	80001784	08eacc63	blt	x21,x14,8000181c	 x21:0x801019ec x14:0x3d231fb7
       54625000	      5461	00000000	00000013	addi	x0,x0,0	  x0:0x00000000
       54635000	      5462	80001818	00000013	addi	x0,x0,0	  x0:0x00000000
       54645000	      5463	8000181c	01229933	sll	x18,x5,x18	  x5:0x3d2340bb x18:0x03ffff71 x18=0x81760000
       54655000	      5464	80001820	006d8bb3	add	x23,x27,x6	 x27:0x00000000  x6:0x801019ec x23=0x801019ec
       54665000	      5465	80001824	a3367e13	andi	x28,x12,-1485	 x12:0x7fffee3d x28=0x7fffea31
       54675000	      5466	80001828	018f7033	and	x0,x30,x24	 x30:0x80000000 x24:0x00000000
       54685000	      5467	8000182c	4008d413	srai	x8,x17,0x0	 x17:0xf3392774  x8=0xf3392774
       54695000	      5468	80001830	41d38433	sub	x8,x7,x29	  x7:0x800012e8 x29:0x00000000  x8=0x800012e8
       54705000	      5469	80001834	000b9a63	bne	x23,x0,80001848	 x23:0x801019ec  x0:0x00000000
       54715000	      5470	00000000	00000013	addi	x0,x0,0	  x0:0x00000000
       54725000	      5471	80001844	00000013	addi	x0,x0,0	  x0:0x00000000
       54735000	      5472	80001848	a6860693	addi	x13,x12,-1432	 x12:0x7fffee3d x13=0x7fffe8a5
       54745000	      5473	8000184c	418553b3	sra	x7,x10,x24	 x10:0x7ff83d53 x24:0x00000000  x7=0x7ff83d53
       54755000	      5474	80001850	82886b13	ori	x22,x16,-2008	 x16:0x80002adf x22=0xfffffaff
       54765000	      5475	80001854	01db0233	add	x4,x22,x29	 x22:0xfffffaff x29:0x00000000  x4=0xfffffaff
       54775000	      5476	80001858	00437cb3	and	x25,x6,x4	  x6:0x801019ec  x4:0xfffffaff x25=0x801018ec
       54785000	      5477	8000185c	04e61663	bne	x12,x14,800018a8	 x12:0x7fffee3d x14:0x3d231fb7
       54795000	      5478	00000000	00000013	addi	x0,x0,0	  x0:0x00000000
       54805000	      5479	800018a4	00000013	addi	x0,x0,0	  x0:0x00000000
       54815000	      5480	800018a8	4419ef13	ori	x30,x19,1089	 x19:0x00000001 x30=0x00000441
       54825000	      5481	800018ac	0054ed33	or	x26,x9,x5	  x9:0x000000a6  x5:0x3d2340bb x26=0x3d2340bf
       54835000	      5482	800018b0	40d3dc13	srai	x24,x7,0xd	  x7:0x7ff83d53 x24=0x0003ffc1
       54845000	      5483	800018b4	1f422493	slti	x9,x4,500	  x4:0xfffffaff  x9=0x00000001
       54855000	      5484	800018b8	03e49663	bne	x9,x30,800018e4	  x9:0x00000001 x30:0x00000441
       54865000	      5485	00000000	00000013	addi	x0,x0,0	  x0:0x00000000
       54875000	      5486	800018e0	00000013	addi	x0,x0,0	  x0:0x00000000
       54885000	      5487	800018e4	007e70b3	and	x1,x28,x7	 x28:0x7fffea31  x7:0x7ff83d53  x1=0x7ff82811
       54895000	      5488	800018e8	0ed2e293	ori	x5,x5,237	  x5:0x3d2340bb  x5=0x3d2340ff
       54905000	      5489	800018ec	ca733b97	auipc	x23,0xca733	 x23=0x4a7348e8
       54915000	      5490	800018f0	a8d7c317	auipc	x6,0xa8d7c	  x6=0x28d7d8ec
       54925000	      5491	800018f4	a8243d13	sltiu	x26,x8,-1406	  x8:0x800012e8 x26=0x00000001
       54935000	      5492	800018f8	402adab3	sra	x21,x21,x2	 x21:0x801019ec  x2:0xbd232e47 x21=0xff002033
       54945000	      5493	800018fc	01fae663	bltu	x21,x31,80001908	 x21:0xff002033 x31:0x80009eec
       54955000	      5494	80001900	00c1fe63	bgeu	x3,x12,8000191c	  x3:0xc0004f76 x12:0x7fffee3d
       54965000	      5495	00000000	00000013	addi	x0,x0,0	  x0:0x00000000
       54975000	      5496	80001918	00000013	addi	x0,x0,0	  x0:0x00000000
       54985000	      5497	8000191c	0123fbb3	and	x23,x7,x18	  x7:0x7ff83d53 x18:0x81760000 x23=0x01700000
       54995000	      5498	80001920	40825813	srai	x16,x4,0x8	  x4:0xfffffaff x16=0xfffffffa
       55005000	      5499	80001924	02727c63	bgeu	x4,x7,8000195c	  x4:0xfffffaff  x7:0x7ff83d53
       55015000	      5500	00000000	00000013	addi	x0,x0,0	  x0:0x00000000
       55025000	      5501	80001958	00000013	addi	x0,x0,0	  x0:0x00000000
       55035000	      5502	8000195c	022f4a63	blt	x30,x2,80001990	 x30:0x00000441  x2:0xbd232e47
       55045000	      5503	80001960	40b35613	srai	x12,x6,0xb	  x6:0x28d7d8ec x12=0x00051afb
       55055000	      5504	80001964	6fa83f37	lui	x30,0x6fa83	 x30=0x6fa83000
       55065000	      5505	80001968	b204bc37	lui	x24,0xb204b	 x24=0xb204b000
       55075000	      5506	8000196c	409786b3	sub	x13,x15,x9	 x15:0x80009fc4  x9:0x00000001 x13=0x80009fc3
       55085000	      5507	80001970	acaa4e93	xori	x29,x20,-1334	 x20:0x50cdc300 x29=0xaf3239ca
       55095000	      5508	80001974	00d8f2b3	and	x5,x17,x13	 x17:0xf3392774 x13:0x80009fc3  x5=0x80000740
       55105000	      5509	80001978	01db44b3	xor	x9,x22,x29	 x22:0xfffffaff x29:0xaf3239ca  x9=0x50cdc335
       55115000	      5510	8000197c	4087d4b3	sra	x9,x15,x8	 x15:0x80009fc4  x8:0x800012e8  x9=0xff80009f
       55125000	      5511	80001980	00afc5b3	xor	x11,x31,x10	 x31:0x80009eec x10:0x7ff83d53 x11=0xfff8a3bf
       55135000	      5512	80001984	18338393	addi	x7,x7,387	  x7:0x7ff83d53  x7=0x7ff83ed6
       55145000	      5513	80001988	40f05313	srai	x6,x0,0xf	  x0:0x00000000  x6=0x00000000
       55155000	      5514	8000198c	d7f77d13	andi	x26,x14,-641	 x14:0x3d231fb7 x26=0x3d231d37
       55165000	      5515	80001990	01a17033	and	x0,x2,x26	  x2:0xbd232e47 x26:0x3d231d37
       55175000	      5516	80001994	01c29a63	bne	x5,x28,800019a8	  x5:0x80000740 x28:0x7fffea31
       55185000	      5517	00000000	00000013	addi	x0,x0,0	  x0:0x00000000
       55195000	      5518	800019a4	00000013	addi	x0,x0,0	  x0:0x00000000
       55205000	      5519	800019a8	00c31b93	slli	x23,x6,0xc	  x6:0x00000000 x23=0x00000000
       55215000	      5520	800019ac	200d4737	lui	x14,0x200d4	 x14=0x200d4000
       55225000	      5521	800019b0	402b5233	sra	x4,x22,x2	 x22:0xfffffaff  x2:0xbd232e47  x4=0xfffffff5
       55235000	      5522	800019b4	0085fc63	bgeu	x11,x8,800019cc	 x11:0xfff8a3bf  x8:0x800012e8
       55245000	      5523	00000000	00000013	addi	x0,x0,0	  x0:0x00000000
       55255000	      5524	800019c8	00000013	addi	x0,x0,0	  x0:0x00000000
       55265000	      5525	800019cc	00df2ab3	slt	x21,x30,x13	 x30:0x6fa83000 x13:0x80009fc3 x21=0x00000000
       55275000	      5526	800019d0	f0202813	slti	x16,x0,-254	  x0:0x00000000 x16=0x00000000
       55285000	      5527	800019d4	0133f863	bgeu	x7,x19,800019e4	  x7:0x7ff83ed6 x19:0x00000001
       55295000	      5528	00000000	00000013	addi	x0,x0,0	  x0:0x00000000
       55305000	      5529	800019e0	00000013	addi	x0,x0,0	  x0:0x00000000
       55315000	      5530	800019e4	01ad16b3	sll	x13,x26,x26	 x26:0x3d231d37 x26:0x3d231d37 x13=0x9b800000
       55325000	      5531	800019e8	00b22ab3	slt	x21,x4,x11	  x4:0xfffffff5 x11:0xfff8a3bf x21=0x00000000
       55335000	      5532	800019ec	3d217c37	lui	x24,0x3d217	 x24=0x3d217000
       55345000	      5533	800019f0	9b7aca93	xori	x21,x21,-1609	 x21:0x00000000 x21=0xfffff9b7
       55355000	      5534	800019f4	01a70c63	beq	x14,x26,80001a0c	 x14:0x200d4000 x26:0x3d231d37
       55365000	      5535	800019f8	01166863	bltu	x12,x17,80001a08	 x12:0x00051afb x17:0xf3392774
       55375000	      5536	00000000	00000013	addi	x0,x0,0	  x0:0x00000000
       55385000	      5537	80001a04	00000013	addi	x0,x0,0	  x0:0x00000000
       55395000	      5538	80001a08	00fdb5b3	sltu	x11,x27,x15	 x27:0x00000000 x15:0x80009fc4 x11=0x00000001
       55405000	      5539	80001a0c	0045a433	slt	x8,x11,x4	 x11:0x00000001  x4:0xfffffff5  x8=0x00000000
       55415000	      5540	80001a10	dff68b17	auipc	x22,0xdff68	 x22=0x5ff69a0c
       55425000	      5541	80001a14	03361c63	bne	x12,x19,80001a4c	 x12:0x00051afb x19:0x00000001
       55435000	      5542	00000000	00000013	addi	x0,x0,0	  x0:0x00000000
       55445000	      5543	80001a48	00000013	addi	x0,x0,0	  x0:0x00000000
       55455000	      5544	80001a4c	01a01613	slli	x12,x0,0x1a	  x0:0x00000000 x12=0x00000000
       55465000	      5545	80001a50	00210663	beq	x2,x2,80001a5c	  x2:0xbd232e47  x2:0xbd232e47
       55475000	      5546	00000000	00000013	addi	x0,x0,0	  x0:0x00000000
       55485000	      5547	80001a58	00000013	addi	x0,x0,0	  x0:0x00000000
       55495000	      5548	80001a5c	003d82b3	add	x5,x27,x3	 x27:0x00000000  x3:0xc0004f76  x5=0xc0004f76
       55505000	      5549	80001a60	514075b7	lui	x11,0x51407	 x11=0x51407000
       55515000	      5550	80001a64	380a6193	ori	x3,x20,896	 x20:0x50cdc300  x3=0x50cdc380
       55525000	      5551	80001a68	4065dd13	srai	x26,x11,0x6	 x11:0x51407000 x26=0x014501c0
       55535000	      5552	80001a6c	00d20663	beq	x4,x13,80001a78	  x4:0xfffffff5 x13:0x9b800000
       55545000	      5553	80001a70	01b89863	bne	x17,x27,80001a80	 x17:0xf3392774 x27:0x00000000
       55555000	      5554	00000000	00000013	addi	x0,x0,0	  x0:0x00000000
       55565000	      5555	80001a7c	00000013	addi	x0,x0,0	  x0:0x00000000
       55575000	      5556	80001a80	40e75d93	srai	x27,x14,0xe	 x14:0x200d4000 x27=0x00008035
       55585000	      5557	80001a84	01a9e663	bltu	x19,x26,80001a90	 x19:0x00000001 x26:0x014501c0
       55595000	      5558	00000000	00000013	addi	x0,x0,0	  x0:0x00000000
       55605000	      5559	80001a8c	00000013	addi	x0,x0,0	  x0:0x00000000
       55615000	      5560	80001a90	00b706b3	add	x13,x14,x11	 x14:0x200d4000 x11:0x51407000 x13=0x714db000
       55625000	      5561	80001a94	01e25b93	srli	x23,x4,0x1e	  x4:0xfffffff5 x23=0x00000003
       55635000	      5562	80001a98	004b1c33	sll	x24,x22,x4	 x22:0x5ff69a0c  x4:0xfffffff5 x24=0x41800000
       55645000	      5563	80001a9c	032c0863	beq	x24,x18,80001acc	 x24:0x41800000 x18:0x81760000
       55655000	      5564	80001aa0	02399663	bne	x19,x3,80001acc	 x19:0x00000001  x3:0x50cdc380
       55665000	      5565	00000000	00000013	addi	x0,x0,0	  x0:0x00000000
       55675000	      5566	80001ac8	00000013	addi	x0,x0,0	  x0:0x00000000
       55685000	      5567	80001acc	e4792217	auipc	x4,0xe4792	  x4=0x64793ac8
       55695000	      5568	80001ad0	9c114a93	xori	x21,x2,-1599	  x2:0xbd232e47 x21=0x42dcd786
       55705000	      5569	80001ad4	004fa883	lw	x17,4(x31)	 x31:0x80009eec x17=0x80000c10 PA:0x80009ef0
       55715000	      5570	80001ad8	252b4c17	auipc	x24,0x252b4	 x24=0xa52b5ad4
       55725000	      5571	80001adc	f0c13013	sltiu	x0,x2,-244	  x2:0xbd232e47
       55735000	      5572	80001ae0	00000013	addi	x0,x0,0	  x0:0x00000000
       55745000	      5573	80001ae4	008f8f93	addi	x31,x31,8	 x31:0x80009eec x31=0x80009ef4
       55755000	      5574	80001ae8	4f782813	slti	x16,x16,1271	 x16:0x00000000 x16=0x00000001
       55765000	      5575	80001aec	00188913	addi	x18,x17,1	 x17:0x80000c10 x18=0x80000c11
       55775000	      5576	80001af0	00090967	jalr	x18,x18,0	 x18:0x80000c11 x18=0x80001af0
       55785000	      5577	00000000	00000013	addi	x0,x0,0	  x0:0x00000000
       55795000	      5578	80000c10	00000013	addi	x0,x0,0	  x0:0x00000000
       55805000	      5579	80000c14	024008ef	jal	x17,80000c14	 x17=0x80000c14
       55815000	      5580	00000000	00000013	addi	x0,x0,0	  x0:0x00000000
       55825000	      5581	80000c34	00000013	addi	x0,x0,0	  x0:0x00000000
       55835000	      5582	80000c38	ff5ff0ef	jal	x1,80000c38	  x1=0x80000c38
       55845000	      5583	00000000	00000013	addi	x0,x0,0	  x0:0x00000000
       55855000	      5584	80000c28	00000013	addi	x0,x0,0	  x0:0x00000000
       55865000	      5585	80000c2c	008000ef	jal	x1,80000c2c	  x1=0x80000c2c
       55875000	      5586	00000000	00000013	addi	x0,x0,0	  x0:0x00000000
       55885000	      5587	80000c30	00000013	addi	x0,x0,0	  x0:0x00000000
       55895000	      5588	80000c34	010001ef	jal	x3,80000c34	  x3=0x80000c34
       55905000	      5589	00000000	00000013	addi	x0,x0,0	  x0:0x00000000
       55915000	      5590	80000c40	00000013	addi	x0,x0,0	  x0:0x00000000
       55925000	      5591	80000c44	fddffeef	jal	x29,80000c44	 x29=0x80000c44
       55935000	      5592	00000000	00000013	addi	x0,x0,0	  x0:0x00000000
       55945000	      5593	80000c1c	00000013	addi	x0,x0,0	  x0:0x00000000
       55955000	      5594	80000c20	0280036f	jal	x6,80000c20	  x6=0x80000c20
       55965000	      5595	00000000	00000013	addi	x0,x0,0	  x0:0x00000000
       55975000	      5596	80000c44	00000013	addi	x0,x0,0	  x0:0x00000000
       55985000	      5597	80000c48	fd1ff0ef	jal	x1,80000c48	  x1=0x80000c48
       55995000	      5598	00000000	00000013	addi	x0,x0,0	  x0:0x00000000
       56005000	      5599	80000c14	00000013	addi	x0,x0,0	  x0:0x00000000
       56015000	      5600	80000c18	024000ef	jal	x1,80000c18	  x1=0x80000c18
       56025000	      5601	00000000	00000013	addi	x0,x0,0	  x0:0x00000000
       56035000	      5602	80000c38	00000013	addi	x0,x0,0	  x0:0x00000000
       56045000	      5603	80000c3c	0140036f	jal	x6,80000c3c	  x6=0x80000c3c
       56055000	      5604	00000000	00000013	addi	x0,x0,0	  x0:0x00000000
       56065000	      5605	80000c4c	00000013	addi	x0,x0,0	  x0:0x00000000
       56075000	      5606	80000c50	004000ef	jal	x1,80000c50	  x1=0x80000c50
       56085000	      5607	00000000	00000013	addi	x0,x0,0	  x0:0x00000000
       56095000	      5608	80000c50	00000013	addi	x0,x0,0	  x0:0x00000000
       56105000	      5609	80000c54	fedff2ef	jal	x5,80000c54	  x5=0x80000c54
       56115000	      5610	00000000	00000013	addi	x0,x0,0	  x0:0x00000000
       56125000	      5611	80000c3c	00000013	addi	x0,x0,0	  x0:0x00000000
       56135000	      5612	80000c40	018000ef	jal	x1,80000c40	  x1=0x80000c40
       56145000	      5613	00000000	00000013	addi	x0,x0,0	  x0:0x00000000
       56155000	      5614	80000c54	00000013	addi	x0,x0,0	  x0:0x00000000
       56165000	      5615	80000c58	fcdffaef	jal	x21,80000c58	 x21=0x80000c58
       56175000	      5616	00000000	00000013	addi	x0,x0,0	  x0:0x00000000
       56185000	      5617	80000c20	00000013	addi	x0,x0,0	  x0:0x00000000
       56195000	      5618	80000c24	ff9ff36f	jal	x6,80000c24	  x6=0x80000c24
       56205000	      5619	00000000	00000013	addi	x0,x0,0	  x0:0x00000000
       56215000	      5620	80000c18	00000013	addi	x0,x0,0	  x0:0x00000000
       56225000	      5621	80000c1c	014003ef	jal	x7,80000c1c	  x7=0x80000c1c
       56235000	      5622	00000000	00000013	addi	x0,x0,0	  x0:0x00000000
       56245000	      5623	80000c2c	00000013	addi	x0,x0,0	  x0:0x00000000
       56255000	      5624	80000c30	01c00f6f	jal	x30,80000c30	 x30=0x80000c30
       56265000	      5625	00000000	00000013	addi	x0,x0,0	  x0:0x00000000
       56275000	      5626	80000c48	00000013	addi	x0,x0,0	  x0:0x00000000
       56285000	      5627	80000c4c	fddff1ef	jal	x3,80000c4c	  x3=0x80000c4c
       56295000	      5628	00000000	00000013	addi	x0,x0,0	  x0:0x00000000
       56305000	      5629	80000c24	00000013	addi	x0,x0,0	  x0:0x00000000
       56315000	      5630	80000c28	034000ef	jal	x1,80000c28	  x1=0x80000c28
       56325000	      5631	00000000	00000013	addi	x0,x0,0	  x0:0x00000000
       56335000	      5632	80000c58	00000013	addi	x0,x0,0	  x0:0x00000000
       56345000	      5633	80000c5c	4a715497	auipc	x9,0x4a715	  x9=0xca715c58
       56355000	      5634	80000c60	048008ef	jal	x17,80000c60	 x17=0x80000c60
       56365000	      5635	00000000	00000013	addi	x0,x0,0	  x0:0x00000000
       56375000	      5636	80000ca4	00000013	addi	x0,x0,0	  x0:0x00000000
       56385000	      5637	80000ca8	fd1ff0ef	jal	x1,80000ca8	  x1=0x80000ca8
       56395000	      5638	00000000	00000013	addi	x0,x0,0	  x0:0x00000000
       56405000	      5639	80000c74	00000013	addi	x0,x0,0	  x0:0x00000000
       56415000	      5640	80000c78	0140036f	jal	x6,80000c78	  x6=0x80000c78
       56425000	      5641	00000000	00000013	addi	x0,x0,0	  x0:0x00000000
       56435000	      5642	80000c88	00000013	addi	x0,x0,0	  x0:0x00000000
       56445000	      5643	80000c8c	044000ef	jal	x1,80000c8c	  x1=0x80000c8c
       56455000	      5644	00000000	00000013	addi	x0,x0,0	  x0:0x00000000
       56465000	      5645	80000ccc	00000013	addi	x0,x0,0	  x0:0x00000000
       56475000	      5646	80000cd0	fe5ff36f	jal	x6,80000cd0	  x6=0x80000cd0
       56485000	      5647	00000000	00000013	addi	x0,x0,0	  x0:0x00000000
       56495000	      5648	80000cb0	00000013	addi	x0,x0,0	  x0:0x00000000
       56505000	      5649	80000cb4	00c001ef	jal	x3,80000cb4	  x3=0x80000cb4
       56515000	      5650	00000000	00000013	addi	x0,x0,0	  x0:0x00000000
       56525000	      5651	80000cbc	00000013	addi	x0,x0,0	  x0:0x00000000
       56535000	      5652	80000cc0	fa9ff5ef	jal	x11,80000cc0	 x11=0x80000cc0
       56545000	      5653	00000000	00000013	addi	x0,x0,0	  x0:0x00000000
       56555000	      5654	80000c64	00000013	addi	x0,x0,0	  x0:0x00000000
       56565000	      5655	80000c68	06c000ef	jal	x1,80000c68	  x1=0x80000c68
       56575000	      5656	00000000	00000013	addi	x0,x0,0	  x0:0x00000000
       56585000	      5657	80000cd0	00000013	addi	x0,x0,0	  x0:0x00000000
       56595000	      5658	80000cd4	fd9ff0ef	jal	x1,80000cd4	  x1=0x80000cd4
       56605000	      5659	00000000	00000013	addi	x0,x0,0	  x0:0x00000000
       56615000	      5660	80000ca8	00000013	addi	x0,x0,0	  x0:0x00000000
       56625000	      5661	80000cac	fc1ffeef	jal	x29,80000cac	 x29=0x80000cac
       56635000	      5662	00000000	00000013	addi	x0,x0,0	  x0:0x00000000
       56645000	      5663	80000c68	00000013	addi	x0,x0,0	  x0:0x00000000
       56655000	      5664	80000c6c	02c0036f	jal	x6,80000c6c	  x6=0x80000c6c
       56665000	      5665	00000000	00000013	addi	x0,x0,0	  x0:0x00000000
       56675000	      5666	80000c94	00000013	addi	x0,x0,0	  x0:0x00000000
       56685000	      5667	80000c98	00800f6f	jal	x30,80000c98	 x30=0x80000c98
       56695000	      5668	00000000	00000013	addi	x0,x0,0	  x0:0x00000000
       56705000	      5669	80000c9c	00000013	addi	x0,x0,0	  x0:0x00000000
       56715000	      5670	80000ca0	018000ef	jal	x1,80000ca0	  x1=0x80000ca0
       56725000	      5671	00000000	00000013	addi	x0,x0,0	  x0:0x00000000
       56735000	      5672	80000cb4	00000013	addi	x0,x0,0	  x0:0x00000000
       56745000	      5673	80000cb8	ff9ff66f	jal	x12,80000cb8	 x12=0x80000cb8
       56755000	      5674	00000000	00000013	addi	x0,x0,0	  x0:0x00000000
       56765000	      5675	80000cac	00000013	addi	x0,x0,0	  x0:0x00000000
       56775000	      5676	80000cb0	018000ef	jal	x1,80000cb0	  x1=0x80000cb0
       56785000	      5677	00000000	00000013	addi	x0,x0,0	  x0:0x00000000
       56795000	      5678	80000cc4	00000013	addi	x0,x0,0	  x0:0x00000000
       56805000	      5679	80000cc8	fc9ff0ef	jal	x1,80000cc8	  x1=0x80000cc8
       56815000	      5680	00000000	00000013	addi	x0,x0,0	  x0:0x00000000
       56825000	      5681	80000c8c	00000013	addi	x0,x0,0	  x0:0x00000000
       56835000	      5682	80000c90	0140096f	jal	x18,80000c90	 x18=0x80000c90
       56845000	      5683	00000000	00000013	addi	x0,x0,0	  x0:0x00000000
       56855000	      5684	80000ca0	00000013	addi	x0,x0,0	  x0:0x00000000
       56865000	      5685	80000ca4	0280036f	jal	x6,80000ca4	  x6=0x80000ca4
       56875000	      5686	00000000	00000013	addi	x0,x0,0	  x0:0x00000000
       56885000	      5687	80000cc8	00000013	addi	x0,x0,0	  x0:0x00000000
       56895000	      5688	80000ccc	ff9ff0ef	jal	x1,80000ccc	  x1=0x80000ccc
       56905000	      5689	00000000	00000013	addi	x0,x0,0	  x0:0x00000000
       56915000	      5690	80000cc0	00000013	addi	x0,x0,0	  x0:0x00000000
       56925000	      5691	80000cc4	fc5ff36f	jal	x6,80000cc4	  x6=0x80000cc4
       56935000	      5692	00000000	00000013	addi	x0,x0,0	  x0:0x00000000
       56945000	      5693	80000c84	00000013	addi	x0,x0,0	  x0:0x00000000
       56955000	      5694	80000c88	ff5ff36f	jal	x6,80000c88	  x6=0x80000c88
       56965000	      5695	00000000	00000013	addi	x0,x0,0	  x0:0x00000000
       56975000	      5696	80000c78	00000013	addi	x0,x0,0	  x0:0x00000000
       56985000	      5697	80000c7c	0040036f	jal	x6,80000c7c	  x6=0x80000c7c
       56995000	      5698	00000000	00000013	addi	x0,x0,0	  x0:0x00000000
       57005000	      5699	80000c7c	00000013	addi	x0,x0,0	  x0:0x00000000
       57015000	      5700	80000c80	fe5ff0ef	jal	x1,80000c80	  x1=0x80000c80
       57025000	      5701	00000000	00000013	addi	x0,x0,0	  x0:0x00000000
       57035000	      5702	80000c60	00000013	addi	x0,x0,0	  x0:0x00000000
       57045000	      5703	80000c64	058000ef	jal	x1,80000c64	  x1=0x80000c64
       57055000	      5704	00000000	00000013	addi	x0,x0,0	  x0:0x00000000
       57065000	      5705	80000cb8	00000013	addi	x0,x0,0	  x0:0x00000000
       57075000	      5706	80000cbc	fe1ff0ef	jal	x1,80000cbc	  x1=0x80000cbc
       57085000	      5707	00000000	00000013	addi	x0,x0,0	  x0:0x00000000
       57095000	      5708	80000c98	00000013	addi	x0,x0,0	  x0:0x00000000
       57105000	      5709	80000c9c	fd5ff36f	jal	x6,80000c9c	  x6=0x80000c9c
       57115000	      5710	00000000	00000013	addi	x0,x0,0	  x0:0x00000000
       57125000	      5711	80000c6c	00000013	addi	x0,x0,0	  x0:0x00000000
       57135000	      5712	80000c70	004000ef	jal	x1,80000c70	  x1=0x80000c70
       57145000	      5713	00000000	00000013	addi	x0,x0,0	  x0:0x00000000
       57155000	      5714	80000c70	00000013	addi	x0,x0,0	  x0:0x00000000
       57165000	      5715	80000c74	0100056f	jal	x10,80000c74	 x10=0x80000c74
       57175000	      5716	00000000	00000013	addi	x0,x0,0	  x0:0x00000000
       57185000	      5717	80000c80	00000013	addi	x0,x0,0	  x0:0x00000000
       57195000	      5718	80000c84	010000ef	jal	x1,80000c84	  x1=0x80000c84
       57205000	      5719	00000000	00000013	addi	x0,x0,0	  x0:0x00000000
       57215000	      5720	80000c90	00000013	addi	x0,x0,0	  x0:0x00000000
       57225000	      5721	80000c94	044001ef	jal	x3,80000c94	  x3=0x80000c94
       57235000	      5722	00000000	00000013	addi	x0,x0,0	  x0:0x00000000
       57245000	      5723	80000cd4	00000013	addi	x0,x0,0	  x0:0x00000000
       57255000	      5724	80000cd8	38d4a913	slti	x18,x9,909	  x9:0xca715c58 x18=0x00000001
       57265000	      5725	80000cdc	01974233	xor	x4,x14,x25	 x14:0x200d4000 x25:0x801018ec  x4=0xa01d58ec
       57275000	      5726	80000ce0	01569233	sll	x4,x13,x21	 x13:0x714db000 x21:0x80000c58  x4=0x00000000
       57285000	      5727	80000ce4	11618e13	addi	x28,x3,278	  x3:0x80000c94 x28=0x80000daa
       57295000	      5728	80000ce8	00c29633	sll	x12,x5,x12	  x5:0x80000c54 x12:0x80000cb8 x12=0x54000000
       57305000	      5729	80000cec	586acc17	auipc	x24,0x586ac	 x24=0xd86acce8
       57315000	      5730	80000cf0	4121da93	srai	x21,x3,0x12	  x3:0x80000c94 x21=0xffffe000
       57325000	      5731	80000cf4	4c2efb13	andi	x22,x29,1218	 x29:0x80000cac x22=0x00000480
       57335000	      5732	80000cf8	1ef58693	addi	x13,x11,495	 x11:0x80000cc0 x13=0x80000eaf
       57345000	      5733	80000cfc	21e6b537	lui	x10,0x21e6b	 x10=0x21e6b000
       57355000	      5734	80000d00	01c69e13	slli	x28,x13,0x1c	 x13:0x80000eaf x28=0xf0000000
       57365000	      5735	80000d04	7cbefc93	andi	x25,x29,1995	 x29:0x80000cac x25=0x00000488
       57375000	      5736	80000d08	0285fc63	bgeu	x11,x8,80000d40	 x11:0x80000cc0  x8:0x00000000
       57385000	      5737	00000000	00000013	addi	x0,x0,0	  x0:0x00000000
       57395000	      5738	80000d3c	00000013	addi	x0,x0,0	  x0:0x00000000
       57405000	      5739	80000d40	8efbf513	andi	x10,x23,-1809	 x23:0x00000003 x10=0x00000003
       57415000	      5740	80000d44	a87f0d37	lui	x26,0xa87f0	 x26=0xa87f0000
       57425000	      5741	80000d48	0d1f8663	beq	x31,x17,80000e14	 x31:0x80009ef4 x17:0x80000c60
       57435000	      5742	80000d4c	030dfc63	bgeu	x27,x16,80000d84	 x27:0x00008035 x16:0x00000001
       57445000	      5743	00000000	00000013	addi	x0,x0,0	  x0:0x00000000
       57455000	      5744	80000d80	00000013	addi	x0,x0,0	  x0:0x00000000
       57465000	      5745	80000d84	c8d53493	sltiu	x9,x10,-883	 x10:0x00000003  x9=0x00000001
       57475000	      5746	80000d88	015b5533	srl	x10,x22,x21	 x22:0x00000480 x21:0xffffe000 x10=0x00000480
       57485000	      5747	80000d8c	09fb4063	blt	x22,x31,80000e0c	 x22:0x00000480 x31:0x80009ef4
       57495000	      5748	80000d90	03c008ef	jal	x17,80000d90	 x17=0x80000d90
       57505000	      5749	00000000	00000013	addi	x0,x0,0	  x0:0x00000000
       57515000	      5750	80000dc8	00000013	addi	x0,x0,0	  x0:0x00000000
       57525000	      5751	80000dcc	ff1ff86f	jal	x16,80000dcc	 x16=0x80000dcc
       57535000	      5752	00000000	00000013	addi	x0,x0,0	  x0:0x00000000
       57545000	      5753	80000db8	00000013	addi	x0,x0,0	  x0:0x00000000
       57555000	      5754	80000dbc	020000ef	jal	x1,80000dbc	  x1=0x80000dbc
       57565000	      5755	00000000	00000013	addi	x0,x0,0	  x0:0x00000000
       57575000	      5756	80000dd8	00000013	addi	x0,x0,0	  x0:0x00000000
       57585000	      5757	80000ddc	fd1ffeef	jal	x29,80000ddc	 x29=0x80000ddc
       57595000	      5758	00000000	00000013	addi	x0,x0,0	  x0:0x00000000
       57605000	      5759	80000da8	00000013	addi	x0,x0,0	  x0:0x00000000
       57615000	      5760	80000dac	fe9ff26f	jal	x4,80000dac	  x4=0x80000dac
       57625000	      5761	00000000	00000013	addi	x0,x0,0	  x0:0x00000000
       57635000	      5762	80000d90	00000013	addi	x0,x0,0	  x0:0x00000000
       57645000	      5763	80000d94	004009ef	jal	x19,80000d94	 x19=0x80000d94
       57655000	      5764	00000000	00000013	addi	x0,x0,0	  x0:0x00000000
       57665000	      5765	80000d94	00000013	addi	x0,x0,0	  x0:0x00000000
       57675000	      5766	80000d98	064000ef	jal	x1,80000d98	  x1=0x80000d98
       57685000	      5767	00000000	00000013	addi	x0,x0,0	  x0:0x00000000
       57695000	      5768	80000df8	00000013	addi	x0,x0,0	  x0:0x00000000
       57705000	      5769	80000dfc	fedff0ef	jal	x1,80000dfc	  x1=0x80000dfc
       57715000	      5770	00000000	00000013	addi	x0,x0,0	  x0:0x00000000
       57725000	      5771	80000de4	00000013	addi	x0,x0,0	  x0:0x00000000
       57735000	      5772	80000de8	fb5ff0ef	jal	x1,80000de8	  x1=0x80000de8
       57745000	      5773	00000000	00000013	addi	x0,x0,0	  x0:0x00000000
       57755000	      5774	80000d98	00000013	addi	x0,x0,0	  x0:0x00000000
       57765000	      5775	80000d9c	00c000ef	jal	x1,80000d9c	  x1=0x80000d9c
       57775000	      5776	00000000	00000013	addi	x0,x0,0	  x0:0x00000000
       57785000	      5777	80000da4	00000013	addi	x0,x0,0	  x0:0x00000000
       57795000	      5778	80000da8	044000ef	jal	x1,80000da8	  x1=0x80000da8
       57805000	      5779	00000000	00000013	addi	x0,x0,0	  x0:0x00000000
       57815000	      5780	80000de8	00000013	addi	x0,x0,0	  x0:0x00000000
       57825000	      5781	80000dec	ff9ff0ef	jal	x1,80000dec	  x1=0x80000dec
       57835000	      5782	00000000	00000013	addi	x0,x0,0	  x0:0x00000000
       57845000	      5783	80000de0	00000013	addi	x0,x0,0	  x0:0x00000000
       57855000	      5784	80000de4	ff5ff0ef	jal	x1,80000de4	  x1=0x80000de4
       57865000	      5785	00000000	00000013	addi	x0,x0,0	  x0:0x00000000
       57875000	      5786	80000dd4	00000013	addi	x0,x0,0	  x0:0x00000000
       57885000	      5787	80000dd8	02c000ef	jal	x1,80000dd8	  x1=0x80000dd8
       57895000	      5788	00000000	00000013	addi	x0,x0,0	  x0:0x00000000
       57905000	      5789	80000e00	00000013	addi	x0,x0,0	  x0:0x00000000
       57915000	      5790	80000e04	ff5ff0ef	jal	x1,80000e04	  x1=0x80000e04
       57925000	      5791	00000000	00000013	addi	x0,x0,0	  x0:0x00000000
       57935000	      5792	80000df4	00000013	addi	x0,x0,0	  x0:0x00000000
       57945000	      5793	80000df8	fbdff0ef	jal	x1,80000df8	  x1=0x80000df8
       57955000	      5794	00000000	00000013	addi	x0,x0,0	  x0:0x00000000
       57965000	      5795	80000db0	00000013	addi	x0,x0,0	  x0:0x00000000
       57975000	      5796	80000db4	03c000ef	jal	x1,80000db4	  x1=0x80000db4
       57985000	      5797	00000000	00000013	addi	x0,x0,0	  x0:0x00000000
       57995000	      5798	80000dec	00000013	addi	x0,x0,0	  x0:0x00000000
       58005000	      5799	80000df0	01000e6f	jal	x28,80000df0	 x28=0x80000df0
       58015000	      5800	00000000	00000013	addi	x0,x0,0	  x0:0x00000000
       58025000	      5801	80000dfc	00000013	addi	x0,x0,0	  x0:0x00000000
       58035000	      5802	80000e00	fa5ff8ef	jal	x17,80000e00	 x17=0x80000e00
       58045000	      5803	00000000	00000013	addi	x0,x0,0	  x0:0x00000000
       58055000	      5804	80000da0	00000013	addi	x0,x0,0	  x0:0x00000000
       58065000	      5805	80000da4	024009ef	jal	x19,80000da4	 x19=0x80000da4
       58075000	      5806	00000000	00000013	addi	x0,x0,0	  x0:0x00000000
       58085000	      5807	80000dc4	00000013	addi	x0,x0,0	  x0:0x00000000
       58095000	      5808	80000dc8	fe9ff0ef	jal	x1,80000dc8	  x1=0x80000dc8
       58105000	      5809	00000000	00000013	addi	x0,x0,0	  x0:0x00000000
       58115000	      5810	80000dac	00000013	addi	x0,x0,0	  x0:0x00000000
       58125000	      5811	80000db0	030000ef	jal	x1,80000db0	  x1=0x80000db0
       58135000	      5812	00000000	00000013	addi	x0,x0,0	  x0:0x00000000
       58145000	      5813	80000ddc	00000013	addi	x0,x0,0	  x0:0x00000000
       58155000	      5814	80000de0	fe5ff56f	jal	x10,80000de0	 x10=0x80000de0
       58165000	      5815	00000000	00000013	addi	x0,x0,0	  x0:0x00000000
       58175000	      5816	80000dc0	00000013	addi	x0,x0,0	  x0:0x00000000
       58185000	      5817	80000dc4	01000cef	jal	x25,80000dc4	 x25=0x80000dc4
       58195000	      5818	00000000	00000013	addi	x0,x0,0	  x0:0x00000000
       58205000	      5819	80000dd0	00000013	addi	x0,x0,0	  x0:0x00000000
       58215000	      5820	80000dd4	fedff36f	jal	x6,80000dd4	  x6=0x80000dd4
       58225000	      5821	00000000	00000013	addi	x0,x0,0	  x0:0x00000000
       58235000	      5822	80000dbc	00000013	addi	x0,x0,0	  x0:0x00000000
       58245000	      5823	80000dc0	010002ef	jal	x5,80000dc0	  x5=0x80000dc0
       58255000	      5824	00000000	00000013	addi	x0,x0,0	  x0:0x00000000
       58265000	      5825	80000dcc	00000013	addi	x0,x0,0	  x0:0x00000000
       58275000	      5826	80000dd0	fd1ffdef	jal	x27,80000dd0	 x27=0x80000dd0
       58285000	      5827	00000000	00000013	addi	x0,x0,0	  x0:0x00000000
       58295000	      5828	80000d9c	00000013	addi	x0,x0,0	  x0:0x00000000
       58305000	      5829	80000da0	054000ef	jal	x1,80000da0	  x1=0x80000da0
       58315000	      5830	00000000	00000013	addi	x0,x0,0	  x0:0x00000000
       58325000	      5831	80000df0	00000013	addi	x0,x0,0	  x0:0x00000000
       58335000	      5832	80000df4	fc5ffbef	jal	x23,80000df4	 x23=0x80000df4
       58345000	      5833	00000000	00000013	addi	x0,x0,0	  x0:0x00000000
       58355000	      5834	80000db4	00000013	addi	x0,x0,0	  x0:0x00000000
       58365000	      5835	80000db8	050000ef	jal	x1,80000db8	  x1=0x80000db8
       58375000	      5836	00000000	00000013	addi	x0,x0,0	  x0:0x00000000
       58385000	      5837	80000e04	00000013	addi	x0,x0,0	  x0:0x00000000
       58395000	      5838	80000e08	00a6ebb3	or	x23,x13,x10	 x13:0x80000eaf x10:0x80000de0 x23=0x80000fef
       58405000	      5839	80000e0c	00d78db3	add	x27,x15,x13	 x15:0x80009fc4 x13:0x80000eaf x27=0x0000ae73
       58415000	      5840	80000e10	01dd7e63	bgeu	x26,x29,80000e2c	 x26:0xa87f0000 x29:0x80000ddc
       58425000	      5841	00000000	00000013	addi	x0,x0,0	  x0:0x00000000
       58435000	      5842	80000e28	00000013	addi	x0,x0,0	  x0:0x00000000
       58445000	      5843	80000e2c	ee64c037	lui	x0,0xee64c	
       58455000	      5844	80000e30	af0fa713	slti	x14,x31,-1296	 x31:0x80009ef4 x14=0x00000001
       58465000	      5845	80000e34	4195d393	srai	x7,x11,0x19	 x11:0x80000cc0  x7=0xffffffc0
       58475000	      5846	80000e38	0100e233	or	x4,x1,x16	  x1:0x80000db8 x16:0x80000dcc  x4=0x80000dfc
       58485000	      5847	80000e3c	008198b3	sll	x17,x3,x8	  x3:0x80000c94  x8:0x00000000 x17=0x80000c94
       58495000	      5848	80000e40	01fd2333	slt	x6,x26,x31	 x26:0xa87f0000 x31:0x80009ef4  x6=0x00000000
       58505000	      5849	80000e44	03c37a63	bgeu	x6,x28,80000e78	  x6:0x00000000 x28:0x80000df0
       58515000	      5850	80000e48	00413f33	sltu	x30,x2,x4	  x2:0xbd232e47  x4:0x80000dfc x30=0x00000000
       58525000	      5851	80000e4c	01e98263	beq	x19,x30,80000e50	 x19:0x80000da4 x30:0x00000000
       58535000	      5852	80000e50	f51ce993	ori	x19,x25,-175	 x25:0x80000dc4 x19=0xffffffd5
       58545000	      5853	80000e54	0188cb33	xor	x22,x17,x24	 x17:0x80000c94 x24:0xd86acce8 x22=0x586ac07c
       58555000	      5854	80000e58	002c6a63	bltu	x24,x2,80000e6c	 x24:0xd86acce8  x2:0xbd232e47
       58565000	      5855	80000e5c	02f81e63	bne	x16,x15,80000e98	 x16:0x80000dcc x15:0x80009fc4
       58575000	      5856	00000000	00000013	addi	x0,x0,0	  x0:0x00000000
       58585000	      5857	80000e94	00000013	addi	x0,x0,0	  x0:0x00000000
       58595000	      5858	80000e98	f92ec493	xori	x9,x29,-110	 x29:0x80000ddc  x9=0x7ffff24e
       58605000	      5859	80000e9c	4172d613	srai	x12,x5,0x17	  x5:0x80000dc0 x12=0xffffff00
       58615000	      5860	80000ea0	0019a0b3	slt	x1,x19,x1	 x19:0xffffffd5  x1:0x80000db8  x1=0x00000000
       58625000	      5861	80000ea4	025ed063	bge	x29,x5,80000ec4	 x29:0x80000ddc  x5:0x80000dc0
       58635000	      5862	00000000	00000013	addi	x0,x0,0	  x0:0x00000000
       58645000	      5863	80000ec0	00000013	addi	x0,x0,0	  x0:0x00000000
       58655000	      5864	80000ec4	016a5f13	srli	x30,x20,0x16	 x20:0x50cdc300 x30=0x00000143
       58665000	      5865	80000ec8	906de213	ori	x4,x27,-1786	 x27:0x0000ae73  x4=0xffffff77
       58675000	      5866	80000ecc	e7d80493	addi	x9,x16,-387	 x16:0x80000dcc  x9=0x80000c49
       58685000	      5867	80000ed0	040b4863	blt	x22,x0,80000f20	 x22:0x586ac07c  x0:0x00000000
       58695000	      5868	80000ed4	28483a13	sltiu	x20,x16,644	 x16:0x80000dcc x20=0x00000000
       58705000	      5869	80000ed8	89c20093	addi	x1,x4,-1892	  x4:0xffffff77  x1=0xfffff813
       58715000	      5870	80000edc	40f00a33	sub	x20,x0,x15	  x0:0x00000000 x15:0x80009fc4 x20=0x7fff603c
       58725000	      5871	80000ee0	2c78d4b7	lui	x9,0x2c78d	  x9=0x2c78d000
       58735000	      5872	80000ee4	0047ea63	bltu	x15,x4,80000ef8	 x15:0x80009fc4  x4:0xffffff77
       58745000	      5873	00000000	00000013	addi	x0,x0,0	  x0:0x00000000
       58755000	      5874	80000ef4	00000013	addi	x0,x0,0	  x0:0x00000000
       58765000	      5875	80000ef8	043b5463	bge	x22,x3,80000f40	 x22:0x586ac07c  x3:0x80000c94
       58775000	      5876	00000000	00000013	addi	x0,x0,0	  x0:0x00000000
       58785000	      5877	80000f3c	00000013	addi	x0,x0,0	  x0:0x00000000
       58795000	      5878	80000f40	00e302b3	add	x5,x6,x14	  x6:0x00000000 x14:0x00000001  x5=0x00000001
       58805000	      5879	80000f44	41268433	sub	x8,x13,x18	 x13:0x80000eaf x18:0x00000001  x8=0x80000eae
       58815000	      5880	80000f48	48890813	addi	x16,x18,1160	 x18:0x00000001 x16=0x00000489
       58825000	      5881	80000f4c	00721a63	bne	x4,x7,80000f60	  x4:0xffffff77  x7:0xffffffc0
       58835000	      5882	00000000	00000013	addi	x0,x0,0	  x0:0x00000000
       58845000	      5883	80000f5c	00000013	addi	x0,x0,0	  x0:0x00000000
       58855000	      5884	80000f60	00815233	srl	x4,x2,x8	  x2:0xbd232e47  x8:0x80000eae  x4=0x0002f48c
       58865000	      5885	80000f64	01b7fd33	and	x26,x15,x27	 x15:0x80009fc4 x27:0x0000ae73 x26=0x00008e40
       58875000	      5886	80000f68	8a1b7693	andi	x13,x22,-1887	 x22:0x586ac07c x13=0x586ac020
       58885000	      5887	80000f6c	89738493	addi	x9,x7,-1897	  x7:0xffffffc0  x9=0xfffff857
       58895000	      5888	80000f70	01d0fa33	and	x20,x1,x29	  x1:0xfffff813 x29:0x80000ddc x20=0x80000810
       58905000	      5889	80000f74	00d3df13	srli	x30,x7,0xd	  x7:0xffffffc0 x30=0x0007ffff
       58915000	      5890	80000f78	0265dc63	bge	x11,x6,80000fb0	 x11:0x80000cc0  x6:0x00000000
       58925000	      5891	80000f7c	01764a63	blt	x12,x23,80000f90	 x12:0xffffff00 x23:0x80000fef
       58935000	      5892	80000f80	00d9be33	sltu	x28,x19,x13	 x19:0xffffffd5 x13:0x586ac020 x28=0x00000000
       58945000	      5893	80000f84	04199463	bne	x19,x1,80000fcc	 x19:0xffffffd5  x1:0xfffff813
       58955000	      5894	00000000	00000013	addi	x0,x0,0	  x0:0x00000000
       58965000	      5895	80000fc8	00000013	addi	x0,x0,0	  x0:0x00000000
       58975000	      5896	80000fcc	4b7520b7	lui	x1,0x4b752	  x1=0x4b752000
       58985000	      5897	80000fd0	75109697	auipc	x13,0x75109	 x13=0xf5109fcc
       58995000	      5898	80000fd4	40845693	srai	x13,x8,0x8	  x8:0x80000eae x13=0xff80000e
       59005000	      5899	80000fd8	0f2b0697	auipc	x13,0xf2b0	 x13=0x8f2b0fd4
       59015000	      5900	80000fdc	e4720993	addi	x19,x4,-441	  x4:0x0002f48c x19=0x0002f2d3
       59025000	      5901	80000fe0	05ae0463	beq	x28,x26,80001028	 x28:0x00000000 x26:0x00008e40
       59035000	      5902	80000fe4	03bfd063	bge	x31,x27,80001004	 x31:0x80009ef4 x27:0x0000ae73
       59045000	      5903	80000fe8	01e049b3	xor	x19,x0,x30	  x0:0x00000000 x30:0x0007ffff x19=0x0007ffff
       59055000	      5904	80000fec	01faf433	and	x8,x21,x31	 x21:0xffffe000 x31:0x80009ef4  x8=0x80008000
       59065000	      5905	80000ff0	00000013	addi	x0,x0,0	  x0:0x00000000
       59075000	      5906	80000ff4	84c68c13	addi	x24,x13,-1972	 x13:0x8f2b0fd4 x24=0x8f2b0820
       59085000	      5907	80000ff8	5a3e1017	auipc	x0,0x5a3e1	
       59095000	      5908	80000ffc	fe5fe713	ori	x14,x31,-27	 x31:0x80009ef4 x14=0xfffffff5
       59105000	      5909	80001000	12dd2413	slti	x8,x26,301	 x26:0x00008e40  x8=0x00000000
       59115000	      5910	80001004	006c4433	xor	x8,x24,x6	 x24:0x8f2b0820  x6:0x00000000  x8=0x8f2b0820
       59125000	      5911	80001008	01e63a33	sltu	x20,x12,x30	 x12:0xffffff00 x30:0x0007ffff x20=0x00000000
       59135000	      5912	8000100c	00d6fdb3	and	x27,x13,x13	 x13:0x8f2b0fd4 x13:0x8f2b0fd4 x27=0x8f2b0fd4
       59145000	      5913	80001010	012dbbb3	sltu	x23,x27,x18	 x27:0x8f2b0fd4 x18:0x00000001 x23=0x00000000
       59155000	      5914	80001014	049b0663	beq	x22,x9,80001060	 x22:0x586ac07c  x9:0xfffff857
       59165000	      5915	80001018	00881833	sll	x16,x16,x8	 x16:0x00000489  x8:0x8f2b0820 x16=0x00000489
       59175000	      5916	8000101c	8fe59097	auipc	x1,0x8fe59	  x1=0x0fe5a018
       59185000	      5917	80001020	01139233	sll	x4,x7,x17	  x7:0xffffffc0 x17:0x80000c94  x4=0xfc000000
       59195000	      5918	80001024	0562f437	lui	x8,0x562f	  x8=0x0562f000
       59205000	      5919	80001028	01b7f6b3	and	x13,x15,x27	 x15:0x80009fc4 x27:0x8f2b0fd4 x13=0x80000fc4
       59215000	      5920	8000102c	00b77833	and	x16,x14,x11	 x14:0xfffffff5 x11:0x80000cc0 x16=0x80000cc0
       59225000	      5921	80001030	02797863	bgeu	x18,x7,80001060	 x18:0x00000001  x7:0xffffffc0
       59235000	      5922	80001034	01843bb3	sltu	x23,x8,x24	  x8:0x0562f000 x24:0x8f2b0820 x23=0x00000001
       59245000	      5923	80001038	00000013	addi	x0,x0,0	  x0:0x00000000
       59255000	      5924	8000103c	00060e33	add	x28,x12,x0	 x12:0xffffff00  x0:0x00000000 x28=0xffffff00
       59265000	      5925	80001040	4012ac93	slti	x25,x5,1025	  x5:0x00000001 x25=0x00000001
       59275000	      5926	80001044	01dc0e63	beq	x24,x29,80001060	 x24:0x8f2b0820 x29:0x80000ddc
       59285000	      5927	80001048	414b83b3	sub	x7,x23,x20	 x23:0x00000001 x20:0x00000000  x7=0x00000001
       59295000	      5928	8000104c	00aa7a63	bgeu	x20,x10,80001060	 x20:0x00000000 x10:0x80000de0
       59305000	      5929	80001050	018df863	bgeu	x27,x24,80001060	 x27:0x8f2b0fd4 x24:0x8f2b0820
       59315000	      5930	00000000	00000013	addi	x0,x0,0	  x0:0x00000000
       59325000	      5931	8000105c	00000013	addi	x0,x0,0	  x0:0x00000000
       59335000	      5932	80001060	007e8d33	add	x26,x29,x7	 x29:0x80000ddc  x7:0x00000001 x26=0x80000ddd
       59345000	      5933	80001064	16c5ec13	ori	x24,x11,364	 x11:0x80000cc0 x24=0x80000dec
       59355000	      5934	80001068	004fa883	lw	x17,4(x31)	 x31:0x80009ef4 x17=0x800002ac PA:0x80009ef8
       59365000	      5935	8000106c	1d73fa13	andi	x20,x7,471	  x7:0x00000001 x20=0x00000001
       59375000	      5936	80001070	ad694813	xori	x16,x18,-1322	 x18:0x00000001 x16=0xfffffad7
       59385000	      5937	80001074	030f8f93	addi	x31,x31,48	 x31:0x80009ef4 x31=0x80009f24
       59395000	      5938	80001078	308e5017	auipc	x0,0x308e5	
       59405000	      5939	8000107c	41775213	srai	x4,x14,0x17	 x14:0xfffffff5  x4=0xffffffff
       59415000	      5940	80001080	01c7c033	xor	x0,x15,x28	 x15:0x80009fc4 x28:0xffffff00
       59425000	      5941	80001084	ca612693	slti	x13,x2,-858	  x2:0xbd232e47 x13=0x00000001
       59435000	      5942	80001088	40658f33	sub	x30,x11,x6	 x11:0x80000cc0  x6:0x00000000 x30=0x80000cc0
       59445000	      5943	8000108c	00188293	addi	x5,x17,1	 x17:0x800002ac  x5=0x800002ad
       59455000	      5944	80001090	000282e7	jalr	x5,x5,0	  x5:0x800002ad  x5=0x80001090
       59465000	      5945	00000000	00000013	addi	x0,x0,0	  x0:0x00000000
       59475000	      5946	800002ac	00000013	addi	x0,x0,0	  x0:0x00000000
       59485000	      5947	800002b0	011c5b93	srli	x23,x24,0x11	 x24:0x80000dec x23=0x00004000
       59495000	      5948	800002b4	51ed8313	addi	x6,x27,1310	 x27:0x8f2b0fd4  x6=0x8f2b14f2
       59505000	      5949	800002b8	01df9833	sll	x16,x31,x29	 x31:0x80009f24 x29:0x80000ddc x16=0x40000000
       59515000	      5950	800002bc	418f88b3	sub	x17,x31,x24	 x31:0x80009f24 x24:0x80000dec x17=0x00009138
       59525000	      5951	800002c0	9ee9cc93	xori	x25,x19,-1554	 x19:0x0007ffff x25=0xfff80611
       59535000	      5952	800002c4	00722533	slt	x10,x4,x7	  x4:0xffffffff  x7:0x00000001 x10=0x00000001
       59545000	      5953	800002c8	b3da0913	addi	x18,x20,-1219	 x20:0x00000001 x18=0xfffffb3e
       59555000	      5954	800002cc	004e12b3	sll	x5,x28,x4	 x28:0xffffff00  x4:0xffffffff  x5=0x00000000
       59565000	      5955	800002d0	013a8e63	beq	x21,x19,800002ec	 x21:0xffffe000 x19:0x0007ffff
       59575000	      5956	800002d4	cc3d3f13	sltiu	x30,x26,-829	 x26:0x80000ddd x30=0x00000001
       59585000	      5957	800002d8	00b54a63	blt	x10,x11,800002ec	 x10:0x00000001 x11:0x80000cc0
       59595000	      5958	800002dc	01228863	beq	x5,x18,800002ec	  x5:0x00000000 x18:0xfffffb3e
       59605000	      5959	800002e0	0157cf33	xor	x30,x15,x21	 x15:0x80009fc4 x21:0xffffe000 x30=0x7fff7fc4
       59615000	      5960	800002e4	010a1463	bne	x20,x16,800002ec	 x20:0x00000001 x16:0x40000000
       59625000	      5961	00000000	00000013	addi	x0,x0,0	  x0:0x00000000
       59635000	      5962	800002e8	00000013	addi	x0,x0,0	  x0:0x00000000
       59645000	      5963	800002ec	01b859b3	srl	x19,x16,x27	 x16:0x40000000 x27:0x8f2b0fd4 x19=0x00000400
       59655000	      5964	800002f0	004fa883	lw	x17,4(x31)	 x31:0x80009f24 x17=0x8000059c PA:0x80009f28
       59665000	      5965	800002f4	01df64b3	or	x9,x30,x29	 x30:0x7fff7fc4 x29:0x80000ddc  x9=0xffff7fdc
       59675000	      5966	800002f8	01e7b633	sltu	x12,x15,x30	 x15:0x80009fc4 x30:0x7fff7fc4 x12=0x00000000
       59685000	      5967	800002fc	415f0f33	sub	x30,x30,x21	 x30:0x7fff7fc4 x21:0xffffe000 x30=0x7fff9fc4
       59695000	      5968	80000300	020f8f93	addi	x31,x31,32	 x31:0x80009f24 x31=0x80009f44
       59705000	      5969	80000304	41a053b3	sra	x7,x0,x26	  x0:0x00000000 x26:0x80000ddd  x7=0x00000000
       59715000	      5970	80000308	00e0ee33	or	x28,x1,x14	  x1:0x0fe5a018 x14:0xfffffff5 x28=0xfffffffd
       59725000	      5971	8000030c	64a7acb7	lui	x25,0x64a7a	 x25=0x64a7a000
       59735000	      5972	80000310	ca1c0293	addi	x5,x24,-863	 x24:0x80000dec  x5=0x80000a8d
       59745000	      5973	80000314	00da5d13	srli	x26,x20,0xd	 x20:0x00000001 x26=0x00000000
       59755000	      5974	80000318	00188e13	addi	x28,x17,1	 x17:0x8000059c x28=0x8000059d
       59765000	      5975	8000031c	000e0e67	jalr	x28,x28,0	 x28:0x8000059d x28=0x8000031c
       59775000	      5976	00000000	00000013	addi	x0,x0,0	  x0:0x00000000
       59785000	      5977	8000059c	00000013	addi	x0,x0,0	  x0:0x00000000
       59795000	      5978	800005a0	0161c8b3	xor	x17,x3,x22	  x3:0x80000c94 x22:0x586ac07c x17=0xd86acce8
       59805000	      5979	800005a4	01ba6463	bltu	x20,x27,800005ac	 x20:0x00000001 x27:0x8f2b0fd4
       59815000	      5980	00000000	00000013	addi	x0,x0,0	  x0:0x00000000
       59825000	      5981	800005a8	00000013	addi	x0,x0,0	  x0:0x00000000
       59835000	      5982	800005ac	4136d213	srai	x4,x13,0x13	 x13:0x00000001  x4=0x00000000
       59845000	      5983	800005b0	01177013	andi	x0,x14,17	 x14:0xfffffff5
       59855000	      5984	800005b4	08f00063	beq	x0,x15,80000634	  x0:0x00000000 x15:0x80009fc4
       59865000	      5985	800005b8	00dc9c63	bne	x25,x13,800005d0	 x25:0x64a7a000 x13:0x00000001
       59875000	      5986	00000000	00000013	addi	x0,x0,0	  x0:0x00000000
       59885000	      5987	800005cc	00000013	addi	x0,x0,0	  x0:0x00000000
       59895000	      5988	800005d0	324bc013	xori	x0,x23,804	 x23:0x00004000
       59905000	      5989	800005d4	01288033	add	x0,x17,x18	 x17:0xd86acce8 x18:0xfffffb3e
       59915000	      5990	800005d8	00b7a5b3	slt	x11,x15,x11	 x15:0x80009fc4 x11:0x80000cc0 x11=0x00000000
       59925000	      5991	800005dc	030008ef	jal	x17,800005dc	 x17=0x800005dc
       59935000	      5992	00000000	00000013	addi	x0,x0,0	  x0:0x00000000
       59945000	      5993	80000608	00000013	addi	x0,x0,0	  x0:0x00000000
       59955000	      5994	8000060c	ff5ff26f	jal	x4,8000060c	  x4=0x8000060c
       59965000	      5995	00000000	00000013	addi	x0,x0,0	  x0:0x00000000
       59975000	      5996	800005fc	00000013	addi	x0,x0,0	  x0:0x00000000
       59985000	      5997	80000600	fe9ff2ef	jal	x5,80000600	  x5=0x80000600
       59995000	      5998	00000000	00000013	addi	x0,x0,0	  x0:0x00000000
       60005000	      5999	800005e4	00000013	addi	x0,x0,0	  x0:0x00000000
       60015000	      6000	800005e8	ff9ff0ef	jal	x1,800005e8	  x1=0x800005e8
       60025000	      6001	00000000	00000013	addi	x0,x0,0	  x0:0x00000000
       60035000	      6002	800005dc	00000013	addi	x0,x0,0	  x0:0x00000000
       60045000	      6003	800005e0	01c000ef	jal	x1,800005e0	  x1=0x800005e0
       60055000	      6004	00000000	00000013	addi	x0,x0,0	  x0:0x00000000
       60065000	      6005	800005f8	00000013	addi	x0,x0,0	  x0:0x00000000
       60075000	      6006	800005fc	ffdff0ef	jal	x1,800005fc	  x1=0x800005fc
       60085000	      6007	00000000	00000013	addi	x0,x0,0	  x0:0x00000000
       60095000	      6008	800005f4	00000013	addi	x0,x0,0	  x0:0x00000000
       60105000	      6009	800005f8	fedff0ef	jal	x1,800005f8	  x1=0x800005f8
       60115000	      6010	00000000	00000013	addi	x0,x0,0	  x0:0x00000000
       60125000	      6011	800005e0	00000013	addi	x0,x0,0	  x0:0x00000000
       60135000	      6012	800005e4	00c0036f	jal	x6,800005e4	  x6=0x800005e4
       60145000	      6013	00000000	00000013	addi	x0,x0,0	  x0:0x00000000
       60155000	      6014	800005ec	00000013	addi	x0,x0,0	  x0:0x00000000
       60165000	      6015	800005f0	ffdff0ef	jal	x1,800005f0	  x1=0x800005f0
       60175000	      6016	00000000	00000013	addi	x0,x0,0	  x0:0x00000000
       60185000	      6017	800005e8	00000013	addi	x0,x0,0	  x0:0x00000000
       60195000	      6018	800005ec	008000ef	jal	x1,800005ec	  x1=0x800005ec
       60205000	      6019	00000000	00000013	addi	x0,x0,0	  x0:0x00000000
       60215000	      6020	800005f0	00000013	addi	x0,x0,0	  x0:0x00000000
       60225000	      6021	800005f4	0100036f	jal	x6,800005f4	  x6=0x800005f4
       60235000	      6022	00000000	00000013	addi	x0,x0,0	  x0:0x00000000
       60245000	      6023	80000600	00000013	addi	x0,x0,0	  x0:0x00000000
       60255000	      6024	80000604	004000ef	jal	x1,80000604	  x1=0x80000604
       60265000	      6025	00000000	00000013	addi	x0,x0,0	  x0:0x00000000
       60275000	      6026	80000604	00000013	addi	x0,x0,0	  x0:0x00000000
       60285000	      6027	80000608	008000ef	jal	x1,80000608	  x1=0x80000608
       60295000	      6028	00000000	00000013	addi	x0,x0,0	  x0:0x00000000
       60305000	      6029	8000060c	00000013	addi	x0,x0,0	  x0:0x00000000
       60315000	      6030	80000610	40b85293	srai	x5,x16,0xb	 x16:0x40000000  x5=0x00080000
       60325000	      6031	80000614	98662597	auipc	x11,0x98662	 x11=0x18662610
       60335000	      6032	80000618	03e89863	bne	x17,x30,80000648	 x17:0x800005dc x30:0x7fff9fc4
       60345000	      6033	00000000	00000013	addi	x0,x0,0	  x0:0x00000000
       60355000	      6034	80000644	00000013	addi	x0,x0,0	  x0:0x00000000
       60365000	      6035	80000648	152f3697	auipc	x13,0x152f3	 x13=0x952f3644
       60375000	      6036	8000064c	101286b7	lui	x13,0x10128	 x13=0x10128000
       60385000	      6037	80000650	406c8eb3	sub	x29,x25,x6	 x25:0x64a7a000  x6:0x800005f4 x29=0xe4a79a0c
       60395000	      6038	80000654	a3518413	addi	x8,x3,-1483	  x3:0x80000c94  x8=0x800006c9
       60405000	      6039	80000658	035bf063	bgeu	x23,x21,80000678	 x23:0x00004000 x21:0xffffe000
       60415000	      6040	8000065c	b4262913	slti	x18,x12,-1214	 x12:0x00000000 x18=0x00000000
       60425000	      6041	80000660	01a1f6b3	and	x13,x3,x26	  x3:0x80000c94 x26:0x00000000 x13=0x00000000
       60435000	      6042	80000664	00b0d9b3	srl	x19,x1,x11	  x1:0x80000608 x11:0x18662610 x19=0x00008000
       60445000	      6043	80000668	01935333	srl	x6,x6,x25	  x6:0x800005f4 x25:0x64a7a000  x6=0x800005f4
       60455000	      6044	8000066c	042c3b13	sltiu	x22,x24,66	 x24:0x80000dec x22=0x00000000
       60465000	      6045	80000670	1b966693	ori	x13,x12,441	 x12:0x00000000 x13=0x000001b9
       60475000	      6046	80000674	01de61b3	or	x3,x28,x29	 x28:0x8000031c x29:0xe4a79a0c  x3=0xe4a79b1c
       60485000	      6047	80000678	00df68b3	or	x17,x30,x13	 x30:0x7fff9fc4 x13:0x000001b9 x17=0x7fff9ffd
       60495000	      6048	8000067c	006c9213	slli	x4,x25,0x6	 x25:0x64a7a000  x4=0x29e80000
       60505000	      6049	80000680	02cf9863	bne	x31,x12,800006b0	 x31:0x80009f44 x12:0x00000000
       60515000	      6050	00000000	00000013	addi	x0,x0,0	  x0:0x00000000
       60525000	      6051	800006ac	00000013	addi	x0,x0,0	  x0:0x00000000
       60535000	      6052	800006b0	0036b6b3	sltu	x13,x13,x3	 x13:0x000001b9  x3:0xe4a79b1c x13=0x00000001
       60545000	      6053	800006b4	01f99633	sll	x12,x19,x31	 x19:0x00008000 x31:0x80009f44 x12=0x00080000
       60555000	      6054	800006b8	b07da193	slti	x3,x27,-1273	 x27:0x8f2b0fd4  x3=0x00000001
       60565000	      6055	800006bc	de1d3e13	sltiu	x28,x26,-543	 x26:0x00000000 x28=0x00000001
       60575000	      6056	800006c0	0072c633	xor	x12,x5,x7	  x5:0x00080000  x7:0x00000000 x12=0x00080000
       60585000	      6057	800006c4	01aada93	srli	x21,x21,0x1a	 x21:0xffffe000 x21=0x0000003f
       60595000	      6058	800006c8	0157b333	sltu	x6,x15,x21	 x15:0x80009fc4 x21:0x0000003f  x6=0x00000000
       60605000	      6059	800006cc	00b84033	xor	x0,x16,x11	 x16:0x40000000 x11:0x18662610
       60615000	      6060	800006d0	02264863	blt	x12,x2,80000700	 x12:0x00080000  x2:0xbd232e47
       60625000	      6061	800006d4	40588d33	sub	x26,x17,x5	 x17:0x7fff9ffd  x5:0x00080000 x26=0x7ff79ffd
       60635000	      6062	800006d8	010108b3	add	x17,x2,x16	  x2:0xbd232e47 x16:0x40000000 x17=0xfd232e47
       60645000	      6063	800006dc	00ed4a63	blt	x26,x14,800006f0	 x26:0x7ff79ffd x14:0xfffffff5
       60655000	      6064	800006e0	057f7463	bgeu	x30,x23,80000728	 x30:0x7fff9fc4 x23:0x00004000
       60665000	      6065	00000000	00000013	addi	x0,x0,0	  x0:0x00000000
       60675000	      6066	80000724	00000013	addi	x0,x0,0	  x0:0x00000000
       60685000	      6067	80000728	002f0bb3	add	x23,x30,x2	 x30:0x7fff9fc4  x2:0xbd232e47 x23=0x3d22ce0b
       60695000	      6068	8000072c	056e5663	bge	x28,x22,80000778	 x28:0x00000001 x22:0x00000000
       60705000	      6069	00000000	00000013	addi	x0,x0,0	  x0:0x00000000
       60715000	      6070	80000774	00000013	addi	x0,x0,0	  x0:0x00000000
       60725000	      6071	80000778	00f69913	slli	x18,x13,0xf	 x13:0x00000001 x18=0x00008000
       60735000	      6072	8000077c	04391663	bne	x18,x3,800007c8	 x18:0x00008000  x3:0x00000001
       60745000	      6073	00000000	00000013	addi	x0,x0,0	  x0:0x00000000
       60755000	      6074	800007c4	00000013	addi	x0,x0,0	  x0:0x00000000
       60765000	      6075	800007c8	002d3c33	sltu	x24,x26,x2	 x26:0x7ff79ffd  x2:0xbd232e47 x24=0x00000001
       60775000	      6076	800007cc	6f050313	addi	x6,x10,1776	 x10:0x00000001  x6=0x000006f1
       60785000	      6077	800007d0	690b3c13	sltiu	x24,x22,1680	 x22:0x00000000 x24=0x00000001
       60795000	      6078	800007d4	9f62b537	lui	x10,0x9f62b	 x10=0x9f62b000
       60805000	      6079	800007d8	0dd16593	ori	x11,x2,221	  x2:0xbd232e47 x11=0xbd232edf
       60815000	      6080	800007dc	05487663	bgeu	x16,x20,80000828	 x16:0x40000000 x20:0x00000001
       60825000	      6081	00000000	00000013	addi	x0,x0,0	  x0:0x00000000
       60835000	      6082	80000824	00000013	addi	x0,x0,0	  x0:0x00000000
       60845000	      6083	80000828	01b91eb3	sll	x29,x18,x27	 x18:0x00008000 x27:0x8f2b0fd4 x29=0x00000000
       60855000	      6084	8000082c	572b3397	auipc	x7,0x572b3	  x7=0xd72b3828
       60865000	      6085	80000830	01d5a333	slt	x6,x11,x29	 x11:0xbd232edf x29:0x00000000  x6=0x00000001
       60875000	      6086	80000834	41d304b3	sub	x9,x6,x29	  x6:0x00000001 x29:0x00000000  x9=0x00000001
       60885000	      6087	80000838	40bdd313	srai	x6,x27,0xb	 x27:0x8f2b0fd4  x6=0xfff1e561
       60895000	      6088	8000083c	01759613	slli	x12,x11,0x17	 x11:0xbd232edf x12=0x6f800000
       60905000	      6089	80000840	02135863	bge	x6,x1,80000870	  x6:0xfff1e561  x1:0x80000608
       60915000	      6090	00000000	00000013	addi	x0,x0,0	  x0:0x00000000
       60925000	      6091	8000086c	00000013	addi	x0,x0,0	  x0:0x00000000
       60935000	      6092	80000870	01649e93	slli	x29,x9,0x16	  x9:0x00000001 x29=0x00400000
       60945000	      6093	80000874	01408c33	add	x24,x1,x20	  x1:0x80000608 x20:0x00000001 x24=0x80000609
       60955000	      6094	80000878	01c74e63	blt	x14,x28,80000894	 x14:0xfffffff5 x28:0x00000001
       60965000	      6095	00000000	00000013	addi	x0,x0,0	  x0:0x00000000
       60975000	      6096	80000890	00000013	addi	x0,x0,0	  x0:0x00000000
       60985000	      6097	80000894	97aba493	slti	x9,x23,-1670	 x23:0x3d22ce0b  x9=0x00000000
       60995000	      6098	80000898	018008ef	jal	x17,80000898	 x17=0x80000898
       61005000	      6099	00000000	00000013	addi	x0,x0,0	  x0:0x00000000
       61015000	      6100	800008ac	00000013	addi	x0,x0,0	  x0:0x00000000
       61025000	      6101	800008b0	ff1ffeef	jal	x29,800008b0	 x29=0x800008b0
       61035000	      6102	00000000	00000013	addi	x0,x0,0	  x0:0x00000000
       61045000	      6103	8000089c	00000013	addi	x0,x0,0	  x0:0x00000000
       61055000	      6104	800008a0	018000ef	jal	x1,800008a0	  x1=0x800008a0
       61065000	      6105	00000000	00000013	addi	x0,x0,0	  x0:0x00000000
       61075000	      6106	800008b4	00000013	addi	x0,x0,0	  x0:0x00000000
       61085000	      6107	800008b8	008006ef	jal	x13,800008b8	 x13=0x800008b8
       61095000	      6108	00000000	00000013	addi	x0,x0,0	  x0:0x00000000
       61105000	      6109	800008bc	00000013	addi	x0,x0,0	  x0:0x00000000
       61115000	      6110	800008c0	ff5ff96f	jal	x18,800008c0	 x18=0x800008c0
       61125000	      6111	00000000	00000013	addi	x0,x0,0	  x0:0x00000000
       61135000	      6112	800008b0	00000013	addi	x0,x0,0	  x0:0x00000000
       61145000	      6113	800008b4	008000ef	jal	x1,800008b4	  x1=0x800008b4
       61155000	      6114	00000000	00000013	addi	x0,x0,0	  x0:0x00000000
       61165000	      6115	800008b8	00000013	addi	x0,x0,0	  x0:0x00000000
       61175000	      6116	800008bc	fe1ff0ef	jal	x1,800008bc	  x1=0x800008bc
       61185000	      6117	00000000	00000013	addi	x0,x0,0	  x0:0x00000000
       61195000	      6118	80000898	00000013	addi	x0,x0,0	  x0:0x00000000
       61205000	      6119	8000089c	03c000ef	jal	x1,8000089c	  x1=0x8000089c
       61215000	      6120	00000000	00000013	addi	x0,x0,0	  x0:0x00000000
       61225000	      6121	800008d4	00000013	addi	x0,x0,0	  x0:0x00000000
       61235000	      6122	800008d8	fd1ff4ef	jal	x9,800008d8	  x9=0x800008d8
       61245000	      6123	00000000	00000013	addi	x0,x0,0	  x0:0x00000000
       61255000	      6124	800008a4	00000013	addi	x0,x0,0	  x0:0x00000000
       61265000	      6125	800008a8	ffdff0ef	jal	x1,800008a8	  x1=0x800008a8
       61275000	      6126	00000000	00000013	addi	x0,x0,0	  x0:0x00000000
       61285000	      6127	800008a0	00000013	addi	x0,x0,0	  x0:0x00000000
       61295000	      6128	800008a4	02c000ef	jal	x1,800008a4	  x1=0x800008a4
       61305000	      6129	00000000	00000013	addi	x0,x0,0	  x0:0x00000000
       61315000	      6130	800008cc	00000013	addi	x0,x0,0	  x0:0x00000000
       61325000	      6131	800008d0	fddfff6f	jal	x30,800008d0	 x30=0x800008d0
       61335000	      6132	00000000	00000013	addi	x0,x0,0	  x0:0x00000000
       61345000	      6133	800008a8	00000013	addi	x0,x0,0	  x0:0x00000000
       61355000	      6134	800008ac	01c000ef	jal	x1,800008ac	  x1=0x800008ac
       61365000	      6135	00000000	00000013	addi	x0,x0,0	  x0:0x00000000
       61375000	      6136	800008c4	00000013	addi	x0,x0,0	  x0:0x00000000
       61385000	      6137	800008c8	ffdff36f	jal	x6,800008c8	  x6=0x800008c8
       61395000	      6138	00000000	00000013	addi	x0,x0,0	  x0:0x00000000
       61405000	      6139	800008c0	00000013	addi	x0,x0,0	  x0:0x00000000
       61415000	      6140	800008c4	010000ef	jal	x1,800008c4	  x1=0x800008c4
       61425000	      6141	00000000	00000013	addi	x0,x0,0	  x0:0x00000000
       61435000	      6142	800008d0	00000013	addi	x0,x0,0	  x0:0x00000000
       61445000	      6143	800008d4	ff9ff0ef	jal	x1,800008d4	  x1=0x800008d4
       61455000	      6144	00000000	00000013	addi	x0,x0,0	  x0:0x00000000
       61465000	      6145	800008c8	00000013	addi	x0,x0,0	  x0:0x00000000
       61475000	      6146	800008cc	0100036f	jal	x6,800008cc	  x6=0x800008cc
       61485000	      6147	00000000	00000013	addi	x0,x0,0	  x0:0x00000000
       61495000	      6148	800008d8	00000013	addi	x0,x0,0	  x0:0x00000000
       61505000	      6149	800008dc	407b54b3	sra	x9,x22,x7	 x22:0x00000000  x7:0xd72b3828  x9=0x00000000
       61515000	      6150	800008e0	9ca7aeb7	lui	x29,0x9ca7a	 x29=0x9ca7a000
       61525000	      6151	800008e4	016c0c63	beq	x24,x22,800008fc	 x24:0x80000609 x22:0x00000000
       61535000	      6152	800008e8	404356b3	sra	x13,x6,x4	  x6:0x800008cc  x4:0x29e80000 x13=0x800008cc
       61545000	      6153	800008ec	dc9e7a13	andi	x20,x28,-567	 x28:0x00000001 x20=0x00000001
       61555000	      6154	800008f0	02c55c63	bge	x10,x12,80000928	 x10:0x9f62b000 x12:0x6f800000
       61565000	      6155	800008f4	000ce8b3	or	x17,x25,x0	 x25:0x64a7a000  x0:0x00000000 x17=0x64a7a000
       61575000	      6156	800008f8	411b0e33	sub	x28,x22,x17	 x22:0x00000000 x17:0x64a7a000 x28=0x9b586000
       61585000	      6157	800008fc	00977a63	bgeu	x14,x9,80000910	 x14:0xfffffff5  x9:0x00000000
       61595000	      6158	00000000	00000013	addi	x0,x0,0	  x0:0x00000000
       61605000	      6159	8000090c	00000013	addi	x0,x0,0	  x0:0x00000000
       61615000	      6160	80000910	72128d37	lui	x26,0x72128	 x26=0x72128000
       61625000	      6161	80000914	405c8db3	sub	x27,x25,x5	 x25:0x64a7a000  x5:0x00080000 x27=0x649fa000
       61635000	      6162	80000918	01008933	add	x18,x1,x16	  x1:0x800008d4 x16:0x40000000 x18=0xc00008d4
       61645000	      6163	8000091c	00c03bb3	sltu	x23,x0,x12	  x0:0x00000000 x12:0x6f800000 x23=0x00000001
       61655000	      6164	80000920	f561edb7	lui	x27,0xf561e	 x27=0xf561e000
       61665000	      6165	80000924	013f20b3	slt	x1,x30,x19	 x30:0x800008d0 x19:0x00008000  x1=0x00000001
       61675000	      6166	80000928	019d6263	bltu	x26,x25,8000092c	 x26:0x72128000 x25:0x64a7a000
       61685000	      6167	8000092c	061bb593	sltiu	x11,x23,97	 x23:0x00000001 x11=0x00000001
       61695000	      6168	80000930	326a2013	slti	x0,x20,806	 x20:0x00000001
       61705000	      6169	80000934	00fc0633	add	x12,x24,x15	 x24:0x80000609 x15:0x80009fc4 x12=0x0000a5cd
       61715000	      6170	80000938	de053713	sltiu	x14,x10,-544	 x10:0x9f62b000 x14=0x00000001
       61725000	      6171	8000093c	00e6f733	and	x14,x13,x14	 x13:0x800008cc x14:0x00000001 x14=0x00000000
       61735000	      6172	80000940	00000013	addi	x0,x0,0	  x0:0x00000000
       61745000	      6173	80000944	03e39063	bne	x7,x30,80000964	  x7:0xd72b3828 x30:0x800008d0
       61755000	      6174	00000000	00000013	addi	x0,x0,0	  x0:0x00000000
       61765000	      6175	80000960	00000013	addi	x0,x0,0	  x0:0x00000000
       61775000	      6176	80000964	01993c33	sltu	x24,x18,x25	 x18:0xc00008d4 x25:0x64a7a000 x24=0x00000000
       61785000	      6177	80000968	4163d6b3	sra	x13,x7,x22	  x7:0xd72b3828 x22:0x00000000 x13=0xd72b3828
       61795000	      6178	8000096c	4123dd93	srai	x27,x7,0x12	  x7:0xd72b3828 x27=0xfffff5ca
       61805000	      6179	80000970	7de5f397	auipc	x7,0x7de5f	  x7=0xfde5f96c
       61815000	      6180	80000974	01475b93	srli	x23,x14,0x14	 x14:0x00000000 x23=0x00000000
       61825000	      6181	80000978	04d98063	beq	x19,x13,800009b8	 x19:0x00008000 x13:0xd72b3828
       61835000	      6182	8000097c	04c2c463	blt	x5,x12,800009c4	  x5:0x00080000 x12:0x0000a5cd
       61845000	      6183	80000980	04ddd063	bge	x27,x13,800009c0	 x27:0xfffff5ca x13:0xd72b3828
       61855000	      6184	00000000	00000013	addi	x0,x0,0	  x0:0x00000000
       61865000	      6185	800009bc	00000013	addi	x0,x0,0	  x0:0x00000000
       61875000	      6186	800009c0	01c3c463	blt	x7,x28,800009c8	  x7:0xfde5f96c x28:0x9b586000
       61885000	      6187	800009c4	44047d13	andi	x26,x8,1088	  x8:0x800006c9 x26=0x00000440
       61895000	      6188	800009c8	00c84bb3	xor	x23,x16,x12	 x16:0x40000000 x12:0x0000a5cd x23=0x4000a5cd
       61905000	      6189	800009cc	41ea8ab3	sub	x21,x21,x30	 x21:0x0000003f x30:0x800008d0 x21=0x7ffff76f
       61915000	      6190	800009d0	01a93ab3	sltu	x21,x18,x26	 x18:0xc00008d4 x26:0x00000440 x21=0x00000000
       61925000	      6191	800009d4	01470233	add	x4,x14,x20	 x14:0x00000000 x20:0x00000001  x4=0x00000001
       61935000	      6192	800009d8	a5b3a093	slti	x1,x7,-1445	  x7:0xfde5f96c  x1=0x00000001
       61945000	      6193	800009dc	23937393	andi	x7,x6,569	  x6:0x800008cc  x7=0x00000008
       61955000	      6194	800009e0	0318d863	bge	x17,x17,80000a10	 x17:0x64a7a000 x17:0x64a7a000
       61965000	      6195	00000000	00000013	addi	x0,x0,0	  x0:0x00000000
       61975000	      6196	80000a0c	00000013	addi	x0,x0,0	  x0:0x00000000
       61985000	      6197	80000a10	03641863	bne	x8,x22,80000a40	  x8:0x800006c9 x22:0x00000000
       61995000	      6198	00000000	00000013	addi	x0,x0,0	  x0:0x00000000
       62005000	      6199	80000a3c	00000013	addi	x0,x0,0	  x0:0x00000000
       62015000	      6200	80000a40	011c9663	bne	x25,x17,80000a4c	 x25:0x64a7a000 x17:0x64a7a000
       62025000	      6201	80000a44	01d3e463	bltu	x7,x29,80000a4c	  x7:0x00000008 x29:0x9ca7a000
       62035000	      6202	00000000	00000013	addi	x0,x0,0	  x0:0x00000000
       62045000	      6203	80000a48	00000013	addi	x0,x0,0	  x0:0x00000000
       62055000	      6204	80000a4c	055dd463	bge	x27,x21,80000a94	 x27:0xfffff5ca x21:0x00000000
       62065000	      6205	80000a50	3799cf13	xori	x30,x19,889	 x19:0x00008000 x30=0x00008379
       62075000	      6206	80000a54	03a76c63	bltu	x14,x26,80000a8c	 x14:0x00000000 x26:0x00000440
       62085000	      6207	00000000	00000013	addi	x0,x0,0	  x0:0x00000000
       62095000	      6208	80000a88	00000013	addi	x0,x0,0	  x0:0x00000000
       62105000	      6209	80000a8c	412150b3	sra	x1,x2,x18	  x2:0xbd232e47 x18:0xc00008d4  x1=0xfffffbd2
       62115000	      6210	80000a90	02d24a63	blt	x4,x13,80000ac4	  x4:0x00000001 x13:0xd72b3828
       62125000	      6211	80000a94	010362b3	or	x5,x6,x16	  x6:0x800008cc x16:0x40000000  x5=0xc00008cc
       62135000	      6212	80000a98	7ed42013	slti	x0,x8,2029	  x8:0x800006c9
       62145000	      6213	80000a9c	e5cf0eb7	lui	x29,0xe5cf0	 x29=0xe5cf0000
       62155000	      6214	80000aa0	009745b7	lui	x11,0x974	 x11=0x00974000
       62165000	      6215	80000aa4	94c46913	ori	x18,x8,-1716	  x8:0x800006c9 x18=0xffffffcd
       62175000	      6216	80000aa8	006a9e33	sll	x28,x21,x6	 x21:0x00000000  x6:0x800008cc x28=0x00000000
       62185000	      6217	80000aac	01276c63	bltu	x14,x18,80000ac4	 x14:0x00000000 x18:0xffffffcd
       62195000	      6218	00000000	00000013	addi	x0,x0,0	  x0:0x00000000
       62205000	      6219	80000ac0	00000013	addi	x0,x0,0	  x0:0x00000000
       62215000	      6220	80000ac4	02528863	beq	x5,x5,80000af4	  x5:0xc00008cc  x5:0xc00008cc
       62225000	      6221	00000000	00000013	addi	x0,x0,0	  x0:0x00000000
       62235000	      6222	80000af0	00000013	addi	x0,x0,0	  x0:0x00000000
       62245000	      6223	80000af4	01ecc433	xor	x8,x25,x30	 x25:0x64a7a000 x30:0x00008379  x8=0x64a72379
       62255000	      6224	80000af8	01617e33	and	x28,x2,x22	  x2:0xbd232e47 x22:0x00000000 x28=0x00000000
       62265000	      6225	80000afc	2b4f4613	xori	x12,x30,692	 x30:0x00008379 x12=0x000081cd
       62275000	      6226	80000b00	01141263	bne	x8,x17,80000b04	  x8:0x64a72379 x17:0x64a7a000
       62285000	      6227	00000000	00000013	addi	x0,x0,0	  x0:0x00000000
       62295000	      6228	80000b00	00000013	addi	x0,x0,0	  x0:0x00000000
       62305000	      6229	80000b04	00000013	addi	x0,x0,0	  x0:0x00000000
       62315000	      6230	80000b08	ff683513	sltiu	x10,x16,-10	 x16:0x40000000 x10=0x00000001
       62325000	      6231	80000b0c	019f3bb3	sltu	x23,x30,x25	 x30:0x00008379 x25:0x64a7a000 x23=0x00000001
       62335000	      6232	80000b10	0198c1b3	xor	x3,x17,x25	 x17:0x64a7a000 x25:0x64a7a000  x3=0x00000000
       62345000	      6233	80000b14	00e61f33	sll	x30,x12,x14	 x12:0x000081cd x14:0x00000000 x30=0x000081cd
       62355000	      6234	80000b18	02494863	blt	x18,x4,80000b48	 x18:0xffffffcd  x4:0x00000001
       62365000	      6235	00000000	00000013	addi	x0,x0,0	  x0:0x00000000
       62375000	      6236	80000b44	00000013	addi	x0,x0,0	  x0:0x00000000
       62385000	      6237	80000b48	01057933	and	x18,x10,x16	 x10:0x00000001 x16:0x40000000 x18=0x00000000
       62395000	      6238	80000b4c	40455c93	srai	x25,x10,0x4	 x10:0x00000001 x25=0x00000000
       62405000	      6239	80000b50	af692c17	auipc	x24,0xaf692	 x24=0x2f692b4c
       62415000	      6240	80000b54	02f26863	bltu	x4,x15,80000b84	  x4:0x00000001 x15:0x80009fc4
       62425000	      6241	00000000	00000013	addi	x0,x0,0	  x0:0x00000000
       62435000	      6242	80000b80	00000013	addi	x0,x0,0	  x0:0x00000000
       62445000	      6243	80000b84	010f6333	or	x6,x30,x16	 x30:0x000081cd x16:0x40000000  x6=0x400081cd
       62455000	      6244	80000b88	fa20af13	slti	x30,x1,-94	  x1:0xfffffbd2 x30=0x00000001
       62465000	      6245	80000b8c	016f9033	sll	x0,x31,x22	 x31:0x80009f44 x22:0x00000000
       62475000	      6246	80000b90	00189863	bne	x17,x1,80000ba0	 x17:0x64a7a000  x1:0xfffffbd2
       62485000	      6247	00000000	00000013	addi	x0,x0,0	  x0:0x00000000
       62495000	      6248	80000b9c	00000013	addi	x0,x0,0	  x0:0x00000000
       62505000	      6249	80000ba0	011cfab3	and	x21,x25,x17	 x25:0x00000000 x17:0x64a7a000 x21=0x00000000
       62515000	      6250	80000ba4	004fa883	lw	x17,4(x31)	 x31:0x80009f44 x17=0x8000020c PA:0x80009f48
       62525000	      6251	80000ba8	6c653f17	auipc	x30,0x6c653	 x30=0xec653ba4
       62535000	      6252	80000bac	0158cd33	xor	x26,x17,x21	 x17:0x8000020c x21:0x00000000 x26=0x8000020c
       62545000	      6253	80000bb0	040f8f93	addi	x31,x31,64	 x31:0x80009f44 x31=0x80009f84
       62555000	      6254	80000bb4	75230e93	addi	x29,x6,1874	  x6:0x400081cd x29=0x4000891f
       62565000	      6255	80000bb8	008d2833	slt	x16,x26,x8	 x26:0x8000020c  x8:0x64a72379 x16=0x00000001
       62575000	      6256	80000bbc	41828433	sub	x8,x5,x24	  x5:0xc00008cc x24:0x2f692b4c  x8=0x9096dd80
       62585000	      6257	80000bc0	00caaa33	slt	x20,x21,x12	 x21:0x00000000 x12:0x000081cd x20=0x00000001
       62595000	      6258	80000bc4	00088b93	addi	x23,x17,0	 x17:0x8000020c x23=0x8000020c
       62605000	      6259	80000bc8	000b8be7	jalr	x23,x23,0	 x23:0x8000020c x23=0x80000bc8
       62615000	      6260	00000000	00000013	addi	x0,x0,0	  x0:0x00000000
       62625000	      6261	8000020c	00000013	addi	x0,x0,0	  x0:0x00000000
       62635000	      6262	80000210	01ef9933	sll	x18,x31,x30	 x31:0x80009f84 x30:0xec653ba4 x18=0x0009f840
       62645000	      6263	80000214	8300eb93	ori	x23,x1,-2000	  x1:0xfffffbd2 x23=0xfffffbf2
       62655000	      6264	80000218	00267863	bgeu	x12,x2,80000228	 x12:0x000081cd  x2:0xbd232e47
       62665000	      6265	8000021c	00151533	sll	x10,x10,x1	 x10:0x00000001  x1:0xfffffbd2 x10=0x00040000
       62675000	      6266	80000220	a5f22c13	slti	x24,x4,-1441	  x4:0x00000001 x24=0x00000000
       62685000	      6267	80000224	00000013	addi	x0,x0,0	  x0:0x00000000
       62695000	      6268	80000228	00000013	addi	x0,x0,0	  x0:0x00000000
       62705000	      6269	8000022c	00000117	auipc	x2,0x0	  x2=0x80000228
       62715000	      6270	80000230	00c10113	addi	x2,x2,12	  x2:0x80000228  x2=0x80000234
       62725000	      6271	80000234	00010067	jalr	x0,x2,0	  x2:0x80000234
       62735000	      6272	00000000	00000013	addi	x0,x0,0	  x0:0x00000000
       62745000	      6273	80000234	00000013	addi	x0,x0,0	  x0:0x00000000
       62755000	      6274	80000238	00100193	addi	x3,x0,1	  x0:0x00000000  x3=0x00000001
       62765000	      6275	8000023c	00000073	ecall	
       62775000	      6276	80000240	5f455e97	auipc	x29,0x5f455	 x29=0xdf45523c
